; ModuleID = 'temp.bc'
source_filename = "../ac_ast_expression_nodes.cc"
target datalayout = "e-m:o-i64:64-f80:128-n8:16:32:64-S128"
target triple = "x86_64-apple-macosx10.13.0"

%"class.std::__1::locale::id" = type <{ %"struct.std::__1::once_flag", i32, [4 x i8] }>
%"struct.std::__1::once_flag" = type { i64 }
%"class.altered_carbon::js::ACAstArrowFunctionExpression" = type { %"class.altered_carbon::js::ACAstExpressionNode" }
%"class.altered_carbon::js::ACAstExpressionNode" = type { %"class.altered_carbon::js::ACAstBaseNode", %"class.std::__1::unique_ptr.1" }
%"class.altered_carbon::js::ACAstBaseNode" = type { i32 (...)**, %"class.std::__1::unique_ptr", i32, i32, %"class.std::__1::vector" }
%"class.std::__1::unique_ptr" = type { %"class.std::__1::__compressed_pair" }
%"class.std::__1::__compressed_pair" = type { %"struct.std::__1::__compressed_pair_elem" }
%"struct.std::__1::__compressed_pair_elem" = type { %"struct.altered_carbon::js::ACLexPosition"* }
%"struct.altered_carbon::js::ACLexPosition" = type { i32 (...)**, i64, i32, i64 }
%"class.std::__1::vector" = type { %"class.std::__1::__vector_base" }
%"class.std::__1::__vector_base" = type { %"class.std::__1::unique_ptr.1"*, %"class.std::__1::unique_ptr.1"*, %"class.std::__1::__compressed_pair.7" }
%"class.std::__1::__compressed_pair.7" = type { %"struct.std::__1::__compressed_pair_elem.8" }
%"struct.std::__1::__compressed_pair_elem.8" = type { %"class.std::__1::unique_ptr.1"* }
%"class.std::__1::unique_ptr.1" = type { %"class.std::__1::__compressed_pair.2" }
%"class.std::__1::__compressed_pair.2" = type { %"struct.std::__1::__compressed_pair_elem.3" }
%"struct.std::__1::__compressed_pair_elem.3" = type { %"class.altered_carbon::js::ACAstBaseNode"* }
%"struct.std::__1::__compressed_pair_elem.4" = type { i8 }
%"struct.std::__1::default_delete.5" = type { i8 }
%"struct.std::__1::__compressed_pair_elem.0" = type { i8 }
%"struct.std::__1::default_delete" = type { i8 }
%"struct.std::__1::__compressed_pair_elem.9" = type { i8 }
%"class.std::__1::allocator" = type { i8 }
%"struct.std::__1::__has_construct" = type { i8 }
%"struct.std::__1::vector<std::__1::unique_ptr<altered_carbon::js::ACAstBaseNode, std::__1::default_delete<altered_carbon::js::ACAstBaseNode> >, std::__1::allocator<std::__1::unique_ptr<altered_carbon::js::ACAstBaseNode, std::__1::default_delete<altered_carbon::js::ACAstBaseNode> > > >::__RAII_IncreaseAnnotator" = type { i8 }
%"struct.std::__1::integral_constant" = type { i8 }
%"class.std::__1::basic_ostream" = type { i32 (...)**, %"class.std::__1::basic_ios.base" }
%"class.std::__1::basic_ios.base" = type <{ %"class.std::__1::ios_base", %"class.std::__1::basic_ostream"*, i32 }>
%"class.std::__1::ios_base" = type { i32 (...)**, i32, i64, i64, i32, i32, i8*, i8*, void (i32, %"class.std::__1::ios_base"*, i32)**, i32*, i64, i64, i64*, i64, i64, i8**, i64, i64 }
%"class.altered_carbon::js::ACAstAssignmentExpression" = type <{ %"class.altered_carbon::js::ACAstExpressionNode", i32, [4 x i8] }>
%"class.altered_carbon::js::ACAstBinaryExpression" = type { %"class.altered_carbon::js::ACAstExpressionNode", i32, i32 }
%"class.altered_carbon::js::ACAstVisitable" = type { i32 (...)** }
%"class.altered_carbon::js::ACAstCallExpression" = type { %"class.altered_carbon::js::ACAstExpressionNode" }
%"class.altered_carbon::js::ACAstPostfixExpression" = type <{ %"class.altered_carbon::js::ACAstExpressionNode", i32, [4 x i8] }>
%"class.altered_carbon::js::ACAstConditionalExpression" = type { %"class.altered_carbon::js::ACAstExpressionNode" }
%"class.altered_carbon::js::ACAstNewExpression" = type { %"class.altered_carbon::js::ACAstExpressionNode" }
%"class.altered_carbon::js::ACAstPlaceHolderExpression" = type { %"class.altered_carbon::js::ACAstExpressionNode" }
%"class.std::__1::__wrap_iter" = type { %"class.std::__1::unique_ptr.1"* }
%"class.altered_carbon::js::ACAstSequenceExpression" = type { %"class.altered_carbon::js::ACAstExpressionNode" }
%"class.altered_carbon::js::ACAstUnaryExpression" = type <{ %"class.altered_carbon::js::ACAstExpressionNode", i32, [4 x i8] }>
%"class.altered_carbon::js::ACAstVariableDecl" = type { %"class.altered_carbon::js::ACAstExpressionNode" }
%"class.altered_carbon::js::ACAstFormalListExpression" = type { %"class.altered_carbon::js::ACAstExpressionNode" }
%"class.std::__1::basic_string" = type { %"class.std::__1::__compressed_pair.10" }
%"class.std::__1::__compressed_pair.10" = type { %"struct.std::__1::__compressed_pair_elem.11" }
%"struct.std::__1::__compressed_pair_elem.11" = type { %"struct.std::__1::basic_string<wchar_t, std::__1::char_traits<wchar_t>, std::__1::allocator<wchar_t> >::__rep" }
%"struct.std::__1::basic_string<wchar_t, std::__1::char_traits<wchar_t>, std::__1::allocator<wchar_t> >::__rep" = type { %union.anon }
%union.anon = type { %"struct.std::__1::basic_string<wchar_t, std::__1::char_traits<wchar_t>, std::__1::allocator<wchar_t> >::__long" }
%"struct.std::__1::basic_string<wchar_t, std::__1::char_traits<wchar_t>, std::__1::allocator<wchar_t> >::__long" = type { i64, i64, i32* }
%"class.std::__1::allocator.14" = type { i8 }
%"struct.std::__1::__compressed_pair_elem.13" = type { i8 }
%"class.std::__1::__basic_string_common" = type { i8 }
%"struct.std::__1::__has_destroy" = type { i8 }
%"struct.std::__1::__less" = type { i8 }
%"struct.std::__1::__split_buffer" = type { %"class.std::__1::unique_ptr.1"*, %"class.std::__1::unique_ptr.1"*, %"class.std::__1::unique_ptr.1"*, %"class.std::__1::__compressed_pair.16" }
%"class.std::__1::__compressed_pair.16" = type { %"struct.std::__1::__compressed_pair_elem.8", %"struct.std::__1::__compressed_pair_elem.17" }
%"struct.std::__1::__compressed_pair_elem.17" = type { %"class.std::__1::allocator"* }
%"class.std::__1::__vector_base_common" = type { i8 }
%"struct.std::__1::__has_max_size" = type { i8 }
%"class.std::__1::__split_buffer_common" = type { i8 }
%"class.std::__1::ctype" = type <{ %"class.std::__1::locale::facet", i32*, i8, [7 x i8] }>
%"class.std::__1::locale::facet" = type { %"class.std::__1::__shared_count" }
%"class.std::__1::__shared_count" = type { i32 (...)**, i64 }
%"class.std::__1::locale" = type { %"class.std::__1::locale::__imp"* }
%"class.std::__1::locale::__imp" = type opaque
%"class.std::__1::basic_ios" = type <{ %"class.std::__1::ios_base", %"class.std::__1::basic_ostream"*, i32, [4 x i8] }>
%"class.std::__1::ostreambuf_iterator" = type { %"class.std::__1::basic_streambuf"* }
%"class.std::__1::basic_streambuf" = type { i32 (...)**, %"class.std::__1::locale", i8*, i8*, i8*, i8*, i8*, i8* }
%"class.std::__1::basic_ostream<char, std::__1::char_traits<char> >::sentry" = type { i8, %"class.std::__1::basic_ostream"* }
%"struct.std::__1::iterator" = type { i8 }
%"struct.std::__1::__compressed_pair_elem.21" = type { %"struct.std::__1::basic_string<char, std::__1::char_traits<char>, std::__1::allocator<char> >::__rep" }
%"struct.std::__1::basic_string<char, std::__1::char_traits<char>, std::__1::allocator<char> >::__rep" = type { %union.anon.22 }
%union.anon.22 = type { %"struct.std::__1::basic_string<char, std::__1::char_traits<char>, std::__1::allocator<char> >::__long" }
%"struct.std::__1::basic_string<char, std::__1::char_traits<char>, std::__1::allocator<char> >::__long" = type { i64, i64, i8* }
%"class.std::__1::__compressed_pair.20" = type { %"struct.std::__1::__compressed_pair_elem.21" }
%"class.std::__1::basic_string.19" = type { %"class.std::__1::__compressed_pair.20" }
%"class.std::__1::allocator.25" = type { i8 }
%"struct.std::__1::__compressed_pair_elem.24" = type { i8 }
%"struct.std::__1::basic_string<char, std::__1::char_traits<char>, std::__1::allocator<char> >::__short" = type { %union.anon.23, [23 x i8] }
%union.anon.23 = type { i8 }

@_ZTVN14altered_carbon2js28ACAstArrowFunctionExpressionE = unnamed_addr constant { [14 x i8*] } { [14 x i8*] [i8* null, i8* bitcast ({ i8*, i8*, i8* }* @_ZTIN14altered_carbon2js28ACAstArrowFunctionExpressionE to i8*), i8* bitcast (void (%"class.altered_carbon::js::ACAstArrowFunctionExpression"*)* @_ZN14altered_carbon2js28ACAstArrowFunctionExpressionD1Ev to i8*), i8* bitcast (void (%"class.altered_carbon::js::ACAstArrowFunctionExpression"*)* @_ZN14altered_carbon2js28ACAstArrowFunctionExpressionD0Ev to i8*), i8* bitcast (i8* (%"class.altered_carbon::js::ACAstExpressionNode"*, %"class.altered_carbon::js::ACAstVisitable"*)* @_ZNK14altered_carbon2js19ACAstExpressionNode6acceptEPNS0_14ACAstVisitableE to i8*), i8* bitcast (void (%"class.std::__1::basic_string"*, %"class.altered_carbon::js::ACAstBaseNode"*)* @_ZNK14altered_carbon2js13ACAstBaseNode10identifierEv to i8*), i8* bitcast (i32 (%"class.altered_carbon::js::ACAstBaseNode"*)* @_ZNK14altered_carbon2js13ACAstBaseNode10precedenceEv to i8*), i8* bitcast (i32 (%"class.altered_carbon::js::ACAstBaseNode"*)* @_ZNK14altered_carbon2js13ACAstBaseNode2opEv to i8*), i8* bitcast (i1 (%"class.altered_carbon::js::ACAstBaseNode"*)* @_ZN14altered_carbon2js13ACAstBaseNode14convertToParamEv to i8*), i8* bitcast (i1 (%"class.altered_carbon::js::ACAstBaseNode"*)* @_ZN14altered_carbon2js13ACAstBaseNode15convertToFormalEv to i8*), i8* bitcast (void (%"class.altered_carbon::js::ACAstBaseNode"*, %"class.std::__1::basic_ostream"*)* @_ZNK14altered_carbon2js13ACAstBaseNode4dumpERNSt3__113basic_ostreamIcNS2_11char_traitsIcEEEE to i8*), i8* bitcast (void (%"class.altered_carbon::js::ACAstBaseNode"*, %"class.std::__1::basic_ostream"*)* @_ZNK14altered_carbon2js13ACAstBaseNode14dumpGraphLabelERNSt3__113basic_ostreamIcNS2_11char_traitsIcEEEE to i8*), i8* bitcast (void (%"class.altered_carbon::js::ACAstExpressionNode"*, %"class.std::__1::basic_ostream"*)* @_ZNK14altered_carbon2js19ACAstExpressionNode9dumpGraphERNSt3__113basic_ostreamIcNS2_11char_traitsIcEEEE to i8*), i8* bitcast (void (%"class.altered_carbon::js::ACAstArrowFunctionExpression"*, %"class.std::__1::basic_ostream"*)* @_ZNK14altered_carbon2js28ACAstArrowFunctionExpression14dumpChildNodesERNSt3__113basic_ostreamIcNS2_11char_traitsIcEEEE to i8*)] }, align 8
@.str = private unnamed_addr constant [7 x i8] c" *=>* \00", align 1
@_ZTVN14altered_carbon2js25ACAstAssignmentExpressionE = unnamed_addr constant { [14 x i8*] } { [14 x i8*] [i8* null, i8* bitcast ({ i8*, i8*, i8* }* @_ZTIN14altered_carbon2js25ACAstAssignmentExpressionE to i8*), i8* bitcast (void (%"class.altered_carbon::js::ACAstAssignmentExpression"*)* @_ZN14altered_carbon2js25ACAstAssignmentExpressionD1Ev to i8*), i8* bitcast (void (%"class.altered_carbon::js::ACAstAssignmentExpression"*)* @_ZN14altered_carbon2js25ACAstAssignmentExpressionD0Ev to i8*), i8* bitcast (i8* (%"class.altered_carbon::js::ACAstExpressionNode"*, %"class.altered_carbon::js::ACAstVisitable"*)* @_ZNK14altered_carbon2js19ACAstExpressionNode6acceptEPNS0_14ACAstVisitableE to i8*), i8* bitcast (void (%"class.std::__1::basic_string"*, %"class.altered_carbon::js::ACAstBaseNode"*)* @_ZNK14altered_carbon2js13ACAstBaseNode10identifierEv to i8*), i8* bitcast (i32 (%"class.altered_carbon::js::ACAstBaseNode"*)* @_ZNK14altered_carbon2js13ACAstBaseNode10precedenceEv to i8*), i8* bitcast (i32 (%"class.altered_carbon::js::ACAstAssignmentExpression"*)* @_ZNK14altered_carbon2js25ACAstAssignmentExpression2opEv to i8*), i8* bitcast (i1 (%"class.altered_carbon::js::ACAstAssignmentExpression"*)* @_ZN14altered_carbon2js25ACAstAssignmentExpression14convertToParamEv to i8*), i8* bitcast (i1 (%"class.altered_carbon::js::ACAstAssignmentExpression"*)* @_ZN14altered_carbon2js25ACAstAssignmentExpression15convertToFormalEv to i8*), i8* bitcast (void (%"class.altered_carbon::js::ACAstBaseNode"*, %"class.std::__1::basic_ostream"*)* @_ZNK14altered_carbon2js13ACAstBaseNode4dumpERNSt3__113basic_ostreamIcNS2_11char_traitsIcEEEE to i8*), i8* bitcast (void (%"class.altered_carbon::js::ACAstAssignmentExpression"*, %"class.std::__1::basic_ostream"*)* @_ZNK14altered_carbon2js25ACAstAssignmentExpression14dumpGraphLabelERNSt3__113basic_ostreamIcNS2_11char_traitsIcEEEE to i8*), i8* bitcast (void (%"class.altered_carbon::js::ACAstExpressionNode"*, %"class.std::__1::basic_ostream"*)* @_ZNK14altered_carbon2js19ACAstExpressionNode9dumpGraphERNSt3__113basic_ostreamIcNS2_11char_traitsIcEEEE to i8*), i8* bitcast (void (%"class.altered_carbon::js::ACAstAssignmentExpression"*, %"class.std::__1::basic_ostream"*)* @_ZNK14altered_carbon2js25ACAstAssignmentExpression14dumpChildNodesERNSt3__113basic_ostreamIcNS2_11char_traitsIcEEEE to i8*)] }, align 8
@_ZN14altered_carbon2js10ACLexToken11TOKEN_NAMESE = external global [0 x i8*], align 8
@.str.1 = private unnamed_addr constant [2 x i8] c"{\00", align 1
@.str.2 = private unnamed_addr constant [4 x i8] c"} {\00", align 1
@.str.3 = private unnamed_addr constant [2 x i8] c"}\00", align 1
@_ZTVN14altered_carbon2js21ACAstBinaryExpressionE = unnamed_addr constant { [14 x i8*] } { [14 x i8*] [i8* null, i8* bitcast ({ i8*, i8*, i8* }* @_ZTIN14altered_carbon2js21ACAstBinaryExpressionE to i8*), i8* bitcast (void (%"class.altered_carbon::js::ACAstBinaryExpression"*)* @_ZN14altered_carbon2js21ACAstBinaryExpressionD1Ev to i8*), i8* bitcast (void (%"class.altered_carbon::js::ACAstBinaryExpression"*)* @_ZN14altered_carbon2js21ACAstBinaryExpressionD0Ev to i8*), i8* bitcast (i8* (%"class.altered_carbon::js::ACAstBinaryExpression"*, %"class.altered_carbon::js::ACAstVisitable"*)* @_ZNK14altered_carbon2js21ACAstBinaryExpression6acceptEPNS0_14ACAstVisitableE to i8*), i8* bitcast (void (%"class.std::__1::basic_string"*, %"class.altered_carbon::js::ACAstBaseNode"*)* @_ZNK14altered_carbon2js13ACAstBaseNode10identifierEv to i8*), i8* bitcast (i32 (%"class.altered_carbon::js::ACAstBinaryExpression"*)* @_ZNK14altered_carbon2js21ACAstBinaryExpression10precedenceEv to i8*), i8* bitcast (i32 (%"class.altered_carbon::js::ACAstBinaryExpression"*)* @_ZNK14altered_carbon2js21ACAstBinaryExpression2opEv to i8*), i8* bitcast (i1 (%"class.altered_carbon::js::ACAstBaseNode"*)* @_ZN14altered_carbon2js13ACAstBaseNode14convertToParamEv to i8*), i8* bitcast (i1 (%"class.altered_carbon::js::ACAstBaseNode"*)* @_ZN14altered_carbon2js13ACAstBaseNode15convertToFormalEv to i8*), i8* bitcast (void (%"class.altered_carbon::js::ACAstBaseNode"*, %"class.std::__1::basic_ostream"*)* @_ZNK14altered_carbon2js13ACAstBaseNode4dumpERNSt3__113basic_ostreamIcNS2_11char_traitsIcEEEE to i8*), i8* bitcast (void (%"class.altered_carbon::js::ACAstBinaryExpression"*, %"class.std::__1::basic_ostream"*)* @_ZNK14altered_carbon2js21ACAstBinaryExpression14dumpGraphLabelERNSt3__113basic_ostreamIcNS2_11char_traitsIcEEEE to i8*), i8* bitcast (void (%"class.altered_carbon::js::ACAstExpressionNode"*, %"class.std::__1::basic_ostream"*)* @_ZNK14altered_carbon2js19ACAstExpressionNode9dumpGraphERNSt3__113basic_ostreamIcNS2_11char_traitsIcEEEE to i8*), i8* bitcast (void (%"class.altered_carbon::js::ACAstBinaryExpression"*, %"class.std::__1::basic_ostream"*)* @_ZNK14altered_carbon2js21ACAstBinaryExpression14dumpChildNodesERNSt3__113basic_ostreamIcNS2_11char_traitsIcEEEE to i8*)] }, align 8
@.str.4 = private unnamed_addr constant [7 x i8] c"(PREC=\00", align 1
@.str.5 = private unnamed_addr constant [3 x i8] c") \00", align 1
@.str.6 = private unnamed_addr constant [7 x i8] c"(null)\00", align 1
@.str.7 = private unnamed_addr constant [3 x i8] c" {\00", align 1
@.str.8 = private unnamed_addr constant [3 x i8] c"} \00", align 1
@_ZTVN14altered_carbon2js19ACAstCallExpressionE = unnamed_addr constant { [14 x i8*] } { [14 x i8*] [i8* null, i8* bitcast ({ i8*, i8*, i8* }* @_ZTIN14altered_carbon2js19ACAstCallExpressionE to i8*), i8* bitcast (void (%"class.altered_carbon::js::ACAstCallExpression"*)* @_ZN14altered_carbon2js19ACAstCallExpressionD1Ev to i8*), i8* bitcast (void (%"class.altered_carbon::js::ACAstCallExpression"*)* @_ZN14altered_carbon2js19ACAstCallExpressionD0Ev to i8*), i8* bitcast (i8* (%"class.altered_carbon::js::ACAstExpressionNode"*, %"class.altered_carbon::js::ACAstVisitable"*)* @_ZNK14altered_carbon2js19ACAstExpressionNode6acceptEPNS0_14ACAstVisitableE to i8*), i8* bitcast (void (%"class.std::__1::basic_string"*, %"class.altered_carbon::js::ACAstBaseNode"*)* @_ZNK14altered_carbon2js13ACAstBaseNode10identifierEv to i8*), i8* bitcast (i32 (%"class.altered_carbon::js::ACAstBaseNode"*)* @_ZNK14altered_carbon2js13ACAstBaseNode10precedenceEv to i8*), i8* bitcast (i32 (%"class.altered_carbon::js::ACAstBaseNode"*)* @_ZNK14altered_carbon2js13ACAstBaseNode2opEv to i8*), i8* bitcast (i1 (%"class.altered_carbon::js::ACAstBaseNode"*)* @_ZN14altered_carbon2js13ACAstBaseNode14convertToParamEv to i8*), i8* bitcast (i1 (%"class.altered_carbon::js::ACAstBaseNode"*)* @_ZN14altered_carbon2js13ACAstBaseNode15convertToFormalEv to i8*), i8* bitcast (void (%"class.altered_carbon::js::ACAstBaseNode"*, %"class.std::__1::basic_ostream"*)* @_ZNK14altered_carbon2js13ACAstBaseNode4dumpERNSt3__113basic_ostreamIcNS2_11char_traitsIcEEEE to i8*), i8* bitcast (void (%"class.altered_carbon::js::ACAstBaseNode"*, %"class.std::__1::basic_ostream"*)* @_ZNK14altered_carbon2js13ACAstBaseNode14dumpGraphLabelERNSt3__113basic_ostreamIcNS2_11char_traitsIcEEEE to i8*), i8* bitcast (void (%"class.altered_carbon::js::ACAstExpressionNode"*, %"class.std::__1::basic_ostream"*)* @_ZNK14altered_carbon2js19ACAstExpressionNode9dumpGraphERNSt3__113basic_ostreamIcNS2_11char_traitsIcEEEE to i8*), i8* bitcast (void (%"class.altered_carbon::js::ACAstCallExpression"*, %"class.std::__1::basic_ostream"*)* @_ZNK14altered_carbon2js19ACAstCallExpression14dumpChildNodesERNSt3__113basic_ostreamIcNS2_11char_traitsIcEEEE to i8*)] }, align 8
@.str.9 = private unnamed_addr constant [2 x i8] c"(\00", align 1
@.str.10 = private unnamed_addr constant [2 x i8] c")\00", align 1
@.str.11 = private unnamed_addr constant [6 x i8] c" <,> \00", align 1
@_ZTVN14altered_carbon2js22ACAstPostfixExpressionE = unnamed_addr constant { [14 x i8*] } { [14 x i8*] [i8* null, i8* bitcast ({ i8*, i8*, i8* }* @_ZTIN14altered_carbon2js22ACAstPostfixExpressionE to i8*), i8* bitcast (void (%"class.altered_carbon::js::ACAstPostfixExpression"*)* @_ZN14altered_carbon2js22ACAstPostfixExpressionD1Ev to i8*), i8* bitcast (void (%"class.altered_carbon::js::ACAstPostfixExpression"*)* @_ZN14altered_carbon2js22ACAstPostfixExpressionD0Ev to i8*), i8* bitcast (i8* (%"class.altered_carbon::js::ACAstExpressionNode"*, %"class.altered_carbon::js::ACAstVisitable"*)* @_ZNK14altered_carbon2js19ACAstExpressionNode6acceptEPNS0_14ACAstVisitableE to i8*), i8* bitcast (void (%"class.std::__1::basic_string"*, %"class.altered_carbon::js::ACAstBaseNode"*)* @_ZNK14altered_carbon2js13ACAstBaseNode10identifierEv to i8*), i8* bitcast (i32 (%"class.altered_carbon::js::ACAstBaseNode"*)* @_ZNK14altered_carbon2js13ACAstBaseNode10precedenceEv to i8*), i8* bitcast (i32 (%"class.altered_carbon::js::ACAstPostfixExpression"*)* @_ZNK14altered_carbon2js22ACAstPostfixExpression2opEv to i8*), i8* bitcast (i1 (%"class.altered_carbon::js::ACAstBaseNode"*)* @_ZN14altered_carbon2js13ACAstBaseNode14convertToParamEv to i8*), i8* bitcast (i1 (%"class.altered_carbon::js::ACAstBaseNode"*)* @_ZN14altered_carbon2js13ACAstBaseNode15convertToFormalEv to i8*), i8* bitcast (void (%"class.altered_carbon::js::ACAstBaseNode"*, %"class.std::__1::basic_ostream"*)* @_ZNK14altered_carbon2js13ACAstBaseNode4dumpERNSt3__113basic_ostreamIcNS2_11char_traitsIcEEEE to i8*), i8* bitcast (void (%"class.altered_carbon::js::ACAstBaseNode"*, %"class.std::__1::basic_ostream"*)* @_ZNK14altered_carbon2js13ACAstBaseNode14dumpGraphLabelERNSt3__113basic_ostreamIcNS2_11char_traitsIcEEEE to i8*), i8* bitcast (void (%"class.altered_carbon::js::ACAstExpressionNode"*, %"class.std::__1::basic_ostream"*)* @_ZNK14altered_carbon2js19ACAstExpressionNode9dumpGraphERNSt3__113basic_ostreamIcNS2_11char_traitsIcEEEE to i8*), i8* bitcast (void (%"class.altered_carbon::js::ACAstPostfixExpression"*, %"class.std::__1::basic_ostream"*)* @_ZNK14altered_carbon2js22ACAstPostfixExpression14dumpChildNodesERNSt3__113basic_ostreamIcNS2_11char_traitsIcEEEE to i8*)] }, align 8
@_ZTVN14altered_carbon2js26ACAstConditionalExpressionE = unnamed_addr constant { [14 x i8*] } { [14 x i8*] [i8* null, i8* bitcast ({ i8*, i8*, i8* }* @_ZTIN14altered_carbon2js26ACAstConditionalExpressionE to i8*), i8* bitcast (void (%"class.altered_carbon::js::ACAstConditionalExpression"*)* @_ZN14altered_carbon2js26ACAstConditionalExpressionD1Ev to i8*), i8* bitcast (void (%"class.altered_carbon::js::ACAstConditionalExpression"*)* @_ZN14altered_carbon2js26ACAstConditionalExpressionD0Ev to i8*), i8* bitcast (i8* (%"class.altered_carbon::js::ACAstExpressionNode"*, %"class.altered_carbon::js::ACAstVisitable"*)* @_ZNK14altered_carbon2js19ACAstExpressionNode6acceptEPNS0_14ACAstVisitableE to i8*), i8* bitcast (void (%"class.std::__1::basic_string"*, %"class.altered_carbon::js::ACAstBaseNode"*)* @_ZNK14altered_carbon2js13ACAstBaseNode10identifierEv to i8*), i8* bitcast (i32 (%"class.altered_carbon::js::ACAstBaseNode"*)* @_ZNK14altered_carbon2js13ACAstBaseNode10precedenceEv to i8*), i8* bitcast (i32 (%"class.altered_carbon::js::ACAstBaseNode"*)* @_ZNK14altered_carbon2js13ACAstBaseNode2opEv to i8*), i8* bitcast (i1 (%"class.altered_carbon::js::ACAstBaseNode"*)* @_ZN14altered_carbon2js13ACAstBaseNode14convertToParamEv to i8*), i8* bitcast (i1 (%"class.altered_carbon::js::ACAstBaseNode"*)* @_ZN14altered_carbon2js13ACAstBaseNode15convertToFormalEv to i8*), i8* bitcast (void (%"class.altered_carbon::js::ACAstBaseNode"*, %"class.std::__1::basic_ostream"*)* @_ZNK14altered_carbon2js13ACAstBaseNode4dumpERNSt3__113basic_ostreamIcNS2_11char_traitsIcEEEE to i8*), i8* bitcast (void (%"class.altered_carbon::js::ACAstBaseNode"*, %"class.std::__1::basic_ostream"*)* @_ZNK14altered_carbon2js13ACAstBaseNode14dumpGraphLabelERNSt3__113basic_ostreamIcNS2_11char_traitsIcEEEE to i8*), i8* bitcast (void (%"class.altered_carbon::js::ACAstConditionalExpression"*, %"class.std::__1::basic_ostream"*)* @_ZNK14altered_carbon2js26ACAstConditionalExpression9dumpGraphERNSt3__113basic_ostreamIcNS2_11char_traitsIcEEEE to i8*), i8* bitcast (void (%"class.altered_carbon::js::ACAstConditionalExpression"*, %"class.std::__1::basic_ostream"*)* @_ZNK14altered_carbon2js26ACAstConditionalExpression14dumpChildNodesERNSt3__113basic_ostreamIcNS2_11char_traitsIcEEEE to i8*)] }, align 8
@.str.12 = private unnamed_addr constant [10 x i8] c"condition\00", align 1
@.str.13 = private unnamed_addr constant [5 x i8] c"true\00", align 1
@.str.14 = private unnamed_addr constant [6 x i8] c"false\00", align 1
@.str.15 = private unnamed_addr constant [6 x i8] c" <?> \00", align 1
@.str.16 = private unnamed_addr constant [6 x i8] c" <:> \00", align 1
@_ZTVN14altered_carbon2js18ACAstNewExpressionE = unnamed_addr constant { [14 x i8*] } { [14 x i8*] [i8* null, i8* bitcast ({ i8*, i8*, i8* }* @_ZTIN14altered_carbon2js18ACAstNewExpressionE to i8*), i8* bitcast (void (%"class.altered_carbon::js::ACAstNewExpression"*)* @_ZN14altered_carbon2js18ACAstNewExpressionD1Ev to i8*), i8* bitcast (void (%"class.altered_carbon::js::ACAstNewExpression"*)* @_ZN14altered_carbon2js18ACAstNewExpressionD0Ev to i8*), i8* bitcast (i8* (%"class.altered_carbon::js::ACAstExpressionNode"*, %"class.altered_carbon::js::ACAstVisitable"*)* @_ZNK14altered_carbon2js19ACAstExpressionNode6acceptEPNS0_14ACAstVisitableE to i8*), i8* bitcast (void (%"class.std::__1::basic_string"*, %"class.altered_carbon::js::ACAstBaseNode"*)* @_ZNK14altered_carbon2js13ACAstBaseNode10identifierEv to i8*), i8* bitcast (i32 (%"class.altered_carbon::js::ACAstBaseNode"*)* @_ZNK14altered_carbon2js13ACAstBaseNode10precedenceEv to i8*), i8* bitcast (i32 (%"class.altered_carbon::js::ACAstBaseNode"*)* @_ZNK14altered_carbon2js13ACAstBaseNode2opEv to i8*), i8* bitcast (i1 (%"class.altered_carbon::js::ACAstBaseNode"*)* @_ZN14altered_carbon2js13ACAstBaseNode14convertToParamEv to i8*), i8* bitcast (i1 (%"class.altered_carbon::js::ACAstBaseNode"*)* @_ZN14altered_carbon2js13ACAstBaseNode15convertToFormalEv to i8*), i8* bitcast (void (%"class.altered_carbon::js::ACAstBaseNode"*, %"class.std::__1::basic_ostream"*)* @_ZNK14altered_carbon2js13ACAstBaseNode4dumpERNSt3__113basic_ostreamIcNS2_11char_traitsIcEEEE to i8*), i8* bitcast (void (%"class.altered_carbon::js::ACAstBaseNode"*, %"class.std::__1::basic_ostream"*)* @_ZNK14altered_carbon2js13ACAstBaseNode14dumpGraphLabelERNSt3__113basic_ostreamIcNS2_11char_traitsIcEEEE to i8*), i8* bitcast (void (%"class.altered_carbon::js::ACAstExpressionNode"*, %"class.std::__1::basic_ostream"*)* @_ZNK14altered_carbon2js19ACAstExpressionNode9dumpGraphERNSt3__113basic_ostreamIcNS2_11char_traitsIcEEEE to i8*), i8* bitcast (void (%"class.altered_carbon::js::ACAstNewExpression"*, %"class.std::__1::basic_ostream"*)* @_ZNK14altered_carbon2js18ACAstNewExpression14dumpChildNodesERNSt3__113basic_ostreamIcNS2_11char_traitsIcEEEE to i8*)] }, align 8
@_ZTVN14altered_carbon2js26ACAstPlaceHolderExpressionE = unnamed_addr constant { [14 x i8*] } { [14 x i8*] [i8* null, i8* bitcast ({ i8*, i8*, i8* }* @_ZTIN14altered_carbon2js26ACAstPlaceHolderExpressionE to i8*), i8* bitcast (void (%"class.altered_carbon::js::ACAstPlaceHolderExpression"*)* @_ZN14altered_carbon2js26ACAstPlaceHolderExpressionD1Ev to i8*), i8* bitcast (void (%"class.altered_carbon::js::ACAstPlaceHolderExpression"*)* @_ZN14altered_carbon2js26ACAstPlaceHolderExpressionD0Ev to i8*), i8* bitcast (i8* (%"class.altered_carbon::js::ACAstExpressionNode"*, %"class.altered_carbon::js::ACAstVisitable"*)* @_ZNK14altered_carbon2js19ACAstExpressionNode6acceptEPNS0_14ACAstVisitableE to i8*), i8* bitcast (void (%"class.std::__1::basic_string"*, %"class.altered_carbon::js::ACAstBaseNode"*)* @_ZNK14altered_carbon2js13ACAstBaseNode10identifierEv to i8*), i8* bitcast (i32 (%"class.altered_carbon::js::ACAstBaseNode"*)* @_ZNK14altered_carbon2js13ACAstBaseNode10precedenceEv to i8*), i8* bitcast (i32 (%"class.altered_carbon::js::ACAstBaseNode"*)* @_ZNK14altered_carbon2js13ACAstBaseNode2opEv to i8*), i8* bitcast (i1 (%"class.altered_carbon::js::ACAstBaseNode"*)* @_ZN14altered_carbon2js13ACAstBaseNode14convertToParamEv to i8*), i8* bitcast (i1 (%"class.altered_carbon::js::ACAstBaseNode"*)* @_ZN14altered_carbon2js13ACAstBaseNode15convertToFormalEv to i8*), i8* bitcast (void (%"class.altered_carbon::js::ACAstBaseNode"*, %"class.std::__1::basic_ostream"*)* @_ZNK14altered_carbon2js13ACAstBaseNode4dumpERNSt3__113basic_ostreamIcNS2_11char_traitsIcEEEE to i8*), i8* bitcast (void (%"class.altered_carbon::js::ACAstBaseNode"*, %"class.std::__1::basic_ostream"*)* @_ZNK14altered_carbon2js13ACAstBaseNode14dumpGraphLabelERNSt3__113basic_ostreamIcNS2_11char_traitsIcEEEE to i8*), i8* bitcast (void (%"class.altered_carbon::js::ACAstExpressionNode"*, %"class.std::__1::basic_ostream"*)* @_ZNK14altered_carbon2js19ACAstExpressionNode9dumpGraphERNSt3__113basic_ostreamIcNS2_11char_traitsIcEEEE to i8*), i8* bitcast (void (%"class.altered_carbon::js::ACAstPlaceHolderExpression"*, %"class.std::__1::basic_ostream"*)* @_ZNK14altered_carbon2js26ACAstPlaceHolderExpression14dumpChildNodesERNSt3__113basic_ostreamIcNS2_11char_traitsIcEEEE to i8*)] }, align 8
@.str.17 = private unnamed_addr constant [4 x i8] c")=>\00", align 1
@_ZTVN14altered_carbon2js23ACAstSequenceExpressionE = unnamed_addr constant { [14 x i8*] } { [14 x i8*] [i8* null, i8* bitcast ({ i8*, i8*, i8* }* @_ZTIN14altered_carbon2js23ACAstSequenceExpressionE to i8*), i8* bitcast (void (%"class.altered_carbon::js::ACAstSequenceExpression"*)* @_ZN14altered_carbon2js23ACAstSequenceExpressionD1Ev to i8*), i8* bitcast (void (%"class.altered_carbon::js::ACAstSequenceExpression"*)* @_ZN14altered_carbon2js23ACAstSequenceExpressionD0Ev to i8*), i8* bitcast (i8* (%"class.altered_carbon::js::ACAstExpressionNode"*, %"class.altered_carbon::js::ACAstVisitable"*)* @_ZNK14altered_carbon2js19ACAstExpressionNode6acceptEPNS0_14ACAstVisitableE to i8*), i8* bitcast (void (%"class.std::__1::basic_string"*, %"class.altered_carbon::js::ACAstBaseNode"*)* @_ZNK14altered_carbon2js13ACAstBaseNode10identifierEv to i8*), i8* bitcast (i32 (%"class.altered_carbon::js::ACAstBaseNode"*)* @_ZNK14altered_carbon2js13ACAstBaseNode10precedenceEv to i8*), i8* bitcast (i32 (%"class.altered_carbon::js::ACAstBaseNode"*)* @_ZNK14altered_carbon2js13ACAstBaseNode2opEv to i8*), i8* bitcast (i1 (%"class.altered_carbon::js::ACAstBaseNode"*)* @_ZN14altered_carbon2js13ACAstBaseNode14convertToParamEv to i8*), i8* bitcast (i1 (%"class.altered_carbon::js::ACAstBaseNode"*)* @_ZN14altered_carbon2js13ACAstBaseNode15convertToFormalEv to i8*), i8* bitcast (void (%"class.altered_carbon::js::ACAstBaseNode"*, %"class.std::__1::basic_ostream"*)* @_ZNK14altered_carbon2js13ACAstBaseNode4dumpERNSt3__113basic_ostreamIcNS2_11char_traitsIcEEEE to i8*), i8* bitcast (void (%"class.altered_carbon::js::ACAstBaseNode"*, %"class.std::__1::basic_ostream"*)* @_ZNK14altered_carbon2js13ACAstBaseNode14dumpGraphLabelERNSt3__113basic_ostreamIcNS2_11char_traitsIcEEEE to i8*), i8* bitcast (void (%"class.altered_carbon::js::ACAstExpressionNode"*, %"class.std::__1::basic_ostream"*)* @_ZNK14altered_carbon2js19ACAstExpressionNode9dumpGraphERNSt3__113basic_ostreamIcNS2_11char_traitsIcEEEE to i8*), i8* bitcast (void (%"class.altered_carbon::js::ACAstSequenceExpression"*, %"class.std::__1::basic_ostream"*)* @_ZNK14altered_carbon2js23ACAstSequenceExpression14dumpChildNodesERNSt3__113basic_ostreamIcNS2_11char_traitsIcEEEE to i8*)] }, align 8
@.str.18 = private unnamed_addr constant [1 x i8] zeroinitializer, align 1
@_ZTVN14altered_carbon2js20ACAstUnaryExpressionE = unnamed_addr constant { [14 x i8*] } { [14 x i8*] [i8* null, i8* bitcast ({ i8*, i8*, i8* }* @_ZTIN14altered_carbon2js20ACAstUnaryExpressionE to i8*), i8* bitcast (void (%"class.altered_carbon::js::ACAstUnaryExpression"*)* @_ZN14altered_carbon2js20ACAstUnaryExpressionD1Ev to i8*), i8* bitcast (void (%"class.altered_carbon::js::ACAstUnaryExpression"*)* @_ZN14altered_carbon2js20ACAstUnaryExpressionD0Ev to i8*), i8* bitcast (i8* (%"class.altered_carbon::js::ACAstExpressionNode"*, %"class.altered_carbon::js::ACAstVisitable"*)* @_ZNK14altered_carbon2js19ACAstExpressionNode6acceptEPNS0_14ACAstVisitableE to i8*), i8* bitcast (void (%"class.std::__1::basic_string"*, %"class.altered_carbon::js::ACAstBaseNode"*)* @_ZNK14altered_carbon2js13ACAstBaseNode10identifierEv to i8*), i8* bitcast (i32 (%"class.altered_carbon::js::ACAstBaseNode"*)* @_ZNK14altered_carbon2js13ACAstBaseNode10precedenceEv to i8*), i8* bitcast (i32 (%"class.altered_carbon::js::ACAstUnaryExpression"*)* @_ZNK14altered_carbon2js20ACAstUnaryExpression2opEv to i8*), i8* bitcast (i1 (%"class.altered_carbon::js::ACAstBaseNode"*)* @_ZN14altered_carbon2js13ACAstBaseNode14convertToParamEv to i8*), i8* bitcast (i1 (%"class.altered_carbon::js::ACAstBaseNode"*)* @_ZN14altered_carbon2js13ACAstBaseNode15convertToFormalEv to i8*), i8* bitcast (void (%"class.altered_carbon::js::ACAstBaseNode"*, %"class.std::__1::basic_ostream"*)* @_ZNK14altered_carbon2js13ACAstBaseNode4dumpERNSt3__113basic_ostreamIcNS2_11char_traitsIcEEEE to i8*), i8* bitcast (void (%"class.altered_carbon::js::ACAstBaseNode"*, %"class.std::__1::basic_ostream"*)* @_ZNK14altered_carbon2js13ACAstBaseNode14dumpGraphLabelERNSt3__113basic_ostreamIcNS2_11char_traitsIcEEEE to i8*), i8* bitcast (void (%"class.altered_carbon::js::ACAstExpressionNode"*, %"class.std::__1::basic_ostream"*)* @_ZNK14altered_carbon2js19ACAstExpressionNode9dumpGraphERNSt3__113basic_ostreamIcNS2_11char_traitsIcEEEE to i8*), i8* bitcast (void (%"class.altered_carbon::js::ACAstUnaryExpression"*, %"class.std::__1::basic_ostream"*)* @_ZNK14altered_carbon2js20ACAstUnaryExpression14dumpChildNodesERNSt3__113basic_ostreamIcNS2_11char_traitsIcEEEE to i8*)] }, align 8
@_ZTVN14altered_carbon2js17ACAstVariableDeclE = unnamed_addr constant { [14 x i8*] } { [14 x i8*] [i8* null, i8* bitcast ({ i8*, i8*, i8* }* @_ZTIN14altered_carbon2js17ACAstVariableDeclE to i8*), i8* bitcast (void (%"class.altered_carbon::js::ACAstVariableDecl"*)* @_ZN14altered_carbon2js17ACAstVariableDeclD1Ev to i8*), i8* bitcast (void (%"class.altered_carbon::js::ACAstVariableDecl"*)* @_ZN14altered_carbon2js17ACAstVariableDeclD0Ev to i8*), i8* bitcast (i8* (%"class.altered_carbon::js::ACAstExpressionNode"*, %"class.altered_carbon::js::ACAstVisitable"*)* @_ZNK14altered_carbon2js19ACAstExpressionNode6acceptEPNS0_14ACAstVisitableE to i8*), i8* bitcast (void (%"class.std::__1::basic_string"*, %"class.altered_carbon::js::ACAstBaseNode"*)* @_ZNK14altered_carbon2js13ACAstBaseNode10identifierEv to i8*), i8* bitcast (i32 (%"class.altered_carbon::js::ACAstBaseNode"*)* @_ZNK14altered_carbon2js13ACAstBaseNode10precedenceEv to i8*), i8* bitcast (i32 (%"class.altered_carbon::js::ACAstBaseNode"*)* @_ZNK14altered_carbon2js13ACAstBaseNode2opEv to i8*), i8* bitcast (i1 (%"class.altered_carbon::js::ACAstBaseNode"*)* @_ZN14altered_carbon2js13ACAstBaseNode14convertToParamEv to i8*), i8* bitcast (i1 (%"class.altered_carbon::js::ACAstBaseNode"*)* @_ZN14altered_carbon2js13ACAstBaseNode15convertToFormalEv to i8*), i8* bitcast (void (%"class.altered_carbon::js::ACAstBaseNode"*, %"class.std::__1::basic_ostream"*)* @_ZNK14altered_carbon2js13ACAstBaseNode4dumpERNSt3__113basic_ostreamIcNS2_11char_traitsIcEEEE to i8*), i8* bitcast (void (%"class.altered_carbon::js::ACAstBaseNode"*, %"class.std::__1::basic_ostream"*)* @_ZNK14altered_carbon2js13ACAstBaseNode14dumpGraphLabelERNSt3__113basic_ostreamIcNS2_11char_traitsIcEEEE to i8*), i8* bitcast (void (%"class.altered_carbon::js::ACAstExpressionNode"*, %"class.std::__1::basic_ostream"*)* @_ZNK14altered_carbon2js19ACAstExpressionNode9dumpGraphERNSt3__113basic_ostreamIcNS2_11char_traitsIcEEEE to i8*), i8* bitcast (void (%"class.altered_carbon::js::ACAstVariableDecl"*, %"class.std::__1::basic_ostream"*)* @_ZNK14altered_carbon2js17ACAstVariableDecl14dumpChildNodesERNSt3__113basic_ostreamIcNS2_11char_traitsIcEEEE to i8*)] }, align 8
@.str.19 = private unnamed_addr constant [6 x i8] c" *=* \00", align 1
@_ZTVN14altered_carbon2js25ACAstFormalListExpressionE = unnamed_addr constant { [14 x i8*] } { [14 x i8*] [i8* null, i8* bitcast ({ i8*, i8*, i8* }* @_ZTIN14altered_carbon2js25ACAstFormalListExpressionE to i8*), i8* bitcast (void (%"class.altered_carbon::js::ACAstFormalListExpression"*)* @_ZN14altered_carbon2js25ACAstFormalListExpressionD1Ev to i8*), i8* bitcast (void (%"class.altered_carbon::js::ACAstFormalListExpression"*)* @_ZN14altered_carbon2js25ACAstFormalListExpressionD0Ev to i8*), i8* bitcast (i8* (%"class.altered_carbon::js::ACAstExpressionNode"*, %"class.altered_carbon::js::ACAstVisitable"*)* @_ZNK14altered_carbon2js19ACAstExpressionNode6acceptEPNS0_14ACAstVisitableE to i8*), i8* bitcast (void (%"class.std::__1::basic_string"*, %"class.altered_carbon::js::ACAstBaseNode"*)* @_ZNK14altered_carbon2js13ACAstBaseNode10identifierEv to i8*), i8* bitcast (i32 (%"class.altered_carbon::js::ACAstBaseNode"*)* @_ZNK14altered_carbon2js13ACAstBaseNode10precedenceEv to i8*), i8* bitcast (i32 (%"class.altered_carbon::js::ACAstBaseNode"*)* @_ZNK14altered_carbon2js13ACAstBaseNode2opEv to i8*), i8* bitcast (i1 (%"class.altered_carbon::js::ACAstBaseNode"*)* @_ZN14altered_carbon2js13ACAstBaseNode14convertToParamEv to i8*), i8* bitcast (i1 (%"class.altered_carbon::js::ACAstBaseNode"*)* @_ZN14altered_carbon2js13ACAstBaseNode15convertToFormalEv to i8*), i8* bitcast (void (%"class.altered_carbon::js::ACAstBaseNode"*, %"class.std::__1::basic_ostream"*)* @_ZNK14altered_carbon2js13ACAstBaseNode4dumpERNSt3__113basic_ostreamIcNS2_11char_traitsIcEEEE to i8*), i8* bitcast (void (%"class.altered_carbon::js::ACAstBaseNode"*, %"class.std::__1::basic_ostream"*)* @_ZNK14altered_carbon2js13ACAstBaseNode14dumpGraphLabelERNSt3__113basic_ostreamIcNS2_11char_traitsIcEEEE to i8*), i8* bitcast (void (%"class.altered_carbon::js::ACAstExpressionNode"*, %"class.std::__1::basic_ostream"*)* @_ZNK14altered_carbon2js19ACAstExpressionNode9dumpGraphERNSt3__113basic_ostreamIcNS2_11char_traitsIcEEEE to i8*), i8* bitcast (void (%"class.altered_carbon::js::ACAstFormalListExpression"*, %"class.std::__1::basic_ostream"*)* @_ZNK14altered_carbon2js25ACAstFormalListExpression14dumpChildNodesERNSt3__113basic_ostreamIcNS2_11char_traitsIcEEEE to i8*)] }, align 8
@_ZTVN10__cxxabiv120__si_class_type_infoE = external global i8*
@_ZTSN14altered_carbon2js28ACAstArrowFunctionExpressionE = constant [52 x i8] c"N14altered_carbon2js28ACAstArrowFunctionExpressionE\00"
@_ZTIN14altered_carbon2js19ACAstExpressionNodeE = external constant i8*
@_ZTIN14altered_carbon2js28ACAstArrowFunctionExpressionE = constant { i8*, i8*, i8* } { i8* bitcast (i8** getelementptr inbounds (i8*, i8** @_ZTVN10__cxxabiv120__si_class_type_infoE, i64 2) to i8*), i8* getelementptr inbounds ([52 x i8], [52 x i8]* @_ZTSN14altered_carbon2js28ACAstArrowFunctionExpressionE, i32 0, i32 0), i8* bitcast (i8** @_ZTIN14altered_carbon2js19ACAstExpressionNodeE to i8*) }
@_ZTSN14altered_carbon2js25ACAstAssignmentExpressionE = constant [49 x i8] c"N14altered_carbon2js25ACAstAssignmentExpressionE\00"
@_ZTIN14altered_carbon2js25ACAstAssignmentExpressionE = constant { i8*, i8*, i8* } { i8* bitcast (i8** getelementptr inbounds (i8*, i8** @_ZTVN10__cxxabiv120__si_class_type_infoE, i64 2) to i8*), i8* getelementptr inbounds ([49 x i8], [49 x i8]* @_ZTSN14altered_carbon2js25ACAstAssignmentExpressionE, i32 0, i32 0), i8* bitcast (i8** @_ZTIN14altered_carbon2js19ACAstExpressionNodeE to i8*) }
@_ZTSN14altered_carbon2js21ACAstBinaryExpressionE = constant [45 x i8] c"N14altered_carbon2js21ACAstBinaryExpressionE\00"
@_ZTIN14altered_carbon2js21ACAstBinaryExpressionE = constant { i8*, i8*, i8* } { i8* bitcast (i8** getelementptr inbounds (i8*, i8** @_ZTVN10__cxxabiv120__si_class_type_infoE, i64 2) to i8*), i8* getelementptr inbounds ([45 x i8], [45 x i8]* @_ZTSN14altered_carbon2js21ACAstBinaryExpressionE, i32 0, i32 0), i8* bitcast (i8** @_ZTIN14altered_carbon2js19ACAstExpressionNodeE to i8*) }
@_ZTSN14altered_carbon2js19ACAstCallExpressionE = constant [43 x i8] c"N14altered_carbon2js19ACAstCallExpressionE\00"
@_ZTIN14altered_carbon2js19ACAstCallExpressionE = constant { i8*, i8*, i8* } { i8* bitcast (i8** getelementptr inbounds (i8*, i8** @_ZTVN10__cxxabiv120__si_class_type_infoE, i64 2) to i8*), i8* getelementptr inbounds ([43 x i8], [43 x i8]* @_ZTSN14altered_carbon2js19ACAstCallExpressionE, i32 0, i32 0), i8* bitcast (i8** @_ZTIN14altered_carbon2js19ACAstExpressionNodeE to i8*) }
@_ZTSN14altered_carbon2js22ACAstPostfixExpressionE = constant [46 x i8] c"N14altered_carbon2js22ACAstPostfixExpressionE\00"
@_ZTIN14altered_carbon2js22ACAstPostfixExpressionE = constant { i8*, i8*, i8* } { i8* bitcast (i8** getelementptr inbounds (i8*, i8** @_ZTVN10__cxxabiv120__si_class_type_infoE, i64 2) to i8*), i8* getelementptr inbounds ([46 x i8], [46 x i8]* @_ZTSN14altered_carbon2js22ACAstPostfixExpressionE, i32 0, i32 0), i8* bitcast (i8** @_ZTIN14altered_carbon2js19ACAstExpressionNodeE to i8*) }
@_ZTSN14altered_carbon2js26ACAstConditionalExpressionE = constant [50 x i8] c"N14altered_carbon2js26ACAstConditionalExpressionE\00"
@_ZTIN14altered_carbon2js26ACAstConditionalExpressionE = constant { i8*, i8*, i8* } { i8* bitcast (i8** getelementptr inbounds (i8*, i8** @_ZTVN10__cxxabiv120__si_class_type_infoE, i64 2) to i8*), i8* getelementptr inbounds ([50 x i8], [50 x i8]* @_ZTSN14altered_carbon2js26ACAstConditionalExpressionE, i32 0, i32 0), i8* bitcast (i8** @_ZTIN14altered_carbon2js19ACAstExpressionNodeE to i8*) }
@_ZTSN14altered_carbon2js18ACAstNewExpressionE = constant [42 x i8] c"N14altered_carbon2js18ACAstNewExpressionE\00"
@_ZTIN14altered_carbon2js18ACAstNewExpressionE = constant { i8*, i8*, i8* } { i8* bitcast (i8** getelementptr inbounds (i8*, i8** @_ZTVN10__cxxabiv120__si_class_type_infoE, i64 2) to i8*), i8* getelementptr inbounds ([42 x i8], [42 x i8]* @_ZTSN14altered_carbon2js18ACAstNewExpressionE, i32 0, i32 0), i8* bitcast (i8** @_ZTIN14altered_carbon2js19ACAstExpressionNodeE to i8*) }
@_ZTSN14altered_carbon2js26ACAstPlaceHolderExpressionE = constant [50 x i8] c"N14altered_carbon2js26ACAstPlaceHolderExpressionE\00"
@_ZTIN14altered_carbon2js26ACAstPlaceHolderExpressionE = constant { i8*, i8*, i8* } { i8* bitcast (i8** getelementptr inbounds (i8*, i8** @_ZTVN10__cxxabiv120__si_class_type_infoE, i64 2) to i8*), i8* getelementptr inbounds ([50 x i8], [50 x i8]* @_ZTSN14altered_carbon2js26ACAstPlaceHolderExpressionE, i32 0, i32 0), i8* bitcast (i8** @_ZTIN14altered_carbon2js19ACAstExpressionNodeE to i8*) }
@_ZTSN14altered_carbon2js23ACAstSequenceExpressionE = constant [47 x i8] c"N14altered_carbon2js23ACAstSequenceExpressionE\00"
@_ZTIN14altered_carbon2js23ACAstSequenceExpressionE = constant { i8*, i8*, i8* } { i8* bitcast (i8** getelementptr inbounds (i8*, i8** @_ZTVN10__cxxabiv120__si_class_type_infoE, i64 2) to i8*), i8* getelementptr inbounds ([47 x i8], [47 x i8]* @_ZTSN14altered_carbon2js23ACAstSequenceExpressionE, i32 0, i32 0), i8* bitcast (i8** @_ZTIN14altered_carbon2js19ACAstExpressionNodeE to i8*) }
@_ZTSN14altered_carbon2js20ACAstUnaryExpressionE = constant [44 x i8] c"N14altered_carbon2js20ACAstUnaryExpressionE\00"
@_ZTIN14altered_carbon2js20ACAstUnaryExpressionE = constant { i8*, i8*, i8* } { i8* bitcast (i8** getelementptr inbounds (i8*, i8** @_ZTVN10__cxxabiv120__si_class_type_infoE, i64 2) to i8*), i8* getelementptr inbounds ([44 x i8], [44 x i8]* @_ZTSN14altered_carbon2js20ACAstUnaryExpressionE, i32 0, i32 0), i8* bitcast (i8** @_ZTIN14altered_carbon2js19ACAstExpressionNodeE to i8*) }
@_ZTSN14altered_carbon2js17ACAstVariableDeclE = constant [41 x i8] c"N14altered_carbon2js17ACAstVariableDeclE\00"
@_ZTIN14altered_carbon2js17ACAstVariableDeclE = constant { i8*, i8*, i8* } { i8* bitcast (i8** getelementptr inbounds (i8*, i8** @_ZTVN10__cxxabiv120__si_class_type_infoE, i64 2) to i8*), i8* getelementptr inbounds ([41 x i8], [41 x i8]* @_ZTSN14altered_carbon2js17ACAstVariableDeclE, i32 0, i32 0), i8* bitcast (i8** @_ZTIN14altered_carbon2js19ACAstExpressionNodeE to i8*) }
@_ZTSN14altered_carbon2js25ACAstFormalListExpressionE = constant [49 x i8] c"N14altered_carbon2js25ACAstFormalListExpressionE\00"
@_ZTIN14altered_carbon2js25ACAstFormalListExpressionE = constant { i8*, i8*, i8* } { i8* bitcast (i8** getelementptr inbounds (i8*, i8** @_ZTVN10__cxxabiv120__si_class_type_infoE, i64 2) to i8*), i8* getelementptr inbounds ([49 x i8], [49 x i8]* @_ZTSN14altered_carbon2js25ACAstFormalListExpressionE, i32 0, i32 0), i8* bitcast (i8** @_ZTIN14altered_carbon2js19ACAstExpressionNodeE to i8*) }
@_ZTVN14altered_carbon2js19ACAstExpressionNodeE = external unnamed_addr constant { [14 x i8*] }
@_ZTVN14altered_carbon2js13ACAstBaseNodeE = external unnamed_addr constant { [14 x i8*] }
@.str.20 = private unnamed_addr constant [7 x i32] [i32 40, i32 110, i32 117, i32 108, i32 108, i32 41, i32 0], align 4
@.str.21 = private unnamed_addr constant [68 x i8] c"allocator<T>::allocate(size_t n) 'n' exceeds maximum supported size\00", align 1
@_ZNSt3__15ctypeIcE2idE = external global %"class.std::__1::locale::id", align 8

; Function Attrs: noinline nounwind optnone ssp uwtable
define void @_ZN14altered_carbon2js28ACAstArrowFunctionExpressionC2ENSt3__110unique_ptrINS0_13ACLexPositionENS2_14default_deleteIS4_EEEENS3_INS0_13ACAstBaseNodeENS5_IS8_EEEESA_NS8_11AstNodeTypeENS8_14AstNodeSubTypeE(%"class.altered_carbon::js::ACAstArrowFunctionExpression"*, %"class.std::__1::unique_ptr"*, %"class.std::__1::unique_ptr.1"*, %"class.std::__1::unique_ptr.1"*, i32, i32) unnamed_addr #0 align 2 !dbg !4881 {
  %7 = alloca %"struct.std::__1::__compressed_pair_elem.4"*, align 8
  call void @llvm.dbg.declare(metadata %"struct.std::__1::__compressed_pair_elem.4"** %7, metadata !4895, metadata !DIExpression()), !dbg !4898
  %8 = alloca %"class.std::__1::__compressed_pair.2"*, align 8
  call void @llvm.dbg.declare(metadata %"class.std::__1::__compressed_pair.2"** %8, metadata !4908, metadata !DIExpression()), !dbg !4910
  %9 = alloca %"class.std::__1::unique_ptr.1"*, align 8
  call void @llvm.dbg.declare(metadata %"class.std::__1::unique_ptr.1"** %9, metadata !4911, metadata !DIExpression()), !dbg !4912
  %10 = alloca %"struct.std::__1::default_delete.5"*, align 8
  call void @llvm.dbg.declare(metadata %"struct.std::__1::default_delete.5"** %10, metadata !4913, metadata !DIExpression()), !dbg !4922
  %11 = alloca %"class.altered_carbon::js::ACAstBaseNode"**, align 8
  call void @llvm.dbg.declare(metadata %"class.altered_carbon::js::ACAstBaseNode"*** %11, metadata !4924, metadata !DIExpression()), !dbg !4933
  %12 = alloca %"struct.std::__1::__compressed_pair_elem.3"*, align 8
  call void @llvm.dbg.declare(metadata %"struct.std::__1::__compressed_pair_elem.3"** %12, metadata !4953, metadata !DIExpression()), !dbg !4955
  %13 = alloca %"class.altered_carbon::js::ACAstBaseNode"**, align 8
  call void @llvm.dbg.declare(metadata %"class.altered_carbon::js::ACAstBaseNode"*** %13, metadata !4956, metadata !DIExpression()), !dbg !4957
  %14 = alloca %"struct.std::__1::default_delete.5"*, align 8
  call void @llvm.dbg.declare(metadata %"struct.std::__1::default_delete.5"** %14, metadata !4913, metadata !DIExpression()), !dbg !4958
  %15 = alloca %"struct.std::__1::default_delete.5"*, align 8
  call void @llvm.dbg.declare(metadata %"struct.std::__1::default_delete.5"** %15, metadata !4913, metadata !DIExpression()), !dbg !4960
  %16 = alloca %"struct.std::__1::__compressed_pair_elem.4"*, align 8
  call void @llvm.dbg.declare(metadata %"struct.std::__1::__compressed_pair_elem.4"** %16, metadata !4969, metadata !DIExpression()), !dbg !4970
  %17 = alloca %"struct.std::__1::default_delete.5"*, align 8
  call void @llvm.dbg.declare(metadata %"struct.std::__1::default_delete.5"** %17, metadata !4971, metadata !DIExpression()), !dbg !4972
  %18 = alloca %"class.altered_carbon::js::ACAstBaseNode"**, align 8
  call void @llvm.dbg.declare(metadata %"class.altered_carbon::js::ACAstBaseNode"*** %18, metadata !4924, metadata !DIExpression()), !dbg !4973
  %19 = alloca %"class.std::__1::__compressed_pair.2"*, align 8
  call void @llvm.dbg.declare(metadata %"class.std::__1::__compressed_pair.2"** %19, metadata !4975, metadata !DIExpression()), !dbg !4976
  %20 = alloca %"class.altered_carbon::js::ACAstBaseNode"**, align 8
  call void @llvm.dbg.declare(metadata %"class.altered_carbon::js::ACAstBaseNode"*** %20, metadata !4977, metadata !DIExpression()), !dbg !4978
  %21 = alloca %"struct.std::__1::default_delete.5"*, align 8
  call void @llvm.dbg.declare(metadata %"struct.std::__1::default_delete.5"** %21, metadata !4979, metadata !DIExpression()), !dbg !4980
  %22 = alloca %"class.std::__1::__compressed_pair.2"*, align 8
  call void @llvm.dbg.declare(metadata %"class.std::__1::__compressed_pair.2"** %22, metadata !4981, metadata !DIExpression()), !dbg !4982
  %23 = alloca %"class.altered_carbon::js::ACAstBaseNode"**, align 8
  call void @llvm.dbg.declare(metadata %"class.altered_carbon::js::ACAstBaseNode"*** %23, metadata !4983, metadata !DIExpression()), !dbg !4984
  %24 = alloca %"struct.std::__1::default_delete.5"*, align 8
  call void @llvm.dbg.declare(metadata %"struct.std::__1::default_delete.5"** %24, metadata !4985, metadata !DIExpression()), !dbg !4986
  %25 = alloca %"struct.std::__1::__compressed_pair_elem.3"*, align 8
  call void @llvm.dbg.declare(metadata %"struct.std::__1::__compressed_pair_elem.3"** %25, metadata !4987, metadata !DIExpression()), !dbg !4989
  %26 = alloca %"class.std::__1::__compressed_pair.2"*, align 8
  call void @llvm.dbg.declare(metadata %"class.std::__1::__compressed_pair.2"** %26, metadata !4995, metadata !DIExpression()), !dbg !4996
  %27 = alloca %"struct.std::__1::__compressed_pair_elem.3"*, align 8
  call void @llvm.dbg.declare(metadata %"struct.std::__1::__compressed_pair_elem.3"** %27, metadata !4987, metadata !DIExpression()), !dbg !4997
  %28 = alloca %"class.std::__1::__compressed_pair.2"*, align 8
  call void @llvm.dbg.declare(metadata %"class.std::__1::__compressed_pair.2"** %28, metadata !4995, metadata !DIExpression()), !dbg !5000
  %29 = alloca %"class.std::__1::unique_ptr.1"*, align 8
  call void @llvm.dbg.declare(metadata %"class.std::__1::unique_ptr.1"** %29, metadata !5001, metadata !DIExpression()), !dbg !5002
  %30 = alloca %"class.altered_carbon::js::ACAstBaseNode"*, align 8
  call void @llvm.dbg.declare(metadata %"class.altered_carbon::js::ACAstBaseNode"** %30, metadata !5003, metadata !DIExpression()), !dbg !5004
  %31 = alloca %"class.std::__1::unique_ptr.1"*, align 8
  call void @llvm.dbg.declare(metadata %"class.std::__1::unique_ptr.1"** %31, metadata !5005, metadata !DIExpression()), !dbg !5006
  %32 = alloca %"class.std::__1::unique_ptr.1"*, align 8
  call void @llvm.dbg.declare(metadata %"class.std::__1::unique_ptr.1"** %32, metadata !5007, metadata !DIExpression()), !dbg !5008
  %33 = alloca %"class.altered_carbon::js::ACAstBaseNode"*, align 8
  %34 = alloca %"class.std::__1::unique_ptr.1"*, align 8
  call void @llvm.dbg.declare(metadata %"class.std::__1::unique_ptr.1"** %34, metadata !5009, metadata !DIExpression()), !dbg !5010
  %35 = alloca %"class.std::__1::unique_ptr.1"*, align 8
  call void @llvm.dbg.declare(metadata %"class.std::__1::unique_ptr.1"** %35, metadata !5011, metadata !DIExpression()), !dbg !5012
  %36 = alloca %"struct.std::__1::__compressed_pair_elem.4"*, align 8
  call void @llvm.dbg.declare(metadata %"struct.std::__1::__compressed_pair_elem.4"** %36, metadata !4895, metadata !DIExpression()), !dbg !5013
  %37 = alloca %"class.std::__1::__compressed_pair.2"*, align 8
  call void @llvm.dbg.declare(metadata %"class.std::__1::__compressed_pair.2"** %37, metadata !4908, metadata !DIExpression()), !dbg !5024
  %38 = alloca %"struct.std::__1::__compressed_pair_elem.3"*, align 8
  call void @llvm.dbg.declare(metadata %"struct.std::__1::__compressed_pair_elem.3"** %38, metadata !4987, metadata !DIExpression()), !dbg !5025
  %39 = alloca %"class.std::__1::__compressed_pair.2"*, align 8
  call void @llvm.dbg.declare(metadata %"class.std::__1::__compressed_pair.2"** %39, metadata !4995, metadata !DIExpression()), !dbg !5028
  %40 = alloca %"struct.std::__1::default_delete.5"*, align 8
  call void @llvm.dbg.declare(metadata %"struct.std::__1::default_delete.5"** %40, metadata !5029, metadata !DIExpression()), !dbg !5032
  %41 = alloca %"class.altered_carbon::js::ACAstBaseNode"*, align 8
  call void @llvm.dbg.declare(metadata %"class.altered_carbon::js::ACAstBaseNode"** %41, metadata !5034, metadata !DIExpression()), !dbg !5035
  %42 = alloca %"struct.std::__1::__compressed_pair_elem.3"*, align 8
  call void @llvm.dbg.declare(metadata %"struct.std::__1::__compressed_pair_elem.3"** %42, metadata !4987, metadata !DIExpression()), !dbg !5036
  %43 = alloca %"class.std::__1::__compressed_pair.2"*, align 8
  call void @llvm.dbg.declare(metadata %"class.std::__1::__compressed_pair.2"** %43, metadata !4995, metadata !DIExpression()), !dbg !5039
  %44 = alloca %"class.std::__1::unique_ptr.1"*, align 8
  call void @llvm.dbg.declare(metadata %"class.std::__1::unique_ptr.1"** %44, metadata !5040, metadata !DIExpression()), !dbg !5041
  %45 = alloca %"class.altered_carbon::js::ACAstBaseNode"*, align 8
  call void @llvm.dbg.declare(metadata %"class.altered_carbon::js::ACAstBaseNode"** %45, metadata !5042, metadata !DIExpression()), !dbg !5043
  %46 = alloca %"class.altered_carbon::js::ACAstBaseNode"*, align 8
  call void @llvm.dbg.declare(metadata %"class.altered_carbon::js::ACAstBaseNode"** %46, metadata !5044, metadata !DIExpression()), !dbg !5045
  %47 = alloca %"class.std::__1::unique_ptr.1"*, align 8
  call void @llvm.dbg.declare(metadata %"class.std::__1::unique_ptr.1"** %47, metadata !5046, metadata !DIExpression()), !dbg !5047
  %48 = alloca %"class.std::__1::unique_ptr.1"*, align 8
  call void @llvm.dbg.declare(metadata %"class.std::__1::unique_ptr.1"** %48, metadata !5048, metadata !DIExpression()), !dbg !5049
  %49 = alloca %"class.std::__1::unique_ptr.1"*, align 8
  call void @llvm.dbg.declare(metadata %"class.std::__1::unique_ptr.1"** %49, metadata !5050, metadata !DIExpression()), !dbg !5059
  %50 = alloca %"struct.std::__1::__compressed_pair_elem.0"*, align 8
  call void @llvm.dbg.declare(metadata %"struct.std::__1::__compressed_pair_elem.0"** %50, metadata !5061, metadata !DIExpression()), !dbg !5064
  %51 = alloca %"class.std::__1::__compressed_pair"*, align 8
  call void @llvm.dbg.declare(metadata %"class.std::__1::__compressed_pair"** %51, metadata !5076, metadata !DIExpression()), !dbg !5078
  %52 = alloca %"struct.std::__1::__compressed_pair_elem"*, align 8
  call void @llvm.dbg.declare(metadata %"struct.std::__1::__compressed_pair_elem"** %52, metadata !5079, metadata !DIExpression()), !dbg !5082
  %53 = alloca %"class.std::__1::__compressed_pair"*, align 8
  call void @llvm.dbg.declare(metadata %"class.std::__1::__compressed_pair"** %53, metadata !5086, metadata !DIExpression()), !dbg !5087
  %54 = alloca %"struct.std::__1::default_delete"*, align 8
  call void @llvm.dbg.declare(metadata %"struct.std::__1::default_delete"** %54, metadata !5088, metadata !DIExpression()), !dbg !5091
  %55 = alloca %"struct.altered_carbon::js::ACLexPosition"*, align 8
  call void @llvm.dbg.declare(metadata %"struct.altered_carbon::js::ACLexPosition"** %55, metadata !5093, metadata !DIExpression()), !dbg !5094
  %56 = alloca %"struct.std::__1::__compressed_pair_elem"*, align 8
  call void @llvm.dbg.declare(metadata %"struct.std::__1::__compressed_pair_elem"** %56, metadata !5079, metadata !DIExpression()), !dbg !5095
  %57 = alloca %"class.std::__1::__compressed_pair"*, align 8
  call void @llvm.dbg.declare(metadata %"class.std::__1::__compressed_pair"** %57, metadata !5086, metadata !DIExpression()), !dbg !5098
  %58 = alloca %"class.std::__1::unique_ptr"*, align 8
  call void @llvm.dbg.declare(metadata %"class.std::__1::unique_ptr"** %58, metadata !5099, metadata !DIExpression()), !dbg !5101
  %59 = alloca %"struct.altered_carbon::js::ACLexPosition"*, align 8
  call void @llvm.dbg.declare(metadata %"struct.altered_carbon::js::ACLexPosition"** %59, metadata !5102, metadata !DIExpression()), !dbg !5103
  %60 = alloca %"struct.altered_carbon::js::ACLexPosition"*, align 8
  call void @llvm.dbg.declare(metadata %"struct.altered_carbon::js::ACLexPosition"** %60, metadata !5104, metadata !DIExpression()), !dbg !5105
  %61 = alloca %"class.std::__1::unique_ptr"*, align 8
  call void @llvm.dbg.declare(metadata %"class.std::__1::unique_ptr"** %61, metadata !5106, metadata !DIExpression()), !dbg !5107
  %62 = alloca %"class.std::__1::unique_ptr"*, align 8
  call void @llvm.dbg.declare(metadata %"class.std::__1::unique_ptr"** %62, metadata !5108, metadata !DIExpression()), !dbg !5109
  %63 = alloca %"class.std::__1::unique_ptr.1"*, align 8
  call void @llvm.dbg.declare(metadata %"class.std::__1::unique_ptr.1"** %63, metadata !5050, metadata !DIExpression()), !dbg !5110
  %64 = alloca %"struct.std::__1::__compressed_pair_elem.0"*, align 8
  call void @llvm.dbg.declare(metadata %"struct.std::__1::__compressed_pair_elem.0"** %64, metadata !5061, metadata !DIExpression()), !dbg !5113
  %65 = alloca %"class.std::__1::__compressed_pair"*, align 8
  call void @llvm.dbg.declare(metadata %"class.std::__1::__compressed_pair"** %65, metadata !5076, metadata !DIExpression()), !dbg !5122
  %66 = alloca %"class.std::__1::unique_ptr"*, align 8
  call void @llvm.dbg.declare(metadata %"class.std::__1::unique_ptr"** %66, metadata !5123, metadata !DIExpression()), !dbg !5124
  %67 = alloca %"struct.std::__1::default_delete"*, align 8
  call void @llvm.dbg.declare(metadata %"struct.std::__1::default_delete"** %67, metadata !5125, metadata !DIExpression()), !dbg !5134
  %68 = alloca %"struct.altered_carbon::js::ACLexPosition"**, align 8
  call void @llvm.dbg.declare(metadata %"struct.altered_carbon::js::ACLexPosition"*** %68, metadata !5136, metadata !DIExpression()), !dbg !5145
  %69 = alloca %"struct.std::__1::__compressed_pair_elem"*, align 8
  call void @llvm.dbg.declare(metadata %"struct.std::__1::__compressed_pair_elem"** %69, metadata !5164, metadata !DIExpression()), !dbg !5165
  %70 = alloca %"struct.altered_carbon::js::ACLexPosition"**, align 8
  call void @llvm.dbg.declare(metadata %"struct.altered_carbon::js::ACLexPosition"*** %70, metadata !5166, metadata !DIExpression()), !dbg !5167
  %71 = alloca %"struct.std::__1::default_delete"*, align 8
  call void @llvm.dbg.declare(metadata %"struct.std::__1::default_delete"** %71, metadata !5125, metadata !DIExpression()), !dbg !5168
  %72 = alloca %"struct.std::__1::default_delete"*, align 8
  call void @llvm.dbg.declare(metadata %"struct.std::__1::default_delete"** %72, metadata !5125, metadata !DIExpression()), !dbg !5170
  %73 = alloca %"struct.std::__1::__compressed_pair_elem.0"*, align 8
  call void @llvm.dbg.declare(metadata %"struct.std::__1::__compressed_pair_elem.0"** %73, metadata !5179, metadata !DIExpression()), !dbg !5180
  %74 = alloca %"struct.std::__1::default_delete"*, align 8
  call void @llvm.dbg.declare(metadata %"struct.std::__1::default_delete"** %74, metadata !5181, metadata !DIExpression()), !dbg !5182
  %75 = alloca %"struct.altered_carbon::js::ACLexPosition"**, align 8
  call void @llvm.dbg.declare(metadata %"struct.altered_carbon::js::ACLexPosition"*** %75, metadata !5136, metadata !DIExpression()), !dbg !5183
  %76 = alloca %"class.std::__1::__compressed_pair"*, align 8
  call void @llvm.dbg.declare(metadata %"class.std::__1::__compressed_pair"** %76, metadata !5185, metadata !DIExpression()), !dbg !5186
  %77 = alloca %"struct.altered_carbon::js::ACLexPosition"**, align 8
  call void @llvm.dbg.declare(metadata %"struct.altered_carbon::js::ACLexPosition"*** %77, metadata !5187, metadata !DIExpression()), !dbg !5188
  %78 = alloca %"struct.std::__1::default_delete"*, align 8
  call void @llvm.dbg.declare(metadata %"struct.std::__1::default_delete"** %78, metadata !5189, metadata !DIExpression()), !dbg !5190
  %79 = alloca %"class.std::__1::__compressed_pair"*, align 8
  call void @llvm.dbg.declare(metadata %"class.std::__1::__compressed_pair"** %79, metadata !5191, metadata !DIExpression()), !dbg !5192
  %80 = alloca %"struct.altered_carbon::js::ACLexPosition"**, align 8
  call void @llvm.dbg.declare(metadata %"struct.altered_carbon::js::ACLexPosition"*** %80, metadata !5193, metadata !DIExpression()), !dbg !5194
  %81 = alloca %"struct.std::__1::default_delete"*, align 8
  call void @llvm.dbg.declare(metadata %"struct.std::__1::default_delete"** %81, metadata !5195, metadata !DIExpression()), !dbg !5196
  %82 = alloca %"struct.std::__1::__compressed_pair_elem"*, align 8
  call void @llvm.dbg.declare(metadata %"struct.std::__1::__compressed_pair_elem"** %82, metadata !5079, metadata !DIExpression()), !dbg !5197
  %83 = alloca %"class.std::__1::__compressed_pair"*, align 8
  call void @llvm.dbg.declare(metadata %"class.std::__1::__compressed_pair"** %83, metadata !5086, metadata !DIExpression()), !dbg !5202
  %84 = alloca %"struct.std::__1::__compressed_pair_elem"*, align 8
  call void @llvm.dbg.declare(metadata %"struct.std::__1::__compressed_pair_elem"** %84, metadata !5079, metadata !DIExpression()), !dbg !5203
  %85 = alloca %"class.std::__1::__compressed_pair"*, align 8
  call void @llvm.dbg.declare(metadata %"class.std::__1::__compressed_pair"** %85, metadata !5086, metadata !DIExpression()), !dbg !5206
  %86 = alloca %"class.std::__1::unique_ptr"*, align 8
  call void @llvm.dbg.declare(metadata %"class.std::__1::unique_ptr"** %86, metadata !5207, metadata !DIExpression()), !dbg !5208
  %87 = alloca %"struct.altered_carbon::js::ACLexPosition"*, align 8
  call void @llvm.dbg.declare(metadata %"struct.altered_carbon::js::ACLexPosition"** %87, metadata !5209, metadata !DIExpression()), !dbg !5210
  %88 = alloca %"class.std::__1::unique_ptr"*, align 8
  call void @llvm.dbg.declare(metadata %"class.std::__1::unique_ptr"** %88, metadata !5211, metadata !DIExpression()), !dbg !5212
  %89 = alloca %"class.std::__1::unique_ptr"*, align 8
  call void @llvm.dbg.declare(metadata %"class.std::__1::unique_ptr"** %89, metadata !5213, metadata !DIExpression()), !dbg !5214
  %90 = alloca %"struct.altered_carbon::js::ACLexPosition"*, align 8
  %91 = alloca %"class.std::__1::unique_ptr"*, align 8
  call void @llvm.dbg.declare(metadata %"class.std::__1::unique_ptr"** %91, metadata !5215, metadata !DIExpression()), !dbg !5216
  %92 = alloca %"class.std::__1::unique_ptr"*, align 8
  call void @llvm.dbg.declare(metadata %"class.std::__1::unique_ptr"** %92, metadata !5217, metadata !DIExpression()), !dbg !5218
  %93 = alloca %"struct.std::__1::__compressed_pair_elem.9"*, align 8
  call void @llvm.dbg.declare(metadata %"struct.std::__1::__compressed_pair_elem.9"** %93, metadata !5219, metadata !DIExpression()), !dbg !5222
  %94 = alloca %"class.std::__1::__compressed_pair.7"*, align 8
  call void @llvm.dbg.declare(metadata %"class.std::__1::__compressed_pair.7"** %94, metadata !5232, metadata !DIExpression()), !dbg !5234
  %95 = alloca %"class.std::__1::__vector_base"*, align 8
  call void @llvm.dbg.declare(metadata %"class.std::__1::__vector_base"** %95, metadata !5235, metadata !DIExpression()), !dbg !5237
  %96 = alloca %"class.std::__1::unique_ptr.1"*, align 8
  call void @llvm.dbg.declare(metadata %"class.std::__1::unique_ptr.1"** %96, metadata !5238, metadata !DIExpression()), !dbg !5242
  %97 = alloca %"class.std::__1::unique_ptr.1"*, align 8
  call void @llvm.dbg.declare(metadata %"class.std::__1::unique_ptr.1"** %97, metadata !5050, metadata !DIExpression()), !dbg !5244
  %98 = alloca %"struct.std::__1::__compressed_pair_elem.4"*, align 8
  call void @llvm.dbg.declare(metadata %"struct.std::__1::__compressed_pair_elem.4"** %98, metadata !4895, metadata !DIExpression()), !dbg !5246
  %99 = alloca %"class.std::__1::__compressed_pair.2"*, align 8
  call void @llvm.dbg.declare(metadata %"class.std::__1::__compressed_pair.2"** %99, metadata !4908, metadata !DIExpression()), !dbg !5273
  %100 = alloca %"class.std::__1::unique_ptr.1"*, align 8
  call void @llvm.dbg.declare(metadata %"class.std::__1::unique_ptr.1"** %100, metadata !4911, metadata !DIExpression()), !dbg !5274
  %101 = alloca %"struct.std::__1::default_delete.5"*, align 8
  call void @llvm.dbg.declare(metadata %"struct.std::__1::default_delete.5"** %101, metadata !4913, metadata !DIExpression()), !dbg !5275
  %102 = alloca %"class.altered_carbon::js::ACAstBaseNode"**, align 8
  call void @llvm.dbg.declare(metadata %"class.altered_carbon::js::ACAstBaseNode"*** %102, metadata !4924, metadata !DIExpression()), !dbg !5277
  %103 = alloca %"struct.std::__1::__compressed_pair_elem.3"*, align 8
  call void @llvm.dbg.declare(metadata %"struct.std::__1::__compressed_pair_elem.3"** %103, metadata !4953, metadata !DIExpression()), !dbg !5282
  %104 = alloca %"class.altered_carbon::js::ACAstBaseNode"**, align 8
  call void @llvm.dbg.declare(metadata %"class.altered_carbon::js::ACAstBaseNode"*** %104, metadata !4956, metadata !DIExpression()), !dbg !5283
  %105 = alloca %"struct.std::__1::default_delete.5"*, align 8
  call void @llvm.dbg.declare(metadata %"struct.std::__1::default_delete.5"** %105, metadata !4913, metadata !DIExpression()), !dbg !5284
  %106 = alloca %"struct.std::__1::default_delete.5"*, align 8
  call void @llvm.dbg.declare(metadata %"struct.std::__1::default_delete.5"** %106, metadata !4913, metadata !DIExpression()), !dbg !5286
  %107 = alloca %"struct.std::__1::__compressed_pair_elem.4"*, align 8
  call void @llvm.dbg.declare(metadata %"struct.std::__1::__compressed_pair_elem.4"** %107, metadata !4969, metadata !DIExpression()), !dbg !5289
  %108 = alloca %"struct.std::__1::default_delete.5"*, align 8
  call void @llvm.dbg.declare(metadata %"struct.std::__1::default_delete.5"** %108, metadata !4971, metadata !DIExpression()), !dbg !5290
  %109 = alloca %"class.altered_carbon::js::ACAstBaseNode"**, align 8
  call void @llvm.dbg.declare(metadata %"class.altered_carbon::js::ACAstBaseNode"*** %109, metadata !4924, metadata !DIExpression()), !dbg !5291
  %110 = alloca %"class.std::__1::__compressed_pair.2"*, align 8
  call void @llvm.dbg.declare(metadata %"class.std::__1::__compressed_pair.2"** %110, metadata !4975, metadata !DIExpression()), !dbg !5293
  %111 = alloca %"class.altered_carbon::js::ACAstBaseNode"**, align 8
  call void @llvm.dbg.declare(metadata %"class.altered_carbon::js::ACAstBaseNode"*** %111, metadata !4977, metadata !DIExpression()), !dbg !5294
  %112 = alloca %"struct.std::__1::default_delete.5"*, align 8
  call void @llvm.dbg.declare(metadata %"struct.std::__1::default_delete.5"** %112, metadata !4979, metadata !DIExpression()), !dbg !5295
  %113 = alloca %"class.std::__1::__compressed_pair.2"*, align 8
  call void @llvm.dbg.declare(metadata %"class.std::__1::__compressed_pair.2"** %113, metadata !4981, metadata !DIExpression()), !dbg !5296
  %114 = alloca %"class.altered_carbon::js::ACAstBaseNode"**, align 8
  call void @llvm.dbg.declare(metadata %"class.altered_carbon::js::ACAstBaseNode"*** %114, metadata !4983, metadata !DIExpression()), !dbg !5297
  %115 = alloca %"struct.std::__1::default_delete.5"*, align 8
  call void @llvm.dbg.declare(metadata %"struct.std::__1::default_delete.5"** %115, metadata !4985, metadata !DIExpression()), !dbg !5298
  %116 = alloca %"struct.std::__1::__compressed_pair_elem.3"*, align 8
  call void @llvm.dbg.declare(metadata %"struct.std::__1::__compressed_pair_elem.3"** %116, metadata !4987, metadata !DIExpression()), !dbg !5299
  %117 = alloca %"class.std::__1::__compressed_pair.2"*, align 8
  call void @llvm.dbg.declare(metadata %"class.std::__1::__compressed_pair.2"** %117, metadata !4995, metadata !DIExpression()), !dbg !5303
  %118 = alloca %"struct.std::__1::__compressed_pair_elem.3"*, align 8
  call void @llvm.dbg.declare(metadata %"struct.std::__1::__compressed_pair_elem.3"** %118, metadata !4987, metadata !DIExpression()), !dbg !5304
  %119 = alloca %"class.std::__1::__compressed_pair.2"*, align 8
  call void @llvm.dbg.declare(metadata %"class.std::__1::__compressed_pair.2"** %119, metadata !4995, metadata !DIExpression()), !dbg !5307
  %120 = alloca %"class.std::__1::unique_ptr.1"*, align 8
  call void @llvm.dbg.declare(metadata %"class.std::__1::unique_ptr.1"** %120, metadata !5001, metadata !DIExpression()), !dbg !5308
  %121 = alloca %"class.altered_carbon::js::ACAstBaseNode"*, align 8
  call void @llvm.dbg.declare(metadata %"class.altered_carbon::js::ACAstBaseNode"** %121, metadata !5003, metadata !DIExpression()), !dbg !5309
  %122 = alloca %"class.std::__1::unique_ptr.1"*, align 8
  call void @llvm.dbg.declare(metadata %"class.std::__1::unique_ptr.1"** %122, metadata !5005, metadata !DIExpression()), !dbg !5310
  %123 = alloca %"class.std::__1::unique_ptr.1"*, align 8
  call void @llvm.dbg.declare(metadata %"class.std::__1::unique_ptr.1"** %123, metadata !5007, metadata !DIExpression()), !dbg !5311
  %124 = alloca %"class.altered_carbon::js::ACAstBaseNode"*, align 8
  %125 = alloca %"class.std::__1::unique_ptr.1"*, align 8
  call void @llvm.dbg.declare(metadata %"class.std::__1::unique_ptr.1"** %125, metadata !5009, metadata !DIExpression()), !dbg !5312
  %126 = alloca %"class.std::__1::unique_ptr.1"*, align 8
  call void @llvm.dbg.declare(metadata %"class.std::__1::unique_ptr.1"** %126, metadata !5011, metadata !DIExpression()), !dbg !5313
  %127 = alloca %"class.std::__1::unique_ptr.1"*, align 8
  call void @llvm.dbg.declare(metadata %"class.std::__1::unique_ptr.1"** %127, metadata !5314, metadata !DIExpression()), !dbg !5321
  %128 = alloca %"class.std::__1::allocator"*, align 8
  call void @llvm.dbg.declare(metadata %"class.std::__1::allocator"** %128, metadata !5323, metadata !DIExpression()), !dbg !5325
  %129 = alloca %"class.std::__1::unique_ptr.1"*, align 8
  call void @llvm.dbg.declare(metadata %"class.std::__1::unique_ptr.1"** %129, metadata !5326, metadata !DIExpression()), !dbg !5327
  %130 = alloca %"class.std::__1::unique_ptr.1"*, align 8
  call void @llvm.dbg.declare(metadata %"class.std::__1::unique_ptr.1"** %130, metadata !5328, metadata !DIExpression()), !dbg !5329
  %131 = alloca %"class.std::__1::unique_ptr.1"*, align 8
  call void @llvm.dbg.declare(metadata %"class.std::__1::unique_ptr.1"** %131, metadata !5314, metadata !DIExpression()), !dbg !5330
  %132 = alloca %"class.std::__1::allocator"*, align 8
  call void @llvm.dbg.declare(metadata %"class.std::__1::allocator"** %132, metadata !5332, metadata !DIExpression()), !dbg !5333
  %133 = alloca %"class.std::__1::unique_ptr.1"*, align 8
  call void @llvm.dbg.declare(metadata %"class.std::__1::unique_ptr.1"** %133, metadata !5334, metadata !DIExpression()), !dbg !5335
  %134 = alloca %"class.std::__1::unique_ptr.1"*, align 8
  call void @llvm.dbg.declare(metadata %"class.std::__1::unique_ptr.1"** %134, metadata !5336, metadata !DIExpression()), !dbg !5337
  %135 = alloca %"class.std::__1::unique_ptr.1"*, align 8
  call void @llvm.dbg.declare(metadata %"class.std::__1::unique_ptr.1"** %135, metadata !5314, metadata !DIExpression()), !dbg !5338
  %136 = alloca %"class.std::__1::allocator"*, align 8
  call void @llvm.dbg.declare(metadata %"class.std::__1::allocator"** %136, metadata !5340, metadata !DIExpression()), !dbg !5341
  %137 = alloca %"class.std::__1::unique_ptr.1"*, align 8
  call void @llvm.dbg.declare(metadata %"class.std::__1::unique_ptr.1"** %137, metadata !5342, metadata !DIExpression()), !dbg !5343
  %138 = alloca %"class.std::__1::unique_ptr.1"*, align 8
  call void @llvm.dbg.declare(metadata %"class.std::__1::unique_ptr.1"** %138, metadata !5344, metadata !DIExpression()), !dbg !5345
  %139 = alloca %"struct.std::__1::__has_construct", align 1
  %140 = alloca %"struct.std::__1::vector<std::__1::unique_ptr<altered_carbon::js::ACAstBaseNode, std::__1::default_delete<altered_carbon::js::ACAstBaseNode> >, std::__1::allocator<std::__1::unique_ptr<altered_carbon::js::ACAstBaseNode, std::__1::default_delete<altered_carbon::js::ACAstBaseNode> > > >::__RAII_IncreaseAnnotator"*, align 8
  call void @llvm.dbg.declare(metadata %"struct.std::__1::vector<std::__1::unique_ptr<altered_carbon::js::ACAstBaseNode, std::__1::default_delete<altered_carbon::js::ACAstBaseNode> >, std::__1::allocator<std::__1::unique_ptr<altered_carbon::js::ACAstBaseNode, std::__1::default_delete<altered_carbon::js::ACAstBaseNode> > > >::__RAII_IncreaseAnnotator"** %140, metadata !5346, metadata !DIExpression()), !dbg !5358
  %141 = alloca %"class.std::__1::unique_ptr.1"*, align 8
  call void @llvm.dbg.declare(metadata %"class.std::__1::unique_ptr.1"** %141, metadata !5050, metadata !DIExpression()), !dbg !5360
  %142 = alloca %"struct.std::__1::vector<std::__1::unique_ptr<altered_carbon::js::ACAstBaseNode, std::__1::default_delete<altered_carbon::js::ACAstBaseNode> >, std::__1::allocator<std::__1::unique_ptr<altered_carbon::js::ACAstBaseNode, std::__1::default_delete<altered_carbon::js::ACAstBaseNode> > > >::__RAII_IncreaseAnnotator"*, align 8
  call void @llvm.dbg.declare(metadata %"struct.std::__1::vector<std::__1::unique_ptr<altered_carbon::js::ACAstBaseNode, std::__1::default_delete<altered_carbon::js::ACAstBaseNode> >, std::__1::allocator<std::__1::unique_ptr<altered_carbon::js::ACAstBaseNode, std::__1::default_delete<altered_carbon::js::ACAstBaseNode> > > >::__RAII_IncreaseAnnotator"** %142, metadata !5362, metadata !DIExpression()), !dbg !5364
  %143 = alloca %"class.std::__1::vector"*, align 8
  call void @llvm.dbg.declare(metadata %"class.std::__1::vector"** %143, metadata !5368, metadata !DIExpression()), !dbg !5369
  %144 = alloca i64, align 8
  call void @llvm.dbg.declare(metadata i64* %144, metadata !5370, metadata !DIExpression()), !dbg !5371
  %145 = alloca %"struct.std::__1::vector<std::__1::unique_ptr<altered_carbon::js::ACAstBaseNode, std::__1::default_delete<altered_carbon::js::ACAstBaseNode> >, std::__1::allocator<std::__1::unique_ptr<altered_carbon::js::ACAstBaseNode, std::__1::default_delete<altered_carbon::js::ACAstBaseNode> > > >::__RAII_IncreaseAnnotator"*, align 8
  call void @llvm.dbg.declare(metadata %"struct.std::__1::vector<std::__1::unique_ptr<altered_carbon::js::ACAstBaseNode, std::__1::default_delete<altered_carbon::js::ACAstBaseNode> >, std::__1::allocator<std::__1::unique_ptr<altered_carbon::js::ACAstBaseNode, std::__1::default_delete<altered_carbon::js::ACAstBaseNode> > > >::__RAII_IncreaseAnnotator"** %145, metadata !5372, metadata !DIExpression()), !dbg !5373
  %146 = alloca %"class.std::__1::vector"*, align 8
  call void @llvm.dbg.declare(metadata %"class.std::__1::vector"** %146, metadata !5374, metadata !DIExpression()), !dbg !5375
  %147 = alloca i64, align 8
  call void @llvm.dbg.declare(metadata i64* %147, metadata !5376, metadata !DIExpression()), !dbg !5377
  %148 = alloca %"struct.std::__1::__compressed_pair_elem.8"*, align 8
  call void @llvm.dbg.declare(metadata %"struct.std::__1::__compressed_pair_elem.8"** %148, metadata !5378, metadata !DIExpression()), !dbg !5381
  %149 = alloca %"class.std::__1::__compressed_pair.7"*, align 8
  call void @llvm.dbg.declare(metadata %"class.std::__1::__compressed_pair.7"** %149, metadata !5387, metadata !DIExpression()), !dbg !5388
  %150 = alloca %"class.std::__1::__vector_base"*, align 8
  call void @llvm.dbg.declare(metadata %"class.std::__1::__vector_base"** %150, metadata !5389, metadata !DIExpression()), !dbg !5390
  %151 = alloca %"class.std::__1::vector"*, align 8
  call void @llvm.dbg.declare(metadata %"class.std::__1::vector"** %151, metadata !5391, metadata !DIExpression()), !dbg !5393
  %152 = alloca %"class.std::__1::unique_ptr.1"*, align 8
  call void @llvm.dbg.declare(metadata %"class.std::__1::unique_ptr.1"** %152, metadata !5394, metadata !DIExpression()), !dbg !5395
  %153 = alloca %"struct.std::__1::vector<std::__1::unique_ptr<altered_carbon::js::ACAstBaseNode, std::__1::default_delete<altered_carbon::js::ACAstBaseNode> >, std::__1::allocator<std::__1::unique_ptr<altered_carbon::js::ACAstBaseNode, std::__1::default_delete<altered_carbon::js::ACAstBaseNode> > > >::__RAII_IncreaseAnnotator", align 1
  call void @llvm.dbg.declare(metadata %"struct.std::__1::vector<std::__1::unique_ptr<altered_carbon::js::ACAstBaseNode, std::__1::default_delete<altered_carbon::js::ACAstBaseNode> >, std::__1::allocator<std::__1::unique_ptr<altered_carbon::js::ACAstBaseNode, std::__1::default_delete<altered_carbon::js::ACAstBaseNode> > > >::__RAII_IncreaseAnnotator"* %153, metadata !5396, metadata !DIExpression()), !dbg !5397
  %154 = alloca %"class.std::__1::unique_ptr"*, align 8
  call void @llvm.dbg.declare(metadata %"class.std::__1::unique_ptr"** %154, metadata !5398, metadata !DIExpression()), !dbg !5407
  %155 = alloca %"class.altered_carbon::js::ACAstArrowFunctionExpression"*, align 8
  %156 = alloca i32, align 4
  %157 = alloca i32, align 4
  %158 = alloca %"class.std::__1::unique_ptr", align 8
  %159 = alloca %"class.std::__1::unique_ptr.1", align 8
  store %"class.altered_carbon::js::ACAstArrowFunctionExpression"* %0, %"class.altered_carbon::js::ACAstArrowFunctionExpression"** %155, align 8
  call void @llvm.dbg.declare(metadata %"class.altered_carbon::js::ACAstArrowFunctionExpression"** %155, metadata !5409, metadata !DIExpression()), !dbg !5411
  call void @llvm.dbg.declare(metadata %"class.std::__1::unique_ptr"* %1, metadata !5412, metadata !DIExpression()), !dbg !5413
  call void @llvm.dbg.declare(metadata %"class.std::__1::unique_ptr.1"* %2, metadata !5414, metadata !DIExpression()), !dbg !5415
  call void @llvm.dbg.declare(metadata %"class.std::__1::unique_ptr.1"* %3, metadata !5416, metadata !DIExpression()), !dbg !5417
  store i32 %4, i32* %156, align 4
  call void @llvm.dbg.declare(metadata i32* %156, metadata !5418, metadata !DIExpression()), !dbg !5419
  store i32 %5, i32* %157, align 4
  call void @llvm.dbg.declare(metadata i32* %157, metadata !5420, metadata !DIExpression()), !dbg !5421
  %160 = load %"class.altered_carbon::js::ACAstArrowFunctionExpression"*, %"class.altered_carbon::js::ACAstArrowFunctionExpression"** %155, align 8
  %161 = bitcast %"class.altered_carbon::js::ACAstArrowFunctionExpression"* %160 to %"class.altered_carbon::js::ACAstExpressionNode"*, !dbg !5422
  store %"class.std::__1::unique_ptr"* %1, %"class.std::__1::unique_ptr"** %154, align 8
  %162 = load %"class.std::__1::unique_ptr"*, %"class.std::__1::unique_ptr"** %154, align 8, !dbg !5423
  store %"class.std::__1::unique_ptr"* %158, %"class.std::__1::unique_ptr"** %91, align 8
  store %"class.std::__1::unique_ptr"* %162, %"class.std::__1::unique_ptr"** %92, align 8
  %163 = load %"class.std::__1::unique_ptr"*, %"class.std::__1::unique_ptr"** %91, align 8
  %164 = load %"class.std::__1::unique_ptr"*, %"class.std::__1::unique_ptr"** %92, align 8, !dbg !5424
  store %"class.std::__1::unique_ptr"* %163, %"class.std::__1::unique_ptr"** %88, align 8
  store %"class.std::__1::unique_ptr"* %164, %"class.std::__1::unique_ptr"** %89, align 8
  %165 = load %"class.std::__1::unique_ptr"*, %"class.std::__1::unique_ptr"** %88, align 8
  %166 = getelementptr inbounds %"class.std::__1::unique_ptr", %"class.std::__1::unique_ptr"* %165, i32 0, i32 0, !dbg !5425
  %167 = load %"class.std::__1::unique_ptr"*, %"class.std::__1::unique_ptr"** %89, align 8, !dbg !5426
  store %"class.std::__1::unique_ptr"* %167, %"class.std::__1::unique_ptr"** %86, align 8
  %168 = load %"class.std::__1::unique_ptr"*, %"class.std::__1::unique_ptr"** %86, align 8
  %169 = getelementptr inbounds %"class.std::__1::unique_ptr", %"class.std::__1::unique_ptr"* %168, i32 0, i32 0, !dbg !5427
  store %"class.std::__1::__compressed_pair"* %169, %"class.std::__1::__compressed_pair"** %85, align 8
  %170 = load %"class.std::__1::__compressed_pair"*, %"class.std::__1::__compressed_pair"** %85, align 8
  %171 = bitcast %"class.std::__1::__compressed_pair"* %170 to %"struct.std::__1::__compressed_pair_elem"*, !dbg !5428
  store %"struct.std::__1::__compressed_pair_elem"* %171, %"struct.std::__1::__compressed_pair_elem"** %84, align 8
  %172 = load %"struct.std::__1::__compressed_pair_elem"*, %"struct.std::__1::__compressed_pair_elem"** %84, align 8
  %173 = getelementptr inbounds %"struct.std::__1::__compressed_pair_elem", %"struct.std::__1::__compressed_pair_elem"* %172, i32 0, i32 0, !dbg !5429
  %174 = load %"struct.altered_carbon::js::ACLexPosition"*, %"struct.altered_carbon::js::ACLexPosition"** %173, align 8, !dbg !5430
  store %"struct.altered_carbon::js::ACLexPosition"* %174, %"struct.altered_carbon::js::ACLexPosition"** %87, align 8, !dbg !5210
  %175 = getelementptr inbounds %"class.std::__1::unique_ptr", %"class.std::__1::unique_ptr"* %168, i32 0, i32 0, !dbg !5431
  store %"class.std::__1::__compressed_pair"* %175, %"class.std::__1::__compressed_pair"** %83, align 8
  %176 = load %"class.std::__1::__compressed_pair"*, %"class.std::__1::__compressed_pair"** %83, align 8
  %177 = bitcast %"class.std::__1::__compressed_pair"* %176 to %"struct.std::__1::__compressed_pair_elem"*, !dbg !5432
  store %"struct.std::__1::__compressed_pair_elem"* %177, %"struct.std::__1::__compressed_pair_elem"** %82, align 8
  %178 = load %"struct.std::__1::__compressed_pair_elem"*, %"struct.std::__1::__compressed_pair_elem"** %82, align 8
  %179 = getelementptr inbounds %"struct.std::__1::__compressed_pair_elem", %"struct.std::__1::__compressed_pair_elem"* %178, i32 0, i32 0, !dbg !5433
  store %"struct.altered_carbon::js::ACLexPosition"* null, %"struct.altered_carbon::js::ACLexPosition"** %179, align 8, !dbg !5434
  %180 = load %"struct.altered_carbon::js::ACLexPosition"*, %"struct.altered_carbon::js::ACLexPosition"** %87, align 8, !dbg !5435
  store %"struct.altered_carbon::js::ACLexPosition"* %180, %"struct.altered_carbon::js::ACLexPosition"** %90, align 8, !dbg !5426
  %181 = load %"class.std::__1::unique_ptr"*, %"class.std::__1::unique_ptr"** %89, align 8, !dbg !5436
  store %"class.std::__1::unique_ptr"* %181, %"class.std::__1::unique_ptr"** %66, align 8
  %182 = load %"class.std::__1::unique_ptr"*, %"class.std::__1::unique_ptr"** %66, align 8
  %183 = getelementptr inbounds %"class.std::__1::unique_ptr", %"class.std::__1::unique_ptr"* %182, i32 0, i32 0, !dbg !5437
  store %"class.std::__1::__compressed_pair"* %183, %"class.std::__1::__compressed_pair"** %65, align 8
  %184 = load %"class.std::__1::__compressed_pair"*, %"class.std::__1::__compressed_pair"** %65, align 8
  %185 = bitcast %"class.std::__1::__compressed_pair"* %184 to %"struct.std::__1::__compressed_pair_elem.0"*, !dbg !5438
  store %"struct.std::__1::__compressed_pair_elem.0"* %185, %"struct.std::__1::__compressed_pair_elem.0"** %64, align 8
  %186 = load %"struct.std::__1::__compressed_pair_elem.0"*, %"struct.std::__1::__compressed_pair_elem.0"** %64, align 8
  %187 = bitcast %"struct.std::__1::__compressed_pair_elem.0"* %186 to %"struct.std::__1::default_delete"*, !dbg !5439
  store %"struct.std::__1::default_delete"* %187, %"struct.std::__1::default_delete"** %67, align 8
  %188 = load %"struct.std::__1::default_delete"*, %"struct.std::__1::default_delete"** %67, align 8, !dbg !5440
  store %"class.std::__1::__compressed_pair"* %166, %"class.std::__1::__compressed_pair"** %79, align 8
  store %"struct.altered_carbon::js::ACLexPosition"** %90, %"struct.altered_carbon::js::ACLexPosition"*** %80, align 8
  store %"struct.std::__1::default_delete"* %188, %"struct.std::__1::default_delete"** %81, align 8
  %189 = load %"class.std::__1::__compressed_pair"*, %"class.std::__1::__compressed_pair"** %79, align 8
  %190 = load %"struct.altered_carbon::js::ACLexPosition"**, %"struct.altered_carbon::js::ACLexPosition"*** %80, align 8, !dbg !5441
  %191 = load %"struct.std::__1::default_delete"*, %"struct.std::__1::default_delete"** %81, align 8, !dbg !5441
  store %"class.std::__1::__compressed_pair"* %189, %"class.std::__1::__compressed_pair"** %76, align 8
  store %"struct.altered_carbon::js::ACLexPosition"** %190, %"struct.altered_carbon::js::ACLexPosition"*** %77, align 8
  store %"struct.std::__1::default_delete"* %191, %"struct.std::__1::default_delete"** %78, align 8
  %192 = load %"class.std::__1::__compressed_pair"*, %"class.std::__1::__compressed_pair"** %76, align 8
  %193 = bitcast %"class.std::__1::__compressed_pair"* %192 to %"struct.std::__1::__compressed_pair_elem"*, !dbg !5442
  %194 = load %"struct.altered_carbon::js::ACLexPosition"**, %"struct.altered_carbon::js::ACLexPosition"*** %77, align 8, !dbg !5443
  store %"struct.altered_carbon::js::ACLexPosition"** %194, %"struct.altered_carbon::js::ACLexPosition"*** %75, align 8
  %195 = load %"struct.altered_carbon::js::ACLexPosition"**, %"struct.altered_carbon::js::ACLexPosition"*** %75, align 8, !dbg !5444
  store %"struct.std::__1::__compressed_pair_elem"* %193, %"struct.std::__1::__compressed_pair_elem"** %69, align 8
  store %"struct.altered_carbon::js::ACLexPosition"** %195, %"struct.altered_carbon::js::ACLexPosition"*** %70, align 8
  %196 = load %"struct.std::__1::__compressed_pair_elem"*, %"struct.std::__1::__compressed_pair_elem"** %69, align 8
  %197 = getelementptr inbounds %"struct.std::__1::__compressed_pair_elem", %"struct.std::__1::__compressed_pair_elem"* %196, i32 0, i32 0, !dbg !5445
  %198 = load %"struct.altered_carbon::js::ACLexPosition"**, %"struct.altered_carbon::js::ACLexPosition"*** %70, align 8, !dbg !5446
  store %"struct.altered_carbon::js::ACLexPosition"** %198, %"struct.altered_carbon::js::ACLexPosition"*** %68, align 8
  %199 = load %"struct.altered_carbon::js::ACLexPosition"**, %"struct.altered_carbon::js::ACLexPosition"*** %68, align 8, !dbg !5447
  %200 = load %"struct.altered_carbon::js::ACLexPosition"*, %"struct.altered_carbon::js::ACLexPosition"** %199, align 8, !dbg !5448
  store %"struct.altered_carbon::js::ACLexPosition"* %200, %"struct.altered_carbon::js::ACLexPosition"** %197, align 8, !dbg !5445
  %201 = bitcast %"class.std::__1::__compressed_pair"* %192 to %"struct.std::__1::__compressed_pair_elem.0"*, !dbg !5442
  %202 = load %"struct.std::__1::default_delete"*, %"struct.std::__1::default_delete"** %78, align 8, !dbg !5449
  store %"struct.std::__1::default_delete"* %202, %"struct.std::__1::default_delete"** %71, align 8
  %203 = load %"struct.std::__1::default_delete"*, %"struct.std::__1::default_delete"** %71, align 8, !dbg !5450
  store %"struct.std::__1::__compressed_pair_elem.0"* %201, %"struct.std::__1::__compressed_pair_elem.0"** %73, align 8
  store %"struct.std::__1::default_delete"* %203, %"struct.std::__1::default_delete"** %74, align 8
  %204 = load %"struct.std::__1::__compressed_pair_elem.0"*, %"struct.std::__1::__compressed_pair_elem.0"** %73, align 8
  %205 = bitcast %"struct.std::__1::__compressed_pair_elem.0"* %204 to %"struct.std::__1::default_delete"*, !dbg !5451
  %206 = load %"struct.std::__1::default_delete"*, %"struct.std::__1::default_delete"** %74, align 8, !dbg !5452
  store %"struct.std::__1::default_delete"* %206, %"struct.std::__1::default_delete"** %72, align 8
  %207 = load %"struct.std::__1::default_delete"*, %"struct.std::__1::default_delete"** %72, align 8, !dbg !5453
  store %"class.std::__1::unique_ptr.1"* %2, %"class.std::__1::unique_ptr.1"** %49, align 8
  %208 = load %"class.std::__1::unique_ptr.1"*, %"class.std::__1::unique_ptr.1"** %49, align 8, !dbg !5454
  store %"class.std::__1::unique_ptr.1"* %159, %"class.std::__1::unique_ptr.1"** %34, align 8
  store %"class.std::__1::unique_ptr.1"* %208, %"class.std::__1::unique_ptr.1"** %35, align 8
  %209 = load %"class.std::__1::unique_ptr.1"*, %"class.std::__1::unique_ptr.1"** %34, align 8
  %210 = load %"class.std::__1::unique_ptr.1"*, %"class.std::__1::unique_ptr.1"** %35, align 8, !dbg !5455
  store %"class.std::__1::unique_ptr.1"* %209, %"class.std::__1::unique_ptr.1"** %31, align 8
  store %"class.std::__1::unique_ptr.1"* %210, %"class.std::__1::unique_ptr.1"** %32, align 8
  %211 = load %"class.std::__1::unique_ptr.1"*, %"class.std::__1::unique_ptr.1"** %31, align 8
  %212 = getelementptr inbounds %"class.std::__1::unique_ptr.1", %"class.std::__1::unique_ptr.1"* %211, i32 0, i32 0, !dbg !5456
  %213 = load %"class.std::__1::unique_ptr.1"*, %"class.std::__1::unique_ptr.1"** %32, align 8, !dbg !5457
  store %"class.std::__1::unique_ptr.1"* %213, %"class.std::__1::unique_ptr.1"** %29, align 8
  %214 = load %"class.std::__1::unique_ptr.1"*, %"class.std::__1::unique_ptr.1"** %29, align 8
  %215 = getelementptr inbounds %"class.std::__1::unique_ptr.1", %"class.std::__1::unique_ptr.1"* %214, i32 0, i32 0, !dbg !5458
  store %"class.std::__1::__compressed_pair.2"* %215, %"class.std::__1::__compressed_pair.2"** %28, align 8
  %216 = load %"class.std::__1::__compressed_pair.2"*, %"class.std::__1::__compressed_pair.2"** %28, align 8
  %217 = bitcast %"class.std::__1::__compressed_pair.2"* %216 to %"struct.std::__1::__compressed_pair_elem.3"*, !dbg !5459
  store %"struct.std::__1::__compressed_pair_elem.3"* %217, %"struct.std::__1::__compressed_pair_elem.3"** %27, align 8
  %218 = load %"struct.std::__1::__compressed_pair_elem.3"*, %"struct.std::__1::__compressed_pair_elem.3"** %27, align 8
  %219 = getelementptr inbounds %"struct.std::__1::__compressed_pair_elem.3", %"struct.std::__1::__compressed_pair_elem.3"* %218, i32 0, i32 0, !dbg !5460
  %220 = load %"class.altered_carbon::js::ACAstBaseNode"*, %"class.altered_carbon::js::ACAstBaseNode"** %219, align 8, !dbg !5461
  store %"class.altered_carbon::js::ACAstBaseNode"* %220, %"class.altered_carbon::js::ACAstBaseNode"** %30, align 8, !dbg !5004
  %221 = getelementptr inbounds %"class.std::__1::unique_ptr.1", %"class.std::__1::unique_ptr.1"* %214, i32 0, i32 0, !dbg !5462
  store %"class.std::__1::__compressed_pair.2"* %221, %"class.std::__1::__compressed_pair.2"** %26, align 8
  %222 = load %"class.std::__1::__compressed_pair.2"*, %"class.std::__1::__compressed_pair.2"** %26, align 8
  %223 = bitcast %"class.std::__1::__compressed_pair.2"* %222 to %"struct.std::__1::__compressed_pair_elem.3"*, !dbg !5463
  store %"struct.std::__1::__compressed_pair_elem.3"* %223, %"struct.std::__1::__compressed_pair_elem.3"** %25, align 8
  %224 = load %"struct.std::__1::__compressed_pair_elem.3"*, %"struct.std::__1::__compressed_pair_elem.3"** %25, align 8
  %225 = getelementptr inbounds %"struct.std::__1::__compressed_pair_elem.3", %"struct.std::__1::__compressed_pair_elem.3"* %224, i32 0, i32 0, !dbg !5464
  store %"class.altered_carbon::js::ACAstBaseNode"* null, %"class.altered_carbon::js::ACAstBaseNode"** %225, align 8, !dbg !5465
  %226 = load %"class.altered_carbon::js::ACAstBaseNode"*, %"class.altered_carbon::js::ACAstBaseNode"** %30, align 8, !dbg !5466
  store %"class.altered_carbon::js::ACAstBaseNode"* %226, %"class.altered_carbon::js::ACAstBaseNode"** %33, align 8, !dbg !5457
  %227 = load %"class.std::__1::unique_ptr.1"*, %"class.std::__1::unique_ptr.1"** %32, align 8, !dbg !5467
  store %"class.std::__1::unique_ptr.1"* %227, %"class.std::__1::unique_ptr.1"** %9, align 8
  %228 = load %"class.std::__1::unique_ptr.1"*, %"class.std::__1::unique_ptr.1"** %9, align 8
  %229 = getelementptr inbounds %"class.std::__1::unique_ptr.1", %"class.std::__1::unique_ptr.1"* %228, i32 0, i32 0, !dbg !5468
  store %"class.std::__1::__compressed_pair.2"* %229, %"class.std::__1::__compressed_pair.2"** %8, align 8
  %230 = load %"class.std::__1::__compressed_pair.2"*, %"class.std::__1::__compressed_pair.2"** %8, align 8
  %231 = bitcast %"class.std::__1::__compressed_pair.2"* %230 to %"struct.std::__1::__compressed_pair_elem.4"*, !dbg !5469
  store %"struct.std::__1::__compressed_pair_elem.4"* %231, %"struct.std::__1::__compressed_pair_elem.4"** %7, align 8
  %232 = load %"struct.std::__1::__compressed_pair_elem.4"*, %"struct.std::__1::__compressed_pair_elem.4"** %7, align 8
  %233 = bitcast %"struct.std::__1::__compressed_pair_elem.4"* %232 to %"struct.std::__1::default_delete.5"*, !dbg !5470
  store %"struct.std::__1::default_delete.5"* %233, %"struct.std::__1::default_delete.5"** %10, align 8
  %234 = load %"struct.std::__1::default_delete.5"*, %"struct.std::__1::default_delete.5"** %10, align 8, !dbg !5471
  store %"class.std::__1::__compressed_pair.2"* %212, %"class.std::__1::__compressed_pair.2"** %22, align 8
  store %"class.altered_carbon::js::ACAstBaseNode"** %33, %"class.altered_carbon::js::ACAstBaseNode"*** %23, align 8
  store %"struct.std::__1::default_delete.5"* %234, %"struct.std::__1::default_delete.5"** %24, align 8
  %235 = load %"class.std::__1::__compressed_pair.2"*, %"class.std::__1::__compressed_pair.2"** %22, align 8
  %236 = load %"class.altered_carbon::js::ACAstBaseNode"**, %"class.altered_carbon::js::ACAstBaseNode"*** %23, align 8, !dbg !5472
  %237 = load %"struct.std::__1::default_delete.5"*, %"struct.std::__1::default_delete.5"** %24, align 8, !dbg !5472
  store %"class.std::__1::__compressed_pair.2"* %235, %"class.std::__1::__compressed_pair.2"** %19, align 8
  store %"class.altered_carbon::js::ACAstBaseNode"** %236, %"class.altered_carbon::js::ACAstBaseNode"*** %20, align 8
  store %"struct.std::__1::default_delete.5"* %237, %"struct.std::__1::default_delete.5"** %21, align 8
  %238 = load %"class.std::__1::__compressed_pair.2"*, %"class.std::__1::__compressed_pair.2"** %19, align 8
  %239 = bitcast %"class.std::__1::__compressed_pair.2"* %238 to %"struct.std::__1::__compressed_pair_elem.3"*, !dbg !5473
  %240 = load %"class.altered_carbon::js::ACAstBaseNode"**, %"class.altered_carbon::js::ACAstBaseNode"*** %20, align 8, !dbg !5474
  store %"class.altered_carbon::js::ACAstBaseNode"** %240, %"class.altered_carbon::js::ACAstBaseNode"*** %18, align 8
  %241 = load %"class.altered_carbon::js::ACAstBaseNode"**, %"class.altered_carbon::js::ACAstBaseNode"*** %18, align 8, !dbg !5475
  store %"struct.std::__1::__compressed_pair_elem.3"* %239, %"struct.std::__1::__compressed_pair_elem.3"** %12, align 8
  store %"class.altered_carbon::js::ACAstBaseNode"** %241, %"class.altered_carbon::js::ACAstBaseNode"*** %13, align 8
  %242 = load %"struct.std::__1::__compressed_pair_elem.3"*, %"struct.std::__1::__compressed_pair_elem.3"** %12, align 8
  %243 = getelementptr inbounds %"struct.std::__1::__compressed_pair_elem.3", %"struct.std::__1::__compressed_pair_elem.3"* %242, i32 0, i32 0, !dbg !5476
  %244 = load %"class.altered_carbon::js::ACAstBaseNode"**, %"class.altered_carbon::js::ACAstBaseNode"*** %13, align 8, !dbg !5477
  store %"class.altered_carbon::js::ACAstBaseNode"** %244, %"class.altered_carbon::js::ACAstBaseNode"*** %11, align 8
  %245 = load %"class.altered_carbon::js::ACAstBaseNode"**, %"class.altered_carbon::js::ACAstBaseNode"*** %11, align 8, !dbg !5478
  %246 = load %"class.altered_carbon::js::ACAstBaseNode"*, %"class.altered_carbon::js::ACAstBaseNode"** %245, align 8, !dbg !5479
  store %"class.altered_carbon::js::ACAstBaseNode"* %246, %"class.altered_carbon::js::ACAstBaseNode"** %243, align 8, !dbg !5476
  %247 = bitcast %"class.std::__1::__compressed_pair.2"* %238 to %"struct.std::__1::__compressed_pair_elem.4"*, !dbg !5473
  %248 = load %"struct.std::__1::default_delete.5"*, %"struct.std::__1::default_delete.5"** %21, align 8, !dbg !5480
  store %"struct.std::__1::default_delete.5"* %248, %"struct.std::__1::default_delete.5"** %14, align 8
  %249 = load %"struct.std::__1::default_delete.5"*, %"struct.std::__1::default_delete.5"** %14, align 8, !dbg !5481
  store %"struct.std::__1::__compressed_pair_elem.4"* %247, %"struct.std::__1::__compressed_pair_elem.4"** %16, align 8
  store %"struct.std::__1::default_delete.5"* %249, %"struct.std::__1::default_delete.5"** %17, align 8
  %250 = load %"struct.std::__1::__compressed_pair_elem.4"*, %"struct.std::__1::__compressed_pair_elem.4"** %16, align 8
  %251 = bitcast %"struct.std::__1::__compressed_pair_elem.4"* %250 to %"struct.std::__1::default_delete.5"*, !dbg !5482
  %252 = load %"struct.std::__1::default_delete.5"*, %"struct.std::__1::default_delete.5"** %17, align 8, !dbg !5483
  store %"struct.std::__1::default_delete.5"* %252, %"struct.std::__1::default_delete.5"** %15, align 8
  %253 = load %"struct.std::__1::default_delete.5"*, %"struct.std::__1::default_delete.5"** %15, align 8, !dbg !5484
  %254 = load i32, i32* %156, align 4, !dbg !5485
  %255 = load i32, i32* %157, align 4, !dbg !5486
  call void @_ZN14altered_carbon2js19ACAstExpressionNodeC2ENSt3__110unique_ptrINS0_13ACLexPositionENS2_14default_deleteIS4_EEEENS3_INS0_13ACAstBaseNodeENS5_IS8_EEEENS8_11AstNodeTypeENS8_14AstNodeSubTypeE(%"class.altered_carbon::js::ACAstExpressionNode"* %161, %"class.std::__1::unique_ptr"* %158, %"class.std::__1::unique_ptr.1"* %159, i32 %254, i32 %255), !dbg !5487
  store %"class.std::__1::unique_ptr.1"* %159, %"class.std::__1::unique_ptr.1"** %48, align 8
  %256 = load %"class.std::__1::unique_ptr.1"*, %"class.std::__1::unique_ptr.1"** %48, align 8
  store %"class.std::__1::unique_ptr.1"* %256, %"class.std::__1::unique_ptr.1"** %47, align 8
  %257 = load %"class.std::__1::unique_ptr.1"*, %"class.std::__1::unique_ptr.1"** %47, align 8
  store %"class.std::__1::unique_ptr.1"* %257, %"class.std::__1::unique_ptr.1"** %44, align 8
  store %"class.altered_carbon::js::ACAstBaseNode"* null, %"class.altered_carbon::js::ACAstBaseNode"** %45, align 8
  %258 = load %"class.std::__1::unique_ptr.1"*, %"class.std::__1::unique_ptr.1"** %44, align 8
  %259 = getelementptr inbounds %"class.std::__1::unique_ptr.1", %"class.std::__1::unique_ptr.1"* %258, i32 0, i32 0, !dbg !5488
  store %"class.std::__1::__compressed_pair.2"* %259, %"class.std::__1::__compressed_pair.2"** %43, align 8
  %260 = load %"class.std::__1::__compressed_pair.2"*, %"class.std::__1::__compressed_pair.2"** %43, align 8
  %261 = bitcast %"class.std::__1::__compressed_pair.2"* %260 to %"struct.std::__1::__compressed_pair_elem.3"*, !dbg !5489
  store %"struct.std::__1::__compressed_pair_elem.3"* %261, %"struct.std::__1::__compressed_pair_elem.3"** %42, align 8
  %262 = load %"struct.std::__1::__compressed_pair_elem.3"*, %"struct.std::__1::__compressed_pair_elem.3"** %42, align 8
  %263 = getelementptr inbounds %"struct.std::__1::__compressed_pair_elem.3", %"struct.std::__1::__compressed_pair_elem.3"* %262, i32 0, i32 0, !dbg !5490
  %264 = load %"class.altered_carbon::js::ACAstBaseNode"*, %"class.altered_carbon::js::ACAstBaseNode"** %263, align 8, !dbg !5491
  store %"class.altered_carbon::js::ACAstBaseNode"* %264, %"class.altered_carbon::js::ACAstBaseNode"** %46, align 8, !dbg !5045
  %265 = load %"class.altered_carbon::js::ACAstBaseNode"*, %"class.altered_carbon::js::ACAstBaseNode"** %45, align 8, !dbg !5492
  %266 = getelementptr inbounds %"class.std::__1::unique_ptr.1", %"class.std::__1::unique_ptr.1"* %258, i32 0, i32 0, !dbg !5493
  store %"class.std::__1::__compressed_pair.2"* %266, %"class.std::__1::__compressed_pair.2"** %39, align 8
  %267 = load %"class.std::__1::__compressed_pair.2"*, %"class.std::__1::__compressed_pair.2"** %39, align 8
  %268 = bitcast %"class.std::__1::__compressed_pair.2"* %267 to %"struct.std::__1::__compressed_pair_elem.3"*, !dbg !5494
  store %"struct.std::__1::__compressed_pair_elem.3"* %268, %"struct.std::__1::__compressed_pair_elem.3"** %38, align 8
  %269 = load %"struct.std::__1::__compressed_pair_elem.3"*, %"struct.std::__1::__compressed_pair_elem.3"** %38, align 8
  %270 = getelementptr inbounds %"struct.std::__1::__compressed_pair_elem.3", %"struct.std::__1::__compressed_pair_elem.3"* %269, i32 0, i32 0, !dbg !5495
  store %"class.altered_carbon::js::ACAstBaseNode"* %265, %"class.altered_carbon::js::ACAstBaseNode"** %270, align 8, !dbg !5496
  %271 = load %"class.altered_carbon::js::ACAstBaseNode"*, %"class.altered_carbon::js::ACAstBaseNode"** %46, align 8, !dbg !5497
  %272 = icmp ne %"class.altered_carbon::js::ACAstBaseNode"* %271, null, !dbg !5497
  br i1 %272, label %273, label %289, !dbg !5498

; <label>:273:                                    ; preds = %6
  %274 = getelementptr inbounds %"class.std::__1::unique_ptr.1", %"class.std::__1::unique_ptr.1"* %258, i32 0, i32 0, !dbg !5499
  store %"class.std::__1::__compressed_pair.2"* %274, %"class.std::__1::__compressed_pair.2"** %37, align 8
  %275 = load %"class.std::__1::__compressed_pair.2"*, %"class.std::__1::__compressed_pair.2"** %37, align 8
  %276 = bitcast %"class.std::__1::__compressed_pair.2"* %275 to %"struct.std::__1::__compressed_pair_elem.4"*, !dbg !5500
  store %"struct.std::__1::__compressed_pair_elem.4"* %276, %"struct.std::__1::__compressed_pair_elem.4"** %36, align 8
  %277 = load %"struct.std::__1::__compressed_pair_elem.4"*, %"struct.std::__1::__compressed_pair_elem.4"** %36, align 8
  %278 = bitcast %"struct.std::__1::__compressed_pair_elem.4"* %277 to %"struct.std::__1::default_delete.5"*, !dbg !5501
  %279 = load %"class.altered_carbon::js::ACAstBaseNode"*, %"class.altered_carbon::js::ACAstBaseNode"** %46, align 8, !dbg !5502
  store %"struct.std::__1::default_delete.5"* %278, %"struct.std::__1::default_delete.5"** %40, align 8
  store %"class.altered_carbon::js::ACAstBaseNode"* %279, %"class.altered_carbon::js::ACAstBaseNode"** %41, align 8
  %280 = load %"struct.std::__1::default_delete.5"*, %"struct.std::__1::default_delete.5"** %40, align 8
  %281 = load %"class.altered_carbon::js::ACAstBaseNode"*, %"class.altered_carbon::js::ACAstBaseNode"** %41, align 8, !dbg !5503
  %282 = icmp eq %"class.altered_carbon::js::ACAstBaseNode"* %281, null, !dbg !5504
  br i1 %282, label %288, label %283, !dbg !5504

; <label>:283:                                    ; preds = %273
  %284 = bitcast %"class.altered_carbon::js::ACAstBaseNode"* %281 to void (%"class.altered_carbon::js::ACAstBaseNode"*)***, !dbg !5504
  %285 = load void (%"class.altered_carbon::js::ACAstBaseNode"*)**, void (%"class.altered_carbon::js::ACAstBaseNode"*)*** %284, align 8, !dbg !5504
  %286 = getelementptr inbounds void (%"class.altered_carbon::js::ACAstBaseNode"*)*, void (%"class.altered_carbon::js::ACAstBaseNode"*)** %285, i64 1, !dbg !5504
  %287 = load void (%"class.altered_carbon::js::ACAstBaseNode"*)*, void (%"class.altered_carbon::js::ACAstBaseNode"*)** %286, align 8, !dbg !5504
  call void %287(%"class.altered_carbon::js::ACAstBaseNode"* %281) #8, !dbg !5504
  br label %288, !dbg !5504

; <label>:288:                                    ; preds = %283, %273
  br label %289, !dbg !5499

; <label>:289:                                    ; preds = %6, %288
  store %"class.std::__1::unique_ptr"* %158, %"class.std::__1::unique_ptr"** %62, align 8
  %290 = load %"class.std::__1::unique_ptr"*, %"class.std::__1::unique_ptr"** %62, align 8
  store %"class.std::__1::unique_ptr"* %290, %"class.std::__1::unique_ptr"** %61, align 8
  %291 = load %"class.std::__1::unique_ptr"*, %"class.std::__1::unique_ptr"** %61, align 8
  store %"class.std::__1::unique_ptr"* %291, %"class.std::__1::unique_ptr"** %58, align 8
  store %"struct.altered_carbon::js::ACLexPosition"* null, %"struct.altered_carbon::js::ACLexPosition"** %59, align 8
  %292 = load %"class.std::__1::unique_ptr"*, %"class.std::__1::unique_ptr"** %58, align 8
  %293 = getelementptr inbounds %"class.std::__1::unique_ptr", %"class.std::__1::unique_ptr"* %292, i32 0, i32 0, !dbg !5505
  store %"class.std::__1::__compressed_pair"* %293, %"class.std::__1::__compressed_pair"** %57, align 8
  %294 = load %"class.std::__1::__compressed_pair"*, %"class.std::__1::__compressed_pair"** %57, align 8
  %295 = bitcast %"class.std::__1::__compressed_pair"* %294 to %"struct.std::__1::__compressed_pair_elem"*, !dbg !5506
  store %"struct.std::__1::__compressed_pair_elem"* %295, %"struct.std::__1::__compressed_pair_elem"** %56, align 8
  %296 = load %"struct.std::__1::__compressed_pair_elem"*, %"struct.std::__1::__compressed_pair_elem"** %56, align 8
  %297 = getelementptr inbounds %"struct.std::__1::__compressed_pair_elem", %"struct.std::__1::__compressed_pair_elem"* %296, i32 0, i32 0, !dbg !5507
  %298 = load %"struct.altered_carbon::js::ACLexPosition"*, %"struct.altered_carbon::js::ACLexPosition"** %297, align 8, !dbg !5508
  store %"struct.altered_carbon::js::ACLexPosition"* %298, %"struct.altered_carbon::js::ACLexPosition"** %60, align 8, !dbg !5105
  %299 = load %"struct.altered_carbon::js::ACLexPosition"*, %"struct.altered_carbon::js::ACLexPosition"** %59, align 8, !dbg !5509
  %300 = getelementptr inbounds %"class.std::__1::unique_ptr", %"class.std::__1::unique_ptr"* %292, i32 0, i32 0, !dbg !5510
  store %"class.std::__1::__compressed_pair"* %300, %"class.std::__1::__compressed_pair"** %53, align 8
  %301 = load %"class.std::__1::__compressed_pair"*, %"class.std::__1::__compressed_pair"** %53, align 8
  %302 = bitcast %"class.std::__1::__compressed_pair"* %301 to %"struct.std::__1::__compressed_pair_elem"*, !dbg !5511
  store %"struct.std::__1::__compressed_pair_elem"* %302, %"struct.std::__1::__compressed_pair_elem"** %52, align 8
  %303 = load %"struct.std::__1::__compressed_pair_elem"*, %"struct.std::__1::__compressed_pair_elem"** %52, align 8
  %304 = getelementptr inbounds %"struct.std::__1::__compressed_pair_elem", %"struct.std::__1::__compressed_pair_elem"* %303, i32 0, i32 0, !dbg !5512
  store %"struct.altered_carbon::js::ACLexPosition"* %299, %"struct.altered_carbon::js::ACLexPosition"** %304, align 8, !dbg !5513
  %305 = load %"struct.altered_carbon::js::ACLexPosition"*, %"struct.altered_carbon::js::ACLexPosition"** %60, align 8, !dbg !5514
  %306 = icmp ne %"struct.altered_carbon::js::ACLexPosition"* %305, null, !dbg !5514
  br i1 %306, label %307, label %323, !dbg !5515

; <label>:307:                                    ; preds = %289
  %308 = getelementptr inbounds %"class.std::__1::unique_ptr", %"class.std::__1::unique_ptr"* %292, i32 0, i32 0, !dbg !5516
  store %"class.std::__1::__compressed_pair"* %308, %"class.std::__1::__compressed_pair"** %51, align 8
  %309 = load %"class.std::__1::__compressed_pair"*, %"class.std::__1::__compressed_pair"** %51, align 8
  %310 = bitcast %"class.std::__1::__compressed_pair"* %309 to %"struct.std::__1::__compressed_pair_elem.0"*, !dbg !5517
  store %"struct.std::__1::__compressed_pair_elem.0"* %310, %"struct.std::__1::__compressed_pair_elem.0"** %50, align 8
  %311 = load %"struct.std::__1::__compressed_pair_elem.0"*, %"struct.std::__1::__compressed_pair_elem.0"** %50, align 8
  %312 = bitcast %"struct.std::__1::__compressed_pair_elem.0"* %311 to %"struct.std::__1::default_delete"*, !dbg !5518
  %313 = load %"struct.altered_carbon::js::ACLexPosition"*, %"struct.altered_carbon::js::ACLexPosition"** %60, align 8, !dbg !5519
  store %"struct.std::__1::default_delete"* %312, %"struct.std::__1::default_delete"** %54, align 8
  store %"struct.altered_carbon::js::ACLexPosition"* %313, %"struct.altered_carbon::js::ACLexPosition"** %55, align 8
  %314 = load %"struct.std::__1::default_delete"*, %"struct.std::__1::default_delete"** %54, align 8
  %315 = load %"struct.altered_carbon::js::ACLexPosition"*, %"struct.altered_carbon::js::ACLexPosition"** %55, align 8, !dbg !5520
  %316 = icmp eq %"struct.altered_carbon::js::ACLexPosition"* %315, null, !dbg !5521
  br i1 %316, label %322, label %317, !dbg !5521

; <label>:317:                                    ; preds = %307
  %318 = bitcast %"struct.altered_carbon::js::ACLexPosition"* %315 to void (%"struct.altered_carbon::js::ACLexPosition"*)***, !dbg !5521
  %319 = load void (%"struct.altered_carbon::js::ACLexPosition"*)**, void (%"struct.altered_carbon::js::ACLexPosition"*)*** %318, align 8, !dbg !5521
  %320 = getelementptr inbounds void (%"struct.altered_carbon::js::ACLexPosition"*)*, void (%"struct.altered_carbon::js::ACLexPosition"*)** %319, i64 1, !dbg !5521
  %321 = load void (%"struct.altered_carbon::js::ACLexPosition"*)*, void (%"struct.altered_carbon::js::ACLexPosition"*)** %320, align 8, !dbg !5521
  call void %321(%"struct.altered_carbon::js::ACLexPosition"* %315) #8, !dbg !5521
  br label %322, !dbg !5521

; <label>:322:                                    ; preds = %317, %307
  br label %323, !dbg !5516

; <label>:323:                                    ; preds = %289, %322
  %324 = bitcast %"class.altered_carbon::js::ACAstArrowFunctionExpression"* %160 to i32 (...)***, !dbg !5422
  store i32 (...)** bitcast (i8** getelementptr inbounds ({ [14 x i8*] }, { [14 x i8*] }* @_ZTVN14altered_carbon2js28ACAstArrowFunctionExpressionE, i32 0, inrange i32 0, i32 2) to i32 (...)**), i32 (...)*** %324, align 8, !dbg !5422
  %325 = bitcast %"class.altered_carbon::js::ACAstArrowFunctionExpression"* %160 to %"class.altered_carbon::js::ACAstBaseNode"*, !dbg !5522
  %326 = getelementptr inbounds %"class.altered_carbon::js::ACAstBaseNode", %"class.altered_carbon::js::ACAstBaseNode"* %325, i32 0, i32 4, !dbg !5522
  store %"class.std::__1::unique_ptr.1"* %3, %"class.std::__1::unique_ptr.1"** %63, align 8
  %327 = load %"class.std::__1::unique_ptr.1"*, %"class.std::__1::unique_ptr.1"** %63, align 8, !dbg !5523
  store %"class.std::__1::vector"* %326, %"class.std::__1::vector"** %151, align 8
  store %"class.std::__1::unique_ptr.1"* %327, %"class.std::__1::unique_ptr.1"** %152, align 8
  %328 = load %"class.std::__1::vector"*, %"class.std::__1::vector"** %151, align 8
  %329 = bitcast %"class.std::__1::vector"* %328 to %"class.std::__1::__vector_base"*, !dbg !5524
  %330 = getelementptr inbounds %"class.std::__1::__vector_base", %"class.std::__1::__vector_base"* %329, i32 0, i32 1, !dbg !5524
  %331 = load %"class.std::__1::unique_ptr.1"*, %"class.std::__1::unique_ptr.1"** %330, align 8, !dbg !5524
  %332 = bitcast %"class.std::__1::vector"* %328 to %"class.std::__1::__vector_base"*, !dbg !5525
  store %"class.std::__1::__vector_base"* %332, %"class.std::__1::__vector_base"** %150, align 8
  %333 = load %"class.std::__1::__vector_base"*, %"class.std::__1::__vector_base"** %150, align 8
  %334 = getelementptr inbounds %"class.std::__1::__vector_base", %"class.std::__1::__vector_base"* %333, i32 0, i32 2, !dbg !5526
  store %"class.std::__1::__compressed_pair.7"* %334, %"class.std::__1::__compressed_pair.7"** %149, align 8
  %335 = load %"class.std::__1::__compressed_pair.7"*, %"class.std::__1::__compressed_pair.7"** %149, align 8
  %336 = bitcast %"class.std::__1::__compressed_pair.7"* %335 to %"struct.std::__1::__compressed_pair_elem.8"*, !dbg !5527
  store %"struct.std::__1::__compressed_pair_elem.8"* %336, %"struct.std::__1::__compressed_pair_elem.8"** %148, align 8
  %337 = load %"struct.std::__1::__compressed_pair_elem.8"*, %"struct.std::__1::__compressed_pair_elem.8"** %148, align 8
  %338 = getelementptr inbounds %"struct.std::__1::__compressed_pair_elem.8", %"struct.std::__1::__compressed_pair_elem.8"* %337, i32 0, i32 0, !dbg !5528
  %339 = load %"class.std::__1::unique_ptr.1"*, %"class.std::__1::unique_ptr.1"** %338, align 8, !dbg !5525
  %340 = icmp ult %"class.std::__1::unique_ptr.1"* %331, %339, !dbg !5529
  br i1 %340, label %341, label %423, !dbg !5530

; <label>:341:                                    ; preds = %323
  store %"struct.std::__1::vector<std::__1::unique_ptr<altered_carbon::js::ACAstBaseNode, std::__1::default_delete<altered_carbon::js::ACAstBaseNode> >, std::__1::allocator<std::__1::unique_ptr<altered_carbon::js::ACAstBaseNode, std::__1::default_delete<altered_carbon::js::ACAstBaseNode> > > >::__RAII_IncreaseAnnotator"* %153, %"struct.std::__1::vector<std::__1::unique_ptr<altered_carbon::js::ACAstBaseNode, std::__1::default_delete<altered_carbon::js::ACAstBaseNode> >, std::__1::allocator<std::__1::unique_ptr<altered_carbon::js::ACAstBaseNode, std::__1::default_delete<altered_carbon::js::ACAstBaseNode> > > >::__RAII_IncreaseAnnotator"** %145, align 8
  store %"class.std::__1::vector"* %328, %"class.std::__1::vector"** %146, align 8
  store i64 1, i64* %147, align 8
  %342 = load %"struct.std::__1::vector<std::__1::unique_ptr<altered_carbon::js::ACAstBaseNode, std::__1::default_delete<altered_carbon::js::ACAstBaseNode> >, std::__1::allocator<std::__1::unique_ptr<altered_carbon::js::ACAstBaseNode, std::__1::default_delete<altered_carbon::js::ACAstBaseNode> > > >::__RAII_IncreaseAnnotator"*, %"struct.std::__1::vector<std::__1::unique_ptr<altered_carbon::js::ACAstBaseNode, std::__1::default_delete<altered_carbon::js::ACAstBaseNode> >, std::__1::allocator<std::__1::unique_ptr<altered_carbon::js::ACAstBaseNode, std::__1::default_delete<altered_carbon::js::ACAstBaseNode> > > >::__RAII_IncreaseAnnotator"** %145, align 8
  %343 = load %"class.std::__1::vector"*, %"class.std::__1::vector"** %146, align 8, !dbg !5531
  %344 = load i64, i64* %147, align 8, !dbg !5531
  store %"struct.std::__1::vector<std::__1::unique_ptr<altered_carbon::js::ACAstBaseNode, std::__1::default_delete<altered_carbon::js::ACAstBaseNode> >, std::__1::allocator<std::__1::unique_ptr<altered_carbon::js::ACAstBaseNode, std::__1::default_delete<altered_carbon::js::ACAstBaseNode> > > >::__RAII_IncreaseAnnotator"* %342, %"struct.std::__1::vector<std::__1::unique_ptr<altered_carbon::js::ACAstBaseNode, std::__1::default_delete<altered_carbon::js::ACAstBaseNode> >, std::__1::allocator<std::__1::unique_ptr<altered_carbon::js::ACAstBaseNode, std::__1::default_delete<altered_carbon::js::ACAstBaseNode> > > >::__RAII_IncreaseAnnotator"** %142, align 8
  store %"class.std::__1::vector"* %343, %"class.std::__1::vector"** %143, align 8
  store i64 %344, i64* %144, align 8
  %345 = load %"struct.std::__1::vector<std::__1::unique_ptr<altered_carbon::js::ACAstBaseNode, std::__1::default_delete<altered_carbon::js::ACAstBaseNode> >, std::__1::allocator<std::__1::unique_ptr<altered_carbon::js::ACAstBaseNode, std::__1::default_delete<altered_carbon::js::ACAstBaseNode> > > >::__RAII_IncreaseAnnotator"*, %"struct.std::__1::vector<std::__1::unique_ptr<altered_carbon::js::ACAstBaseNode, std::__1::default_delete<altered_carbon::js::ACAstBaseNode> >, std::__1::allocator<std::__1::unique_ptr<altered_carbon::js::ACAstBaseNode, std::__1::default_delete<altered_carbon::js::ACAstBaseNode> > > >::__RAII_IncreaseAnnotator"** %142, align 8
  %346 = bitcast %"class.std::__1::vector"* %328 to %"class.std::__1::__vector_base"*, !dbg !5532
  store %"class.std::__1::__vector_base"* %346, %"class.std::__1::__vector_base"** %95, align 8
  %347 = load %"class.std::__1::__vector_base"*, %"class.std::__1::__vector_base"** %95, align 8
  %348 = getelementptr inbounds %"class.std::__1::__vector_base", %"class.std::__1::__vector_base"* %347, i32 0, i32 2, !dbg !5533
  store %"class.std::__1::__compressed_pair.7"* %348, %"class.std::__1::__compressed_pair.7"** %94, align 8
  %349 = load %"class.std::__1::__compressed_pair.7"*, %"class.std::__1::__compressed_pair.7"** %94, align 8
  %350 = bitcast %"class.std::__1::__compressed_pair.7"* %349 to %"struct.std::__1::__compressed_pair_elem.9"*, !dbg !5534
  store %"struct.std::__1::__compressed_pair_elem.9"* %350, %"struct.std::__1::__compressed_pair_elem.9"** %93, align 8
  %351 = load %"struct.std::__1::__compressed_pair_elem.9"*, %"struct.std::__1::__compressed_pair_elem.9"** %93, align 8
  %352 = bitcast %"struct.std::__1::__compressed_pair_elem.9"* %351 to %"class.std::__1::allocator"*, !dbg !5535
  %353 = bitcast %"class.std::__1::vector"* %328 to %"class.std::__1::__vector_base"*, !dbg !5536
  %354 = getelementptr inbounds %"class.std::__1::__vector_base", %"class.std::__1::__vector_base"* %353, i32 0, i32 1, !dbg !5536
  %355 = load %"class.std::__1::unique_ptr.1"*, %"class.std::__1::unique_ptr.1"** %354, align 8, !dbg !5536
  store %"class.std::__1::unique_ptr.1"* %355, %"class.std::__1::unique_ptr.1"** %96, align 8
  %356 = load %"class.std::__1::unique_ptr.1"*, %"class.std::__1::unique_ptr.1"** %96, align 8, !dbg !5537
  %357 = load %"class.std::__1::unique_ptr.1"*, %"class.std::__1::unique_ptr.1"** %152, align 8, !dbg !5538
  store %"class.std::__1::unique_ptr.1"* %357, %"class.std::__1::unique_ptr.1"** %97, align 8
  %358 = load %"class.std::__1::unique_ptr.1"*, %"class.std::__1::unique_ptr.1"** %97, align 8, !dbg !5539
  store %"class.std::__1::allocator"* %352, %"class.std::__1::allocator"** %136, align 8
  store %"class.std::__1::unique_ptr.1"* %356, %"class.std::__1::unique_ptr.1"** %137, align 8
  store %"class.std::__1::unique_ptr.1"* %358, %"class.std::__1::unique_ptr.1"** %138, align 8
  %359 = bitcast %"struct.std::__1::__has_construct"* %139 to %"struct.std::__1::integral_constant"*, !dbg !5540
  %360 = load %"class.std::__1::allocator"*, %"class.std::__1::allocator"** %136, align 8, !dbg !5541
  %361 = load %"class.std::__1::unique_ptr.1"*, %"class.std::__1::unique_ptr.1"** %137, align 8, !dbg !5542
  %362 = load %"class.std::__1::unique_ptr.1"*, %"class.std::__1::unique_ptr.1"** %138, align 8, !dbg !5543
  store %"class.std::__1::unique_ptr.1"* %362, %"class.std::__1::unique_ptr.1"** %135, align 8
  %363 = load %"class.std::__1::unique_ptr.1"*, %"class.std::__1::unique_ptr.1"** %135, align 8, !dbg !5544
  call void @llvm.dbg.declare(metadata !162, metadata !5545, metadata !DIExpression()) #8, !dbg !5546
  store %"class.std::__1::allocator"* %360, %"class.std::__1::allocator"** %132, align 8
  store %"class.std::__1::unique_ptr.1"* %361, %"class.std::__1::unique_ptr.1"** %133, align 8
  store %"class.std::__1::unique_ptr.1"* %363, %"class.std::__1::unique_ptr.1"** %134, align 8
  %364 = load %"class.std::__1::allocator"*, %"class.std::__1::allocator"** %132, align 8, !dbg !5547
  %365 = load %"class.std::__1::unique_ptr.1"*, %"class.std::__1::unique_ptr.1"** %133, align 8, !dbg !5548
  %366 = load %"class.std::__1::unique_ptr.1"*, %"class.std::__1::unique_ptr.1"** %134, align 8, !dbg !5549
  store %"class.std::__1::unique_ptr.1"* %366, %"class.std::__1::unique_ptr.1"** %131, align 8
  %367 = load %"class.std::__1::unique_ptr.1"*, %"class.std::__1::unique_ptr.1"** %131, align 8, !dbg !5550
  store %"class.std::__1::allocator"* %364, %"class.std::__1::allocator"** %128, align 8
  store %"class.std::__1::unique_ptr.1"* %365, %"class.std::__1::unique_ptr.1"** %129, align 8
  store %"class.std::__1::unique_ptr.1"* %367, %"class.std::__1::unique_ptr.1"** %130, align 8
  %368 = load %"class.std::__1::allocator"*, %"class.std::__1::allocator"** %128, align 8
  %369 = load %"class.std::__1::unique_ptr.1"*, %"class.std::__1::unique_ptr.1"** %129, align 8, !dbg !5551
  %370 = bitcast %"class.std::__1::unique_ptr.1"* %369 to i8*, !dbg !5551
  %371 = load %"class.std::__1::unique_ptr.1"*, %"class.std::__1::unique_ptr.1"** %130, align 8, !dbg !5552
  store %"class.std::__1::unique_ptr.1"* %371, %"class.std::__1::unique_ptr.1"** %127, align 8
  %372 = load %"class.std::__1::unique_ptr.1"*, %"class.std::__1::unique_ptr.1"** %127, align 8, !dbg !5553
  store %"class.std::__1::unique_ptr.1"* %369, %"class.std::__1::unique_ptr.1"** %125, align 8
  store %"class.std::__1::unique_ptr.1"* %372, %"class.std::__1::unique_ptr.1"** %126, align 8
  %373 = load %"class.std::__1::unique_ptr.1"*, %"class.std::__1::unique_ptr.1"** %125, align 8
  %374 = load %"class.std::__1::unique_ptr.1"*, %"class.std::__1::unique_ptr.1"** %126, align 8, !dbg !5554
  store %"class.std::__1::unique_ptr.1"* %373, %"class.std::__1::unique_ptr.1"** %122, align 8
  store %"class.std::__1::unique_ptr.1"* %374, %"class.std::__1::unique_ptr.1"** %123, align 8
  %375 = load %"class.std::__1::unique_ptr.1"*, %"class.std::__1::unique_ptr.1"** %122, align 8
  %376 = getelementptr inbounds %"class.std::__1::unique_ptr.1", %"class.std::__1::unique_ptr.1"* %375, i32 0, i32 0, !dbg !5555
  %377 = load %"class.std::__1::unique_ptr.1"*, %"class.std::__1::unique_ptr.1"** %123, align 8, !dbg !5556
  store %"class.std::__1::unique_ptr.1"* %377, %"class.std::__1::unique_ptr.1"** %120, align 8
  %378 = load %"class.std::__1::unique_ptr.1"*, %"class.std::__1::unique_ptr.1"** %120, align 8
  %379 = getelementptr inbounds %"class.std::__1::unique_ptr.1", %"class.std::__1::unique_ptr.1"* %378, i32 0, i32 0, !dbg !5557
  store %"class.std::__1::__compressed_pair.2"* %379, %"class.std::__1::__compressed_pair.2"** %119, align 8
  %380 = load %"class.std::__1::__compressed_pair.2"*, %"class.std::__1::__compressed_pair.2"** %119, align 8
  %381 = bitcast %"class.std::__1::__compressed_pair.2"* %380 to %"struct.std::__1::__compressed_pair_elem.3"*, !dbg !5558
  store %"struct.std::__1::__compressed_pair_elem.3"* %381, %"struct.std::__1::__compressed_pair_elem.3"** %118, align 8
  %382 = load %"struct.std::__1::__compressed_pair_elem.3"*, %"struct.std::__1::__compressed_pair_elem.3"** %118, align 8
  %383 = getelementptr inbounds %"struct.std::__1::__compressed_pair_elem.3", %"struct.std::__1::__compressed_pair_elem.3"* %382, i32 0, i32 0, !dbg !5559
  %384 = load %"class.altered_carbon::js::ACAstBaseNode"*, %"class.altered_carbon::js::ACAstBaseNode"** %383, align 8, !dbg !5560
  store %"class.altered_carbon::js::ACAstBaseNode"* %384, %"class.altered_carbon::js::ACAstBaseNode"** %121, align 8, !dbg !5309
  %385 = getelementptr inbounds %"class.std::__1::unique_ptr.1", %"class.std::__1::unique_ptr.1"* %378, i32 0, i32 0, !dbg !5561
  store %"class.std::__1::__compressed_pair.2"* %385, %"class.std::__1::__compressed_pair.2"** %117, align 8
  %386 = load %"class.std::__1::__compressed_pair.2"*, %"class.std::__1::__compressed_pair.2"** %117, align 8
  %387 = bitcast %"class.std::__1::__compressed_pair.2"* %386 to %"struct.std::__1::__compressed_pair_elem.3"*, !dbg !5562
  store %"struct.std::__1::__compressed_pair_elem.3"* %387, %"struct.std::__1::__compressed_pair_elem.3"** %116, align 8
  %388 = load %"struct.std::__1::__compressed_pair_elem.3"*, %"struct.std::__1::__compressed_pair_elem.3"** %116, align 8
  %389 = getelementptr inbounds %"struct.std::__1::__compressed_pair_elem.3", %"struct.std::__1::__compressed_pair_elem.3"* %388, i32 0, i32 0, !dbg !5563
  store %"class.altered_carbon::js::ACAstBaseNode"* null, %"class.altered_carbon::js::ACAstBaseNode"** %389, align 8, !dbg !5564
  %390 = load %"class.altered_carbon::js::ACAstBaseNode"*, %"class.altered_carbon::js::ACAstBaseNode"** %121, align 8, !dbg !5565
  store %"class.altered_carbon::js::ACAstBaseNode"* %390, %"class.altered_carbon::js::ACAstBaseNode"** %124, align 8, !dbg !5556
  %391 = load %"class.std::__1::unique_ptr.1"*, %"class.std::__1::unique_ptr.1"** %123, align 8, !dbg !5566
  store %"class.std::__1::unique_ptr.1"* %391, %"class.std::__1::unique_ptr.1"** %100, align 8
  %392 = load %"class.std::__1::unique_ptr.1"*, %"class.std::__1::unique_ptr.1"** %100, align 8
  %393 = getelementptr inbounds %"class.std::__1::unique_ptr.1", %"class.std::__1::unique_ptr.1"* %392, i32 0, i32 0, !dbg !5567
  store %"class.std::__1::__compressed_pair.2"* %393, %"class.std::__1::__compressed_pair.2"** %99, align 8
  %394 = load %"class.std::__1::__compressed_pair.2"*, %"class.std::__1::__compressed_pair.2"** %99, align 8
  %395 = bitcast %"class.std::__1::__compressed_pair.2"* %394 to %"struct.std::__1::__compressed_pair_elem.4"*, !dbg !5568
  store %"struct.std::__1::__compressed_pair_elem.4"* %395, %"struct.std::__1::__compressed_pair_elem.4"** %98, align 8
  %396 = load %"struct.std::__1::__compressed_pair_elem.4"*, %"struct.std::__1::__compressed_pair_elem.4"** %98, align 8
  %397 = bitcast %"struct.std::__1::__compressed_pair_elem.4"* %396 to %"struct.std::__1::default_delete.5"*, !dbg !5569
  store %"struct.std::__1::default_delete.5"* %397, %"struct.std::__1::default_delete.5"** %101, align 8
  %398 = load %"struct.std::__1::default_delete.5"*, %"struct.std::__1::default_delete.5"** %101, align 8, !dbg !5570
  store %"class.std::__1::__compressed_pair.2"* %376, %"class.std::__1::__compressed_pair.2"** %113, align 8
  store %"class.altered_carbon::js::ACAstBaseNode"** %124, %"class.altered_carbon::js::ACAstBaseNode"*** %114, align 8
  store %"struct.std::__1::default_delete.5"* %398, %"struct.std::__1::default_delete.5"** %115, align 8
  %399 = load %"class.std::__1::__compressed_pair.2"*, %"class.std::__1::__compressed_pair.2"** %113, align 8
  %400 = load %"class.altered_carbon::js::ACAstBaseNode"**, %"class.altered_carbon::js::ACAstBaseNode"*** %114, align 8, !dbg !5571
  %401 = load %"struct.std::__1::default_delete.5"*, %"struct.std::__1::default_delete.5"** %115, align 8, !dbg !5571
  store %"class.std::__1::__compressed_pair.2"* %399, %"class.std::__1::__compressed_pair.2"** %110, align 8
  store %"class.altered_carbon::js::ACAstBaseNode"** %400, %"class.altered_carbon::js::ACAstBaseNode"*** %111, align 8
  store %"struct.std::__1::default_delete.5"* %401, %"struct.std::__1::default_delete.5"** %112, align 8
  %402 = load %"class.std::__1::__compressed_pair.2"*, %"class.std::__1::__compressed_pair.2"** %110, align 8
  %403 = bitcast %"class.std::__1::__compressed_pair.2"* %402 to %"struct.std::__1::__compressed_pair_elem.3"*, !dbg !5572
  %404 = load %"class.altered_carbon::js::ACAstBaseNode"**, %"class.altered_carbon::js::ACAstBaseNode"*** %111, align 8, !dbg !5573
  store %"class.altered_carbon::js::ACAstBaseNode"** %404, %"class.altered_carbon::js::ACAstBaseNode"*** %109, align 8
  %405 = load %"class.altered_carbon::js::ACAstBaseNode"**, %"class.altered_carbon::js::ACAstBaseNode"*** %109, align 8, !dbg !5574
  store %"struct.std::__1::__compressed_pair_elem.3"* %403, %"struct.std::__1::__compressed_pair_elem.3"** %103, align 8
  store %"class.altered_carbon::js::ACAstBaseNode"** %405, %"class.altered_carbon::js::ACAstBaseNode"*** %104, align 8
  %406 = load %"struct.std::__1::__compressed_pair_elem.3"*, %"struct.std::__1::__compressed_pair_elem.3"** %103, align 8
  %407 = getelementptr inbounds %"struct.std::__1::__compressed_pair_elem.3", %"struct.std::__1::__compressed_pair_elem.3"* %406, i32 0, i32 0, !dbg !5575
  %408 = load %"class.altered_carbon::js::ACAstBaseNode"**, %"class.altered_carbon::js::ACAstBaseNode"*** %104, align 8, !dbg !5576
  store %"class.altered_carbon::js::ACAstBaseNode"** %408, %"class.altered_carbon::js::ACAstBaseNode"*** %102, align 8
  %409 = load %"class.altered_carbon::js::ACAstBaseNode"**, %"class.altered_carbon::js::ACAstBaseNode"*** %102, align 8, !dbg !5577
  %410 = load %"class.altered_carbon::js::ACAstBaseNode"*, %"class.altered_carbon::js::ACAstBaseNode"** %409, align 8, !dbg !5578
  store %"class.altered_carbon::js::ACAstBaseNode"* %410, %"class.altered_carbon::js::ACAstBaseNode"** %407, align 8, !dbg !5575
  %411 = bitcast %"class.std::__1::__compressed_pair.2"* %402 to %"struct.std::__1::__compressed_pair_elem.4"*, !dbg !5572
  %412 = load %"struct.std::__1::default_delete.5"*, %"struct.std::__1::default_delete.5"** %112, align 8, !dbg !5579
  store %"struct.std::__1::default_delete.5"* %412, %"struct.std::__1::default_delete.5"** %105, align 8
  %413 = load %"struct.std::__1::default_delete.5"*, %"struct.std::__1::default_delete.5"** %105, align 8, !dbg !5580
  store %"struct.std::__1::__compressed_pair_elem.4"* %411, %"struct.std::__1::__compressed_pair_elem.4"** %107, align 8
  store %"struct.std::__1::default_delete.5"* %413, %"struct.std::__1::default_delete.5"** %108, align 8
  %414 = load %"struct.std::__1::__compressed_pair_elem.4"*, %"struct.std::__1::__compressed_pair_elem.4"** %107, align 8
  %415 = bitcast %"struct.std::__1::__compressed_pair_elem.4"* %414 to %"struct.std::__1::default_delete.5"*, !dbg !5581
  %416 = load %"struct.std::__1::default_delete.5"*, %"struct.std::__1::default_delete.5"** %108, align 8, !dbg !5582
  store %"struct.std::__1::default_delete.5"* %416, %"struct.std::__1::default_delete.5"** %106, align 8
  %417 = load %"struct.std::__1::default_delete.5"*, %"struct.std::__1::default_delete.5"** %106, align 8, !dbg !5583
  store %"struct.std::__1::vector<std::__1::unique_ptr<altered_carbon::js::ACAstBaseNode, std::__1::default_delete<altered_carbon::js::ACAstBaseNode> >, std::__1::allocator<std::__1::unique_ptr<altered_carbon::js::ACAstBaseNode, std::__1::default_delete<altered_carbon::js::ACAstBaseNode> > > >::__RAII_IncreaseAnnotator"* %153, %"struct.std::__1::vector<std::__1::unique_ptr<altered_carbon::js::ACAstBaseNode, std::__1::default_delete<altered_carbon::js::ACAstBaseNode> >, std::__1::allocator<std::__1::unique_ptr<altered_carbon::js::ACAstBaseNode, std::__1::default_delete<altered_carbon::js::ACAstBaseNode> > > >::__RAII_IncreaseAnnotator"** %140, align 8
  %418 = load %"struct.std::__1::vector<std::__1::unique_ptr<altered_carbon::js::ACAstBaseNode, std::__1::default_delete<altered_carbon::js::ACAstBaseNode> >, std::__1::allocator<std::__1::unique_ptr<altered_carbon::js::ACAstBaseNode, std::__1::default_delete<altered_carbon::js::ACAstBaseNode> > > >::__RAII_IncreaseAnnotator"*, %"struct.std::__1::vector<std::__1::unique_ptr<altered_carbon::js::ACAstBaseNode, std::__1::default_delete<altered_carbon::js::ACAstBaseNode> >, std::__1::allocator<std::__1::unique_ptr<altered_carbon::js::ACAstBaseNode, std::__1::default_delete<altered_carbon::js::ACAstBaseNode> > > >::__RAII_IncreaseAnnotator"** %140, align 8
  %419 = bitcast %"class.std::__1::vector"* %328 to %"class.std::__1::__vector_base"*, !dbg !5584
  %420 = getelementptr inbounds %"class.std::__1::__vector_base", %"class.std::__1::__vector_base"* %419, i32 0, i32 1, !dbg !5584
  %421 = load %"class.std::__1::unique_ptr.1"*, %"class.std::__1::unique_ptr.1"** %420, align 8, !dbg !5585
  %422 = getelementptr inbounds %"class.std::__1::unique_ptr.1", %"class.std::__1::unique_ptr.1"* %421, i32 1, !dbg !5585
  store %"class.std::__1::unique_ptr.1"* %422, %"class.std::__1::unique_ptr.1"** %420, align 8, !dbg !5585
  br label %426, !dbg !5586

; <label>:423:                                    ; preds = %323
  %424 = load %"class.std::__1::unique_ptr.1"*, %"class.std::__1::unique_ptr.1"** %152, align 8, !dbg !5587
  store %"class.std::__1::unique_ptr.1"* %424, %"class.std::__1::unique_ptr.1"** %141, align 8
  %425 = load %"class.std::__1::unique_ptr.1"*, %"class.std::__1::unique_ptr.1"** %141, align 8, !dbg !5588
  call void @_ZNSt3__16vectorINS_10unique_ptrIN14altered_carbon2js13ACAstBaseNodeENS_14default_deleteIS4_EEEENS_9allocatorIS7_EEE21__push_back_slow_pathIS7_EEvOT_(%"class.std::__1::vector"* %328, %"class.std::__1::unique_ptr.1"* dereferenceable(8) %425) #8, !dbg !5589
  br label %426

; <label>:426:                                    ; preds = %341, %423
  ret void, !dbg !5590
}

; Function Attrs: nounwind readnone speculatable
declare void @llvm.dbg.declare(metadata, metadata, metadata) #1

declare void @_ZN14altered_carbon2js19ACAstExpressionNodeC2ENSt3__110unique_ptrINS0_13ACLexPositionENS2_14default_deleteIS4_EEEENS3_INS0_13ACAstBaseNodeENS5_IS8_EEEENS8_11AstNodeTypeENS8_14AstNodeSubTypeE(%"class.altered_carbon::js::ACAstExpressionNode"*, %"class.std::__1::unique_ptr"*, %"class.std::__1::unique_ptr.1"*, i32, i32) unnamed_addr #2

; Function Attrs: noinline nounwind optnone ssp uwtable
define void @_ZN14altered_carbon2js28ACAstArrowFunctionExpressionC1ENSt3__110unique_ptrINS0_13ACLexPositionENS2_14default_deleteIS4_EEEENS3_INS0_13ACAstBaseNodeENS5_IS8_EEEESA_NS8_11AstNodeTypeENS8_14AstNodeSubTypeE(%"class.altered_carbon::js::ACAstArrowFunctionExpression"*, %"class.std::__1::unique_ptr"*, %"class.std::__1::unique_ptr.1"*, %"class.std::__1::unique_ptr.1"*, i32, i32) unnamed_addr #0 align 2 !dbg !5591 {
  %7 = alloca %"class.altered_carbon::js::ACAstArrowFunctionExpression"*, align 8
  %8 = alloca i32, align 4
  %9 = alloca i32, align 4
  store %"class.altered_carbon::js::ACAstArrowFunctionExpression"* %0, %"class.altered_carbon::js::ACAstArrowFunctionExpression"** %7, align 8
  call void @llvm.dbg.declare(metadata %"class.altered_carbon::js::ACAstArrowFunctionExpression"** %7, metadata !5592, metadata !DIExpression()), !dbg !5593
  call void @llvm.dbg.declare(metadata %"class.std::__1::unique_ptr"* %1, metadata !5594, metadata !DIExpression()), !dbg !5595
  call void @llvm.dbg.declare(metadata %"class.std::__1::unique_ptr.1"* %2, metadata !5596, metadata !DIExpression()), !dbg !5597
  call void @llvm.dbg.declare(metadata %"class.std::__1::unique_ptr.1"* %3, metadata !5598, metadata !DIExpression()), !dbg !5599
  store i32 %4, i32* %8, align 4
  call void @llvm.dbg.declare(metadata i32* %8, metadata !5600, metadata !DIExpression()), !dbg !5601
  store i32 %5, i32* %9, align 4
  call void @llvm.dbg.declare(metadata i32* %9, metadata !5602, metadata !DIExpression()), !dbg !5603
  %10 = load %"class.altered_carbon::js::ACAstArrowFunctionExpression"*, %"class.altered_carbon::js::ACAstArrowFunctionExpression"** %7, align 8
  %11 = load i32, i32* %8, align 4, !dbg !5604
  %12 = load i32, i32* %9, align 4, !dbg !5604
  call void @_ZN14altered_carbon2js28ACAstArrowFunctionExpressionC2ENSt3__110unique_ptrINS0_13ACLexPositionENS2_14default_deleteIS4_EEEENS3_INS0_13ACAstBaseNodeENS5_IS8_EEEESA_NS8_11AstNodeTypeENS8_14AstNodeSubTypeE(%"class.altered_carbon::js::ACAstArrowFunctionExpression"* %10, %"class.std::__1::unique_ptr"* %1, %"class.std::__1::unique_ptr.1"* %2, %"class.std::__1::unique_ptr.1"* %3, i32 %11, i32 %12), !dbg !5604
  ret void, !dbg !5605
}

; Function Attrs: noinline nounwind optnone ssp uwtable
define void @_ZNK14altered_carbon2js28ACAstArrowFunctionExpression14dumpChildNodesERNSt3__113basic_ostreamIcNS2_11char_traitsIcEEEE(%"class.altered_carbon::js::ACAstArrowFunctionExpression"*, %"class.std::__1::basic_ostream"* dereferenceable(160)) unnamed_addr #0 align 2 !dbg !5606 {
  %3 = alloca %"struct.std::__1::__compressed_pair_elem.3"*, align 8
  call void @llvm.dbg.declare(metadata %"struct.std::__1::__compressed_pair_elem.3"** %3, metadata !5607, metadata !DIExpression()), !dbg !5610
  %4 = alloca %"class.std::__1::__compressed_pair.2"*, align 8
  call void @llvm.dbg.declare(metadata %"class.std::__1::__compressed_pair.2"** %4, metadata !5616, metadata !DIExpression()), !dbg !5618
  %5 = alloca %"class.std::__1::unique_ptr.1"*, align 8
  call void @llvm.dbg.declare(metadata %"class.std::__1::unique_ptr.1"** %5, metadata !5619, metadata !DIExpression()), !dbg !5620
  %6 = alloca %"class.std::__1::vector"*, align 8
  call void @llvm.dbg.declare(metadata %"class.std::__1::vector"** %6, metadata !5621, metadata !DIExpression()), !dbg !5624
  %7 = alloca i64, align 8
  call void @llvm.dbg.declare(metadata i64* %7, metadata !5626, metadata !DIExpression()), !dbg !5627
  %8 = alloca %"class.altered_carbon::js::ACAstArrowFunctionExpression"*, align 8
  %9 = alloca %"class.std::__1::basic_ostream"*, align 8
  store %"class.altered_carbon::js::ACAstArrowFunctionExpression"* %0, %"class.altered_carbon::js::ACAstArrowFunctionExpression"** %8, align 8
  call void @llvm.dbg.declare(metadata %"class.altered_carbon::js::ACAstArrowFunctionExpression"** %8, metadata !5628, metadata !DIExpression()), !dbg !5630
  store %"class.std::__1::basic_ostream"* %1, %"class.std::__1::basic_ostream"** %9, align 8
  call void @llvm.dbg.declare(metadata %"class.std::__1::basic_ostream"** %9, metadata !5631, metadata !DIExpression()), !dbg !5632
  %10 = load %"class.altered_carbon::js::ACAstArrowFunctionExpression"*, %"class.altered_carbon::js::ACAstArrowFunctionExpression"** %8, align 8
  %11 = bitcast %"class.altered_carbon::js::ACAstArrowFunctionExpression"* %10 to %"class.altered_carbon::js::ACAstExpressionNode"*, !dbg !5633
  %12 = load %"class.std::__1::basic_ostream"*, %"class.std::__1::basic_ostream"** %9, align 8, !dbg !5634
  call void @_ZNK14altered_carbon2js19ACAstExpressionNode14dumpChildNodesERNSt3__113basic_ostreamIcNS2_11char_traitsIcEEEE(%"class.altered_carbon::js::ACAstExpressionNode"* %11, %"class.std::__1::basic_ostream"* dereferenceable(160) %12), !dbg !5633
  %13 = load %"class.std::__1::basic_ostream"*, %"class.std::__1::basic_ostream"** %9, align 8, !dbg !5635
  %14 = call dereferenceable(160) %"class.std::__1::basic_ostream"* @_ZNSt3__1lsINS_11char_traitsIcEEEERNS_13basic_ostreamIcT_EES6_PKc(%"class.std::__1::basic_ostream"* dereferenceable(160) %13, i8* getelementptr inbounds ([7 x i8], [7 x i8]* @.str, i32 0, i32 0)), !dbg !5636
  %15 = bitcast %"class.altered_carbon::js::ACAstArrowFunctionExpression"* %10 to %"class.altered_carbon::js::ACAstBaseNode"*, !dbg !5637
  %16 = getelementptr inbounds %"class.altered_carbon::js::ACAstBaseNode", %"class.altered_carbon::js::ACAstBaseNode"* %15, i32 0, i32 4, !dbg !5637
  store %"class.std::__1::vector"* %16, %"class.std::__1::vector"** %6, align 8
  store i64 0, i64* %7, align 8
  %17 = load %"class.std::__1::vector"*, %"class.std::__1::vector"** %6, align 8
  %18 = bitcast %"class.std::__1::vector"* %17 to %"class.std::__1::__vector_base"*, !dbg !5638
  %19 = getelementptr inbounds %"class.std::__1::__vector_base", %"class.std::__1::__vector_base"* %18, i32 0, i32 0, !dbg !5638
  %20 = load %"class.std::__1::unique_ptr.1"*, %"class.std::__1::unique_ptr.1"** %19, align 8, !dbg !5638
  %21 = load i64, i64* %7, align 8, !dbg !5639
  %22 = getelementptr inbounds %"class.std::__1::unique_ptr.1", %"class.std::__1::unique_ptr.1"* %20, i64 %21, !dbg !5640
  store %"class.std::__1::unique_ptr.1"* %22, %"class.std::__1::unique_ptr.1"** %5, align 8
  %23 = load %"class.std::__1::unique_ptr.1"*, %"class.std::__1::unique_ptr.1"** %5, align 8
  %24 = getelementptr inbounds %"class.std::__1::unique_ptr.1", %"class.std::__1::unique_ptr.1"* %23, i32 0, i32 0, !dbg !5641
  store %"class.std::__1::__compressed_pair.2"* %24, %"class.std::__1::__compressed_pair.2"** %4, align 8
  %25 = load %"class.std::__1::__compressed_pair.2"*, %"class.std::__1::__compressed_pair.2"** %4, align 8
  %26 = bitcast %"class.std::__1::__compressed_pair.2"* %25 to %"struct.std::__1::__compressed_pair_elem.3"*, !dbg !5642
  store %"struct.std::__1::__compressed_pair_elem.3"* %26, %"struct.std::__1::__compressed_pair_elem.3"** %3, align 8
  %27 = load %"struct.std::__1::__compressed_pair_elem.3"*, %"struct.std::__1::__compressed_pair_elem.3"** %3, align 8
  %28 = getelementptr inbounds %"struct.std::__1::__compressed_pair_elem.3", %"struct.std::__1::__compressed_pair_elem.3"* %27, i32 0, i32 0, !dbg !5643
  %29 = load %"class.altered_carbon::js::ACAstBaseNode"*, %"class.altered_carbon::js::ACAstBaseNode"** %28, align 8, !dbg !5644
  %30 = bitcast %"class.altered_carbon::js::ACAstBaseNode"* %29 to void (%"class.altered_carbon::js::ACAstBaseNode"*, %"class.std::__1::basic_ostream"*)***, !dbg !5645
  %31 = load void (%"class.altered_carbon::js::ACAstBaseNode"*, %"class.std::__1::basic_ostream"*)**, void (%"class.altered_carbon::js::ACAstBaseNode"*, %"class.std::__1::basic_ostream"*)*** %30, align 8, !dbg !5645
  %32 = getelementptr inbounds void (%"class.altered_carbon::js::ACAstBaseNode"*, %"class.std::__1::basic_ostream"*)*, void (%"class.altered_carbon::js::ACAstBaseNode"*, %"class.std::__1::basic_ostream"*)** %31, i64 8, !dbg !5645
  %33 = load void (%"class.altered_carbon::js::ACAstBaseNode"*, %"class.std::__1::basic_ostream"*)*, void (%"class.altered_carbon::js::ACAstBaseNode"*, %"class.std::__1::basic_ostream"*)** %32, align 8, !dbg !5645
  %34 = load %"class.std::__1::basic_ostream"*, %"class.std::__1::basic_ostream"** %9, align 8, !dbg !5646
  call void %33(%"class.altered_carbon::js::ACAstBaseNode"* %29, %"class.std::__1::basic_ostream"* dereferenceable(160) %34), !dbg !5645
  ret void, !dbg !5647
}

declare void @_ZNK14altered_carbon2js19ACAstExpressionNode14dumpChildNodesERNSt3__113basic_ostreamIcNS2_11char_traitsIcEEEE(%"class.altered_carbon::js::ACAstExpressionNode"*, %"class.std::__1::basic_ostream"* dereferenceable(160)) unnamed_addr #2

; Function Attrs: noinline nounwind optnone ssp uwtable
define linkonce_odr dereferenceable(160) %"class.std::__1::basic_ostream"* @_ZNSt3__1lsINS_11char_traitsIcEEEERNS_13basic_ostreamIcT_EES6_PKc(%"class.std::__1::basic_ostream"* dereferenceable(160), i8*) #0 !dbg !5648 {
  %3 = alloca %"class.std::__1::basic_ostream"*, align 8
  %4 = alloca i8*, align 8
  store %"class.std::__1::basic_ostream"* %0, %"class.std::__1::basic_ostream"** %3, align 8
  call void @llvm.dbg.declare(metadata %"class.std::__1::basic_ostream"** %3, metadata !5652, metadata !DIExpression()), !dbg !5653
  store i8* %1, i8** %4, align 8
  call void @llvm.dbg.declare(metadata i8** %4, metadata !5654, metadata !DIExpression()), !dbg !5655
  %5 = load %"class.std::__1::basic_ostream"*, %"class.std::__1::basic_ostream"** %3, align 8, !dbg !5656
  %6 = load i8*, i8** %4, align 8, !dbg !5657
  %7 = load i8*, i8** %4, align 8, !dbg !5658
  %8 = call i64 @_ZNSt3__111char_traitsIcE6lengthEPKc(i8* %7) #8, !dbg !5659
  %9 = call dereferenceable(160) %"class.std::__1::basic_ostream"* @_ZNSt3__124__put_character_sequenceIcNS_11char_traitsIcEEEERNS_13basic_ostreamIT_T0_EES7_PKS4_m(%"class.std::__1::basic_ostream"* dereferenceable(160) %5, i8* %6, i64 %8), !dbg !5660
  ret %"class.std::__1::basic_ostream"* %9, !dbg !5661
}

; Function Attrs: noinline nounwind optnone ssp uwtable
define void @_ZN14altered_carbon2js25ACAstAssignmentExpressionC2ENSt3__110unique_ptrINS0_13ACLexPositionENS2_14default_deleteIS4_EEEENS3_INS0_13ACAstBaseNodeENS5_IS8_EEEENS0_14ACLexTokenTypeESA_(%"class.altered_carbon::js::ACAstAssignmentExpression"*, %"class.std::__1::unique_ptr"*, %"class.std::__1::unique_ptr.1"*, i32, %"class.std::__1::unique_ptr.1"*) unnamed_addr #0 align 2 !dbg !5662 {
  %6 = alloca %"struct.std::__1::__compressed_pair_elem.4"*, align 8
  call void @llvm.dbg.declare(metadata %"struct.std::__1::__compressed_pair_elem.4"** %6, metadata !4895, metadata !DIExpression()), !dbg !5684
  %7 = alloca %"class.std::__1::__compressed_pair.2"*, align 8
  call void @llvm.dbg.declare(metadata %"class.std::__1::__compressed_pair.2"** %7, metadata !4908, metadata !DIExpression()), !dbg !5690
  %8 = alloca %"class.std::__1::unique_ptr.1"*, align 8
  call void @llvm.dbg.declare(metadata %"class.std::__1::unique_ptr.1"** %8, metadata !4911, metadata !DIExpression()), !dbg !5691
  %9 = alloca %"struct.std::__1::default_delete.5"*, align 8
  call void @llvm.dbg.declare(metadata %"struct.std::__1::default_delete.5"** %9, metadata !4913, metadata !DIExpression()), !dbg !5692
  %10 = alloca %"class.altered_carbon::js::ACAstBaseNode"**, align 8
  call void @llvm.dbg.declare(metadata %"class.altered_carbon::js::ACAstBaseNode"*** %10, metadata !4924, metadata !DIExpression()), !dbg !5694
  %11 = alloca %"struct.std::__1::__compressed_pair_elem.3"*, align 8
  call void @llvm.dbg.declare(metadata %"struct.std::__1::__compressed_pair_elem.3"** %11, metadata !4953, metadata !DIExpression()), !dbg !5699
  %12 = alloca %"class.altered_carbon::js::ACAstBaseNode"**, align 8
  call void @llvm.dbg.declare(metadata %"class.altered_carbon::js::ACAstBaseNode"*** %12, metadata !4956, metadata !DIExpression()), !dbg !5700
  %13 = alloca %"struct.std::__1::default_delete.5"*, align 8
  call void @llvm.dbg.declare(metadata %"struct.std::__1::default_delete.5"** %13, metadata !4913, metadata !DIExpression()), !dbg !5701
  %14 = alloca %"struct.std::__1::default_delete.5"*, align 8
  call void @llvm.dbg.declare(metadata %"struct.std::__1::default_delete.5"** %14, metadata !4913, metadata !DIExpression()), !dbg !5703
  %15 = alloca %"struct.std::__1::__compressed_pair_elem.4"*, align 8
  call void @llvm.dbg.declare(metadata %"struct.std::__1::__compressed_pair_elem.4"** %15, metadata !4969, metadata !DIExpression()), !dbg !5706
  %16 = alloca %"struct.std::__1::default_delete.5"*, align 8
  call void @llvm.dbg.declare(metadata %"struct.std::__1::default_delete.5"** %16, metadata !4971, metadata !DIExpression()), !dbg !5707
  %17 = alloca %"class.altered_carbon::js::ACAstBaseNode"**, align 8
  call void @llvm.dbg.declare(metadata %"class.altered_carbon::js::ACAstBaseNode"*** %17, metadata !4924, metadata !DIExpression()), !dbg !5708
  %18 = alloca %"class.std::__1::__compressed_pair.2"*, align 8
  call void @llvm.dbg.declare(metadata %"class.std::__1::__compressed_pair.2"** %18, metadata !4975, metadata !DIExpression()), !dbg !5710
  %19 = alloca %"class.altered_carbon::js::ACAstBaseNode"**, align 8
  call void @llvm.dbg.declare(metadata %"class.altered_carbon::js::ACAstBaseNode"*** %19, metadata !4977, metadata !DIExpression()), !dbg !5711
  %20 = alloca %"struct.std::__1::default_delete.5"*, align 8
  call void @llvm.dbg.declare(metadata %"struct.std::__1::default_delete.5"** %20, metadata !4979, metadata !DIExpression()), !dbg !5712
  %21 = alloca %"class.std::__1::__compressed_pair.2"*, align 8
  call void @llvm.dbg.declare(metadata %"class.std::__1::__compressed_pair.2"** %21, metadata !4981, metadata !DIExpression()), !dbg !5713
  %22 = alloca %"class.altered_carbon::js::ACAstBaseNode"**, align 8
  call void @llvm.dbg.declare(metadata %"class.altered_carbon::js::ACAstBaseNode"*** %22, metadata !4983, metadata !DIExpression()), !dbg !5714
  %23 = alloca %"struct.std::__1::default_delete.5"*, align 8
  call void @llvm.dbg.declare(metadata %"struct.std::__1::default_delete.5"** %23, metadata !4985, metadata !DIExpression()), !dbg !5715
  %24 = alloca %"struct.std::__1::__compressed_pair_elem.3"*, align 8
  call void @llvm.dbg.declare(metadata %"struct.std::__1::__compressed_pair_elem.3"** %24, metadata !4987, metadata !DIExpression()), !dbg !5716
  %25 = alloca %"class.std::__1::__compressed_pair.2"*, align 8
  call void @llvm.dbg.declare(metadata %"class.std::__1::__compressed_pair.2"** %25, metadata !4995, metadata !DIExpression()), !dbg !5720
  %26 = alloca %"struct.std::__1::__compressed_pair_elem.3"*, align 8
  call void @llvm.dbg.declare(metadata %"struct.std::__1::__compressed_pair_elem.3"** %26, metadata !4987, metadata !DIExpression()), !dbg !5721
  %27 = alloca %"class.std::__1::__compressed_pair.2"*, align 8
  call void @llvm.dbg.declare(metadata %"class.std::__1::__compressed_pair.2"** %27, metadata !4995, metadata !DIExpression()), !dbg !5724
  %28 = alloca %"class.std::__1::unique_ptr.1"*, align 8
  call void @llvm.dbg.declare(metadata %"class.std::__1::unique_ptr.1"** %28, metadata !5001, metadata !DIExpression()), !dbg !5725
  %29 = alloca %"class.altered_carbon::js::ACAstBaseNode"*, align 8
  call void @llvm.dbg.declare(metadata %"class.altered_carbon::js::ACAstBaseNode"** %29, metadata !5003, metadata !DIExpression()), !dbg !5726
  %30 = alloca %"class.std::__1::unique_ptr.1"*, align 8
  call void @llvm.dbg.declare(metadata %"class.std::__1::unique_ptr.1"** %30, metadata !5005, metadata !DIExpression()), !dbg !5727
  %31 = alloca %"class.std::__1::unique_ptr.1"*, align 8
  call void @llvm.dbg.declare(metadata %"class.std::__1::unique_ptr.1"** %31, metadata !5007, metadata !DIExpression()), !dbg !5728
  %32 = alloca %"class.altered_carbon::js::ACAstBaseNode"*, align 8
  %33 = alloca %"class.std::__1::unique_ptr.1"*, align 8
  call void @llvm.dbg.declare(metadata %"class.std::__1::unique_ptr.1"** %33, metadata !5009, metadata !DIExpression()), !dbg !5729
  %34 = alloca %"class.std::__1::unique_ptr.1"*, align 8
  call void @llvm.dbg.declare(metadata %"class.std::__1::unique_ptr.1"** %34, metadata !5011, metadata !DIExpression()), !dbg !5730
  %35 = alloca %"struct.std::__1::__compressed_pair_elem.4"*, align 8
  call void @llvm.dbg.declare(metadata %"struct.std::__1::__compressed_pair_elem.4"** %35, metadata !4895, metadata !DIExpression()), !dbg !5731
  %36 = alloca %"class.std::__1::__compressed_pair.2"*, align 8
  call void @llvm.dbg.declare(metadata %"class.std::__1::__compressed_pair.2"** %36, metadata !4908, metadata !DIExpression()), !dbg !5737
  %37 = alloca %"struct.std::__1::__compressed_pair_elem.3"*, align 8
  call void @llvm.dbg.declare(metadata %"struct.std::__1::__compressed_pair_elem.3"** %37, metadata !4987, metadata !DIExpression()), !dbg !5738
  %38 = alloca %"class.std::__1::__compressed_pair.2"*, align 8
  call void @llvm.dbg.declare(metadata %"class.std::__1::__compressed_pair.2"** %38, metadata !4995, metadata !DIExpression()), !dbg !5741
  %39 = alloca %"struct.std::__1::default_delete.5"*, align 8
  call void @llvm.dbg.declare(metadata %"struct.std::__1::default_delete.5"** %39, metadata !5029, metadata !DIExpression()), !dbg !5742
  %40 = alloca %"class.altered_carbon::js::ACAstBaseNode"*, align 8
  call void @llvm.dbg.declare(metadata %"class.altered_carbon::js::ACAstBaseNode"** %40, metadata !5034, metadata !DIExpression()), !dbg !5744
  %41 = alloca %"struct.std::__1::__compressed_pair_elem.3"*, align 8
  call void @llvm.dbg.declare(metadata %"struct.std::__1::__compressed_pair_elem.3"** %41, metadata !4987, metadata !DIExpression()), !dbg !5745
  %42 = alloca %"class.std::__1::__compressed_pair.2"*, align 8
  call void @llvm.dbg.declare(metadata %"class.std::__1::__compressed_pair.2"** %42, metadata !4995, metadata !DIExpression()), !dbg !5748
  %43 = alloca %"class.std::__1::unique_ptr.1"*, align 8
  call void @llvm.dbg.declare(metadata %"class.std::__1::unique_ptr.1"** %43, metadata !5040, metadata !DIExpression()), !dbg !5749
  %44 = alloca %"class.altered_carbon::js::ACAstBaseNode"*, align 8
  call void @llvm.dbg.declare(metadata %"class.altered_carbon::js::ACAstBaseNode"** %44, metadata !5042, metadata !DIExpression()), !dbg !5750
  %45 = alloca %"class.altered_carbon::js::ACAstBaseNode"*, align 8
  call void @llvm.dbg.declare(metadata %"class.altered_carbon::js::ACAstBaseNode"** %45, metadata !5044, metadata !DIExpression()), !dbg !5751
  %46 = alloca %"class.std::__1::unique_ptr.1"*, align 8
  call void @llvm.dbg.declare(metadata %"class.std::__1::unique_ptr.1"** %46, metadata !5046, metadata !DIExpression()), !dbg !5752
  %47 = alloca %"class.std::__1::unique_ptr.1"*, align 8
  call void @llvm.dbg.declare(metadata %"class.std::__1::unique_ptr.1"** %47, metadata !5048, metadata !DIExpression()), !dbg !5753
  %48 = alloca %"class.std::__1::unique_ptr.1"*, align 8
  call void @llvm.dbg.declare(metadata %"class.std::__1::unique_ptr.1"** %48, metadata !5050, metadata !DIExpression()), !dbg !5754
  %49 = alloca %"struct.std::__1::__compressed_pair_elem.0"*, align 8
  call void @llvm.dbg.declare(metadata %"struct.std::__1::__compressed_pair_elem.0"** %49, metadata !5061, metadata !DIExpression()), !dbg !5756
  %50 = alloca %"class.std::__1::__compressed_pair"*, align 8
  call void @llvm.dbg.declare(metadata %"class.std::__1::__compressed_pair"** %50, metadata !5076, metadata !DIExpression()), !dbg !5762
  %51 = alloca %"struct.std::__1::__compressed_pair_elem"*, align 8
  call void @llvm.dbg.declare(metadata %"struct.std::__1::__compressed_pair_elem"** %51, metadata !5079, metadata !DIExpression()), !dbg !5763
  %52 = alloca %"class.std::__1::__compressed_pair"*, align 8
  call void @llvm.dbg.declare(metadata %"class.std::__1::__compressed_pair"** %52, metadata !5086, metadata !DIExpression()), !dbg !5766
  %53 = alloca %"struct.std::__1::default_delete"*, align 8
  call void @llvm.dbg.declare(metadata %"struct.std::__1::default_delete"** %53, metadata !5088, metadata !DIExpression()), !dbg !5767
  %54 = alloca %"struct.altered_carbon::js::ACLexPosition"*, align 8
  call void @llvm.dbg.declare(metadata %"struct.altered_carbon::js::ACLexPosition"** %54, metadata !5093, metadata !DIExpression()), !dbg !5769
  %55 = alloca %"struct.std::__1::__compressed_pair_elem"*, align 8
  call void @llvm.dbg.declare(metadata %"struct.std::__1::__compressed_pair_elem"** %55, metadata !5079, metadata !DIExpression()), !dbg !5770
  %56 = alloca %"class.std::__1::__compressed_pair"*, align 8
  call void @llvm.dbg.declare(metadata %"class.std::__1::__compressed_pair"** %56, metadata !5086, metadata !DIExpression()), !dbg !5773
  %57 = alloca %"class.std::__1::unique_ptr"*, align 8
  call void @llvm.dbg.declare(metadata %"class.std::__1::unique_ptr"** %57, metadata !5099, metadata !DIExpression()), !dbg !5774
  %58 = alloca %"struct.altered_carbon::js::ACLexPosition"*, align 8
  call void @llvm.dbg.declare(metadata %"struct.altered_carbon::js::ACLexPosition"** %58, metadata !5102, metadata !DIExpression()), !dbg !5775
  %59 = alloca %"struct.altered_carbon::js::ACLexPosition"*, align 8
  call void @llvm.dbg.declare(metadata %"struct.altered_carbon::js::ACLexPosition"** %59, metadata !5104, metadata !DIExpression()), !dbg !5776
  %60 = alloca %"class.std::__1::unique_ptr"*, align 8
  call void @llvm.dbg.declare(metadata %"class.std::__1::unique_ptr"** %60, metadata !5106, metadata !DIExpression()), !dbg !5777
  %61 = alloca %"class.std::__1::unique_ptr"*, align 8
  call void @llvm.dbg.declare(metadata %"class.std::__1::unique_ptr"** %61, metadata !5108, metadata !DIExpression()), !dbg !5778
  %62 = alloca %"class.std::__1::unique_ptr.1"*, align 8
  call void @llvm.dbg.declare(metadata %"class.std::__1::unique_ptr.1"** %62, metadata !5050, metadata !DIExpression()), !dbg !5779
  %63 = alloca %"struct.std::__1::__compressed_pair_elem.0"*, align 8
  call void @llvm.dbg.declare(metadata %"struct.std::__1::__compressed_pair_elem.0"** %63, metadata !5061, metadata !DIExpression()), !dbg !5782
  %64 = alloca %"class.std::__1::__compressed_pair"*, align 8
  call void @llvm.dbg.declare(metadata %"class.std::__1::__compressed_pair"** %64, metadata !5076, metadata !DIExpression()), !dbg !5788
  %65 = alloca %"class.std::__1::unique_ptr"*, align 8
  call void @llvm.dbg.declare(metadata %"class.std::__1::unique_ptr"** %65, metadata !5123, metadata !DIExpression()), !dbg !5789
  %66 = alloca %"struct.std::__1::default_delete"*, align 8
  call void @llvm.dbg.declare(metadata %"struct.std::__1::default_delete"** %66, metadata !5125, metadata !DIExpression()), !dbg !5790
  %67 = alloca %"struct.altered_carbon::js::ACLexPosition"**, align 8
  call void @llvm.dbg.declare(metadata %"struct.altered_carbon::js::ACLexPosition"*** %67, metadata !5136, metadata !DIExpression()), !dbg !5792
  %68 = alloca %"struct.std::__1::__compressed_pair_elem"*, align 8
  call void @llvm.dbg.declare(metadata %"struct.std::__1::__compressed_pair_elem"** %68, metadata !5164, metadata !DIExpression()), !dbg !5797
  %69 = alloca %"struct.altered_carbon::js::ACLexPosition"**, align 8
  call void @llvm.dbg.declare(metadata %"struct.altered_carbon::js::ACLexPosition"*** %69, metadata !5166, metadata !DIExpression()), !dbg !5798
  %70 = alloca %"struct.std::__1::default_delete"*, align 8
  call void @llvm.dbg.declare(metadata %"struct.std::__1::default_delete"** %70, metadata !5125, metadata !DIExpression()), !dbg !5799
  %71 = alloca %"struct.std::__1::default_delete"*, align 8
  call void @llvm.dbg.declare(metadata %"struct.std::__1::default_delete"** %71, metadata !5125, metadata !DIExpression()), !dbg !5801
  %72 = alloca %"struct.std::__1::__compressed_pair_elem.0"*, align 8
  call void @llvm.dbg.declare(metadata %"struct.std::__1::__compressed_pair_elem.0"** %72, metadata !5179, metadata !DIExpression()), !dbg !5804
  %73 = alloca %"struct.std::__1::default_delete"*, align 8
  call void @llvm.dbg.declare(metadata %"struct.std::__1::default_delete"** %73, metadata !5181, metadata !DIExpression()), !dbg !5805
  %74 = alloca %"struct.altered_carbon::js::ACLexPosition"**, align 8
  call void @llvm.dbg.declare(metadata %"struct.altered_carbon::js::ACLexPosition"*** %74, metadata !5136, metadata !DIExpression()), !dbg !5806
  %75 = alloca %"class.std::__1::__compressed_pair"*, align 8
  call void @llvm.dbg.declare(metadata %"class.std::__1::__compressed_pair"** %75, metadata !5185, metadata !DIExpression()), !dbg !5808
  %76 = alloca %"struct.altered_carbon::js::ACLexPosition"**, align 8
  call void @llvm.dbg.declare(metadata %"struct.altered_carbon::js::ACLexPosition"*** %76, metadata !5187, metadata !DIExpression()), !dbg !5809
  %77 = alloca %"struct.std::__1::default_delete"*, align 8
  call void @llvm.dbg.declare(metadata %"struct.std::__1::default_delete"** %77, metadata !5189, metadata !DIExpression()), !dbg !5810
  %78 = alloca %"class.std::__1::__compressed_pair"*, align 8
  call void @llvm.dbg.declare(metadata %"class.std::__1::__compressed_pair"** %78, metadata !5191, metadata !DIExpression()), !dbg !5811
  %79 = alloca %"struct.altered_carbon::js::ACLexPosition"**, align 8
  call void @llvm.dbg.declare(metadata %"struct.altered_carbon::js::ACLexPosition"*** %79, metadata !5193, metadata !DIExpression()), !dbg !5812
  %80 = alloca %"struct.std::__1::default_delete"*, align 8
  call void @llvm.dbg.declare(metadata %"struct.std::__1::default_delete"** %80, metadata !5195, metadata !DIExpression()), !dbg !5813
  %81 = alloca %"struct.std::__1::__compressed_pair_elem"*, align 8
  call void @llvm.dbg.declare(metadata %"struct.std::__1::__compressed_pair_elem"** %81, metadata !5079, metadata !DIExpression()), !dbg !5814
  %82 = alloca %"class.std::__1::__compressed_pair"*, align 8
  call void @llvm.dbg.declare(metadata %"class.std::__1::__compressed_pair"** %82, metadata !5086, metadata !DIExpression()), !dbg !5818
  %83 = alloca %"struct.std::__1::__compressed_pair_elem"*, align 8
  call void @llvm.dbg.declare(metadata %"struct.std::__1::__compressed_pair_elem"** %83, metadata !5079, metadata !DIExpression()), !dbg !5819
  %84 = alloca %"class.std::__1::__compressed_pair"*, align 8
  call void @llvm.dbg.declare(metadata %"class.std::__1::__compressed_pair"** %84, metadata !5086, metadata !DIExpression()), !dbg !5822
  %85 = alloca %"class.std::__1::unique_ptr"*, align 8
  call void @llvm.dbg.declare(metadata %"class.std::__1::unique_ptr"** %85, metadata !5207, metadata !DIExpression()), !dbg !5823
  %86 = alloca %"struct.altered_carbon::js::ACLexPosition"*, align 8
  call void @llvm.dbg.declare(metadata %"struct.altered_carbon::js::ACLexPosition"** %86, metadata !5209, metadata !DIExpression()), !dbg !5824
  %87 = alloca %"class.std::__1::unique_ptr"*, align 8
  call void @llvm.dbg.declare(metadata %"class.std::__1::unique_ptr"** %87, metadata !5211, metadata !DIExpression()), !dbg !5825
  %88 = alloca %"class.std::__1::unique_ptr"*, align 8
  call void @llvm.dbg.declare(metadata %"class.std::__1::unique_ptr"** %88, metadata !5213, metadata !DIExpression()), !dbg !5826
  %89 = alloca %"struct.altered_carbon::js::ACLexPosition"*, align 8
  %90 = alloca %"class.std::__1::unique_ptr"*, align 8
  call void @llvm.dbg.declare(metadata %"class.std::__1::unique_ptr"** %90, metadata !5215, metadata !DIExpression()), !dbg !5827
  %91 = alloca %"class.std::__1::unique_ptr"*, align 8
  call void @llvm.dbg.declare(metadata %"class.std::__1::unique_ptr"** %91, metadata !5217, metadata !DIExpression()), !dbg !5828
  %92 = alloca %"struct.std::__1::__compressed_pair_elem.9"*, align 8
  call void @llvm.dbg.declare(metadata %"struct.std::__1::__compressed_pair_elem.9"** %92, metadata !5219, metadata !DIExpression()), !dbg !5829
  %93 = alloca %"class.std::__1::__compressed_pair.7"*, align 8
  call void @llvm.dbg.declare(metadata %"class.std::__1::__compressed_pair.7"** %93, metadata !5232, metadata !DIExpression()), !dbg !5834
  %94 = alloca %"class.std::__1::__vector_base"*, align 8
  call void @llvm.dbg.declare(metadata %"class.std::__1::__vector_base"** %94, metadata !5235, metadata !DIExpression()), !dbg !5835
  %95 = alloca %"class.std::__1::unique_ptr.1"*, align 8
  call void @llvm.dbg.declare(metadata %"class.std::__1::unique_ptr.1"** %95, metadata !5238, metadata !DIExpression()), !dbg !5836
  %96 = alloca %"class.std::__1::unique_ptr.1"*, align 8
  call void @llvm.dbg.declare(metadata %"class.std::__1::unique_ptr.1"** %96, metadata !5050, metadata !DIExpression()), !dbg !5838
  %97 = alloca %"struct.std::__1::__compressed_pair_elem.4"*, align 8
  call void @llvm.dbg.declare(metadata %"struct.std::__1::__compressed_pair_elem.4"** %97, metadata !4895, metadata !DIExpression()), !dbg !5840
  %98 = alloca %"class.std::__1::__compressed_pair.2"*, align 8
  call void @llvm.dbg.declare(metadata %"class.std::__1::__compressed_pair.2"** %98, metadata !4908, metadata !DIExpression()), !dbg !5849
  %99 = alloca %"class.std::__1::unique_ptr.1"*, align 8
  call void @llvm.dbg.declare(metadata %"class.std::__1::unique_ptr.1"** %99, metadata !4911, metadata !DIExpression()), !dbg !5850
  %100 = alloca %"struct.std::__1::default_delete.5"*, align 8
  call void @llvm.dbg.declare(metadata %"struct.std::__1::default_delete.5"** %100, metadata !4913, metadata !DIExpression()), !dbg !5851
  %101 = alloca %"class.altered_carbon::js::ACAstBaseNode"**, align 8
  call void @llvm.dbg.declare(metadata %"class.altered_carbon::js::ACAstBaseNode"*** %101, metadata !4924, metadata !DIExpression()), !dbg !5853
  %102 = alloca %"struct.std::__1::__compressed_pair_elem.3"*, align 8
  call void @llvm.dbg.declare(metadata %"struct.std::__1::__compressed_pair_elem.3"** %102, metadata !4953, metadata !DIExpression()), !dbg !5858
  %103 = alloca %"class.altered_carbon::js::ACAstBaseNode"**, align 8
  call void @llvm.dbg.declare(metadata %"class.altered_carbon::js::ACAstBaseNode"*** %103, metadata !4956, metadata !DIExpression()), !dbg !5859
  %104 = alloca %"struct.std::__1::default_delete.5"*, align 8
  call void @llvm.dbg.declare(metadata %"struct.std::__1::default_delete.5"** %104, metadata !4913, metadata !DIExpression()), !dbg !5860
  %105 = alloca %"struct.std::__1::default_delete.5"*, align 8
  call void @llvm.dbg.declare(metadata %"struct.std::__1::default_delete.5"** %105, metadata !4913, metadata !DIExpression()), !dbg !5862
  %106 = alloca %"struct.std::__1::__compressed_pair_elem.4"*, align 8
  call void @llvm.dbg.declare(metadata %"struct.std::__1::__compressed_pair_elem.4"** %106, metadata !4969, metadata !DIExpression()), !dbg !5865
  %107 = alloca %"struct.std::__1::default_delete.5"*, align 8
  call void @llvm.dbg.declare(metadata %"struct.std::__1::default_delete.5"** %107, metadata !4971, metadata !DIExpression()), !dbg !5866
  %108 = alloca %"class.altered_carbon::js::ACAstBaseNode"**, align 8
  call void @llvm.dbg.declare(metadata %"class.altered_carbon::js::ACAstBaseNode"*** %108, metadata !4924, metadata !DIExpression()), !dbg !5867
  %109 = alloca %"class.std::__1::__compressed_pair.2"*, align 8
  call void @llvm.dbg.declare(metadata %"class.std::__1::__compressed_pair.2"** %109, metadata !4975, metadata !DIExpression()), !dbg !5869
  %110 = alloca %"class.altered_carbon::js::ACAstBaseNode"**, align 8
  call void @llvm.dbg.declare(metadata %"class.altered_carbon::js::ACAstBaseNode"*** %110, metadata !4977, metadata !DIExpression()), !dbg !5870
  %111 = alloca %"struct.std::__1::default_delete.5"*, align 8
  call void @llvm.dbg.declare(metadata %"struct.std::__1::default_delete.5"** %111, metadata !4979, metadata !DIExpression()), !dbg !5871
  %112 = alloca %"class.std::__1::__compressed_pair.2"*, align 8
  call void @llvm.dbg.declare(metadata %"class.std::__1::__compressed_pair.2"** %112, metadata !4981, metadata !DIExpression()), !dbg !5872
  %113 = alloca %"class.altered_carbon::js::ACAstBaseNode"**, align 8
  call void @llvm.dbg.declare(metadata %"class.altered_carbon::js::ACAstBaseNode"*** %113, metadata !4983, metadata !DIExpression()), !dbg !5873
  %114 = alloca %"struct.std::__1::default_delete.5"*, align 8
  call void @llvm.dbg.declare(metadata %"struct.std::__1::default_delete.5"** %114, metadata !4985, metadata !DIExpression()), !dbg !5874
  %115 = alloca %"struct.std::__1::__compressed_pair_elem.3"*, align 8
  call void @llvm.dbg.declare(metadata %"struct.std::__1::__compressed_pair_elem.3"** %115, metadata !4987, metadata !DIExpression()), !dbg !5875
  %116 = alloca %"class.std::__1::__compressed_pair.2"*, align 8
  call void @llvm.dbg.declare(metadata %"class.std::__1::__compressed_pair.2"** %116, metadata !4995, metadata !DIExpression()), !dbg !5879
  %117 = alloca %"struct.std::__1::__compressed_pair_elem.3"*, align 8
  call void @llvm.dbg.declare(metadata %"struct.std::__1::__compressed_pair_elem.3"** %117, metadata !4987, metadata !DIExpression()), !dbg !5880
  %118 = alloca %"class.std::__1::__compressed_pair.2"*, align 8
  call void @llvm.dbg.declare(metadata %"class.std::__1::__compressed_pair.2"** %118, metadata !4995, metadata !DIExpression()), !dbg !5883
  %119 = alloca %"class.std::__1::unique_ptr.1"*, align 8
  call void @llvm.dbg.declare(metadata %"class.std::__1::unique_ptr.1"** %119, metadata !5001, metadata !DIExpression()), !dbg !5884
  %120 = alloca %"class.altered_carbon::js::ACAstBaseNode"*, align 8
  call void @llvm.dbg.declare(metadata %"class.altered_carbon::js::ACAstBaseNode"** %120, metadata !5003, metadata !DIExpression()), !dbg !5885
  %121 = alloca %"class.std::__1::unique_ptr.1"*, align 8
  call void @llvm.dbg.declare(metadata %"class.std::__1::unique_ptr.1"** %121, metadata !5005, metadata !DIExpression()), !dbg !5886
  %122 = alloca %"class.std::__1::unique_ptr.1"*, align 8
  call void @llvm.dbg.declare(metadata %"class.std::__1::unique_ptr.1"** %122, metadata !5007, metadata !DIExpression()), !dbg !5887
  %123 = alloca %"class.altered_carbon::js::ACAstBaseNode"*, align 8
  %124 = alloca %"class.std::__1::unique_ptr.1"*, align 8
  call void @llvm.dbg.declare(metadata %"class.std::__1::unique_ptr.1"** %124, metadata !5009, metadata !DIExpression()), !dbg !5888
  %125 = alloca %"class.std::__1::unique_ptr.1"*, align 8
  call void @llvm.dbg.declare(metadata %"class.std::__1::unique_ptr.1"** %125, metadata !5011, metadata !DIExpression()), !dbg !5889
  %126 = alloca %"class.std::__1::unique_ptr.1"*, align 8
  call void @llvm.dbg.declare(metadata %"class.std::__1::unique_ptr.1"** %126, metadata !5314, metadata !DIExpression()), !dbg !5890
  %127 = alloca %"class.std::__1::allocator"*, align 8
  call void @llvm.dbg.declare(metadata %"class.std::__1::allocator"** %127, metadata !5323, metadata !DIExpression()), !dbg !5892
  %128 = alloca %"class.std::__1::unique_ptr.1"*, align 8
  call void @llvm.dbg.declare(metadata %"class.std::__1::unique_ptr.1"** %128, metadata !5326, metadata !DIExpression()), !dbg !5893
  %129 = alloca %"class.std::__1::unique_ptr.1"*, align 8
  call void @llvm.dbg.declare(metadata %"class.std::__1::unique_ptr.1"** %129, metadata !5328, metadata !DIExpression()), !dbg !5894
  %130 = alloca %"class.std::__1::unique_ptr.1"*, align 8
  call void @llvm.dbg.declare(metadata %"class.std::__1::unique_ptr.1"** %130, metadata !5314, metadata !DIExpression()), !dbg !5895
  %131 = alloca %"class.std::__1::allocator"*, align 8
  call void @llvm.dbg.declare(metadata %"class.std::__1::allocator"** %131, metadata !5332, metadata !DIExpression()), !dbg !5897
  %132 = alloca %"class.std::__1::unique_ptr.1"*, align 8
  call void @llvm.dbg.declare(metadata %"class.std::__1::unique_ptr.1"** %132, metadata !5334, metadata !DIExpression()), !dbg !5898
  %133 = alloca %"class.std::__1::unique_ptr.1"*, align 8
  call void @llvm.dbg.declare(metadata %"class.std::__1::unique_ptr.1"** %133, metadata !5336, metadata !DIExpression()), !dbg !5899
  %134 = alloca %"class.std::__1::unique_ptr.1"*, align 8
  call void @llvm.dbg.declare(metadata %"class.std::__1::unique_ptr.1"** %134, metadata !5314, metadata !DIExpression()), !dbg !5900
  %135 = alloca %"class.std::__1::allocator"*, align 8
  call void @llvm.dbg.declare(metadata %"class.std::__1::allocator"** %135, metadata !5340, metadata !DIExpression()), !dbg !5902
  %136 = alloca %"class.std::__1::unique_ptr.1"*, align 8
  call void @llvm.dbg.declare(metadata %"class.std::__1::unique_ptr.1"** %136, metadata !5342, metadata !DIExpression()), !dbg !5903
  %137 = alloca %"class.std::__1::unique_ptr.1"*, align 8
  call void @llvm.dbg.declare(metadata %"class.std::__1::unique_ptr.1"** %137, metadata !5344, metadata !DIExpression()), !dbg !5904
  %138 = alloca %"struct.std::__1::__has_construct", align 1
  %139 = alloca %"struct.std::__1::vector<std::__1::unique_ptr<altered_carbon::js::ACAstBaseNode, std::__1::default_delete<altered_carbon::js::ACAstBaseNode> >, std::__1::allocator<std::__1::unique_ptr<altered_carbon::js::ACAstBaseNode, std::__1::default_delete<altered_carbon::js::ACAstBaseNode> > > >::__RAII_IncreaseAnnotator"*, align 8
  call void @llvm.dbg.declare(metadata %"struct.std::__1::vector<std::__1::unique_ptr<altered_carbon::js::ACAstBaseNode, std::__1::default_delete<altered_carbon::js::ACAstBaseNode> >, std::__1::allocator<std::__1::unique_ptr<altered_carbon::js::ACAstBaseNode, std::__1::default_delete<altered_carbon::js::ACAstBaseNode> > > >::__RAII_IncreaseAnnotator"** %139, metadata !5346, metadata !DIExpression()), !dbg !5905
  %140 = alloca %"class.std::__1::unique_ptr.1"*, align 8
  call void @llvm.dbg.declare(metadata %"class.std::__1::unique_ptr.1"** %140, metadata !5050, metadata !DIExpression()), !dbg !5907
  %141 = alloca %"struct.std::__1::vector<std::__1::unique_ptr<altered_carbon::js::ACAstBaseNode, std::__1::default_delete<altered_carbon::js::ACAstBaseNode> >, std::__1::allocator<std::__1::unique_ptr<altered_carbon::js::ACAstBaseNode, std::__1::default_delete<altered_carbon::js::ACAstBaseNode> > > >::__RAII_IncreaseAnnotator"*, align 8
  call void @llvm.dbg.declare(metadata %"struct.std::__1::vector<std::__1::unique_ptr<altered_carbon::js::ACAstBaseNode, std::__1::default_delete<altered_carbon::js::ACAstBaseNode> >, std::__1::allocator<std::__1::unique_ptr<altered_carbon::js::ACAstBaseNode, std::__1::default_delete<altered_carbon::js::ACAstBaseNode> > > >::__RAII_IncreaseAnnotator"** %141, metadata !5362, metadata !DIExpression()), !dbg !5909
  %142 = alloca %"class.std::__1::vector"*, align 8
  call void @llvm.dbg.declare(metadata %"class.std::__1::vector"** %142, metadata !5368, metadata !DIExpression()), !dbg !5912
  %143 = alloca i64, align 8
  call void @llvm.dbg.declare(metadata i64* %143, metadata !5370, metadata !DIExpression()), !dbg !5913
  %144 = alloca %"struct.std::__1::vector<std::__1::unique_ptr<altered_carbon::js::ACAstBaseNode, std::__1::default_delete<altered_carbon::js::ACAstBaseNode> >, std::__1::allocator<std::__1::unique_ptr<altered_carbon::js::ACAstBaseNode, std::__1::default_delete<altered_carbon::js::ACAstBaseNode> > > >::__RAII_IncreaseAnnotator"*, align 8
  call void @llvm.dbg.declare(metadata %"struct.std::__1::vector<std::__1::unique_ptr<altered_carbon::js::ACAstBaseNode, std::__1::default_delete<altered_carbon::js::ACAstBaseNode> >, std::__1::allocator<std::__1::unique_ptr<altered_carbon::js::ACAstBaseNode, std::__1::default_delete<altered_carbon::js::ACAstBaseNode> > > >::__RAII_IncreaseAnnotator"** %144, metadata !5372, metadata !DIExpression()), !dbg !5914
  %145 = alloca %"class.std::__1::vector"*, align 8
  call void @llvm.dbg.declare(metadata %"class.std::__1::vector"** %145, metadata !5374, metadata !DIExpression()), !dbg !5915
  %146 = alloca i64, align 8
  call void @llvm.dbg.declare(metadata i64* %146, metadata !5376, metadata !DIExpression()), !dbg !5916
  %147 = alloca %"struct.std::__1::__compressed_pair_elem.8"*, align 8
  call void @llvm.dbg.declare(metadata %"struct.std::__1::__compressed_pair_elem.8"** %147, metadata !5378, metadata !DIExpression()), !dbg !5917
  %148 = alloca %"class.std::__1::__compressed_pair.7"*, align 8
  call void @llvm.dbg.declare(metadata %"class.std::__1::__compressed_pair.7"** %148, metadata !5387, metadata !DIExpression()), !dbg !5921
  %149 = alloca %"class.std::__1::__vector_base"*, align 8
  call void @llvm.dbg.declare(metadata %"class.std::__1::__vector_base"** %149, metadata !5389, metadata !DIExpression()), !dbg !5922
  %150 = alloca %"class.std::__1::vector"*, align 8
  call void @llvm.dbg.declare(metadata %"class.std::__1::vector"** %150, metadata !5391, metadata !DIExpression()), !dbg !5923
  %151 = alloca %"class.std::__1::unique_ptr.1"*, align 8
  call void @llvm.dbg.declare(metadata %"class.std::__1::unique_ptr.1"** %151, metadata !5394, metadata !DIExpression()), !dbg !5924
  %152 = alloca %"struct.std::__1::vector<std::__1::unique_ptr<altered_carbon::js::ACAstBaseNode, std::__1::default_delete<altered_carbon::js::ACAstBaseNode> >, std::__1::allocator<std::__1::unique_ptr<altered_carbon::js::ACAstBaseNode, std::__1::default_delete<altered_carbon::js::ACAstBaseNode> > > >::__RAII_IncreaseAnnotator", align 1
  call void @llvm.dbg.declare(metadata %"struct.std::__1::vector<std::__1::unique_ptr<altered_carbon::js::ACAstBaseNode, std::__1::default_delete<altered_carbon::js::ACAstBaseNode> >, std::__1::allocator<std::__1::unique_ptr<altered_carbon::js::ACAstBaseNode, std::__1::default_delete<altered_carbon::js::ACAstBaseNode> > > >::__RAII_IncreaseAnnotator"* %152, metadata !5396, metadata !DIExpression()), !dbg !5925
  %153 = alloca %"class.std::__1::unique_ptr"*, align 8
  call void @llvm.dbg.declare(metadata %"class.std::__1::unique_ptr"** %153, metadata !5398, metadata !DIExpression()), !dbg !5926
  %154 = alloca %"class.altered_carbon::js::ACAstAssignmentExpression"*, align 8
  %155 = alloca i32, align 4
  %156 = alloca %"class.std::__1::unique_ptr", align 8
  %157 = alloca %"class.std::__1::unique_ptr.1", align 8
  store %"class.altered_carbon::js::ACAstAssignmentExpression"* %0, %"class.altered_carbon::js::ACAstAssignmentExpression"** %154, align 8
  call void @llvm.dbg.declare(metadata %"class.altered_carbon::js::ACAstAssignmentExpression"** %154, metadata !5928, metadata !DIExpression()), !dbg !5930
  call void @llvm.dbg.declare(metadata %"class.std::__1::unique_ptr"* %1, metadata !5931, metadata !DIExpression()), !dbg !5932
  call void @llvm.dbg.declare(metadata %"class.std::__1::unique_ptr.1"* %2, metadata !5933, metadata !DIExpression()), !dbg !5934
  store i32 %3, i32* %155, align 4
  call void @llvm.dbg.declare(metadata i32* %155, metadata !5935, metadata !DIExpression()), !dbg !5936
  call void @llvm.dbg.declare(metadata %"class.std::__1::unique_ptr.1"* %4, metadata !5937, metadata !DIExpression()), !dbg !5938
  %158 = load %"class.altered_carbon::js::ACAstAssignmentExpression"*, %"class.altered_carbon::js::ACAstAssignmentExpression"** %154, align 8
  %159 = bitcast %"class.altered_carbon::js::ACAstAssignmentExpression"* %158 to %"class.altered_carbon::js::ACAstExpressionNode"*, !dbg !5939
  store %"class.std::__1::unique_ptr"* %1, %"class.std::__1::unique_ptr"** %153, align 8
  %160 = load %"class.std::__1::unique_ptr"*, %"class.std::__1::unique_ptr"** %153, align 8, !dbg !5940
  store %"class.std::__1::unique_ptr"* %156, %"class.std::__1::unique_ptr"** %90, align 8
  store %"class.std::__1::unique_ptr"* %160, %"class.std::__1::unique_ptr"** %91, align 8
  %161 = load %"class.std::__1::unique_ptr"*, %"class.std::__1::unique_ptr"** %90, align 8
  %162 = load %"class.std::__1::unique_ptr"*, %"class.std::__1::unique_ptr"** %91, align 8, !dbg !5941
  store %"class.std::__1::unique_ptr"* %161, %"class.std::__1::unique_ptr"** %87, align 8
  store %"class.std::__1::unique_ptr"* %162, %"class.std::__1::unique_ptr"** %88, align 8
  %163 = load %"class.std::__1::unique_ptr"*, %"class.std::__1::unique_ptr"** %87, align 8
  %164 = getelementptr inbounds %"class.std::__1::unique_ptr", %"class.std::__1::unique_ptr"* %163, i32 0, i32 0, !dbg !5942
  %165 = load %"class.std::__1::unique_ptr"*, %"class.std::__1::unique_ptr"** %88, align 8, !dbg !5943
  store %"class.std::__1::unique_ptr"* %165, %"class.std::__1::unique_ptr"** %85, align 8
  %166 = load %"class.std::__1::unique_ptr"*, %"class.std::__1::unique_ptr"** %85, align 8
  %167 = getelementptr inbounds %"class.std::__1::unique_ptr", %"class.std::__1::unique_ptr"* %166, i32 0, i32 0, !dbg !5944
  store %"class.std::__1::__compressed_pair"* %167, %"class.std::__1::__compressed_pair"** %84, align 8
  %168 = load %"class.std::__1::__compressed_pair"*, %"class.std::__1::__compressed_pair"** %84, align 8
  %169 = bitcast %"class.std::__1::__compressed_pair"* %168 to %"struct.std::__1::__compressed_pair_elem"*, !dbg !5945
  store %"struct.std::__1::__compressed_pair_elem"* %169, %"struct.std::__1::__compressed_pair_elem"** %83, align 8
  %170 = load %"struct.std::__1::__compressed_pair_elem"*, %"struct.std::__1::__compressed_pair_elem"** %83, align 8
  %171 = getelementptr inbounds %"struct.std::__1::__compressed_pair_elem", %"struct.std::__1::__compressed_pair_elem"* %170, i32 0, i32 0, !dbg !5946
  %172 = load %"struct.altered_carbon::js::ACLexPosition"*, %"struct.altered_carbon::js::ACLexPosition"** %171, align 8, !dbg !5947
  store %"struct.altered_carbon::js::ACLexPosition"* %172, %"struct.altered_carbon::js::ACLexPosition"** %86, align 8, !dbg !5824
  %173 = getelementptr inbounds %"class.std::__1::unique_ptr", %"class.std::__1::unique_ptr"* %166, i32 0, i32 0, !dbg !5948
  store %"class.std::__1::__compressed_pair"* %173, %"class.std::__1::__compressed_pair"** %82, align 8
  %174 = load %"class.std::__1::__compressed_pair"*, %"class.std::__1::__compressed_pair"** %82, align 8
  %175 = bitcast %"class.std::__1::__compressed_pair"* %174 to %"struct.std::__1::__compressed_pair_elem"*, !dbg !5949
  store %"struct.std::__1::__compressed_pair_elem"* %175, %"struct.std::__1::__compressed_pair_elem"** %81, align 8
  %176 = load %"struct.std::__1::__compressed_pair_elem"*, %"struct.std::__1::__compressed_pair_elem"** %81, align 8
  %177 = getelementptr inbounds %"struct.std::__1::__compressed_pair_elem", %"struct.std::__1::__compressed_pair_elem"* %176, i32 0, i32 0, !dbg !5950
  store %"struct.altered_carbon::js::ACLexPosition"* null, %"struct.altered_carbon::js::ACLexPosition"** %177, align 8, !dbg !5951
  %178 = load %"struct.altered_carbon::js::ACLexPosition"*, %"struct.altered_carbon::js::ACLexPosition"** %86, align 8, !dbg !5952
  store %"struct.altered_carbon::js::ACLexPosition"* %178, %"struct.altered_carbon::js::ACLexPosition"** %89, align 8, !dbg !5943
  %179 = load %"class.std::__1::unique_ptr"*, %"class.std::__1::unique_ptr"** %88, align 8, !dbg !5953
  store %"class.std::__1::unique_ptr"* %179, %"class.std::__1::unique_ptr"** %65, align 8
  %180 = load %"class.std::__1::unique_ptr"*, %"class.std::__1::unique_ptr"** %65, align 8
  %181 = getelementptr inbounds %"class.std::__1::unique_ptr", %"class.std::__1::unique_ptr"* %180, i32 0, i32 0, !dbg !5954
  store %"class.std::__1::__compressed_pair"* %181, %"class.std::__1::__compressed_pair"** %64, align 8
  %182 = load %"class.std::__1::__compressed_pair"*, %"class.std::__1::__compressed_pair"** %64, align 8
  %183 = bitcast %"class.std::__1::__compressed_pair"* %182 to %"struct.std::__1::__compressed_pair_elem.0"*, !dbg !5955
  store %"struct.std::__1::__compressed_pair_elem.0"* %183, %"struct.std::__1::__compressed_pair_elem.0"** %63, align 8
  %184 = load %"struct.std::__1::__compressed_pair_elem.0"*, %"struct.std::__1::__compressed_pair_elem.0"** %63, align 8
  %185 = bitcast %"struct.std::__1::__compressed_pair_elem.0"* %184 to %"struct.std::__1::default_delete"*, !dbg !5956
  store %"struct.std::__1::default_delete"* %185, %"struct.std::__1::default_delete"** %66, align 8
  %186 = load %"struct.std::__1::default_delete"*, %"struct.std::__1::default_delete"** %66, align 8, !dbg !5957
  store %"class.std::__1::__compressed_pair"* %164, %"class.std::__1::__compressed_pair"** %78, align 8
  store %"struct.altered_carbon::js::ACLexPosition"** %89, %"struct.altered_carbon::js::ACLexPosition"*** %79, align 8
  store %"struct.std::__1::default_delete"* %186, %"struct.std::__1::default_delete"** %80, align 8
  %187 = load %"class.std::__1::__compressed_pair"*, %"class.std::__1::__compressed_pair"** %78, align 8
  %188 = load %"struct.altered_carbon::js::ACLexPosition"**, %"struct.altered_carbon::js::ACLexPosition"*** %79, align 8, !dbg !5958
  %189 = load %"struct.std::__1::default_delete"*, %"struct.std::__1::default_delete"** %80, align 8, !dbg !5958
  store %"class.std::__1::__compressed_pair"* %187, %"class.std::__1::__compressed_pair"** %75, align 8
  store %"struct.altered_carbon::js::ACLexPosition"** %188, %"struct.altered_carbon::js::ACLexPosition"*** %76, align 8
  store %"struct.std::__1::default_delete"* %189, %"struct.std::__1::default_delete"** %77, align 8
  %190 = load %"class.std::__1::__compressed_pair"*, %"class.std::__1::__compressed_pair"** %75, align 8
  %191 = bitcast %"class.std::__1::__compressed_pair"* %190 to %"struct.std::__1::__compressed_pair_elem"*, !dbg !5959
  %192 = load %"struct.altered_carbon::js::ACLexPosition"**, %"struct.altered_carbon::js::ACLexPosition"*** %76, align 8, !dbg !5960
  store %"struct.altered_carbon::js::ACLexPosition"** %192, %"struct.altered_carbon::js::ACLexPosition"*** %74, align 8
  %193 = load %"struct.altered_carbon::js::ACLexPosition"**, %"struct.altered_carbon::js::ACLexPosition"*** %74, align 8, !dbg !5961
  store %"struct.std::__1::__compressed_pair_elem"* %191, %"struct.std::__1::__compressed_pair_elem"** %68, align 8
  store %"struct.altered_carbon::js::ACLexPosition"** %193, %"struct.altered_carbon::js::ACLexPosition"*** %69, align 8
  %194 = load %"struct.std::__1::__compressed_pair_elem"*, %"struct.std::__1::__compressed_pair_elem"** %68, align 8
  %195 = getelementptr inbounds %"struct.std::__1::__compressed_pair_elem", %"struct.std::__1::__compressed_pair_elem"* %194, i32 0, i32 0, !dbg !5962
  %196 = load %"struct.altered_carbon::js::ACLexPosition"**, %"struct.altered_carbon::js::ACLexPosition"*** %69, align 8, !dbg !5963
  store %"struct.altered_carbon::js::ACLexPosition"** %196, %"struct.altered_carbon::js::ACLexPosition"*** %67, align 8
  %197 = load %"struct.altered_carbon::js::ACLexPosition"**, %"struct.altered_carbon::js::ACLexPosition"*** %67, align 8, !dbg !5964
  %198 = load %"struct.altered_carbon::js::ACLexPosition"*, %"struct.altered_carbon::js::ACLexPosition"** %197, align 8, !dbg !5965
  store %"struct.altered_carbon::js::ACLexPosition"* %198, %"struct.altered_carbon::js::ACLexPosition"** %195, align 8, !dbg !5962
  %199 = bitcast %"class.std::__1::__compressed_pair"* %190 to %"struct.std::__1::__compressed_pair_elem.0"*, !dbg !5959
  %200 = load %"struct.std::__1::default_delete"*, %"struct.std::__1::default_delete"** %77, align 8, !dbg !5966
  store %"struct.std::__1::default_delete"* %200, %"struct.std::__1::default_delete"** %70, align 8
  %201 = load %"struct.std::__1::default_delete"*, %"struct.std::__1::default_delete"** %70, align 8, !dbg !5967
  store %"struct.std::__1::__compressed_pair_elem.0"* %199, %"struct.std::__1::__compressed_pair_elem.0"** %72, align 8
  store %"struct.std::__1::default_delete"* %201, %"struct.std::__1::default_delete"** %73, align 8
  %202 = load %"struct.std::__1::__compressed_pair_elem.0"*, %"struct.std::__1::__compressed_pair_elem.0"** %72, align 8
  %203 = bitcast %"struct.std::__1::__compressed_pair_elem.0"* %202 to %"struct.std::__1::default_delete"*, !dbg !5968
  %204 = load %"struct.std::__1::default_delete"*, %"struct.std::__1::default_delete"** %73, align 8, !dbg !5969
  store %"struct.std::__1::default_delete"* %204, %"struct.std::__1::default_delete"** %71, align 8
  %205 = load %"struct.std::__1::default_delete"*, %"struct.std::__1::default_delete"** %71, align 8, !dbg !5970
  store %"class.std::__1::unique_ptr.1"* %2, %"class.std::__1::unique_ptr.1"** %48, align 8
  %206 = load %"class.std::__1::unique_ptr.1"*, %"class.std::__1::unique_ptr.1"** %48, align 8, !dbg !5971
  store %"class.std::__1::unique_ptr.1"* %157, %"class.std::__1::unique_ptr.1"** %33, align 8
  store %"class.std::__1::unique_ptr.1"* %206, %"class.std::__1::unique_ptr.1"** %34, align 8
  %207 = load %"class.std::__1::unique_ptr.1"*, %"class.std::__1::unique_ptr.1"** %33, align 8
  %208 = load %"class.std::__1::unique_ptr.1"*, %"class.std::__1::unique_ptr.1"** %34, align 8, !dbg !5972
  store %"class.std::__1::unique_ptr.1"* %207, %"class.std::__1::unique_ptr.1"** %30, align 8
  store %"class.std::__1::unique_ptr.1"* %208, %"class.std::__1::unique_ptr.1"** %31, align 8
  %209 = load %"class.std::__1::unique_ptr.1"*, %"class.std::__1::unique_ptr.1"** %30, align 8
  %210 = getelementptr inbounds %"class.std::__1::unique_ptr.1", %"class.std::__1::unique_ptr.1"* %209, i32 0, i32 0, !dbg !5973
  %211 = load %"class.std::__1::unique_ptr.1"*, %"class.std::__1::unique_ptr.1"** %31, align 8, !dbg !5974
  store %"class.std::__1::unique_ptr.1"* %211, %"class.std::__1::unique_ptr.1"** %28, align 8
  %212 = load %"class.std::__1::unique_ptr.1"*, %"class.std::__1::unique_ptr.1"** %28, align 8
  %213 = getelementptr inbounds %"class.std::__1::unique_ptr.1", %"class.std::__1::unique_ptr.1"* %212, i32 0, i32 0, !dbg !5975
  store %"class.std::__1::__compressed_pair.2"* %213, %"class.std::__1::__compressed_pair.2"** %27, align 8
  %214 = load %"class.std::__1::__compressed_pair.2"*, %"class.std::__1::__compressed_pair.2"** %27, align 8
  %215 = bitcast %"class.std::__1::__compressed_pair.2"* %214 to %"struct.std::__1::__compressed_pair_elem.3"*, !dbg !5976
  store %"struct.std::__1::__compressed_pair_elem.3"* %215, %"struct.std::__1::__compressed_pair_elem.3"** %26, align 8
  %216 = load %"struct.std::__1::__compressed_pair_elem.3"*, %"struct.std::__1::__compressed_pair_elem.3"** %26, align 8
  %217 = getelementptr inbounds %"struct.std::__1::__compressed_pair_elem.3", %"struct.std::__1::__compressed_pair_elem.3"* %216, i32 0, i32 0, !dbg !5977
  %218 = load %"class.altered_carbon::js::ACAstBaseNode"*, %"class.altered_carbon::js::ACAstBaseNode"** %217, align 8, !dbg !5978
  store %"class.altered_carbon::js::ACAstBaseNode"* %218, %"class.altered_carbon::js::ACAstBaseNode"** %29, align 8, !dbg !5726
  %219 = getelementptr inbounds %"class.std::__1::unique_ptr.1", %"class.std::__1::unique_ptr.1"* %212, i32 0, i32 0, !dbg !5979
  store %"class.std::__1::__compressed_pair.2"* %219, %"class.std::__1::__compressed_pair.2"** %25, align 8
  %220 = load %"class.std::__1::__compressed_pair.2"*, %"class.std::__1::__compressed_pair.2"** %25, align 8
  %221 = bitcast %"class.std::__1::__compressed_pair.2"* %220 to %"struct.std::__1::__compressed_pair_elem.3"*, !dbg !5980
  store %"struct.std::__1::__compressed_pair_elem.3"* %221, %"struct.std::__1::__compressed_pair_elem.3"** %24, align 8
  %222 = load %"struct.std::__1::__compressed_pair_elem.3"*, %"struct.std::__1::__compressed_pair_elem.3"** %24, align 8
  %223 = getelementptr inbounds %"struct.std::__1::__compressed_pair_elem.3", %"struct.std::__1::__compressed_pair_elem.3"* %222, i32 0, i32 0, !dbg !5981
  store %"class.altered_carbon::js::ACAstBaseNode"* null, %"class.altered_carbon::js::ACAstBaseNode"** %223, align 8, !dbg !5982
  %224 = load %"class.altered_carbon::js::ACAstBaseNode"*, %"class.altered_carbon::js::ACAstBaseNode"** %29, align 8, !dbg !5983
  store %"class.altered_carbon::js::ACAstBaseNode"* %224, %"class.altered_carbon::js::ACAstBaseNode"** %32, align 8, !dbg !5974
  %225 = load %"class.std::__1::unique_ptr.1"*, %"class.std::__1::unique_ptr.1"** %31, align 8, !dbg !5984
  store %"class.std::__1::unique_ptr.1"* %225, %"class.std::__1::unique_ptr.1"** %8, align 8
  %226 = load %"class.std::__1::unique_ptr.1"*, %"class.std::__1::unique_ptr.1"** %8, align 8
  %227 = getelementptr inbounds %"class.std::__1::unique_ptr.1", %"class.std::__1::unique_ptr.1"* %226, i32 0, i32 0, !dbg !5985
  store %"class.std::__1::__compressed_pair.2"* %227, %"class.std::__1::__compressed_pair.2"** %7, align 8
  %228 = load %"class.std::__1::__compressed_pair.2"*, %"class.std::__1::__compressed_pair.2"** %7, align 8
  %229 = bitcast %"class.std::__1::__compressed_pair.2"* %228 to %"struct.std::__1::__compressed_pair_elem.4"*, !dbg !5986
  store %"struct.std::__1::__compressed_pair_elem.4"* %229, %"struct.std::__1::__compressed_pair_elem.4"** %6, align 8
  %230 = load %"struct.std::__1::__compressed_pair_elem.4"*, %"struct.std::__1::__compressed_pair_elem.4"** %6, align 8
  %231 = bitcast %"struct.std::__1::__compressed_pair_elem.4"* %230 to %"struct.std::__1::default_delete.5"*, !dbg !5987
  store %"struct.std::__1::default_delete.5"* %231, %"struct.std::__1::default_delete.5"** %9, align 8
  %232 = load %"struct.std::__1::default_delete.5"*, %"struct.std::__1::default_delete.5"** %9, align 8, !dbg !5988
  store %"class.std::__1::__compressed_pair.2"* %210, %"class.std::__1::__compressed_pair.2"** %21, align 8
  store %"class.altered_carbon::js::ACAstBaseNode"** %32, %"class.altered_carbon::js::ACAstBaseNode"*** %22, align 8
  store %"struct.std::__1::default_delete.5"* %232, %"struct.std::__1::default_delete.5"** %23, align 8
  %233 = load %"class.std::__1::__compressed_pair.2"*, %"class.std::__1::__compressed_pair.2"** %21, align 8
  %234 = load %"class.altered_carbon::js::ACAstBaseNode"**, %"class.altered_carbon::js::ACAstBaseNode"*** %22, align 8, !dbg !5989
  %235 = load %"struct.std::__1::default_delete.5"*, %"struct.std::__1::default_delete.5"** %23, align 8, !dbg !5989
  store %"class.std::__1::__compressed_pair.2"* %233, %"class.std::__1::__compressed_pair.2"** %18, align 8
  store %"class.altered_carbon::js::ACAstBaseNode"** %234, %"class.altered_carbon::js::ACAstBaseNode"*** %19, align 8
  store %"struct.std::__1::default_delete.5"* %235, %"struct.std::__1::default_delete.5"** %20, align 8
  %236 = load %"class.std::__1::__compressed_pair.2"*, %"class.std::__1::__compressed_pair.2"** %18, align 8
  %237 = bitcast %"class.std::__1::__compressed_pair.2"* %236 to %"struct.std::__1::__compressed_pair_elem.3"*, !dbg !5990
  %238 = load %"class.altered_carbon::js::ACAstBaseNode"**, %"class.altered_carbon::js::ACAstBaseNode"*** %19, align 8, !dbg !5991
  store %"class.altered_carbon::js::ACAstBaseNode"** %238, %"class.altered_carbon::js::ACAstBaseNode"*** %17, align 8
  %239 = load %"class.altered_carbon::js::ACAstBaseNode"**, %"class.altered_carbon::js::ACAstBaseNode"*** %17, align 8, !dbg !5992
  store %"struct.std::__1::__compressed_pair_elem.3"* %237, %"struct.std::__1::__compressed_pair_elem.3"** %11, align 8
  store %"class.altered_carbon::js::ACAstBaseNode"** %239, %"class.altered_carbon::js::ACAstBaseNode"*** %12, align 8
  %240 = load %"struct.std::__1::__compressed_pair_elem.3"*, %"struct.std::__1::__compressed_pair_elem.3"** %11, align 8
  %241 = getelementptr inbounds %"struct.std::__1::__compressed_pair_elem.3", %"struct.std::__1::__compressed_pair_elem.3"* %240, i32 0, i32 0, !dbg !5993
  %242 = load %"class.altered_carbon::js::ACAstBaseNode"**, %"class.altered_carbon::js::ACAstBaseNode"*** %12, align 8, !dbg !5994
  store %"class.altered_carbon::js::ACAstBaseNode"** %242, %"class.altered_carbon::js::ACAstBaseNode"*** %10, align 8
  %243 = load %"class.altered_carbon::js::ACAstBaseNode"**, %"class.altered_carbon::js::ACAstBaseNode"*** %10, align 8, !dbg !5995
  %244 = load %"class.altered_carbon::js::ACAstBaseNode"*, %"class.altered_carbon::js::ACAstBaseNode"** %243, align 8, !dbg !5996
  store %"class.altered_carbon::js::ACAstBaseNode"* %244, %"class.altered_carbon::js::ACAstBaseNode"** %241, align 8, !dbg !5993
  %245 = bitcast %"class.std::__1::__compressed_pair.2"* %236 to %"struct.std::__1::__compressed_pair_elem.4"*, !dbg !5990
  %246 = load %"struct.std::__1::default_delete.5"*, %"struct.std::__1::default_delete.5"** %20, align 8, !dbg !5997
  store %"struct.std::__1::default_delete.5"* %246, %"struct.std::__1::default_delete.5"** %13, align 8
  %247 = load %"struct.std::__1::default_delete.5"*, %"struct.std::__1::default_delete.5"** %13, align 8, !dbg !5998
  store %"struct.std::__1::__compressed_pair_elem.4"* %245, %"struct.std::__1::__compressed_pair_elem.4"** %15, align 8
  store %"struct.std::__1::default_delete.5"* %247, %"struct.std::__1::default_delete.5"** %16, align 8
  %248 = load %"struct.std::__1::__compressed_pair_elem.4"*, %"struct.std::__1::__compressed_pair_elem.4"** %15, align 8
  %249 = bitcast %"struct.std::__1::__compressed_pair_elem.4"* %248 to %"struct.std::__1::default_delete.5"*, !dbg !5999
  %250 = load %"struct.std::__1::default_delete.5"*, %"struct.std::__1::default_delete.5"** %16, align 8, !dbg !6000
  store %"struct.std::__1::default_delete.5"* %250, %"struct.std::__1::default_delete.5"** %14, align 8
  %251 = load %"struct.std::__1::default_delete.5"*, %"struct.std::__1::default_delete.5"** %14, align 8, !dbg !6001
  call void @_ZN14altered_carbon2js19ACAstExpressionNodeC2ENSt3__110unique_ptrINS0_13ACLexPositionENS2_14default_deleteIS4_EEEENS3_INS0_13ACAstBaseNodeENS5_IS8_EEEENS8_11AstNodeTypeENS8_14AstNodeSubTypeE(%"class.altered_carbon::js::ACAstExpressionNode"* %159, %"class.std::__1::unique_ptr"* %156, %"class.std::__1::unique_ptr.1"* %157, i32 4, i32 403), !dbg !6002
  store %"class.std::__1::unique_ptr.1"* %157, %"class.std::__1::unique_ptr.1"** %47, align 8
  %252 = load %"class.std::__1::unique_ptr.1"*, %"class.std::__1::unique_ptr.1"** %47, align 8
  store %"class.std::__1::unique_ptr.1"* %252, %"class.std::__1::unique_ptr.1"** %46, align 8
  %253 = load %"class.std::__1::unique_ptr.1"*, %"class.std::__1::unique_ptr.1"** %46, align 8
  store %"class.std::__1::unique_ptr.1"* %253, %"class.std::__1::unique_ptr.1"** %43, align 8
  store %"class.altered_carbon::js::ACAstBaseNode"* null, %"class.altered_carbon::js::ACAstBaseNode"** %44, align 8
  %254 = load %"class.std::__1::unique_ptr.1"*, %"class.std::__1::unique_ptr.1"** %43, align 8
  %255 = getelementptr inbounds %"class.std::__1::unique_ptr.1", %"class.std::__1::unique_ptr.1"* %254, i32 0, i32 0, !dbg !6003
  store %"class.std::__1::__compressed_pair.2"* %255, %"class.std::__1::__compressed_pair.2"** %42, align 8
  %256 = load %"class.std::__1::__compressed_pair.2"*, %"class.std::__1::__compressed_pair.2"** %42, align 8
  %257 = bitcast %"class.std::__1::__compressed_pair.2"* %256 to %"struct.std::__1::__compressed_pair_elem.3"*, !dbg !6004
  store %"struct.std::__1::__compressed_pair_elem.3"* %257, %"struct.std::__1::__compressed_pair_elem.3"** %41, align 8
  %258 = load %"struct.std::__1::__compressed_pair_elem.3"*, %"struct.std::__1::__compressed_pair_elem.3"** %41, align 8
  %259 = getelementptr inbounds %"struct.std::__1::__compressed_pair_elem.3", %"struct.std::__1::__compressed_pair_elem.3"* %258, i32 0, i32 0, !dbg !6005
  %260 = load %"class.altered_carbon::js::ACAstBaseNode"*, %"class.altered_carbon::js::ACAstBaseNode"** %259, align 8, !dbg !6006
  store %"class.altered_carbon::js::ACAstBaseNode"* %260, %"class.altered_carbon::js::ACAstBaseNode"** %45, align 8, !dbg !5751
  %261 = load %"class.altered_carbon::js::ACAstBaseNode"*, %"class.altered_carbon::js::ACAstBaseNode"** %44, align 8, !dbg !6007
  %262 = getelementptr inbounds %"class.std::__1::unique_ptr.1", %"class.std::__1::unique_ptr.1"* %254, i32 0, i32 0, !dbg !6008
  store %"class.std::__1::__compressed_pair.2"* %262, %"class.std::__1::__compressed_pair.2"** %38, align 8
  %263 = load %"class.std::__1::__compressed_pair.2"*, %"class.std::__1::__compressed_pair.2"** %38, align 8
  %264 = bitcast %"class.std::__1::__compressed_pair.2"* %263 to %"struct.std::__1::__compressed_pair_elem.3"*, !dbg !6009
  store %"struct.std::__1::__compressed_pair_elem.3"* %264, %"struct.std::__1::__compressed_pair_elem.3"** %37, align 8
  %265 = load %"struct.std::__1::__compressed_pair_elem.3"*, %"struct.std::__1::__compressed_pair_elem.3"** %37, align 8
  %266 = getelementptr inbounds %"struct.std::__1::__compressed_pair_elem.3", %"struct.std::__1::__compressed_pair_elem.3"* %265, i32 0, i32 0, !dbg !6010
  store %"class.altered_carbon::js::ACAstBaseNode"* %261, %"class.altered_carbon::js::ACAstBaseNode"** %266, align 8, !dbg !6011
  %267 = load %"class.altered_carbon::js::ACAstBaseNode"*, %"class.altered_carbon::js::ACAstBaseNode"** %45, align 8, !dbg !6012
  %268 = icmp ne %"class.altered_carbon::js::ACAstBaseNode"* %267, null, !dbg !6012
  br i1 %268, label %269, label %285, !dbg !6013

; <label>:269:                                    ; preds = %5
  %270 = getelementptr inbounds %"class.std::__1::unique_ptr.1", %"class.std::__1::unique_ptr.1"* %254, i32 0, i32 0, !dbg !6014
  store %"class.std::__1::__compressed_pair.2"* %270, %"class.std::__1::__compressed_pair.2"** %36, align 8
  %271 = load %"class.std::__1::__compressed_pair.2"*, %"class.std::__1::__compressed_pair.2"** %36, align 8
  %272 = bitcast %"class.std::__1::__compressed_pair.2"* %271 to %"struct.std::__1::__compressed_pair_elem.4"*, !dbg !6015
  store %"struct.std::__1::__compressed_pair_elem.4"* %272, %"struct.std::__1::__compressed_pair_elem.4"** %35, align 8
  %273 = load %"struct.std::__1::__compressed_pair_elem.4"*, %"struct.std::__1::__compressed_pair_elem.4"** %35, align 8
  %274 = bitcast %"struct.std::__1::__compressed_pair_elem.4"* %273 to %"struct.std::__1::default_delete.5"*, !dbg !6016
  %275 = load %"class.altered_carbon::js::ACAstBaseNode"*, %"class.altered_carbon::js::ACAstBaseNode"** %45, align 8, !dbg !6017
  store %"struct.std::__1::default_delete.5"* %274, %"struct.std::__1::default_delete.5"** %39, align 8
  store %"class.altered_carbon::js::ACAstBaseNode"* %275, %"class.altered_carbon::js::ACAstBaseNode"** %40, align 8
  %276 = load %"struct.std::__1::default_delete.5"*, %"struct.std::__1::default_delete.5"** %39, align 8
  %277 = load %"class.altered_carbon::js::ACAstBaseNode"*, %"class.altered_carbon::js::ACAstBaseNode"** %40, align 8, !dbg !6018
  %278 = icmp eq %"class.altered_carbon::js::ACAstBaseNode"* %277, null, !dbg !6019
  br i1 %278, label %284, label %279, !dbg !6019

; <label>:279:                                    ; preds = %269
  %280 = bitcast %"class.altered_carbon::js::ACAstBaseNode"* %277 to void (%"class.altered_carbon::js::ACAstBaseNode"*)***, !dbg !6019
  %281 = load void (%"class.altered_carbon::js::ACAstBaseNode"*)**, void (%"class.altered_carbon::js::ACAstBaseNode"*)*** %280, align 8, !dbg !6019
  %282 = getelementptr inbounds void (%"class.altered_carbon::js::ACAstBaseNode"*)*, void (%"class.altered_carbon::js::ACAstBaseNode"*)** %281, i64 1, !dbg !6019
  %283 = load void (%"class.altered_carbon::js::ACAstBaseNode"*)*, void (%"class.altered_carbon::js::ACAstBaseNode"*)** %282, align 8, !dbg !6019
  call void %283(%"class.altered_carbon::js::ACAstBaseNode"* %277) #8, !dbg !6019
  br label %284, !dbg !6019

; <label>:284:                                    ; preds = %279, %269
  br label %285, !dbg !6014

; <label>:285:                                    ; preds = %5, %284
  store %"class.std::__1::unique_ptr"* %156, %"class.std::__1::unique_ptr"** %61, align 8
  %286 = load %"class.std::__1::unique_ptr"*, %"class.std::__1::unique_ptr"** %61, align 8
  store %"class.std::__1::unique_ptr"* %286, %"class.std::__1::unique_ptr"** %60, align 8
  %287 = load %"class.std::__1::unique_ptr"*, %"class.std::__1::unique_ptr"** %60, align 8
  store %"class.std::__1::unique_ptr"* %287, %"class.std::__1::unique_ptr"** %57, align 8
  store %"struct.altered_carbon::js::ACLexPosition"* null, %"struct.altered_carbon::js::ACLexPosition"** %58, align 8
  %288 = load %"class.std::__1::unique_ptr"*, %"class.std::__1::unique_ptr"** %57, align 8
  %289 = getelementptr inbounds %"class.std::__1::unique_ptr", %"class.std::__1::unique_ptr"* %288, i32 0, i32 0, !dbg !6020
  store %"class.std::__1::__compressed_pair"* %289, %"class.std::__1::__compressed_pair"** %56, align 8
  %290 = load %"class.std::__1::__compressed_pair"*, %"class.std::__1::__compressed_pair"** %56, align 8
  %291 = bitcast %"class.std::__1::__compressed_pair"* %290 to %"struct.std::__1::__compressed_pair_elem"*, !dbg !6021
  store %"struct.std::__1::__compressed_pair_elem"* %291, %"struct.std::__1::__compressed_pair_elem"** %55, align 8
  %292 = load %"struct.std::__1::__compressed_pair_elem"*, %"struct.std::__1::__compressed_pair_elem"** %55, align 8
  %293 = getelementptr inbounds %"struct.std::__1::__compressed_pair_elem", %"struct.std::__1::__compressed_pair_elem"* %292, i32 0, i32 0, !dbg !6022
  %294 = load %"struct.altered_carbon::js::ACLexPosition"*, %"struct.altered_carbon::js::ACLexPosition"** %293, align 8, !dbg !6023
  store %"struct.altered_carbon::js::ACLexPosition"* %294, %"struct.altered_carbon::js::ACLexPosition"** %59, align 8, !dbg !5776
  %295 = load %"struct.altered_carbon::js::ACLexPosition"*, %"struct.altered_carbon::js::ACLexPosition"** %58, align 8, !dbg !6024
  %296 = getelementptr inbounds %"class.std::__1::unique_ptr", %"class.std::__1::unique_ptr"* %288, i32 0, i32 0, !dbg !6025
  store %"class.std::__1::__compressed_pair"* %296, %"class.std::__1::__compressed_pair"** %52, align 8
  %297 = load %"class.std::__1::__compressed_pair"*, %"class.std::__1::__compressed_pair"** %52, align 8
  %298 = bitcast %"class.std::__1::__compressed_pair"* %297 to %"struct.std::__1::__compressed_pair_elem"*, !dbg !6026
  store %"struct.std::__1::__compressed_pair_elem"* %298, %"struct.std::__1::__compressed_pair_elem"** %51, align 8
  %299 = load %"struct.std::__1::__compressed_pair_elem"*, %"struct.std::__1::__compressed_pair_elem"** %51, align 8
  %300 = getelementptr inbounds %"struct.std::__1::__compressed_pair_elem", %"struct.std::__1::__compressed_pair_elem"* %299, i32 0, i32 0, !dbg !6027
  store %"struct.altered_carbon::js::ACLexPosition"* %295, %"struct.altered_carbon::js::ACLexPosition"** %300, align 8, !dbg !6028
  %301 = load %"struct.altered_carbon::js::ACLexPosition"*, %"struct.altered_carbon::js::ACLexPosition"** %59, align 8, !dbg !6029
  %302 = icmp ne %"struct.altered_carbon::js::ACLexPosition"* %301, null, !dbg !6029
  br i1 %302, label %303, label %319, !dbg !6030

; <label>:303:                                    ; preds = %285
  %304 = getelementptr inbounds %"class.std::__1::unique_ptr", %"class.std::__1::unique_ptr"* %288, i32 0, i32 0, !dbg !6031
  store %"class.std::__1::__compressed_pair"* %304, %"class.std::__1::__compressed_pair"** %50, align 8
  %305 = load %"class.std::__1::__compressed_pair"*, %"class.std::__1::__compressed_pair"** %50, align 8
  %306 = bitcast %"class.std::__1::__compressed_pair"* %305 to %"struct.std::__1::__compressed_pair_elem.0"*, !dbg !6032
  store %"struct.std::__1::__compressed_pair_elem.0"* %306, %"struct.std::__1::__compressed_pair_elem.0"** %49, align 8
  %307 = load %"struct.std::__1::__compressed_pair_elem.0"*, %"struct.std::__1::__compressed_pair_elem.0"** %49, align 8
  %308 = bitcast %"struct.std::__1::__compressed_pair_elem.0"* %307 to %"struct.std::__1::default_delete"*, !dbg !6033
  %309 = load %"struct.altered_carbon::js::ACLexPosition"*, %"struct.altered_carbon::js::ACLexPosition"** %59, align 8, !dbg !6034
  store %"struct.std::__1::default_delete"* %308, %"struct.std::__1::default_delete"** %53, align 8
  store %"struct.altered_carbon::js::ACLexPosition"* %309, %"struct.altered_carbon::js::ACLexPosition"** %54, align 8
  %310 = load %"struct.std::__1::default_delete"*, %"struct.std::__1::default_delete"** %53, align 8
  %311 = load %"struct.altered_carbon::js::ACLexPosition"*, %"struct.altered_carbon::js::ACLexPosition"** %54, align 8, !dbg !6035
  %312 = icmp eq %"struct.altered_carbon::js::ACLexPosition"* %311, null, !dbg !6036
  br i1 %312, label %318, label %313, !dbg !6036

; <label>:313:                                    ; preds = %303
  %314 = bitcast %"struct.altered_carbon::js::ACLexPosition"* %311 to void (%"struct.altered_carbon::js::ACLexPosition"*)***, !dbg !6036
  %315 = load void (%"struct.altered_carbon::js::ACLexPosition"*)**, void (%"struct.altered_carbon::js::ACLexPosition"*)*** %314, align 8, !dbg !6036
  %316 = getelementptr inbounds void (%"struct.altered_carbon::js::ACLexPosition"*)*, void (%"struct.altered_carbon::js::ACLexPosition"*)** %315, i64 1, !dbg !6036
  %317 = load void (%"struct.altered_carbon::js::ACLexPosition"*)*, void (%"struct.altered_carbon::js::ACLexPosition"*)** %316, align 8, !dbg !6036
  call void %317(%"struct.altered_carbon::js::ACLexPosition"* %311) #8, !dbg !6036
  br label %318, !dbg !6036

; <label>:318:                                    ; preds = %313, %303
  br label %319, !dbg !6031

; <label>:319:                                    ; preds = %285, %318
  %320 = bitcast %"class.altered_carbon::js::ACAstAssignmentExpression"* %158 to i32 (...)***, !dbg !5939
  store i32 (...)** bitcast (i8** getelementptr inbounds ({ [14 x i8*] }, { [14 x i8*] }* @_ZTVN14altered_carbon2js25ACAstAssignmentExpressionE, i32 0, inrange i32 0, i32 2) to i32 (...)**), i32 (...)*** %320, align 8, !dbg !5939
  %321 = getelementptr inbounds %"class.altered_carbon::js::ACAstAssignmentExpression", %"class.altered_carbon::js::ACAstAssignmentExpression"* %158, i32 0, i32 1, !dbg !6037
  %322 = load i32, i32* %155, align 4, !dbg !6038
  store i32 %322, i32* %321, align 8, !dbg !6037
  %323 = bitcast %"class.altered_carbon::js::ACAstAssignmentExpression"* %158 to %"class.altered_carbon::js::ACAstBaseNode"*, !dbg !6039
  %324 = getelementptr inbounds %"class.altered_carbon::js::ACAstBaseNode", %"class.altered_carbon::js::ACAstBaseNode"* %323, i32 0, i32 4, !dbg !6039
  store %"class.std::__1::unique_ptr.1"* %4, %"class.std::__1::unique_ptr.1"** %62, align 8
  %325 = load %"class.std::__1::unique_ptr.1"*, %"class.std::__1::unique_ptr.1"** %62, align 8, !dbg !6040
  store %"class.std::__1::vector"* %324, %"class.std::__1::vector"** %150, align 8
  store %"class.std::__1::unique_ptr.1"* %325, %"class.std::__1::unique_ptr.1"** %151, align 8
  %326 = load %"class.std::__1::vector"*, %"class.std::__1::vector"** %150, align 8
  %327 = bitcast %"class.std::__1::vector"* %326 to %"class.std::__1::__vector_base"*, !dbg !6041
  %328 = getelementptr inbounds %"class.std::__1::__vector_base", %"class.std::__1::__vector_base"* %327, i32 0, i32 1, !dbg !6041
  %329 = load %"class.std::__1::unique_ptr.1"*, %"class.std::__1::unique_ptr.1"** %328, align 8, !dbg !6041
  %330 = bitcast %"class.std::__1::vector"* %326 to %"class.std::__1::__vector_base"*, !dbg !6042
  store %"class.std::__1::__vector_base"* %330, %"class.std::__1::__vector_base"** %149, align 8
  %331 = load %"class.std::__1::__vector_base"*, %"class.std::__1::__vector_base"** %149, align 8
  %332 = getelementptr inbounds %"class.std::__1::__vector_base", %"class.std::__1::__vector_base"* %331, i32 0, i32 2, !dbg !6043
  store %"class.std::__1::__compressed_pair.7"* %332, %"class.std::__1::__compressed_pair.7"** %148, align 8
  %333 = load %"class.std::__1::__compressed_pair.7"*, %"class.std::__1::__compressed_pair.7"** %148, align 8
  %334 = bitcast %"class.std::__1::__compressed_pair.7"* %333 to %"struct.std::__1::__compressed_pair_elem.8"*, !dbg !6044
  store %"struct.std::__1::__compressed_pair_elem.8"* %334, %"struct.std::__1::__compressed_pair_elem.8"** %147, align 8
  %335 = load %"struct.std::__1::__compressed_pair_elem.8"*, %"struct.std::__1::__compressed_pair_elem.8"** %147, align 8
  %336 = getelementptr inbounds %"struct.std::__1::__compressed_pair_elem.8", %"struct.std::__1::__compressed_pair_elem.8"* %335, i32 0, i32 0, !dbg !6045
  %337 = load %"class.std::__1::unique_ptr.1"*, %"class.std::__1::unique_ptr.1"** %336, align 8, !dbg !6042
  %338 = icmp ult %"class.std::__1::unique_ptr.1"* %329, %337, !dbg !6046
  br i1 %338, label %339, label %421, !dbg !6047

; <label>:339:                                    ; preds = %319
  store %"struct.std::__1::vector<std::__1::unique_ptr<altered_carbon::js::ACAstBaseNode, std::__1::default_delete<altered_carbon::js::ACAstBaseNode> >, std::__1::allocator<std::__1::unique_ptr<altered_carbon::js::ACAstBaseNode, std::__1::default_delete<altered_carbon::js::ACAstBaseNode> > > >::__RAII_IncreaseAnnotator"* %152, %"struct.std::__1::vector<std::__1::unique_ptr<altered_carbon::js::ACAstBaseNode, std::__1::default_delete<altered_carbon::js::ACAstBaseNode> >, std::__1::allocator<std::__1::unique_ptr<altered_carbon::js::ACAstBaseNode, std::__1::default_delete<altered_carbon::js::ACAstBaseNode> > > >::__RAII_IncreaseAnnotator"** %144, align 8
  store %"class.std::__1::vector"* %326, %"class.std::__1::vector"** %145, align 8
  store i64 1, i64* %146, align 8
  %340 = load %"struct.std::__1::vector<std::__1::unique_ptr<altered_carbon::js::ACAstBaseNode, std::__1::default_delete<altered_carbon::js::ACAstBaseNode> >, std::__1::allocator<std::__1::unique_ptr<altered_carbon::js::ACAstBaseNode, std::__1::default_delete<altered_carbon::js::ACAstBaseNode> > > >::__RAII_IncreaseAnnotator"*, %"struct.std::__1::vector<std::__1::unique_ptr<altered_carbon::js::ACAstBaseNode, std::__1::default_delete<altered_carbon::js::ACAstBaseNode> >, std::__1::allocator<std::__1::unique_ptr<altered_carbon::js::ACAstBaseNode, std::__1::default_delete<altered_carbon::js::ACAstBaseNode> > > >::__RAII_IncreaseAnnotator"** %144, align 8
  %341 = load %"class.std::__1::vector"*, %"class.std::__1::vector"** %145, align 8, !dbg !6048
  %342 = load i64, i64* %146, align 8, !dbg !6048
  store %"struct.std::__1::vector<std::__1::unique_ptr<altered_carbon::js::ACAstBaseNode, std::__1::default_delete<altered_carbon::js::ACAstBaseNode> >, std::__1::allocator<std::__1::unique_ptr<altered_carbon::js::ACAstBaseNode, std::__1::default_delete<altered_carbon::js::ACAstBaseNode> > > >::__RAII_IncreaseAnnotator"* %340, %"struct.std::__1::vector<std::__1::unique_ptr<altered_carbon::js::ACAstBaseNode, std::__1::default_delete<altered_carbon::js::ACAstBaseNode> >, std::__1::allocator<std::__1::unique_ptr<altered_carbon::js::ACAstBaseNode, std::__1::default_delete<altered_carbon::js::ACAstBaseNode> > > >::__RAII_IncreaseAnnotator"** %141, align 8
  store %"class.std::__1::vector"* %341, %"class.std::__1::vector"** %142, align 8
  store i64 %342, i64* %143, align 8
  %343 = load %"struct.std::__1::vector<std::__1::unique_ptr<altered_carbon::js::ACAstBaseNode, std::__1::default_delete<altered_carbon::js::ACAstBaseNode> >, std::__1::allocator<std::__1::unique_ptr<altered_carbon::js::ACAstBaseNode, std::__1::default_delete<altered_carbon::js::ACAstBaseNode> > > >::__RAII_IncreaseAnnotator"*, %"struct.std::__1::vector<std::__1::unique_ptr<altered_carbon::js::ACAstBaseNode, std::__1::default_delete<altered_carbon::js::ACAstBaseNode> >, std::__1::allocator<std::__1::unique_ptr<altered_carbon::js::ACAstBaseNode, std::__1::default_delete<altered_carbon::js::ACAstBaseNode> > > >::__RAII_IncreaseAnnotator"** %141, align 8
  %344 = bitcast %"class.std::__1::vector"* %326 to %"class.std::__1::__vector_base"*, !dbg !6049
  store %"class.std::__1::__vector_base"* %344, %"class.std::__1::__vector_base"** %94, align 8
  %345 = load %"class.std::__1::__vector_base"*, %"class.std::__1::__vector_base"** %94, align 8
  %346 = getelementptr inbounds %"class.std::__1::__vector_base", %"class.std::__1::__vector_base"* %345, i32 0, i32 2, !dbg !6050
  store %"class.std::__1::__compressed_pair.7"* %346, %"class.std::__1::__compressed_pair.7"** %93, align 8
  %347 = load %"class.std::__1::__compressed_pair.7"*, %"class.std::__1::__compressed_pair.7"** %93, align 8
  %348 = bitcast %"class.std::__1::__compressed_pair.7"* %347 to %"struct.std::__1::__compressed_pair_elem.9"*, !dbg !6051
  store %"struct.std::__1::__compressed_pair_elem.9"* %348, %"struct.std::__1::__compressed_pair_elem.9"** %92, align 8
  %349 = load %"struct.std::__1::__compressed_pair_elem.9"*, %"struct.std::__1::__compressed_pair_elem.9"** %92, align 8
  %350 = bitcast %"struct.std::__1::__compressed_pair_elem.9"* %349 to %"class.std::__1::allocator"*, !dbg !6052
  %351 = bitcast %"class.std::__1::vector"* %326 to %"class.std::__1::__vector_base"*, !dbg !6053
  %352 = getelementptr inbounds %"class.std::__1::__vector_base", %"class.std::__1::__vector_base"* %351, i32 0, i32 1, !dbg !6053
  %353 = load %"class.std::__1::unique_ptr.1"*, %"class.std::__1::unique_ptr.1"** %352, align 8, !dbg !6053
  store %"class.std::__1::unique_ptr.1"* %353, %"class.std::__1::unique_ptr.1"** %95, align 8
  %354 = load %"class.std::__1::unique_ptr.1"*, %"class.std::__1::unique_ptr.1"** %95, align 8, !dbg !6054
  %355 = load %"class.std::__1::unique_ptr.1"*, %"class.std::__1::unique_ptr.1"** %151, align 8, !dbg !6055
  store %"class.std::__1::unique_ptr.1"* %355, %"class.std::__1::unique_ptr.1"** %96, align 8
  %356 = load %"class.std::__1::unique_ptr.1"*, %"class.std::__1::unique_ptr.1"** %96, align 8, !dbg !6056
  store %"class.std::__1::allocator"* %350, %"class.std::__1::allocator"** %135, align 8
  store %"class.std::__1::unique_ptr.1"* %354, %"class.std::__1::unique_ptr.1"** %136, align 8
  store %"class.std::__1::unique_ptr.1"* %356, %"class.std::__1::unique_ptr.1"** %137, align 8
  %357 = bitcast %"struct.std::__1::__has_construct"* %138 to %"struct.std::__1::integral_constant"*, !dbg !6057
  %358 = load %"class.std::__1::allocator"*, %"class.std::__1::allocator"** %135, align 8, !dbg !6058
  %359 = load %"class.std::__1::unique_ptr.1"*, %"class.std::__1::unique_ptr.1"** %136, align 8, !dbg !6059
  %360 = load %"class.std::__1::unique_ptr.1"*, %"class.std::__1::unique_ptr.1"** %137, align 8, !dbg !6060
  store %"class.std::__1::unique_ptr.1"* %360, %"class.std::__1::unique_ptr.1"** %134, align 8
  %361 = load %"class.std::__1::unique_ptr.1"*, %"class.std::__1::unique_ptr.1"** %134, align 8, !dbg !6061
  call void @llvm.dbg.declare(metadata !162, metadata !5545, metadata !DIExpression()) #8, !dbg !6062
  store %"class.std::__1::allocator"* %358, %"class.std::__1::allocator"** %131, align 8
  store %"class.std::__1::unique_ptr.1"* %359, %"class.std::__1::unique_ptr.1"** %132, align 8
  store %"class.std::__1::unique_ptr.1"* %361, %"class.std::__1::unique_ptr.1"** %133, align 8
  %362 = load %"class.std::__1::allocator"*, %"class.std::__1::allocator"** %131, align 8, !dbg !6063
  %363 = load %"class.std::__1::unique_ptr.1"*, %"class.std::__1::unique_ptr.1"** %132, align 8, !dbg !6064
  %364 = load %"class.std::__1::unique_ptr.1"*, %"class.std::__1::unique_ptr.1"** %133, align 8, !dbg !6065
  store %"class.std::__1::unique_ptr.1"* %364, %"class.std::__1::unique_ptr.1"** %130, align 8
  %365 = load %"class.std::__1::unique_ptr.1"*, %"class.std::__1::unique_ptr.1"** %130, align 8, !dbg !6066
  store %"class.std::__1::allocator"* %362, %"class.std::__1::allocator"** %127, align 8
  store %"class.std::__1::unique_ptr.1"* %363, %"class.std::__1::unique_ptr.1"** %128, align 8
  store %"class.std::__1::unique_ptr.1"* %365, %"class.std::__1::unique_ptr.1"** %129, align 8
  %366 = load %"class.std::__1::allocator"*, %"class.std::__1::allocator"** %127, align 8
  %367 = load %"class.std::__1::unique_ptr.1"*, %"class.std::__1::unique_ptr.1"** %128, align 8, !dbg !6067
  %368 = bitcast %"class.std::__1::unique_ptr.1"* %367 to i8*, !dbg !6067
  %369 = load %"class.std::__1::unique_ptr.1"*, %"class.std::__1::unique_ptr.1"** %129, align 8, !dbg !6068
  store %"class.std::__1::unique_ptr.1"* %369, %"class.std::__1::unique_ptr.1"** %126, align 8
  %370 = load %"class.std::__1::unique_ptr.1"*, %"class.std::__1::unique_ptr.1"** %126, align 8, !dbg !6069
  store %"class.std::__1::unique_ptr.1"* %367, %"class.std::__1::unique_ptr.1"** %124, align 8
  store %"class.std::__1::unique_ptr.1"* %370, %"class.std::__1::unique_ptr.1"** %125, align 8
  %371 = load %"class.std::__1::unique_ptr.1"*, %"class.std::__1::unique_ptr.1"** %124, align 8
  %372 = load %"class.std::__1::unique_ptr.1"*, %"class.std::__1::unique_ptr.1"** %125, align 8, !dbg !6070
  store %"class.std::__1::unique_ptr.1"* %371, %"class.std::__1::unique_ptr.1"** %121, align 8
  store %"class.std::__1::unique_ptr.1"* %372, %"class.std::__1::unique_ptr.1"** %122, align 8
  %373 = load %"class.std::__1::unique_ptr.1"*, %"class.std::__1::unique_ptr.1"** %121, align 8
  %374 = getelementptr inbounds %"class.std::__1::unique_ptr.1", %"class.std::__1::unique_ptr.1"* %373, i32 0, i32 0, !dbg !6071
  %375 = load %"class.std::__1::unique_ptr.1"*, %"class.std::__1::unique_ptr.1"** %122, align 8, !dbg !6072
  store %"class.std::__1::unique_ptr.1"* %375, %"class.std::__1::unique_ptr.1"** %119, align 8
  %376 = load %"class.std::__1::unique_ptr.1"*, %"class.std::__1::unique_ptr.1"** %119, align 8
  %377 = getelementptr inbounds %"class.std::__1::unique_ptr.1", %"class.std::__1::unique_ptr.1"* %376, i32 0, i32 0, !dbg !6073
  store %"class.std::__1::__compressed_pair.2"* %377, %"class.std::__1::__compressed_pair.2"** %118, align 8
  %378 = load %"class.std::__1::__compressed_pair.2"*, %"class.std::__1::__compressed_pair.2"** %118, align 8
  %379 = bitcast %"class.std::__1::__compressed_pair.2"* %378 to %"struct.std::__1::__compressed_pair_elem.3"*, !dbg !6074
  store %"struct.std::__1::__compressed_pair_elem.3"* %379, %"struct.std::__1::__compressed_pair_elem.3"** %117, align 8
  %380 = load %"struct.std::__1::__compressed_pair_elem.3"*, %"struct.std::__1::__compressed_pair_elem.3"** %117, align 8
  %381 = getelementptr inbounds %"struct.std::__1::__compressed_pair_elem.3", %"struct.std::__1::__compressed_pair_elem.3"* %380, i32 0, i32 0, !dbg !6075
  %382 = load %"class.altered_carbon::js::ACAstBaseNode"*, %"class.altered_carbon::js::ACAstBaseNode"** %381, align 8, !dbg !6076
  store %"class.altered_carbon::js::ACAstBaseNode"* %382, %"class.altered_carbon::js::ACAstBaseNode"** %120, align 8, !dbg !5885
  %383 = getelementptr inbounds %"class.std::__1::unique_ptr.1", %"class.std::__1::unique_ptr.1"* %376, i32 0, i32 0, !dbg !6077
  store %"class.std::__1::__compressed_pair.2"* %383, %"class.std::__1::__compressed_pair.2"** %116, align 8
  %384 = load %"class.std::__1::__compressed_pair.2"*, %"class.std::__1::__compressed_pair.2"** %116, align 8
  %385 = bitcast %"class.std::__1::__compressed_pair.2"* %384 to %"struct.std::__1::__compressed_pair_elem.3"*, !dbg !6078
  store %"struct.std::__1::__compressed_pair_elem.3"* %385, %"struct.std::__1::__compressed_pair_elem.3"** %115, align 8
  %386 = load %"struct.std::__1::__compressed_pair_elem.3"*, %"struct.std::__1::__compressed_pair_elem.3"** %115, align 8
  %387 = getelementptr inbounds %"struct.std::__1::__compressed_pair_elem.3", %"struct.std::__1::__compressed_pair_elem.3"* %386, i32 0, i32 0, !dbg !6079
  store %"class.altered_carbon::js::ACAstBaseNode"* null, %"class.altered_carbon::js::ACAstBaseNode"** %387, align 8, !dbg !6080
  %388 = load %"class.altered_carbon::js::ACAstBaseNode"*, %"class.altered_carbon::js::ACAstBaseNode"** %120, align 8, !dbg !6081
  store %"class.altered_carbon::js::ACAstBaseNode"* %388, %"class.altered_carbon::js::ACAstBaseNode"** %123, align 8, !dbg !6072
  %389 = load %"class.std::__1::unique_ptr.1"*, %"class.std::__1::unique_ptr.1"** %122, align 8, !dbg !6082
  store %"class.std::__1::unique_ptr.1"* %389, %"class.std::__1::unique_ptr.1"** %99, align 8
  %390 = load %"class.std::__1::unique_ptr.1"*, %"class.std::__1::unique_ptr.1"** %99, align 8
  %391 = getelementptr inbounds %"class.std::__1::unique_ptr.1", %"class.std::__1::unique_ptr.1"* %390, i32 0, i32 0, !dbg !6083
  store %"class.std::__1::__compressed_pair.2"* %391, %"class.std::__1::__compressed_pair.2"** %98, align 8
  %392 = load %"class.std::__1::__compressed_pair.2"*, %"class.std::__1::__compressed_pair.2"** %98, align 8
  %393 = bitcast %"class.std::__1::__compressed_pair.2"* %392 to %"struct.std::__1::__compressed_pair_elem.4"*, !dbg !6084
  store %"struct.std::__1::__compressed_pair_elem.4"* %393, %"struct.std::__1::__compressed_pair_elem.4"** %97, align 8
  %394 = load %"struct.std::__1::__compressed_pair_elem.4"*, %"struct.std::__1::__compressed_pair_elem.4"** %97, align 8
  %395 = bitcast %"struct.std::__1::__compressed_pair_elem.4"* %394 to %"struct.std::__1::default_delete.5"*, !dbg !6085
  store %"struct.std::__1::default_delete.5"* %395, %"struct.std::__1::default_delete.5"** %100, align 8
  %396 = load %"struct.std::__1::default_delete.5"*, %"struct.std::__1::default_delete.5"** %100, align 8, !dbg !6086
  store %"class.std::__1::__compressed_pair.2"* %374, %"class.std::__1::__compressed_pair.2"** %112, align 8
  store %"class.altered_carbon::js::ACAstBaseNode"** %123, %"class.altered_carbon::js::ACAstBaseNode"*** %113, align 8
  store %"struct.std::__1::default_delete.5"* %396, %"struct.std::__1::default_delete.5"** %114, align 8
  %397 = load %"class.std::__1::__compressed_pair.2"*, %"class.std::__1::__compressed_pair.2"** %112, align 8
  %398 = load %"class.altered_carbon::js::ACAstBaseNode"**, %"class.altered_carbon::js::ACAstBaseNode"*** %113, align 8, !dbg !6087
  %399 = load %"struct.std::__1::default_delete.5"*, %"struct.std::__1::default_delete.5"** %114, align 8, !dbg !6087
  store %"class.std::__1::__compressed_pair.2"* %397, %"class.std::__1::__compressed_pair.2"** %109, align 8
  store %"class.altered_carbon::js::ACAstBaseNode"** %398, %"class.altered_carbon::js::ACAstBaseNode"*** %110, align 8
  store %"struct.std::__1::default_delete.5"* %399, %"struct.std::__1::default_delete.5"** %111, align 8
  %400 = load %"class.std::__1::__compressed_pair.2"*, %"class.std::__1::__compressed_pair.2"** %109, align 8
  %401 = bitcast %"class.std::__1::__compressed_pair.2"* %400 to %"struct.std::__1::__compressed_pair_elem.3"*, !dbg !6088
  %402 = load %"class.altered_carbon::js::ACAstBaseNode"**, %"class.altered_carbon::js::ACAstBaseNode"*** %110, align 8, !dbg !6089
  store %"class.altered_carbon::js::ACAstBaseNode"** %402, %"class.altered_carbon::js::ACAstBaseNode"*** %108, align 8
  %403 = load %"class.altered_carbon::js::ACAstBaseNode"**, %"class.altered_carbon::js::ACAstBaseNode"*** %108, align 8, !dbg !6090
  store %"struct.std::__1::__compressed_pair_elem.3"* %401, %"struct.std::__1::__compressed_pair_elem.3"** %102, align 8
  store %"class.altered_carbon::js::ACAstBaseNode"** %403, %"class.altered_carbon::js::ACAstBaseNode"*** %103, align 8
  %404 = load %"struct.std::__1::__compressed_pair_elem.3"*, %"struct.std::__1::__compressed_pair_elem.3"** %102, align 8
  %405 = getelementptr inbounds %"struct.std::__1::__compressed_pair_elem.3", %"struct.std::__1::__compressed_pair_elem.3"* %404, i32 0, i32 0, !dbg !6091
  %406 = load %"class.altered_carbon::js::ACAstBaseNode"**, %"class.altered_carbon::js::ACAstBaseNode"*** %103, align 8, !dbg !6092
  store %"class.altered_carbon::js::ACAstBaseNode"** %406, %"class.altered_carbon::js::ACAstBaseNode"*** %101, align 8
  %407 = load %"class.altered_carbon::js::ACAstBaseNode"**, %"class.altered_carbon::js::ACAstBaseNode"*** %101, align 8, !dbg !6093
  %408 = load %"class.altered_carbon::js::ACAstBaseNode"*, %"class.altered_carbon::js::ACAstBaseNode"** %407, align 8, !dbg !6094
  store %"class.altered_carbon::js::ACAstBaseNode"* %408, %"class.altered_carbon::js::ACAstBaseNode"** %405, align 8, !dbg !6091
  %409 = bitcast %"class.std::__1::__compressed_pair.2"* %400 to %"struct.std::__1::__compressed_pair_elem.4"*, !dbg !6088
  %410 = load %"struct.std::__1::default_delete.5"*, %"struct.std::__1::default_delete.5"** %111, align 8, !dbg !6095
  store %"struct.std::__1::default_delete.5"* %410, %"struct.std::__1::default_delete.5"** %104, align 8
  %411 = load %"struct.std::__1::default_delete.5"*, %"struct.std::__1::default_delete.5"** %104, align 8, !dbg !6096
  store %"struct.std::__1::__compressed_pair_elem.4"* %409, %"struct.std::__1::__compressed_pair_elem.4"** %106, align 8
  store %"struct.std::__1::default_delete.5"* %411, %"struct.std::__1::default_delete.5"** %107, align 8
  %412 = load %"struct.std::__1::__compressed_pair_elem.4"*, %"struct.std::__1::__compressed_pair_elem.4"** %106, align 8
  %413 = bitcast %"struct.std::__1::__compressed_pair_elem.4"* %412 to %"struct.std::__1::default_delete.5"*, !dbg !6097
  %414 = load %"struct.std::__1::default_delete.5"*, %"struct.std::__1::default_delete.5"** %107, align 8, !dbg !6098
  store %"struct.std::__1::default_delete.5"* %414, %"struct.std::__1::default_delete.5"** %105, align 8
  %415 = load %"struct.std::__1::default_delete.5"*, %"struct.std::__1::default_delete.5"** %105, align 8, !dbg !6099
  store %"struct.std::__1::vector<std::__1::unique_ptr<altered_carbon::js::ACAstBaseNode, std::__1::default_delete<altered_carbon::js::ACAstBaseNode> >, std::__1::allocator<std::__1::unique_ptr<altered_carbon::js::ACAstBaseNode, std::__1::default_delete<altered_carbon::js::ACAstBaseNode> > > >::__RAII_IncreaseAnnotator"* %152, %"struct.std::__1::vector<std::__1::unique_ptr<altered_carbon::js::ACAstBaseNode, std::__1::default_delete<altered_carbon::js::ACAstBaseNode> >, std::__1::allocator<std::__1::unique_ptr<altered_carbon::js::ACAstBaseNode, std::__1::default_delete<altered_carbon::js::ACAstBaseNode> > > >::__RAII_IncreaseAnnotator"** %139, align 8
  %416 = load %"struct.std::__1::vector<std::__1::unique_ptr<altered_carbon::js::ACAstBaseNode, std::__1::default_delete<altered_carbon::js::ACAstBaseNode> >, std::__1::allocator<std::__1::unique_ptr<altered_carbon::js::ACAstBaseNode, std::__1::default_delete<altered_carbon::js::ACAstBaseNode> > > >::__RAII_IncreaseAnnotator"*, %"struct.std::__1::vector<std::__1::unique_ptr<altered_carbon::js::ACAstBaseNode, std::__1::default_delete<altered_carbon::js::ACAstBaseNode> >, std::__1::allocator<std::__1::unique_ptr<altered_carbon::js::ACAstBaseNode, std::__1::default_delete<altered_carbon::js::ACAstBaseNode> > > >::__RAII_IncreaseAnnotator"** %139, align 8
  %417 = bitcast %"class.std::__1::vector"* %326 to %"class.std::__1::__vector_base"*, !dbg !6100
  %418 = getelementptr inbounds %"class.std::__1::__vector_base", %"class.std::__1::__vector_base"* %417, i32 0, i32 1, !dbg !6100
  %419 = load %"class.std::__1::unique_ptr.1"*, %"class.std::__1::unique_ptr.1"** %418, align 8, !dbg !6101
  %420 = getelementptr inbounds %"class.std::__1::unique_ptr.1", %"class.std::__1::unique_ptr.1"* %419, i32 1, !dbg !6101
  store %"class.std::__1::unique_ptr.1"* %420, %"class.std::__1::unique_ptr.1"** %418, align 8, !dbg !6101
  br label %424, !dbg !6102

; <label>:421:                                    ; preds = %319
  %422 = load %"class.std::__1::unique_ptr.1"*, %"class.std::__1::unique_ptr.1"** %151, align 8, !dbg !6103
  store %"class.std::__1::unique_ptr.1"* %422, %"class.std::__1::unique_ptr.1"** %140, align 8
  %423 = load %"class.std::__1::unique_ptr.1"*, %"class.std::__1::unique_ptr.1"** %140, align 8, !dbg !6104
  call void @_ZNSt3__16vectorINS_10unique_ptrIN14altered_carbon2js13ACAstBaseNodeENS_14default_deleteIS4_EEEENS_9allocatorIS7_EEE21__push_back_slow_pathIS7_EEvOT_(%"class.std::__1::vector"* %326, %"class.std::__1::unique_ptr.1"* dereferenceable(8) %423) #8, !dbg !6105
  br label %424

; <label>:424:                                    ; preds = %339, %421
  ret void, !dbg !6106
}

; Function Attrs: noinline nounwind optnone ssp uwtable
define void @_ZN14altered_carbon2js25ACAstAssignmentExpressionC1ENSt3__110unique_ptrINS0_13ACLexPositionENS2_14default_deleteIS4_EEEENS3_INS0_13ACAstBaseNodeENS5_IS8_EEEENS0_14ACLexTokenTypeESA_(%"class.altered_carbon::js::ACAstAssignmentExpression"*, %"class.std::__1::unique_ptr"*, %"class.std::__1::unique_ptr.1"*, i32, %"class.std::__1::unique_ptr.1"*) unnamed_addr #0 align 2 !dbg !6107 {
  %6 = alloca %"class.altered_carbon::js::ACAstAssignmentExpression"*, align 8
  %7 = alloca i32, align 4
  store %"class.altered_carbon::js::ACAstAssignmentExpression"* %0, %"class.altered_carbon::js::ACAstAssignmentExpression"** %6, align 8
  call void @llvm.dbg.declare(metadata %"class.altered_carbon::js::ACAstAssignmentExpression"** %6, metadata !6108, metadata !DIExpression()), !dbg !6109
  call void @llvm.dbg.declare(metadata %"class.std::__1::unique_ptr"* %1, metadata !6110, metadata !DIExpression()), !dbg !6111
  call void @llvm.dbg.declare(metadata %"class.std::__1::unique_ptr.1"* %2, metadata !6112, metadata !DIExpression()), !dbg !6113
  store i32 %3, i32* %7, align 4
  call void @llvm.dbg.declare(metadata i32* %7, metadata !6114, metadata !DIExpression()), !dbg !6115
  call void @llvm.dbg.declare(metadata %"class.std::__1::unique_ptr.1"* %4, metadata !6116, metadata !DIExpression()), !dbg !6117
  %8 = load %"class.altered_carbon::js::ACAstAssignmentExpression"*, %"class.altered_carbon::js::ACAstAssignmentExpression"** %6, align 8
  %9 = load i32, i32* %7, align 4, !dbg !6118
  call void @_ZN14altered_carbon2js25ACAstAssignmentExpressionC2ENSt3__110unique_ptrINS0_13ACLexPositionENS2_14default_deleteIS4_EEEENS3_INS0_13ACAstBaseNodeENS5_IS8_EEEENS0_14ACLexTokenTypeESA_(%"class.altered_carbon::js::ACAstAssignmentExpression"* %8, %"class.std::__1::unique_ptr"* %1, %"class.std::__1::unique_ptr.1"* %2, i32 %9, %"class.std::__1::unique_ptr.1"* %4), !dbg !6118
  ret void, !dbg !6119
}

; Function Attrs: noinline nounwind optnone ssp uwtable
define void @_ZNK14altered_carbon2js25ACAstAssignmentExpression14dumpGraphLabelERNSt3__113basic_ostreamIcNS2_11char_traitsIcEEEE(%"class.altered_carbon::js::ACAstAssignmentExpression"*, %"class.std::__1::basic_ostream"* dereferenceable(160)) unnamed_addr #0 align 2 !dbg !6120 {
  %3 = alloca %"class.altered_carbon::js::ACAstAssignmentExpression"*, align 8
  %4 = alloca %"class.std::__1::basic_ostream"*, align 8
  store %"class.altered_carbon::js::ACAstAssignmentExpression"* %0, %"class.altered_carbon::js::ACAstAssignmentExpression"** %3, align 8
  call void @llvm.dbg.declare(metadata %"class.altered_carbon::js::ACAstAssignmentExpression"** %3, metadata !6121, metadata !DIExpression()), !dbg !6123
  store %"class.std::__1::basic_ostream"* %1, %"class.std::__1::basic_ostream"** %4, align 8
  call void @llvm.dbg.declare(metadata %"class.std::__1::basic_ostream"** %4, metadata !6124, metadata !DIExpression()), !dbg !6125
  %5 = load %"class.altered_carbon::js::ACAstAssignmentExpression"*, %"class.altered_carbon::js::ACAstAssignmentExpression"** %3, align 8
  %6 = load %"class.std::__1::basic_ostream"*, %"class.std::__1::basic_ostream"** %4, align 8, !dbg !6126
  %7 = getelementptr inbounds %"class.altered_carbon::js::ACAstAssignmentExpression", %"class.altered_carbon::js::ACAstAssignmentExpression"* %5, i32 0, i32 1, !dbg !6127
  %8 = load i32, i32* %7, align 8, !dbg !6127
  %9 = zext i32 %8 to i64, !dbg !6128
  %10 = getelementptr inbounds [0 x i8*], [0 x i8*]* @_ZN14altered_carbon2js10ACLexToken11TOKEN_NAMESE, i64 0, i64 %9, !dbg !6128
  %11 = load i8*, i8** %10, align 8, !dbg !6128
  %12 = call dereferenceable(160) %"class.std::__1::basic_ostream"* @_ZNSt3__1lsINS_11char_traitsIcEEEERNS_13basic_ostreamIcT_EES6_PKc(%"class.std::__1::basic_ostream"* dereferenceable(160) %6, i8* %11), !dbg !6129
  ret void, !dbg !6130
}

; Function Attrs: noinline nounwind optnone ssp uwtable
define void @_ZNK14altered_carbon2js25ACAstAssignmentExpression14dumpChildNodesERNSt3__113basic_ostreamIcNS2_11char_traitsIcEEEE(%"class.altered_carbon::js::ACAstAssignmentExpression"*, %"class.std::__1::basic_ostream"* dereferenceable(160)) unnamed_addr #0 align 2 !dbg !6131 {
  %3 = alloca %"struct.std::__1::__compressed_pair_elem.3"*, align 8
  call void @llvm.dbg.declare(metadata %"struct.std::__1::__compressed_pair_elem.3"** %3, metadata !5607, metadata !DIExpression()), !dbg !6132
  %4 = alloca %"class.std::__1::__compressed_pair.2"*, align 8
  call void @llvm.dbg.declare(metadata %"class.std::__1::__compressed_pair.2"** %4, metadata !5616, metadata !DIExpression()), !dbg !6136
  %5 = alloca %"class.std::__1::unique_ptr.1"*, align 8
  call void @llvm.dbg.declare(metadata %"class.std::__1::unique_ptr.1"** %5, metadata !5619, metadata !DIExpression()), !dbg !6137
  %6 = alloca %"class.std::__1::vector"*, align 8
  call void @llvm.dbg.declare(metadata %"class.std::__1::vector"** %6, metadata !5621, metadata !DIExpression()), !dbg !6138
  %7 = alloca i64, align 8
  call void @llvm.dbg.declare(metadata i64* %7, metadata !5626, metadata !DIExpression()), !dbg !6140
  %8 = alloca %"class.altered_carbon::js::ACAstAssignmentExpression"*, align 8
  %9 = alloca %"class.std::__1::basic_ostream"*, align 8
  store %"class.altered_carbon::js::ACAstAssignmentExpression"* %0, %"class.altered_carbon::js::ACAstAssignmentExpression"** %8, align 8
  call void @llvm.dbg.declare(metadata %"class.altered_carbon::js::ACAstAssignmentExpression"** %8, metadata !6141, metadata !DIExpression()), !dbg !6142
  store %"class.std::__1::basic_ostream"* %1, %"class.std::__1::basic_ostream"** %9, align 8
  call void @llvm.dbg.declare(metadata %"class.std::__1::basic_ostream"** %9, metadata !6143, metadata !DIExpression()), !dbg !6144
  %10 = load %"class.altered_carbon::js::ACAstAssignmentExpression"*, %"class.altered_carbon::js::ACAstAssignmentExpression"** %8, align 8
  %11 = bitcast %"class.altered_carbon::js::ACAstAssignmentExpression"* %10 to %"class.altered_carbon::js::ACAstExpressionNode"*, !dbg !6145
  %12 = load %"class.std::__1::basic_ostream"*, %"class.std::__1::basic_ostream"** %9, align 8, !dbg !6146
  call void @_ZNK14altered_carbon2js19ACAstExpressionNode14dumpChildNodesERNSt3__113basic_ostreamIcNS2_11char_traitsIcEEEE(%"class.altered_carbon::js::ACAstExpressionNode"* %11, %"class.std::__1::basic_ostream"* dereferenceable(160) %12), !dbg !6145
  %13 = load %"class.std::__1::basic_ostream"*, %"class.std::__1::basic_ostream"** %9, align 8, !dbg !6147
  %14 = call dereferenceable(160) %"class.std::__1::basic_ostream"* @_ZNSt3__1lsINS_11char_traitsIcEEEERNS_13basic_ostreamIcT_EES6_PKc(%"class.std::__1::basic_ostream"* dereferenceable(160) %13, i8* getelementptr inbounds ([2 x i8], [2 x i8]* @.str.1, i32 0, i32 0)), !dbg !6148
  %15 = getelementptr inbounds %"class.altered_carbon::js::ACAstAssignmentExpression", %"class.altered_carbon::js::ACAstAssignmentExpression"* %10, i32 0, i32 1, !dbg !6149
  %16 = load i32, i32* %15, align 8, !dbg !6149
  %17 = zext i32 %16 to i64, !dbg !6150
  %18 = getelementptr inbounds [0 x i8*], [0 x i8*]* @_ZN14altered_carbon2js10ACLexToken11TOKEN_NAMESE, i64 0, i64 %17, !dbg !6150
  %19 = load i8*, i8** %18, align 8, !dbg !6150
  %20 = call dereferenceable(160) %"class.std::__1::basic_ostream"* @_ZNSt3__1lsINS_11char_traitsIcEEEERNS_13basic_ostreamIcT_EES6_PKc(%"class.std::__1::basic_ostream"* dereferenceable(160) %14, i8* %19), !dbg !6151
  %21 = call dereferenceable(160) %"class.std::__1::basic_ostream"* @_ZNSt3__1lsINS_11char_traitsIcEEEERNS_13basic_ostreamIcT_EES6_PKc(%"class.std::__1::basic_ostream"* dereferenceable(160) %20, i8* getelementptr inbounds ([4 x i8], [4 x i8]* @.str.2, i32 0, i32 0)), !dbg !6152
  %22 = bitcast %"class.altered_carbon::js::ACAstAssignmentExpression"* %10 to %"class.altered_carbon::js::ACAstBaseNode"*, !dbg !6153
  %23 = getelementptr inbounds %"class.altered_carbon::js::ACAstBaseNode", %"class.altered_carbon::js::ACAstBaseNode"* %22, i32 0, i32 4, !dbg !6153
  store %"class.std::__1::vector"* %23, %"class.std::__1::vector"** %6, align 8
  store i64 0, i64* %7, align 8
  %24 = load %"class.std::__1::vector"*, %"class.std::__1::vector"** %6, align 8
  %25 = bitcast %"class.std::__1::vector"* %24 to %"class.std::__1::__vector_base"*, !dbg !6154
  %26 = getelementptr inbounds %"class.std::__1::__vector_base", %"class.std::__1::__vector_base"* %25, i32 0, i32 0, !dbg !6154
  %27 = load %"class.std::__1::unique_ptr.1"*, %"class.std::__1::unique_ptr.1"** %26, align 8, !dbg !6154
  %28 = load i64, i64* %7, align 8, !dbg !6155
  %29 = getelementptr inbounds %"class.std::__1::unique_ptr.1", %"class.std::__1::unique_ptr.1"* %27, i64 %28, !dbg !6156
  store %"class.std::__1::unique_ptr.1"* %29, %"class.std::__1::unique_ptr.1"** %5, align 8
  %30 = load %"class.std::__1::unique_ptr.1"*, %"class.std::__1::unique_ptr.1"** %5, align 8
  %31 = getelementptr inbounds %"class.std::__1::unique_ptr.1", %"class.std::__1::unique_ptr.1"* %30, i32 0, i32 0, !dbg !6157
  store %"class.std::__1::__compressed_pair.2"* %31, %"class.std::__1::__compressed_pair.2"** %4, align 8
  %32 = load %"class.std::__1::__compressed_pair.2"*, %"class.std::__1::__compressed_pair.2"** %4, align 8
  %33 = bitcast %"class.std::__1::__compressed_pair.2"* %32 to %"struct.std::__1::__compressed_pair_elem.3"*, !dbg !6158
  store %"struct.std::__1::__compressed_pair_elem.3"* %33, %"struct.std::__1::__compressed_pair_elem.3"** %3, align 8
  %34 = load %"struct.std::__1::__compressed_pair_elem.3"*, %"struct.std::__1::__compressed_pair_elem.3"** %3, align 8
  %35 = getelementptr inbounds %"struct.std::__1::__compressed_pair_elem.3", %"struct.std::__1::__compressed_pair_elem.3"* %34, i32 0, i32 0, !dbg !6159
  %36 = load %"class.altered_carbon::js::ACAstBaseNode"*, %"class.altered_carbon::js::ACAstBaseNode"** %35, align 8, !dbg !6160
  %37 = bitcast %"class.altered_carbon::js::ACAstBaseNode"* %36 to void (%"class.altered_carbon::js::ACAstBaseNode"*, %"class.std::__1::basic_ostream"*)***, !dbg !6161
  %38 = load void (%"class.altered_carbon::js::ACAstBaseNode"*, %"class.std::__1::basic_ostream"*)**, void (%"class.altered_carbon::js::ACAstBaseNode"*, %"class.std::__1::basic_ostream"*)*** %37, align 8, !dbg !6161
  %39 = getelementptr inbounds void (%"class.altered_carbon::js::ACAstBaseNode"*, %"class.std::__1::basic_ostream"*)*, void (%"class.altered_carbon::js::ACAstBaseNode"*, %"class.std::__1::basic_ostream"*)** %38, i64 8, !dbg !6161
  %40 = load void (%"class.altered_carbon::js::ACAstBaseNode"*, %"class.std::__1::basic_ostream"*)*, void (%"class.altered_carbon::js::ACAstBaseNode"*, %"class.std::__1::basic_ostream"*)** %39, align 8, !dbg !6161
  %41 = load %"class.std::__1::basic_ostream"*, %"class.std::__1::basic_ostream"** %9, align 8, !dbg !6162
  call void %40(%"class.altered_carbon::js::ACAstBaseNode"* %36, %"class.std::__1::basic_ostream"* dereferenceable(160) %41), !dbg !6161
  %42 = load %"class.std::__1::basic_ostream"*, %"class.std::__1::basic_ostream"** %9, align 8, !dbg !6163
  %43 = call dereferenceable(160) %"class.std::__1::basic_ostream"* @_ZNSt3__1lsINS_11char_traitsIcEEEERNS_13basic_ostreamIcT_EES6_PKc(%"class.std::__1::basic_ostream"* dereferenceable(160) %42, i8* getelementptr inbounds ([2 x i8], [2 x i8]* @.str.3, i32 0, i32 0)), !dbg !6164
  ret void, !dbg !6165
}

; Function Attrs: noinline nounwind optnone ssp uwtable
define zeroext i1 @_ZN14altered_carbon2js25ACAstAssignmentExpression14convertToParamEv(%"class.altered_carbon::js::ACAstAssignmentExpression"*) unnamed_addr #0 align 2 !dbg !6166 {
  %2 = alloca %"struct.std::__1::__compressed_pair_elem.3"*, align 8
  call void @llvm.dbg.declare(metadata %"struct.std::__1::__compressed_pair_elem.3"** %2, metadata !5607, metadata !DIExpression()), !dbg !6167
  %3 = alloca %"class.std::__1::__compressed_pair.2"*, align 8
  call void @llvm.dbg.declare(metadata %"class.std::__1::__compressed_pair.2"** %3, metadata !5616, metadata !DIExpression()), !dbg !6171
  %4 = alloca %"class.std::__1::unique_ptr.1"*, align 8
  call void @llvm.dbg.declare(metadata %"class.std::__1::unique_ptr.1"** %4, metadata !5619, metadata !DIExpression()), !dbg !6172
  %5 = alloca %"class.std::__1::vector"*, align 8
  call void @llvm.dbg.declare(metadata %"class.std::__1::vector"** %5, metadata !6173, metadata !DIExpression()), !dbg !6175
  %6 = alloca i64, align 8
  call void @llvm.dbg.declare(metadata i64* %6, metadata !6177, metadata !DIExpression()), !dbg !6178
  %7 = alloca %"class.altered_carbon::js::ACAstAssignmentExpression"*, align 8
  store %"class.altered_carbon::js::ACAstAssignmentExpression"* %0, %"class.altered_carbon::js::ACAstAssignmentExpression"** %7, align 8
  call void @llvm.dbg.declare(metadata %"class.altered_carbon::js::ACAstAssignmentExpression"** %7, metadata !6179, metadata !DIExpression()), !dbg !6180
  %8 = load %"class.altered_carbon::js::ACAstAssignmentExpression"*, %"class.altered_carbon::js::ACAstAssignmentExpression"** %7, align 8
  %9 = bitcast %"class.altered_carbon::js::ACAstAssignmentExpression"* %8 to %"class.altered_carbon::js::ACAstBaseNode"*, !dbg !6181
  %10 = getelementptr inbounds %"class.altered_carbon::js::ACAstBaseNode", %"class.altered_carbon::js::ACAstBaseNode"* %9, i32 0, i32 4, !dbg !6181
  store %"class.std::__1::vector"* %10, %"class.std::__1::vector"** %5, align 8
  store i64 0, i64* %6, align 8
  %11 = load %"class.std::__1::vector"*, %"class.std::__1::vector"** %5, align 8
  %12 = bitcast %"class.std::__1::vector"* %11 to %"class.std::__1::__vector_base"*, !dbg !6182
  %13 = getelementptr inbounds %"class.std::__1::__vector_base", %"class.std::__1::__vector_base"* %12, i32 0, i32 0, !dbg !6182
  %14 = load %"class.std::__1::unique_ptr.1"*, %"class.std::__1::unique_ptr.1"** %13, align 8, !dbg !6182
  %15 = load i64, i64* %6, align 8, !dbg !6183
  %16 = getelementptr inbounds %"class.std::__1::unique_ptr.1", %"class.std::__1::unique_ptr.1"* %14, i64 %15, !dbg !6184
  store %"class.std::__1::unique_ptr.1"* %16, %"class.std::__1::unique_ptr.1"** %4, align 8
  %17 = load %"class.std::__1::unique_ptr.1"*, %"class.std::__1::unique_ptr.1"** %4, align 8
  %18 = getelementptr inbounds %"class.std::__1::unique_ptr.1", %"class.std::__1::unique_ptr.1"* %17, i32 0, i32 0, !dbg !6185
  store %"class.std::__1::__compressed_pair.2"* %18, %"class.std::__1::__compressed_pair.2"** %3, align 8
  %19 = load %"class.std::__1::__compressed_pair.2"*, %"class.std::__1::__compressed_pair.2"** %3, align 8
  %20 = bitcast %"class.std::__1::__compressed_pair.2"* %19 to %"struct.std::__1::__compressed_pair_elem.3"*, !dbg !6186
  store %"struct.std::__1::__compressed_pair_elem.3"* %20, %"struct.std::__1::__compressed_pair_elem.3"** %2, align 8
  %21 = load %"struct.std::__1::__compressed_pair_elem.3"*, %"struct.std::__1::__compressed_pair_elem.3"** %2, align 8
  %22 = getelementptr inbounds %"struct.std::__1::__compressed_pair_elem.3", %"struct.std::__1::__compressed_pair_elem.3"* %21, i32 0, i32 0, !dbg !6187
  %23 = load %"class.altered_carbon::js::ACAstBaseNode"*, %"class.altered_carbon::js::ACAstBaseNode"** %22, align 8, !dbg !6188
  %24 = bitcast %"class.altered_carbon::js::ACAstBaseNode"* %23 to i1 (%"class.altered_carbon::js::ACAstBaseNode"*)***, !dbg !6189
  %25 = load i1 (%"class.altered_carbon::js::ACAstBaseNode"*)**, i1 (%"class.altered_carbon::js::ACAstBaseNode"*)*** %24, align 8, !dbg !6189
  %26 = getelementptr inbounds i1 (%"class.altered_carbon::js::ACAstBaseNode"*)*, i1 (%"class.altered_carbon::js::ACAstBaseNode"*)** %25, i64 6, !dbg !6189
  %27 = load i1 (%"class.altered_carbon::js::ACAstBaseNode"*)*, i1 (%"class.altered_carbon::js::ACAstBaseNode"*)** %26, align 8, !dbg !6189
  %28 = call zeroext i1 %27(%"class.altered_carbon::js::ACAstBaseNode"* %23), !dbg !6189
  %29 = bitcast %"class.altered_carbon::js::ACAstAssignmentExpression"* %8 to %"class.altered_carbon::js::ACAstBaseNode"*, !dbg !6190
  %30 = getelementptr inbounds %"class.altered_carbon::js::ACAstBaseNode", %"class.altered_carbon::js::ACAstBaseNode"* %29, i32 0, i32 2, !dbg !6190
  store i32 5, i32* %30, align 8, !dbg !6191
  %31 = bitcast %"class.altered_carbon::js::ACAstAssignmentExpression"* %8 to %"class.altered_carbon::js::ACAstBaseNode"*, !dbg !6192
  %32 = getelementptr inbounds %"class.altered_carbon::js::ACAstBaseNode", %"class.altered_carbon::js::ACAstBaseNode"* %31, i32 0, i32 3, !dbg !6192
  store i32 504, i32* %32, align 4, !dbg !6193
  ret i1 true, !dbg !6194
}

; Function Attrs: noinline nounwind optnone ssp uwtable
define zeroext i1 @_ZN14altered_carbon2js25ACAstAssignmentExpression15convertToFormalEv(%"class.altered_carbon::js::ACAstAssignmentExpression"*) unnamed_addr #0 align 2 !dbg !6195 {
  %2 = alloca %"struct.std::__1::__compressed_pair_elem.3"*, align 8
  call void @llvm.dbg.declare(metadata %"struct.std::__1::__compressed_pair_elem.3"** %2, metadata !5607, metadata !DIExpression()), !dbg !6196
  %3 = alloca %"class.std::__1::__compressed_pair.2"*, align 8
  call void @llvm.dbg.declare(metadata %"class.std::__1::__compressed_pair.2"** %3, metadata !5616, metadata !DIExpression()), !dbg !6200
  %4 = alloca %"class.std::__1::unique_ptr.1"*, align 8
  call void @llvm.dbg.declare(metadata %"class.std::__1::unique_ptr.1"** %4, metadata !5619, metadata !DIExpression()), !dbg !6201
  %5 = alloca %"class.std::__1::vector"*, align 8
  call void @llvm.dbg.declare(metadata %"class.std::__1::vector"** %5, metadata !6173, metadata !DIExpression()), !dbg !6202
  %6 = alloca i64, align 8
  call void @llvm.dbg.declare(metadata i64* %6, metadata !6177, metadata !DIExpression()), !dbg !6204
  %7 = alloca %"class.altered_carbon::js::ACAstAssignmentExpression"*, align 8
  store %"class.altered_carbon::js::ACAstAssignmentExpression"* %0, %"class.altered_carbon::js::ACAstAssignmentExpression"** %7, align 8
  call void @llvm.dbg.declare(metadata %"class.altered_carbon::js::ACAstAssignmentExpression"** %7, metadata !6205, metadata !DIExpression()), !dbg !6206
  %8 = load %"class.altered_carbon::js::ACAstAssignmentExpression"*, %"class.altered_carbon::js::ACAstAssignmentExpression"** %7, align 8
  %9 = bitcast %"class.altered_carbon::js::ACAstAssignmentExpression"* %8 to %"class.altered_carbon::js::ACAstBaseNode"*, !dbg !6207
  %10 = getelementptr inbounds %"class.altered_carbon::js::ACAstBaseNode", %"class.altered_carbon::js::ACAstBaseNode"* %9, i32 0, i32 4, !dbg !6207
  store %"class.std::__1::vector"* %10, %"class.std::__1::vector"** %5, align 8
  store i64 0, i64* %6, align 8
  %11 = load %"class.std::__1::vector"*, %"class.std::__1::vector"** %5, align 8
  %12 = bitcast %"class.std::__1::vector"* %11 to %"class.std::__1::__vector_base"*, !dbg !6208
  %13 = getelementptr inbounds %"class.std::__1::__vector_base", %"class.std::__1::__vector_base"* %12, i32 0, i32 0, !dbg !6208
  %14 = load %"class.std::__1::unique_ptr.1"*, %"class.std::__1::unique_ptr.1"** %13, align 8, !dbg !6208
  %15 = load i64, i64* %6, align 8, !dbg !6209
  %16 = getelementptr inbounds %"class.std::__1::unique_ptr.1", %"class.std::__1::unique_ptr.1"* %14, i64 %15, !dbg !6210
  store %"class.std::__1::unique_ptr.1"* %16, %"class.std::__1::unique_ptr.1"** %4, align 8
  %17 = load %"class.std::__1::unique_ptr.1"*, %"class.std::__1::unique_ptr.1"** %4, align 8
  %18 = getelementptr inbounds %"class.std::__1::unique_ptr.1", %"class.std::__1::unique_ptr.1"* %17, i32 0, i32 0, !dbg !6211
  store %"class.std::__1::__compressed_pair.2"* %18, %"class.std::__1::__compressed_pair.2"** %3, align 8
  %19 = load %"class.std::__1::__compressed_pair.2"*, %"class.std::__1::__compressed_pair.2"** %3, align 8
  %20 = bitcast %"class.std::__1::__compressed_pair.2"* %19 to %"struct.std::__1::__compressed_pair_elem.3"*, !dbg !6212
  store %"struct.std::__1::__compressed_pair_elem.3"* %20, %"struct.std::__1::__compressed_pair_elem.3"** %2, align 8
  %21 = load %"struct.std::__1::__compressed_pair_elem.3"*, %"struct.std::__1::__compressed_pair_elem.3"** %2, align 8
  %22 = getelementptr inbounds %"struct.std::__1::__compressed_pair_elem.3", %"struct.std::__1::__compressed_pair_elem.3"* %21, i32 0, i32 0, !dbg !6213
  %23 = load %"class.altered_carbon::js::ACAstBaseNode"*, %"class.altered_carbon::js::ACAstBaseNode"** %22, align 8, !dbg !6214
  %24 = bitcast %"class.altered_carbon::js::ACAstBaseNode"* %23 to i1 (%"class.altered_carbon::js::ACAstBaseNode"*)***, !dbg !6215
  %25 = load i1 (%"class.altered_carbon::js::ACAstBaseNode"*)**, i1 (%"class.altered_carbon::js::ACAstBaseNode"*)*** %24, align 8, !dbg !6215
  %26 = getelementptr inbounds i1 (%"class.altered_carbon::js::ACAstBaseNode"*)*, i1 (%"class.altered_carbon::js::ACAstBaseNode"*)** %25, i64 6, !dbg !6215
  %27 = load i1 (%"class.altered_carbon::js::ACAstBaseNode"*)*, i1 (%"class.altered_carbon::js::ACAstBaseNode"*)** %26, align 8, !dbg !6215
  %28 = call zeroext i1 %27(%"class.altered_carbon::js::ACAstBaseNode"* %23), !dbg !6215
  %29 = bitcast %"class.altered_carbon::js::ACAstAssignmentExpression"* %8 to %"class.altered_carbon::js::ACAstBaseNode"*, !dbg !6216
  %30 = getelementptr inbounds %"class.altered_carbon::js::ACAstBaseNode", %"class.altered_carbon::js::ACAstBaseNode"* %29, i32 0, i32 2, !dbg !6216
  store i32 5, i32* %30, align 8, !dbg !6217
  %31 = bitcast %"class.altered_carbon::js::ACAstAssignmentExpression"* %8 to %"class.altered_carbon::js::ACAstBaseNode"*, !dbg !6218
  %32 = getelementptr inbounds %"class.altered_carbon::js::ACAstBaseNode", %"class.altered_carbon::js::ACAstBaseNode"* %31, i32 0, i32 3, !dbg !6218
  store i32 501, i32* %32, align 4, !dbg !6219
  ret i1 true, !dbg !6220
}

; Function Attrs: noinline nounwind optnone ssp uwtable
define void @_ZN14altered_carbon2js21ACAstBinaryExpressionC2ENSt3__110unique_ptrINS0_13ACLexPositionENS2_14default_deleteIS4_EEEENS0_14ACLexTokenTypeEiNS3_INS0_13ACAstBaseNodeENS5_IS9_EEEESB_(%"class.altered_carbon::js::ACAstBinaryExpression"*, %"class.std::__1::unique_ptr"*, i32, i32, %"class.std::__1::unique_ptr.1"*, %"class.std::__1::unique_ptr.1"*) unnamed_addr #0 align 2 !dbg !6221 {
  %7 = alloca %"struct.std::__1::__compressed_pair_elem.4"*, align 8
  call void @llvm.dbg.declare(metadata %"struct.std::__1::__compressed_pair_elem.4"** %7, metadata !4895, metadata !DIExpression()), !dbg !6246
  %8 = alloca %"class.std::__1::__compressed_pair.2"*, align 8
  call void @llvm.dbg.declare(metadata %"class.std::__1::__compressed_pair.2"** %8, metadata !4908, metadata !DIExpression()), !dbg !6252
  %9 = alloca %"struct.std::__1::__compressed_pair_elem.3"*, align 8
  call void @llvm.dbg.declare(metadata %"struct.std::__1::__compressed_pair_elem.3"** %9, metadata !4987, metadata !DIExpression()), !dbg !6253
  %10 = alloca %"class.std::__1::__compressed_pair.2"*, align 8
  call void @llvm.dbg.declare(metadata %"class.std::__1::__compressed_pair.2"** %10, metadata !4995, metadata !DIExpression()), !dbg !6256
  %11 = alloca %"struct.std::__1::default_delete.5"*, align 8
  call void @llvm.dbg.declare(metadata %"struct.std::__1::default_delete.5"** %11, metadata !5029, metadata !DIExpression()), !dbg !6257
  %12 = alloca %"class.altered_carbon::js::ACAstBaseNode"*, align 8
  call void @llvm.dbg.declare(metadata %"class.altered_carbon::js::ACAstBaseNode"** %12, metadata !5034, metadata !DIExpression()), !dbg !6259
  %13 = alloca %"struct.std::__1::__compressed_pair_elem.3"*, align 8
  call void @llvm.dbg.declare(metadata %"struct.std::__1::__compressed_pair_elem.3"** %13, metadata !4987, metadata !DIExpression()), !dbg !6260
  %14 = alloca %"class.std::__1::__compressed_pair.2"*, align 8
  call void @llvm.dbg.declare(metadata %"class.std::__1::__compressed_pair.2"** %14, metadata !4995, metadata !DIExpression()), !dbg !6263
  %15 = alloca %"class.std::__1::unique_ptr.1"*, align 8
  call void @llvm.dbg.declare(metadata %"class.std::__1::unique_ptr.1"** %15, metadata !5040, metadata !DIExpression()), !dbg !6264
  %16 = alloca %"class.altered_carbon::js::ACAstBaseNode"*, align 8
  call void @llvm.dbg.declare(metadata %"class.altered_carbon::js::ACAstBaseNode"** %16, metadata !5042, metadata !DIExpression()), !dbg !6265
  %17 = alloca %"class.altered_carbon::js::ACAstBaseNode"*, align 8
  call void @llvm.dbg.declare(metadata %"class.altered_carbon::js::ACAstBaseNode"** %17, metadata !5044, metadata !DIExpression()), !dbg !6266
  %18 = alloca %"class.std::__1::unique_ptr.1"*, align 8
  call void @llvm.dbg.declare(metadata %"class.std::__1::unique_ptr.1"** %18, metadata !5046, metadata !DIExpression()), !dbg !6267
  %19 = alloca %"class.std::__1::unique_ptr.1"*, align 8
  call void @llvm.dbg.declare(metadata %"class.std::__1::unique_ptr.1"** %19, metadata !5048, metadata !DIExpression()), !dbg !6268
  %20 = alloca %"struct.std::__1::__compressed_pair_elem.0"*, align 8
  call void @llvm.dbg.declare(metadata %"struct.std::__1::__compressed_pair_elem.0"** %20, metadata !5061, metadata !DIExpression()), !dbg !6269
  %21 = alloca %"class.std::__1::__compressed_pair"*, align 8
  call void @llvm.dbg.declare(metadata %"class.std::__1::__compressed_pair"** %21, metadata !5076, metadata !DIExpression()), !dbg !6275
  %22 = alloca %"struct.std::__1::__compressed_pair_elem"*, align 8
  call void @llvm.dbg.declare(metadata %"struct.std::__1::__compressed_pair_elem"** %22, metadata !5079, metadata !DIExpression()), !dbg !6276
  %23 = alloca %"class.std::__1::__compressed_pair"*, align 8
  call void @llvm.dbg.declare(metadata %"class.std::__1::__compressed_pair"** %23, metadata !5086, metadata !DIExpression()), !dbg !6279
  %24 = alloca %"struct.std::__1::default_delete"*, align 8
  call void @llvm.dbg.declare(metadata %"struct.std::__1::default_delete"** %24, metadata !5088, metadata !DIExpression()), !dbg !6280
  %25 = alloca %"struct.altered_carbon::js::ACLexPosition"*, align 8
  call void @llvm.dbg.declare(metadata %"struct.altered_carbon::js::ACLexPosition"** %25, metadata !5093, metadata !DIExpression()), !dbg !6282
  %26 = alloca %"struct.std::__1::__compressed_pair_elem"*, align 8
  call void @llvm.dbg.declare(metadata %"struct.std::__1::__compressed_pair_elem"** %26, metadata !5079, metadata !DIExpression()), !dbg !6283
  %27 = alloca %"class.std::__1::__compressed_pair"*, align 8
