; ModuleID = 'temp.bc'
source_filename = "../ac_ast_visitable.cc"
target datalayout = "e-m:o-i64:64-f80:128-n8:16:32:64-S128"
target triple = "x86_64-apple-macosx10.13.0"

%"class.altered_carbon::js::AstVisitContext" = type { i8* }

; Function Attrs: noinline nounwind optnone ssp uwtable
define void @_ZN14altered_carbon2js15AstVisitContextC2EPv(%"class.altered_carbon::js::AstVisitContext"*, i8*) unnamed_addr #0 align 2 !dbg !960 {
  %3 = alloca %"class.altered_carbon::js::AstVisitContext"*, align 8
  %4 = alloca i8*, align 8
  store %"class.altered_carbon::js::AstVisitContext"* %0, %"class.altered_carbon::js::AstVisitContext"** %3, align 8
  call void @llvm.dbg.declare(metadata %"class.altered_carbon::js::AstVisitContext"** %3, metadata !974, metadata !DIExpression()), !dbg !976
  store i8* %1, i8** %4, align 8
  call void @llvm.dbg.declare(metadata i8** %4, metadata !977, metadata !DIExpression()), !dbg !978
  %5 = load %"class.altered_carbon::js::AstVisitContext"*, %"class.altered_carbon::js::AstVisitContext"** %3, align 8
  %6 = getelementptr inbounds %"class.altered_carbon::js::AstVisitContext", %"class.altered_carbon::js::AstVisitContext"* %5, i32 0, i32 0, !dbg !979
  %7 = load i8*, i8** %4, align 8, !dbg !980
  store i8* %7, i8** %6, align 8, !dbg !979
  ret void, !dbg !981
}

; Function Attrs: nounwind readnone speculatable
declare void @llvm.dbg.declare(metadata, metadata, metadata) #1

; Function Attrs: noinline nounwind optnone ssp uwtable
define void @_ZN14altered_carbon2js15AstVisitContextC1EPv(%"class.altered_carbon::js::AstVisitContext"*, i8*) unnamed_addr #0 align 2 !dbg !982 {
  %3 = alloca %"class.altered_carbon::js::AstVisitContext"*, align 8
  %4 = alloca i8*, align 8
  store %"class.altered_carbon::js::AstVisitContext"* %0, %"class.altered_carbon::js::AstVisitContext"** %3, align 8
  call void @llvm.dbg.declare(metadata %"class.altered_carbon::js::AstVisitContext"** %3, metadata !983, metadata !DIExpression()), !dbg !984
  store i8* %1, i8** %4, align 8
  call void @llvm.dbg.declare(metadata i8** %4, metadata !985, metadata !DIExpression()), !dbg !986
  %5 = load %"class.altered_carbon::js::AstVisitContext"*, %"class.altered_carbon::js::AstVisitContext"** %3, align 8
  %6 = load i8*, i8** %4, align 8, !dbg !987
  call void @_ZN14altered_carbon2js15AstVisitContextC2EPv(%"class.altered_carbon::js::AstVisitContext"* %5, i8* %6), !dbg !987
  ret void, !dbg !988
}

attributes #0 = { noinline nounwind optnone ssp uwtable "correctly-rounded-divide-sqrt-fp-math"="false" "disable-tail-calls"="false" "less-precise-fpmad"="false" "no-frame-pointer-elim"="true" "no-frame-pointer-elim-non-leaf" "no-infs-fp-math"="false" "no-jump-tables"="false" "no-nans-fp-math"="false" "no-signed-zeros-fp-math"="false" "no-trapping-math"="false" "stack-protector-buffer-size"="8" "target-cpu"="penryn" "target-features"="+cx16,+fxsr,+mmx,+sse,+sse2,+sse3,+sse4.1,+ssse3,+x87" "unsafe-fp-math"="false" "use-soft-float"="false" }
attributes #1 = { nounwind readnone speculatable }

!llvm.dbg.cu = !{!0}
!llvm.module.flags = !{!955, !956, !957, !958}
!llvm.ident = !{!959}

!0 = distinct !DICompileUnit(language: DW_LANG_C_plus_plus, file: !1, producer: "Apple LLVM version 9.1.0 (clang-902.0.39.2)", isOptimized: false, runtimeVersion: 0, emissionKind: FullDebug, enums: !2, imports: !3)
!1 = !DIFile(filename: "../ac_ast_visitable.cc", directory: "/Users/ejiang/Projects/lls/ac/llfiles")
!2 = !{}
!3 = !{!4, !10, !16, !19, !23, !25, !33, !35, !43, !47, !49, !51, !56, !60, !64, !66, !70, !75, !79, !83, !85, !87, !89, !91, !93, !95, !99, !103, !108, !112, !115, !119, !123, !127, !131, !135, !138, !140, !142, !144, !146, !148, !150, !152, !154, !156, !158, !160, !162, !164, !166, !168, !173, !176, !179, !182, !184, !191, !197, !203, !208, !212, !216, !220, !225, !230, !234, !238, !242, !246, !250, !254, !258, !262, !266, !270, !274, !278, !283, !287, !289, !293, !295, !302, !306, !311, !315, !317, !321, !325, !327, !331, !337, !341, !345, !351, !406, !407, !408, !414, !416, !420, !424, !428, !430, !434, !438, !442, !453, !455, !459, !463, !467, !469, !473, !477, !481, !483, !485, !487, !491, !495, !500, !504, !510, !514, !518, !520, !522, !524, !528, !532, !536, !538, !540, !544, !548, !550, !552, !556, !560, !562, !566, !568, !570, !574, !576, !578, !580, !582, !584, !586, !588, !590, !592, !594, !596, !598, !600, !605, !610, !615, !620, !622, !625, !627, !629, !631, !633, !635, !637, !639, !641, !643, !647, !651, !655, !657, !661, !665, !678, !679, !694, !695, !696, !701, !703, !707, !711, !715, !719, !721, !725, !729, !733, !737, !741, !745, !747, !749, !753, !758, !762, !766, !770, !774, !778, !782, !786, !790, !792, !794, !798, !800, !804, !808, !813, !815, !817, !819, !823, !827, !831, !833, !837, !839, !841, !843, !845, !851, !855, !857, !863, !868, !872, !876, !881, !886, !890, !894, !898, !902, !904, !906, !911, !912, !916, !917, !921, !925, !930, !935, !939, !945, !949, !951}
!4 = !DIImportedEntity(tag: DW_TAG_imported_declaration, scope: !0, entity: !5, file: !9, line: 52)
!5 = !DIDerivedType(tag: DW_TAG_typedef, name: "nullptr_t", scope: !7, file: !6, line: 57, baseType: !8)
!6 = !DIFile(filename: "/Applications/Xcode.app/Contents/Developer/Toolchains/XcodeDefault.xctoolchain/usr/include/c++/v1/__nullptr", directory: "/Users/ejiang/Projects/lls/ac/llfiles")
!7 = !DINamespace(name: "std", scope: null)
!8 = !DIBasicType(tag: DW_TAG_unspecified_type, name: "decltype(nullptr)")
!9 = !DIFile(filename: "/Applications/Xcode.app/Contents/Developer/Toolchains/XcodeDefault.xctoolchain/usr/include/c++/v1/stddef.h", directory: "/Users/ejiang/Projects/lls/ac/llfiles")
!10 = !DIImportedEntity(tag: DW_TAG_imported_declaration, scope: !11, entity: !12, file: !15, line: 49)
!11 = !DINamespace(name: "__1", scope: !7, exportSymbols: true)
!12 = !DIDerivedType(tag: DW_TAG_typedef, name: "ptrdiff_t", file: !13, line: 51, baseType: !14)
!13 = !DIFile(filename: "/Applications/Xcode.app/Contents/Developer/Toolchains/XcodeDefault.xctoolchain/usr/lib/clang/9.1.0/include/stddef.h", directory: "/Users/ejiang/Projects/lls/ac/llfiles")
!14 = !DIBasicType(name: "long int", size: 64, encoding: DW_ATE_signed)
!15 = !DIFile(filename: "/Applications/Xcode.app/Contents/Developer/Toolchains/XcodeDefault.xctoolchain/usr/include/c++/v1/cstddef", directory: "/Users/ejiang/Projects/lls/ac/llfiles")
!16 = !DIImportedEntity(tag: DW_TAG_imported_declaration, scope: !11, entity: !17, file: !15, line: 50)
!17 = !DIDerivedType(tag: DW_TAG_typedef, name: "size_t", file: !13, line: 62, baseType: !18)
!18 = !DIBasicType(name: "long unsigned int", size: 64, encoding: DW_ATE_unsigned)
!19 = !DIImportedEntity(tag: DW_TAG_imported_declaration, scope: !11, entity: !20, file: !15, line: 55)
!20 = !DIDerivedType(tag: DW_TAG_typedef, name: "max_align_t", file: !21, line: 32, baseType: !22)
!21 = !DIFile(filename: "/Applications/Xcode.app/Contents/Developer/Toolchains/XcodeDefault.xctoolchain/usr/lib/clang/9.1.0/include/__stddef_max_align_t.h", directory: "/Users/ejiang/Projects/lls/ac/llfiles")
!22 = !DIBasicType(name: "long double", size: 128, encoding: DW_ATE_float)
!23 = !DIImportedEntity(tag: DW_TAG_imported_declaration, scope: !11, entity: !17, file: !24, line: 69)
!24 = !DIFile(filename: "/Applications/Xcode.app/Contents/Developer/Toolchains/XcodeDefault.xctoolchain/usr/include/c++/v1/cstring", directory: "/Users/ejiang/Projects/lls/ac/llfiles")
!25 = !DIImportedEntity(tag: DW_TAG_imported_declaration, scope: !11, entity: !26, file: !24, line: 70)
!26 = !DISubprogram(name: "memcpy", scope: !27, file: !27, line: 72, type: !28, isLocal: false, isDefinition: false, flags: DIFlagPrototyped, isOptimized: false)
!27 = !DIFile(filename: "/Applications/Xcode.app/Contents/Developer/Platforms/MacOSX.platform/Developer/SDKs/MacOSX10.13.sdk/usr/include/string.h", directory: "/Users/ejiang/Projects/lls/ac/llfiles")
!28 = !DISubroutineType(types: !29)
!29 = !{!30, !30, !31, !17}
!30 = !DIDerivedType(tag: DW_TAG_pointer_type, baseType: null, size: 64)
!31 = !DIDerivedType(tag: DW_TAG_pointer_type, baseType: !32, size: 64)
!32 = !DIDerivedType(tag: DW_TAG_const_type, baseType: null)
!33 = !DIImportedEntity(tag: DW_TAG_imported_declaration, scope: !11, entity: !34, file: !24, line: 71)
!34 = !DISubprogram(name: "memmove", scope: !27, file: !27, line: 73, type: !28, isLocal: false, isDefinition: false, flags: DIFlagPrototyped, isOptimized: false)
!35 = !DIImportedEntity(tag: DW_TAG_imported_declaration, scope: !11, entity: !36, file: !24, line: 72)
!36 = !DISubprogram(name: "strcpy", scope: !27, file: !27, line: 79, type: !37, isLocal: false, isDefinition: false, flags: DIFlagPrototyped, isOptimized: false)
!37 = !DISubroutineType(types: !38)
!38 = !{!39, !39, !41}
!39 = !DIDerivedType(tag: DW_TAG_pointer_type, baseType: !40, size: 64)
!40 = !DIBasicType(name: "char", size: 8, encoding: DW_ATE_signed_char)
!41 = !DIDerivedType(tag: DW_TAG_pointer_type, baseType: !42, size: 64)
!42 = !DIDerivedType(tag: DW_TAG_const_type, baseType: !40)
!43 = !DIImportedEntity(tag: DW_TAG_imported_declaration, scope: !11, entity: !44, file: !24, line: 73)
!44 = !DISubprogram(name: "strncpy", scope: !27, file: !27, line: 85, type: !45, isLocal: false, isDefinition: false, flags: DIFlagPrototyped, isOptimized: false)
!45 = !DISubroutineType(types: !46)
!46 = !{!39, !39, !41, !17}
!47 = !DIImportedEntity(tag: DW_TAG_imported_declaration, scope: !11, entity: !48, file: !24, line: 74)
!48 = !DISubprogram(name: "strcat", scope: !27, file: !27, line: 75, type: !37, isLocal: false, isDefinition: false, flags: DIFlagPrototyped, isOptimized: false)
!49 = !DIImportedEntity(tag: DW_TAG_imported_declaration, scope: !11, entity: !50, file: !24, line: 75)
!50 = !DISubprogram(name: "strncat", scope: !27, file: !27, line: 83, type: !45, isLocal: false, isDefinition: false, flags: DIFlagPrototyped, isOptimized: false)
!51 = !DIImportedEntity(tag: DW_TAG_imported_declaration, scope: !11, entity: !52, file: !24, line: 76)
!52 = !DISubprogram(name: "memcmp", scope: !27, file: !27, line: 71, type: !53, isLocal: false, isDefinition: false, flags: DIFlagPrototyped, isOptimized: false)
!53 = !DISubroutineType(types: !54)
!54 = !{!55, !31, !31, !17}
!55 = !DIBasicType(name: "int", size: 32, encoding: DW_ATE_signed)
!56 = !DIImportedEntity(tag: DW_TAG_imported_declaration, scope: !11, entity: !57, file: !24, line: 77)
!57 = !DISubprogram(name: "strcmp", scope: !27, file: !27, line: 77, type: !58, isLocal: false, isDefinition: false, flags: DIFlagPrototyped, isOptimized: false)
!58 = !DISubroutineType(types: !59)
!59 = !{!55, !41, !41}
!60 = !DIImportedEntity(tag: DW_TAG_imported_declaration, scope: !11, entity: !61, file: !24, line: 78)
!61 = !DISubprogram(name: "strncmp", scope: !27, file: !27, line: 84, type: !62, isLocal: false, isDefinition: false, flags: DIFlagPrototyped, isOptimized: false)
!62 = !DISubroutineType(types: !63)
!63 = !{!55, !41, !41, !17}
!64 = !DIImportedEntity(tag: DW_TAG_imported_declaration, scope: !11, entity: !65, file: !24, line: 79)
!65 = !DISubprogram(name: "strcoll", scope: !27, file: !27, line: 78, type: !58, isLocal: false, isDefinition: false, flags: DIFlagPrototyped, isOptimized: false)
!66 = !DIImportedEntity(tag: DW_TAG_imported_declaration, scope: !11, entity: !67, file: !24, line: 80)
!67 = !DISubprogram(name: "strxfrm", scope: !27, file: !27, line: 91, type: !68, isLocal: false, isDefinition: false, flags: DIFlagPrototyped, isOptimized: false)
!68 = !DISubroutineType(types: !69)
!69 = !{!17, !39, !41, !17}
!70 = !DIImportedEntity(tag: DW_TAG_imported_declaration, scope: !11, entity: !71, file: !24, line: 81)
!71 = !DISubprogram(name: "memchr", linkageName: "_Z6memchrUa9enable_ifIXLb1EEEPvim", scope: !72, file: !72, line: 99, type: !73, isLocal: false, isDefinition: false, flags: DIFlagPrototyped, isOptimized: false)
!72 = !DIFile(filename: "/Applications/Xcode.app/Contents/Developer/Toolchains/XcodeDefault.xctoolchain/usr/include/c++/v1/string.h", directory: "/Users/ejiang/Projects/lls/ac/llfiles")
!73 = !DISubroutineType(types: !74)
!74 = !{!30, !30, !55, !17}
!75 = !DIImportedEntity(tag: DW_TAG_imported_declaration, scope: !11, entity: !76, file: !24, line: 82)
!76 = !DISubprogram(name: "strchr", linkageName: "_Z6strchrUa9enable_ifIXLb1EEEPci", scope: !72, file: !72, line: 78, type: !77, isLocal: false, isDefinition: false, flags: DIFlagPrototyped, isOptimized: false)
!77 = !DISubroutineType(types: !78)
!78 = !{!39, !39, !55}
!79 = !DIImportedEntity(tag: DW_TAG_imported_declaration, scope: !11, entity: !80, file: !24, line: 83)
!80 = !DISubprogram(name: "strcspn", scope: !27, file: !27, line: 80, type: !81, isLocal: false, isDefinition: false, flags: DIFlagPrototyped, isOptimized: false)
!81 = !DISubroutineType(types: !82)
!82 = !{!17, !41, !41}
!83 = !DIImportedEntity(tag: DW_TAG_imported_declaration, scope: !11, entity: !84, file: !24, line: 84)
!84 = !DISubprogram(name: "strpbrk", linkageName: "_Z7strpbrkUa9enable_ifIXLb1EEEPcPKc", scope: !72, file: !72, line: 85, type: !37, isLocal: false, isDefinition: false, flags: DIFlagPrototyped, isOptimized: false)
!85 = !DIImportedEntity(tag: DW_TAG_imported_declaration, scope: !11, entity: !86, file: !24, line: 85)
!86 = !DISubprogram(name: "strrchr", linkageName: "_Z7strrchrUa9enable_ifIXLb1EEEPci", scope: !72, file: !72, line: 92, type: !77, isLocal: false, isDefinition: false, flags: DIFlagPrototyped, isOptimized: false)
!87 = !DIImportedEntity(tag: DW_TAG_imported_declaration, scope: !11, entity: !88, file: !24, line: 86)
!88 = !DISubprogram(name: "strspn", scope: !27, file: !27, line: 88, type: !81, isLocal: false, isDefinition: false, flags: DIFlagPrototyped, isOptimized: false)
!89 = !DIImportedEntity(tag: DW_TAG_imported_declaration, scope: !11, entity: !90, file: !24, line: 87)
!90 = !DISubprogram(name: "strstr", linkageName: "_Z6strstrUa9enable_ifIXLb1EEEPcPKc", scope: !72, file: !72, line: 106, type: !37, isLocal: false, isDefinition: false, flags: DIFlagPrototyped, isOptimized: false)
!91 = !DIImportedEntity(tag: DW_TAG_imported_declaration, scope: !11, entity: !92, file: !24, line: 89)
!92 = !DISubprogram(name: "strtok", scope: !27, file: !27, line: 90, type: !37, isLocal: false, isDefinition: false, flags: DIFlagPrototyped, isOptimized: false)
!93 = !DIImportedEntity(tag: DW_TAG_imported_declaration, scope: !11, entity: !94, file: !24, line: 91)
!94 = !DISubprogram(name: "memset", scope: !27, file: !27, line: 74, type: !73, isLocal: false, isDefinition: false, flags: DIFlagPrototyped, isOptimized: false)
!95 = !DIImportedEntity(tag: DW_TAG_imported_declaration, scope: !11, entity: !96, file: !24, line: 92)
!96 = !DISubprogram(name: "strerror", linkageName: "\01_strerror", scope: !27, file: !27, line: 81, type: !97, isLocal: false, isDefinition: false, flags: DIFlagPrototyped, isOptimized: false)
!97 = !DISubroutineType(types: !98)
!98 = !{!39, !55}
!99 = !DIImportedEntity(tag: DW_TAG_imported_declaration, scope: !11, entity: !100, file: !24, line: 93)
!100 = !DISubprogram(name: "strlen", scope: !27, file: !27, line: 82, type: !101, isLocal: false, isDefinition: false, flags: DIFlagPrototyped, isOptimized: false)
!101 = !DISubroutineType(types: !102)
!102 = !{!17, !41}
!103 = !DIImportedEntity(tag: DW_TAG_imported_declaration, scope: !11, entity: !104, file: !107, line: 153)
!104 = !DIDerivedType(tag: DW_TAG_typedef, name: "int8_t", file: !105, line: 30, baseType: !106)
!105 = !DIFile(filename: "/Applications/Xcode.app/Contents/Developer/Platforms/MacOSX.platform/Developer/SDKs/MacOSX10.13.sdk/usr/include/sys/_types/_int8_t.h", directory: "/Users/ejiang/Projects/lls/ac/llfiles")
!106 = !DIBasicType(name: "signed char", size: 8, encoding: DW_ATE_signed_char)
!107 = !DIFile(filename: "/Applications/Xcode.app/Contents/Developer/Toolchains/XcodeDefault.xctoolchain/usr/include/c++/v1/cstdint", directory: "/Users/ejiang/Projects/lls/ac/llfiles")
!108 = !DIImportedEntity(tag: DW_TAG_imported_declaration, scope: !11, entity: !109, file: !107, line: 154)
!109 = !DIDerivedType(tag: DW_TAG_typedef, name: "int16_t", file: !110, line: 30, baseType: !111)
!110 = !DIFile(filename: "/Applications/Xcode.app/Contents/Developer/Platforms/MacOSX.platform/Developer/SDKs/MacOSX10.13.sdk/usr/include/sys/_types/_int16_t.h", directory: "/Users/ejiang/Projects/lls/ac/llfiles")
!111 = !DIBasicType(name: "short", size: 16, encoding: DW_ATE_signed)
!112 = !DIImportedEntity(tag: DW_TAG_imported_declaration, scope: !11, entity: !113, file: !107, line: 155)
!113 = !DIDerivedType(tag: DW_TAG_typedef, name: "int32_t", file: !114, line: 30, baseType: !55)
!114 = !DIFile(filename: "/Applications/Xcode.app/Contents/Developer/Platforms/MacOSX.platform/Developer/SDKs/MacOSX10.13.sdk/usr/include/sys/_types/_int32_t.h", directory: "/Users/ejiang/Projects/lls/ac/llfiles")
!115 = !DIImportedEntity(tag: DW_TAG_imported_declaration, scope: !11, entity: !116, file: !107, line: 156)
!116 = !DIDerivedType(tag: DW_TAG_typedef, name: "int64_t", file: !117, line: 30, baseType: !118)
!117 = !DIFile(filename: "/Applications/Xcode.app/Contents/Developer/Platforms/MacOSX.platform/Developer/SDKs/MacOSX10.13.sdk/usr/include/sys/_types/_int64_t.h", directory: "/Users/ejiang/Projects/lls/ac/llfiles")
!118 = !DIBasicType(name: "long long int", size: 64, encoding: DW_ATE_signed)
!119 = !DIImportedEntity(tag: DW_TAG_imported_declaration, scope: !11, entity: !120, file: !107, line: 158)
!120 = !DIDerivedType(tag: DW_TAG_typedef, name: "uint8_t", file: !121, line: 31, baseType: !122)
!121 = !DIFile(filename: "/Applications/Xcode.app/Contents/Developer/Platforms/MacOSX.platform/Developer/SDKs/MacOSX10.13.sdk/usr/include/_types/_uint8_t.h", directory: "/Users/ejiang/Projects/lls/ac/llfiles")
!122 = !DIBasicType(name: "unsigned char", size: 8, encoding: DW_ATE_unsigned_char)
!123 = !DIImportedEntity(tag: DW_TAG_imported_declaration, scope: !11, entity: !124, file: !107, line: 159)
!124 = !DIDerivedType(tag: DW_TAG_typedef, name: "uint16_t", file: !125, line: 31, baseType: !126)
!125 = !DIFile(filename: "/Applications/Xcode.app/Contents/Developer/Platforms/MacOSX.platform/Developer/SDKs/MacOSX10.13.sdk/usr/include/_types/_uint16_t.h", directory: "/Users/ejiang/Projects/lls/ac/llfiles")
!126 = !DIBasicType(name: "unsigned short", size: 16, encoding: DW_ATE_unsigned)
!127 = !DIImportedEntity(tag: DW_TAG_imported_declaration, scope: !11, entity: !128, file: !107, line: 160)
!128 = !DIDerivedType(tag: DW_TAG_typedef, name: "uint32_t", file: !129, line: 31, baseType: !130)
!129 = !DIFile(filename: "/Applications/Xcode.app/Contents/Developer/Platforms/MacOSX.platform/Developer/SDKs/MacOSX10.13.sdk/usr/include/_types/_uint32_t.h", directory: "/Users/ejiang/Projects/lls/ac/llfiles")
!130 = !DIBasicType(name: "unsigned int", size: 32, encoding: DW_ATE_unsigned)
!131 = !DIImportedEntity(tag: DW_TAG_imported_declaration, scope: !11, entity: !132, file: !107, line: 161)
!132 = !DIDerivedType(tag: DW_TAG_typedef, name: "uint64_t", file: !133, line: 31, baseType: !134)
!133 = !DIFile(filename: "/Applications/Xcode.app/Contents/Developer/Platforms/MacOSX.platform/Developer/SDKs/MacOSX10.13.sdk/usr/include/_types/_uint64_t.h", directory: "/Users/ejiang/Projects/lls/ac/llfiles")
!134 = !DIBasicType(name: "long long unsigned int", size: 64, encoding: DW_ATE_unsigned)
!135 = !DIImportedEntity(tag: DW_TAG_imported_declaration, scope: !11, entity: !136, file: !107, line: 163)
!136 = !DIDerivedType(tag: DW_TAG_typedef, name: "int_least8_t", file: !137, line: 29, baseType: !104)
!137 = !DIFile(filename: "/Applications/Xcode.app/Contents/Developer/Platforms/MacOSX.platform/Developer/SDKs/MacOSX10.13.sdk/usr/include/stdint.h", directory: "/Users/ejiang/Projects/lls/ac/llfiles")
!138 = !DIImportedEntity(tag: DW_TAG_imported_declaration, scope: !11, entity: !139, file: !107, line: 164)
!139 = !DIDerivedType(tag: DW_TAG_typedef, name: "int_least16_t", file: !137, line: 30, baseType: !109)
!140 = !DIImportedEntity(tag: DW_TAG_imported_declaration, scope: !11, entity: !141, file: !107, line: 165)
!141 = !DIDerivedType(tag: DW_TAG_typedef, name: "int_least32_t", file: !137, line: 31, baseType: !113)
!142 = !DIImportedEntity(tag: DW_TAG_imported_declaration, scope: !11, entity: !143, file: !107, line: 166)
!143 = !DIDerivedType(tag: DW_TAG_typedef, name: "int_least64_t", file: !137, line: 32, baseType: !116)
!144 = !DIImportedEntity(tag: DW_TAG_imported_declaration, scope: !11, entity: !145, file: !107, line: 168)
!145 = !DIDerivedType(tag: DW_TAG_typedef, name: "uint_least8_t", file: !137, line: 33, baseType: !120)
!146 = !DIImportedEntity(tag: DW_TAG_imported_declaration, scope: !11, entity: !147, file: !107, line: 169)
!147 = !DIDerivedType(tag: DW_TAG_typedef, name: "uint_least16_t", file: !137, line: 34, baseType: !124)
!148 = !DIImportedEntity(tag: DW_TAG_imported_declaration, scope: !11, entity: !149, file: !107, line: 170)
!149 = !DIDerivedType(tag: DW_TAG_typedef, name: "uint_least32_t", file: !137, line: 35, baseType: !128)
!150 = !DIImportedEntity(tag: DW_TAG_imported_declaration, scope: !11, entity: !151, file: !107, line: 171)
!151 = !DIDerivedType(tag: DW_TAG_typedef, name: "uint_least64_t", file: !137, line: 36, baseType: !132)
!152 = !DIImportedEntity(tag: DW_TAG_imported_declaration, scope: !11, entity: !153, file: !107, line: 173)
!153 = !DIDerivedType(tag: DW_TAG_typedef, name: "int_fast8_t", file: !137, line: 40, baseType: !104)
!154 = !DIImportedEntity(tag: DW_TAG_imported_declaration, scope: !11, entity: !155, file: !107, line: 174)
!155 = !DIDerivedType(tag: DW_TAG_typedef, name: "int_fast16_t", file: !137, line: 41, baseType: !109)
!156 = !DIImportedEntity(tag: DW_TAG_imported_declaration, scope: !11, entity: !157, file: !107, line: 175)
!157 = !DIDerivedType(tag: DW_TAG_typedef, name: "int_fast32_t", file: !137, line: 42, baseType: !113)
!158 = !DIImportedEntity(tag: DW_TAG_imported_declaration, scope: !11, entity: !159, file: !107, line: 176)
!159 = !DIDerivedType(tag: DW_TAG_typedef, name: "int_fast64_t", file: !137, line: 43, baseType: !116)
!160 = !DIImportedEntity(tag: DW_TAG_imported_declaration, scope: !11, entity: !161, file: !107, line: 178)
!161 = !DIDerivedType(tag: DW_TAG_typedef, name: "uint_fast8_t", file: !137, line: 44, baseType: !120)
!162 = !DIImportedEntity(tag: DW_TAG_imported_declaration, scope: !11, entity: !163, file: !107, line: 179)
!163 = !DIDerivedType(tag: DW_TAG_typedef, name: "uint_fast16_t", file: !137, line: 45, baseType: !124)
!164 = !DIImportedEntity(tag: DW_TAG_imported_declaration, scope: !11, entity: !165, file: !107, line: 180)
!165 = !DIDerivedType(tag: DW_TAG_typedef, name: "uint_fast32_t", file: !137, line: 46, baseType: !128)
!166 = !DIImportedEntity(tag: DW_TAG_imported_declaration, scope: !11, entity: !167, file: !107, line: 181)
!167 = !DIDerivedType(tag: DW_TAG_typedef, name: "uint_fast64_t", file: !137, line: 47, baseType: !132)
!168 = !DIImportedEntity(tag: DW_TAG_imported_declaration, scope: !11, entity: !169, file: !107, line: 183)
!169 = !DIDerivedType(tag: DW_TAG_typedef, name: "intptr_t", file: !170, line: 32, baseType: !171)
!170 = !DIFile(filename: "/Applications/Xcode.app/Contents/Developer/Platforms/MacOSX.platform/Developer/SDKs/MacOSX10.13.sdk/usr/include/sys/_types/_intptr_t.h", directory: "/Users/ejiang/Projects/lls/ac/llfiles")
!171 = !DIDerivedType(tag: DW_TAG_typedef, name: "__darwin_intptr_t", file: !172, line: 49, baseType: !14)
!172 = !DIFile(filename: "/Applications/Xcode.app/Contents/Developer/Platforms/MacOSX.platform/Developer/SDKs/MacOSX10.13.sdk/usr/include/i386/_types.h", directory: "/Users/ejiang/Projects/lls/ac/llfiles")
!173 = !DIImportedEntity(tag: DW_TAG_imported_declaration, scope: !11, entity: !174, file: !107, line: 184)
!174 = !DIDerivedType(tag: DW_TAG_typedef, name: "uintptr_t", file: !175, line: 30, baseType: !18)
!175 = !DIFile(filename: "/Applications/Xcode.app/Contents/Developer/Platforms/MacOSX.platform/Developer/SDKs/MacOSX10.13.sdk/usr/include/sys/_types/_uintptr_t.h", directory: "/Users/ejiang/Projects/lls/ac/llfiles")
!176 = !DIImportedEntity(tag: DW_TAG_imported_declaration, scope: !11, entity: !177, file: !107, line: 186)
!177 = !DIDerivedType(tag: DW_TAG_typedef, name: "intmax_t", file: !178, line: 32, baseType: !14)
!178 = !DIFile(filename: "/Applications/Xcode.app/Contents/Developer/Platforms/MacOSX.platform/Developer/SDKs/MacOSX10.13.sdk/usr/include/_types/_intmax_t.h", directory: "/Users/ejiang/Projects/lls/ac/llfiles")
!179 = !DIImportedEntity(tag: DW_TAG_imported_declaration, scope: !11, entity: !180, file: !107, line: 187)
!180 = !DIDerivedType(tag: DW_TAG_typedef, name: "uintmax_t", file: !181, line: 32, baseType: !18)
!181 = !DIFile(filename: "/Applications/Xcode.app/Contents/Developer/Platforms/MacOSX.platform/Developer/SDKs/MacOSX10.13.sdk/usr/include/_types/_uintmax_t.h", directory: "/Users/ejiang/Projects/lls/ac/llfiles")
!182 = !DIImportedEntity(tag: DW_TAG_imported_declaration, scope: !11, entity: !17, file: !183, line: 100)
!183 = !DIFile(filename: "/Applications/Xcode.app/Contents/Developer/Toolchains/XcodeDefault.xctoolchain/usr/include/c++/v1/cstdlib", directory: "/Users/ejiang/Projects/lls/ac/llfiles")
!184 = !DIImportedEntity(tag: DW_TAG_imported_declaration, scope: !11, entity: !185, file: !183, line: 101)
!185 = !DIDerivedType(tag: DW_TAG_typedef, name: "div_t", file: !186, line: 85, baseType: !187)
!186 = !DIFile(filename: "/Applications/Xcode.app/Contents/Developer/Platforms/MacOSX.platform/Developer/SDKs/MacOSX10.13.sdk/usr/include/stdlib.h", directory: "/Users/ejiang/Projects/lls/ac/llfiles")
!187 = distinct !DICompositeType(tag: DW_TAG_structure_type, file: !186, line: 82, size: 64, elements: !188, identifier: "_ZTS5div_t")
!188 = !{!189, !190}
!189 = !DIDerivedType(tag: DW_TAG_member, name: "quot", scope: !187, file: !186, line: 83, baseType: !55, size: 32)
!190 = !DIDerivedType(tag: DW_TAG_member, name: "rem", scope: !187, file: !186, line: 84, baseType: !55, size: 32, offset: 32)
!191 = !DIImportedEntity(tag: DW_TAG_imported_declaration, scope: !11, entity: !192, file: !183, line: 102)
!192 = !DIDerivedType(tag: DW_TAG_typedef, name: "ldiv_t", file: !186, line: 90, baseType: !193)
!193 = distinct !DICompositeType(tag: DW_TAG_structure_type, file: !186, line: 87, size: 128, elements: !194, identifier: "_ZTS6ldiv_t")
!194 = !{!195, !196}
!195 = !DIDerivedType(tag: DW_TAG_member, name: "quot", scope: !193, file: !186, line: 88, baseType: !14, size: 64)
!196 = !DIDerivedType(tag: DW_TAG_member, name: "rem", scope: !193, file: !186, line: 89, baseType: !14, size: 64, offset: 64)
!197 = !DIImportedEntity(tag: DW_TAG_imported_declaration, scope: !11, entity: !198, file: !183, line: 104)
!198 = !DIDerivedType(tag: DW_TAG_typedef, name: "lldiv_t", file: !186, line: 96, baseType: !199)
!199 = distinct !DICompositeType(tag: DW_TAG_structure_type, file: !186, line: 93, size: 128, elements: !200, identifier: "_ZTS7lldiv_t")
!200 = !{!201, !202}
!201 = !DIDerivedType(tag: DW_TAG_member, name: "quot", scope: !199, file: !186, line: 94, baseType: !118, size: 64)
!202 = !DIDerivedType(tag: DW_TAG_member, name: "rem", scope: !199, file: !186, line: 95, baseType: !118, size: 64, offset: 64)
!203 = !DIImportedEntity(tag: DW_TAG_imported_declaration, scope: !11, entity: !204, file: !183, line: 106)
!204 = !DISubprogram(name: "atof", scope: !186, file: !186, line: 139, type: !205, isLocal: false, isDefinition: false, flags: DIFlagPrototyped, isOptimized: false)
!205 = !DISubroutineType(types: !206)
!206 = !{!207, !41}
!207 = !DIBasicType(name: "double", size: 64, encoding: DW_ATE_float)
!208 = !DIImportedEntity(tag: DW_TAG_imported_declaration, scope: !11, entity: !209, file: !183, line: 107)
!209 = !DISubprogram(name: "atoi", scope: !186, file: !186, line: 140, type: !210, isLocal: false, isDefinition: false, flags: DIFlagPrototyped, isOptimized: false)
!210 = !DISubroutineType(types: !211)
!211 = !{!55, !41}
!212 = !DIImportedEntity(tag: DW_TAG_imported_declaration, scope: !11, entity: !213, file: !183, line: 108)
!213 = !DISubprogram(name: "atol", scope: !186, file: !186, line: 141, type: !214, isLocal: false, isDefinition: false, flags: DIFlagPrototyped, isOptimized: false)
!214 = !DISubroutineType(types: !215)
!215 = !{!14, !41}
!216 = !DIImportedEntity(tag: DW_TAG_imported_declaration, scope: !11, entity: !217, file: !183, line: 110)
!217 = !DISubprogram(name: "atoll", scope: !186, file: !186, line: 144, type: !218, isLocal: false, isDefinition: false, flags: DIFlagPrototyped, isOptimized: false)
!218 = !DISubroutineType(types: !219)
!219 = !{!118, !41}
!220 = !DIImportedEntity(tag: DW_TAG_imported_declaration, scope: !11, entity: !221, file: !183, line: 112)
!221 = !DISubprogram(name: "strtod", linkageName: "\01_strtod", scope: !186, file: !186, line: 170, type: !222, isLocal: false, isDefinition: false, flags: DIFlagPrototyped, isOptimized: false)
!222 = !DISubroutineType(types: !223)
!223 = !{!207, !41, !224}
!224 = !DIDerivedType(tag: DW_TAG_pointer_type, baseType: !39, size: 64)
!225 = !DIImportedEntity(tag: DW_TAG_imported_declaration, scope: !11, entity: !226, file: !183, line: 113)
!226 = !DISubprogram(name: "strtof", linkageName: "\01_strtof", scope: !186, file: !186, line: 171, type: !227, isLocal: false, isDefinition: false, flags: DIFlagPrototyped, isOptimized: false)
!227 = !DISubroutineType(types: !228)
!228 = !{!229, !41, !224}
!229 = !DIBasicType(name: "float", size: 32, encoding: DW_ATE_float)
!230 = !DIImportedEntity(tag: DW_TAG_imported_declaration, scope: !11, entity: !231, file: !183, line: 114)
!231 = !DISubprogram(name: "strtold", scope: !186, file: !186, line: 174, type: !232, isLocal: false, isDefinition: false, flags: DIFlagPrototyped, isOptimized: false)
!232 = !DISubroutineType(types: !233)
!233 = !{!22, !41, !224}
!234 = !DIImportedEntity(tag: DW_TAG_imported_declaration, scope: !11, entity: !235, file: !183, line: 115)
!235 = !DISubprogram(name: "strtol", scope: !186, file: !186, line: 172, type: !236, isLocal: false, isDefinition: false, flags: DIFlagPrototyped, isOptimized: false)
!236 = !DISubroutineType(types: !237)
!237 = !{!14, !41, !224, !55}
!238 = !DIImportedEntity(tag: DW_TAG_imported_declaration, scope: !11, entity: !239, file: !183, line: 117)
!239 = !DISubprogram(name: "strtoll", scope: !186, file: !186, line: 177, type: !240, isLocal: false, isDefinition: false, flags: DIFlagPrototyped, isOptimized: false)
!240 = !DISubroutineType(types: !241)
!241 = !{!118, !41, !224, !55}
!242 = !DIImportedEntity(tag: DW_TAG_imported_declaration, scope: !11, entity: !243, file: !183, line: 119)
!243 = !DISubprogram(name: "strtoul", scope: !186, file: !186, line: 180, type: !244, isLocal: false, isDefinition: false, flags: DIFlagPrototyped, isOptimized: false)
!244 = !DISubroutineType(types: !245)
!245 = !{!18, !41, !224, !55}
!246 = !DIImportedEntity(tag: DW_TAG_imported_declaration, scope: !11, entity: !247, file: !183, line: 121)
!247 = !DISubprogram(name: "strtoull", scope: !186, file: !186, line: 183, type: !248, isLocal: false, isDefinition: false, flags: DIFlagPrototyped, isOptimized: false)
!248 = !DISubroutineType(types: !249)
!249 = !{!134, !41, !224, !55}
!250 = !DIImportedEntity(tag: DW_TAG_imported_declaration, scope: !11, entity: !251, file: !183, line: 123)
!251 = !DISubprogram(name: "rand", scope: !186, file: !186, line: 167, type: !252, isLocal: false, isDefinition: false, flags: DIFlagPrototyped, isOptimized: false)
!252 = !DISubroutineType(types: !253)
!253 = !{!55}
!254 = !DIImportedEntity(tag: DW_TAG_imported_declaration, scope: !11, entity: !255, file: !183, line: 124)
!255 = !DISubprogram(name: "srand", scope: !186, file: !186, line: 169, type: !256, isLocal: false, isDefinition: false, flags: DIFlagPrototyped, isOptimized: false)
!256 = !DISubroutineType(types: !257)
!257 = !{null, !130}
!258 = !DIImportedEntity(tag: DW_TAG_imported_declaration, scope: !11, entity: !259, file: !183, line: 125)
!259 = !DISubprogram(name: "calloc", scope: !186, file: !186, line: 148, type: !260, isLocal: false, isDefinition: false, flags: DIFlagPrototyped, isOptimized: false)
!260 = !DISubroutineType(types: !261)
!261 = !{!30, !17, !17}
!262 = !DIImportedEntity(tag: DW_TAG_imported_declaration, scope: !11, entity: !263, file: !183, line: 126)
!263 = !DISubprogram(name: "free", scope: !186, file: !186, line: 151, type: !264, isLocal: false, isDefinition: false, flags: DIFlagPrototyped, isOptimized: false)
!264 = !DISubroutineType(types: !265)
!265 = !{null, !30}
!266 = !DIImportedEntity(tag: DW_TAG_imported_declaration, scope: !11, entity: !267, file: !183, line: 127)
!267 = !DISubprogram(name: "malloc", scope: !186, file: !186, line: 160, type: !268, isLocal: false, isDefinition: false, flags: DIFlagPrototyped, isOptimized: false)
!268 = !DISubroutineType(types: !269)
!269 = !{!30, !17}
!270 = !DIImportedEntity(tag: DW_TAG_imported_declaration, scope: !11, entity: !271, file: !183, line: 128)
!271 = !DISubprogram(name: "realloc", scope: !186, file: !186, line: 168, type: !272, isLocal: false, isDefinition: false, flags: DIFlagPrototyped, isOptimized: false)
!272 = !DISubroutineType(types: !273)
!273 = !{!30, !30, !17}
!274 = !DIImportedEntity(tag: DW_TAG_imported_declaration, scope: !11, entity: !275, file: !183, line: 129)
!275 = !DISubprogram(name: "abort", scope: !186, file: !186, line: 136, type: !276, isLocal: false, isDefinition: false, flags: DIFlagPrototyped | DIFlagNoReturn, isOptimized: false)
!276 = !DISubroutineType(types: !277)
!277 = !{null}
!278 = !DIImportedEntity(tag: DW_TAG_imported_declaration, scope: !11, entity: !279, file: !183, line: 130)
!279 = !DISubprogram(name: "atexit", scope: !186, file: !186, line: 138, type: !280, isLocal: false, isDefinition: false, flags: DIFlagPrototyped, isOptimized: false)
!280 = !DISubroutineType(types: !281)
!281 = !{!55, !282}
!282 = !DIDerivedType(tag: DW_TAG_pointer_type, baseType: !276, size: 64)
!283 = !DIImportedEntity(tag: DW_TAG_imported_declaration, scope: !11, entity: !284, file: !183, line: 131)
!284 = !DISubprogram(name: "exit", scope: !186, file: !186, line: 150, type: !285, isLocal: false, isDefinition: false, flags: DIFlagPrototyped | DIFlagNoReturn, isOptimized: false)
!285 = !DISubroutineType(types: !286)
!286 = !{null, !55}
!287 = !DIImportedEntity(tag: DW_TAG_imported_declaration, scope: !11, entity: !288, file: !183, line: 132)
!288 = !DISubprogram(name: "_Exit", scope: !186, file: !186, line: 203, type: !285, isLocal: false, isDefinition: false, flags: DIFlagPrototyped | DIFlagNoReturn, isOptimized: false)
!289 = !DIImportedEntity(tag: DW_TAG_imported_declaration, scope: !11, entity: !290, file: !183, line: 134)
!290 = !DISubprogram(name: "getenv", scope: !186, file: !186, line: 152, type: !291, isLocal: false, isDefinition: false, flags: DIFlagPrototyped, isOptimized: false)
!291 = !DISubroutineType(types: !292)
!292 = !{!39, !41}
!293 = !DIImportedEntity(tag: DW_TAG_imported_declaration, scope: !11, entity: !294, file: !183, line: 135)
!294 = !DISubprogram(name: "system", linkageName: "\01_system", scope: !186, file: !186, line: 195, type: !210, isLocal: false, isDefinition: false, flags: DIFlagPrototyped, isOptimized: false)
!295 = !DIImportedEntity(tag: DW_TAG_imported_declaration, scope: !11, entity: !296, file: !183, line: 137)
!296 = !DISubprogram(name: "bsearch", scope: !186, file: !186, line: 146, type: !297, isLocal: false, isDefinition: false, flags: DIFlagPrototyped, isOptimized: false)
!297 = !DISubroutineType(types: !298)
!298 = !{!30, !31, !31, !17, !17, !299}
!299 = !DIDerivedType(tag: DW_TAG_pointer_type, baseType: !300, size: 64)
!300 = !DISubroutineType(types: !301)
!301 = !{!55, !31, !31}
!302 = !DIImportedEntity(tag: DW_TAG_imported_declaration, scope: !11, entity: !303, file: !183, line: 138)
!303 = !DISubprogram(name: "qsort", scope: !186, file: !186, line: 165, type: !304, isLocal: false, isDefinition: false, flags: DIFlagPrototyped, isOptimized: false)
!304 = !DISubroutineType(types: !305)
!305 = !{null, !30, !17, !17, !299}
!306 = !DIImportedEntity(tag: DW_TAG_imported_declaration, scope: !11, entity: !307, file: !183, line: 139)
!307 = !DISubprogram(name: "abs", linkageName: "_Z3absx", scope: !308, file: !308, line: 113, type: !309, isLocal: false, isDefinition: false, flags: DIFlagPrototyped, isOptimized: false)
!308 = !DIFile(filename: "/Applications/Xcode.app/Contents/Developer/Toolchains/XcodeDefault.xctoolchain/usr/include/c++/v1/stdlib.h", directory: "/Users/ejiang/Projects/lls/ac/llfiles")
!309 = !DISubroutineType(types: !310)
!310 = !{!118, !118}
!311 = !DIImportedEntity(tag: DW_TAG_imported_declaration, scope: !11, entity: !312, file: !183, line: 140)
!312 = !DISubprogram(name: "labs", scope: !186, file: !186, line: 153, type: !313, isLocal: false, isDefinition: false, flags: DIFlagPrototyped, isOptimized: false)
!313 = !DISubroutineType(types: !314)
!314 = !{!14, !14}
!315 = !DIImportedEntity(tag: DW_TAG_imported_declaration, scope: !11, entity: !316, file: !183, line: 142)
!316 = !DISubprogram(name: "llabs", scope: !186, file: !186, line: 157, type: !309, isLocal: false, isDefinition: false, flags: DIFlagPrototyped, isOptimized: false)
!317 = !DIImportedEntity(tag: DW_TAG_imported_declaration, scope: !11, entity: !318, file: !183, line: 144)
!318 = !DISubprogram(name: "div", linkageName: "_Z3divxx", scope: !308, file: !308, line: 118, type: !319, isLocal: false, isDefinition: false, flags: DIFlagPrototyped, isOptimized: false)
!319 = !DISubroutineType(types: !320)
!320 = !{!198, !118, !118}
!321 = !DIImportedEntity(tag: DW_TAG_imported_declaration, scope: !11, entity: !322, file: !183, line: 145)
!322 = !DISubprogram(name: "ldiv", scope: !186, file: !186, line: 154, type: !323, isLocal: false, isDefinition: false, flags: DIFlagPrototyped, isOptimized: false)
!323 = !DISubroutineType(types: !324)
!324 = !{!192, !14, !14}
!325 = !DIImportedEntity(tag: DW_TAG_imported_declaration, scope: !11, entity: !326, file: !183, line: 147)
!326 = !DISubprogram(name: "lldiv", scope: !186, file: !186, line: 158, type: !319, isLocal: false, isDefinition: false, flags: DIFlagPrototyped, isOptimized: false)
!327 = !DIImportedEntity(tag: DW_TAG_imported_declaration, scope: !11, entity: !328, file: !183, line: 149)
!328 = !DISubprogram(name: "mblen", scope: !186, file: !186, line: 161, type: !329, isLocal: false, isDefinition: false, flags: DIFlagPrototyped, isOptimized: false)
!329 = !DISubroutineType(types: !330)
!330 = !{!55, !41, !17}
!331 = !DIImportedEntity(tag: DW_TAG_imported_declaration, scope: !11, entity: !332, file: !183, line: 150)
!332 = !DISubprogram(name: "mbtowc", scope: !186, file: !186, line: 163, type: !333, isLocal: false, isDefinition: false, flags: DIFlagPrototyped, isOptimized: false)
!333 = !DISubroutineType(types: !334)
!334 = !{!55, !335, !41, !17}
!335 = !DIDerivedType(tag: DW_TAG_pointer_type, baseType: !336, size: 64)
!336 = !DIBasicType(name: "wchar_t", size: 32, encoding: DW_ATE_signed)
!337 = !DIImportedEntity(tag: DW_TAG_imported_declaration, scope: !11, entity: !338, file: !183, line: 151)
!338 = !DISubprogram(name: "wctomb", scope: !186, file: !186, line: 200, type: !339, isLocal: false, isDefinition: false, flags: DIFlagPrototyped, isOptimized: false)
!339 = !DISubroutineType(types: !340)
!340 = !{!55, !39, !336}
!341 = !DIImportedEntity(tag: DW_TAG_imported_declaration, scope: !11, entity: !342, file: !183, line: 152)
!342 = !DISubprogram(name: "mbstowcs", scope: !186, file: !186, line: 162, type: !343, isLocal: false, isDefinition: false, flags: DIFlagPrototyped, isOptimized: false)
!343 = !DISubroutineType(types: !344)
!344 = !{!17, !335, !41, !17}
!345 = !DIImportedEntity(tag: DW_TAG_imported_declaration, scope: !11, entity: !346, file: !183, line: 153)
!346 = !DISubprogram(name: "wcstombs", scope: !186, file: !186, line: 199, type: !347, isLocal: false, isDefinition: false, flags: DIFlagPrototyped, isOptimized: false)
!347 = !DISubroutineType(types: !348)
!348 = !{!17, !39, !349, !17}
!349 = !DIDerivedType(tag: DW_TAG_pointer_type, baseType: !350, size: 64)
!350 = !DIDerivedType(tag: DW_TAG_const_type, baseType: !336)
!351 = !DIImportedEntity(tag: DW_TAG_imported_declaration, scope: !11, entity: !352, file: !405, line: 108)
!352 = !DIDerivedType(tag: DW_TAG_typedef, name: "FILE", file: !353, line: 157, baseType: !354)
!353 = !DIFile(filename: "/Applications/Xcode.app/Contents/Developer/Platforms/MacOSX.platform/Developer/SDKs/MacOSX10.13.sdk/usr/include/_stdio.h", directory: "/Users/ejiang/Projects/lls/ac/llfiles")
!354 = distinct !DICompositeType(tag: DW_TAG_structure_type, name: "__sFILE", file: !353, line: 126, size: 1216, elements: !355, identifier: "_ZTS7__sFILE")
!355 = !{!356, !358, !359, !360, !361, !362, !367, !368, !369, !373, !377, !385, !389, !390, !393, !394, !398, !402, !403, !404}
!356 = !DIDerivedType(tag: DW_TAG_member, name: "_p", scope: !354, file: !353, line: 127, baseType: !357, size: 64)
!357 = !DIDerivedType(tag: DW_TAG_pointer_type, baseType: !122, size: 64)
!358 = !DIDerivedType(tag: DW_TAG_member, name: "_r", scope: !354, file: !353, line: 128, baseType: !55, size: 32, offset: 64)
!359 = !DIDerivedType(tag: DW_TAG_member, name: "_w", scope: !354, file: !353, line: 129, baseType: !55, size: 32, offset: 96)
!360 = !DIDerivedType(tag: DW_TAG_member, name: "_flags", scope: !354, file: !353, line: 130, baseType: !111, size: 16, offset: 128)
!361 = !DIDerivedType(tag: DW_TAG_member, name: "_file", scope: !354, file: !353, line: 131, baseType: !111, size: 16, offset: 144)
!362 = !DIDerivedType(tag: DW_TAG_member, name: "_bf", scope: !354, file: !353, line: 132, baseType: !363, size: 128, offset: 192)
!363 = distinct !DICompositeType(tag: DW_TAG_structure_type, name: "__sbuf", file: !353, line: 92, size: 128, elements: !364, identifier: "_ZTS6__sbuf")
!364 = !{!365, !366}
!365 = !DIDerivedType(tag: DW_TAG_member, name: "_base", scope: !363, file: !353, line: 93, baseType: !357, size: 64)
!366 = !DIDerivedType(tag: DW_TAG_member, name: "_size", scope: !363, file: !353, line: 94, baseType: !55, size: 32, offset: 64)
!367 = !DIDerivedType(tag: DW_TAG_member, name: "_lbfsize", scope: !354, file: !353, line: 133, baseType: !55, size: 32, offset: 320)
!368 = !DIDerivedType(tag: DW_TAG_member, name: "_cookie", scope: !354, file: !353, line: 136, baseType: !30, size: 64, offset: 384)
!369 = !DIDerivedType(tag: DW_TAG_member, name: "_close", scope: !354, file: !353, line: 137, baseType: !370, size: 64, offset: 448)
!370 = !DIDerivedType(tag: DW_TAG_pointer_type, baseType: !371, size: 64)
!371 = !DISubroutineType(types: !372)
!372 = !{!55, !30}
!373 = !DIDerivedType(tag: DW_TAG_member, name: "_read", scope: !354, file: !353, line: 138, baseType: !374, size: 64, offset: 512)
!374 = !DIDerivedType(tag: DW_TAG_pointer_type, baseType: !375, size: 64)
!375 = !DISubroutineType(types: !376)
!376 = !{!55, !30, !39, !55}
!377 = !DIDerivedType(tag: DW_TAG_member, name: "_seek", scope: !354, file: !353, line: 139, baseType: !378, size: 64, offset: 576)
!378 = !DIDerivedType(tag: DW_TAG_pointer_type, baseType: !379, size: 64)
!379 = !DISubroutineType(types: !380)
!380 = !{!381, !30, !381, !55}
!381 = !DIDerivedType(tag: DW_TAG_typedef, name: "fpos_t", file: !353, line: 81, baseType: !382)
!382 = !DIDerivedType(tag: DW_TAG_typedef, name: "__darwin_off_t", file: !383, line: 71, baseType: !384)
!383 = !DIFile(filename: "/Applications/Xcode.app/Contents/Developer/Platforms/MacOSX.platform/Developer/SDKs/MacOSX10.13.sdk/usr/include/sys/_types.h", directory: "/Users/ejiang/Projects/lls/ac/llfiles")
!384 = !DIDerivedType(tag: DW_TAG_typedef, name: "__int64_t", file: !172, line: 46, baseType: !118)
!385 = !DIDerivedType(tag: DW_TAG_member, name: "_write", scope: !354, file: !353, line: 140, baseType: !386, size: 64, offset: 640)
!386 = !DIDerivedType(tag: DW_TAG_pointer_type, baseType: !387, size: 64)
!387 = !DISubroutineType(types: !388)
!388 = !{!55, !30, !41, !55}
!389 = !DIDerivedType(tag: DW_TAG_member, name: "_ub", scope: !354, file: !353, line: 143, baseType: !363, size: 128, offset: 704)
!390 = !DIDerivedType(tag: DW_TAG_member, name: "_extra", scope: !354, file: !353, line: 144, baseType: !391, size: 64, offset: 832)
!391 = !DIDerivedType(tag: DW_TAG_pointer_type, baseType: !392, size: 64)
!392 = !DICompositeType(tag: DW_TAG_structure_type, name: "__sFILEX", file: !353, line: 98, flags: DIFlagFwdDecl, identifier: "_ZTS8__sFILEX")
!393 = !DIDerivedType(tag: DW_TAG_member, name: "_ur", scope: !354, file: !353, line: 145, baseType: !55, size: 32, offset: 896)
!394 = !DIDerivedType(tag: DW_TAG_member, name: "_ubuf", scope: !354, file: !353, line: 148, baseType: !395, size: 24, offset: 928)
!395 = !DICompositeType(tag: DW_TAG_array_type, baseType: !122, size: 24, elements: !396)
!396 = !{!397}
!397 = !DISubrange(count: 3)
!398 = !DIDerivedType(tag: DW_TAG_member, name: "_nbuf", scope: !354, file: !353, line: 149, baseType: !399, size: 8, offset: 952)
!399 = !DICompositeType(tag: DW_TAG_array_type, baseType: !122, size: 8, elements: !400)
!400 = !{!401}
!401 = !DISubrange(count: 1)
!402 = !DIDerivedType(tag: DW_TAG_member, name: "_lb", scope: !354, file: !353, line: 152, baseType: !363, size: 128, offset: 960)
!403 = !DIDerivedType(tag: DW_TAG_member, name: "_blksize", scope: !354, file: !353, line: 155, baseType: !55, size: 32, offset: 1088)
!404 = !DIDerivedType(tag: DW_TAG_member, name: "_offset", scope: !354, file: !353, line: 156, baseType: !381, size: 64, offset: 1152)
!405 = !DIFile(filename: "/Applications/Xcode.app/Contents/Developer/Toolchains/XcodeDefault.xctoolchain/usr/include/c++/v1/cstdio", directory: "/Users/ejiang/Projects/lls/ac/llfiles")
!406 = !DIImportedEntity(tag: DW_TAG_imported_declaration, scope: !11, entity: !381, file: !405, line: 109)
!407 = !DIImportedEntity(tag: DW_TAG_imported_declaration, scope: !11, entity: !17, file: !405, line: 110)
!408 = !DIImportedEntity(tag: DW_TAG_imported_declaration, scope: !11, entity: !409, file: !405, line: 112)
!409 = !DISubprogram(name: "fclose", scope: !410, file: !410, line: 143, type: !411, isLocal: false, isDefinition: false, flags: DIFlagPrototyped, isOptimized: false)
!410 = !DIFile(filename: "/Applications/Xcode.app/Contents/Developer/Platforms/MacOSX.platform/Developer/SDKs/MacOSX10.13.sdk/usr/include/stdio.h", directory: "/Users/ejiang/Projects/lls/ac/llfiles")
!411 = !DISubroutineType(types: !412)
!412 = !{!55, !413}
!413 = !DIDerivedType(tag: DW_TAG_pointer_type, baseType: !352, size: 64)
!414 = !DIImportedEntity(tag: DW_TAG_imported_declaration, scope: !11, entity: !415, file: !405, line: 113)
!415 = !DISubprogram(name: "fflush", scope: !410, file: !410, line: 146, type: !411, isLocal: false, isDefinition: false, flags: DIFlagPrototyped, isOptimized: false)
!416 = !DIImportedEntity(tag: DW_TAG_imported_declaration, scope: !11, entity: !417, file: !405, line: 114)
!417 = !DISubprogram(name: "setbuf", scope: !410, file: !410, line: 178, type: !418, isLocal: false, isDefinition: false, flags: DIFlagPrototyped, isOptimized: false)
!418 = !DISubroutineType(types: !419)
!419 = !{null, !413, !39}
!420 = !DIImportedEntity(tag: DW_TAG_imported_declaration, scope: !11, entity: !421, file: !405, line: 115)
!421 = !DISubprogram(name: "setvbuf", scope: !410, file: !410, line: 179, type: !422, isLocal: false, isDefinition: false, flags: DIFlagPrototyped, isOptimized: false)
!422 = !DISubroutineType(types: !423)
!423 = !{!55, !413, !39, !55, !17}
!424 = !DIImportedEntity(tag: DW_TAG_imported_declaration, scope: !11, entity: !425, file: !405, line: 116)
!425 = !DISubprogram(name: "fprintf", scope: !410, file: !410, line: 155, type: !426, isLocal: false, isDefinition: false, flags: DIFlagPrototyped, isOptimized: false)
!426 = !DISubroutineType(types: !427)
!427 = !{!55, !413, !41, null}
!428 = !DIImportedEntity(tag: DW_TAG_imported_declaration, scope: !11, entity: !429, file: !405, line: 117)
!429 = !DISubprogram(name: "fscanf", scope: !410, file: !410, line: 161, type: !426, isLocal: false, isDefinition: false, flags: DIFlagPrototyped, isOptimized: false)
!430 = !DIImportedEntity(tag: DW_TAG_imported_declaration, scope: !11, entity: !431, file: !405, line: 118)
!431 = !DISubprogram(name: "snprintf", scope: !410, file: !410, line: 338, type: !432, isLocal: false, isDefinition: false, flags: DIFlagPrototyped, isOptimized: false)
!432 = !DISubroutineType(types: !433)
!433 = !{!55, !39, !17, !41, null}
!434 = !DIImportedEntity(tag: DW_TAG_imported_declaration, scope: !11, entity: !435, file: !405, line: 119)
!435 = !DISubprogram(name: "sprintf", scope: !410, file: !410, line: 180, type: !436, isLocal: false, isDefinition: false, flags: DIFlagPrototyped, isOptimized: false)
!436 = !DISubroutineType(types: !437)
!437 = !{!55, !39, !41, null}
!438 = !DIImportedEntity(tag: DW_TAG_imported_declaration, scope: !11, entity: !439, file: !405, line: 120)
!439 = !DISubprogram(name: "sscanf", scope: !410, file: !410, line: 181, type: !440, isLocal: false, isDefinition: false, flags: DIFlagPrototyped, isOptimized: false)
!440 = !DISubroutineType(types: !441)
!441 = !{!55, !41, !41, null}
!442 = !DIImportedEntity(tag: DW_TAG_imported_declaration, scope: !11, entity: !443, file: !405, line: 121)
!443 = !DISubprogram(name: "vfprintf", scope: !410, file: !410, line: 190, type: !444, isLocal: false, isDefinition: false, flags: DIFlagPrototyped, isOptimized: false)
!444 = !DISubroutineType(types: !445)
!445 = !{!55, !413, !41, !446}
!446 = !DIDerivedType(tag: DW_TAG_pointer_type, baseType: !447, size: 64)
!447 = distinct !DICompositeType(tag: DW_TAG_structure_type, name: "__va_list_tag", file: !1, size: 192, elements: !448, identifier: "_ZTS13__va_list_tag")
!448 = !{!449, !450, !451, !452}
!449 = !DIDerivedType(tag: DW_TAG_member, name: "gp_offset", scope: !447, file: !1, baseType: !130, size: 32)
!450 = !DIDerivedType(tag: DW_TAG_member, name: "fp_offset", scope: !447, file: !1, baseType: !130, size: 32, offset: 32)
!451 = !DIDerivedType(tag: DW_TAG_member, name: "overflow_arg_area", scope: !447, file: !1, baseType: !30, size: 64, offset: 64)
!452 = !DIDerivedType(tag: DW_TAG_member, name: "reg_save_area", scope: !447, file: !1, baseType: !30, size: 64, offset: 128)
!453 = !DIImportedEntity(tag: DW_TAG_imported_declaration, scope: !11, entity: !454, file: !405, line: 122)
!454 = !DISubprogram(name: "vfscanf", scope: !410, file: !410, line: 339, type: !444, isLocal: false, isDefinition: false, flags: DIFlagPrototyped, isOptimized: false)
!455 = !DIImportedEntity(tag: DW_TAG_imported_declaration, scope: !11, entity: !456, file: !405, line: 123)
!456 = !DISubprogram(name: "vsscanf", scope: !410, file: !410, line: 342, type: !457, isLocal: false, isDefinition: false, flags: DIFlagPrototyped, isOptimized: false)
!457 = !DISubroutineType(types: !458)
!458 = !{!55, !41, !41, !446}
!459 = !DIImportedEntity(tag: DW_TAG_imported_declaration, scope: !11, entity: !460, file: !405, line: 124)
!460 = !DISubprogram(name: "vsnprintf", scope: !410, file: !410, line: 341, type: !461, isLocal: false, isDefinition: false, flags: DIFlagPrototyped, isOptimized: false)
!461 = !DISubroutineType(types: !462)
!462 = !{!55, !39, !17, !41, !446}
!463 = !DIImportedEntity(tag: DW_TAG_imported_declaration, scope: !11, entity: !464, file: !405, line: 125)
!464 = !DISubprogram(name: "vsprintf", scope: !410, file: !410, line: 192, type: !465, isLocal: false, isDefinition: false, flags: DIFlagPrototyped, isOptimized: false)
!465 = !DISubroutineType(types: !466)
!466 = !{!55, !39, !41, !446}
!467 = !DIImportedEntity(tag: DW_TAG_imported_declaration, scope: !11, entity: !468, file: !405, line: 126)
!468 = !DISubprogram(name: "fgetc", scope: !410, file: !410, line: 147, type: !411, isLocal: false, isDefinition: false, flags: DIFlagPrototyped, isOptimized: false)
!469 = !DIImportedEntity(tag: DW_TAG_imported_declaration, scope: !11, entity: !470, file: !405, line: 127)
!470 = !DISubprogram(name: "fgets", scope: !410, file: !410, line: 149, type: !471, isLocal: false, isDefinition: false, flags: DIFlagPrototyped, isOptimized: false)
!471 = !DISubroutineType(types: !472)
!472 = !{!39, !39, !55, !413}
!473 = !DIImportedEntity(tag: DW_TAG_imported_declaration, scope: !11, entity: !474, file: !405, line: 128)
!474 = !DISubprogram(name: "fputc", scope: !410, file: !410, line: 156, type: !475, isLocal: false, isDefinition: false, flags: DIFlagPrototyped, isOptimized: false)
!475 = !DISubroutineType(types: !476)
!476 = !{!55, !55, !413}
!477 = !DIImportedEntity(tag: DW_TAG_imported_declaration, scope: !11, entity: !478, file: !405, line: 129)
!478 = !DISubprogram(name: "fputs", linkageName: "\01_fputs", scope: !410, file: !410, line: 157, type: !479, isLocal: false, isDefinition: false, flags: DIFlagPrototyped, isOptimized: false)
!479 = !DISubroutineType(types: !480)
!480 = !{!55, !41, !413}
!481 = !DIImportedEntity(tag: DW_TAG_imported_declaration, scope: !11, entity: !482, file: !405, line: 130)
!482 = !DISubprogram(name: "getc", scope: !410, file: !410, line: 166, type: !411, isLocal: false, isDefinition: false, flags: DIFlagPrototyped, isOptimized: false)
!483 = !DIImportedEntity(tag: DW_TAG_imported_declaration, scope: !11, entity: !484, file: !405, line: 131)
!484 = !DISubprogram(name: "putc", scope: !410, file: !410, line: 171, type: !475, isLocal: false, isDefinition: false, flags: DIFlagPrototyped, isOptimized: false)
!485 = !DIImportedEntity(tag: DW_TAG_imported_declaration, scope: !11, entity: !486, file: !405, line: 132)
!486 = !DISubprogram(name: "ungetc", scope: !410, file: !410, line: 189, type: !475, isLocal: false, isDefinition: false, flags: DIFlagPrototyped, isOptimized: false)
!487 = !DIImportedEntity(tag: DW_TAG_imported_declaration, scope: !11, entity: !488, file: !405, line: 133)
!488 = !DISubprogram(name: "fread", scope: !410, file: !410, line: 158, type: !489, isLocal: false, isDefinition: false, flags: DIFlagPrototyped, isOptimized: false)
!489 = !DISubroutineType(types: !490)
!490 = !{!17, !30, !17, !17, !413}
!491 = !DIImportedEntity(tag: DW_TAG_imported_declaration, scope: !11, entity: !492, file: !405, line: 134)
!492 = !DISubprogram(name: "fwrite", linkageName: "\01_fwrite", scope: !410, file: !410, line: 165, type: !493, isLocal: false, isDefinition: false, flags: DIFlagPrototyped, isOptimized: false)
!493 = !DISubroutineType(types: !494)
!494 = !{!17, !31, !17, !17, !413}
!495 = !DIImportedEntity(tag: DW_TAG_imported_declaration, scope: !11, entity: !496, file: !405, line: 135)
!496 = !DISubprogram(name: "fgetpos", scope: !410, file: !410, line: 148, type: !497, isLocal: false, isDefinition: false, flags: DIFlagPrototyped, isOptimized: false)
!497 = !DISubroutineType(types: !498)
!498 = !{!55, !413, !499}
!499 = !DIDerivedType(tag: DW_TAG_pointer_type, baseType: !381, size: 64)
!500 = !DIImportedEntity(tag: DW_TAG_imported_declaration, scope: !11, entity: !501, file: !405, line: 136)
!501 = !DISubprogram(name: "fseek", scope: !410, file: !410, line: 162, type: !502, isLocal: false, isDefinition: false, flags: DIFlagPrototyped, isOptimized: false)
!502 = !DISubroutineType(types: !503)
!503 = !{!55, !413, !14, !55}
!504 = !DIImportedEntity(tag: DW_TAG_imported_declaration, scope: !11, entity: !505, file: !405, line: 137)
!505 = !DISubprogram(name: "fsetpos", scope: !410, file: !410, line: 163, type: !506, isLocal: false, isDefinition: false, flags: DIFlagPrototyped, isOptimized: false)
!506 = !DISubroutineType(types: !507)
!507 = !{!55, !413, !508}
!508 = !DIDerivedType(tag: DW_TAG_pointer_type, baseType: !509, size: 64)
!509 = !DIDerivedType(tag: DW_TAG_const_type, baseType: !381)
!510 = !DIImportedEntity(tag: DW_TAG_imported_declaration, scope: !11, entity: !511, file: !405, line: 138)
!511 = !DISubprogram(name: "ftell", scope: !410, file: !410, line: 164, type: !512, isLocal: false, isDefinition: false, flags: DIFlagPrototyped, isOptimized: false)
!512 = !DISubroutineType(types: !513)
!513 = !{!14, !413}
!514 = !DIImportedEntity(tag: DW_TAG_imported_declaration, scope: !11, entity: !515, file: !405, line: 139)
!515 = !DISubprogram(name: "rewind", scope: !410, file: !410, line: 176, type: !516, isLocal: false, isDefinition: false, flags: DIFlagPrototyped, isOptimized: false)
!516 = !DISubroutineType(types: !517)
!517 = !{null, !413}
!518 = !DIImportedEntity(tag: DW_TAG_imported_declaration, scope: !11, entity: !519, file: !405, line: 140)
!519 = !DISubprogram(name: "clearerr", scope: !410, file: !410, line: 142, type: !516, isLocal: false, isDefinition: false, flags: DIFlagPrototyped, isOptimized: false)
!520 = !DIImportedEntity(tag: DW_TAG_imported_declaration, scope: !11, entity: !521, file: !405, line: 141)
!521 = !DISubprogram(name: "feof", scope: !410, file: !410, line: 144, type: !411, isLocal: false, isDefinition: false, flags: DIFlagPrototyped, isOptimized: false)
!522 = !DIImportedEntity(tag: DW_TAG_imported_declaration, scope: !11, entity: !523, file: !405, line: 142)
!523 = !DISubprogram(name: "ferror", scope: !410, file: !410, line: 145, type: !411, isLocal: false, isDefinition: false, flags: DIFlagPrototyped, isOptimized: false)
!524 = !DIImportedEntity(tag: DW_TAG_imported_declaration, scope: !11, entity: !525, file: !405, line: 143)
!525 = !DISubprogram(name: "perror", scope: !410, file: !410, line: 169, type: !526, isLocal: false, isDefinition: false, flags: DIFlagPrototyped, isOptimized: false)
!526 = !DISubroutineType(types: !527)
!527 = !{null, !41}
!528 = !DIImportedEntity(tag: DW_TAG_imported_declaration, scope: !11, entity: !529, file: !405, line: 146)
!529 = !DISubprogram(name: "fopen", linkageName: "\01_fopen", scope: !410, file: !410, line: 153, type: !530, isLocal: false, isDefinition: false, flags: DIFlagPrototyped, isOptimized: false)
!530 = !DISubroutineType(types: !531)
!531 = !{!413, !41, !41}
!532 = !DIImportedEntity(tag: DW_TAG_imported_declaration, scope: !11, entity: !533, file: !405, line: 147)
!533 = !DISubprogram(name: "freopen", linkageName: "\01_freopen", scope: !410, file: !410, line: 159, type: !534, isLocal: false, isDefinition: false, flags: DIFlagPrototyped, isOptimized: false)
!534 = !DISubroutineType(types: !535)
!535 = !{!413, !41, !41, !413}
!536 = !DIImportedEntity(tag: DW_TAG_imported_declaration, scope: !11, entity: !537, file: !405, line: 148)
!537 = !DISubprogram(name: "remove", scope: !410, file: !410, line: 174, type: !210, isLocal: false, isDefinition: false, flags: DIFlagPrototyped, isOptimized: false)
!538 = !DIImportedEntity(tag: DW_TAG_imported_declaration, scope: !11, entity: !539, file: !405, line: 149)
!539 = !DISubprogram(name: "rename", scope: !410, file: !410, line: 175, type: !58, isLocal: false, isDefinition: false, flags: DIFlagPrototyped, isOptimized: false)
!540 = !DIImportedEntity(tag: DW_TAG_imported_declaration, scope: !11, entity: !541, file: !405, line: 150)
!541 = !DISubprogram(name: "tmpfile", scope: !410, file: !410, line: 182, type: !542, isLocal: false, isDefinition: false, flags: DIFlagPrototyped, isOptimized: false)
!542 = !DISubroutineType(types: !543)
!543 = !{!413}
!544 = !DIImportedEntity(tag: DW_TAG_imported_declaration, scope: !11, entity: !545, file: !405, line: 151)
!545 = !DISubprogram(name: "tmpnam", scope: !410, file: !410, line: 188, type: !546, isLocal: false, isDefinition: false, flags: DIFlagPrototyped, isOptimized: false)
!546 = !DISubroutineType(types: !547)
!547 = !{!39, !39}
!548 = !DIImportedEntity(tag: DW_TAG_imported_declaration, scope: !11, entity: !549, file: !405, line: 155)
!549 = !DISubprogram(name: "getchar", scope: !410, file: !410, line: 167, type: !252, isLocal: false, isDefinition: false, flags: DIFlagPrototyped, isOptimized: false)
!550 = !DIImportedEntity(tag: DW_TAG_imported_declaration, scope: !11, entity: !551, file: !405, line: 157)
!551 = !DISubprogram(name: "gets", scope: !410, file: !410, line: 168, type: !546, isLocal: false, isDefinition: false, flags: DIFlagPrototyped, isOptimized: false)
!552 = !DIImportedEntity(tag: DW_TAG_imported_declaration, scope: !11, entity: !553, file: !405, line: 159)
!553 = !DISubprogram(name: "scanf", scope: !410, file: !410, line: 177, type: !554, isLocal: false, isDefinition: false, flags: DIFlagPrototyped, isOptimized: false)
!554 = !DISubroutineType(types: !555)
!555 = !{!55, !41, null}
!556 = !DIImportedEntity(tag: DW_TAG_imported_declaration, scope: !11, entity: !557, file: !405, line: 160)
!557 = !DISubprogram(name: "vscanf", scope: !410, file: !410, line: 340, type: !558, isLocal: false, isDefinition: false, flags: DIFlagPrototyped, isOptimized: false)
!558 = !DISubroutineType(types: !559)
!559 = !{!55, !41, !446}
!560 = !DIImportedEntity(tag: DW_TAG_imported_declaration, scope: !11, entity: !561, file: !405, line: 164)
!561 = !DISubprogram(name: "printf", scope: !410, file: !410, line: 170, type: !554, isLocal: false, isDefinition: false, flags: DIFlagPrototyped, isOptimized: false)
!562 = !DIImportedEntity(tag: DW_TAG_imported_declaration, scope: !11, entity: !563, file: !405, line: 165)
!563 = !DISubprogram(name: "putchar", scope: !410, file: !410, line: 172, type: !564, isLocal: false, isDefinition: false, flags: DIFlagPrototyped, isOptimized: false)
!564 = !DISubroutineType(types: !565)
!565 = !{!55, !55}
!566 = !DIImportedEntity(tag: DW_TAG_imported_declaration, scope: !11, entity: !567, file: !405, line: 166)
!567 = !DISubprogram(name: "puts", scope: !410, file: !410, line: 173, type: !210, isLocal: false, isDefinition: false, flags: DIFlagPrototyped, isOptimized: false)
!568 = !DIImportedEntity(tag: DW_TAG_imported_declaration, scope: !11, entity: !569, file: !405, line: 167)
!569 = !DISubprogram(name: "vprintf", scope: !410, file: !410, line: 191, type: !558, isLocal: false, isDefinition: false, flags: DIFlagPrototyped, isOptimized: false)
!570 = !DIImportedEntity(tag: DW_TAG_imported_declaration, scope: !11, entity: !571, file: !573, line: 104)
!571 = !DISubprogram(name: "isalnum", linkageName: "_Z7isalnumi", scope: !572, file: !572, line: 212, type: !564, isLocal: false, isDefinition: false, flags: DIFlagPrototyped, isOptimized: false)
!572 = !DIFile(filename: "/Applications/Xcode.app/Contents/Developer/Platforms/MacOSX.platform/Developer/SDKs/MacOSX10.13.sdk/usr/include/_ctype.h", directory: "/Users/ejiang/Projects/lls/ac/llfiles")
!573 = !DIFile(filename: "/Applications/Xcode.app/Contents/Developer/Toolchains/XcodeDefault.xctoolchain/usr/include/c++/v1/cctype", directory: "/Users/ejiang/Projects/lls/ac/llfiles")
!574 = !DIImportedEntity(tag: DW_TAG_imported_declaration, scope: !11, entity: !575, file: !573, line: 105)
!575 = !DISubprogram(name: "isalpha", linkageName: "_Z7isalphai", scope: !572, file: !572, line: 218, type: !564, isLocal: false, isDefinition: false, flags: DIFlagPrototyped, isOptimized: false)
!576 = !DIImportedEntity(tag: DW_TAG_imported_declaration, scope: !11, entity: !577, file: !573, line: 106)
!577 = !DISubprogram(name: "isblank", linkageName: "_Z7isblanki", scope: !572, file: !572, line: 224, type: !564, isLocal: false, isDefinition: false, flags: DIFlagPrototyped, isOptimized: false)
!578 = !DIImportedEntity(tag: DW_TAG_imported_declaration, scope: !11, entity: !579, file: !573, line: 107)
!579 = !DISubprogram(name: "iscntrl", linkageName: "_Z7iscntrli", scope: !572, file: !572, line: 230, type: !564, isLocal: false, isDefinition: false, flags: DIFlagPrototyped, isOptimized: false)
!580 = !DIImportedEntity(tag: DW_TAG_imported_declaration, scope: !11, entity: !581, file: !573, line: 108)
!581 = !DISubprogram(name: "isdigit", linkageName: "_Z7isdigiti", scope: !572, file: !572, line: 237, type: !564, isLocal: false, isDefinition: false, flags: DIFlagPrototyped, isOptimized: false)
!582 = !DIImportedEntity(tag: DW_TAG_imported_declaration, scope: !11, entity: !583, file: !573, line: 109)
!583 = !DISubprogram(name: "isgraph", linkageName: "_Z7isgraphi", scope: !572, file: !572, line: 243, type: !564, isLocal: false, isDefinition: false, flags: DIFlagPrototyped, isOptimized: false)
!584 = !DIImportedEntity(tag: DW_TAG_imported_declaration, scope: !11, entity: !585, file: !573, line: 110)
!585 = !DISubprogram(name: "islower", linkageName: "_Z7isloweri", scope: !572, file: !572, line: 249, type: !564, isLocal: false, isDefinition: false, flags: DIFlagPrototyped, isOptimized: false)
!586 = !DIImportedEntity(tag: DW_TAG_imported_declaration, scope: !11, entity: !587, file: !573, line: 111)
!587 = !DISubprogram(name: "isprint", linkageName: "_Z7isprinti", scope: !572, file: !572, line: 255, type: !564, isLocal: false, isDefinition: false, flags: DIFlagPrototyped, isOptimized: false)
!588 = !DIImportedEntity(tag: DW_TAG_imported_declaration, scope: !11, entity: !589, file: !573, line: 112)
!589 = !DISubprogram(name: "ispunct", linkageName: "_Z7ispuncti", scope: !572, file: !572, line: 261, type: !564, isLocal: false, isDefinition: false, flags: DIFlagPrototyped, isOptimized: false)
!590 = !DIImportedEntity(tag: DW_TAG_imported_declaration, scope: !11, entity: !591, file: !573, line: 113)
!591 = !DISubprogram(name: "isspace", linkageName: "_Z7isspacei", scope: !572, file: !572, line: 267, type: !564, isLocal: false, isDefinition: false, flags: DIFlagPrototyped, isOptimized: false)
!592 = !DIImportedEntity(tag: DW_TAG_imported_declaration, scope: !11, entity: !593, file: !573, line: 114)
!593 = !DISubprogram(name: "isupper", linkageName: "_Z7isupperi", scope: !572, file: !572, line: 273, type: !564, isLocal: false, isDefinition: false, flags: DIFlagPrototyped, isOptimized: false)
!594 = !DIImportedEntity(tag: DW_TAG_imported_declaration, scope: !11, entity: !595, file: !573, line: 115)
!595 = !DISubprogram(name: "isxdigit", linkageName: "_Z8isxdigiti", scope: !572, file: !572, line: 280, type: !564, isLocal: false, isDefinition: false, flags: DIFlagPrototyped, isOptimized: false)
!596 = !DIImportedEntity(tag: DW_TAG_imported_declaration, scope: !11, entity: !597, file: !573, line: 116)
!597 = !DISubprogram(name: "tolower", linkageName: "_Z7toloweri", scope: !572, file: !572, line: 292, type: !564, isLocal: false, isDefinition: false, flags: DIFlagPrototyped, isOptimized: false)
!598 = !DIImportedEntity(tag: DW_TAG_imported_declaration, scope: !11, entity: !599, file: !573, line: 117)
!599 = !DISubprogram(name: "toupper", linkageName: "_Z7toupperi", scope: !572, file: !572, line: 298, type: !564, isLocal: false, isDefinition: false, flags: DIFlagPrototyped, isOptimized: false)
!600 = !DIImportedEntity(tag: DW_TAG_imported_declaration, scope: !11, entity: !601, file: !604, line: 63)
!601 = !DIDerivedType(tag: DW_TAG_typedef, name: "wint_t", file: !602, line: 32, baseType: !603)
!602 = !DIFile(filename: "/Applications/Xcode.app/Contents/Developer/Platforms/MacOSX.platform/Developer/SDKs/MacOSX10.13.sdk/usr/include/sys/_types/_wint_t.h", directory: "/Users/ejiang/Projects/lls/ac/llfiles")
!603 = !DIDerivedType(tag: DW_TAG_typedef, name: "__darwin_wint_t", file: !172, line: 112, baseType: !55)
!604 = !DIFile(filename: "/Applications/Xcode.app/Contents/Developer/Toolchains/XcodeDefault.xctoolchain/usr/include/c++/v1/cwctype", directory: "/Users/ejiang/Projects/lls/ac/llfiles")
!605 = !DIImportedEntity(tag: DW_TAG_imported_declaration, scope: !11, entity: !606, file: !604, line: 64)
!606 = !DIDerivedType(tag: DW_TAG_typedef, name: "wctrans_t", file: !607, line: 32, baseType: !608)
!607 = !DIFile(filename: "/Applications/Xcode.app/Contents/Developer/Platforms/MacOSX.platform/Developer/SDKs/MacOSX10.13.sdk/usr/include/_types/_wctrans_t.h", directory: "/Users/ejiang/Projects/lls/ac/llfiles")
!608 = !DIDerivedType(tag: DW_TAG_typedef, name: "__darwin_wctrans_t", file: !609, line: 41, baseType: !55)
!609 = !DIFile(filename: "/Applications/Xcode.app/Contents/Developer/Platforms/MacOSX.platform/Developer/SDKs/MacOSX10.13.sdk/usr/include/_types.h", directory: "/Users/ejiang/Projects/lls/ac/llfiles")
!610 = !DIImportedEntity(tag: DW_TAG_imported_declaration, scope: !11, entity: !611, file: !604, line: 65)
!611 = !DIDerivedType(tag: DW_TAG_typedef, name: "wctype_t", file: !612, line: 32, baseType: !613)
!612 = !DIFile(filename: "/Applications/Xcode.app/Contents/Developer/Platforms/MacOSX.platform/Developer/SDKs/MacOSX10.13.sdk/usr/include/_types/_wctype_t.h", directory: "/Users/ejiang/Projects/lls/ac/llfiles")
!613 = !DIDerivedType(tag: DW_TAG_typedef, name: "__darwin_wctype_t", file: !609, line: 43, baseType: !614)
!614 = !DIDerivedType(tag: DW_TAG_typedef, name: "__uint32_t", file: !172, line: 45, baseType: !130)
!615 = !DIImportedEntity(tag: DW_TAG_imported_declaration, scope: !11, entity: !616, file: !604, line: 66)
!616 = !DISubprogram(name: "iswalnum", linkageName: "_Z8iswalnumi", scope: !617, file: !617, line: 51, type: !618, isLocal: false, isDefinition: false, flags: DIFlagPrototyped, isOptimized: false)
!617 = !DIFile(filename: "/Applications/Xcode.app/Contents/Developer/Platforms/MacOSX.platform/Developer/SDKs/MacOSX10.13.sdk/usr/include/_wctype.h", directory: "/Users/ejiang/Projects/lls/ac/llfiles")
!618 = !DISubroutineType(types: !619)
!619 = !{!55, !601}
!620 = !DIImportedEntity(tag: DW_TAG_imported_declaration, scope: !11, entity: !621, file: !604, line: 67)
!621 = !DISubprogram(name: "iswalpha", linkageName: "_Z8iswalphai", scope: !617, file: !617, line: 57, type: !618, isLocal: false, isDefinition: false, flags: DIFlagPrototyped, isOptimized: false)
!622 = !DIImportedEntity(tag: DW_TAG_imported_declaration, scope: !11, entity: !623, file: !604, line: 68)
!623 = !DISubprogram(name: "iswblank", linkageName: "_Z8iswblanki", scope: !624, file: !624, line: 50, type: !618, isLocal: false, isDefinition: false, flags: DIFlagPrototyped, isOptimized: false)
!624 = !DIFile(filename: "/Applications/Xcode.app/Contents/Developer/Platforms/MacOSX.platform/Developer/SDKs/MacOSX10.13.sdk/usr/include/wctype.h", directory: "/Users/ejiang/Projects/lls/ac/llfiles")
!625 = !DIImportedEntity(tag: DW_TAG_imported_declaration, scope: !11, entity: !626, file: !604, line: 69)
!626 = !DISubprogram(name: "iswcntrl", linkageName: "_Z8iswcntrli", scope: !617, file: !617, line: 63, type: !618, isLocal: false, isDefinition: false, flags: DIFlagPrototyped, isOptimized: false)
!627 = !DIImportedEntity(tag: DW_TAG_imported_declaration, scope: !11, entity: !628, file: !604, line: 70)
!628 = !DISubprogram(name: "iswdigit", linkageName: "_Z8iswdigiti", scope: !617, file: !617, line: 75, type: !618, isLocal: false, isDefinition: false, flags: DIFlagPrototyped, isOptimized: false)
!629 = !DIImportedEntity(tag: DW_TAG_imported_declaration, scope: !11, entity: !630, file: !604, line: 71)
!630 = !DISubprogram(name: "iswgraph", linkageName: "_Z8iswgraphi", scope: !617, file: !617, line: 81, type: !618, isLocal: false, isDefinition: false, flags: DIFlagPrototyped, isOptimized: false)
!631 = !DIImportedEntity(tag: DW_TAG_imported_declaration, scope: !11, entity: !632, file: !604, line: 72)
!632 = !DISubprogram(name: "iswlower", linkageName: "_Z8iswloweri", scope: !617, file: !617, line: 87, type: !618, isLocal: false, isDefinition: false, flags: DIFlagPrototyped, isOptimized: false)
!633 = !DIImportedEntity(tag: DW_TAG_imported_declaration, scope: !11, entity: !634, file: !604, line: 73)
!634 = !DISubprogram(name: "iswprint", linkageName: "_Z8iswprinti", scope: !617, file: !617, line: 93, type: !618, isLocal: false, isDefinition: false, flags: DIFlagPrototyped, isOptimized: false)
!635 = !DIImportedEntity(tag: DW_TAG_imported_declaration, scope: !11, entity: !636, file: !604, line: 74)
!636 = !DISubprogram(name: "iswpunct", linkageName: "_Z8iswpuncti", scope: !617, file: !617, line: 99, type: !618, isLocal: false, isDefinition: false, flags: DIFlagPrototyped, isOptimized: false)
!637 = !DIImportedEntity(tag: DW_TAG_imported_declaration, scope: !11, entity: !638, file: !604, line: 75)
!638 = !DISubprogram(name: "iswspace", linkageName: "_Z8iswspacei", scope: !617, file: !617, line: 105, type: !618, isLocal: false, isDefinition: false, flags: DIFlagPrototyped, isOptimized: false)
!639 = !DIImportedEntity(tag: DW_TAG_imported_declaration, scope: !11, entity: !640, file: !604, line: 76)
!640 = !DISubprogram(name: "iswupper", linkageName: "_Z8iswupperi", scope: !617, file: !617, line: 111, type: !618, isLocal: false, isDefinition: false, flags: DIFlagPrototyped, isOptimized: false)
!641 = !DIImportedEntity(tag: DW_TAG_imported_declaration, scope: !11, entity: !642, file: !604, line: 77)
!642 = !DISubprogram(name: "iswxdigit", linkageName: "_Z9iswxdigiti", scope: !617, file: !617, line: 117, type: !618, isLocal: false, isDefinition: false, flags: DIFlagPrototyped, isOptimized: false)
!643 = !DIImportedEntity(tag: DW_TAG_imported_declaration, scope: !11, entity: !644, file: !604, line: 78)
!644 = !DISubprogram(name: "iswctype", linkageName: "_Z8iswctypeij", scope: !617, file: !617, line: 69, type: !645, isLocal: false, isDefinition: false, flags: DIFlagPrototyped, isOptimized: false)
!645 = !DISubroutineType(types: !646)
!646 = !{!55, !601, !611}
!647 = !DIImportedEntity(tag: DW_TAG_imported_declaration, scope: !11, entity: !648, file: !604, line: 79)
!648 = !DISubprogram(name: "wctype", scope: !617, file: !617, line: 157, type: !649, isLocal: false, isDefinition: false, flags: DIFlagPrototyped, isOptimized: false)
!649 = !DISubroutineType(types: !650)
!650 = !{!611, !41}
!651 = !DIImportedEntity(tag: DW_TAG_imported_declaration, scope: !11, entity: !652, file: !604, line: 80)
!652 = !DISubprogram(name: "towlower", linkageName: "_Z8towloweri", scope: !617, file: !617, line: 123, type: !653, isLocal: false, isDefinition: false, flags: DIFlagPrototyped, isOptimized: false)
!653 = !DISubroutineType(types: !654)
!654 = !{!601, !601}
!655 = !DIImportedEntity(tag: DW_TAG_imported_declaration, scope: !11, entity: !656, file: !604, line: 81)
!656 = !DISubprogram(name: "towupper", linkageName: "_Z8towupperi", scope: !617, file: !617, line: 129, type: !653, isLocal: false, isDefinition: false, flags: DIFlagPrototyped, isOptimized: false)
!657 = !DIImportedEntity(tag: DW_TAG_imported_declaration, scope: !11, entity: !658, file: !604, line: 82)
!658 = !DISubprogram(name: "towctrans", scope: !624, file: !624, line: 121, type: !659, isLocal: false, isDefinition: false, flags: DIFlagPrototyped, isOptimized: false)
!659 = !DISubroutineType(types: !660)
!660 = !{!601, !601, !606}
!661 = !DIImportedEntity(tag: DW_TAG_imported_declaration, scope: !11, entity: !662, file: !604, line: 83)
!662 = !DISubprogram(name: "wctrans", scope: !624, file: !624, line: 123, type: !663, isLocal: false, isDefinition: false, flags: DIFlagPrototyped, isOptimized: false)
!663 = !DISubroutineType(types: !664)
!664 = !{!606, !41}
!665 = !DIImportedEntity(tag: DW_TAG_imported_declaration, scope: !11, entity: !666, file: !677, line: 116)
!666 = !DIDerivedType(tag: DW_TAG_typedef, name: "mbstate_t", file: !667, line: 32, baseType: !668)
!667 = !DIFile(filename: "/Applications/Xcode.app/Contents/Developer/Platforms/MacOSX.platform/Developer/SDKs/MacOSX10.13.sdk/usr/include/sys/_types/_mbstate_t.h", directory: "/Users/ejiang/Projects/lls/ac/llfiles")
!668 = !DIDerivedType(tag: DW_TAG_typedef, name: "__darwin_mbstate_t", file: !172, line: 81, baseType: !669)
!669 = !DIDerivedType(tag: DW_TAG_typedef, name: "__mbstate_t", file: !172, line: 79, baseType: !670)
!670 = distinct !DICompositeType(tag: DW_TAG_union_type, file: !172, line: 76, size: 1024, elements: !671, identifier: "_ZTS11__mbstate_t")
!671 = !{!672, !676}
!672 = !DIDerivedType(tag: DW_TAG_member, name: "__mbstate8", scope: !670, file: !172, line: 77, baseType: !673, size: 1024)
!673 = !DICompositeType(tag: DW_TAG_array_type, baseType: !40, size: 1024, elements: !674)
!674 = !{!675}
!675 = !DISubrange(count: 128)
!676 = !DIDerivedType(tag: DW_TAG_member, name: "_mbstateL", scope: !670, file: !172, line: 78, baseType: !118, size: 64)
!677 = !DIFile(filename: "/Applications/Xcode.app/Contents/Developer/Toolchains/XcodeDefault.xctoolchain/usr/include/c++/v1/cwchar", directory: "/Users/ejiang/Projects/lls/ac/llfiles")
!678 = !DIImportedEntity(tag: DW_TAG_imported_declaration, scope: !11, entity: !17, file: !677, line: 117)
!679 = !DIImportedEntity(tag: DW_TAG_imported_declaration, scope: !11, entity: !680, file: !677, line: 118)
!680 = distinct !DICompositeType(tag: DW_TAG_structure_type, name: "tm", file: !681, line: 74, size: 448, elements: !682, identifier: "_ZTS2tm")
!681 = !DIFile(filename: "/Applications/Xcode.app/Contents/Developer/Platforms/MacOSX.platform/Developer/SDKs/MacOSX10.13.sdk/usr/include/time.h", directory: "/Users/ejiang/Projects/lls/ac/llfiles")
!682 = !{!683, !684, !685, !686, !687, !688, !689, !690, !691, !692, !693}
!683 = !DIDerivedType(tag: DW_TAG_member, name: "tm_sec", scope: !680, file: !681, line: 75, baseType: !55, size: 32)
!684 = !DIDerivedType(tag: DW_TAG_member, name: "tm_min", scope: !680, file: !681, line: 76, baseType: !55, size: 32, offset: 32)
!685 = !DIDerivedType(tag: DW_TAG_member, name: "tm_hour", scope: !680, file: !681, line: 77, baseType: !55, size: 32, offset: 64)
!686 = !DIDerivedType(tag: DW_TAG_member, name: "tm_mday", scope: !680, file: !681, line: 78, baseType: !55, size: 32, offset: 96)
!687 = !DIDerivedType(tag: DW_TAG_member, name: "tm_mon", scope: !680, file: !681, line: 79, baseType: !55, size: 32, offset: 128)
!688 = !DIDerivedType(tag: DW_TAG_member, name: "tm_year", scope: !680, file: !681, line: 80, baseType: !55, size: 32, offset: 160)
!689 = !DIDerivedType(tag: DW_TAG_member, name: "tm_wday", scope: !680, file: !681, line: 81, baseType: !55, size: 32, offset: 192)
!690 = !DIDerivedType(tag: DW_TAG_member, name: "tm_yday", scope: !680, file: !681, line: 82, baseType: !55, size: 32, offset: 224)
!691 = !DIDerivedType(tag: DW_TAG_member, name: "tm_isdst", scope: !680, file: !681, line: 83, baseType: !55, size: 32, offset: 256)
!692 = !DIDerivedType(tag: DW_TAG_member, name: "tm_gmtoff", scope: !680, file: !681, line: 84, baseType: !14, size: 64, offset: 320)
!693 = !DIDerivedType(tag: DW_TAG_member, name: "tm_zone", scope: !680, file: !681, line: 85, baseType: !39, size: 64, offset: 384)
!694 = !DIImportedEntity(tag: DW_TAG_imported_declaration, scope: !11, entity: !601, file: !677, line: 119)
!695 = !DIImportedEntity(tag: DW_TAG_imported_declaration, scope: !11, entity: !352, file: !677, line: 120)
!696 = !DIImportedEntity(tag: DW_TAG_imported_declaration, scope: !11, entity: !697, file: !677, line: 121)
!697 = !DISubprogram(name: "fwprintf", scope: !698, file: !698, line: 103, type: !699, isLocal: false, isDefinition: false, flags: DIFlagPrototyped, isOptimized: false)
!698 = !DIFile(filename: "/Applications/Xcode.app/Contents/Developer/Platforms/MacOSX.platform/Developer/SDKs/MacOSX10.13.sdk/usr/include/wchar.h", directory: "/Users/ejiang/Projects/lls/ac/llfiles")
!699 = !DISubroutineType(types: !700)
!700 = !{!55, !413, !349, null}
!701 = !DIImportedEntity(tag: DW_TAG_imported_declaration, scope: !11, entity: !702, file: !677, line: 122)
!702 = !DISubprogram(name: "fwscanf", scope: !698, file: !698, line: 104, type: !699, isLocal: false, isDefinition: false, flags: DIFlagPrototyped, isOptimized: false)
!703 = !DIImportedEntity(tag: DW_TAG_imported_declaration, scope: !11, entity: !704, file: !677, line: 123)
!704 = !DISubprogram(name: "swprintf", scope: !698, file: !698, line: 115, type: !705, isLocal: false, isDefinition: false, flags: DIFlagPrototyped, isOptimized: false)
!705 = !DISubroutineType(types: !706)
!706 = !{!55, !335, !17, !349, null}
!707 = !DIImportedEntity(tag: DW_TAG_imported_declaration, scope: !11, entity: !708, file: !677, line: 124)
!708 = !DISubprogram(name: "vfwprintf", scope: !698, file: !698, line: 118, type: !709, isLocal: false, isDefinition: false, flags: DIFlagPrototyped, isOptimized: false)
!709 = !DISubroutineType(types: !710)
!710 = !{!55, !413, !349, !446}
!711 = !DIImportedEntity(tag: DW_TAG_imported_declaration, scope: !11, entity: !712, file: !677, line: 125)
!712 = !DISubprogram(name: "vswprintf", scope: !698, file: !698, line: 120, type: !713, isLocal: false, isDefinition: false, flags: DIFlagPrototyped, isOptimized: false)
!713 = !DISubroutineType(types: !714)
!714 = !{!55, !335, !17, !349, !446}
!715 = !DIImportedEntity(tag: DW_TAG_imported_declaration, scope: !11, entity: !716, file: !677, line: 126)
!716 = !DISubprogram(name: "swscanf", scope: !698, file: !698, line: 116, type: !717, isLocal: false, isDefinition: false, flags: DIFlagPrototyped, isOptimized: false)
!717 = !DISubroutineType(types: !718)
!718 = !{!55, !349, !349, null}
!719 = !DIImportedEntity(tag: DW_TAG_imported_declaration, scope: !11, entity: !720, file: !677, line: 127)
!720 = !DISubprogram(name: "vfwscanf", scope: !698, file: !698, line: 170, type: !709, isLocal: false, isDefinition: false, flags: DIFlagPrototyped, isOptimized: false)
!721 = !DIImportedEntity(tag: DW_TAG_imported_declaration, scope: !11, entity: !722, file: !677, line: 128)
!722 = !DISubprogram(name: "vswscanf", scope: !698, file: !698, line: 172, type: !723, isLocal: false, isDefinition: false, flags: DIFlagPrototyped, isOptimized: false)
!723 = !DISubroutineType(types: !724)
!724 = !{!55, !349, !349, !446}
!725 = !DIImportedEntity(tag: DW_TAG_imported_declaration, scope: !11, entity: !726, file: !677, line: 129)
!726 = !DISubprogram(name: "fgetwc", scope: !698, file: !698, line: 98, type: !727, isLocal: false, isDefinition: false, flags: DIFlagPrototyped, isOptimized: false)
!727 = !DISubroutineType(types: !728)
!728 = !{!601, !413}
!729 = !DIImportedEntity(tag: DW_TAG_imported_declaration, scope: !11, entity: !730, file: !677, line: 130)
!730 = !DISubprogram(name: "fgetws", scope: !698, file: !698, line: 99, type: !731, isLocal: false, isDefinition: false, flags: DIFlagPrototyped, isOptimized: false)
!731 = !DISubroutineType(types: !732)
!732 = !{!335, !335, !55, !413}
!733 = !DIImportedEntity(tag: DW_TAG_imported_declaration, scope: !11, entity: !734, file: !677, line: 131)
!734 = !DISubprogram(name: "fputwc", scope: !698, file: !698, line: 100, type: !735, isLocal: false, isDefinition: false, flags: DIFlagPrototyped, isOptimized: false)
!735 = !DISubroutineType(types: !736)
!736 = !{!601, !336, !413}
!737 = !DIImportedEntity(tag: DW_TAG_imported_declaration, scope: !11, entity: !738, file: !677, line: 132)
!738 = !DISubprogram(name: "fputws", scope: !698, file: !698, line: 101, type: !739, isLocal: false, isDefinition: false, flags: DIFlagPrototyped, isOptimized: false)
!739 = !DISubroutineType(types: !740)
!740 = !{!55, !349, !413}
!741 = !DIImportedEntity(tag: DW_TAG_imported_declaration, scope: !11, entity: !742, file: !677, line: 133)
!742 = !DISubprogram(name: "fwide", scope: !698, file: !698, line: 102, type: !743, isLocal: false, isDefinition: false, flags: DIFlagPrototyped, isOptimized: false)
!743 = !DISubroutineType(types: !744)
!744 = !{!55, !413, !55}
!745 = !DIImportedEntity(tag: DW_TAG_imported_declaration, scope: !11, entity: !746, file: !677, line: 134)
!746 = !DISubprogram(name: "getwc", scope: !698, file: !698, line: 105, type: !727, isLocal: false, isDefinition: false, flags: DIFlagPrototyped, isOptimized: false)
!747 = !DIImportedEntity(tag: DW_TAG_imported_declaration, scope: !11, entity: !748, file: !677, line: 135)
!748 = !DISubprogram(name: "putwc", scope: !698, file: !698, line: 113, type: !735, isLocal: false, isDefinition: false, flags: DIFlagPrototyped, isOptimized: false)
!749 = !DIImportedEntity(tag: DW_TAG_imported_declaration, scope: !11, entity: !750, file: !677, line: 136)
!750 = !DISubprogram(name: "ungetwc", scope: !698, file: !698, line: 117, type: !751, isLocal: false, isDefinition: false, flags: DIFlagPrototyped, isOptimized: false)
!751 = !DISubroutineType(types: !752)
!752 = !{!601, !601, !413}
!753 = !DIImportedEntity(tag: DW_TAG_imported_declaration, scope: !11, entity: !754, file: !677, line: 137)
!754 = !DISubprogram(name: "wcstod", scope: !698, file: !698, line: 144, type: !755, isLocal: false, isDefinition: false, flags: DIFlagPrototyped, isOptimized: false)
!755 = !DISubroutineType(types: !756)
!756 = !{!207, !349, !757}
!757 = !DIDerivedType(tag: DW_TAG_pointer_type, baseType: !335, size: 64)
!758 = !DIImportedEntity(tag: DW_TAG_imported_declaration, scope: !11, entity: !759, file: !677, line: 138)
!759 = !DISubprogram(name: "wcstof", scope: !698, file: !698, line: 175, type: !760, isLocal: false, isDefinition: false, flags: DIFlagPrototyped, isOptimized: false)
!760 = !DISubroutineType(types: !761)
!761 = !{!229, !349, !757}
!762 = !DIImportedEntity(tag: DW_TAG_imported_declaration, scope: !11, entity: !763, file: !677, line: 139)
!763 = !DISubprogram(name: "wcstold", scope: !698, file: !698, line: 177, type: !764, isLocal: false, isDefinition: false, flags: DIFlagPrototyped, isOptimized: false)
!764 = !DISubroutineType(types: !765)
!765 = !{!22, !349, !757}
!766 = !DIImportedEntity(tag: DW_TAG_imported_declaration, scope: !11, entity: !767, file: !677, line: 140)
!767 = !DISubprogram(name: "wcstol", scope: !698, file: !698, line: 147, type: !768, isLocal: false, isDefinition: false, flags: DIFlagPrototyped, isOptimized: false)
!768 = !DISubroutineType(types: !769)
!769 = !{!14, !349, !757, !55}
!770 = !DIImportedEntity(tag: DW_TAG_imported_declaration, scope: !11, entity: !771, file: !677, line: 142)
!771 = !DISubprogram(name: "wcstoll", scope: !698, file: !698, line: 180, type: !772, isLocal: false, isDefinition: false, flags: DIFlagPrototyped, isOptimized: false)
!772 = !DISubroutineType(types: !773)
!773 = !{!118, !349, !757, !55}
!774 = !DIImportedEntity(tag: DW_TAG_imported_declaration, scope: !11, entity: !775, file: !677, line: 144)
!775 = !DISubprogram(name: "wcstoul", scope: !698, file: !698, line: 149, type: !776, isLocal: false, isDefinition: false, flags: DIFlagPrototyped, isOptimized: false)
!776 = !DISubroutineType(types: !777)
!777 = !{!18, !349, !757, !55}
!778 = !DIImportedEntity(tag: DW_TAG_imported_declaration, scope: !11, entity: !779, file: !677, line: 146)
!779 = !DISubprogram(name: "wcstoull", scope: !698, file: !698, line: 182, type: !780, isLocal: false, isDefinition: false, flags: DIFlagPrototyped, isOptimized: false)
!780 = !DISubroutineType(types: !781)
!781 = !{!134, !349, !757, !55}
!782 = !DIImportedEntity(tag: DW_TAG_imported_declaration, scope: !11, entity: !783, file: !677, line: 148)
!783 = !DISubprogram(name: "wcscpy", scope: !698, file: !698, line: 128, type: !784, isLocal: false, isDefinition: false, flags: DIFlagPrototyped, isOptimized: false)
!784 = !DISubroutineType(types: !785)
!785 = !{!335, !335, !349}
!786 = !DIImportedEntity(tag: DW_TAG_imported_declaration, scope: !11, entity: !787, file: !677, line: 149)
!787 = !DISubprogram(name: "wcsncpy", scope: !698, file: !698, line: 135, type: !788, isLocal: false, isDefinition: false, flags: DIFlagPrototyped, isOptimized: false)
!788 = !DISubroutineType(types: !789)
!789 = !{!335, !335, !349, !17}
!790 = !DIImportedEntity(tag: DW_TAG_imported_declaration, scope: !11, entity: !791, file: !677, line: 150)
!791 = !DISubprogram(name: "wcscat", scope: !698, file: !698, line: 124, type: !784, isLocal: false, isDefinition: false, flags: DIFlagPrototyped, isOptimized: false)
!792 = !DIImportedEntity(tag: DW_TAG_imported_declaration, scope: !11, entity: !793, file: !677, line: 151)
!793 = !DISubprogram(name: "wcsncat", scope: !698, file: !698, line: 133, type: !788, isLocal: false, isDefinition: false, flags: DIFlagPrototyped, isOptimized: false)
!794 = !DIImportedEntity(tag: DW_TAG_imported_declaration, scope: !11, entity: !795, file: !677, line: 152)
!795 = !DISubprogram(name: "wcscmp", scope: !698, file: !698, line: 126, type: !796, isLocal: false, isDefinition: false, flags: DIFlagPrototyped, isOptimized: false)
!796 = !DISubroutineType(types: !797)
!797 = !{!55, !349, !349}
!798 = !DIImportedEntity(tag: DW_TAG_imported_declaration, scope: !11, entity: !799, file: !677, line: 153)
!799 = !DISubprogram(name: "wcscoll", scope: !698, file: !698, line: 127, type: !796, isLocal: false, isDefinition: false, flags: DIFlagPrototyped, isOptimized: false)
!800 = !DIImportedEntity(tag: DW_TAG_imported_declaration, scope: !11, entity: !801, file: !677, line: 154)
!801 = !DISubprogram(name: "wcsncmp", scope: !698, file: !698, line: 134, type: !802, isLocal: false, isDefinition: false, flags: DIFlagPrototyped, isOptimized: false)
!802 = !DISubroutineType(types: !803)
!803 = !{!55, !349, !349, !17}
!804 = !DIImportedEntity(tag: DW_TAG_imported_declaration, scope: !11, entity: !805, file: !677, line: 155)
!805 = !DISubprogram(name: "wcsxfrm", scope: !698, file: !698, line: 142, type: !806, isLocal: false, isDefinition: false, flags: DIFlagPrototyped, isOptimized: false)
!806 = !DISubroutineType(types: !807)
!807 = !{!17, !335, !349, !17}
!808 = !DIImportedEntity(tag: DW_TAG_imported_declaration, scope: !11, entity: !809, file: !677, line: 156)
!809 = !DISubprogram(name: "wcschr", linkageName: "_Z6wcschrUa9enable_ifIXLb1EEEPww", scope: !810, file: !810, line: 137, type: !811, isLocal: false, isDefinition: false, flags: DIFlagPrototyped, isOptimized: false)
!810 = !DIFile(filename: "/Applications/Xcode.app/Contents/Developer/Toolchains/XcodeDefault.xctoolchain/usr/include/c++/v1/wchar.h", directory: "/Users/ejiang/Projects/lls/ac/llfiles")
!811 = !DISubroutineType(types: !812)
!812 = !{!335, !335, !336}
!813 = !DIImportedEntity(tag: DW_TAG_imported_declaration, scope: !11, entity: !814, file: !677, line: 157)
!814 = !DISubprogram(name: "wcspbrk", linkageName: "_Z7wcspbrkUa9enable_ifIXLb1EEEPwPKw", scope: !810, file: !810, line: 144, type: !784, isLocal: false, isDefinition: false, flags: DIFlagPrototyped, isOptimized: false)
!815 = !DIImportedEntity(tag: DW_TAG_imported_declaration, scope: !11, entity: !816, file: !677, line: 158)
!816 = !DISubprogram(name: "wcsrchr", linkageName: "_Z7wcsrchrUa9enable_ifIXLb1EEEPww", scope: !810, file: !810, line: 151, type: !811, isLocal: false, isDefinition: false, flags: DIFlagPrototyped, isOptimized: false)
!817 = !DIImportedEntity(tag: DW_TAG_imported_declaration, scope: !11, entity: !818, file: !677, line: 159)
!818 = !DISubprogram(name: "wcsstr", linkageName: "_Z6wcsstrUa9enable_ifIXLb1EEEPwPKw", scope: !810, file: !810, line: 158, type: !784, isLocal: false, isDefinition: false, flags: DIFlagPrototyped, isOptimized: false)
!819 = !DIImportedEntity(tag: DW_TAG_imported_declaration, scope: !11, entity: !820, file: !677, line: 160)
!820 = !DISubprogram(name: "wmemchr", linkageName: "_Z7wmemchrUa9enable_ifIXLb1EEEPwwm", scope: !810, file: !810, line: 165, type: !821, isLocal: false, isDefinition: false, flags: DIFlagPrototyped, isOptimized: false)
!821 = !DISubroutineType(types: !822)
!822 = !{!335, !335, !336, !17}
!823 = !DIImportedEntity(tag: DW_TAG_imported_declaration, scope: !11, entity: !824, file: !677, line: 161)
!824 = !DISubprogram(name: "wcscspn", scope: !698, file: !698, line: 129, type: !825, isLocal: false, isDefinition: false, flags: DIFlagPrototyped, isOptimized: false)
!825 = !DISubroutineType(types: !826)
!826 = !{!17, !349, !349}
!827 = !DIImportedEntity(tag: DW_TAG_imported_declaration, scope: !11, entity: !828, file: !677, line: 162)
!828 = !DISubprogram(name: "wcslen", scope: !698, file: !698, line: 132, type: !829, isLocal: false, isDefinition: false, flags: DIFlagPrototyped, isOptimized: false)
!829 = !DISubroutineType(types: !830)
!830 = !{!17, !349}
!831 = !DIImportedEntity(tag: DW_TAG_imported_declaration, scope: !11, entity: !832, file: !677, line: 163)
!832 = !DISubprogram(name: "wcsspn", scope: !698, file: !698, line: 140, type: !825, isLocal: false, isDefinition: false, flags: DIFlagPrototyped, isOptimized: false)
!833 = !DIImportedEntity(tag: DW_TAG_imported_declaration, scope: !11, entity: !834, file: !677, line: 164)
!834 = !DISubprogram(name: "wcstok", scope: !698, file: !698, line: 145, type: !835, isLocal: false, isDefinition: false, flags: DIFlagPrototyped, isOptimized: false)
!835 = !DISubroutineType(types: !836)
!836 = !{!335, !335, !349, !757}
!837 = !DIImportedEntity(tag: DW_TAG_imported_declaration, scope: !11, entity: !838, file: !677, line: 165)
!838 = !DISubprogram(name: "wmemcmp", scope: !698, file: !698, line: 151, type: !802, isLocal: false, isDefinition: false, flags: DIFlagPrototyped, isOptimized: false)
!839 = !DIImportedEntity(tag: DW_TAG_imported_declaration, scope: !11, entity: !840, file: !677, line: 166)
!840 = !DISubprogram(name: "wmemcpy", scope: !698, file: !698, line: 152, type: !788, isLocal: false, isDefinition: false, flags: DIFlagPrototyped, isOptimized: false)
!841 = !DIImportedEntity(tag: DW_TAG_imported_declaration, scope: !11, entity: !842, file: !677, line: 167)
!842 = !DISubprogram(name: "wmemmove", scope: !698, file: !698, line: 153, type: !788, isLocal: false, isDefinition: false, flags: DIFlagPrototyped, isOptimized: false)
!843 = !DIImportedEntity(tag: DW_TAG_imported_declaration, scope: !11, entity: !844, file: !677, line: 168)
!844 = !DISubprogram(name: "wmemset", scope: !698, file: !698, line: 154, type: !821, isLocal: false, isDefinition: false, flags: DIFlagPrototyped, isOptimized: false)
!845 = !DIImportedEntity(tag: DW_TAG_imported_declaration, scope: !11, entity: !846, file: !677, line: 169)
!846 = !DISubprogram(name: "wcsftime", linkageName: "\01_wcsftime", scope: !698, file: !698, line: 130, type: !847, isLocal: false, isDefinition: false, flags: DIFlagPrototyped, isOptimized: false)
!847 = !DISubroutineType(types: !848)
!848 = !{!17, !335, !17, !349, !849}
!849 = !DIDerivedType(tag: DW_TAG_pointer_type, baseType: !850, size: 64)
!850 = !DIDerivedType(tag: DW_TAG_const_type, baseType: !680)
!851 = !DIImportedEntity(tag: DW_TAG_imported_declaration, scope: !11, entity: !852, file: !677, line: 170)
!852 = !DISubprogram(name: "btowc", scope: !698, file: !698, line: 97, type: !853, isLocal: false, isDefinition: false, flags: DIFlagPrototyped, isOptimized: false)
!853 = !DISubroutineType(types: !854)
!854 = !{!601, !55}
!855 = !DIImportedEntity(tag: DW_TAG_imported_declaration, scope: !11, entity: !856, file: !677, line: 171)
!856 = !DISubprogram(name: "wctob", scope: !698, file: !698, line: 143, type: !618, isLocal: false, isDefinition: false, flags: DIFlagPrototyped, isOptimized: false)
!857 = !DIImportedEntity(tag: DW_TAG_imported_declaration, scope: !11, entity: !858, file: !677, line: 172)
!858 = !DISubprogram(name: "mbsinit", scope: !698, file: !698, line: 110, type: !859, isLocal: false, isDefinition: false, flags: DIFlagPrototyped, isOptimized: false)
!859 = !DISubroutineType(types: !860)
!860 = !{!55, !861}
!861 = !DIDerivedType(tag: DW_TAG_pointer_type, baseType: !862, size: 64)
!862 = !DIDerivedType(tag: DW_TAG_const_type, baseType: !666)
!863 = !DIImportedEntity(tag: DW_TAG_imported_declaration, scope: !11, entity: !864, file: !677, line: 173)
!864 = !DISubprogram(name: "mbrlen", scope: !698, file: !698, line: 107, type: !865, isLocal: false, isDefinition: false, flags: DIFlagPrototyped, isOptimized: false)
!865 = !DISubroutineType(types: !866)
!866 = !{!17, !41, !17, !867}
!867 = !DIDerivedType(tag: DW_TAG_pointer_type, baseType: !666, size: 64)
!868 = !DIImportedEntity(tag: DW_TAG_imported_declaration, scope: !11, entity: !869, file: !677, line: 174)
!869 = !DISubprogram(name: "mbrtowc", scope: !698, file: !698, line: 108, type: !870, isLocal: false, isDefinition: false, flags: DIFlagPrototyped, isOptimized: false)
!870 = !DISubroutineType(types: !871)
!871 = !{!17, !335, !41, !17, !867}
!872 = !DIImportedEntity(tag: DW_TAG_imported_declaration, scope: !11, entity: !873, file: !677, line: 175)
!873 = !DISubprogram(name: "wcrtomb", scope: !698, file: !698, line: 123, type: !874, isLocal: false, isDefinition: false, flags: DIFlagPrototyped, isOptimized: false)
!874 = !DISubroutineType(types: !875)
!875 = !{!17, !39, !336, !867}
!876 = !DIImportedEntity(tag: DW_TAG_imported_declaration, scope: !11, entity: !877, file: !677, line: 176)
!877 = !DISubprogram(name: "mbsrtowcs", scope: !698, file: !698, line: 111, type: !878, isLocal: false, isDefinition: false, flags: DIFlagPrototyped, isOptimized: false)
!878 = !DISubroutineType(types: !879)
!879 = !{!17, !335, !880, !17, !867}
!880 = !DIDerivedType(tag: DW_TAG_pointer_type, baseType: !41, size: 64)
!881 = !DIImportedEntity(tag: DW_TAG_imported_declaration, scope: !11, entity: !882, file: !677, line: 177)
!882 = !DISubprogram(name: "wcsrtombs", scope: !698, file: !698, line: 138, type: !883, isLocal: false, isDefinition: false, flags: DIFlagPrototyped, isOptimized: false)
!883 = !DISubroutineType(types: !884)
!884 = !{!17, !39, !885, !17, !867}
!885 = !DIDerivedType(tag: DW_TAG_pointer_type, baseType: !349, size: 64)
!886 = !DIImportedEntity(tag: DW_TAG_imported_declaration, scope: !11, entity: !887, file: !677, line: 180)
!887 = !DISubprogram(name: "getwchar", scope: !698, file: !698, line: 106, type: !888, isLocal: false, isDefinition: false, flags: DIFlagPrototyped, isOptimized: false)
!888 = !DISubroutineType(types: !889)
!889 = !{!601}
!890 = !DIImportedEntity(tag: DW_TAG_imported_declaration, scope: !11, entity: !891, file: !677, line: 181)
!891 = !DISubprogram(name: "vwscanf", scope: !698, file: !698, line: 174, type: !892, isLocal: false, isDefinition: false, flags: DIFlagPrototyped, isOptimized: false)
!892 = !DISubroutineType(types: !893)
!893 = !{!55, !349, !446}
!894 = !DIImportedEntity(tag: DW_TAG_imported_declaration, scope: !11, entity: !895, file: !677, line: 182)
!895 = !DISubprogram(name: "wscanf", scope: !698, file: !698, line: 156, type: !896, isLocal: false, isDefinition: false, flags: DIFlagPrototyped, isOptimized: false)
!896 = !DISubroutineType(types: !897)
!897 = !{!55, !349, null}
!898 = !DIImportedEntity(tag: DW_TAG_imported_declaration, scope: !11, entity: !899, file: !677, line: 186)
!899 = !DISubprogram(name: "putwchar", scope: !698, file: !698, line: 114, type: !900, isLocal: false, isDefinition: false, flags: DIFlagPrototyped, isOptimized: false)
!900 = !DISubroutineType(types: !901)
!901 = !{!601, !336}
!902 = !DIImportedEntity(tag: DW_TAG_imported_declaration, scope: !11, entity: !903, file: !677, line: 187)
!903 = !DISubprogram(name: "vwprintf", scope: !698, file: !698, line: 122, type: !892, isLocal: false, isDefinition: false, flags: DIFlagPrototyped, isOptimized: false)
!904 = !DIImportedEntity(tag: DW_TAG_imported_declaration, scope: !11, entity: !905, file: !677, line: 188)
!905 = !DISubprogram(name: "wprintf", scope: !698, file: !698, line: 155, type: !896, isLocal: false, isDefinition: false, flags: DIFlagPrototyped, isOptimized: false)
!906 = !DIImportedEntity(tag: DW_TAG_imported_declaration, scope: !11, entity: !907, file: !910, line: 56)
!907 = !DIDerivedType(tag: DW_TAG_typedef, name: "clock_t", file: !908, line: 31, baseType: !909)
!908 = !DIFile(filename: "/Applications/Xcode.app/Contents/Developer/Platforms/MacOSX.platform/Developer/SDKs/MacOSX10.13.sdk/usr/include/sys/_types/_clock_t.h", directory: "/Users/ejiang/Projects/lls/ac/llfiles")
!909 = !DIDerivedType(tag: DW_TAG_typedef, name: "__darwin_clock_t", file: !172, line: 117, baseType: !18)
!910 = !DIFile(filename: "/Applications/Xcode.app/Contents/Developer/Toolchains/XcodeDefault.xctoolchain/usr/include/c++/v1/ctime", directory: "/Users/ejiang/Projects/lls/ac/llfiles")
!911 = !DIImportedEntity(tag: DW_TAG_imported_declaration, scope: !11, entity: !17, file: !910, line: 57)
!912 = !DIImportedEntity(tag: DW_TAG_imported_declaration, scope: !11, entity: !913, file: !910, line: 58)
!913 = !DIDerivedType(tag: DW_TAG_typedef, name: "time_t", file: !914, line: 31, baseType: !915)
!914 = !DIFile(filename: "/Applications/Xcode.app/Contents/Developer/Platforms/MacOSX.platform/Developer/SDKs/MacOSX10.13.sdk/usr/include/sys/_types/_time_t.h", directory: "/Users/ejiang/Projects/lls/ac/llfiles")
!915 = !DIDerivedType(tag: DW_TAG_typedef, name: "__darwin_time_t", file: !172, line: 120, baseType: !14)
!916 = !DIImportedEntity(tag: DW_TAG_imported_declaration, scope: !11, entity: !680, file: !910, line: 59)
!917 = !DIImportedEntity(tag: DW_TAG_imported_declaration, scope: !11, entity: !918, file: !910, line: 60)
!918 = !DISubprogram(name: "clock", linkageName: "\01_clock", scope: !681, file: !681, line: 108, type: !919, isLocal: false, isDefinition: false, flags: DIFlagPrototyped, isOptimized: false)
!919 = !DISubroutineType(types: !920)
!920 = !{!907}
!921 = !DIImportedEntity(tag: DW_TAG_imported_declaration, scope: !11, entity: !922, file: !910, line: 61)
!922 = !DISubprogram(name: "difftime", scope: !681, file: !681, line: 110, type: !923, isLocal: false, isDefinition: false, flags: DIFlagPrototyped, isOptimized: false)
!923 = !DISubroutineType(types: !924)
!924 = !{!207, !913, !913}
!925 = !DIImportedEntity(tag: DW_TAG_imported_declaration, scope: !11, entity: !926, file: !910, line: 62)
!926 = !DISubprogram(name: "mktime", linkageName: "\01_mktime", scope: !681, file: !681, line: 114, type: !927, isLocal: false, isDefinition: false, flags: DIFlagPrototyped, isOptimized: false)
!927 = !DISubroutineType(types: !928)
!928 = !{!913, !929}
!929 = !DIDerivedType(tag: DW_TAG_pointer_type, baseType: !680, size: 64)
!930 = !DIImportedEntity(tag: DW_TAG_imported_declaration, scope: !11, entity: !931, file: !910, line: 63)
!931 = !DISubprogram(name: "time", scope: !681, file: !681, line: 117, type: !932, isLocal: false, isDefinition: false, flags: DIFlagPrototyped, isOptimized: false)
!932 = !DISubroutineType(types: !933)
!933 = !{!913, !934}
!934 = !DIDerivedType(tag: DW_TAG_pointer_type, baseType: !913, size: 64)
!935 = !DIImportedEntity(tag: DW_TAG_imported_declaration, scope: !11, entity: !936, file: !910, line: 65)
!936 = !DISubprogram(name: "asctime", scope: !681, file: !681, line: 107, type: !937, isLocal: false, isDefinition: false, flags: DIFlagPrototyped, isOptimized: false)
!937 = !DISubroutineType(types: !938)
!938 = !{!39, !849}
!939 = !DIImportedEntity(tag: DW_TAG_imported_declaration, scope: !11, entity: !940, file: !910, line: 66)
!940 = !DISubprogram(name: "ctime", scope: !681, file: !681, line: 109, type: !941, isLocal: false, isDefinition: false, flags: DIFlagPrototyped, isOptimized: false)
!941 = !DISubroutineType(types: !942)
!942 = !{!39, !943}
!943 = !DIDerivedType(tag: DW_TAG_pointer_type, baseType: !944, size: 64)
!944 = !DIDerivedType(tag: DW_TAG_const_type, baseType: !913)
!945 = !DIImportedEntity(tag: DW_TAG_imported_declaration, scope: !11, entity: !946, file: !910, line: 67)
!946 = !DISubprogram(name: "gmtime", scope: !681, file: !681, line: 112, type: !947, isLocal: false, isDefinition: false, flags: DIFlagPrototyped, isOptimized: false)
!947 = !DISubroutineType(types: !948)
!948 = !{!929, !943}
!949 = !DIImportedEntity(tag: DW_TAG_imported_declaration, scope: !11, entity: !950, file: !910, line: 68)
!950 = !DISubprogram(name: "localtime", scope: !681, file: !681, line: 113, type: !947, isLocal: false, isDefinition: false, flags: DIFlagPrototyped, isOptimized: false)
!951 = !DIImportedEntity(tag: DW_TAG_imported_declaration, scope: !11, entity: !952, file: !910, line: 70)
!952 = !DISubprogram(name: "strftime", linkageName: "\01_strftime", scope: !681, file: !681, line: 115, type: !953, isLocal: false, isDefinition: false, flags: DIFlagPrototyped, isOptimized: false)
!953 = !DISubroutineType(types: !954)
!954 = !{!17, !39, !17, !41, !849}
!955 = !{i32 2, !"Dwarf Version", i32 4}
!956 = !{i32 2, !"Debug Info Version", i32 3}
!957 = !{i32 1, !"wchar_size", i32 4}
!958 = !{i32 7, !"PIC Level", i32 2}
!959 = !{!"Apple LLVM version 9.1.0 (clang-902.0.39.2)"}
!960 = distinct !DISubprogram(name: "AstVisitContext", linkageName: "_ZN14altered_carbon2js15AstVisitContextC2EPv", scope: !961, file: !1, line: 6, type: !968, isLocal: false, isDefinition: true, scopeLine: 7, flags: DIFlagPrototyped, isOptimized: false, unit: !0, declaration: !967, retainedNodes: !2)
!961 = distinct !DICompositeType(tag: DW_TAG_class_type, name: "AstVisitContext", scope: !963, file: !962, line: 20, size: 64, elements: !965, identifier: "_ZTSN14altered_carbon2js15AstVisitContextE")
!962 = !DIFile(filename: "../ac_ast_visitable.h", directory: "/Users/ejiang/Projects/lls/ac/llfiles")
!963 = !DINamespace(name: "js", scope: !964)
!964 = !DINamespace(name: "altered_carbon", scope: null)
!965 = !{!966, !967, !971}
!966 = !DIDerivedType(tag: DW_TAG_member, name: "current_node_", scope: !961, file: !962, line: 22, baseType: !30, size: 64, flags: DIFlagProtected)
!967 = !DISubprogram(name: "AstVisitContext", scope: !961, file: !962, line: 25, type: !968, isLocal: false, isDefinition: false, scopeLine: 25, flags: DIFlagPublic | DIFlagPrototyped, isOptimized: false)
!968 = !DISubroutineType(types: !969)
!969 = !{null, !970, !30}
!970 = !DIDerivedType(tag: DW_TAG_pointer_type, baseType: !961, size: 64, flags: DIFlagArtificial | DIFlagObjectPointer)
!971 = !DISubprogram(name: "current_node", linkageName: "_ZN14altered_carbon2js15AstVisitContext12current_nodeEv", scope: !961, file: !962, line: 26, type: !972, isLocal: false, isDefinition: false, scopeLine: 26, flags: DIFlagPublic | DIFlagPrototyped, isOptimized: false)
!972 = !DISubroutineType(types: !973)
!973 = !{!30, !970}
!974 = !DILocalVariable(name: "this", arg: 1, scope: !960, type: !975, flags: DIFlagArtificial | DIFlagObjectPointer)
!975 = !DIDerivedType(tag: DW_TAG_pointer_type, baseType: !961, size: 64)
!976 = !DILocation(line: 0, scope: !960)
!977 = !DILocalVariable(name: "root", arg: 2, scope: !960, file: !1, line: 6, type: !30)
!978 = !DILocation(line: 6, column: 40, scope: !960)
!979 = !DILocation(line: 7, column: 3, scope: !960)
!980 = !DILocation(line: 7, column: 17, scope: !960)
!981 = !DILocation(line: 7, column: 24, scope: !960)
!982 = distinct !DISubprogram(name: "AstVisitContext", linkageName: "_ZN14altered_carbon2js15AstVisitContextC1EPv", scope: !961, file: !1, line: 6, type: !968, isLocal: false, isDefinition: true, scopeLine: 7, flags: DIFlagPrototyped, isOptimized: false, unit: !0, declaration: !967, retainedNodes: !2)
!983 = !DILocalVariable(name: "this", arg: 1, scope: !982, type: !975, flags: DIFlagArtificial | DIFlagObjectPointer)
!984 = !DILocation(line: 0, scope: !982)
!985 = !DILocalVariable(name: "root", arg: 2, scope: !982, file: !1, line: 6, type: !30)
!986 = !DILocation(line: 6, column: 40, scope: !982)
!987 = !DILocation(line: 7, column: 23, scope: !982)
!988 = !DILocation(line: 7, column: 24, scope: !982)
