; ModuleID = 'temp.bc'
source_filename = "../ac_ast_statement_nodes.cc"
target datalayout = "e-m:o-i64:64-f80:128-n8:16:32:64-S128"
target triple = "x86_64-apple-macosx10.13.0"

%"class.std::__1::locale::id" = type <{ %"struct.std::__1::once_flag", i32, [4 x i8] }>
%"struct.std::__1::once_flag" = type { i64 }
%"class.altered_carbon::js::ACAstExpressionStatement" = type { %"class.altered_carbon::js::ACAstStatementNode" }
%"class.altered_carbon::js::ACAstStatementNode" = type { %"class.altered_carbon::js::ACAstBaseNode", %"class.std::__1::unique_ptr.1" }
%"class.altered_carbon::js::ACAstBaseNode" = type { i32 (...)**, %"class.std::__1::unique_ptr", i32, i32, %"class.std::__1::vector" }
%"class.std::__1::unique_ptr" = type { %"class.std::__1::__compressed_pair" }
%"class.std::__1::__compressed_pair" = type { %"struct.std::__1::__compressed_pair_elem" }
%"struct.std::__1::__compressed_pair_elem" = type { %"struct.altered_carbon::js::ACLexPosition"* }
%"struct.altered_carbon::js::ACLexPosition" = type { i32 (...)**, i64, i32, i64 }
%"class.std::__1::vector" = type { %"class.std::__1::__vector_base" }
%"class.std::__1::__vector_base" = type { %"class.std::__1::unique_ptr.1"*, %"class.std::__1::unique_ptr.1"*, %"class.std::__1::__compressed_pair.7" }
%"class.std::__1::__compressed_pair.7" = type { %"struct.std::__1::__compressed_pair_elem.8" }
%"struct.std::__1::__compressed_pair_elem.8" = type { %"class.std::__1::unique_ptr.1"* }
%"class.std::__1::unique_ptr.1" = type { %"class.std::__1::__compressed_pair.2" }
%"class.std::__1::__compressed_pair.2" = type { %"struct.std::__1::__compressed_pair_elem.3" }
%"struct.std::__1::__compressed_pair_elem.3" = type { %"class.altered_carbon::js::ACAstBaseNode"* }
%"struct.std::__1::__compressed_pair_elem.4" = type { i8 }
%"struct.std::__1::default_delete.5" = type { i8 }
%"struct.std::__1::__compressed_pair_elem.0" = type { i8 }
%"struct.std::__1::default_delete" = type { i8 }
%"class.std::__1::basic_ostream" = type { i32 (...)**, %"class.std::__1::basic_ios.base" }
%"class.std::__1::basic_ios.base" = type <{ %"class.std::__1::ios_base", %"class.std::__1::basic_ostream"*, i32 }>
%"class.std::__1::ios_base" = type { i32 (...)**, i32, i64, i64, i32, i32, i8*, i8*, void (i32, %"class.std::__1::ios_base"*, i32)**, i32*, i64, i64, i64*, i64, i64, i8**, i64, i64 }
%"class.altered_carbon::js::ACAstIfElseStatement" = type { %"class.altered_carbon::js::ACAstStatementNode" }
%"struct.std::__1::__compressed_pair_elem.9" = type { i8 }
%"class.std::__1::allocator" = type { i8 }
%"struct.std::__1::__has_construct" = type { i8 }
%"struct.std::__1::vector<std::__1::unique_ptr<altered_carbon::js::ACAstBaseNode, std::__1::default_delete<altered_carbon::js::ACAstBaseNode> >, std::__1::allocator<std::__1::unique_ptr<altered_carbon::js::ACAstBaseNode, std::__1::default_delete<altered_carbon::js::ACAstBaseNode> > > >::__RAII_IncreaseAnnotator" = type { i8 }
%"struct.std::__1::integral_constant" = type { i8 }
%"class.altered_carbon::js::ACAstVariableDeclListStmt" = type { %"class.altered_carbon::js::ACAstStatementNode" }
%"class.altered_carbon::js::ACAstLexicalDeclListStmt" = type <{ %"class.altered_carbon::js::ACAstVariableDeclListStmt", i32, i8, [3 x i8] }>
%"class.std::__1::__vector_base_common" = type { i8 }
%"class.altered_carbon::js::ACAstDoWhileStatement" = type { %"class.altered_carbon::js::ACAstStatementNode" }
%"class.altered_carbon::js::ACAstWhileStatement" = type { %"class.altered_carbon::js::ACAstStatementNode" }
%"class.altered_carbon::js::ACAstForStatement" = type { %"class.altered_carbon::js::ACAstStatementNode" }
%"class.altered_carbon::js::ACAstForInStatement" = type { %"class.altered_carbon::js::ACAstStatementNode" }
%"class.altered_carbon::js::ACAstReturnStatement" = type { %"class.altered_carbon::js::ACAstStatementNode" }
%"class.altered_carbon::js::ACAstContinueStatement" = type { %"class.altered_carbon::js::ACAstStatementNode" }
%"class.altered_carbon::js::ACAstBreakStatement" = type { %"class.altered_carbon::js::ACAstStatementNode" }
%"class.altered_carbon::js::ACAstThrowStatement" = type { %"class.altered_carbon::js::ACAstStatementNode" }
%"class.altered_carbon::js::ACAstTryCatchStatement" = type { %"class.altered_carbon::js::ACAstStatementNode" }
%"class.altered_carbon::js::ACAstCatchClause" = type { %"class.altered_carbon::js::ACAstStatementNode" }
%"class.altered_carbon::js::ACAstSwitchStatement" = type { %"class.altered_carbon::js::ACAstStatementNode" }
%"class.altered_carbon::js::ACAstCaseClause" = type { %"class.altered_carbon::js::ACAstStatementNode" }
%"class.altered_carbon::js::ACAstLabeledStatement" = type { %"class.altered_carbon::js::ACAstStatementNode", %"class.std::__1::basic_string" }
%"class.std::__1::basic_string" = type { %"class.std::__1::__compressed_pair.10" }
%"class.std::__1::__compressed_pair.10" = type { %"struct.std::__1::__compressed_pair_elem.11" }
%"struct.std::__1::__compressed_pair_elem.11" = type { %"struct.std::__1::basic_string<wchar_t, std::__1::char_traits<wchar_t>, std::__1::allocator<wchar_t> >::__rep" }
%"struct.std::__1::basic_string<wchar_t, std::__1::char_traits<wchar_t>, std::__1::allocator<wchar_t> >::__rep" = type { %union.anon }
%union.anon = type { %"struct.std::__1::basic_string<wchar_t, std::__1::char_traits<wchar_t>, std::__1::allocator<wchar_t> >::__long" }
%"struct.std::__1::basic_string<wchar_t, std::__1::char_traits<wchar_t>, std::__1::allocator<wchar_t> >::__long" = type { i64, i64, i32* }
%"class.std::__1::__basic_string_common" = type { i8 }
%"struct.std::__1::basic_string<wchar_t, std::__1::char_traits<wchar_t>, std::__1::allocator<wchar_t> >::__raw" = type { [3 x i64] }
%"class.altered_carbon::js::ACAstEmptyStatement" = type { %"class.altered_carbon::js::ACAstStatementNode" }
%"class.altered_carbon::js::ACAstDebuggerStatement" = type { %"class.altered_carbon::js::ACAstStatementNode" }
%"class.altered_carbon::js::ACAstVisitable" = type { i32 (...)** }
%"class.std::__1::allocator.14" = type { i8 }
%"struct.std::__1::__compressed_pair_elem.13" = type { i8 }
%"struct.std::__1::__has_destroy" = type { i8 }
%"struct.std::__1::__less" = type { i8 }
%"struct.std::__1::__split_buffer" = type { %"class.std::__1::unique_ptr.1"*, %"class.std::__1::unique_ptr.1"*, %"class.std::__1::unique_ptr.1"*, %"class.std::__1::__compressed_pair.16" }
%"class.std::__1::__compressed_pair.16" = type { %"struct.std::__1::__compressed_pair_elem.8", %"struct.std::__1::__compressed_pair_elem.17" }
%"struct.std::__1::__compressed_pair_elem.17" = type { %"class.std::__1::allocator"* }
%"struct.std::__1::__has_max_size" = type { i8 }
%"class.std::__1::__split_buffer_common" = type { i8 }
%"class.std::__1::ctype" = type <{ %"class.std::__1::locale::facet", i32*, i8, [7 x i8] }>
%"class.std::__1::locale::facet" = type { %"class.std::__1::__shared_count" }
%"class.std::__1::__shared_count" = type { i32 (...)**, i64 }
%"class.std::__1::locale" = type { %"class.std::__1::locale::__imp"* }
%"class.std::__1::locale::__imp" = type opaque
%"class.std::__1::basic_ios" = type <{ %"class.std::__1::ios_base", %"class.std::__1::basic_ostream"*, i32, [4 x i8] }>
%"class.std::__1::ostreambuf_iterator" = type { %"class.std::__1::basic_streambuf"* }
%"class.std::__1::basic_streambuf" = type { i32 (...)**, %"class.std::__1::locale", i8*, i8*, i8*, i8*, i8*, i8* }
%"class.std::__1::basic_ostream<char, std::__1::char_traits<char> >::sentry" = type { i8, %"class.std::__1::basic_ostream"* }
%"struct.std::__1::iterator" = type { i8 }
%"struct.std::__1::__compressed_pair_elem.21" = type { %"struct.std::__1::basic_string<char, std::__1::char_traits<char>, std::__1::allocator<char> >::__rep" }
%"struct.std::__1::basic_string<char, std::__1::char_traits<char>, std::__1::allocator<char> >::__rep" = type { %union.anon.22 }
%union.anon.22 = type { %"struct.std::__1::basic_string<char, std::__1::char_traits<char>, std::__1::allocator<char> >::__long" }
%"struct.std::__1::basic_string<char, std::__1::char_traits<char>, std::__1::allocator<char> >::__long" = type { i64, i64, i8* }
%"class.std::__1::__compressed_pair.20" = type { %"struct.std::__1::__compressed_pair_elem.21" }
%"class.std::__1::basic_string.19" = type { %"class.std::__1::__compressed_pair.20" }
%"class.std::__1::allocator.25" = type { i8 }
%"struct.std::__1::__compressed_pair_elem.24" = type { i8 }
%"struct.std::__1::basic_string<char, std::__1::char_traits<char>, std::__1::allocator<char> >::__short" = type { %union.anon.23, [23 x i8] }
%union.anon.23 = type { i8 }

@_ZTVN14altered_carbon2js24ACAstExpressionStatementE = unnamed_addr constant { [14 x i8*] } { [14 x i8*] [i8* null, i8* bitcast ({ i8*, i8*, i8* }* @_ZTIN14altered_carbon2js24ACAstExpressionStatementE to i8*), i8* bitcast (void (%"class.altered_carbon::js::ACAstExpressionStatement"*)* @_ZN14altered_carbon2js24ACAstExpressionStatementD1Ev to i8*), i8* bitcast (void (%"class.altered_carbon::js::ACAstExpressionStatement"*)* @_ZN14altered_carbon2js24ACAstExpressionStatementD0Ev to i8*), i8* bitcast (i8* (%"class.altered_carbon::js::ACAstStatementNode"*, %"class.altered_carbon::js::ACAstVisitable"*)* @_ZNK14altered_carbon2js18ACAstStatementNode6acceptEPNS0_14ACAstVisitableE to i8*), i8* bitcast (void (%"class.std::__1::basic_string"*, %"class.altered_carbon::js::ACAstBaseNode"*)* @_ZNK14altered_carbon2js13ACAstBaseNode10identifierEv to i8*), i8* bitcast (i32 (%"class.altered_carbon::js::ACAstBaseNode"*)* @_ZNK14altered_carbon2js13ACAstBaseNode10precedenceEv to i8*), i8* bitcast (i32 (%"class.altered_carbon::js::ACAstBaseNode"*)* @_ZNK14altered_carbon2js13ACAstBaseNode2opEv to i8*), i8* bitcast (i1 (%"class.altered_carbon::js::ACAstBaseNode"*)* @_ZN14altered_carbon2js13ACAstBaseNode14convertToParamEv to i8*), i8* bitcast (i1 (%"class.altered_carbon::js::ACAstBaseNode"*)* @_ZN14altered_carbon2js13ACAstBaseNode15convertToFormalEv to i8*), i8* bitcast (void (%"class.altered_carbon::js::ACAstBaseNode"*, %"class.std::__1::basic_ostream"*)* @_ZNK14altered_carbon2js13ACAstBaseNode4dumpERNSt3__113basic_ostreamIcNS2_11char_traitsIcEEEE to i8*), i8* bitcast (void (%"class.altered_carbon::js::ACAstBaseNode"*, %"class.std::__1::basic_ostream"*)* @_ZNK14altered_carbon2js13ACAstBaseNode14dumpGraphLabelERNSt3__113basic_ostreamIcNS2_11char_traitsIcEEEE to i8*), i8* bitcast (void (%"class.altered_carbon::js::ACAstStatementNode"*, %"class.std::__1::basic_ostream"*)* @_ZNK14altered_carbon2js18ACAstStatementNode9dumpGraphERNSt3__113basic_ostreamIcNS2_11char_traitsIcEEEE to i8*), i8* bitcast (void (%"class.altered_carbon::js::ACAstExpressionStatement"*, %"class.std::__1::basic_ostream"*)* @_ZNK14altered_carbon2js24ACAstExpressionStatement14dumpChildNodesERNSt3__113basic_ostreamIcNS2_11char_traitsIcEEEE to i8*)] }, align 8
@_ZTVN14altered_carbon2js20ACAstIfElseStatementE = unnamed_addr constant { [14 x i8*] } { [14 x i8*] [i8* null, i8* bitcast ({ i8*, i8*, i8* }* @_ZTIN14altered_carbon2js20ACAstIfElseStatementE to i8*), i8* bitcast (void (%"class.altered_carbon::js::ACAstIfElseStatement"*)* @_ZN14altered_carbon2js20ACAstIfElseStatementD1Ev to i8*), i8* bitcast (void (%"class.altered_carbon::js::ACAstIfElseStatement"*)* @_ZN14altered_carbon2js20ACAstIfElseStatementD0Ev to i8*), i8* bitcast (i8* (%"class.altered_carbon::js::ACAstStatementNode"*, %"class.altered_carbon::js::ACAstVisitable"*)* @_ZNK14altered_carbon2js18ACAstStatementNode6acceptEPNS0_14ACAstVisitableE to i8*), i8* bitcast (void (%"class.std::__1::basic_string"*, %"class.altered_carbon::js::ACAstBaseNode"*)* @_ZNK14altered_carbon2js13ACAstBaseNode10identifierEv to i8*), i8* bitcast (i32 (%"class.altered_carbon::js::ACAstBaseNode"*)* @_ZNK14altered_carbon2js13ACAstBaseNode10precedenceEv to i8*), i8* bitcast (i32 (%"class.altered_carbon::js::ACAstBaseNode"*)* @_ZNK14altered_carbon2js13ACAstBaseNode2opEv to i8*), i8* bitcast (i1 (%"class.altered_carbon::js::ACAstBaseNode"*)* @_ZN14altered_carbon2js13ACAstBaseNode14convertToParamEv to i8*), i8* bitcast (i1 (%"class.altered_carbon::js::ACAstBaseNode"*)* @_ZN14altered_carbon2js13ACAstBaseNode15convertToFormalEv to i8*), i8* bitcast (void (%"class.altered_carbon::js::ACAstBaseNode"*, %"class.std::__1::basic_ostream"*)* @_ZNK14altered_carbon2js13ACAstBaseNode4dumpERNSt3__113basic_ostreamIcNS2_11char_traitsIcEEEE to i8*), i8* bitcast (void (%"class.altered_carbon::js::ACAstBaseNode"*, %"class.std::__1::basic_ostream"*)* @_ZNK14altered_carbon2js13ACAstBaseNode14dumpGraphLabelERNSt3__113basic_ostreamIcNS2_11char_traitsIcEEEE to i8*), i8* bitcast (void (%"class.altered_carbon::js::ACAstStatementNode"*, %"class.std::__1::basic_ostream"*)* @_ZNK14altered_carbon2js18ACAstStatementNode9dumpGraphERNSt3__113basic_ostreamIcNS2_11char_traitsIcEEEE to i8*), i8* bitcast (void (%"class.altered_carbon::js::ACAstIfElseStatement"*, %"class.std::__1::basic_ostream"*)* @_ZNK14altered_carbon2js20ACAstIfElseStatement14dumpChildNodesERNSt3__113basic_ostreamIcNS2_11char_traitsIcEEEE to i8*)] }, align 8
@.str = private unnamed_addr constant [5 x i8] c"*IF*\00", align 1
@.str.1 = private unnamed_addr constant [13 x i8] c"*TRUE_BLOCK*\00", align 1
@.str.2 = private unnamed_addr constant [7 x i8] c"(null)\00", align 1
@.str.3 = private unnamed_addr constant [14 x i8] c"*FALSE_BLOCK*\00", align 1
@_ZTVN14altered_carbon2js25ACAstVariableDeclListStmtE = unnamed_addr constant { [14 x i8*] } { [14 x i8*] [i8* null, i8* bitcast ({ i8*, i8*, i8* }* @_ZTIN14altered_carbon2js25ACAstVariableDeclListStmtE to i8*), i8* bitcast (void (%"class.altered_carbon::js::ACAstVariableDeclListStmt"*)* @_ZN14altered_carbon2js25ACAstVariableDeclListStmtD1Ev to i8*), i8* bitcast (void (%"class.altered_carbon::js::ACAstVariableDeclListStmt"*)* @_ZN14altered_carbon2js25ACAstVariableDeclListStmtD0Ev to i8*), i8* bitcast (i8* (%"class.altered_carbon::js::ACAstStatementNode"*, %"class.altered_carbon::js::ACAstVisitable"*)* @_ZNK14altered_carbon2js18ACAstStatementNode6acceptEPNS0_14ACAstVisitableE to i8*), i8* bitcast (void (%"class.std::__1::basic_string"*, %"class.altered_carbon::js::ACAstBaseNode"*)* @_ZNK14altered_carbon2js13ACAstBaseNode10identifierEv to i8*), i8* bitcast (i32 (%"class.altered_carbon::js::ACAstBaseNode"*)* @_ZNK14altered_carbon2js13ACAstBaseNode10precedenceEv to i8*), i8* bitcast (i32 (%"class.altered_carbon::js::ACAstBaseNode"*)* @_ZNK14altered_carbon2js13ACAstBaseNode2opEv to i8*), i8* bitcast (i1 (%"class.altered_carbon::js::ACAstBaseNode"*)* @_ZN14altered_carbon2js13ACAstBaseNode14convertToParamEv to i8*), i8* bitcast (i1 (%"class.altered_carbon::js::ACAstBaseNode"*)* @_ZN14altered_carbon2js13ACAstBaseNode15convertToFormalEv to i8*), i8* bitcast (void (%"class.altered_carbon::js::ACAstBaseNode"*, %"class.std::__1::basic_ostream"*)* @_ZNK14altered_carbon2js13ACAstBaseNode4dumpERNSt3__113basic_ostreamIcNS2_11char_traitsIcEEEE to i8*), i8* bitcast (void (%"class.altered_carbon::js::ACAstBaseNode"*, %"class.std::__1::basic_ostream"*)* @_ZNK14altered_carbon2js13ACAstBaseNode14dumpGraphLabelERNSt3__113basic_ostreamIcNS2_11char_traitsIcEEEE to i8*), i8* bitcast (void (%"class.altered_carbon::js::ACAstStatementNode"*, %"class.std::__1::basic_ostream"*)* @_ZNK14altered_carbon2js18ACAstStatementNode9dumpGraphERNSt3__113basic_ostreamIcNS2_11char_traitsIcEEEE to i8*), i8* bitcast (void (%"class.altered_carbon::js::ACAstVariableDeclListStmt"*, %"class.std::__1::basic_ostream"*)* @_ZNK14altered_carbon2js25ACAstVariableDeclListStmt14dumpChildNodesERNSt3__113basic_ostreamIcNS2_11char_traitsIcEEEE to i8*)] }, align 8
@.str.4 = private unnamed_addr constant [6 x i8] c"*VAR*\00", align 1
@.str.5 = private unnamed_addr constant [2 x i8] c"*\00", align 1
@.str.6 = private unnamed_addr constant [6 x i8] c" <,> \00", align 1
@_ZTVN14altered_carbon2js24ACAstLexicalDeclListStmtE = unnamed_addr constant { [14 x i8*] } { [14 x i8*] [i8* null, i8* bitcast ({ i8*, i8*, i8* }* @_ZTIN14altered_carbon2js24ACAstLexicalDeclListStmtE to i8*), i8* bitcast (void (%"class.altered_carbon::js::ACAstLexicalDeclListStmt"*)* @_ZN14altered_carbon2js24ACAstLexicalDeclListStmtD1Ev to i8*), i8* bitcast (void (%"class.altered_carbon::js::ACAstLexicalDeclListStmt"*)* @_ZN14altered_carbon2js24ACAstLexicalDeclListStmtD0Ev to i8*), i8* bitcast (i8* (%"class.altered_carbon::js::ACAstStatementNode"*, %"class.altered_carbon::js::ACAstVisitable"*)* @_ZNK14altered_carbon2js18ACAstStatementNode6acceptEPNS0_14ACAstVisitableE to i8*), i8* bitcast (void (%"class.std::__1::basic_string"*, %"class.altered_carbon::js::ACAstBaseNode"*)* @_ZNK14altered_carbon2js13ACAstBaseNode10identifierEv to i8*), i8* bitcast (i32 (%"class.altered_carbon::js::ACAstBaseNode"*)* @_ZNK14altered_carbon2js13ACAstBaseNode10precedenceEv to i8*), i8* bitcast (i32 (%"class.altered_carbon::js::ACAstBaseNode"*)* @_ZNK14altered_carbon2js13ACAstBaseNode2opEv to i8*), i8* bitcast (i1 (%"class.altered_carbon::js::ACAstBaseNode"*)* @_ZN14altered_carbon2js13ACAstBaseNode14convertToParamEv to i8*), i8* bitcast (i1 (%"class.altered_carbon::js::ACAstBaseNode"*)* @_ZN14altered_carbon2js13ACAstBaseNode15convertToFormalEv to i8*), i8* bitcast (void (%"class.altered_carbon::js::ACAstBaseNode"*, %"class.std::__1::basic_ostream"*)* @_ZNK14altered_carbon2js13ACAstBaseNode4dumpERNSt3__113basic_ostreamIcNS2_11char_traitsIcEEEE to i8*), i8* bitcast (void (%"class.altered_carbon::js::ACAstBaseNode"*, %"class.std::__1::basic_ostream"*)* @_ZNK14altered_carbon2js13ACAstBaseNode14dumpGraphLabelERNSt3__113basic_ostreamIcNS2_11char_traitsIcEEEE to i8*), i8* bitcast (void (%"class.altered_carbon::js::ACAstStatementNode"*, %"class.std::__1::basic_ostream"*)* @_ZNK14altered_carbon2js18ACAstStatementNode9dumpGraphERNSt3__113basic_ostreamIcNS2_11char_traitsIcEEEE to i8*), i8* bitcast (void (%"class.altered_carbon::js::ACAstLexicalDeclListStmt"*, %"class.std::__1::basic_ostream"*)* @_ZNK14altered_carbon2js24ACAstLexicalDeclListStmt14dumpChildNodesERNSt3__113basic_ostreamIcNS2_11char_traitsIcEEEE to i8*)] }, align 8
@.str.7 = private unnamed_addr constant [8 x i8] c"*CONST*\00", align 1
@.str.8 = private unnamed_addr constant [6 x i8] c"*LET*\00", align 1
@.str.9 = private unnamed_addr constant [4 x i8] c"*?*\00", align 1
@.str.10 = private unnamed_addr constant [9 x i8] c"(IN FOR)\00", align 1
@_ZTVN14altered_carbon2js21ACAstDoWhileStatementE = unnamed_addr constant { [14 x i8*] } { [14 x i8*] [i8* null, i8* bitcast ({ i8*, i8*, i8* }* @_ZTIN14altered_carbon2js21ACAstDoWhileStatementE to i8*), i8* bitcast (void (%"class.altered_carbon::js::ACAstDoWhileStatement"*)* @_ZN14altered_carbon2js21ACAstDoWhileStatementD1Ev to i8*), i8* bitcast (void (%"class.altered_carbon::js::ACAstDoWhileStatement"*)* @_ZN14altered_carbon2js21ACAstDoWhileStatementD0Ev to i8*), i8* bitcast (i8* (%"class.altered_carbon::js::ACAstStatementNode"*, %"class.altered_carbon::js::ACAstVisitable"*)* @_ZNK14altered_carbon2js18ACAstStatementNode6acceptEPNS0_14ACAstVisitableE to i8*), i8* bitcast (void (%"class.std::__1::basic_string"*, %"class.altered_carbon::js::ACAstBaseNode"*)* @_ZNK14altered_carbon2js13ACAstBaseNode10identifierEv to i8*), i8* bitcast (i32 (%"class.altered_carbon::js::ACAstBaseNode"*)* @_ZNK14altered_carbon2js13ACAstBaseNode10precedenceEv to i8*), i8* bitcast (i32 (%"class.altered_carbon::js::ACAstBaseNode"*)* @_ZNK14altered_carbon2js13ACAstBaseNode2opEv to i8*), i8* bitcast (i1 (%"class.altered_carbon::js::ACAstBaseNode"*)* @_ZN14altered_carbon2js13ACAstBaseNode14convertToParamEv to i8*), i8* bitcast (i1 (%"class.altered_carbon::js::ACAstBaseNode"*)* @_ZN14altered_carbon2js13ACAstBaseNode15convertToFormalEv to i8*), i8* bitcast (void (%"class.altered_carbon::js::ACAstBaseNode"*, %"class.std::__1::basic_ostream"*)* @_ZNK14altered_carbon2js13ACAstBaseNode4dumpERNSt3__113basic_ostreamIcNS2_11char_traitsIcEEEE to i8*), i8* bitcast (void (%"class.altered_carbon::js::ACAstBaseNode"*, %"class.std::__1::basic_ostream"*)* @_ZNK14altered_carbon2js13ACAstBaseNode14dumpGraphLabelERNSt3__113basic_ostreamIcNS2_11char_traitsIcEEEE to i8*), i8* bitcast (void (%"class.altered_carbon::js::ACAstStatementNode"*, %"class.std::__1::basic_ostream"*)* @_ZNK14altered_carbon2js18ACAstStatementNode9dumpGraphERNSt3__113basic_ostreamIcNS2_11char_traitsIcEEEE to i8*), i8* bitcast (void (%"class.altered_carbon::js::ACAstDoWhileStatement"*, %"class.std::__1::basic_ostream"*)* @_ZNK14altered_carbon2js21ACAstDoWhileStatement14dumpChildNodesERNSt3__113basic_ostreamIcNS2_11char_traitsIcEEEE to i8*)] }, align 8
@.str.11 = private unnamed_addr constant [5 x i8] c"*DO*\00", align 1
@.str.12 = private unnamed_addr constant [10 x i8] c"*WHILE* (\00", align 1
@.str.13 = private unnamed_addr constant [2 x i8] c")\00", align 1
@_ZTVN14altered_carbon2js19ACAstWhileStatementE = unnamed_addr constant { [14 x i8*] } { [14 x i8*] [i8* null, i8* bitcast ({ i8*, i8*, i8* }* @_ZTIN14altered_carbon2js19ACAstWhileStatementE to i8*), i8* bitcast (void (%"class.altered_carbon::js::ACAstWhileStatement"*)* @_ZN14altered_carbon2js19ACAstWhileStatementD1Ev to i8*), i8* bitcast (void (%"class.altered_carbon::js::ACAstWhileStatement"*)* @_ZN14altered_carbon2js19ACAstWhileStatementD0Ev to i8*), i8* bitcast (i8* (%"class.altered_carbon::js::ACAstStatementNode"*, %"class.altered_carbon::js::ACAstVisitable"*)* @_ZNK14altered_carbon2js18ACAstStatementNode6acceptEPNS0_14ACAstVisitableE to i8*), i8* bitcast (void (%"class.std::__1::basic_string"*, %"class.altered_carbon::js::ACAstBaseNode"*)* @_ZNK14altered_carbon2js13ACAstBaseNode10identifierEv to i8*), i8* bitcast (i32 (%"class.altered_carbon::js::ACAstBaseNode"*)* @_ZNK14altered_carbon2js13ACAstBaseNode10precedenceEv to i8*), i8* bitcast (i32 (%"class.altered_carbon::js::ACAstBaseNode"*)* @_ZNK14altered_carbon2js13ACAstBaseNode2opEv to i8*), i8* bitcast (i1 (%"class.altered_carbon::js::ACAstBaseNode"*)* @_ZN14altered_carbon2js13ACAstBaseNode14convertToParamEv to i8*), i8* bitcast (i1 (%"class.altered_carbon::js::ACAstBaseNode"*)* @_ZN14altered_carbon2js13ACAstBaseNode15convertToFormalEv to i8*), i8* bitcast (void (%"class.altered_carbon::js::ACAstBaseNode"*, %"class.std::__1::basic_ostream"*)* @_ZNK14altered_carbon2js13ACAstBaseNode4dumpERNSt3__113basic_ostreamIcNS2_11char_traitsIcEEEE to i8*), i8* bitcast (void (%"class.altered_carbon::js::ACAstBaseNode"*, %"class.std::__1::basic_ostream"*)* @_ZNK14altered_carbon2js13ACAstBaseNode14dumpGraphLabelERNSt3__113basic_ostreamIcNS2_11char_traitsIcEEEE to i8*), i8* bitcast (void (%"class.altered_carbon::js::ACAstStatementNode"*, %"class.std::__1::basic_ostream"*)* @_ZNK14altered_carbon2js18ACAstStatementNode9dumpGraphERNSt3__113basic_ostreamIcNS2_11char_traitsIcEEEE to i8*), i8* bitcast (void (%"class.altered_carbon::js::ACAstWhileStatement"*, %"class.std::__1::basic_ostream"*)* @_ZNK14altered_carbon2js19ACAstWhileStatement14dumpChildNodesERNSt3__113basic_ostreamIcNS2_11char_traitsIcEEEE to i8*)] }, align 8
@_ZTVN14altered_carbon2js17ACAstForStatementE = unnamed_addr constant { [14 x i8*] } { [14 x i8*] [i8* null, i8* bitcast ({ i8*, i8*, i8* }* @_ZTIN14altered_carbon2js17ACAstForStatementE to i8*), i8* bitcast (void (%"class.altered_carbon::js::ACAstForStatement"*)* @_ZN14altered_carbon2js17ACAstForStatementD1Ev to i8*), i8* bitcast (void (%"class.altered_carbon::js::ACAstForStatement"*)* @_ZN14altered_carbon2js17ACAstForStatementD0Ev to i8*), i8* bitcast (i8* (%"class.altered_carbon::js::ACAstStatementNode"*, %"class.altered_carbon::js::ACAstVisitable"*)* @_ZNK14altered_carbon2js18ACAstStatementNode6acceptEPNS0_14ACAstVisitableE to i8*), i8* bitcast (void (%"class.std::__1::basic_string"*, %"class.altered_carbon::js::ACAstBaseNode"*)* @_ZNK14altered_carbon2js13ACAstBaseNode10identifierEv to i8*), i8* bitcast (i32 (%"class.altered_carbon::js::ACAstBaseNode"*)* @_ZNK14altered_carbon2js13ACAstBaseNode10precedenceEv to i8*), i8* bitcast (i32 (%"class.altered_carbon::js::ACAstBaseNode"*)* @_ZNK14altered_carbon2js13ACAstBaseNode2opEv to i8*), i8* bitcast (i1 (%"class.altered_carbon::js::ACAstBaseNode"*)* @_ZN14altered_carbon2js13ACAstBaseNode14convertToParamEv to i8*), i8* bitcast (i1 (%"class.altered_carbon::js::ACAstBaseNode"*)* @_ZN14altered_carbon2js13ACAstBaseNode15convertToFormalEv to i8*), i8* bitcast (void (%"class.altered_carbon::js::ACAstBaseNode"*, %"class.std::__1::basic_ostream"*)* @_ZNK14altered_carbon2js13ACAstBaseNode4dumpERNSt3__113basic_ostreamIcNS2_11char_traitsIcEEEE to i8*), i8* bitcast (void (%"class.altered_carbon::js::ACAstBaseNode"*, %"class.std::__1::basic_ostream"*)* @_ZNK14altered_carbon2js13ACAstBaseNode14dumpGraphLabelERNSt3__113basic_ostreamIcNS2_11char_traitsIcEEEE to i8*), i8* bitcast (void (%"class.altered_carbon::js::ACAstStatementNode"*, %"class.std::__1::basic_ostream"*)* @_ZNK14altered_carbon2js18ACAstStatementNode9dumpGraphERNSt3__113basic_ostreamIcNS2_11char_traitsIcEEEE to i8*), i8* bitcast (void (%"class.altered_carbon::js::ACAstForStatement"*, %"class.std::__1::basic_ostream"*)* @_ZNK14altered_carbon2js17ACAstForStatement14dumpChildNodesERNSt3__113basic_ostreamIcNS2_11char_traitsIcEEEE to i8*)] }, align 8
@.str.14 = private unnamed_addr constant [8 x i8] c"*FOR* (\00", align 1
@.str.15 = private unnamed_addr constant [6 x i8] c" *;* \00", align 1
@.str.16 = private unnamed_addr constant [3 x i8] c" )\00", align 1
@_ZTVN14altered_carbon2js19ACAstForInStatementE = unnamed_addr constant { [14 x i8*] } { [14 x i8*] [i8* null, i8* bitcast ({ i8*, i8*, i8* }* @_ZTIN14altered_carbon2js19ACAstForInStatementE to i8*), i8* bitcast (void (%"class.altered_carbon::js::ACAstForInStatement"*)* @_ZN14altered_carbon2js19ACAstForInStatementD1Ev to i8*), i8* bitcast (void (%"class.altered_carbon::js::ACAstForInStatement"*)* @_ZN14altered_carbon2js19ACAstForInStatementD0Ev to i8*), i8* bitcast (i8* (%"class.altered_carbon::js::ACAstStatementNode"*, %"class.altered_carbon::js::ACAstVisitable"*)* @_ZNK14altered_carbon2js18ACAstStatementNode6acceptEPNS0_14ACAstVisitableE to i8*), i8* bitcast (void (%"class.std::__1::basic_string"*, %"class.altered_carbon::js::ACAstBaseNode"*)* @_ZNK14altered_carbon2js13ACAstBaseNode10identifierEv to i8*), i8* bitcast (i32 (%"class.altered_carbon::js::ACAstBaseNode"*)* @_ZNK14altered_carbon2js13ACAstBaseNode10precedenceEv to i8*), i8* bitcast (i32 (%"class.altered_carbon::js::ACAstBaseNode"*)* @_ZNK14altered_carbon2js13ACAstBaseNode2opEv to i8*), i8* bitcast (i1 (%"class.altered_carbon::js::ACAstBaseNode"*)* @_ZN14altered_carbon2js13ACAstBaseNode14convertToParamEv to i8*), i8* bitcast (i1 (%"class.altered_carbon::js::ACAstBaseNode"*)* @_ZN14altered_carbon2js13ACAstBaseNode15convertToFormalEv to i8*), i8* bitcast (void (%"class.altered_carbon::js::ACAstBaseNode"*, %"class.std::__1::basic_ostream"*)* @_ZNK14altered_carbon2js13ACAstBaseNode4dumpERNSt3__113basic_ostreamIcNS2_11char_traitsIcEEEE to i8*), i8* bitcast (void (%"class.altered_carbon::js::ACAstBaseNode"*, %"class.std::__1::basic_ostream"*)* @_ZNK14altered_carbon2js13ACAstBaseNode14dumpGraphLabelERNSt3__113basic_ostreamIcNS2_11char_traitsIcEEEE to i8*), i8* bitcast (void (%"class.altered_carbon::js::ACAstStatementNode"*, %"class.std::__1::basic_ostream"*)* @_ZNK14altered_carbon2js18ACAstStatementNode9dumpGraphERNSt3__113basic_ostreamIcNS2_11char_traitsIcEEEE to i8*), i8* bitcast (void (%"class.altered_carbon::js::ACAstForInStatement"*, %"class.std::__1::basic_ostream"*)* @_ZNK14altered_carbon2js19ACAstForInStatement14dumpChildNodesERNSt3__113basic_ostreamIcNS2_11char_traitsIcEEEE to i8*)] }, align 8
@.str.17 = private unnamed_addr constant [7 x i8] c" *IN* \00", align 1
@_ZTVN14altered_carbon2js20ACAstReturnStatementE = unnamed_addr constant { [14 x i8*] } { [14 x i8*] [i8* null, i8* bitcast ({ i8*, i8*, i8* }* @_ZTIN14altered_carbon2js20ACAstReturnStatementE to i8*), i8* bitcast (void (%"class.altered_carbon::js::ACAstReturnStatement"*)* @_ZN14altered_carbon2js20ACAstReturnStatementD1Ev to i8*), i8* bitcast (void (%"class.altered_carbon::js::ACAstReturnStatement"*)* @_ZN14altered_carbon2js20ACAstReturnStatementD0Ev to i8*), i8* bitcast (i8* (%"class.altered_carbon::js::ACAstStatementNode"*, %"class.altered_carbon::js::ACAstVisitable"*)* @_ZNK14altered_carbon2js18ACAstStatementNode6acceptEPNS0_14ACAstVisitableE to i8*), i8* bitcast (void (%"class.std::__1::basic_string"*, %"class.altered_carbon::js::ACAstBaseNode"*)* @_ZNK14altered_carbon2js13ACAstBaseNode10identifierEv to i8*), i8* bitcast (i32 (%"class.altered_carbon::js::ACAstBaseNode"*)* @_ZNK14altered_carbon2js13ACAstBaseNode10precedenceEv to i8*), i8* bitcast (i32 (%"class.altered_carbon::js::ACAstBaseNode"*)* @_ZNK14altered_carbon2js13ACAstBaseNode2opEv to i8*), i8* bitcast (i1 (%"class.altered_carbon::js::ACAstBaseNode"*)* @_ZN14altered_carbon2js13ACAstBaseNode14convertToParamEv to i8*), i8* bitcast (i1 (%"class.altered_carbon::js::ACAstBaseNode"*)* @_ZN14altered_carbon2js13ACAstBaseNode15convertToFormalEv to i8*), i8* bitcast (void (%"class.altered_carbon::js::ACAstBaseNode"*, %"class.std::__1::basic_ostream"*)* @_ZNK14altered_carbon2js13ACAstBaseNode4dumpERNSt3__113basic_ostreamIcNS2_11char_traitsIcEEEE to i8*), i8* bitcast (void (%"class.altered_carbon::js::ACAstBaseNode"*, %"class.std::__1::basic_ostream"*)* @_ZNK14altered_carbon2js13ACAstBaseNode14dumpGraphLabelERNSt3__113basic_ostreamIcNS2_11char_traitsIcEEEE to i8*), i8* bitcast (void (%"class.altered_carbon::js::ACAstStatementNode"*, %"class.std::__1::basic_ostream"*)* @_ZNK14altered_carbon2js18ACAstStatementNode9dumpGraphERNSt3__113basic_ostreamIcNS2_11char_traitsIcEEEE to i8*), i8* bitcast (void (%"class.altered_carbon::js::ACAstReturnStatement"*, %"class.std::__1::basic_ostream"*)* @_ZNK14altered_carbon2js20ACAstReturnStatement14dumpChildNodesERNSt3__113basic_ostreamIcNS2_11char_traitsIcEEEE to i8*)] }, align 8
@.str.18 = private unnamed_addr constant [9 x i8] c"*RETURN*\00", align 1
@_ZTVN14altered_carbon2js22ACAstContinueStatementE = unnamed_addr constant { [14 x i8*] } { [14 x i8*] [i8* null, i8* bitcast ({ i8*, i8*, i8* }* @_ZTIN14altered_carbon2js22ACAstContinueStatementE to i8*), i8* bitcast (void (%"class.altered_carbon::js::ACAstContinueStatement"*)* @_ZN14altered_carbon2js22ACAstContinueStatementD1Ev to i8*), i8* bitcast (void (%"class.altered_carbon::js::ACAstContinueStatement"*)* @_ZN14altered_carbon2js22ACAstContinueStatementD0Ev to i8*), i8* bitcast (i8* (%"class.altered_carbon::js::ACAstStatementNode"*, %"class.altered_carbon::js::ACAstVisitable"*)* @_ZNK14altered_carbon2js18ACAstStatementNode6acceptEPNS0_14ACAstVisitableE to i8*), i8* bitcast (void (%"class.std::__1::basic_string"*, %"class.altered_carbon::js::ACAstBaseNode"*)* @_ZNK14altered_carbon2js13ACAstBaseNode10identifierEv to i8*), i8* bitcast (i32 (%"class.altered_carbon::js::ACAstBaseNode"*)* @_ZNK14altered_carbon2js13ACAstBaseNode10precedenceEv to i8*), i8* bitcast (i32 (%"class.altered_carbon::js::ACAstBaseNode"*)* @_ZNK14altered_carbon2js13ACAstBaseNode2opEv to i8*), i8* bitcast (i1 (%"class.altered_carbon::js::ACAstBaseNode"*)* @_ZN14altered_carbon2js13ACAstBaseNode14convertToParamEv to i8*), i8* bitcast (i1 (%"class.altered_carbon::js::ACAstBaseNode"*)* @_ZN14altered_carbon2js13ACAstBaseNode15convertToFormalEv to i8*), i8* bitcast (void (%"class.altered_carbon::js::ACAstBaseNode"*, %"class.std::__1::basic_ostream"*)* @_ZNK14altered_carbon2js13ACAstBaseNode4dumpERNSt3__113basic_ostreamIcNS2_11char_traitsIcEEEE to i8*), i8* bitcast (void (%"class.altered_carbon::js::ACAstBaseNode"*, %"class.std::__1::basic_ostream"*)* @_ZNK14altered_carbon2js13ACAstBaseNode14dumpGraphLabelERNSt3__113basic_ostreamIcNS2_11char_traitsIcEEEE to i8*), i8* bitcast (void (%"class.altered_carbon::js::ACAstStatementNode"*, %"class.std::__1::basic_ostream"*)* @_ZNK14altered_carbon2js18ACAstStatementNode9dumpGraphERNSt3__113basic_ostreamIcNS2_11char_traitsIcEEEE to i8*), i8* bitcast (void (%"class.altered_carbon::js::ACAstContinueStatement"*, %"class.std::__1::basic_ostream"*)* @_ZNK14altered_carbon2js22ACAstContinueStatement14dumpChildNodesERNSt3__113basic_ostreamIcNS2_11char_traitsIcEEEE to i8*)] }, align 8
@_ZTVN14altered_carbon2js19ACAstBreakStatementE = unnamed_addr constant { [14 x i8*] } { [14 x i8*] [i8* null, i8* bitcast ({ i8*, i8*, i8* }* @_ZTIN14altered_carbon2js19ACAstBreakStatementE to i8*), i8* bitcast (void (%"class.altered_carbon::js::ACAstBreakStatement"*)* @_ZN14altered_carbon2js19ACAstBreakStatementD1Ev to i8*), i8* bitcast (void (%"class.altered_carbon::js::ACAstBreakStatement"*)* @_ZN14altered_carbon2js19ACAstBreakStatementD0Ev to i8*), i8* bitcast (i8* (%"class.altered_carbon::js::ACAstStatementNode"*, %"class.altered_carbon::js::ACAstVisitable"*)* @_ZNK14altered_carbon2js18ACAstStatementNode6acceptEPNS0_14ACAstVisitableE to i8*), i8* bitcast (void (%"class.std::__1::basic_string"*, %"class.altered_carbon::js::ACAstBaseNode"*)* @_ZNK14altered_carbon2js13ACAstBaseNode10identifierEv to i8*), i8* bitcast (i32 (%"class.altered_carbon::js::ACAstBaseNode"*)* @_ZNK14altered_carbon2js13ACAstBaseNode10precedenceEv to i8*), i8* bitcast (i32 (%"class.altered_carbon::js::ACAstBaseNode"*)* @_ZNK14altered_carbon2js13ACAstBaseNode2opEv to i8*), i8* bitcast (i1 (%"class.altered_carbon::js::ACAstBaseNode"*)* @_ZN14altered_carbon2js13ACAstBaseNode14convertToParamEv to i8*), i8* bitcast (i1 (%"class.altered_carbon::js::ACAstBaseNode"*)* @_ZN14altered_carbon2js13ACAstBaseNode15convertToFormalEv to i8*), i8* bitcast (void (%"class.altered_carbon::js::ACAstBaseNode"*, %"class.std::__1::basic_ostream"*)* @_ZNK14altered_carbon2js13ACAstBaseNode4dumpERNSt3__113basic_ostreamIcNS2_11char_traitsIcEEEE to i8*), i8* bitcast (void (%"class.altered_carbon::js::ACAstBaseNode"*, %"class.std::__1::basic_ostream"*)* @_ZNK14altered_carbon2js13ACAstBaseNode14dumpGraphLabelERNSt3__113basic_ostreamIcNS2_11char_traitsIcEEEE to i8*), i8* bitcast (void (%"class.altered_carbon::js::ACAstStatementNode"*, %"class.std::__1::basic_ostream"*)* @_ZNK14altered_carbon2js18ACAstStatementNode9dumpGraphERNSt3__113basic_ostreamIcNS2_11char_traitsIcEEEE to i8*), i8* bitcast (void (%"class.altered_carbon::js::ACAstBreakStatement"*, %"class.std::__1::basic_ostream"*)* @_ZNK14altered_carbon2js19ACAstBreakStatement14dumpChildNodesERNSt3__113basic_ostreamIcNS2_11char_traitsIcEEEE to i8*)] }, align 8
@_ZTVN14altered_carbon2js19ACAstThrowStatementE = unnamed_addr constant { [14 x i8*] } { [14 x i8*] [i8* null, i8* bitcast ({ i8*, i8*, i8* }* @_ZTIN14altered_carbon2js19ACAstThrowStatementE to i8*), i8* bitcast (void (%"class.altered_carbon::js::ACAstThrowStatement"*)* @_ZN14altered_carbon2js19ACAstThrowStatementD1Ev to i8*), i8* bitcast (void (%"class.altered_carbon::js::ACAstThrowStatement"*)* @_ZN14altered_carbon2js19ACAstThrowStatementD0Ev to i8*), i8* bitcast (i8* (%"class.altered_carbon::js::ACAstStatementNode"*, %"class.altered_carbon::js::ACAstVisitable"*)* @_ZNK14altered_carbon2js18ACAstStatementNode6acceptEPNS0_14ACAstVisitableE to i8*), i8* bitcast (void (%"class.std::__1::basic_string"*, %"class.altered_carbon::js::ACAstBaseNode"*)* @_ZNK14altered_carbon2js13ACAstBaseNode10identifierEv to i8*), i8* bitcast (i32 (%"class.altered_carbon::js::ACAstBaseNode"*)* @_ZNK14altered_carbon2js13ACAstBaseNode10precedenceEv to i8*), i8* bitcast (i32 (%"class.altered_carbon::js::ACAstBaseNode"*)* @_ZNK14altered_carbon2js13ACAstBaseNode2opEv to i8*), i8* bitcast (i1 (%"class.altered_carbon::js::ACAstBaseNode"*)* @_ZN14altered_carbon2js13ACAstBaseNode14convertToParamEv to i8*), i8* bitcast (i1 (%"class.altered_carbon::js::ACAstBaseNode"*)* @_ZN14altered_carbon2js13ACAstBaseNode15convertToFormalEv to i8*), i8* bitcast (void (%"class.altered_carbon::js::ACAstBaseNode"*, %"class.std::__1::basic_ostream"*)* @_ZNK14altered_carbon2js13ACAstBaseNode4dumpERNSt3__113basic_ostreamIcNS2_11char_traitsIcEEEE to i8*), i8* bitcast (void (%"class.altered_carbon::js::ACAstBaseNode"*, %"class.std::__1::basic_ostream"*)* @_ZNK14altered_carbon2js13ACAstBaseNode14dumpGraphLabelERNSt3__113basic_ostreamIcNS2_11char_traitsIcEEEE to i8*), i8* bitcast (void (%"class.altered_carbon::js::ACAstStatementNode"*, %"class.std::__1::basic_ostream"*)* @_ZNK14altered_carbon2js18ACAstStatementNode9dumpGraphERNSt3__113basic_ostreamIcNS2_11char_traitsIcEEEE to i8*), i8* bitcast (void (%"class.altered_carbon::js::ACAstThrowStatement"*, %"class.std::__1::basic_ostream"*)* @_ZNK14altered_carbon2js19ACAstThrowStatement14dumpChildNodesERNSt3__113basic_ostreamIcNS2_11char_traitsIcEEEE to i8*)] }, align 8
@.str.19 = private unnamed_addr constant [8 x i8] c"*THROW*\00", align 1
@_ZTVN14altered_carbon2js22ACAstTryCatchStatementE = unnamed_addr constant { [14 x i8*] } { [14 x i8*] [i8* null, i8* bitcast ({ i8*, i8*, i8* }* @_ZTIN14altered_carbon2js22ACAstTryCatchStatementE to i8*), i8* bitcast (void (%"class.altered_carbon::js::ACAstTryCatchStatement"*)* @_ZN14altered_carbon2js22ACAstTryCatchStatementD1Ev to i8*), i8* bitcast (void (%"class.altered_carbon::js::ACAstTryCatchStatement"*)* @_ZN14altered_carbon2js22ACAstTryCatchStatementD0Ev to i8*), i8* bitcast (i8* (%"class.altered_carbon::js::ACAstStatementNode"*, %"class.altered_carbon::js::ACAstVisitable"*)* @_ZNK14altered_carbon2js18ACAstStatementNode6acceptEPNS0_14ACAstVisitableE to i8*), i8* bitcast (void (%"class.std::__1::basic_string"*, %"class.altered_carbon::js::ACAstBaseNode"*)* @_ZNK14altered_carbon2js13ACAstBaseNode10identifierEv to i8*), i8* bitcast (i32 (%"class.altered_carbon::js::ACAstBaseNode"*)* @_ZNK14altered_carbon2js13ACAstBaseNode10precedenceEv to i8*), i8* bitcast (i32 (%"class.altered_carbon::js::ACAstBaseNode"*)* @_ZNK14altered_carbon2js13ACAstBaseNode2opEv to i8*), i8* bitcast (i1 (%"class.altered_carbon::js::ACAstBaseNode"*)* @_ZN14altered_carbon2js13ACAstBaseNode14convertToParamEv to i8*), i8* bitcast (i1 (%"class.altered_carbon::js::ACAstBaseNode"*)* @_ZN14altered_carbon2js13ACAstBaseNode15convertToFormalEv to i8*), i8* bitcast (void (%"class.altered_carbon::js::ACAstBaseNode"*, %"class.std::__1::basic_ostream"*)* @_ZNK14altered_carbon2js13ACAstBaseNode4dumpERNSt3__113basic_ostreamIcNS2_11char_traitsIcEEEE to i8*), i8* bitcast (void (%"class.altered_carbon::js::ACAstBaseNode"*, %"class.std::__1::basic_ostream"*)* @_ZNK14altered_carbon2js13ACAstBaseNode14dumpGraphLabelERNSt3__113basic_ostreamIcNS2_11char_traitsIcEEEE to i8*), i8* bitcast (void (%"class.altered_carbon::js::ACAstStatementNode"*, %"class.std::__1::basic_ostream"*)* @_ZNK14altered_carbon2js18ACAstStatementNode9dumpGraphERNSt3__113basic_ostreamIcNS2_11char_traitsIcEEEE to i8*), i8* bitcast (void (%"class.altered_carbon::js::ACAstTryCatchStatement"*, %"class.std::__1::basic_ostream"*)* @_ZNK14altered_carbon2js22ACAstTryCatchStatement14dumpChildNodesERNSt3__113basic_ostreamIcNS2_11char_traitsIcEEEE to i8*)] }, align 8
@.str.20 = private unnamed_addr constant [6 x i8] c"*TRY*\00", align 1
@.str.21 = private unnamed_addr constant [8 x i8] c"*CATCH*\00", align 1
@.str.22 = private unnamed_addr constant [10 x i8] c"*FINALLY*\00", align 1
@_ZTVN14altered_carbon2js16ACAstCatchClauseE = unnamed_addr constant { [14 x i8*] } { [14 x i8*] [i8* null, i8* bitcast ({ i8*, i8*, i8* }* @_ZTIN14altered_carbon2js16ACAstCatchClauseE to i8*), i8* bitcast (void (%"class.altered_carbon::js::ACAstCatchClause"*)* @_ZN14altered_carbon2js16ACAstCatchClauseD1Ev to i8*), i8* bitcast (void (%"class.altered_carbon::js::ACAstCatchClause"*)* @_ZN14altered_carbon2js16ACAstCatchClauseD0Ev to i8*), i8* bitcast (i8* (%"class.altered_carbon::js::ACAstStatementNode"*, %"class.altered_carbon::js::ACAstVisitable"*)* @_ZNK14altered_carbon2js18ACAstStatementNode6acceptEPNS0_14ACAstVisitableE to i8*), i8* bitcast (void (%"class.std::__1::basic_string"*, %"class.altered_carbon::js::ACAstBaseNode"*)* @_ZNK14altered_carbon2js13ACAstBaseNode10identifierEv to i8*), i8* bitcast (i32 (%"class.altered_carbon::js::ACAstBaseNode"*)* @_ZNK14altered_carbon2js13ACAstBaseNode10precedenceEv to i8*), i8* bitcast (i32 (%"class.altered_carbon::js::ACAstBaseNode"*)* @_ZNK14altered_carbon2js13ACAstBaseNode2opEv to i8*), i8* bitcast (i1 (%"class.altered_carbon::js::ACAstBaseNode"*)* @_ZN14altered_carbon2js13ACAstBaseNode14convertToParamEv to i8*), i8* bitcast (i1 (%"class.altered_carbon::js::ACAstBaseNode"*)* @_ZN14altered_carbon2js13ACAstBaseNode15convertToFormalEv to i8*), i8* bitcast (void (%"class.altered_carbon::js::ACAstBaseNode"*, %"class.std::__1::basic_ostream"*)* @_ZNK14altered_carbon2js13ACAstBaseNode4dumpERNSt3__113basic_ostreamIcNS2_11char_traitsIcEEEE to i8*), i8* bitcast (void (%"class.altered_carbon::js::ACAstBaseNode"*, %"class.std::__1::basic_ostream"*)* @_ZNK14altered_carbon2js13ACAstBaseNode14dumpGraphLabelERNSt3__113basic_ostreamIcNS2_11char_traitsIcEEEE to i8*), i8* bitcast (void (%"class.altered_carbon::js::ACAstStatementNode"*, %"class.std::__1::basic_ostream"*)* @_ZNK14altered_carbon2js18ACAstStatementNode9dumpGraphERNSt3__113basic_ostreamIcNS2_11char_traitsIcEEEE to i8*), i8* bitcast (void (%"class.altered_carbon::js::ACAstCatchClause"*, %"class.std::__1::basic_ostream"*)* @_ZNK14altered_carbon2js16ACAstCatchClause14dumpChildNodesERNSt3__113basic_ostreamIcNS2_11char_traitsIcEEEE to i8*)] }, align 8
@.str.23 = private unnamed_addr constant [6 x i8] c" *(* \00", align 1
@.str.24 = private unnamed_addr constant [6 x i8] c" *)* \00", align 1
@_ZTVN14altered_carbon2js20ACAstSwitchStatementE = unnamed_addr constant { [14 x i8*] } { [14 x i8*] [i8* null, i8* bitcast ({ i8*, i8*, i8* }* @_ZTIN14altered_carbon2js20ACAstSwitchStatementE to i8*), i8* bitcast (void (%"class.altered_carbon::js::ACAstSwitchStatement"*)* @_ZN14altered_carbon2js20ACAstSwitchStatementD1Ev to i8*), i8* bitcast (void (%"class.altered_carbon::js::ACAstSwitchStatement"*)* @_ZN14altered_carbon2js20ACAstSwitchStatementD0Ev to i8*), i8* bitcast (i8* (%"class.altered_carbon::js::ACAstStatementNode"*, %"class.altered_carbon::js::ACAstVisitable"*)* @_ZNK14altered_carbon2js18ACAstStatementNode6acceptEPNS0_14ACAstVisitableE to i8*), i8* bitcast (void (%"class.std::__1::basic_string"*, %"class.altered_carbon::js::ACAstBaseNode"*)* @_ZNK14altered_carbon2js13ACAstBaseNode10identifierEv to i8*), i8* bitcast (i32 (%"class.altered_carbon::js::ACAstBaseNode"*)* @_ZNK14altered_carbon2js13ACAstBaseNode10precedenceEv to i8*), i8* bitcast (i32 (%"class.altered_carbon::js::ACAstBaseNode"*)* @_ZNK14altered_carbon2js13ACAstBaseNode2opEv to i8*), i8* bitcast (i1 (%"class.altered_carbon::js::ACAstBaseNode"*)* @_ZN14altered_carbon2js13ACAstBaseNode14convertToParamEv to i8*), i8* bitcast (i1 (%"class.altered_carbon::js::ACAstBaseNode"*)* @_ZN14altered_carbon2js13ACAstBaseNode15convertToFormalEv to i8*), i8* bitcast (void (%"class.altered_carbon::js::ACAstBaseNode"*, %"class.std::__1::basic_ostream"*)* @_ZNK14altered_carbon2js13ACAstBaseNode4dumpERNSt3__113basic_ostreamIcNS2_11char_traitsIcEEEE to i8*), i8* bitcast (void (%"class.altered_carbon::js::ACAstBaseNode"*, %"class.std::__1::basic_ostream"*)* @_ZNK14altered_carbon2js13ACAstBaseNode14dumpGraphLabelERNSt3__113basic_ostreamIcNS2_11char_traitsIcEEEE to i8*), i8* bitcast (void (%"class.altered_carbon::js::ACAstStatementNode"*, %"class.std::__1::basic_ostream"*)* @_ZNK14altered_carbon2js18ACAstStatementNode9dumpGraphERNSt3__113basic_ostreamIcNS2_11char_traitsIcEEEE to i8*), i8* bitcast (void (%"class.altered_carbon::js::ACAstSwitchStatement"*, %"class.std::__1::basic_ostream"*)* @_ZNK14altered_carbon2js20ACAstSwitchStatement14dumpChildNodesERNSt3__113basic_ostreamIcNS2_11char_traitsIcEEEE to i8*)] }, align 8
@.str.25 = private unnamed_addr constant [9 x i8] c"*SWITCH*\00", align 1
@.str.26 = private unnamed_addr constant [2 x i8] c"{\00", align 1
@.str.27 = private unnamed_addr constant [2 x i8] c"}\00", align 1
@.str.28 = private unnamed_addr constant [2 x i8] c";\00", align 1
@_ZTVN14altered_carbon2js15ACAstCaseClauseE = unnamed_addr constant { [14 x i8*] } { [14 x i8*] [i8* null, i8* bitcast ({ i8*, i8*, i8* }* @_ZTIN14altered_carbon2js15ACAstCaseClauseE to i8*), i8* bitcast (void (%"class.altered_carbon::js::ACAstCaseClause"*)* @_ZN14altered_carbon2js15ACAstCaseClauseD1Ev to i8*), i8* bitcast (void (%"class.altered_carbon::js::ACAstCaseClause"*)* @_ZN14altered_carbon2js15ACAstCaseClauseD0Ev to i8*), i8* bitcast (i8* (%"class.altered_carbon::js::ACAstStatementNode"*, %"class.altered_carbon::js::ACAstVisitable"*)* @_ZNK14altered_carbon2js18ACAstStatementNode6acceptEPNS0_14ACAstVisitableE to i8*), i8* bitcast (void (%"class.std::__1::basic_string"*, %"class.altered_carbon::js::ACAstBaseNode"*)* @_ZNK14altered_carbon2js13ACAstBaseNode10identifierEv to i8*), i8* bitcast (i32 (%"class.altered_carbon::js::ACAstBaseNode"*)* @_ZNK14altered_carbon2js13ACAstBaseNode10precedenceEv to i8*), i8* bitcast (i32 (%"class.altered_carbon::js::ACAstBaseNode"*)* @_ZNK14altered_carbon2js13ACAstBaseNode2opEv to i8*), i8* bitcast (i1 (%"class.altered_carbon::js::ACAstBaseNode"*)* @_ZN14altered_carbon2js13ACAstBaseNode14convertToParamEv to i8*), i8* bitcast (i1 (%"class.altered_carbon::js::ACAstBaseNode"*)* @_ZN14altered_carbon2js13ACAstBaseNode15convertToFormalEv to i8*), i8* bitcast (void (%"class.altered_carbon::js::ACAstBaseNode"*, %"class.std::__1::basic_ostream"*)* @_ZNK14altered_carbon2js13ACAstBaseNode4dumpERNSt3__113basic_ostreamIcNS2_11char_traitsIcEEEE to i8*), i8* bitcast (void (%"class.altered_carbon::js::ACAstBaseNode"*, %"class.std::__1::basic_ostream"*)* @_ZNK14altered_carbon2js13ACAstBaseNode14dumpGraphLabelERNSt3__113basic_ostreamIcNS2_11char_traitsIcEEEE to i8*), i8* bitcast (void (%"class.altered_carbon::js::ACAstStatementNode"*, %"class.std::__1::basic_ostream"*)* @_ZNK14altered_carbon2js18ACAstStatementNode9dumpGraphERNSt3__113basic_ostreamIcNS2_11char_traitsIcEEEE to i8*), i8* bitcast (void (%"class.altered_carbon::js::ACAstCaseClause"*, %"class.std::__1::basic_ostream"*)* @_ZNK14altered_carbon2js15ACAstCaseClause14dumpChildNodesERNSt3__113basic_ostreamIcNS2_11char_traitsIcEEEE to i8*)] }, align 8
@.str.29 = private unnamed_addr constant [7 x i8] c"*CASE*\00", align 1
@.str.30 = private unnamed_addr constant [6 x i8] c" *:* \00", align 1
@.str.31 = private unnamed_addr constant [11 x i8] c"*DEFAULT:*\00", align 1
@_ZTVN14altered_carbon2js21ACAstLabeledStatementE = unnamed_addr constant { [14 x i8*] } { [14 x i8*] [i8* null, i8* bitcast ({ i8*, i8*, i8* }* @_ZTIN14altered_carbon2js21ACAstLabeledStatementE to i8*), i8* bitcast (void (%"class.altered_carbon::js::ACAstLabeledStatement"*)* @_ZN14altered_carbon2js21ACAstLabeledStatementD1Ev to i8*), i8* bitcast (void (%"class.altered_carbon::js::ACAstLabeledStatement"*)* @_ZN14altered_carbon2js21ACAstLabeledStatementD0Ev to i8*), i8* bitcast (i8* (%"class.altered_carbon::js::ACAstStatementNode"*, %"class.altered_carbon::js::ACAstVisitable"*)* @_ZNK14altered_carbon2js18ACAstStatementNode6acceptEPNS0_14ACAstVisitableE to i8*), i8* bitcast (void (%"class.std::__1::basic_string"*, %"class.altered_carbon::js::ACAstBaseNode"*)* @_ZNK14altered_carbon2js13ACAstBaseNode10identifierEv to i8*), i8* bitcast (i32 (%"class.altered_carbon::js::ACAstBaseNode"*)* @_ZNK14altered_carbon2js13ACAstBaseNode10precedenceEv to i8*), i8* bitcast (i32 (%"class.altered_carbon::js::ACAstBaseNode"*)* @_ZNK14altered_carbon2js13ACAstBaseNode2opEv to i8*), i8* bitcast (i1 (%"class.altered_carbon::js::ACAstBaseNode"*)* @_ZN14altered_carbon2js13ACAstBaseNode14convertToParamEv to i8*), i8* bitcast (i1 (%"class.altered_carbon::js::ACAstBaseNode"*)* @_ZN14altered_carbon2js13ACAstBaseNode15convertToFormalEv to i8*), i8* bitcast (void (%"class.altered_carbon::js::ACAstBaseNode"*, %"class.std::__1::basic_ostream"*)* @_ZNK14altered_carbon2js13ACAstBaseNode4dumpERNSt3__113basic_ostreamIcNS2_11char_traitsIcEEEE to i8*), i8* bitcast (void (%"class.altered_carbon::js::ACAstBaseNode"*, %"class.std::__1::basic_ostream"*)* @_ZNK14altered_carbon2js13ACAstBaseNode14dumpGraphLabelERNSt3__113basic_ostreamIcNS2_11char_traitsIcEEEE to i8*), i8* bitcast (void (%"class.altered_carbon::js::ACAstStatementNode"*, %"class.std::__1::basic_ostream"*)* @_ZNK14altered_carbon2js18ACAstStatementNode9dumpGraphERNSt3__113basic_ostreamIcNS2_11char_traitsIcEEEE to i8*), i8* bitcast (void (%"class.altered_carbon::js::ACAstLabeledStatement"*, %"class.std::__1::basic_ostream"*)* @_ZNK14altered_carbon2js21ACAstLabeledStatement14dumpChildNodesERNSt3__113basic_ostreamIcNS2_11char_traitsIcEEEE to i8*)] }, align 8
@_ZTVN14altered_carbon2js19ACAstEmptyStatementE = unnamed_addr constant { [14 x i8*] } { [14 x i8*] [i8* null, i8* bitcast ({ i8*, i8*, i8* }* @_ZTIN14altered_carbon2js19ACAstEmptyStatementE to i8*), i8* bitcast (void (%"class.altered_carbon::js::ACAstEmptyStatement"*)* @_ZN14altered_carbon2js19ACAstEmptyStatementD1Ev to i8*), i8* bitcast (void (%"class.altered_carbon::js::ACAstEmptyStatement"*)* @_ZN14altered_carbon2js19ACAstEmptyStatementD0Ev to i8*), i8* bitcast (i8* (%"class.altered_carbon::js::ACAstStatementNode"*, %"class.altered_carbon::js::ACAstVisitable"*)* @_ZNK14altered_carbon2js18ACAstStatementNode6acceptEPNS0_14ACAstVisitableE to i8*), i8* bitcast (void (%"class.std::__1::basic_string"*, %"class.altered_carbon::js::ACAstBaseNode"*)* @_ZNK14altered_carbon2js13ACAstBaseNode10identifierEv to i8*), i8* bitcast (i32 (%"class.altered_carbon::js::ACAstBaseNode"*)* @_ZNK14altered_carbon2js13ACAstBaseNode10precedenceEv to i8*), i8* bitcast (i32 (%"class.altered_carbon::js::ACAstBaseNode"*)* @_ZNK14altered_carbon2js13ACAstBaseNode2opEv to i8*), i8* bitcast (i1 (%"class.altered_carbon::js::ACAstBaseNode"*)* @_ZN14altered_carbon2js13ACAstBaseNode14convertToParamEv to i8*), i8* bitcast (i1 (%"class.altered_carbon::js::ACAstBaseNode"*)* @_ZN14altered_carbon2js13ACAstBaseNode15convertToFormalEv to i8*), i8* bitcast (void (%"class.altered_carbon::js::ACAstBaseNode"*, %"class.std::__1::basic_ostream"*)* @_ZNK14altered_carbon2js13ACAstBaseNode4dumpERNSt3__113basic_ostreamIcNS2_11char_traitsIcEEEE to i8*), i8* bitcast (void (%"class.altered_carbon::js::ACAstBaseNode"*, %"class.std::__1::basic_ostream"*)* @_ZNK14altered_carbon2js13ACAstBaseNode14dumpGraphLabelERNSt3__113basic_ostreamIcNS2_11char_traitsIcEEEE to i8*), i8* bitcast (void (%"class.altered_carbon::js::ACAstStatementNode"*, %"class.std::__1::basic_ostream"*)* @_ZNK14altered_carbon2js18ACAstStatementNode9dumpGraphERNSt3__113basic_ostreamIcNS2_11char_traitsIcEEEE to i8*), i8* bitcast (void (%"class.altered_carbon::js::ACAstEmptyStatement"*, %"class.std::__1::basic_ostream"*)* @_ZNK14altered_carbon2js19ACAstEmptyStatement14dumpChildNodesERNSt3__113basic_ostreamIcNS2_11char_traitsIcEEEE to i8*)] }, align 8
@.str.32 = private unnamed_addr constant [4 x i8] c"*;*\00", align 1
@_ZTVN14altered_carbon2js22ACAstDebuggerStatementE = unnamed_addr constant { [14 x i8*] } { [14 x i8*] [i8* null, i8* bitcast ({ i8*, i8*, i8* }* @_ZTIN14altered_carbon2js22ACAstDebuggerStatementE to i8*), i8* bitcast (void (%"class.altered_carbon::js::ACAstDebuggerStatement"*)* @_ZN14altered_carbon2js22ACAstDebuggerStatementD1Ev to i8*), i8* bitcast (void (%"class.altered_carbon::js::ACAstDebuggerStatement"*)* @_ZN14altered_carbon2js22ACAstDebuggerStatementD0Ev to i8*), i8* bitcast (i8* (%"class.altered_carbon::js::ACAstStatementNode"*, %"class.altered_carbon::js::ACAstVisitable"*)* @_ZNK14altered_carbon2js18ACAstStatementNode6acceptEPNS0_14ACAstVisitableE to i8*), i8* bitcast (void (%"class.std::__1::basic_string"*, %"class.altered_carbon::js::ACAstBaseNode"*)* @_ZNK14altered_carbon2js13ACAstBaseNode10identifierEv to i8*), i8* bitcast (i32 (%"class.altered_carbon::js::ACAstBaseNode"*)* @_ZNK14altered_carbon2js13ACAstBaseNode10precedenceEv to i8*), i8* bitcast (i32 (%"class.altered_carbon::js::ACAstBaseNode"*)* @_ZNK14altered_carbon2js13ACAstBaseNode2opEv to i8*), i8* bitcast (i1 (%"class.altered_carbon::js::ACAstBaseNode"*)* @_ZN14altered_carbon2js13ACAstBaseNode14convertToParamEv to i8*), i8* bitcast (i1 (%"class.altered_carbon::js::ACAstBaseNode"*)* @_ZN14altered_carbon2js13ACAstBaseNode15convertToFormalEv to i8*), i8* bitcast (void (%"class.altered_carbon::js::ACAstBaseNode"*, %"class.std::__1::basic_ostream"*)* @_ZNK14altered_carbon2js13ACAstBaseNode4dumpERNSt3__113basic_ostreamIcNS2_11char_traitsIcEEEE to i8*), i8* bitcast (void (%"class.altered_carbon::js::ACAstBaseNode"*, %"class.std::__1::basic_ostream"*)* @_ZNK14altered_carbon2js13ACAstBaseNode14dumpGraphLabelERNSt3__113basic_ostreamIcNS2_11char_traitsIcEEEE to i8*), i8* bitcast (void (%"class.altered_carbon::js::ACAstStatementNode"*, %"class.std::__1::basic_ostream"*)* @_ZNK14altered_carbon2js18ACAstStatementNode9dumpGraphERNSt3__113basic_ostreamIcNS2_11char_traitsIcEEEE to i8*), i8* bitcast (void (%"class.altered_carbon::js::ACAstDebuggerStatement"*, %"class.std::__1::basic_ostream"*)* @_ZNK14altered_carbon2js22ACAstDebuggerStatement14dumpChildNodesERNSt3__113basic_ostreamIcNS2_11char_traitsIcEEEE to i8*)] }, align 8
@.str.33 = private unnamed_addr constant [11 x i8] c"*DEBUGGER*\00", align 1
@_ZTVN10__cxxabiv120__si_class_type_infoE = external global i8*
@_ZTSN14altered_carbon2js24ACAstExpressionStatementE = constant [48 x i8] c"N14altered_carbon2js24ACAstExpressionStatementE\00"
@_ZTIN14altered_carbon2js18ACAstStatementNodeE = external constant i8*
@_ZTIN14altered_carbon2js24ACAstExpressionStatementE = constant { i8*, i8*, i8* } { i8* bitcast (i8** getelementptr inbounds (i8*, i8** @_ZTVN10__cxxabiv120__si_class_type_infoE, i64 2) to i8*), i8* getelementptr inbounds ([48 x i8], [48 x i8]* @_ZTSN14altered_carbon2js24ACAstExpressionStatementE, i32 0, i32 0), i8* bitcast (i8** @_ZTIN14altered_carbon2js18ACAstStatementNodeE to i8*) }
@_ZTSN14altered_carbon2js20ACAstIfElseStatementE = constant [44 x i8] c"N14altered_carbon2js20ACAstIfElseStatementE\00"
@_ZTIN14altered_carbon2js20ACAstIfElseStatementE = constant { i8*, i8*, i8* } { i8* bitcast (i8** getelementptr inbounds (i8*, i8** @_ZTVN10__cxxabiv120__si_class_type_infoE, i64 2) to i8*), i8* getelementptr inbounds ([44 x i8], [44 x i8]* @_ZTSN14altered_carbon2js20ACAstIfElseStatementE, i32 0, i32 0), i8* bitcast (i8** @_ZTIN14altered_carbon2js18ACAstStatementNodeE to i8*) }
@_ZTSN14altered_carbon2js25ACAstVariableDeclListStmtE = constant [49 x i8] c"N14altered_carbon2js25ACAstVariableDeclListStmtE\00"
@_ZTIN14altered_carbon2js25ACAstVariableDeclListStmtE = constant { i8*, i8*, i8* } { i8* bitcast (i8** getelementptr inbounds (i8*, i8** @_ZTVN10__cxxabiv120__si_class_type_infoE, i64 2) to i8*), i8* getelementptr inbounds ([49 x i8], [49 x i8]* @_ZTSN14altered_carbon2js25ACAstVariableDeclListStmtE, i32 0, i32 0), i8* bitcast (i8** @_ZTIN14altered_carbon2js18ACAstStatementNodeE to i8*) }
@_ZTSN14altered_carbon2js24ACAstLexicalDeclListStmtE = constant [48 x i8] c"N14altered_carbon2js24ACAstLexicalDeclListStmtE\00"
@_ZTIN14altered_carbon2js24ACAstLexicalDeclListStmtE = constant { i8*, i8*, i8* } { i8* bitcast (i8** getelementptr inbounds (i8*, i8** @_ZTVN10__cxxabiv120__si_class_type_infoE, i64 2) to i8*), i8* getelementptr inbounds ([48 x i8], [48 x i8]* @_ZTSN14altered_carbon2js24ACAstLexicalDeclListStmtE, i32 0, i32 0), i8* bitcast ({ i8*, i8*, i8* }* @_ZTIN14altered_carbon2js25ACAstVariableDeclListStmtE to i8*) }
@_ZTSN14altered_carbon2js21ACAstDoWhileStatementE = constant [45 x i8] c"N14altered_carbon2js21ACAstDoWhileStatementE\00"
@_ZTIN14altered_carbon2js21ACAstDoWhileStatementE = constant { i8*, i8*, i8* } { i8* bitcast (i8** getelementptr inbounds (i8*, i8** @_ZTVN10__cxxabiv120__si_class_type_infoE, i64 2) to i8*), i8* getelementptr inbounds ([45 x i8], [45 x i8]* @_ZTSN14altered_carbon2js21ACAstDoWhileStatementE, i32 0, i32 0), i8* bitcast (i8** @_ZTIN14altered_carbon2js18ACAstStatementNodeE to i8*) }
@_ZTSN14altered_carbon2js19ACAstWhileStatementE = constant [43 x i8] c"N14altered_carbon2js19ACAstWhileStatementE\00"
@_ZTIN14altered_carbon2js19ACAstWhileStatementE = constant { i8*, i8*, i8* } { i8* bitcast (i8** getelementptr inbounds (i8*, i8** @_ZTVN10__cxxabiv120__si_class_type_infoE, i64 2) to i8*), i8* getelementptr inbounds ([43 x i8], [43 x i8]* @_ZTSN14altered_carbon2js19ACAstWhileStatementE, i32 0, i32 0), i8* bitcast (i8** @_ZTIN14altered_carbon2js18ACAstStatementNodeE to i8*) }
@_ZTSN14altered_carbon2js17ACAstForStatementE = constant [41 x i8] c"N14altered_carbon2js17ACAstForStatementE\00"
@_ZTIN14altered_carbon2js17ACAstForStatementE = constant { i8*, i8*, i8* } { i8* bitcast (i8** getelementptr inbounds (i8*, i8** @_ZTVN10__cxxabiv120__si_class_type_infoE, i64 2) to i8*), i8* getelementptr inbounds ([41 x i8], [41 x i8]* @_ZTSN14altered_carbon2js17ACAstForStatementE, i32 0, i32 0), i8* bitcast (i8** @_ZTIN14altered_carbon2js18ACAstStatementNodeE to i8*) }
@_ZTSN14altered_carbon2js19ACAstForInStatementE = constant [43 x i8] c"N14altered_carbon2js19ACAstForInStatementE\00"
@_ZTIN14altered_carbon2js19ACAstForInStatementE = constant { i8*, i8*, i8* } { i8* bitcast (i8** getelementptr inbounds (i8*, i8** @_ZTVN10__cxxabiv120__si_class_type_infoE, i64 2) to i8*), i8* getelementptr inbounds ([43 x i8], [43 x i8]* @_ZTSN14altered_carbon2js19ACAstForInStatementE, i32 0, i32 0), i8* bitcast (i8** @_ZTIN14altered_carbon2js18ACAstStatementNodeE to i8*) }
@_ZTSN14altered_carbon2js20ACAstReturnStatementE = constant [44 x i8] c"N14altered_carbon2js20ACAstReturnStatementE\00"
@_ZTIN14altered_carbon2js20ACAstReturnStatementE = constant { i8*, i8*, i8* } { i8* bitcast (i8** getelementptr inbounds (i8*, i8** @_ZTVN10__cxxabiv120__si_class_type_infoE, i64 2) to i8*), i8* getelementptr inbounds ([44 x i8], [44 x i8]* @_ZTSN14altered_carbon2js20ACAstReturnStatementE, i32 0, i32 0), i8* bitcast (i8** @_ZTIN14altered_carbon2js18ACAstStatementNodeE to i8*) }
@_ZTSN14altered_carbon2js22ACAstContinueStatementE = constant [46 x i8] c"N14altered_carbon2js22ACAstContinueStatementE\00"
@_ZTIN14altered_carbon2js22ACAstContinueStatementE = constant { i8*, i8*, i8* } { i8* bitcast (i8** getelementptr inbounds (i8*, i8** @_ZTVN10__cxxabiv120__si_class_type_infoE, i64 2) to i8*), i8* getelementptr inbounds ([46 x i8], [46 x i8]* @_ZTSN14altered_carbon2js22ACAstContinueStatementE, i32 0, i32 0), i8* bitcast (i8** @_ZTIN14altered_carbon2js18ACAstStatementNodeE to i8*) }
@_ZTSN14altered_carbon2js19ACAstBreakStatementE = constant [43 x i8] c"N14altered_carbon2js19ACAstBreakStatementE\00"
@_ZTIN14altered_carbon2js19ACAstBreakStatementE = constant { i8*, i8*, i8* } { i8* bitcast (i8** getelementptr inbounds (i8*, i8** @_ZTVN10__cxxabiv120__si_class_type_infoE, i64 2) to i8*), i8* getelementptr inbounds ([43 x i8], [43 x i8]* @_ZTSN14altered_carbon2js19ACAstBreakStatementE, i32 0, i32 0), i8* bitcast (i8** @_ZTIN14altered_carbon2js18ACAstStatementNodeE to i8*) }
@_ZTSN14altered_carbon2js19ACAstThrowStatementE = constant [43 x i8] c"N14altered_carbon2js19ACAstThrowStatementE\00"
@_ZTIN14altered_carbon2js19ACAstThrowStatementE = constant { i8*, i8*, i8* } { i8* bitcast (i8** getelementptr inbounds (i8*, i8** @_ZTVN10__cxxabiv120__si_class_type_infoE, i64 2) to i8*), i8* getelementptr inbounds ([43 x i8], [43 x i8]* @_ZTSN14altered_carbon2js19ACAstThrowStatementE, i32 0, i32 0), i8* bitcast (i8** @_ZTIN14altered_carbon2js18ACAstStatementNodeE to i8*) }
@_ZTSN14altered_carbon2js22ACAstTryCatchStatementE = constant [46 x i8] c"N14altered_carbon2js22ACAstTryCatchStatementE\00"
@_ZTIN14altered_carbon2js22ACAstTryCatchStatementE = constant { i8*, i8*, i8* } { i8* bitcast (i8** getelementptr inbounds (i8*, i8** @_ZTVN10__cxxabiv120__si_class_type_infoE, i64 2) to i8*), i8* getelementptr inbounds ([46 x i8], [46 x i8]* @_ZTSN14altered_carbon2js22ACAstTryCatchStatementE, i32 0, i32 0), i8* bitcast (i8** @_ZTIN14altered_carbon2js18ACAstStatementNodeE to i8*) }
@_ZTSN14altered_carbon2js16ACAstCatchClauseE = constant [40 x i8] c"N14altered_carbon2js16ACAstCatchClauseE\00"
@_ZTIN14altered_carbon2js16ACAstCatchClauseE = constant { i8*, i8*, i8* } { i8* bitcast (i8** getelementptr inbounds (i8*, i8** @_ZTVN10__cxxabiv120__si_class_type_infoE, i64 2) to i8*), i8* getelementptr inbounds ([40 x i8], [40 x i8]* @_ZTSN14altered_carbon2js16ACAstCatchClauseE, i32 0, i32 0), i8* bitcast (i8** @_ZTIN14altered_carbon2js18ACAstStatementNodeE to i8*) }
@_ZTSN14altered_carbon2js20ACAstSwitchStatementE = constant [44 x i8] c"N14altered_carbon2js20ACAstSwitchStatementE\00"
@_ZTIN14altered_carbon2js20ACAstSwitchStatementE = constant { i8*, i8*, i8* } { i8* bitcast (i8** getelementptr inbounds (i8*, i8** @_ZTVN10__cxxabiv120__si_class_type_infoE, i64 2) to i8*), i8* getelementptr inbounds ([44 x i8], [44 x i8]* @_ZTSN14altered_carbon2js20ACAstSwitchStatementE, i32 0, i32 0), i8* bitcast (i8** @_ZTIN14altered_carbon2js18ACAstStatementNodeE to i8*) }
@_ZTSN14altered_carbon2js15ACAstCaseClauseE = constant [39 x i8] c"N14altered_carbon2js15ACAstCaseClauseE\00"
@_ZTIN14altered_carbon2js15ACAstCaseClauseE = constant { i8*, i8*, i8* } { i8* bitcast (i8** getelementptr inbounds (i8*, i8** @_ZTVN10__cxxabiv120__si_class_type_infoE, i64 2) to i8*), i8* getelementptr inbounds ([39 x i8], [39 x i8]* @_ZTSN14altered_carbon2js15ACAstCaseClauseE, i32 0, i32 0), i8* bitcast (i8** @_ZTIN14altered_carbon2js18ACAstStatementNodeE to i8*) }
@_ZTSN14altered_carbon2js21ACAstLabeledStatementE = constant [45 x i8] c"N14altered_carbon2js21ACAstLabeledStatementE\00"
@_ZTIN14altered_carbon2js21ACAstLabeledStatementE = constant { i8*, i8*, i8* } { i8* bitcast (i8** getelementptr inbounds (i8*, i8** @_ZTVN10__cxxabiv120__si_class_type_infoE, i64 2) to i8*), i8* getelementptr inbounds ([45 x i8], [45 x i8]* @_ZTSN14altered_carbon2js21ACAstLabeledStatementE, i32 0, i32 0), i8* bitcast (i8** @_ZTIN14altered_carbon2js18ACAstStatementNodeE to i8*) }
@_ZTSN14altered_carbon2js19ACAstEmptyStatementE = constant [43 x i8] c"N14altered_carbon2js19ACAstEmptyStatementE\00"
@_ZTIN14altered_carbon2js19ACAstEmptyStatementE = constant { i8*, i8*, i8* } { i8* bitcast (i8** getelementptr inbounds (i8*, i8** @_ZTVN10__cxxabiv120__si_class_type_infoE, i64 2) to i8*), i8* getelementptr inbounds ([43 x i8], [43 x i8]* @_ZTSN14altered_carbon2js19ACAstEmptyStatementE, i32 0, i32 0), i8* bitcast (i8** @_ZTIN14altered_carbon2js18ACAstStatementNodeE to i8*) }
@_ZTSN14altered_carbon2js22ACAstDebuggerStatementE = constant [46 x i8] c"N14altered_carbon2js22ACAstDebuggerStatementE\00"
@_ZTIN14altered_carbon2js22ACAstDebuggerStatementE = constant { i8*, i8*, i8* } { i8* bitcast (i8** getelementptr inbounds (i8*, i8** @_ZTVN10__cxxabiv120__si_class_type_infoE, i64 2) to i8*), i8* getelementptr inbounds ([46 x i8], [46 x i8]* @_ZTSN14altered_carbon2js22ACAstDebuggerStatementE, i32 0, i32 0), i8* bitcast (i8** @_ZTIN14altered_carbon2js18ACAstStatementNodeE to i8*) }
@_ZTVN14altered_carbon2js18ACAstStatementNodeE = external unnamed_addr constant { [14 x i8*] }
@_ZTVN14altered_carbon2js13ACAstBaseNodeE = external unnamed_addr constant { [14 x i8*] }
@.str.34 = private unnamed_addr constant [7 x i32] [i32 40, i32 110, i32 117, i32 108, i32 108, i32 41, i32 0], align 4
@.str.35 = private unnamed_addr constant [68 x i8] c"allocator<T>::allocate(size_t n) 'n' exceeds maximum supported size\00", align 1
@_ZNSt3__15ctypeIcE2idE = external global %"class.std::__1::locale::id", align 8

; Function Attrs: noinline nounwind optnone ssp uwtable
define void @_ZN14altered_carbon2js24ACAstExpressionStatementC2ENSt3__110unique_ptrINS0_13ACLexPositionENS2_14default_deleteIS4_EEEENS3_INS0_13ACAstBaseNodeENS5_IS8_EEEENS8_11AstNodeTypeENS8_14AstNodeSubTypeE(%"class.altered_carbon::js::ACAstExpressionStatement"*, %"class.std::__1::unique_ptr"*, %"class.std::__1::unique_ptr.1"*, i32, i32) unnamed_addr #0 align 2 !dbg !4834 {
  %6 = alloca %"struct.std::__1::__compressed_pair_elem.4"*, align 8
  call void @llvm.dbg.declare(metadata %"struct.std::__1::__compressed_pair_elem.4"** %6, metadata !4848, metadata !DIExpression()), !dbg !4851
  %7 = alloca %"class.std::__1::__compressed_pair.2"*, align 8
  call void @llvm.dbg.declare(metadata %"class.std::__1::__compressed_pair.2"** %7, metadata !4861, metadata !DIExpression()), !dbg !4863
  %8 = alloca %"class.std::__1::unique_ptr.1"*, align 8
  call void @llvm.dbg.declare(metadata %"class.std::__1::unique_ptr.1"** %8, metadata !4864, metadata !DIExpression()), !dbg !4865
  %9 = alloca %"struct.std::__1::default_delete.5"*, align 8
  call void @llvm.dbg.declare(metadata %"struct.std::__1::default_delete.5"** %9, metadata !4866, metadata !DIExpression()), !dbg !4875
  %10 = alloca %"class.altered_carbon::js::ACAstBaseNode"**, align 8
  call void @llvm.dbg.declare(metadata %"class.altered_carbon::js::ACAstBaseNode"*** %10, metadata !4877, metadata !DIExpression()), !dbg !4886
  %11 = alloca %"struct.std::__1::__compressed_pair_elem.3"*, align 8
  call void @llvm.dbg.declare(metadata %"struct.std::__1::__compressed_pair_elem.3"** %11, metadata !4906, metadata !DIExpression()), !dbg !4908
  %12 = alloca %"class.altered_carbon::js::ACAstBaseNode"**, align 8
  call void @llvm.dbg.declare(metadata %"class.altered_carbon::js::ACAstBaseNode"*** %12, metadata !4909, metadata !DIExpression()), !dbg !4910
  %13 = alloca %"struct.std::__1::default_delete.5"*, align 8
  call void @llvm.dbg.declare(metadata %"struct.std::__1::default_delete.5"** %13, metadata !4866, metadata !DIExpression()), !dbg !4911
  %14 = alloca %"struct.std::__1::default_delete.5"*, align 8
  call void @llvm.dbg.declare(metadata %"struct.std::__1::default_delete.5"** %14, metadata !4866, metadata !DIExpression()), !dbg !4913
  %15 = alloca %"struct.std::__1::__compressed_pair_elem.4"*, align 8
  call void @llvm.dbg.declare(metadata %"struct.std::__1::__compressed_pair_elem.4"** %15, metadata !4922, metadata !DIExpression()), !dbg !4923
  %16 = alloca %"struct.std::__1::default_delete.5"*, align 8
  call void @llvm.dbg.declare(metadata %"struct.std::__1::default_delete.5"** %16, metadata !4924, metadata !DIExpression()), !dbg !4925
  %17 = alloca %"class.altered_carbon::js::ACAstBaseNode"**, align 8
  call void @llvm.dbg.declare(metadata %"class.altered_carbon::js::ACAstBaseNode"*** %17, metadata !4877, metadata !DIExpression()), !dbg !4926
  %18 = alloca %"class.std::__1::__compressed_pair.2"*, align 8
  call void @llvm.dbg.declare(metadata %"class.std::__1::__compressed_pair.2"** %18, metadata !4928, metadata !DIExpression()), !dbg !4929
  %19 = alloca %"class.altered_carbon::js::ACAstBaseNode"**, align 8
  call void @llvm.dbg.declare(metadata %"class.altered_carbon::js::ACAstBaseNode"*** %19, metadata !4930, metadata !DIExpression()), !dbg !4931
  %20 = alloca %"struct.std::__1::default_delete.5"*, align 8
  call void @llvm.dbg.declare(metadata %"struct.std::__1::default_delete.5"** %20, metadata !4932, metadata !DIExpression()), !dbg !4933
  %21 = alloca %"class.std::__1::__compressed_pair.2"*, align 8
  call void @llvm.dbg.declare(metadata %"class.std::__1::__compressed_pair.2"** %21, metadata !4934, metadata !DIExpression()), !dbg !4935
  %22 = alloca %"class.altered_carbon::js::ACAstBaseNode"**, align 8
  call void @llvm.dbg.declare(metadata %"class.altered_carbon::js::ACAstBaseNode"*** %22, metadata !4936, metadata !DIExpression()), !dbg !4937
  %23 = alloca %"struct.std::__1::default_delete.5"*, align 8
  call void @llvm.dbg.declare(metadata %"struct.std::__1::default_delete.5"** %23, metadata !4938, metadata !DIExpression()), !dbg !4939
  %24 = alloca %"struct.std::__1::__compressed_pair_elem.3"*, align 8
  call void @llvm.dbg.declare(metadata %"struct.std::__1::__compressed_pair_elem.3"** %24, metadata !4940, metadata !DIExpression()), !dbg !4942
  %25 = alloca %"class.std::__1::__compressed_pair.2"*, align 8
  call void @llvm.dbg.declare(metadata %"class.std::__1::__compressed_pair.2"** %25, metadata !4948, metadata !DIExpression()), !dbg !4949
  %26 = alloca %"struct.std::__1::__compressed_pair_elem.3"*, align 8
  call void @llvm.dbg.declare(metadata %"struct.std::__1::__compressed_pair_elem.3"** %26, metadata !4940, metadata !DIExpression()), !dbg !4950
  %27 = alloca %"class.std::__1::__compressed_pair.2"*, align 8
  call void @llvm.dbg.declare(metadata %"class.std::__1::__compressed_pair.2"** %27, metadata !4948, metadata !DIExpression()), !dbg !4953
  %28 = alloca %"class.std::__1::unique_ptr.1"*, align 8
  call void @llvm.dbg.declare(metadata %"class.std::__1::unique_ptr.1"** %28, metadata !4954, metadata !DIExpression()), !dbg !4955
  %29 = alloca %"class.altered_carbon::js::ACAstBaseNode"*, align 8
  call void @llvm.dbg.declare(metadata %"class.altered_carbon::js::ACAstBaseNode"** %29, metadata !4956, metadata !DIExpression()), !dbg !4957
  %30 = alloca %"class.std::__1::unique_ptr.1"*, align 8
  call void @llvm.dbg.declare(metadata %"class.std::__1::unique_ptr.1"** %30, metadata !4958, metadata !DIExpression()), !dbg !4959
  %31 = alloca %"class.std::__1::unique_ptr.1"*, align 8
  call void @llvm.dbg.declare(metadata %"class.std::__1::unique_ptr.1"** %31, metadata !4960, metadata !DIExpression()), !dbg !4961
  %32 = alloca %"class.altered_carbon::js::ACAstBaseNode"*, align 8
  %33 = alloca %"class.std::__1::unique_ptr.1"*, align 8
  call void @llvm.dbg.declare(metadata %"class.std::__1::unique_ptr.1"** %33, metadata !4962, metadata !DIExpression()), !dbg !4963
  %34 = alloca %"class.std::__1::unique_ptr.1"*, align 8
  call void @llvm.dbg.declare(metadata %"class.std::__1::unique_ptr.1"** %34, metadata !4964, metadata !DIExpression()), !dbg !4965
  %35 = alloca %"class.std::__1::unique_ptr.1"*, align 8
  call void @llvm.dbg.declare(metadata %"class.std::__1::unique_ptr.1"** %35, metadata !4966, metadata !DIExpression()), !dbg !4975
  %36 = alloca %"struct.std::__1::__compressed_pair_elem.4"*, align 8
  call void @llvm.dbg.declare(metadata %"struct.std::__1::__compressed_pair_elem.4"** %36, metadata !4848, metadata !DIExpression()), !dbg !4977
  %37 = alloca %"class.std::__1::__compressed_pair.2"*, align 8
  call void @llvm.dbg.declare(metadata %"class.std::__1::__compressed_pair.2"** %37, metadata !4861, metadata !DIExpression()), !dbg !4988
  %38 = alloca %"struct.std::__1::__compressed_pair_elem.3"*, align 8
  call void @llvm.dbg.declare(metadata %"struct.std::__1::__compressed_pair_elem.3"** %38, metadata !4940, metadata !DIExpression()), !dbg !4989
  %39 = alloca %"class.std::__1::__compressed_pair.2"*, align 8
  call void @llvm.dbg.declare(metadata %"class.std::__1::__compressed_pair.2"** %39, metadata !4948, metadata !DIExpression()), !dbg !4992
  %40 = alloca %"struct.std::__1::default_delete.5"*, align 8
  call void @llvm.dbg.declare(metadata %"struct.std::__1::default_delete.5"** %40, metadata !4993, metadata !DIExpression()), !dbg !4996
  %41 = alloca %"class.altered_carbon::js::ACAstBaseNode"*, align 8
  call void @llvm.dbg.declare(metadata %"class.altered_carbon::js::ACAstBaseNode"** %41, metadata !4998, metadata !DIExpression()), !dbg !4999
  %42 = alloca %"struct.std::__1::__compressed_pair_elem.3"*, align 8
  call void @llvm.dbg.declare(metadata %"struct.std::__1::__compressed_pair_elem.3"** %42, metadata !4940, metadata !DIExpression()), !dbg !5000
  %43 = alloca %"class.std::__1::__compressed_pair.2"*, align 8
  call void @llvm.dbg.declare(metadata %"class.std::__1::__compressed_pair.2"** %43, metadata !4948, metadata !DIExpression()), !dbg !5003
  %44 = alloca %"class.std::__1::unique_ptr.1"*, align 8
  call void @llvm.dbg.declare(metadata %"class.std::__1::unique_ptr.1"** %44, metadata !5004, metadata !DIExpression()), !dbg !5005
  %45 = alloca %"class.altered_carbon::js::ACAstBaseNode"*, align 8
  call void @llvm.dbg.declare(metadata %"class.altered_carbon::js::ACAstBaseNode"** %45, metadata !5006, metadata !DIExpression()), !dbg !5007
  %46 = alloca %"class.altered_carbon::js::ACAstBaseNode"*, align 8
  call void @llvm.dbg.declare(metadata %"class.altered_carbon::js::ACAstBaseNode"** %46, metadata !5008, metadata !DIExpression()), !dbg !5009
  %47 = alloca %"class.std::__1::unique_ptr.1"*, align 8
  call void @llvm.dbg.declare(metadata %"class.std::__1::unique_ptr.1"** %47, metadata !5010, metadata !DIExpression()), !dbg !5011
  %48 = alloca %"class.std::__1::unique_ptr.1"*, align 8
  call void @llvm.dbg.declare(metadata %"class.std::__1::unique_ptr.1"** %48, metadata !5012, metadata !DIExpression()), !dbg !5013
  %49 = alloca %"struct.std::__1::__compressed_pair_elem.0"*, align 8
  call void @llvm.dbg.declare(metadata %"struct.std::__1::__compressed_pair_elem.0"** %49, metadata !5014, metadata !DIExpression()), !dbg !5017
  %50 = alloca %"class.std::__1::__compressed_pair"*, align 8
  call void @llvm.dbg.declare(metadata %"class.std::__1::__compressed_pair"** %50, metadata !5027, metadata !DIExpression()), !dbg !5029
  %51 = alloca %"class.std::__1::unique_ptr"*, align 8
  call void @llvm.dbg.declare(metadata %"class.std::__1::unique_ptr"** %51, metadata !5030, metadata !DIExpression()), !dbg !5032
  %52 = alloca %"struct.std::__1::default_delete"*, align 8
  call void @llvm.dbg.declare(metadata %"struct.std::__1::default_delete"** %52, metadata !5033, metadata !DIExpression()), !dbg !5042
  %53 = alloca %"struct.altered_carbon::js::ACLexPosition"**, align 8
  call void @llvm.dbg.declare(metadata %"struct.altered_carbon::js::ACLexPosition"*** %53, metadata !5044, metadata !DIExpression()), !dbg !5053
  %54 = alloca %"struct.std::__1::__compressed_pair_elem"*, align 8
  call void @llvm.dbg.declare(metadata %"struct.std::__1::__compressed_pair_elem"** %54, metadata !5072, metadata !DIExpression()), !dbg !5074
  %55 = alloca %"struct.altered_carbon::js::ACLexPosition"**, align 8
  call void @llvm.dbg.declare(metadata %"struct.altered_carbon::js::ACLexPosition"*** %55, metadata !5075, metadata !DIExpression()), !dbg !5076
  %56 = alloca %"struct.std::__1::default_delete"*, align 8
  call void @llvm.dbg.declare(metadata %"struct.std::__1::default_delete"** %56, metadata !5033, metadata !DIExpression()), !dbg !5077
  %57 = alloca %"struct.std::__1::default_delete"*, align 8
  call void @llvm.dbg.declare(metadata %"struct.std::__1::default_delete"** %57, metadata !5033, metadata !DIExpression()), !dbg !5079
  %58 = alloca %"struct.std::__1::__compressed_pair_elem.0"*, align 8
  call void @llvm.dbg.declare(metadata %"struct.std::__1::__compressed_pair_elem.0"** %58, metadata !5088, metadata !DIExpression()), !dbg !5089
  %59 = alloca %"struct.std::__1::default_delete"*, align 8
  call void @llvm.dbg.declare(metadata %"struct.std::__1::default_delete"** %59, metadata !5090, metadata !DIExpression()), !dbg !5091
  %60 = alloca %"struct.altered_carbon::js::ACLexPosition"**, align 8
  call void @llvm.dbg.declare(metadata %"struct.altered_carbon::js::ACLexPosition"*** %60, metadata !5044, metadata !DIExpression()), !dbg !5092
  %61 = alloca %"class.std::__1::__compressed_pair"*, align 8
  call void @llvm.dbg.declare(metadata %"class.std::__1::__compressed_pair"** %61, metadata !5094, metadata !DIExpression()), !dbg !5095
  %62 = alloca %"struct.altered_carbon::js::ACLexPosition"**, align 8
  call void @llvm.dbg.declare(metadata %"struct.altered_carbon::js::ACLexPosition"*** %62, metadata !5096, metadata !DIExpression()), !dbg !5097
  %63 = alloca %"struct.std::__1::default_delete"*, align 8
  call void @llvm.dbg.declare(metadata %"struct.std::__1::default_delete"** %63, metadata !5098, metadata !DIExpression()), !dbg !5099
  %64 = alloca %"class.std::__1::__compressed_pair"*, align 8
  call void @llvm.dbg.declare(metadata %"class.std::__1::__compressed_pair"** %64, metadata !5100, metadata !DIExpression()), !dbg !5101
  %65 = alloca %"struct.altered_carbon::js::ACLexPosition"**, align 8
  call void @llvm.dbg.declare(metadata %"struct.altered_carbon::js::ACLexPosition"*** %65, metadata !5102, metadata !DIExpression()), !dbg !5103
  %66 = alloca %"struct.std::__1::default_delete"*, align 8
  call void @llvm.dbg.declare(metadata %"struct.std::__1::default_delete"** %66, metadata !5104, metadata !DIExpression()), !dbg !5105
  %67 = alloca %"struct.std::__1::__compressed_pair_elem"*, align 8
  call void @llvm.dbg.declare(metadata %"struct.std::__1::__compressed_pair_elem"** %67, metadata !5106, metadata !DIExpression()), !dbg !5108
  %68 = alloca %"class.std::__1::__compressed_pair"*, align 8
  call void @llvm.dbg.declare(metadata %"class.std::__1::__compressed_pair"** %68, metadata !5114, metadata !DIExpression()), !dbg !5115
  %69 = alloca %"struct.std::__1::__compressed_pair_elem"*, align 8
  call void @llvm.dbg.declare(metadata %"struct.std::__1::__compressed_pair_elem"** %69, metadata !5106, metadata !DIExpression()), !dbg !5116
  %70 = alloca %"class.std::__1::__compressed_pair"*, align 8
  call void @llvm.dbg.declare(metadata %"class.std::__1::__compressed_pair"** %70, metadata !5114, metadata !DIExpression()), !dbg !5119
  %71 = alloca %"class.std::__1::unique_ptr"*, align 8
  call void @llvm.dbg.declare(metadata %"class.std::__1::unique_ptr"** %71, metadata !5120, metadata !DIExpression()), !dbg !5121
  %72 = alloca %"struct.altered_carbon::js::ACLexPosition"*, align 8
  call void @llvm.dbg.declare(metadata %"struct.altered_carbon::js::ACLexPosition"** %72, metadata !5122, metadata !DIExpression()), !dbg !5123
  %73 = alloca %"class.std::__1::unique_ptr"*, align 8
  call void @llvm.dbg.declare(metadata %"class.std::__1::unique_ptr"** %73, metadata !5124, metadata !DIExpression()), !dbg !5125
  %74 = alloca %"class.std::__1::unique_ptr"*, align 8
  call void @llvm.dbg.declare(metadata %"class.std::__1::unique_ptr"** %74, metadata !5126, metadata !DIExpression()), !dbg !5127
  %75 = alloca %"struct.altered_carbon::js::ACLexPosition"*, align 8
  %76 = alloca %"class.std::__1::unique_ptr"*, align 8
  call void @llvm.dbg.declare(metadata %"class.std::__1::unique_ptr"** %76, metadata !5128, metadata !DIExpression()), !dbg !5129
  %77 = alloca %"class.std::__1::unique_ptr"*, align 8
  call void @llvm.dbg.declare(metadata %"class.std::__1::unique_ptr"** %77, metadata !5130, metadata !DIExpression()), !dbg !5131
  %78 = alloca %"struct.std::__1::__compressed_pair_elem.0"*, align 8
  call void @llvm.dbg.declare(metadata %"struct.std::__1::__compressed_pair_elem.0"** %78, metadata !5014, metadata !DIExpression()), !dbg !5132
  %79 = alloca %"class.std::__1::__compressed_pair"*, align 8
  call void @llvm.dbg.declare(metadata %"class.std::__1::__compressed_pair"** %79, metadata !5027, metadata !DIExpression()), !dbg !5143
  %80 = alloca %"struct.std::__1::__compressed_pair_elem"*, align 8
  call void @llvm.dbg.declare(metadata %"struct.std::__1::__compressed_pair_elem"** %80, metadata !5106, metadata !DIExpression()), !dbg !5144
  %81 = alloca %"class.std::__1::__compressed_pair"*, align 8
  call void @llvm.dbg.declare(metadata %"class.std::__1::__compressed_pair"** %81, metadata !5114, metadata !DIExpression()), !dbg !5147
  %82 = alloca %"struct.std::__1::default_delete"*, align 8
  call void @llvm.dbg.declare(metadata %"struct.std::__1::default_delete"** %82, metadata !5148, metadata !DIExpression()), !dbg !5151
  %83 = alloca %"struct.altered_carbon::js::ACLexPosition"*, align 8
  call void @llvm.dbg.declare(metadata %"struct.altered_carbon::js::ACLexPosition"** %83, metadata !5153, metadata !DIExpression()), !dbg !5154
  %84 = alloca %"struct.std::__1::__compressed_pair_elem"*, align 8
  call void @llvm.dbg.declare(metadata %"struct.std::__1::__compressed_pair_elem"** %84, metadata !5106, metadata !DIExpression()), !dbg !5155
  %85 = alloca %"class.std::__1::__compressed_pair"*, align 8
  call void @llvm.dbg.declare(metadata %"class.std::__1::__compressed_pair"** %85, metadata !5114, metadata !DIExpression()), !dbg !5158
  %86 = alloca %"class.std::__1::unique_ptr"*, align 8
  call void @llvm.dbg.declare(metadata %"class.std::__1::unique_ptr"** %86, metadata !5159, metadata !DIExpression()), !dbg !5160
  %87 = alloca %"struct.altered_carbon::js::ACLexPosition"*, align 8
  call void @llvm.dbg.declare(metadata %"struct.altered_carbon::js::ACLexPosition"** %87, metadata !5161, metadata !DIExpression()), !dbg !5162
  %88 = alloca %"struct.altered_carbon::js::ACLexPosition"*, align 8
  call void @llvm.dbg.declare(metadata %"struct.altered_carbon::js::ACLexPosition"** %88, metadata !5163, metadata !DIExpression()), !dbg !5164
  %89 = alloca %"class.std::__1::unique_ptr"*, align 8
  call void @llvm.dbg.declare(metadata %"class.std::__1::unique_ptr"** %89, metadata !5165, metadata !DIExpression()), !dbg !5166
  %90 = alloca %"class.std::__1::unique_ptr"*, align 8
  call void @llvm.dbg.declare(metadata %"class.std::__1::unique_ptr"** %90, metadata !5167, metadata !DIExpression()), !dbg !5168
  %91 = alloca %"class.std::__1::unique_ptr"*, align 8
  call void @llvm.dbg.declare(metadata %"class.std::__1::unique_ptr"** %91, metadata !5169, metadata !DIExpression()), !dbg !5178
  %92 = alloca %"class.altered_carbon::js::ACAstExpressionStatement"*, align 8
  %93 = alloca i32, align 4
  %94 = alloca i32, align 4
  %95 = alloca %"class.std::__1::unique_ptr", align 8
  %96 = alloca %"class.std::__1::unique_ptr.1", align 8
  store %"class.altered_carbon::js::ACAstExpressionStatement"* %0, %"class.altered_carbon::js::ACAstExpressionStatement"** %92, align 8
  call void @llvm.dbg.declare(metadata %"class.altered_carbon::js::ACAstExpressionStatement"** %92, metadata !5180, metadata !DIExpression()), !dbg !5182
  call void @llvm.dbg.declare(metadata %"class.std::__1::unique_ptr"* %1, metadata !5183, metadata !DIExpression()), !dbg !5184
  call void @llvm.dbg.declare(metadata %"class.std::__1::unique_ptr.1"* %2, metadata !5185, metadata !DIExpression()), !dbg !5186
  store i32 %3, i32* %93, align 4
  call void @llvm.dbg.declare(metadata i32* %93, metadata !5187, metadata !DIExpression()), !dbg !5188
  store i32 %4, i32* %94, align 4
  call void @llvm.dbg.declare(metadata i32* %94, metadata !5189, metadata !DIExpression()), !dbg !5190
  %97 = load %"class.altered_carbon::js::ACAstExpressionStatement"*, %"class.altered_carbon::js::ACAstExpressionStatement"** %92, align 8
  %98 = bitcast %"class.altered_carbon::js::ACAstExpressionStatement"* %97 to %"class.altered_carbon::js::ACAstStatementNode"*, !dbg !5191
  store %"class.std::__1::unique_ptr"* %1, %"class.std::__1::unique_ptr"** %91, align 8
  %99 = load %"class.std::__1::unique_ptr"*, %"class.std::__1::unique_ptr"** %91, align 8, !dbg !5192
  store %"class.std::__1::unique_ptr"* %95, %"class.std::__1::unique_ptr"** %76, align 8
  store %"class.std::__1::unique_ptr"* %99, %"class.std::__1::unique_ptr"** %77, align 8
  %100 = load %"class.std::__1::unique_ptr"*, %"class.std::__1::unique_ptr"** %76, align 8
  %101 = load %"class.std::__1::unique_ptr"*, %"class.std::__1::unique_ptr"** %77, align 8, !dbg !5193
  store %"class.std::__1::unique_ptr"* %100, %"class.std::__1::unique_ptr"** %73, align 8
  store %"class.std::__1::unique_ptr"* %101, %"class.std::__1::unique_ptr"** %74, align 8
  %102 = load %"class.std::__1::unique_ptr"*, %"class.std::__1::unique_ptr"** %73, align 8
  %103 = getelementptr inbounds %"class.std::__1::unique_ptr", %"class.std::__1::unique_ptr"* %102, i32 0, i32 0, !dbg !5194
  %104 = load %"class.std::__1::unique_ptr"*, %"class.std::__1::unique_ptr"** %74, align 8, !dbg !5195
  store %"class.std::__1::unique_ptr"* %104, %"class.std::__1::unique_ptr"** %71, align 8
  %105 = load %"class.std::__1::unique_ptr"*, %"class.std::__1::unique_ptr"** %71, align 8
  %106 = getelementptr inbounds %"class.std::__1::unique_ptr", %"class.std::__1::unique_ptr"* %105, i32 0, i32 0, !dbg !5196
  store %"class.std::__1::__compressed_pair"* %106, %"class.std::__1::__compressed_pair"** %70, align 8
  %107 = load %"class.std::__1::__compressed_pair"*, %"class.std::__1::__compressed_pair"** %70, align 8
  %108 = bitcast %"class.std::__1::__compressed_pair"* %107 to %"struct.std::__1::__compressed_pair_elem"*, !dbg !5197
  store %"struct.std::__1::__compressed_pair_elem"* %108, %"struct.std::__1::__compressed_pair_elem"** %69, align 8
  %109 = load %"struct.std::__1::__compressed_pair_elem"*, %"struct.std::__1::__compressed_pair_elem"** %69, align 8
  %110 = getelementptr inbounds %"struct.std::__1::__compressed_pair_elem", %"struct.std::__1::__compressed_pair_elem"* %109, i32 0, i32 0, !dbg !5198
  %111 = load %"struct.altered_carbon::js::ACLexPosition"*, %"struct.altered_carbon::js::ACLexPosition"** %110, align 8, !dbg !5199
  store %"struct.altered_carbon::js::ACLexPosition"* %111, %"struct.altered_carbon::js::ACLexPosition"** %72, align 8, !dbg !5123
  %112 = getelementptr inbounds %"class.std::__1::unique_ptr", %"class.std::__1::unique_ptr"* %105, i32 0, i32 0, !dbg !5200
  store %"class.std::__1::__compressed_pair"* %112, %"class.std::__1::__compressed_pair"** %68, align 8
  %113 = load %"class.std::__1::__compressed_pair"*, %"class.std::__1::__compressed_pair"** %68, align 8
  %114 = bitcast %"class.std::__1::__compressed_pair"* %113 to %"struct.std::__1::__compressed_pair_elem"*, !dbg !5201
  store %"struct.std::__1::__compressed_pair_elem"* %114, %"struct.std::__1::__compressed_pair_elem"** %67, align 8
  %115 = load %"struct.std::__1::__compressed_pair_elem"*, %"struct.std::__1::__compressed_pair_elem"** %67, align 8
  %116 = getelementptr inbounds %"struct.std::__1::__compressed_pair_elem", %"struct.std::__1::__compressed_pair_elem"* %115, i32 0, i32 0, !dbg !5202
  store %"struct.altered_carbon::js::ACLexPosition"* null, %"struct.altered_carbon::js::ACLexPosition"** %116, align 8, !dbg !5203
  %117 = load %"struct.altered_carbon::js::ACLexPosition"*, %"struct.altered_carbon::js::ACLexPosition"** %72, align 8, !dbg !5204
  store %"struct.altered_carbon::js::ACLexPosition"* %117, %"struct.altered_carbon::js::ACLexPosition"** %75, align 8, !dbg !5195
  %118 = load %"class.std::__1::unique_ptr"*, %"class.std::__1::unique_ptr"** %74, align 8, !dbg !5205
  store %"class.std::__1::unique_ptr"* %118, %"class.std::__1::unique_ptr"** %51, align 8
  %119 = load %"class.std::__1::unique_ptr"*, %"class.std::__1::unique_ptr"** %51, align 8
  %120 = getelementptr inbounds %"class.std::__1::unique_ptr", %"class.std::__1::unique_ptr"* %119, i32 0, i32 0, !dbg !5206
  store %"class.std::__1::__compressed_pair"* %120, %"class.std::__1::__compressed_pair"** %50, align 8
  %121 = load %"class.std::__1::__compressed_pair"*, %"class.std::__1::__compressed_pair"** %50, align 8
  %122 = bitcast %"class.std::__1::__compressed_pair"* %121 to %"struct.std::__1::__compressed_pair_elem.0"*, !dbg !5207
  store %"struct.std::__1::__compressed_pair_elem.0"* %122, %"struct.std::__1::__compressed_pair_elem.0"** %49, align 8
  %123 = load %"struct.std::__1::__compressed_pair_elem.0"*, %"struct.std::__1::__compressed_pair_elem.0"** %49, align 8
  %124 = bitcast %"struct.std::__1::__compressed_pair_elem.0"* %123 to %"struct.std::__1::default_delete"*, !dbg !5208
  store %"struct.std::__1::default_delete"* %124, %"struct.std::__1::default_delete"** %52, align 8
  %125 = load %"struct.std::__1::default_delete"*, %"struct.std::__1::default_delete"** %52, align 8, !dbg !5209
  store %"class.std::__1::__compressed_pair"* %103, %"class.std::__1::__compressed_pair"** %64, align 8
  store %"struct.altered_carbon::js::ACLexPosition"** %75, %"struct.altered_carbon::js::ACLexPosition"*** %65, align 8
  store %"struct.std::__1::default_delete"* %125, %"struct.std::__1::default_delete"** %66, align 8
  %126 = load %"class.std::__1::__compressed_pair"*, %"class.std::__1::__compressed_pair"** %64, align 8
  %127 = load %"struct.altered_carbon::js::ACLexPosition"**, %"struct.altered_carbon::js::ACLexPosition"*** %65, align 8, !dbg !5210
  %128 = load %"struct.std::__1::default_delete"*, %"struct.std::__1::default_delete"** %66, align 8, !dbg !5210
  store %"class.std::__1::__compressed_pair"* %126, %"class.std::__1::__compressed_pair"** %61, align 8
  store %"struct.altered_carbon::js::ACLexPosition"** %127, %"struct.altered_carbon::js::ACLexPosition"*** %62, align 8
  store %"struct.std::__1::default_delete"* %128, %"struct.std::__1::default_delete"** %63, align 8
  %129 = load %"class.std::__1::__compressed_pair"*, %"class.std::__1::__compressed_pair"** %61, align 8
  %130 = bitcast %"class.std::__1::__compressed_pair"* %129 to %"struct.std::__1::__compressed_pair_elem"*, !dbg !5211
  %131 = load %"struct.altered_carbon::js::ACLexPosition"**, %"struct.altered_carbon::js::ACLexPosition"*** %62, align 8, !dbg !5212
  store %"struct.altered_carbon::js::ACLexPosition"** %131, %"struct.altered_carbon::js::ACLexPosition"*** %60, align 8
  %132 = load %"struct.altered_carbon::js::ACLexPosition"**, %"struct.altered_carbon::js::ACLexPosition"*** %60, align 8, !dbg !5213
  store %"struct.std::__1::__compressed_pair_elem"* %130, %"struct.std::__1::__compressed_pair_elem"** %54, align 8
  store %"struct.altered_carbon::js::ACLexPosition"** %132, %"struct.altered_carbon::js::ACLexPosition"*** %55, align 8
  %133 = load %"struct.std::__1::__compressed_pair_elem"*, %"struct.std::__1::__compressed_pair_elem"** %54, align 8
  %134 = getelementptr inbounds %"struct.std::__1::__compressed_pair_elem", %"struct.std::__1::__compressed_pair_elem"* %133, i32 0, i32 0, !dbg !5214
  %135 = load %"struct.altered_carbon::js::ACLexPosition"**, %"struct.altered_carbon::js::ACLexPosition"*** %55, align 8, !dbg !5215
  store %"struct.altered_carbon::js::ACLexPosition"** %135, %"struct.altered_carbon::js::ACLexPosition"*** %53, align 8
  %136 = load %"struct.altered_carbon::js::ACLexPosition"**, %"struct.altered_carbon::js::ACLexPosition"*** %53, align 8, !dbg !5216
  %137 = load %"struct.altered_carbon::js::ACLexPosition"*, %"struct.altered_carbon::js::ACLexPosition"** %136, align 8, !dbg !5217
  store %"struct.altered_carbon::js::ACLexPosition"* %137, %"struct.altered_carbon::js::ACLexPosition"** %134, align 8, !dbg !5214
  %138 = bitcast %"class.std::__1::__compressed_pair"* %129 to %"struct.std::__1::__compressed_pair_elem.0"*, !dbg !5211
  %139 = load %"struct.std::__1::default_delete"*, %"struct.std::__1::default_delete"** %63, align 8, !dbg !5218
  store %"struct.std::__1::default_delete"* %139, %"struct.std::__1::default_delete"** %56, align 8
  %140 = load %"struct.std::__1::default_delete"*, %"struct.std::__1::default_delete"** %56, align 8, !dbg !5219
  store %"struct.std::__1::__compressed_pair_elem.0"* %138, %"struct.std::__1::__compressed_pair_elem.0"** %58, align 8
  store %"struct.std::__1::default_delete"* %140, %"struct.std::__1::default_delete"** %59, align 8
  %141 = load %"struct.std::__1::__compressed_pair_elem.0"*, %"struct.std::__1::__compressed_pair_elem.0"** %58, align 8
  %142 = bitcast %"struct.std::__1::__compressed_pair_elem.0"* %141 to %"struct.std::__1::default_delete"*, !dbg !5220
  %143 = load %"struct.std::__1::default_delete"*, %"struct.std::__1::default_delete"** %59, align 8, !dbg !5221
  store %"struct.std::__1::default_delete"* %143, %"struct.std::__1::default_delete"** %57, align 8
  %144 = load %"struct.std::__1::default_delete"*, %"struct.std::__1::default_delete"** %57, align 8, !dbg !5222
  store %"class.std::__1::unique_ptr.1"* %2, %"class.std::__1::unique_ptr.1"** %35, align 8
  %145 = load %"class.std::__1::unique_ptr.1"*, %"class.std::__1::unique_ptr.1"** %35, align 8, !dbg !5223
  store %"class.std::__1::unique_ptr.1"* %96, %"class.std::__1::unique_ptr.1"** %33, align 8
  store %"class.std::__1::unique_ptr.1"* %145, %"class.std::__1::unique_ptr.1"** %34, align 8
  %146 = load %"class.std::__1::unique_ptr.1"*, %"class.std::__1::unique_ptr.1"** %33, align 8
  %147 = load %"class.std::__1::unique_ptr.1"*, %"class.std::__1::unique_ptr.1"** %34, align 8, !dbg !5224
  store %"class.std::__1::unique_ptr.1"* %146, %"class.std::__1::unique_ptr.1"** %30, align 8
  store %"class.std::__1::unique_ptr.1"* %147, %"class.std::__1::unique_ptr.1"** %31, align 8
  %148 = load %"class.std::__1::unique_ptr.1"*, %"class.std::__1::unique_ptr.1"** %30, align 8
  %149 = getelementptr inbounds %"class.std::__1::unique_ptr.1", %"class.std::__1::unique_ptr.1"* %148, i32 0, i32 0, !dbg !5225
  %150 = load %"class.std::__1::unique_ptr.1"*, %"class.std::__1::unique_ptr.1"** %31, align 8, !dbg !5226
  store %"class.std::__1::unique_ptr.1"* %150, %"class.std::__1::unique_ptr.1"** %28, align 8
  %151 = load %"class.std::__1::unique_ptr.1"*, %"class.std::__1::unique_ptr.1"** %28, align 8
  %152 = getelementptr inbounds %"class.std::__1::unique_ptr.1", %"class.std::__1::unique_ptr.1"* %151, i32 0, i32 0, !dbg !5227
  store %"class.std::__1::__compressed_pair.2"* %152, %"class.std::__1::__compressed_pair.2"** %27, align 8
  %153 = load %"class.std::__1::__compressed_pair.2"*, %"class.std::__1::__compressed_pair.2"** %27, align 8
  %154 = bitcast %"class.std::__1::__compressed_pair.2"* %153 to %"struct.std::__1::__compressed_pair_elem.3"*, !dbg !5228
  store %"struct.std::__1::__compressed_pair_elem.3"* %154, %"struct.std::__1::__compressed_pair_elem.3"** %26, align 8
  %155 = load %"struct.std::__1::__compressed_pair_elem.3"*, %"struct.std::__1::__compressed_pair_elem.3"** %26, align 8
  %156 = getelementptr inbounds %"struct.std::__1::__compressed_pair_elem.3", %"struct.std::__1::__compressed_pair_elem.3"* %155, i32 0, i32 0, !dbg !5229
  %157 = load %"class.altered_carbon::js::ACAstBaseNode"*, %"class.altered_carbon::js::ACAstBaseNode"** %156, align 8, !dbg !5230
  store %"class.altered_carbon::js::ACAstBaseNode"* %157, %"class.altered_carbon::js::ACAstBaseNode"** %29, align 8, !dbg !4957
  %158 = getelementptr inbounds %"class.std::__1::unique_ptr.1", %"class.std::__1::unique_ptr.1"* %151, i32 0, i32 0, !dbg !5231
  store %"class.std::__1::__compressed_pair.2"* %158, %"class.std::__1::__compressed_pair.2"** %25, align 8
  %159 = load %"class.std::__1::__compressed_pair.2"*, %"class.std::__1::__compressed_pair.2"** %25, align 8
  %160 = bitcast %"class.std::__1::__compressed_pair.2"* %159 to %"struct.std::__1::__compressed_pair_elem.3"*, !dbg !5232
  store %"struct.std::__1::__compressed_pair_elem.3"* %160, %"struct.std::__1::__compressed_pair_elem.3"** %24, align 8
  %161 = load %"struct.std::__1::__compressed_pair_elem.3"*, %"struct.std::__1::__compressed_pair_elem.3"** %24, align 8
  %162 = getelementptr inbounds %"struct.std::__1::__compressed_pair_elem.3", %"struct.std::__1::__compressed_pair_elem.3"* %161, i32 0, i32 0, !dbg !5233
  store %"class.altered_carbon::js::ACAstBaseNode"* null, %"class.altered_carbon::js::ACAstBaseNode"** %162, align 8, !dbg !5234
  %163 = load %"class.altered_carbon::js::ACAstBaseNode"*, %"class.altered_carbon::js::ACAstBaseNode"** %29, align 8, !dbg !5235
  store %"class.altered_carbon::js::ACAstBaseNode"* %163, %"class.altered_carbon::js::ACAstBaseNode"** %32, align 8, !dbg !5226
  %164 = load %"class.std::__1::unique_ptr.1"*, %"class.std::__1::unique_ptr.1"** %31, align 8, !dbg !5236
  store %"class.std::__1::unique_ptr.1"* %164, %"class.std::__1::unique_ptr.1"** %8, align 8
  %165 = load %"class.std::__1::unique_ptr.1"*, %"class.std::__1::unique_ptr.1"** %8, align 8
  %166 = getelementptr inbounds %"class.std::__1::unique_ptr.1", %"class.std::__1::unique_ptr.1"* %165, i32 0, i32 0, !dbg !5237
  store %"class.std::__1::__compressed_pair.2"* %166, %"class.std::__1::__compressed_pair.2"** %7, align 8
  %167 = load %"class.std::__1::__compressed_pair.2"*, %"class.std::__1::__compressed_pair.2"** %7, align 8
  %168 = bitcast %"class.std::__1::__compressed_pair.2"* %167 to %"struct.std::__1::__compressed_pair_elem.4"*, !dbg !5238
  store %"struct.std::__1::__compressed_pair_elem.4"* %168, %"struct.std::__1::__compressed_pair_elem.4"** %6, align 8
  %169 = load %"struct.std::__1::__compressed_pair_elem.4"*, %"struct.std::__1::__compressed_pair_elem.4"** %6, align 8
  %170 = bitcast %"struct.std::__1::__compressed_pair_elem.4"* %169 to %"struct.std::__1::default_delete.5"*, !dbg !5239
  store %"struct.std::__1::default_delete.5"* %170, %"struct.std::__1::default_delete.5"** %9, align 8
  %171 = load %"struct.std::__1::default_delete.5"*, %"struct.std::__1::default_delete.5"** %9, align 8, !dbg !5240
  store %"class.std::__1::__compressed_pair.2"* %149, %"class.std::__1::__compressed_pair.2"** %21, align 8
  store %"class.altered_carbon::js::ACAstBaseNode"** %32, %"class.altered_carbon::js::ACAstBaseNode"*** %22, align 8
  store %"struct.std::__1::default_delete.5"* %171, %"struct.std::__1::default_delete.5"** %23, align 8
  %172 = load %"class.std::__1::__compressed_pair.2"*, %"class.std::__1::__compressed_pair.2"** %21, align 8
  %173 = load %"class.altered_carbon::js::ACAstBaseNode"**, %"class.altered_carbon::js::ACAstBaseNode"*** %22, align 8, !dbg !5241
  %174 = load %"struct.std::__1::default_delete.5"*, %"struct.std::__1::default_delete.5"** %23, align 8, !dbg !5241
  store %"class.std::__1::__compressed_pair.2"* %172, %"class.std::__1::__compressed_pair.2"** %18, align 8
  store %"class.altered_carbon::js::ACAstBaseNode"** %173, %"class.altered_carbon::js::ACAstBaseNode"*** %19, align 8
  store %"struct.std::__1::default_delete.5"* %174, %"struct.std::__1::default_delete.5"** %20, align 8
  %175 = load %"class.std::__1::__compressed_pair.2"*, %"class.std::__1::__compressed_pair.2"** %18, align 8
  %176 = bitcast %"class.std::__1::__compressed_pair.2"* %175 to %"struct.std::__1::__compressed_pair_elem.3"*, !dbg !5242
  %177 = load %"class.altered_carbon::js::ACAstBaseNode"**, %"class.altered_carbon::js::ACAstBaseNode"*** %19, align 8, !dbg !5243
  store %"class.altered_carbon::js::ACAstBaseNode"** %177, %"class.altered_carbon::js::ACAstBaseNode"*** %17, align 8
  %178 = load %"class.altered_carbon::js::ACAstBaseNode"**, %"class.altered_carbon::js::ACAstBaseNode"*** %17, align 8, !dbg !5244
  store %"struct.std::__1::__compressed_pair_elem.3"* %176, %"struct.std::__1::__compressed_pair_elem.3"** %11, align 8
  store %"class.altered_carbon::js::ACAstBaseNode"** %178, %"class.altered_carbon::js::ACAstBaseNode"*** %12, align 8
  %179 = load %"struct.std::__1::__compressed_pair_elem.3"*, %"struct.std::__1::__compressed_pair_elem.3"** %11, align 8
  %180 = getelementptr inbounds %"struct.std::__1::__compressed_pair_elem.3", %"struct.std::__1::__compressed_pair_elem.3"* %179, i32 0, i32 0, !dbg !5245
  %181 = load %"class.altered_carbon::js::ACAstBaseNode"**, %"class.altered_carbon::js::ACAstBaseNode"*** %12, align 8, !dbg !5246
  store %"class.altered_carbon::js::ACAstBaseNode"** %181, %"class.altered_carbon::js::ACAstBaseNode"*** %10, align 8
  %182 = load %"class.altered_carbon::js::ACAstBaseNode"**, %"class.altered_carbon::js::ACAstBaseNode"*** %10, align 8, !dbg !5247
  %183 = load %"class.altered_carbon::js::ACAstBaseNode"*, %"class.altered_carbon::js::ACAstBaseNode"** %182, align 8, !dbg !5248
  store %"class.altered_carbon::js::ACAstBaseNode"* %183, %"class.altered_carbon::js::ACAstBaseNode"** %180, align 8, !dbg !5245
  %184 = bitcast %"class.std::__1::__compressed_pair.2"* %175 to %"struct.std::__1::__compressed_pair_elem.4"*, !dbg !5242
  %185 = load %"struct.std::__1::default_delete.5"*, %"struct.std::__1::default_delete.5"** %20, align 8, !dbg !5249
  store %"struct.std::__1::default_delete.5"* %185, %"struct.std::__1::default_delete.5"** %13, align 8
  %186 = load %"struct.std::__1::default_delete.5"*, %"struct.std::__1::default_delete.5"** %13, align 8, !dbg !5250
  store %"struct.std::__1::__compressed_pair_elem.4"* %184, %"struct.std::__1::__compressed_pair_elem.4"** %15, align 8
  store %"struct.std::__1::default_delete.5"* %186, %"struct.std::__1::default_delete.5"** %16, align 8
  %187 = load %"struct.std::__1::__compressed_pair_elem.4"*, %"struct.std::__1::__compressed_pair_elem.4"** %15, align 8
  %188 = bitcast %"struct.std::__1::__compressed_pair_elem.4"* %187 to %"struct.std::__1::default_delete.5"*, !dbg !5251
  %189 = load %"struct.std::__1::default_delete.5"*, %"struct.std::__1::default_delete.5"** %16, align 8, !dbg !5252
  store %"struct.std::__1::default_delete.5"* %189, %"struct.std::__1::default_delete.5"** %14, align 8
  %190 = load %"struct.std::__1::default_delete.5"*, %"struct.std::__1::default_delete.5"** %14, align 8, !dbg !5253
  %191 = load i32, i32* %93, align 4, !dbg !5254
  %192 = load i32, i32* %94, align 4, !dbg !5255
  call void @_ZN14altered_carbon2js18ACAstStatementNodeC2ENSt3__110unique_ptrINS0_13ACLexPositionENS2_14default_deleteIS4_EEEENS3_INS0_13ACAstBaseNodeENS5_IS8_EEEENS8_11AstNodeTypeENS8_14AstNodeSubTypeE(%"class.altered_carbon::js::ACAstStatementNode"* %98, %"class.std::__1::unique_ptr"* %95, %"class.std::__1::unique_ptr.1"* %96, i32 %191, i32 %192), !dbg !5256
  store %"class.std::__1::unique_ptr.1"* %96, %"class.std::__1::unique_ptr.1"** %48, align 8
  %193 = load %"class.std::__1::unique_ptr.1"*, %"class.std::__1::unique_ptr.1"** %48, align 8
  store %"class.std::__1::unique_ptr.1"* %193, %"class.std::__1::unique_ptr.1"** %47, align 8
  %194 = load %"class.std::__1::unique_ptr.1"*, %"class.std::__1::unique_ptr.1"** %47, align 8
  store %"class.std::__1::unique_ptr.1"* %194, %"class.std::__1::unique_ptr.1"** %44, align 8
  store %"class.altered_carbon::js::ACAstBaseNode"* null, %"class.altered_carbon::js::ACAstBaseNode"** %45, align 8
  %195 = load %"class.std::__1::unique_ptr.1"*, %"class.std::__1::unique_ptr.1"** %44, align 8
  %196 = getelementptr inbounds %"class.std::__1::unique_ptr.1", %"class.std::__1::unique_ptr.1"* %195, i32 0, i32 0, !dbg !5257
  store %"class.std::__1::__compressed_pair.2"* %196, %"class.std::__1::__compressed_pair.2"** %43, align 8
  %197 = load %"class.std::__1::__compressed_pair.2"*, %"class.std::__1::__compressed_pair.2"** %43, align 8
  %198 = bitcast %"class.std::__1::__compressed_pair.2"* %197 to %"struct.std::__1::__compressed_pair_elem.3"*, !dbg !5258
  store %"struct.std::__1::__compressed_pair_elem.3"* %198, %"struct.std::__1::__compressed_pair_elem.3"** %42, align 8
  %199 = load %"struct.std::__1::__compressed_pair_elem.3"*, %"struct.std::__1::__compressed_pair_elem.3"** %42, align 8
  %200 = getelementptr inbounds %"struct.std::__1::__compressed_pair_elem.3", %"struct.std::__1::__compressed_pair_elem.3"* %199, i32 0, i32 0, !dbg !5259
  %201 = load %"class.altered_carbon::js::ACAstBaseNode"*, %"class.altered_carbon::js::ACAstBaseNode"** %200, align 8, !dbg !5260
  store %"class.altered_carbon::js::ACAstBaseNode"* %201, %"class.altered_carbon::js::ACAstBaseNode"** %46, align 8, !dbg !5009
  %202 = load %"class.altered_carbon::js::ACAstBaseNode"*, %"class.altered_carbon::js::ACAstBaseNode"** %45, align 8, !dbg !5261
  %203 = getelementptr inbounds %"class.std::__1::unique_ptr.1", %"class.std::__1::unique_ptr.1"* %195, i32 0, i32 0, !dbg !5262
  store %"class.std::__1::__compressed_pair.2"* %203, %"class.std::__1::__compressed_pair.2"** %39, align 8
  %204 = load %"class.std::__1::__compressed_pair.2"*, %"class.std::__1::__compressed_pair.2"** %39, align 8
  %205 = bitcast %"class.std::__1::__compressed_pair.2"* %204 to %"struct.std::__1::__compressed_pair_elem.3"*, !dbg !5263
  store %"struct.std::__1::__compressed_pair_elem.3"* %205, %"struct.std::__1::__compressed_pair_elem.3"** %38, align 8
  %206 = load %"struct.std::__1::__compressed_pair_elem.3"*, %"struct.std::__1::__compressed_pair_elem.3"** %38, align 8
  %207 = getelementptr inbounds %"struct.std::__1::__compressed_pair_elem.3", %"struct.std::__1::__compressed_pair_elem.3"* %206, i32 0, i32 0, !dbg !5264
  store %"class.altered_carbon::js::ACAstBaseNode"* %202, %"class.altered_carbon::js::ACAstBaseNode"** %207, align 8, !dbg !5265
  %208 = load %"class.altered_carbon::js::ACAstBaseNode"*, %"class.altered_carbon::js::ACAstBaseNode"** %46, align 8, !dbg !5266
  %209 = icmp ne %"class.altered_carbon::js::ACAstBaseNode"* %208, null, !dbg !5266
  br i1 %209, label %210, label %226, !dbg !5267

; <label>:210:                                    ; preds = %5
  %211 = getelementptr inbounds %"class.std::__1::unique_ptr.1", %"class.std::__1::unique_ptr.1"* %195, i32 0, i32 0, !dbg !5268
  store %"class.std::__1::__compressed_pair.2"* %211, %"class.std::__1::__compressed_pair.2"** %37, align 8
  %212 = load %"class.std::__1::__compressed_pair.2"*, %"class.std::__1::__compressed_pair.2"** %37, align 8
  %213 = bitcast %"class.std::__1::__compressed_pair.2"* %212 to %"struct.std::__1::__compressed_pair_elem.4"*, !dbg !5269
  store %"struct.std::__1::__compressed_pair_elem.4"* %213, %"struct.std::__1::__compressed_pair_elem.4"** %36, align 8
  %214 = load %"struct.std::__1::__compressed_pair_elem.4"*, %"struct.std::__1::__compressed_pair_elem.4"** %36, align 8
  %215 = bitcast %"struct.std::__1::__compressed_pair_elem.4"* %214 to %"struct.std::__1::default_delete.5"*, !dbg !5270
  %216 = load %"class.altered_carbon::js::ACAstBaseNode"*, %"class.altered_carbon::js::ACAstBaseNode"** %46, align 8, !dbg !5271
  store %"struct.std::__1::default_delete.5"* %215, %"struct.std::__1::default_delete.5"** %40, align 8
  store %"class.altered_carbon::js::ACAstBaseNode"* %216, %"class.altered_carbon::js::ACAstBaseNode"** %41, align 8
  %217 = load %"struct.std::__1::default_delete.5"*, %"struct.std::__1::default_delete.5"** %40, align 8
  %218 = load %"class.altered_carbon::js::ACAstBaseNode"*, %"class.altered_carbon::js::ACAstBaseNode"** %41, align 8, !dbg !5272
  %219 = icmp eq %"class.altered_carbon::js::ACAstBaseNode"* %218, null, !dbg !5273
  br i1 %219, label %225, label %220, !dbg !5273

; <label>:220:                                    ; preds = %210
  %221 = bitcast %"class.altered_carbon::js::ACAstBaseNode"* %218 to void (%"class.altered_carbon::js::ACAstBaseNode"*)***, !dbg !5273
  %222 = load void (%"class.altered_carbon::js::ACAstBaseNode"*)**, void (%"class.altered_carbon::js::ACAstBaseNode"*)*** %221, align 8, !dbg !5273
  %223 = getelementptr inbounds void (%"class.altered_carbon::js::ACAstBaseNode"*)*, void (%"class.altered_carbon::js::ACAstBaseNode"*)** %222, i64 1, !dbg !5273
  %224 = load void (%"class.altered_carbon::js::ACAstBaseNode"*)*, void (%"class.altered_carbon::js::ACAstBaseNode"*)** %223, align 8, !dbg !5273
  call void %224(%"class.altered_carbon::js::ACAstBaseNode"* %218) #8, !dbg !5273
  br label %225, !dbg !5273

; <label>:225:                                    ; preds = %220, %210
  br label %226, !dbg !5268

; <label>:226:                                    ; preds = %5, %225
  store %"class.std::__1::unique_ptr"* %95, %"class.std::__1::unique_ptr"** %90, align 8
  %227 = load %"class.std::__1::unique_ptr"*, %"class.std::__1::unique_ptr"** %90, align 8
  store %"class.std::__1::unique_ptr"* %227, %"class.std::__1::unique_ptr"** %89, align 8
  %228 = load %"class.std::__1::unique_ptr"*, %"class.std::__1::unique_ptr"** %89, align 8
  store %"class.std::__1::unique_ptr"* %228, %"class.std::__1::unique_ptr"** %86, align 8
  store %"struct.altered_carbon::js::ACLexPosition"* null, %"struct.altered_carbon::js::ACLexPosition"** %87, align 8
  %229 = load %"class.std::__1::unique_ptr"*, %"class.std::__1::unique_ptr"** %86, align 8
  %230 = getelementptr inbounds %"class.std::__1::unique_ptr", %"class.std::__1::unique_ptr"* %229, i32 0, i32 0, !dbg !5274
  store %"class.std::__1::__compressed_pair"* %230, %"class.std::__1::__compressed_pair"** %85, align 8
  %231 = load %"class.std::__1::__compressed_pair"*, %"class.std::__1::__compressed_pair"** %85, align 8
  %232 = bitcast %"class.std::__1::__compressed_pair"* %231 to %"struct.std::__1::__compressed_pair_elem"*, !dbg !5275
  store %"struct.std::__1::__compressed_pair_elem"* %232, %"struct.std::__1::__compressed_pair_elem"** %84, align 8
  %233 = load %"struct.std::__1::__compressed_pair_elem"*, %"struct.std::__1::__compressed_pair_elem"** %84, align 8
  %234 = getelementptr inbounds %"struct.std::__1::__compressed_pair_elem", %"struct.std::__1::__compressed_pair_elem"* %233, i32 0, i32 0, !dbg !5276
  %235 = load %"struct.altered_carbon::js::ACLexPosition"*, %"struct.altered_carbon::js::ACLexPosition"** %234, align 8, !dbg !5277
  store %"struct.altered_carbon::js::ACLexPosition"* %235, %"struct.altered_carbon::js::ACLexPosition"** %88, align 8, !dbg !5164
  %236 = load %"struct.altered_carbon::js::ACLexPosition"*, %"struct.altered_carbon::js::ACLexPosition"** %87, align 8, !dbg !5278
  %237 = getelementptr inbounds %"class.std::__1::unique_ptr", %"class.std::__1::unique_ptr"* %229, i32 0, i32 0, !dbg !5279
  store %"class.std::__1::__compressed_pair"* %237, %"class.std::__1::__compressed_pair"** %81, align 8
  %238 = load %"class.std::__1::__compressed_pair"*, %"class.std::__1::__compressed_pair"** %81, align 8
  %239 = bitcast %"class.std::__1::__compressed_pair"* %238 to %"struct.std::__1::__compressed_pair_elem"*, !dbg !5280
  store %"struct.std::__1::__compressed_pair_elem"* %239, %"struct.std::__1::__compressed_pair_elem"** %80, align 8
  %240 = load %"struct.std::__1::__compressed_pair_elem"*, %"struct.std::__1::__compressed_pair_elem"** %80, align 8
  %241 = getelementptr inbounds %"struct.std::__1::__compressed_pair_elem", %"struct.std::__1::__compressed_pair_elem"* %240, i32 0, i32 0, !dbg !5281
  store %"struct.altered_carbon::js::ACLexPosition"* %236, %"struct.altered_carbon::js::ACLexPosition"** %241, align 8, !dbg !5282
  %242 = load %"struct.altered_carbon::js::ACLexPosition"*, %"struct.altered_carbon::js::ACLexPosition"** %88, align 8, !dbg !5283
  %243 = icmp ne %"struct.altered_carbon::js::ACLexPosition"* %242, null, !dbg !5283
  br i1 %243, label %244, label %260, !dbg !5284

; <label>:244:                                    ; preds = %226
  %245 = getelementptr inbounds %"class.std::__1::unique_ptr", %"class.std::__1::unique_ptr"* %229, i32 0, i32 0, !dbg !5285
  store %"class.std::__1::__compressed_pair"* %245, %"class.std::__1::__compressed_pair"** %79, align 8
  %246 = load %"class.std::__1::__compressed_pair"*, %"class.std::__1::__compressed_pair"** %79, align 8
  %247 = bitcast %"class.std::__1::__compressed_pair"* %246 to %"struct.std::__1::__compressed_pair_elem.0"*, !dbg !5286
  store %"struct.std::__1::__compressed_pair_elem.0"* %247, %"struct.std::__1::__compressed_pair_elem.0"** %78, align 8
  %248 = load %"struct.std::__1::__compressed_pair_elem.0"*, %"struct.std::__1::__compressed_pair_elem.0"** %78, align 8
  %249 = bitcast %"struct.std::__1::__compressed_pair_elem.0"* %248 to %"struct.std::__1::default_delete"*, !dbg !5287
  %250 = load %"struct.altered_carbon::js::ACLexPosition"*, %"struct.altered_carbon::js::ACLexPosition"** %88, align 8, !dbg !5288
  store %"struct.std::__1::default_delete"* %249, %"struct.std::__1::default_delete"** %82, align 8
  store %"struct.altered_carbon::js::ACLexPosition"* %250, %"struct.altered_carbon::js::ACLexPosition"** %83, align 8
  %251 = load %"struct.std::__1::default_delete"*, %"struct.std::__1::default_delete"** %82, align 8
  %252 = load %"struct.altered_carbon::js::ACLexPosition"*, %"struct.altered_carbon::js::ACLexPosition"** %83, align 8, !dbg !5289
  %253 = icmp eq %"struct.altered_carbon::js::ACLexPosition"* %252, null, !dbg !5290
  br i1 %253, label %259, label %254, !dbg !5290

; <label>:254:                                    ; preds = %244
  %255 = bitcast %"struct.altered_carbon::js::ACLexPosition"* %252 to void (%"struct.altered_carbon::js::ACLexPosition"*)***, !dbg !5290
  %256 = load void (%"struct.altered_carbon::js::ACLexPosition"*)**, void (%"struct.altered_carbon::js::ACLexPosition"*)*** %255, align 8, !dbg !5290
  %257 = getelementptr inbounds void (%"struct.altered_carbon::js::ACLexPosition"*)*, void (%"struct.altered_carbon::js::ACLexPosition"*)** %256, i64 1, !dbg !5290
  %258 = load void (%"struct.altered_carbon::js::ACLexPosition"*)*, void (%"struct.altered_carbon::js::ACLexPosition"*)** %257, align 8, !dbg !5290
  call void %258(%"struct.altered_carbon::js::ACLexPosition"* %252) #8, !dbg !5290
  br label %259, !dbg !5290

; <label>:259:                                    ; preds = %254, %244
  br label %260, !dbg !5285

; <label>:260:                                    ; preds = %226, %259
  %261 = bitcast %"class.altered_carbon::js::ACAstExpressionStatement"* %97 to i32 (...)***, !dbg !5191
  store i32 (...)** bitcast (i8** getelementptr inbounds ({ [14 x i8*] }, { [14 x i8*] }* @_ZTVN14altered_carbon2js24ACAstExpressionStatementE, i32 0, inrange i32 0, i32 2) to i32 (...)**), i32 (...)*** %261, align 8, !dbg !5191
  ret void, !dbg !5291
}

; Function Attrs: nounwind readnone speculatable
declare void @llvm.dbg.declare(metadata, metadata, metadata) #1

declare void @_ZN14altered_carbon2js18ACAstStatementNodeC2ENSt3__110unique_ptrINS0_13ACLexPositionENS2_14default_deleteIS4_EEEENS3_INS0_13ACAstBaseNodeENS5_IS8_EEEENS8_11AstNodeTypeENS8_14AstNodeSubTypeE(%"class.altered_carbon::js::ACAstStatementNode"*, %"class.std::__1::unique_ptr"*, %"class.std::__1::unique_ptr.1"*, i32, i32) unnamed_addr #2

; Function Attrs: noinline nounwind optnone ssp uwtable
define void @_ZN14altered_carbon2js24ACAstExpressionStatementC1ENSt3__110unique_ptrINS0_13ACLexPositionENS2_14default_deleteIS4_EEEENS3_INS0_13ACAstBaseNodeENS5_IS8_EEEENS8_11AstNodeTypeENS8_14AstNodeSubTypeE(%"class.altered_carbon::js::ACAstExpressionStatement"*, %"class.std::__1::unique_ptr"*, %"class.std::__1::unique_ptr.1"*, i32, i32) unnamed_addr #0 align 2 !dbg !5292 {
  %6 = alloca %"class.altered_carbon::js::ACAstExpressionStatement"*, align 8
  %7 = alloca i32, align 4
  %8 = alloca i32, align 4
  store %"class.altered_carbon::js::ACAstExpressionStatement"* %0, %"class.altered_carbon::js::ACAstExpressionStatement"** %6, align 8
  call void @llvm.dbg.declare(metadata %"class.altered_carbon::js::ACAstExpressionStatement"** %6, metadata !5293, metadata !DIExpression()), !dbg !5294
  call void @llvm.dbg.declare(metadata %"class.std::__1::unique_ptr"* %1, metadata !5295, metadata !DIExpression()), !dbg !5296
  call void @llvm.dbg.declare(metadata %"class.std::__1::unique_ptr.1"* %2, metadata !5297, metadata !DIExpression()), !dbg !5298
  store i32 %3, i32* %7, align 4
  call void @llvm.dbg.declare(metadata i32* %7, metadata !5299, metadata !DIExpression()), !dbg !5300
  store i32 %4, i32* %8, align 4
  call void @llvm.dbg.declare(metadata i32* %8, metadata !5301, metadata !DIExpression()), !dbg !5302
  %9 = load %"class.altered_carbon::js::ACAstExpressionStatement"*, %"class.altered_carbon::js::ACAstExpressionStatement"** %6, align 8
  %10 = load i32, i32* %7, align 4, !dbg !5303
  %11 = load i32, i32* %8, align 4, !dbg !5303
  call void @_ZN14altered_carbon2js24ACAstExpressionStatementC2ENSt3__110unique_ptrINS0_13ACLexPositionENS2_14default_deleteIS4_EEEENS3_INS0_13ACAstBaseNodeENS5_IS8_EEEENS8_11AstNodeTypeENS8_14AstNodeSubTypeE(%"class.altered_carbon::js::ACAstExpressionStatement"* %9, %"class.std::__1::unique_ptr"* %1, %"class.std::__1::unique_ptr.1"* %2, i32 %10, i32 %11), !dbg !5303
  ret void, !dbg !5304
}

; Function Attrs: noinline nounwind optnone ssp uwtable
define void @_ZNK14altered_carbon2js24ACAstExpressionStatement14dumpChildNodesERNSt3__113basic_ostreamIcNS2_11char_traitsIcEEEE(%"class.altered_carbon::js::ACAstExpressionStatement"*, %"class.std::__1::basic_ostream"* dereferenceable(160)) unnamed_addr #0 align 2 !dbg !5305 {
  %3 = alloca %"class.altered_carbon::js::ACAstExpressionStatement"*, align 8
  %4 = alloca %"class.std::__1::basic_ostream"*, align 8
  store %"class.altered_carbon::js::ACAstExpressionStatement"* %0, %"class.altered_carbon::js::ACAstExpressionStatement"** %3, align 8
  call void @llvm.dbg.declare(metadata %"class.altered_carbon::js::ACAstExpressionStatement"** %3, metadata !5306, metadata !DIExpression()), !dbg !5308
  store %"class.std::__1::basic_ostream"* %1, %"class.std::__1::basic_ostream"** %4, align 8
  call void @llvm.dbg.declare(metadata %"class.std::__1::basic_ostream"** %4, metadata !5309, metadata !DIExpression()), !dbg !5310
  %5 = load %"class.altered_carbon::js::ACAstExpressionStatement"*, %"class.altered_carbon::js::ACAstExpressionStatement"** %3, align 8
  %6 = bitcast %"class.altered_carbon::js::ACAstExpressionStatement"* %5 to %"class.altered_carbon::js::ACAstStatementNode"*, !dbg !5311
  %7 = load %"class.std::__1::basic_ostream"*, %"class.std::__1::basic_ostream"** %4, align 8, !dbg !5312
  call void @_ZNK14altered_carbon2js18ACAstStatementNode14dumpChildNodesERNSt3__113basic_ostreamIcNS2_11char_traitsIcEEEE(%"class.altered_carbon::js::ACAstStatementNode"* %6, %"class.std::__1::basic_ostream"* dereferenceable(160) %7), !dbg !5311
  ret void, !dbg !5313
}

declare void @_ZNK14altered_carbon2js18ACAstStatementNode14dumpChildNodesERNSt3__113basic_ostreamIcNS2_11char_traitsIcEEEE(%"class.altered_carbon::js::ACAstStatementNode"*, %"class.std::__1::basic_ostream"* dereferenceable(160)) unnamed_addr #2

; Function Attrs: noinline nounwind optnone ssp uwtable
define void @_ZN14altered_carbon2js20ACAstIfElseStatementC2ENSt3__110unique_ptrINS0_13ACLexPositionENS2_14default_deleteIS4_EEEENS3_INS0_13ACAstBaseNodeENS5_IS8_EEEESA_SA_NS8_11AstNodeTypeENS8_14AstNodeSubTypeE(%"class.altered_carbon::js::ACAstIfElseStatement"*, %"class.std::__1::unique_ptr"*, %"class.std::__1::unique_ptr.1"*, %"class.std::__1::unique_ptr.1"*, %"class.std::__1::unique_ptr.1"*, i32, i32) unnamed_addr #0 align 2 !dbg !5314 {
  %8 = alloca %"struct.std::__1::__compressed_pair_elem.4"*, align 8
  call void @llvm.dbg.declare(metadata %"struct.std::__1::__compressed_pair_elem.4"** %8, metadata !4848, metadata !DIExpression()), !dbg !5327
  %9 = alloca %"class.std::__1::__compressed_pair.2"*, align 8
  call void @llvm.dbg.declare(metadata %"class.std::__1::__compressed_pair.2"** %9, metadata !4861, metadata !DIExpression()), !dbg !5333
  %10 = alloca %"struct.std::__1::__compressed_pair_elem.3"*, align 8
  call void @llvm.dbg.declare(metadata %"struct.std::__1::__compressed_pair_elem.3"** %10, metadata !4940, metadata !DIExpression()), !dbg !5334
  %11 = alloca %"class.std::__1::__compressed_pair.2"*, align 8
  call void @llvm.dbg.declare(metadata %"class.std::__1::__compressed_pair.2"** %11, metadata !4948, metadata !DIExpression()), !dbg !5337
  %12 = alloca %"struct.std::__1::default_delete.5"*, align 8
  call void @llvm.dbg.declare(metadata %"struct.std::__1::default_delete.5"** %12, metadata !4993, metadata !DIExpression()), !dbg !5338
  %13 = alloca %"class.altered_carbon::js::ACAstBaseNode"*, align 8
  call void @llvm.dbg.declare(metadata %"class.altered_carbon::js::ACAstBaseNode"** %13, metadata !4998, metadata !DIExpression()), !dbg !5340
  %14 = alloca %"struct.std::__1::__compressed_pair_elem.3"*, align 8
  call void @llvm.dbg.declare(metadata %"struct.std::__1::__compressed_pair_elem.3"** %14, metadata !4940, metadata !DIExpression()), !dbg !5341
  %15 = alloca %"class.std::__1::__compressed_pair.2"*, align 8
  call void @llvm.dbg.declare(metadata %"class.std::__1::__compressed_pair.2"** %15, metadata !4948, metadata !DIExpression()), !dbg !5344
  %16 = alloca %"class.std::__1::unique_ptr.1"*, align 8
  call void @llvm.dbg.declare(metadata %"class.std::__1::unique_ptr.1"** %16, metadata !5004, metadata !DIExpression()), !dbg !5345
  %17 = alloca %"class.altered_carbon::js::ACAstBaseNode"*, align 8
  call void @llvm.dbg.declare(metadata %"class.altered_carbon::js::ACAstBaseNode"** %17, metadata !5006, metadata !DIExpression()), !dbg !5346
  %18 = alloca %"class.altered_carbon::js::ACAstBaseNode"*, align 8
  call void @llvm.dbg.declare(metadata %"class.altered_carbon::js::ACAstBaseNode"** %18, metadata !5008, metadata !DIExpression()), !dbg !5347
  %19 = alloca %"class.std::__1::unique_ptr.1"*, align 8
  call void @llvm.dbg.declare(metadata %"class.std::__1::unique_ptr.1"** %19, metadata !5010, metadata !DIExpression()), !dbg !5348
  %20 = alloca %"class.std::__1::unique_ptr.1"*, align 8
  call void @llvm.dbg.declare(metadata %"class.std::__1::unique_ptr.1"** %20, metadata !5012, metadata !DIExpression()), !dbg !5349
  %21 = alloca %"struct.std::__1::__compressed_pair_elem.4"*, align 8
  call void @llvm.dbg.declare(metadata %"struct.std::__1::__compressed_pair_elem.4"** %21, metadata !4848, metadata !DIExpression()), !dbg !5350
  %22 = alloca %"class.std::__1::__compressed_pair.2"*, align 8
  call void @llvm.dbg.declare(metadata %"class.std::__1::__compressed_pair.2"** %22, metadata !4861, metadata !DIExpression()), !dbg !5356
  %23 = alloca %"class.std::__1::unique_ptr.1"*, align 8
  call void @llvm.dbg.declare(metadata %"class.std::__1::unique_ptr.1"** %23, metadata !4864, metadata !DIExpression()), !dbg !5357
  %24 = alloca %"struct.std::__1::default_delete.5"*, align 8
  call void @llvm.dbg.declare(metadata %"struct.std::__1::default_delete.5"** %24, metadata !4866, metadata !DIExpression()), !dbg !5358
  %25 = alloca %"class.altered_carbon::js::ACAstBaseNode"**, align 8
  call void @llvm.dbg.declare(metadata %"class.altered_carbon::js::ACAstBaseNode"*** %25, metadata !4877, metadata !DIExpression()), !dbg !5360
  %26 = alloca %"struct.std::__1::__compressed_pair_elem.3"*, align 8
  call void @llvm.dbg.declare(metadata %"struct.std::__1::__compressed_pair_elem.3"** %26, metadata !4906, metadata !DIExpression()), !dbg !5365
  %27 = alloca %"class.altered_carbon::js::ACAstBaseNode"**, align 8
  call void @llvm.dbg.declare(metadata %"class.altered_carbon::js::ACAstBaseNode"*** %27, metadata !4909, metadata !DIExpression()), !dbg !5366
  %28 = alloca %"struct.std::__1::default_delete.5"*, align 8
  call void @llvm.dbg.declare(metadata %"struct.std::__1::default_delete.5"** %28, metadata !4866, metadata !DIExpression()), !dbg !5367
  %29 = alloca %"struct.std::__1::default_delete.5"*, align 8
  call void @llvm.dbg.declare(metadata %"struct.std::__1::default_delete.5"** %29, metadata !4866, metadata !DIExpression()), !dbg !5369
  %30 = alloca %"struct.std::__1::__compressed_pair_elem.4"*, align 8
  call void @llvm.dbg.declare(metadata %"struct.std::__1::__compressed_pair_elem.4"** %30, metadata !4922, metadata !DIExpression()), !dbg !5372
  %31 = alloca %"struct.std::__1::default_delete.5"*, align 8
  call void @llvm.dbg.declare(metadata %"struct.std::__1::default_delete.5"** %31, metadata !4924, metadata !DIExpression()), !dbg !5373
  %32 = alloca %"class.altered_carbon::js::ACAstBaseNode"**, align 8
  call void @llvm.dbg.declare(metadata %"class.altered_carbon::js::ACAstBaseNode"*** %32, metadata !4877, metadata !DIExpression()), !dbg !5374
  %33 = alloca %"class.std::__1::__compressed_pair.2"*, align 8
  call void @llvm.dbg.declare(metadata %"class.std::__1::__compressed_pair.2"** %33, metadata !4928, metadata !DIExpression()), !dbg !5376
  %34 = alloca %"class.altered_carbon::js::ACAstBaseNode"**, align 8
  call void @llvm.dbg.declare(metadata %"class.altered_carbon::js::ACAstBaseNode"*** %34, metadata !4930, metadata !DIExpression()), !dbg !5377
  %35 = alloca %"struct.std::__1::default_delete.5"*, align 8
  call void @llvm.dbg.declare(metadata %"struct.std::__1::default_delete.5"** %35, metadata !4932, metadata !DIExpression()), !dbg !5378
  %36 = alloca %"class.std::__1::__compressed_pair.2"*, align 8
  call void @llvm.dbg.declare(metadata %"class.std::__1::__compressed_pair.2"** %36, metadata !4934, metadata !DIExpression()), !dbg !5379
  %37 = alloca %"class.altered_carbon::js::ACAstBaseNode"**, align 8
  call void @llvm.dbg.declare(metadata %"class.altered_carbon::js::ACAstBaseNode"*** %37, metadata !4936, metadata !DIExpression()), !dbg !5380
  %38 = alloca %"struct.std::__1::default_delete.5"*, align 8
  call void @llvm.dbg.declare(metadata %"struct.std::__1::default_delete.5"** %38, metadata !4938, metadata !DIExpression()), !dbg !5381
  %39 = alloca %"struct.std::__1::__compressed_pair_elem.3"*, align 8
  call void @llvm.dbg.declare(metadata %"struct.std::__1::__compressed_pair_elem.3"** %39, metadata !4940, metadata !DIExpression()), !dbg !5382
  %40 = alloca %"class.std::__1::__compressed_pair.2"*, align 8
  call void @llvm.dbg.declare(metadata %"class.std::__1::__compressed_pair.2"** %40, metadata !4948, metadata !DIExpression()), !dbg !5386
  %41 = alloca %"struct.std::__1::__compressed_pair_elem.3"*, align 8
  call void @llvm.dbg.declare(metadata %"struct.std::__1::__compressed_pair_elem.3"** %41, metadata !4940, metadata !DIExpression()), !dbg !5387
  %42 = alloca %"class.std::__1::__compressed_pair.2"*, align 8
  call void @llvm.dbg.declare(metadata %"class.std::__1::__compressed_pair.2"** %42, metadata !4948, metadata !DIExpression()), !dbg !5390
  %43 = alloca %"class.std::__1::unique_ptr.1"*, align 8
  call void @llvm.dbg.declare(metadata %"class.std::__1::unique_ptr.1"** %43, metadata !4954, metadata !DIExpression()), !dbg !5391
  %44 = alloca %"class.altered_carbon::js::ACAstBaseNode"*, align 8
  call void @llvm.dbg.declare(metadata %"class.altered_carbon::js::ACAstBaseNode"** %44, metadata !4956, metadata !DIExpression()), !dbg !5392
  %45 = alloca %"class.std::__1::unique_ptr.1"*, align 8
  call void @llvm.dbg.declare(metadata %"class.std::__1::unique_ptr.1"** %45, metadata !4958, metadata !DIExpression()), !dbg !5393
  %46 = alloca %"class.std::__1::unique_ptr.1"*, align 8
  call void @llvm.dbg.declare(metadata %"class.std::__1::unique_ptr.1"** %46, metadata !4960, metadata !DIExpression()), !dbg !5394
  %47 = alloca %"class.altered_carbon::js::ACAstBaseNode"*, align 8
  %48 = alloca %"class.std::__1::unique_ptr.1"*, align 8
  call void @llvm.dbg.declare(metadata %"class.std::__1::unique_ptr.1"** %48, metadata !4962, metadata !DIExpression()), !dbg !5395
  %49 = alloca %"class.std::__1::unique_ptr.1"*, align 8
  call void @llvm.dbg.declare(metadata %"class.std::__1::unique_ptr.1"** %49, metadata !4964, metadata !DIExpression()), !dbg !5396
  %50 = alloca %"struct.std::__1::__compressed_pair_elem.0"*, align 8
  call void @llvm.dbg.declare(metadata %"struct.std::__1::__compressed_pair_elem.0"** %50, metadata !5014, metadata !DIExpression()), !dbg !5397
  %51 = alloca %"class.std::__1::__compressed_pair"*, align 8
  call void @llvm.dbg.declare(metadata %"class.std::__1::__compressed_pair"** %51, metadata !5027, metadata !DIExpression()), !dbg !5403
  %52 = alloca %"struct.std::__1::__compressed_pair_elem"*, align 8
  call void @llvm.dbg.declare(metadata %"struct.std::__1::__compressed_pair_elem"** %52, metadata !5106, metadata !DIExpression()), !dbg !5404
  %53 = alloca %"class.std::__1::__compressed_pair"*, align 8
  call void @llvm.dbg.declare(metadata %"class.std::__1::__compressed_pair"** %53, metadata !5114, metadata !DIExpression()), !dbg !5407
  %54 = alloca %"struct.std::__1::default_delete"*, align 8
  call void @llvm.dbg.declare(metadata %"struct.std::__1::default_delete"** %54, metadata !5148, metadata !DIExpression()), !dbg !5408
  %55 = alloca %"struct.altered_carbon::js::ACLexPosition"*, align 8
  call void @llvm.dbg.declare(metadata %"struct.altered_carbon::js::ACLexPosition"** %55, metadata !5153, metadata !DIExpression()), !dbg !5410
  %56 = alloca %"struct.std::__1::__compressed_pair_elem"*, align 8
  call void @llvm.dbg.declare(metadata %"struct.std::__1::__compressed_pair_elem"** %56, metadata !5106, metadata !DIExpression()), !dbg !5411
  %57 = alloca %"class.std::__1::__compressed_pair"*, align 8
  call void @llvm.dbg.declare(metadata %"class.std::__1::__compressed_pair"** %57, metadata !5114, metadata !DIExpression()), !dbg !5414
  %58 = alloca %"class.std::__1::unique_ptr"*, align 8
  call void @llvm.dbg.declare(metadata %"class.std::__1::unique_ptr"** %58, metadata !5159, metadata !DIExpression()), !dbg !5415
  %59 = alloca %"struct.altered_carbon::js::ACLexPosition"*, align 8
  call void @llvm.dbg.declare(metadata %"struct.altered_carbon::js::ACLexPosition"** %59, metadata !5161, metadata !DIExpression()), !dbg !5416
  %60 = alloca %"struct.altered_carbon::js::ACLexPosition"*, align 8
  call void @llvm.dbg.declare(metadata %"struct.altered_carbon::js::ACLexPosition"** %60, metadata !5163, metadata !DIExpression()), !dbg !5417
  %61 = alloca %"class.std::__1::unique_ptr"*, align 8
  call void @llvm.dbg.declare(metadata %"class.std::__1::unique_ptr"** %61, metadata !5165, metadata !DIExpression()), !dbg !5418
  %62 = alloca %"class.std::__1::unique_ptr"*, align 8
  call void @llvm.dbg.declare(metadata %"class.std::__1::unique_ptr"** %62, metadata !5167, metadata !DIExpression()), !dbg !5419
  %63 = alloca %"class.std::__1::unique_ptr.1"*, align 8
  call void @llvm.dbg.declare(metadata %"class.std::__1::unique_ptr.1"** %63, metadata !4966, metadata !DIExpression()), !dbg !5420
  %64 = alloca %"class.std::__1::unique_ptr.1"*, align 8
  call void @llvm.dbg.declare(metadata %"class.std::__1::unique_ptr.1"** %64, metadata !4966, metadata !DIExpression()), !dbg !5423
  %65 = alloca %"struct.std::__1::__compressed_pair_elem.9"*, align 8
  call void @llvm.dbg.declare(metadata %"struct.std::__1::__compressed_pair_elem.9"** %65, metadata !5425, metadata !DIExpression()), !dbg !5428
  %66 = alloca %"class.std::__1::__compressed_pair.7"*, align 8
  call void @llvm.dbg.declare(metadata %"class.std::__1::__compressed_pair.7"** %66, metadata !5438, metadata !DIExpression()), !dbg !5440
  %67 = alloca %"class.std::__1::__vector_base"*, align 8
  call void @llvm.dbg.declare(metadata %"class.std::__1::__vector_base"** %67, metadata !5441, metadata !DIExpression()), !dbg !5443
  %68 = alloca %"class.std::__1::unique_ptr.1"*, align 8
  call void @llvm.dbg.declare(metadata %"class.std::__1::unique_ptr.1"** %68, metadata !5444, metadata !DIExpression()), !dbg !5448
  %69 = alloca %"class.std::__1::unique_ptr.1"*, align 8
  call void @llvm.dbg.declare(metadata %"class.std::__1::unique_ptr.1"** %69, metadata !4966, metadata !DIExpression()), !dbg !5450
  %70 = alloca %"struct.std::__1::__compressed_pair_elem.4"*, align 8
  call void @llvm.dbg.declare(metadata %"struct.std::__1::__compressed_pair_elem.4"** %70, metadata !4848, metadata !DIExpression()), !dbg !5452
  %71 = alloca %"class.std::__1::__compressed_pair.2"*, align 8
  call void @llvm.dbg.declare(metadata %"class.std::__1::__compressed_pair.2"** %71, metadata !4861, metadata !DIExpression()), !dbg !5479
  %72 = alloca %"class.std::__1::unique_ptr.1"*, align 8
  call void @llvm.dbg.declare(metadata %"class.std::__1::unique_ptr.1"** %72, metadata !4864, metadata !DIExpression()), !dbg !5480
  %73 = alloca %"struct.std::__1::default_delete.5"*, align 8
  call void @llvm.dbg.declare(metadata %"struct.std::__1::default_delete.5"** %73, metadata !4866, metadata !DIExpression()), !dbg !5481
  %74 = alloca %"class.altered_carbon::js::ACAstBaseNode"**, align 8
  call void @llvm.dbg.declare(metadata %"class.altered_carbon::js::ACAstBaseNode"*** %74, metadata !4877, metadata !DIExpression()), !dbg !5483
  %75 = alloca %"struct.std::__1::__compressed_pair_elem.3"*, align 8
  call void @llvm.dbg.declare(metadata %"struct.std::__1::__compressed_pair_elem.3"** %75, metadata !4906, metadata !DIExpression()), !dbg !5488
  %76 = alloca %"class.altered_carbon::js::ACAstBaseNode"**, align 8
  call void @llvm.dbg.declare(metadata %"class.altered_carbon::js::ACAstBaseNode"*** %76, metadata !4909, metadata !DIExpression()), !dbg !5489
  %77 = alloca %"struct.std::__1::default_delete.5"*, align 8
  call void @llvm.dbg.declare(metadata %"struct.std::__1::default_delete.5"** %77, metadata !4866, metadata !DIExpression()), !dbg !5490
  %78 = alloca %"struct.std::__1::default_delete.5"*, align 8
  call void @llvm.dbg.declare(metadata %"struct.std::__1::default_delete.5"** %78, metadata !4866, metadata !DIExpression()), !dbg !5492
  %79 = alloca %"struct.std::__1::__compressed_pair_elem.4"*, align 8
  call void @llvm.dbg.declare(metadata %"struct.std::__1::__compressed_pair_elem.4"** %79, metadata !4922, metadata !DIExpression()), !dbg !5495
  %80 = alloca %"struct.std::__1::default_delete.5"*, align 8
  call void @llvm.dbg.declare(metadata %"struct.std::__1::default_delete.5"** %80, metadata !4924, metadata !DIExpression()), !dbg !5496
  %81 = alloca %"class.altered_carbon::js::ACAstBaseNode"**, align 8
  call void @llvm.dbg.declare(metadata %"class.altered_carbon::js::ACAstBaseNode"*** %81, metadata !4877, metadata !DIExpression()), !dbg !5497
  %82 = alloca %"class.std::__1::__compressed_pair.2"*, align 8
  call void @llvm.dbg.declare(metadata %"class.std::__1::__compressed_pair.2"** %82, metadata !4928, metadata !DIExpression()), !dbg !5499
  %83 = alloca %"class.altered_carbon::js::ACAstBaseNode"**, align 8
  call void @llvm.dbg.declare(metadata %"class.altered_carbon::js::ACAstBaseNode"*** %83, metadata !4930, metadata !DIExpression()), !dbg !5500
  %84 = alloca %"struct.std::__1::default_delete.5"*, align 8
  call void @llvm.dbg.declare(metadata %"struct.std::__1::default_delete.5"** %84, metadata !4932, metadata !DIExpression()), !dbg !5501
  %85 = alloca %"class.std::__1::__compressed_pair.2"*, align 8
  call void @llvm.dbg.declare(metadata %"class.std::__1::__compressed_pair.2"** %85, metadata !4934, metadata !DIExpression()), !dbg !5502
  %86 = alloca %"class.altered_carbon::js::ACAstBaseNode"**, align 8
  call void @llvm.dbg.declare(metadata %"class.altered_carbon::js::ACAstBaseNode"*** %86, metadata !4936, metadata !DIExpression()), !dbg !5503
  %87 = alloca %"struct.std::__1::default_delete.5"*, align 8
  call void @llvm.dbg.declare(metadata %"struct.std::__1::default_delete.5"** %87, metadata !4938, metadata !DIExpression()), !dbg !5504
  %88 = alloca %"struct.std::__1::__compressed_pair_elem.3"*, align 8
  call void @llvm.dbg.declare(metadata %"struct.std::__1::__compressed_pair_elem.3"** %88, metadata !4940, metadata !DIExpression()), !dbg !5505
  %89 = alloca %"class.std::__1::__compressed_pair.2"*, align 8
  call void @llvm.dbg.declare(metadata %"class.std::__1::__compressed_pair.2"** %89, metadata !4948, metadata !DIExpression()), !dbg !5509
  %90 = alloca %"struct.std::__1::__compressed_pair_elem.3"*, align 8
  call void @llvm.dbg.declare(metadata %"struct.std::__1::__compressed_pair_elem.3"** %90, metadata !4940, metadata !DIExpression()), !dbg !5510
  %91 = alloca %"class.std::__1::__compressed_pair.2"*, align 8
  call void @llvm.dbg.declare(metadata %"class.std::__1::__compressed_pair.2"** %91, metadata !4948, metadata !DIExpression()), !dbg !5513
  %92 = alloca %"class.std::__1::unique_ptr.1"*, align 8
  call void @llvm.dbg.declare(metadata %"class.std::__1::unique_ptr.1"** %92, metadata !4954, metadata !DIExpression()), !dbg !5514
  %93 = alloca %"class.altered_carbon::js::ACAstBaseNode"*, align 8
  call void @llvm.dbg.declare(metadata %"class.altered_carbon::js::ACAstBaseNode"** %93, metadata !4956, metadata !DIExpression()), !dbg !5515
  %94 = alloca %"class.std::__1::unique_ptr.1"*, align 8
  call void @llvm.dbg.declare(metadata %"class.std::__1::unique_ptr.1"** %94, metadata !4958, metadata !DIExpression()), !dbg !5516
  %95 = alloca %"class.std::__1::unique_ptr.1"*, align 8
  call void @llvm.dbg.declare(metadata %"class.std::__1::unique_ptr.1"** %95, metadata !4960, metadata !DIExpression()), !dbg !5517
  %96 = alloca %"class.altered_carbon::js::ACAstBaseNode"*, align 8
  %97 = alloca %"class.std::__1::unique_ptr.1"*, align 8
  call void @llvm.dbg.declare(metadata %"class.std::__1::unique_ptr.1"** %97, metadata !4962, metadata !DIExpression()), !dbg !5518
  %98 = alloca %"class.std::__1::unique_ptr.1"*, align 8
  call void @llvm.dbg.declare(metadata %"class.std::__1::unique_ptr.1"** %98, metadata !4964, metadata !DIExpression()), !dbg !5519
  %99 = alloca %"class.std::__1::unique_ptr.1"*, align 8
  call void @llvm.dbg.declare(metadata %"class.std::__1::unique_ptr.1"** %99, metadata !5520, metadata !DIExpression()), !dbg !5527
  %100 = alloca %"class.std::__1::allocator"*, align 8
  call void @llvm.dbg.declare(metadata %"class.std::__1::allocator"** %100, metadata !5529, metadata !DIExpression()), !dbg !5531
  %101 = alloca %"class.std::__1::unique_ptr.1"*, align 8
  call void @llvm.dbg.declare(metadata %"class.std::__1::unique_ptr.1"** %101, metadata !5532, metadata !DIExpression()), !dbg !5533
  %102 = alloca %"class.std::__1::unique_ptr.1"*, align 8
  call void @llvm.dbg.declare(metadata %"class.std::__1::unique_ptr.1"** %102, metadata !5534, metadata !DIExpression()), !dbg !5535
  %103 = alloca %"class.std::__1::unique_ptr.1"*, align 8
  call void @llvm.dbg.declare(metadata %"class.std::__1::unique_ptr.1"** %103, metadata !5520, metadata !DIExpression()), !dbg !5536
  %104 = alloca %"class.std::__1::allocator"*, align 8
  call void @llvm.dbg.declare(metadata %"class.std::__1::allocator"** %104, metadata !5538, metadata !DIExpression()), !dbg !5539
  %105 = alloca %"class.std::__1::unique_ptr.1"*, align 8
  call void @llvm.dbg.declare(metadata %"class.std::__1::unique_ptr.1"** %105, metadata !5540, metadata !DIExpression()), !dbg !5541
  %106 = alloca %"class.std::__1::unique_ptr.1"*, align 8
  call void @llvm.dbg.declare(metadata %"class.std::__1::unique_ptr.1"** %106, metadata !5542, metadata !DIExpression()), !dbg !5543
  %107 = alloca %"class.std::__1::unique_ptr.1"*, align 8
  call void @llvm.dbg.declare(metadata %"class.std::__1::unique_ptr.1"** %107, metadata !5520, metadata !DIExpression()), !dbg !5544
  %108 = alloca %"class.std::__1::allocator"*, align 8
  call void @llvm.dbg.declare(metadata %"class.std::__1::allocator"** %108, metadata !5546, metadata !DIExpression()), !dbg !5547
  %109 = alloca %"class.std::__1::unique_ptr.1"*, align 8
  call void @llvm.dbg.declare(metadata %"class.std::__1::unique_ptr.1"** %109, metadata !5548, metadata !DIExpression()), !dbg !5549
  %110 = alloca %"class.std::__1::unique_ptr.1"*, align 8
  call void @llvm.dbg.declare(metadata %"class.std::__1::unique_ptr.1"** %110, metadata !5550, metadata !DIExpression()), !dbg !5551
  %111 = alloca %"struct.std::__1::__has_construct", align 1
  %112 = alloca %"struct.std::__1::vector<std::__1::unique_ptr<altered_carbon::js::ACAstBaseNode, std::__1::default_delete<altered_carbon::js::ACAstBaseNode> >, std::__1::allocator<std::__1::unique_ptr<altered_carbon::js::ACAstBaseNode, std::__1::default_delete<altered_carbon::js::ACAstBaseNode> > > >::__RAII_IncreaseAnnotator"*, align 8
  call void @llvm.dbg.declare(metadata %"struct.std::__1::vector<std::__1::unique_ptr<altered_carbon::js::ACAstBaseNode, std::__1::default_delete<altered_carbon::js::ACAstBaseNode> >, std::__1::allocator<std::__1::unique_ptr<altered_carbon::js::ACAstBaseNode, std::__1::default_delete<altered_carbon::js::ACAstBaseNode> > > >::__RAII_IncreaseAnnotator"** %112, metadata !5552, metadata !DIExpression()), !dbg !5564
  %113 = alloca %"class.std::__1::unique_ptr.1"*, align 8
  call void @llvm.dbg.declare(metadata %"class.std::__1::unique_ptr.1"** %113, metadata !4966, metadata !DIExpression()), !dbg !5566
  %114 = alloca %"struct.std::__1::vector<std::__1::unique_ptr<altered_carbon::js::ACAstBaseNode, std::__1::default_delete<altered_carbon::js::ACAstBaseNode> >, std::__1::allocator<std::__1::unique_ptr<altered_carbon::js::ACAstBaseNode, std::__1::default_delete<altered_carbon::js::ACAstBaseNode> > > >::__RAII_IncreaseAnnotator"*, align 8
  call void @llvm.dbg.declare(metadata %"struct.std::__1::vector<std::__1::unique_ptr<altered_carbon::js::ACAstBaseNode, std::__1::default_delete<altered_carbon::js::ACAstBaseNode> >, std::__1::allocator<std::__1::unique_ptr<altered_carbon::js::ACAstBaseNode, std::__1::default_delete<altered_carbon::js::ACAstBaseNode> > > >::__RAII_IncreaseAnnotator"** %114, metadata !5568, metadata !DIExpression()), !dbg !5570
  %115 = alloca %"class.std::__1::vector"*, align 8
  call void @llvm.dbg.declare(metadata %"class.std::__1::vector"** %115, metadata !5574, metadata !DIExpression()), !dbg !5575
  %116 = alloca i64, align 8
  call void @llvm.dbg.declare(metadata i64* %116, metadata !5576, metadata !DIExpression()), !dbg !5577
  %117 = alloca %"struct.std::__1::vector<std::__1::unique_ptr<altered_carbon::js::ACAstBaseNode, std::__1::default_delete<altered_carbon::js::ACAstBaseNode> >, std::__1::allocator<std::__1::unique_ptr<altered_carbon::js::ACAstBaseNode, std::__1::default_delete<altered_carbon::js::ACAstBaseNode> > > >::__RAII_IncreaseAnnotator"*, align 8
  call void @llvm.dbg.declare(metadata %"struct.std::__1::vector<std::__1::unique_ptr<altered_carbon::js::ACAstBaseNode, std::__1::default_delete<altered_carbon::js::ACAstBaseNode> >, std::__1::allocator<std::__1::unique_ptr<altered_carbon::js::ACAstBaseNode, std::__1::default_delete<altered_carbon::js::ACAstBaseNode> > > >::__RAII_IncreaseAnnotator"** %117, metadata !5578, metadata !DIExpression()), !dbg !5579
  %118 = alloca %"class.std::__1::vector"*, align 8
  call void @llvm.dbg.declare(metadata %"class.std::__1::vector"** %118, metadata !5580, metadata !DIExpression()), !dbg !5581
  %119 = alloca i64, align 8
  call void @llvm.dbg.declare(metadata i64* %119, metadata !5582, metadata !DIExpression()), !dbg !5583
  %120 = alloca %"struct.std::__1::__compressed_pair_elem.8"*, align 8
  call void @llvm.dbg.declare(metadata %"struct.std::__1::__compressed_pair_elem.8"** %120, metadata !5584, metadata !DIExpression()), !dbg !5587
  %121 = alloca %"class.std::__1::__compressed_pair.7"*, align 8
  call void @llvm.dbg.declare(metadata %"class.std::__1::__compressed_pair.7"** %121, metadata !5593, metadata !DIExpression()), !dbg !5594
  %122 = alloca %"class.std::__1::__vector_base"*, align 8
  call void @llvm.dbg.declare(metadata %"class.std::__1::__vector_base"** %122, metadata !5595, metadata !DIExpression()), !dbg !5596
  %123 = alloca %"class.std::__1::vector"*, align 8
  call void @llvm.dbg.declare(metadata %"class.std::__1::vector"** %123, metadata !5597, metadata !DIExpression()), !dbg !5599
  %124 = alloca %"class.std::__1::unique_ptr.1"*, align 8
  call void @llvm.dbg.declare(metadata %"class.std::__1::unique_ptr.1"** %124, metadata !5600, metadata !DIExpression()), !dbg !5601
  %125 = alloca %"struct.std::__1::vector<std::__1::unique_ptr<altered_carbon::js::ACAstBaseNode, std::__1::default_delete<altered_carbon::js::ACAstBaseNode> >, std::__1::allocator<std::__1::unique_ptr<altered_carbon::js::ACAstBaseNode, std::__1::default_delete<altered_carbon::js::ACAstBaseNode> > > >::__RAII_IncreaseAnnotator", align 1
  call void @llvm.dbg.declare(metadata %"struct.std::__1::vector<std::__1::unique_ptr<altered_carbon::js::ACAstBaseNode, std::__1::default_delete<altered_carbon::js::ACAstBaseNode> >, std::__1::allocator<std::__1::unique_ptr<altered_carbon::js::ACAstBaseNode, std::__1::default_delete<altered_carbon::js::ACAstBaseNode> > > >::__RAII_IncreaseAnnotator"* %125, metadata !5602, metadata !DIExpression()), !dbg !5603
  %126 = alloca %"class.std::__1::unique_ptr.1"*, align 8
  call void @llvm.dbg.declare(metadata %"class.std::__1::unique_ptr.1"** %126, metadata !4966, metadata !DIExpression()), !dbg !5604
  %127 = alloca %"struct.std::__1::__compressed_pair_elem.0"*, align 8
  call void @llvm.dbg.declare(metadata %"struct.std::__1::__compressed_pair_elem.0"** %127, metadata !5014, metadata !DIExpression()), !dbg !5606
  %128 = alloca %"class.std::__1::__compressed_pair"*, align 8
  call void @llvm.dbg.declare(metadata %"class.std::__1::__compressed_pair"** %128, metadata !5027, metadata !DIExpression()), !dbg !5612
  %129 = alloca %"class.std::__1::unique_ptr"*, align 8
  call void @llvm.dbg.declare(metadata %"class.std::__1::unique_ptr"** %129, metadata !5030, metadata !DIExpression()), !dbg !5613
  %130 = alloca %"struct.std::__1::default_delete"*, align 8
  call void @llvm.dbg.declare(metadata %"struct.std::__1::default_delete"** %130, metadata !5033, metadata !DIExpression()), !dbg !5614
  %131 = alloca %"struct.altered_carbon::js::ACLexPosition"**, align 8
  call void @llvm.dbg.declare(metadata %"struct.altered_carbon::js::ACLexPosition"*** %131, metadata !5044, metadata !DIExpression()), !dbg !5616
  %132 = alloca %"struct.std::__1::__compressed_pair_elem"*, align 8
  call void @llvm.dbg.declare(metadata %"struct.std::__1::__compressed_pair_elem"** %132, metadata !5072, metadata !DIExpression()), !dbg !5621
  %133 = alloca %"struct.altered_carbon::js::ACLexPosition"**, align 8
  call void @llvm.dbg.declare(metadata %"struct.altered_carbon::js::ACLexPosition"*** %133, metadata !5075, metadata !DIExpression()), !dbg !5622
  %134 = alloca %"struct.std::__1::default_delete"*, align 8
  call void @llvm.dbg.declare(metadata %"struct.std::__1::default_delete"** %134, metadata !5033, metadata !DIExpression()), !dbg !5623
  %135 = alloca %"struct.std::__1::default_delete"*, align 8
  call void @llvm.dbg.declare(metadata %"struct.std::__1::default_delete"** %135, metadata !5033, metadata !DIExpression()), !dbg !5625
  %136 = alloca %"struct.std::__1::__compressed_pair_elem.0"*, align 8
  call void @llvm.dbg.declare(metadata %"struct.std::__1::__compressed_pair_elem.0"** %136, metadata !5088, metadata !DIExpression()), !dbg !5628
  %137 = alloca %"struct.std::__1::default_delete"*, align 8
  call void @llvm.dbg.declare(metadata %"struct.std::__1::default_delete"** %137, metadata !5090, metadata !DIExpression()), !dbg !5629
  %138 = alloca %"struct.altered_carbon::js::ACLexPosition"**, align 8
  call void @llvm.dbg.declare(metadata %"struct.altered_carbon::js::ACLexPosition"*** %138, metadata !5044, metadata !DIExpression()), !dbg !5630
  %139 = alloca %"class.std::__1::__compressed_pair"*, align 8
  call void @llvm.dbg.declare(metadata %"class.std::__1::__compressed_pair"** %139, metadata !5094, metadata !DIExpression()), !dbg !5632
  %140 = alloca %"struct.altered_carbon::js::ACLexPosition"**, align 8
  call void @llvm.dbg.declare(metadata %"struct.altered_carbon::js::ACLexPosition"*** %140, metadata !5096, metadata !DIExpression()), !dbg !5633
  %141 = alloca %"struct.std::__1::default_delete"*, align 8
  call void @llvm.dbg.declare(metadata %"struct.std::__1::default_delete"** %141, metadata !5098, metadata !DIExpression()), !dbg !5634
  %142 = alloca %"class.std::__1::__compressed_pair"*, align 8
  call void @llvm.dbg.declare(metadata %"class.std::__1::__compressed_pair"** %142, metadata !5100, metadata !DIExpression()), !dbg !5635
  %143 = alloca %"struct.altered_carbon::js::ACLexPosition"**, align 8
  call void @llvm.dbg.declare(metadata %"struct.altered_carbon::js::ACLexPosition"*** %143, metadata !5102, metadata !DIExpression()), !dbg !5636
  %144 = alloca %"struct.std::__1::default_delete"*, align 8
  call void @llvm.dbg.declare(metadata %"struct.std::__1::default_delete"** %144, metadata !5104, metadata !DIExpression()), !dbg !5637
  %145 = alloca %"struct.std::__1::__compressed_pair_elem"*, align 8
  call void @llvm.dbg.declare(metadata %"struct.std::__1::__compressed_pair_elem"** %145, metadata !5106, metadata !DIExpression()), !dbg !5638
  %146 = alloca %"class.std::__1::__compressed_pair"*, align 8
  call void @llvm.dbg.declare(metadata %"class.std::__1::__compressed_pair"** %146, metadata !5114, metadata !DIExpression()), !dbg !5642
  %147 = alloca %"struct.std::__1::__compressed_pair_elem"*, align 8
  call void @llvm.dbg.declare(metadata %"struct.std::__1::__compressed_pair_elem"** %147, metadata !5106, metadata !DIExpression()), !dbg !5643
  %148 = alloca %"class.std::__1::__compressed_pair"*, align 8
  call void @llvm.dbg.declare(metadata %"class.std::__1::__compressed_pair"** %148, metadata !5114, metadata !DIExpression()), !dbg !5646
  %149 = alloca %"class.std::__1::unique_ptr"*, align 8
  call void @llvm.dbg.declare(metadata %"class.std::__1::unique_ptr"** %149, metadata !5120, metadata !DIExpression()), !dbg !5647
  %150 = alloca %"struct.altered_carbon::js::ACLexPosition"*, align 8
  call void @llvm.dbg.declare(metadata %"struct.altered_carbon::js::ACLexPosition"** %150, metadata !5122, metadata !DIExpression()), !dbg !5648
  %151 = alloca %"class.std::__1::unique_ptr"*, align 8
  call void @llvm.dbg.declare(metadata %"class.std::__1::unique_ptr"** %151, metadata !5124, metadata !DIExpression()), !dbg !5649
  %152 = alloca %"class.std::__1::unique_ptr"*, align 8
  call void @llvm.dbg.declare(metadata %"class.std::__1::unique_ptr"** %152, metadata !5126, metadata !DIExpression()), !dbg !5650
  %153 = alloca %"struct.altered_carbon::js::ACLexPosition"*, align 8
  %154 = alloca %"class.std::__1::unique_ptr"*, align 8
  call void @llvm.dbg.declare(metadata %"class.std::__1::unique_ptr"** %154, metadata !5128, metadata !DIExpression()), !dbg !5651
  %155 = alloca %"class.std::__1::unique_ptr"*, align 8
  call void @llvm.dbg.declare(metadata %"class.std::__1::unique_ptr"** %155, metadata !5130, metadata !DIExpression()), !dbg !5652
  %156 = alloca %"struct.std::__1::__compressed_pair_elem.9"*, align 8
  call void @llvm.dbg.declare(metadata %"struct.std::__1::__compressed_pair_elem.9"** %156, metadata !5425, metadata !DIExpression()), !dbg !5653
  %157 = alloca %"class.std::__1::__compressed_pair.7"*, align 8
  call void @llvm.dbg.declare(metadata %"class.std::__1::__compressed_pair.7"** %157, metadata !5438, metadata !DIExpression()), !dbg !5658
  %158 = alloca %"class.std::__1::__vector_base"*, align 8
  call void @llvm.dbg.declare(metadata %"class.std::__1::__vector_base"** %158, metadata !5441, metadata !DIExpression()), !dbg !5659
  %159 = alloca %"class.std::__1::unique_ptr.1"*, align 8
  call void @llvm.dbg.declare(metadata %"class.std::__1::unique_ptr.1"** %159, metadata !5444, metadata !DIExpression()), !dbg !5660
  %160 = alloca %"class.std::__1::unique_ptr.1"*, align 8
  call void @llvm.dbg.declare(metadata %"class.std::__1::unique_ptr.1"** %160, metadata !4966, metadata !DIExpression()), !dbg !5662
  %161 = alloca %"struct.std::__1::__compressed_pair_elem.4"*, align 8
  call void @llvm.dbg.declare(metadata %"struct.std::__1::__compressed_pair_elem.4"** %161, metadata !4848, metadata !DIExpression()), !dbg !5664
  %162 = alloca %"class.std::__1::__compressed_pair.2"*, align 8
  call void @llvm.dbg.declare(metadata %"class.std::__1::__compressed_pair.2"** %162, metadata !4861, metadata !DIExpression()), !dbg !5673
  %163 = alloca %"class.std::__1::unique_ptr.1"*, align 8
  call void @llvm.dbg.declare(metadata %"class.std::__1::unique_ptr.1"** %163, metadata !4864, metadata !DIExpression()), !dbg !5674
  %164 = alloca %"struct.std::__1::default_delete.5"*, align 8
  call void @llvm.dbg.declare(metadata %"struct.std::__1::default_delete.5"** %164, metadata !4866, metadata !DIExpression()), !dbg !5675
  %165 = alloca %"class.altered_carbon::js::ACAstBaseNode"**, align 8
  call void @llvm.dbg.declare(metadata %"class.altered_carbon::js::ACAstBaseNode"*** %165, metadata !4877, metadata !DIExpression()), !dbg !5677
  %166 = alloca %"struct.std::__1::__compressed_pair_elem.3"*, align 8
  call void @llvm.dbg.declare(metadata %"struct.std::__1::__compressed_pair_elem.3"** %166, metadata !4906, metadata !DIExpression()), !dbg !5682
  %167 = alloca %"class.altered_carbon::js::ACAstBaseNode"**, align 8
  call void @llvm.dbg.declare(metadata %"class.altered_carbon::js::ACAstBaseNode"*** %167, metadata !4909, metadata !DIExpression()), !dbg !5683
  %168 = alloca %"struct.std::__1::default_delete.5"*, align 8
  call void @llvm.dbg.declare(metadata %"struct.std::__1::default_delete.5"** %168, metadata !4866, metadata !DIExpression()), !dbg !5684
  %169 = alloca %"struct.std::__1::default_delete.5"*, align 8
  call void @llvm.dbg.declare(metadata %"struct.std::__1::default_delete.5"** %169, metadata !4866, metadata !DIExpression()), !dbg !5686
  %170 = alloca %"struct.std::__1::__compressed_pair_elem.4"*, align 8
  call void @llvm.dbg.declare(metadata %"struct.std::__1::__compressed_pair_elem.4"** %170, metadata !4922, metadata !DIExpression()), !dbg !5689
  %171 = alloca %"struct.std::__1::default_delete.5"*, align 8
  call void @llvm.dbg.declare(metadata %"struct.std::__1::default_delete.5"** %171, metadata !4924, metadata !DIExpression()), !dbg !5690
  %172 = alloca %"class.altered_carbon::js::ACAstBaseNode"**, align 8
  call void @llvm.dbg.declare(metadata %"class.altered_carbon::js::ACAstBaseNode"*** %172, metadata !4877, metadata !DIExpression()), !dbg !5691
  %173 = alloca %"class.std::__1::__compressed_pair.2"*, align 8
  call void @llvm.dbg.declare(metadata %"class.std::__1::__compressed_pair.2"** %173, metadata !4928, metadata !DIExpression()), !dbg !5693
  %174 = alloca %"class.altered_carbon::js::ACAstBaseNode"**, align 8
  call void @llvm.dbg.declare(metadata %"class.altered_carbon::js::ACAstBaseNode"*** %174, metadata !4930, metadata !DIExpression()), !dbg !5694
  %175 = alloca %"struct.std::__1::default_delete.5"*, align 8
  call void @llvm.dbg.declare(metadata %"struct.std::__1::default_delete.5"** %175, metadata !4932, metadata !DIExpression()), !dbg !5695
  %176 = alloca %"class.std::__1::__compressed_pair.2"*, align 8
  call void @llvm.dbg.declare(metadata %"class.std::__1::__compressed_pair.2"** %176, metadata !4934, metadata !DIExpression()), !dbg !5696
  %177 = alloca %"class.altered_carbon::js::ACAstBaseNode"**, align 8
  call void @llvm.dbg.declare(metadata %"class.altered_carbon::js::ACAstBaseNode"*** %177, metadata !4936, metadata !DIExpression()), !dbg !5697
  %178 = alloca %"struct.std::__1::default_delete.5"*, align 8
  call void @llvm.dbg.declare(metadata %"struct.std::__1::default_delete.5"** %178, metadata !4938, metadata !DIExpression()), !dbg !5698
  %179 = alloca %"struct.std::__1::__compressed_pair_elem.3"*, align 8
  call void @llvm.dbg.declare(metadata %"struct.std::__1::__compressed_pair_elem.3"** %179, metadata !4940, metadata !DIExpression()), !dbg !5699
  %180 = alloca %"class.std::__1::__compressed_pair.2"*, align 8
  call void @llvm.dbg.declare(metadata %"class.std::__1::__compressed_pair.2"** %180, metadata !4948, metadata !DIExpression()), !dbg !5703
  %181 = alloca %"struct.std::__1::__compressed_pair_elem.3"*, align 8
  call void @llvm.dbg.declare(metadata %"struct.std::__1::__compressed_pair_elem.3"** %181, metadata !4940, metadata !DIExpression()), !dbg !5704
  %182 = alloca %"class.std::__1::__compressed_pair.2"*, align 8
  call void @llvm.dbg.declare(metadata %"class.std::__1::__compressed_pair.2"** %182, metadata !4948, metadata !DIExpression()), !dbg !5707
  %183 = alloca %"class.std::__1::unique_ptr.1"*, align 8
  call void @llvm.dbg.declare(metadata %"class.std::__1::unique_ptr.1"** %183, metadata !4954, metadata !DIExpression()), !dbg !5708
  %184 = alloca %"class.altered_carbon::js::ACAstBaseNode"*, align 8
  call void @llvm.dbg.declare(metadata %"class.altered_carbon::js::ACAstBaseNode"** %184, metadata !4956, metadata !DIExpression()), !dbg !5709
  %185 = alloca %"class.std::__1::unique_ptr.1"*, align 8
  call void @llvm.dbg.declare(metadata %"class.std::__1::unique_ptr.1"** %185, metadata !4958, metadata !DIExpression()), !dbg !5710
  %186 = alloca %"class.std::__1::unique_ptr.1"*, align 8
  call void @llvm.dbg.declare(metadata %"class.std::__1::unique_ptr.1"** %186, metadata !4960, metadata !DIExpression()), !dbg !5711
  %187 = alloca %"class.altered_carbon::js::ACAstBaseNode"*, align 8
  %188 = alloca %"class.std::__1::unique_ptr.1"*, align 8
  call void @llvm.dbg.declare(metadata %"class.std::__1::unique_ptr.1"** %188, metadata !4962, metadata !DIExpression()), !dbg !5712
  %189 = alloca %"class.std::__1::unique_ptr.1"*, align 8
  call void @llvm.dbg.declare(metadata %"class.std::__1::unique_ptr.1"** %189, metadata !4964, metadata !DIExpression()), !dbg !5713
  %190 = alloca %"class.std::__1::unique_ptr.1"*, align 8
  call void @llvm.dbg.declare(metadata %"class.std::__1::unique_ptr.1"** %190, metadata !5520, metadata !DIExpression()), !dbg !5714
  %191 = alloca %"class.std::__1::allocator"*, align 8
  call void @llvm.dbg.declare(metadata %"class.std::__1::allocator"** %191, metadata !5529, metadata !DIExpression()), !dbg !5716
  %192 = alloca %"class.std::__1::unique_ptr.1"*, align 8
  call void @llvm.dbg.declare(metadata %"class.std::__1::unique_ptr.1"** %192, metadata !5532, metadata !DIExpression()), !dbg !5717
  %193 = alloca %"class.std::__1::unique_ptr.1"*, align 8
  call void @llvm.dbg.declare(metadata %"class.std::__1::unique_ptr.1"** %193, metadata !5534, metadata !DIExpression()), !dbg !5718
  %194 = alloca %"class.std::__1::unique_ptr.1"*, align 8
  call void @llvm.dbg.declare(metadata %"class.std::__1::unique_ptr.1"** %194, metadata !5520, metadata !DIExpression()), !dbg !5719
  %195 = alloca %"class.std::__1::allocator"*, align 8
  call void @llvm.dbg.declare(metadata %"class.std::__1::allocator"** %195, metadata !5538, metadata !DIExpression()), !dbg !5721
  %196 = alloca %"class.std::__1::unique_ptr.1"*, align 8
  call void @llvm.dbg.declare(metadata %"class.std::__1::unique_ptr.1"** %196, metadata !5540, metadata !DIExpression()), !dbg !5722
  %197 = alloca %"class.std::__1::unique_ptr.1"*, align 8
  call void @llvm.dbg.declare(metadata %"class.std::__1::unique_ptr.1"** %197, metadata !5542, metadata !DIExpression()), !dbg !5723
  %198 = alloca %"class.std::__1::unique_ptr.1"*, align 8
  call void @llvm.dbg.declare(metadata %"class.std::__1::unique_ptr.1"** %198, metadata !5520, metadata !DIExpression()), !dbg !5724
  %199 = alloca %"class.std::__1::allocator"*, align 8
  call void @llvm.dbg.declare(metadata %"class.std::__1::allocator"** %199, metadata !5546, metadata !DIExpression()), !dbg !5726
  %200 = alloca %"class.std::__1::unique_ptr.1"*, align 8
  call void @llvm.dbg.declare(metadata %"class.std::__1::unique_ptr.1"** %200, metadata !5548, metadata !DIExpression()), !dbg !5727
  %201 = alloca %"class.std::__1::unique_ptr.1"*, align 8
  call void @llvm.dbg.declare(metadata %"class.std::__1::unique_ptr.1"** %201, metadata !5550, metadata !DIExpression()), !dbg !5728
  %202 = alloca %"struct.std::__1::__has_construct", align 1
  %203 = alloca %"struct.std::__1::vector<std::__1::unique_ptr<altered_carbon::js::ACAstBaseNode, std::__1::default_delete<altered_carbon::js::ACAstBaseNode> >, std::__1::allocator<std::__1::unique_ptr<altered_carbon::js::ACAstBaseNode, std::__1::default_delete<altered_carbon::js::ACAstBaseNode> > > >::__RAII_IncreaseAnnotator"*, align 8
  call void @llvm.dbg.declare(metadata %"struct.std::__1::vector<std::__1::unique_ptr<altered_carbon::js::ACAstBaseNode, std::__1::default_delete<altered_carbon::js::ACAstBaseNode> >, std::__1::allocator<std::__1::unique_ptr<altered_carbon::js::ACAstBaseNode, std::__1::default_delete<altered_carbon::js::ACAstBaseNode> > > >::__RAII_IncreaseAnnotator"** %203, metadata !5552, metadata !DIExpression()), !dbg !5729
  %204 = alloca %"class.std::__1::unique_ptr.1"*, align 8
  call void @llvm.dbg.declare(metadata %"class.std::__1::unique_ptr.1"** %204, metadata !4966, metadata !DIExpression()), !dbg !5731
  %205 = alloca %"struct.std::__1::vector<std::__1::unique_ptr<altered_carbon::js::ACAstBaseNode, std::__1::default_delete<altered_carbon::js::ACAstBaseNode> >, std::__1::allocator<std::__1::unique_ptr<altered_carbon::js::ACAstBaseNode, std::__1::default_delete<altered_carbon::js::ACAstBaseNode> > > >::__RAII_IncreaseAnnotator"*, align 8
  call void @llvm.dbg.declare(metadata %"struct.std::__1::vector<std::__1::unique_ptr<altered_carbon::js::ACAstBaseNode, std::__1::default_delete<altered_carbon::js::ACAstBaseNode> >, std::__1::allocator<std::__1::unique_ptr<altered_carbon::js::ACAstBaseNode, std::__1::default_delete<altered_carbon::js::ACAstBaseNode> > > >::__RAII_IncreaseAnnotator"** %205, metadata !5568, metadata !DIExpression()), !dbg !5733
  %206 = alloca %"class.std::__1::vector"*, align 8
  call void @llvm.dbg.declare(metadata %"class.std::__1::vector"** %206, metadata !5574, metadata !DIExpression()), !dbg !5736
  %207 = alloca i64, align 8
  call void @llvm.dbg.declare(metadata i64* %207, metadata !5576, metadata !DIExpression()), !dbg !5737
  %208 = alloca %"struct.std::__1::vector<std::__1::unique_ptr<altered_carbon::js::ACAstBaseNode, std::__1::default_delete<altered_carbon::js::ACAstBaseNode> >, std::__1::allocator<std::__1::unique_ptr<altered_carbon::js::ACAstBaseNode, std::__1::default_delete<altered_carbon::js::ACAstBaseNode> > > >::__RAII_IncreaseAnnotator"*, align 8
  call void @llvm.dbg.declare(metadata %"struct.std::__1::vector<std::__1::unique_ptr<altered_carbon::js::ACAstBaseNode, std::__1::default_delete<altered_carbon::js::ACAstBaseNode> >, std::__1::allocator<std::__1::unique_ptr<altered_carbon::js::ACAstBaseNode, std::__1::default_delete<altered_carbon::js::ACAstBaseNode> > > >::__RAII_IncreaseAnnotator"** %208, metadata !5578, metadata !DIExpression()), !dbg !5738
  %209 = alloca %"class.std::__1::vector"*, align 8
  call void @llvm.dbg.declare(metadata %"class.std::__1::vector"** %209, metadata !5580, metadata !DIExpression()), !dbg !5739
  %210 = alloca i64, align 8
  call void @llvm.dbg.declare(metadata i64* %210, metadata !5582, metadata !DIExpression()), !dbg !5740
  %211 = alloca %"struct.std::__1::__compressed_pair_elem.8"*, align 8
  call void @llvm.dbg.declare(metadata %"struct.std::__1::__compressed_pair_elem.8"** %211, metadata !5584, metadata !DIExpression()), !dbg !5741
  %212 = alloca %"class.std::__1::__compressed_pair.7"*, align 8
  call void @llvm.dbg.declare(metadata %"class.std::__1::__compressed_pair.7"** %212, metadata !5593, metadata !DIExpression()), !dbg !5745
  %213 = alloca %"class.std::__1::__vector_base"*, align 8
  call void @llvm.dbg.declare(metadata %"class.std::__1::__vector_base"** %213, metadata !5595, metadata !DIExpression()), !dbg !5746
  %214 = alloca %"class.std::__1::vector"*, align 8
  call void @llvm.dbg.declare(metadata %"class.std::__1::vector"** %214, metadata !5597, metadata !DIExpression()), !dbg !5747
  %215 = alloca %"class.std::__1::unique_ptr.1"*, align 8
  call void @llvm.dbg.declare(metadata %"class.std::__1::unique_ptr.1"** %215, metadata !5600, metadata !DIExpression()), !dbg !5748
  %216 = alloca %"struct.std::__1::vector<std::__1::unique_ptr<altered_carbon::js::ACAstBaseNode, std::__1::default_delete<altered_carbon::js::ACAstBaseNode> >, std::__1::allocator<std::__1::unique_ptr<altered_carbon::js::ACAstBaseNode, std::__1::default_delete<altered_carbon::js::ACAstBaseNode> > > >::__RAII_IncreaseAnnotator", align 1
  call void @llvm.dbg.declare(metadata %"struct.std::__1::vector<std::__1::unique_ptr<altered_carbon::js::ACAstBaseNode, std::__1::default_delete<altered_carbon::js::ACAstBaseNode> >, std::__1::allocator<std::__1::unique_ptr<altered_carbon::js::ACAstBaseNode, std::__1::default_delete<altered_carbon::js::ACAstBaseNode> > > >::__RAII_IncreaseAnnotator"* %216, metadata !5602, metadata !DIExpression()), !dbg !5749
  %217 = alloca %"class.std::__1::unique_ptr"*, align 8
  call void @llvm.dbg.declare(metadata %"class.std::__1::unique_ptr"** %217, metadata !5169, metadata !DIExpression()), !dbg !5750
  %218 = alloca %"class.altered_carbon::js::ACAstIfElseStatement"*, align 8
  %219 = alloca i32, align 4
  %220 = alloca i32, align 4
  %221 = alloca %"class.std::__1::unique_ptr", align 8
  %222 = alloca %"class.std::__1::unique_ptr.1", align 8
  store %"class.altered_carbon::js::ACAstIfElseStatement"* %0, %"class.altered_carbon::js::ACAstIfElseStatement"** %218, align 8
  call void @llvm.dbg.declare(metadata %"class.altered_carbon::js::ACAstIfElseStatement"** %218, metadata !5752, metadata !DIExpression()), !dbg !5754
  call void @llvm.dbg.declare(metadata %"class.std::__1::unique_ptr"* %1, metadata !5755, metadata !DIExpression()), !dbg !5756
  call void @llvm.dbg.declare(metadata %"class.std::__1::unique_ptr.1"* %2, metadata !5757, metadata !DIExpression()), !dbg !5758
  call void @llvm.dbg.declare(metadata %"class.std::__1::unique_ptr.1"* %3, metadata !5759, metadata !DIExpression()), !dbg !5760
  call void @llvm.dbg.declare(metadata %"class.std::__1::unique_ptr.1"* %4, metadata !5761, metadata !DIExpression()), !dbg !5762
  store i32 %5, i32* %219, align 4
  call void @llvm.dbg.declare(metadata i32* %219, metadata !5763, metadata !DIExpression()), !dbg !5764
  store i32 %6, i32* %220, align 4
  call void @llvm.dbg.declare(metadata i32* %220, metadata !5765, metadata !DIExpression()), !dbg !5766
  %223 = load %"class.altered_carbon::js::ACAstIfElseStatement"*, %"class.altered_carbon::js::ACAstIfElseStatement"** %218, align 8
  %224 = bitcast %"class.altered_carbon::js::ACAstIfElseStatement"* %223 to %"class.altered_carbon::js::ACAstStatementNode"*, !dbg !5767
  store %"class.std::__1::unique_ptr"* %1, %"class.std::__1::unique_ptr"** %217, align 8
  %225 = load %"class.std::__1::unique_ptr"*, %"class.std::__1::unique_ptr"** %217, align 8, !dbg !5768
  store %"class.std::__1::unique_ptr"* %221, %"class.std::__1::unique_ptr"** %154, align 8
  store %"class.std::__1::unique_ptr"* %225, %"class.std::__1::unique_ptr"** %155, align 8
  %226 = load %"class.std::__1::unique_ptr"*, %"class.std::__1::unique_ptr"** %154, align 8
  %227 = load %"class.std::__1::unique_ptr"*, %"class.std::__1::unique_ptr"** %155, align 8, !dbg !5769
  store %"class.std::__1::unique_ptr"* %226, %"class.std::__1::unique_ptr"** %151, align 8
  store %"class.std::__1::unique_ptr"* %227, %"class.std::__1::unique_ptr"** %152, align 8
  %228 = load %"class.std::__1::unique_ptr"*, %"class.std::__1::unique_ptr"** %151, align 8
  %229 = getelementptr inbounds %"class.std::__1::unique_ptr", %"class.std::__1::unique_ptr"* %228, i32 0, i32 0, !dbg !5770
  %230 = load %"class.std::__1::unique_ptr"*, %"class.std::__1::unique_ptr"** %152, align 8, !dbg !5771
  store %"class.std::__1::unique_ptr"* %230, %"class.std::__1::unique_ptr"** %149, align 8
  %231 = load %"class.std::__1::unique_ptr"*, %"class.std::__1::unique_ptr"** %149, align 8
  %232 = getelementptr inbounds %"class.std::__1::unique_ptr", %"class.std::__1::unique_ptr"* %231, i32 0, i32 0, !dbg !5772
  store %"class.std::__1::__compressed_pair"* %232, %"class.std::__1::__compressed_pair"** %148, align 8
  %233 = load %"class.std::__1::__compressed_pair"*, %"class.std::__1::__compressed_pair"** %148, align 8
  %234 = bitcast %"class.std::__1::__compressed_pair"* %233 to %"struct.std::__1::__compressed_pair_elem"*, !dbg !5773
  store %"struct.std::__1::__compressed_pair_elem"* %234, %"struct.std::__1::__compressed_pair_elem"** %147, align 8
  %235 = load %"struct.std::__1::__compressed_pair_elem"*, %"struct.std::__1::__compressed_pair_elem"** %147, align 8
  %236 = getelementptr inbounds %"struct.std::__1::__compressed_pair_elem", %"struct.std::__1::__compressed_pair_elem"* %235, i32 0, i32 0, !dbg !5774
  %237 = load %"struct.altered_carbon::js::ACLexPosition"*, %"struct.altered_carbon::js::ACLexPosition"** %236, align 8, !dbg !5775
  store %"struct.altered_carbon::js::ACLexPosition"* %237, %"struct.altered_carbon::js::ACLexPosition"** %150, align 8, !dbg !5648
  %238 = getelementptr inbounds %"class.std::__1::unique_ptr", %"class.std::__1::unique_ptr"* %231, i32 0, i32 0, !dbg !5776
  store %"class.std::__1::__compressed_pair"* %238, %"class.std::__1::__compressed_pair"** %146, align 8
  %239 = load %"class.std::__1::__compressed_pair"*, %"class.std::__1::__compressed_pair"** %146, align 8
  %240 = bitcast %"class.std::__1::__compressed_pair"* %239 to %"struct.std::__1::__compressed_pair_elem"*, !dbg !5777
  store %"struct.std::__1::__compressed_pair_elem"* %240, %"struct.std::__1::__compressed_pair_elem"** %145, align 8
  %241 = load %"struct.std::__1::__compressed_pair_elem"*, %"struct.std::__1::__compressed_pair_elem"** %145, align 8
  %242 = getelementptr inbounds %"struct.std::__1::__compressed_pair_elem", %"struct.std::__1::__compressed_pair_elem"* %241, i32 0, i32 0, !dbg !5778
  store %"struct.altered_carbon::js::ACLexPosition"* null, %"struct.altered_carbon::js::ACLexPosition"** %242, align 8, !dbg !5779
  %243 = load %"struct.altered_carbon::js::ACLexPosition"*, %"struct.altered_carbon::js::ACLexPosition"** %150, align 8, !dbg !5780
  store %"struct.altered_carbon::js::ACLexPosition"* %243, %"struct.altered_carbon::js::ACLexPosition"** %153, align 8, !dbg !5771
  %244 = load %"class.std::__1::unique_ptr"*, %"class.std::__1::unique_ptr"** %152, align 8, !dbg !5781
  store %"class.std::__1::unique_ptr"* %244, %"class.std::__1::unique_ptr"** %129, align 8
  %245 = load %"class.std::__1::unique_ptr"*, %"class.std::__1::unique_ptr"** %129, align 8
  %246 = getelementptr inbounds %"class.std::__1::unique_ptr", %"class.std::__1::unique_ptr"* %245, i32 0, i32 0, !dbg !5782
  store %"class.std::__1::__compressed_pair"* %246, %"class.std::__1::__compressed_pair"** %128, align 8
  %247 = load %"class.std::__1::__compressed_pair"*, %"class.std::__1::__compressed_pair"** %128, align 8
  %248 = bitcast %"class.std::__1::__compressed_pair"* %247 to %"struct.std::__1::__compressed_pair_elem.0"*, !dbg !5783
  store %"struct.std::__1::__compressed_pair_elem.0"* %248, %"struct.std::__1::__compressed_pair_elem.0"** %127, align 8
  %249 = load %"struct.std::__1::__compressed_pair_elem.0"*, %"struct.std::__1::__compressed_pair_elem.0"** %127, align 8
  %250 = bitcast %"struct.std::__1::__compressed_pair_elem.0"* %249 to %"struct.std::__1::default_delete"*, !dbg !5784
  store %"struct.std::__1::default_delete"* %250, %"struct.std::__1::default_delete"** %130, align 8
  %251 = load %"struct.std::__1::default_delete"*, %"struct.std::__1::default_delete"** %130, align 8, !dbg !5785
  store %"class.std::__1::__compressed_pair"* %229, %"class.std::__1::__compressed_pair"** %142, align 8
  store %"struct.altered_carbon::js::ACLexPosition"** %153, %"struct.altered_carbon::js::ACLexPosition"*** %143, align 8
  store %"struct.std::__1::default_delete"* %251, %"struct.std::__1::default_delete"** %144, align 8
  %252 = load %"class.std::__1::__compressed_pair"*, %"class.std::__1::__compressed_pair"** %142, align 8
  %253 = load %"struct.altered_carbon::js::ACLexPosition"**, %"struct.altered_carbon::js::ACLexPosition"*** %143, align 8, !dbg !5786
  %254 = load %"struct.std::__1::default_delete"*, %"struct.std::__1::default_delete"** %144, align 8, !dbg !5786
  store %"class.std::__1::__compressed_pair"* %252, %"class.std::__1::__compressed_pair"** %139, align 8
  store %"struct.altered_carbon::js::ACLexPosition"** %253, %"struct.altered_carbon::js::ACLexPosition"*** %140, align 8
  store %"struct.std::__1::default_delete"* %254, %"struct.std::__1::default_delete"** %141, align 8
  %255 = load %"class.std::__1::__compressed_pair"*, %"class.std::__1::__compressed_pair"** %139, align 8
  %256 = bitcast %"class.std::__1::__compressed_pair"* %255 to %"struct.std::__1::__compressed_pair_elem"*, !dbg !5787
  %257 = load %"struct.altered_carbon::js::ACLexPosition"**, %"struct.altered_carbon::js::ACLexPosition"*** %140, align 8, !dbg !5788
  store %"struct.altered_carbon::js::ACLexPosition"** %257, %"struct.altered_carbon::js::ACLexPosition"*** %138, align 8
  %258 = load %"struct.altered_carbon::js::ACLexPosition"**, %"struct.altered_carbon::js::ACLexPosition"*** %138, align 8, !dbg !5789
  store %"struct.std::__1::__compressed_pair_elem"* %256, %"struct.std::__1::__compressed_pair_elem"** %132, align 8
  store %"struct.altered_carbon::js::ACLexPosition"** %258, %"struct.altered_carbon::js::ACLexPosition"*** %133, align 8
  %259 = load %"struct.std::__1::__compressed_pair_elem"*, %"struct.std::__1::__compressed_pair_elem"** %132, align 8
  %260 = getelementptr inbounds %"struct.std::__1::__compressed_pair_elem", %"struct.std::__1::__compressed_pair_elem"* %259, i32 0, i32 0, !dbg !5790
  %261 = load %"struct.altered_carbon::js::ACLexPosition"**, %"struct.altered_carbon::js::ACLexPosition"*** %133, align 8, !dbg !5791
  store %"struct.altered_carbon::js::ACLexPosition"** %261, %"struct.altered_carbon::js::ACLexPosition"*** %131, align 8
  %262 = load %"struct.altered_carbon::js::ACLexPosition"**, %"struct.altered_carbon::js::ACLexPosition"*** %131, align 8, !dbg !5792
  %263 = load %"struct.altered_carbon::js::ACLexPosition"*, %"struct.altered_carbon::js::ACLexPosition"** %262, align 8, !dbg !5793
  store %"struct.altered_carbon::js::ACLexPosition"* %263, %"struct.altered_carbon::js::ACLexPosition"** %260, align 8, !dbg !5790
  %264 = bitcast %"class.std::__1::__compressed_pair"* %255 to %"struct.std::__1::__compressed_pair_elem.0"*, !dbg !5787
  %265 = load %"struct.std::__1::default_delete"*, %"struct.std::__1::default_delete"** %141, align 8, !dbg !5794
  store %"struct.std::__1::default_delete"* %265, %"struct.std::__1::default_delete"** %134, align 8
  %266 = load %"struct.std::__1::default_delete"*, %"struct.std::__1::default_delete"** %134, align 8, !dbg !5795
  store %"struct.std::__1::__compressed_pair_elem.0"* %264, %"struct.std::__1::__compressed_pair_elem.0"** %136, align 8
  store %"struct.std::__1::default_delete"* %266, %"struct.std::__1::default_delete"** %137, align 8
  %267 = load %"struct.std::__1::__compressed_pair_elem.0"*, %"struct.std::__1::__compressed_pair_elem.0"** %136, align 8
  %268 = bitcast %"struct.std::__1::__compressed_pair_elem.0"* %267 to %"struct.std::__1::default_delete"*, !dbg !5796
  %269 = load %"struct.std::__1::default_delete"*, %"struct.std::__1::default_delete"** %137, align 8, !dbg !5797
  store %"struct.std::__1::default_delete"* %269, %"struct.std::__1::default_delete"** %135, align 8
  %270 = load %"struct.std::__1::default_delete"*, %"struct.std::__1::default_delete"** %135, align 8, !dbg !5798
  store %"class.std::__1::unique_ptr.1"* %2, %"class.std::__1::unique_ptr.1"** %64, align 8
  %271 = load %"class.std::__1::unique_ptr.1"*, %"class.std::__1::unique_ptr.1"** %64, align 8, !dbg !5799
  store %"class.std::__1::unique_ptr.1"* %222, %"class.std::__1::unique_ptr.1"** %48, align 8
  store %"class.std::__1::unique_ptr.1"* %271, %"class.std::__1::unique_ptr.1"** %49, align 8
  %272 = load %"class.std::__1::unique_ptr.1"*, %"class.std::__1::unique_ptr.1"** %48, align 8
  %273 = load %"class.std::__1::unique_ptr.1"*, %"class.std::__1::unique_ptr.1"** %49, align 8, !dbg !5800
  store %"class.std::__1::unique_ptr.1"* %272, %"class.std::__1::unique_ptr.1"** %45, align 8
  store %"class.std::__1::unique_ptr.1"* %273, %"class.std::__1::unique_ptr.1"** %46, align 8
  %274 = load %"class.std::__1::unique_ptr.1"*, %"class.std::__1::unique_ptr.1"** %45, align 8
  %275 = getelementptr inbounds %"class.std::__1::unique_ptr.1", %"class.std::__1::unique_ptr.1"* %274, i32 0, i32 0, !dbg !5801
  %276 = load %"class.std::__1::unique_ptr.1"*, %"class.std::__1::unique_ptr.1"** %46, align 8, !dbg !5802
  store %"class.std::__1::unique_ptr.1"* %276, %"class.std::__1::unique_ptr.1"** %43, align 8
  %277 = load %"class.std::__1::unique_ptr.1"*, %"class.std::__1::unique_ptr.1"** %43, align 8
  %278 = getelementptr inbounds %"class.std::__1::unique_ptr.1", %"class.std::__1::unique_ptr.1"* %277, i32 0, i32 0, !dbg !5803
  store %"class.std::__1::__compressed_pair.2"* %278, %"class.std::__1::__compressed_pair.2"** %42, align 8
  %279 = load %"class.std::__1::__compressed_pair.2"*, %"class.std::__1::__compressed_pair.2"** %42, align 8
  %280 = bitcast %"class.std::__1::__compressed_pair.2"* %279 to %"struct.std::__1::__compressed_pair_elem.3"*, !dbg !5804
  store %"struct.std::__1::__compressed_pair_elem.3"* %280, %"struct.std::__1::__compressed_pair_elem.3"** %41, align 8
  %281 = load %"struct.std::__1::__compressed_pair_elem.3"*, %"struct.std::__1::__compressed_pair_elem.3"** %41, align 8
  %282 = getelementptr inbounds %"struct.std::__1::__compressed_pair_elem.3", %"struct.std::__1::__compressed_pair_elem.3"* %281, i32 0, i32 0, !dbg !5805
  %283 = load %"class.altered_carbon::js::ACAstBaseNode"*, %"class.altered_carbon::js::ACAstBaseNode"** %282, align 8, !dbg !5806
  store %"class.altered_carbon::js::ACAstBaseNode"* %283, %"class.altered_carbon::js::ACAstBaseNode"** %44, align 8, !dbg !5392
  %284 = getelementptr inbounds %"class.std::__1::unique_ptr.1", %"class.std::__1::unique_ptr.1"* %277, i32 0, i32 0, !dbg !5807
  store %"class.std::__1::__compressed_pair.2"* %284, %"class.std::__1::__compressed_pair.2"** %40, align 8
  %285 = load %"class.std::__1::__compressed_pair.2"*, %"class.std::__1::__compressed_pair.2"** %40, align 8
  %286 = bitcast %"class.std::__1::__compressed_pair.2"* %285 to %"struct.std::__1::__compressed_pair_elem.3"*, !dbg !5808
  store %"struct.std::__1::__compressed_pair_elem.3"* %286, %"struct.std::__1::__compressed_pair_elem.3"** %39, align 8
  %287 = load %"struct.std::__1::__compressed_pair_elem.3"*, %"struct.std::__1::__compressed_pair_elem.3"** %39, align 8
  %288 = getelementptr inbounds %"struct.std::__1::__compressed_pair_elem.3", %"struct.std::__1::__compressed_pair_elem.3"* %287, i32 0, i32 0, !dbg !5809
  store %"class.altered_carbon::js::ACAstBaseNode"* null, %"class.altered_carbon::js::ACAstBaseNode"** %288, align 8, !dbg !5810
  %289 = load %"class.altered_carbon::js::ACAstBaseNode"*, %"class.altered_carbon::js::ACAstBaseNode"** %44, align 8, !dbg !5811
  store %"class.altered_carbon::js::ACAstBaseNode"* %289, %"class.altered_carbon::js::ACAstBaseNode"** %47, align 8, !dbg !5802
  %290 = load %"class.std::__1::unique_ptr.1"*, %"class.std::__1::unique_ptr.1"** %46, align 8, !dbg !5812
  store %"class.std::__1::unique_ptr.1"* %290, %"class.std::__1::unique_ptr.1"** %23, align 8
  %291 = load %"class.std::__1::unique_ptr.1"*, %"class.std::__1::unique_ptr.1"** %23, align 8
  %292 = getelementptr inbounds %"class.std::__1::unique_ptr.1", %"class.std::__1::unique_ptr.1"* %291, i32 0, i32 0, !dbg !5813
  store %"class.std::__1::__compressed_pair.2"* %292, %"class.std::__1::__compressed_pair.2"** %22, align 8
  %293 = load %"class.std::__1::__compressed_pair.2"*, %"class.std::__1::__compressed_pair.2"** %22, align 8
  %294 = bitcast %"class.std::__1::__compressed_pair.2"* %293 to %"struct.std::__1::__compressed_pair_elem.4"*, !dbg !5814
  store %"struct.std::__1::__compressed_pair_elem.4"* %294, %"struct.std::__1::__compressed_pair_elem.4"** %21, align 8
  %295 = load %"struct.std::__1::__compressed_pair_elem.4"*, %"struct.std::__1::__compressed_pair_elem.4"** %21, align 8
  %296 = bitcast %"struct.std::__1::__compressed_pair_elem.4"* %295 to %"struct.std::__1::default_delete.5"*, !dbg !5815
  store %"struct.std::__1::default_delete.5"* %296, %"struct.std::__1::default_delete.5"** %24, align 8
  %297 = load %"struct.std::__1::default_delete.5"*, %"struct.std::__1::default_delete.5"** %24, align 8, !dbg !5816
  store %"class.std::__1::__compressed_pair.2"* %275, %"class.std::__1::__compressed_pair.2"** %36, align 8
  store %"class.altered_carbon::js::ACAstBaseNode"** %47, %"class.altered_carbon::js::ACAstBaseNode"*** %37, align 8
  store %"struct.std::__1::default_delete.5"* %297, %"struct.std::__1::default_delete.5"** %38, align 8
  %298 = load %"class.std::__1::__compressed_pair.2"*, %"class.std::__1::__compressed_pair.2"** %36, align 8
  %299 = load %"class.altered_carbon::js::ACAstBaseNode"**, %"class.altered_carbon::js::ACAstBaseNode"*** %37, align 8, !dbg !5817
  %300 = load %"struct.std::__1::default_delete.5"*, %"struct.std::__1::default_delete.5"** %38, align 8, !dbg !5817
  store %"class.std::__1::__compressed_pair.2"* %298, %"class.std::__1::__compressed_pair.2"** %33, align 8
  store %"class.altered_carbon::js::ACAstBaseNode"** %299, %"class.altered_carbon::js::ACAstBaseNode"*** %34, align 8
  store %"struct.std::__1::default_delete.5"* %300, %"struct.std::__1::default_delete.5"** %35, align 8
  %301 = load %"class.std::__1::__compressed_pair.2"*, %"class.std::__1::__compressed_pair.2"** %33, align 8
  %302 = bitcast %"class.std::__1::__compressed_pair.2"* %301 to %"struct.std::__1::__compressed_pair_elem.3"*, !dbg !5818
  %303 = load %"class.altered_carbon::js::ACAstBaseNode"**, %"class.altered_carbon::js::ACAstBaseNode"*** %34, align 8, !dbg !5819
  store %"class.altered_carbon::js::ACAstBaseNode"** %303, %"class.altered_carbon::js::ACAstBaseNode"*** %32, align 8
  %304 = load %"class.altered_carbon::js::ACAstBaseNode"**, %"class.altered_carbon::js::ACAstBaseNode"*** %32, align 8, !dbg !5820
  store %"struct.std::__1::__compressed_pair_elem.3"* %302, %"struct.std::__1::__compressed_pair_elem.3"** %26, align 8
  store %"class.altered_carbon::js::ACAstBaseNode"** %304, %"class.altered_carbon::js::ACAstBaseNode"*** %27, align 8
  %305 = load %"struct.std::__1::__compressed_pair_elem.3"*, %"struct.std::__1::__compressed_pair_elem.3"** %26, align 8
  %306 = getelementptr inbounds %"struct.std::__1::__compressed_pair_elem.3", %"struct.std::__1::__compressed_pair_elem.3"* %305, i32 0, i32 0, !dbg !5821
  %307 = load %"class.altered_carbon::js::ACAstBaseNode"**, %"class.altered_carbon::js::ACAstBaseNode"*** %27, align 8, !dbg !5822
  store %"class.altered_carbon::js::ACAstBaseNode"** %307, %"class.altered_carbon::js::ACAstBaseNode"*** %25, align 8
  %308 = load %"class.altered_carbon::js::ACAstBaseNode"**, %"class.altered_carbon::js::ACAstBaseNode"*** %25, align 8, !dbg !5823
  %309 = load %"class.altered_carbon::js::ACAstBaseNode"*, %"class.altered_carbon::js::ACAstBaseNode"** %308, align 8, !dbg !5824
  store %"class.altered_carbon::js::ACAstBaseNode"* %309, %"class.altered_carbon::js::ACAstBaseNode"** %306, align 8, !dbg !5821
  %310 = bitcast %"class.std::__1::__compressed_pair.2"* %301 to %"struct.std::__1::__compressed_pair_elem.4"*, !dbg !5818
  %311 = load %"struct.std::__1::default_delete.5"*, %"struct.std::__1::default_delete.5"** %35, align 8, !dbg !5825
  store %"struct.std::__1::default_delete.5"* %311, %"struct.std::__1::default_delete.5"** %28, align 8
  %312 = load %"struct.std::__1::default_delete.5"*, %"struct.std::__1::default_delete.5"** %28, align 8, !dbg !5826
  store %"struct.std::__1::__compressed_pair_elem.4"* %310, %"struct.std::__1::__compressed_pair_elem.4"** %30, align 8
  store %"struct.std::__1::default_delete.5"* %312, %"struct.std::__1::default_delete.5"** %31, align 8
  %313 = load %"struct.std::__1::__compressed_pair_elem.4"*, %"struct.std::__1::__compressed_pair_elem.4"** %30, align 8
  %314 = bitcast %"struct.std::__1::__compressed_pair_elem.4"* %313 to %"struct.std::__1::default_delete.5"*, !dbg !5827
  %315 = load %"struct.std::__1::default_delete.5"*, %"struct.std::__1::default_delete.5"** %31, align 8, !dbg !5828
  store %"struct.std::__1::default_delete.5"* %315, %"struct.std::__1::default_delete.5"** %29, align 8
  %316 = load %"struct.std::__1::default_delete.5"*, %"struct.std::__1::default_delete.5"** %29, align 8, !dbg !5829
  %317 = load i32, i32* %219, align 4, !dbg !5830
  %318 = load i32, i32* %220, align 4, !dbg !5831
  call void @_ZN14altered_carbon2js18ACAstStatementNodeC2ENSt3__110unique_ptrINS0_13ACLexPositionENS2_14default_deleteIS4_EEEENS3_INS0_13ACAstBaseNodeENS5_IS8_EEEENS8_11AstNodeTypeENS8_14AstNodeSubTypeE(%"class.altered_carbon::js::ACAstStatementNode"* %224, %"class.std::__1::unique_ptr"* %221, %"class.std::__1::unique_ptr.1"* %222, i32 %317, i32 %318), !dbg !5832
  store %"class.std::__1::unique_ptr.1"* %222, %"class.std::__1::unique_ptr.1"** %20, align 8
  %319 = load %"class.std::__1::unique_ptr.1"*, %"class.std::__1::unique_ptr.1"** %20, align 8
  store %"class.std::__1::unique_ptr.1"* %319, %"class.std::__1::unique_ptr.1"** %19, align 8
  %320 = load %"class.std::__1::unique_ptr.1"*, %"class.std::__1::unique_ptr.1"** %19, align 8
  store %"class.std::__1::unique_ptr.1"* %320, %"class.std::__1::unique_ptr.1"** %16, align 8
  store %"class.altered_carbon::js::ACAstBaseNode"* null, %"class.altered_carbon::js::ACAstBaseNode"** %17, align 8
  %321 = load %"class.std::__1::unique_ptr.1"*, %"class.std::__1::unique_ptr.1"** %16, align 8
  %322 = getelementptr inbounds %"class.std::__1::unique_ptr.1", %"class.std::__1::unique_ptr.1"* %321, i32 0, i32 0, !dbg !5833
  store %"class.std::__1::__compressed_pair.2"* %322, %"class.std::__1::__compressed_pair.2"** %15, align 8
  %323 = load %"class.std::__1::__compressed_pair.2"*, %"class.std::__1::__compressed_pair.2"** %15, align 8
  %324 = bitcast %"class.std::__1::__compressed_pair.2"* %323 to %"struct.std::__1::__compressed_pair_elem.3"*, !dbg !5834
  store %"struct.std::__1::__compressed_pair_elem.3"* %324, %"struct.std::__1::__compressed_pair_elem.3"** %14, align 8
  %325 = load %"struct.std::__1::__compressed_pair_elem.3"*, %"struct.std::__1::__compressed_pair_elem.3"** %14, align 8
  %326 = getelementptr inbounds %"struct.std::__1::__compressed_pair_elem.3", %"struct.std::__1::__compressed_pair_elem.3"* %325, i32 0, i32 0, !dbg !5835
  %327 = load %"class.altered_carbon::js::ACAstBaseNode"*, %"class.altered_carbon::js::ACAstBaseNode"** %326, align 8, !dbg !5836
  store %"class.altered_carbon::js::ACAstBaseNode"* %327, %"class.altered_carbon::js::ACAstBaseNode"** %18, align 8, !dbg !5347
  %328 = load %"class.altered_carbon::js::ACAstBaseNode"*, %"class.altered_carbon::js::ACAstBaseNode"** %17, align 8, !dbg !5837
  %329 = getelementptr inbounds %"class.std::__1::unique_ptr.1", %"class.std::__1::unique_ptr.1"* %321, i32 0, i32 0, !dbg !5838
  store %"class.std::__1::__compressed_pair.2"* %329, %"class.std::__1::__compressed_pair.2"** %11, align 8
  %330 = load %"class.std::__1::__compressed_pair.2"*, %"class.std::__1::__compressed_pair.2"** %11, align 8
  %331 = bitcast %"class.std::__1::__compressed_pair.2"* %330 to %"struct.std::__1::__compressed_pair_elem.3"*, !dbg !5839
  store %"struct.std::__1::__compressed_pair_elem.3"* %331, %"struct.std::__1::__compressed_pair_elem.3"** %10, align 8
  %332 = load %"struct.std::__1::__compressed_pair_elem.3"*, %"struct.std::__1::__compressed_pair_elem.3"** %10, align 8
  %333 = getelementptr inbounds %"struct.std::__1::__compressed_pair_elem.3", %"struct.std::__1::__compressed_pair_elem.3"* %332, i32 0, i32 0, !dbg !5840
  store %"class.altered_carbon::js::ACAstBaseNode"* %328, %"class.altered_carbon::js::ACAstBaseNode"** %333, align 8, !dbg !5841
  %334 = load %"class.altered_carbon::js::ACAstBaseNode"*, %"class.altered_carbon::js::ACAstBaseNode"** %18, align 8, !dbg !5842
  %335 = icmp ne %"class.altered_carbon::js::ACAstBaseNode"* %334, null, !dbg !5842
  br i1 %335, label %336, label %352, !dbg !5843

; <label>:336:                                    ; preds = %7
  %337 = getelementptr inbounds %"class.std::__1::unique_ptr.1", %"class.std::__1::unique_ptr.1"* %321, i32 0, i32 0, !dbg !5844
  store %"class.std::__1::__compressed_pair.2"* %337, %"class.std::__1::__compressed_pair.2"** %9, align 8
  %338 = load %"class.std::__1::__compressed_pair.2"*, %"class.std::__1::__compressed_pair.2"** %9, align 8
  %339 = bitcast %"class.std::__1::__compressed_pair.2"* %338 to %"struct.std::__1::__compressed_pair_elem.4"*, !dbg !5845
  store %"struct.std::__1::__compressed_pair_elem.4"* %339, %"struct.std::__1::__compressed_pair_elem.4"** %8, align 8
  %340 = load %"struct.std::__1::__compressed_pair_elem.4"*, %"struct.std::__1::__compressed_pair_elem.4"** %8, align 8
  %341 = bitcast %"struct.std::__1::__compressed_pair_elem.4"* %340 to %"struct.std::__1::default_delete.5"*, !dbg !5846
  %342 = load %"class.altered_carbon::js::ACAstBaseNode"*, %"class.altered_carbon::js::ACAstBaseNode"** %18, align 8, !dbg !5847
  store %"struct.std::__1::default_delete.5"* %341, %"struct.std::__1::default_delete.5"** %12, align 8
  store %"class.altered_carbon::js::ACAstBaseNode"* %342, %"class.altered_carbon::js::ACAstBaseNode"** %13, align 8
  %343 = load %"struct.std::__1::default_delete.5"*, %"struct.std::__1::default_delete.5"** %12, align 8
  %344 = load %"class.altered_carbon::js::ACAstBaseNode"*, %"class.altered_carbon::js::ACAstBaseNode"** %13, align 8, !dbg !5848
  %345 = icmp eq %"class.altered_carbon::js::ACAstBaseNode"* %344, null, !dbg !5849
  br i1 %345, label %351, label %346, !dbg !5849

; <label>:346:                                    ; preds = %336
  %347 = bitcast %"class.altered_carbon::js::ACAstBaseNode"* %344 to void (%"class.altered_carbon::js::ACAstBaseNode"*)***, !dbg !5849
  %348 = load void (%"class.altered_carbon::js::ACAstBaseNode"*)**, void (%"class.altered_carbon::js::ACAstBaseNode"*)*** %347, align 8, !dbg !5849
  %349 = getelementptr inbounds void (%"class.altered_carbon::js::ACAstBaseNode"*)*, void (%"class.altered_carbon::js::ACAstBaseNode"*)** %348, i64 1, !dbg !5849
  %350 = load void (%"class.altered_carbon::js::ACAstBaseNode"*)*, void (%"class.altered_carbon::js::ACAstBaseNode"*)** %349, align 8, !dbg !5849
  call void %350(%"class.altered_carbon::js::ACAstBaseNode"* %344) #8, !dbg !5849
  br label %351, !dbg !5849

; <label>:351:                                    ; preds = %346, %336
  br label %352, !dbg !5844

; <label>:352:                                    ; preds = %7, %351
  store %"class.std::__1::unique_ptr"* %221, %"class.std::__1::unique_ptr"** %62, align 8
  %353 = load %"class.std::__1::unique_ptr"*, %"class.std::__1::unique_ptr"** %62, align 8
  store %"class.std::__1::unique_ptr"* %353, %"class.std::__1::unique_ptr"** %61, align 8
  %354 = load %"class.std::__1::unique_ptr"*, %"class.std::__1::unique_ptr"** %61, align 8
  store %"class.std::__1::unique_ptr"* %354, %"class.std::__1::unique_ptr"** %58, align 8
  store %"struct.altered_carbon::js::ACLexPosition"* null, %"struct.altered_carbon::js::ACLexPosition"** %59, align 8
  %355 = load %"class.std::__1::unique_ptr"*, %"class.std::__1::unique_ptr"** %58, align 8
  %356 = getelementptr inbounds %"class.std::__1::unique_ptr", %"class.std::__1::unique_ptr"* %355, i32 0, i32 0, !dbg !5850
  store %"class.std::__1::__compressed_pair"* %356, %"class.std::__1::__compressed_pair"** %57, align 8
  %357 = load %"class.std::__1::__compressed_pair"*, %"class.std::__1::__compressed_pair"** %57, align 8
  %358 = bitcast %"class.std::__1::__compressed_pair"* %357 to %"struct.std::__1::__compressed_pair_elem"*, !dbg !5851
  store %"struct.std::__1::__compressed_pair_elem"* %358, %"struct.std::__1::__compressed_pair_elem"** %56, align 8
  %359 = load %"struct.std::__1::__compressed_pair_elem"*, %"struct.std::__1::__compressed_pair_elem"** %56, align 8
  %360 = getelementptr inbounds %"struct.std::__1::__compressed_pair_elem", %"struct.std::__1::__compressed_pair_elem"* %359, i32 0, i32 0, !dbg !5852
  %361 = load %"struct.altered_carbon::js::ACLexPosition"*, %"struct.altered_carbon::js::ACLexPosition"** %360, align 8, !dbg !5853
  store %"struct.altered_carbon::js::ACLexPosition"* %361, %"struct.altered_carbon::js::ACLexPosition"** %60, align 8, !dbg !5417
  %362 = load %"struct.altered_carbon::js::ACLexPosition"*, %"struct.altered_carbon::js::ACLexPosition"** %59, align 8, !dbg !5854
  %363 = getelementptr inbounds %"class.std::__1::unique_ptr", %"class.std::__1::unique_ptr"* %355, i32 0, i32 0, !dbg !5855
  store %"class.std::__1::__compressed_pair"* %363, %"class.std::__1::__compressed_pair"** %53, align 8
  %364 = load %"class.std::__1::__compressed_pair"*, %"class.std::__1::__compressed_pair"** %53, align 8
  %365 = bitcast %"class.std::__1::__compressed_pair"* %364 to %"struct.std::__1::__compressed_pair_elem"*, !dbg !5856
  store %"struct.std::__1::__compressed_pair_elem"* %365, %"struct.std::__1::__compressed_pair_elem"** %52, align 8
  %366 = load %"struct.std::__1::__compressed_pair_elem"*, %"struct.std::__1::__compressed_pair_elem"** %52, align 8
  %367 = getelementptr inbounds %"struct.std::__1::__compressed_pair_elem", %"struct.std::__1::__compressed_pair_elem"* %366, i32 0, i32 0, !dbg !5857
  store %"struct.altered_carbon::js::ACLexPosition"* %362, %"struct.altered_carbon::js::ACLexPosition"** %367, align 8, !dbg !5858
  %368 = load %"struct.altered_carbon::js::ACLexPosition"*, %"struct.altered_carbon::js::ACLexPosition"** %60, align 8, !dbg !5859
  %369 = icmp ne %"struct.altered_carbon::js::ACLexPosition"* %368, null, !dbg !5859
  br i1 %369, label %370, label %386, !dbg !5860

; <label>:370:                                    ; preds = %352
  %371 = getelementptr inbounds %"class.std::__1::unique_ptr", %"class.std::__1::unique_ptr"* %355, i32 0, i32 0, !dbg !5861
  store %"class.std::__1::__compressed_pair"* %371, %"class.std::__1::__compressed_pair"** %51, align 8
  %372 = load %"class.std::__1::__compressed_pair"*, %"class.std::__1::__compressed_pair"** %51, align 8
  %373 = bitcast %"class.std::__1::__compressed_pair"* %372 to %"struct.std::__1::__compressed_pair_elem.0"*, !dbg !5862
  store %"struct.std::__1::__compressed_pair_elem.0"* %373, %"struct.std::__1::__compressed_pair_elem.0"** %50, align 8
  %374 = load %"struct.std::__1::__compressed_pair_elem.0"*, %"struct.std::__1::__compressed_pair_elem.0"** %50, align 8
  %375 = bitcast %"struct.std::__1::__compressed_pair_elem.0"* %374 to %"struct.std::__1::default_delete"*, !dbg !5863
  %376 = load %"struct.altered_carbon::js::ACLexPosition"*, %"struct.altered_carbon::js::ACLexPosition"** %60, align 8, !dbg !5864
  store %"struct.std::__1::default_delete"* %375, %"struct.std::__1::default_delete"** %54, align 8
  store %"struct.altered_carbon::js::ACLexPosition"* %376, %"struct.altered_carbon::js::ACLexPosition"** %55, align 8
  %377 = load %"struct.std::__1::default_delete"*, %"struct.std::__1::default_delete"** %54, align 8
  %378 = load %"struct.altered_carbon::js::ACLexPosition"*, %"struct.altered_carbon::js::ACLexPosition"** %55, align 8, !dbg !5865
  %379 = icmp eq %"struct.altered_carbon::js::ACLexPosition"* %378, null, !dbg !5866
  br i1 %379, label %385, label %380, !dbg !5866

; <label>:380:                                    ; preds = %370
  %381 = bitcast %"struct.altered_carbon::js::ACLexPosition"* %378 to void (%"struct.altered_carbon::js::ACLexPosition"*)***, !dbg !5866
  %382 = load void (%"struct.altered_carbon::js::ACLexPosition"*)**, void (%"struct.altered_carbon::js::ACLexPosition"*)*** %381, align 8, !dbg !5866
  %383 = getelementptr inbounds void (%"struct.altered_carbon::js::ACLexPosition"*)*, void (%"struct.altered_carbon::js::ACLexPosition"*)** %382, i64 1, !dbg !5866
  %384 = load void (%"struct.altered_carbon::js::ACLexPosition"*)*, void (%"struct.altered_carbon::js::ACLexPosition"*)** %383, align 8, !dbg !5866
  call void %384(%"struct.altered_carbon::js::ACLexPosition"* %378) #8, !dbg !5866
  br label %385, !dbg !5866

; <label>:385:                                    ; preds = %380, %370
  br label %386, !dbg !5861

; <label>:386:                                    ; preds = %352, %385
  %387 = bitcast %"class.altered_carbon::js::ACAstIfElseStatement"* %223 to i32 (...)***, !dbg !5767
  store i32 (...)** bitcast (i8** getelementptr inbounds ({ [14 x i8*] }, { [14 x i8*] }* @_ZTVN14altered_carbon2js20ACAstIfElseStatementE, i32 0, inrange i32 0, i32 2) to i32 (...)**), i32 (...)*** %387, align 8, !dbg !5767
  %388 = bitcast %"class.altered_carbon::js::ACAstIfElseStatement"* %223 to %"class.altered_carbon::js::ACAstBaseNode"*, !dbg !5867
  %389 = getelementptr inbounds %"class.altered_carbon::js::ACAstBaseNode", %"class.altered_carbon::js::ACAstBaseNode"* %388, i32 0, i32 4, !dbg !5867
  store %"class.std::__1::unique_ptr.1"* %3, %"class.std::__1::unique_ptr.1"** %63, align 8
  %390 = load %"class.std::__1::unique_ptr.1"*, %"class.std::__1::unique_ptr.1"** %63, align 8, !dbg !5868
  store %"class.std::__1::vector"* %389, %"class.std::__1::vector"** %123, align 8
  store %"class.std::__1::unique_ptr.1"* %390, %"class.std::__1::unique_ptr.1"** %124, align 8
  %391 = load %"class.std::__1::vector"*, %"class.std::__1::vector"** %123, align 8
  %392 = bitcast %"class.std::__1::vector"* %391 to %"class.std::__1::__vector_base"*, !dbg !5869
  %393 = getelementptr inbounds %"class.std::__1::__vector_base", %"class.std::__1::__vector_base"* %392, i32 0, i32 1, !dbg !5869
  %394 = load %"class.std::__1::unique_ptr.1"*, %"class.std::__1::unique_ptr.1"** %393, align 8, !dbg !5869
  %395 = bitcast %"class.std::__1::vector"* %391 to %"class.std::__1::__vector_base"*, !dbg !5870
  store %"class.std::__1::__vector_base"* %395, %"class.std::__1::__vector_base"** %122, align 8
  %396 = load %"class.std::__1::__vector_base"*, %"class.std::__1::__vector_base"** %122, align 8
  %397 = getelementptr inbounds %"class.std::__1::__vector_base", %"class.std::__1::__vector_base"* %396, i32 0, i32 2, !dbg !5871
  store %"class.std::__1::__compressed_pair.7"* %397, %"class.std::__1::__compressed_pair.7"** %121, align 8
  %398 = load %"class.std::__1::__compressed_pair.7"*, %"class.std::__1::__compressed_pair.7"** %121, align 8
  %399 = bitcast %"class.std::__1::__compressed_pair.7"* %398 to %"struct.std::__1::__compressed_pair_elem.8"*, !dbg !5872
  store %"struct.std::__1::__compressed_pair_elem.8"* %399, %"struct.std::__1::__compressed_pair_elem.8"** %120, align 8
  %400 = load %"struct.std::__1::__compressed_pair_elem.8"*, %"struct.std::__1::__compressed_pair_elem.8"** %120, align 8
  %401 = getelementptr inbounds %"struct.std::__1::__compressed_pair_elem.8", %"struct.std::__1::__compressed_pair_elem.8"* %400, i32 0, i32 0, !dbg !5873
  %402 = load %"class.std::__1::unique_ptr.1"*, %"class.std::__1::unique_ptr.1"** %401, align 8, !dbg !5870
  %403 = icmp ult %"class.std::__1::unique_ptr.1"* %394, %402, !dbg !5874
  br i1 %403, label %404, label %486, !dbg !5875

; <label>:404:                                    ; preds = %386
  store %"struct.std::__1::vector<std::__1::unique_ptr<altered_carbon::js::ACAstBaseNode, std::__1::default_delete<altered_carbon::js::ACAstBaseNode> >, std::__1::allocator<std::__1::unique_ptr<altered_carbon::js::ACAstBaseNode, std::__1::default_delete<altered_carbon::js::ACAstBaseNode> > > >::__RAII_IncreaseAnnotator"* %125, %"struct.std::__1::vector<std::__1::unique_ptr<altered_carbon::js::ACAstBaseNode, std::__1::default_delete<altered_carbon::js::ACAstBaseNode> >, std::__1::allocator<std::__1::unique_ptr<altered_carbon::js::ACAstBaseNode, std::__1::default_delete<altered_carbon::js::ACAstBaseNode> > > >::__RAII_IncreaseAnnotator"** %117, align 8
  store %"class.std::__1::vector"* %391, %"class.std::__1::vector"** %118, align 8
  store i64 1, i64* %119, align 8
  %405 = load %"struct.std::__1::vector<std::__1::unique_ptr<altered_carbon::js::ACAstBaseNode, std::__1::default_delete<altered_carbon::js::ACAstBaseNode> >, std::__1::allocator<std::__1::unique_ptr<altered_carbon::js::ACAstBaseNode, std::__1::default_delete<altered_carbon::js::ACAstBaseNode> > > >::__RAII_IncreaseAnnotator"*, %"struct.std::__1::vector<std::__1::unique_ptr<altered_carbon::js::ACAstBaseNode, std::__1::default_delete<altered_carbon::js::ACAstBaseNode> >, std::__1::allocator<std::__1::unique_ptr<altered_carbon::js::ACAstBaseNode, std::__1::default_delete<altered_carbon::js::ACAstBaseNode> > > >::__RAII_IncreaseAnnotator"** %117, align 8
  %406 = load %"class.std::__1::vector"*, %"class.std::__1::vector"** %118, align 8, !dbg !5876
  %407 = load i64, i64* %119, align 8, !dbg !5876
  store %"struct.std::__1::vector<std::__1::unique_ptr<altered_carbon::js::ACAstBaseNode, std::__1::default_delete<altered_carbon::js::ACAstBaseNode> >, std::__1::allocator<std::__1::unique_ptr<altered_carbon::js::ACAstBaseNode, std::__1::default_delete<altered_carbon::js::ACAstBaseNode> > > >::__RAII_IncreaseAnnotator"* %405, %"struct.std::__1::vector<std::__1::unique_ptr<altered_carbon::js::ACAstBaseNode, std::__1::default_delete<altered_carbon::js::ACAstBaseNode> >, std::__1::allocator<std::__1::unique_ptr<altered_carbon::js::ACAstBaseNode, std::__1::default_delete<altered_carbon::js::ACAstBaseNode> > > >::__RAII_IncreaseAnnotator"** %114, align 8
  store %"class.std::__1::vector"* %406, %"class.std::__1::vector"** %115, align 8
  store i64 %407, i64* %116, align 8
  %408 = load %"struct.std::__1::vector<std::__1::unique_ptr<altered_carbon::js::ACAstBaseNode, std::__1::default_delete<altered_carbon::js::ACAstBaseNode> >, std::__1::allocator<std::__1::unique_ptr<altered_carbon::js::ACAstBaseNode, std::__1::default_delete<altered_carbon::js::ACAstBaseNode> > > >::__RAII_IncreaseAnnotator"*, %"struct.std::__1::vector<std::__1::unique_ptr<altered_carbon::js::ACAstBaseNode, std::__1::default_delete<altered_carbon::js::ACAstBaseNode> >, std::__1::allocator<std::__1::unique_ptr<altered_carbon::js::ACAstBaseNode, std::__1::default_delete<altered_carbon::js::ACAstBaseNode> > > >::__RAII_IncreaseAnnotator"** %114, align 8
  %409 = bitcast %"class.std::__1::vector"* %391 to %"class.std::__1::__vector_base"*, !dbg !5877
  store %"class.std::__1::__vector_base"* %409, %"class.std::__1::__vector_base"** %67, align 8
  %410 = load %"class.std::__1::__vector_base"*, %"class.std::__1::__vector_base"** %67, align 8
  %411 = getelementptr inbounds %"class.std::__1::__vector_base", %"class.std::__1::__vector_base"* %410, i32 0, i32 2, !dbg !5878
  store %"class.std::__1::__compressed_pair.7"* %411, %"class.std::__1::__compressed_pair.7"** %66, align 8
  %412 = load %"class.std::__1::__compressed_pair.7"*, %"class.std::__1::__compressed_pair.7"** %66, align 8
  %413 = bitcast %"class.std::__1::__compressed_pair.7"* %412 to %"struct.std::__1::__compressed_pair_elem.9"*, !dbg !5879
  store %"struct.std::__1::__compressed_pair_elem.9"* %413, %"struct.std::__1::__compressed_pair_elem.9"** %65, align 8
  %414 = load %"struct.std::__1::__compressed_pair_elem.9"*, %"struct.std::__1::__compressed_pair_elem.9"** %65, align 8
  %415 = bitcast %"struct.std::__1::__compressed_pair_elem.9"* %414 to %"class.std::__1::allocator"*, !dbg !5880
  %416 = bitcast %"class.std::__1::vector"* %391 to %"class.std::__1::__vector_base"*, !dbg !5881
  %417 = getelementptr inbounds %"class.std::__1::__vector_base", %"class.std::__1::__vector_base"* %416, i32 0, i32 1, !dbg !5881
  %418 = load %"class.std::__1::unique_ptr.1"*, %"class.std::__1::unique_ptr.1"** %417, align 8, !dbg !5881
  store %"class.std::__1::unique_ptr.1"* %418, %"class.std::__1::unique_ptr.1"** %68, align 8
  %419 = load %"class.std::__1::unique_ptr.1"*, %"class.std::__1::unique_ptr.1"** %68, align 8, !dbg !5882
  %420 = load %"class.std::__1::unique_ptr.1"*, %"class.std::__1::unique_ptr.1"** %124, align 8, !dbg !5883
  store %"class.std::__1::unique_ptr.1"* %420, %"class.std::__1::unique_ptr.1"** %69, align 8
  %421 = load %"class.std::__1::unique_ptr.1"*, %"class.std::__1::unique_ptr.1"** %69, align 8, !dbg !5884
  store %"class.std::__1::allocator"* %415, %"class.std::__1::allocator"** %108, align 8
  store %"class.std::__1::unique_ptr.1"* %419, %"class.std::__1::unique_ptr.1"** %109, align 8
  store %"class.std::__1::unique_ptr.1"* %421, %"class.std::__1::unique_ptr.1"** %110, align 8
  %422 = bitcast %"struct.std::__1::__has_construct"* %111 to %"struct.std::__1::integral_constant"*, !dbg !5885
  %423 = load %"class.std::__1::allocator"*, %"class.std::__1::allocator"** %108, align 8, !dbg !5886
  %424 = load %"class.std::__1::unique_ptr.1"*, %"class.std::__1::unique_ptr.1"** %109, align 8, !dbg !5887
  %425 = load %"class.std::__1::unique_ptr.1"*, %"class.std::__1::unique_ptr.1"** %110, align 8, !dbg !5888
  store %"class.std::__1::unique_ptr.1"* %425, %"class.std::__1::unique_ptr.1"** %107, align 8
  %426 = load %"class.std::__1::unique_ptr.1"*, %"class.std::__1::unique_ptr.1"** %107, align 8, !dbg !5889
  call void @llvm.dbg.declare(metadata !162, metadata !5890, metadata !DIExpression()) #8, !dbg !5891
  store %"class.std::__1::allocator"* %423, %"class.std::__1::allocator"** %104, align 8
  store %"class.std::__1::unique_ptr.1"* %424, %"class.std::__1::unique_ptr.1"** %105, align 8
  store %"class.std::__1::unique_ptr.1"* %426, %"class.std::__1::unique_ptr.1"** %106, align 8
  %427 = load %"class.std::__1::allocator"*, %"class.std::__1::allocator"** %104, align 8, !dbg !5892
  %428 = load %"class.std::__1::unique_ptr.1"*, %"class.std::__1::unique_ptr.1"** %105, align 8, !dbg !5893
  %429 = load %"class.std::__1::unique_ptr.1"*, %"class.std::__1::unique_ptr.1"** %106, align 8, !dbg !5894
  store %"class.std::__1::unique_ptr.1"* %429, %"class.std::__1::unique_ptr.1"** %103, align 8
  %430 = load %"class.std::__1::unique_ptr.1"*, %"class.std::__1::unique_ptr.1"** %103, align 8, !dbg !5895
  store %"class.std::__1::allocator"* %427, %"class.std::__1::allocator"** %100, align 8
  store %"class.std::__1::unique_ptr.1"* %428, %"class.std::__1::unique_ptr.1"** %101, align 8
  store %"class.std::__1::unique_ptr.1"* %430, %"class.std::__1::unique_ptr.1"** %102, align 8
  %431 = load %"class.std::__1::allocator"*, %"class.std::__1::allocator"** %100, align 8
  %432 = load %"class.std::__1::unique_ptr.1"*, %"class.std::__1::unique_ptr.1"** %101, align 8, !dbg !5896
  %433 = bitcast %"class.std::__1::unique_ptr.1"* %432 to i8*, !dbg !5896
  %434 = load %"class.std::__1::unique_ptr.1"*, %"class.std::__1::unique_ptr.1"** %102, align 8, !dbg !5897
  store %"class.std::__1::unique_ptr.1"* %434, %"class.std::__1::unique_ptr.1"** %99, align 8
  %435 = load %"class.std::__1::unique_ptr.1"*, %"class.std::__1::unique_ptr.1"** %99, align 8, !dbg !5898
  store %"class.std::__1::unique_ptr.1"* %432, %"class.std::__1::unique_ptr.1"** %97, align 8
  store %"class.std::__1::unique_ptr.1"* %435, %"class.std::__1::unique_ptr.1"** %98, align 8
  %436 = load %"class.std::__1::unique_ptr.1"*, %"class.std::__1::unique_ptr.1"** %97, align 8
  %437 = load %"class.std::__1::unique_ptr.1"*, %"class.std::__1::unique_ptr.1"** %98, align 8, !dbg !5899
  store %"class.std::__1::unique_ptr.1"* %436, %"class.std::__1::unique_ptr.1"** %94, align 8
  store %"class.std::__1::unique_ptr.1"* %437, %"class.std::__1::unique_ptr.1"** %95, align 8
  %438 = load %"class.std::__1::unique_ptr.1"*, %"class.std::__1::unique_ptr.1"** %94, align 8
  %439 = getelementptr inbounds %"class.std::__1::unique_ptr.1", %"class.std::__1::unique_ptr.1"* %438, i32 0, i32 0, !dbg !5900
  %440 = load %"class.std::__1::unique_ptr.1"*, %"class.std::__1::unique_ptr.1"** %95, align 8, !dbg !5901
  store %"class.std::__1::unique_ptr.1"* %440, %"class.std::__1::unique_ptr.1"** %92, align 8
  %441 = load %"class.std::__1::unique_ptr.1"*, %"class.std::__1::unique_ptr.1"** %92, align 8
  %442 = getelementptr inbounds %"class.std::__1::unique_ptr.1", %"class.std::__1::unique_ptr.1"* %441, i32 0, i32 0, !dbg !5902
  store %"class.std::__1::__compressed_pair.2"* %442, %"class.std::__1::__compressed_pair.2"** %91, align 8
  %443 = load %"class.std::__1::__compressed_pair.2"*, %"class.std::__1::__compressed_pair.2"** %91, align 8
  %444 = bitcast %"class.std::__1::__compressed_pair.2"* %443 to %"struct.std::__1::__compressed_pair_elem.3"*, !dbg !5903
  store %"struct.std::__1::__compressed_pair_elem.3"* %444, %"struct.std::__1::__compressed_pair_elem.3"** %90, align 8
  %445 = load %"struct.std::__1::__compressed_pair_elem.3"*, %"struct.std::__1::__compressed_pair_elem.3"** %90, align 8
  %446 = getelementptr inbounds %"struct.std::__1::__compressed_pair_elem.3", %"struct.std::__1::__compressed_pair_elem.3"* %445, i32 0, i32 0, !dbg !5904
  %447 = load %"class.altered_carbon::js::ACAstBaseNode"*, %"class.altered_carbon::js::ACAstBaseNode"** %446, align 8, !dbg !5905
  store %"class.altered_carbon::js::ACAstBaseNode"* %447, %"class.altered_carbon::js::ACAstBaseNode"** %93, align 8, !dbg !5515
  %448 = getelementptr inbounds %"class.std::__1::unique_ptr.1", %"class.std::__1::unique_ptr.1"* %441, i32 0, i32 0, !dbg !5906
  store %"class.std::__1::__compressed_pair.2"* %448, %"class.std::__1::__compressed_pair.2"** %89, align 8
  %449 = load %"class.std::__1::__compressed_pair.2"*, %"class.std::__1::__compressed_pair.2"** %89, align 8
  %450 = bitcast %"class.std::__1::__compressed_pair.2"* %449 to %"struct.std::__1::__compressed_pair_elem.3"*, !dbg !5907
  store %"struct.std::__1::__compressed_pair_elem.3"* %450, %"struct.std::__1::__compressed_pair_elem.3"** %88, align 8
  %451 = load %"struct.std::__1::__compressed_pair_elem.3"*, %"struct.std::__1::__compressed_pair_elem.3"** %88, align 8
  %452 = getelementptr inbounds %"struct.std::__1::__compressed_pair_elem.3", %"struct.std::__1::__compressed_pair_elem.3"* %451, i32 0, i32 0, !dbg !5908
  store %"class.altered_carbon::js::ACAstBaseNode"* null, %"class.altered_carbon::js::ACAstBaseNode"** %452, align 8, !dbg !5909
  %453 = load %"class.altered_carbon::js::ACAstBaseNode"*, %"class.altered_carbon::js::ACAstBaseNode"** %93, align 8, !dbg !5910
  store %"class.altered_carbon::js::ACAstBaseNode"* %453, %"class.altered_carbon::js::ACAstBaseNode"** %96, align 8, !dbg !5901
  %454 = load %"class.std::__1::unique_ptr.1"*, %"class.std::__1::unique_ptr.1"** %95, align 8, !dbg !5911
  store %"class.std::__1::unique_ptr.1"* %454, %"class.std::__1::unique_ptr.1"** %72, align 8
  %455 = load %"class.std::__1::unique_ptr.1"*, %"class.std::__1::unique_ptr.1"** %72, align 8
  %456 = getelementptr inbounds %"class.std::__1::unique_ptr.1", %"class.std::__1::unique_ptr.1"* %455, i32 0, i32 0, !dbg !5912
  store %"class.std::__1::__compressed_pair.2"* %456, %"class.std::__1::__compressed_pair.2"** %71, align 8
  %457 = load %"class.std::__1::__compressed_pair.2"*, %"class.std::__1::__compressed_pair.2"** %71, align 8
  %458 = bitcast %"class.std::__1::__compressed_pair.2"* %457 to %"struct.std::__1::__compressed_pair_elem.4"*, !dbg !5913
  store %"struct.std::__1::__compressed_pair_elem.4"* %458, %"struct.std::__1::__compressed_pair_elem.4"** %70, align 8
  %459 = load %"struct.std::__1::__compressed_pair_elem.4"*, %"struct.std::__1::__compressed_pair_elem.4"** %70, align 8
  %460 = bitcast %"struct.std::__1::__compressed_pair_elem.4"* %459 to %"struct.std::__1::default_delete.5"*, !dbg !5914
  store %"struct.std::__1::default_delete.5"* %460, %"struct.std::__1::default_delete.5"** %73, align 8
  %461 = load %"struct.std::__1::default_delete.5"*, %"struct.std::__1::default_delete.5"** %73, align 8, !dbg !5915
  store %"class.std::__1::__compressed_pair.2"* %439, %"class.std::__1::__compressed_pair.2"** %85, align 8
  store %"class.altered_carbon::js::ACAstBaseNode"** %96, %"class.altered_carbon::js::ACAstBaseNode"*** %86, align 8
  store %"struct.std::__1::default_delete.5"* %461, %"struct.std::__1::default_delete.5"** %87, align 8
  %462 = load %"class.std::__1::__compressed_pair.2"*, %"class.std::__1::__compressed_pair.2"** %85, align 8
  %463 = load %"class.altered_carbon::js::ACAstBaseNode"**, %"class.altered_carbon::js::ACAstBaseNode"*** %86, align 8, !dbg !5916
  %464 = load %"struct.std::__1::default_delete.5"*, %"struct.std::__1::default_delete.5"** %87, align 8, !dbg !5916
  store %"class.std::__1::__compressed_pair.2"* %462, %"class.std::__1::__compressed_pair.2"** %82, align 8
  store %"class.altered_carbon::js::ACAstBaseNode"** %463, %"class.altered_carbon::js::ACAstBaseNode"*** %83, align 8
  store %"struct.std::__1::default_delete.5"* %464, %"struct.std::__1::default_delete.5"** %84, align 8
  %465 = load %"class.std::__1::__compressed_pair.2"*, %"class.std::__1::__compressed_pair.2"** %82, align 8
  %466 = bitcast %"class.std::__1::__compressed_pair.2"* %465 to %"struct.std::__1::__compressed_pair_elem.3"*, !dbg !5917
  %467 = load %"class.altered_carbon::js::ACAstBaseNode"**, %"class.altered_carbon::js::ACAstBaseNode"*** %83, align 8, !dbg !5918
  store %"class.altered_carbon::js::ACAstBaseNode"** %467, %"class.altered_carbon::js::ACAstBaseNode"*** %81, align 8
  %468 = load %"class.altered_carbon::js::ACAstBaseNode"**, %"class.altered_carbon::js::ACAstBaseNode"*** %81, align 8, !dbg !5919
  store %"struct.std::__1::__compressed_pair_elem.3"* %466, %"struct.std::__1::__compressed_pair_elem.3"** %75, align 8
  store %"class.altered_carbon::js::ACAstBaseNode"** %468, %"class.altered_carbon::js::ACAstBaseNode"*** %76, align 8
  %469 = load %"struct.std::__1::__compressed_pair_elem.3"*, %"struct.std::__1::__compressed_pair_elem.3"** %75, align 8
  %470 = getelementptr inbounds %"struct.std::__1::__compressed_pair_elem.3", %"struct.std::__1::__compressed_pair_elem.3"* %469, i32 0, i32 0, !dbg !5920
  %471 = load %"class.altered_carbon::js::ACAstBaseNode"**, %"class.altered_carbon::js::ACAstBaseNode"*** %76, align 8, !dbg !5921
  store %"class.altered_carbon::js::ACAstBaseNode"** %471, %"class.altered_carbon::js::ACAstBaseNode"*** %74, align 8
  %472 = load %"class.altered_carbon::js::ACAstBaseNode"**, %"class.altered_carbon::js::ACAstBaseNode"*** %74, align 8, !dbg !5922
  %473 = load %"class.altered_carbon::js::ACAstBaseNode"*, %"class.altered_carbon::js::ACAstBaseNode"** %472, align 8, !dbg !5923
  store %"class.altered_carbon::js::ACAstBaseNode"* %473, %"class.altered_carbon::js::ACAstBaseNode"** %470, align 8, !dbg !5920
  %474 = bitcast %"class.std::__1::__compressed_pair.2"* %465 to %"struct.std::__1::__compressed_pair_elem.4"*, !dbg !5917
  %475 = load %"struct.std::__1::default_delete.5"*, %"struct.std::__1::default_delete.5"** %84, align 8, !dbg !5924
  store %"struct.std::__1::default_delete.5"* %475, %"struct.std::__1::default_delete.5"** %77, align 8
  %476 = load %"struct.std::__1::default_delete.5"*, %"struct.std::__1::default_delete.5"** %77, align 8, !dbg !5925
  store %"struct.std::__1::__compressed_pair_elem.4"* %474, %"struct.std::__1::__compressed_pair_elem.4"** %79, align 8
  store %"struct.std::__1::default_delete.5"* %476, %"struct.std::__1::default_delete.5"** %80, align 8
  %477 = load %"struct.std::__1::__compressed_pair_elem.4"*, %"struct.std::__1::__compressed_pair_elem.4"** %79, align 8
  %478 = bitcast %"struct.std::__1::__compressed_pair_elem.4"* %477 to %"struct.std::__1::default_delete.5"*, !dbg !5926
  %479 = load %"struct.std::__1::default_delete.5"*, %"struct.std::__1::default_delete.5"** %80, align 8, !dbg !5927
  store %"struct.std::__1::default_delete.5"* %479, %"struct.std::__1::default_delete.5"** %78, align 8
  %480 = load %"struct.std::__1::default_delete.5"*, %"struct.std::__1::default_delete.5"** %78, align 8, !dbg !5928
  store %"struct.std::__1::vector<std::__1::unique_ptr<altered_carbon::js::ACAstBaseNode, std::__1::default_delete<altered_carbon::js::ACAstBaseNode> >, std::__1::allocator<std::__1::unique_ptr<altered_carbon::js::ACAstBaseNode, std::__1::default_delete<altered_carbon::js::ACAstBaseNode> > > >::__RAII_IncreaseAnnotator"* %125, %"struct.std::__1::vector<std::__1::unique_ptr<altered_carbon::js::ACAstBaseNode, std::__1::default_delete<altered_carbon::js::ACAstBaseNode> >, std::__1::allocator<std::__1::unique_ptr<altered_carbon::js::ACAstBaseNode, std::__1::default_delete<altered_carbon::js::ACAstBaseNode> > > >::__RAII_IncreaseAnnotator"** %112, align 8
  %481 = load %"struct.std::__1::vector<std::__1::unique_ptr<altered_carbon::js::ACAstBaseNode, std::__1::default_delete<altered_carbon::js::ACAstBaseNode> >, std::__1::allocator<std::__1::unique_ptr<altered_carbon::js::ACAstBaseNode, std::__1::default_delete<altered_carbon::js::ACAstBaseNode> > > >::__RAII_IncreaseAnnotator"*, %"struct.std::__1::vector<std::__1::unique_ptr<altered_carbon::js::ACAstBaseNode, std::__1::default_delete<altered_carbon::js::ACAstBaseNode> >, std::__1::allocator<std::__1::unique_ptr<altered_carbon::js::ACAstBaseNode, std::__1::default_delete<altered_carbon::js::ACAstBaseNode> > > >::__RAII_IncreaseAnnotator"** %112, align 8
  %482 = bitcast %"class.std::__1::vector"* %391 to %"class.std::__1::__vector_base"*, !dbg !5929
  %483 = getelementptr inbounds %"class.std::__1::__vector_base", %"class.std::__1::__vector_base"* %482, i32 0, i32 1, !dbg !5929
  %484 = load %"class.std::__1::unique_ptr.1"*, %"class.std::__1::unique_ptr.1"** %483, align 8, !dbg !5930
  %485 = getelementptr inbounds %"class.std::__1::unique_ptr.1", %"class.std::__1::unique_ptr.1"* %484, i32 1, !dbg !5930
  store %"class.std::__1::unique_ptr.1"* %485, %"class.std::__1::unique_ptr.1"** %483, align 8, !dbg !5930
  br label %489, !dbg !5931

; <label>:486:                                    ; preds = %386
  %487 = load %"class.std::__1::unique_ptr.1"*, %"class.std::__1::unique_ptr.1"** %124, align 8, !dbg !5932
  store %"class.std::__1::unique_ptr.1"* %487, %"class.std::__1::unique_ptr.1"** %113, align 8
  %488 = load %"class.std::__1::unique_ptr.1"*, %"class.std::__1::unique_ptr.1"** %113, align 8, !dbg !5933
  call void @_ZNSt3__16vectorINS_10unique_ptrIN14altered_carbon2js13ACAstBaseNodeENS_14default_deleteIS4_EEEENS_9allocatorIS7_EEE21__push_back_slow_pathIS7_EEvOT_(%"class.std::__1::vector"* %391, %"class.std::__1::unique_ptr.1"* dereferenceable(8) %488) #8, !dbg !5934
  br label %489

; <label>:489:                                    ; preds = %404, %486
  %490 = bitcast %"class.altered_carbon::js::ACAstIfElseStatement"* %223 to %"class.altered_carbon::js::ACAstBaseNode"*, !dbg !5935
  %491 = getelementptr inbounds %"class.altered_carbon::js::ACAstBaseNode", %"class.altered_carbon::js::ACAstBaseNode"* %490, i32 0, i32 4, !dbg !5935
  store %"class.std::__1::unique_ptr.1"* %4, %"class.std::__1::unique_ptr.1"** %126, align 8
  %492 = load %"class.std::__1::unique_ptr.1"*, %"class.std::__1::unique_ptr.1"** %126, align 8, !dbg !5936
  store %"class.std::__1::vector"* %491, %"class.std::__1::vector"** %214, align 8
  store %"class.std::__1::unique_ptr.1"* %492, %"class.std::__1::unique_ptr.1"** %215, align 8
  %493 = load %"class.std::__1::vector"*, %"class.std::__1::vector"** %214, align 8
  %494 = bitcast %"class.std::__1::vector"* %493 to %"class.std::__1::__vector_base"*, !dbg !5937
  %495 = getelementptr inbounds %"class.std::__1::__vector_base", %"class.std::__1::__vector_base"* %494, i32 0, i32 1, !dbg !5937
  %496 = load %"class.std::__1::unique_ptr.1"*, %"class.std::__1::unique_ptr.1"** %495, align 8, !dbg !5937
  %497 = bitcast %"class.std::__1::vector"* %493 to %"class.std::__1::__vector_base"*, !dbg !5938
  store %"class.std::__1::__vector_base"* %497, %"class.std::__1::__vector_base"** %213, align 8
  %498 = load %"class.std::__1::__vector_base"*, %"class.std::__1::__vector_base"** %213, align 8
  %499 = getelementptr inbounds %"class.std::__1::__vector_base", %"class.std::__1::__vector_base"* %498, i32 0, i32 2, !dbg !5939
  store %"class.std::__1::__compressed_pair.7"* %499, %"class.std::__1::__compressed_pair.7"** %212, align 8
  %500 = load %"class.std::__1::__compressed_pair.7"*, %"class.std::__1::__compressed_pair.7"** %212, align 8
  %501 = bitcast %"class.std::__1::__compressed_pair.7"* %500 to %"struct.std::__1::__compressed_pair_elem.8"*, !dbg !5940
  store %"struct.std::__1::__compressed_pair_elem.8"* %501, %"struct.std::__1::__compressed_pair_elem.8"** %211, align 8
  %502 = load %"struct.std::__1::__compressed_pair_elem.8"*, %"struct.std::__1::__compressed_pair_elem.8"** %211, align 8
  %503 = getelementptr inbounds %"struct.std::__1::__compressed_pair_elem.8", %"struct.std::__1::__compressed_pair_elem.8"* %502, i32 0, i32 0, !dbg !5941
  %504 = load %"class.std::__1::unique_ptr.1"*, %"class.std::__1::unique_ptr.1"** %503, align 8, !dbg !5938
  %505 = icmp ult %"class.std::__1::unique_ptr.1"* %496, %504, !dbg !5942
  br i1 %505, label %506, label %588, !dbg !5943

; <label>:506:                                    ; preds = %489
  store %"struct.std::__1::vector<std::__1::unique_ptr<altered_carbon::js::ACAstBaseNode, std::__1::default_delete<altered_carbon::js::ACAstBaseNode> >, std::__1::allocator<std::__1::unique_ptr<altered_carbon::js::ACAstBaseNode, std::__1::default_delete<altered_carbon::js::ACAstBaseNode> > > >::__RAII_IncreaseAnnotator"* %216, %"struct.std::__1::vector<std::__1::unique_ptr<altered_carbon::js::ACAstBaseNode, std::__1::default_delete<altered_carbon::js::ACAstBaseNode> >, std::__1::allocator<std::__1::unique_ptr<altered_carbon::js::ACAstBaseNode, std::__1::default_delete<altered_carbon::js::ACAstBaseNode> > > >::__RAII_IncreaseAnnotator"** %208, align 8
  store %"class.std::__1::vector"* %493, %"class.std::__1::vector"** %209, align 8
  store i64 1, i64* %210, align 8
  %507 = load %"struct.std::__1::vector<std::__1::unique_ptr<altered_carbon::js::ACAstBaseNode, std::__1::default_delete<altered_carbon::js::ACAstBaseNode> >, std::__1::allocator<std::__1::unique_ptr<altered_carbon::js::ACAstBaseNode, std::__1::default_delete<altered_carbon::js::ACAstBaseNode> > > >::__RAII_IncreaseAnnotator"*, %"struct.std::__1::vector<std::__1::unique_ptr<altered_carbon::js::ACAstBaseNode, std::__1::default_delete<altered_carbon::js::ACAstBaseNode> >, std::__1::allocator<std::__1::unique_ptr<altered_carbon::js::ACAstBaseNode, std::__1::default_delete<altered_carbon::js::ACAstBaseNode> > > >::__RAII_IncreaseAnnotator"** %208, align 8
  %508 = load %"class.std::__1::vector"*, %"class.std::__1::vector"** %209, align 8, !dbg !5944
  %509 = load i64, i64* %210, align 8, !dbg !5944
  store %"struct.std::__1::vector<std::__1::unique_ptr<altered_carbon::js::ACAstBaseNode, std::__1::default_delete<altered_carbon::js::ACAstBaseNode> >, std::__1::allocator<std::__1::unique_ptr<altered_carbon::js::ACAstBaseNode, std::__1::default_delete<altered_carbon::js::ACAstBaseNode> > > >::__RAII_IncreaseAnnotator"* %507, %"struct.std::__1::vector<std::__1::unique_ptr<altered_carbon::js::ACAstBaseNode, std::__1::default_delete<altered_carbon::js::ACAstBaseNode> >, std::__1::allocator<std::__1::unique_ptr<altered_carbon::js::ACAstBaseNode, std::__1::default_delete<altered_carbon::js::ACAstBaseNode> > > >::__RAII_IncreaseAnnotator"** %205, align 8
  store %"class.std::__1::vector"* %508, %"class.std::__1::vector"** %206, align 8
  store i64 %509, i64* %207, align 8
  %510 = load %"struct.std::__1::vector<std::__1::unique_ptr<altered_carbon::js::ACAstBaseNode, std::__1::default_delete<altered_carbon::js::ACAstBaseNode> >, std::__1::allocator<std::__1::unique_ptr<altered_carbon::js::ACAstBaseNode, std::__1::default_delete<altered_carbon::js::ACAstBaseNode> > > >::__RAII_IncreaseAnnotator"*, %"struct.std::__1::vector<std::__1::unique_ptr<altered_carbon::js::ACAstBaseNode, std::__1::default_delete<altered_carbon::js::ACAstBaseNode> >, std::__1::allocator<std::__1::unique_ptr<altered_carbon::js::ACAstBaseNode, std::__1::default_delete<altered_carbon::js::ACAstBaseNode> > > >::__RAII_IncreaseAnnotator"** %205, align 8
  %511 = bitcast %"class.std::__1::vector"* %493 to %"class.std::__1::__vector_base"*, !dbg !5945
  store %"class.std::__1::__vector_base"* %511, %"class.std::__1::__vector_base"** %158, align 8
  %512 = load %"class.std::__1::__vector_base"*, %"class.std::__1::__vector_base"** %158, align 8
  %513 = getelementptr inbounds %"class.std::__1::__vector_base", %"class.std::__1::__vector_base"* %512, i32 0, i32 2, !dbg !5946
  store %"class.std::__1::__compressed_pair.7"* %513, %"class.std::__1::__compressed_pair.7"** %157, align 8
  %514 = load %"class.std::__1::__compressed_pair.7"*, %"class.std::__1::__compressed_pair.7"** %157, align 8
  %515 = bitcast %"class.std::__1::__compressed_pair.7"* %514 to %"struct.std::__1::__compressed_pair_elem.9"*, !dbg !5947
  store %"struct.std::__1::__compressed_pair_elem.9"* %515, %"struct.std::__1::__compressed_pair_elem.9"** %156, align 8
  %516 = load %"struct.std::__1::__compressed_pair_elem.9"*, %"struct.std::__1::__compressed_pair_elem.9"** %156, align 8
  %517 = bitcast %"struct.std::__1::__compressed_pair_elem.9"* %516 to %"class.std::__1::allocator"*, !dbg !5948
  %518 = bitcast %"class.std::__1::vector"* %493 to %"class.std::__1::__vector_base"*, !dbg !5949
  %519 = getelementptr inbounds %"class.std::__1::__vector_base", %"class.std::__1::__vector_base"* %518, i32 0, i32 1, !dbg !5949
  %520 = load %"class.std::__1::unique_ptr.1"*, %"class.std::__1::unique_ptr.1"** %519, align 8, !dbg !5949
  store %"class.std::__1::unique_ptr.1"* %520, %"class.std::__1::unique_ptr.1"** %159, align 8
  %521 = load %"class.std::__1::unique_ptr.1"*, %"class.std::__1::unique_ptr.1"** %159, align 8, !dbg !5950
  %522 = load %"class.std::__1::unique_ptr.1"*, %"class.std::__1::unique_ptr.1"** %215, align 8, !dbg !5951
  store %"class.std::__1::unique_ptr.1"* %522, %"class.std::__1::unique_ptr.1"** %160, align 8
  %523 = load %"class.std::__1::unique_ptr.1"*, %"class.std::__1::unique_ptr.1"** %160, align 8, !dbg !5952
  store %"class.std::__1::allocator"* %517, %"class.std::__1::allocator"** %199, align 8
  store %"class.std::__1::unique_ptr.1"* %521, %"class.std::__1::unique_ptr.1"** %200, align 8
  store %"class.std::__1::unique_ptr.1"* %523, %"class.std::__1::unique_ptr.1"** %201, align 8
  %524 = bitcast %"struct.std::__1::__has_construct"* %202 to %"struct.std::__1::integral_constant"*, !dbg !5953
  %525 = load %"class.std::__1::allocator"*, %"class.std::__1::allocator"** %199, align 8, !dbg !5954
  %526 = load %"class.std::__1::unique_ptr.1"*, %"class.std::__1::unique_ptr.1"** %200, align 8, !dbg !5955
  %527 = load %"class.std::__1::unique_ptr.1"*, %"class.std::__1::unique_ptr.1"** %201, align 8, !dbg !5956
  store %"class.std::__1::unique_ptr.1"* %527, %"class.std::__1::unique_ptr.1"** %198, align 8
  %528 = load %"class.std::__1::unique_ptr.1"*, %"class.std::__1::unique_ptr.1"** %198, align 8, !dbg !5957
  call void @llvm.dbg.declare(metadata !162, metadata !5890, metadata !DIExpression()) #8, !dbg !5958
  store %"class.std::__1::allocator"* %525, %"class.std::__1::allocator"** %195, align 8
  store %"class.std::__1::unique_ptr.1"* %526, %"class.std::__1::unique_ptr.1"** %196, align 8
  store %"class.std::__1::unique_ptr.1"* %528, %"class.std::__1::unique_ptr.1"** %197, align 8
  %529 = load %"class.std::__1::allocator"*, %"class.std::__1::allocator"** %195, align 8, !dbg !5959
  %530 = load %"class.std::__1::unique_ptr.1"*, %"class.std::__1::unique_ptr.1"** %196, align 8, !dbg !5960
  %531 = load %"class.std::__1::unique_ptr.1"*, %"class.std::__1::unique_ptr.1"** %197, align 8, !dbg !5961
  store %"class.std::__1::unique_ptr.1"* %531, %"class.std::__1::unique_ptr.1"** %194, align 8
  %532 = load %"class.std::__1::unique_ptr.1"*, %"class.std::__1::unique_ptr.1"** %194, align 8, !dbg !5962
  store %"class.std::__1::allocator"* %529, %"class.std::__1::allocator"** %191, align 8
  store %"class.std::__1::unique_ptr.1"* %530, %"class.std::__1::unique_ptr.1"** %192, align 8
  store %"class.std::__1::unique_ptr.1"* %532, %"class.std::__1::unique_ptr.1"** %193, align 8
  %533 = load %"class.std::__1::allocator"*, %"class.std::__1::allocator"** %191, align 8
  %534 = load %"class.std::__1::unique_ptr.1"*, %"class.std::__1::unique_ptr.1"** %192, align 8, !dbg !5963
  %535 = bitcast %"class.std::__1::unique_ptr.1"* %534 to i8*, !dbg !5963
  %536 = load %"class.std::__1::unique_ptr.1"*, %"class.std::__1::unique_ptr.1"** %193, align 8, !dbg !5964
  store %"class.std::__1::unique_ptr.1"* %536, %"class.std::__1::unique_ptr.1"** %190, align 8
  %537 = load %"class.std::__1::unique_ptr.1"*, %"class.std::__1::unique_ptr.1"** %190, align 8, !dbg !5965
  store %"class.std::__1::unique_ptr.1"* %534, %"class.std::__1::unique_ptr.1"** %188, align 8
  store %"class.std::__1::unique_ptr.1"* %537, %"class.std::__1::unique_ptr.1"** %189, align 8
  %538 = load %"class.std::__1::unique_ptr.1"*, %"class.std::__1::unique_ptr.1"** %188, align 8
  %539 = load %"class.std::__1::unique_ptr.1"*, %"class.std::__1::unique_ptr.1"** %189, align 8, !dbg !5966
  store %"class.std::__1::unique_ptr.1"* %538, %"class.std::__1::unique_ptr.1"** %185, align 8
  store %"class.std::__1::unique_ptr.1"* %539, %"class.std::__1::unique_ptr.1"** %186, align 8
  %540 = load %"class.std::__1::unique_ptr.1"*, %"class.std::__1::unique_ptr.1"** %185, align 8
  %541 = getelementptr inbounds %"class.std::__1::unique_ptr.1", %"class.std::__1::unique_ptr.1"* %540, i32 0, i32 0, !dbg !5967
  %542 = load %"class.std::__1::unique_ptr.1"*, %"class.std::__1::unique_ptr.1"** %186, align 8, !dbg !5968
  store %"class.std::__1::unique_ptr.1"* %542, %"class.std::__1::unique_ptr.1"** %183, align 8
  %543 = load %"class.std::__1::unique_ptr.1"*, %"class.std::__1::unique_ptr.1"** %183, align 8
  %544 = getelementptr inbounds %"class.std::__1::unique_ptr.1", %"class.std::__1::unique_ptr.1"* %543, i32 0, i32 0, !dbg !5969
  store %"class.std::__1::__compressed_pair.2"* %544, %"class.std::__1::__compressed_pair.2"** %182, align 8
  %545 = load %"class.std::__1::__compressed_pair.2"*, %"class.std::__1::__compressed_pair.2"** %182, align 8
  %546 = bitcast %"class.std::__1::__compressed_pair.2"* %545 to %"struct.std::__1::__compressed_pair_elem.3"*, !dbg !5970
  store %"struct.std::__1::__compressed_pair_elem.3"* %546, %"struct.std::__1::__compressed_pair_elem.3"** %181, align 8
  %547 = load %"struct.std::__1::__compressed_pair_elem.3"*, %"struct.std::__1::__compressed_pair_elem.3"** %181, align 8
  %548 = getelementptr inbounds %"struct.std::__1::__compressed_pair_elem.3", %"struct.std::__1::__compressed_pair_elem.3"* %547, i32 0, i32 0, !dbg !5971
  %549 = load %"class.altered_carbon::js::ACAstBaseNode"*, %"class.altered_carbon::js::ACAstBaseNode"** %548, align 8, !dbg !5972
  store %"class.altered_carbon::js::ACAstBaseNode"* %549, %"class.altered_carbon::js::ACAstBaseNode"** %184, align 8, !dbg !5709
  %550 = getelementptr inbounds %"class.std::__1::unique_ptr.1", %"class.std::__1::unique_ptr.1"* %543, i32 0, i32 0, !dbg !5973
  store %"class.std::__1::__compressed_pair.2"* %550, %"class.std::__1::__compressed_pair.2"** %180, align 8
  %551 = load %"class.std::__1::__compressed_pair.2"*, %"class.std::__1::__compressed_pair.2"** %180, align 8
  %552 = bitcast %"class.std::__1::__compressed_pair.2"* %551 to %"struct.std::__1::__compressed_pair_elem.3"*, !dbg !5974
  store %"struct.std::__1::__compressed_pair_elem.3"* %552, %"struct.std::__1::__compressed_pair_elem.3"** %179, align 8
  %553 = load %"struct.std::__1::__compressed_pair_elem.3"*, %"struct.std::__1::__compressed_pair_elem.3"** %179, align 8
  %554 = getelementptr inbounds %"struct.std::__1::__compressed_pair_elem.3", %"struct.std::__1::__compressed_pair_elem.3"* %553, i32 0, i32 0, !dbg !5975
  store %"class.altered_carbon::js::ACAstBaseNode"* null, %"class.altered_carbon::js::ACAstBaseNode"** %554, align 8, !dbg !5976
  %555 = load %"class.altered_carbon::js::ACAstBaseNode"*, %"class.altered_carbon::js::ACAstBaseNode"** %184, align 8, !dbg !5977
  store %"class.altered_carbon::js::ACAstBaseNode"* %555, %"class.altered_carbon::js::ACAstBaseNode"** %187, align 8, !dbg !5968
  %556 = load %"class.std::__1::unique_ptr.1"*, %"class.std::__1::unique_ptr.1"** %186, align 8, !dbg !5978
  store %"class.std::__1::unique_ptr.1"* %556, %"class.std::__1::unique_ptr.1"** %163, align 8
  %557 = load %"class.std::__1::unique_ptr.1"*, %"class.std::__1::unique_ptr.1"** %163, align 8
  %558 = getelementptr inbounds %"class.std::__1::unique_ptr.1", %"class.std::__1::unique_ptr.1"* %557, i32 0, i32 0, !dbg !5979
  store %"class.std::__1::__compressed_pair.2"* %558, %"class.std::__1::__compressed_pair.2"** %162, align 8
  %559 = load %"class.std::__1::__compressed_pair.2"*, %"class.std::__1::__compressed_pair.2"** %162, align 8
  %560 = bitcast %"class.std::__1::__compressed_pair.2"* %559 to %"struct.std::__1::__compressed_pair_elem.4"*, !dbg !5980
  store %"struct.std::__1::__compressed_pair_elem.4"* %560, %"struct.std::__1::__compressed_pair_elem.4"** %161, align 8
  %561 = load %"struct.std::__1::__compressed_pair_elem.4"*, %"struct.std::__1::__compressed_pair_elem.4"** %161, align 8
  %562 = bitcast %"struct.std::__1::__compressed_pair_elem.4"* %561 to %"struct.std::__1::default_delete.5"*, !dbg !5981
  store %"struct.std::__1::default_delete.5"* %562, %"struct.std::__1::default_delete.5"** %164, align 8
  %563 = load %"struct.std::__1::default_delete.5"*, %"struct.std::__1::default_delete.5"** %164, align 8, !dbg !5982
  store %"class.std::__1::__compressed_pair.2"* %541, %"class.std::__1::__compressed_pair.2"** %176, align 8
  store %"class.altered_carbon::js::ACAstBaseNode"** %187, %"class.altered_carbon::js::ACAstBaseNode"*** %177, align 8
  store %"struct.std::__1::default_delete.5"* %563, %"struct.std::__1::default_delete.5"** %178, align 8
  %564 = load %"class.std::__1::__compressed_pair.2"*, %"class.std::__1::__compressed_pair.2"** %176, align 8
  %565 = load %"class.altered_carbon::js::ACAstBaseNode"**, %"class.altered_carbon::js::ACAstBaseNode"*** %177, align 8, !dbg !5983
  %566 = load %"struct.std::__1::default_delete.5"*, %"struct.std::__1::default_delete.5"** %178, align 8, !dbg !5983
  store %"class.std::__1::__compressed_pair.2"* %564, %"class.std::__1::__compressed_pair.2"** %173, align 8
  store %"class.altered_carbon::js::ACAstBaseNode"** %565, %"class.altered_carbon::js::ACAstBaseNode"*** %174, align 8
  store %"struct.std::__1::default_delete.5"* %566, %"struct.std::__1::default_delete.5"** %175, align 8
  %567 = load %"class.std::__1::__compressed_pair.2"*, %"class.std::__1::__compressed_pair.2"** %173, align 8
  %568 = bitcast %"class.std::__1::__compressed_pair.2"* %567 to %"struct.std::__1::__compressed_pair_elem.3"*, !dbg !5984
  %569 = load %"class.altered_carbon::js::ACAstBaseNode"**, %"class.altered_carbon::js::ACAstBaseNode"*** %174, align 8, !dbg !5985
  store %"class.altered_carbon::js::ACAstBaseNode"** %569, %"class.altered_carbon::js::ACAstBaseNode"*** %172, align 8
  %570 = load %"class.altered_carbon::js::ACAstBaseNode"**, %"class.altered_carbon::js::ACAstBaseNode"*** %172, align 8, !dbg !5986
  store %"struct.std::__1::__compressed_pair_elem.3"* %568, %"struct.std::__1::__compressed_pair_elem.3"** %166, align 8
  store %"class.altered_carbon::js::ACAstBaseNode"** %570, %"class.altered_carbon::js::ACAstBaseNode"*** %167, align 8
  %571 = load %"struct.std::__1::__compressed_pair_elem.3"*, %"struct.std::__1::__compressed_pair_elem.3"** %166, align 8
  %572 = getelementptr inbounds %"struct.std::__1::__compressed_pair_elem.3", %"struct.std::__1::__compressed_pair_elem.3"* %571, i32 0, i32 0, !dbg !5987
  %573 = load %"class.altered_carbon::js::ACAstBaseNode"**, %"class.altered_carbon::js::ACAstBaseNode"*** %167, align 8, !dbg !5988
  store %"class.altered_carbon::js::ACAstBaseNode"** %573, %"class.altered_carbon::js::ACAstBaseNode"*** %165, align 8
  %574 = load %"class.altered_carbon::js::ACAstBaseNode"**, %"class.altered_carbon::js::ACAstBaseNode"*** %165, align 8, !dbg !5989
  %575 = load %"class.altered_carbon::js::ACAstBaseNode"*, %"class.altered_carbon::js::ACAstBaseNode"** %574, align 8, !dbg !5990
  store %"class.altered_carbon::js::ACAstBaseNode"* %575, %"class.altered_carbon::js::ACAstBaseNode"** %572, align 8, !dbg !5987
  %576 = bitcast %"class.std::__1::__compressed_pair.2"* %567 to %"struct.std::__1::__compressed_pair_elem.4"*, !dbg !5984
  %577 = load %"struct.std::__1::default_delete.5"*, %"struct.std::__1::default_delete.5"** %175, align 8, !dbg !5991
  store %"struct.std::__1::default_delete.5"* %577, %"struct.std::__1::default_delete.5"** %168, align 8
  %578 = load %"struct.std::__1::default_delete.5"*, %"struct.std::__1::default_delete.5"** %168, align 8, !dbg !5992
  store %"struct.std::__1::__compressed_pair_elem.4"* %576, %"struct.std::__1::__compressed_pair_elem.4"** %170, align 8
  store %"struct.std::__1::default_delete.5"* %578, %"struct.std::__1::default_delete.5"** %171, align 8
  %579 = load %"struct.std::__1::__compressed_pair_elem.4"*, %"struct.std::__1::__compressed_pair_elem.4"** %170, align 8
  %580 = bitcast %"struct.std::__1::__compressed_pair_elem.4"* %579 to %"struct.std::__1::default_delete.5"*, !dbg !5993
  %581 = load %"struct.std::__1::default_delete.5"*, %"struct.std::__1::default_delete.5"** %171, align 8, !dbg !5994
  store %"struct.std::__1::default_delete.5"* %581, %"struct.std::__1::default_delete.5"** %169, align 8
  %582 = load %"struct.std::__1::default_delete.5"*, %"struct.std::__1::default_delete.5"** %169, align 8, !dbg !5995
  store %"struct.std::__1::vector<std::__1::unique_ptr<altered_carbon::js::ACAstBaseNode, std::__1::default_delete<altered_carbon::js::ACAstBaseNode> >, std::__1::allocator<std::__1::unique_ptr<altered_carbon::js::ACAstBaseNode, std::__1::default_delete<altered_carbon::js::ACAstBaseNode> > > >::__RAII_IncreaseAnnotator"* %216, %"struct.std::__1::vector<std::__1::unique_ptr<altered_carbon::js::ACAstBaseNode, std::__1::default_delete<altered_carbon::js::ACAstBaseNode> >, std::__1::allocator<std::__1::unique_ptr<altered_carbon::js::ACAstBaseNode, std::__1::default_delete<altered_carbon::js::ACAstBaseNode> > > >::__RAII_IncreaseAnnotator"** %203, align 8
  %583 = load %"struct.std::__1::vector<std::__1::unique_ptr<altered_carbon::js::ACAstBaseNode, std::__1::default_delete<altered_carbon::js::ACAstBaseNode> >, std::__1::allocator<std::__1::unique_ptr<altered_carbon::js::ACAstBaseNode, std::__1::default_delete<altered_carbon::js::ACAstBaseNode> > > >::__RAII_IncreaseAnnotator"*, %"struct.std::__1::vector<std::__1::unique_ptr<altered_carbon::js::ACAstBaseNode, std::__1::default_delete<altered_carbon::js::ACAstBaseNode> >, std::__1::allocator<std::__1::unique_ptr<altered_carbon::js::ACAstBaseNode, std::__1::default_delete<altered_carbon::js::ACAstBaseNode> > > >::__RAII_IncreaseAnnotator"** %203, align 8
  %584 = bitcast %"class.std::__1::vector"* %493 to %"class.std::__1::__vector_base"*, !dbg !5996
  %585 = getelementptr inbounds %"class.std::__1::__vector_base", %"class.std::__1::__vector_base"* %584, i32 0, i32 1, !dbg !5996
  %586 = load %"class.std::__1::unique_ptr.1"*, %"class.std::__1::unique_ptr.1"** %585, align 8, !dbg !5997
  %587 = getelementptr inbounds %"class.std::__1::unique_ptr.1", %"class.std::__1::unique_ptr.1"* %586, i32 1, !dbg !5997
  store %"class.std::__1::unique_ptr.1"* %587, %"class.std::__1::unique_ptr.1"** %585, align 8, !dbg !5997
  br label %591, !dbg !5998

; <label>:588:                                    ; preds = %489
  %589 = load %"class.std::__1::unique_ptr.1"*, %"class.std::__1::unique_ptr.1"** %215, align 8, !dbg !5999
  store %"class.std::__1::unique_ptr.1"* %589, %"class.std::__1::unique_ptr.1"** %204, align 8
  %590 = load %"class.std::__1::unique_ptr.1"*, %"class.std::__1::unique_ptr.1"** %204, align 8, !dbg !6000
  call void @_ZNSt3__16vectorINS_10unique_ptrIN14altered_carbon2js13ACAstBaseNodeENS_14default_deleteIS4_EEEENS_9allocatorIS7_EEE21__push_back_slow_pathIS7_EEvOT_(%"class.std::__1::vector"* %493, %"class.std::__1::unique_ptr.1"* dereferenceable(8) %590) #8, !dbg !6001
  br label %591

; <label>:591:                                    ; preds = %506, %588
  ret void, !dbg !6002
}

; Function Attrs: noinline nounwind optnone ssp uwtable
define void @_ZN14altered_carbon2js20ACAstIfElseStatementC1ENSt3__110unique_ptrINS0_13ACLexPositionENS2_14default_deleteIS4_EEEENS3_INS0_13ACAstBaseNodeENS5_IS8_EEEESA_SA_NS8_11AstNodeTypeENS8_14AstNodeSubTypeE(%"class.altered_carbon::js::ACAstIfElseStatement"*, %"class.std::__1::unique_ptr"*, %"class.std::__1::unique_ptr.1"*, %"class.std::__1::unique_ptr.1"*, %"class.std::__1::unique_ptr.1"*, i32, i32) unnamed_addr #0 align 2 !dbg !6003 {
  %8 = alloca %"class.altered_carbon::js::ACAstIfElseStatement"*, align 8
  %9 = alloca i32, align 4
  %10 = alloca i32, align 4
  store %"class.altered_carbon::js::ACAstIfElseStatement"* %0, %"class.altered_carbon::js::ACAstIfElseStatement"** %8, align 8
  call void @llvm.dbg.declare(metadata %"class.altered_carbon::js::ACAstIfElseStatement"** %8, metadata !6004, metadata !DIExpression()), !dbg !6005
  call void @llvm.dbg.declare(metadata %"class.std::__1::unique_ptr"* %1, metadata !6006, metadata !DIExpression()), !dbg !6007
  call void @llvm.dbg.declare(metadata %"class.std::__1::unique_ptr.1"* %2, metadata !6008, metadata !DIExpression()), !dbg !6009
  call void @llvm.dbg.declare(metadata %"class.std::__1::unique_ptr.1"* %3, metadata !6010, metadata !DIExpression()), !dbg !6011
  call void @llvm.dbg.declare(metadata %"class.std::__1::unique_ptr.1"* %4, metadata !6012, metadata !DIExpression()), !dbg !6013
  store i32 %5, i32* %9, align 4
  call void @llvm.dbg.declare(metadata i32* %9, metadata !6014, metadata !DIExpression()), !dbg !6015
  store i32 %6, i32* %10, align 4
  call void @llvm.dbg.declare(metadata i32* %10, metadata !6016, metadata !DIExpression()), !dbg !6017
  %11 = load %"class.altered_carbon::js::ACAstIfElseStatement"*, %"class.altered_carbon::js::ACAstIfElseStatement"** %8, align 8
  %12 = load i32, i32* %9, align 4, !dbg !6018
  %13 = load i32, i32* %10, align 4, !dbg !6018
  call void @_ZN14altered_carbon2js20ACAstIfElseStatementC2ENSt3__110unique_ptrINS0_13ACLexPositionENS2_14default_deleteIS4_EEEENS3_INS0_13ACAstBaseNodeENS5_IS8_EEEESA_SA_NS8_11AstNodeTypeENS8_14AstNodeSubTypeE(%"class.altered_carbon::js::ACAstIfElseStatement"* %11, %"class.std::__1::unique_ptr"* %1, %"class.std::__1::unique_ptr.1"* %2, %"class.std::__1::unique_ptr.1"* %3, %"class.std::__1::unique_ptr.1"* %4, i32 %12, i32 %13), !dbg !6018
  ret void, !dbg !6019
}

; Function Attrs: noinline nounwind optnone ssp uwtable
define void @_ZNK14altered_carbon2js20ACAstIfElseStatement14dumpChildNodesERNSt3__113basic_ostreamIcNS2_11char_traitsIcEEEE(%"class.altered_carbon::js::ACAstIfElseStatement"*, %"class.std::__1::basic_ostream"* dereferenceable(160)) unnamed_addr #0 align 2 !dbg !6020 {
  %3 = alloca %"struct.std::__1::__compressed_pair_elem.3"*, align 8
  call void @llvm.dbg.declare(metadata %"struct.std::__1::__compressed_pair_elem.3"** %3, metadata !6021, metadata !DIExpression()), !dbg !6024
  %4 = alloca %"class.std::__1::__compressed_pair.2"*, align 8
  call void @llvm.dbg.declare(metadata %"class.std::__1::__compressed_pair.2"** %4, metadata !6033, metadata !DIExpression()), !dbg !6035
  %5 = alloca %"class.std::__1::unique_ptr.1"*, align 8
  call void @llvm.dbg.declare(metadata %"class.std::__1::unique_ptr.1"** %5, metadata !6036, metadata !DIExpression()), !dbg !6037
  %6 = alloca %"class.std::__1::vector"*, align 8
  call void @llvm.dbg.declare(metadata %"class.std::__1::vector"** %6, metadata !6038, metadata !DIExpression()), !dbg !6041
  %7 = alloca i64, align 8
  call void @llvm.dbg.declare(metadata i64* %7, metadata !6043, metadata !DIExpression()), !dbg !6044
  %8 = alloca %"class.std::__1::vector"*, align 8
  call void @llvm.dbg.declare(metadata %"class.std::__1::vector"** %8, metadata !6045, metadata !DIExpression()), !dbg !6047
  %9 = alloca %"class.std::__1::vector"*, align 8
  call void @llvm.dbg.declare(metadata %"class.std::__1::vector"** %9, metadata !6038, metadata !DIExpression()), !dbg !6051
  %10 = alloca i64, align 8
  call void @llvm.dbg.declare(metadata i64* %10, metadata !6043, metadata !DIExpression()), !dbg !6053
  %11 = alloca %"struct.std::__1::__compressed_pair_elem.3"*, align 8
  call void @llvm.dbg.declare(metadata %"struct.std::__1::__compressed_pair_elem.3"** %11, metadata !6021, metadata !DIExpression()), !dbg !6054
  %12 = alloca %"class.std::__1::__compressed_pair.2"*, align 8
  call void @llvm.dbg.declare(metadata %"class.std::__1::__compressed_pair.2"** %12, metadata !6033, metadata !DIExpression()), !dbg !6059
  %13 = alloca %"class.std::__1::unique_ptr.1"*, align 8
  call void @llvm.dbg.declare(metadata %"class.std::__1::unique_ptr.1"** %13, metadata !6060, metadata !DIExpression()), !dbg !6061
  %14 = alloca %"class.std::__1::vector"*, align 8
  call void @llvm.dbg.declare(metadata %"class.std::__1::vector"** %14, metadata !6038, metadata !DIExpression()), !dbg !6062
  %15 = alloca i64, align 8
  call void @llvm.dbg.declare(metadata i64* %15, metadata !6043, metadata !DIExpression()), !dbg !6065
  %16 = alloca %"struct.std::__1::__compressed_pair_elem.3"*, align 8
  call void @llvm.dbg.declare(metadata %"struct.std::__1::__compressed_pair_elem.3"** %16, metadata !6021, metadata !DIExpression()), !dbg !6066
  %17 = alloca %"class.std::__1::__compressed_pair.2"*, align 8
  call void @llvm.dbg.declare(metadata %"class.std::__1::__compressed_pair.2"** %17, metadata !6033, metadata !DIExpression()), !dbg !6070
  %18 = alloca %"class.std::__1::unique_ptr.1"*, align 8
  call void @llvm.dbg.declare(metadata %"class.std::__1::unique_ptr.1"** %18, metadata !6036, metadata !DIExpression()), !dbg !6071
  %19 = alloca %"struct.std::__1::__compressed_pair_elem.3"*, align 8
  call void @llvm.dbg.declare(metadata %"struct.std::__1::__compressed_pair_elem.3"** %19, metadata !6021, metadata !DIExpression()), !dbg !6072
  %20 = alloca %"class.std::__1::__compressed_pair.2"*, align 8
  call void @llvm.dbg.declare(metadata %"class.std::__1::__compressed_pair.2"** %20, metadata !6033, metadata !DIExpression()), !dbg !6076
  %21 = alloca %"class.std::__1::unique_ptr.1"*, align 8
  call void @llvm.dbg.declare(metadata %"class.std::__1::unique_ptr.1"** %21, metadata !6060, metadata !DIExpression()), !dbg !6077
  %22 = alloca %"class.std::__1::vector"*, align 8
  call void @llvm.dbg.declare(metadata %"class.std::__1::vector"** %22, metadata !6038, metadata !DIExpression()), !dbg !6078
  %23 = alloca i64, align 8
  call void @llvm.dbg.declare(metadata i64* %23, metadata !6043, metadata !DIExpression()), !dbg !6080
  %24 = alloca %"class.std::__1::vector"*, align 8
  call void @llvm.dbg.declare(metadata %"class.std::__1::vector"** %24, metadata !6045, metadata !DIExpression()), !dbg !6081
  %25 = alloca %"class.altered_carbon::js::ACAstIfElseStatement"*, align 8
  %26 = alloca %"class.std::__1::basic_ostream"*, align 8
  store %"class.altered_carbon::js::ACAstIfElseStatement"* %0, %"class.altered_carbon::js::ACAstIfElseStatement"** %25, align 8
  call void @llvm.dbg.declare(metadata %"class.altered_carbon::js::ACAstIfElseStatement"** %25, metadata !6083, metadata !DIExpression()), !dbg !6085
  store %"class.std::__1::basic_ostream"* %1, %"class.std::__1::basic_ostream"** %26, align 8
  call void @llvm.dbg.declare(metadata %"class.std::__1::basic_ostream"** %26, metadata !6086, metadata !DIExpression()), !dbg !6087
  %27 = load %"class.altered_carbon::js::ACAstIfElseStatement"*, %"class.altered_carbon::js::ACAstIfElseStatement"** %25, align 8
  %28 = load %"class.std::__1::basic_ostream"*, %"class.std::__1::basic_ostream"** %26, align 8, !dbg !6088
  %29 = call dereferenceable(160) %"class.std::__1::basic_ostream"* @_ZNSt3__1lsINS_11char_traitsIcEEEERNS_13basic_ostreamIcT_EES6_PKc(%"class.std::__1::basic_ostream"* dereferenceable(160) %28, i8* getelementptr inbounds ([5 x i8], [5 x i8]* @.str, i32 0, i32 0)), !dbg !6089
  %30 = bitcast %"class.altered_carbon::js::ACAstIfElseStatement"* %27 to %"class.altered_carbon::js::ACAstStatementNode"*, !dbg !6090
  %31 = load %"class.std::__1::basic_ostream"*, %"class.std::__1::basic_ostream"** %26, align 8, !dbg !6091
  call void @_ZNK14altered_carbon2js18ACAstStatementNode14dumpChildNodesERNSt3__113basic_ostreamIcNS2_11char_traitsIcEEEE(%"class.altered_carbon::js::ACAstStatementNode"* %30, %"class.std::__1::basic_ostream"* dereferenceable(160) %31), !dbg !6090
  %32 = load %"class.std::__1::basic_ostream"*, %"class.std::__1::basic_ostream"** %26, align 8, !dbg !6092
  %33 = call dereferenceable(160) %"class.std::__1::basic_ostream"* @_ZNSt3__1lsINS_11char_traitsIcEEEERNS_13basic_ostreamIcT_EES6_PKc(%"class.std::__1::basic_ostream"* dereferenceable(160) %32, i8* getelementptr inbounds ([13 x i8], [13 x i8]* @.str.1, i32 0, i32 0)), !dbg !6093
  br label %34, !dbg !6094, !llvm.loop !6095

; <label>:34:                                     ; preds = %2
  %35 = bitcast %"class.altered_carbon::js::ACAstIfElseStatement"* %27 to %"class.altered_carbon::js::ACAstBaseNode"*, !dbg !6096
  %36 = getelementptr inbounds %"class.altered_carbon::js::ACAstBaseNode", %"class.altered_carbon::js::ACAstBaseNode"* %35, i32 0, i32 4, !dbg !6096
  store %"class.std::__1::vector"* %36, %"class.std::__1::vector"** %24, align 8
  %37 = load %"class.std::__1::vector"*, %"class.std::__1::vector"** %24, align 8
  %38 = bitcast %"class.std::__1::vector"* %37 to %"class.std::__1::__vector_base"*, !dbg !6097
  %39 = getelementptr inbounds %"class.std::__1::__vector_base", %"class.std::__1::__vector_base"* %38, i32 0, i32 1, !dbg !6097
  %40 = load %"class.std::__1::unique_ptr.1"*, %"class.std::__1::unique_ptr.1"** %39, align 8, !dbg !6097
  %41 = bitcast %"class.std::__1::vector"* %37 to %"class.std::__1::__vector_base"*, !dbg !6098
  %42 = getelementptr inbounds %"class.std::__1::__vector_base", %"class.std::__1::__vector_base"* %41, i32 0, i32 0, !dbg !6098
  %43 = load %"class.std::__1::unique_ptr.1"*, %"class.std::__1::unique_ptr.1"** %42, align 8, !dbg !6098
  %44 = ptrtoint %"class.std::__1::unique_ptr.1"* %40 to i64, !dbg !6099
  %45 = ptrtoint %"class.std::__1::unique_ptr.1"* %43 to i64, !dbg !6099
  %46 = sub i64 %44, %45, !dbg !6099
  %47 = sdiv exact i64 %46, 8, !dbg !6099
  %48 = icmp ugt i64 %47, 0, !dbg !6096
  br i1 %48, label %49, label %87, !dbg !6096

; <label>:49:                                     ; preds = %34
  %50 = bitcast %"class.altered_carbon::js::ACAstIfElseStatement"* %27 to %"class.altered_carbon::js::ACAstBaseNode"*, !dbg !6096
  %51 = getelementptr inbounds %"class.altered_carbon::js::ACAstBaseNode", %"class.altered_carbon::js::ACAstBaseNode"* %50, i32 0, i32 4, !dbg !6096
  store %"class.std::__1::vector"* %51, %"class.std::__1::vector"** %22, align 8
  store i64 0, i64* %23, align 8
  %52 = load %"class.std::__1::vector"*, %"class.std::__1::vector"** %22, align 8
  %53 = bitcast %"class.std::__1::vector"* %52 to %"class.std::__1::__vector_base"*, !dbg !6100
  %54 = getelementptr inbounds %"class.std::__1::__vector_base", %"class.std::__1::__vector_base"* %53, i32 0, i32 0, !dbg !6100
  %55 = load %"class.std::__1::unique_ptr.1"*, %"class.std::__1::unique_ptr.1"** %54, align 8, !dbg !6100
  %56 = load i64, i64* %23, align 8, !dbg !6101
  %57 = getelementptr inbounds %"class.std::__1::unique_ptr.1", %"class.std::__1::unique_ptr.1"* %55, i64 %56, !dbg !6102
  store %"class.std::__1::unique_ptr.1"* %57, %"class.std::__1::unique_ptr.1"** %21, align 8
  %58 = load %"class.std::__1::unique_ptr.1"*, %"class.std::__1::unique_ptr.1"** %21, align 8
  %59 = getelementptr inbounds %"class.std::__1::unique_ptr.1", %"class.std::__1::unique_ptr.1"* %58, i32 0, i32 0, !dbg !6103
  store %"class.std::__1::__compressed_pair.2"* %59, %"class.std::__1::__compressed_pair.2"** %20, align 8
  %60 = load %"class.std::__1::__compressed_pair.2"*, %"class.std::__1::__compressed_pair.2"** %20, align 8
  %61 = bitcast %"class.std::__1::__compressed_pair.2"* %60 to %"struct.std::__1::__compressed_pair_elem.3"*, !dbg !6104
  store %"struct.std::__1::__compressed_pair_elem.3"* %61, %"struct.std::__1::__compressed_pair_elem.3"** %19, align 8
  %62 = load %"struct.std::__1::__compressed_pair_elem.3"*, %"struct.std::__1::__compressed_pair_elem.3"** %19, align 8
