; ModuleID = 'temp.bc'
source_filename = "../ac_ast_builder.cc"
target datalayout = "e-m:o-i64:64-f80:128-n8:16:32:64-S128"
target triple = "x86_64-apple-macosx10.13.0"

%"class.altered_carbon::js::NullStream" = type { %"class.altered_carbon::js::NullStreamBuf", %"class.std::__1::basic_ostream.base", %"class.std::__1::basic_ios.base" }
%"class.altered_carbon::js::NullStreamBuf" = type { %"class.std::__1::basic_streambuf", [256 x i8] }
%"class.std::__1::basic_streambuf" = type { i32 (...)**, %"class.std::__1::locale", i8*, i8*, i8*, i8*, i8*, i8* }
%"class.std::__1::locale" = type { %"class.std::__1::locale::__imp"* }
%"class.std::__1::locale::__imp" = type opaque
%"class.std::__1::basic_ostream.base" = type { i32 (...)** }
%"class.std::__1::basic_ios.base" = type <{ %"class.std::__1::ios_base", %"class.std::__1::basic_ostream"*, i32 }>
%"class.std::__1::ios_base" = type { i32 (...)**, i32, i64, i64, i32, i32, i8*, i8*, void (i32, %"class.std::__1::ios_base"*, i32)**, i32*, i64, i64, i64*, i64, i64, i8**, i64, i64 }
%"class.std::__1::basic_ostream" = type { i32 (...)**, %"class.std::__1::basic_ios.base" }
%"class.std::__1::locale::id" = type <{ %"struct.std::__1::once_flag", i32, [4 x i8] }>
%"struct.std::__1::once_flag" = type { i64 }
%"class.std::__1::basic_ios" = type <{ %"class.std::__1::ios_base", %"class.std::__1::basic_ostream"*, i32, [4 x i8] }>
%"class.altered_carbon::js::ACJsState" = type { i32 (...)**, i8, i8, %"class.std::__1::unique_ptr" }
%"class.std::__1::unique_ptr" = type { %"class.std::__1::__compressed_pair" }
%"class.std::__1::__compressed_pair" = type { %"struct.std::__1::__compressed_pair_elem" }
%"struct.std::__1::__compressed_pair_elem" = type { %"class.altered_carbon::js::ACAstBaseNode"* }
%"class.altered_carbon::js::ACAstBaseNode" = type { i32 (...)**, %"class.std::__1::unique_ptr.0", i32, i32, %"class.std::__1::vector" }
%"class.std::__1::unique_ptr.0" = type { %"class.std::__1::__compressed_pair.1" }
%"class.std::__1::__compressed_pair.1" = type { %"struct.std::__1::__compressed_pair_elem.2" }
%"struct.std::__1::__compressed_pair_elem.2" = type { %"struct.altered_carbon::js::ACLexPosition"* }
%"struct.altered_carbon::js::ACLexPosition" = type { i32 (...)**, i64, i32, i64 }
%"class.std::__1::vector" = type { %"class.std::__1::__vector_base" }
%"class.std::__1::__vector_base" = type { %"class.std::__1::unique_ptr"*, %"class.std::__1::unique_ptr"*, %"class.std::__1::__compressed_pair.4" }
%"class.std::__1::__compressed_pair.4" = type { %"struct.std::__1::__compressed_pair_elem.5" }
%"struct.std::__1::__compressed_pair_elem.5" = type { %"class.std::__1::unique_ptr"* }
%"struct.std::__1::__compressed_pair_elem.7" = type { i8 }
%"struct.std::__1::default_delete.8" = type { i8 }
%"class.std::__1::unique_ptr.10" = type { %"class.std::__1::__compressed_pair.11" }
%"class.std::__1::__compressed_pair.11" = type { %"struct.std::__1::__compressed_pair_elem.12" }
%"struct.std::__1::__compressed_pair_elem.12" = type { %"class.altered_carbon::js::ACJsState"* }
%"class.altered_carbon::js::ACAstBuilder" = type { %"class.altered_carbon::js::ACJsParser", %"class.std::__1::unique_ptr.10" }
%"class.altered_carbon::js::ACJsParser" = type { i32 (...)**, i8*, %"class.std::__1::basic_string", i8*, i8, i32, i8, i8, i32, i32, %"class.altered_carbon::js::ACLexState", %"struct.altered_carbon::js::ACLexPosition", %"struct.altered_carbon::js::ACLexPosition", %"struct.altered_carbon::js::ACLexPosition", %"class.std::__1::unique_ptr.37" }
%"class.std::__1::basic_string" = type { %"class.std::__1::__compressed_pair.16" }
%"class.std::__1::__compressed_pair.16" = type { %"struct.std::__1::__compressed_pair_elem.17" }
%"struct.std::__1::__compressed_pair_elem.17" = type { %"struct.std::__1::basic_string<char, std::__1::char_traits<char>, std::__1::allocator<char> >::__rep" }
%"struct.std::__1::basic_string<char, std::__1::char_traits<char>, std::__1::allocator<char> >::__rep" = type { %union.anon }
%union.anon = type { %"struct.std::__1::basic_string<char, std::__1::char_traits<char>, std::__1::allocator<char> >::__long" }
%"struct.std::__1::basic_string<char, std::__1::char_traits<char>, std::__1::allocator<char> >::__long" = type { i64, i64, i8* }
%"class.altered_carbon::js::ACLexState" = type { i32 (...)**, i32, %"struct.altered_carbon::js::BlockLevelState", i8, i8, %"class.std::__1::map", %"class.std::__1::vector.30" }
%"struct.altered_carbon::js::BlockLevelState" = type { i8, i8, i8 }
%"class.std::__1::map" = type { %"class.std::__1::__tree" }
%"class.std::__1::__tree" = type { %"class.std::__1::__tree_end_node"*, %"class.std::__1::__compressed_pair.22", %"class.std::__1::__compressed_pair.27" }
%"class.std::__1::__tree_end_node" = type { %"class.std::__1::__tree_node_base"* }
%"class.std::__1::__tree_node_base" = type <{ %"class.std::__1::__tree_end_node", %"class.std::__1::__tree_node_base"*, %"class.std::__1::__tree_end_node"*, i8, [7 x i8] }>
%"class.std::__1::__compressed_pair.22" = type { %"struct.std::__1::__compressed_pair_elem.23" }
%"struct.std::__1::__compressed_pair_elem.23" = type { %"class.std::__1::__tree_end_node" }
%"class.std::__1::__compressed_pair.27" = type { %"struct.std::__1::__compressed_pair_elem.28" }
%"struct.std::__1::__compressed_pair_elem.28" = type { i64 }
%"class.std::__1::vector.30" = type { %"class.std::__1::__vector_base.31" }
%"class.std::__1::__vector_base.31" = type { i32*, i32*, %"class.std::__1::__compressed_pair.32" }
%"class.std::__1::__compressed_pair.32" = type { %"struct.std::__1::__compressed_pair_elem.33" }
%"struct.std::__1::__compressed_pair_elem.33" = type { i32* }
%"class.std::__1::unique_ptr.37" = type { %"class.std::__1::__compressed_pair.38" }
%"class.std::__1::__compressed_pair.38" = type { %"struct.std::__1::__compressed_pair_elem.39" }
%"struct.std::__1::__compressed_pair_elem.39" = type { %"class.altered_carbon::js::ACLexToken"* }
%"class.altered_carbon::js::ACLexToken" = type { i32 (...)**, i32, i64, %"class.std::__1::basic_string_view", %"struct.altered_carbon::js::ACLexPosition", %"class.std::__1::basic_string.40" }
%"class.std::__1::basic_string_view" = type { i8*, i64 }
%"class.std::__1::basic_string.40" = type { %"class.std::__1::__compressed_pair.41" }
%"class.std::__1::__compressed_pair.41" = type { %"struct.std::__1::__compressed_pair_elem.42" }
%"struct.std::__1::__compressed_pair_elem.42" = type { %"struct.std::__1::basic_string<wchar_t, std::__1::char_traits<wchar_t>, std::__1::allocator<wchar_t> >::__rep" }
%"struct.std::__1::basic_string<wchar_t, std::__1::char_traits<wchar_t>, std::__1::allocator<wchar_t> >::__rep" = type { %union.anon.43 }
%union.anon.43 = type { %"struct.std::__1::basic_string<wchar_t, std::__1::char_traits<wchar_t>, std::__1::allocator<wchar_t> >::__long" }
%"struct.std::__1::basic_string<wchar_t, std::__1::char_traits<wchar_t>, std::__1::allocator<wchar_t> >::__long" = type { i64, i64, i32* }
%"struct.std::__1::__compressed_pair_elem.13" = type { i8 }
%"struct.std::__1::default_delete.14" = type { i8 }
%"class.std::__1::__wrap_iter" = type { %"class.std::__1::unique_ptr"* }
%"class.std::__1::__wrap_iter.51" = type { %"class.std::__1::unique_ptr"* }
%"class.std::__1::allocator" = type { i8 }
%"struct.std::__1::__compressed_pair_elem.6" = type { i8 }
%"struct.std::__1::__has_destroy" = type { i8 }
%"struct.std::__1::integral_constant" = type { i8 }
%"struct.std::__1::__compressed_pair_elem.48" = type { i8 }
%"struct.std::__1::default_delete.49" = type { i8 }
%"struct.std::__1::__compressed_pair_elem.34" = type { i8 }
%"class.std::__1::allocator.35" = type { i8 }
%"struct.std::__1::__has_destroy.52" = type { i8 }
%"class.std::__1::__tree_node" = type { %"class.std::__1::__tree_node_base.base", %"union.std::__1::__value_type" }
%"class.std::__1::__tree_node_base.base" = type <{ %"class.std::__1::__tree_end_node", %"class.std::__1::__tree_node_base"*, %"class.std::__1::__tree_end_node"*, i8 }>
%"union.std::__1::__value_type" = type { %"struct.std::__1::pair" }
%"struct.std::__1::pair" = type { %"class.std::__1::basic_string.40", %"class.altered_carbon::js::ACAstBaseNode"* }
%"struct.std::__1::__compressed_pair_elem.24" = type { i8 }
%"class.std::__1::allocator.25" = type { i8 }
%"struct.std::__1::integral_constant.54" = type { i8 }
%"struct.std::__1::__has_destroy.55" = type { i8 }
%"class.std::__1::ctype" = type <{ %"class.std::__1::locale::facet", i32*, i8, [7 x i8] }>
%"class.std::__1::locale::facet" = type { %"class.std::__1::__shared_count" }
%"class.std::__1::__shared_count" = type { i32 (...)**, i64 }
%"class.std::__1::ostreambuf_iterator" = type { %"class.std::__1::basic_streambuf"* }
%"class.std::__1::basic_ostream<char, std::__1::char_traits<char> >::sentry" = type { i8, %"class.std::__1::basic_ostream"* }
%"struct.std::__1::iterator" = type { i8 }
%"class.std::__1::allocator.20" = type { i8 }
%"struct.std::__1::__compressed_pair_elem.19" = type { i8 }
%"class.std::__1::__basic_string_common" = type { i8 }
%"struct.std::__1::basic_string<char, std::__1::char_traits<char>, std::__1::allocator<char> >::__short" = type { %union.anon.18, [23 x i8] }
%union.anon.18 = type { i8 }

@_ZN14altered_carbon2jsL9BlackHoleE = internal global %"class.altered_carbon::js::NullStream" zeroinitializer, align 8, !dbg !0
@__dso_handle = external hidden global i8
@_ZTVN14altered_carbon2js9ACJsStateE = linkonce_odr unnamed_addr constant { [4 x i8*] } { [4 x i8*] [i8* null, i8* bitcast ({ i8*, i8* }* @_ZTIN14altered_carbon2js9ACJsStateE to i8*), i8* bitcast (void (%"class.altered_carbon::js::ACJsState"*)* @_ZN14altered_carbon2js9ACJsStateD1Ev to i8*), i8* bitcast (void (%"class.altered_carbon::js::ACJsState"*)* @_ZN14altered_carbon2js9ACJsStateD0Ev to i8*)] }, align 8
@_ZTVN14altered_carbon2js12ACAstBuilderE = unnamed_addr constant { [5 x i8*] } { [5 x i8*] [i8* null, i8* bitcast ({ i8*, i8*, i8* }* @_ZTIN14altered_carbon2js12ACAstBuilderE to i8*), i8* bitcast (i1 (%"class.altered_carbon::js::ACAstBuilder"*)* @_ZN14altered_carbon2js12ACAstBuilder5resetEv to i8*), i8* bitcast (void (%"class.altered_carbon::js::ACAstBuilder"*)* @_ZN14altered_carbon2js12ACAstBuilderD1Ev to i8*), i8* bitcast (void (%"class.altered_carbon::js::ACAstBuilder"*)* @_ZN14altered_carbon2js12ACAstBuilderD0Ev to i8*)] }, align 8
@.str = private unnamed_addr constant [1 x i8] zeroinitializer, align 1
@.str.1 = private unnamed_addr constant [9 x i8] c"[ACLex] \00", align 1
@.str.2 = private unnamed_addr constant [17 x i8] c"parse_program()\0A\00", align 1
@_ZNSt3__14coutE = external global %"class.std::__1::basic_ostream", align 8
@.str.3 = private unnamed_addr constant [27 x i8] c"\0A##### Parse Result #####\0A\00", align 1
@.str.4 = private unnamed_addr constant [27 x i8] c"\0A########################\0A\00", align 1
@_ZTVN10__cxxabiv120__si_class_type_infoE = external global i8*
@_ZTSN14altered_carbon2js12ACAstBuilderE = constant [36 x i8] c"N14altered_carbon2js12ACAstBuilderE\00"
@_ZTIN14altered_carbon2js10ACJsParserE = external constant i8*
@_ZTIN14altered_carbon2js12ACAstBuilderE = constant { i8*, i8*, i8* } { i8* bitcast (i8** getelementptr inbounds (i8*, i8** @_ZTVN10__cxxabiv120__si_class_type_infoE, i64 2) to i8*), i8* getelementptr inbounds ([36 x i8], [36 x i8]* @_ZTSN14altered_carbon2js12ACAstBuilderE, i32 0, i32 0), i8* bitcast (i8** @_ZTIN14altered_carbon2js10ACJsParserE to i8*) }
@_ZTVN10__cxxabiv117__class_type_infoE = external global i8*
@_ZTSN14altered_carbon2js9ACJsStateE = linkonce_odr constant [32 x i8] c"N14altered_carbon2js9ACJsStateE\00"
@_ZTIN14altered_carbon2js9ACJsStateE = linkonce_odr constant { i8*, i8* } { i8* bitcast (i8** getelementptr inbounds (i8*, i8** @_ZTVN10__cxxabiv117__class_type_infoE, i64 2) to i8*), i8* getelementptr inbounds ([32 x i8], [32 x i8]* @_ZTSN14altered_carbon2js9ACJsStateE, i32 0, i32 0) }
@_ZTVN14altered_carbon2js10NullStreamE = linkonce_odr unnamed_addr constant { [17 x i8*], [5 x i8*], [5 x i8*] } { [17 x i8*] [i8* inttoptr (i64 328 to i8*), i8* null, i8* bitcast ({ i8*, i8*, i32, i32, i8*, i64, i8*, i64 }* @_ZTIN14altered_carbon2js10NullStreamE to i8*), i8* bitcast (void (%"class.altered_carbon::js::NullStream"*)* @_ZN14altered_carbon2js10NullStreamD1Ev to i8*), i8* bitcast (void (%"class.altered_carbon::js::NullStream"*)* @_ZN14altered_carbon2js10NullStreamD0Ev to i8*), i8* bitcast (void (%"class.std::__1::basic_streambuf"*, %"class.std::__1::locale"*)* @_ZNSt3__115basic_streambufIcNS_11char_traitsIcEEE5imbueERKNS_6localeE to i8*), i8* bitcast (%"class.std::__1::basic_streambuf"* (%"class.std::__1::basic_streambuf"*, i8*, i64)* @_ZNSt3__115basic_streambufIcNS_11char_traitsIcEEE6setbufEPcl to i8*), i8* bitcast (void ()* @_ZNSt3__115basic_streambufIcNS_11char_traitsIcEEE7seekoffExNS_8ios_base7seekdirEj to i8*), i8* bitcast (void ()* @_ZNSt3__115basic_streambufIcNS_11char_traitsIcEEE7seekposENS_4fposI11__mbstate_tEEj to i8*), i8* bitcast (i32 (%"class.std::__1::basic_streambuf"*)* @_ZNSt3__115basic_streambufIcNS_11char_traitsIcEEE4syncEv to i8*), i8* bitcast (i64 (%"class.std::__1::basic_streambuf"*)* @_ZNSt3__115basic_streambufIcNS_11char_traitsIcEEE9showmanycEv to i8*), i8* bitcast (i64 (%"class.std::__1::basic_streambuf"*, i8*, i64)* @_ZNSt3__115basic_streambufIcNS_11char_traitsIcEEE6xsgetnEPcl to i8*), i8* bitcast (i32 (%"class.std::__1::basic_streambuf"*)* @_ZNSt3__115basic_streambufIcNS_11char_traitsIcEEE9underflowEv to i8*), i8* bitcast (i32 (%"class.std::__1::basic_streambuf"*)* @_ZNSt3__115basic_streambufIcNS_11char_traitsIcEEE5uflowEv to i8*), i8* bitcast (i32 (%"class.std::__1::basic_streambuf"*, i32)* @_ZNSt3__115basic_streambufIcNS_11char_traitsIcEEE9pbackfailEi to i8*), i8* bitcast (i64 (%"class.std::__1::basic_streambuf"*, i8*, i64)* @_ZNSt3__115basic_streambufIcNS_11char_traitsIcEEE6xsputnEPKcl to i8*), i8* bitcast (i32 (%"class.altered_carbon::js::NullStreamBuf"*, i32)* @_ZN14altered_carbon2js13NullStreamBuf8overflowEi to i8*)], [5 x i8*] [i8* inttoptr (i64 8 to i8*), i8* inttoptr (i64 -320 to i8*), i8* bitcast ({ i8*, i8*, i32, i32, i8*, i64, i8*, i64 }* @_ZTIN14altered_carbon2js10NullStreamE to i8*), i8* bitcast (void (%"class.altered_carbon::js::NullStream"*)* @_ZThn320_N14altered_carbon2js10NullStreamD1Ev to i8*), i8* bitcast (void (%"class.altered_carbon::js::NullStream"*)* @_ZThn320_N14altered_carbon2js10NullStreamD0Ev to i8*)], [5 x i8*] [i8* inttoptr (i64 -328 to i8*), i8* inttoptr (i64 -328 to i8*), i8* bitcast ({ i8*, i8*, i32, i32, i8*, i64, i8*, i64 }* @_ZTIN14altered_carbon2js10NullStreamE to i8*), i8* bitcast (void (%"class.altered_carbon::js::NullStream"*)* @_ZTv0_n24_N14altered_carbon2js10NullStreamD1Ev to i8*), i8* bitcast (void (%"class.altered_carbon::js::NullStream"*)* @_ZTv0_n24_N14altered_carbon2js10NullStreamD0Ev to i8*)] }, align 8
@_ZTTN14altered_carbon2js10NullStreamE = linkonce_odr unnamed_addr constant [5 x i8*] [i8* bitcast (i8** getelementptr inbounds ({ [17 x i8*], [5 x i8*], [5 x i8*] }, { [17 x i8*], [5 x i8*], [5 x i8*] }* @_ZTVN14altered_carbon2js10NullStreamE, i32 0, inrange i32 0, i32 3) to i8*), i8* bitcast (i8** getelementptr inbounds ({ [5 x i8*], [5 x i8*] }, { [5 x i8*], [5 x i8*] }* @_ZTCN14altered_carbon2js10NullStreamE320_NSt3__113basic_ostreamIcNS1_11char_traitsIcEEEE, i32 0, inrange i32 0, i32 3) to i8*), i8* bitcast (i8** getelementptr inbounds ({ [5 x i8*], [5 x i8*] }, { [5 x i8*], [5 x i8*] }* @_ZTCN14altered_carbon2js10NullStreamE320_NSt3__113basic_ostreamIcNS1_11char_traitsIcEEEE, i32 0, inrange i32 1, i32 3) to i8*), i8* bitcast (i8** getelementptr inbounds ({ [17 x i8*], [5 x i8*], [5 x i8*] }, { [17 x i8*], [5 x i8*], [5 x i8*] }* @_ZTVN14altered_carbon2js10NullStreamE, i32 0, inrange i32 1, i32 3) to i8*), i8* bitcast (i8** getelementptr inbounds ({ [17 x i8*], [5 x i8*], [5 x i8*] }, { [17 x i8*], [5 x i8*], [5 x i8*] }* @_ZTVN14altered_carbon2js10NullStreamE, i32 0, inrange i32 2, i32 3) to i8*)]
@_ZTCN14altered_carbon2js10NullStreamE320_NSt3__113basic_ostreamIcNS1_11char_traitsIcEEEE = linkonce_odr unnamed_addr constant { [5 x i8*], [5 x i8*] } { [5 x i8*] [i8* inttoptr (i64 8 to i8*), i8* null, i8* bitcast (i8** @_ZTINSt3__113basic_ostreamIcNS_11char_traitsIcEEEE to i8*), i8* bitcast (void (%"class.std::__1::basic_ostream"*)* @_ZNSt3__113basic_ostreamIcNS_11char_traitsIcEEED1Ev to i8*), i8* bitcast (void (%"class.std::__1::basic_ostream"*)* @_ZNSt3__113basic_ostreamIcNS_11char_traitsIcEEED0Ev to i8*)], [5 x i8*] [i8* inttoptr (i64 -8 to i8*), i8* inttoptr (i64 -8 to i8*), i8* bitcast (i8** @_ZTINSt3__113basic_ostreamIcNS_11char_traitsIcEEEE to i8*), i8* bitcast (void (%"class.std::__1::basic_ostream"*)* @_ZTv0_n24_NSt3__113basic_ostreamIcNS_11char_traitsIcEEED1Ev to i8*), i8* bitcast (void (%"class.std::__1::basic_ostream"*)* @_ZTv0_n24_NSt3__113basic_ostreamIcNS_11char_traitsIcEEED0Ev to i8*)] }
@_ZTINSt3__113basic_ostreamIcNS_11char_traitsIcEEEE = external constant i8*
@_ZTVN10__cxxabiv121__vmi_class_type_infoE = external global i8*
@_ZTSN14altered_carbon2js10NullStreamE = linkonce_odr constant [34 x i8] c"N14altered_carbon2js10NullStreamE\00"
@_ZTIN14altered_carbon2js13NullStreamBufE = external constant i8*
@_ZTIN14altered_carbon2js10NullStreamE = linkonce_odr constant { i8*, i8*, i32, i32, i8*, i64, i8*, i64 } { i8* bitcast (i8** getelementptr inbounds (i8*, i8** @_ZTVN10__cxxabiv121__vmi_class_type_infoE, i64 2) to i8*), i8* getelementptr inbounds ([34 x i8], [34 x i8]* @_ZTSN14altered_carbon2js10NullStreamE, i32 0, i32 0), i32 0, i32 2, i8* bitcast (i8** @_ZTIN14altered_carbon2js13NullStreamBufE to i8*), i64 0, i8* bitcast (i8** @_ZTINSt3__113basic_ostreamIcNS_11char_traitsIcEEEE to i8*), i64 81922 }
@_ZTVNSt3__19basic_iosIcNS_11char_traitsIcEEEE = external unnamed_addr constant { [4 x i8*] }
@_ZTVNSt3__18ios_baseE = external unnamed_addr constant { [4 x i8*] }
@_ZTVN14altered_carbon2js13NullStreamBufE = external unnamed_addr constant { [16 x i8*] }
@_ZTVN14altered_carbon2js10ACJsParserE = external unnamed_addr constant { [5 x i8*] }
@_ZTVN14altered_carbon2js10ACLexStateE = linkonce_odr unnamed_addr constant { [4 x i8*] } { [4 x i8*] [i8* null, i8* bitcast ({ i8*, i8* }* @_ZTIN14altered_carbon2js10ACLexStateE to i8*), i8* bitcast (void (%"class.altered_carbon::js::ACLexState"*)* @_ZN14altered_carbon2js10ACLexStateD1Ev to i8*), i8* bitcast (void (%"class.altered_carbon::js::ACLexState"*)* @_ZN14altered_carbon2js10ACLexStateD0Ev to i8*)] }, align 8
@_ZTSN14altered_carbon2js10ACLexStateE = linkonce_odr constant [34 x i8] c"N14altered_carbon2js10ACLexStateE\00"
@_ZTIN14altered_carbon2js10ACLexStateE = linkonce_odr constant { i8*, i8* } { i8* bitcast (i8** getelementptr inbounds (i8*, i8** @_ZTVN10__cxxabiv117__class_type_infoE, i64 2) to i8*), i8* getelementptr inbounds ([34 x i8], [34 x i8]* @_ZTSN14altered_carbon2js10ACLexStateE, i32 0, i32 0) }
@_ZNSt3__15ctypeIcE2idE = external global %"class.std::__1::locale::id", align 8
@llvm.global_ctors = appending global [1 x { i32, void ()*, i8* }] [{ i32, void ()*, i8* } { i32 65535, void ()* @_GLOBAL__sub_I_ac_ast_builder.cc, i8* null }]

; Function Attrs: noinline nounwind ssp uwtable
define internal void @__cxx_global_var_init() #0 section "__TEXT,__StaticInit,regular,pure_instructions" !dbg !7298 {
  call void @_ZN14altered_carbon2js10NullStreamC1Ev(%"class.altered_carbon::js::NullStream"* @_ZN14altered_carbon2jsL9BlackHoleE), !dbg !7299
  %1 = call i32 @__cxa_atexit(void (i8*)* bitcast (void (%"class.altered_carbon::js::NullStream"*)* @_ZN14altered_carbon2js10NullStreamD1Ev to void (i8*)*), i8* bitcast (%"class.altered_carbon::js::NullStream"* @_ZN14altered_carbon2jsL9BlackHoleE to i8*), i8* @__dso_handle) #2, !dbg !7299
  ret void, !dbg !7299
}

; Function Attrs: noinline nounwind optnone ssp uwtable
define linkonce_odr hidden void @_ZN14altered_carbon2js10NullStreamC1Ev(%"class.altered_carbon::js::NullStream"*) unnamed_addr #1 align 2 !dbg !7300 {
  %2 = alloca %"class.std::__1::basic_ios"*, align 8
  call void @llvm.dbg.declare(metadata %"class.std::__1::basic_ios"** %2, metadata !7301, metadata !DIExpression()), !dbg !7304
  %3 = alloca %"class.std::__1::basic_streambuf"*, align 8
  call void @llvm.dbg.declare(metadata %"class.std::__1::basic_streambuf"** %3, metadata !7309, metadata !DIExpression()), !dbg !7310
  %4 = alloca %"class.std::__1::basic_ostream"*, align 8
  call void @llvm.dbg.declare(metadata %"class.std::__1::basic_ostream"** %4, metadata !7311, metadata !DIExpression()), !dbg !7312
  %5 = alloca i8**, align 8
  call void @llvm.dbg.declare(metadata i8*** %5, metadata !7313, metadata !DIExpression()), !dbg !7312
  %6 = alloca %"class.std::__1::basic_streambuf"*, align 8
  call void @llvm.dbg.declare(metadata %"class.std::__1::basic_streambuf"** %6, metadata !7314, metadata !DIExpression()), !dbg !7315
  %7 = alloca %"class.std::__1::ios_base"*, align 8
  call void @llvm.dbg.declare(metadata %"class.std::__1::ios_base"** %7, metadata !7316, metadata !DIExpression()), !dbg !7319
  %8 = alloca %"class.std::__1::basic_ios"*, align 8
  call void @llvm.dbg.declare(metadata %"class.std::__1::basic_ios"** %8, metadata !7323, metadata !DIExpression()), !dbg !7324
  %9 = alloca %"class.altered_carbon::js::NullStream"*, align 8
  store %"class.altered_carbon::js::NullStream"* %0, %"class.altered_carbon::js::NullStream"** %9, align 8
  call void @llvm.dbg.declare(metadata %"class.altered_carbon::js::NullStream"** %9, metadata !7325, metadata !DIExpression()), !dbg !7326
  %10 = load %"class.altered_carbon::js::NullStream"*, %"class.altered_carbon::js::NullStream"** %9, align 8
  %11 = bitcast %"class.altered_carbon::js::NullStream"* %10 to i8*, !dbg !7327
  %12 = getelementptr inbounds i8, i8* %11, i64 328, !dbg !7327
  %13 = bitcast i8* %12 to %"class.std::__1::basic_ios"*, !dbg !7327
  store %"class.std::__1::basic_ios"* %13, %"class.std::__1::basic_ios"** %8, align 8
  %14 = load %"class.std::__1::basic_ios"*, %"class.std::__1::basic_ios"** %8, align 8
  %15 = bitcast %"class.std::__1::basic_ios"* %14 to %"class.std::__1::ios_base"*, !dbg !7328
  store %"class.std::__1::ios_base"* %15, %"class.std::__1::ios_base"** %7, align 8
  %16 = load %"class.std::__1::ios_base"*, %"class.std::__1::ios_base"** %7, align 8
  %17 = bitcast %"class.std::__1::ios_base"* %16 to i32 (...)***, !dbg !7329
  store i32 (...)** bitcast (i8** getelementptr inbounds ({ [4 x i8*] }, { [4 x i8*] }* @_ZTVNSt3__18ios_baseE, i32 0, inrange i32 0, i32 2) to i32 (...)**), i32 (...)*** %17, align 8, !dbg !7329
  %18 = bitcast %"class.std::__1::basic_ios"* %14 to i32 (...)***, !dbg !7328
  store i32 (...)** bitcast (i8** getelementptr inbounds ({ [4 x i8*] }, { [4 x i8*] }* @_ZTVNSt3__19basic_iosIcNS_11char_traitsIcEEEE, i32 0, inrange i32 0, i32 2) to i32 (...)**), i32 (...)*** %18, align 8, !dbg !7328
  %19 = bitcast %"class.altered_carbon::js::NullStream"* %10 to %"class.altered_carbon::js::NullStreamBuf"*, !dbg !7327
  call void @_ZN14altered_carbon2js13NullStreamBufC2Ev(%"class.altered_carbon::js::NullStreamBuf"* %19), !dbg !7330
  %20 = bitcast %"class.altered_carbon::js::NullStream"* %10 to i32 (...)***, !dbg !7327
  store i32 (...)** bitcast (i8** getelementptr inbounds ({ [17 x i8*], [5 x i8*], [5 x i8*] }, { [17 x i8*], [5 x i8*], [5 x i8*] }* @_ZTVN14altered_carbon2js10NullStreamE, i32 0, inrange i32 0, i32 3) to i32 (...)**), i32 (...)*** %20, align 8, !dbg !7327
  %21 = bitcast %"class.altered_carbon::js::NullStream"* %10 to i8*, !dbg !7327
  %22 = getelementptr inbounds i8, i8* %21, i64 320, !dbg !7327
  %23 = bitcast i8* %22 to i32 (...)***, !dbg !7327
  store i32 (...)** bitcast (i8** getelementptr inbounds ({ [17 x i8*], [5 x i8*], [5 x i8*] }, { [17 x i8*], [5 x i8*], [5 x i8*] }* @_ZTVN14altered_carbon2js10NullStreamE, i32 0, inrange i32 1, i32 3) to i32 (...)**), i32 (...)*** %23, align 8, !dbg !7327
  %24 = bitcast %"class.altered_carbon::js::NullStream"* %10 to i8*, !dbg !7327
  %25 = getelementptr inbounds i8, i8* %24, i64 328, !dbg !7327
  %26 = bitcast i8* %25 to i32 (...)***, !dbg !7327
  store i32 (...)** bitcast (i8** getelementptr inbounds ({ [17 x i8*], [5 x i8*], [5 x i8*] }, { [17 x i8*], [5 x i8*], [5 x i8*] }* @_ZTVN14altered_carbon2js10NullStreamE, i32 0, inrange i32 2, i32 3) to i32 (...)**), i32 (...)*** %26, align 8, !dbg !7327
  %27 = bitcast %"class.altered_carbon::js::NullStream"* %10 to i8*, !dbg !7327
  %28 = getelementptr inbounds i8, i8* %27, i64 320, !dbg !7327
  %29 = bitcast i8* %28 to %"class.std::__1::basic_ostream"*, !dbg !7327
  %30 = bitcast %"class.altered_carbon::js::NullStream"* %10 to %"class.std::__1::basic_streambuf"*, !dbg !7331
  store %"class.std::__1::basic_ostream"* %29, %"class.std::__1::basic_ostream"** %4, align 8
  store i8** getelementptr inbounds ([5 x i8*], [5 x i8*]* @_ZTTN14altered_carbon2js10NullStreamE, i64 0, i64 1), i8*** %5, align 8
  store %"class.std::__1::basic_streambuf"* %30, %"class.std::__1::basic_streambuf"** %6, align 8
  %31 = load %"class.std::__1::basic_ostream"*, %"class.std::__1::basic_ostream"** %4, align 8
  %32 = load i8**, i8*** %5, align 8
  %33 = load i8*, i8** %32, align 8, !dbg !7332
  %34 = bitcast %"class.std::__1::basic_ostream"* %31 to i32 (...)***, !dbg !7332
  %35 = bitcast i8* %33 to i32 (...)**, !dbg !7332
  store i32 (...)** %35, i32 (...)*** %34, align 8, !dbg !7332
  %36 = getelementptr inbounds i8*, i8** %32, i64 1, !dbg !7332
  %37 = load i8*, i8** %36, align 8, !dbg !7332
  %38 = bitcast %"class.std::__1::basic_ostream"* %31 to i8**, !dbg !7332
  %39 = load i8*, i8** %38, align 8, !dbg !7332
  %40 = getelementptr i8, i8* %39, i64 -24, !dbg !7332
  %41 = bitcast i8* %40 to i64*, !dbg !7332
  %42 = load i64, i64* %41, align 8, !dbg !7332
  %43 = bitcast %"class.std::__1::basic_ostream"* %31 to i8*, !dbg !7332
  %44 = getelementptr inbounds i8, i8* %43, i64 %42, !dbg !7332
  %45 = bitcast i8* %44 to i32 (...)***, !dbg !7332
  %46 = bitcast i8* %37 to i32 (...)**, !dbg !7332
  store i32 (...)** %46, i32 (...)*** %45, align 8, !dbg !7332
  %47 = bitcast %"class.std::__1::basic_ostream"* %31 to i8**, !dbg !7333
  %48 = load i8*, i8** %47, align 8, !dbg !7333
  %49 = getelementptr i8, i8* %48, i64 -24, !dbg !7333
  %50 = bitcast i8* %49 to i64*, !dbg !7333
  %51 = load i64, i64* %50, align 8, !dbg !7333
  %52 = bitcast %"class.std::__1::basic_ostream"* %31 to i8*, !dbg !7333
  %53 = getelementptr inbounds i8, i8* %52, i64 %51, !dbg !7333
  %54 = bitcast i8* %53 to %"class.std::__1::basic_ios"*, !dbg !7333
  %55 = load %"class.std::__1::basic_streambuf"*, %"class.std::__1::basic_streambuf"** %6, align 8, !dbg !7334
  store %"class.std::__1::basic_ios"* %54, %"class.std::__1::basic_ios"** %2, align 8
  store %"class.std::__1::basic_streambuf"* %55, %"class.std::__1::basic_streambuf"** %3, align 8
  %56 = load %"class.std::__1::basic_ios"*, %"class.std::__1::basic_ios"** %2, align 8
  %57 = bitcast %"class.std::__1::basic_ios"* %56 to %"class.std::__1::ios_base"*, !dbg !7335
  %58 = load %"class.std::__1::basic_streambuf"*, %"class.std::__1::basic_streambuf"** %3, align 8, !dbg !7336
  %59 = bitcast %"class.std::__1::basic_streambuf"* %58 to i8*, !dbg !7336
  call void @_ZNSt3__18ios_base4initEPv(%"class.std::__1::ios_base"* %57, i8* %59) #2, !dbg !7335
  %60 = getelementptr inbounds %"class.std::__1::basic_ios", %"class.std::__1::basic_ios"* %56, i32 0, i32 1, !dbg !7337
  store %"class.std::__1::basic_ostream"* null, %"class.std::__1::basic_ostream"** %60, align 8, !dbg !7338
  %61 = call i32 @_ZNSt3__111char_traitsIcE3eofEv() #2, !dbg !7339
  %62 = getelementptr inbounds %"class.std::__1::basic_ios", %"class.std::__1::basic_ios"* %56, i32 0, i32 2, !dbg !7340
  store i32 %61, i32* %62, align 8, !dbg !7341
  %63 = bitcast %"class.altered_carbon::js::NullStream"* %10 to i32 (...)***, !dbg !7327
  store i32 (...)** bitcast (i8** getelementptr inbounds ({ [17 x i8*], [5 x i8*], [5 x i8*] }, { [17 x i8*], [5 x i8*], [5 x i8*] }* @_ZTVN14altered_carbon2js10NullStreamE, i32 0, inrange i32 0, i32 3) to i32 (...)**), i32 (...)*** %63, align 8, !dbg !7327
  %64 = bitcast %"class.altered_carbon::js::NullStream"* %10 to i8*, !dbg !7327
  %65 = getelementptr inbounds i8, i8* %64, i64 320, !dbg !7327
  %66 = bitcast i8* %65 to i32 (...)***, !dbg !7327
  store i32 (...)** bitcast (i8** getelementptr inbounds ({ [17 x i8*], [5 x i8*], [5 x i8*] }, { [17 x i8*], [5 x i8*], [5 x i8*] }* @_ZTVN14altered_carbon2js10NullStreamE, i32 0, inrange i32 1, i32 3) to i32 (...)**), i32 (...)*** %66, align 8, !dbg !7327
  %67 = bitcast %"class.altered_carbon::js::NullStream"* %10 to i8*, !dbg !7327
  %68 = getelementptr inbounds i8, i8* %67, i64 328, !dbg !7327
  %69 = bitcast i8* %68 to i32 (...)***, !dbg !7327
  store i32 (...)** bitcast (i8** getelementptr inbounds ({ [17 x i8*], [5 x i8*], [5 x i8*] }, { [17 x i8*], [5 x i8*], [5 x i8*] }* @_ZTVN14altered_carbon2js10NullStreamE, i32 0, inrange i32 2, i32 3) to i32 (...)**), i32 (...)*** %69, align 8, !dbg !7327
  ret void, !dbg !7342
}

; Function Attrs: noinline nounwind optnone ssp uwtable
define linkonce_odr hidden void @_ZN14altered_carbon2js10NullStreamD1Ev(%"class.altered_carbon::js::NullStream"*) unnamed_addr #1 align 2 !dbg !7343 {
  %2 = alloca %"class.altered_carbon::js::NullStream"*, align 8
  store %"class.altered_carbon::js::NullStream"* %0, %"class.altered_carbon::js::NullStream"** %2, align 8
  call void @llvm.dbg.declare(metadata %"class.altered_carbon::js::NullStream"** %2, metadata !7345, metadata !DIExpression()), !dbg !7346
  %3 = load %"class.altered_carbon::js::NullStream"*, %"class.altered_carbon::js::NullStream"** %2, align 8
  call void @_ZN14altered_carbon2js10NullStreamD2Ev(%"class.altered_carbon::js::NullStream"* %3, i8** getelementptr inbounds ([5 x i8*], [5 x i8*]* @_ZTTN14altered_carbon2js10NullStreamE, i64 0, i64 0)) #2, !dbg !7347
  %4 = bitcast %"class.altered_carbon::js::NullStream"* %3 to i8*, !dbg !7347
  %5 = getelementptr inbounds i8, i8* %4, i64 328, !dbg !7347
  %6 = bitcast i8* %5 to %"class.std::__1::basic_ios"*, !dbg !7347
  call void @_ZNSt3__19basic_iosIcNS_11char_traitsIcEEED2Ev(%"class.std::__1::basic_ios"* %6) #2, !dbg !7347
  ret void, !dbg !7347
}

; Function Attrs: nounwind
declare i32 @__cxa_atexit(void (i8*)*, i8*, i8*) #2

; Function Attrs: noinline nounwind optnone ssp uwtable
define void @_ZN14altered_carbon2js9ACJsStateC2Ev(%"class.altered_carbon::js::ACJsState"*) unnamed_addr #1 align 2 !dbg !7348 {
  %2 = alloca %"class.altered_carbon::js::ACAstBaseNode"**, align 8
  call void @llvm.dbg.declare(metadata %"class.altered_carbon::js::ACAstBaseNode"*** %2, metadata !7349, metadata !DIExpression()), !dbg !7358
  %3 = alloca %"struct.std::__1::__compressed_pair_elem"*, align 8
  call void @llvm.dbg.declare(metadata %"struct.std::__1::__compressed_pair_elem"** %3, metadata !7383, metadata !DIExpression()), !dbg !7385
  %4 = alloca %"class.altered_carbon::js::ACAstBaseNode"**, align 8
  call void @llvm.dbg.declare(metadata %"class.altered_carbon::js::ACAstBaseNode"*** %4, metadata !7386, metadata !DIExpression()), !dbg !7387
  %5 = alloca %"class.altered_carbon::js::ACAstBaseNode"**, align 8
  call void @llvm.dbg.declare(metadata %"class.altered_carbon::js::ACAstBaseNode"*** %5, metadata !7349, metadata !DIExpression()), !dbg !7388
  %6 = alloca %"class.std::__1::__compressed_pair"*, align 8
  call void @llvm.dbg.declare(metadata %"class.std::__1::__compressed_pair"** %6, metadata !7390, metadata !DIExpression()), !dbg !7392
  %7 = alloca %"class.altered_carbon::js::ACAstBaseNode"**, align 8
  call void @llvm.dbg.declare(metadata %"class.altered_carbon::js::ACAstBaseNode"*** %7, metadata !7393, metadata !DIExpression()), !dbg !7394
  %8 = alloca %"class.std::__1::__compressed_pair"*, align 8
  call void @llvm.dbg.declare(metadata %"class.std::__1::__compressed_pair"** %8, metadata !7395, metadata !DIExpression()), !dbg !7396
  %9 = alloca %"class.altered_carbon::js::ACAstBaseNode"**, align 8
  call void @llvm.dbg.declare(metadata %"class.altered_carbon::js::ACAstBaseNode"*** %9, metadata !7397, metadata !DIExpression()), !dbg !7398
  %10 = alloca %"class.std::__1::unique_ptr"*, align 8
  call void @llvm.dbg.declare(metadata %"class.std::__1::unique_ptr"** %10, metadata !7399, metadata !DIExpression()), !dbg !7400
  %11 = alloca %"class.altered_carbon::js::ACAstBaseNode"*, align 8
  %12 = alloca %"class.std::__1::unique_ptr"*, align 8
  call void @llvm.dbg.declare(metadata %"class.std::__1::unique_ptr"** %12, metadata !7401, metadata !DIExpression()), !dbg !7402
  %13 = alloca %"class.altered_carbon::js::ACJsState"*, align 8
  store %"class.altered_carbon::js::ACJsState"* %0, %"class.altered_carbon::js::ACJsState"** %13, align 8
  call void @llvm.dbg.declare(metadata %"class.altered_carbon::js::ACJsState"** %13, metadata !7403, metadata !DIExpression()), !dbg !7404
  %14 = load %"class.altered_carbon::js::ACJsState"*, %"class.altered_carbon::js::ACJsState"** %13, align 8
  %15 = bitcast %"class.altered_carbon::js::ACJsState"* %14 to i32 (...)***, !dbg !7405
  store i32 (...)** bitcast (i8** getelementptr inbounds ({ [4 x i8*] }, { [4 x i8*] }* @_ZTVN14altered_carbon2js9ACJsStateE, i32 0, inrange i32 0, i32 2) to i32 (...)**), i32 (...)*** %15, align 8, !dbg !7405
  %16 = getelementptr inbounds %"class.altered_carbon::js::ACJsState", %"class.altered_carbon::js::ACJsState"* %14, i32 0, i32 3, !dbg !7406
  store %"class.std::__1::unique_ptr"* %16, %"class.std::__1::unique_ptr"** %12, align 8
  %17 = load %"class.std::__1::unique_ptr"*, %"class.std::__1::unique_ptr"** %12, align 8
  store %"class.std::__1::unique_ptr"* %17, %"class.std::__1::unique_ptr"** %10, align 8
  %18 = load %"class.std::__1::unique_ptr"*, %"class.std::__1::unique_ptr"** %10, align 8
  %19 = getelementptr inbounds %"class.std::__1::unique_ptr", %"class.std::__1::unique_ptr"* %18, i32 0, i32 0, !dbg !7407
  store %"class.altered_carbon::js::ACAstBaseNode"* null, %"class.altered_carbon::js::ACAstBaseNode"** %11, align 8, !dbg !7408
  store %"class.std::__1::__compressed_pair"* %19, %"class.std::__1::__compressed_pair"** %8, align 8
  store %"class.altered_carbon::js::ACAstBaseNode"** %11, %"class.altered_carbon::js::ACAstBaseNode"*** %9, align 8
  %20 = load %"class.std::__1::__compressed_pair"*, %"class.std::__1::__compressed_pair"** %8, align 8
  %21 = load %"class.altered_carbon::js::ACAstBaseNode"**, %"class.altered_carbon::js::ACAstBaseNode"*** %9, align 8, !dbg !7409
  store %"class.std::__1::__compressed_pair"* %20, %"class.std::__1::__compressed_pair"** %6, align 8
  store %"class.altered_carbon::js::ACAstBaseNode"** %21, %"class.altered_carbon::js::ACAstBaseNode"*** %7, align 8
  %22 = load %"class.std::__1::__compressed_pair"*, %"class.std::__1::__compressed_pair"** %6, align 8
  %23 = bitcast %"class.std::__1::__compressed_pair"* %22 to %"struct.std::__1::__compressed_pair_elem"*, !dbg !7410
  %24 = load %"class.altered_carbon::js::ACAstBaseNode"**, %"class.altered_carbon::js::ACAstBaseNode"*** %7, align 8, !dbg !7411
  store %"class.altered_carbon::js::ACAstBaseNode"** %24, %"class.altered_carbon::js::ACAstBaseNode"*** %5, align 8
  %25 = load %"class.altered_carbon::js::ACAstBaseNode"**, %"class.altered_carbon::js::ACAstBaseNode"*** %5, align 8, !dbg !7412
  store %"struct.std::__1::__compressed_pair_elem"* %23, %"struct.std::__1::__compressed_pair_elem"** %3, align 8
  store %"class.altered_carbon::js::ACAstBaseNode"** %25, %"class.altered_carbon::js::ACAstBaseNode"*** %4, align 8
  %26 = load %"struct.std::__1::__compressed_pair_elem"*, %"struct.std::__1::__compressed_pair_elem"** %3, align 8
  %27 = getelementptr inbounds %"struct.std::__1::__compressed_pair_elem", %"struct.std::__1::__compressed_pair_elem"* %26, i32 0, i32 0, !dbg !7413
  %28 = load %"class.altered_carbon::js::ACAstBaseNode"**, %"class.altered_carbon::js::ACAstBaseNode"*** %4, align 8, !dbg !7414
  store %"class.altered_carbon::js::ACAstBaseNode"** %28, %"class.altered_carbon::js::ACAstBaseNode"*** %2, align 8
  %29 = load %"class.altered_carbon::js::ACAstBaseNode"**, %"class.altered_carbon::js::ACAstBaseNode"*** %2, align 8, !dbg !7415
  %30 = load %"class.altered_carbon::js::ACAstBaseNode"*, %"class.altered_carbon::js::ACAstBaseNode"** %29, align 8, !dbg !7416
  store %"class.altered_carbon::js::ACAstBaseNode"* %30, %"class.altered_carbon::js::ACAstBaseNode"** %27, align 8, !dbg !7413
  %31 = bitcast %"class.std::__1::__compressed_pair"* %22 to %"struct.std::__1::__compressed_pair_elem.7"*, !dbg !7410
  call void @_ZN14altered_carbon2js9ACJsState5resetEv(%"class.altered_carbon::js::ACJsState"* %14), !dbg !7417
  ret void, !dbg !7419
}

; Function Attrs: nounwind readnone speculatable
declare void @llvm.dbg.declare(metadata, metadata, metadata) #3

; Function Attrs: noinline nounwind optnone ssp uwtable
define void @_ZN14altered_carbon2js9ACJsState5resetEv(%"class.altered_carbon::js::ACJsState"*) #1 align 2 !dbg !7420 {
  %2 = alloca %"class.altered_carbon::js::ACJsState"*, align 8
  store %"class.altered_carbon::js::ACJsState"* %0, %"class.altered_carbon::js::ACJsState"** %2, align 8
  call void @llvm.dbg.declare(metadata %"class.altered_carbon::js::ACJsState"** %2, metadata !7421, metadata !DIExpression()), !dbg !7422
  %3 = load %"class.altered_carbon::js::ACJsState"*, %"class.altered_carbon::js::ACJsState"** %2, align 8
  %4 = getelementptr inbounds %"class.altered_carbon::js::ACJsState", %"class.altered_carbon::js::ACJsState"* %3, i32 0, i32 1, !dbg !7423
  store i8 0, i8* %4, align 8, !dbg !7424
  %5 = getelementptr inbounds %"class.altered_carbon::js::ACJsState", %"class.altered_carbon::js::ACJsState"* %3, i32 0, i32 2, !dbg !7425
  store i8 0, i8* %5, align 1, !dbg !7426
  call void @_ZN14altered_carbon2js9ACJsState30clearCoverInitializedNameErrorEv(%"class.altered_carbon::js::ACJsState"* %3), !dbg !7427
  ret void, !dbg !7428
}

; Function Attrs: noinline nounwind optnone ssp uwtable
define void @_ZN14altered_carbon2js9ACJsStateC1Ev(%"class.altered_carbon::js::ACJsState"*) unnamed_addr #1 align 2 !dbg !7429 {
  %2 = alloca %"class.altered_carbon::js::ACJsState"*, align 8
  store %"class.altered_carbon::js::ACJsState"* %0, %"class.altered_carbon::js::ACJsState"** %2, align 8
  call void @llvm.dbg.declare(metadata %"class.altered_carbon::js::ACJsState"** %2, metadata !7430, metadata !DIExpression()), !dbg !7431
  %3 = load %"class.altered_carbon::js::ACJsState"*, %"class.altered_carbon::js::ACJsState"** %2, align 8
  call void @_ZN14altered_carbon2js9ACJsStateC2Ev(%"class.altered_carbon::js::ACJsState"* %3), !dbg !7432
  ret void, !dbg !7433
}

; Function Attrs: noinline nounwind optnone ssp uwtable
define void @_ZN14altered_carbon2js9ACJsState30clearCoverInitializedNameErrorEv(%"class.altered_carbon::js::ACJsState"*) #1 align 2 !dbg !7434 {
  %2 = alloca %"struct.std::__1::__compressed_pair_elem.7"*, align 8
  call void @llvm.dbg.declare(metadata %"struct.std::__1::__compressed_pair_elem.7"** %2, metadata !7435, metadata !DIExpression()), !dbg !7438
  %3 = alloca %"class.std::__1::__compressed_pair"*, align 8
  call void @llvm.dbg.declare(metadata %"class.std::__1::__compressed_pair"** %3, metadata !7445, metadata !DIExpression()), !dbg !7446
  %4 = alloca %"struct.std::__1::__compressed_pair_elem"*, align 8
  call void @llvm.dbg.declare(metadata %"struct.std::__1::__compressed_pair_elem"** %4, metadata !7447, metadata !DIExpression()), !dbg !7449
  %5 = alloca %"class.std::__1::__compressed_pair"*, align 8
  call void @llvm.dbg.declare(metadata %"class.std::__1::__compressed_pair"** %5, metadata !7453, metadata !DIExpression()), !dbg !7454
  %6 = alloca %"struct.std::__1::default_delete.8"*, align 8
  call void @llvm.dbg.declare(metadata %"struct.std::__1::default_delete.8"** %6, metadata !7455, metadata !DIExpression()), !dbg !7458
  %7 = alloca %"class.altered_carbon::js::ACAstBaseNode"*, align 8
  call void @llvm.dbg.declare(metadata %"class.altered_carbon::js::ACAstBaseNode"** %7, metadata !7460, metadata !DIExpression()), !dbg !7461
  %8 = alloca %"struct.std::__1::__compressed_pair_elem"*, align 8
  call void @llvm.dbg.declare(metadata %"struct.std::__1::__compressed_pair_elem"** %8, metadata !7447, metadata !DIExpression()), !dbg !7462
  %9 = alloca %"class.std::__1::__compressed_pair"*, align 8
  call void @llvm.dbg.declare(metadata %"class.std::__1::__compressed_pair"** %9, metadata !7453, metadata !DIExpression()), !dbg !7465
  %10 = alloca %"class.std::__1::unique_ptr"*, align 8
  call void @llvm.dbg.declare(metadata %"class.std::__1::unique_ptr"** %10, metadata !7466, metadata !DIExpression()), !dbg !7467
  %11 = alloca %"class.altered_carbon::js::ACAstBaseNode"*, align 8
  call void @llvm.dbg.declare(metadata %"class.altered_carbon::js::ACAstBaseNode"** %11, metadata !7468, metadata !DIExpression()), !dbg !7469
  %12 = alloca %"class.altered_carbon::js::ACAstBaseNode"*, align 8
  call void @llvm.dbg.declare(metadata %"class.altered_carbon::js::ACAstBaseNode"** %12, metadata !7470, metadata !DIExpression()), !dbg !7471
  %13 = alloca %"class.altered_carbon::js::ACJsState"*, align 8
  store %"class.altered_carbon::js::ACJsState"* %0, %"class.altered_carbon::js::ACJsState"** %13, align 8
  call void @llvm.dbg.declare(metadata %"class.altered_carbon::js::ACJsState"** %13, metadata !7472, metadata !DIExpression()), !dbg !7473
  %14 = load %"class.altered_carbon::js::ACJsState"*, %"class.altered_carbon::js::ACJsState"** %13, align 8
  %15 = getelementptr inbounds %"class.altered_carbon::js::ACJsState", %"class.altered_carbon::js::ACJsState"* %14, i32 0, i32 3, !dbg !7474
  store %"class.std::__1::unique_ptr"* %15, %"class.std::__1::unique_ptr"** %10, align 8
  store %"class.altered_carbon::js::ACAstBaseNode"* null, %"class.altered_carbon::js::ACAstBaseNode"** %11, align 8
  %16 = load %"class.std::__1::unique_ptr"*, %"class.std::__1::unique_ptr"** %10, align 8
  %17 = getelementptr inbounds %"class.std::__1::unique_ptr", %"class.std::__1::unique_ptr"* %16, i32 0, i32 0, !dbg !7475
  store %"class.std::__1::__compressed_pair"* %17, %"class.std::__1::__compressed_pair"** %9, align 8
  %18 = load %"class.std::__1::__compressed_pair"*, %"class.std::__1::__compressed_pair"** %9, align 8
  %19 = bitcast %"class.std::__1::__compressed_pair"* %18 to %"struct.std::__1::__compressed_pair_elem"*, !dbg !7476
  store %"struct.std::__1::__compressed_pair_elem"* %19, %"struct.std::__1::__compressed_pair_elem"** %8, align 8
  %20 = load %"struct.std::__1::__compressed_pair_elem"*, %"struct.std::__1::__compressed_pair_elem"** %8, align 8
  %21 = getelementptr inbounds %"struct.std::__1::__compressed_pair_elem", %"struct.std::__1::__compressed_pair_elem"* %20, i32 0, i32 0, !dbg !7477
  %22 = load %"class.altered_carbon::js::ACAstBaseNode"*, %"class.altered_carbon::js::ACAstBaseNode"** %21, align 8, !dbg !7478
  store %"class.altered_carbon::js::ACAstBaseNode"* %22, %"class.altered_carbon::js::ACAstBaseNode"** %12, align 8, !dbg !7471
  %23 = load %"class.altered_carbon::js::ACAstBaseNode"*, %"class.altered_carbon::js::ACAstBaseNode"** %11, align 8, !dbg !7479
  %24 = getelementptr inbounds %"class.std::__1::unique_ptr", %"class.std::__1::unique_ptr"* %16, i32 0, i32 0, !dbg !7480
  store %"class.std::__1::__compressed_pair"* %24, %"class.std::__1::__compressed_pair"** %5, align 8
  %25 = load %"class.std::__1::__compressed_pair"*, %"class.std::__1::__compressed_pair"** %5, align 8
  %26 = bitcast %"class.std::__1::__compressed_pair"* %25 to %"struct.std::__1::__compressed_pair_elem"*, !dbg !7481
  store %"struct.std::__1::__compressed_pair_elem"* %26, %"struct.std::__1::__compressed_pair_elem"** %4, align 8
  %27 = load %"struct.std::__1::__compressed_pair_elem"*, %"struct.std::__1::__compressed_pair_elem"** %4, align 8
  %28 = getelementptr inbounds %"struct.std::__1::__compressed_pair_elem", %"struct.std::__1::__compressed_pair_elem"* %27, i32 0, i32 0, !dbg !7482
  store %"class.altered_carbon::js::ACAstBaseNode"* %23, %"class.altered_carbon::js::ACAstBaseNode"** %28, align 8, !dbg !7483
  %29 = load %"class.altered_carbon::js::ACAstBaseNode"*, %"class.altered_carbon::js::ACAstBaseNode"** %12, align 8, !dbg !7484
  %30 = icmp ne %"class.altered_carbon::js::ACAstBaseNode"* %29, null, !dbg !7484
  br i1 %30, label %31, label %47, !dbg !7485

; <label>:31:                                     ; preds = %1
  %32 = getelementptr inbounds %"class.std::__1::unique_ptr", %"class.std::__1::unique_ptr"* %16, i32 0, i32 0, !dbg !7486
  store %"class.std::__1::__compressed_pair"* %32, %"class.std::__1::__compressed_pair"** %3, align 8
  %33 = load %"class.std::__1::__compressed_pair"*, %"class.std::__1::__compressed_pair"** %3, align 8
  %34 = bitcast %"class.std::__1::__compressed_pair"* %33 to %"struct.std::__1::__compressed_pair_elem.7"*, !dbg !7487
  store %"struct.std::__1::__compressed_pair_elem.7"* %34, %"struct.std::__1::__compressed_pair_elem.7"** %2, align 8
  %35 = load %"struct.std::__1::__compressed_pair_elem.7"*, %"struct.std::__1::__compressed_pair_elem.7"** %2, align 8
  %36 = bitcast %"struct.std::__1::__compressed_pair_elem.7"* %35 to %"struct.std::__1::default_delete.8"*, !dbg !7488
  %37 = load %"class.altered_carbon::js::ACAstBaseNode"*, %"class.altered_carbon::js::ACAstBaseNode"** %12, align 8, !dbg !7489
  store %"struct.std::__1::default_delete.8"* %36, %"struct.std::__1::default_delete.8"** %6, align 8
  store %"class.altered_carbon::js::ACAstBaseNode"* %37, %"class.altered_carbon::js::ACAstBaseNode"** %7, align 8
  %38 = load %"struct.std::__1::default_delete.8"*, %"struct.std::__1::default_delete.8"** %6, align 8
  %39 = load %"class.altered_carbon::js::ACAstBaseNode"*, %"class.altered_carbon::js::ACAstBaseNode"** %7, align 8, !dbg !7490
  %40 = icmp eq %"class.altered_carbon::js::ACAstBaseNode"* %39, null, !dbg !7491
  br i1 %40, label %46, label %41, !dbg !7491

; <label>:41:                                     ; preds = %31
  %42 = bitcast %"class.altered_carbon::js::ACAstBaseNode"* %39 to void (%"class.altered_carbon::js::ACAstBaseNode"*)***, !dbg !7491
  %43 = load void (%"class.altered_carbon::js::ACAstBaseNode"*)**, void (%"class.altered_carbon::js::ACAstBaseNode"*)*** %42, align 8, !dbg !7491
  %44 = getelementptr inbounds void (%"class.altered_carbon::js::ACAstBaseNode"*)*, void (%"class.altered_carbon::js::ACAstBaseNode"*)** %43, i64 1, !dbg !7491
  %45 = load void (%"class.altered_carbon::js::ACAstBaseNode"*)*, void (%"class.altered_carbon::js::ACAstBaseNode"*)** %44, align 8, !dbg !7491
  call void %45(%"class.altered_carbon::js::ACAstBaseNode"* %39) #2, !dbg !7491
  br label %46, !dbg !7491

; <label>:46:                                     ; preds = %41, %31
  br label %47, !dbg !7486

; <label>:47:                                     ; preds = %1, %46
  ret void, !dbg !7492
}

; Function Attrs: noinline nounwind optnone ssp uwtable
define void @_ZN14altered_carbon2js9ACJsState5mergeERNSt3__110unique_ptrIS1_NS2_14default_deleteIS1_EEEE(%"class.altered_carbon::js::ACJsState"*, %"class.std::__1::unique_ptr.10"* dereferenceable(8)) #1 align 2 !dbg !7493 {
  %3 = alloca %"struct.std::__1::__compressed_pair_elem.12"*, align 8
  call void @llvm.dbg.declare(metadata %"struct.std::__1::__compressed_pair_elem.12"** %3, metadata !7494, metadata !DIExpression()), !dbg !7497
  %4 = alloca %"class.std::__1::__compressed_pair.11"*, align 8
  call void @llvm.dbg.declare(metadata %"class.std::__1::__compressed_pair.11"** %4, metadata !7503, metadata !DIExpression()), !dbg !7505
  %5 = alloca %"class.std::__1::unique_ptr.10"*, align 8
  call void @llvm.dbg.declare(metadata %"class.std::__1::unique_ptr.10"** %5, metadata !7506, metadata !DIExpression()), !dbg !7508
  %6 = alloca %"struct.std::__1::__compressed_pair_elem.12"*, align 8
  call void @llvm.dbg.declare(metadata %"struct.std::__1::__compressed_pair_elem.12"** %6, metadata !7494, metadata !DIExpression()), !dbg !7509
  %7 = alloca %"class.std::__1::__compressed_pair.11"*, align 8
  call void @llvm.dbg.declare(metadata %"class.std::__1::__compressed_pair.11"** %7, metadata !7503, metadata !DIExpression()), !dbg !7514
  %8 = alloca %"class.std::__1::unique_ptr.10"*, align 8
  call void @llvm.dbg.declare(metadata %"class.std::__1::unique_ptr.10"** %8, metadata !7506, metadata !DIExpression()), !dbg !7515
  %9 = alloca %"struct.std::__1::__compressed_pair_elem"*, align 8
  call void @llvm.dbg.declare(metadata %"struct.std::__1::__compressed_pair_elem"** %9, metadata !7516, metadata !DIExpression()), !dbg !7519
  %10 = alloca %"class.std::__1::__compressed_pair"*, align 8
  call void @llvm.dbg.declare(metadata %"class.std::__1::__compressed_pair"** %10, metadata !7525, metadata !DIExpression()), !dbg !7527
  %11 = alloca %"class.std::__1::unique_ptr"*, align 8
  call void @llvm.dbg.declare(metadata %"class.std::__1::unique_ptr"** %11, metadata !7528, metadata !DIExpression()), !dbg !7529
  %12 = alloca %"struct.std::__1::__compressed_pair_elem.12"*, align 8
  call void @llvm.dbg.declare(metadata %"struct.std::__1::__compressed_pair_elem.12"** %12, metadata !7494, metadata !DIExpression()), !dbg !7530
  %13 = alloca %"class.std::__1::__compressed_pair.11"*, align 8
  call void @llvm.dbg.declare(metadata %"class.std::__1::__compressed_pair.11"** %13, metadata !7503, metadata !DIExpression()), !dbg !7535
  %14 = alloca %"class.std::__1::unique_ptr.10"*, align 8
  call void @llvm.dbg.declare(metadata %"class.std::__1::unique_ptr.10"** %14, metadata !7506, metadata !DIExpression()), !dbg !7536
  %15 = alloca %"struct.std::__1::__compressed_pair_elem"*, align 8
  call void @llvm.dbg.declare(metadata %"struct.std::__1::__compressed_pair_elem"** %15, metadata !7447, metadata !DIExpression()), !dbg !7537
  %16 = alloca %"class.std::__1::__compressed_pair"*, align 8
  call void @llvm.dbg.declare(metadata %"class.std::__1::__compressed_pair"** %16, metadata !7453, metadata !DIExpression()), !dbg !7544
  %17 = alloca %"class.altered_carbon::js::ACAstBaseNode"**, align 8
  call void @llvm.dbg.declare(metadata %"class.altered_carbon::js::ACAstBaseNode"*** %17, metadata !7545, metadata !DIExpression()), !dbg !7554
  %18 = alloca %"class.altered_carbon::js::ACAstBaseNode"**, align 8
  call void @llvm.dbg.declare(metadata %"class.altered_carbon::js::ACAstBaseNode"*** %18, metadata !7545, metadata !DIExpression()), !dbg !7563
  %19 = alloca %"class.altered_carbon::js::ACAstBaseNode"**, align 8
  call void @llvm.dbg.declare(metadata %"class.altered_carbon::js::ACAstBaseNode"*** %19, metadata !7545, metadata !DIExpression()), !dbg !7565
  %20 = alloca %"class.altered_carbon::js::ACAstBaseNode"**, align 8
  call void @llvm.dbg.declare(metadata %"class.altered_carbon::js::ACAstBaseNode"*** %20, metadata !7567, metadata !DIExpression()), !dbg !7568
  %21 = alloca %"class.altered_carbon::js::ACAstBaseNode"**, align 8
  call void @llvm.dbg.declare(metadata %"class.altered_carbon::js::ACAstBaseNode"*** %21, metadata !7569, metadata !DIExpression()), !dbg !7570
  %22 = alloca %"class.altered_carbon::js::ACAstBaseNode"*, align 8
  call void @llvm.dbg.declare(metadata %"class.altered_carbon::js::ACAstBaseNode"** %22, metadata !7571, metadata !DIExpression()), !dbg !7572
  %23 = alloca %"struct.std::__1::__compressed_pair_elem.7"*, align 8
  call void @llvm.dbg.declare(metadata %"struct.std::__1::__compressed_pair_elem.7"** %23, metadata !7435, metadata !DIExpression()), !dbg !7573
  %24 = alloca %"class.std::__1::__compressed_pair"*, align 8
  call void @llvm.dbg.declare(metadata %"class.std::__1::__compressed_pair"** %24, metadata !7445, metadata !DIExpression()), !dbg !7576
  %25 = alloca %"struct.std::__1::__compressed_pair_elem.7"*, align 8
  call void @llvm.dbg.declare(metadata %"struct.std::__1::__compressed_pair_elem.7"** %25, metadata !7435, metadata !DIExpression()), !dbg !7577
  %26 = alloca %"class.std::__1::__compressed_pair"*, align 8
  call void @llvm.dbg.declare(metadata %"class.std::__1::__compressed_pair"** %26, metadata !7445, metadata !DIExpression()), !dbg !7580
  %27 = alloca %"struct.std::__1::default_delete.8"*, align 8
  call void @llvm.dbg.declare(metadata %"struct.std::__1::default_delete.8"** %27, metadata !7581, metadata !DIExpression()), !dbg !7590
  %28 = alloca %"struct.std::__1::default_delete.8"*, align 8
  call void @llvm.dbg.declare(metadata %"struct.std::__1::default_delete.8"** %28, metadata !7581, metadata !DIExpression()), !dbg !7597
  %29 = alloca %"struct.std::__1::default_delete.8"*, align 8
  call void @llvm.dbg.declare(metadata %"struct.std::__1::default_delete.8"** %29, metadata !7581, metadata !DIExpression()), !dbg !7599
  %30 = alloca %"struct.std::__1::default_delete.8"*, align 8
  call void @llvm.dbg.declare(metadata %"struct.std::__1::default_delete.8"** %30, metadata !7601, metadata !DIExpression()), !dbg !7602
  %31 = alloca %"struct.std::__1::default_delete.8"*, align 8
  call void @llvm.dbg.declare(metadata %"struct.std::__1::default_delete.8"** %31, metadata !7603, metadata !DIExpression()), !dbg !7604
  %32 = alloca %"struct.std::__1::default_delete.8", align 1
  call void @llvm.dbg.declare(metadata %"struct.std::__1::default_delete.8"* %32, metadata !7605, metadata !DIExpression()), !dbg !7606
  %33 = alloca %"struct.std::__1::__compressed_pair_elem"*, align 8
  call void @llvm.dbg.declare(metadata %"struct.std::__1::__compressed_pair_elem"** %33, metadata !7447, metadata !DIExpression()), !dbg !7607
  %34 = alloca %"class.std::__1::__compressed_pair"*, align 8
  call void @llvm.dbg.declare(metadata %"class.std::__1::__compressed_pair"** %34, metadata !7453, metadata !DIExpression()), !dbg !7610
  %35 = alloca %"class.std::__1::__compressed_pair"*, align 8
  call void @llvm.dbg.declare(metadata %"class.std::__1::__compressed_pair"** %35, metadata !7611, metadata !DIExpression()), !dbg !7612
  %36 = alloca %"class.std::__1::__compressed_pair"*, align 8
  call void @llvm.dbg.declare(metadata %"class.std::__1::__compressed_pair"** %36, metadata !7613, metadata !DIExpression()), !dbg !7614
  %37 = alloca %"class.std::__1::unique_ptr"*, align 8
  call void @llvm.dbg.declare(metadata %"class.std::__1::unique_ptr"** %37, metadata !7615, metadata !DIExpression()), !dbg !7616
  %38 = alloca %"class.std::__1::unique_ptr"*, align 8
  call void @llvm.dbg.declare(metadata %"class.std::__1::unique_ptr"** %38, metadata !7617, metadata !DIExpression()), !dbg !7618
  %39 = alloca %"struct.std::__1::__compressed_pair_elem.12"*, align 8
  call void @llvm.dbg.declare(metadata %"struct.std::__1::__compressed_pair_elem.12"** %39, metadata !7494, metadata !DIExpression()), !dbg !7619
  %40 = alloca %"class.std::__1::__compressed_pair.11"*, align 8
  call void @llvm.dbg.declare(metadata %"class.std::__1::__compressed_pair.11"** %40, metadata !7503, metadata !DIExpression()), !dbg !7623
  %41 = alloca %"class.std::__1::unique_ptr.10"*, align 8
  call void @llvm.dbg.declare(metadata %"class.std::__1::unique_ptr.10"** %41, metadata !7506, metadata !DIExpression()), !dbg !7624
  %42 = alloca %"class.altered_carbon::js::ACJsState"*, align 8
  %43 = alloca %"class.std::__1::unique_ptr.10"*, align 8
  store %"class.altered_carbon::js::ACJsState"* %0, %"class.altered_carbon::js::ACJsState"** %42, align 8
  call void @llvm.dbg.declare(metadata %"class.altered_carbon::js::ACJsState"** %42, metadata !7625, metadata !DIExpression()), !dbg !7626
  store %"class.std::__1::unique_ptr.10"* %1, %"class.std::__1::unique_ptr.10"** %43, align 8
  call void @llvm.dbg.declare(metadata %"class.std::__1::unique_ptr.10"** %43, metadata !7627, metadata !DIExpression()), !dbg !7628
  %44 = load %"class.altered_carbon::js::ACJsState"*, %"class.altered_carbon::js::ACJsState"** %42, align 8
  %45 = load %"class.std::__1::unique_ptr.10"*, %"class.std::__1::unique_ptr.10"** %43, align 8, !dbg !7629
  store %"class.std::__1::unique_ptr.10"* %45, %"class.std::__1::unique_ptr.10"** %41, align 8
  %46 = load %"class.std::__1::unique_ptr.10"*, %"class.std::__1::unique_ptr.10"** %41, align 8
  %47 = getelementptr inbounds %"class.std::__1::unique_ptr.10", %"class.std::__1::unique_ptr.10"* %46, i32 0, i32 0, !dbg !7630
  store %"class.std::__1::__compressed_pair.11"* %47, %"class.std::__1::__compressed_pair.11"** %40, align 8
  %48 = load %"class.std::__1::__compressed_pair.11"*, %"class.std::__1::__compressed_pair.11"** %40, align 8
  %49 = bitcast %"class.std::__1::__compressed_pair.11"* %48 to %"struct.std::__1::__compressed_pair_elem.12"*, !dbg !7631
  store %"struct.std::__1::__compressed_pair_elem.12"* %49, %"struct.std::__1::__compressed_pair_elem.12"** %39, align 8
  %50 = load %"struct.std::__1::__compressed_pair_elem.12"*, %"struct.std::__1::__compressed_pair_elem.12"** %39, align 8
  %51 = getelementptr inbounds %"struct.std::__1::__compressed_pair_elem.12", %"struct.std::__1::__compressed_pair_elem.12"* %50, i32 0, i32 0, !dbg !7632
  %52 = load %"class.altered_carbon::js::ACJsState"*, %"class.altered_carbon::js::ACJsState"** %51, align 8, !dbg !7633
  %53 = getelementptr inbounds %"class.altered_carbon::js::ACJsState", %"class.altered_carbon::js::ACJsState"* %52, i32 0, i32 1, !dbg !7634
  %54 = load i8, i8* %53, align 8, !dbg !7634
  %55 = trunc i8 %54 to i1, !dbg !7634
  %56 = zext i1 %55 to i32, !dbg !7629
  %57 = getelementptr inbounds %"class.altered_carbon::js::ACJsState", %"class.altered_carbon::js::ACJsState"* %44, i32 0, i32 1, !dbg !7635
  %58 = load i8, i8* %57, align 8, !dbg !7636
  %59 = trunc i8 %58 to i1, !dbg !7636
  %60 = zext i1 %59 to i32, !dbg !7636
  %61 = and i32 %60, %56, !dbg !7636
  %62 = icmp ne i32 %61, 0, !dbg !7636
  %63 = zext i1 %62 to i8, !dbg !7636
  store i8 %63, i8* %57, align 8, !dbg !7636
  %64 = load %"class.std::__1::unique_ptr.10"*, %"class.std::__1::unique_ptr.10"** %43, align 8, !dbg !7637
  store %"class.std::__1::unique_ptr.10"* %64, %"class.std::__1::unique_ptr.10"** %5, align 8
  %65 = load %"class.std::__1::unique_ptr.10"*, %"class.std::__1::unique_ptr.10"** %5, align 8
  %66 = getelementptr inbounds %"class.std::__1::unique_ptr.10", %"class.std::__1::unique_ptr.10"* %65, i32 0, i32 0, !dbg !7638
  store %"class.std::__1::__compressed_pair.11"* %66, %"class.std::__1::__compressed_pair.11"** %4, align 8
  %67 = load %"class.std::__1::__compressed_pair.11"*, %"class.std::__1::__compressed_pair.11"** %4, align 8
  %68 = bitcast %"class.std::__1::__compressed_pair.11"* %67 to %"struct.std::__1::__compressed_pair_elem.12"*, !dbg !7639
  store %"struct.std::__1::__compressed_pair_elem.12"* %68, %"struct.std::__1::__compressed_pair_elem.12"** %3, align 8
  %69 = load %"struct.std::__1::__compressed_pair_elem.12"*, %"struct.std::__1::__compressed_pair_elem.12"** %3, align 8
  %70 = getelementptr inbounds %"struct.std::__1::__compressed_pair_elem.12", %"struct.std::__1::__compressed_pair_elem.12"* %69, i32 0, i32 0, !dbg !7640
  %71 = load %"class.altered_carbon::js::ACJsState"*, %"class.altered_carbon::js::ACJsState"** %70, align 8, !dbg !7641
  %72 = getelementptr inbounds %"class.altered_carbon::js::ACJsState", %"class.altered_carbon::js::ACJsState"* %71, i32 0, i32 2, !dbg !7642
  %73 = load i8, i8* %72, align 1, !dbg !7642
  %74 = trunc i8 %73 to i1, !dbg !7642
  %75 = zext i1 %74 to i32, !dbg !7637
  %76 = getelementptr inbounds %"class.altered_carbon::js::ACJsState", %"class.altered_carbon::js::ACJsState"* %44, i32 0, i32 2, !dbg !7643
  %77 = load i8, i8* %76, align 1, !dbg !7644
  %78 = trunc i8 %77 to i1, !dbg !7644
  %79 = zext i1 %78 to i32, !dbg !7644
  %80 = and i32 %79, %75, !dbg !7644
  %81 = icmp ne i32 %80, 0, !dbg !7644
  %82 = zext i1 %81 to i8, !dbg !7644
  store i8 %82, i8* %76, align 1, !dbg !7644
  %83 = load %"class.std::__1::unique_ptr.10"*, %"class.std::__1::unique_ptr.10"** %43, align 8, !dbg !7645
  store %"class.std::__1::unique_ptr.10"* %83, %"class.std::__1::unique_ptr.10"** %8, align 8
  %84 = load %"class.std::__1::unique_ptr.10"*, %"class.std::__1::unique_ptr.10"** %8, align 8
  %85 = getelementptr inbounds %"class.std::__1::unique_ptr.10", %"class.std::__1::unique_ptr.10"* %84, i32 0, i32 0, !dbg !7646
  store %"class.std::__1::__compressed_pair.11"* %85, %"class.std::__1::__compressed_pair.11"** %7, align 8
  %86 = load %"class.std::__1::__compressed_pair.11"*, %"class.std::__1::__compressed_pair.11"** %7, align 8
  %87 = bitcast %"class.std::__1::__compressed_pair.11"* %86 to %"struct.std::__1::__compressed_pair_elem.12"*, !dbg !7647
  store %"struct.std::__1::__compressed_pair_elem.12"* %87, %"struct.std::__1::__compressed_pair_elem.12"** %6, align 8
  %88 = load %"struct.std::__1::__compressed_pair_elem.12"*, %"struct.std::__1::__compressed_pair_elem.12"** %6, align 8
  %89 = getelementptr inbounds %"struct.std::__1::__compressed_pair_elem.12", %"struct.std::__1::__compressed_pair_elem.12"* %88, i32 0, i32 0, !dbg !7648
  %90 = load %"class.altered_carbon::js::ACJsState"*, %"class.altered_carbon::js::ACJsState"** %89, align 8, !dbg !7649
  %91 = getelementptr inbounds %"class.altered_carbon::js::ACJsState", %"class.altered_carbon::js::ACJsState"* %90, i32 0, i32 3, !dbg !7650
  store %"class.std::__1::unique_ptr"* %91, %"class.std::__1::unique_ptr"** %11, align 8
  %92 = load %"class.std::__1::unique_ptr"*, %"class.std::__1::unique_ptr"** %11, align 8
  %93 = getelementptr inbounds %"class.std::__1::unique_ptr", %"class.std::__1::unique_ptr"* %92, i32 0, i32 0, !dbg !7651
  store %"class.std::__1::__compressed_pair"* %93, %"class.std::__1::__compressed_pair"** %10, align 8
  %94 = load %"class.std::__1::__compressed_pair"*, %"class.std::__1::__compressed_pair"** %10, align 8
  %95 = bitcast %"class.std::__1::__compressed_pair"* %94 to %"struct.std::__1::__compressed_pair_elem"*, !dbg !7652
  store %"struct.std::__1::__compressed_pair_elem"* %95, %"struct.std::__1::__compressed_pair_elem"** %9, align 8
  %96 = load %"struct.std::__1::__compressed_pair_elem"*, %"struct.std::__1::__compressed_pair_elem"** %9, align 8
  %97 = getelementptr inbounds %"struct.std::__1::__compressed_pair_elem", %"struct.std::__1::__compressed_pair_elem"* %96, i32 0, i32 0, !dbg !7653
  %98 = load %"class.altered_carbon::js::ACAstBaseNode"*, %"class.altered_carbon::js::ACAstBaseNode"** %97, align 8, !dbg !7654
  %99 = icmp ne %"class.altered_carbon::js::ACAstBaseNode"* %98, null, !dbg !7655
  br i1 %99, label %100, label %151, !dbg !7656

; <label>:100:                                    ; preds = %2
  %101 = getelementptr inbounds %"class.altered_carbon::js::ACJsState", %"class.altered_carbon::js::ACJsState"* %44, i32 0, i32 3, !dbg !7657
  %102 = load %"class.std::__1::unique_ptr.10"*, %"class.std::__1::unique_ptr.10"** %43, align 8, !dbg !7658
  store %"class.std::__1::unique_ptr.10"* %102, %"class.std::__1::unique_ptr.10"** %14, align 8
  %103 = load %"class.std::__1::unique_ptr.10"*, %"class.std::__1::unique_ptr.10"** %14, align 8
  %104 = getelementptr inbounds %"class.std::__1::unique_ptr.10", %"class.std::__1::unique_ptr.10"* %103, i32 0, i32 0, !dbg !7659
  store %"class.std::__1::__compressed_pair.11"* %104, %"class.std::__1::__compressed_pair.11"** %13, align 8
  %105 = load %"class.std::__1::__compressed_pair.11"*, %"class.std::__1::__compressed_pair.11"** %13, align 8
  %106 = bitcast %"class.std::__1::__compressed_pair.11"* %105 to %"struct.std::__1::__compressed_pair_elem.12"*, !dbg !7660
  store %"struct.std::__1::__compressed_pair_elem.12"* %106, %"struct.std::__1::__compressed_pair_elem.12"** %12, align 8
  %107 = load %"struct.std::__1::__compressed_pair_elem.12"*, %"struct.std::__1::__compressed_pair_elem.12"** %12, align 8
  %108 = getelementptr inbounds %"struct.std::__1::__compressed_pair_elem.12", %"struct.std::__1::__compressed_pair_elem.12"* %107, i32 0, i32 0, !dbg !7661
  %109 = load %"class.altered_carbon::js::ACJsState"*, %"class.altered_carbon::js::ACJsState"** %108, align 8, !dbg !7662
  %110 = getelementptr inbounds %"class.altered_carbon::js::ACJsState", %"class.altered_carbon::js::ACJsState"* %109, i32 0, i32 3, !dbg !7663
  store %"class.std::__1::unique_ptr"* %101, %"class.std::__1::unique_ptr"** %37, align 8
  store %"class.std::__1::unique_ptr"* %110, %"class.std::__1::unique_ptr"** %38, align 8
  %111 = load %"class.std::__1::unique_ptr"*, %"class.std::__1::unique_ptr"** %37, align 8
  %112 = getelementptr inbounds %"class.std::__1::unique_ptr", %"class.std::__1::unique_ptr"* %111, i32 0, i32 0, !dbg !7664
  %113 = load %"class.std::__1::unique_ptr"*, %"class.std::__1::unique_ptr"** %38, align 8, !dbg !7665
  %114 = getelementptr inbounds %"class.std::__1::unique_ptr", %"class.std::__1::unique_ptr"* %113, i32 0, i32 0, !dbg !7666
  store %"class.std::__1::__compressed_pair"* %112, %"class.std::__1::__compressed_pair"** %35, align 8
  store %"class.std::__1::__compressed_pair"* %114, %"class.std::__1::__compressed_pair"** %36, align 8
  %115 = load %"class.std::__1::__compressed_pair"*, %"class.std::__1::__compressed_pair"** %35, align 8
  store %"class.std::__1::__compressed_pair"* %115, %"class.std::__1::__compressed_pair"** %34, align 8
  %116 = load %"class.std::__1::__compressed_pair"*, %"class.std::__1::__compressed_pair"** %34, align 8
  %117 = bitcast %"class.std::__1::__compressed_pair"* %116 to %"struct.std::__1::__compressed_pair_elem"*, !dbg !7667
  store %"struct.std::__1::__compressed_pair_elem"* %117, %"struct.std::__1::__compressed_pair_elem"** %33, align 8
  %118 = load %"struct.std::__1::__compressed_pair_elem"*, %"struct.std::__1::__compressed_pair_elem"** %33, align 8
  %119 = getelementptr inbounds %"struct.std::__1::__compressed_pair_elem", %"struct.std::__1::__compressed_pair_elem"* %118, i32 0, i32 0, !dbg !7668
  %120 = load %"class.std::__1::__compressed_pair"*, %"class.std::__1::__compressed_pair"** %36, align 8, !dbg !7669
  store %"class.std::__1::__compressed_pair"* %120, %"class.std::__1::__compressed_pair"** %16, align 8
  %121 = load %"class.std::__1::__compressed_pair"*, %"class.std::__1::__compressed_pair"** %16, align 8
  %122 = bitcast %"class.std::__1::__compressed_pair"* %121 to %"struct.std::__1::__compressed_pair_elem"*, !dbg !7670
  store %"struct.std::__1::__compressed_pair_elem"* %122, %"struct.std::__1::__compressed_pair_elem"** %15, align 8
  %123 = load %"struct.std::__1::__compressed_pair_elem"*, %"struct.std::__1::__compressed_pair_elem"** %15, align 8
  %124 = getelementptr inbounds %"struct.std::__1::__compressed_pair_elem", %"struct.std::__1::__compressed_pair_elem"* %123, i32 0, i32 0, !dbg !7671
  store %"class.altered_carbon::js::ACAstBaseNode"** %119, %"class.altered_carbon::js::ACAstBaseNode"*** %20, align 8
  store %"class.altered_carbon::js::ACAstBaseNode"** %124, %"class.altered_carbon::js::ACAstBaseNode"*** %21, align 8
  %125 = load %"class.altered_carbon::js::ACAstBaseNode"**, %"class.altered_carbon::js::ACAstBaseNode"*** %20, align 8, !dbg !7672
  store %"class.altered_carbon::js::ACAstBaseNode"** %125, %"class.altered_carbon::js::ACAstBaseNode"*** %19, align 8
  %126 = load %"class.altered_carbon::js::ACAstBaseNode"**, %"class.altered_carbon::js::ACAstBaseNode"*** %19, align 8, !dbg !7673
  %127 = load %"class.altered_carbon::js::ACAstBaseNode"*, %"class.altered_carbon::js::ACAstBaseNode"** %126, align 8, !dbg !7674
  store %"class.altered_carbon::js::ACAstBaseNode"* %127, %"class.altered_carbon::js::ACAstBaseNode"** %22, align 8, !dbg !7572
  %128 = load %"class.altered_carbon::js::ACAstBaseNode"**, %"class.altered_carbon::js::ACAstBaseNode"*** %21, align 8, !dbg !7675
  store %"class.altered_carbon::js::ACAstBaseNode"** %128, %"class.altered_carbon::js::ACAstBaseNode"*** %17, align 8
  %129 = load %"class.altered_carbon::js::ACAstBaseNode"**, %"class.altered_carbon::js::ACAstBaseNode"*** %17, align 8, !dbg !7676
  %130 = load %"class.altered_carbon::js::ACAstBaseNode"*, %"class.altered_carbon::js::ACAstBaseNode"** %129, align 8, !dbg !7677
  %131 = load %"class.altered_carbon::js::ACAstBaseNode"**, %"class.altered_carbon::js::ACAstBaseNode"*** %20, align 8, !dbg !7678
  store %"class.altered_carbon::js::ACAstBaseNode"* %130, %"class.altered_carbon::js::ACAstBaseNode"** %131, align 8, !dbg !7679
  store %"class.altered_carbon::js::ACAstBaseNode"** %22, %"class.altered_carbon::js::ACAstBaseNode"*** %18, align 8
  %132 = load %"class.altered_carbon::js::ACAstBaseNode"**, %"class.altered_carbon::js::ACAstBaseNode"*** %18, align 8, !dbg !7680
  %133 = load %"class.altered_carbon::js::ACAstBaseNode"*, %"class.altered_carbon::js::ACAstBaseNode"** %132, align 8, !dbg !7681
  %134 = load %"class.altered_carbon::js::ACAstBaseNode"**, %"class.altered_carbon::js::ACAstBaseNode"*** %21, align 8, !dbg !7682
  store %"class.altered_carbon::js::ACAstBaseNode"* %133, %"class.altered_carbon::js::ACAstBaseNode"** %134, align 8, !dbg !7683
  store %"class.std::__1::__compressed_pair"* %115, %"class.std::__1::__compressed_pair"** %24, align 8
  %135 = load %"class.std::__1::__compressed_pair"*, %"class.std::__1::__compressed_pair"** %24, align 8
  %136 = bitcast %"class.std::__1::__compressed_pair"* %135 to %"struct.std::__1::__compressed_pair_elem.7"*, !dbg !7684
  store %"struct.std::__1::__compressed_pair_elem.7"* %136, %"struct.std::__1::__compressed_pair_elem.7"** %23, align 8
  %137 = load %"struct.std::__1::__compressed_pair_elem.7"*, %"struct.std::__1::__compressed_pair_elem.7"** %23, align 8
  %138 = bitcast %"struct.std::__1::__compressed_pair_elem.7"* %137 to %"struct.std::__1::default_delete.8"*, !dbg !7685
  %139 = load %"class.std::__1::__compressed_pair"*, %"class.std::__1::__compressed_pair"** %36, align 8, !dbg !7686
  store %"class.std::__1::__compressed_pair"* %139, %"class.std::__1::__compressed_pair"** %26, align 8
  %140 = load %"class.std::__1::__compressed_pair"*, %"class.std::__1::__compressed_pair"** %26, align 8
  %141 = bitcast %"class.std::__1::__compressed_pair"* %140 to %"struct.std::__1::__compressed_pair_elem.7"*, !dbg !7687
  store %"struct.std::__1::__compressed_pair_elem.7"* %141, %"struct.std::__1::__compressed_pair_elem.7"** %25, align 8
  %142 = load %"struct.std::__1::__compressed_pair_elem.7"*, %"struct.std::__1::__compressed_pair_elem.7"** %25, align 8
  %143 = bitcast %"struct.std::__1::__compressed_pair_elem.7"* %142 to %"struct.std::__1::default_delete.8"*, !dbg !7688
  store %"struct.std::__1::default_delete.8"* %138, %"struct.std::__1::default_delete.8"** %30, align 8
  store %"struct.std::__1::default_delete.8"* %143, %"struct.std::__1::default_delete.8"** %31, align 8
  %144 = load %"struct.std::__1::default_delete.8"*, %"struct.std::__1::default_delete.8"** %30, align 8, !dbg !7689
  store %"struct.std::__1::default_delete.8"* %144, %"struct.std::__1::default_delete.8"** %29, align 8
  %145 = load %"struct.std::__1::default_delete.8"*, %"struct.std::__1::default_delete.8"** %29, align 8, !dbg !7690
  %146 = load %"struct.std::__1::default_delete.8"*, %"struct.std::__1::default_delete.8"** %31, align 8, !dbg !7691
  store %"struct.std::__1::default_delete.8"* %146, %"struct.std::__1::default_delete.8"** %27, align 8
  %147 = load %"struct.std::__1::default_delete.8"*, %"struct.std::__1::default_delete.8"** %27, align 8, !dbg !7692
  %148 = load %"struct.std::__1::default_delete.8"*, %"struct.std::__1::default_delete.8"** %30, align 8, !dbg !7693
  store %"struct.std::__1::default_delete.8"* %32, %"struct.std::__1::default_delete.8"** %28, align 8
  %149 = load %"struct.std::__1::default_delete.8"*, %"struct.std::__1::default_delete.8"** %28, align 8, !dbg !7694
  %150 = load %"struct.std::__1::default_delete.8"*, %"struct.std::__1::default_delete.8"** %31, align 8, !dbg !7695
  br label %151, !dbg !7696

; <label>:151:                                    ; preds = %100, %2
  ret void, !dbg !7697
}

; Function Attrs: noinline nounwind optnone ssp uwtable
define void @_ZN14altered_carbon2js12ACAstBuilder26prepareIsolateCoverGrammarEMS1_FNSt3__110unique_ptrINS0_13ACAstBaseNodeENS2_14default_deleteIS4_EEEEvE(%"class.std::__1::unique_ptr"* noalias sret, %"class.altered_carbon::js::ACAstBuilder"*, i64, i64) #1 align 2 !dbg !7698 {
  %5 = alloca %"struct.std::__1::__compressed_pair_elem.12"*, align 8
  call void @llvm.dbg.declare(metadata %"struct.std::__1::__compressed_pair_elem.12"** %5, metadata !7494, metadata !DIExpression()), !dbg !7811
  %6 = alloca %"class.std::__1::__compressed_pair.11"*, align 8
  call void @llvm.dbg.declare(metadata %"class.std::__1::__compressed_pair.11"** %6, metadata !7503, metadata !DIExpression()), !dbg !7816
  %7 = alloca %"class.std::__1::unique_ptr.10"*, align 8
  call void @llvm.dbg.declare(metadata %"class.std::__1::unique_ptr.10"** %7, metadata !7506, metadata !DIExpression()), !dbg !7817
  %8 = alloca %"struct.std::__1::__compressed_pair_elem"*, align 8
  call void @llvm.dbg.declare(metadata %"struct.std::__1::__compressed_pair_elem"** %8, metadata !7516, metadata !DIExpression()), !dbg !7818
  %9 = alloca %"class.std::__1::__compressed_pair"*, align 8
  call void @llvm.dbg.declare(metadata %"class.std::__1::__compressed_pair"** %9, metadata !7525, metadata !DIExpression()), !dbg !7822
  %10 = alloca %"class.std::__1::unique_ptr"*, align 8
  call void @llvm.dbg.declare(metadata %"class.std::__1::unique_ptr"** %10, metadata !7528, metadata !DIExpression()), !dbg !7823
  %11 = alloca %"struct.std::__1::__compressed_pair_elem.12"*, align 8
  call void @llvm.dbg.declare(metadata %"struct.std::__1::__compressed_pair_elem.12"** %11, metadata !7494, metadata !DIExpression()), !dbg !7824
  %12 = alloca %"class.std::__1::__compressed_pair.11"*, align 8
  call void @llvm.dbg.declare(metadata %"class.std::__1::__compressed_pair.11"** %12, metadata !7503, metadata !DIExpression()), !dbg !7829
  %13 = alloca %"class.std::__1::unique_ptr.10"*, align 8
  call void @llvm.dbg.declare(metadata %"class.std::__1::unique_ptr.10"** %13, metadata !7506, metadata !DIExpression()), !dbg !7830
  %14 = alloca %"class.std::__1::unique_ptr"*, align 8
  call void @llvm.dbg.declare(metadata %"class.std::__1::unique_ptr"** %14, metadata !7831, metadata !DIExpression()), !dbg !7840
  %15 = alloca %"struct.std::__1::__compressed_pair_elem.7"*, align 8
  call void @llvm.dbg.declare(metadata %"struct.std::__1::__compressed_pair_elem.7"** %15, metadata !7435, metadata !DIExpression()), !dbg !7842
  %16 = alloca %"class.std::__1::__compressed_pair"*, align 8
  call void @llvm.dbg.declare(metadata %"class.std::__1::__compressed_pair"** %16, metadata !7445, metadata !DIExpression()), !dbg !7851
  %17 = alloca %"class.std::__1::unique_ptr"*, align 8
  call void @llvm.dbg.declare(metadata %"class.std::__1::unique_ptr"** %17, metadata !7852, metadata !DIExpression()), !dbg !7853
  %18 = alloca %"struct.std::__1::default_delete.8"*, align 8
  call void @llvm.dbg.declare(metadata %"struct.std::__1::default_delete.8"** %18, metadata !7854, metadata !DIExpression()), !dbg !7862
  %19 = alloca %"class.altered_carbon::js::ACAstBaseNode"**, align 8
  call void @llvm.dbg.declare(metadata %"class.altered_carbon::js::ACAstBaseNode"*** %19, metadata !7349, metadata !DIExpression()), !dbg !7864
  %20 = alloca %"struct.std::__1::__compressed_pair_elem"*, align 8
  call void @llvm.dbg.declare(metadata %"struct.std::__1::__compressed_pair_elem"** %20, metadata !7383, metadata !DIExpression()), !dbg !7877
  %21 = alloca %"class.altered_carbon::js::ACAstBaseNode"**, align 8
  call void @llvm.dbg.declare(metadata %"class.altered_carbon::js::ACAstBaseNode"*** %21, metadata !7386, metadata !DIExpression()), !dbg !7878
  %22 = alloca %"struct.std::__1::default_delete.8"*, align 8
  call void @llvm.dbg.declare(metadata %"struct.std::__1::default_delete.8"** %22, metadata !7854, metadata !DIExpression()), !dbg !7879
  %23 = alloca %"struct.std::__1::default_delete.8"*, align 8
  call void @llvm.dbg.declare(metadata %"struct.std::__1::default_delete.8"** %23, metadata !7854, metadata !DIExpression()), !dbg !7881
  %24 = alloca %"struct.std::__1::__compressed_pair_elem.7"*, align 8
  call void @llvm.dbg.declare(metadata %"struct.std::__1::__compressed_pair_elem.7"** %24, metadata !7890, metadata !DIExpression()), !dbg !7891
  %25 = alloca %"struct.std::__1::default_delete.8"*, align 8
  call void @llvm.dbg.declare(metadata %"struct.std::__1::default_delete.8"** %25, metadata !7892, metadata !DIExpression()), !dbg !7893
  %26 = alloca %"class.altered_carbon::js::ACAstBaseNode"**, align 8
  call void @llvm.dbg.declare(metadata %"class.altered_carbon::js::ACAstBaseNode"*** %26, metadata !7349, metadata !DIExpression()), !dbg !7894
  %27 = alloca %"class.std::__1::__compressed_pair"*, align 8
  call void @llvm.dbg.declare(metadata %"class.std::__1::__compressed_pair"** %27, metadata !7896, metadata !DIExpression()), !dbg !7897
  %28 = alloca %"class.altered_carbon::js::ACAstBaseNode"**, align 8
  call void @llvm.dbg.declare(metadata %"class.altered_carbon::js::ACAstBaseNode"*** %28, metadata !7898, metadata !DIExpression()), !dbg !7899
  %29 = alloca %"struct.std::__1::default_delete.8"*, align 8
  call void @llvm.dbg.declare(metadata %"struct.std::__1::default_delete.8"** %29, metadata !7900, metadata !DIExpression()), !dbg !7901
  %30 = alloca %"class.std::__1::__compressed_pair"*, align 8
  call void @llvm.dbg.declare(metadata %"class.std::__1::__compressed_pair"** %30, metadata !7902, metadata !DIExpression()), !dbg !7903
  %31 = alloca %"class.altered_carbon::js::ACAstBaseNode"**, align 8
  call void @llvm.dbg.declare(metadata %"class.altered_carbon::js::ACAstBaseNode"*** %31, metadata !7904, metadata !DIExpression()), !dbg !7905
  %32 = alloca %"struct.std::__1::default_delete.8"*, align 8
  call void @llvm.dbg.declare(metadata %"struct.std::__1::default_delete.8"** %32, metadata !7906, metadata !DIExpression()), !dbg !7907
  %33 = alloca %"struct.std::__1::__compressed_pair_elem"*, align 8
  call void @llvm.dbg.declare(metadata %"struct.std::__1::__compressed_pair_elem"** %33, metadata !7447, metadata !DIExpression()), !dbg !7908
  %34 = alloca %"class.std::__1::__compressed_pair"*, align 8
  call void @llvm.dbg.declare(metadata %"class.std::__1::__compressed_pair"** %34, metadata !7453, metadata !DIExpression()), !dbg !7913
  %35 = alloca %"struct.std::__1::__compressed_pair_elem"*, align 8
  call void @llvm.dbg.declare(metadata %"struct.std::__1::__compressed_pair_elem"** %35, metadata !7447, metadata !DIExpression()), !dbg !7914
  %36 = alloca %"class.std::__1::__compressed_pair"*, align 8
  call void @llvm.dbg.declare(metadata %"class.std::__1::__compressed_pair"** %36, metadata !7453, metadata !DIExpression()), !dbg !7917
  %37 = alloca %"class.std::__1::unique_ptr"*, align 8
  call void @llvm.dbg.declare(metadata %"class.std::__1::unique_ptr"** %37, metadata !7918, metadata !DIExpression()), !dbg !7919
  %38 = alloca %"class.altered_carbon::js::ACAstBaseNode"*, align 8
  call void @llvm.dbg.declare(metadata %"class.altered_carbon::js::ACAstBaseNode"** %38, metadata !7920, metadata !DIExpression()), !dbg !7921
  %39 = alloca %"class.std::__1::unique_ptr"*, align 8
  call void @llvm.dbg.declare(metadata %"class.std::__1::unique_ptr"** %39, metadata !7922, metadata !DIExpression()), !dbg !7923
  %40 = alloca %"class.std::__1::unique_ptr"*, align 8
  call void @llvm.dbg.declare(metadata %"class.std::__1::unique_ptr"** %40, metadata !7924, metadata !DIExpression()), !dbg !7925
  %41 = alloca %"class.altered_carbon::js::ACAstBaseNode"*, align 8
  %42 = alloca %"class.std::__1::unique_ptr"*, align 8
  call void @llvm.dbg.declare(metadata %"class.std::__1::unique_ptr"** %42, metadata !7926, metadata !DIExpression()), !dbg !7927
  %43 = alloca %"class.std::__1::unique_ptr"*, align 8
  call void @llvm.dbg.declare(metadata %"class.std::__1::unique_ptr"** %43, metadata !7928, metadata !DIExpression()), !dbg !7929
  %44 = alloca %"struct.std::__1::__compressed_pair_elem.12"*, align 8
  call void @llvm.dbg.declare(metadata %"struct.std::__1::__compressed_pair_elem.12"** %44, metadata !7930, metadata !DIExpression()), !dbg !7933
  %45 = alloca %"class.std::__1::__compressed_pair.11"*, align 8
  call void @llvm.dbg.declare(metadata %"class.std::__1::__compressed_pair.11"** %45, metadata !7941, metadata !DIExpression()), !dbg !7943
  %46 = alloca %"class.altered_carbon::js::ACJsState"**, align 8
  call void @llvm.dbg.declare(metadata %"class.altered_carbon::js::ACJsState"*** %46, metadata !7944, metadata !DIExpression()), !dbg !7953
  %47 = alloca %"class.altered_carbon::js::ACJsState"**, align 8
  call void @llvm.dbg.declare(metadata %"class.altered_carbon::js::ACJsState"*** %47, metadata !7944, metadata !DIExpression()), !dbg !7960
  %48 = alloca %"class.altered_carbon::js::ACJsState"**, align 8
  call void @llvm.dbg.declare(metadata %"class.altered_carbon::js::ACJsState"*** %48, metadata !7944, metadata !DIExpression()), !dbg !7962
  %49 = alloca %"class.altered_carbon::js::ACJsState"**, align 8
  call void @llvm.dbg.declare(metadata %"class.altered_carbon::js::ACJsState"*** %49, metadata !7964, metadata !DIExpression()), !dbg !7965
  %50 = alloca %"class.altered_carbon::js::ACJsState"**, align 8
  call void @llvm.dbg.declare(metadata %"class.altered_carbon::js::ACJsState"*** %50, metadata !7966, metadata !DIExpression()), !dbg !7967
  %51 = alloca %"class.altered_carbon::js::ACJsState"*, align 8
  call void @llvm.dbg.declare(metadata %"class.altered_carbon::js::ACJsState"** %51, metadata !7968, metadata !DIExpression()), !dbg !7969
  %52 = alloca %"struct.std::__1::__compressed_pair_elem.13"*, align 8
  call void @llvm.dbg.declare(metadata %"struct.std::__1::__compressed_pair_elem.13"** %52, metadata !7970, metadata !DIExpression()), !dbg !7973
  %53 = alloca %"class.std::__1::__compressed_pair.11"*, align 8
  call void @llvm.dbg.declare(metadata %"class.std::__1::__compressed_pair.11"** %53, metadata !7977, metadata !DIExpression()), !dbg !7978
  %54 = alloca %"struct.std::__1::__compressed_pair_elem.13"*, align 8
  call void @llvm.dbg.declare(metadata %"struct.std::__1::__compressed_pair_elem.13"** %54, metadata !7970, metadata !DIExpression()), !dbg !7979
  %55 = alloca %"class.std::__1::__compressed_pair.11"*, align 8
  call void @llvm.dbg.declare(metadata %"class.std::__1::__compressed_pair.11"** %55, metadata !7977, metadata !DIExpression()), !dbg !7982
  %56 = alloca %"struct.std::__1::default_delete.14"*, align 8
  call void @llvm.dbg.declare(metadata %"struct.std::__1::default_delete.14"** %56, metadata !7983, metadata !DIExpression()), !dbg !7992
  %57 = alloca %"struct.std::__1::default_delete.14"*, align 8
  call void @llvm.dbg.declare(metadata %"struct.std::__1::default_delete.14"** %57, metadata !7983, metadata !DIExpression()), !dbg !7999
  %58 = alloca %"struct.std::__1::default_delete.14"*, align 8
  call void @llvm.dbg.declare(metadata %"struct.std::__1::default_delete.14"** %58, metadata !7983, metadata !DIExpression()), !dbg !8001
  %59 = alloca %"struct.std::__1::default_delete.14"*, align 8
  call void @llvm.dbg.declare(metadata %"struct.std::__1::default_delete.14"** %59, metadata !8003, metadata !DIExpression()), !dbg !8004
  %60 = alloca %"struct.std::__1::default_delete.14"*, align 8
  call void @llvm.dbg.declare(metadata %"struct.std::__1::default_delete.14"** %60, metadata !8005, metadata !DIExpression()), !dbg !8006
  %61 = alloca %"struct.std::__1::default_delete.14", align 1
  call void @llvm.dbg.declare(metadata %"struct.std::__1::default_delete.14"* %61, metadata !8007, metadata !DIExpression()), !dbg !8008
  %62 = alloca %"struct.std::__1::__compressed_pair_elem.12"*, align 8
  call void @llvm.dbg.declare(metadata %"struct.std::__1::__compressed_pair_elem.12"** %62, metadata !7930, metadata !DIExpression()), !dbg !8009
  %63 = alloca %"class.std::__1::__compressed_pair.11"*, align 8
  call void @llvm.dbg.declare(metadata %"class.std::__1::__compressed_pair.11"** %63, metadata !7941, metadata !DIExpression()), !dbg !8012
  %64 = alloca %"class.std::__1::__compressed_pair.11"*, align 8
  call void @llvm.dbg.declare(metadata %"class.std::__1::__compressed_pair.11"** %64, metadata !8013, metadata !DIExpression()), !dbg !8014
  %65 = alloca %"class.std::__1::__compressed_pair.11"*, align 8
  call void @llvm.dbg.declare(metadata %"class.std::__1::__compressed_pair.11"** %65, metadata !8015, metadata !DIExpression()), !dbg !8016
  %66 = alloca %"class.std::__1::unique_ptr.10"*, align 8
  call void @llvm.dbg.declare(metadata %"class.std::__1::unique_ptr.10"** %66, metadata !8017, metadata !DIExpression()), !dbg !8019
  %67 = alloca %"class.std::__1::unique_ptr.10"*, align 8
  call void @llvm.dbg.declare(metadata %"class.std::__1::unique_ptr.10"** %67, metadata !8020, metadata !DIExpression()), !dbg !8021
  %68 = alloca %"struct.std::__1::__compressed_pair_elem.7"*, align 8
  call void @llvm.dbg.declare(metadata %"struct.std::__1::__compressed_pair_elem.7"** %68, metadata !7435, metadata !DIExpression()), !dbg !8022
  %69 = alloca %"class.std::__1::__compressed_pair"*, align 8
  call void @llvm.dbg.declare(metadata %"class.std::__1::__compressed_pair"** %69, metadata !7445, metadata !DIExpression()), !dbg !8028
  %70 = alloca %"class.std::__1::unique_ptr"*, align 8
  call void @llvm.dbg.declare(metadata %"class.std::__1::unique_ptr"** %70, metadata !7852, metadata !DIExpression()), !dbg !8029
  %71 = alloca %"struct.std::__1::default_delete.8"*, align 8
  call void @llvm.dbg.declare(metadata %"struct.std::__1::default_delete.8"** %71, metadata !7854, metadata !DIExpression()), !dbg !8030
  %72 = alloca %"class.altered_carbon::js::ACAstBaseNode"**, align 8
  call void @llvm.dbg.declare(metadata %"class.altered_carbon::js::ACAstBaseNode"*** %72, metadata !7349, metadata !DIExpression()), !dbg !8032
  %73 = alloca %"struct.std::__1::__compressed_pair_elem"*, align 8
  call void @llvm.dbg.declare(metadata %"struct.std::__1::__compressed_pair_elem"** %73, metadata !7383, metadata !DIExpression()), !dbg !8037
  %74 = alloca %"class.altered_carbon::js::ACAstBaseNode"**, align 8
  call void @llvm.dbg.declare(metadata %"class.altered_carbon::js::ACAstBaseNode"*** %74, metadata !7386, metadata !DIExpression()), !dbg !8038
  %75 = alloca %"struct.std::__1::default_delete.8"*, align 8
  call void @llvm.dbg.declare(metadata %"struct.std::__1::default_delete.8"** %75, metadata !7854, metadata !DIExpression()), !dbg !8039
  %76 = alloca %"struct.std::__1::default_delete.8"*, align 8
  call void @llvm.dbg.declare(metadata %"struct.std::__1::default_delete.8"** %76, metadata !7854, metadata !DIExpression()), !dbg !8041
  %77 = alloca %"struct.std::__1::__compressed_pair_elem.7"*, align 8
  call void @llvm.dbg.declare(metadata %"struct.std::__1::__compressed_pair_elem.7"** %77, metadata !7890, metadata !DIExpression()), !dbg !8044
  %78 = alloca %"struct.std::__1::default_delete.8"*, align 8
  call void @llvm.dbg.declare(metadata %"struct.std::__1::default_delete.8"** %78, metadata !7892, metadata !DIExpression()), !dbg !8045
  %79 = alloca %"class.altered_carbon::js::ACAstBaseNode"**, align 8
  call void @llvm.dbg.declare(metadata %"class.altered_carbon::js::ACAstBaseNode"*** %79, metadata !7349, metadata !DIExpression()), !dbg !8046
  %80 = alloca %"class.std::__1::__compressed_pair"*, align 8
  call void @llvm.dbg.declare(metadata %"class.std::__1::__compressed_pair"** %80, metadata !7896, metadata !DIExpression()), !dbg !8048
  %81 = alloca %"class.altered_carbon::js::ACAstBaseNode"**, align 8
  call void @llvm.dbg.declare(metadata %"class.altered_carbon::js::ACAstBaseNode"*** %81, metadata !7898, metadata !DIExpression()), !dbg !8049
  %82 = alloca %"struct.std::__1::default_delete.8"*, align 8
  call void @llvm.dbg.declare(metadata %"struct.std::__1::default_delete.8"** %82, metadata !7900, metadata !DIExpression()), !dbg !8050
  %83 = alloca %"class.std::__1::__compressed_pair"*, align 8
  call void @llvm.dbg.declare(metadata %"class.std::__1::__compressed_pair"** %83, metadata !7902, metadata !DIExpression()), !dbg !8051
  %84 = alloca %"class.altered_carbon::js::ACAstBaseNode"**, align 8
  call void @llvm.dbg.declare(metadata %"class.altered_carbon::js::ACAstBaseNode"*** %84, metadata !7904, metadata !DIExpression()), !dbg !8052
  %85 = alloca %"struct.std::__1::default_delete.8"*, align 8
  call void @llvm.dbg.declare(metadata %"struct.std::__1::default_delete.8"** %85, metadata !7906, metadata !DIExpression()), !dbg !8053
  %86 = alloca %"struct.std::__1::__compressed_pair_elem"*, align 8
  call void @llvm.dbg.declare(metadata %"struct.std::__1::__compressed_pair_elem"** %86, metadata !7447, metadata !DIExpression()), !dbg !8054
  %87 = alloca %"class.std::__1::__compressed_pair"*, align 8
  call void @llvm.dbg.declare(metadata %"class.std::__1::__compressed_pair"** %87, metadata !7453, metadata !DIExpression()), !dbg !8058
  %88 = alloca %"struct.std::__1::__compressed_pair_elem"*, align 8
  call void @llvm.dbg.declare(metadata %"struct.std::__1::__compressed_pair_elem"** %88, metadata !7447, metadata !DIExpression()), !dbg !8059
  %89 = alloca %"class.std::__1::__compressed_pair"*, align 8
  call void @llvm.dbg.declare(metadata %"class.std::__1::__compressed_pair"** %89, metadata !7453, metadata !DIExpression()), !dbg !8062
  %90 = alloca %"class.std::__1::unique_ptr"*, align 8
  call void @llvm.dbg.declare(metadata %"class.std::__1::unique_ptr"** %90, metadata !7918, metadata !DIExpression()), !dbg !8063
  %91 = alloca %"class.altered_carbon::js::ACAstBaseNode"*, align 8
  call void @llvm.dbg.declare(metadata %"class.altered_carbon::js::ACAstBaseNode"** %91, metadata !7920, metadata !DIExpression()), !dbg !8064
  %92 = alloca %"class.std::__1::unique_ptr"*, align 8
  call void @llvm.dbg.declare(metadata %"class.std::__1::unique_ptr"** %92, metadata !7922, metadata !DIExpression()), !dbg !8065
  %93 = alloca %"class.std::__1::unique_ptr"*, align 8
  call void @llvm.dbg.declare(metadata %"class.std::__1::unique_ptr"** %93, metadata !7924, metadata !DIExpression()), !dbg !8066
  %94 = alloca %"class.altered_carbon::js::ACAstBaseNode"*, align 8
  %95 = alloca %"class.std::__1::unique_ptr"*, align 8
  call void @llvm.dbg.declare(metadata %"class.std::__1::unique_ptr"** %95, metadata !7926, metadata !DIExpression()), !dbg !8067
  %96 = alloca %"class.std::__1::unique_ptr"*, align 8
  call void @llvm.dbg.declare(metadata %"class.std::__1::unique_ptr"** %96, metadata !7928, metadata !DIExpression()), !dbg !8068
  %97 = alloca %"struct.std::__1::__compressed_pair_elem.12"*, align 8
  call void @llvm.dbg.declare(metadata %"struct.std::__1::__compressed_pair_elem.12"** %97, metadata !7494, metadata !DIExpression()), !dbg !8069
  %98 = alloca %"class.std::__1::__compressed_pair.11"*, align 8
  call void @llvm.dbg.declare(metadata %"class.std::__1::__compressed_pair.11"** %98, metadata !7503, metadata !DIExpression()), !dbg !8075
  %99 = alloca %"class.std::__1::unique_ptr.10"*, align 8
  call void @llvm.dbg.declare(metadata %"class.std::__1::unique_ptr.10"** %99, metadata !7506, metadata !DIExpression()), !dbg !8076
  %100 = alloca %"struct.std::__1::__compressed_pair_elem.7"*, align 8
  call void @llvm.dbg.declare(metadata %"struct.std::__1::__compressed_pair_elem.7"** %100, metadata !7435, metadata !DIExpression()), !dbg !8077
  %101 = alloca %"class.std::__1::__compressed_pair"*, align 8
  call void @llvm.dbg.declare(metadata %"class.std::__1::__compressed_pair"** %101, metadata !7445, metadata !DIExpression()), !dbg !8086
  %102 = alloca %"struct.std::__1::__compressed_pair_elem"*, align 8
  call void @llvm.dbg.declare(metadata %"struct.std::__1::__compressed_pair_elem"** %102, metadata !7447, metadata !DIExpression()), !dbg !8087
  %103 = alloca %"class.std::__1::__compressed_pair"*, align 8
  call void @llvm.dbg.declare(metadata %"class.std::__1::__compressed_pair"** %103, metadata !7453, metadata !DIExpression()), !dbg !8090
  %104 = alloca %"struct.std::__1::default_delete.8"*, align 8
  call void @llvm.dbg.declare(metadata %"struct.std::__1::default_delete.8"** %104, metadata !7455, metadata !DIExpression()), !dbg !8091
  %105 = alloca %"class.altered_carbon::js::ACAstBaseNode"*, align 8
  call void @llvm.dbg.declare(metadata %"class.altered_carbon::js::ACAstBaseNode"** %105, metadata !7460, metadata !DIExpression()), !dbg !8093
  %106 = alloca %"struct.std::__1::__compressed_pair_elem"*, align 8
  call void @llvm.dbg.declare(metadata %"struct.std::__1::__compressed_pair_elem"** %106, metadata !7447, metadata !DIExpression()), !dbg !8094
  %107 = alloca %"class.std::__1::__compressed_pair"*, align 8
  call void @llvm.dbg.declare(metadata %"class.std::__1::__compressed_pair"** %107, metadata !7453, metadata !DIExpression()), !dbg !8097
  %108 = alloca %"class.std::__1::unique_ptr"*, align 8
  call void @llvm.dbg.declare(metadata %"class.std::__1::unique_ptr"** %108, metadata !7466, metadata !DIExpression()), !dbg !8098
  %109 = alloca %"class.altered_carbon::js::ACAstBaseNode"*, align 8
  call void @llvm.dbg.declare(metadata %"class.altered_carbon::js::ACAstBaseNode"** %109, metadata !7468, metadata !DIExpression()), !dbg !8099
  %110 = alloca %"class.altered_carbon::js::ACAstBaseNode"*, align 8
  call void @llvm.dbg.declare(metadata %"class.altered_carbon::js::ACAstBaseNode"** %110, metadata !7470, metadata !DIExpression()), !dbg !8100
  %111 = alloca %"class.std::__1::unique_ptr"*, align 8
  call void @llvm.dbg.declare(metadata %"class.std::__1::unique_ptr"** %111, metadata !8101, metadata !DIExpression()), !dbg !8102
  %112 = alloca %"class.std::__1::unique_ptr"*, align 8
  call void @llvm.dbg.declare(metadata %"class.std::__1::unique_ptr"** %112, metadata !8103, metadata !DIExpression()), !dbg !8104
  %113 = alloca %"struct.std::__1::__compressed_pair_elem.12"*, align 8
  call void @llvm.dbg.declare(metadata %"struct.std::__1::__compressed_pair_elem.12"** %113, metadata !7494, metadata !DIExpression()), !dbg !8105
  %114 = alloca %"class.std::__1::__compressed_pair.11"*, align 8
  call void @llvm.dbg.declare(metadata %"class.std::__1::__compressed_pair.11"** %114, metadata !7503, metadata !DIExpression()), !dbg !8110
  %115 = alloca %"class.std::__1::unique_ptr.10"*, align 8
  call void @llvm.dbg.declare(metadata %"class.std::__1::unique_ptr.10"** %115, metadata !7506, metadata !DIExpression()), !dbg !8111
  %116 = alloca %"struct.std::__1::__compressed_pair_elem.13"*, align 8
  call void @llvm.dbg.declare(metadata %"struct.std::__1::__compressed_pair_elem.13"** %116, metadata !7970, metadata !DIExpression()), !dbg !8112
  %117 = alloca %"class.std::__1::__compressed_pair.11"*, align 8
  call void @llvm.dbg.declare(metadata %"class.std::__1::__compressed_pair.11"** %117, metadata !7977, metadata !DIExpression()), !dbg !8123
  %118 = alloca %"struct.std::__1::__compressed_pair_elem.12"*, align 8
  call void @llvm.dbg.declare(metadata %"struct.std::__1::__compressed_pair_elem.12"** %118, metadata !7930, metadata !DIExpression()), !dbg !8124
  %119 = alloca %"class.std::__1::__compressed_pair.11"*, align 8
  call void @llvm.dbg.declare(metadata %"class.std::__1::__compressed_pair.11"** %119, metadata !7941, metadata !DIExpression()), !dbg !8127
  %120 = alloca %"struct.std::__1::default_delete.14"*, align 8
  call void @llvm.dbg.declare(metadata %"struct.std::__1::default_delete.14"** %120, metadata !8128, metadata !DIExpression()), !dbg !8131
  %121 = alloca %"class.altered_carbon::js::ACJsState"*, align 8
  call void @llvm.dbg.declare(metadata %"class.altered_carbon::js::ACJsState"** %121, metadata !8133, metadata !DIExpression()), !dbg !8134
  %122 = alloca %"struct.std::__1::__compressed_pair_elem.12"*, align 8
  call void @llvm.dbg.declare(metadata %"struct.std::__1::__compressed_pair_elem.12"** %122, metadata !7930, metadata !DIExpression()), !dbg !8135
  %123 = alloca %"class.std::__1::__compressed_pair.11"*, align 8
  call void @llvm.dbg.declare(metadata %"class.std::__1::__compressed_pair.11"** %123, metadata !7941, metadata !DIExpression()), !dbg !8138
  %124 = alloca %"class.std::__1::unique_ptr.10"*, align 8
  call void @llvm.dbg.declare(metadata %"class.std::__1::unique_ptr.10"** %124, metadata !8139, metadata !DIExpression()), !dbg !8140
  %125 = alloca %"class.altered_carbon::js::ACJsState"*, align 8
  call void @llvm.dbg.declare(metadata %"class.altered_carbon::js::ACJsState"** %125, metadata !8141, metadata !DIExpression()), !dbg !8142
  %126 = alloca %"class.altered_carbon::js::ACJsState"*, align 8
  call void @llvm.dbg.declare(metadata %"class.altered_carbon::js::ACJsState"** %126, metadata !8143, metadata !DIExpression()), !dbg !8144
  %127 = alloca %"class.std::__1::unique_ptr.10"*, align 8
  call void @llvm.dbg.declare(metadata %"class.std::__1::unique_ptr.10"** %127, metadata !8145, metadata !DIExpression()), !dbg !8146
  %128 = alloca %"class.std::__1::unique_ptr.10"*, align 8
  call void @llvm.dbg.declare(metadata %"class.std::__1::unique_ptr.10"** %128, metadata !8147, metadata !DIExpression()), !dbg !8148
  %129 = alloca %"struct.std::__1::__compressed_pair_elem.12"*, align 8
  call void @llvm.dbg.declare(metadata %"struct.std::__1::__compressed_pair_elem.12"** %129, metadata !7930, metadata !DIExpression()), !dbg !8149
  %130 = alloca %"class.std::__1::__compressed_pair.11"*, align 8
  call void @llvm.dbg.declare(metadata %"class.std::__1::__compressed_pair.11"** %130, metadata !7941, metadata !DIExpression()), !dbg !8154
  %131 = alloca %"class.altered_carbon::js::ACJsState"**, align 8
  call void @llvm.dbg.declare(metadata %"class.altered_carbon::js::ACJsState"*** %131, metadata !7944, metadata !DIExpression()), !dbg !8155
  %132 = alloca %"class.altered_carbon::js::ACJsState"**, align 8
  call void @llvm.dbg.declare(metadata %"class.altered_carbon::js::ACJsState"*** %132, metadata !7944, metadata !DIExpression()), !dbg !8158
  %133 = alloca %"class.altered_carbon::js::ACJsState"**, align 8
  call void @llvm.dbg.declare(metadata %"class.altered_carbon::js::ACJsState"*** %133, metadata !7944, metadata !DIExpression()), !dbg !8160
  %134 = alloca %"class.altered_carbon::js::ACJsState"**, align 8
  call void @llvm.dbg.declare(metadata %"class.altered_carbon::js::ACJsState"*** %134, metadata !7964, metadata !DIExpression()), !dbg !8162
  %135 = alloca %"class.altered_carbon::js::ACJsState"**, align 8
  call void @llvm.dbg.declare(metadata %"class.altered_carbon::js::ACJsState"*** %135, metadata !7966, metadata !DIExpression()), !dbg !8163
  %136 = alloca %"class.altered_carbon::js::ACJsState"*, align 8
  call void @llvm.dbg.declare(metadata %"class.altered_carbon::js::ACJsState"** %136, metadata !7968, metadata !DIExpression()), !dbg !8164
  %137 = alloca %"struct.std::__1::__compressed_pair_elem.13"*, align 8
  call void @llvm.dbg.declare(metadata %"struct.std::__1::__compressed_pair_elem.13"** %137, metadata !7970, metadata !DIExpression()), !dbg !8165
  %138 = alloca %"class.std::__1::__compressed_pair.11"*, align 8
  call void @llvm.dbg.declare(metadata %"class.std::__1::__compressed_pair.11"** %138, metadata !7977, metadata !DIExpression()), !dbg !8168
  %139 = alloca %"struct.std::__1::__compressed_pair_elem.13"*, align 8
  call void @llvm.dbg.declare(metadata %"struct.std::__1::__compressed_pair_elem.13"** %139, metadata !7970, metadata !DIExpression()), !dbg !8169
  %140 = alloca %"class.std::__1::__compressed_pair.11"*, align 8
  call void @llvm.dbg.declare(metadata %"class.std::__1::__compressed_pair.11"** %140, metadata !7977, metadata !DIExpression()), !dbg !8172
  %141 = alloca %"struct.std::__1::default_delete.14"*, align 8
  call void @llvm.dbg.declare(metadata %"struct.std::__1::default_delete.14"** %141, metadata !7983, metadata !DIExpression()), !dbg !8173
  %142 = alloca %"struct.std::__1::default_delete.14"*, align 8
  call void @llvm.dbg.declare(metadata %"struct.std::__1::default_delete.14"** %142, metadata !7983, metadata !DIExpression()), !dbg !8176
  %143 = alloca %"struct.std::__1::default_delete.14"*, align 8
  call void @llvm.dbg.declare(metadata %"struct.std::__1::default_delete.14"** %143, metadata !7983, metadata !DIExpression()), !dbg !8178
  %144 = alloca %"struct.std::__1::default_delete.14"*, align 8
  call void @llvm.dbg.declare(metadata %"struct.std::__1::default_delete.14"** %144, metadata !8003, metadata !DIExpression()), !dbg !8180
  %145 = alloca %"struct.std::__1::default_delete.14"*, align 8
  call void @llvm.dbg.declare(metadata %"struct.std::__1::default_delete.14"** %145, metadata !8005, metadata !DIExpression()), !dbg !8181
  %146 = alloca %"struct.std::__1::default_delete.14", align 1
  call void @llvm.dbg.declare(metadata %"struct.std::__1::default_delete.14"* %146, metadata !8007, metadata !DIExpression()), !dbg !8182
  %147 = alloca %"struct.std::__1::__compressed_pair_elem.12"*, align 8
  call void @llvm.dbg.declare(metadata %"struct.std::__1::__compressed_pair_elem.12"** %147, metadata !7930, metadata !DIExpression()), !dbg !8183
  %148 = alloca %"class.std::__1::__compressed_pair.11"*, align 8
  call void @llvm.dbg.declare(metadata %"class.std::__1::__compressed_pair.11"** %148, metadata !7941, metadata !DIExpression()), !dbg !8186
  %149 = alloca %"class.std::__1::__compressed_pair.11"*, align 8
  call void @llvm.dbg.declare(metadata %"class.std::__1::__compressed_pair.11"** %149, metadata !8013, metadata !DIExpression()), !dbg !8187
  %150 = alloca %"class.std::__1::__compressed_pair.11"*, align 8
  call void @llvm.dbg.declare(metadata %"class.std::__1::__compressed_pair.11"** %150, metadata !8015, metadata !DIExpression()), !dbg !8188
  %151 = alloca %"class.std::__1::unique_ptr.10"*, align 8
  call void @llvm.dbg.declare(metadata %"class.std::__1::unique_ptr.10"** %151, metadata !8017, metadata !DIExpression()), !dbg !8189
  %152 = alloca %"class.std::__1::unique_ptr.10"*, align 8
  call void @llvm.dbg.declare(metadata %"class.std::__1::unique_ptr.10"** %152, metadata !8020, metadata !DIExpression()), !dbg !8190
  %153 = alloca { i64, i64 }, align 8
  %154 = alloca %"class.altered_carbon::js::ACAstBuilder"*, align 8
  %155 = alloca { i64, i64 }, align 8
  %156 = alloca %"class.std::__1::unique_ptr.10", align 8
  %157 = alloca %"class.std::__1::unique_ptr", align 8
  %158 = alloca i32
  %159 = getelementptr inbounds { i64, i64 }, { i64, i64 }* %153, i32 0, i32 0
  store i64 %2, i64* %159, align 8
  %160 = getelementptr inbounds { i64, i64 }, { i64, i64 }* %153, i32 0, i32 1
  store i64 %3, i64* %160, align 8
  %161 = load { i64, i64 }, { i64, i64 }* %153, align 8
  store %"class.altered_carbon::js::ACAstBuilder"* %1, %"class.altered_carbon::js::ACAstBuilder"** %154, align 8
  call void @llvm.dbg.declare(metadata %"class.altered_carbon::js::ACAstBuilder"** %154, metadata !8191, metadata !DIExpression()), !dbg !8193
  store { i64, i64 } %161, { i64, i64 }* %155, align 8
  call void @llvm.dbg.declare(metadata { i64, i64 }* %155, metadata !8194, metadata !DIExpression()), !dbg !8195
  %162 = load %"class.altered_carbon::js::ACAstBuilder"*, %"class.altered_carbon::js::ACAstBuilder"** %154, align 8
  call void @llvm.dbg.declare(metadata %"class.std::__1::unique_ptr.10"* %156, metadata !8196, metadata !DIExpression()), !dbg !8197
  call void @_ZN4llvm11make_uniqueIN14altered_carbon2js9ACJsStateEJEEENSt3__19enable_ifIXntsr3std8is_arrayIT_EE5valueENS4_10unique_ptrIS6_NS4_14default_deleteIS6_EEEEE4typeEDpOT0_(%"class.std::__1::unique_ptr.10"* sret %156), !dbg !8198
  %163 = getelementptr inbounds %"class.altered_carbon::js::ACAstBuilder", %"class.altered_carbon::js::ACAstBuilder"* %162, i32 0, i32 1, !dbg !8199
  store %"class.std::__1::unique_ptr.10"* %156, %"class.std::__1::unique_ptr.10"** %151, align 8
  store %"class.std::__1::unique_ptr.10"* %163, %"class.std::__1::unique_ptr.10"** %152, align 8
  %164 = load %"class.std::__1::unique_ptr.10"*, %"class.std::__1::unique_ptr.10"** %151, align 8
  %165 = getelementptr inbounds %"class.std::__1::unique_ptr.10", %"class.std::__1::unique_ptr.10"* %164, i32 0, i32 0, !dbg !8200
  %166 = load %"class.std::__1::unique_ptr.10"*, %"class.std::__1::unique_ptr.10"** %152, align 8, !dbg !8201
  %167 = getelementptr inbounds %"class.std::__1::unique_ptr.10", %"class.std::__1::unique_ptr.10"* %166, i32 0, i32 0, !dbg !8202
  store %"class.std::__1::__compressed_pair.11"* %165, %"class.std::__1::__compressed_pair.11"** %149, align 8
  store %"class.std::__1::__compressed_pair.11"* %167, %"class.std::__1::__compressed_pair.11"** %150, align 8
  %168 = load %"class.std::__1::__compressed_pair.11"*, %"class.std::__1::__compressed_pair.11"** %149, align 8
  store %"class.std::__1::__compressed_pair.11"* %168, %"class.std::__1::__compressed_pair.11"** %148, align 8
  %169 = load %"class.std::__1::__compressed_pair.11"*, %"class.std::__1::__compressed_pair.11"** %148, align 8
  %170 = bitcast %"class.std::__1::__compressed_pair.11"* %169 to %"struct.std::__1::__compressed_pair_elem.12"*, !dbg !8203
  store %"struct.std::__1::__compressed_pair_elem.12"* %170, %"struct.std::__1::__compressed_pair_elem.12"** %147, align 8
  %171 = load %"struct.std::__1::__compressed_pair_elem.12"*, %"struct.std::__1::__compressed_pair_elem.12"** %147, align 8
  %172 = getelementptr inbounds %"struct.std::__1::__compressed_pair_elem.12", %"struct.std::__1::__compressed_pair_elem.12"* %171, i32 0, i32 0, !dbg !8204
  %173 = load %"class.std::__1::__compressed_pair.11"*, %"class.std::__1::__compressed_pair.11"** %150, align 8, !dbg !8205
  store %"class.std::__1::__compressed_pair.11"* %173, %"class.std::__1::__compressed_pair.11"** %130, align 8
  %174 = load %"class.std::__1::__compressed_pair.11"*, %"class.std::__1::__compressed_pair.11"** %130, align 8
  %175 = bitcast %"class.std::__1::__compressed_pair.11"* %174 to %"struct.std::__1::__compressed_pair_elem.12"*, !dbg !8206
  store %"struct.std::__1::__compressed_pair_elem.12"* %175, %"struct.std::__1::__compressed_pair_elem.12"** %129, align 8
  %176 = load %"struct.std::__1::__compressed_pair_elem.12"*, %"struct.std::__1::__compressed_pair_elem.12"** %129, align 8
  %177 = getelementptr inbounds %"struct.std::__1::__compressed_pair_elem.12", %"struct.std::__1::__compressed_pair_elem.12"* %176, i32 0, i32 0, !dbg !8207
  store %"class.altered_carbon::js::ACJsState"** %172, %"class.altered_carbon::js::ACJsState"*** %134, align 8
  store %"class.altered_carbon::js::ACJsState"** %177, %"class.altered_carbon::js::ACJsState"*** %135, align 8
  %178 = load %"class.altered_carbon::js::ACJsState"**, %"class.altered_carbon::js::ACJsState"*** %134, align 8, !dbg !8208
  store %"class.altered_carbon::js::ACJsState"** %178, %"class.altered_carbon::js::ACJsState"*** %133, align 8
  %179 = load %"class.altered_carbon::js::ACJsState"**, %"class.altered_carbon::js::ACJsState"*** %133, align 8, !dbg !8209
  %180 = load %"class.altered_carbon::js::ACJsState"*, %"class.altered_carbon::js::ACJsState"** %179, align 8, !dbg !8210
  store %"class.altered_carbon::js::ACJsState"* %180, %"class.altered_carbon::js::ACJsState"** %136, align 8, !dbg !8164
  %181 = load %"class.altered_carbon::js::ACJsState"**, %"class.altered_carbon::js::ACJsState"*** %135, align 8, !dbg !8211
  store %"class.altered_carbon::js::ACJsState"** %181, %"class.altered_carbon::js::ACJsState"*** %131, align 8
  %182 = load %"class.altered_carbon::js::ACJsState"**, %"class.altered_carbon::js::ACJsState"*** %131, align 8, !dbg !8212
  %183 = load %"class.altered_carbon::js::ACJsState"*, %"class.altered_carbon::js::ACJsState"** %182, align 8, !dbg !8213
  %184 = load %"class.altered_carbon::js::ACJsState"**, %"class.altered_carbon::js::ACJsState"*** %134, align 8, !dbg !8214
  store %"class.altered_carbon::js::ACJsState"* %183, %"class.altered_carbon::js::ACJsState"** %184, align 8, !dbg !8215
  store %"class.altered_carbon::js::ACJsState"** %136, %"class.altered_carbon::js::ACJsState"*** %132, align 8
  %185 = load %"class.altered_carbon::js::ACJsState"**, %"class.altered_carbon::js::ACJsState"*** %132, align 8, !dbg !8216
  %186 = load %"class.altered_carbon::js::ACJsState"*, %"class.altered_carbon::js::ACJsState"** %185, align 8, !dbg !8217
  %187 = load %"class.altered_carbon::js::ACJsState"**, %"class.altered_carbon::js::ACJsState"*** %135, align 8, !dbg !8218
  store %"class.altered_carbon::js::ACJsState"* %186, %"class.altered_carbon::js::ACJsState"** %187, align 8, !dbg !8219
  store %"class.std::__1::__compressed_pair.11"* %168, %"class.std::__1::__compressed_pair.11"** %138, align 8
  %188 = load %"class.std::__1::__compressed_pair.11"*, %"class.std::__1::__compressed_pair.11"** %138, align 8
  %189 = bitcast %"class.std::__1::__compressed_pair.11"* %188 to %"struct.std::__1::__compressed_pair_elem.13"*, !dbg !8220
  store %"struct.std::__1::__compressed_pair_elem.13"* %189, %"struct.std::__1::__compressed_pair_elem.13"** %137, align 8
  %190 = load %"struct.std::__1::__compressed_pair_elem.13"*, %"struct.std::__1::__compressed_pair_elem.13"** %137, align 8
  %191 = bitcast %"struct.std::__1::__compressed_pair_elem.13"* %190 to %"struct.std::__1::default_delete.14"*, !dbg !8221
  %192 = load %"class.std::__1::__compressed_pair.11"*, %"class.std::__1::__compressed_pair.11"** %150, align 8, !dbg !8222
  store %"class.std::__1::__compressed_pair.11"* %192, %"class.std::__1::__compressed_pair.11"** %140, align 8
  %193 = load %"class.std::__1::__compressed_pair.11"*, %"class.std::__1::__compressed_pair.11"** %140, align 8
  %194 = bitcast %"class.std::__1::__compressed_pair.11"* %193 to %"struct.std::__1::__compressed_pair_elem.13"*, !dbg !8223
  store %"struct.std::__1::__compressed_pair_elem.13"* %194, %"struct.std::__1::__compressed_pair_elem.13"** %139, align 8
  %195 = load %"struct.std::__1::__compressed_pair_elem.13"*, %"struct.std::__1::__compressed_pair_elem.13"** %139, align 8
  %196 = bitcast %"struct.std::__1::__compressed_pair_elem.13"* %195 to %"struct.std::__1::default_delete.14"*, !dbg !8224
  store %"struct.std::__1::default_delete.14"* %191, %"struct.std::__1::default_delete.14"** %144, align 8
  store %"struct.std::__1::default_delete.14"* %196, %"struct.std::__1::default_delete.14"** %145, align 8
  %197 = load %"struct.std::__1::default_delete.14"*, %"struct.std::__1::default_delete.14"** %144, align 8, !dbg !8225
  store %"struct.std::__1::default_delete.14"* %197, %"struct.std::__1::default_delete.14"** %143, align 8
  %198 = load %"struct.std::__1::default_delete.14"*, %"struct.std::__1::default_delete.14"** %143, align 8, !dbg !8226
  %199 = load %"struct.std::__1::default_delete.14"*, %"struct.std::__1::default_delete.14"** %145, align 8, !dbg !8227
  store %"struct.std::__1::default_delete.14"* %199, %"struct.std::__1::default_delete.14"** %141, align 8
  %200 = load %"struct.std::__1::default_delete.14"*, %"struct.std::__1::default_delete.14"** %141, align 8, !dbg !8228
  %201 = load %"struct.std::__1::default_delete.14"*, %"struct.std::__1::default_delete.14"** %144, align 8, !dbg !8229
  store %"struct.std::__1::default_delete.14"* %146, %"struct.std::__1::default_delete.14"** %142, align 8
  %202 = load %"struct.std::__1::default_delete.14"*, %"struct.std::__1::default_delete.14"** %142, align 8, !dbg !8230
  %203 = load %"struct.std::__1::default_delete.14"*, %"struct.std::__1::default_delete.14"** %145, align 8, !dbg !8231
  %204 = getelementptr inbounds %"class.altered_carbon::js::ACAstBuilder", %"class.altered_carbon::js::ACAstBuilder"* %162, i32 0, i32 1, !dbg !8232
  store %"class.std::__1::unique_ptr.10"* %204, %"class.std::__1::unique_ptr.10"** %115, align 8
  %205 = load %"class.std::__1::unique_ptr.10"*, %"class.std::__1::unique_ptr.10"** %115, align 8
  %206 = getelementptr inbounds %"class.std::__1::unique_ptr.10", %"class.std::__1::unique_ptr.10"* %205, i32 0, i32 0, !dbg !8233
  store %"class.std::__1::__compressed_pair.11"* %206, %"class.std::__1::__compressed_pair.11"** %114, align 8
  %207 = load %"class.std::__1::__compressed_pair.11"*, %"class.std::__1::__compressed_pair.11"** %114, align 8
  %208 = bitcast %"class.std::__1::__compressed_pair.11"* %207 to %"struct.std::__1::__compressed_pair_elem.12"*, !dbg !8234
  store %"struct.std::__1::__compressed_pair_elem.12"* %208, %"struct.std::__1::__compressed_pair_elem.12"** %113, align 8
  %209 = load %"struct.std::__1::__compressed_pair_elem.12"*, %"struct.std::__1::__compressed_pair_elem.12"** %113, align 8
  %210 = getelementptr inbounds %"struct.std::__1::__compressed_pair_elem.12", %"struct.std::__1::__compressed_pair_elem.12"* %209, i32 0, i32 0, !dbg !8235
  %211 = load %"class.altered_carbon::js::ACJsState"*, %"class.altered_carbon::js::ACJsState"** %210, align 8, !dbg !8236
  %212 = getelementptr inbounds %"class.altered_carbon::js::ACJsState", %"class.altered_carbon::js::ACJsState"* %211, i32 0, i32 2, !dbg !8232
  store i8 1, i8* %212, align 1, !dbg !8232
  br label %213, !dbg !8237

; <label>:213:                                    ; preds = %214, %4
  br i1 false, label %214, label %215, !dbg !8237

; <label>:214:                                    ; preds = %213
  br label %213, !dbg !8237, !llvm.loop !8238

; <label>:215:                                    ; preds = %213
  %216 = getelementptr inbounds %"class.altered_carbon::js::ACAstBuilder", %"class.altered_carbon::js::ACAstBuilder"* %162, i32 0, i32 1, !dbg !8239
  store %"class.std::__1::unique_ptr.10"* %216, %"class.std::__1::unique_ptr.10"** %99, align 8
  %217 = load %"class.std::__1::unique_ptr.10"*, %"class.std::__1::unique_ptr.10"** %99, align 8
  %218 = getelementptr inbounds %"class.std::__1::unique_ptr.10", %"class.std::__1::unique_ptr.10"* %217, i32 0, i32 0, !dbg !8240
  store %"class.std::__1::__compressed_pair.11"* %218, %"class.std::__1::__compressed_pair.11"** %98, align 8
  %219 = load %"class.std::__1::__compressed_pair.11"*, %"class.std::__1::__compressed_pair.11"** %98, align 8
  %220 = bitcast %"class.std::__1::__compressed_pair.11"* %219 to %"struct.std::__1::__compressed_pair_elem.12"*, !dbg !8241
  store %"struct.std::__1::__compressed_pair_elem.12"* %220, %"struct.std::__1::__compressed_pair_elem.12"** %97, align 8
  %221 = load %"struct.std::__1::__compressed_pair_elem.12"*, %"struct.std::__1::__compressed_pair_elem.12"** %97, align 8
  %222 = getelementptr inbounds %"struct.std::__1::__compressed_pair_elem.12", %"struct.std::__1::__compressed_pair_elem.12"* %221, i32 0, i32 0, !dbg !8242
  %223 = load %"class.altered_carbon::js::ACJsState"*, %"class.altered_carbon::js::ACJsState"** %222, align 8, !dbg !8243
  %224 = getelementptr inbounds %"class.altered_carbon::js::ACJsState", %"class.altered_carbon::js::ACJsState"* %223, i32 0, i32 1, !dbg !8239
  store i8 1, i8* %224, align 8, !dbg !8239
  br label %225, !dbg !8237

; <label>:225:                                    ; preds = %226, %215
  br i1 false, label %226, label %227, !dbg !8237

; <label>:226:                                    ; preds = %225
  br label %225, !dbg !8237, !llvm.loop !8244

; <label>:227:                                    ; preds = %225
  br label %228, !dbg !8245

; <label>:228:                                    ; preds = %229, %227
  br i1 false, label %229, label %230, !dbg !8245

; <label>:229:                                    ; preds = %228
  br label %228, !dbg !8245, !llvm.loop !8246

; <label>:230:                                    ; preds = %228
  call void @llvm.dbg.declare(metadata %"class.std::__1::unique_ptr"* %157, metadata !8248, metadata !DIExpression()), !dbg !8249
  %231 = load { i64, i64 }, { i64, i64 }* %155, align 8, !dbg !8250
  %232 = extractvalue { i64, i64 } %231, 1, !dbg !8251
  %233 = bitcast %"class.altered_carbon::js::ACAstBuilder"* %162 to i8*, !dbg !8251
  %234 = getelementptr inbounds i8, i8* %233, i64 %232, !dbg !8251
  %235 = bitcast i8* %234 to %"class.altered_carbon::js::ACAstBuilder"*, !dbg !8251
  %236 = extractvalue { i64, i64 } %231, 0, !dbg !8251
  %237 = and i64 %236, 1, !dbg !8251
  %238 = icmp ne i64 %237, 0, !dbg !8251
  br i1 %238, label %239, label %246, !dbg !8251

; <label>:239:                                    ; preds = %230
  %240 = bitcast %"class.altered_carbon::js::ACAstBuilder"* %235 to i8**, !dbg !8251
  %241 = load i8*, i8** %240, align 8, !dbg !8251
  %242 = sub i64 %236, 1, !dbg !8251
  %243 = getelementptr i8, i8* %241, i64 %242, !dbg !8251
  %244 = bitcast i8* %243 to void (%"class.std::__1::unique_ptr"*, %"class.altered_carbon::js::ACAstBuilder"*)**, !dbg !8251
  %245 = load void (%"class.std::__1::unique_ptr"*, %"class.altered_carbon::js::ACAstBuilder"*)*, void (%"class.std::__1::unique_ptr"*, %"class.altered_carbon::js::ACAstBuilder"*)** %244, align 8, !dbg !8251
  br label %248, !dbg !8251

; <label>:246:                                    ; preds = %230
  %247 = inttoptr i64 %236 to void (%"class.std::__1::unique_ptr"*, %"class.altered_carbon::js::ACAstBuilder"*)*, !dbg !8251
  br label %248, !dbg !8251

; <label>:248:                                    ; preds = %246, %239
  %249 = phi void (%"class.std::__1::unique_ptr"*, %"class.altered_carbon::js::ACAstBuilder"*)* [ %245, %239 ], [ %247, %246 ], !dbg !8251
  call void %249(%"class.std::__1::unique_ptr"* sret %157, %"class.altered_carbon::js::ACAstBuilder"* %235), !dbg !8251
  %250 = getelementptr inbounds %"class.altered_carbon::js::ACAstBuilder", %"class.altered_carbon::js::ACAstBuilder"* %162, i32 0, i32 1, !dbg !8252
  store %"class.std::__1::unique_ptr.10"* %250, %"class.std::__1::unique_ptr.10"** %7, align 8
  %251 = load %"class.std::__1::unique_ptr.10"*, %"class.std::__1::unique_ptr.10"** %7, align 8
  %252 = getelementptr inbounds %"class.std::__1::unique_ptr.10", %"class.std::__1::unique_ptr.10"* %251, i32 0, i32 0, !dbg !8253
  store %"class.std::__1::__compressed_pair.11"* %252, %"class.std::__1::__compressed_pair.11"** %6, align 8
  %253 = load %"class.std::__1::__compressed_pair.11"*, %"class.std::__1::__compressed_pair.11"** %6, align 8
  %254 = bitcast %"class.std::__1::__compressed_pair.11"* %253 to %"struct.std::__1::__compressed_pair_elem.12"*, !dbg !8254
  store %"struct.std::__1::__compressed_pair_elem.12"* %254, %"struct.std::__1::__compressed_pair_elem.12"** %5, align 8
  %255 = load %"struct.std::__1::__compressed_pair_elem.12"*, %"struct.std::__1::__compressed_pair_elem.12"** %5, align 8
  %256 = getelementptr inbounds %"struct.std::__1::__compressed_pair_elem.12", %"struct.std::__1::__compressed_pair_elem.12"* %255, i32 0, i32 0, !dbg !8255
  %257 = load %"class.altered_carbon::js::ACJsState"*, %"class.altered_carbon::js::ACJsState"** %256, align 8, !dbg !8256
  %258 = getelementptr inbounds %"class.altered_carbon::js::ACJsState", %"class.altered_carbon::js::ACJsState"* %257, i32 0, i32 3, !dbg !8257
  store %"class.std::__1::unique_ptr"* %258, %"class.std::__1::unique_ptr"** %10, align 8
  %259 = load %"class.std::__1::unique_ptr"*, %"class.std::__1::unique_ptr"** %10, align 8
  %260 = getelementptr inbounds %"class.std::__1::unique_ptr", %"class.std::__1::unique_ptr"* %259, i32 0, i32 0, !dbg !8258
  store %"class.std::__1::__compressed_pair"* %260, %"class.std::__1::__compressed_pair"** %9, align 8
  %261 = load %"class.std::__1::__compressed_pair"*, %"class.std::__1::__compressed_pair"** %9, align 8
  %262 = bitcast %"class.std::__1::__compressed_pair"* %261 to %"struct.std::__1::__compressed_pair_elem"*, !dbg !8259
  store %"struct.std::__1::__compressed_pair_elem"* %262, %"struct.std::__1::__compressed_pair_elem"** %8, align 8
  %263 = load %"struct.std::__1::__compressed_pair_elem"*, %"struct.std::__1::__compressed_pair_elem"** %8, align 8
  %264 = getelementptr inbounds %"struct.std::__1::__compressed_pair_elem", %"struct.std::__1::__compressed_pair_elem"* %263, i32 0, i32 0, !dbg !8260
  %265 = load %"class.altered_carbon::js::ACAstBaseNode"*, %"class.altered_carbon::js::ACAstBaseNode"** %264, align 8, !dbg !8261
  %266 = icmp ne %"class.altered_carbon::js::ACAstBaseNode"* %265, null, !dbg !8262
  br i1 %266, label %267, label %323, !dbg !8263

; <label>:267:                                    ; preds = %248
  %268 = getelementptr inbounds %"class.altered_carbon::js::ACAstBuilder", %"class.altered_carbon::js::ACAstBuilder"* %162, i32 0, i32 1, !dbg !8264
  store %"class.std::__1::unique_ptr.10"* %268, %"class.std::__1::unique_ptr.10"** %13, align 8
  %269 = load %"class.std::__1::unique_ptr.10"*, %"class.std::__1::unique_ptr.10"** %13, align 8
  %270 = getelementptr inbounds %"class.std::__1::unique_ptr.10", %"class.std::__1::unique_ptr.10"* %269, i32 0, i32 0, !dbg !8265
  store %"class.std::__1::__compressed_pair.11"* %270, %"class.std::__1::__compressed_pair.11"** %12, align 8
  %271 = load %"class.std::__1::__compressed_pair.11"*, %"class.std::__1::__compressed_pair.11"** %12, align 8
  %272 = bitcast %"class.std::__1::__compressed_pair.11"* %271 to %"struct.std::__1::__compressed_pair_elem.12"*, !dbg !8266
  store %"struct.std::__1::__compressed_pair_elem.12"* %272, %"struct.std::__1::__compressed_pair_elem.12"** %11, align 8
  %273 = load %"struct.std::__1::__compressed_pair_elem.12"*, %"struct.std::__1::__compressed_pair_elem.12"** %11, align 8
  %274 = getelementptr inbounds %"struct.std::__1::__compressed_pair_elem.12", %"struct.std::__1::__compressed_pair_elem.12"* %273, i32 0, i32 0, !dbg !8267
  %275 = load %"class.altered_carbon::js::ACJsState"*, %"class.altered_carbon::js::ACJsState"** %274, align 8, !dbg !8268
  %276 = getelementptr inbounds %"class.altered_carbon::js::ACJsState", %"class.altered_carbon::js::ACJsState"* %275, i32 0, i32 3, !dbg !8269
  store %"class.std::__1::unique_ptr"* %276, %"class.std::__1::unique_ptr"** %14, align 8
  %277 = load %"class.std::__1::unique_ptr"*, %"class.std::__1::unique_ptr"** %14, align 8, !dbg !8270
  store %"class.std::__1::unique_ptr"* %0, %"class.std::__1::unique_ptr"** %42, align 8
  store %"class.std::__1::unique_ptr"* %277, %"class.std::__1::unique_ptr"** %43, align 8
  %278 = load %"class.std::__1::unique_ptr"*, %"class.std::__1::unique_ptr"** %42, align 8
  %279 = load %"class.std::__1::unique_ptr"*, %"class.std::__1::unique_ptr"** %43, align 8, !dbg !8271
  store %"class.std::__1::unique_ptr"* %278, %"class.std::__1::unique_ptr"** %39, align 8
  store %"class.std::__1::unique_ptr"* %279, %"class.std::__1::unique_ptr"** %40, align 8
  %280 = load %"class.std::__1::unique_ptr"*, %"class.std::__1::unique_ptr"** %39, align 8
  %281 = getelementptr inbounds %"class.std::__1::unique_ptr", %"class.std::__1::unique_ptr"* %280, i32 0, i32 0, !dbg !8272
  %282 = load %"class.std::__1::unique_ptr"*, %"class.std::__1::unique_ptr"** %40, align 8, !dbg !8273
  store %"class.std::__1::unique_ptr"* %282, %"class.std::__1::unique_ptr"** %37, align 8
  %283 = load %"class.std::__1::unique_ptr"*, %"class.std::__1::unique_ptr"** %37, align 8
  %284 = getelementptr inbounds %"class.std::__1::unique_ptr", %"class.std::__1::unique_ptr"* %283, i32 0, i32 0, !dbg !8274
  store %"class.std::__1::__compressed_pair"* %284, %"class.std::__1::__compressed_pair"** %36, align 8
  %285 = load %"class.std::__1::__compressed_pair"*, %"class.std::__1::__compressed_pair"** %36, align 8
  %286 = bitcast %"class.std::__1::__compressed_pair"* %285 to %"struct.std::__1::__compressed_pair_elem"*, !dbg !8275
  store %"struct.std::__1::__compressed_pair_elem"* %286, %"struct.std::__1::__compressed_pair_elem"** %35, align 8
  %287 = load %"struct.std::__1::__compressed_pair_elem"*, %"struct.std::__1::__compressed_pair_elem"** %35, align 8
  %288 = getelementptr inbounds %"struct.std::__1::__compressed_pair_elem", %"struct.std::__1::__compressed_pair_elem"* %287, i32 0, i32 0, !dbg !8276
  %289 = load %"class.altered_carbon::js::ACAstBaseNode"*, %"class.altered_carbon::js::ACAstBaseNode"** %288, align 8, !dbg !8277
  store %"class.altered_carbon::js::ACAstBaseNode"* %289, %"class.altered_carbon::js::ACAstBaseNode"** %38, align 8, !dbg !7921
  %290 = getelementptr inbounds %"class.std::__1::unique_ptr", %"class.std::__1::unique_ptr"* %283, i32 0, i32 0, !dbg !8278
  store %"class.std::__1::__compressed_pair"* %290, %"class.std::__1::__compressed_pair"** %34, align 8
  %291 = load %"class.std::__1::__compressed_pair"*, %"class.std::__1::__compressed_pair"** %34, align 8
  %292 = bitcast %"class.std::__1::__compressed_pair"* %291 to %"struct.std::__1::__compressed_pair_elem"*, !dbg !8279
  store %"struct.std::__1::__compressed_pair_elem"* %292, %"struct.std::__1::__compressed_pair_elem"** %33, align 8
  %293 = load %"struct.std::__1::__compressed_pair_elem"*, %"struct.std::__1::__compressed_pair_elem"** %33, align 8
  %294 = getelementptr inbounds %"struct.std::__1::__compressed_pair_elem", %"struct.std::__1::__compressed_pair_elem"* %293, i32 0, i32 0, !dbg !8280
  store %"class.altered_carbon::js::ACAstBaseNode"* null, %"class.altered_carbon::js::ACAstBaseNode"** %294, align 8, !dbg !8281
  %295 = load %"class.altered_carbon::js::ACAstBaseNode"*, %"class.altered_carbon::js::ACAstBaseNode"** %38, align 8, !dbg !8282
  store %"class.altered_carbon::js::ACAstBaseNode"* %295, %"class.altered_carbon::js::ACAstBaseNode"** %41, align 8, !dbg !8273
  %296 = load %"class.std::__1::unique_ptr"*, %"class.std::__1::unique_ptr"** %40, align 8, !dbg !8283
  store %"class.std::__1::unique_ptr"* %296, %"class.std::__1::unique_ptr"** %17, align 8
  %297 = load %"class.std::__1::unique_ptr"*, %"class.std::__1::unique_ptr"** %17, align 8
  %298 = getelementptr inbounds %"class.std::__1::unique_ptr", %"class.std::__1::unique_ptr"* %297, i32 0, i32 0, !dbg !8284
  store %"class.std::__1::__compressed_pair"* %298, %"class.std::__1::__compressed_pair"** %16, align 8
  %299 = load %"class.std::__1::__compressed_pair"*, %"class.std::__1::__compressed_pair"** %16, align 8
  %300 = bitcast %"class.std::__1::__compressed_pair"* %299 to %"struct.std::__1::__compressed_pair_elem.7"*, !dbg !8285
  store %"struct.std::__1::__compressed_pair_elem.7"* %300, %"struct.std::__1::__compressed_pair_elem.7"** %15, align 8
  %301 = load %"struct.std::__1::__compressed_pair_elem.7"*, %"struct.std::__1::__compressed_pair_elem.7"** %15, align 8
  %302 = bitcast %"struct.std::__1::__compressed_pair_elem.7"* %301 to %"struct.std::__1::default_delete.8"*, !dbg !8286
  store %"struct.std::__1::default_delete.8"* %302, %"struct.std::__1::default_delete.8"** %18, align 8
  %303 = load %"struct.std::__1::default_delete.8"*, %"struct.std::__1::default_delete.8"** %18, align 8, !dbg !8287
  store %"class.std::__1::__compressed_pair"* %281, %"class.std::__1::__compressed_pair"** %30, align 8
  store %"class.altered_carbon::js::ACAstBaseNode"** %41, %"class.altered_carbon::js::ACAstBaseNode"*** %31, align 8
  store %"struct.std::__1::default_delete.8"* %303, %"struct.std::__1::default_delete.8"** %32, align 8
  %304 = load %"class.std::__1::__compressed_pair"*, %"class.std::__1::__compressed_pair"** %30, align 8
  %305 = load %"class.altered_carbon::js::ACAstBaseNode"**, %"class.altered_carbon::js::ACAstBaseNode"*** %31, align 8, !dbg !8288
  %306 = load %"struct.std::__1::default_delete.8"*, %"struct.std::__1::default_delete.8"** %32, align 8, !dbg !8288
  store %"class.std::__1::__compressed_pair"* %304, %"class.std::__1::__compressed_pair"** %27, align 8
  store %"class.altered_carbon::js::ACAstBaseNode"** %305, %"class.altered_carbon::js::ACAstBaseNode"*** %28, align 8
  store %"struct.std::__1::default_delete.8"* %306, %"struct.std::__1::default_delete.8"** %29, align 8
  %307 = load %"class.std::__1::__compressed_pair"*, %"class.std::__1::__compressed_pair"** %27, align 8
  %308 = bitcast %"class.std::__1::__compressed_pair"* %307 to %"struct.std::__1::__compressed_pair_elem"*, !dbg !8289
  %309 = load %"class.altered_carbon::js::ACAstBaseNode"**, %"class.altered_carbon::js::ACAstBaseNode"*** %28, align 8, !dbg !8290
  store %"class.altered_carbon::js::ACAstBaseNode"** %309, %"class.altered_carbon::js::ACAstBaseNode"*** %26, align 8
  %310 = load %"class.altered_carbon::js::ACAstBaseNode"**, %"class.altered_carbon::js::ACAstBaseNode"*** %26, align 8, !dbg !8291
  store %"struct.std::__1::__compressed_pair_elem"* %308, %"struct.std::__1::__compressed_pair_elem"** %20, align 8
  store %"class.altered_carbon::js::ACAstBaseNode"** %310, %"class.altered_carbon::js::ACAstBaseNode"*** %21, align 8
  %311 = load %"struct.std::__1::__compressed_pair_elem"*, %"struct.std::__1::__compressed_pair_elem"** %20, align 8
  %312 = getelementptr inbounds %"struct.std::__1::__compressed_pair_elem", %"struct.std::__1::__compressed_pair_elem"* %311, i32 0, i32 0, !dbg !8292
  %313 = load %"class.altered_carbon::js::ACAstBaseNode"**, %"class.altered_carbon::js::ACAstBaseNode"*** %21, align 8, !dbg !8293
  store %"class.altered_carbon::js::ACAstBaseNode"** %313, %"class.altered_carbon::js::ACAstBaseNode"*** %19, align 8
  %314 = load %"class.altered_carbon::js::ACAstBaseNode"**, %"class.altered_carbon::js::ACAstBaseNode"*** %19, align 8, !dbg !8294
  %315 = load %"class.altered_carbon::js::ACAstBaseNode"*, %"class.altered_carbon::js::ACAstBaseNode"** %314, align 8, !dbg !8295
  store %"class.altered_carbon::js::ACAstBaseNode"* %315, %"class.altered_carbon::js::ACAstBaseNode"** %312, align 8, !dbg !8292
  %316 = bitcast %"class.std::__1::__compressed_pair"* %307 to %"struct.std::__1::__compressed_pair_elem.7"*, !dbg !8289
  %317 = load %"struct.std::__1::default_delete.8"*, %"struct.std::__1::default_delete.8"** %29, align 8, !dbg !8296
  store %"struct.std::__1::default_delete.8"* %317, %"struct.std::__1::default_delete.8"** %22, align 8
  %318 = load %"struct.std::__1::default_delete.8"*, %"struct.std::__1::default_delete.8"** %22, align 8, !dbg !8297
  store %"struct.std::__1::__compressed_pair_elem.7"* %316, %"struct.std::__1::__compressed_pair_elem.7"** %24, align 8
  store %"struct.std::__1::default_delete.8"* %318, %"struct.std::__1::default_delete.8"** %25, align 8
  %319 = load %"struct.std::__1::__compressed_pair_elem.7"*, %"struct.std::__1::__compressed_pair_elem.7"** %24, align 8
  %320 = bitcast %"struct.std::__1::__compressed_pair_elem.7"* %319 to %"struct.std::__1::default_delete.8"*, !dbg !8298
  %321 = load %"struct.std::__1::default_delete.8"*, %"struct.std::__1::default_delete.8"** %25, align 8, !dbg !8299
  store %"struct.std::__1::default_delete.8"* %321, %"struct.std::__1::default_delete.8"** %23, align 8
  %322 = load %"struct.std::__1::default_delete.8"*, %"struct.std::__1::default_delete.8"** %23, align 8, !dbg !8300
  store i32 1, i32* %158, align 4
  br label %410, !dbg !8301

; <label>:323:                                    ; preds = %248
  %324 = getelementptr inbounds %"class.altered_carbon::js::ACAstBuilder", %"class.altered_carbon::js::ACAstBuilder"* %162, i32 0, i32 1, !dbg !8302
  store %"class.std::__1::unique_ptr.10"* %324, %"class.std::__1::unique_ptr.10"** %66, align 8
  store %"class.std::__1::unique_ptr.10"* %156, %"class.std::__1::unique_ptr.10"** %67, align 8
  %325 = load %"class.std::__1::unique_ptr.10"*, %"class.std::__1::unique_ptr.10"** %66, align 8
  %326 = getelementptr inbounds %"class.std::__1::unique_ptr.10", %"class.std::__1::unique_ptr.10"* %325, i32 0, i32 0, !dbg !8303
  %327 = load %"class.std::__1::unique_ptr.10"*, %"class.std::__1::unique_ptr.10"** %67, align 8, !dbg !8304
  %328 = getelementptr inbounds %"class.std::__1::unique_ptr.10", %"class.std::__1::unique_ptr.10"* %327, i32 0, i32 0, !dbg !8305
  store %"class.std::__1::__compressed_pair.11"* %326, %"class.std::__1::__compressed_pair.11"** %64, align 8
  store %"class.std::__1::__compressed_pair.11"* %328, %"class.std::__1::__compressed_pair.11"** %65, align 8
  %329 = load %"class.std::__1::__compressed_pair.11"*, %"class.std::__1::__compressed_pair.11"** %64, align 8
  store %"class.std::__1::__compressed_pair.11"* %329, %"class.std::__1::__compressed_pair.11"** %63, align 8
  %330 = load %"class.std::__1::__compressed_pair.11"*, %"class.std::__1::__compressed_pair.11"** %63, align 8
  %331 = bitcast %"class.std::__1::__compressed_pair.11"* %330 to %"struct.std::__1::__compressed_pair_elem.12"*, !dbg !8306
  store %"struct.std::__1::__compressed_pair_elem.12"* %331, %"struct.std::__1::__compressed_pair_elem.12"** %62, align 8
  %332 = load %"struct.std::__1::__compressed_pair_elem.12"*, %"struct.std::__1::__compressed_pair_elem.12"** %62, align 8
  %333 = getelementptr inbounds %"struct.std::__1::__compressed_pair_elem.12", %"struct.std::__1::__compressed_pair_elem.12"* %332, i32 0, i32 0, !dbg !8307
  %334 = load %"class.std::__1::__compressed_pair.11"*, %"class.std::__1::__compressed_pair.11"** %65, align 8, !dbg !8308
  store %"class.std::__1::__compressed_pair.11"* %334, %"class.std::__1::__compressed_pair.11"** %45, align 8
  %335 = load %"class.std::__1::__compressed_pair.11"*, %"class.std::__1::__compressed_pair.11"** %45, align 8
  %336 = bitcast %"class.std::__1::__compressed_pair.11"* %335 to %"struct.std::__1::__compressed_pair_elem.12"*, !dbg !8309
  store %"struct.std::__1::__compressed_pair_elem.12"* %336, %"struct.std::__1::__compressed_pair_elem.12"** %44, align 8
  %337 = load %"struct.std::__1::__compressed_pair_elem.12"*, %"struct.std::__1::__compressed_pair_elem.12"** %44, align 8
  %338 = getelementptr inbounds %"struct.std::__1::__compressed_pair_elem.12", %"struct.std::__1::__compressed_pair_elem.12"* %337, i32 0, i32 0, !dbg !8310
  store %"class.altered_carbon::js::ACJsState"** %333, %"class.altered_carbon::js::ACJsState"*** %49, align 8
  store %"class.altered_carbon::js::ACJsState"** %338, %"class.altered_carbon::js::ACJsState"*** %50, align 8
  %339 = load %"class.altered_carbon::js::ACJsState"**, %"class.altered_carbon::js::ACJsState"*** %49, align 8, !dbg !8311
  store %"class.altered_carbon::js::ACJsState"** %339, %"class.altered_carbon::js::ACJsState"*** %48, align 8
  %340 = load %"class.altered_carbon::js::ACJsState"**, %"class.altered_carbon::js::ACJsState"*** %48, align 8, !dbg !8312
  %341 = load %"class.altered_carbon::js::ACJsState"*, %"class.altered_carbon::js::ACJsState"** %340, align 8, !dbg !8313
  store %"class.altered_carbon::js::ACJsState"* %341, %"class.altered_carbon::js::ACJsState"** %51, align 8, !dbg !7969
  %342 = load %"class.altered_carbon::js::ACJsState"**, %"class.altered_carbon::js::ACJsState"*** %50, align 8, !dbg !8314
  store %"class.altered_carbon::js::ACJsState"** %342, %"class.altered_carbon::js::ACJsState"*** %46, align 8
  %343 = load %"class.altered_carbon::js::ACJsState"**, %"class.altered_carbon::js::ACJsState"*** %46, align 8, !dbg !8315
  %344 = load %"class.altered_carbon::js::ACJsState"*, %"class.altered_carbon::js::ACJsState"** %343, align 8, !dbg !8316
  %345 = load %"class.altered_carbon::js::ACJsState"**, %"class.altered_carbon::js::ACJsState"*** %49, align 8, !dbg !8317
  store %"class.altered_carbon::js::ACJsState"* %344, %"class.altered_carbon::js::ACJsState"** %345, align 8, !dbg !8318
  store %"class.altered_carbon::js::ACJsState"** %51, %"class.altered_carbon::js::ACJsState"*** %47, align 8
  %346 = load %"class.altered_carbon::js::ACJsState"**, %"class.altered_carbon::js::ACJsState"*** %47, align 8, !dbg !8319
  %347 = load %"class.altered_carbon::js::ACJsState"*, %"class.altered_carbon::js::ACJsState"** %346, align 8, !dbg !8320
  %348 = load %"class.altered_carbon::js::ACJsState"**, %"class.altered_carbon::js::ACJsState"*** %50, align 8, !dbg !8321
  store %"class.altered_carbon::js::ACJsState"* %347, %"class.altered_carbon::js::ACJsState"** %348, align 8, !dbg !8322
  store %"class.std::__1::__compressed_pair.11"* %329, %"class.std::__1::__compressed_pair.11"** %53, align 8
  %349 = load %"class.std::__1::__compressed_pair.11"*, %"class.std::__1::__compressed_pair.11"** %53, align 8
  %350 = bitcast %"class.std::__1::__compressed_pair.11"* %349 to %"struct.std::__1::__compressed_pair_elem.13"*, !dbg !8323
  store %"struct.std::__1::__compressed_pair_elem.13"* %350, %"struct.std::__1::__compressed_pair_elem.13"** %52, align 8
  %351 = load %"struct.std::__1::__compressed_pair_elem.13"*, %"struct.std::__1::__compressed_pair_elem.13"** %52, align 8
  %352 = bitcast %"struct.std::__1::__compressed_pair_elem.13"* %351 to %"struct.std::__1::default_delete.14"*, !dbg !8324
  %353 = load %"class.std::__1::__compressed_pair.11"*, %"class.std::__1::__compressed_pair.11"** %65, align 8, !dbg !8325
  store %"class.std::__1::__compressed_pair.11"* %353, %"class.std::__1::__compressed_pair.11"** %55, align 8
  %354 = load %"class.std::__1::__compressed_pair.11"*, %"class.std::__1::__compressed_pair.11"** %55, align 8
  %355 = bitcast %"class.std::__1::__compressed_pair.11"* %354 to %"struct.std::__1::__compressed_pair_elem.13"*, !dbg !8326
  store %"struct.std::__1::__compressed_pair_elem.13"* %355, %"struct.std::__1::__compressed_pair_elem.13"** %54, align 8
  %356 = load %"struct.std::__1::__compressed_pair_elem.13"*, %"struct.std::__1::__compressed_pair_elem.13"** %54, align 8
  %357 = bitcast %"struct.std::__1::__compressed_pair_elem.13"* %356 to %"struct.std::__1::default_delete.14"*, !dbg !8327
  store %"struct.std::__1::default_delete.14"* %352, %"struct.std::__1::default_delete.14"** %59, align 8
  store %"struct.std::__1::default_delete.14"* %357, %"struct.std::__1::default_delete.14"** %60, align 8
  %358 = load %"struct.std::__1::default_delete.14"*, %"struct.std::__1::default_delete.14"** %59, align 8, !dbg !8328
  store %"struct.std::__1::default_delete.14"* %358, %"struct.std::__1::default_delete.14"** %58, align 8
  %359 = load %"struct.std::__1::default_delete.14"*, %"struct.std::__1::default_delete.14"** %58, align 8, !dbg !8329
  %360 = load %"struct.std::__1::default_delete.14"*, %"struct.std::__1::default_delete.14"** %60, align 8, !dbg !8330
  store %"struct.std::__1::default_delete.14"* %360, %"struct.std::__1::default_delete.14"** %56, align 8
  %361 = load %"struct.std::__1::default_delete.14"*, %"struct.std::__1::default_delete.14"** %56, align 8, !dbg !8331
  %362 = load %"struct.std::__1::default_delete.14"*, %"struct.std::__1::default_delete.14"** %59, align 8, !dbg !8332
  store %"struct.std::__1::default_delete.14"* %61, %"struct.std::__1::default_delete.14"** %57, align 8
  %363 = load %"struct.std::__1::default_delete.14"*, %"struct.std::__1::default_delete.14"** %57, align 8, !dbg !8333
  %364 = load %"struct.std::__1::default_delete.14"*, %"struct.std::__1::default_delete.14"** %60, align 8, !dbg !8334
  store %"class.std::__1::unique_ptr"* %0, %"class.std::__1::unique_ptr"** %95, align 8
  store %"class.std::__1::unique_ptr"* %157, %"class.std::__1::unique_ptr"** %96, align 8
  %365 = load %"class.std::__1::unique_ptr"*, %"class.std::__1::unique_ptr"** %95, align 8
  %366 = load %"class.std::__1::unique_ptr"*, %"class.std::__1::unique_ptr"** %96, align 8, !dbg !8335
  store %"class.std::__1::unique_ptr"* %365, %"class.std::__1::unique_ptr"** %92, align 8
  store %"class.std::__1::unique_ptr"* %366, %"class.std::__1::unique_ptr"** %93, align 8
  %367 = load %"class.std::__1::unique_ptr"*, %"class.std::__1::unique_ptr"** %92, align 8
  %368 = getelementptr inbounds %"class.std::__1::unique_ptr", %"class.std::__1::unique_ptr"* %367, i32 0, i32 0, !dbg !8336
  %369 = load %"class.std::__1::unique_ptr"*, %"class.std::__1::unique_ptr"** %93, align 8, !dbg !8337
  store %"class.std::__1::unique_ptr"* %369, %"class.std::__1::unique_ptr"** %90, align 8
  %370 = load %"class.std::__1::unique_ptr"*, %"class.std::__1::unique_ptr"** %90, align 8
  %371 = getelementptr inbounds %"class.std::__1::unique_ptr", %"class.std::__1::unique_ptr"* %370, i32 0, i32 0, !dbg !8338
  store %"class.std::__1::__compressed_pair"* %371, %"class.std::__1::__compressed_pair"** %89, align 8
  %372 = load %"class.std::__1::__compressed_pair"*, %"class.std::__1::__compressed_pair"** %89, align 8
  %373 = bitcast %"class.std::__1::__compressed_pair"* %372 to %"struct.std::__1::__compressed_pair_elem"*, !dbg !8339
  store %"struct.std::__1::__compressed_pair_elem"* %373, %"struct.std::__1::__compressed_pair_elem"** %88, align 8
  %374 = load %"struct.std::__1::__compressed_pair_elem"*, %"struct.std::__1::__compressed_pair_elem"** %88, align 8
  %375 = getelementptr inbounds %"struct.std::__1::__compressed_pair_elem", %"struct.std::__1::__compressed_pair_elem"* %374, i32 0, i32 0, !dbg !8340
  %376 = load %"class.altered_carbon::js::ACAstBaseNode"*, %"class.altered_carbon::js::ACAstBaseNode"** %375, align 8, !dbg !8341
  store %"class.altered_carbon::js::ACAstBaseNode"* %376, %"class.altered_carbon::js::ACAstBaseNode"** %91, align 8, !dbg !8064
  %377 = getelementptr inbounds %"class.std::__1::unique_ptr", %"class.std::__1::unique_ptr"* %370, i32 0, i32 0, !dbg !8342
  store %"class.std::__1::__compressed_pair"* %377, %"class.std::__1::__compressed_pair"** %87, align 8
  %378 = load %"class.std::__1::__compressed_pair"*, %"class.std::__1::__compressed_pair"** %87, align 8
  %379 = bitcast %"class.std::__1::__compressed_pair"* %378 to %"struct.std::__1::__compressed_pair_elem"*, !dbg !8343
  store %"struct.std::__1::__compressed_pair_elem"* %379, %"struct.std::__1::__compressed_pair_elem"** %86, align 8
  %380 = load %"struct.std::__1::__compressed_pair_elem"*, %"struct.std::__1::__compressed_pair_elem"** %86, align 8
  %381 = getelementptr inbounds %"struct.std::__1::__compressed_pair_elem", %"struct.std::__1::__compressed_pair_elem"* %380, i32 0, i32 0, !dbg !8344
  store %"class.altered_carbon::js::ACAstBaseNode"* null, %"class.altered_carbon::js::ACAstBaseNode"** %381, align 8, !dbg !8345
  %382 = load %"class.altered_carbon::js::ACAstBaseNode"*, %"class.altered_carbon::js::ACAstBaseNode"** %91, align 8, !dbg !8346
  store %"class.altered_carbon::js::ACAstBaseNode"* %382, %"class.altered_carbon::js::ACAstBaseNode"** %94, align 8, !dbg !8337
  %383 = load %"class.std::__1::unique_ptr"*, %"class.std::__1::unique_ptr"** %93, align 8, !dbg !8347
  store %"class.std::__1::unique_ptr"* %383, %"class.std::__1::unique_ptr"** %70, align 8
  %384 = load %"class.std::__1::unique_ptr"*, %"class.std::__1::unique_ptr"** %70, align 8
  %385 = getelementptr inbounds %"class.std::__1::unique_ptr", %"class.std::__1::unique_ptr"* %384, i32 0, i32 0, !dbg !8348
  store %"class.std::__1::__compressed_pair"* %385, %"class.std::__1::__compressed_pair"** %69, align 8
  %386 = load %"class.std::__1::__compressed_pair"*, %"class.std::__1::__compressed_pair"** %69, align 8
  %387 = bitcast %"class.std::__1::__compressed_pair"* %386 to %"struct.std::__1::__compressed_pair_elem.7"*, !dbg !8349
  store %"struct.std::__1::__compressed_pair_elem.7"* %387, %"struct.std::__1::__compressed_pair_elem.7"** %68, align 8
  %388 = load %"struct.std::__1::__compressed_pair_elem.7"*, %"struct.std::__1::__compressed_pair_elem.7"** %68, align 8
  %389 = bitcast %"struct.std::__1::__compressed_pair_elem.7"* %388 to %"struct.std::__1::default_delete.8"*, !dbg !8350
  store %"struct.std::__1::default_delete.8"* %389, %"struct.std::__1::default_delete.8"** %71, align 8
  %390 = load %"struct.std::__1::default_delete.8"*, %"struct.std::__1::default_delete.8"** %71, align 8, !dbg !8351
  store %"class.std::__1::__compressed_pair"* %368, %"class.std::__1::__compressed_pair"** %83, align 8
  store %"class.altered_carbon::js::ACAstBaseNode"** %94, %"class.altered_carbon::js::ACAstBaseNode"*** %84, align 8
  store %"struct.std::__1::default_delete.8"* %390, %"struct.std::__1::default_delete.8"** %85, align 8
  %391 = load %"class.std::__1::__compressed_pair"*, %"class.std::__1::__compressed_pair"** %83, align 8
  %392 = load %"class.altered_carbon::js::ACAstBaseNode"**, %"class.altered_carbon::js::ACAstBaseNode"*** %84, align 8, !dbg !8352
  %393 = load %"struct.std::__1::default_delete.8"*, %"struct.std::__1::default_delete.8"** %85, align 8, !dbg !8352
  store %"class.std::__1::__compressed_pair"* %391, %"class.std::__1::__compressed_pair"** %80, align 8
  store %"class.altered_carbon::js::ACAstBaseNode"** %392, %"class.altered_carbon::js::ACAstBaseNode"*** %81, align 8
  store %"struct.std::__1::default_delete.8"* %393, %"struct.std::__1::default_delete.8"** %82, align 8
  %394 = load %"class.std::__1::__compressed_pair"*, %"class.std::__1::__compressed_pair"** %80, align 8
  %395 = bitcast %"class.std::__1::__compressed_pair"* %394 to %"struct.std::__1::__compressed_pair_elem"*, !dbg !8353
  %396 = load %"class.altered_carbon::js::ACAstBaseNode"**, %"class.altered_carbon::js::ACAstBaseNode"*** %81, align 8, !dbg !8354
  store %"class.altered_carbon::js::ACAstBaseNode"** %396, %"class.altered_carbon::js::ACAstBaseNode"*** %79, align 8
  %397 = load %"class.altered_carbon::js::ACAstBaseNode"**, %"class.altered_carbon::js::ACAstBaseNode"*** %79, align 8, !dbg !8355
  store %"struct.std::__1::__compressed_pair_elem"* %395, %"struct.std::__1::__compressed_pair_elem"** %73, align 8
  store %"class.altered_carbon::js::ACAstBaseNode"** %397, %"class.altered_carbon::js::ACAstBaseNode"*** %74, align 8
  %398 = load %"struct.std::__1::__compressed_pair_elem"*, %"struct.std::__1::__compressed_pair_elem"** %73, align 8
  %399 = getelementptr inbounds %"struct.std::__1::__compressed_pair_elem", %"struct.std::__1::__compressed_pair_elem"* %398, i32 0, i32 0, !dbg !8356
  %400 = load %"class.altered_carbon::js::ACAstBaseNode"**, %"class.altered_carbon::js::ACAstBaseNode"*** %74, align 8, !dbg !8357
  store %"class.altered_carbon::js::ACAstBaseNode"** %400, %"class.altered_carbon::js::ACAstBaseNode"*** %72, align 8
  %401 = load %"class.altered_carbon::js::ACAstBaseNode"**, %"class.altered_carbon::js::ACAstBaseNode"*** %72, align 8, !dbg !8358
  %402 = load %"class.altered_carbon::js::ACAstBaseNode"*, %"class.altered_carbon::js::ACAstBaseNode"** %401, align 8, !dbg !8359
  store %"class.altered_carbon::js::ACAstBaseNode"* %402, %"class.altered_carbon::js::ACAstBaseNode"** %399, align 8, !dbg !8356
  %403 = bitcast %"class.std::__1::__compressed_pair"* %394 to %"struct.std::__1::__compressed_pair_elem.7"*, !dbg !8353
  %404 = load %"struct.std::__1::default_delete.8"*, %"struct.std::__1::default_delete.8"** %82, align 8, !dbg !8360
  store %"struct.std::__1::default_delete.8"* %404, %"struct.std::__1::default_delete.8"** %75, align 8
  %405 = load %"struct.std::__1::default_delete.8"*, %"struct.std::__1::default_delete.8"** %75, align 8, !dbg !8361
  store %"struct.std::__1::__compressed_pair_elem.7"* %403, %"struct.std::__1::__compressed_pair_elem.7"** %77, align 8
  store %"struct.std::__1::default_delete.8"* %405, %"struct.std::__1::default_delete.8"** %78, align 8
  %406 = load %"struct.std::__1::__compressed_pair_elem.7"*, %"struct.std::__1::__compressed_pair_elem.7"** %77, align 8
  %407 = bitcast %"struct.std::__1::__compressed_pair_elem.7"* %406 to %"struct.std::__1::default_delete.8"*, !dbg !8362
  %408 = load %"struct.std::__1::default_delete.8"*, %"struct.std::__1::default_delete.8"** %78, align 8, !dbg !8363
  store %"struct.std::__1::default_delete.8"* %408, %"struct.std::__1::default_delete.8"** %76, align 8
  %409 = load %"struct.std::__1::default_delete.8"*, %"struct.std::__1::default_delete.8"** %76, align 8, !dbg !8364
  store i32 1, i32* %158, align 4
  br label %410, !dbg !8365

; <label>:410:                                    ; preds = %323, %267
  store %"class.std::__1::unique_ptr"* %157, %"class.std::__1::unique_ptr"** %112, align 8
  %411 = load %"class.std::__1::unique_ptr"*, %"class.std::__1::unique_ptr"** %112, align 8
  store %"class.std::__1::unique_ptr"* %411, %"class.std::__1::unique_ptr"** %111, align 8
  %412 = load %"class.std::__1::unique_ptr"*, %"class.std::__1::unique_ptr"** %111, align 8
  store %"class.std::__1::unique_ptr"* %412, %"class.std::__1::unique_ptr"** %108, align 8
  store %"class.altered_carbon::js::ACAstBaseNode"* null, %"class.altered_carbon::js::ACAstBaseNode"** %109, align 8
  %413 = load %"class.std::__1::unique_ptr"*, %"class.std::__1::unique_ptr"** %108, align 8
  %414 = getelementptr inbounds %"class.std::__1::unique_ptr", %"class.std::__1::unique_ptr"* %413, i32 0, i32 0, !dbg !8366
  store %"class.std::__1::__compressed_pair"* %414, %"class.std::__1::__compressed_pair"** %107, align 8
  %415 = load %"class.std::__1::__compressed_pair"*, %"class.std::__1::__compressed_pair"** %107, align 8
  %416 = bitcast %"class.std::__1::__compressed_pair"* %415 to %"struct.std::__1::__compressed_pair_elem"*, !dbg !8367
  store %"struct.std::__1::__compressed_pair_elem"* %416, %"struct.std::__1::__compressed_pair_elem"** %106, align 8
  %417 = load %"struct.std::__1::__compressed_pair_elem"*, %"struct.std::__1::__compressed_pair_elem"** %106, align 8
  %418 = getelementptr inbounds %"struct.std::__1::__compressed_pair_elem", %"struct.std::__1::__compressed_pair_elem"* %417, i32 0, i32 0, !dbg !8368
  %419 = load %"class.altered_carbon::js::ACAstBaseNode"*, %"class.altered_carbon::js::ACAstBaseNode"** %418, align 8, !dbg !8369
  store %"class.altered_carbon::js::ACAstBaseNode"* %419, %"class.altered_carbon::js::ACAstBaseNode"** %110, align 8, !dbg !8100
  %420 = load %"class.altered_carbon::js::ACAstBaseNode"*, %"class.altered_carbon::js::ACAstBaseNode"** %109, align 8, !dbg !8370
  %421 = getelementptr inbounds %"class.std::__1::unique_ptr", %"class.std::__1::unique_ptr"* %413, i32 0, i32 0, !dbg !8371
  store %"class.std::__1::__compressed_pair"* %421, %"class.std::__1::__compressed_pair"** %103, align 8
  %422 = load %"class.std::__1::__compressed_pair"*, %"class.std::__1::__compressed_pair"** %103, align 8
  %423 = bitcast %"class.std::__1::__compressed_pair"* %422 to %"struct.std::__1::__compressed_pair_elem"*, !dbg !8372
  store %"struct.std::__1::__compressed_pair_elem"* %423, %"struct.std::__1::__compressed_pair_elem"** %102, align 8
  %424 = load %"struct.std::__1::__compressed_pair_elem"*, %"struct.std::__1::__compressed_pair_elem"** %102, align 8
  %425 = getelementptr inbounds %"struct.std::__1::__compressed_pair_elem", %"struct.std::__1::__compressed_pair_elem"* %424, i32 0, i32 0, !dbg !8373
  store %"class.altered_carbon::js::ACAstBaseNode"* %420, %"class.altered_carbon::js::ACAstBaseNode"** %425, align 8, !dbg !8374
  %426 = load %"class.altered_carbon::js::ACAstBaseNode"*, %"class.altered_carbon::js::ACAstBaseNode"** %110, align 8, !dbg !8375
  %427 = icmp ne %"class.altered_carbon::js::ACAstBaseNode"* %426, null, !dbg !8375
  br i1 %427, label %428, label %444, !dbg !8376

; <label>:428:                                    ; preds = %410
  %429 = getelementptr inbounds %"class.std::__1::unique_ptr", %"class.std::__1::unique_ptr"* %413, i32 0, i32 0, !dbg !8377
  store %"class.std::__1::__compressed_pair"* %429, %"class.std::__1::__compressed_pair"** %101, align 8
  %430 = load %"class.std::__1::__compressed_pair"*, %"class.std::__1::__compressed_pair"** %101, align 8
  %431 = bitcast %"class.std::__1::__compressed_pair"* %430 to %"struct.std::__1::__compressed_pair_elem.7"*, !dbg !8378
  store %"struct.std::__1::__compressed_pair_elem.7"* %431, %"struct.std::__1::__compressed_pair_elem.7"** %100, align 8
  %432 = load %"struct.std::__1::__compressed_pair_elem.7"*, %"struct.std::__1::__compressed_pair_elem.7"** %100, align 8
  %433 = bitcast %"struct.std::__1::__compressed_pair_elem.7"* %432 to %"struct.std::__1::default_delete.8"*, !dbg !8379
  %434 = load %"class.altered_carbon::js::ACAstBaseNode"*, %"class.altered_carbon::js::ACAstBaseNode"** %110, align 8, !dbg !8380
  store %"struct.std::__1::default_delete.8"* %433, %"struct.std::__1::default_delete.8"** %104, align 8
  store %"class.altered_carbon::js::ACAstBaseNode"* %434, %"class.altered_carbon::js::ACAstBaseNode"** %105, align 8
  %435 = load %"struct.std::__1::default_delete.8"*, %"struct.std::__1::default_delete.8"** %104, align 8
  %436 = load %"class.altered_carbon::js::ACAstBaseNode"*, %"class.altered_carbon::js::ACAstBaseNode"** %105, align 8, !dbg !8381
  %437 = icmp eq %"class.altered_carbon::js::ACAstBaseNode"* %436, null, !dbg !8382
  br i1 %437, label %443, label %438, !dbg !8382

; <label>:438:                                    ; preds = %428
  %439 = bitcast %"class.altered_carbon::js::ACAstBaseNode"* %436 to void (%"class.altered_carbon::js::ACAstBaseNode"*)***, !dbg !8382
  %440 = load void (%"class.altered_carbon::js::ACAstBaseNode"*)**, void (%"class.altered_carbon::js::ACAstBaseNode"*)*** %439, align 8, !dbg !8382
  %441 = getelementptr inbounds void (%"class.altered_carbon::js::ACAstBaseNode"*)*, void (%"class.altered_carbon::js::ACAstBaseNode"*)** %440, i64 1, !dbg !8382
  %442 = load void (%"class.altered_carbon::js::ACAstBaseNode"*)*, void (%"class.altered_carbon::js::ACAstBaseNode"*)** %441, align 8, !dbg !8382
  call void %442(%"class.altered_carbon::js::ACAstBaseNode"* %436) #2, !dbg !8382
  br label %443, !dbg !8382

; <label>:443:                                    ; preds = %438, %428
  br label %444, !dbg !8377

; <label>:444:                                    ; preds = %410, %443
  store %"class.std::__1::unique_ptr.10"* %156, %"class.std::__1::unique_ptr.10"** %128, align 8
  %445 = load %"class.std::__1::unique_ptr.10"*, %"class.std::__1::unique_ptr.10"** %128, align 8
  store %"class.std::__1::unique_ptr.10"* %445, %"class.std::__1::unique_ptr.10"** %127, align 8
  %446 = load %"class.std::__1::unique_ptr.10"*, %"class.std::__1::unique_ptr.10"** %127, align 8
  store %"class.std::__1::unique_ptr.10"* %446, %"class.std::__1::unique_ptr.10"** %124, align 8
  store %"class.altered_carbon::js::ACJsState"* null, %"class.altered_carbon::js::ACJsState"** %125, align 8
  %447 = load %"class.std::__1::unique_ptr.10"*, %"class.std::__1::unique_ptr.10"** %124, align 8
  %448 = getelementptr inbounds %"class.std::__1::unique_ptr.10", %"class.std::__1::unique_ptr.10"* %447, i32 0, i32 0, !dbg !8383
  store %"class.std::__1::__compressed_pair.11"* %448, %"class.std::__1::__compressed_pair.11"** %123, align 8
  %449 = load %"class.std::__1::__compressed_pair.11"*, %"class.std::__1::__compressed_pair.11"** %123, align 8
  %450 = bitcast %"class.std::__1::__compressed_pair.11"* %449 to %"struct.std::__1::__compressed_pair_elem.12"*, !dbg !8384
  store %"struct.std::__1::__compressed_pair_elem.12"* %450, %"struct.std::__1::__compressed_pair_elem.12"** %122, align 8
  %451 = load %"struct.std::__1::__compressed_pair_elem.12"*, %"struct.std::__1::__compressed_pair_elem.12"** %122, align 8
  %452 = getelementptr inbounds %"struct.std::__1::__compressed_pair_elem.12", %"struct.std::__1::__compressed_pair_elem.12"* %451, i32 0, i32 0, !dbg !8385
  %453 = load %"class.altered_carbon::js::ACJsState"*, %"class.altered_carbon::js::ACJsState"** %452, align 8, !dbg !8386
  store %"class.altered_carbon::js::ACJsState"* %453, %"class.altered_carbon::js::ACJsState"** %126, align 8, !dbg !8144
  %454 = load %"class.altered_carbon::js::ACJsState"*, %"class.altered_carbon::js::ACJsState"** %125, align 8, !dbg !8387
  %455 = getelementptr inbounds %"class.std::__1::unique_ptr.10", %"class.std::__1::unique_ptr.10"* %447, i32 0, i32 0, !dbg !8388
  store %"class.std::__1::__compressed_pair.11"* %455, %"class.std::__1::__compressed_pair.11"** %119, align 8
  %456 = load %"class.std::__1::__compressed_pair.11"*, %"class.std::__1::__compressed_pair.11"** %119, align 8
  %457 = bitcast %"class.std::__1::__compressed_pair.11"* %456 to %"struct.std::__1::__compressed_pair_elem.12"*, !dbg !8389
  store %"struct.std::__1::__compressed_pair_elem.12"* %457, %"struct.std::__1::__compressed_pair_elem.12"** %118, align 8
  %458 = load %"struct.std::__1::__compressed_pair_elem.12"*, %"struct.std::__1::__compressed_pair_elem.12"** %118, align 8
  %459 = getelementptr inbounds %"struct.std::__1::__compressed_pair_elem.12", %"struct.std::__1::__compressed_pair_elem.12"* %458, i32 0, i32 0, !dbg !8390
  store %"class.altered_carbon::js::ACJsState"* %454, %"class.altered_carbon::js::ACJsState"** %459, align 8, !dbg !8391
  %460 = load %"class.altered_carbon::js::ACJsState"*, %"class.altered_carbon::js::ACJsState"** %126, align 8, !dbg !8392
  %461 = icmp ne %"class.altered_carbon::js::ACJsState"* %460, null, !dbg !8392
  br i1 %461, label %462, label %478, !dbg !8393

; <label>:462:                                    ; preds = %444
  %463 = getelementptr inbounds %"class.std::__1::unique_ptr.10", %"class.std::__1::unique_ptr.10"* %447, i32 0, i32 0, !dbg !8394
  store %"class.std::__1::__compressed_pair.11"* %463, %"class.std::__1::__compressed_pair.11"** %117, align 8
  %464 = load %"class.std::__1::__compressed_pair.11"*, %"class.std::__1::__compressed_pair.11"** %117, align 8
  %465 = bitcast %"class.std::__1::__compressed_pair.11"* %464 to %"struct.std::__1::__compressed_pair_elem.13"*, !dbg !8395
  store %"struct.std::__1::__compressed_pair_elem.13"* %465, %"struct.std::__1::__compressed_pair_elem.13"** %116, align 8
  %466 = load %"struct.std::__1::__compressed_pair_elem.13"*, %"struct.std::__1::__compressed_pair_elem.13"** %116, align 8
  %467 = bitcast %"struct.std::__1::__compressed_pair_elem.13"* %466 to %"struct.std::__1::default_delete.14"*, !dbg !8396
  %468 = load %"class.altered_carbon::js::ACJsState"*, %"class.altered_carbon::js::ACJsState"** %126, align 8, !dbg !8397
  store %"struct.std::__1::default_delete.14"* %467, %"struct.std::__1::default_delete.14"** %120, align 8
  store %"class.altered_carbon::js::ACJsState"* %468, %"class.altered_carbon::js::ACJsState"** %121, align 8
  %469 = load %"struct.std::__1::default_delete.14"*, %"struct.std::__1::default_delete.14"** %120, align 8
  %470 = load %"class.altered_carbon::js::ACJsState"*, %"class.altered_carbon::js::ACJsState"** %121, align 8, !dbg !8398
  %471 = icmp eq %"class.altered_carbon::js::ACJsState"* %470, null, !dbg !8399
  br i1 %471, label %477, label %472, !dbg !8399

; <label>:472:                                    ; preds = %462
  %473 = bitcast %"class.altered_carbon::js::ACJsState"* %470 to void (%"class.altered_carbon::js::ACJsState"*)***, !dbg !8399
  %474 = load void (%"class.altered_carbon::js::ACJsState"*)**, void (%"class.altered_carbon::js::ACJsState"*)*** %473, align 8, !dbg !8399
  %475 = getelementptr inbounds void (%"class.altered_carbon::js::ACJsState"*)*, void (%"class.altered_carbon::js::ACJsState"*)** %474, i64 1, !dbg !8399
  %476 = load void (%"class.altered_carbon::js::ACJsState"*)*, void (%"class.altered_carbon::js::ACJsState"*)** %475, align 8, !dbg !8399
  call void %476(%"class.altered_carbon::js::ACJsState"* %470) #2, !dbg !8399
  br label %477, !dbg !8399

; <label>:477:                                    ; preds = %472, %462
  br label %478, !dbg !8394

; <label>:478:                                    ; preds = %444, %477
  ret void, !dbg !8400
}

; Function Attrs: noinline nounwind optnone ssp uwtable
define linkonce_odr void @_ZN4llvm11make_uniqueIN14altered_carbon2js9ACJsStateEJEEENSt3__19enable_ifIXntsr3std8is_arrayIT_EE5valueENS4_10unique_ptrIS6_NS4_14default_deleteIS6_EEEEE4typeEDpOT0_(%"class.std::__1::unique_ptr.10"* noalias sret) #1 !dbg !8401 {
  %2 = alloca %"class.altered_carbon::js::ACJsState"**, align 8
  call void @llvm.dbg.declare(metadata %"class.altered_carbon::js::ACJsState"*** %2, metadata !8412, metadata !DIExpression()), !dbg !8417
  %3 = alloca %"struct.std::__1::__compressed_pair_elem.12"*, align 8
  call void @llvm.dbg.declare(metadata %"struct.std::__1::__compressed_pair_elem.12"** %3, metadata !8439, metadata !DIExpression()), !dbg !8440
  %4 = alloca %"class.altered_carbon::js::ACJsState"**, align 8
  call void @llvm.dbg.declare(metadata %"class.altered_carbon::js::ACJsState"*** %4, metadata !8441, metadata !DIExpression()), !dbg !8442
  %5 = alloca %"class.altered_carbon::js::ACJsState"**, align 8
  call void @llvm.dbg.declare(metadata %"class.altered_carbon::js::ACJsState"*** %5, metadata !8412, metadata !DIExpression()), !dbg !8443
  %6 = alloca %"class.std::__1::__compressed_pair.11"*, align 8
  call void @llvm.dbg.declare(metadata %"class.std::__1::__compressed_pair.11"** %6, metadata !8445, metadata !DIExpression()), !dbg !8446
  %7 = alloca %"class.altered_carbon::js::ACJsState"**, align 8
  call void @llvm.dbg.declare(metadata %"class.altered_carbon::js::ACJsState"*** %7, metadata !8447, metadata !DIExpression()), !dbg !8448
  %8 = alloca %"class.std::__1::__compressed_pair.11"*, align 8
  call void @llvm.dbg.declare(metadata %"class.std::__1::__compressed_pair.11"** %8, metadata !8449, metadata !DIExpression()), !dbg !8450
  %9 = alloca %"class.altered_carbon::js::ACJsState"**, align 8
  call void @llvm.dbg.declare(metadata %"class.altered_carbon::js::ACJsState"*** %9, metadata !8451, metadata !DIExpression()), !dbg !8452
  %10 = alloca %"class.std::__1::unique_ptr.10"*, align 8
  call void @llvm.dbg.declare(metadata %"class.std::__1::unique_ptr.10"** %10, metadata !8453, metadata !DIExpression()), !dbg !8454
  %11 = alloca %"class.altered_carbon::js::ACJsState"*, align 8
  call void @llvm.dbg.declare(metadata %"class.altered_carbon::js::ACJsState"** %11, metadata !8455, metadata !DIExpression()), !dbg !8456
  %12 = alloca %"class.std::__1::unique_ptr.10"*, align 8
  call void @llvm.dbg.declare(metadata %"class.std::__1::unique_ptr.10"** %12, metadata !8457, metadata !DIExpression()), !dbg !8458
  %13 = alloca %"class.altered_carbon::js::ACJsState"*, align 8
  call void @llvm.dbg.declare(metadata %"class.altered_carbon::js::ACJsState"** %13, metadata !8459, metadata !DIExpression()), !dbg !8460
  %14 = call i8* @_Znwm(i64 24) #9, !dbg !8461
  %15 = bitcast i8* %14 to %"class.altered_carbon::js::ACJsState"*, !dbg !8461
  call void @_ZN14altered_carbon2js9ACJsStateC1Ev(%"class.altered_carbon::js::ACJsState"* %15), !dbg !8462
  store %"class.std::__1::unique_ptr.10"* %0, %"class.std::__1::unique_ptr.10"** %12, align 8
  store %"class.altered_carbon::js::ACJsState"* %15, %"class.altered_carbon::js::ACJsState"** %13, align 8
  %16 = load %"class.std::__1::unique_ptr.10"*, %"class.std::__1::unique_ptr.10"** %12, align 8
  %17 = load %"class.altered_carbon::js::ACJsState"*, %"class.altered_carbon::js::ACJsState"** %13, align 8, !dbg !8463
  store %"class.std::__1::unique_ptr.10"* %16, %"class.std::__1::unique_ptr.10"** %10, align 8
  store %"class.altered_carbon::js::ACJsState"* %17, %"class.altered_carbon::js::ACJsState"** %11, align 8
  %18 = load %"class.std::__1::unique_ptr.10"*, %"class.std::__1::unique_ptr.10"** %10, align 8
  %19 = getelementptr inbounds %"class.std::__1::unique_ptr.10", %"class.std::__1::unique_ptr.10"* %18, i32 0, i32 0, !dbg !8464
  store %"class.std::__1::__compressed_pair.11"* %19, %"class.std::__1::__compressed_pair.11"** %8, align 8
  store %"class.altered_carbon::js::ACJsState"** %11, %"class.altered_carbon::js::ACJsState"*** %9, align 8
  %20 = load %"class.std::__1::__compressed_pair.11"*, %"class.std::__1::__compressed_pair.11"** %8, align 8
  %21 = load %"class.altered_carbon::js::ACJsState"**, %"class.altered_carbon::js::ACJsState"*** %9, align 8, !dbg !8465
  store %"class.std::__1::__compressed_pair.11"* %20, %"class.std::__1::__compressed_pair.11"** %6, align 8
  store %"class.altered_carbon::js::ACJsState"** %21, %"class.altered_carbon::js::ACJsState"*** %7, align 8
  %22 = load %"class.std::__1::__compressed_pair.11"*, %"class.std::__1::__compressed_pair.11"** %6, align 8
  %23 = bitcast %"class.std::__1::__compressed_pair.11"* %22 to %"struct.std::__1::__compressed_pair_elem.12"*, !dbg !8466
  %24 = load %"class.altered_carbon::js::ACJsState"**, %"class.altered_carbon::js::ACJsState"*** %7, align 8, !dbg !8467
  store %"class.altered_carbon::js::ACJsState"** %24, %"class.altered_carbon::js::ACJsState"*** %5, align 8
  %25 = load %"class.altered_carbon::js::ACJsState"**, %"class.altered_carbon::js::ACJsState"*** %5, align 8, !dbg !8468
  store %"struct.std::__1::__compressed_pair_elem.12"* %23, %"struct.std::__1::__compressed_pair_elem.12"** %3, align 8
  store %"class.altered_carbon::js::ACJsState"** %25, %"class.altered_carbon::js::ACJsState"*** %4, align 8
  %26 = load %"struct.std::__1::__compressed_pair_elem.12"*, %"struct.std::__1::__compressed_pair_elem.12"** %3, align 8
  %27 = getelementptr inbounds %"struct.std::__1::__compressed_pair_elem.12", %"struct.std::__1::__compressed_pair_elem.12"* %26, i32 0, i32 0, !dbg !8469
  %28 = load %"class.altered_carbon::js::ACJsState"**, %"class.altered_carbon::js::ACJsState"*** %4, align 8, !dbg !8470
  store %"class.altered_carbon::js::ACJsState"** %28, %"class.altered_carbon::js::ACJsState"*** %2, align 8
  %29 = load %"class.altered_carbon::js::ACJsState"**, %"class.altered_carbon::js::ACJsState"*** %2, align 8, !dbg !8471
  %30 = load %"class.altered_carbon::js::ACJsState"*, %"class.altered_carbon::js::ACJsState"** %29, align 8, !dbg !8472
  store %"class.altered_carbon::js::ACJsState"* %30, %"class.altered_carbon::js::ACJsState"** %27, align 8, !dbg !8469
  %31 = bitcast %"class.std::__1::__compressed_pair.11"* %22 to %"struct.std::__1::__compressed_pair_elem.13"*, !dbg !8466
  ret void, !dbg !8473
}

; Function Attrs: noinline nounwind optnone ssp uwtable
define void @_ZN14altered_carbon2js12ACAstBuilder26prepareInheritCoverGrammarEMS1_FNSt3__110unique_ptrINS0_13ACAstBaseNodeENS2_14default_deleteIS4_EEEEvE(%"class.std::__1::unique_ptr"* noalias sret, %"class.altered_carbon::js::ACAstBuilder"*, i64, i64) #1 align 2 !dbg !8474 {
  %5 = alloca %"struct.std::__1::__compressed_pair_elem.12"*, align 8
  call void @llvm.dbg.declare(metadata %"struct.std::__1::__compressed_pair_elem.12"** %5, metadata !7494, metadata !DIExpression()), !dbg !8475
  %6 = alloca %"class.std::__1::__compressed_pair.11"*, align 8
  call void @llvm.dbg.declare(metadata %"class.std::__1::__compressed_pair.11"** %6, metadata !7503, metadata !DIExpression()), !dbg !8479
  %7 = alloca %"class.std::__1::unique_ptr.10"*, align 8
  call void @llvm.dbg.declare(metadata %"class.std::__1::unique_ptr.10"** %7, metadata !7506, metadata !DIExpression()), !dbg !8480
  %8 = alloca %"struct.std::__1::__compressed_pair_elem.12"*, align 8
  call void @llvm.dbg.declare(metadata %"struct.std::__1::__compressed_pair_elem.12"** %8, metadata !7494, metadata !DIExpression()), !dbg !8481
  %9 = alloca %"class.std::__1::__compressed_pair.11"*, align 8
  call void @llvm.dbg.declare(metadata %"class.std::__1::__compressed_pair.11"** %9, metadata !7503, metadata !DIExpression()), !dbg !8487
  %10 = alloca %"class.std::__1::unique_ptr.10"*, align 8
  call void @llvm.dbg.declare(metadata %"class.std::__1::unique_ptr.10"** %10, metadata !7506, metadata !DIExpression()), !dbg !8488
  %11 = alloca %"struct.std::__1::__compressed_pair_elem.7"*, align 8
  call void @llvm.dbg.declare(metadata %"struct.std::__1::__compressed_pair_elem.7"** %11, metadata !7435, metadata !DIExpression()), !dbg !8489
  %12 = alloca %"class.std::__1::__compressed_pair"*, align 8
  call void @llvm.dbg.declare(metadata %"class.std::__1::__compressed_pair"** %12, metadata !7445, metadata !DIExpression()), !dbg !8495
  %13 = alloca %"struct.std::__1::__compressed_pair_elem"*, align 8
  call void @llvm.dbg.declare(metadata %"struct.std::__1::__compressed_pair_elem"** %13, metadata !7447, metadata !DIExpression()), !dbg !8496
  %14 = alloca %"class.std::__1::__compressed_pair"*, align 8
  call void @llvm.dbg.declare(metadata %"class.std::__1::__compressed_pair"** %14, metadata !7453, metadata !DIExpression()), !dbg !8499
  %15 = alloca %"struct.std::__1::default_delete.8"*, align 8
  call void @llvm.dbg.declare(metadata %"struct.std::__1::default_delete.8"** %15, metadata !7455, metadata !DIExpression()), !dbg !8500
  %16 = alloca %"class.altered_carbon::js::ACAstBaseNode"*, align 8
  call void @llvm.dbg.declare(metadata %"class.altered_carbon::js::ACAstBaseNode"** %16, metadata !7460, metadata !DIExpression()), !dbg !8502
  %17 = alloca %"struct.std::__1::__compressed_pair_elem"*, align 8
  call void @llvm.dbg.declare(metadata %"struct.std::__1::__compressed_pair_elem"** %17, metadata !7447, metadata !DIExpression()), !dbg !8503
  %18 = alloca %"class.std::__1::__compressed_pair"*, align 8
  call void @llvm.dbg.declare(metadata %"class.std::__1::__compressed_pair"** %18, metadata !7453, metadata !DIExpression()), !dbg !8506
  %19 = alloca %"class.std::__1::unique_ptr"*, align 8
  call void @llvm.dbg.declare(metadata %"class.std::__1::unique_ptr"** %19, metadata !7466, metadata !DIExpression()), !dbg !8507
  %20 = alloca %"class.altered_carbon::js::ACAstBaseNode"*, align 8
  call void @llvm.dbg.declare(metadata %"class.altered_carbon::js::ACAstBaseNode"** %20, metadata !7468, metadata !DIExpression()), !dbg !8508
  %21 = alloca %"class.altered_carbon::js::ACAstBaseNode"*, align 8
  call void @llvm.dbg.declare(metadata %"class.altered_carbon::js::ACAstBaseNode"** %21, metadata !7470, metadata !DIExpression()), !dbg !8509
  %22 = alloca %"class.std::__1::unique_ptr"*, align 8
  call void @llvm.dbg.declare(metadata %"class.std::__1::unique_ptr"** %22, metadata !8101, metadata !DIExpression()), !dbg !8510
  %23 = alloca %"class.std::__1::unique_ptr"*, align 8
  call void @llvm.dbg.declare(metadata %"class.std::__1::unique_ptr"** %23, metadata !8103, metadata !DIExpression()), !dbg !8511
  %24 = alloca %"struct.std::__1::__compressed_pair_elem.12"*, align 8
  call void @llvm.dbg.declare(metadata %"struct.std::__1::__compressed_pair_elem.12"** %24, metadata !7494, metadata !DIExpression()), !dbg !8512
  %25 = alloca %"class.std::__1::__compressed_pair.11"*, align 8
  call void @llvm.dbg.declare(metadata %"class.std::__1::__compressed_pair.11"** %25, metadata !7503, metadata !DIExpression()), !dbg !8517
  %26 = alloca %"class.std::__1::unique_ptr.10"*, align 8
  call void @llvm.dbg.declare(metadata %"class.std::__1::unique_ptr.10"** %26, metadata !7506, metadata !DIExpression()), !dbg !8518
  %27 = alloca %"struct.std::__1::__compressed_pair_elem.13"*, align 8
  call void @llvm.dbg.declare(metadata %"struct.std::__1::__compressed_pair_elem.13"** %27, metadata !7970, metadata !DIExpression()), !dbg !8519
  %28 = alloca %"class.std::__1::__compressed_pair.11"*, align 8
  call void @llvm.dbg.declare(metadata %"class.std::__1::__compressed_pair.11"** %28, metadata !7977, metadata !DIExpression()), !dbg !8525
  %29 = alloca %"struct.std::__1::__compressed_pair_elem.12"*, align 8
  call void @llvm.dbg.declare(metadata %"struct.std::__1::__compressed_pair_elem.12"** %29, metadata !7930, metadata !DIExpression()), !dbg !8526
  %30 = alloca %"class.std::__1::__compressed_pair.11"*, align 8
  call void @llvm.dbg.declare(metadata %"class.std::__1::__compressed_pair.11"** %30, metadata !7941, metadata !DIExpression()), !dbg !8529
  %31 = alloca %"struct.std::__1::default_delete.14"*, align 8
  call void @llvm.dbg.declare(metadata %"struct.std::__1::default_delete.14"** %31, metadata !8128, metadata !DIExpression()), !dbg !8530
  %32 = alloca %"class.altered_carbon::js::ACJsState"*, align 8
  call void @llvm.dbg.declare(metadata %"class.altered_carbon::js::ACJsState"** %32, metadata !8133, metadata !DIExpression()), !dbg !8532
  %33 = alloca %"struct.std::__1::__compressed_pair_elem.12"*, align 8
  call void @llvm.dbg.declare(metadata %"struct.std::__1::__compressed_pair_elem.12"** %33, metadata !7930, metadata !DIExpression()), !dbg !8533
  %34 = alloca %"class.std::__1::__compressed_pair.11"*, align 8
  call void @llvm.dbg.declare(metadata %"class.std::__1::__compressed_pair.11"** %34, metadata !7941, metadata !DIExpression()), !dbg !8536
  %35 = alloca %"class.std::__1::unique_ptr.10"*, align 8
  call void @llvm.dbg.declare(metadata %"class.std::__1::unique_ptr.10"** %35, metadata !8139, metadata !DIExpression()), !dbg !8537
  %36 = alloca %"class.altered_carbon::js::ACJsState"*, align 8
  call void @llvm.dbg.declare(metadata %"class.altered_carbon::js::ACJsState"** %36, metadata !8141, metadata !DIExpression()), !dbg !8538
  %37 = alloca %"class.altered_carbon::js::ACJsState"*, align 8
  call void @llvm.dbg.declare(metadata %"class.altered_carbon::js::ACJsState"** %37, metadata !8143, metadata !DIExpression()), !dbg !8539
  %38 = alloca %"class.std::__1::unique_ptr.10"*, align 8
  call void @llvm.dbg.declare(metadata %"class.std::__1::unique_ptr.10"** %38, metadata !8145, metadata !DIExpression()), !dbg !8540
  %39 = alloca %"class.std::__1::unique_ptr.10"*, align 8
  call void @llvm.dbg.declare(metadata %"class.std::__1::unique_ptr.10"** %39, metadata !8147, metadata !DIExpression()), !dbg !8541
  %40 = alloca %"struct.std::__1::__compressed_pair_elem.12"*, align 8
  call void @llvm.dbg.declare(metadata %"struct.std::__1::__compressed_pair_elem.12"** %40, metadata !7930, metadata !DIExpression()), !dbg !8542
  %41 = alloca %"class.std::__1::__compressed_pair.11"*, align 8
  call void @llvm.dbg.declare(metadata %"class.std::__1::__compressed_pair.11"** %41, metadata !7941, metadata !DIExpression()), !dbg !8547
  %42 = alloca %"class.altered_carbon::js::ACJsState"**, align 8
  call void @llvm.dbg.declare(metadata %"class.altered_carbon::js::ACJsState"*** %42, metadata !7944, metadata !DIExpression()), !dbg !8548
  %43 = alloca %"class.altered_carbon::js::ACJsState"**, align 8
  call void @llvm.dbg.declare(metadata %"class.altered_carbon::js::ACJsState"*** %43, metadata !7944, metadata !DIExpression()), !dbg !8551
  %44 = alloca %"class.altered_carbon::js::ACJsState"**, align 8
  call void @llvm.dbg.declare(metadata %"class.altered_carbon::js::ACJsState"*** %44, metadata !7944, metadata !DIExpression()), !dbg !8553
  %45 = alloca %"class.altered_carbon::js::ACJsState"**, align 8
  call void @llvm.dbg.declare(metadata %"class.altered_carbon::js::ACJsState"*** %45, metadata !7964, metadata !DIExpression()), !dbg !8555
  %46 = alloca %"class.altered_carbon::js::ACJsState"**, align 8
  call void @llvm.dbg.declare(metadata %"class.altered_carbon::js::ACJsState"*** %46, metadata !7966, metadata !DIExpression()), !dbg !8556
  %47 = alloca %"class.altered_carbon::js::ACJsState"*, align 8
  call void @llvm.dbg.declare(metadata %"class.altered_carbon::js::ACJsState"** %47, metadata !7968, metadata !DIExpression()), !dbg !8557
  %48 = alloca %"struct.std::__1::__compressed_pair_elem.13"*, align 8
  call void @llvm.dbg.declare(metadata %"struct.std::__1::__compressed_pair_elem.13"** %48, metadata !7970, metadata !DIExpression()), !dbg !8558
  %49 = alloca %"class.std::__1::__compressed_pair.11"*, align 8
  call void @llvm.dbg.declare(metadata %"class.std::__1::__compressed_pair.11"** %49, metadata !7977, metadata !DIExpression()), !dbg !8561
  %50 = alloca %"struct.std::__1::__compressed_pair_elem.13"*, align 8
  call void @llvm.dbg.declare(metadata %"struct.std::__1::__compressed_pair_elem.13"** %50, metadata !7970, metadata !DIExpression()), !dbg !8562
  %51 = alloca %"class.std::__1::__compressed_pair.11"*, align 8
  call void @llvm.dbg.declare(metadata %"class.std::__1::__compressed_pair.11"** %51, metadata !7977, metadata !DIExpression()), !dbg !8565
  %52 = alloca %"struct.std::__1::default_delete.14"*, align 8
  call void @llvm.dbg.declare(metadata %"struct.std::__1::default_delete.14"** %52, metadata !7983, metadata !DIExpression()), !dbg !8566
  %53 = alloca %"struct.std::__1::default_delete.14"*, align 8
  call void @llvm.dbg.declare(metadata %"struct.std::__1::default_delete.14"** %53, metadata !7983, metadata !DIExpression()), !dbg !8569
  %54 = alloca %"struct.std::__1::default_delete.14"*, align 8
  call void @llvm.dbg.declare(metadata %"struct.std::__1::default_delete.14"** %54, metadata !7983, metadata !DIExpression()), !dbg !8571
  %55 = alloca %"struct.std::__1::default_delete.14"*, align 8
  call void @llvm.dbg.declare(metadata %"struct.std::__1::default_delete.14"** %55, metadata !8003, metadata !DIExpression()), !dbg !8573
  %56 = alloca %"struct.std::__1::default_delete.14"*, align 8
  call void @llvm.dbg.declare(metadata %"struct.std::__1::default_delete.14"** %56, metadata !8005, metadata !DIExpression()), !dbg !8574
  %57 = alloca %"struct.std::__1::default_delete.14", align 1
  call void @llvm.dbg.declare(metadata %"struct.std::__1::default_delete.14"* %57, metadata !8007, metadata !DIExpression()), !dbg !8575
  %58 = alloca %"struct.std::__1::__compressed_pair_elem.12"*, align 8
  call void @llvm.dbg.declare(metadata %"struct.std::__1::__compressed_pair_elem.12"** %58, metadata !7930, metadata !DIExpression()), !dbg !8576
  %59 = alloca %"class.std::__1::__compressed_pair.11"*, align 8
  call void @llvm.dbg.declare(metadata %"class.std::__1::__compressed_pair.11"** %59, metadata !7941, metadata !DIExpression()), !dbg !8579
  %60 = alloca %"class.std::__1::__compressed_pair.11"*, align 8
  call void @llvm.dbg.declare(metadata %"class.std::__1::__compressed_pair.11"** %60, metadata !8013, metadata !DIExpression()), !dbg !8580
  %61 = alloca %"class.std::__1::__compressed_pair.11"*, align 8
  call void @llvm.dbg.declare(metadata %"class.std::__1::__compressed_pair.11"** %61, metadata !8015, metadata !DIExpression()), !dbg !8581
  %62 = alloca %"class.std::__1::unique_ptr.10"*, align 8
  call void @llvm.dbg.declare(metadata %"class.std::__1::unique_ptr.10"** %62, metadata !8017, metadata !DIExpression()), !dbg !8582
  %63 = alloca %"class.std::__1::unique_ptr.10"*, align 8
  call void @llvm.dbg.declare(metadata %"class.std::__1::unique_ptr.10"** %63, metadata !8020, metadata !DIExpression()), !dbg !8583
  %64 = alloca { i64, i64 }, align 8
  %65 = alloca %"class.altered_carbon::js::ACAstBuilder"*, align 8
  %66 = alloca { i64, i64 }, align 8
  %67 = alloca %"class.std::__1::unique_ptr.10", align 8
  %68 = alloca i1, align 1
  %69 = getelementptr inbounds { i64, i64 }, { i64, i64 }* %64, i32 0, i32 0
  store i64 %2, i64* %69, align 8
  %70 = getelementptr inbounds { i64, i64 }, { i64, i64 }* %64, i32 0, i32 1
  store i64 %3, i64* %70, align 8
  %71 = load { i64, i64 }, { i64, i64 }* %64, align 8
  store %"class.altered_carbon::js::ACAstBuilder"* %1, %"class.altered_carbon::js::ACAstBuilder"** %65, align 8
  call void @llvm.dbg.declare(metadata %"class.altered_carbon::js::ACAstBuilder"** %65, metadata !8584, metadata !DIExpression()), !dbg !8585
  store { i64, i64 } %71, { i64, i64 }* %66, align 8
  call void @llvm.dbg.declare(metadata { i64, i64 }* %66, metadata !8586, metadata !DIExpression()), !dbg !8587
  %72 = load %"class.altered_carbon::js::ACAstBuilder"*, %"class.altered_carbon::js::ACAstBuilder"** %65, align 8
  call void @llvm.dbg.declare(metadata %"class.std::__1::unique_ptr.10"* %67, metadata !8588, metadata !DIExpression()), !dbg !8589
  call void @_ZN4llvm11make_uniqueIN14altered_carbon2js9ACJsStateEJEEENSt3__19enable_ifIXntsr3std8is_arrayIT_EE5valueENS4_10unique_ptrIS6_NS4_14default_deleteIS6_EEEEE4typeEDpOT0_(%"class.std::__1::unique_ptr.10"* sret %67), !dbg !8590
  %73 = getelementptr inbounds %"class.altered_carbon::js::ACAstBuilder", %"class.altered_carbon::js::ACAstBuilder"* %72, i32 0, i32 1, !dbg !8591
  store %"class.std::__1::unique_ptr.10"* %67, %"class.std::__1::unique_ptr.10"** %62, align 8
  store %"class.std::__1::unique_ptr.10"* %73, %"class.std::__1::unique_ptr.10"** %63, align 8
  %74 = load %"class.std::__1::unique_ptr.10"*, %"class.std::__1::unique_ptr.10"** %62, align 8
  %75 = getelementptr inbounds %"class.std::__1::unique_ptr.10", %"class.std::__1::unique_ptr.10"* %74, i32 0, i32 0, !dbg !8592
  %76 = load %"class.std::__1::unique_ptr.10"*, %"class.std::__1::unique_ptr.10"** %63, align 8, !dbg !8593
  %77 = getelementptr inbounds %"class.std::__1::unique_ptr.10", %"class.std::__1::unique_ptr.10"* %76, i32 0, i32 0, !dbg !8594
  store %"class.std::__1::__compressed_pair.11"* %75, %"class.std::__1::__compressed_pair.11"** %60, align 8
  store %"class.std::__1::__compressed_pair.11"* %77, %"class.std::__1::__compressed_pair.11"** %61, align 8
  %78 = load %"class.std::__1::__compressed_pair.11"*, %"class.std::__1::__compressed_pair.11"** %60, align 8
  store %"class.std::__1::__compressed_pair.11"* %78, %"class.std::__1::__compressed_pair.11"** %59, align 8
  %79 = load %"class.std::__1::__compressed_pair.11"*, %"class.std::__1::__compressed_pair.11"** %59, align 8
  %80 = bitcast %"class.std::__1::__compressed_pair.11"* %79 to %"struct.std::__1::__compressed_pair_elem.12"*, !dbg !8595
  store %"struct.std::__1::__compressed_pair_elem.12"* %80, %"struct.std::__1::__compressed_pair_elem.12"** %58, align 8
  %81 = load %"struct.std::__1::__compressed_pair_elem.12"*, %"struct.std::__1::__compressed_pair_elem.12"** %58, align 8
  %82 = getelementptr inbounds %"struct.std::__1::__compressed_pair_elem.12", %"struct.std::__1::__compressed_pair_elem.12"* %81, i32 0, i32 0, !dbg !8596
  %83 = load %"class.std::__1::__compressed_pair.11"*, %"class.std::__1::__compressed_pair.11"** %61, align 8, !dbg !8597
  store %"class.std::__1::__compressed_pair.11"* %83, %"class.std::__1::__compressed_pair.11"** %41, align 8
  %84 = load %"class.std::__1::__compressed_pair.11"*, %"class.std::__1::__compressed_pair.11"** %41, align 8
  %85 = bitcast %"class.std::__1::__compressed_pair.11"* %84 to %"struct.std::__1::__compressed_pair_elem.12"*, !dbg !8598
  store %"struct.std::__1::__compressed_pair_elem.12"* %85, %"struct.std::__1::__compressed_pair_elem.12"** %40, align 8
  %86 = load %"struct.std::__1::__compressed_pair_elem.12"*, %"struct.std::__1::__compressed_pair_elem.12"** %40, align 8
  %87 = getelementptr inbounds %"struct.std::__1::__compressed_pair_elem.12", %"struct.std::__1::__compressed_pair_elem.12"* %86, i32 0, i32 0, !dbg !8599
  store %"class.altered_carbon::js::ACJsState"** %82, %"class.altered_carbon::js::ACJsState"*** %45, align 8
  store %"class.altered_carbon::js::ACJsState"** %87, %"class.altered_carbon::js::ACJsState"*** %46, align 8
  %88 = load %"class.altered_carbon::js::ACJsState"**, %"class.altered_carbon::js::ACJsState"*** %45, align 8, !dbg !8600
  store %"class.altered_carbon::js::ACJsState"** %88, %"class.altered_carbon::js::ACJsState"*** %44, align 8
  %89 = load %"class.altered_carbon::js::ACJsState"**, %"class.altered_carbon::js::ACJsState"*** %44, align 8, !dbg !8601
  %90 = load %"class.altered_carbon::js::ACJsState"*, %"class.altered_carbon::js::ACJsState"** %89, align 8, !dbg !8602
  store %"class.altered_carbon::js::ACJsState"* %90, %"class.altered_carbon::js::ACJsState"** %47, align 8, !dbg !8557
  %91 = load %"class.altered_carbon::js::ACJsState"**, %"class.altered_carbon::js::ACJsState"*** %46, align 8, !dbg !8603
  store %"class.altered_carbon::js::ACJsState"** %91, %"class.altered_carbon::js::ACJsState"*** %42, align 8
  %92 = load %"class.altered_carbon::js::ACJsState"**, %"class.altered_carbon::js::ACJsState"*** %42, align 8, !dbg !8604
  %93 = load %"class.altered_carbon::js::ACJsState"*, %"class.altered_carbon::js::ACJsState"** %92, align 8, !dbg !8605
  %94 = load %"class.altered_carbon::js::ACJsState"**, %"class.altered_carbon::js::ACJsState"*** %45, align 8, !dbg !8606
  store %"class.altered_carbon::js::ACJsState"* %93, %"class.altered_carbon::js::ACJsState"** %94, align 8, !dbg !8607
  store %"class.altered_carbon::js::ACJsState"** %47, %"class.altered_carbon::js::ACJsState"*** %43, align 8
  %95 = load %"class.altered_carbon::js::ACJsState"**, %"class.altered_carbon::js::ACJsState"*** %43, align 8, !dbg !8608
  %96 = load %"class.altered_carbon::js::ACJsState"*, %"class.altered_carbon::js::ACJsState"** %95, align 8, !dbg !8609
  %97 = load %"class.altered_carbon::js::ACJsState"**, %"class.altered_carbon::js::ACJsState"*** %46, align 8, !dbg !8610
  store %"class.altered_carbon::js::ACJsState"* %96, %"class.altered_carbon::js::ACJsState"** %97, align 8, !dbg !8611
  store %"class.std::__1::__compressed_pair.11"* %78, %"class.std::__1::__compressed_pair.11"** %49, align 8
  %98 = load %"class.std::__1::__compressed_pair.11"*, %"class.std::__1::__compressed_pair.11"** %49, align 8
  %99 = bitcast %"class.std::__1::__compressed_pair.11"* %98 to %"struct.std::__1::__compressed_pair_elem.13"*, !dbg !8612
  store %"struct.std::__1::__compressed_pair_elem.13"* %99, %"struct.std::__1::__compressed_pair_elem.13"** %48, align 8
  %100 = load %"struct.std::__1::__compressed_pair_elem.13"*, %"struct.std::__1::__compressed_pair_elem.13"** %48, align 8
  %101 = bitcast %"struct.std::__1::__compressed_pair_elem.13"* %100 to %"struct.std::__1::default_delete.14"*, !dbg !8613
  %102 = load %"class.std::__1::__compressed_pair.11"*, %"class.std::__1::__compressed_pair.11"** %61, align 8, !dbg !8614
  store %"class.std::__1::__compressed_pair.11"* %102, %"class.std::__1::__compressed_pair.11"** %51, align 8
  %103 = load %"class.std::__1::__compressed_pair.11"*, %"class.std::__1::__compressed_pair.11"** %51, align 8
  %104 = bitcast %"class.std::__1::__compressed_pair.11"* %103 to %"struct.std::__1::__compressed_pair_elem.13"*, !dbg !8615
  store %"struct.std::__1::__compressed_pair_elem.13"* %104, %"struct.std::__1::__compressed_pair_elem.13"** %50, align 8
  %105 = load %"struct.std::__1::__compressed_pair_elem.13"*, %"struct.std::__1::__compressed_pair_elem.13"** %50, align 8
  %106 = bitcast %"struct.std::__1::__compressed_pair_elem.13"* %105 to %"struct.std::__1::default_delete.14"*, !dbg !8616
  store %"struct.std::__1::default_delete.14"* %101, %"struct.std::__1::default_delete.14"** %55, align 8
  store %"struct.std::__1::default_delete.14"* %106, %"struct.std::__1::default_delete.14"** %56, align 8
  %107 = load %"struct.std::__1::default_delete.14"*, %"struct.std::__1::default_delete.14"** %55, align 8, !dbg !8617
  store %"struct.std::__1::default_delete.14"* %107, %"struct.std::__1::default_delete.14"** %54, align 8
  %108 = load %"struct.std::__1::default_delete.14"*, %"struct.std::__1::default_delete.14"** %54, align 8, !dbg !8618
  %109 = load %"struct.std::__1::default_delete.14"*, %"struct.std::__1::default_delete.14"** %56, align 8, !dbg !8619
  store %"struct.std::__1::default_delete.14"* %109, %"struct.std::__1::default_delete.14"** %52, align 8
  %110 = load %"struct.std::__1::default_delete.14"*, %"struct.std::__1::default_delete.14"** %52, align 8, !dbg !8620
  %111 = load %"struct.std::__1::default_delete.14"*, %"struct.std::__1::default_delete.14"** %55, align 8, !dbg !8621
  store %"struct.std::__1::default_delete.14"* %57, %"struct.std::__1::default_delete.14"** %53, align 8
  %112 = load %"struct.std::__1::default_delete.14"*, %"struct.std::__1::default_delete.14"** %53, align 8, !dbg !8622
  %113 = load %"struct.std::__1::default_delete.14"*, %"struct.std::__1::default_delete.14"** %56, align 8, !dbg !8623
  %114 = getelementptr inbounds %"class.altered_carbon::js::ACAstBuilder", %"class.altered_carbon::js::ACAstBuilder"* %72, i32 0, i32 1, !dbg !8624
  store %"class.std::__1::unique_ptr.10"* %114, %"class.std::__1::unique_ptr.10"** %26, align 8
  %115 = load %"class.std::__1::unique_ptr.10"*, %"class.std::__1::unique_ptr.10"** %26, align 8
  %116 = getelementptr inbounds %"class.std::__1::unique_ptr.10", %"class.std::__1::unique_ptr.10"* %115, i32 0, i32 0, !dbg !8625
  store %"class.std::__1::__compressed_pair.11"* %116, %"class.std::__1::__compressed_pair.11"** %25, align 8
  %117 = load %"class.std::__1::__compressed_pair.11"*, %"class.std::__1::__compressed_pair.11"** %25, align 8
  %118 = bitcast %"class.std::__1::__compressed_pair.11"* %117 to %"struct.std::__1::__compressed_pair_elem.12"*, !dbg !8626
  store %"struct.std::__1::__compressed_pair_elem.12"* %118, %"struct.std::__1::__compressed_pair_elem.12"** %24, align 8
  %119 = load %"struct.std::__1::__compressed_pair_elem.12"*, %"struct.std::__1::__compressed_pair_elem.12"** %24, align 8
  %120 = getelementptr inbounds %"struct.std::__1::__compressed_pair_elem.12", %"struct.std::__1::__compressed_pair_elem.12"* %119, i32 0, i32 0, !dbg !8627
  %121 = load %"class.altered_carbon::js::ACJsState"*, %"class.altered_carbon::js::ACJsState"** %120, align 8, !dbg !8628
  %122 = getelementptr inbounds %"class.altered_carbon::js::ACJsState", %"class.altered_carbon::js::ACJsState"* %121, i32 0, i32 2, !dbg !8624
  store i8 1, i8* %122, align 1, !dbg !8624
  br label %123, !dbg !8629

; <label>:123:                                    ; preds = %124, %4
  br i1 false, label %124, label %125, !dbg !8629

; <label>:124:                                    ; preds = %123
  br label %123, !dbg !8629, !llvm.loop !8630

; <label>:125:                                    ; preds = %123
  %126 = getelementptr inbounds %"class.altered_carbon::js::ACAstBuilder", %"class.altered_carbon::js::ACAstBuilder"* %72, i32 0, i32 1, !dbg !8631
  store %"class.std::__1::unique_ptr.10"* %126, %"class.std::__1::unique_ptr.10"** %10, align 8
  %127 = load %"class.std::__1::unique_ptr.10"*, %"class.std::__1::unique_ptr.10"** %10, align 8
  %128 = getelementptr inbounds %"class.std::__1::unique_ptr.10", %"class.std::__1::unique_ptr.10"* %127, i32 0, i32 0, !dbg !8632
  store %"class.std::__1::__compressed_pair.11"* %128, %"class.std::__1::__compressed_pair.11"** %9, align 8
  %129 = load %"class.std::__1::__compressed_pair.11"*, %"class.std::__1::__compressed_pair.11"** %9, align 8
  %130 = bitcast %"class.std::__1::__compressed_pair.11"* %129 to %"struct.std::__1::__compressed_pair_elem.12"*, !dbg !8633
  store %"struct.std::__1::__compressed_pair_elem.12"* %130, %"struct.std::__1::__compressed_pair_elem.12"** %8, align 8
  %131 = load %"struct.std::__1::__compressed_pair_elem.12"*, %"struct.std::__1::__compressed_pair_elem.12"** %8, align 8
  %132 = getelementptr inbounds %"struct.std::__1::__compressed_pair_elem.12", %"struct.std::__1::__compressed_pair_elem.12"* %131, i32 0, i32 0, !dbg !8634
  %133 = load %"class.altered_carbon::js::ACJsState"*, %"class.altered_carbon::js::ACJsState"** %132, align 8, !dbg !8635
  %134 = getelementptr inbounds %"class.altered_carbon::js::ACJsState", %"class.altered_carbon::js::ACJsState"* %133, i32 0, i32 1, !dbg !8631
  store i8 1, i8* %134, align 8, !dbg !8631
  br label %135, !dbg !8629

; <label>:135:                                    ; preds = %136, %125
  br i1 false, label %136, label %137, !dbg !8629

; <label>:136:                                    ; preds = %135
  br label %135, !dbg !8629, !llvm.loop !8636

; <label>:137:                                    ; preds = %135
  br label %138, !dbg !8637

; <label>:138:                                    ; preds = %139, %137
  br i1 false, label %139, label %140, !dbg !8637

; <label>:139:                                    ; preds = %138
  br label %138, !dbg !8637, !llvm.loop !8638

; <label>:140:                                    ; preds = %138
  store i1 false, i1* %68, align 1, !dbg !8640
  call void @llvm.dbg.declare(metadata %"class.std::__1::unique_ptr"* %0, metadata !8641, metadata !DIExpression()), !dbg !8642
  %141 = load { i64, i64 }, { i64, i64 }* %66, align 8, !dbg !8643
  %142 = extractvalue { i64, i64 } %141, 1, !dbg !8644
  %143 = bitcast %"class.altered_carbon::js::ACAstBuilder"* %72 to i8*, !dbg !8644
  %144 = getelementptr inbounds i8, i8* %143, i64 %142, !dbg !8644
  %145 = bitcast i8* %144 to %"class.altered_carbon::js::ACAstBuilder"*, !dbg !8644
  %146 = extractvalue { i64, i64 } %141, 0, !dbg !8644
  %147 = and i64 %146, 1, !dbg !8644
  %148 = icmp ne i64 %147, 0, !dbg !8644
  br i1 %148, label %149, label %156, !dbg !8644

; <label>:149:                                    ; preds = %140
  %150 = bitcast %"class.altered_carbon::js::ACAstBuilder"* %145 to i8**, !dbg !8644
  %151 = load i8*, i8** %150, align 8, !dbg !8644
  %152 = sub i64 %146, 1, !dbg !8644
  %153 = getelementptr i8, i8* %151, i64 %152, !dbg !8644
  %154 = bitcast i8* %153 to void (%"class.std::__1::unique_ptr"*, %"class.altered_carbon::js::ACAstBuilder"*)**, !dbg !8644
  %155 = load void (%"class.std::__1::unique_ptr"*, %"class.altered_carbon::js::ACAstBuilder"*)*, void (%"class.std::__1::unique_ptr"*, %"class.altered_carbon::js::ACAstBuilder"*)** %154, align 8, !dbg !8644
  br label %158, !dbg !8644

; <label>:156:                                    ; preds = %140
  %157 = inttoptr i64 %146 to void (%"class.std::__1::unique_ptr"*, %"class.altered_carbon::js::ACAstBuilder"*)*, !dbg !8644
  br label %158, !dbg !8644

; <label>:158:                                    ; preds = %156, %149
  %159 = phi void (%"class.std::__1::unique_ptr"*, %"class.altered_carbon::js::ACAstBuilder"*)* [ %155, %149 ], [ %157, %156 ], !dbg !8644
  call void %159(%"class.std::__1::unique_ptr"* sret %0, %"class.altered_carbon::js::ACAstBuilder"* %145), !dbg !8644
  %160 = getelementptr inbounds %"class.altered_carbon::js::ACAstBuilder", %"class.altered_carbon::js::ACAstBuilder"* %72, i32 0, i32 1, !dbg !8645
  store %"class.std::__1::unique_ptr.10"* %160, %"class.std::__1::unique_ptr.10"** %7, align 8
  %161 = load %"class.std::__1::unique_ptr.10"*, %"class.std::__1::unique_ptr.10"** %7, align 8
  %162 = getelementptr inbounds %"class.std::__1::unique_ptr.10", %"class.std::__1::unique_ptr.10"* %161, i32 0, i32 0, !dbg !8646
  store %"class.std::__1::__compressed_pair.11"* %162, %"class.std::__1::__compressed_pair.11"** %6, align 8
  %163 = load %"class.std::__1::__compressed_pair.11"*, %"class.std::__1::__compressed_pair.11"** %6, align 8
  %164 = bitcast %"class.std::__1::__compressed_pair.11"* %163 to %"struct.std::__1::__compressed_pair_elem.12"*, !dbg !8647
  store %"struct.std::__1::__compressed_pair_elem.12"* %164, %"struct.std::__1::__compressed_pair_elem.12"** %5, align 8
  %165 = load %"struct.std::__1::__compressed_pair_elem.12"*, %"struct.std::__1::__compressed_pair_elem.12"** %5, align 8
  %166 = getelementptr inbounds %"struct.std::__1::__compressed_pair_elem.12", %"struct.std::__1::__compressed_pair_elem.12"* %165, i32 0, i32 0, !dbg !8648
  %167 = load %"class.altered_carbon::js::ACJsState"*, %"class.altered_carbon::js::ACJsState"** %166, align 8, !dbg !8649
  call void @_ZN14altered_carbon2js9ACJsState5mergeERNSt3__110unique_ptrIS1_NS2_14default_deleteIS1_EEEE(%"class.altered_carbon::js::ACJsState"* %167, %"class.std::__1::unique_ptr.10"* dereferenceable(8) %67), !dbg !8650
  store i1 true, i1* %68, align 1, !dbg !8651
  %168 = load i1, i1* %68, align 1, !dbg !8652
  br i1 %168, label %204, label %169, !dbg !8652

; <label>:169:                                    ; preds = %158
  store %"class.std::__1::unique_ptr"* %0, %"class.std::__1::unique_ptr"** %23, align 8
  %170 = load %"class.std::__1::unique_ptr"*, %"class.std::__1::unique_ptr"** %23, align 8
  store %"class.std::__1::unique_ptr"* %170, %"class.std::__1::unique_ptr"** %22, align 8
  %171 = load %"class.std::__1::unique_ptr"*, %"class.std::__1::unique_ptr"** %22, align 8
  store %"class.std::__1::unique_ptr"* %171, %"class.std::__1::unique_ptr"** %19, align 8
  store %"class.altered_carbon::js::ACAstBaseNode"* null, %"class.altered_carbon::js::ACAstBaseNode"** %20, align 8
  %172 = load %"class.std::__1::unique_ptr"*, %"class.std::__1::unique_ptr"** %19, align 8
  %173 = getelementptr inbounds %"class.std::__1::unique_ptr", %"class.std::__1::unique_ptr"* %172, i32 0, i32 0, !dbg !8653
  store %"class.std::__1::__compressed_pair"* %173, %"class.std::__1::__compressed_pair"** %18, align 8
  %174 = load %"class.std::__1::__compressed_pair"*, %"class.std::__1::__compressed_pair"** %18, align 8
  %175 = bitcast %"class.std::__1::__compressed_pair"* %174 to %"struct.std::__1::__compressed_pair_elem"*, !dbg !8654
  store %"struct.std::__1::__compressed_pair_elem"* %175, %"struct.std::__1::__compressed_pair_elem"** %17, align 8
  %176 = load %"struct.std::__1::__compressed_pair_elem"*, %"struct.std::__1::__compressed_pair_elem"** %17, align 8
  %177 = getelementptr inbounds %"struct.std::__1::__compressed_pair_elem", %"struct.std::__1::__compressed_pair_elem"* %176, i32 0, i32 0, !dbg !8655
  %178 = load %"class.altered_carbon::js::ACAstBaseNode"*, %"class.altered_carbon::js::ACAstBaseNode"** %177, align 8, !dbg !8656
  store %"class.altered_carbon::js::ACAstBaseNode"* %178, %"class.altered_carbon::js::ACAstBaseNode"** %21, align 8, !dbg !8509
  %179 = load %"class.altered_carbon::js::ACAstBaseNode"*, %"class.altered_carbon::js::ACAstBaseNode"** %20, align 8, !dbg !8657
  %180 = getelementptr inbounds %"class.std::__1::unique_ptr", %"class.std::__1::unique_ptr"* %172, i32 0, i32 0, !dbg !8658
  store %"class.std::__1::__compressed_pair"* %180, %"class.std::__1::__compressed_pair"** %14, align 8
  %181 = load %"class.std::__1::__compressed_pair"*, %"class.std::__1::__compressed_pair"** %14, align 8
  %182 = bitcast %"class.std::__1::__compressed_pair"* %181 to %"struct.std::__1::__compressed_pair_elem"*, !dbg !8659
  store %"struct.std::__1::__compressed_pair_elem"* %182, %"struct.std::__1::__compressed_pair_elem"** %13, align 8
  %183 = load %"struct.std::__1::__compressed_pair_elem"*, %"struct.std::__1::__compressed_pair_elem"** %13, align 8
  %184 = getelementptr inbounds %"struct.std::__1::__compressed_pair_elem", %"struct.std::__1::__compressed_pair_elem"* %183, i32 0, i32 0, !dbg !8660
  store %"class.altered_carbon::js::ACAstBaseNode"* %179, %"class.altered_carbon::js::ACAstBaseNode"** %184, align 8, !dbg !8661
  %185 = load %"class.altered_carbon::js::ACAstBaseNode"*, %"class.altered_carbon::js::ACAstBaseNode"** %21, align 8, !dbg !8662
  %186 = icmp ne %"class.altered_carbon::js::ACAstBaseNode"* %185, null, !dbg !8662
  br i1 %186, label %187, label %203, !dbg !8663

; <label>:187:                                    ; preds = %169
  %188 = getelementptr inbounds %"class.std::__1::unique_ptr", %"class.std::__1::unique_ptr"* %172, i32 0, i32 0, !dbg !8664
  store %"class.std::__1::__compressed_pair"* %188, %"class.std::__1::__compressed_pair"** %12, align 8
  %189 = load %"class.std::__1::__compressed_pair"*, %"class.std::__1::__compressed_pair"** %12, align 8
  %190 = bitcast %"class.std::__1::__compressed_pair"* %189 to %"struct.std::__1::__compressed_pair_elem.7"*, !dbg !8665
  store %"struct.std::__1::__compressed_pair_elem.7"* %190, %"struct.std::__1::__compressed_pair_elem.7"** %11, align 8
  %191 = load %"struct.std::__1::__compressed_pair_elem.7"*, %"struct.std::__1::__compressed_pair_elem.7"** %11, align 8
  %192 = bitcast %"struct.std::__1::__compressed_pair_elem.7"* %191 to %"struct.std::__1::default_delete.8"*, !dbg !8666
  %193 = load %"class.altered_carbon::js::ACAstBaseNode"*, %"class.altered_carbon::js::ACAstBaseNode"** %21, align 8, !dbg !8667
  store %"struct.std::__1::default_delete.8"* %192, %"struct.std::__1::default_delete.8"** %15, align 8
  store %"class.altered_carbon::js::ACAstBaseNode"* %193, %"class.altered_carbon::js::ACAstBaseNode"** %16, align 8
  %194 = load %"struct.std::__1::default_delete.8"*, %"struct.std::__1::default_delete.8"** %15, align 8
  %195 = load %"class.altered_carbon::js::ACAstBaseNode"*, %"class.altered_carbon::js::ACAstBaseNode"** %16, align 8, !dbg !8668
  %196 = icmp eq %"class.altered_carbon::js::ACAstBaseNode"* %195, null, !dbg !8669
  br i1 %196, label %202, label %197, !dbg !8669

; <label>:197:                                    ; preds = %187
  %198 = bitcast %"class.altered_carbon::js::ACAstBaseNode"* %195 to void (%"class.altered_carbon::js::ACAstBaseNode"*)***, !dbg !8669
  %199 = load void (%"class.altered_carbon::js::ACAstBaseNode"*)**, void (%"class.altered_carbon::js::ACAstBaseNode"*)*** %198, align 8, !dbg !8669
  %200 = getelementptr inbounds void (%"class.altered_carbon::js::ACAstBaseNode"*)*, void (%"class.altered_carbon::js::ACAstBaseNode"*)** %199, i64 1, !dbg !8669
  %201 = load void (%"class.altered_carbon::js::ACAstBaseNode"*)*, void (%"class.altered_carbon::js::ACAstBaseNode"*)** %200, align 8, !dbg !8669
  call void %201(%"class.altered_carbon::js::ACAstBaseNode"* %195) #2, !dbg !8669
  br label %202, !dbg !8669

; <label>:202:                                    ; preds = %197, %187
  br label %203, !dbg !8664

; <label>:203:                                    ; preds = %169, %202
  br label %204, !dbg !8652

; <label>:204:                                    ; preds = %203, %158
  store %"class.std::__1::unique_ptr.10"* %67, %"class.std::__1::unique_ptr.10"** %39, align 8
  %205 = load %"class.std::__1::unique_ptr.10"*, %"class.std::__1::unique_ptr.10"** %39, align 8
  store %"class.std::__1::unique_ptr.10"* %205, %"class.std::__1::unique_ptr.10"** %38, align 8
  %206 = load %"class.std::__1::unique_ptr.10"*, %"class.std::__1::unique_ptr.10"** %38, align 8
  store %"class.std::__1::unique_ptr.10"* %206, %"class.std::__1::unique_ptr.10"** %35, align 8
  store %"class.altered_carbon::js::ACJsState"* null, %"class.altered_carbon::js::ACJsState"** %36, align 8
  %207 = load %"class.std::__1::unique_ptr.10"*, %"class.std::__1::unique_ptr.10"** %35, align 8
  %208 = getelementptr inbounds %"class.std::__1::unique_ptr.10", %"class.std::__1::unique_ptr.10"* %207, i32 0, i32 0, !dbg !8670
  store %"class.std::__1::__compressed_pair.11"* %208, %"class.std::__1::__compressed_pair.11"** %34, align 8
  %209 = load %"class.std::__1::__compressed_pair.11"*, %"class.std::__1::__compressed_pair.11"** %34, align 8
  %210 = bitcast %"class.std::__1::__compressed_pair.11"* %209 to %"struct.std::__1::__compressed_pair_elem.12"*, !dbg !8671
  store %"struct.std::__1::__compressed_pair_elem.12"* %210, %"struct.std::__1::__compressed_pair_elem.12"** %33, align 8
  %211 = load %"struct.std::__1::__compressed_pair_elem.12"*, %"struct.std::__1::__compressed_pair_elem.12"** %33, align 8
  %212 = getelementptr inbounds %"struct.std::__1::__compressed_pair_elem.12", %"struct.std::__1::__compressed_pair_elem.12"* %211, i32 0, i32 0, !dbg !8672
  %213 = load %"class.altered_carbon::js::ACJsState"*, %"class.altered_carbon::js::ACJsState"** %212, align 8, !dbg !8673
  store %"class.altered_carbon::js::ACJsState"* %213, %"class.altered_carbon::js::ACJsState"** %37, align 8, !dbg !8539
  %214 = load %"class.altered_carbon::js::ACJsState"*, %"class.altered_carbon::js::ACJsState"** %36, align 8, !dbg !8674
  %215 = getelementptr inbounds %"class.std::__1::unique_ptr.10", %"class.std::__1::unique_ptr.10"* %207, i32 0, i32 0, !dbg !8675
  store %"class.std::__1::__compressed_pair.11"* %215, %"class.std::__1::__compressed_pair.11"** %30, align 8
  %216 = load %"class.std::__1::__compressed_pair.11"*, %"class.std::__1::__compressed_pair.11"** %30, align 8
  %217 = bitcast %"class.std::__1::__compressed_pair.11"* %216 to %"struct.std::__1::__compressed_pair_elem.12"*, !dbg !8676
  store %"struct.std::__1::__compressed_pair_elem.12"* %217, %"struct.std::__1::__compressed_pair_elem.12"** %29, align 8
  %218 = load %"struct.std::__1::__compressed_pair_elem.12"*, %"struct.std::__1::__compressed_pair_elem.12"** %29, align 8
  %219 = getelementptr inbounds %"struct.std::__1::__compressed_pair_elem.12", %"struct.std::__1::__compressed_pair_elem.12"* %218, i32 0, i32 0, !dbg !8677
  store %"class.altered_carbon::js::ACJsState"* %214, %"class.altered_carbon::js::ACJsState"** %219, align 8, !dbg !8678
  %220 = load %"class.altered_carbon::js::ACJsState"*, %"class.altered_carbon::js::ACJsState"** %37, align 8, !dbg !8679
  %221 = icmp ne %"class.altered_carbon::js::ACJsState"* %220, null, !dbg !8679
  br i1 %221, label %222, label %238, !dbg !8680

; <label>:222:                                    ; preds = %204
  %223 = getelementptr inbounds %"class.std::__1::unique_ptr.10", %"class.std::__1::unique_ptr.10"* %207, i32 0, i32 0, !dbg !8681
  store %"class.std::__1::__compressed_pair.11"* %223, %"class.std::__1::__compressed_pair.11"** %28, align 8
  %224 = load %"class.std::__1::__compressed_pair.11"*, %"class.std::__1::__compressed_pair.11"** %28, align 8
  %225 = bitcast %"class.std::__1::__compressed_pair.11"* %224 to %"struct.std::__1::__compressed_pair_elem.13"*, !dbg !8682
  store %"struct.std::__1::__compressed_pair_elem.13"* %225, %"struct.std::__1::__compressed_pair_elem.13"** %27, align 8
  %226 = load %"struct.std::__1::__compressed_pair_elem.13"*, %"struct.std::__1::__compressed_pair_elem.13"** %27, align 8
  %227 = bitcast %"struct.std::__1::__compressed_pair_elem.13"* %226 to %"struct.std::__1::default_delete.14"*, !dbg !8683
  %228 = load %"class.altered_carbon::js::ACJsState"*, %"class.altered_carbon::js::ACJsState"** %37, align 8, !dbg !8684
  store %"struct.std::__1::default_delete.14"* %227, %"struct.std::__1::default_delete.14"** %31, align 8
  store %"class.altered_carbon::js::ACJsState"* %228, %"class.altered_carbon::js::ACJsState"** %32, align 8
  %229 = load %"struct.std::__1::default_delete.14"*, %"struct.std::__1::default_delete.14"** %31, align 8
  %230 = load %"class.altered_carbon::js::ACJsState"*, %"class.altered_carbon::js::ACJsState"** %32, align 8, !dbg !8685
  %231 = icmp eq %"class.altered_carbon::js::ACJsState"* %230, null, !dbg !8686
  br i1 %231, label %237, label %232, !dbg !8686

; <label>:232:                                    ; preds = %222
  %233 = bitcast %"class.altered_carbon::js::ACJsState"* %230 to void (%"class.altered_carbon::js::ACJsState"*)***, !dbg !8686
  %234 = load void (%"class.altered_carbon::js::ACJsState"*)**, void (%"class.altered_carbon::js::ACJsState"*)*** %233, align 8, !dbg !8686
  %235 = getelementptr inbounds void (%"class.altered_carbon::js::ACJsState"*)*, void (%"class.altered_carbon::js::ACJsState"*)** %234, i64 1, !dbg !8686
  %236 = load void (%"class.altered_carbon::js::ACJsState"*)*, void (%"class.altered_carbon::js::ACJsState"*)** %235, align 8, !dbg !8686
  call void %236(%"class.altered_carbon::js::ACJsState"* %230) #2, !dbg !8686
  br label %237, !dbg !8686

; <label>:237:                                    ; preds = %232, %222
  br label %238, !dbg !8681

; <label>:238:                                    ; preds = %204, %237
  ret void, !dbg !8652
}

; Function Attrs: noinline nounwind optnone ssp uwtable
define void @_ZN14altered_carbon2js12ACAstBuilderC2EPKc(%"class.altered_carbon::js::ACAstBuilder"*, i8*) unnamed_addr #1 align 2 !dbg !8687 {
  %3 = alloca %"class.altered_carbon::js::ACJsState"**, align 8
  call void @llvm.dbg.declare(metadata %"class.altered_carbon::js::ACJsState"*** %3, metadata !8688, metadata !DIExpression()), !dbg !8696
  %4 = alloca %"struct.std::__1::__compressed_pair_elem.12"*, align 8
  call void @llvm.dbg.declare(metadata %"struct.std::__1::__compressed_pair_elem.12"** %4, metadata !8718, metadata !DIExpression()), !dbg !8719
  %5 = alloca %"class.altered_carbon::js::ACJsState"**, align 8
  call void @llvm.dbg.declare(metadata %"class.altered_carbon::js::ACJsState"*** %5, metadata !8720, metadata !DIExpression()), !dbg !8721
  %6 = alloca %"class.altered_carbon::js::ACJsState"**, align 8
  call void @llvm.dbg.declare(metadata %"class.altered_carbon::js::ACJsState"*** %6, metadata !8688, metadata !DIExpression()), !dbg !8722
  %7 = alloca %"class.std::__1::__compressed_pair.11"*, align 8
  call void @llvm.dbg.declare(metadata %"class.std::__1::__compressed_pair.11"** %7, metadata !8724, metadata !DIExpression()), !dbg !8725
  %8 = alloca %"class.altered_carbon::js::ACJsState"**, align 8
  call void @llvm.dbg.declare(metadata %"class.altered_carbon::js::ACJsState"*** %8, metadata !8726, metadata !DIExpression()), !dbg !8727
  %9 = alloca %"class.std::__1::__compressed_pair.11"*, align 8
  call void @llvm.dbg.declare(metadata %"class.std::__1::__compressed_pair.11"** %9, metadata !8728, metadata !DIExpression()), !dbg !8729
  %10 = alloca %"class.altered_carbon::js::ACJsState"**, align 8
  call void @llvm.dbg.declare(metadata %"class.altered_carbon::js::ACJsState"*** %10, metadata !8730, metadata !DIExpression()), !dbg !8731
  %11 = alloca %"class.std::__1::unique_ptr.10"*, align 8
  call void @llvm.dbg.declare(metadata %"class.std::__1::unique_ptr.10"** %11, metadata !8732, metadata !DIExpression()), !dbg !8733
  %12 = alloca %"class.altered_carbon::js::ACJsState"*, align 8
  %13 = alloca %"class.std::__1::unique_ptr.10"*, align 8
  call void @llvm.dbg.declare(metadata %"class.std::__1::unique_ptr.10"** %13, metadata !8734, metadata !DIExpression()), !dbg !8735
  %14 = alloca %"class.altered_carbon::js::ACAstBuilder"*, align 8
  %15 = alloca i8*, align 8
  store %"class.altered_carbon::js::ACAstBuilder"* %0, %"class.altered_carbon::js::ACAstBuilder"** %14, align 8
  call void @llvm.dbg.declare(metadata %"class.altered_carbon::js::ACAstBuilder"** %14, metadata !8736, metadata !DIExpression()), !dbg !8737
  store i8* %1, i8** %15, align 8
  call void @llvm.dbg.declare(metadata i8** %15, metadata !8738, metadata !DIExpression()), !dbg !8739
  %16 = load %"class.altered_carbon::js::ACAstBuilder"*, %"class.altered_carbon::js::ACAstBuilder"** %14, align 8
  %17 = bitcast %"class.altered_carbon::js::ACAstBuilder"* %16 to %"class.altered_carbon::js::ACJsParser"*, !dbg !8740
  %18 = load i8*, i8** %15, align 8, !dbg !8741
  call void @_ZN14altered_carbon2js10ACJsParserC2EPKc(%"class.altered_carbon::js::ACJsParser"* %17, i8* %18), !dbg !8742
  %19 = bitcast %"class.altered_carbon::js::ACAstBuilder"* %16 to i32 (...)***, !dbg !8740
  store i32 (...)** bitcast (i8** getelementptr inbounds ({ [5 x i8*] }, { [5 x i8*] }* @_ZTVN14altered_carbon2js12ACAstBuilderE, i32 0, inrange i32 0, i32 2) to i32 (...)**), i32 (...)*** %19, align 8, !dbg !8740
  %20 = getelementptr inbounds %"class.altered_carbon::js::ACAstBuilder", %"class.altered_carbon::js::ACAstBuilder"* %16, i32 0, i32 1, !dbg !8743
  store %"class.std::__1::unique_ptr.10"* %20, %"class.std::__1::unique_ptr.10"** %13, align 8
  %21 = load %"class.std::__1::unique_ptr.10"*, %"class.std::__1::unique_ptr.10"** %13, align 8
  store %"class.std::__1::unique_ptr.10"* %21, %"class.std::__1::unique_ptr.10"** %11, align 8
  %22 = load %"class.std::__1::unique_ptr.10"*, %"class.std::__1::unique_ptr.10"** %11, align 8
  %23 = getelementptr inbounds %"class.std::__1::unique_ptr.10", %"class.std::__1::unique_ptr.10"* %22, i32 0, i32 0, !dbg !8744
  store %"class.altered_carbon::js::ACJsState"* null, %"class.altered_carbon::js::ACJsState"** %12, align 8, !dbg !8745
  store %"class.std::__1::__compressed_pair.11"* %23, %"class.std::__1::__compressed_pair.11"** %9, align 8
  store %"class.altered_carbon::js::ACJsState"** %12, %"class.altered_carbon::js::ACJsState"*** %10, align 8
  %24 = load %"class.std::__1::__compressed_pair.11"*, %"class.std::__1::__compressed_pair.11"** %9, align 8
  %25 = load %"class.altered_carbon::js::ACJsState"**, %"class.altered_carbon::js::ACJsState"*** %10, align 8, !dbg !8746
  store %"class.std::__1::__compressed_pair.11"* %24, %"class.std::__1::__compressed_pair.11"** %7, align 8
  store %"class.altered_carbon::js::ACJsState"** %25, %"class.altered_carbon::js::ACJsState"*** %8, align 8
  %26 = load %"class.std::__1::__compressed_pair.11"*, %"class.std::__1::__compressed_pair.11"** %7, align 8
  %27 = bitcast %"class.std::__1::__compressed_pair.11"* %26 to %"struct.std::__1::__compressed_pair_elem.12"*, !dbg !8747
  %28 = load %"class.altered_carbon::js::ACJsState"**, %"class.altered_carbon::js::ACJsState"*** %8, align 8, !dbg !8748
  store %"class.altered_carbon::js::ACJsState"** %28, %"class.altered_carbon::js::ACJsState"*** %6, align 8
  %29 = load %"class.altered_carbon::js::ACJsState"**, %"class.altered_carbon::js::ACJsState"*** %6, align 8, !dbg !8749
  store %"struct.std::__1::__compressed_pair_elem.12"* %27, %"struct.std::__1::__compressed_pair_elem.12"** %4, align 8
  store %"class.altered_carbon::js::ACJsState"** %29, %"class.altered_carbon::js::ACJsState"*** %5, align 8
  %30 = load %"struct.std::__1::__compressed_pair_elem.12"*, %"struct.std::__1::__compressed_pair_elem.12"** %4, align 8
  %31 = getelementptr inbounds %"struct.std::__1::__compressed_pair_elem.12", %"struct.std::__1::__compressed_pair_elem.12"* %30, i32 0, i32 0, !dbg !8750
  %32 = load %"class.altered_carbon::js::ACJsState"**, %"class.altered_carbon::js::ACJsState"*** %5, align 8, !dbg !8751
  store %"class.altered_carbon::js::ACJsState"** %32, %"class.altered_carbon::js::ACJsState"*** %3, align 8
  %33 = load %"class.altered_carbon::js::ACJsState"**, %"class.altered_carbon::js::ACJsState"*** %3, align 8, !dbg !8752
  %34 = load %"class.altered_carbon::js::ACJsState"*, %"class.altered_carbon::js::ACJsState"** %33, align 8, !dbg !8753
  store %"class.altered_carbon::js::ACJsState"* %34, %"class.altered_carbon::js::ACJsState"** %31, align 8, !dbg !8750
  %35 = bitcast %"class.std::__1::__compressed_pair.11"* %26 to %"struct.std::__1::__compressed_pair_elem.13"*, !dbg !8747
  %36 = bitcast %"class.altered_carbon::js::ACAstBuilder"* %16 to i1 (%"class.altered_carbon::js::ACAstBuilder"*)***, !dbg !8754
  %37 = load i1 (%"class.altered_carbon::js::ACAstBuilder"*)**, i1 (%"class.altered_carbon::js::ACAstBuilder"*)*** %36, align 8, !dbg !8754
  %38 = getelementptr inbounds i1 (%"class.altered_carbon::js::ACAstBuilder"*)*, i1 (%"class.altered_carbon::js::ACAstBuilder"*)** %37, i64 0, !dbg !8754
  %39 = load i1 (%"class.altered_carbon::js::ACAstBuilder"*)*, i1 (%"class.altered_carbon::js::ACAstBuilder"*)** %38, align 8, !dbg !8754
  %40 = call zeroext i1 %39(%"class.altered_carbon::js::ACAstBuilder"* %16), !dbg !8754
  ret void, !dbg !8756
}

declare void @_ZN14altered_carbon2js10ACJsParserC2EPKc(%"class.altered_carbon::js::ACJsParser"*, i8*) unnamed_addr #4

; Function Attrs: noinline nounwind optnone ssp uwtable
define void @_ZN14altered_carbon2js12ACAstBuilderC1EPKc(%"class.altered_carbon::js::ACAstBuilder"*, i8*) unnamed_addr #1 align 2 !dbg !8757 {
  %3 = alloca %"class.altered_carbon::js::ACAstBuilder"*, align 8
  %4 = alloca i8*, align 8
  store %"class.altered_carbon::js::ACAstBuilder"* %0, %"class.altered_carbon::js::ACAstBuilder"** %3, align 8
  call void @llvm.dbg.declare(metadata %"class.altered_carbon::js::ACAstBuilder"** %3, metadata !8758, metadata !DIExpression()), !dbg !8759
  store i8* %1, i8** %4, align 8
  call void @llvm.dbg.declare(metadata i8** %4, metadata !8760, metadata !DIExpression()), !dbg !8761
  %5 = load %"class.altered_carbon::js::ACAstBuilder"*, %"class.altered_carbon::js::ACAstBuilder"** %3, align 8
  %6 = load i8*, i8** %4, align 8, !dbg !8762
  call void @_ZN14altered_carbon2js12ACAstBuilderC2EPKc(%"class.altered_carbon::js::ACAstBuilder"* %5, i8* %6), !dbg !8762
  ret void, !dbg !8763
}

; Function Attrs: noinline nounwind optnone ssp uwtable
define zeroext i1 @_ZN14altered_carbon2js12ACAstBuilder5resetEv(%"class.altered_carbon::js::ACAstBuilder"*) unnamed_addr #1 align 2 !dbg !8764 {
  %2 = alloca %"struct.std::__1::__compressed_pair_elem.13"*, align 8
  call void @llvm.dbg.declare(metadata %"struct.std::__1::__compressed_pair_elem.13"** %2, metadata !7970, metadata !DIExpression()), !dbg !8765
  %3 = alloca %"class.std::__1::__compressed_pair.11"*, align 8
  call void @llvm.dbg.declare(metadata %"class.std::__1::__compressed_pair.11"** %3, metadata !7977, metadata !DIExpression()), !dbg !8771
  %4 = alloca %"struct.std::__1::__compressed_pair_elem.12"*, align 8
  call void @llvm.dbg.declare(metadata %"struct.std::__1::__compressed_pair_elem.12"** %4, metadata !7930, metadata !DIExpression()), !dbg !8772
  %5 = alloca %"class.std::__1::__compressed_pair.11"*, align 8
  call void @llvm.dbg.declare(metadata %"class.std::__1::__compressed_pair.11"** %5, metadata !7941, metadata !DIExpression()), !dbg !8775
  %6 = alloca %"struct.std::__1::default_delete.14"*, align 8
  call void @llvm.dbg.declare(metadata %"struct.std::__1::default_delete.14"** %6, metadata !8128, metadata !DIExpression()), !dbg !8776
  %7 = alloca %"class.altered_carbon::js::ACJsState"*, align 8
  call void @llvm.dbg.declare(metadata %"class.altered_carbon::js::ACJsState"** %7, metadata !8133, metadata !DIExpression()), !dbg !8778
  %8 = alloca %"struct.std::__1::__compressed_pair_elem.12"*, align 8
  call void @llvm.dbg.declare(metadata %"struct.std::__1::__compressed_pair_elem.12"** %8, metadata !7930, metadata !DIExpression()), !dbg !8779
  %9 = alloca %"class.std::__1::__compressed_pair.11"*, align 8
  call void @llvm.dbg.declare(metadata %"class.std::__1::__compressed_pair.11"** %9, metadata !7941, metadata !DIExpression()), !dbg !8782
  %10 = alloca %"class.std::__1::unique_ptr.10"*, align 8
  call void @llvm.dbg.declare(metadata %"class.std::__1::unique_ptr.10"** %10, metadata !8139, metadata !DIExpression()), !dbg !8783
  %11 = alloca %"class.altered_carbon::js::ACJsState"*, align 8
  call void @llvm.dbg.declare(metadata %"class.altered_carbon::js::ACJsState"** %11, metadata !8141, metadata !DIExpression()), !dbg !8784
  %12 = alloca %"class.altered_carbon::js::ACJsState"*, align 8
  call void @llvm.dbg.declare(metadata %"class.altered_carbon::js::ACJsState"** %12, metadata !8143, metadata !DIExpression()), !dbg !8785
  %13 = alloca %"class.std::__1::unique_ptr.10"*, align 8
  call void @llvm.dbg.declare(metadata %"class.std::__1::unique_ptr.10"** %13, metadata !8145, metadata !DIExpression()), !dbg !8786
  %14 = alloca %"class.std::__1::unique_ptr.10"*, align 8
  call void @llvm.dbg.declare(metadata %"class.std::__1::unique_ptr.10"** %14, metadata !8147, metadata !DIExpression()), !dbg !8787
  %15 = alloca %"struct.std::__1::__compressed_pair_elem.13"*, align 8
  call void @llvm.dbg.declare(metadata %"struct.std::__1::__compressed_pair_elem.13"** %15, metadata !7970, metadata !DIExpression()), !dbg !8788
  %16 = alloca %"class.std::__1::__compressed_pair.11"*, align 8
  call void @llvm.dbg.declare(metadata %"class.std::__1::__compressed_pair.11"** %16, metadata !7977, metadata !DIExpression()), !dbg !8794
  %17 = alloca %"struct.std::__1::__compressed_pair_elem.12"*, align 8
  call void @llvm.dbg.declare(metadata %"struct.std::__1::__compressed_pair_elem.12"** %17, metadata !7930, metadata !DIExpression()), !dbg !8795
  %18 = alloca %"class.std::__1::__compressed_pair.11"*, align 8
  call void @llvm.dbg.declare(metadata %"class.std::__1::__compressed_pair.11"** %18, metadata !7941, metadata !DIExpression()), !dbg !8798
  %19 = alloca %"struct.std::__1::default_delete.14"*, align 8
  call void @llvm.dbg.declare(metadata %"struct.std::__1::default_delete.14"** %19, metadata !8128, metadata !DIExpression()), !dbg !8799
  %20 = alloca %"class.altered_carbon::js::ACJsState"*, align 8
  call void @llvm.dbg.declare(metadata %"class.altered_carbon::js::ACJsState"** %20, metadata !8133, metadata !DIExpression()), !dbg !8801
  %21 = alloca %"struct.std::__1::__compressed_pair_elem.12"*, align 8
  call void @llvm.dbg.declare(metadata %"struct.std::__1::__compressed_pair_elem.12"** %21, metadata !7930, metadata !DIExpression()), !dbg !8802
  %22 = alloca %"class.std::__1::__compressed_pair.11"*, align 8
  call void @llvm.dbg.declare(metadata %"class.std::__1::__compressed_pair.11"** %22, metadata !7941, metadata !DIExpression()), !dbg !8805
  %23 = alloca %"class.std::__1::unique_ptr.10"*, align 8
  call void @llvm.dbg.declare(metadata %"class.std::__1::unique_ptr.10"** %23, metadata !8139, metadata !DIExpression()), !dbg !8806
  %24 = alloca %"class.altered_carbon::js::ACJsState"*, align 8
  call void @llvm.dbg.declare(metadata %"class.altered_carbon::js::ACJsState"** %24, metadata !8141, metadata !DIExpression()), !dbg !8807
  %25 = alloca %"class.altered_carbon::js::ACJsState"*, align 8
  call void @llvm.dbg.declare(metadata %"class.altered_carbon::js::ACJsState"** %25, metadata !8143, metadata !DIExpression()), !dbg !8808
  %26 = alloca %"struct.std::__1::__compressed_pair_elem.13"*, align 8
  call void @llvm.dbg.declare(metadata %"struct.std::__1::__compressed_pair_elem.13"** %26, metadata !7970, metadata !DIExpression()), !dbg !8809
  %27 = alloca %"class.std::__1::__compressed_pair.11"*, align 8
  call void @llvm.dbg.declare(metadata %"class.std::__1::__compressed_pair.11"** %27, metadata !7977, metadata !DIExpression()), !dbg !8814
  %28 = alloca %"class.std::__1::unique_ptr.10"*, align 8
  call void @llvm.dbg.declare(metadata %"class.std::__1::unique_ptr.10"** %28, metadata !8815, metadata !DIExpression()), !dbg !8816
  %29 = alloca %"struct.std::__1::default_delete.14"*, align 8
  call void @llvm.dbg.declare(metadata %"struct.std::__1::default_delete.14"** %29, metadata !8817, metadata !DIExpression()), !dbg !8825
  %30 = alloca %"struct.std::__1::__compressed_pair_elem.13"*, align 8
  call void @llvm.dbg.declare(metadata %"struct.std::__1::__compressed_pair_elem.13"** %30, metadata !7970, metadata !DIExpression()), !dbg !8827
  %31 = alloca %"class.std::__1::__compressed_pair.11"*, align 8
  call void @llvm.dbg.declare(metadata %"class.std::__1::__compressed_pair.11"** %31, metadata !7977, metadata !DIExpression()), !dbg !8830
  %32 = alloca %"struct.std::__1::__compressed_pair_elem.12"*, align 8
  call void @llvm.dbg.declare(metadata %"struct.std::__1::__compressed_pair_elem.12"** %32, metadata !7930, metadata !DIExpression()), !dbg !8831
  %33 = alloca %"class.std::__1::__compressed_pair.11"*, align 8
  call void @llvm.dbg.declare(metadata %"class.std::__1::__compressed_pair.11"** %33, metadata !7941, metadata !DIExpression()), !dbg !8836
  %34 = alloca %"struct.std::__1::__compressed_pair_elem.12"*, align 8
  call void @llvm.dbg.declare(metadata %"struct.std::__1::__compressed_pair_elem.12"** %34, metadata !7930, metadata !DIExpression()), !dbg !8837
  %35 = alloca %"class.std::__1::__compressed_pair.11"*, align 8
  call void @llvm.dbg.declare(metadata %"class.std::__1::__compressed_pair.11"** %35, metadata !7941, metadata !DIExpression()), !dbg !8840
  %36 = alloca %"class.std::__1::unique_ptr.10"*, align 8
  call void @llvm.dbg.declare(metadata %"class.std::__1::unique_ptr.10"** %36, metadata !8841, metadata !DIExpression()), !dbg !8842
  %37 = alloca %"class.altered_carbon::js::ACJsState"*, align 8
  call void @llvm.dbg.declare(metadata %"class.altered_carbon::js::ACJsState"** %37, metadata !8843, metadata !DIExpression()), !dbg !8844
  %38 = alloca %"class.std::__1::unique_ptr.10"*, align 8
  call void @llvm.dbg.declare(metadata %"class.std::__1::unique_ptr.10"** %38, metadata !8845, metadata !DIExpression()), !dbg !8846
  %39 = alloca %"class.std::__1::unique_ptr.10"*, align 8
  call void @llvm.dbg.declare(metadata %"class.std::__1::unique_ptr.10"** %39, metadata !8847, metadata !DIExpression()), !dbg !8848
  %40 = alloca %"class.altered_carbon::js::ACAstBuilder"*, align 8
  %41 = alloca %"class.std::__1::unique_ptr.10", align 8
  store %"class.altered_carbon::js::ACAstBuilder"* %0, %"class.altered_carbon::js::ACAstBuilder"** %40, align 8
  call void @llvm.dbg.declare(metadata %"class.altered_carbon::js::ACAstBuilder"** %40, metadata !8849, metadata !DIExpression()), !dbg !8850
  %42 = load %"class.altered_carbon::js::ACAstBuilder"*, %"class.altered_carbon::js::ACAstBuilder"** %40, align 8
  call void @_ZN4llvm11make_uniqueIN14altered_carbon2js9ACJsStateEJEEENSt3__19enable_ifIXntsr3std8is_arrayIT_EE5valueENS4_10unique_ptrIS6_NS4_14default_deleteIS6_EEEEE4typeEDpOT0_(%"class.std::__1::unique_ptr.10"* sret %41), !dbg !8851
  %43 = getelementptr inbounds %"class.altered_carbon::js::ACAstBuilder", %"class.altered_carbon::js::ACAstBuilder"* %42, i32 0, i32 1, !dbg !8852
  store %"class.std::__1::unique_ptr.10"* %43, %"class.std::__1::unique_ptr.10"** %38, align 8
  store %"class.std::__1::unique_ptr.10"* %41, %"class.std::__1::unique_ptr.10"** %39, align 8
  %44 = load %"class.std::__1::unique_ptr.10"*, %"class.std::__1::unique_ptr.10"** %38, align 8
  %45 = load %"class.std::__1::unique_ptr.10"*, %"class.std::__1::unique_ptr.10"** %39, align 8, !dbg !8853
  store %"class.std::__1::unique_ptr.10"* %45, %"class.std::__1::unique_ptr.10"** %36, align 8
  %46 = load %"class.std::__1::unique_ptr.10"*, %"class.std::__1::unique_ptr.10"** %36, align 8
  %47 = getelementptr inbounds %"class.std::__1::unique_ptr.10", %"class.std::__1::unique_ptr.10"* %46, i32 0, i32 0, !dbg !8854
  store %"class.std::__1::__compressed_pair.11"* %47, %"class.std::__1::__compressed_pair.11"** %35, align 8
  %48 = load %"class.std::__1::__compressed_pair.11"*, %"class.std::__1::__compressed_pair.11"** %35, align 8
  %49 = bitcast %"class.std::__1::__compressed_pair.11"* %48 to %"struct.std::__1::__compressed_pair_elem.12"*, !dbg !8855
  store %"struct.std::__1::__compressed_pair_elem.12"* %49, %"struct.std::__1::__compressed_pair_elem.12"** %34, align 8
  %50 = load %"struct.std::__1::__compressed_pair_elem.12"*, %"struct.std::__1::__compressed_pair_elem.12"** %34, align 8
  %51 = getelementptr inbounds %"struct.std::__1::__compressed_pair_elem.12", %"struct.std::__1::__compressed_pair_elem.12"* %50, i32 0, i32 0, !dbg !8856
  %52 = load %"class.altered_carbon::js::ACJsState"*, %"class.altered_carbon::js::ACJsState"** %51, align 8, !dbg !8857
  store %"class.altered_carbon::js::ACJsState"* %52, %"class.altered_carbon::js::ACJsState"** %37, align 8, !dbg !8844
  %53 = getelementptr inbounds %"class.std::__1::unique_ptr.10", %"class.std::__1::unique_ptr.10"* %46, i32 0, i32 0, !dbg !8858
  store %"class.std::__1::__compressed_pair.11"* %53, %"class.std::__1::__compressed_pair.11"** %33, align 8
  %54 = load %"class.std::__1::__compressed_pair.11"*, %"class.std::__1::__compressed_pair.11"** %33, align 8
  %55 = bitcast %"class.std::__1::__compressed_pair.11"* %54 to %"struct.std::__1::__compressed_pair_elem.12"*, !dbg !8859
  store %"struct.std::__1::__compressed_pair_elem.12"* %55, %"struct.std::__1::__compressed_pair_elem.12"** %32, align 8
  %56 = load %"struct.std::__1::__compressed_pair_elem.12"*, %"struct.std::__1::__compressed_pair_elem.12"** %32, align 8
  %57 = getelementptr inbounds %"struct.std::__1::__compressed_pair_elem.12", %"struct.std::__1::__compressed_pair_elem.12"* %56, i32 0, i32 0, !dbg !8860
  store %"class.altered_carbon::js::ACJsState"* null, %"class.altered_carbon::js::ACJsState"** %57, align 8, !dbg !8861
  %58 = load %"class.altered_carbon::js::ACJsState"*, %"class.altered_carbon::js::ACJsState"** %37, align 8, !dbg !8862
  store %"class.std::__1::unique_ptr.10"* %44, %"class.std::__1::unique_ptr.10"** %23, align 8
  store %"class.altered_carbon::js::ACJsState"* %58, %"class.altered_carbon::js::ACJsState"** %24, align 8
  %59 = load %"class.std::__1::unique_ptr.10"*, %"class.std::__1::unique_ptr.10"** %23, align 8
  %60 = getelementptr inbounds %"class.std::__1::unique_ptr.10", %"class.std::__1::unique_ptr.10"* %59, i32 0, i32 0, !dbg !8863
  store %"class.std::__1::__compressed_pair.11"* %60, %"class.std::__1::__compressed_pair.11"** %22, align 8
  %61 = load %"class.std::__1::__compressed_pair.11"*, %"class.std::__1::__compressed_pair.11"** %22, align 8
  %62 = bitcast %"class.std::__1::__compressed_pair.11"* %61 to %"struct.std::__1::__compressed_pair_elem.12"*, !dbg !8864
  store %"struct.std::__1::__compressed_pair_elem.12"* %62, %"struct.std::__1::__compressed_pair_elem.12"** %21, align 8
  %63 = load %"struct.std::__1::__compressed_pair_elem.12"*, %"struct.std::__1::__compressed_pair_elem.12"** %21, align 8
  %64 = getelementptr inbounds %"struct.std::__1::__compressed_pair_elem.12", %"struct.std::__1::__compressed_pair_elem.12"* %63, i32 0, i32 0, !dbg !8865
  %65 = load %"class.altered_carbon::js::ACJsState"*, %"class.altered_carbon::js::ACJsState"** %64, align 8, !dbg !8866
  store %"class.altered_carbon::js::ACJsState"* %65, %"class.altered_carbon::js::ACJsState"** %25, align 8, !dbg !8808
  %66 = load %"class.altered_carbon::js::ACJsState"*, %"class.altered_carbon::js::ACJsState"** %24, align 8, !dbg !8867
  %67 = getelementptr inbounds %"class.std::__1::unique_ptr.10", %"class.std::__1::unique_ptr.10"* %59, i32 0, i32 0, !dbg !8868
  store %"class.std::__1::__compressed_pair.11"* %67, %"class.std::__1::__compressed_pair.11"** %18, align 8
  %68 = load %"class.std::__1::__compressed_pair.11"*, %"class.std::__1::__compressed_pair.11"** %18, align 8
  %69 = bitcast %"class.std::__1::__compressed_pair.11"* %68 to %"struct.std::__1::__compressed_pair_elem.12"*, !dbg !8869
  store %"struct.std::__1::__compressed_pair_elem.12"* %69, %"struct.std::__1::__compressed_pair_elem.12"** %17, align 8
  %70 = load %"struct.std::__1::__compressed_pair_elem.12"*, %"struct.std::__1::__compressed_pair_elem.12"** %17, align 8
  %71 = getelementptr inbounds %"struct.std::__1::__compressed_pair_elem.12", %"struct.std::__1::__compressed_pair_elem.12"* %70, i32 0, i32 0, !dbg !8870
  store %"class.altered_carbon::js::ACJsState"* %66, %"class.altered_carbon::js::ACJsState"** %71, align 8, !dbg !8871
  %72 = load %"class.altered_carbon::js::ACJsState"*, %"class.altered_carbon::js::ACJsState"** %25, align 8, !dbg !8872
  %73 = icmp ne %"class.altered_carbon::js::ACJsState"* %72, null, !dbg !8872
  br i1 %73, label %74, label %90, !dbg !8873

; <label>:74:                                     ; preds = %1
  %75 = getelementptr inbounds %"class.std::__1::unique_ptr.10", %"class.std::__1::unique_ptr.10"* %59, i32 0, i32 0, !dbg !8874
  store %"class.std::__1::__compressed_pair.11"* %75, %"class.std::__1::__compressed_pair.11"** %16, align 8
  %76 = load %"class.std::__1::__compressed_pair.11"*, %"class.std::__1::__compressed_pair.11"** %16, align 8
  %77 = bitcast %"class.std::__1::__compressed_pair.11"* %76 to %"struct.std::__1::__compressed_pair_elem.13"*, !dbg !8875
  store %"struct.std::__1::__compressed_pair_elem.13"* %77, %"struct.std::__1::__compressed_pair_elem.13"** %15, align 8
  %78 = load %"struct.std::__1::__compressed_pair_elem.13"*, %"struct.std::__1::__compressed_pair_elem.13"** %15, align 8
  %79 = bitcast %"struct.std::__1::__compressed_pair_elem.13"* %78 to %"struct.std::__1::default_delete.14"*, !dbg !8876
  %80 = load %"class.altered_carbon::js::ACJsState"*, %"class.altered_carbon::js::ACJsState"** %25, align 8, !dbg !8877
  store %"struct.std::__1::default_delete.14"* %79, %"struct.std::__1::default_delete.14"** %19, align 8
  store %"class.altered_carbon::js::ACJsState"* %80, %"class.altered_carbon::js::ACJsState"** %20, align 8
  %81 = load %"struct.std::__1::default_delete.14"*, %"struct.std::__1::default_delete.14"** %19, align 8
  %82 = load %"class.altered_carbon::js::ACJsState"*, %"class.altered_carbon::js::ACJsState"** %20, align 8, !dbg !8878
  %83 = icmp eq %"class.altered_carbon::js::ACJsState"* %82, null, !dbg !8879
  br i1 %83, label %89, label %84, !dbg !8879

; <label>:84:                                     ; preds = %74
  %85 = bitcast %"class.altered_carbon::js::ACJsState"* %82 to void (%"class.altered_carbon::js::ACJsState"*)***, !dbg !8879
  %86 = load void (%"class.altered_carbon::js::ACJsState"*)**, void (%"class.altered_carbon::js::ACJsState"*)*** %85, align 8, !dbg !8879
  %87 = getelementptr inbounds void (%"class.altered_carbon::js::ACJsState"*)*, void (%"class.altered_carbon::js::ACJsState"*)** %86, i64 1, !dbg !8879
  %88 = load void (%"class.altered_carbon::js::ACJsState"*)*, void (%"class.altered_carbon::js::ACJsState"*)** %87, align 8, !dbg !8879
  call void %88(%"class.altered_carbon::js::ACJsState"* %82) #2, !dbg !8879
  br label %89, !dbg !8879

; <label>:89:                                     ; preds = %84, %74
  br label %90, !dbg !8874

; <label>:90:                                     ; preds = %1, %89
  %91 = load %"class.std::__1::unique_ptr.10"*, %"class.std::__1::unique_ptr.10"** %39, align 8, !dbg !8880
  store %"class.std::__1::unique_ptr.10"* %91, %"class.std::__1::unique_ptr.10"** %28, align 8
  %92 = load %"class.std::__1::unique_ptr.10"*, %"class.std::__1::unique_ptr.10"** %28, align 8
  %93 = getelementptr inbounds %"class.std::__1::unique_ptr.10", %"class.std::__1::unique_ptr.10"* %92, i32 0, i32 0, !dbg !8881
  store %"class.std::__1::__compressed_pair.11"* %93, %"class.std::__1::__compressed_pair.11"** %27, align 8
  %94 = load %"class.std::__1::__compressed_pair.11"*, %"class.std::__1::__compressed_pair.11"** %27, align 8
  %95 = bitcast %"class.std::__1::__compressed_pair.11"* %94 to %"struct.std::__1::__compressed_pair_elem.13"*, !dbg !8882
  store %"struct.std::__1::__compressed_pair_elem.13"* %95, %"struct.std::__1::__compressed_pair_elem.13"** %26, align 8
  %96 = load %"struct.std::__1::__compressed_pair_elem.13"*, %"struct.std::__1::__compressed_pair_elem.13"** %26, align 8
  %97 = bitcast %"struct.std::__1::__compressed_pair_elem.13"* %96 to %"struct.std::__1::default_delete.14"*, !dbg !8883
  store %"struct.std::__1::default_delete.14"* %97, %"struct.std::__1::default_delete.14"** %29, align 8
  %98 = load %"struct.std::__1::default_delete.14"*, %"struct.std::__1::default_delete.14"** %29, align 8, !dbg !8884
  %99 = getelementptr inbounds %"class.std::__1::unique_ptr.10", %"class.std::__1::unique_ptr.10"* %44, i32 0, i32 0, !dbg !8885
  store %"class.std::__1::__compressed_pair.11"* %99, %"class.std::__1::__compressed_pair.11"** %31, align 8
  %100 = load %"class.std::__1::__compressed_pair.11"*, %"class.std::__1::__compressed_pair.11"** %31, align 8
  %101 = bitcast %"class.std::__1::__compressed_pair.11"* %100 to %"struct.std::__1::__compressed_pair_elem.13"*, !dbg !8886
  store %"struct.std::__1::__compressed_pair_elem.13"* %101, %"struct.std::__1::__compressed_pair_elem.13"** %30, align 8
  %102 = load %"struct.std::__1::__compressed_pair_elem.13"*, %"struct.std::__1::__compressed_pair_elem.13"** %30, align 8
  %103 = bitcast %"struct.std::__1::__compressed_pair_elem.13"* %102 to %"struct.std::__1::default_delete.14"*, !dbg !8887
  store %"class.std::__1::unique_ptr.10"* %41, %"class.std::__1::unique_ptr.10"** %14, align 8
  %104 = load %"class.std::__1::unique_ptr.10"*, %"class.std::__1::unique_ptr.10"** %14, align 8
  store %"class.std::__1::unique_ptr.10"* %104, %"class.std::__1::unique_ptr.10"** %13, align 8
  %105 = load %"class.std::__1::unique_ptr.10"*, %"class.std::__1::unique_ptr.10"** %13, align 8
  store %"class.std::__1::unique_ptr.10"* %105, %"class.std::__1::unique_ptr.10"** %10, align 8
  store %"class.altered_carbon::js::ACJsState"* null, %"class.altered_carbon::js::ACJsState"** %11, align 8
  %106 = load %"class.std::__1::unique_ptr.10"*, %"class.std::__1::unique_ptr.10"** %10, align 8
  %107 = getelementptr inbounds %"class.std::__1::unique_ptr.10", %"class.std::__1::unique_ptr.10"* %106, i32 0, i32 0, !dbg !8888
  store %"class.std::__1::__compressed_pair.11"* %107, %"class.std::__1::__compressed_pair.11"** %9, align 8
  %108 = load %"class.std::__1::__compressed_pair.11"*, %"class.std::__1::__compressed_pair.11"** %9, align 8
  %109 = bitcast %"class.std::__1::__compressed_pair.11"* %108 to %"struct.std::__1::__compressed_pair_elem.12"*, !dbg !8889
  store %"struct.std::__1::__compressed_pair_elem.12"* %109, %"struct.std::__1::__compressed_pair_elem.12"** %8, align 8
  %110 = load %"struct.std::__1::__compressed_pair_elem.12"*, %"struct.std::__1::__compressed_pair_elem.12"** %8, align 8
  %111 = getelementptr inbounds %"struct.std::__1::__compressed_pair_elem.12", %"struct.std::__1::__compressed_pair_elem.12"* %110, i32 0, i32 0, !dbg !8890
  %112 = load %"class.altered_carbon::js::ACJsState"*, %"class.altered_carbon::js::ACJsState"** %111, align 8, !dbg !8891
  store %"class.altered_carbon::js::ACJsState"* %112, %"class.altered_carbon::js::ACJsState"** %12, align 8, !dbg !8785
  %113 = load %"class.altered_carbon::js::ACJsState"*, %"class.altered_carbon::js::ACJsState"** %11, align 8, !dbg !8892
  %114 = getelementptr inbounds %"class.std::__1::unique_ptr.10", %"class.std::__1::unique_ptr.10"* %106, i32 0, i32 0, !dbg !8893
  store %"class.std::__1::__compressed_pair.11"* %114, %"class.std::__1::__compressed_pair.11"** %5, align 8
  %115 = load %"class.std::__1::__compressed_pair.11"*, %"class.std::__1::__compressed_pair.11"** %5, align 8
  %116 = bitcast %"class.std::__1::__compressed_pair.11"* %115 to %"struct.std::__1::__compressed_pair_elem.12"*, !dbg !8894
  store %"struct.std::__1::__compressed_pair_elem.12"* %116, %"struct.std::__1::__compressed_pair_elem.12"** %4, align 8
  %117 = load %"struct.std::__1::__compressed_pair_elem.12"*, %"struct.std::__1::__compressed_pair_elem.12"** %4, align 8
  %118 = getelementptr inbounds %"struct.std::__1::__compressed_pair_elem.12", %"struct.std::__1::__compressed_pair_elem.12"* %117, i32 0, i32 0, !dbg !8895
  store %"class.altered_carbon::js::ACJsState"* %113, %"class.altered_carbon::js::ACJsState"** %118, align 8, !dbg !8896
  %119 = load %"class.altered_carbon::js::ACJsState"*, %"class.altered_carbon::js::ACJsState"** %12, align 8, !dbg !8897
  %120 = icmp ne %"class.altered_carbon::js::ACJsState"* %119, null, !dbg !8897
  br i1 %120, label %121, label %137, !dbg !8898

; <label>:121:                                    ; preds = %90
  %122 = getelementptr inbounds %"class.std::__1::unique_ptr.10", %"class.std::__1::unique_ptr.10"* %106, i32 0, i32 0, !dbg !8899
  store %"class.std::__1::__compressed_pair.11"* %122, %"class.std::__1::__compressed_pair.11"** %3, align 8
  %123 = load %"class.std::__1::__compressed_pair.11"*, %"class.std::__1::__compressed_pair.11"** %3, align 8
  %124 = bitcast %"class.std::__1::__compressed_pair.11"* %123 to %"struct.std::__1::__compressed_pair_elem.13"*, !dbg !8900
  store %"struct.std::__1::__compressed_pair_elem.13"* %124, %"struct.std::__1::__compressed_pair_elem.13"** %2, align 8
  %125 = load %"struct.std::__1::__compressed_pair_elem.13"*, %"struct.std::__1::__compressed_pair_elem.13"** %2, align 8
  %126 = bitcast %"struct.std::__1::__compressed_pair_elem.13"* %125 to %"struct.std::__1::default_delete.14"*, !dbg !8901
  %127 = load %"class.altered_carbon::js::ACJsState"*, %"class.altered_carbon::js::ACJsState"** %12, align 8, !dbg !8902
  store %"struct.std::__1::default_delete.14"* %126, %"struct.std::__1::default_delete.14"** %6, align 8
  store %"class.altered_carbon::js::ACJsState"* %127, %"class.altered_carbon::js::ACJsState"** %7, align 8
  %128 = load %"struct.std::__1::default_delete.14"*, %"struct.std::__1::default_delete.14"** %6, align 8
  %129 = load %"class.altered_carbon::js::ACJsState"*, %"class.altered_carbon::js::ACJsState"** %7, align 8, !dbg !8903
  %130 = icmp eq %"class.altered_carbon::js::ACJsState"* %129, null, !dbg !8904
  br i1 %130, label %136, label %131, !dbg !8904

; <label>:131:                                    ; preds = %121
  %132 = bitcast %"class.altered_carbon::js::ACJsState"* %129 to void (%"class.altered_carbon::js::ACJsState"*)***, !dbg !8904
  %133 = load void (%"class.altered_carbon::js::ACJsState"*)**, void (%"class.altered_carbon::js::ACJsState"*)*** %132, align 8, !dbg !8904
  %134 = getelementptr inbounds void (%"class.altered_carbon::js::ACJsState"*)*, void (%"class.altered_carbon::js::ACJsState"*)** %133, i64 1, !dbg !8904
  %135 = load void (%"class.altered_carbon::js::ACJsState"*)*, void (%"class.altered_carbon::js::ACJsState"*)** %134, align 8, !dbg !8904
  call void %135(%"class.altered_carbon::js::ACJsState"* %129) #2, !dbg !8904
  br label %136, !dbg !8904

; <label>:136:                                    ; preds = %131, %121
  br label %137, !dbg !8899

; <label>:137:                                    ; preds = %90, %136
  ret i1 true, !dbg !8905
}

; Function Attrs: noinline nounwind optnone ssp uwtable
define void @_ZN14altered_carbon2js12ACAstBuilder12parseProgramEv(%"class.std::__1::vector"* noalias sret, %"class.altered_carbon::js::ACAstBuilder"*) #1 align 2 !dbg !8906 {
  %3 = alloca %"class.std::__1::__wrap_iter"*, align 8
  call void @llvm.dbg.declare(metadata %"class.std::__1::__wrap_iter"** %3, metadata !8907, metadata !DIExpression()), !dbg !8910
  %4 = alloca %"struct.std::__1::__compressed_pair_elem"*, align 8
  call void @llvm.dbg.declare(metadata %"struct.std::__1::__compressed_pair_elem"** %4, metadata !7516, metadata !DIExpression()), !dbg !8915
  %5 = alloca %"class.std::__1::__compressed_pair"*, align 8
  call void @llvm.dbg.declare(metadata %"class.std::__1::__compressed_pair"** %5, metadata !7525, metadata !DIExpression()), !dbg !8920
  %6 = alloca %"class.std::__1::unique_ptr"*, align 8
  call void @llvm.dbg.declare(metadata %"class.std::__1::unique_ptr"** %6, metadata !8921, metadata !DIExpression()), !dbg !8922
  %7 = alloca %"class.std::__1::__wrap_iter.51"*, align 8
  call void @llvm.dbg.declare(metadata %"class.std::__1::__wrap_iter.51"** %7, metadata !8923, metadata !DIExpression()), !dbg !8926
  %8 = alloca %"class.std::__1::__wrap_iter"*, align 8
  call void @llvm.dbg.declare(metadata %"class.std::__1::__wrap_iter"** %8, metadata !8939, metadata !DIExpression()), !dbg !8941
  %9 = alloca %"class.std::__1::__wrap_iter"*, align 8
  call void @llvm.dbg.declare(metadata %"class.std::__1::__wrap_iter"** %9, metadata !8943, metadata !DIExpression()), !dbg !8944
  %10 = alloca %"class.std::__1::__wrap_iter.51"*, align 8
  call void @llvm.dbg.declare(metadata %"class.std::__1::__wrap_iter.51"** %10, metadata !8945, metadata !DIExpression()), !dbg !8946
  %11 = alloca %"class.std::__1::__wrap_iter"*, align 8
  call void @llvm.dbg.declare(metadata %"class.std::__1::__wrap_iter"** %11, metadata !8947, metadata !DIExpression()), !dbg !8948
  %12 = alloca %"class.std::__1::__wrap_iter.51"*, align 8
  call void @llvm.dbg.declare(metadata %"class.std::__1::__wrap_iter.51"** %12, metadata !8949, metadata !DIExpression()), !dbg !8950
  %13 = alloca %"class.std::__1::__wrap_iter"*, align 8
  call void @llvm.dbg.declare(metadata %"class.std::__1::__wrap_iter"** %13, metadata !8951, metadata !DIExpression()), !dbg !8954
  %14 = alloca %"class.std::__1::__wrap_iter.51"*, align 8
  call void @llvm.dbg.declare(metadata %"class.std::__1::__wrap_iter.51"** %14, metadata !8956, metadata !DIExpression()), !dbg !8959
  %15 = alloca %"class.std::__1::unique_ptr"*, align 8
  call void @llvm.dbg.declare(metadata %"class.std::__1::unique_ptr"** %15, metadata !8967, metadata !DIExpression()), !dbg !8968
  %16 = alloca %"class.std::__1::__wrap_iter.51"*, align 8
  call void @llvm.dbg.declare(metadata %"class.std::__1::__wrap_iter.51"** %16, metadata !8969, metadata !DIExpression()), !dbg !8970
  %17 = alloca %"class.std::__1::unique_ptr"*, align 8
  call void @llvm.dbg.declare(metadata %"class.std::__1::unique_ptr"** %17, metadata !8971, metadata !DIExpression()), !dbg !8972
  %18 = alloca %"class.std::__1::__wrap_iter.51", align 8
  %19 = alloca %"class.std::__1::vector"*, align 8
  call void @llvm.dbg.declare(metadata %"class.std::__1::vector"** %19, metadata !8973, metadata !DIExpression()), !dbg !8975
  %20 = alloca %"class.std::__1::unique_ptr"*, align 8
  call void @llvm.dbg.declare(metadata %"class.std::__1::unique_ptr"** %20, metadata !8976, metadata !DIExpression()), !dbg !8977
  %21 = alloca %"class.std::__1::__wrap_iter.51", align 8
  %22 = alloca %"class.std::__1::vector"*, align 8
  call void @llvm.dbg.declare(metadata %"class.std::__1::vector"** %22, metadata !8978, metadata !DIExpression()), !dbg !8979
  %23 = alloca %"class.std::__1::__wrap_iter.51"*, align 8
  call void @llvm.dbg.declare(metadata %"class.std::__1::__wrap_iter.51"** %23, metadata !8923, metadata !DIExpression()), !dbg !8980
  %24 = alloca %"class.std::__1::__wrap_iter"*, align 8
  call void @llvm.dbg.declare(metadata %"class.std::__1::__wrap_iter"** %24, metadata !8992, metadata !DIExpression()), !dbg !8993
  %25 = alloca %"class.std::__1::__wrap_iter.51"*, align 8
  call void @llvm.dbg.declare(metadata %"class.std::__1::__wrap_iter.51"** %25, metadata !8994, metadata !DIExpression()), !dbg !8995
  %26 = alloca i8*, align 8
  call void @llvm.dbg.declare(metadata i8** %26, metadata !8996, metadata !DIExpression()), !dbg !8997
  %27 = alloca %"class.std::__1::__wrap_iter"*, align 8
  call void @llvm.dbg.declare(metadata %"class.std::__1::__wrap_iter"** %27, metadata !8998, metadata !DIExpression()), !dbg !8999
  %28 = alloca %"class.std::__1::__wrap_iter.51"*, align 8
  call void @llvm.dbg.declare(metadata %"class.std::__1::__wrap_iter.51"** %28, metadata !9000, metadata !DIExpression()), !dbg !9001
  %29 = alloca i8*, align 8
  call void @llvm.dbg.declare(metadata i8** %29, metadata !9002, metadata !DIExpression()), !dbg !9003
  %30 = alloca %"class.std::__1::__wrap_iter.51"*, align 8
  call void @llvm.dbg.declare(metadata %"class.std::__1::__wrap_iter.51"** %30, metadata !8956, metadata !DIExpression()), !dbg !9004
  %31 = alloca %"class.std::__1::unique_ptr"*, align 8
  call void @llvm.dbg.declare(metadata %"class.std::__1::unique_ptr"** %31, metadata !8967, metadata !DIExpression()), !dbg !9010
  %32 = alloca %"class.std::__1::__wrap_iter.51"*, align 8
  call void @llvm.dbg.declare(metadata %"class.std::__1::__wrap_iter.51"** %32, metadata !8969, metadata !DIExpression()), !dbg !9011
  %33 = alloca %"class.std::__1::unique_ptr"*, align 8
  call void @llvm.dbg.declare(metadata %"class.std::__1::unique_ptr"** %33, metadata !8971, metadata !DIExpression()), !dbg !9012
  %34 = alloca %"class.std::__1::__wrap_iter.51", align 8
  %35 = alloca %"class.std::__1::vector"*, align 8
  call void @llvm.dbg.declare(metadata %"class.std::__1::vector"** %35, metadata !8973, metadata !DIExpression()), !dbg !9013
  %36 = alloca %"class.std::__1::unique_ptr"*, align 8
  call void @llvm.dbg.declare(metadata %"class.std::__1::unique_ptr"** %36, metadata !8976, metadata !DIExpression()), !dbg !9014
  %37 = alloca %"class.std::__1::__wrap_iter.51", align 8
  %38 = alloca %"class.std::__1::vector"*, align 8
  call void @llvm.dbg.declare(metadata %"class.std::__1::vector"** %38, metadata !9015, metadata !DIExpression()), !dbg !9016
  %39 = alloca %"class.altered_carbon::js::ACAstBuilder"*, align 8
  %40 = alloca i1, align 1
  %41 = alloca %"class.std::__1::__wrap_iter", align 8
  %42 = alloca %"class.std::__1::__wrap_iter.51", align 8
  %43 = alloca %"class.std::__1::__wrap_iter.51", align 8
  store %"class.altered_carbon::js::ACAstBuilder"* %1, %"class.altered_carbon::js::ACAstBuilder"** %39, align 8
  call void @llvm.dbg.declare(metadata %"class.altered_carbon::js::ACAstBuilder"** %39, metadata !9017, metadata !DIExpression()), !dbg !9018
  %44 = load %"class.altered_carbon::js::ACAstBuilder"*, %"class.altered_carbon::js::ACAstBuilder"** %39, align 8
  %45 = call dereferenceable(160) %"class.std::__1::basic_ostream"* @_ZNSt3__1lsINS_11char_traitsIcEEEERNS_13basic_ostreamIcT_EES6_PKc(%"class.std::__1::basic_ostream"* dereferenceable(160) bitcast (i8* getelementptr inbounds (i8, i8* bitcast (%"class.altered_carbon::js::NullStream"* @_ZN14altered_carbon2jsL9BlackHoleE to i8*), i64 320) to %"class.std::__1::basic_ostream"*), i8* getelementptr inbounds ([1 x i8], [1 x i8]* @.str, i32 0, i32 0)), !dbg !9019
  %46 = call dereferenceable(160) %"class.std::__1::basic_ostream"* @_ZNSt3__1lsINS_11char_traitsIcEEEERNS_13basic_ostreamIcT_EES6_PKc(%"class.std::__1::basic_ostream"* dereferenceable(160) %45, i8* getelementptr inbounds ([9 x i8], [9 x i8]* @.str.1, i32 0, i32 0)), !dbg !9019
  %47 = call dereferenceable(160) %"class.std::__1::basic_ostream"* @_ZNSt3__1lsINS_11char_traitsIcEEEERNS_13basic_ostreamIcT_EES6_PKc(%"class.std::__1::basic_ostream"* dereferenceable(160) %46, i8* getelementptr inbounds ([1 x i8], [1 x i8]* @.str, i32 0, i32 0)), !dbg !9019
  %48 = call dereferenceable(160) %"class.std::__1::basic_ostream"* @_ZNSt3__1lsINS_11char_traitsIcEEEERNS_13basic_ostreamIcT_EES6_PKc(%"class.std::__1::basic_ostream"* dereferenceable(160) %47, i8* getelementptr inbounds ([17 x i8], [17 x i8]* @.str.2, i32 0, i32 0)), !dbg !9020
  %49 = bitcast %"class.altered_carbon::js::ACAstBuilder"* %44 to %"class.altered_carbon::js::ACJsParser"*, !dbg !9021
  %50 = call signext i32 @_ZN14altered_carbon2js10ACJsParser6nextChEib(%"class.altered_carbon::js::ACJsParser"* %49, i32 0, i1 zeroext true), !dbg !9021
  %51 = bitcast %"class.altered_carbon::js::ACAstBuilder"* %44 to %"class.altered_carbon::js::ACJsParser"*, !dbg !9022
  call void @_ZN14altered_carbon2js10ACJsParser4peekEv(%"class.altered_carbon::js::ACJsParser"* %51), !dbg !9022
  store i1 false, i1* %40, align 1, !dbg !9023
  call void @llvm.dbg.declare(metadata %"class.std::__1::vector"* %0, metadata !9024, metadata !DIExpression()), !dbg !9025
  call void @_ZN14altered_carbon2js12ACAstBuilder15parseScriptBodyEbbb(%"class.std::__1::vector"* sret %0, %"class.altered_carbon::js::ACAstBuilder"* %44, i1 zeroext false, i1 zeroext false, i1 zeroext false), !dbg !9026
  %52 = call dereferenceable(160) %"class.std::__1::basic_ostream"* @_ZNSt3__1lsINS_11char_traitsIcEEEERNS_13basic_ostreamIcT_EES6_PKc(%"class.std::__1::basic_ostream"* dereferenceable(160) @_ZNSt3__14coutE, i8* getelementptr inbounds ([27 x i8], [27 x i8]* @.str.3, i32 0, i32 0)), !dbg !9027
  call void @llvm.dbg.declare(metadata %"class.std::__1::__wrap_iter"* %41, metadata !9028, metadata !DIExpression()), !dbg !9029
  store %"class.std::__1::vector"* %0, %"class.std::__1::vector"** %38, align 8
  %53 = load %"class.std::__1::vector"*, %"class.std::__1::vector"** %38, align 8
  %54 = bitcast %"class.std::__1::vector"* %53 to %"class.std::__1::__vector_base"*, !dbg !9030
  %55 = getelementptr inbounds %"class.std::__1::__vector_base", %"class.std::__1::__vector_base"* %54, i32 0, i32 0, !dbg !9030
  %56 = load %"class.std::__1::unique_ptr"*, %"class.std::__1::unique_ptr"** %55, align 8, !dbg !9030
  store %"class.std::__1::vector"* %53, %"class.std::__1::vector"** %35, align 8
  store %"class.std::__1::unique_ptr"* %56, %"class.std::__1::unique_ptr"** %36, align 8
  %57 = load %"class.std::__1::vector"*, %"class.std::__1::vector"** %35, align 8
  %58 = load %"class.std::__1::unique_ptr"*, %"class.std::__1::unique_ptr"** %36, align 8, !dbg !9031
  store %"class.std::__1::__wrap_iter.51"* %34, %"class.std::__1::__wrap_iter.51"** %32, align 8
  store %"class.std::__1::unique_ptr"* %58, %"class.std::__1::unique_ptr"** %33, align 8
  %59 = load %"class.std::__1::__wrap_iter.51"*, %"class.std::__1::__wrap_iter.51"** %32, align 8
  %60 = load %"class.std::__1::unique_ptr"*, %"class.std::__1::unique_ptr"** %33, align 8, !dbg !9032
  store %"class.std::__1::__wrap_iter.51"* %59, %"class.std::__1::__wrap_iter.51"** %30, align 8
  store %"class.std::__1::unique_ptr"* %60, %"class.std::__1::unique_ptr"** %31, align 8
  %61 = load %"class.std::__1::__wrap_iter.51"*, %"class.std::__1::__wrap_iter.51"** %30, align 8
  %62 = getelementptr inbounds %"class.std::__1::__wrap_iter.51", %"class.std::__1::__wrap_iter.51"* %61, i32 0, i32 0, !dbg !9033
