; ModuleID = 'temp.bc'
source_filename = "../ac_ast_member_ref_nodes.cc"
target datalayout = "e-m:o-i64:64-f80:128-n8:16:32:64-S128"
target triple = "x86_64-apple-macosx10.13.0"

%"class.std::__1::locale::id" = type <{ %"struct.std::__1::once_flag", i32, [4 x i8] }>
%"struct.std::__1::once_flag" = type { i64 }
%"class.altered_carbon::js::ACAstStaticMemberRef" = type { %"class.altered_carbon::js::ACAstExpressionNode" }
%"class.altered_carbon::js::ACAstExpressionNode" = type { %"class.altered_carbon::js::ACAstBaseNode", %"class.std::__1::unique_ptr.1" }
%"class.altered_carbon::js::ACAstBaseNode" = type { i32 (...)**, %"class.std::__1::unique_ptr", i32, i32, %"class.std::__1::vector" }
%"class.std::__1::unique_ptr" = type { %"class.std::__1::__compressed_pair" }
%"class.std::__1::__compressed_pair" = type { %"struct.std::__1::__compressed_pair_elem" }
%"struct.std::__1::__compressed_pair_elem" = type { %"struct.altered_carbon::js::ACLexPosition"* }
%"struct.altered_carbon::js::ACLexPosition" = type { i32 (...)**, i64, i32, i64 }
%"class.std::__1::vector" = type { %"class.std::__1::__vector_base" }
%"class.std::__1::__vector_base" = type { %"class.std::__1::unique_ptr.1"*, %"class.std::__1::unique_ptr.1"*, %"class.std::__1::__compressed_pair.7" }
%"class.std::__1::__compressed_pair.7" = type { %"struct.std::__1::__compressed_pair_elem.8" }
%"struct.std::__1::__compressed_pair_elem.8" = type { %"class.std::__1::unique_ptr.1"* }
%"class.std::__1::unique_ptr.1" = type { %"class.std::__1::__compressed_pair.2" }
%"class.std::__1::__compressed_pair.2" = type { %"struct.std::__1::__compressed_pair_elem.3" }
%"struct.std::__1::__compressed_pair_elem.3" = type { %"class.altered_carbon::js::ACAstBaseNode"* }
%"struct.std::__1::__compressed_pair_elem.4" = type { i8 }
%"struct.std::__1::default_delete.5" = type { i8 }
%"struct.std::__1::__compressed_pair_elem.0" = type { i8 }
%"struct.std::__1::default_delete" = type { i8 }
%"struct.std::__1::__compressed_pair_elem.9" = type { i8 }
%"class.std::__1::allocator" = type { i8 }
%"struct.std::__1::__has_construct" = type { i8 }
%"struct.std::__1::vector<std::__1::unique_ptr<altered_carbon::js::ACAstBaseNode, std::__1::default_delete<altered_carbon::js::ACAstBaseNode> >, std::__1::allocator<std::__1::unique_ptr<altered_carbon::js::ACAstBaseNode, std::__1::default_delete<altered_carbon::js::ACAstBaseNode> > > >::__RAII_IncreaseAnnotator" = type { i8 }
%"struct.std::__1::integral_constant" = type { i8 }
%"class.std::__1::basic_ostream" = type { i32 (...)**, %"class.std::__1::basic_ios.base" }
%"class.std::__1::basic_ios.base" = type <{ %"class.std::__1::ios_base", %"class.std::__1::basic_ostream"*, i32 }>
%"class.std::__1::ios_base" = type { i32 (...)**, i32, i64, i64, i32, i32, i8*, i8*, void (i32, %"class.std::__1::ios_base"*, i32)**, i32*, i64, i64, i64*, i64, i64, i8**, i64, i64 }
%"class.altered_carbon::js::ACAstRuntimeMemberRef" = type { %"class.altered_carbon::js::ACAstExpressionNode" }
%"class.altered_carbon::js::ACAstVisitable" = type { i32 (...)** }
%"class.std::__1::basic_string" = type { %"class.std::__1::__compressed_pair.10" }
%"class.std::__1::__compressed_pair.10" = type { %"struct.std::__1::__compressed_pair_elem.11" }
%"struct.std::__1::__compressed_pair_elem.11" = type { %"struct.std::__1::basic_string<wchar_t, std::__1::char_traits<wchar_t>, std::__1::allocator<wchar_t> >::__rep" }
%"struct.std::__1::basic_string<wchar_t, std::__1::char_traits<wchar_t>, std::__1::allocator<wchar_t> >::__rep" = type { %union.anon }
%union.anon = type { %"struct.std::__1::basic_string<wchar_t, std::__1::char_traits<wchar_t>, std::__1::allocator<wchar_t> >::__long" }
%"struct.std::__1::basic_string<wchar_t, std::__1::char_traits<wchar_t>, std::__1::allocator<wchar_t> >::__long" = type { i64, i64, i32* }
%"class.std::__1::allocator.14" = type { i8 }
%"struct.std::__1::__compressed_pair_elem.13" = type { i8 }
%"class.std::__1::__basic_string_common" = type { i8 }
%"struct.std::__1::__has_destroy" = type { i8 }
%"struct.std::__1::__less" = type { i8 }
%"struct.std::__1::__split_buffer" = type { %"class.std::__1::unique_ptr.1"*, %"class.std::__1::unique_ptr.1"*, %"class.std::__1::unique_ptr.1"*, %"class.std::__1::__compressed_pair.16" }
%"class.std::__1::__compressed_pair.16" = type { %"struct.std::__1::__compressed_pair_elem.8", %"struct.std::__1::__compressed_pair_elem.17" }
%"struct.std::__1::__compressed_pair_elem.17" = type { %"class.std::__1::allocator"* }
%"class.std::__1::__vector_base_common" = type { i8 }
%"struct.std::__1::__has_max_size" = type { i8 }
%"class.std::__1::__split_buffer_common" = type { i8 }
%"class.std::__1::ctype" = type <{ %"class.std::__1::locale::facet", i32*, i8, [7 x i8] }>
%"class.std::__1::locale::facet" = type { %"class.std::__1::__shared_count" }
%"class.std::__1::__shared_count" = type { i32 (...)**, i64 }
%"class.std::__1::locale" = type { %"class.std::__1::locale::__imp"* }
%"class.std::__1::locale::__imp" = type opaque
%"class.std::__1::basic_ios" = type <{ %"class.std::__1::ios_base", %"class.std::__1::basic_ostream"*, i32, [4 x i8] }>
%"class.std::__1::ostreambuf_iterator" = type { %"class.std::__1::basic_streambuf"* }
%"class.std::__1::basic_streambuf" = type { i32 (...)**, %"class.std::__1::locale", i8*, i8*, i8*, i8*, i8*, i8* }
%"class.std::__1::basic_ostream<char, std::__1::char_traits<char> >::sentry" = type { i8, %"class.std::__1::basic_ostream"* }
%"struct.std::__1::iterator" = type { i8 }
%"struct.std::__1::__compressed_pair_elem.21" = type { %"struct.std::__1::basic_string<char, std::__1::char_traits<char>, std::__1::allocator<char> >::__rep" }
%"struct.std::__1::basic_string<char, std::__1::char_traits<char>, std::__1::allocator<char> >::__rep" = type { %union.anon.22 }
%union.anon.22 = type { %"struct.std::__1::basic_string<char, std::__1::char_traits<char>, std::__1::allocator<char> >::__long" }
%"struct.std::__1::basic_string<char, std::__1::char_traits<char>, std::__1::allocator<char> >::__long" = type { i64, i64, i8* }
%"class.std::__1::__compressed_pair.20" = type { %"struct.std::__1::__compressed_pair_elem.21" }
%"class.std::__1::basic_string.19" = type { %"class.std::__1::__compressed_pair.20" }
%"class.std::__1::allocator.25" = type { i8 }
%"struct.std::__1::__compressed_pair_elem.24" = type { i8 }
%"struct.std::__1::basic_string<char, std::__1::char_traits<char>, std::__1::allocator<char> >::__short" = type { %union.anon.23, [23 x i8] }
%union.anon.23 = type { i8 }

@_ZTVN14altered_carbon2js20ACAstStaticMemberRefE = unnamed_addr constant { [14 x i8*] } { [14 x i8*] [i8* null, i8* bitcast ({ i8*, i8*, i8* }* @_ZTIN14altered_carbon2js20ACAstStaticMemberRefE to i8*), i8* bitcast (void (%"class.altered_carbon::js::ACAstStaticMemberRef"*)* @_ZN14altered_carbon2js20ACAstStaticMemberRefD1Ev to i8*), i8* bitcast (void (%"class.altered_carbon::js::ACAstStaticMemberRef"*)* @_ZN14altered_carbon2js20ACAstStaticMemberRefD0Ev to i8*), i8* bitcast (i8* (%"class.altered_carbon::js::ACAstExpressionNode"*, %"class.altered_carbon::js::ACAstVisitable"*)* @_ZNK14altered_carbon2js19ACAstExpressionNode6acceptEPNS0_14ACAstVisitableE to i8*), i8* bitcast (void (%"class.std::__1::basic_string"*, %"class.altered_carbon::js::ACAstBaseNode"*)* @_ZNK14altered_carbon2js13ACAstBaseNode10identifierEv to i8*), i8* bitcast (i32 (%"class.altered_carbon::js::ACAstBaseNode"*)* @_ZNK14altered_carbon2js13ACAstBaseNode10precedenceEv to i8*), i8* bitcast (i32 (%"class.altered_carbon::js::ACAstBaseNode"*)* @_ZNK14altered_carbon2js13ACAstBaseNode2opEv to i8*), i8* bitcast (i1 (%"class.altered_carbon::js::ACAstStaticMemberRef"*)* @_ZN14altered_carbon2js20ACAstStaticMemberRef14convertToParamEv to i8*), i8* bitcast (i1 (%"class.altered_carbon::js::ACAstBaseNode"*)* @_ZN14altered_carbon2js13ACAstBaseNode15convertToFormalEv to i8*), i8* bitcast (void (%"class.altered_carbon::js::ACAstBaseNode"*, %"class.std::__1::basic_ostream"*)* @_ZNK14altered_carbon2js13ACAstBaseNode4dumpERNSt3__113basic_ostreamIcNS2_11char_traitsIcEEEE to i8*), i8* bitcast (void (%"class.altered_carbon::js::ACAstBaseNode"*, %"class.std::__1::basic_ostream"*)* @_ZNK14altered_carbon2js13ACAstBaseNode14dumpGraphLabelERNSt3__113basic_ostreamIcNS2_11char_traitsIcEEEE to i8*), i8* bitcast (void (%"class.altered_carbon::js::ACAstExpressionNode"*, %"class.std::__1::basic_ostream"*)* @_ZNK14altered_carbon2js19ACAstExpressionNode9dumpGraphERNSt3__113basic_ostreamIcNS2_11char_traitsIcEEEE to i8*), i8* bitcast (void (%"class.altered_carbon::js::ACAstStaticMemberRef"*, %"class.std::__1::basic_ostream"*)* @_ZNK14altered_carbon2js20ACAstStaticMemberRef14dumpChildNodesERNSt3__113basic_ostreamIcNS2_11char_traitsIcEEEE to i8*)] }, align 8
@.str = private unnamed_addr constant [6 x i8] c" <.> \00", align 1
@_ZTVN14altered_carbon2js21ACAstRuntimeMemberRefE = unnamed_addr constant { [14 x i8*] } { [14 x i8*] [i8* null, i8* bitcast ({ i8*, i8*, i8* }* @_ZTIN14altered_carbon2js21ACAstRuntimeMemberRefE to i8*), i8* bitcast (void (%"class.altered_carbon::js::ACAstRuntimeMemberRef"*)* @_ZN14altered_carbon2js21ACAstRuntimeMemberRefD1Ev to i8*), i8* bitcast (void (%"class.altered_carbon::js::ACAstRuntimeMemberRef"*)* @_ZN14altered_carbon2js21ACAstRuntimeMemberRefD0Ev to i8*), i8* bitcast (i8* (%"class.altered_carbon::js::ACAstExpressionNode"*, %"class.altered_carbon::js::ACAstVisitable"*)* @_ZNK14altered_carbon2js19ACAstExpressionNode6acceptEPNS0_14ACAstVisitableE to i8*), i8* bitcast (void (%"class.std::__1::basic_string"*, %"class.altered_carbon::js::ACAstBaseNode"*)* @_ZNK14altered_carbon2js13ACAstBaseNode10identifierEv to i8*), i8* bitcast (i32 (%"class.altered_carbon::js::ACAstBaseNode"*)* @_ZNK14altered_carbon2js13ACAstBaseNode10precedenceEv to i8*), i8* bitcast (i32 (%"class.altered_carbon::js::ACAstBaseNode"*)* @_ZNK14altered_carbon2js13ACAstBaseNode2opEv to i8*), i8* bitcast (i1 (%"class.altered_carbon::js::ACAstRuntimeMemberRef"*)* @_ZN14altered_carbon2js21ACAstRuntimeMemberRef14convertToParamEv to i8*), i8* bitcast (i1 (%"class.altered_carbon::js::ACAstBaseNode"*)* @_ZN14altered_carbon2js13ACAstBaseNode15convertToFormalEv to i8*), i8* bitcast (void (%"class.altered_carbon::js::ACAstBaseNode"*, %"class.std::__1::basic_ostream"*)* @_ZNK14altered_carbon2js13ACAstBaseNode4dumpERNSt3__113basic_ostreamIcNS2_11char_traitsIcEEEE to i8*), i8* bitcast (void (%"class.altered_carbon::js::ACAstBaseNode"*, %"class.std::__1::basic_ostream"*)* @_ZNK14altered_carbon2js13ACAstBaseNode14dumpGraphLabelERNSt3__113basic_ostreamIcNS2_11char_traitsIcEEEE to i8*), i8* bitcast (void (%"class.altered_carbon::js::ACAstExpressionNode"*, %"class.std::__1::basic_ostream"*)* @_ZNK14altered_carbon2js19ACAstExpressionNode9dumpGraphERNSt3__113basic_ostreamIcNS2_11char_traitsIcEEEE to i8*), i8* bitcast (void (%"class.altered_carbon::js::ACAstRuntimeMemberRef"*, %"class.std::__1::basic_ostream"*)* @_ZNK14altered_carbon2js21ACAstRuntimeMemberRef14dumpChildNodesERNSt3__113basic_ostreamIcNS2_11char_traitsIcEEEE to i8*)] }, align 8
@.str.1 = private unnamed_addr constant [2 x i8] c"[\00", align 1
@.str.2 = private unnamed_addr constant [2 x i8] c"]\00", align 1
@_ZTVN10__cxxabiv120__si_class_type_infoE = external global i8*
@_ZTSN14altered_carbon2js20ACAstStaticMemberRefE = constant [44 x i8] c"N14altered_carbon2js20ACAstStaticMemberRefE\00"
@_ZTIN14altered_carbon2js19ACAstExpressionNodeE = external constant i8*
@_ZTIN14altered_carbon2js20ACAstStaticMemberRefE = constant { i8*, i8*, i8* } { i8* bitcast (i8** getelementptr inbounds (i8*, i8** @_ZTVN10__cxxabiv120__si_class_type_infoE, i64 2) to i8*), i8* getelementptr inbounds ([44 x i8], [44 x i8]* @_ZTSN14altered_carbon2js20ACAstStaticMemberRefE, i32 0, i32 0), i8* bitcast (i8** @_ZTIN14altered_carbon2js19ACAstExpressionNodeE to i8*) }
@_ZTSN14altered_carbon2js21ACAstRuntimeMemberRefE = constant [45 x i8] c"N14altered_carbon2js21ACAstRuntimeMemberRefE\00"
@_ZTIN14altered_carbon2js21ACAstRuntimeMemberRefE = constant { i8*, i8*, i8* } { i8* bitcast (i8** getelementptr inbounds (i8*, i8** @_ZTVN10__cxxabiv120__si_class_type_infoE, i64 2) to i8*), i8* getelementptr inbounds ([45 x i8], [45 x i8]* @_ZTSN14altered_carbon2js21ACAstRuntimeMemberRefE, i32 0, i32 0), i8* bitcast (i8** @_ZTIN14altered_carbon2js19ACAstExpressionNodeE to i8*) }
@_ZTVN14altered_carbon2js19ACAstExpressionNodeE = external unnamed_addr constant { [14 x i8*] }
@_ZTVN14altered_carbon2js13ACAstBaseNodeE = external unnamed_addr constant { [14 x i8*] }
@.str.3 = private unnamed_addr constant [7 x i32] [i32 40, i32 110, i32 117, i32 108, i32 108, i32 41, i32 0], align 4
@.str.4 = private unnamed_addr constant [68 x i8] c"allocator<T>::allocate(size_t n) 'n' exceeds maximum supported size\00", align 1
@_ZNSt3__15ctypeIcE2idE = external global %"class.std::__1::locale::id", align 8

; Function Attrs: noinline nounwind optnone ssp uwtable
define void @_ZN14altered_carbon2js20ACAstStaticMemberRefC2ENSt3__110unique_ptrINS0_13ACLexPositionENS2_14default_deleteIS4_EEEENS3_INS0_13ACAstBaseNodeENS5_IS8_EEEESA_(%"class.altered_carbon::js::ACAstStaticMemberRef"*, %"class.std::__1::unique_ptr"*, %"class.std::__1::unique_ptr.1"*, %"class.std::__1::unique_ptr.1"*) unnamed_addr #0 align 2 !dbg !5435 {
  %5 = alloca %"struct.std::__1::__compressed_pair_elem.4"*, align 8
  call void @llvm.dbg.declare(metadata %"struct.std::__1::__compressed_pair_elem.4"** %5, metadata !5452, metadata !DIExpression()), !dbg !5455
  %6 = alloca %"class.std::__1::__compressed_pair.2"*, align 8
  call void @llvm.dbg.declare(metadata %"class.std::__1::__compressed_pair.2"** %6, metadata !5465, metadata !DIExpression()), !dbg !5467
  %7 = alloca %"class.std::__1::unique_ptr.1"*, align 8
  call void @llvm.dbg.declare(metadata %"class.std::__1::unique_ptr.1"** %7, metadata !5468, metadata !DIExpression()), !dbg !5469
  %8 = alloca %"struct.std::__1::default_delete.5"*, align 8
  call void @llvm.dbg.declare(metadata %"struct.std::__1::default_delete.5"** %8, metadata !5470, metadata !DIExpression()), !dbg !5479
  %9 = alloca %"class.altered_carbon::js::ACAstBaseNode"**, align 8
  call void @llvm.dbg.declare(metadata %"class.altered_carbon::js::ACAstBaseNode"*** %9, metadata !5481, metadata !DIExpression()), !dbg !5490
  %10 = alloca %"struct.std::__1::__compressed_pair_elem.3"*, align 8
  call void @llvm.dbg.declare(metadata %"struct.std::__1::__compressed_pair_elem.3"** %10, metadata !5510, metadata !DIExpression()), !dbg !5512
  %11 = alloca %"class.altered_carbon::js::ACAstBaseNode"**, align 8
  call void @llvm.dbg.declare(metadata %"class.altered_carbon::js::ACAstBaseNode"*** %11, metadata !5513, metadata !DIExpression()), !dbg !5514
  %12 = alloca %"struct.std::__1::default_delete.5"*, align 8
  call void @llvm.dbg.declare(metadata %"struct.std::__1::default_delete.5"** %12, metadata !5470, metadata !DIExpression()), !dbg !5515
  %13 = alloca %"struct.std::__1::default_delete.5"*, align 8
  call void @llvm.dbg.declare(metadata %"struct.std::__1::default_delete.5"** %13, metadata !5470, metadata !DIExpression()), !dbg !5517
  %14 = alloca %"struct.std::__1::__compressed_pair_elem.4"*, align 8
  call void @llvm.dbg.declare(metadata %"struct.std::__1::__compressed_pair_elem.4"** %14, metadata !5526, metadata !DIExpression()), !dbg !5527
  %15 = alloca %"struct.std::__1::default_delete.5"*, align 8
  call void @llvm.dbg.declare(metadata %"struct.std::__1::default_delete.5"** %15, metadata !5528, metadata !DIExpression()), !dbg !5529
  %16 = alloca %"class.altered_carbon::js::ACAstBaseNode"**, align 8
  call void @llvm.dbg.declare(metadata %"class.altered_carbon::js::ACAstBaseNode"*** %16, metadata !5481, metadata !DIExpression()), !dbg !5530
  %17 = alloca %"class.std::__1::__compressed_pair.2"*, align 8
  call void @llvm.dbg.declare(metadata %"class.std::__1::__compressed_pair.2"** %17, metadata !5532, metadata !DIExpression()), !dbg !5533
  %18 = alloca %"class.altered_carbon::js::ACAstBaseNode"**, align 8
  call void @llvm.dbg.declare(metadata %"class.altered_carbon::js::ACAstBaseNode"*** %18, metadata !5534, metadata !DIExpression()), !dbg !5535
  %19 = alloca %"struct.std::__1::default_delete.5"*, align 8
  call void @llvm.dbg.declare(metadata %"struct.std::__1::default_delete.5"** %19, metadata !5536, metadata !DIExpression()), !dbg !5537
  %20 = alloca %"class.std::__1::__compressed_pair.2"*, align 8
  call void @llvm.dbg.declare(metadata %"class.std::__1::__compressed_pair.2"** %20, metadata !5538, metadata !DIExpression()), !dbg !5539
  %21 = alloca %"class.altered_carbon::js::ACAstBaseNode"**, align 8
  call void @llvm.dbg.declare(metadata %"class.altered_carbon::js::ACAstBaseNode"*** %21, metadata !5540, metadata !DIExpression()), !dbg !5541
  %22 = alloca %"struct.std::__1::default_delete.5"*, align 8
  call void @llvm.dbg.declare(metadata %"struct.std::__1::default_delete.5"** %22, metadata !5542, metadata !DIExpression()), !dbg !5543
  %23 = alloca %"struct.std::__1::__compressed_pair_elem.3"*, align 8
  call void @llvm.dbg.declare(metadata %"struct.std::__1::__compressed_pair_elem.3"** %23, metadata !5544, metadata !DIExpression()), !dbg !5546
  %24 = alloca %"class.std::__1::__compressed_pair.2"*, align 8
  call void @llvm.dbg.declare(metadata %"class.std::__1::__compressed_pair.2"** %24, metadata !5552, metadata !DIExpression()), !dbg !5553
  %25 = alloca %"struct.std::__1::__compressed_pair_elem.3"*, align 8
  call void @llvm.dbg.declare(metadata %"struct.std::__1::__compressed_pair_elem.3"** %25, metadata !5544, metadata !DIExpression()), !dbg !5554
  %26 = alloca %"class.std::__1::__compressed_pair.2"*, align 8
  call void @llvm.dbg.declare(metadata %"class.std::__1::__compressed_pair.2"** %26, metadata !5552, metadata !DIExpression()), !dbg !5557
  %27 = alloca %"class.std::__1::unique_ptr.1"*, align 8
  call void @llvm.dbg.declare(metadata %"class.std::__1::unique_ptr.1"** %27, metadata !5558, metadata !DIExpression()), !dbg !5559
  %28 = alloca %"class.altered_carbon::js::ACAstBaseNode"*, align 8
  call void @llvm.dbg.declare(metadata %"class.altered_carbon::js::ACAstBaseNode"** %28, metadata !5560, metadata !DIExpression()), !dbg !5561
  %29 = alloca %"class.std::__1::unique_ptr.1"*, align 8
  call void @llvm.dbg.declare(metadata %"class.std::__1::unique_ptr.1"** %29, metadata !5562, metadata !DIExpression()), !dbg !5563
  %30 = alloca %"class.std::__1::unique_ptr.1"*, align 8
  call void @llvm.dbg.declare(metadata %"class.std::__1::unique_ptr.1"** %30, metadata !5564, metadata !DIExpression()), !dbg !5565
  %31 = alloca %"class.altered_carbon::js::ACAstBaseNode"*, align 8
  %32 = alloca %"class.std::__1::unique_ptr.1"*, align 8
  call void @llvm.dbg.declare(metadata %"class.std::__1::unique_ptr.1"** %32, metadata !5566, metadata !DIExpression()), !dbg !5567
  %33 = alloca %"class.std::__1::unique_ptr.1"*, align 8
  call void @llvm.dbg.declare(metadata %"class.std::__1::unique_ptr.1"** %33, metadata !5568, metadata !DIExpression()), !dbg !5569
  %34 = alloca %"struct.std::__1::__compressed_pair_elem.4"*, align 8
  call void @llvm.dbg.declare(metadata %"struct.std::__1::__compressed_pair_elem.4"** %34, metadata !5452, metadata !DIExpression()), !dbg !5570
  %35 = alloca %"class.std::__1::__compressed_pair.2"*, align 8
  call void @llvm.dbg.declare(metadata %"class.std::__1::__compressed_pair.2"** %35, metadata !5465, metadata !DIExpression()), !dbg !5581
  %36 = alloca %"struct.std::__1::__compressed_pair_elem.3"*, align 8
  call void @llvm.dbg.declare(metadata %"struct.std::__1::__compressed_pair_elem.3"** %36, metadata !5544, metadata !DIExpression()), !dbg !5582
  %37 = alloca %"class.std::__1::__compressed_pair.2"*, align 8
  call void @llvm.dbg.declare(metadata %"class.std::__1::__compressed_pair.2"** %37, metadata !5552, metadata !DIExpression()), !dbg !5585
  %38 = alloca %"struct.std::__1::default_delete.5"*, align 8
  call void @llvm.dbg.declare(metadata %"struct.std::__1::default_delete.5"** %38, metadata !5586, metadata !DIExpression()), !dbg !5589
  %39 = alloca %"class.altered_carbon::js::ACAstBaseNode"*, align 8
  call void @llvm.dbg.declare(metadata %"class.altered_carbon::js::ACAstBaseNode"** %39, metadata !5591, metadata !DIExpression()), !dbg !5592
  %40 = alloca %"struct.std::__1::__compressed_pair_elem.3"*, align 8
  call void @llvm.dbg.declare(metadata %"struct.std::__1::__compressed_pair_elem.3"** %40, metadata !5544, metadata !DIExpression()), !dbg !5593
  %41 = alloca %"class.std::__1::__compressed_pair.2"*, align 8
  call void @llvm.dbg.declare(metadata %"class.std::__1::__compressed_pair.2"** %41, metadata !5552, metadata !DIExpression()), !dbg !5596
  %42 = alloca %"class.std::__1::unique_ptr.1"*, align 8
  call void @llvm.dbg.declare(metadata %"class.std::__1::unique_ptr.1"** %42, metadata !5597, metadata !DIExpression()), !dbg !5598
  %43 = alloca %"class.altered_carbon::js::ACAstBaseNode"*, align 8
  call void @llvm.dbg.declare(metadata %"class.altered_carbon::js::ACAstBaseNode"** %43, metadata !5599, metadata !DIExpression()), !dbg !5600
  %44 = alloca %"class.altered_carbon::js::ACAstBaseNode"*, align 8
  call void @llvm.dbg.declare(metadata %"class.altered_carbon::js::ACAstBaseNode"** %44, metadata !5601, metadata !DIExpression()), !dbg !5602
  %45 = alloca %"class.std::__1::unique_ptr.1"*, align 8
  call void @llvm.dbg.declare(metadata %"class.std::__1::unique_ptr.1"** %45, metadata !5603, metadata !DIExpression()), !dbg !5604
  %46 = alloca %"class.std::__1::unique_ptr.1"*, align 8
  call void @llvm.dbg.declare(metadata %"class.std::__1::unique_ptr.1"** %46, metadata !5605, metadata !DIExpression()), !dbg !5606
  %47 = alloca %"class.std::__1::unique_ptr.1"*, align 8
  call void @llvm.dbg.declare(metadata %"class.std::__1::unique_ptr.1"** %47, metadata !5607, metadata !DIExpression()), !dbg !5616
  %48 = alloca %"struct.std::__1::__compressed_pair_elem.0"*, align 8
  call void @llvm.dbg.declare(metadata %"struct.std::__1::__compressed_pair_elem.0"** %48, metadata !5618, metadata !DIExpression()), !dbg !5621
  %49 = alloca %"class.std::__1::__compressed_pair"*, align 8
  call void @llvm.dbg.declare(metadata %"class.std::__1::__compressed_pair"** %49, metadata !5633, metadata !DIExpression()), !dbg !5635
  %50 = alloca %"struct.std::__1::__compressed_pair_elem"*, align 8
  call void @llvm.dbg.declare(metadata %"struct.std::__1::__compressed_pair_elem"** %50, metadata !5636, metadata !DIExpression()), !dbg !5639
  %51 = alloca %"class.std::__1::__compressed_pair"*, align 8
  call void @llvm.dbg.declare(metadata %"class.std::__1::__compressed_pair"** %51, metadata !5643, metadata !DIExpression()), !dbg !5644
  %52 = alloca %"struct.std::__1::default_delete"*, align 8
  call void @llvm.dbg.declare(metadata %"struct.std::__1::default_delete"** %52, metadata !5645, metadata !DIExpression()), !dbg !5648
  %53 = alloca %"struct.altered_carbon::js::ACLexPosition"*, align 8
  call void @llvm.dbg.declare(metadata %"struct.altered_carbon::js::ACLexPosition"** %53, metadata !5650, metadata !DIExpression()), !dbg !5651
  %54 = alloca %"struct.std::__1::__compressed_pair_elem"*, align 8
  call void @llvm.dbg.declare(metadata %"struct.std::__1::__compressed_pair_elem"** %54, metadata !5636, metadata !DIExpression()), !dbg !5652
  %55 = alloca %"class.std::__1::__compressed_pair"*, align 8
  call void @llvm.dbg.declare(metadata %"class.std::__1::__compressed_pair"** %55, metadata !5643, metadata !DIExpression()), !dbg !5655
  %56 = alloca %"class.std::__1::unique_ptr"*, align 8
  call void @llvm.dbg.declare(metadata %"class.std::__1::unique_ptr"** %56, metadata !5656, metadata !DIExpression()), !dbg !5658
  %57 = alloca %"struct.altered_carbon::js::ACLexPosition"*, align 8
  call void @llvm.dbg.declare(metadata %"struct.altered_carbon::js::ACLexPosition"** %57, metadata !5659, metadata !DIExpression()), !dbg !5660
  %58 = alloca %"struct.altered_carbon::js::ACLexPosition"*, align 8
  call void @llvm.dbg.declare(metadata %"struct.altered_carbon::js::ACLexPosition"** %58, metadata !5661, metadata !DIExpression()), !dbg !5662
  %59 = alloca %"class.std::__1::unique_ptr"*, align 8
  call void @llvm.dbg.declare(metadata %"class.std::__1::unique_ptr"** %59, metadata !5663, metadata !DIExpression()), !dbg !5664
  %60 = alloca %"class.std::__1::unique_ptr"*, align 8
  call void @llvm.dbg.declare(metadata %"class.std::__1::unique_ptr"** %60, metadata !5665, metadata !DIExpression()), !dbg !5666
  %61 = alloca %"class.std::__1::unique_ptr.1"*, align 8
  call void @llvm.dbg.declare(metadata %"class.std::__1::unique_ptr.1"** %61, metadata !5607, metadata !DIExpression()), !dbg !5667
  %62 = alloca %"struct.std::__1::__compressed_pair_elem.0"*, align 8
  call void @llvm.dbg.declare(metadata %"struct.std::__1::__compressed_pair_elem.0"** %62, metadata !5618, metadata !DIExpression()), !dbg !5670
  %63 = alloca %"class.std::__1::__compressed_pair"*, align 8
  call void @llvm.dbg.declare(metadata %"class.std::__1::__compressed_pair"** %63, metadata !5633, metadata !DIExpression()), !dbg !5679
  %64 = alloca %"class.std::__1::unique_ptr"*, align 8
  call void @llvm.dbg.declare(metadata %"class.std::__1::unique_ptr"** %64, metadata !5680, metadata !DIExpression()), !dbg !5681
  %65 = alloca %"struct.std::__1::default_delete"*, align 8
  call void @llvm.dbg.declare(metadata %"struct.std::__1::default_delete"** %65, metadata !5682, metadata !DIExpression()), !dbg !5691
  %66 = alloca %"struct.altered_carbon::js::ACLexPosition"**, align 8
  call void @llvm.dbg.declare(metadata %"struct.altered_carbon::js::ACLexPosition"*** %66, metadata !5693, metadata !DIExpression()), !dbg !5702
  %67 = alloca %"struct.std::__1::__compressed_pair_elem"*, align 8
  call void @llvm.dbg.declare(metadata %"struct.std::__1::__compressed_pair_elem"** %67, metadata !5721, metadata !DIExpression()), !dbg !5722
  %68 = alloca %"struct.altered_carbon::js::ACLexPosition"**, align 8
  call void @llvm.dbg.declare(metadata %"struct.altered_carbon::js::ACLexPosition"*** %68, metadata !5723, metadata !DIExpression()), !dbg !5724
  %69 = alloca %"struct.std::__1::default_delete"*, align 8
  call void @llvm.dbg.declare(metadata %"struct.std::__1::default_delete"** %69, metadata !5682, metadata !DIExpression()), !dbg !5725
  %70 = alloca %"struct.std::__1::default_delete"*, align 8
  call void @llvm.dbg.declare(metadata %"struct.std::__1::default_delete"** %70, metadata !5682, metadata !DIExpression()), !dbg !5727
  %71 = alloca %"struct.std::__1::__compressed_pair_elem.0"*, align 8
  call void @llvm.dbg.declare(metadata %"struct.std::__1::__compressed_pair_elem.0"** %71, metadata !5736, metadata !DIExpression()), !dbg !5737
  %72 = alloca %"struct.std::__1::default_delete"*, align 8
  call void @llvm.dbg.declare(metadata %"struct.std::__1::default_delete"** %72, metadata !5738, metadata !DIExpression()), !dbg !5739
  %73 = alloca %"struct.altered_carbon::js::ACLexPosition"**, align 8
  call void @llvm.dbg.declare(metadata %"struct.altered_carbon::js::ACLexPosition"*** %73, metadata !5693, metadata !DIExpression()), !dbg !5740
  %74 = alloca %"class.std::__1::__compressed_pair"*, align 8
  call void @llvm.dbg.declare(metadata %"class.std::__1::__compressed_pair"** %74, metadata !5742, metadata !DIExpression()), !dbg !5743
  %75 = alloca %"struct.altered_carbon::js::ACLexPosition"**, align 8
  call void @llvm.dbg.declare(metadata %"struct.altered_carbon::js::ACLexPosition"*** %75, metadata !5744, metadata !DIExpression()), !dbg !5745
  %76 = alloca %"struct.std::__1::default_delete"*, align 8
  call void @llvm.dbg.declare(metadata %"struct.std::__1::default_delete"** %76, metadata !5746, metadata !DIExpression()), !dbg !5747
  %77 = alloca %"class.std::__1::__compressed_pair"*, align 8
  call void @llvm.dbg.declare(metadata %"class.std::__1::__compressed_pair"** %77, metadata !5748, metadata !DIExpression()), !dbg !5749
  %78 = alloca %"struct.altered_carbon::js::ACLexPosition"**, align 8
  call void @llvm.dbg.declare(metadata %"struct.altered_carbon::js::ACLexPosition"*** %78, metadata !5750, metadata !DIExpression()), !dbg !5751
  %79 = alloca %"struct.std::__1::default_delete"*, align 8
  call void @llvm.dbg.declare(metadata %"struct.std::__1::default_delete"** %79, metadata !5752, metadata !DIExpression()), !dbg !5753
  %80 = alloca %"struct.std::__1::__compressed_pair_elem"*, align 8
  call void @llvm.dbg.declare(metadata %"struct.std::__1::__compressed_pair_elem"** %80, metadata !5636, metadata !DIExpression()), !dbg !5754
  %81 = alloca %"class.std::__1::__compressed_pair"*, align 8
  call void @llvm.dbg.declare(metadata %"class.std::__1::__compressed_pair"** %81, metadata !5643, metadata !DIExpression()), !dbg !5759
  %82 = alloca %"struct.std::__1::__compressed_pair_elem"*, align 8
  call void @llvm.dbg.declare(metadata %"struct.std::__1::__compressed_pair_elem"** %82, metadata !5636, metadata !DIExpression()), !dbg !5760
  %83 = alloca %"class.std::__1::__compressed_pair"*, align 8
  call void @llvm.dbg.declare(metadata %"class.std::__1::__compressed_pair"** %83, metadata !5643, metadata !DIExpression()), !dbg !5763
  %84 = alloca %"class.std::__1::unique_ptr"*, align 8
  call void @llvm.dbg.declare(metadata %"class.std::__1::unique_ptr"** %84, metadata !5764, metadata !DIExpression()), !dbg !5765
  %85 = alloca %"struct.altered_carbon::js::ACLexPosition"*, align 8
  call void @llvm.dbg.declare(metadata %"struct.altered_carbon::js::ACLexPosition"** %85, metadata !5766, metadata !DIExpression()), !dbg !5767
  %86 = alloca %"class.std::__1::unique_ptr"*, align 8
  call void @llvm.dbg.declare(metadata %"class.std::__1::unique_ptr"** %86, metadata !5768, metadata !DIExpression()), !dbg !5769
  %87 = alloca %"class.std::__1::unique_ptr"*, align 8
  call void @llvm.dbg.declare(metadata %"class.std::__1::unique_ptr"** %87, metadata !5770, metadata !DIExpression()), !dbg !5771
  %88 = alloca %"struct.altered_carbon::js::ACLexPosition"*, align 8
  %89 = alloca %"class.std::__1::unique_ptr"*, align 8
  call void @llvm.dbg.declare(metadata %"class.std::__1::unique_ptr"** %89, metadata !5772, metadata !DIExpression()), !dbg !5773
  %90 = alloca %"class.std::__1::unique_ptr"*, align 8
  call void @llvm.dbg.declare(metadata %"class.std::__1::unique_ptr"** %90, metadata !5774, metadata !DIExpression()), !dbg !5775
  %91 = alloca %"struct.std::__1::__compressed_pair_elem.9"*, align 8
  call void @llvm.dbg.declare(metadata %"struct.std::__1::__compressed_pair_elem.9"** %91, metadata !5776, metadata !DIExpression()), !dbg !5779
  %92 = alloca %"class.std::__1::__compressed_pair.7"*, align 8
  call void @llvm.dbg.declare(metadata %"class.std::__1::__compressed_pair.7"** %92, metadata !5789, metadata !DIExpression()), !dbg !5791
  %93 = alloca %"class.std::__1::__vector_base"*, align 8
  call void @llvm.dbg.declare(metadata %"class.std::__1::__vector_base"** %93, metadata !5792, metadata !DIExpression()), !dbg !5794
  %94 = alloca %"class.std::__1::unique_ptr.1"*, align 8
  call void @llvm.dbg.declare(metadata %"class.std::__1::unique_ptr.1"** %94, metadata !5795, metadata !DIExpression()), !dbg !5799
  %95 = alloca %"class.std::__1::unique_ptr.1"*, align 8
  call void @llvm.dbg.declare(metadata %"class.std::__1::unique_ptr.1"** %95, metadata !5607, metadata !DIExpression()), !dbg !5801
  %96 = alloca %"struct.std::__1::__compressed_pair_elem.4"*, align 8
  call void @llvm.dbg.declare(metadata %"struct.std::__1::__compressed_pair_elem.4"** %96, metadata !5452, metadata !DIExpression()), !dbg !5803
  %97 = alloca %"class.std::__1::__compressed_pair.2"*, align 8
  call void @llvm.dbg.declare(metadata %"class.std::__1::__compressed_pair.2"** %97, metadata !5465, metadata !DIExpression()), !dbg !5830
  %98 = alloca %"class.std::__1::unique_ptr.1"*, align 8
  call void @llvm.dbg.declare(metadata %"class.std::__1::unique_ptr.1"** %98, metadata !5468, metadata !DIExpression()), !dbg !5831
  %99 = alloca %"struct.std::__1::default_delete.5"*, align 8
  call void @llvm.dbg.declare(metadata %"struct.std::__1::default_delete.5"** %99, metadata !5470, metadata !DIExpression()), !dbg !5832
  %100 = alloca %"class.altered_carbon::js::ACAstBaseNode"**, align 8
  call void @llvm.dbg.declare(metadata %"class.altered_carbon::js::ACAstBaseNode"*** %100, metadata !5481, metadata !DIExpression()), !dbg !5834
  %101 = alloca %"struct.std::__1::__compressed_pair_elem.3"*, align 8
  call void @llvm.dbg.declare(metadata %"struct.std::__1::__compressed_pair_elem.3"** %101, metadata !5510, metadata !DIExpression()), !dbg !5839
  %102 = alloca %"class.altered_carbon::js::ACAstBaseNode"**, align 8
  call void @llvm.dbg.declare(metadata %"class.altered_carbon::js::ACAstBaseNode"*** %102, metadata !5513, metadata !DIExpression()), !dbg !5840
  %103 = alloca %"struct.std::__1::default_delete.5"*, align 8
  call void @llvm.dbg.declare(metadata %"struct.std::__1::default_delete.5"** %103, metadata !5470, metadata !DIExpression()), !dbg !5841
  %104 = alloca %"struct.std::__1::default_delete.5"*, align 8
  call void @llvm.dbg.declare(metadata %"struct.std::__1::default_delete.5"** %104, metadata !5470, metadata !DIExpression()), !dbg !5843
  %105 = alloca %"struct.std::__1::__compressed_pair_elem.4"*, align 8
  call void @llvm.dbg.declare(metadata %"struct.std::__1::__compressed_pair_elem.4"** %105, metadata !5526, metadata !DIExpression()), !dbg !5846
  %106 = alloca %"struct.std::__1::default_delete.5"*, align 8
  call void @llvm.dbg.declare(metadata %"struct.std::__1::default_delete.5"** %106, metadata !5528, metadata !DIExpression()), !dbg !5847
  %107 = alloca %"class.altered_carbon::js::ACAstBaseNode"**, align 8
  call void @llvm.dbg.declare(metadata %"class.altered_carbon::js::ACAstBaseNode"*** %107, metadata !5481, metadata !DIExpression()), !dbg !5848
  %108 = alloca %"class.std::__1::__compressed_pair.2"*, align 8
  call void @llvm.dbg.declare(metadata %"class.std::__1::__compressed_pair.2"** %108, metadata !5532, metadata !DIExpression()), !dbg !5850
  %109 = alloca %"class.altered_carbon::js::ACAstBaseNode"**, align 8
  call void @llvm.dbg.declare(metadata %"class.altered_carbon::js::ACAstBaseNode"*** %109, metadata !5534, metadata !DIExpression()), !dbg !5851
  %110 = alloca %"struct.std::__1::default_delete.5"*, align 8
  call void @llvm.dbg.declare(metadata %"struct.std::__1::default_delete.5"** %110, metadata !5536, metadata !DIExpression()), !dbg !5852
  %111 = alloca %"class.std::__1::__compressed_pair.2"*, align 8
  call void @llvm.dbg.declare(metadata %"class.std::__1::__compressed_pair.2"** %111, metadata !5538, metadata !DIExpression()), !dbg !5853
  %112 = alloca %"class.altered_carbon::js::ACAstBaseNode"**, align 8
  call void @llvm.dbg.declare(metadata %"class.altered_carbon::js::ACAstBaseNode"*** %112, metadata !5540, metadata !DIExpression()), !dbg !5854
  %113 = alloca %"struct.std::__1::default_delete.5"*, align 8
  call void @llvm.dbg.declare(metadata %"struct.std::__1::default_delete.5"** %113, metadata !5542, metadata !DIExpression()), !dbg !5855
  %114 = alloca %"struct.std::__1::__compressed_pair_elem.3"*, align 8
  call void @llvm.dbg.declare(metadata %"struct.std::__1::__compressed_pair_elem.3"** %114, metadata !5544, metadata !DIExpression()), !dbg !5856
  %115 = alloca %"class.std::__1::__compressed_pair.2"*, align 8
  call void @llvm.dbg.declare(metadata %"class.std::__1::__compressed_pair.2"** %115, metadata !5552, metadata !DIExpression()), !dbg !5860
  %116 = alloca %"struct.std::__1::__compressed_pair_elem.3"*, align 8
  call void @llvm.dbg.declare(metadata %"struct.std::__1::__compressed_pair_elem.3"** %116, metadata !5544, metadata !DIExpression()), !dbg !5861
  %117 = alloca %"class.std::__1::__compressed_pair.2"*, align 8
  call void @llvm.dbg.declare(metadata %"class.std::__1::__compressed_pair.2"** %117, metadata !5552, metadata !DIExpression()), !dbg !5864
  %118 = alloca %"class.std::__1::unique_ptr.1"*, align 8
  call void @llvm.dbg.declare(metadata %"class.std::__1::unique_ptr.1"** %118, metadata !5558, metadata !DIExpression()), !dbg !5865
  %119 = alloca %"class.altered_carbon::js::ACAstBaseNode"*, align 8
  call void @llvm.dbg.declare(metadata %"class.altered_carbon::js::ACAstBaseNode"** %119, metadata !5560, metadata !DIExpression()), !dbg !5866
  %120 = alloca %"class.std::__1::unique_ptr.1"*, align 8
  call void @llvm.dbg.declare(metadata %"class.std::__1::unique_ptr.1"** %120, metadata !5562, metadata !DIExpression()), !dbg !5867
  %121 = alloca %"class.std::__1::unique_ptr.1"*, align 8
  call void @llvm.dbg.declare(metadata %"class.std::__1::unique_ptr.1"** %121, metadata !5564, metadata !DIExpression()), !dbg !5868
  %122 = alloca %"class.altered_carbon::js::ACAstBaseNode"*, align 8
  %123 = alloca %"class.std::__1::unique_ptr.1"*, align 8
  call void @llvm.dbg.declare(metadata %"class.std::__1::unique_ptr.1"** %123, metadata !5566, metadata !DIExpression()), !dbg !5869
  %124 = alloca %"class.std::__1::unique_ptr.1"*, align 8
  call void @llvm.dbg.declare(metadata %"class.std::__1::unique_ptr.1"** %124, metadata !5568, metadata !DIExpression()), !dbg !5870
  %125 = alloca %"class.std::__1::unique_ptr.1"*, align 8
  call void @llvm.dbg.declare(metadata %"class.std::__1::unique_ptr.1"** %125, metadata !5871, metadata !DIExpression()), !dbg !5878
  %126 = alloca %"class.std::__1::allocator"*, align 8
  call void @llvm.dbg.declare(metadata %"class.std::__1::allocator"** %126, metadata !5880, metadata !DIExpression()), !dbg !5882
  %127 = alloca %"class.std::__1::unique_ptr.1"*, align 8
  call void @llvm.dbg.declare(metadata %"class.std::__1::unique_ptr.1"** %127, metadata !5883, metadata !DIExpression()), !dbg !5884
  %128 = alloca %"class.std::__1::unique_ptr.1"*, align 8
  call void @llvm.dbg.declare(metadata %"class.std::__1::unique_ptr.1"** %128, metadata !5885, metadata !DIExpression()), !dbg !5886
  %129 = alloca %"class.std::__1::unique_ptr.1"*, align 8
  call void @llvm.dbg.declare(metadata %"class.std::__1::unique_ptr.1"** %129, metadata !5871, metadata !DIExpression()), !dbg !5887
  %130 = alloca %"class.std::__1::allocator"*, align 8
  call void @llvm.dbg.declare(metadata %"class.std::__1::allocator"** %130, metadata !5889, metadata !DIExpression()), !dbg !5890
  %131 = alloca %"class.std::__1::unique_ptr.1"*, align 8
  call void @llvm.dbg.declare(metadata %"class.std::__1::unique_ptr.1"** %131, metadata !5891, metadata !DIExpression()), !dbg !5892
  %132 = alloca %"class.std::__1::unique_ptr.1"*, align 8
  call void @llvm.dbg.declare(metadata %"class.std::__1::unique_ptr.1"** %132, metadata !5893, metadata !DIExpression()), !dbg !5894
  %133 = alloca %"class.std::__1::unique_ptr.1"*, align 8
  call void @llvm.dbg.declare(metadata %"class.std::__1::unique_ptr.1"** %133, metadata !5871, metadata !DIExpression()), !dbg !5895
  %134 = alloca %"class.std::__1::allocator"*, align 8
  call void @llvm.dbg.declare(metadata %"class.std::__1::allocator"** %134, metadata !5897, metadata !DIExpression()), !dbg !5898
  %135 = alloca %"class.std::__1::unique_ptr.1"*, align 8
  call void @llvm.dbg.declare(metadata %"class.std::__1::unique_ptr.1"** %135, metadata !5899, metadata !DIExpression()), !dbg !5900
  %136 = alloca %"class.std::__1::unique_ptr.1"*, align 8
  call void @llvm.dbg.declare(metadata %"class.std::__1::unique_ptr.1"** %136, metadata !5901, metadata !DIExpression()), !dbg !5902
  %137 = alloca %"struct.std::__1::__has_construct", align 1
  %138 = alloca %"struct.std::__1::vector<std::__1::unique_ptr<altered_carbon::js::ACAstBaseNode, std::__1::default_delete<altered_carbon::js::ACAstBaseNode> >, std::__1::allocator<std::__1::unique_ptr<altered_carbon::js::ACAstBaseNode, std::__1::default_delete<altered_carbon::js::ACAstBaseNode> > > >::__RAII_IncreaseAnnotator"*, align 8
  call void @llvm.dbg.declare(metadata %"struct.std::__1::vector<std::__1::unique_ptr<altered_carbon::js::ACAstBaseNode, std::__1::default_delete<altered_carbon::js::ACAstBaseNode> >, std::__1::allocator<std::__1::unique_ptr<altered_carbon::js::ACAstBaseNode, std::__1::default_delete<altered_carbon::js::ACAstBaseNode> > > >::__RAII_IncreaseAnnotator"** %138, metadata !5903, metadata !DIExpression()), !dbg !5915
  %139 = alloca %"class.std::__1::unique_ptr.1"*, align 8
  call void @llvm.dbg.declare(metadata %"class.std::__1::unique_ptr.1"** %139, metadata !5607, metadata !DIExpression()), !dbg !5917
  %140 = alloca %"struct.std::__1::vector<std::__1::unique_ptr<altered_carbon::js::ACAstBaseNode, std::__1::default_delete<altered_carbon::js::ACAstBaseNode> >, std::__1::allocator<std::__1::unique_ptr<altered_carbon::js::ACAstBaseNode, std::__1::default_delete<altered_carbon::js::ACAstBaseNode> > > >::__RAII_IncreaseAnnotator"*, align 8
  call void @llvm.dbg.declare(metadata %"struct.std::__1::vector<std::__1::unique_ptr<altered_carbon::js::ACAstBaseNode, std::__1::default_delete<altered_carbon::js::ACAstBaseNode> >, std::__1::allocator<std::__1::unique_ptr<altered_carbon::js::ACAstBaseNode, std::__1::default_delete<altered_carbon::js::ACAstBaseNode> > > >::__RAII_IncreaseAnnotator"** %140, metadata !5919, metadata !DIExpression()), !dbg !5921
  %141 = alloca %"class.std::__1::vector"*, align 8
  call void @llvm.dbg.declare(metadata %"class.std::__1::vector"** %141, metadata !5925, metadata !DIExpression()), !dbg !5926
  %142 = alloca i64, align 8
  call void @llvm.dbg.declare(metadata i64* %142, metadata !5927, metadata !DIExpression()), !dbg !5928
  %143 = alloca %"struct.std::__1::vector<std::__1::unique_ptr<altered_carbon::js::ACAstBaseNode, std::__1::default_delete<altered_carbon::js::ACAstBaseNode> >, std::__1::allocator<std::__1::unique_ptr<altered_carbon::js::ACAstBaseNode, std::__1::default_delete<altered_carbon::js::ACAstBaseNode> > > >::__RAII_IncreaseAnnotator"*, align 8
  call void @llvm.dbg.declare(metadata %"struct.std::__1::vector<std::__1::unique_ptr<altered_carbon::js::ACAstBaseNode, std::__1::default_delete<altered_carbon::js::ACAstBaseNode> >, std::__1::allocator<std::__1::unique_ptr<altered_carbon::js::ACAstBaseNode, std::__1::default_delete<altered_carbon::js::ACAstBaseNode> > > >::__RAII_IncreaseAnnotator"** %143, metadata !5929, metadata !DIExpression()), !dbg !5930
  %144 = alloca %"class.std::__1::vector"*, align 8
  call void @llvm.dbg.declare(metadata %"class.std::__1::vector"** %144, metadata !5931, metadata !DIExpression()), !dbg !5932
  %145 = alloca i64, align 8
  call void @llvm.dbg.declare(metadata i64* %145, metadata !5933, metadata !DIExpression()), !dbg !5934
  %146 = alloca %"struct.std::__1::__compressed_pair_elem.8"*, align 8
  call void @llvm.dbg.declare(metadata %"struct.std::__1::__compressed_pair_elem.8"** %146, metadata !5935, metadata !DIExpression()), !dbg !5938
  %147 = alloca %"class.std::__1::__compressed_pair.7"*, align 8
  call void @llvm.dbg.declare(metadata %"class.std::__1::__compressed_pair.7"** %147, metadata !5944, metadata !DIExpression()), !dbg !5945
  %148 = alloca %"class.std::__1::__vector_base"*, align 8
  call void @llvm.dbg.declare(metadata %"class.std::__1::__vector_base"** %148, metadata !5946, metadata !DIExpression()), !dbg !5947
  %149 = alloca %"class.std::__1::vector"*, align 8
  call void @llvm.dbg.declare(metadata %"class.std::__1::vector"** %149, metadata !5948, metadata !DIExpression()), !dbg !5950
  %150 = alloca %"class.std::__1::unique_ptr.1"*, align 8
  call void @llvm.dbg.declare(metadata %"class.std::__1::unique_ptr.1"** %150, metadata !5951, metadata !DIExpression()), !dbg !5952
  %151 = alloca %"struct.std::__1::vector<std::__1::unique_ptr<altered_carbon::js::ACAstBaseNode, std::__1::default_delete<altered_carbon::js::ACAstBaseNode> >, std::__1::allocator<std::__1::unique_ptr<altered_carbon::js::ACAstBaseNode, std::__1::default_delete<altered_carbon::js::ACAstBaseNode> > > >::__RAII_IncreaseAnnotator", align 1
  call void @llvm.dbg.declare(metadata %"struct.std::__1::vector<std::__1::unique_ptr<altered_carbon::js::ACAstBaseNode, std::__1::default_delete<altered_carbon::js::ACAstBaseNode> >, std::__1::allocator<std::__1::unique_ptr<altered_carbon::js::ACAstBaseNode, std::__1::default_delete<altered_carbon::js::ACAstBaseNode> > > >::__RAII_IncreaseAnnotator"* %151, metadata !5953, metadata !DIExpression()), !dbg !5954
  %152 = alloca %"class.std::__1::unique_ptr"*, align 8
  call void @llvm.dbg.declare(metadata %"class.std::__1::unique_ptr"** %152, metadata !5955, metadata !DIExpression()), !dbg !5964
  %153 = alloca %"class.altered_carbon::js::ACAstStaticMemberRef"*, align 8
  %154 = alloca %"class.std::__1::unique_ptr", align 8
  %155 = alloca %"class.std::__1::unique_ptr.1", align 8
  store %"class.altered_carbon::js::ACAstStaticMemberRef"* %0, %"class.altered_carbon::js::ACAstStaticMemberRef"** %153, align 8
  call void @llvm.dbg.declare(metadata %"class.altered_carbon::js::ACAstStaticMemberRef"** %153, metadata !5966, metadata !DIExpression()), !dbg !5968
  call void @llvm.dbg.declare(metadata %"class.std::__1::unique_ptr"* %1, metadata !5969, metadata !DIExpression()), !dbg !5970
  call void @llvm.dbg.declare(metadata %"class.std::__1::unique_ptr.1"* %2, metadata !5971, metadata !DIExpression()), !dbg !5972
  call void @llvm.dbg.declare(metadata %"class.std::__1::unique_ptr.1"* %3, metadata !5973, metadata !DIExpression()), !dbg !5974
  %156 = load %"class.altered_carbon::js::ACAstStaticMemberRef"*, %"class.altered_carbon::js::ACAstStaticMemberRef"** %153, align 8
  %157 = bitcast %"class.altered_carbon::js::ACAstStaticMemberRef"* %156 to %"class.altered_carbon::js::ACAstExpressionNode"*, !dbg !5975
  store %"class.std::__1::unique_ptr"* %1, %"class.std::__1::unique_ptr"** %152, align 8
  %158 = load %"class.std::__1::unique_ptr"*, %"class.std::__1::unique_ptr"** %152, align 8, !dbg !5976
  store %"class.std::__1::unique_ptr"* %154, %"class.std::__1::unique_ptr"** %89, align 8
  store %"class.std::__1::unique_ptr"* %158, %"class.std::__1::unique_ptr"** %90, align 8
  %159 = load %"class.std::__1::unique_ptr"*, %"class.std::__1::unique_ptr"** %89, align 8
  %160 = load %"class.std::__1::unique_ptr"*, %"class.std::__1::unique_ptr"** %90, align 8, !dbg !5977
  store %"class.std::__1::unique_ptr"* %159, %"class.std::__1::unique_ptr"** %86, align 8
  store %"class.std::__1::unique_ptr"* %160, %"class.std::__1::unique_ptr"** %87, align 8
  %161 = load %"class.std::__1::unique_ptr"*, %"class.std::__1::unique_ptr"** %86, align 8
  %162 = getelementptr inbounds %"class.std::__1::unique_ptr", %"class.std::__1::unique_ptr"* %161, i32 0, i32 0, !dbg !5978
  %163 = load %"class.std::__1::unique_ptr"*, %"class.std::__1::unique_ptr"** %87, align 8, !dbg !5979
  store %"class.std::__1::unique_ptr"* %163, %"class.std::__1::unique_ptr"** %84, align 8
  %164 = load %"class.std::__1::unique_ptr"*, %"class.std::__1::unique_ptr"** %84, align 8
  %165 = getelementptr inbounds %"class.std::__1::unique_ptr", %"class.std::__1::unique_ptr"* %164, i32 0, i32 0, !dbg !5980
  store %"class.std::__1::__compressed_pair"* %165, %"class.std::__1::__compressed_pair"** %83, align 8
  %166 = load %"class.std::__1::__compressed_pair"*, %"class.std::__1::__compressed_pair"** %83, align 8
  %167 = bitcast %"class.std::__1::__compressed_pair"* %166 to %"struct.std::__1::__compressed_pair_elem"*, !dbg !5981
  store %"struct.std::__1::__compressed_pair_elem"* %167, %"struct.std::__1::__compressed_pair_elem"** %82, align 8
  %168 = load %"struct.std::__1::__compressed_pair_elem"*, %"struct.std::__1::__compressed_pair_elem"** %82, align 8
  %169 = getelementptr inbounds %"struct.std::__1::__compressed_pair_elem", %"struct.std::__1::__compressed_pair_elem"* %168, i32 0, i32 0, !dbg !5982
  %170 = load %"struct.altered_carbon::js::ACLexPosition"*, %"struct.altered_carbon::js::ACLexPosition"** %169, align 8, !dbg !5983
  store %"struct.altered_carbon::js::ACLexPosition"* %170, %"struct.altered_carbon::js::ACLexPosition"** %85, align 8, !dbg !5767
  %171 = getelementptr inbounds %"class.std::__1::unique_ptr", %"class.std::__1::unique_ptr"* %164, i32 0, i32 0, !dbg !5984
  store %"class.std::__1::__compressed_pair"* %171, %"class.std::__1::__compressed_pair"** %81, align 8
  %172 = load %"class.std::__1::__compressed_pair"*, %"class.std::__1::__compressed_pair"** %81, align 8
  %173 = bitcast %"class.std::__1::__compressed_pair"* %172 to %"struct.std::__1::__compressed_pair_elem"*, !dbg !5985
  store %"struct.std::__1::__compressed_pair_elem"* %173, %"struct.std::__1::__compressed_pair_elem"** %80, align 8
  %174 = load %"struct.std::__1::__compressed_pair_elem"*, %"struct.std::__1::__compressed_pair_elem"** %80, align 8
  %175 = getelementptr inbounds %"struct.std::__1::__compressed_pair_elem", %"struct.std::__1::__compressed_pair_elem"* %174, i32 0, i32 0, !dbg !5986
  store %"struct.altered_carbon::js::ACLexPosition"* null, %"struct.altered_carbon::js::ACLexPosition"** %175, align 8, !dbg !5987
  %176 = load %"struct.altered_carbon::js::ACLexPosition"*, %"struct.altered_carbon::js::ACLexPosition"** %85, align 8, !dbg !5988
  store %"struct.altered_carbon::js::ACLexPosition"* %176, %"struct.altered_carbon::js::ACLexPosition"** %88, align 8, !dbg !5979
  %177 = load %"class.std::__1::unique_ptr"*, %"class.std::__1::unique_ptr"** %87, align 8, !dbg !5989
  store %"class.std::__1::unique_ptr"* %177, %"class.std::__1::unique_ptr"** %64, align 8
  %178 = load %"class.std::__1::unique_ptr"*, %"class.std::__1::unique_ptr"** %64, align 8
  %179 = getelementptr inbounds %"class.std::__1::unique_ptr", %"class.std::__1::unique_ptr"* %178, i32 0, i32 0, !dbg !5990
  store %"class.std::__1::__compressed_pair"* %179, %"class.std::__1::__compressed_pair"** %63, align 8
  %180 = load %"class.std::__1::__compressed_pair"*, %"class.std::__1::__compressed_pair"** %63, align 8
  %181 = bitcast %"class.std::__1::__compressed_pair"* %180 to %"struct.std::__1::__compressed_pair_elem.0"*, !dbg !5991
  store %"struct.std::__1::__compressed_pair_elem.0"* %181, %"struct.std::__1::__compressed_pair_elem.0"** %62, align 8
  %182 = load %"struct.std::__1::__compressed_pair_elem.0"*, %"struct.std::__1::__compressed_pair_elem.0"** %62, align 8
  %183 = bitcast %"struct.std::__1::__compressed_pair_elem.0"* %182 to %"struct.std::__1::default_delete"*, !dbg !5992
  store %"struct.std::__1::default_delete"* %183, %"struct.std::__1::default_delete"** %65, align 8
  %184 = load %"struct.std::__1::default_delete"*, %"struct.std::__1::default_delete"** %65, align 8, !dbg !5993
  store %"class.std::__1::__compressed_pair"* %162, %"class.std::__1::__compressed_pair"** %77, align 8
  store %"struct.altered_carbon::js::ACLexPosition"** %88, %"struct.altered_carbon::js::ACLexPosition"*** %78, align 8
  store %"struct.std::__1::default_delete"* %184, %"struct.std::__1::default_delete"** %79, align 8
  %185 = load %"class.std::__1::__compressed_pair"*, %"class.std::__1::__compressed_pair"** %77, align 8
  %186 = load %"struct.altered_carbon::js::ACLexPosition"**, %"struct.altered_carbon::js::ACLexPosition"*** %78, align 8, !dbg !5994
  %187 = load %"struct.std::__1::default_delete"*, %"struct.std::__1::default_delete"** %79, align 8, !dbg !5994
  store %"class.std::__1::__compressed_pair"* %185, %"class.std::__1::__compressed_pair"** %74, align 8
  store %"struct.altered_carbon::js::ACLexPosition"** %186, %"struct.altered_carbon::js::ACLexPosition"*** %75, align 8
  store %"struct.std::__1::default_delete"* %187, %"struct.std::__1::default_delete"** %76, align 8
  %188 = load %"class.std::__1::__compressed_pair"*, %"class.std::__1::__compressed_pair"** %74, align 8
  %189 = bitcast %"class.std::__1::__compressed_pair"* %188 to %"struct.std::__1::__compressed_pair_elem"*, !dbg !5995
  %190 = load %"struct.altered_carbon::js::ACLexPosition"**, %"struct.altered_carbon::js::ACLexPosition"*** %75, align 8, !dbg !5996
  store %"struct.altered_carbon::js::ACLexPosition"** %190, %"struct.altered_carbon::js::ACLexPosition"*** %73, align 8
  %191 = load %"struct.altered_carbon::js::ACLexPosition"**, %"struct.altered_carbon::js::ACLexPosition"*** %73, align 8, !dbg !5997
  store %"struct.std::__1::__compressed_pair_elem"* %189, %"struct.std::__1::__compressed_pair_elem"** %67, align 8
  store %"struct.altered_carbon::js::ACLexPosition"** %191, %"struct.altered_carbon::js::ACLexPosition"*** %68, align 8
  %192 = load %"struct.std::__1::__compressed_pair_elem"*, %"struct.std::__1::__compressed_pair_elem"** %67, align 8
  %193 = getelementptr inbounds %"struct.std::__1::__compressed_pair_elem", %"struct.std::__1::__compressed_pair_elem"* %192, i32 0, i32 0, !dbg !5998
  %194 = load %"struct.altered_carbon::js::ACLexPosition"**, %"struct.altered_carbon::js::ACLexPosition"*** %68, align 8, !dbg !5999
  store %"struct.altered_carbon::js::ACLexPosition"** %194, %"struct.altered_carbon::js::ACLexPosition"*** %66, align 8
  %195 = load %"struct.altered_carbon::js::ACLexPosition"**, %"struct.altered_carbon::js::ACLexPosition"*** %66, align 8, !dbg !6000
  %196 = load %"struct.altered_carbon::js::ACLexPosition"*, %"struct.altered_carbon::js::ACLexPosition"** %195, align 8, !dbg !6001
  store %"struct.altered_carbon::js::ACLexPosition"* %196, %"struct.altered_carbon::js::ACLexPosition"** %193, align 8, !dbg !5998
  %197 = bitcast %"class.std::__1::__compressed_pair"* %188 to %"struct.std::__1::__compressed_pair_elem.0"*, !dbg !5995
  %198 = load %"struct.std::__1::default_delete"*, %"struct.std::__1::default_delete"** %76, align 8, !dbg !6002
  store %"struct.std::__1::default_delete"* %198, %"struct.std::__1::default_delete"** %69, align 8
  %199 = load %"struct.std::__1::default_delete"*, %"struct.std::__1::default_delete"** %69, align 8, !dbg !6003
  store %"struct.std::__1::__compressed_pair_elem.0"* %197, %"struct.std::__1::__compressed_pair_elem.0"** %71, align 8
  store %"struct.std::__1::default_delete"* %199, %"struct.std::__1::default_delete"** %72, align 8
  %200 = load %"struct.std::__1::__compressed_pair_elem.0"*, %"struct.std::__1::__compressed_pair_elem.0"** %71, align 8
  %201 = bitcast %"struct.std::__1::__compressed_pair_elem.0"* %200 to %"struct.std::__1::default_delete"*, !dbg !6004
  %202 = load %"struct.std::__1::default_delete"*, %"struct.std::__1::default_delete"** %72, align 8, !dbg !6005
  store %"struct.std::__1::default_delete"* %202, %"struct.std::__1::default_delete"** %70, align 8
  %203 = load %"struct.std::__1::default_delete"*, %"struct.std::__1::default_delete"** %70, align 8, !dbg !6006
  store %"class.std::__1::unique_ptr.1"* %2, %"class.std::__1::unique_ptr.1"** %47, align 8
  %204 = load %"class.std::__1::unique_ptr.1"*, %"class.std::__1::unique_ptr.1"** %47, align 8, !dbg !6007
  store %"class.std::__1::unique_ptr.1"* %155, %"class.std::__1::unique_ptr.1"** %32, align 8
  store %"class.std::__1::unique_ptr.1"* %204, %"class.std::__1::unique_ptr.1"** %33, align 8
  %205 = load %"class.std::__1::unique_ptr.1"*, %"class.std::__1::unique_ptr.1"** %32, align 8
  %206 = load %"class.std::__1::unique_ptr.1"*, %"class.std::__1::unique_ptr.1"** %33, align 8, !dbg !6008
  store %"class.std::__1::unique_ptr.1"* %205, %"class.std::__1::unique_ptr.1"** %29, align 8
  store %"class.std::__1::unique_ptr.1"* %206, %"class.std::__1::unique_ptr.1"** %30, align 8
  %207 = load %"class.std::__1::unique_ptr.1"*, %"class.std::__1::unique_ptr.1"** %29, align 8
  %208 = getelementptr inbounds %"class.std::__1::unique_ptr.1", %"class.std::__1::unique_ptr.1"* %207, i32 0, i32 0, !dbg !6009
  %209 = load %"class.std::__1::unique_ptr.1"*, %"class.std::__1::unique_ptr.1"** %30, align 8, !dbg !6010
  store %"class.std::__1::unique_ptr.1"* %209, %"class.std::__1::unique_ptr.1"** %27, align 8
  %210 = load %"class.std::__1::unique_ptr.1"*, %"class.std::__1::unique_ptr.1"** %27, align 8
  %211 = getelementptr inbounds %"class.std::__1::unique_ptr.1", %"class.std::__1::unique_ptr.1"* %210, i32 0, i32 0, !dbg !6011
  store %"class.std::__1::__compressed_pair.2"* %211, %"class.std::__1::__compressed_pair.2"** %26, align 8
  %212 = load %"class.std::__1::__compressed_pair.2"*, %"class.std::__1::__compressed_pair.2"** %26, align 8
  %213 = bitcast %"class.std::__1::__compressed_pair.2"* %212 to %"struct.std::__1::__compressed_pair_elem.3"*, !dbg !6012
  store %"struct.std::__1::__compressed_pair_elem.3"* %213, %"struct.std::__1::__compressed_pair_elem.3"** %25, align 8
  %214 = load %"struct.std::__1::__compressed_pair_elem.3"*, %"struct.std::__1::__compressed_pair_elem.3"** %25, align 8
  %215 = getelementptr inbounds %"struct.std::__1::__compressed_pair_elem.3", %"struct.std::__1::__compressed_pair_elem.3"* %214, i32 0, i32 0, !dbg !6013
  %216 = load %"class.altered_carbon::js::ACAstBaseNode"*, %"class.altered_carbon::js::ACAstBaseNode"** %215, align 8, !dbg !6014
  store %"class.altered_carbon::js::ACAstBaseNode"* %216, %"class.altered_carbon::js::ACAstBaseNode"** %28, align 8, !dbg !5561
  %217 = getelementptr inbounds %"class.std::__1::unique_ptr.1", %"class.std::__1::unique_ptr.1"* %210, i32 0, i32 0, !dbg !6015
  store %"class.std::__1::__compressed_pair.2"* %217, %"class.std::__1::__compressed_pair.2"** %24, align 8
  %218 = load %"class.std::__1::__compressed_pair.2"*, %"class.std::__1::__compressed_pair.2"** %24, align 8
  %219 = bitcast %"class.std::__1::__compressed_pair.2"* %218 to %"struct.std::__1::__compressed_pair_elem.3"*, !dbg !6016
  store %"struct.std::__1::__compressed_pair_elem.3"* %219, %"struct.std::__1::__compressed_pair_elem.3"** %23, align 8
  %220 = load %"struct.std::__1::__compressed_pair_elem.3"*, %"struct.std::__1::__compressed_pair_elem.3"** %23, align 8
  %221 = getelementptr inbounds %"struct.std::__1::__compressed_pair_elem.3", %"struct.std::__1::__compressed_pair_elem.3"* %220, i32 0, i32 0, !dbg !6017
  store %"class.altered_carbon::js::ACAstBaseNode"* null, %"class.altered_carbon::js::ACAstBaseNode"** %221, align 8, !dbg !6018
  %222 = load %"class.altered_carbon::js::ACAstBaseNode"*, %"class.altered_carbon::js::ACAstBaseNode"** %28, align 8, !dbg !6019
  store %"class.altered_carbon::js::ACAstBaseNode"* %222, %"class.altered_carbon::js::ACAstBaseNode"** %31, align 8, !dbg !6010
  %223 = load %"class.std::__1::unique_ptr.1"*, %"class.std::__1::unique_ptr.1"** %30, align 8, !dbg !6020
  store %"class.std::__1::unique_ptr.1"* %223, %"class.std::__1::unique_ptr.1"** %7, align 8
  %224 = load %"class.std::__1::unique_ptr.1"*, %"class.std::__1::unique_ptr.1"** %7, align 8
  %225 = getelementptr inbounds %"class.std::__1::unique_ptr.1", %"class.std::__1::unique_ptr.1"* %224, i32 0, i32 0, !dbg !6021
  store %"class.std::__1::__compressed_pair.2"* %225, %"class.std::__1::__compressed_pair.2"** %6, align 8
  %226 = load %"class.std::__1::__compressed_pair.2"*, %"class.std::__1::__compressed_pair.2"** %6, align 8
  %227 = bitcast %"class.std::__1::__compressed_pair.2"* %226 to %"struct.std::__1::__compressed_pair_elem.4"*, !dbg !6022
  store %"struct.std::__1::__compressed_pair_elem.4"* %227, %"struct.std::__1::__compressed_pair_elem.4"** %5, align 8
  %228 = load %"struct.std::__1::__compressed_pair_elem.4"*, %"struct.std::__1::__compressed_pair_elem.4"** %5, align 8
  %229 = bitcast %"struct.std::__1::__compressed_pair_elem.4"* %228 to %"struct.std::__1::default_delete.5"*, !dbg !6023
  store %"struct.std::__1::default_delete.5"* %229, %"struct.std::__1::default_delete.5"** %8, align 8
  %230 = load %"struct.std::__1::default_delete.5"*, %"struct.std::__1::default_delete.5"** %8, align 8, !dbg !6024
  store %"class.std::__1::__compressed_pair.2"* %208, %"class.std::__1::__compressed_pair.2"** %20, align 8
  store %"class.altered_carbon::js::ACAstBaseNode"** %31, %"class.altered_carbon::js::ACAstBaseNode"*** %21, align 8
  store %"struct.std::__1::default_delete.5"* %230, %"struct.std::__1::default_delete.5"** %22, align 8
  %231 = load %"class.std::__1::__compressed_pair.2"*, %"class.std::__1::__compressed_pair.2"** %20, align 8
  %232 = load %"class.altered_carbon::js::ACAstBaseNode"**, %"class.altered_carbon::js::ACAstBaseNode"*** %21, align 8, !dbg !6025
  %233 = load %"struct.std::__1::default_delete.5"*, %"struct.std::__1::default_delete.5"** %22, align 8, !dbg !6025
  store %"class.std::__1::__compressed_pair.2"* %231, %"class.std::__1::__compressed_pair.2"** %17, align 8
  store %"class.altered_carbon::js::ACAstBaseNode"** %232, %"class.altered_carbon::js::ACAstBaseNode"*** %18, align 8
  store %"struct.std::__1::default_delete.5"* %233, %"struct.std::__1::default_delete.5"** %19, align 8
  %234 = load %"class.std::__1::__compressed_pair.2"*, %"class.std::__1::__compressed_pair.2"** %17, align 8
  %235 = bitcast %"class.std::__1::__compressed_pair.2"* %234 to %"struct.std::__1::__compressed_pair_elem.3"*, !dbg !6026
  %236 = load %"class.altered_carbon::js::ACAstBaseNode"**, %"class.altered_carbon::js::ACAstBaseNode"*** %18, align 8, !dbg !6027
  store %"class.altered_carbon::js::ACAstBaseNode"** %236, %"class.altered_carbon::js::ACAstBaseNode"*** %16, align 8
  %237 = load %"class.altered_carbon::js::ACAstBaseNode"**, %"class.altered_carbon::js::ACAstBaseNode"*** %16, align 8, !dbg !6028
  store %"struct.std::__1::__compressed_pair_elem.3"* %235, %"struct.std::__1::__compressed_pair_elem.3"** %10, align 8
  store %"class.altered_carbon::js::ACAstBaseNode"** %237, %"class.altered_carbon::js::ACAstBaseNode"*** %11, align 8
  %238 = load %"struct.std::__1::__compressed_pair_elem.3"*, %"struct.std::__1::__compressed_pair_elem.3"** %10, align 8
  %239 = getelementptr inbounds %"struct.std::__1::__compressed_pair_elem.3", %"struct.std::__1::__compressed_pair_elem.3"* %238, i32 0, i32 0, !dbg !6029
  %240 = load %"class.altered_carbon::js::ACAstBaseNode"**, %"class.altered_carbon::js::ACAstBaseNode"*** %11, align 8, !dbg !6030
  store %"class.altered_carbon::js::ACAstBaseNode"** %240, %"class.altered_carbon::js::ACAstBaseNode"*** %9, align 8
  %241 = load %"class.altered_carbon::js::ACAstBaseNode"**, %"class.altered_carbon::js::ACAstBaseNode"*** %9, align 8, !dbg !6031
  %242 = load %"class.altered_carbon::js::ACAstBaseNode"*, %"class.altered_carbon::js::ACAstBaseNode"** %241, align 8, !dbg !6032
  store %"class.altered_carbon::js::ACAstBaseNode"* %242, %"class.altered_carbon::js::ACAstBaseNode"** %239, align 8, !dbg !6029
  %243 = bitcast %"class.std::__1::__compressed_pair.2"* %234 to %"struct.std::__1::__compressed_pair_elem.4"*, !dbg !6026
  %244 = load %"struct.std::__1::default_delete.5"*, %"struct.std::__1::default_delete.5"** %19, align 8, !dbg !6033
  store %"struct.std::__1::default_delete.5"* %244, %"struct.std::__1::default_delete.5"** %12, align 8
  %245 = load %"struct.std::__1::default_delete.5"*, %"struct.std::__1::default_delete.5"** %12, align 8, !dbg !6034
  store %"struct.std::__1::__compressed_pair_elem.4"* %243, %"struct.std::__1::__compressed_pair_elem.4"** %14, align 8
  store %"struct.std::__1::default_delete.5"* %245, %"struct.std::__1::default_delete.5"** %15, align 8
  %246 = load %"struct.std::__1::__compressed_pair_elem.4"*, %"struct.std::__1::__compressed_pair_elem.4"** %14, align 8
  %247 = bitcast %"struct.std::__1::__compressed_pair_elem.4"* %246 to %"struct.std::__1::default_delete.5"*, !dbg !6035
  %248 = load %"struct.std::__1::default_delete.5"*, %"struct.std::__1::default_delete.5"** %15, align 8, !dbg !6036
  store %"struct.std::__1::default_delete.5"* %248, %"struct.std::__1::default_delete.5"** %13, align 8
  %249 = load %"struct.std::__1::default_delete.5"*, %"struct.std::__1::default_delete.5"** %13, align 8, !dbg !6037
  call void @_ZN14altered_carbon2js19ACAstExpressionNodeC2ENSt3__110unique_ptrINS0_13ACLexPositionENS2_14default_deleteIS4_EEEENS3_INS0_13ACAstBaseNodeENS5_IS8_EEEENS8_11AstNodeTypeENS8_14AstNodeSubTypeE(%"class.altered_carbon::js::ACAstExpressionNode"* %157, %"class.std::__1::unique_ptr"* %154, %"class.std::__1::unique_ptr.1"* %155, i32 9, i32 901), !dbg !6038
  store %"class.std::__1::unique_ptr.1"* %155, %"class.std::__1::unique_ptr.1"** %46, align 8
  %250 = load %"class.std::__1::unique_ptr.1"*, %"class.std::__1::unique_ptr.1"** %46, align 8
  store %"class.std::__1::unique_ptr.1"* %250, %"class.std::__1::unique_ptr.1"** %45, align 8
  %251 = load %"class.std::__1::unique_ptr.1"*, %"class.std::__1::unique_ptr.1"** %45, align 8
  store %"class.std::__1::unique_ptr.1"* %251, %"class.std::__1::unique_ptr.1"** %42, align 8
  store %"class.altered_carbon::js::ACAstBaseNode"* null, %"class.altered_carbon::js::ACAstBaseNode"** %43, align 8
  %252 = load %"class.std::__1::unique_ptr.1"*, %"class.std::__1::unique_ptr.1"** %42, align 8
  %253 = getelementptr inbounds %"class.std::__1::unique_ptr.1", %"class.std::__1::unique_ptr.1"* %252, i32 0, i32 0, !dbg !6039
  store %"class.std::__1::__compressed_pair.2"* %253, %"class.std::__1::__compressed_pair.2"** %41, align 8
  %254 = load %"class.std::__1::__compressed_pair.2"*, %"class.std::__1::__compressed_pair.2"** %41, align 8
  %255 = bitcast %"class.std::__1::__compressed_pair.2"* %254 to %"struct.std::__1::__compressed_pair_elem.3"*, !dbg !6040
  store %"struct.std::__1::__compressed_pair_elem.3"* %255, %"struct.std::__1::__compressed_pair_elem.3"** %40, align 8
  %256 = load %"struct.std::__1::__compressed_pair_elem.3"*, %"struct.std::__1::__compressed_pair_elem.3"** %40, align 8
  %257 = getelementptr inbounds %"struct.std::__1::__compressed_pair_elem.3", %"struct.std::__1::__compressed_pair_elem.3"* %256, i32 0, i32 0, !dbg !6041
  %258 = load %"class.altered_carbon::js::ACAstBaseNode"*, %"class.altered_carbon::js::ACAstBaseNode"** %257, align 8, !dbg !6042
  store %"class.altered_carbon::js::ACAstBaseNode"* %258, %"class.altered_carbon::js::ACAstBaseNode"** %44, align 8, !dbg !5602
  %259 = load %"class.altered_carbon::js::ACAstBaseNode"*, %"class.altered_carbon::js::ACAstBaseNode"** %43, align 8, !dbg !6043
  %260 = getelementptr inbounds %"class.std::__1::unique_ptr.1", %"class.std::__1::unique_ptr.1"* %252, i32 0, i32 0, !dbg !6044
  store %"class.std::__1::__compressed_pair.2"* %260, %"class.std::__1::__compressed_pair.2"** %37, align 8
  %261 = load %"class.std::__1::__compressed_pair.2"*, %"class.std::__1::__compressed_pair.2"** %37, align 8
  %262 = bitcast %"class.std::__1::__compressed_pair.2"* %261 to %"struct.std::__1::__compressed_pair_elem.3"*, !dbg !6045
  store %"struct.std::__1::__compressed_pair_elem.3"* %262, %"struct.std::__1::__compressed_pair_elem.3"** %36, align 8
  %263 = load %"struct.std::__1::__compressed_pair_elem.3"*, %"struct.std::__1::__compressed_pair_elem.3"** %36, align 8
  %264 = getelementptr inbounds %"struct.std::__1::__compressed_pair_elem.3", %"struct.std::__1::__compressed_pair_elem.3"* %263, i32 0, i32 0, !dbg !6046
  store %"class.altered_carbon::js::ACAstBaseNode"* %259, %"class.altered_carbon::js::ACAstBaseNode"** %264, align 8, !dbg !6047
  %265 = load %"class.altered_carbon::js::ACAstBaseNode"*, %"class.altered_carbon::js::ACAstBaseNode"** %44, align 8, !dbg !6048
  %266 = icmp ne %"class.altered_carbon::js::ACAstBaseNode"* %265, null, !dbg !6048
  br i1 %266, label %267, label %283, !dbg !6049

; <label>:267:                                    ; preds = %4
  %268 = getelementptr inbounds %"class.std::__1::unique_ptr.1", %"class.std::__1::unique_ptr.1"* %252, i32 0, i32 0, !dbg !6050
  store %"class.std::__1::__compressed_pair.2"* %268, %"class.std::__1::__compressed_pair.2"** %35, align 8
  %269 = load %"class.std::__1::__compressed_pair.2"*, %"class.std::__1::__compressed_pair.2"** %35, align 8
  %270 = bitcast %"class.std::__1::__compressed_pair.2"* %269 to %"struct.std::__1::__compressed_pair_elem.4"*, !dbg !6051
  store %"struct.std::__1::__compressed_pair_elem.4"* %270, %"struct.std::__1::__compressed_pair_elem.4"** %34, align 8
  %271 = load %"struct.std::__1::__compressed_pair_elem.4"*, %"struct.std::__1::__compressed_pair_elem.4"** %34, align 8
  %272 = bitcast %"struct.std::__1::__compressed_pair_elem.4"* %271 to %"struct.std::__1::default_delete.5"*, !dbg !6052
  %273 = load %"class.altered_carbon::js::ACAstBaseNode"*, %"class.altered_carbon::js::ACAstBaseNode"** %44, align 8, !dbg !6053
  store %"struct.std::__1::default_delete.5"* %272, %"struct.std::__1::default_delete.5"** %38, align 8
  store %"class.altered_carbon::js::ACAstBaseNode"* %273, %"class.altered_carbon::js::ACAstBaseNode"** %39, align 8
  %274 = load %"struct.std::__1::default_delete.5"*, %"struct.std::__1::default_delete.5"** %38, align 8
  %275 = load %"class.altered_carbon::js::ACAstBaseNode"*, %"class.altered_carbon::js::ACAstBaseNode"** %39, align 8, !dbg !6054
  %276 = icmp eq %"class.altered_carbon::js::ACAstBaseNode"* %275, null, !dbg !6055
  br i1 %276, label %282, label %277, !dbg !6055

; <label>:277:                                    ; preds = %267
  %278 = bitcast %"class.altered_carbon::js::ACAstBaseNode"* %275 to void (%"class.altered_carbon::js::ACAstBaseNode"*)***, !dbg !6055
  %279 = load void (%"class.altered_carbon::js::ACAstBaseNode"*)**, void (%"class.altered_carbon::js::ACAstBaseNode"*)*** %278, align 8, !dbg !6055
  %280 = getelementptr inbounds void (%"class.altered_carbon::js::ACAstBaseNode"*)*, void (%"class.altered_carbon::js::ACAstBaseNode"*)** %279, i64 1, !dbg !6055
  %281 = load void (%"class.altered_carbon::js::ACAstBaseNode"*)*, void (%"class.altered_carbon::js::ACAstBaseNode"*)** %280, align 8, !dbg !6055
  call void %281(%"class.altered_carbon::js::ACAstBaseNode"* %275) #8, !dbg !6055
  br label %282, !dbg !6055

; <label>:282:                                    ; preds = %277, %267
  br label %283, !dbg !6050

; <label>:283:                                    ; preds = %4, %282
  store %"class.std::__1::unique_ptr"* %154, %"class.std::__1::unique_ptr"** %60, align 8
  %284 = load %"class.std::__1::unique_ptr"*, %"class.std::__1::unique_ptr"** %60, align 8
  store %"class.std::__1::unique_ptr"* %284, %"class.std::__1::unique_ptr"** %59, align 8
  %285 = load %"class.std::__1::unique_ptr"*, %"class.std::__1::unique_ptr"** %59, align 8
  store %"class.std::__1::unique_ptr"* %285, %"class.std::__1::unique_ptr"** %56, align 8
  store %"struct.altered_carbon::js::ACLexPosition"* null, %"struct.altered_carbon::js::ACLexPosition"** %57, align 8
  %286 = load %"class.std::__1::unique_ptr"*, %"class.std::__1::unique_ptr"** %56, align 8
  %287 = getelementptr inbounds %"class.std::__1::unique_ptr", %"class.std::__1::unique_ptr"* %286, i32 0, i32 0, !dbg !6056
  store %"class.std::__1::__compressed_pair"* %287, %"class.std::__1::__compressed_pair"** %55, align 8
  %288 = load %"class.std::__1::__compressed_pair"*, %"class.std::__1::__compressed_pair"** %55, align 8
  %289 = bitcast %"class.std::__1::__compressed_pair"* %288 to %"struct.std::__1::__compressed_pair_elem"*, !dbg !6057
  store %"struct.std::__1::__compressed_pair_elem"* %289, %"struct.std::__1::__compressed_pair_elem"** %54, align 8
  %290 = load %"struct.std::__1::__compressed_pair_elem"*, %"struct.std::__1::__compressed_pair_elem"** %54, align 8
  %291 = getelementptr inbounds %"struct.std::__1::__compressed_pair_elem", %"struct.std::__1::__compressed_pair_elem"* %290, i32 0, i32 0, !dbg !6058
  %292 = load %"struct.altered_carbon::js::ACLexPosition"*, %"struct.altered_carbon::js::ACLexPosition"** %291, align 8, !dbg !6059
  store %"struct.altered_carbon::js::ACLexPosition"* %292, %"struct.altered_carbon::js::ACLexPosition"** %58, align 8, !dbg !5662
  %293 = load %"struct.altered_carbon::js::ACLexPosition"*, %"struct.altered_carbon::js::ACLexPosition"** %57, align 8, !dbg !6060
  %294 = getelementptr inbounds %"class.std::__1::unique_ptr", %"class.std::__1::unique_ptr"* %286, i32 0, i32 0, !dbg !6061
  store %"class.std::__1::__compressed_pair"* %294, %"class.std::__1::__compressed_pair"** %51, align 8
  %295 = load %"class.std::__1::__compressed_pair"*, %"class.std::__1::__compressed_pair"** %51, align 8
  %296 = bitcast %"class.std::__1::__compressed_pair"* %295 to %"struct.std::__1::__compressed_pair_elem"*, !dbg !6062
  store %"struct.std::__1::__compressed_pair_elem"* %296, %"struct.std::__1::__compressed_pair_elem"** %50, align 8
  %297 = load %"struct.std::__1::__compressed_pair_elem"*, %"struct.std::__1::__compressed_pair_elem"** %50, align 8
  %298 = getelementptr inbounds %"struct.std::__1::__compressed_pair_elem", %"struct.std::__1::__compressed_pair_elem"* %297, i32 0, i32 0, !dbg !6063
  store %"struct.altered_carbon::js::ACLexPosition"* %293, %"struct.altered_carbon::js::ACLexPosition"** %298, align 8, !dbg !6064
  %299 = load %"struct.altered_carbon::js::ACLexPosition"*, %"struct.altered_carbon::js::ACLexPosition"** %58, align 8, !dbg !6065
  %300 = icmp ne %"struct.altered_carbon::js::ACLexPosition"* %299, null, !dbg !6065
  br i1 %300, label %301, label %317, !dbg !6066

; <label>:301:                                    ; preds = %283
  %302 = getelementptr inbounds %"class.std::__1::unique_ptr", %"class.std::__1::unique_ptr"* %286, i32 0, i32 0, !dbg !6067
  store %"class.std::__1::__compressed_pair"* %302, %"class.std::__1::__compressed_pair"** %49, align 8
  %303 = load %"class.std::__1::__compressed_pair"*, %"class.std::__1::__compressed_pair"** %49, align 8
  %304 = bitcast %"class.std::__1::__compressed_pair"* %303 to %"struct.std::__1::__compressed_pair_elem.0"*, !dbg !6068
  store %"struct.std::__1::__compressed_pair_elem.0"* %304, %"struct.std::__1::__compressed_pair_elem.0"** %48, align 8
  %305 = load %"struct.std::__1::__compressed_pair_elem.0"*, %"struct.std::__1::__compressed_pair_elem.0"** %48, align 8
  %306 = bitcast %"struct.std::__1::__compressed_pair_elem.0"* %305 to %"struct.std::__1::default_delete"*, !dbg !6069
  %307 = load %"struct.altered_carbon::js::ACLexPosition"*, %"struct.altered_carbon::js::ACLexPosition"** %58, align 8, !dbg !6070
  store %"struct.std::__1::default_delete"* %306, %"struct.std::__1::default_delete"** %52, align 8
  store %"struct.altered_carbon::js::ACLexPosition"* %307, %"struct.altered_carbon::js::ACLexPosition"** %53, align 8
  %308 = load %"struct.std::__1::default_delete"*, %"struct.std::__1::default_delete"** %52, align 8
  %309 = load %"struct.altered_carbon::js::ACLexPosition"*, %"struct.altered_carbon::js::ACLexPosition"** %53, align 8, !dbg !6071
  %310 = icmp eq %"struct.altered_carbon::js::ACLexPosition"* %309, null, !dbg !6072
  br i1 %310, label %316, label %311, !dbg !6072

; <label>:311:                                    ; preds = %301
  %312 = bitcast %"struct.altered_carbon::js::ACLexPosition"* %309 to void (%"struct.altered_carbon::js::ACLexPosition"*)***, !dbg !6072
  %313 = load void (%"struct.altered_carbon::js::ACLexPosition"*)**, void (%"struct.altered_carbon::js::ACLexPosition"*)*** %312, align 8, !dbg !6072
  %314 = getelementptr inbounds void (%"struct.altered_carbon::js::ACLexPosition"*)*, void (%"struct.altered_carbon::js::ACLexPosition"*)** %313, i64 1, !dbg !6072
  %315 = load void (%"struct.altered_carbon::js::ACLexPosition"*)*, void (%"struct.altered_carbon::js::ACLexPosition"*)** %314, align 8, !dbg !6072
  call void %315(%"struct.altered_carbon::js::ACLexPosition"* %309) #8, !dbg !6072
  br label %316, !dbg !6072

; <label>:316:                                    ; preds = %311, %301
  br label %317, !dbg !6067

; <label>:317:                                    ; preds = %283, %316
  %318 = bitcast %"class.altered_carbon::js::ACAstStaticMemberRef"* %156 to i32 (...)***, !dbg !5975
  store i32 (...)** bitcast (i8** getelementptr inbounds ({ [14 x i8*] }, { [14 x i8*] }* @_ZTVN14altered_carbon2js20ACAstStaticMemberRefE, i32 0, inrange i32 0, i32 2) to i32 (...)**), i32 (...)*** %318, align 8, !dbg !5975
  %319 = bitcast %"class.altered_carbon::js::ACAstStaticMemberRef"* %156 to %"class.altered_carbon::js::ACAstBaseNode"*, !dbg !6073
  %320 = getelementptr inbounds %"class.altered_carbon::js::ACAstBaseNode", %"class.altered_carbon::js::ACAstBaseNode"* %319, i32 0, i32 4, !dbg !6073
  store %"class.std::__1::unique_ptr.1"* %3, %"class.std::__1::unique_ptr.1"** %61, align 8
  %321 = load %"class.std::__1::unique_ptr.1"*, %"class.std::__1::unique_ptr.1"** %61, align 8, !dbg !6074
  store %"class.std::__1::vector"* %320, %"class.std::__1::vector"** %149, align 8
  store %"class.std::__1::unique_ptr.1"* %321, %"class.std::__1::unique_ptr.1"** %150, align 8
  %322 = load %"class.std::__1::vector"*, %"class.std::__1::vector"** %149, align 8
  %323 = bitcast %"class.std::__1::vector"* %322 to %"class.std::__1::__vector_base"*, !dbg !6075
  %324 = getelementptr inbounds %"class.std::__1::__vector_base", %"class.std::__1::__vector_base"* %323, i32 0, i32 1, !dbg !6075
  %325 = load %"class.std::__1::unique_ptr.1"*, %"class.std::__1::unique_ptr.1"** %324, align 8, !dbg !6075
  %326 = bitcast %"class.std::__1::vector"* %322 to %"class.std::__1::__vector_base"*, !dbg !6076
  store %"class.std::__1::__vector_base"* %326, %"class.std::__1::__vector_base"** %148, align 8
  %327 = load %"class.std::__1::__vector_base"*, %"class.std::__1::__vector_base"** %148, align 8
  %328 = getelementptr inbounds %"class.std::__1::__vector_base", %"class.std::__1::__vector_base"* %327, i32 0, i32 2, !dbg !6077
  store %"class.std::__1::__compressed_pair.7"* %328, %"class.std::__1::__compressed_pair.7"** %147, align 8
  %329 = load %"class.std::__1::__compressed_pair.7"*, %"class.std::__1::__compressed_pair.7"** %147, align 8
  %330 = bitcast %"class.std::__1::__compressed_pair.7"* %329 to %"struct.std::__1::__compressed_pair_elem.8"*, !dbg !6078
  store %"struct.std::__1::__compressed_pair_elem.8"* %330, %"struct.std::__1::__compressed_pair_elem.8"** %146, align 8
  %331 = load %"struct.std::__1::__compressed_pair_elem.8"*, %"struct.std::__1::__compressed_pair_elem.8"** %146, align 8
  %332 = getelementptr inbounds %"struct.std::__1::__compressed_pair_elem.8", %"struct.std::__1::__compressed_pair_elem.8"* %331, i32 0, i32 0, !dbg !6079
  %333 = load %"class.std::__1::unique_ptr.1"*, %"class.std::__1::unique_ptr.1"** %332, align 8, !dbg !6076
  %334 = icmp ult %"class.std::__1::unique_ptr.1"* %325, %333, !dbg !6080
  br i1 %334, label %335, label %417, !dbg !6081

; <label>:335:                                    ; preds = %317
  store %"struct.std::__1::vector<std::__1::unique_ptr<altered_carbon::js::ACAstBaseNode, std::__1::default_delete<altered_carbon::js::ACAstBaseNode> >, std::__1::allocator<std::__1::unique_ptr<altered_carbon::js::ACAstBaseNode, std::__1::default_delete<altered_carbon::js::ACAstBaseNode> > > >::__RAII_IncreaseAnnotator"* %151, %"struct.std::__1::vector<std::__1::unique_ptr<altered_carbon::js::ACAstBaseNode, std::__1::default_delete<altered_carbon::js::ACAstBaseNode> >, std::__1::allocator<std::__1::unique_ptr<altered_carbon::js::ACAstBaseNode, std::__1::default_delete<altered_carbon::js::ACAstBaseNode> > > >::__RAII_IncreaseAnnotator"** %143, align 8
  store %"class.std::__1::vector"* %322, %"class.std::__1::vector"** %144, align 8
  store i64 1, i64* %145, align 8
  %336 = load %"struct.std::__1::vector<std::__1::unique_ptr<altered_carbon::js::ACAstBaseNode, std::__1::default_delete<altered_carbon::js::ACAstBaseNode> >, std::__1::allocator<std::__1::unique_ptr<altered_carbon::js::ACAstBaseNode, std::__1::default_delete<altered_carbon::js::ACAstBaseNode> > > >::__RAII_IncreaseAnnotator"*, %"struct.std::__1::vector<std::__1::unique_ptr<altered_carbon::js::ACAstBaseNode, std::__1::default_delete<altered_carbon::js::ACAstBaseNode> >, std::__1::allocator<std::__1::unique_ptr<altered_carbon::js::ACAstBaseNode, std::__1::default_delete<altered_carbon::js::ACAstBaseNode> > > >::__RAII_IncreaseAnnotator"** %143, align 8
  %337 = load %"class.std::__1::vector"*, %"class.std::__1::vector"** %144, align 8, !dbg !6082
  %338 = load i64, i64* %145, align 8, !dbg !6082
  store %"struct.std::__1::vector<std::__1::unique_ptr<altered_carbon::js::ACAstBaseNode, std::__1::default_delete<altered_carbon::js::ACAstBaseNode> >, std::__1::allocator<std::__1::unique_ptr<altered_carbon::js::ACAstBaseNode, std::__1::default_delete<altered_carbon::js::ACAstBaseNode> > > >::__RAII_IncreaseAnnotator"* %336, %"struct.std::__1::vector<std::__1::unique_ptr<altered_carbon::js::ACAstBaseNode, std::__1::default_delete<altered_carbon::js::ACAstBaseNode> >, std::__1::allocator<std::__1::unique_ptr<altered_carbon::js::ACAstBaseNode, std::__1::default_delete<altered_carbon::js::ACAstBaseNode> > > >::__RAII_IncreaseAnnotator"** %140, align 8
  store %"class.std::__1::vector"* %337, %"class.std::__1::vector"** %141, align 8
  store i64 %338, i64* %142, align 8
  %339 = load %"struct.std::__1::vector<std::__1::unique_ptr<altered_carbon::js::ACAstBaseNode, std::__1::default_delete<altered_carbon::js::ACAstBaseNode> >, std::__1::allocator<std::__1::unique_ptr<altered_carbon::js::ACAstBaseNode, std::__1::default_delete<altered_carbon::js::ACAstBaseNode> > > >::__RAII_IncreaseAnnotator"*, %"struct.std::__1::vector<std::__1::unique_ptr<altered_carbon::js::ACAstBaseNode, std::__1::default_delete<altered_carbon::js::ACAstBaseNode> >, std::__1::allocator<std::__1::unique_ptr<altered_carbon::js::ACAstBaseNode, std::__1::default_delete<altered_carbon::js::ACAstBaseNode> > > >::__RAII_IncreaseAnnotator"** %140, align 8
  %340 = bitcast %"class.std::__1::vector"* %322 to %"class.std::__1::__vector_base"*, !dbg !6083
  store %"class.std::__1::__vector_base"* %340, %"class.std::__1::__vector_base"** %93, align 8
  %341 = load %"class.std::__1::__vector_base"*, %"class.std::__1::__vector_base"** %93, align 8
  %342 = getelementptr inbounds %"class.std::__1::__vector_base", %"class.std::__1::__vector_base"* %341, i32 0, i32 2, !dbg !6084
  store %"class.std::__1::__compressed_pair.7"* %342, %"class.std::__1::__compressed_pair.7"** %92, align 8
  %343 = load %"class.std::__1::__compressed_pair.7"*, %"class.std::__1::__compressed_pair.7"** %92, align 8
  %344 = bitcast %"class.std::__1::__compressed_pair.7"* %343 to %"struct.std::__1::__compressed_pair_elem.9"*, !dbg !6085
  store %"struct.std::__1::__compressed_pair_elem.9"* %344, %"struct.std::__1::__compressed_pair_elem.9"** %91, align 8
  %345 = load %"struct.std::__1::__compressed_pair_elem.9"*, %"struct.std::__1::__compressed_pair_elem.9"** %91, align 8
  %346 = bitcast %"struct.std::__1::__compressed_pair_elem.9"* %345 to %"class.std::__1::allocator"*, !dbg !6086
  %347 = bitcast %"class.std::__1::vector"* %322 to %"class.std::__1::__vector_base"*, !dbg !6087
  %348 = getelementptr inbounds %"class.std::__1::__vector_base", %"class.std::__1::__vector_base"* %347, i32 0, i32 1, !dbg !6087
  %349 = load %"class.std::__1::unique_ptr.1"*, %"class.std::__1::unique_ptr.1"** %348, align 8, !dbg !6087
  store %"class.std::__1::unique_ptr.1"* %349, %"class.std::__1::unique_ptr.1"** %94, align 8
  %350 = load %"class.std::__1::unique_ptr.1"*, %"class.std::__1::unique_ptr.1"** %94, align 8, !dbg !6088
  %351 = load %"class.std::__1::unique_ptr.1"*, %"class.std::__1::unique_ptr.1"** %150, align 8, !dbg !6089
  store %"class.std::__1::unique_ptr.1"* %351, %"class.std::__1::unique_ptr.1"** %95, align 8
  %352 = load %"class.std::__1::unique_ptr.1"*, %"class.std::__1::unique_ptr.1"** %95, align 8, !dbg !6090
  store %"class.std::__1::allocator"* %346, %"class.std::__1::allocator"** %134, align 8
  store %"class.std::__1::unique_ptr.1"* %350, %"class.std::__1::unique_ptr.1"** %135, align 8
  store %"class.std::__1::unique_ptr.1"* %352, %"class.std::__1::unique_ptr.1"** %136, align 8
  %353 = bitcast %"struct.std::__1::__has_construct"* %137 to %"struct.std::__1::integral_constant"*, !dbg !6091
  %354 = load %"class.std::__1::allocator"*, %"class.std::__1::allocator"** %134, align 8, !dbg !6092
  %355 = load %"class.std::__1::unique_ptr.1"*, %"class.std::__1::unique_ptr.1"** %135, align 8, !dbg !6093
  %356 = load %"class.std::__1::unique_ptr.1"*, %"class.std::__1::unique_ptr.1"** %136, align 8, !dbg !6094
  store %"class.std::__1::unique_ptr.1"* %356, %"class.std::__1::unique_ptr.1"** %133, align 8
  %357 = load %"class.std::__1::unique_ptr.1"*, %"class.std::__1::unique_ptr.1"** %133, align 8, !dbg !6095
  call void @llvm.dbg.declare(metadata !162, metadata !6096, metadata !DIExpression()) #8, !dbg !6097
  store %"class.std::__1::allocator"* %354, %"class.std::__1::allocator"** %130, align 8
  store %"class.std::__1::unique_ptr.1"* %355, %"class.std::__1::unique_ptr.1"** %131, align 8
  store %"class.std::__1::unique_ptr.1"* %357, %"class.std::__1::unique_ptr.1"** %132, align 8
  %358 = load %"class.std::__1::allocator"*, %"class.std::__1::allocator"** %130, align 8, !dbg !6098
  %359 = load %"class.std::__1::unique_ptr.1"*, %"class.std::__1::unique_ptr.1"** %131, align 8, !dbg !6099
  %360 = load %"class.std::__1::unique_ptr.1"*, %"class.std::__1::unique_ptr.1"** %132, align 8, !dbg !6100
  store %"class.std::__1::unique_ptr.1"* %360, %"class.std::__1::unique_ptr.1"** %129, align 8
  %361 = load %"class.std::__1::unique_ptr.1"*, %"class.std::__1::unique_ptr.1"** %129, align 8, !dbg !6101
  store %"class.std::__1::allocator"* %358, %"class.std::__1::allocator"** %126, align 8
  store %"class.std::__1::unique_ptr.1"* %359, %"class.std::__1::unique_ptr.1"** %127, align 8
  store %"class.std::__1::unique_ptr.1"* %361, %"class.std::__1::unique_ptr.1"** %128, align 8
  %362 = load %"class.std::__1::allocator"*, %"class.std::__1::allocator"** %126, align 8
  %363 = load %"class.std::__1::unique_ptr.1"*, %"class.std::__1::unique_ptr.1"** %127, align 8, !dbg !6102
  %364 = bitcast %"class.std::__1::unique_ptr.1"* %363 to i8*, !dbg !6102
  %365 = load %"class.std::__1::unique_ptr.1"*, %"class.std::__1::unique_ptr.1"** %128, align 8, !dbg !6103
  store %"class.std::__1::unique_ptr.1"* %365, %"class.std::__1::unique_ptr.1"** %125, align 8
  %366 = load %"class.std::__1::unique_ptr.1"*, %"class.std::__1::unique_ptr.1"** %125, align 8, !dbg !6104
  store %"class.std::__1::unique_ptr.1"* %363, %"class.std::__1::unique_ptr.1"** %123, align 8
  store %"class.std::__1::unique_ptr.1"* %366, %"class.std::__1::unique_ptr.1"** %124, align 8
  %367 = load %"class.std::__1::unique_ptr.1"*, %"class.std::__1::unique_ptr.1"** %123, align 8
  %368 = load %"class.std::__1::unique_ptr.1"*, %"class.std::__1::unique_ptr.1"** %124, align 8, !dbg !6105
  store %"class.std::__1::unique_ptr.1"* %367, %"class.std::__1::unique_ptr.1"** %120, align 8
  store %"class.std::__1::unique_ptr.1"* %368, %"class.std::__1::unique_ptr.1"** %121, align 8
  %369 = load %"class.std::__1::unique_ptr.1"*, %"class.std::__1::unique_ptr.1"** %120, align 8
  %370 = getelementptr inbounds %"class.std::__1::unique_ptr.1", %"class.std::__1::unique_ptr.1"* %369, i32 0, i32 0, !dbg !6106
  %371 = load %"class.std::__1::unique_ptr.1"*, %"class.std::__1::unique_ptr.1"** %121, align 8, !dbg !6107
  store %"class.std::__1::unique_ptr.1"* %371, %"class.std::__1::unique_ptr.1"** %118, align 8
  %372 = load %"class.std::__1::unique_ptr.1"*, %"class.std::__1::unique_ptr.1"** %118, align 8
  %373 = getelementptr inbounds %"class.std::__1::unique_ptr.1", %"class.std::__1::unique_ptr.1"* %372, i32 0, i32 0, !dbg !6108
  store %"class.std::__1::__compressed_pair.2"* %373, %"class.std::__1::__compressed_pair.2"** %117, align 8
  %374 = load %"class.std::__1::__compressed_pair.2"*, %"class.std::__1::__compressed_pair.2"** %117, align 8
  %375 = bitcast %"class.std::__1::__compressed_pair.2"* %374 to %"struct.std::__1::__compressed_pair_elem.3"*, !dbg !6109
  store %"struct.std::__1::__compressed_pair_elem.3"* %375, %"struct.std::__1::__compressed_pair_elem.3"** %116, align 8
  %376 = load %"struct.std::__1::__compressed_pair_elem.3"*, %"struct.std::__1::__compressed_pair_elem.3"** %116, align 8
  %377 = getelementptr inbounds %"struct.std::__1::__compressed_pair_elem.3", %"struct.std::__1::__compressed_pair_elem.3"* %376, i32 0, i32 0, !dbg !6110
  %378 = load %"class.altered_carbon::js::ACAstBaseNode"*, %"class.altered_carbon::js::ACAstBaseNode"** %377, align 8, !dbg !6111
  store %"class.altered_carbon::js::ACAstBaseNode"* %378, %"class.altered_carbon::js::ACAstBaseNode"** %119, align 8, !dbg !5866
  %379 = getelementptr inbounds %"class.std::__1::unique_ptr.1", %"class.std::__1::unique_ptr.1"* %372, i32 0, i32 0, !dbg !6112
  store %"class.std::__1::__compressed_pair.2"* %379, %"class.std::__1::__compressed_pair.2"** %115, align 8
  %380 = load %"class.std::__1::__compressed_pair.2"*, %"class.std::__1::__compressed_pair.2"** %115, align 8
  %381 = bitcast %"class.std::__1::__compressed_pair.2"* %380 to %"struct.std::__1::__compressed_pair_elem.3"*, !dbg !6113
  store %"struct.std::__1::__compressed_pair_elem.3"* %381, %"struct.std::__1::__compressed_pair_elem.3"** %114, align 8
  %382 = load %"struct.std::__1::__compressed_pair_elem.3"*, %"struct.std::__1::__compressed_pair_elem.3"** %114, align 8
  %383 = getelementptr inbounds %"struct.std::__1::__compressed_pair_elem.3", %"struct.std::__1::__compressed_pair_elem.3"* %382, i32 0, i32 0, !dbg !6114
  store %"class.altered_carbon::js::ACAstBaseNode"* null, %"class.altered_carbon::js::ACAstBaseNode"** %383, align 8, !dbg !6115
  %384 = load %"class.altered_carbon::js::ACAstBaseNode"*, %"class.altered_carbon::js::ACAstBaseNode"** %119, align 8, !dbg !6116
  store %"class.altered_carbon::js::ACAstBaseNode"* %384, %"class.altered_carbon::js::ACAstBaseNode"** %122, align 8, !dbg !6107
  %385 = load %"class.std::__1::unique_ptr.1"*, %"class.std::__1::unique_ptr.1"** %121, align 8, !dbg !6117
  store %"class.std::__1::unique_ptr.1"* %385, %"class.std::__1::unique_ptr.1"** %98, align 8
  %386 = load %"class.std::__1::unique_ptr.1"*, %"class.std::__1::unique_ptr.1"** %98, align 8
  %387 = getelementptr inbounds %"class.std::__1::unique_ptr.1", %"class.std::__1::unique_ptr.1"* %386, i32 0, i32 0, !dbg !6118
  store %"class.std::__1::__compressed_pair.2"* %387, %"class.std::__1::__compressed_pair.2"** %97, align 8
  %388 = load %"class.std::__1::__compressed_pair.2"*, %"class.std::__1::__compressed_pair.2"** %97, align 8
  %389 = bitcast %"class.std::__1::__compressed_pair.2"* %388 to %"struct.std::__1::__compressed_pair_elem.4"*, !dbg !6119
  store %"struct.std::__1::__compressed_pair_elem.4"* %389, %"struct.std::__1::__compressed_pair_elem.4"** %96, align 8
  %390 = load %"struct.std::__1::__compressed_pair_elem.4"*, %"struct.std::__1::__compressed_pair_elem.4"** %96, align 8
  %391 = bitcast %"struct.std::__1::__compressed_pair_elem.4"* %390 to %"struct.std::__1::default_delete.5"*, !dbg !6120
  store %"struct.std::__1::default_delete.5"* %391, %"struct.std::__1::default_delete.5"** %99, align 8
  %392 = load %"struct.std::__1::default_delete.5"*, %"struct.std::__1::default_delete.5"** %99, align 8, !dbg !6121
  store %"class.std::__1::__compressed_pair.2"* %370, %"class.std::__1::__compressed_pair.2"** %111, align 8
  store %"class.altered_carbon::js::ACAstBaseNode"** %122, %"class.altered_carbon::js::ACAstBaseNode"*** %112, align 8
  store %"struct.std::__1::default_delete.5"* %392, %"struct.std::__1::default_delete.5"** %113, align 8
  %393 = load %"class.std::__1::__compressed_pair.2"*, %"class.std::__1::__compressed_pair.2"** %111, align 8
  %394 = load %"class.altered_carbon::js::ACAstBaseNode"**, %"class.altered_carbon::js::ACAstBaseNode"*** %112, align 8, !dbg !6122
  %395 = load %"struct.std::__1::default_delete.5"*, %"struct.std::__1::default_delete.5"** %113, align 8, !dbg !6122
  store %"class.std::__1::__compressed_pair.2"* %393, %"class.std::__1::__compressed_pair.2"** %108, align 8
  store %"class.altered_carbon::js::ACAstBaseNode"** %394, %"class.altered_carbon::js::ACAstBaseNode"*** %109, align 8
  store %"struct.std::__1::default_delete.5"* %395, %"struct.std::__1::default_delete.5"** %110, align 8
  %396 = load %"class.std::__1::__compressed_pair.2"*, %"class.std::__1::__compressed_pair.2"** %108, align 8
  %397 = bitcast %"class.std::__1::__compressed_pair.2"* %396 to %"struct.std::__1::__compressed_pair_elem.3"*, !dbg !6123
  %398 = load %"class.altered_carbon::js::ACAstBaseNode"**, %"class.altered_carbon::js::ACAstBaseNode"*** %109, align 8, !dbg !6124
  store %"class.altered_carbon::js::ACAstBaseNode"** %398, %"class.altered_carbon::js::ACAstBaseNode"*** %107, align 8
  %399 = load %"class.altered_carbon::js::ACAstBaseNode"**, %"class.altered_carbon::js::ACAstBaseNode"*** %107, align 8, !dbg !6125
  store %"struct.std::__1::__compressed_pair_elem.3"* %397, %"struct.std::__1::__compressed_pair_elem.3"** %101, align 8
  store %"class.altered_carbon::js::ACAstBaseNode"** %399, %"class.altered_carbon::js::ACAstBaseNode"*** %102, align 8
  %400 = load %"struct.std::__1::__compressed_pair_elem.3"*, %"struct.std::__1::__compressed_pair_elem.3"** %101, align 8
  %401 = getelementptr inbounds %"struct.std::__1::__compressed_pair_elem.3", %"struct.std::__1::__compressed_pair_elem.3"* %400, i32 0, i32 0, !dbg !6126
  %402 = load %"class.altered_carbon::js::ACAstBaseNode"**, %"class.altered_carbon::js::ACAstBaseNode"*** %102, align 8, !dbg !6127
  store %"class.altered_carbon::js::ACAstBaseNode"** %402, %"class.altered_carbon::js::ACAstBaseNode"*** %100, align 8
  %403 = load %"class.altered_carbon::js::ACAstBaseNode"**, %"class.altered_carbon::js::ACAstBaseNode"*** %100, align 8, !dbg !6128
  %404 = load %"class.altered_carbon::js::ACAstBaseNode"*, %"class.altered_carbon::js::ACAstBaseNode"** %403, align 8, !dbg !6129
  store %"class.altered_carbon::js::ACAstBaseNode"* %404, %"class.altered_carbon::js::ACAstBaseNode"** %401, align 8, !dbg !6126
  %405 = bitcast %"class.std::__1::__compressed_pair.2"* %396 to %"struct.std::__1::__compressed_pair_elem.4"*, !dbg !6123
  %406 = load %"struct.std::__1::default_delete.5"*, %"struct.std::__1::default_delete.5"** %110, align 8, !dbg !6130
  store %"struct.std::__1::default_delete.5"* %406, %"struct.std::__1::default_delete.5"** %103, align 8
  %407 = load %"struct.std::__1::default_delete.5"*, %"struct.std::__1::default_delete.5"** %103, align 8, !dbg !6131
  store %"struct.std::__1::__compressed_pair_elem.4"* %405, %"struct.std::__1::__compressed_pair_elem.4"** %105, align 8
  store %"struct.std::__1::default_delete.5"* %407, %"struct.std::__1::default_delete.5"** %106, align 8
  %408 = load %"struct.std::__1::__compressed_pair_elem.4"*, %"struct.std::__1::__compressed_pair_elem.4"** %105, align 8
  %409 = bitcast %"struct.std::__1::__compressed_pair_elem.4"* %408 to %"struct.std::__1::default_delete.5"*, !dbg !6132
  %410 = load %"struct.std::__1::default_delete.5"*, %"struct.std::__1::default_delete.5"** %106, align 8, !dbg !6133
  store %"struct.std::__1::default_delete.5"* %410, %"struct.std::__1::default_delete.5"** %104, align 8
  %411 = load %"struct.std::__1::default_delete.5"*, %"struct.std::__1::default_delete.5"** %104, align 8, !dbg !6134
  store %"struct.std::__1::vector<std::__1::unique_ptr<altered_carbon::js::ACAstBaseNode, std::__1::default_delete<altered_carbon::js::ACAstBaseNode> >, std::__1::allocator<std::__1::unique_ptr<altered_carbon::js::ACAstBaseNode, std::__1::default_delete<altered_carbon::js::ACAstBaseNode> > > >::__RAII_IncreaseAnnotator"* %151, %"struct.std::__1::vector<std::__1::unique_ptr<altered_carbon::js::ACAstBaseNode, std::__1::default_delete<altered_carbon::js::ACAstBaseNode> >, std::__1::allocator<std::__1::unique_ptr<altered_carbon::js::ACAstBaseNode, std::__1::default_delete<altered_carbon::js::ACAstBaseNode> > > >::__RAII_IncreaseAnnotator"** %138, align 8
  %412 = load %"struct.std::__1::vector<std::__1::unique_ptr<altered_carbon::js::ACAstBaseNode, std::__1::default_delete<altered_carbon::js::ACAstBaseNode> >, std::__1::allocator<std::__1::unique_ptr<altered_carbon::js::ACAstBaseNode, std::__1::default_delete<altered_carbon::js::ACAstBaseNode> > > >::__RAII_IncreaseAnnotator"*, %"struct.std::__1::vector<std::__1::unique_ptr<altered_carbon::js::ACAstBaseNode, std::__1::default_delete<altered_carbon::js::ACAstBaseNode> >, std::__1::allocator<std::__1::unique_ptr<altered_carbon::js::ACAstBaseNode, std::__1::default_delete<altered_carbon::js::ACAstBaseNode> > > >::__RAII_IncreaseAnnotator"** %138, align 8
  %413 = bitcast %"class.std::__1::vector"* %322 to %"class.std::__1::__vector_base"*, !dbg !6135
  %414 = getelementptr inbounds %"class.std::__1::__vector_base", %"class.std::__1::__vector_base"* %413, i32 0, i32 1, !dbg !6135
  %415 = load %"class.std::__1::unique_ptr.1"*, %"class.std::__1::unique_ptr.1"** %414, align 8, !dbg !6136
  %416 = getelementptr inbounds %"class.std::__1::unique_ptr.1", %"class.std::__1::unique_ptr.1"* %415, i32 1, !dbg !6136
  store %"class.std::__1::unique_ptr.1"* %416, %"class.std::__1::unique_ptr.1"** %414, align 8, !dbg !6136
  br label %420, !dbg !6137

; <label>:417:                                    ; preds = %317
  %418 = load %"class.std::__1::unique_ptr.1"*, %"class.std::__1::unique_ptr.1"** %150, align 8, !dbg !6138
  store %"class.std::__1::unique_ptr.1"* %418, %"class.std::__1::unique_ptr.1"** %139, align 8
  %419 = load %"class.std::__1::unique_ptr.1"*, %"class.std::__1::unique_ptr.1"** %139, align 8, !dbg !6139
  call void @_ZNSt3__16vectorINS_10unique_ptrIN14altered_carbon2js13ACAstBaseNodeENS_14default_deleteIS4_EEEENS_9allocatorIS7_EEE21__push_back_slow_pathIS7_EEvOT_(%"class.std::__1::vector"* %322, %"class.std::__1::unique_ptr.1"* dereferenceable(8) %419) #8, !dbg !6140
  br label %420

; <label>:420:                                    ; preds = %335, %417
  ret void, !dbg !6141
}

; Function Attrs: nounwind readnone speculatable
declare void @llvm.dbg.declare(metadata, metadata, metadata) #1

declare void @_ZN14altered_carbon2js19ACAstExpressionNodeC2ENSt3__110unique_ptrINS0_13ACLexPositionENS2_14default_deleteIS4_EEEENS3_INS0_13ACAstBaseNodeENS5_IS8_EEEENS8_11AstNodeTypeENS8_14AstNodeSubTypeE(%"class.altered_carbon::js::ACAstExpressionNode"*, %"class.std::__1::unique_ptr"*, %"class.std::__1::unique_ptr.1"*, i32, i32) unnamed_addr #2

; Function Attrs: noinline nounwind optnone ssp uwtable
define void @_ZN14altered_carbon2js20ACAstStaticMemberRefC1ENSt3__110unique_ptrINS0_13ACLexPositionENS2_14default_deleteIS4_EEEENS3_INS0_13ACAstBaseNodeENS5_IS8_EEEESA_(%"class.altered_carbon::js::ACAstStaticMemberRef"*, %"class.std::__1::unique_ptr"*, %"class.std::__1::unique_ptr.1"*, %"class.std::__1::unique_ptr.1"*) unnamed_addr #0 align 2 !dbg !6142 {
  %5 = alloca %"class.altered_carbon::js::ACAstStaticMemberRef"*, align 8
  store %"class.altered_carbon::js::ACAstStaticMemberRef"* %0, %"class.altered_carbon::js::ACAstStaticMemberRef"** %5, align 8
  call void @llvm.dbg.declare(metadata %"class.altered_carbon::js::ACAstStaticMemberRef"** %5, metadata !6143, metadata !DIExpression()), !dbg !6144
  call void @llvm.dbg.declare(metadata %"class.std::__1::unique_ptr"* %1, metadata !6145, metadata !DIExpression()), !dbg !6146
  call void @llvm.dbg.declare(metadata %"class.std::__1::unique_ptr.1"* %2, metadata !6147, metadata !DIExpression()), !dbg !6148
  call void @llvm.dbg.declare(metadata %"class.std::__1::unique_ptr.1"* %3, metadata !6149, metadata !DIExpression()), !dbg !6150
  %6 = load %"class.altered_carbon::js::ACAstStaticMemberRef"*, %"class.altered_carbon::js::ACAstStaticMemberRef"** %5, align 8
  call void @_ZN14altered_carbon2js20ACAstStaticMemberRefC2ENSt3__110unique_ptrINS0_13ACLexPositionENS2_14default_deleteIS4_EEEENS3_INS0_13ACAstBaseNodeENS5_IS8_EEEESA_(%"class.altered_carbon::js::ACAstStaticMemberRef"* %6, %"class.std::__1::unique_ptr"* %1, %"class.std::__1::unique_ptr.1"* %2, %"class.std::__1::unique_ptr.1"* %3), !dbg !6151
  ret void, !dbg !6152
}

; Function Attrs: noinline nounwind optnone ssp uwtable
define void @_ZNK14altered_carbon2js20ACAstStaticMemberRef14dumpChildNodesERNSt3__113basic_ostreamIcNS2_11char_traitsIcEEEE(%"class.altered_carbon::js::ACAstStaticMemberRef"*, %"class.std::__1::basic_ostream"* dereferenceable(160)) unnamed_addr #0 align 2 !dbg !6153 {
  %3 = alloca %"struct.std::__1::__compressed_pair_elem.3"*, align 8
  call void @llvm.dbg.declare(metadata %"struct.std::__1::__compressed_pair_elem.3"** %3, metadata !6154, metadata !DIExpression()), !dbg !6157
  %4 = alloca %"class.std::__1::__compressed_pair.2"*, align 8
  call void @llvm.dbg.declare(metadata %"class.std::__1::__compressed_pair.2"** %4, metadata !6163, metadata !DIExpression()), !dbg !6165
  %5 = alloca %"class.std::__1::unique_ptr.1"*, align 8
  call void @llvm.dbg.declare(metadata %"class.std::__1::unique_ptr.1"** %5, metadata !6166, metadata !DIExpression()), !dbg !6167
  %6 = alloca %"class.std::__1::vector"*, align 8
  call void @llvm.dbg.declare(metadata %"class.std::__1::vector"** %6, metadata !6168, metadata !DIExpression()), !dbg !6171
  %7 = alloca i64, align 8
  call void @llvm.dbg.declare(metadata i64* %7, metadata !6173, metadata !DIExpression()), !dbg !6174
  %8 = alloca %"class.altered_carbon::js::ACAstStaticMemberRef"*, align 8
  %9 = alloca %"class.std::__1::basic_ostream"*, align 8
  store %"class.altered_carbon::js::ACAstStaticMemberRef"* %0, %"class.altered_carbon::js::ACAstStaticMemberRef"** %8, align 8
  call void @llvm.dbg.declare(metadata %"class.altered_carbon::js::ACAstStaticMemberRef"** %8, metadata !6175, metadata !DIExpression()), !dbg !6177
  store %"class.std::__1::basic_ostream"* %1, %"class.std::__1::basic_ostream"** %9, align 8
  call void @llvm.dbg.declare(metadata %"class.std::__1::basic_ostream"** %9, metadata !6178, metadata !DIExpression()), !dbg !6179
  %10 = load %"class.altered_carbon::js::ACAstStaticMemberRef"*, %"class.altered_carbon::js::ACAstStaticMemberRef"** %8, align 8
  %11 = bitcast %"class.altered_carbon::js::ACAstStaticMemberRef"* %10 to %"class.altered_carbon::js::ACAstExpressionNode"*, !dbg !6180
  %12 = load %"class.std::__1::basic_ostream"*, %"class.std::__1::basic_ostream"** %9, align 8, !dbg !6181
  call void @_ZNK14altered_carbon2js19ACAstExpressionNode14dumpChildNodesERNSt3__113basic_ostreamIcNS2_11char_traitsIcEEEE(%"class.altered_carbon::js::ACAstExpressionNode"* %11, %"class.std::__1::basic_ostream"* dereferenceable(160) %12), !dbg !6180
  %13 = load %"class.std::__1::basic_ostream"*, %"class.std::__1::basic_ostream"** %9, align 8, !dbg !6182
  %14 = call dereferenceable(160) %"class.std::__1::basic_ostream"* @_ZNSt3__1lsINS_11char_traitsIcEEEERNS_13basic_ostreamIcT_EES6_PKc(%"class.std::__1::basic_ostream"* dereferenceable(160) %13, i8* getelementptr inbounds ([6 x i8], [6 x i8]* @.str, i32 0, i32 0)), !dbg !6183
  %15 = bitcast %"class.altered_carbon::js::ACAstStaticMemberRef"* %10 to %"class.altered_carbon::js::ACAstBaseNode"*, !dbg !6184
  %16 = getelementptr inbounds %"class.altered_carbon::js::ACAstBaseNode", %"class.altered_carbon::js::ACAstBaseNode"* %15, i32 0, i32 4, !dbg !6184
  store %"class.std::__1::vector"* %16, %"class.std::__1::vector"** %6, align 8
  store i64 0, i64* %7, align 8
  %17 = load %"class.std::__1::vector"*, %"class.std::__1::vector"** %6, align 8
  %18 = bitcast %"class.std::__1::vector"* %17 to %"class.std::__1::__vector_base"*, !dbg !6185
  %19 = getelementptr inbounds %"class.std::__1::__vector_base", %"class.std::__1::__vector_base"* %18, i32 0, i32 0, !dbg !6185
  %20 = load %"class.std::__1::unique_ptr.1"*, %"class.std::__1::unique_ptr.1"** %19, align 8, !dbg !6185
  %21 = load i64, i64* %7, align 8, !dbg !6186
  %22 = getelementptr inbounds %"class.std::__1::unique_ptr.1", %"class.std::__1::unique_ptr.1"* %20, i64 %21, !dbg !6187
  store %"class.std::__1::unique_ptr.1"* %22, %"class.std::__1::unique_ptr.1"** %5, align 8
  %23 = load %"class.std::__1::unique_ptr.1"*, %"class.std::__1::unique_ptr.1"** %5, align 8
  %24 = getelementptr inbounds %"class.std::__1::unique_ptr.1", %"class.std::__1::unique_ptr.1"* %23, i32 0, i32 0, !dbg !6188
  store %"class.std::__1::__compressed_pair.2"* %24, %"class.std::__1::__compressed_pair.2"** %4, align 8
  %25 = load %"class.std::__1::__compressed_pair.2"*, %"class.std::__1::__compressed_pair.2"** %4, align 8
  %26 = bitcast %"class.std::__1::__compressed_pair.2"* %25 to %"struct.std::__1::__compressed_pair_elem.3"*, !dbg !6189
  store %"struct.std::__1::__compressed_pair_elem.3"* %26, %"struct.std::__1::__compressed_pair_elem.3"** %3, align 8
  %27 = load %"struct.std::__1::__compressed_pair_elem.3"*, %"struct.std::__1::__compressed_pair_elem.3"** %3, align 8
  %28 = getelementptr inbounds %"struct.std::__1::__compressed_pair_elem.3", %"struct.std::__1::__compressed_pair_elem.3"* %27, i32 0, i32 0, !dbg !6190
  %29 = load %"class.altered_carbon::js::ACAstBaseNode"*, %"class.altered_carbon::js::ACAstBaseNode"** %28, align 8, !dbg !6191
  %30 = bitcast %"class.altered_carbon::js::ACAstBaseNode"* %29 to void (%"class.altered_carbon::js::ACAstBaseNode"*, %"class.std::__1::basic_ostream"*)***, !dbg !6192
  %31 = load void (%"class.altered_carbon::js::ACAstBaseNode"*, %"class.std::__1::basic_ostream"*)**, void (%"class.altered_carbon::js::ACAstBaseNode"*, %"class.std::__1::basic_ostream"*)*** %30, align 8, !dbg !6192
  %32 = getelementptr inbounds void (%"class.altered_carbon::js::ACAstBaseNode"*, %"class.std::__1::basic_ostream"*)*, void (%"class.altered_carbon::js::ACAstBaseNode"*, %"class.std::__1::basic_ostream"*)** %31, i64 8, !dbg !6192
  %33 = load void (%"class.altered_carbon::js::ACAstBaseNode"*, %"class.std::__1::basic_ostream"*)*, void (%"class.altered_carbon::js::ACAstBaseNode"*, %"class.std::__1::basic_ostream"*)** %32, align 8, !dbg !6192
  %34 = load %"class.std::__1::basic_ostream"*, %"class.std::__1::basic_ostream"** %9, align 8, !dbg !6193
  call void %33(%"class.altered_carbon::js::ACAstBaseNode"* %29, %"class.std::__1::basic_ostream"* dereferenceable(160) %34), !dbg !6192
  ret void, !dbg !6194
}

declare void @_ZNK14altered_carbon2js19ACAstExpressionNode14dumpChildNodesERNSt3__113basic_ostreamIcNS2_11char_traitsIcEEEE(%"class.altered_carbon::js::ACAstExpressionNode"*, %"class.std::__1::basic_ostream"* dereferenceable(160)) unnamed_addr #2

; Function Attrs: noinline nounwind optnone ssp uwtable
define linkonce_odr dereferenceable(160) %"class.std::__1::basic_ostream"* @_ZNSt3__1lsINS_11char_traitsIcEEEERNS_13basic_ostreamIcT_EES6_PKc(%"class.std::__1::basic_ostream"* dereferenceable(160), i8*) #0 !dbg !6195 {
  %3 = alloca %"class.std::__1::basic_ostream"*, align 8
  %4 = alloca i8*, align 8
  store %"class.std::__1::basic_ostream"* %0, %"class.std::__1::basic_ostream"** %3, align 8
  call void @llvm.dbg.declare(metadata %"class.std::__1::basic_ostream"** %3, metadata !6199, metadata !DIExpression()), !dbg !6200
  store i8* %1, i8** %4, align 8
  call void @llvm.dbg.declare(metadata i8** %4, metadata !6201, metadata !DIExpression()), !dbg !6202
  %5 = load %"class.std::__1::basic_ostream"*, %"class.std::__1::basic_ostream"** %3, align 8, !dbg !6203
  %6 = load i8*, i8** %4, align 8, !dbg !6204
  %7 = load i8*, i8** %4, align 8, !dbg !6205
  %8 = call i64 @_ZNSt3__111char_traitsIcE6lengthEPKc(i8* %7) #8, !dbg !6206
  %9 = call dereferenceable(160) %"class.std::__1::basic_ostream"* @_ZNSt3__124__put_character_sequenceIcNS_11char_traitsIcEEEERNS_13basic_ostreamIT_T0_EES7_PKS4_m(%"class.std::__1::basic_ostream"* dereferenceable(160) %5, i8* %6, i64 %8), !dbg !6207
  ret %"class.std::__1::basic_ostream"* %9, !dbg !6208
}

; Function Attrs: noinline nounwind optnone ssp uwtable
define void @_ZN14altered_carbon2js21ACAstRuntimeMemberRefC2ENSt3__110unique_ptrINS0_13ACLexPositionENS2_14default_deleteIS4_EEEENS3_INS0_13ACAstBaseNodeENS5_IS8_EEEESA_(%"class.altered_carbon::js::ACAstRuntimeMemberRef"*, %"class.std::__1::unique_ptr"*, %"class.std::__1::unique_ptr.1"*, %"class.std::__1::unique_ptr.1"*) unnamed_addr #0 align 2 !dbg !6209 {
  %5 = alloca %"struct.std::__1::__compressed_pair_elem.4"*, align 8
  call void @llvm.dbg.declare(metadata %"struct.std::__1::__compressed_pair_elem.4"** %5, metadata !5452, metadata !DIExpression()), !dbg !6225
  %6 = alloca %"class.std::__1::__compressed_pair.2"*, align 8
  call void @llvm.dbg.declare(metadata %"class.std::__1::__compressed_pair.2"** %6, metadata !5465, metadata !DIExpression()), !dbg !6231
  %7 = alloca %"class.std::__1::unique_ptr.1"*, align 8
  call void @llvm.dbg.declare(metadata %"class.std::__1::unique_ptr.1"** %7, metadata !5468, metadata !DIExpression()), !dbg !6232
  %8 = alloca %"struct.std::__1::default_delete.5"*, align 8
  call void @llvm.dbg.declare(metadata %"struct.std::__1::default_delete.5"** %8, metadata !5470, metadata !DIExpression()), !dbg !6233
  %9 = alloca %"class.altered_carbon::js::ACAstBaseNode"**, align 8
  call void @llvm.dbg.declare(metadata %"class.altered_carbon::js::ACAstBaseNode"*** %9, metadata !5481, metadata !DIExpression()), !dbg !6235
  %10 = alloca %"struct.std::__1::__compressed_pair_elem.3"*, align 8
  call void @llvm.dbg.declare(metadata %"struct.std::__1::__compressed_pair_elem.3"** %10, metadata !5510, metadata !DIExpression()), !dbg !6240
  %11 = alloca %"class.altered_carbon::js::ACAstBaseNode"**, align 8
  call void @llvm.dbg.declare(metadata %"class.altered_carbon::js::ACAstBaseNode"*** %11, metadata !5513, metadata !DIExpression()), !dbg !6241
  %12 = alloca %"struct.std::__1::default_delete.5"*, align 8
  call void @llvm.dbg.declare(metadata %"struct.std::__1::default_delete.5"** %12, metadata !5470, metadata !DIExpression()), !dbg !6242
  %13 = alloca %"struct.std::__1::default_delete.5"*, align 8
  call void @llvm.dbg.declare(metadata %"struct.std::__1::default_delete.5"** %13, metadata !5470, metadata !DIExpression()), !dbg !6244
  %14 = alloca %"struct.std::__1::__compressed_pair_elem.4"*, align 8
  call void @llvm.dbg.declare(metadata %"struct.std::__1::__compressed_pair_elem.4"** %14, metadata !5526, metadata !DIExpression()), !dbg !6247
  %15 = alloca %"struct.std::__1::default_delete.5"*, align 8
  call void @llvm.dbg.declare(metadata %"struct.std::__1::default_delete.5"** %15, metadata !5528, metadata !DIExpression()), !dbg !6248
  %16 = alloca %"class.altered_carbon::js::ACAstBaseNode"**, align 8
  call void @llvm.dbg.declare(metadata %"class.altered_carbon::js::ACAstBaseNode"*** %16, metadata !5481, metadata !DIExpression()), !dbg !6249
  %17 = alloca %"class.std::__1::__compressed_pair.2"*, align 8
  call void @llvm.dbg.declare(metadata %"class.std::__1::__compressed_pair.2"** %17, metadata !5532, metadata !DIExpression()), !dbg !6251
  %18 = alloca %"class.altered_carbon::js::ACAstBaseNode"**, align 8
  call void @llvm.dbg.declare(metadata %"class.altered_carbon::js::ACAstBaseNode"*** %18, metadata !5534, metadata !DIExpression()), !dbg !6252
  %19 = alloca %"struct.std::__1::default_delete.5"*, align 8
  call void @llvm.dbg.declare(metadata %"struct.std::__1::default_delete.5"** %19, metadata !5536, metadata !DIExpression()), !dbg !6253
  %20 = alloca %"class.std::__1::__compressed_pair.2"*, align 8
  call void @llvm.dbg.declare(metadata %"class.std::__1::__compressed_pair.2"** %20, metadata !5538, metadata !DIExpression()), !dbg !6254
  %21 = alloca %"class.altered_carbon::js::ACAstBaseNode"**, align 8
  call void @llvm.dbg.declare(metadata %"class.altered_carbon::js::ACAstBaseNode"*** %21, metadata !5540, metadata !DIExpression()), !dbg !6255
  %22 = alloca %"struct.std::__1::default_delete.5"*, align 8
  call void @llvm.dbg.declare(metadata %"struct.std::__1::default_delete.5"** %22, metadata !5542, metadata !DIExpression()), !dbg !6256
  %23 = alloca %"struct.std::__1::__compressed_pair_elem.3"*, align 8
  call void @llvm.dbg.declare(metadata %"struct.std::__1::__compressed_pair_elem.3"** %23, metadata !5544, metadata !DIExpression()), !dbg !6257
  %24 = alloca %"class.std::__1::__compressed_pair.2"*, align 8
  call void @llvm.dbg.declare(metadata %"class.std::__1::__compressed_pair.2"** %24, metadata !5552, metadata !DIExpression()), !dbg !6261
  %25 = alloca %"struct.std::__1::__compressed_pair_elem.3"*, align 8
  call void @llvm.dbg.declare(metadata %"struct.std::__1::__compressed_pair_elem.3"** %25, metadata !5544, metadata !DIExpression()), !dbg !6262
  %26 = alloca %"class.std::__1::__compressed_pair.2"*, align 8
  call void @llvm.dbg.declare(metadata %"class.std::__1::__compressed_pair.2"** %26, metadata !5552, metadata !DIExpression()), !dbg !6265
  %27 = alloca %"class.std::__1::unique_ptr.1"*, align 8
  call void @llvm.dbg.declare(metadata %"class.std::__1::unique_ptr.1"** %27, metadata !5558, metadata !DIExpression()), !dbg !6266
  %28 = alloca %"class.altered_carbon::js::ACAstBaseNode"*, align 8
  call void @llvm.dbg.declare(metadata %"class.altered_carbon::js::ACAstBaseNode"** %28, metadata !5560, metadata !DIExpression()), !dbg !6267
  %29 = alloca %"class.std::__1::unique_ptr.1"*, align 8
  call void @llvm.dbg.declare(metadata %"class.std::__1::unique_ptr.1"** %29, metadata !5562, metadata !DIExpression()), !dbg !6268
  %30 = alloca %"class.std::__1::unique_ptr.1"*, align 8
  call void @llvm.dbg.declare(metadata %"class.std::__1::unique_ptr.1"** %30, metadata !5564, metadata !DIExpression()), !dbg !6269
  %31 = alloca %"class.altered_carbon::js::ACAstBaseNode"*, align 8
  %32 = alloca %"class.std::__1::unique_ptr.1"*, align 8
  call void @llvm.dbg.declare(metadata %"class.std::__1::unique_ptr.1"** %32, metadata !5566, metadata !DIExpression()), !dbg !6270
  %33 = alloca %"class.std::__1::unique_ptr.1"*, align 8
  call void @llvm.dbg.declare(metadata %"class.std::__1::unique_ptr.1"** %33, metadata !5568, metadata !DIExpression()), !dbg !6271
  %34 = alloca %"struct.std::__1::__compressed_pair_elem.4"*, align 8
  call void @llvm.dbg.declare(metadata %"struct.std::__1::__compressed_pair_elem.4"** %34, metadata !5452, metadata !DIExpression()), !dbg !6272
  %35 = alloca %"class.std::__1::__compressed_pair.2"*, align 8
  call void @llvm.dbg.declare(metadata %"class.std::__1::__compressed_pair.2"** %35, metadata !5465, metadata !DIExpression()), !dbg !6278
  %36 = alloca %"struct.std::__1::__compressed_pair_elem.3"*, align 8
  call void @llvm.dbg.declare(metadata %"struct.std::__1::__compressed_pair_elem.3"** %36, metadata !5544, metadata !DIExpression()), !dbg !6279
  %37 = alloca %"class.std::__1::__compressed_pair.2"*, align 8
  call void @llvm.dbg.declare(metadata %"class.std::__1::__compressed_pair.2"** %37, metadata !5552, metadata !DIExpression()), !dbg !6282
  %38 = alloca %"struct.std::__1::default_delete.5"*, align 8
  call void @llvm.dbg.declare(metadata %"struct.std::__1::default_delete.5"** %38, metadata !5586, metadata !DIExpression()), !dbg !6283
  %39 = alloca %"class.altered_carbon::js::ACAstBaseNode"*, align 8
  call void @llvm.dbg.declare(metadata %"class.altered_carbon::js::ACAstBaseNode"** %39, metadata !5591, metadata !DIExpression()), !dbg !6285
  %40 = alloca %"struct.std::__1::__compressed_pair_elem.3"*, align 8
  call void @llvm.dbg.declare(metadata %"struct.std::__1::__compressed_pair_elem.3"** %40, metadata !5544, metadata !DIExpression()), !dbg !6286
  %41 = alloca %"class.std::__1::__compressed_pair.2"*, align 8
  call void @llvm.dbg.declare(metadata %"class.std::__1::__compressed_pair.2"** %41, metadata !5552, metadata !DIExpression()), !dbg !6289
  %42 = alloca %"class.std::__1::unique_ptr.1"*, align 8
  call void @llvm.dbg.declare(metadata %"class.std::__1::unique_ptr.1"** %42, metadata !5597, metadata !DIExpression()), !dbg !6290
  %43 = alloca %"class.altered_carbon::js::ACAstBaseNode"*, align 8
  call void @llvm.dbg.declare(metadata %"class.altered_carbon::js::ACAstBaseNode"** %43, metadata !5599, metadata !DIExpression()), !dbg !6291
  %44 = alloca %"class.altered_carbon::js::ACAstBaseNode"*, align 8
  call void @llvm.dbg.declare(metadata %"class.altered_carbon::js::ACAstBaseNode"** %44, metadata !5601, metadata !DIExpression()), !dbg !6292
  %45 = alloca %"class.std::__1::unique_ptr.1"*, align 8
  call void @llvm.dbg.declare(metadata %"class.std::__1::unique_ptr.1"** %45, metadata !5603, metadata !DIExpression()), !dbg !6293
  %46 = alloca %"class.std::__1::unique_ptr.1"*, align 8
  call void @llvm.dbg.declare(metadata %"class.std::__1::unique_ptr.1"** %46, metadata !5605, metadata !DIExpression()), !dbg !6294
  %47 = alloca %"class.std::__1::unique_ptr.1"*, align 8
  call void @llvm.dbg.declare(metadata %"class.std::__1::unique_ptr.1"** %47, metadata !5607, metadata !DIExpression()), !dbg !6295
  %48 = alloca %"struct.std::__1::__compressed_pair_elem.0"*, align 8
  call void @llvm.dbg.declare(metadata %"struct.std::__1::__compressed_pair_elem.0"** %48, metadata !5618, metadata !DIExpression()), !dbg !6297
  %49 = alloca %"class.std::__1::__compressed_pair"*, align 8
  call void @llvm.dbg.declare(metadata %"class.std::__1::__compressed_pair"** %49, metadata !5633, metadata !DIExpression()), !dbg !6303
  %50 = alloca %"struct.std::__1::__compressed_pair_elem"*, align 8
  call void @llvm.dbg.declare(metadata %"struct.std::__1::__compressed_pair_elem"** %50, metadata !5636, metadata !DIExpression()), !dbg !6304
  %51 = alloca %"class.std::__1::__compressed_pair"*, align 8
  call void @llvm.dbg.declare(metadata %"class.std::__1::__compressed_pair"** %51, metadata !5643, metadata !DIExpression()), !dbg !6307
  %52 = alloca %"struct.std::__1::default_delete"*, align 8
  call void @llvm.dbg.declare(metadata %"struct.std::__1::default_delete"** %52, metadata !5645, metadata !DIExpression()), !dbg !6308
  %53 = alloca %"struct.altered_carbon::js::ACLexPosition"*, align 8
  call void @llvm.dbg.declare(metadata %"struct.altered_carbon::js::ACLexPosition"** %53, metadata !5650, metadata !DIExpression()), !dbg !6310
  %54 = alloca %"struct.std::__1::__compressed_pair_elem"*, align 8
  call void @llvm.dbg.declare(metadata %"struct.std::__1::__compressed_pair_elem"** %54, metadata !5636, metadata !DIExpression()), !dbg !6311
  %55 = alloca %"class.std::__1::__compressed_pair"*, align 8
  call void @llvm.dbg.declare(metadata %"class.std::__1::__compressed_pair"** %55, metadata !5643, metadata !DIExpression()), !dbg !6314
  %56 = alloca %"class.std::__1::unique_ptr"*, align 8
  call void @llvm.dbg.declare(metadata %"class.std::__1::unique_ptr"** %56, metadata !5656, metadata !DIExpression()), !dbg !6315
  %57 = alloca %"struct.altered_carbon::js::ACLexPosition"*, align 8
  call void @llvm.dbg.declare(metadata %"struct.altered_carbon::js::ACLexPosition"** %57, metadata !5659, metadata !DIExpression()), !dbg !6316
  %58 = alloca %"struct.altered_carbon::js::ACLexPosition"*, align 8
  call void @llvm.dbg.declare(metadata %"struct.altered_carbon::js::ACLexPosition"** %58, metadata !5661, metadata !DIExpression()), !dbg !6317
  %59 = alloca %"class.std::__1::unique_ptr"*, align 8
  call void @llvm.dbg.declare(metadata %"class.std::__1::unique_ptr"** %59, metadata !5663, metadata !DIExpression()), !dbg !6318
  %60 = alloca %"class.std::__1::unique_ptr"*, align 8
  call void @llvm.dbg.declare(metadata %"class.std::__1::unique_ptr"** %60, metadata !5665, metadata !DIExpression()), !dbg !6319
  %61 = alloca %"class.std::__1::unique_ptr.1"*, align 8
  call void @llvm.dbg.declare(metadata %"class.std::__1::unique_ptr.1"** %61, metadata !5607, metadata !DIExpression()), !dbg !6320
  %62 = alloca %"struct.std::__1::__compressed_pair_elem.0"*, align 8
  call void @llvm.dbg.declare(metadata %"struct.std::__1::__compressed_pair_elem.0"** %62, metadata !5618, metadata !DIExpression()), !dbg !6323
  %63 = alloca %"class.std::__1::__compressed_pair"*, align 8
  call void @llvm.dbg.declare(metadata %"class.std::__1::__compressed_pair"** %63, metadata !5633, metadata !DIExpression()), !dbg !6329
  %64 = alloca %"class.std::__1::unique_ptr"*, align 8
  call void @llvm.dbg.declare(metadata %"class.std::__1::unique_ptr"** %64, metadata !5680, metadata !DIExpression()), !dbg !6330
  %65 = alloca %"struct.std::__1::default_delete"*, align 8
  call void @llvm.dbg.declare(metadata %"struct.std::__1::default_delete"** %65, metadata !5682, metadata !DIExpression()), !dbg !6331
  %66 = alloca %"struct.altered_carbon::js::ACLexPosition"**, align 8
  call void @llvm.dbg.declare(metadata %"struct.altered_carbon::js::ACLexPosition"*** %66, metadata !5693, metadata !DIExpression()), !dbg !6333
  %67 = alloca %"struct.std::__1::__compressed_pair_elem"*, align 8
  call void @llvm.dbg.declare(metadata %"struct.std::__1::__compressed_pair_elem"** %67, metadata !5721, metadata !DIExpression()), !dbg !6338
  %68 = alloca %"struct.altered_carbon::js::ACLexPosition"**, align 8
  call void @llvm.dbg.declare(metadata %"struct.altered_carbon::js::ACLexPosition"*** %68, metadata !5723, metadata !DIExpression()), !dbg !6339
  %69 = alloca %"struct.std::__1::default_delete"*, align 8
  call void @llvm.dbg.declare(metadata %"struct.std::__1::default_delete"** %69, metadata !5682, metadata !DIExpression()), !dbg !6340
  %70 = alloca %"struct.std::__1::default_delete"*, align 8
  call void @llvm.dbg.declare(metadata %"struct.std::__1::default_delete"** %70, metadata !5682, metadata !DIExpression()), !dbg !6342
  %71 = alloca %"struct.std::__1::__compressed_pair_elem.0"*, align 8
  call void @llvm.dbg.declare(metadata %"struct.std::__1::__compressed_pair_elem.0"** %71, metadata !5736, metadata !DIExpression()), !dbg !6345
  %72 = alloca %"struct.std::__1::default_delete"*, align 8
  call void @llvm.dbg.declare(metadata %"struct.std::__1::default_delete"** %72, metadata !5738, metadata !DIExpression()), !dbg !6346
  %73 = alloca %"struct.altered_carbon::js::ACLexPosition"**, align 8
  call void @llvm.dbg.declare(metadata %"struct.altered_carbon::js::ACLexPosition"*** %73, metadata !5693, metadata !DIExpression()), !dbg !6347
  %74 = alloca %"class.std::__1::__compressed_pair"*, align 8
  call void @llvm.dbg.declare(metadata %"class.std::__1::__compressed_pair"** %74, metadata !5742, metadata !DIExpression()), !dbg !6349
  %75 = alloca %"struct.altered_carbon::js::ACLexPosition"**, align 8
  call void @llvm.dbg.declare(metadata %"struct.altered_carbon::js::ACLexPosition"*** %75, metadata !5744, metadata !DIExpression()), !dbg !6350
  %76 = alloca %"struct.std::__1::default_delete"*, align 8
  call void @llvm.dbg.declare(metadata %"struct.std::__1::default_delete"** %76, metadata !5746, metadata !DIExpression()), !dbg !6351
  %77 = alloca %"class.std::__1::__compressed_pair"*, align 8
  call void @llvm.dbg.declare(metadata %"class.std::__1::__compressed_pair"** %77, metadata !5748, metadata !DIExpression()), !dbg !6352
  %78 = alloca %"struct.altered_carbon::js::ACLexPosition"**, align 8
  call void @llvm.dbg.declare(metadata %"struct.altered_carbon::js::ACLexPosition"*** %78, metadata !5750, metadata !DIExpression()), !dbg !6353
  %79 = alloca %"struct.std::__1::default_delete"*, align 8
  call void @llvm.dbg.declare(metadata %"struct.std::__1::default_delete"** %79, metadata !5752, metadata !DIExpression()), !dbg !6354
  %80 = alloca %"struct.std::__1::__compressed_pair_elem"*, align 8
  call void @llvm.dbg.declare(metadata %"struct.std::__1::__compressed_pair_elem"** %80, metadata !5636, metadata !DIExpression()), !dbg !6355
  %81 = alloca %"class.std::__1::__compressed_pair"*, align 8
  call void @llvm.dbg.declare(metadata %"class.std::__1::__compressed_pair"** %81, metadata !5643, metadata !DIExpression()), !dbg !6359
  %82 = alloca %"struct.std::__1::__compressed_pair_elem"*, align 8
  call void @llvm.dbg.declare(metadata %"struct.std::__1::__compressed_pair_elem"** %82, metadata !5636, metadata !DIExpression()), !dbg !6360
  %83 = alloca %"class.std::__1::__compressed_pair"*, align 8
  call void @llvm.dbg.declare(metadata %"class.std::__1::__compressed_pair"** %83, metadata !5643, metadata !DIExpression()), !dbg !6363
  %84 = alloca %"class.std::__1::unique_ptr"*, align 8
  call void @llvm.dbg.declare(metadata %"class.std::__1::unique_ptr"** %84, metadata !5764, metadata !DIExpression()), !dbg !6364
  %85 = alloca %"struct.altered_carbon::js::ACLexPosition"*, align 8
  call void @llvm.dbg.declare(metadata %"struct.altered_carbon::js::ACLexPosition"** %85, metadata !5766, metadata !DIExpression()), !dbg !6365
  %86 = alloca %"class.std::__1::unique_ptr"*, align 8
  call void @llvm.dbg.declare(metadata %"class.std::__1::unique_ptr"** %86, metadata !5768, metadata !DIExpression()), !dbg !6366
  %87 = alloca %"class.std::__1::unique_ptr"*, align 8
  call void @llvm.dbg.declare(metadata %"class.std::__1::unique_ptr"** %87, metadata !5770, metadata !DIExpression()), !dbg !6367
  %88 = alloca %"struct.altered_carbon::js::ACLexPosition"*, align 8
  %89 = alloca %"class.std::__1::unique_ptr"*, align 8
  call void @llvm.dbg.declare(metadata %"class.std::__1::unique_ptr"** %89, metadata !5772, metadata !DIExpression()), !dbg !6368
  %90 = alloca %"class.std::__1::unique_ptr"*, align 8
  call void @llvm.dbg.declare(metadata %"class.std::__1::unique_ptr"** %90, metadata !5774, metadata !DIExpression()), !dbg !6369
  %91 = alloca %"struct.std::__1::__compressed_pair_elem.9"*, align 8
  call void @llvm.dbg.declare(metadata %"struct.std::__1::__compressed_pair_elem.9"** %91, metadata !5776, metadata !DIExpression()), !dbg !6370
  %92 = alloca %"class.std::__1::__compressed_pair.7"*, align 8
  call void @llvm.dbg.declare(metadata %"class.std::__1::__compressed_pair.7"** %92, metadata !5789, metadata !DIExpression()), !dbg !6375
  %93 = alloca %"class.std::__1::__vector_base"*, align 8
  call void @llvm.dbg.declare(metadata %"class.std::__1::__vector_base"** %93, metadata !5792, metadata !DIExpression()), !dbg !6376
  %94 = alloca %"class.std::__1::unique_ptr.1"*, align 8
  call void @llvm.dbg.declare(metadata %"class.std::__1::unique_ptr.1"** %94, metadata !5795, metadata !DIExpression()), !dbg !6377
  %95 = alloca %"class.std::__1::unique_ptr.1"*, align 8
  call void @llvm.dbg.declare(metadata %"class.std::__1::unique_ptr.1"** %95, metadata !5607, metadata !DIExpression()), !dbg !6379
  %96 = alloca %"struct.std::__1::__compressed_pair_elem.4"*, align 8
  call void @llvm.dbg.declare(metadata %"struct.std::__1::__compressed_pair_elem.4"** %96, metadata !5452, metadata !DIExpression()), !dbg !6381
  %97 = alloca %"class.std::__1::__compressed_pair.2"*, align 8
  call void @llvm.dbg.declare(metadata %"class.std::__1::__compressed_pair.2"** %97, metadata !5465, metadata !DIExpression()), !dbg !6390
  %98 = alloca %"class.std::__1::unique_ptr.1"*, align 8
  call void @llvm.dbg.declare(metadata %"class.std::__1::unique_ptr.1"** %98, metadata !5468, metadata !DIExpression()), !dbg !6391
  %99 = alloca %"struct.std::__1::default_delete.5"*, align 8
  call void @llvm.dbg.declare(metadata %"struct.std::__1::default_delete.5"** %99, metadata !5470, metadata !DIExpression()), !dbg !6392
  %100 = alloca %"class.altered_carbon::js::ACAstBaseNode"**, align 8
  call void @llvm.dbg.declare(metadata %"class.altered_carbon::js::ACAstBaseNode"*** %100, metadata !5481, metadata !DIExpression()), !dbg !6394
  %101 = alloca %"struct.std::__1::__compressed_pair_elem.3"*, align 8
  call void @llvm.dbg.declare(metadata %"struct.std::__1::__compressed_pair_elem.3"** %101, metadata !5510, metadata !DIExpression()), !dbg !6399
  %102 = alloca %"class.altered_carbon::js::ACAstBaseNode"**, align 8
  call void @llvm.dbg.declare(metadata %"class.altered_carbon::js::ACAstBaseNode"*** %102, metadata !5513, metadata !DIExpression()), !dbg !6400
  %103 = alloca %"struct.std::__1::default_delete.5"*, align 8
  call void @llvm.dbg.declare(metadata %"struct.std::__1::default_delete.5"** %103, metadata !5470, metadata !DIExpression()), !dbg !6401
  %104 = alloca %"struct.std::__1::default_delete.5"*, align 8
  call void @llvm.dbg.declare(metadata %"struct.std::__1::default_delete.5"** %104, metadata !5470, metadata !DIExpression()), !dbg !6403
  %105 = alloca %"struct.std::__1::__compressed_pair_elem.4"*, align 8
  call void @llvm.dbg.declare(metadata %"struct.std::__1::__compressed_pair_elem.4"** %105, metadata !5526, metadata !DIExpression()), !dbg !6406
  %106 = alloca %"struct.std::__1::default_delete.5"*, align 8
  call void @llvm.dbg.declare(metadata %"struct.std::__1::default_delete.5"** %106, metadata !5528, metadata !DIExpression()), !dbg !6407
  %107 = alloca %"class.altered_carbon::js::ACAstBaseNode"**, align 8
  call void @llvm.dbg.declare(metadata %"class.altered_carbon::js::ACAstBaseNode"*** %107, metadata !5481, metadata !DIExpression()), !dbg !6408
  %108 = alloca %"class.std::__1::__compressed_pair.2"*, align 8
  call void @llvm.dbg.declare(metadata %"class.std::__1::__compressed_pair.2"** %108, metadata !5532, metadata !DIExpression()), !dbg !6410
  %109 = alloca %"class.altered_carbon::js::ACAstBaseNode"**, align 8
  call void @llvm.dbg.declare(metadata %"class.altered_carbon::js::ACAstBaseNode"*** %109, metadata !5534, metadata !DIExpression()), !dbg !6411
  %110 = alloca %"struct.std::__1::default_delete.5"*, align 8
  call void @llvm.dbg.declare(metadata %"struct.std::__1::default_delete.5"** %110, metadata !5536, metadata !DIExpression()), !dbg !6412
  %111 = alloca %"class.std::__1::__compressed_pair.2"*, align 8
  call void @llvm.dbg.declare(metadata %"class.std::__1::__compressed_pair.2"** %111, metadata !5538, metadata !DIExpression()), !dbg !6413
  %112 = alloca %"class.altered_carbon::js::ACAstBaseNode"**, align 8
  call void @llvm.dbg.declare(metadata %"class.altered_carbon::js::ACAstBaseNode"*** %112, metadata !5540, metadata !DIExpression()), !dbg !6414
  %113 = alloca %"struct.std::__1::default_delete.5"*, align 8
  call void @llvm.dbg.declare(metadata %"struct.std::__1::default_delete.5"** %113, metadata !5542, metadata !DIExpression()), !dbg !6415
  %114 = alloca %"struct.std::__1::__compressed_pair_elem.3"*, align 8
  call void @llvm.dbg.declare(metadata %"struct.std::__1::__compressed_pair_elem.3"** %114, metadata !5544, metadata !DIExpression()), !dbg !6416
  %115 = alloca %"class.std::__1::__compressed_pair.2"*, align 8
  call void @llvm.dbg.declare(metadata %"class.std::__1::__compressed_pair.2"** %115, metadata !5552, metadata !DIExpression()), !dbg !6420
  %116 = alloca %"struct.std::__1::__compressed_pair_elem.3"*, align 8
  call void @llvm.dbg.declare(metadata %"struct.std::__1::__compressed_pair_elem.3"** %116, metadata !5544, metadata !DIExpression()), !dbg !6421
  %117 = alloca %"class.std::__1::__compressed_pair.2"*, align 8
  call void @llvm.dbg.declare(metadata %"class.std::__1::__compressed_pair.2"** %117, metadata !5552, metadata !DIExpression()), !dbg !6424
  %118 = alloca %"class.std::__1::unique_ptr.1"*, align 8
  call void @llvm.dbg.declare(metadata %"class.std::__1::unique_ptr.1"** %118, metadata !5558, metadata !DIExpression()), !dbg !6425
  %119 = alloca %"class.altered_carbon::js::ACAstBaseNode"*, align 8
  call void @llvm.dbg.declare(metadata %"class.altered_carbon::js::ACAstBaseNode"** %119, metadata !5560, metadata !DIExpression()), !dbg !6426
  %120 = alloca %"class.std::__1::unique_ptr.1"*, align 8
  call void @llvm.dbg.declare(metadata %"class.std::__1::unique_ptr.1"** %120, metadata !5562, metadata !DIExpression()), !dbg !6427
  %121 = alloca %"class.std::__1::unique_ptr.1"*, align 8
  call void @llvm.dbg.declare(metadata %"class.std::__1::unique_ptr.1"** %121, metadata !5564, metadata !DIExpression()), !dbg !6428
  %122 = alloca %"class.altered_carbon::js::ACAstBaseNode"*, align 8
  %123 = alloca %"class.std::__1::unique_ptr.1"*, align 8
  call void @llvm.dbg.declare(metadata %"class.std::__1::unique_ptr.1"** %123, metadata !5566, metadata !DIExpression()), !dbg !6429
  %124 = alloca %"class.std::__1::unique_ptr.1"*, align 8
  call void @llvm.dbg.declare(metadata %"class.std::__1::unique_ptr.1"** %124, metadata !5568, metadata !DIExpression()), !dbg !6430
  %125 = alloca %"class.std::__1::unique_ptr.1"*, align 8
  call void @llvm.dbg.declare(metadata %"class.std::__1::unique_ptr.1"** %125, metadata !5871, metadata !DIExpression()), !dbg !6431
  %126 = alloca %"class.std::__1::allocator"*, align 8
  call void @llvm.dbg.declare(metadata %"class.std::__1::allocator"** %126, metadata !5880, metadata !DIExpression()), !dbg !6433
  %127 = alloca %"class.std::__1::unique_ptr.1"*, align 8
  call void @llvm.dbg.declare(metadata %"class.std::__1::unique_ptr.1"** %127, metadata !5883, metadata !DIExpression()), !dbg !6434
  %128 = alloca %"class.std::__1::unique_ptr.1"*, align 8
  call void @llvm.dbg.declare(metadata %"class.std::__1::unique_ptr.1"** %128, metadata !5885, metadata !DIExpression()), !dbg !6435
  %129 = alloca %"class.std::__1::unique_ptr.1"*, align 8
  call void @llvm.dbg.declare(metadata %"class.std::__1::unique_ptr.1"** %129, metadata !5871, metadata !DIExpression()), !dbg !6436
  %130 = alloca %"class.std::__1::allocator"*, align 8
  call void @llvm.dbg.declare(metadata %"class.std::__1::allocator"** %130, metadata !5889, metadata !DIExpression()), !dbg !6438
  %131 = alloca %"class.std::__1::unique_ptr.1"*, align 8
  call void @llvm.dbg.declare(metadata %"class.std::__1::unique_ptr.1"** %131, metadata !5891, metadata !DIExpression()), !dbg !6439
  %132 = alloca %"class.std::__1::unique_ptr.1"*, align 8
  call void @llvm.dbg.declare(metadata %"class.std::__1::unique_ptr.1"** %132, metadata !5893, metadata !DIExpression()), !dbg !6440
  %133 = alloca %"class.std::__1::unique_ptr.1"*, align 8
  call void @llvm.dbg.declare(metadata %"class.std::__1::unique_ptr.1"** %133, metadata !5871, metadata !DIExpression()), !dbg !6441
  %134 = alloca %"class.std::__1::allocator"*, align 8
  call void @llvm.dbg.declare(metadata %"class.std::__1::allocator"** %134, metadata !5897, metadata !DIExpression()), !dbg !6443
  %135 = alloca %"class.std::__1::unique_ptr.1"*, align 8
  call void @llvm.dbg.declare(metadata %"class.std::__1::unique_ptr.1"** %135, metadata !5899, metadata !DIExpression()), !dbg !6444
  %136 = alloca %"class.std::__1::unique_ptr.1"*, align 8
  call void @llvm.dbg.declare(metadata %"class.std::__1::unique_ptr.1"** %136, metadata !5901, metadata !DIExpression()), !dbg !6445
  %137 = alloca %"struct.std::__1::__has_construct", align 1
  %138 = alloca %"struct.std::__1::vector<std::__1::unique_ptr<altered_carbon::js::ACAstBaseNode, std::__1::default_delete<altered_carbon::js::ACAstBaseNode> >, std::__1::allocator<std::__1::unique_ptr<altered_carbon::js::ACAstBaseNode, std::__1::default_delete<altered_carbon::js::ACAstBaseNode> > > >::__RAII_IncreaseAnnotator"*, align 8
  call void @llvm.dbg.declare(metadata %"struct.std::__1::vector<std::__1::unique_ptr<altered_carbon::js::ACAstBaseNode, std::__1::default_delete<altered_carbon::js::ACAstBaseNode> >, std::__1::allocator<std::__1::unique_ptr<altered_carbon::js::ACAstBaseNode, std::__1::default_delete<altered_carbon::js::ACAstBaseNode> > > >::__RAII_IncreaseAnnotator"** %138, metadata !5903, metadata !DIExpression()), !dbg !6446
  %139 = alloca %"class.std::__1::unique_ptr.1"*, align 8
  call void @llvm.dbg.declare(metadata %"class.std::__1::unique_ptr.1"** %139, metadata !5607, metadata !DIExpression()), !dbg !6448
  %140 = alloca %"struct.std::__1::vector<std::__1::unique_ptr<altered_carbon::js::ACAstBaseNode, std::__1::default_delete<altered_carbon::js::ACAstBaseNode> >, std::__1::allocator<std::__1::unique_ptr<altered_carbon::js::ACAstBaseNode, std::__1::default_delete<altered_carbon::js::ACAstBaseNode> > > >::__RAII_IncreaseAnnotator"*, align 8
  call void @llvm.dbg.declare(metadata %"struct.std::__1::vector<std::__1::unique_ptr<altered_carbon::js::ACAstBaseNode, std::__1::default_delete<altered_carbon::js::ACAstBaseNode> >, std::__1::allocator<std::__1::unique_ptr<altered_carbon::js::ACAstBaseNode, std::__1::default_delete<altered_carbon::js::ACAstBaseNode> > > >::__RAII_IncreaseAnnotator"** %140, metadata !5919, metadata !DIExpression()), !dbg !6450
  %141 = alloca %"class.std::__1::vector"*, align 8
  call void @llvm.dbg.declare(metadata %"class.std::__1::vector"** %141, metadata !5925, metadata !DIExpression()), !dbg !6453
  %142 = alloca i64, align 8
  call void @llvm.dbg.declare(metadata i64* %142, metadata !5927, metadata !DIExpression()), !dbg !6454
  %143 = alloca %"struct.std::__1::vector<std::__1::unique_ptr<altered_carbon::js::ACAstBaseNode, std::__1::default_delete<altered_carbon::js::ACAstBaseNode> >, std::__1::allocator<std::__1::unique_ptr<altered_carbon::js::ACAstBaseNode, std::__1::default_delete<altered_carbon::js::ACAstBaseNode> > > >::__RAII_IncreaseAnnotator"*, align 8
  call void @llvm.dbg.declare(metadata %"struct.std::__1::vector<std::__1::unique_ptr<altered_carbon::js::ACAstBaseNode, std::__1::default_delete<altered_carbon::js::ACAstBaseNode> >, std::__1::allocator<std::__1::unique_ptr<altered_carbon::js::ACAstBaseNode, std::__1::default_delete<altered_carbon::js::ACAstBaseNode> > > >::__RAII_IncreaseAnnotator"** %143, metadata !5929, metadata !DIExpression()), !dbg !6455
  %144 = alloca %"class.std::__1::vector"*, align 8
  call void @llvm.dbg.declare(metadata %"class.std::__1::vector"** %144, metadata !5931, metadata !DIExpression()), !dbg !6456
  %145 = alloca i64, align 8
  call void @llvm.dbg.declare(metadata i64* %145, metadata !5933, metadata !DIExpression()), !dbg !6457
  %146 = alloca %"struct.std::__1::__compressed_pair_elem.8"*, align 8
  call void @llvm.dbg.declare(metadata %"struct.std::__1::__compressed_pair_elem.8"** %146, metadata !5935, metadata !DIExpression()), !dbg !6458
  %147 = alloca %"class.std::__1::__compressed_pair.7"*, align 8
  call void @llvm.dbg.declare(metadata %"class.std::__1::__compressed_pair.7"** %147, metadata !5944, metadata !DIExpression()), !dbg !6462
  %148 = alloca %"class.std::__1::__vector_base"*, align 8
  call void @llvm.dbg.declare(metadata %"class.std::__1::__vector_base"** %148, metadata !5946, metadata !DIExpression()), !dbg !6463
  %149 = alloca %"class.std::__1::vector"*, align 8
  call void @llvm.dbg.declare(metadata %"class.std::__1::vector"** %149, metadata !5948, metadata !DIExpression()), !dbg !6464
  %150 = alloca %"class.std::__1::unique_ptr.1"*, align 8
  call void @llvm.dbg.declare(metadata %"class.std::__1::unique_ptr.1"** %150, metadata !5951, metadata !DIExpression()), !dbg !6465
  %151 = alloca %"struct.std::__1::vector<std::__1::unique_ptr<altered_carbon::js::ACAstBaseNode, std::__1::default_delete<altered_carbon::js::ACAstBaseNode> >, std::__1::allocator<std::__1::unique_ptr<altered_carbon::js::ACAstBaseNode, std::__1::default_delete<altered_carbon::js::ACAstBaseNode> > > >::__RAII_IncreaseAnnotator", align 1
  call void @llvm.dbg.declare(metadata %"struct.std::__1::vector<std::__1::unique_ptr<altered_carbon::js::ACAstBaseNode, std::__1::default_delete<altered_carbon::js::ACAstBaseNode> >, std::__1::allocator<std::__1::unique_ptr<altered_carbon::js::ACAstBaseNode, std::__1::default_delete<altered_carbon::js::ACAstBaseNode> > > >::__RAII_IncreaseAnnotator"* %151, metadata !5953, metadata !DIExpression()), !dbg !6466
  %152 = alloca %"class.std::__1::unique_ptr"*, align 8
  call void @llvm.dbg.declare(metadata %"class.std::__1::unique_ptr"** %152, metadata !5955, metadata !DIExpression()), !dbg !6467
  %153 = alloca %"class.altered_carbon::js::ACAstRuntimeMemberRef"*, align 8
  %154 = alloca %"class.std::__1::unique_ptr", align 8
  %155 = alloca %"class.std::__1::unique_ptr.1", align 8
  store %"class.altered_carbon::js::ACAstRuntimeMemberRef"* %0, %"class.altered_carbon::js::ACAstRuntimeMemberRef"** %153, align 8
  call void @llvm.dbg.declare(metadata %"class.altered_carbon::js::ACAstRuntimeMemberRef"** %153, metadata !6469, metadata !DIExpression()), !dbg !6471
  call void @llvm.dbg.declare(metadata %"class.std::__1::unique_ptr"* %1, metadata !6472, metadata !DIExpression()), !dbg !6473
  call void @llvm.dbg.declare(metadata %"class.std::__1::unique_ptr.1"* %2, metadata !6474, metadata !DIExpression()), !dbg !6475
  call void @llvm.dbg.declare(metadata %"class.std::__1::unique_ptr.1"* %3, metadata !6476, metadata !DIExpression()), !dbg !6477
  %156 = load %"class.altered_carbon::js::ACAstRuntimeMemberRef"*, %"class.altered_carbon::js::ACAstRuntimeMemberRef"** %153, align 8
  %157 = bitcast %"class.altered_carbon::js::ACAstRuntimeMemberRef"* %156 to %"class.altered_carbon::js::ACAstExpressionNode"*, !dbg !6478
  store %"class.std::__1::unique_ptr"* %1, %"class.std::__1::unique_ptr"** %152, align 8
  %158 = load %"class.std::__1::unique_ptr"*, %"class.std::__1::unique_ptr"** %152, align 8, !dbg !6479
  store %"class.std::__1::unique_ptr"* %154, %"class.std::__1::unique_ptr"** %89, align 8
  store %"class.std::__1::unique_ptr"* %158, %"class.std::__1::unique_ptr"** %90, align 8
  %159 = load %"class.std::__1::unique_ptr"*, %"class.std::__1::unique_ptr"** %89, align 8
  %160 = load %"class.std::__1::unique_ptr"*, %"class.std::__1::unique_ptr"** %90, align 8, !dbg !6480
  store %"class.std::__1::unique_ptr"* %159, %"class.std::__1::unique_ptr"** %86, align 8
  store %"class.std::__1::unique_ptr"* %160, %"class.std::__1::unique_ptr"** %87, align 8
  %161 = load %"class.std::__1::unique_ptr"*, %"class.std::__1::unique_ptr"** %86, align 8
  %162 = getelementptr inbounds %"class.std::__1::unique_ptr", %"class.std::__1::unique_ptr"* %161, i32 0, i32 0, !dbg !6481
  %163 = load %"class.std::__1::unique_ptr"*, %"class.std::__1::unique_ptr"** %87, align 8, !dbg !6482
  store %"class.std::__1::unique_ptr"* %163, %"class.std::__1::unique_ptr"** %84, align 8
  %164 = load %"class.std::__1::unique_ptr"*, %"class.std::__1::unique_ptr"** %84, align 8
  %165 = getelementptr inbounds %"class.std::__1::unique_ptr", %"class.std::__1::unique_ptr"* %164, i32 0, i32 0, !dbg !6483
  store %"class.std::__1::__compressed_pair"* %165, %"class.std::__1::__compressed_pair"** %83, align 8
  %166 = load %"class.std::__1::__compressed_pair"*, %"class.std::__1::__compressed_pair"** %83, align 8
  %167 = bitcast %"class.std::__1::__compressed_pair"* %166 to %"struct.std::__1::__compressed_pair_elem"*, !dbg !6484
  store %"struct.std::__1::__compressed_pair_elem"* %167, %"struct.std::__1::__compressed_pair_elem"** %82, align 8
  %168 = load %"struct.std::__1::__compressed_pair_elem"*, %"struct.std::__1::__compressed_pair_elem"** %82, align 8
  %169 = getelementptr inbounds %"struct.std::__1::__compressed_pair_elem", %"struct.std::__1::__compressed_pair_elem"* %168, i32 0, i32 0, !dbg !6485
  %170 = load %"struct.altered_carbon::js::ACLexPosition"*, %"struct.altered_carbon::js::ACLexPosition"** %169, align 8, !dbg !6486
  store %"struct.altered_carbon::js::ACLexPosition"* %170, %"struct.altered_carbon::js::ACLexPosition"** %85, align 8, !dbg !6365
  %171 = getelementptr inbounds %"class.std::__1::unique_ptr", %"class.std::__1::unique_ptr"* %164, i32 0, i32 0, !dbg !6487
  store %"class.std::__1::__compressed_pair"* %171, %"class.std::__1::__compressed_pair"** %81, align 8
  %172 = load %"class.std::__1::__compressed_pair"*, %"class.std::__1::__compressed_pair"** %81, align 8
  %173 = bitcast %"class.std::__1::__compressed_pair"* %172 to %"struct.std::__1::__compressed_pair_elem"*, !dbg !6488
  store %"struct.std::__1::__compressed_pair_elem"* %173, %"struct.std::__1::__compressed_pair_elem"** %80, align 8
  %174 = load %"struct.std::__1::__compressed_pair_elem"*, %"struct.std::__1::__compressed_pair_elem"** %80, align 8
  %175 = getelementptr inbounds %"struct.std::__1::__compressed_pair_elem", %"struct.std::__1::__compressed_pair_elem"* %174, i32 0, i32 0, !dbg !6489
  store %"struct.altered_carbon::js::ACLexPosition"* null, %"struct.altered_carbon::js::ACLexPosition"** %175, align 8, !dbg !6490
  %176 = load %"struct.altered_carbon::js::ACLexPosition"*, %"struct.altered_carbon::js::ACLexPosition"** %85, align 8, !dbg !6491
  store %"struct.altered_carbon::js::ACLexPosition"* %176, %"struct.altered_carbon::js::ACLexPosition"** %88, align 8, !dbg !6482
  %177 = load %"class.std::__1::unique_ptr"*, %"class.std::__1::unique_ptr"** %87, align 8, !dbg !6492
  store %"class.std::__1::unique_ptr"* %177, %"class.std::__1::unique_ptr"** %64, align 8
  %178 = load %"class.std::__1::unique_ptr"*, %"class.std::__1::unique_ptr"** %64, align 8
  %179 = getelementptr inbounds %"class.std::__1::unique_ptr", %"class.std::__1::unique_ptr"* %178, i32 0, i32 0, !dbg !6493
  store %"class.std::__1::__compressed_pair"* %179, %"class.std::__1::__compressed_pair"** %63, align 8
  %180 = load %"class.std::__1::__compressed_pair"*, %"class.std::__1::__compressed_pair"** %63, align 8
  %181 = bitcast %"class.std::__1::__compressed_pair"* %180 to %"struct.std::__1::__compressed_pair_elem.0"*, !dbg !6494
  store %"struct.std::__1::__compressed_pair_elem.0"* %181, %"struct.std::__1::__compressed_pair_elem.0"** %62, align 8
  %182 = load %"struct.std::__1::__compressed_pair_elem.0"*, %"struct.std::__1::__compressed_pair_elem.0"** %62, align 8
  %183 = bitcast %"struct.std::__1::__compressed_pair_elem.0"* %182 to %"struct.std::__1::default_delete"*, !dbg !6495
  store %"struct.std::__1::default_delete"* %183, %"struct.std::__1::default_delete"** %65, align 8
  %184 = load %"struct.std::__1::default_delete"*, %"struct.std::__1::default_delete"** %65, align 8, !dbg !6496
  store %"class.std::__1::__compressed_pair"* %162, %"class.std::__1::__compressed_pair"** %77, align 8
  store %"struct.altered_carbon::js::ACLexPosition"** %88, %"struct.altered_carbon::js::ACLexPosition"*** %78, align 8
  store %"struct.std::__1::default_delete"* %184, %"struct.std::__1::default_delete"** %79, align 8
  %185 = load %"class.std::__1::__compressed_pair"*, %"class.std::__1::__compressed_pair"** %77, align 8
  %186 = load %"struct.altered_carbon::js::ACLexPosition"**, %"struct.altered_carbon::js::ACLexPosition"*** %78, align 8, !dbg !6497
  %187 = load %"struct.std::__1::default_delete"*, %"struct.std::__1::default_delete"** %79, align 8, !dbg !6497
  store %"class.std::__1::__compressed_pair"* %185, %"class.std::__1::__compressed_pair"** %74, align 8
  store %"struct.altered_carbon::js::ACLexPosition"** %186, %"struct.altered_carbon::js::ACLexPosition"*** %75, align 8
  store %"struct.std::__1::default_delete"* %187, %"struct.std::__1::default_delete"** %76, align 8
  %188 = load %"class.std::__1::__compressed_pair"*, %"class.std::__1::__compressed_pair"** %74, align 8
  %189 = bitcast %"class.std::__1::__compressed_pair"* %188 to %"struct.std::__1::__compressed_pair_elem"*, !dbg !6498
  %190 = load %"struct.altered_carbon::js::ACLexPosition"**, %"struct.altered_carbon::js::ACLexPosition"*** %75, align 8, !dbg !6499
  store %"struct.altered_carbon::js::ACLexPosition"** %190, %"struct.altered_carbon::js::ACLexPosition"*** %73, align 8
  %191 = load %"struct.altered_carbon::js::ACLexPosition"**, %"struct.altered_carbon::js::ACLexPosition"*** %73, align 8, !dbg !6500
  store %"struct.std::__1::__compressed_pair_elem"* %189, %"struct.std::__1::__compressed_pair_elem"** %67, align 8
  store %"struct.altered_carbon::js::ACLexPosition"** %191, %"struct.altered_carbon::js::ACLexPosition"*** %68, align 8
  %192 = load %"struct.std::__1::__compressed_pair_elem"*, %"struct.std::__1::__compressed_pair_elem"** %67, align 8
  %193 = getelementptr inbounds %"struct.std::__1::__compressed_pair_elem", %"struct.std::__1::__compressed_pair_elem"* %192, i32 0, i32 0, !dbg !6501
  %194 = load %"struct.altered_carbon::js::ACLexPosition"**, %"struct.altered_carbon::js::ACLexPosition"*** %68, align 8, !dbg !6502
  store %"struct.altered_carbon::js::ACLexPosition"** %194, %"struct.altered_carbon::js::ACLexPosition"*** %66, align 8
  %195 = load %"struct.altered_carbon::js::ACLexPosition"**, %"struct.altered_carbon::js::ACLexPosition"*** %66, align 8, !dbg !6503
  %196 = load %"struct.altered_carbon::js::ACLexPosition"*, %"struct.altered_carbon::js::ACLexPosition"** %195, align 8, !dbg !6504
  store %"struct.altered_carbon::js::ACLexPosition"* %196, %"struct.altered_carbon::js::ACLexPosition"** %193, align 8, !dbg !6501
  %197 = bitcast %"class.std::__1::__compressed_pair"* %188 to %"struct.std::__1::__compressed_pair_elem.0"*, !dbg !6498
  %198 = load %"struct.std::__1::default_delete"*, %"struct.std::__1::default_delete"** %76, align 8, !dbg !6505
  store %"struct.std::__1::default_delete"* %198, %"struct.std::__1::default_delete"** %69, align 8
  %199 = load %"struct.std::__1::default_delete"*, %"struct.std::__1::default_delete"** %69, align 8, !dbg !6506
  store %"struct.std::__1::__compressed_pair_elem.0"* %197, %"struct.std::__1::__compressed_pair_elem.0"** %71, align 8
  store %"struct.std::__1::default_delete"* %199, %"struct.std::__1::default_delete"** %72, align 8
  %200 = load %"struct.std::__1::__compressed_pair_elem.0"*, %"struct.std::__1::__compressed_pair_elem.0"** %71, align 8
  %201 = bitcast %"struct.std::__1::__compressed_pair_elem.0"* %200 to %"struct.std::__1::default_delete"*, !dbg !6507
  %202 = load %"struct.std::__1::default_delete"*, %"struct.std::__1::default_delete"** %72, align 8, !dbg !6508
  store %"struct.std::__1::default_delete"* %202, %"struct.std::__1::default_delete"** %70, align 8
  %203 = load %"struct.std::__1::default_delete"*, %"struct.std::__1::default_delete"** %70, align 8, !dbg !6509
  store %"class.std::__1::unique_ptr.1"* %2, %"class.std::__1::unique_ptr.1"** %47, align 8
  %204 = load %"class.std::__1::unique_ptr.1"*, %"class.std::__1::unique_ptr.1"** %47, align 8, !dbg !6510
  store %"class.std::__1::unique_ptr.1"* %155, %"class.std::__1::unique_ptr.1"** %32, align 8
  store %"class.std::__1::unique_ptr.1"* %204, %"class.std::__1::unique_ptr.1"** %33, align 8
  %205 = load %"class.std::__1::unique_ptr.1"*, %"class.std::__1::unique_ptr.1"** %32, align 8
  %206 = load %"class.std::__1::unique_ptr.1"*, %"class.std::__1::unique_ptr.1"** %33, align 8, !dbg !6511
  store %"class.std::__1::unique_ptr.1"* %205, %"class.std::__1::unique_ptr.1"** %29, align 8
  store %"class.std::__1::unique_ptr.1"* %206, %"class.std::__1::unique_ptr.1"** %30, align 8
  %207 = load %"class.std::__1::unique_ptr.1"*, %"class.std::__1::unique_ptr.1"** %29, align 8
  %208 = getelementptr inbounds %"class.std::__1::unique_ptr.1", %"class.std::__1::unique_ptr.1"* %207, i32 0, i32 0, !dbg !6512
  %209 = load %"class.std::__1::unique_ptr.1"*, %"class.std::__1::unique_ptr.1"** %30, align 8, !dbg !6513
  store %"class.std::__1::unique_ptr.1"* %209, %"class.std::__1::unique_ptr.1"** %27, align 8
  %210 = load %"class.std::__1::unique_ptr.1"*, %"class.std::__1::unique_ptr.1"** %27, align 8
  %211 = getelementptr inbounds %"class.std::__1::unique_ptr.1", %"class.std::__1::unique_ptr.1"* %210, i32 0, i32 0, !dbg !6514
  store %"class.std::__1::__compressed_pair.2"* %211, %"class.std::__1::__compressed_pair.2"** %26, align 8
  %212 = load %"class.std::__1::__compressed_pair.2"*, %"class.std::__1::__compressed_pair.2"** %26, align 8
  %213 = bitcast %"class.std::__1::__compressed_pair.2"* %212 to %"struct.std::__1::__compressed_pair_elem.3"*, !dbg !6515
  store %"struct.std::__1::__compressed_pair_elem.3"* %213, %"struct.std::__1::__compressed_pair_elem.3"** %25, align 8
  %214 = load %"struct.std::__1::__compressed_pair_elem.3"*, %"struct.std::__1::__compressed_pair_elem.3"** %25, align 8
  %215 = getelementptr inbounds %"struct.std::__1::__compressed_pair_elem.3", %"struct.std::__1::__compressed_pair_elem.3"* %214, i32 0, i32 0, !dbg !6516
  %216 = load %"class.altered_carbon::js::ACAstBaseNode"*, %"class.altered_carbon::js::ACAstBaseNode"** %215, align 8, !dbg !6517
  store %"class.altered_carbon::js::ACAstBaseNode"* %216, %"class.altered_carbon::js::ACAstBaseNode"** %28, align 8, !dbg !6267
  %217 = getelementptr inbounds %"class.std::__1::unique_ptr.1", %"class.std::__1::unique_ptr.1"* %210, i32 0, i32 0, !dbg !6518
  store %"class.std::__1::__compressed_pair.2"* %217, %"class.std::__1::__compressed_pair.2"** %24, align 8
  %218 = load %"class.std::__1::__compressed_pair.2"*, %"class.std::__1::__compressed_pair.2"** %24, align 8
  %219 = bitcast %"class.std::__1::__compressed_pair.2"* %218 to %"struct.std::__1::__compressed_pair_elem.3"*, !dbg !6519
  store %"struct.std::__1::__compressed_pair_elem.3"* %219, %"struct.std::__1::__compressed_pair_elem.3"** %23, align 8
  %220 = load %"struct.std::__1::__compressed_pair_elem.3"*, %"struct.std::__1::__compressed_pair_elem.3"** %23, align 8
  %221 = getelementptr inbounds %"struct.std::__1::__compressed_pair_elem.3", %"struct.std::__1::__compressed_pair_elem.3"* %220, i32 0, i32 0, !dbg !6520
  store %"class.altered_carbon::js::ACAstBaseNode"* null, %"class.altered_carbon::js::ACAstBaseNode"** %221, align 8, !dbg !6521
  %222 = load %"class.altered_carbon::js::ACAstBaseNode"*, %"class.altered_carbon::js::ACAstBaseNode"** %28, align 8, !dbg !6522
  store %"class.altered_carbon::js::ACAstBaseNode"* %222, %"class.altered_carbon::js::ACAstBaseNode"** %31, align 8, !dbg !6513
  %223 = load %"class.std::__1::unique_ptr.1"*, %"class.std::__1::unique_ptr.1"** %30, align 8, !dbg !6523
  store %"class.std::__1::unique_ptr.1"* %223, %"class.std::__1::unique_ptr.1"** %7, align 8
  %224 = load %"class.std::__1::unique_ptr.1"*, %"class.std::__1::unique_ptr.1"** %7, align 8
  %225 = getelementptr inbounds %"class.std::__1::unique_ptr.1", %"class.std::__1::unique_ptr.1"* %224, i32 0, i32 0, !dbg !6524
  store %"class.std::__1::__compressed_pair.2"* %225, %"class.std::__1::__compressed_pair.2"** %6, align 8
  %226 = load %"class.std::__1::__compressed_pair.2"*, %"class.std::__1::__compressed_pair.2"** %6, align 8
  %227 = bitcast %"class.std::__1::__compressed_pair.2"* %226 to %"struct.std::__1::__compressed_pair_elem.4"*, !dbg !6525
  store %"struct.std::__1::__compressed_pair_elem.4"* %227, %"struct.std::__1::__compressed_pair_elem.4"** %5, align 8
  %228 = load %"struct.std::__1::__compressed_pair_elem.4"*, %"struct.std::__1::__compressed_pair_elem.4"** %5, align 8
  %229 = bitcast %"struct.std::__1::__compressed_pair_elem.4"* %228 to %"struct.std::__1::default_delete.5"*, !dbg !6526
  store %"struct.std::__1::default_delete.5"* %229, %"struct.std::__1::default_delete.5"** %8, align 8
  %230 = load %"struct.std::__1::default_delete.5"*, %"struct.std::__1::default_delete.5"** %8, align 8, !dbg !6527
  store %"class.std::__1::__compressed_pair.2"* %208, %"class.std::__1::__compressed_pair.2"** %20, align 8
  store %"class.altered_carbon::js::ACAstBaseNode"** %31, %"class.altered_carbon::js::ACAstBaseNode"*** %21, align 8
  store %"struct.std::__1::default_delete.5"* %230, %"struct.std::__1::default_delete.5"** %22, align 8
  %231 = load %"class.std::__1::__compressed_pair.2"*, %"class.std::__1::__compressed_pair.2"** %20, align 8
  %232 = load %"class.altered_carbon::js::ACAstBaseNode"**, %"class.altered_carbon::js::ACAstBaseNode"*** %21, align 8, !dbg !6528
  %233 = load %"struct.std::__1::default_delete.5"*, %"struct.std::__1::default_delete.5"** %22, align 8, !dbg !6528
  store %"class.std::__1::__compressed_pair.2"* %231, %"class.std::__1::__compressed_pair.2"** %17, align 8
  store %"class.altered_carbon::js::ACAstBaseNode"** %232, %"class.altered_carbon::js::ACAstBaseNode"*** %18, align 8
  store %"struct.std::__1::default_delete.5"* %233, %"struct.std::__1::default_delete.5"** %19, align 8
  %234 = load %"class.std::__1::__compressed_pair.2"*, %"class.std::__1::__compressed_pair.2"** %17, align 8
  %235 = bitcast %"class.std::__1::__compressed_pair.2"* %234 to %"struct.std::__1::__compressed_pair_elem.3"*, !dbg !6529
  %236 = load %"class.altered_carbon::js::ACAstBaseNode"**, %"class.altered_carbon::js::ACAstBaseNode"*** %18, align 8, !dbg !6530
  store %"class.altered_carbon::js::ACAstBaseNode"** %236, %"class.altered_carbon::js::ACAstBaseNode"*** %16, align 8
  %237 = load %"class.altered_carbon::js::ACAstBaseNode"**, %"class.altered_carbon::js::ACAstBaseNode"*** %16, align 8, !dbg !6531
  store %"struct.std::__1::__compressed_pair_elem.3"* %235, %"struct.std::__1::__compressed_pair_elem.3"** %10, align 8
  store %"class.altered_carbon::js::ACAstBaseNode"** %237, %"class.altered_carbon::js::ACAstBaseNode"*** %11, align 8
  %238 = load %"struct.std::__1::__compressed_pair_elem.3"*, %"struct.std::__1::__compressed_pair_elem.3"** %10, align 8
  %239 = getelementptr inbounds %"struct.std::__1::__compressed_pair_elem.3", %"struct.std::__1::__compressed_pair_elem.3"* %238, i32 0, i32 0, !dbg !6532
  %240 = load %"class.altered_carbon::js::ACAstBaseNode"**, %"class.altered_carbon::js::ACAstBaseNode"*** %11, align 8, !dbg !6533
  store %"class.altered_carbon::js::ACAstBaseNode"** %240, %"class.altered_carbon::js::ACAstBaseNode"*** %9, align 8
  %241 = load %"class.altered_carbon::js::ACAstBaseNode"**, %"class.altered_carbon::js::ACAstBaseNode"*** %9, align 8, !dbg !6534
  %242 = load %"class.altered_carbon::js::ACAstBaseNode"*, %"class.altered_carbon::js::ACAstBaseNode"** %241, align 8, !dbg !6535
  store %"class.altered_carbon::js::ACAstBaseNode"* %242, %"class.altered_carbon::js::ACAstBaseNode"** %239, align 8, !dbg !6532
  %243 = bitcast %"class.std::__1::__compressed_pair.2"* %234 to %"struct.std::__1::__compressed_pair_elem.4"*, !dbg !6529
  %244 = load %"struct.std::__1::default_delete.5"*, %"struct.std::__1::default_delete.5"** %19, align 8, !dbg !6536
  store %"struct.std::__1::default_delete.5"* %244, %"struct.std::__1::default_delete.5"** %12, align 8
  %245 = load %"struct.std::__1::default_delete.5"*, %"struct.std::__1::default_delete.5"** %12, align 8, !dbg !6537
  store %"struct.std::__1::__compressed_pair_elem.4"* %243, %"struct.std::__1::__compressed_pair_elem.4"** %14, align 8
  store %"struct.std::__1::default_delete.5"* %245, %"struct.std::__1::default_delete.5"** %15, align 8
  %246 = load %"struct.std::__1::__compressed_pair_elem.4"*, %"struct.std::__1::__compressed_pair_elem.4"** %14, align 8
  %247 = bitcast %"struct.std::__1::__compressed_pair_elem.4"* %246 to %"struct.std::__1::default_delete.5"*, !dbg !6538
  %248 = load %"struct.std::__1::default_delete.5"*, %"struct.std::__1::default_delete.5"** %15, align 8, !dbg !6539
  store %"struct.std::__1::default_delete.5"* %248, %"struct.std::__1::default_delete.5"** %13, align 8
  %249 = load %"struct.std::__1::default_delete.5"*, %"struct.std::__1::default_delete.5"** %13, align 8, !dbg !6540
  call void @_ZN14altered_carbon2js19ACAstExpressionNodeC2ENSt3__110unique_ptrINS0_13ACLexPositionENS2_14default_deleteIS4_EEEENS3_INS0_13ACAstBaseNodeENS5_IS8_EEEENS8_11AstNodeTypeENS8_14AstNodeSubTypeE(%"class.altered_carbon::js::ACAstExpressionNode"* %157, %"class.std::__1::unique_ptr"* %154, %"class.std::__1::unique_ptr.1"* %155, i32 9, i32 902), !dbg !6541
  store %"class.std::__1::unique_ptr.1"* %155, %"class.std::__1::unique_ptr.1"** %46, align 8
  %250 = load %"class.std::__1::unique_ptr.1"*, %"class.std::__1::unique_ptr.1"** %46, align 8
  store %"class.std::__1::unique_ptr.1"* %250, %"class.std::__1::unique_ptr.1"** %45, align 8
  %251 = load %"class.std::__1::unique_ptr.1"*, %"class.std::__1::unique_ptr.1"** %45, align 8
  store %"class.std::__1::unique_ptr.1"* %251, %"class.std::__1::unique_ptr.1"** %42, align 8
  store %"class.altered_carbon::js::ACAstBaseNode"* null, %"class.altered_carbon::js::ACAstBaseNode"** %43, align 8
  %252 = load %"class.std::__1::unique_ptr.1"*, %"class.std::__1::unique_ptr.1"** %42, align 8
  %253 = getelementptr inbounds %"class.std::__1::unique_ptr.1", %"class.std::__1::unique_ptr.1"* %252, i32 0, i32 0, !dbg !6542
  store %"class.std::__1::__compressed_pair.2"* %253, %"class.std::__1::__compressed_pair.2"** %41, align 8
  %254 = load %"class.std::__1::__compressed_pair.2"*, %"class.std::__1::__compressed_pair.2"** %41, align 8
  %255 = bitcast %"class.std::__1::__compressed_pair.2"* %254 to %"struct.std::__1::__compressed_pair_elem.3"*, !dbg !6543
  store %"struct.std::__1::__compressed_pair_elem.3"* %255, %"struct.std::__1::__compressed_pair_elem.3"** %40, align 8
  %256 = load %"struct.std::__1::__compressed_pair_elem.3"*, %"struct.std::__1::__compressed_pair_elem.3"** %40, align 8
  %257 = getelementptr inbounds %"struct.std::__1::__compressed_pair_elem.3", %"struct.std::__1::__compressed_pair_elem.3"* %256, i32 0, i32 0, !dbg !6544
  %258 = load %"class.altered_carbon::js::ACAstBaseNode"*, %"class.altered_carbon::js::ACAstBaseNode"** %257, align 8, !dbg !6545
  store %"class.altered_carbon::js::ACAstBaseNode"* %258, %"class.altered_carbon::js::ACAstBaseNode"** %44, align 8, !dbg !6292
  %259 = load %"class.altered_carbon::js::ACAstBaseNode"*, %"class.altered_carbon::js::ACAstBaseNode"** %43, align 8, !dbg !6546
  %260 = getelementptr inbounds %"class.std::__1::unique_ptr.1", %"class.std::__1::unique_ptr.1"* %252, i32 0, i32 0, !dbg !6547
  store %"class.std::__1::__compressed_pair.2"* %260, %"class.std::__1::__compressed_pair.2"** %37, align 8
  %261 = load %"class.std::__1::__compressed_pair.2"*, %"class.std::__1::__compressed_pair.2"** %37, align 8
  %262 = bitcast %"class.std::__1::__compressed_pair.2"* %261 to %"struct.std::__1::__compressed_pair_elem.3"*, !dbg !6548
  store %"struct.std::__1::__compressed_pair_elem.3"* %262, %"struct.std::__1::__compressed_pair_elem.3"** %36, align 8
  %263 = load %"struct.std::__1::__compressed_pair_elem.3"*, %"struct.std::__1::__compressed_pair_elem.3"** %36, align 8
  %264 = getelementptr inbounds %"struct.std::__1::__compressed_pair_elem.3", %"struct.std::__1::__compressed_pair_elem.3"* %263, i32 0, i32 0, !dbg !6549
  store %"class.altered_carbon::js::ACAstBaseNode"* %259, %"class.altered_carbon::js::ACAstBaseNode"** %264, align 8, !dbg !6550
  %265 = load %"class.altered_carbon::js::ACAstBaseNode"*, %"class.altered_carbon::js::ACAstBaseNode"** %44, align 8, !dbg !6551
  %266 = icmp ne %"class.altered_carbon::js::ACAstBaseNode"* %265, null, !dbg !6551
  br i1 %266, label %267, label %283, !dbg !6552

; <label>:267:                                    ; preds = %4
  %268 = getelementptr inbounds %"class.std::__1::unique_ptr.1", %"class.std::__1::unique_ptr.1"* %252, i32 0, i32 0, !dbg !6553
  store %"class.std::__1::__compressed_pair.2"* %268, %"class.std::__1::__compressed_pair.2"** %35, align 8
  %269 = load %"class.std::__1::__compressed_pair.2"*, %"class.std::__1::__compressed_pair.2"** %35, align 8
  %270 = bitcast %"class.std::__1::__compressed_pair.2"* %269 to %"struct.std::__1::__compressed_pair_elem.4"*, !dbg !6554
  store %"struct.std::__1::__compressed_pair_elem.4"* %270, %"struct.std::__1::__compressed_pair_elem.4"** %34, align 8
  %271 = load %"struct.std::__1::__compressed_pair_elem.4"*, %"struct.std::__1::__compressed_pair_elem.4"** %34, align 8
  %272 = bitcast %"struct.std::__1::__compressed_pair_elem.4"* %271 to %"struct.std::__1::default_delete.5"*, !dbg !6555
  %273 = load %"class.altered_carbon::js::ACAstBaseNode"*, %"class.altered_carbon::js::ACAstBaseNode"** %44, align 8, !dbg !6556
  store %"struct.std::__1::default_delete.5"* %272, %"struct.std::__1::default_delete.5"** %38, align 8
  store %"class.altered_carbon::js::ACAstBaseNode"* %273, %"class.altered_carbon::js::ACAstBaseNode"** %39, align 8
  %274 = load %"struct.std::__1::default_delete.5"*, %"struct.std::__1::default_delete.5"** %38, align 8
  %275 = load %"class.altered_carbon::js::ACAstBaseNode"*, %"class.altered_carbon::js::ACAstBaseNode"** %39, align 8, !dbg !6557
  %276 = icmp eq %"class.altered_carbon::js::ACAstBaseNode"* %275, null, !dbg !6558
  br i1 %276, label %282, label %277, !dbg !6558

; <label>:277:                                    ; preds = %267
  %278 = bitcast %"class.altered_carbon::js::ACAstBaseNode"* %275 to void (%"class.altered_carbon::js::ACAstBaseNode"*)***, !dbg !6558
  %279 = load void (%"class.altered_carbon::js::ACAstBaseNode"*)**, void (%"class.altered_carbon::js::ACAstBaseNode"*)*** %278, align 8, !dbg !6558
  %280 = getelementptr inbounds void (%"class.altered_carbon::js::ACAstBaseNode"*)*, void (%"class.altered_carbon::js::ACAstBaseNode"*)** %279, i64 1, !dbg !6558
  %281 = load void (%"class.altered_carbon::js::ACAstBaseNode"*)*, void (%"class.altered_carbon::js::ACAstBaseNode"*)** %280, align 8, !dbg !6558
  call void %281(%"class.altered_carbon::js::ACAstBaseNode"* %275) #8, !dbg !6558
  br label %282, !dbg !6558

; <label>:282:                                    ; preds = %277, %267
  br label %283, !dbg !6553

; <label>:283:                                    ; preds = %4, %282
  store %"class.std::__1::unique_ptr"* %154, %"class.std::__1::unique_ptr"** %60, align 8
  %284 = load %"class.std::__1::unique_ptr"*, %"class.std::__1::unique_ptr"** %60, align 8
  store %"class.std::__1::unique_ptr"* %284, %"class.std::__1::unique_ptr"** %59, align 8
  %285 = load %"class.std::__1::unique_ptr"*, %"class.std::__1::unique_ptr"** %59, align 8
  store %"class.std::__1::unique_ptr"* %285, %"class.std::__1::unique_ptr"** %56, align 8
  store %"struct.altered_carbon::js::ACLexPosition"* null, %"struct.altered_carbon::js::ACLexPosition"** %57, align 8
  %286 = load %"class.std::__1::unique_ptr"*, %"class.std::__1::unique_ptr"** %56, align 8
  %287 = getelementptr inbounds %"class.std::__1::unique_ptr", %"class.std::__1::unique_ptr"* %286, i32 0, i32 0, !dbg !6559
  store %"class.std::__1::__compressed_pair"* %287, %"class.std::__1::__compressed_pair"** %55, align 8
  %288 = load %"class.std::__1::__compressed_pair"*, %"class.std::__1::__compressed_pair"** %55, align 8
  %289 = bitcast %"class.std::__1::__compressed_pair"* %288 to %"struct.std::__1::__compressed_pair_elem"*, !dbg !6560
  store %"struct.std::__1::__compressed_pair_elem"* %289, %"struct.std::__1::__compressed_pair_elem"** %54, align 8
  %290 = load %"struct.std::__1::__compressed_pair_elem"*, %"struct.std::__1::__compressed_pair_elem"** %54, align 8
  %291 = getelementptr inbounds %"struct.std::__1::__compressed_pair_elem", %"struct.std::__1::__compressed_pair_elem"* %290, i32 0, i32 0, !dbg !6561
  %292 = load %"struct.altered_carbon::js::ACLexPosition"*, %"struct.altered_carbon::js::ACLexPosition"** %291, align 8, !dbg !6562
  store %"struct.altered_carbon::js::ACLexPosition"* %292, %"struct.altered_carbon::js::ACLexPosition"** %58, align 8, !dbg !6317
  %293 = load %"struct.altered_carbon::js::ACLexPosition"*, %"struct.altered_carbon::js::ACLexPosition"** %57, align 8, !dbg !6563
  %294 = getelementptr inbounds %"class.std::__1::unique_ptr", %"class.std::__1::unique_ptr"* %286, i32 0, i32 0, !dbg !6564
  store %"class.std::__1::__compressed_pair"* %294, %"class.std::__1::__compressed_pair"** %51, align 8
  %295 = load %"class.std::__1::__compressed_pair"*, %"class.std::__1::__compressed_pair"** %51, align 8
  %296 = bitcast %"class.std::__1::__compressed_pair"* %295 to %"struct.std::__1::__compressed_pair_elem"*, !dbg !6565
  store %"struct.std::__1::__compressed_pair_elem"* %296, %"struct.std::__1::__compressed_pair_elem"** %50, align 8
  %297 = load %"struct.std::__1::__compressed_pair_elem"*, %"struct.std::__1::__compressed_pair_elem"** %50, align 8
  %298 = getelementptr inbounds %"struct.std::__1::__compressed_pair_elem", %"struct.std::__1::__compressed_pair_elem"* %297, i32 0, i32 0, !dbg !6566
  store %"struct.altered_carbon::js::ACLexPosition"* %293, %"struct.altered_carbon::js::ACLexPosition"** %298, align 8, !dbg !6567
  %299 = load %"struct.altered_carbon::js::ACLexPosition"*, %"struct.altered_carbon::js::ACLexPosition"** %58, align 8, !dbg !6568
  %300 = icmp ne %"struct.altered_carbon::js::ACLexPosition"* %299, null, !dbg !6568
  br i1 %300, label %301, label %317, !dbg !6569

; <label>:301:                                    ; preds = %283
  %302 = getelementptr inbounds %"class.std::__1::unique_ptr", %"class.std::__1::unique_ptr"* %286, i32 0, i32 0, !dbg !6570
  store %"class.std::__1::__compressed_pair"* %302, %"class.std::__1::__compressed_pair"** %49, align 8
  %303 = load %"class.std::__1::__compressed_pair"*, %"class.std::__1::__compressed_pair"** %49, align 8
  %304 = bitcast %"class.std::__1::__compressed_pair"* %303 to %"struct.std::__1::__compressed_pair_elem.0"*, !dbg !6571
  store %"struct.std::__1::__compressed_pair_elem.0"* %304, %"struct.std::__1::__compressed_pair_elem.0"** %48, align 8
  %305 = load %"struct.std::__1::__compressed_pair_elem.0"*, %"struct.std::__1::__compressed_pair_elem.0"** %48, align 8
  %306 = bitcast %"struct.std::__1::__compressed_pair_elem.0"* %305 to %"struct.std::__1::default_delete"*, !dbg !6572
  %307 = load %"struct.altered_carbon::js::ACLexPosition"*, %"struct.altered_carbon::js::ACLexPosition"** %58, align 8, !dbg !6573
  store %"struct.std::__1::default_delete"* %306, %"struct.std::__1::default_delete"** %52, align 8
  store %"struct.altered_carbon::js::ACLexPosition"* %307, %"struct.altered_carbon::js::ACLexPosition"** %53, align 8
  %308 = load %"struct.std::__1::default_delete"*, %"struct.std::__1::default_delete"** %52, align 8
  %309 = load %"struct.altered_carbon::js::ACLexPosition"*, %"struct.altered_carbon::js::ACLexPosition"** %53, align 8, !dbg !6574
  %310 = icmp eq %"struct.altered_carbon::js::ACLexPosition"* %309, null, !dbg !6575
  br i1 %310, label %316, label %311, !dbg !6575

; <label>:311:                                    ; preds = %301
  %312 = bitcast %"struct.altered_carbon::js::ACLexPosition"* %309 to void (%"struct.altered_carbon::js::ACLexPosition"*)***, !dbg !6575
  %313 = load void (%"struct.altered_carbon::js::ACLexPosition"*)**, void (%"struct.altered_carbon::js::ACLexPosition"*)*** %312, align 8, !dbg !6575
  %314 = getelementptr inbounds void (%"struct.altered_carbon::js::ACLexPosition"*)*, void (%"struct.altered_carbon::js::ACLexPosition"*)** %313, i64 1, !dbg !6575
  %315 = load void (%"struct.altered_carbon::js::ACLexPosition"*)*, void (%"struct.altered_carbon::js::ACLexPosition"*)** %314, align 8, !dbg !6575
  call void %315(%"struct.altered_carbon::js::ACLexPosition"* %309) #8, !dbg !6575
  br label %316, !dbg !6575

; <label>:316:                                    ; preds = %311, %301
  br label %317, !dbg !6570

; <label>:317:                                    ; preds = %283, %316
  %318 = bitcast %"class.altered_carbon::js::ACAstRuntimeMemberRef"* %156 to i32 (...)***, !dbg !6478
  store i32 (...)** bitcast (i8** getelementptr inbounds ({ [14 x i8*] }, { [14 x i8*] }* @_ZTVN14altered_carbon2js21ACAstRuntimeMemberRefE, i32 0, inrange i32 0, i32 2) to i32 (...)**), i32 (...)*** %318, align 8, !dbg !6478
  %319 = bitcast %"class.altered_carbon::js::ACAstRuntimeMemberRef"* %156 to %"class.altered_carbon::js::ACAstBaseNode"*, !dbg !6576
  %320 = getelementptr inbounds %"class.altered_carbon::js::ACAstBaseNode", %"class.altered_carbon::js::ACAstBaseNode"* %319, i32 0, i32 4, !dbg !6576
  store %"class.std::__1::unique_ptr.1"* %3, %"class.std::__1::unique_ptr.1"** %61, align 8
  %321 = load %"class.std::__1::unique_ptr.1"*, %"class.std::__1::unique_ptr.1"** %61, align 8, !dbg !6577
  store %"class.std::__1::vector"* %320, %"class.std::__1::vector"** %149, align 8
  store %"class.std::__1::unique_ptr.1"* %321, %"class.std::__1::unique_ptr.1"** %150, align 8
  %322 = load %"class.std::__1::vector"*, %"class.std::__1::vector"** %149, align 8
  %323 = bitcast %"class.std::__1::vector"* %322 to %"class.std::__1::__vector_base"*, !dbg !6578
  %324 = getelementptr inbounds %"class.std::__1::__vector_base", %"class.std::__1::__vector_base"* %323, i32 0, i32 1, !dbg !6578
  %325 = load %"class.std::__1::unique_ptr.1"*, %"class.std::__1::unique_ptr.1"** %324, align 8, !dbg !6578
  %326 = bitcast %"class.std::__1::vector"* %322 to %"class.std::__1::__vector_base"*, !dbg !6579
  store %"class.std::__1::__vector_base"* %326, %"class.std::__1::__vector_base"** %148, align 8
  %327 = load %"class.std::__1::__vector_base"*, %"class.std::__1::__vector_base"** %148, align 8
  %328 = getelementptr inbounds %"class.std::__1::__vector_base", %"class.std::__1::__vector_base"* %327, i32 0, i32 2, !dbg !6580
  store %"class.std::__1::__compressed_pair.7"* %328, %"class.std::__1::__compressed_pair.7"** %147, align 8
  %329 = load %"class.std::__1::__compressed_pair.7"*, %"class.std::__1::__compressed_pair.7"** %147, align 8
  %330 = bitcast %"class.std::__1::__compressed_pair.7"* %329 to %"struct.std::__1::__compressed_pair_elem.8"*, !dbg !6581
  store %"struct.std::__1::__compressed_pair_elem.8"* %330, %"struct.std::__1::__compressed_pair_elem.8"** %146, align 8
  %331 = load %"struct.std::__1::__compressed_pair_elem.8"*, %"struct.std::__1::__compressed_pair_elem.8"** %146, align 8
  %332 = getelementptr inbounds %"struct.std::__1::__compressed_pair_elem.8", %"struct.std::__1::__compressed_pair_elem.8"* %331, i32 0, i32 0, !dbg !6582
  %333 = load %"class.std::__1::unique_ptr.1"*, %"class.std::__1::unique_ptr.1"** %332, align 8, !dbg !6579
  %334 = icmp ult %"class.std::__1::unique_ptr.1"* %325, %333, !dbg !6583
  br i1 %334, label %335, label %417, !dbg !6584

; <label>:335:                                    ; preds = %317
  store %"struct.std::__1::vector<std::__1::unique_ptr<altered_carbon::js::ACAstBaseNode, std::__1::default_delete<altered_carbon::js::ACAstBaseNode> >, std::__1::allocator<std::__1::unique_ptr<altered_carbon::js::ACAstBaseNode, std::__1::default_delete<altered_carbon::js::ACAstBaseNode> > > >::__RAII_IncreaseAnnotator"* %151, %"struct.std::__1::vector<std::__1::unique_ptr<altered_carbon::js::ACAstBaseNode, std::__1::default_delete<altered_carbon::js::ACAstBaseNode> >, std::__1::allocator<std::__1::unique_ptr<altered_carbon::js::ACAstBaseNode, std::__1::default_delete<altered_carbon::js::ACAstBaseNode> > > >::__RAII_IncreaseAnnotator"** %143, align 8
  store %"class.std::__1::vector"* %322, %"class.std::__1::vector"** %144, align 8
  store i64 1, i64* %145, align 8
  %336 = load %"struct.std::__1::vector<std::__1::unique_ptr<altered_carbon::js::ACAstBaseNode, std::__1::default_delete<altered_carbon::js::ACAstBaseNode> >, std::__1::allocator<std::__1::unique_ptr<altered_carbon::js::ACAstBaseNode, std::__1::default_delete<altered_carbon::js::ACAstBaseNode> > > >::__RAII_IncreaseAnnotator"*, %"struct.std::__1::vector<std::__1::unique_ptr<altered_carbon::js::ACAstBaseNode, std::__1::default_delete<altered_carbon::js::ACAstBaseNode> >, std::__1::allocator<std::__1::unique_ptr<altered_carbon::js::ACAstBaseNode, std::__1::default_delete<altered_carbon::js::ACAstBaseNode> > > >::__RAII_IncreaseAnnotator"** %143, align 8
  %337 = load %"class.std::__1::vector"*, %"class.std::__1::vector"** %144, align 8, !dbg !6585
  %338 = load i64, i64* %145, align 8, !dbg !6585
  store %"struct.std::__1::vector<std::__1::unique_ptr<altered_carbon::js::ACAstBaseNode, std::__1::default_delete<altered_carbon::js::ACAstBaseNode> >, std::__1::allocator<std::__1::unique_ptr<altered_carbon::js::ACAstBaseNode, std::__1::default_delete<altered_carbon::js::ACAstBaseNode> > > >::__RAII_IncreaseAnnotator"* %336, %"struct.std::__1::vector<std::__1::unique_ptr<altered_carbon::js::ACAstBaseNode, std::__1::default_delete<altered_carbon::js::ACAstBaseNode> >, std::__1::allocator<std::__1::unique_ptr<altered_carbon::js::ACAstBaseNode, std::__1::default_delete<altered_carbon::js::ACAstBaseNode> > > >::__RAII_IncreaseAnnotator"** %140, align 8
  store %"class.std::__1::vector"* %337, %"class.std::__1::vector"** %141, align 8
  store i64 %338, i64* %142, align 8
  %339 = load %"struct.std::__1::vector<std::__1::unique_ptr<altered_carbon::js::ACAstBaseNode, std::__1::default_delete<altered_carbon::js::ACAstBaseNode> >, std::__1::allocator<std::__1::unique_ptr<altered_carbon::js::ACAstBaseNode, std::__1::default_delete<altered_carbon::js::ACAstBaseNode> > > >::__RAII_IncreaseAnnotator"*, %"struct.std::__1::vector<std::__1::unique_ptr<altered_carbon::js::ACAstBaseNode, std::__1::default_delete<altered_carbon::js::ACAstBaseNode> >, std::__1::allocator<std::__1::unique_ptr<altered_carbon::js::ACAstBaseNode, std::__1::default_delete<altered_carbon::js::ACAstBaseNode> > > >::__RAII_IncreaseAnnotator"** %140, align 8
  %340 = bitcast %"class.std::__1::vector"* %322 to %"class.std::__1::__vector_base"*, !dbg !6586
  store %"class.std::__1::__vector_base"* %340, %"class.std::__1::__vector_base"** %93, align 8
  %341 = load %"class.std::__1::__vector_base"*, %"class.std::__1::__vector_base"** %93, align 8
  %342 = getelementptr inbounds %"class.std::__1::__vector_base", %"class.std::__1::__vector_base"* %341, i32 0, i32 2, !dbg !6587
  store %"class.std::__1::__compressed_pair.7"* %342, %"class.std::__1::__compressed_pair.7"** %92, align 8
  %343 = load %"class.std::__1::__compressed_pair.7"*, %"class.std::__1::__compressed_pair.7"** %92, align 8
  %344 = bitcast %"class.std::__1::__compressed_pair.7"* %343 to %"struct.std::__1::__compressed_pair_elem.9"*, !dbg !6588
  store %"struct.std::__1::__compressed_pair_elem.9"* %344, %"struct.std::__1::__compressed_pair_elem.9"** %91, align 8
  %345 = load %"struct.std::__1::__compressed_pair_elem.9"*, %"struct.std::__1::__compressed_pair_elem.9"** %91, align 8
  %346 = bitcast %"struct.std::__1::__compressed_pair_elem.9"* %345 to %"class.std::__1::allocator"*, !dbg !6589
  %347 = bitcast %"class.std::__1::vector"* %322 to %"class.std::__1::__vector_base"*, !dbg !6590
  %348 = getelementptr inbounds %"class.std::__1::__vector_base", %"class.std::__1::__vector_base"* %347, i32 0, i32 1, !dbg !6590
  %349 = load %"class.std::__1::unique_ptr.1"*, %"class.std::__1::unique_ptr.1"** %348, align 8, !dbg !6590
  store %"class.std::__1::unique_ptr.1"* %349, %"class.std::__1::unique_ptr.1"** %94, align 8
  %350 = load %"class.std::__1::unique_ptr.1"*, %"class.std::__1::unique_ptr.1"** %94, align 8, !dbg !6591
  %351 = load %"class.std::__1::unique_ptr.1"*, %"class.std::__1::unique_ptr.1"** %150, align 8, !dbg !6592
  store %"class.std::__1::unique_ptr.1"* %351, %"class.std::__1::unique_ptr.1"** %95, align 8
  %352 = load %"class.std::__1::unique_ptr.1"*, %"class.std::__1::unique_ptr.1"** %95, align 8, !dbg !6593
  store %"class.std::__1::allocator"* %346, %"class.std::__1::allocator"** %134, align 8
  store %"class.std::__1::unique_ptr.1"* %350, %"class.std::__1::unique_ptr.1"** %135, align 8
  store %"class.std::__1::unique_ptr.1"* %352, %"class.std::__1::unique_ptr.1"** %136, align 8
  %353 = bitcast %"struct.std::__1::__has_construct"* %137 to %"struct.std::__1::integral_constant"*, !dbg !6594
  %354 = load %"class.std::__1::allocator"*, %"class.std::__1::allocator"** %134, align 8, !dbg !6595
  %355 = load %"class.std::__1::unique_ptr.1"*, %"class.std::__1::unique_ptr.1"** %135, align 8, !dbg !6596
  %356 = load %"class.std::__1::unique_ptr.1"*, %"class.std::__1::unique_ptr.1"** %136, align 8, !dbg !6597
  store %"class.std::__1::unique_ptr.1"* %356, %"class.std::__1::unique_ptr.1"** %133, align 8
  %357 = load %"class.std::__1::unique_ptr.1"*, %"class.std::__1::unique_ptr.1"** %133, align 8, !dbg !6598
  call void @llvm.dbg.declare(metadata !162, metadata !6096, metadata !DIExpression()) #8, !dbg !6599
  store %"class.std::__1::allocator"* %354, %"class.std::__1::allocator"** %130, align 8
  store %"class.std::__1::unique_ptr.1"* %355, %"class.std::__1::unique_ptr.1"** %131, align 8
  store %"class.std::__1::unique_ptr.1"* %357, %"class.std::__1::unique_ptr.1"** %132, align 8
  %358 = load %"class.std::__1::allocator"*, %"class.std::__1::allocator"** %130, align 8, !dbg !6600
  %359 = load %"class.std::__1::unique_ptr.1"*, %"class.std::__1::unique_ptr.1"** %131, align 8, !dbg !6601
  %360 = load %"class.std::__1::unique_ptr.1"*, %"class.std::__1::unique_ptr.1"** %132, align 8, !dbg !6602
  store %"class.std::__1::unique_ptr.1"* %360, %"class.std::__1::unique_ptr.1"** %129, align 8
  %361 = load %"class.std::__1::unique_ptr.1"*, %"class.std::__1::unique_ptr.1"** %129, align 8, !dbg !6603
  store %"class.std::__1::allocator"* %358, %"class.std::__1::allocator"** %126, align 8
  store %"class.std::__1::unique_ptr.1"* %359, %"class.std::__1::unique_ptr.1"** %127, align 8
  store %"class.std::__1::unique_ptr.1"* %361, %"class.std::__1::unique_ptr.1"** %128, align 8
  %362 = load %"class.std::__1::allocator"*, %"class.std::__1::allocator"** %126, align 8
  %363 = load %"class.std::__1::unique_ptr.1"*, %"class.std::__1::unique_ptr.1"** %127, align 8, !dbg !6604
  %364 = bitcast %"class.std::__1::unique_ptr.1"* %363 to i8*, !dbg !6604
  %365 = load %"class.std::__1::unique_ptr.1"*, %"class.std::__1::unique_ptr.1"** %128, align 8, !dbg !6605
  store %"class.std::__1::unique_ptr.1"* %365, %"class.std::__1::unique_ptr.1"** %125, align 8
  %366 = load %"class.std::__1::unique_ptr.1"*, %"class.std::__1::unique_ptr.1"** %125, align 8, !dbg !6606
  store %"class.std::__1::unique_ptr.1"* %363, %"class.std::__1::unique_ptr.1"** %123, align 8
  store %"class.std::__1::unique_ptr.1"* %366, %"class.std::__1::unique_ptr.1"** %124, align 8
  %367 = load %"class.std::__1::unique_ptr.1"*, %"class.std::__1::unique_ptr.1"** %123, align 8
  %368 = load %"class.std::__1::unique_ptr.1"*, %"class.std::__1::unique_ptr.1"** %124, align 8, !dbg !6607
  store %"class.std::__1::unique_ptr.1"* %367, %"class.std::__1::unique_ptr.1"** %120, align 8
  store %"class.std::__1::unique_ptr.1"* %368, %"class.std::__1::unique_ptr.1"** %121, align 8
  %369 = load %"class.std::__1::unique_ptr.1"*, %"class.std::__1::unique_ptr.1"** %120, align 8
  %370 = getelementptr inbounds %"class.std::__1::unique_ptr.1", %"class.std::__1::unique_ptr.1"* %369, i32 0, i32 0, !dbg !6608
  %371 = load %"class.std::__1::unique_ptr.1"*, %"class.std::__1::unique_ptr.1"** %121, align 8, !dbg !6609
  store %"class.std::__1::unique_ptr.1"* %371, %"class.std::__1::unique_ptr.1"** %118, align 8
  %372 = load %"class.std::__1::unique_ptr.1"*, %"class.std::__1::unique_ptr.1"** %118, align 8
  %373 = getelementptr inbounds %"class.std::__1::unique_ptr.1", %"class.std::__1::unique_ptr.1"* %372, i32 0, i32 0, !dbg !6610
  store %"class.std::__1::__compressed_pair.2"* %373, %"class.std::__1::__compressed_pair.2"** %117, align 8
  %374 = load %"class.std::__1::__compressed_pair.2"*, %"class.std::__1::__compressed_pair.2"** %117, align 8
  %375 = bitcast %"class.std::__1::__compressed_pair.2"* %374 to %"struct.std::__1::__compressed_pair_elem.3"*, !dbg !6611
  store %"struct.std::__1::__compressed_pair_elem.3"* %375, %"struct.std::__1::__compressed_pair_elem.3"** %116, align 8
  %376 = load %"struct.std::__1::__compressed_pair_elem.3"*, %"struct.std::__1::__compressed_pair_elem.3"** %116, align 8
  %377 = getelementptr inbounds %"struct.std::__1::__compressed_pair_elem.3", %"struct.std::__1::__compressed_pair_elem.3"* %376, i32 0, i32 0, !dbg !6612
  %378 = load %"class.altered_carbon::js::ACAstBaseNode"*, %"class.altered_carbon::js::ACAstBaseNode"** %377, align 8, !dbg !6613
  store %"class.altered_carbon::js::ACAstBaseNode"* %378, %"class.altered_carbon::js::ACAstBaseNode"** %119, align 8, !dbg !6426
  %379 = getelementptr inbounds %"class.std::__1::unique_ptr.1", %"class.std::__1::unique_ptr.1"* %372, i32 0, i32 0, !dbg !6614
  store %"class.std::__1::__compressed_pair.2"* %379, %"class.std::__1::__compressed_pair.2"** %115, align 8
  %380 = load %"class.std::__1::__compressed_pair.2"*, %"class.std::__1::__compressed_pair.2"** %115, align 8
  %381 = bitcast %"class.std::__1::__compressed_pair.2"* %380 to %"struct.std::__1::__compressed_pair_elem.3"*, !dbg !6615
  store %"struct.std::__1::__compressed_pair_elem.3"* %381, %"struct.std::__1::__compressed_pair_elem.3"** %114, align 8
  %382 = load %"struct.std::__1::__compressed_pair_elem.3"*, %"struct.std::__1::__compressed_pair_elem.3"** %114, align 8
  %383 = getelementptr inbounds %"struct.std::__1::__compressed_pair_elem.3", %"struct.std::__1::__compressed_pair_elem.3"* %382, i32 0, i32 0, !dbg !6616
  store %"class.altered_carbon::js::ACAstBaseNode"* null, %"class.altered_carbon::js::ACAstBaseNode"** %383, align 8, !dbg !6617
  %384 = load %"class.altered_carbon::js::ACAstBaseNode"*, %"class.altered_carbon::js::ACAstBaseNode"** %119, align 8, !dbg !6618
  store %"class.altered_carbon::js::ACAstBaseNode"* %384, %"class.altered_carbon::js::ACAstBaseNode"** %122, align 8, !dbg !6609
  %385 = load %"class.std::__1::unique_ptr.1"*, %"class.std::__1::unique_ptr.1"** %121, align 8, !dbg !6619
  store %"class.std::__1::unique_ptr.1"* %385, %"class.std::__1::unique_ptr.1"** %98, align 8
  %386 = load %"class.std::__1::unique_ptr.1"*, %"class.std::__1::unique_ptr.1"** %98, align 8
  %387 = getelementptr inbounds %"class.std::__1::unique_ptr.1", %"class.std::__1::unique_ptr.1"* %386, i32 0, i32 0, !dbg !6620
  store %"class.std::__1::__compressed_pair.2"* %387, %"class.std::__1::__compressed_pair.2"** %97, align 8
  %388 = load %"class.std::__1::__compressed_pair.2"*, %"class.std::__1::__compressed_pair.2"** %97, align 8
  %389 = bitcast %"class.std::__1::__compressed_pair.2"* %388 to %"struct.std::__1::__compressed_pair_elem.4"*, !dbg !6621
  store %"struct.std::__1::__compressed_pair_elem.4"* %389, %"struct.std::__1::__compressed_pair_elem.4"** %96, align 8
  %390 = load %"struct.std::__1::__compressed_pair_elem.4"*, %"struct.std::__1::__compressed_pair_elem.4"** %96, align 8
  %391 = bitcast %"struct.std::__1::__compressed_pair_elem.4"* %390 to %"struct.std::__1::default_delete.5"*, !dbg !6622
  store %"struct.std::__1::default_delete.5"* %391, %"struct.std::__1::default_delete.5"** %99, align 8
  %392 = load %"struct.std::__1::default_delete.5"*, %"struct.std::__1::default_delete.5"** %99, align 8, !dbg !6623
  store %"class.std::__1::__compressed_pair.2"* %370, %"class.std::__1::__compressed_pair.2"** %111, align 8
  store %"class.altered_carbon::js::ACAstBaseNode"** %122, %"class.altered_carbon::js::ACAstBaseNode"*** %112, align 8
  store %"struct.std::__1::default_delete.5"* %392, %"struct.std::__1::default_delete.5"** %113, align 8
  %393 = load %"class.std::__1::__compressed_pair.2"*, %"class.std::__1::__compressed_pair.2"** %111, align 8
  %394 = load %"class.altered_carbon::js::ACAstBaseNode"**, %"class.altered_carbon::js::ACAstBaseNode"*** %112, align 8, !dbg !6624
  %395 = load %"struct.std::__1::default_delete.5"*, %"struct.std::__1::default_delete.5"** %113, align 8, !dbg !6624
  store %"class.std::__1::__compressed_pair.2"* %393, %"class.std::__1::__compressed_pair.2"** %108, align 8
  store %"class.altered_carbon::js::ACAstBaseNode"** %394, %"class.altered_carbon::js::ACAstBaseNode"*** %109, align 8
  store %"struct.std::__1::default_delete.5"* %395, %"struct.std::__1::default_delete.5"** %110, align 8
  %396 = load %"class.std::__1::__compressed_pair.2"*, %"class.std::__1::__compressed_pair.2"** %108, align 8
  %397 = bitcast %"class.std::__1::__compressed_pair.2"* %396 to %"struct.std::__1::__compressed_pair_elem.3"*, !dbg !6625
  %398 = load %"class.altered_carbon::js::ACAstBaseNode"**, %"class.altered_carbon::js::ACAstBaseNode"*** %109, align 8, !dbg !6626
  store %"class.altered_carbon::js::ACAstBaseNode"** %398, %"class.altered_carbon::js::ACAstBaseNode"*** %107, align 8
  %399 = load %"class.altered_carbon::js::ACAstBaseNode"**, %"class.altered_carbon::js::ACAstBaseNode"*** %107, align 8, !dbg !6627
  store %"struct.std::__1::__compressed_pair_elem.3"* %397, %"struct.std::__1::__compressed_pair_elem.3"** %101, align 8
  store %"class.altered_carbon::js::ACAstBaseNode"** %399, %"class.altered_carbon::js::ACAstBaseNode"*** %102, align 8
  %400 = load %"struct.std::__1::__compressed_pair_elem.3"*, %"struct.std::__1::__compressed_pair_elem.3"** %101, align 8
  %401 = getelementptr inbounds %"struct.std::__1::__compressed_pair_elem.3", %"struct.std::__1::__compressed_pair_elem.3"* %400, i32 0, i32 0, !dbg !6628
  %402 = load %"class.altered_carbon::js::ACAstBaseNode"**, %"class.altered_carbon::js::ACAstBaseNode"*** %102, align 8, !dbg !6629
  store %"class.altered_carbon::js::ACAstBaseNode"** %402, %"class.altered_carbon::js::ACAstBaseNode"*** %100, align 8
  %403 = load %"class.altered_carbon::js::ACAstBaseNode"**, %"class.altered_carbon::js::ACAstBaseNode"*** %100, align 8, !dbg !6630
  %404 = load %"class.altered_carbon::js::ACAstBaseNode"*, %"class.altered_carbon::js::ACAstBaseNode"** %403, align 8, !dbg !6631
  store %"class.altered_carbon::js::ACAstBaseNode"* %404, %"class.altered_carbon::js::ACAstBaseNode"** %401, align 8, !dbg !6628
  %405 = bitcast %"class.std::__1::__compressed_pair.2"* %396 to %"struct.std::__1::__compressed_pair_elem.4"*, !dbg !6625
  %406 = load %"struct.std::__1::default_delete.5"*, %"struct.std::__1::default_delete.5"** %110, align 8, !dbg !6632
  store %"struct.std::__1::default_delete.5"* %406, %"struct.std::__1::default_delete.5"** %103, align 8
  %407 = load %"struct.std::__1::default_delete.5"*, %"struct.std::__1::default_delete.5"** %103, align 8, !dbg !6633
  store %"struct.std::__1::__compressed_pair_elem.4"* %405, %"struct.std::__1::__compressed_pair_elem.4"** %105, align 8
  store %"struct.std::__1::default_delete.5"* %407, %"struct.std::__1::default_delete.5"** %106, align 8
  %408 = load %"struct.std::__1::__compressed_pair_elem.4"*, %"struct.std::__1::__compressed_pair_elem.4"** %105, align 8
  %409 = bitcast %"struct.std::__1::__compressed_pair_elem.4"* %408 to %"struct.std::__1::default_delete.5"*, !dbg !6634
  %410 = load %"struct.std::__1::default_delete.5"*, %"struct.std::__1::default_delete.5"** %106, align 8, !dbg !6635
  store %"struct.std::__1::default_delete.5"* %410, %"struct.std::__1::default_delete.5"** %104, align 8
  %411 = load %"struct.std::__1::default_delete.5"*, %"struct.std::__1::default_delete.5"** %104, align 8, !dbg !6636
  store %"struct.std::__1::vector<std::__1::unique_ptr<altered_carbon::js::ACAstBaseNode, std::__1::default_delete<altered_carbon::js::ACAstBaseNode> >, std::__1::allocator<std::__1::unique_ptr<altered_carbon::js::ACAstBaseNode, std::__1::default_delete<altered_carbon::js::ACAstBaseNode> > > >::__RAII_IncreaseAnnotator"* %151, %"struct.std::__1::vector<std::__1::unique_ptr<altered_carbon::js::ACAstBaseNode, std::__1::default_delete<altered_carbon::js::ACAstBaseNode> >, std::__1::allocator<std::__1::unique_ptr<altered_carbon::js::ACAstBaseNode, std::__1::default_delete<altered_carbon::js::ACAstBaseNode> > > >::__RAII_IncreaseAnnotator"** %138, align 8
  %412 = load %"struct.std::__1::vector<std::__1::unique_ptr<altered_carbon::js::ACAstBaseNode, std::__1::default_delete<altered_carbon::js::ACAstBaseNode> >, std::__1::allocator<std::__1::unique_ptr<altered_carbon::js::ACAstBaseNode, std::__1::default_delete<altered_carbon::js::ACAstBaseNode> > > >::__RAII_IncreaseAnnotator"*, %"struct.std::__1::vector<std::__1::unique_ptr<altered_carbon::js::ACAstBaseNode, std::__1::default_delete<altered_carbon::js::ACAstBaseNode> >, std::__1::allocator<std::__1::unique_ptr<altered_carbon::js::ACAstBaseNode, std::__1::default_delete<altered_carbon::js::ACAstBaseNode> > > >::__RAII_IncreaseAnnotator"** %138, align 8
  %413 = bitcast %"class.std::__1::vector"* %322 to %"class.std::__1::__vector_base"*, !dbg !6637
  %414 = getelementptr inbounds %"class.std::__1::__vector_base", %"class.std::__1::__vector_base"* %413, i32 0, i32 1, !dbg !6637
  %415 = load %"class.std::__1::unique_ptr.1"*, %"class.std::__1::unique_ptr.1"** %414, align 8, !dbg !6638
  %416 = getelementptr inbounds %"class.std::__1::unique_ptr.1", %"class.std::__1::unique_ptr.1"* %415, i32 1, !dbg !6638
  store %"class.std::__1::unique_ptr.1"* %416, %"class.std::__1::unique_ptr.1"** %414, align 8, !dbg !6638
  br label %420, !dbg !6639

; <label>:417:                                    ; preds = %317
  %418 = load %"class.std::__1::unique_ptr.1"*, %"class.std::__1::unique_ptr.1"** %150, align 8, !dbg !6640
  store %"class.std::__1::unique_ptr.1"* %418, %"class.std::__1::unique_ptr.1"** %139, align 8
  %419 = load %"class.std::__1::unique_ptr.1"*, %"class.std::__1::unique_ptr.1"** %139, align 8, !dbg !6641
  call void @_ZNSt3__16vectorINS_10unique_ptrIN14altered_carbon2js13ACAstBaseNodeENS_14default_deleteIS4_EEEENS_9allocatorIS7_EEE21__push_back_slow_pathIS7_EEvOT_(%"class.std::__1::vector"* %322, %"class.std::__1::unique_ptr.1"* dereferenceable(8) %419) #8, !dbg !6642
  br label %420

; <label>:420:                                    ; preds = %335, %417
  ret void, !dbg !6643
}

; Function Attrs: noinline nounwind optnone ssp uwtable
define void @_ZN14altered_carbon2js21ACAstRuntimeMemberRefC1ENSt3__110unique_ptrINS0_13ACLexPositionENS2_14default_deleteIS4_EEEENS3_INS0_13ACAstBaseNodeENS5_IS8_EEEESA_(%"class.altered_carbon::js::ACAstRuntimeMemberRef"*, %"class.std::__1::unique_ptr"*, %"class.std::__1::unique_ptr.1"*, %"class.std::__1::unique_ptr.1"*) unnamed_addr #0 align 2 !dbg !6644 {
  %5 = alloca %"class.altered_carbon::js::ACAstRuntimeMemberRef"*, align 8
  store %"class.altered_carbon::js::ACAstRuntimeMemberRef"* %0, %"class.altered_carbon::js::ACAstRuntimeMemberRef"** %5, align 8
  call void @llvm.dbg.declare(metadata %"class.altered_carbon::js::ACAstRuntimeMemberRef"** %5, metadata !6645, metadata !DIExpression()), !dbg !6646
  call void @llvm.dbg.declare(metadata %"class.std::__1::unique_ptr"* %1, metadata !6647, metadata !DIExpression()), !dbg !6648
  call void @llvm.dbg.declare(metadata %"class.std::__1::unique_ptr.1"* %2, metadata !6649, metadata !DIExpression()), !dbg !6650
  call void @llvm.dbg.declare(metadata %"class.std::__1::unique_ptr.1"* %3, metadata !6651, metadata !DIExpression()), !dbg !6652
  %6 = load %"class.altered_carbon::js::ACAstRuntimeMemberRef"*, %"class.altered_carbon::js::ACAstRuntimeMemberRef"** %5, align 8
  call void @_ZN14altered_carbon2js21ACAstRuntimeMemberRefC2ENSt3__110unique_ptrINS0_13ACLexPositionENS2_14default_deleteIS4_EEEENS3_INS0_13ACAstBaseNodeENS5_IS8_EEEESA_(%"class.altered_carbon::js::ACAstRuntimeMemberRef"* %6, %"class.std::__1::unique_ptr"* %1, %"class.std::__1::unique_ptr.1"* %2, %"class.std::__1::unique_ptr.1"* %3), !dbg !6653
  ret void, !dbg !6654
}

; Function Attrs: noinline nounwind optnone ssp uwtable
define void @_ZNK14altered_carbon2js21ACAstRuntimeMemberRef14dumpChildNodesERNSt3__113basic_ostreamIcNS2_11char_traitsIcEEEE(%"class.altered_carbon::js::ACAstRuntimeMemberRef"*, %"class.std::__1::basic_ostream"* dereferenceable(160)) unnamed_addr #0 align 2 !dbg !6655 {
  %3 = alloca %"struct.std::__1::__compressed_pair_elem.3"*, align 8
  call void @llvm.dbg.declare(metadata %"struct.std::__1::__compressed_pair_elem.3"** %3, metadata !6154, metadata !DIExpression()), !dbg !6656
  %4 = alloca %"class.std::__1::__compressed_pair.2"*, align 8
  call void @llvm.dbg.declare(metadata %"class.std::__1::__compressed_pair.2"** %4, metadata !6163, metadata !DIExpression()), !dbg !6660
  %5 = alloca %"class.std::__1::unique_ptr.1"*, align 8
  call void @llvm.dbg.declare(metadata %"class.std::__1::unique_ptr.1"** %5, metadata !6166, metadata !DIExpression()), !dbg !6661
  %6 = alloca %"class.std::__1::vector"*, align 8
  call void @llvm.dbg.declare(metadata %"class.std::__1::vector"** %6, metadata !6168, metadata !DIExpression()), !dbg !6662
  %7 = alloca i64, align 8
  call void @llvm.dbg.declare(metadata i64* %7, metadata !6173, metadata !DIExpression()), !dbg !6664
  %8 = alloca %"class.altered_carbon::js::ACAstRuntimeMemberRef"*, align 8
  %9 = alloca %"class.std::__1::basic_ostream"*, align 8
  store %"class.altered_carbon::js::ACAstRuntimeMemberRef"* %0, %"class.altered_carbon::js::ACAstRuntimeMemberRef"** %8, align 8
  call void @llvm.dbg.declare(metadata %"class.altered_carbon::js::ACAstRuntimeMemberRef"** %8, metadata !6665, metadata !DIExpression()), !dbg !6667
  store %"class.std::__1::basic_ostream"* %1, %"class.std::__1::basic_ostream"** %9, align 8
  call void @llvm.dbg.declare(metadata %"class.std::__1::basic_ostream"** %9, metadata !6668, metadata !DIExpression()), !dbg !6669
  %10 = load %"class.altered_carbon::js::ACAstRuntimeMemberRef"*, %"class.altered_carbon::js::ACAstRuntimeMemberRef"** %8, align 8
  %11 = bitcast %"class.altered_carbon::js::ACAstRuntimeMemberRef"* %10 to %"class.altered_carbon::js::ACAstExpressionNode"*, !dbg !6670
  %12 = load %"class.std::__1::basic_ostream"*, %"class.std::__1::basic_ostream"** %9, align 8, !dbg !6671
  call void @_ZNK14altered_carbon2js19ACAstExpressionNode14dumpChildNodesERNSt3__113basic_ostreamIcNS2_11char_traitsIcEEEE(%"class.altered_carbon::js::ACAstExpressionNode"* %11, %"class.std::__1::basic_ostream"* dereferenceable(160) %12), !dbg !6670
  %13 = load %"class.std::__1::basic_ostream"*, %"class.std::__1::basic_ostream"** %9, align 8, !dbg !6672
  %14 = call dereferenceable(160) %"class.std::__1::basic_ostream"* @_ZNSt3__1lsINS_11char_traitsIcEEEERNS_13basic_ostreamIcT_EES6_PKc(%"class.std::__1::basic_ostream"* dereferenceable(160) %13, i8* getelementptr inbounds ([2 x i8], [2 x i8]* @.str.1, i32 0, i32 0)), !dbg !6673
  %15 = bitcast %"class.altered_carbon::js::ACAstRuntimeMemberRef"* %10 to %"class.altered_carbon::js::ACAstBaseNode"*, !dbg !6674
  %16 = getelementptr inbounds %"class.altered_carbon::js::ACAstBaseNode", %"class.altered_carbon::js::ACAstBaseNode"* %15, i32 0, i32 4, !dbg !6674
  store %"class.std::__1::vector"* %16, %"class.std::__1::vector"** %6, align 8
  store i64 0, i64* %7, align 8
  %17 = load %"class.std::__1::vector"*, %"class.std::__1::vector"** %6, align 8
  %18 = bitcast %"class.std::__1::vector"* %17 to %"class.std::__1::__vector_base"*, !dbg !6675
  %19 = getelementptr inbounds %"class.std::__1::__vector_base", %"class.std::__1::__vector_base"* %18, i32 0, i32 0, !dbg !6675
  %20 = load %"class.std::__1::unique_ptr.1"*, %"class.std::__1::unique_ptr.1"** %19, align 8, !dbg !6675
  %21 = load i64, i64* %7, align 8, !dbg !6676
  %22 = getelementptr inbounds %"class.std::__1::unique_ptr.1", %"class.std::__1::unique_ptr.1"* %20, i64 %21, !dbg !6677
  store %"class.std::__1::unique_ptr.1"* %22, %"class.std::__1::unique_ptr.1"** %5, align 8
  %23 = load %"class.std::__1::unique_ptr.1"*, %"class.std::__1::unique_ptr.1"** %5, align 8
  %24 = getelementptr inbounds %"class.std::__1::unique_ptr.1", %"class.std::__1::unique_ptr.1"* %23, i32 0, i32 0, !dbg !6678
  store %"class.std::__1::__compressed_pair.2"* %24, %"class.std::__1::__compressed_pair.2"** %4, align 8
  %25 = load %"class.std::__1::__compressed_pair.2"*, %"class.std::__1::__compressed_pair.2"** %4, align 8
  %26 = bitcast %"class.std::__1::__compressed_pair.2"* %25 to %"struct.std::__1::__compressed_pair_elem.3"*, !dbg !6679
  store %"struct.std::__1::__compressed_pair_elem.3"* %26, %"struct.std::__1::__compressed_pair_elem.3"** %3, align 8
  %27 = load %"struct.std::__1::__compressed_pair_elem.3"*, %"struct.std::__1::__compressed_pair_elem.3"** %3, align 8
  %28 = getelementptr inbounds %"struct.std::__1::__compressed_pair_elem.3", %"struct.std::__1::__compressed_pair_elem.3"* %27, i32 0, i32 0, !dbg !6680
  %29 = load %"class.altered_carbon::js::ACAstBaseNode"*, %"class.altered_carbon::js::ACAstBaseNode"** %28, align 8, !dbg !6681
  %30 = bitcast %"class.altered_carbon::js::ACAstBaseNode"* %29 to void (%"class.altered_carbon::js::ACAstBaseNode"*, %"class.std::__1::basic_ostream"*)***, !dbg !6682
  %31 = load void (%"class.altered_carbon::js::ACAstBaseNode"*, %"class.std::__1::basic_ostream"*)**, void (%"class.altered_carbon::js::ACAstBaseNode"*, %"class.std::__1::basic_ostream"*)*** %30, align 8, !dbg !6682
  %32 = getelementptr inbounds void (%"class.altered_carbon::js::ACAstBaseNode"*, %"class.std::__1::basic_ostream"*)*, void (%"class.altered_carbon::js::ACAstBaseNode"*, %"class.std::__1::basic_ostream"*)** %31, i64 8, !dbg !6682
  %33 = load void (%"class.altered_carbon::js::ACAstBaseNode"*, %"class.std::__1::basic_ostream"*)*, void (%"class.altered_carbon::js::ACAstBaseNode"*, %"class.std::__1::basic_ostream"*)** %32, align 8, !dbg !6682
  %34 = load %"class.std::__1::basic_ostream"*, %"class.std::__1::basic_ostream"** %9, align 8, !dbg !6683
  call void %33(%"class.altered_carbon::js::ACAstBaseNode"* %29, %"class.std::__1::basic_ostream"* dereferenceable(160) %34), !dbg !6682
  %35 = load %"class.std::__1::basic_ostream"*, %"class.std::__1::basic_ostream"** %9, align 8, !dbg !6684
  %36 = call dereferenceable(160) %"class.std::__1::basic_ostream"* @_ZNSt3__1lsINS_11char_traitsIcEEEERNS_13basic_ostreamIcT_EES6_PKc(%"class.std::__1::basic_ostream"* dereferenceable(160) %35, i8* getelementptr inbounds ([2 x i8], [2 x i8]* @.str.2, i32 0, i32 0)), !dbg !6685
  ret void, !dbg !6686
}

; Function Attrs: noinline nounwind optnone ssp uwtable
define linkonce_odr hidden void @_ZN14altered_carbon2js20ACAstStaticMemberRefD1Ev(%"class.altered_carbon::js::ACAstStaticMemberRef"*) unnamed_addr #0 align 2 !dbg !6687 {
  %2 = alloca %"class.altered_carbon::js::ACAstStaticMemberRef"*, align 8
  store %"class.altered_carbon::js::ACAstStaticMemberRef"* %0, %"class.altered_carbon::js::ACAstStaticMemberRef"** %2, align 8
  call void @llvm.dbg.declare(metadata %"class.altered_carbon::js::ACAstStaticMemberRef"** %2, metadata !6691, metadata !DIExpression()), !dbg !6692
  %3 = load %"class.altered_carbon::js::ACAstStaticMemberRef"*, %"class.altered_carbon::js::ACAstStaticMemberRef"** %2, align 8
  call void @_ZN14altered_carbon2js20ACAstStaticMemberRefD2Ev(%"class.altered_carbon::js::ACAstStaticMemberRef"* %3) #8, !dbg !6693
  ret void, !dbg !6693
}

; Function Attrs: noinline nounwind optnone ssp uwtable
define linkonce_odr hidden void @_ZN14altered_carbon2js20ACAstStaticMemberRefD0Ev(%"class.altered_carbon::js::ACAstStaticMemberRef"*) unnamed_addr #0 align 2 !dbg !6694 {
  %2 = alloca %"class.altered_carbon::js::ACAstStaticMemberRef"*, align 8
  store %"class.altered_carbon::js::ACAstStaticMemberRef"* %0, %"class.altered_carbon::js::ACAstStaticMemberRef"** %2, align 8
  call void @llvm.dbg.declare(metadata %"class.altered_carbon::js::ACAstStaticMemberRef"** %2, metadata !6695, metadata !DIExpression()), !dbg !6696
  %3 = load %"class.altered_carbon::js::ACAstStaticMemberRef"*, %"class.altered_carbon::js::ACAstStaticMemberRef"** %2, align 8
  call void @_ZN14altered_carbon2js20ACAstStaticMemberRefD1Ev(%"class.altered_carbon::js::ACAstStaticMemberRef"* %3) #8, !dbg !6697
  %4 = bitcast %"class.altered_carbon::js::ACAstStaticMemberRef"* %3 to i8*, !dbg !6697
  call void @_ZdlPv(i8* %4) #9, !dbg !6697
  ret void, !dbg !6697
}

declare i8* @_ZNK14altered_carbon2js19ACAstExpressionNode6acceptEPNS0_14ACAstVisitableE(%"class.altered_carbon::js::ACAstExpressionNode"*, %"class.altered_carbon::js::ACAstVisitable"*) unnamed_addr #2

; Function Attrs: noinline nounwind optnone ssp uwtable
define linkonce_odr hidden void @_ZNK14altered_carbon2js13ACAstBaseNode10identifierEv(%"class.std::__1::basic_string"* noalias sret, %"class.altered_carbon::js::ACAstBaseNode"*) unnamed_addr #0 align 2 !dbg !6698 {
  %3 = alloca %"class.std::__1::allocator.14"*, align 8
  call void @llvm.dbg.declare(metadata %"class.std::__1::allocator.14"** %3, metadata !6699, metadata !DIExpression()), !dbg !6702
  %4 = alloca %"struct.std::__1::__compressed_pair_elem.13"*, align 8
  call void @llvm.dbg.declare(metadata %"struct.std::__1::__compressed_pair_elem.13"** %4, metadata !6719, metadata !DIExpression()), !dbg !6721
  %5 = alloca %"struct.std::__1::__compressed_pair_elem.11"*, align 8
  call void @llvm.dbg.declare(metadata %"struct.std::__1::__compressed_pair_elem.11"** %5, metadata !6722, metadata !DIExpression()), !dbg !6725
  %6 = alloca %"class.std::__1::__compressed_pair.10"*, align 8
  call void @llvm.dbg.declare(metadata %"class.std::__1::__compressed_pair.10"** %6, metadata !6727, metadata !DIExpression()), !dbg !6729
  %7 = alloca %"class.std::__1::__compressed_pair.10"*, align 8
  call void @llvm.dbg.declare(metadata %"class.std::__1::__compressed_pair.10"** %7, metadata !6730, metadata !DIExpression()), !dbg !6731
  %8 = alloca %"class.std::__1::basic_string"*, align 8
  call void @llvm.dbg.declare(metadata %"class.std::__1::basic_string"** %8, metadata !6732, metadata !DIExpression()), !dbg !6734
  %9 = alloca i32*, align 8
  call void @llvm.dbg.declare(metadata i32** %9, metadata !6735, metadata !DIExpression()), !dbg !6736
  %10 = alloca %"class.std::__1::basic_string"*, align 8
  call void @llvm.dbg.declare(metadata %"class.std::__1::basic_string"** %10, metadata !6737, metadata !DIExpression()), !dbg !6738
  %11 = alloca i32*, align 8
  call void @llvm.dbg.declare(metadata i32** %11, metadata !6739, metadata !DIExpression()), !dbg !6740
  %12 = alloca %"class.altered_carbon::js::ACAstBaseNode"*, align 8
  store %"class.altered_carbon::js::ACAstBaseNode"* %1, %"class.altered_carbon::js::ACAstBaseNode"** %12, align 8
  call void @llvm.dbg.declare(metadata %"class.altered_carbon::js::ACAstBaseNode"** %12, metadata !6741, metadata !DIExpression()), !dbg !6742
  %13 = load %"class.altered_carbon::js::ACAstBaseNode"*, %"class.altered_carbon::js::ACAstBaseNode"** %12, align 8
  store %"class.std::__1::basic_string"* %0, %"class.std::__1::basic_string"** %10, align 8
  store i32* getelementptr inbounds ([7 x i32], [7 x i32]* @.str.3, i32 0, i32 0), i32** %11, align 8
  %14 = load %"class.std::__1::basic_string"*, %"class.std::__1::basic_string"** %10, align 8
  %15 = load i32*, i32** %11, align 8, !dbg !6743
  store %"class.std::__1::basic_string"* %14, %"class.std::__1::basic_string"** %8, align 8
  store i32* %15, i32** %9, align 8
  %16 = load %"class.std::__1::basic_string"*, %"class.std::__1::basic_string"** %8, align 8
  %17 = bitcast %"class.std::__1::basic_string"* %16 to %"class.std::__1::__basic_string_common"*, !dbg !6744
  %18 = getelementptr inbounds %"class.std::__1::basic_string", %"class.std::__1::basic_string"* %16, i32 0, i32 0, !dbg !6745
  store %"class.std::__1::__compressed_pair.10"* %18, %"class.std::__1::__compressed_pair.10"** %7, align 8
  %19 = load %"class.std::__1::__compressed_pair.10"*, %"class.std::__1::__compressed_pair.10"** %7, align 8
  store %"class.std::__1::__compressed_pair.10"* %19, %"class.std::__1::__compressed_pair.10"** %6, align 8
  %20 = load %"class.std::__1::__compressed_pair.10"*, %"class.std::__1::__compressed_pair.10"** %6, align 8
  %21 = bitcast %"class.std::__1::__compressed_pair.10"* %20 to %"struct.std::__1::__compressed_pair_elem.11"*, !dbg !6746
  store %"struct.std::__1::__compressed_pair_elem.11"* %21, %"struct.std::__1::__compressed_pair_elem.11"** %5, align 8
  %22 = load %"struct.std::__1::__compressed_pair_elem.11"*, %"struct.std::__1::__compressed_pair_elem.11"** %5, align 8
  %23 = getelementptr inbounds %"struct.std::__1::__compressed_pair_elem.11", %"struct.std::__1::__compressed_pair_elem.11"* %22, i32 0, i32 0, !dbg !6747
  %24 = bitcast %"struct.std::__1::basic_string<wchar_t, std::__1::char_traits<wchar_t>, std::__1::allocator<wchar_t> >::__rep"* %23 to i8*, !dbg !6747
  call void @llvm.memset.p0i8.i64(i8* align 8 %24, i8 0, i64 24, i1 false), !dbg !6747
  %25 = bitcast %"class.std::__1::__compressed_pair.10"* %20 to %"struct.std::__1::__compressed_pair_elem.13"*, !dbg !6746
  store %"struct.std::__1::__compressed_pair_elem.13"* %25, %"struct.std::__1::__compressed_pair_elem.13"** %4, align 8
  %26 = load %"struct.std::__1::__compressed_pair_elem.13"*, %"struct.std::__1::__compressed_pair_elem.13"** %4, align 8
  %27 = bitcast %"struct.std::__1::__compressed_pair_elem.13"* %26 to %"class.std::__1::allocator.14"*, !dbg !6748
  store %"class.std::__1::allocator.14"* %27, %"class.std::__1::allocator.14"** %3, align 8
  %28 = load %"class.std::__1::allocator.14"*, %"class.std::__1::allocator.14"** %3, align 8
  %29 = load i32*, i32** %9, align 8, !dbg !6749
  %30 = load i32*, i32** %9, align 8, !dbg !6751
  %31 = call i64 @_ZNSt3__111char_traitsIwE6lengthEPKw(i32* %30) #8, !dbg !6752
  call void @_ZNSt3__112basic_stringIwNS_11char_traitsIwEENS_9allocatorIwEEE6__initEPKwm(%"class.std::__1::basic_string"* %16, i32* %29, i64 %31) #8, !dbg !6753
  ret void, !dbg !6754
}

; Function Attrs: noinline nounwind optnone ssp uwtable
define linkonce_odr hidden i32 @_ZNK14altered_carbon2js13ACAstBaseNode10precedenceEv(%"class.altered_carbon::js::ACAstBaseNode"*) unnamed_addr #0 align 2 !dbg !6755 {
  %2 = alloca %"class.altered_carbon::js::ACAstBaseNode"*, align 8
  store %"class.altered_carbon::js::ACAstBaseNode"* %0, %"class.altered_carbon::js::ACAstBaseNode"** %2, align 8
  call void @llvm.dbg.declare(metadata %"class.altered_carbon::js::ACAstBaseNode"** %2, metadata !6756, metadata !DIExpression()), !dbg !6757
  %3 = load %"class.altered_carbon::js::ACAstBaseNode"*, %"class.altered_carbon::js::ACAstBaseNode"** %2, align 8
  ret i32 0, !dbg !6758
}

; Function Attrs: noinline nounwind optnone ssp uwtable
define linkonce_odr hidden i32 @_ZNK14altered_carbon2js13ACAstBaseNode2opEv(%"class.altered_carbon::js::ACAstBaseNode"*) unnamed_addr #0 align 2 !dbg !6759 {
  %2 = alloca %"class.altered_carbon::js::ACAstBaseNode"*, align 8
  store %"class.altered_carbon::js::ACAstBaseNode"* %0, %"class.altered_carbon::js::ACAstBaseNode"** %2, align 8
  call void @llvm.dbg.declare(metadata %"class.altered_carbon::js::ACAstBaseNode"** %2, metadata !6760, metadata !DIExpression()), !dbg !6761
  %3 = load %"class.altered_carbon::js::ACAstBaseNode"*, %"class.altered_carbon::js::ACAstBaseNode"** %2, align 8
  ret i32 0, !dbg !6762
}

; Function Attrs: noinline nounwind optnone ssp uwtable
define linkonce_odr hidden zeroext i1 @_ZN14altered_carbon2js20ACAstStaticMemberRef14convertToParamEv(%"class.altered_carbon::js::ACAstStaticMemberRef"*) unnamed_addr #0 align 2 !dbg !6763 {
  %2 = alloca %"class.altered_carbon::js::ACAstStaticMemberRef"*, align 8
  store %"class.altered_carbon::js::ACAstStaticMemberRef"* %0, %"class.altered_carbon::js::ACAstStaticMemberRef"** %2, align 8
  call void @llvm.dbg.declare(metadata %"class.altered_carbon::js::ACAstStaticMemberRef"** %2, metadata !6764, metadata !DIExpression()), !dbg !6765
  %3 = load %"class.altered_carbon::js::ACAstStaticMemberRef"*, %"class.altered_carbon::js::ACAstStaticMemberRef"** %2, align 8
  ret i1 true, !dbg !6766
}

; Function Attrs: noinline nounwind optnone ssp uwtable
define linkonce_odr hidden zeroext i1 @_ZN14altered_carbon2js13ACAstBaseNode15convertToFormalEv(%"class.altered_carbon::js::ACAstBaseNode"*) unnamed_addr #0 align 2 !dbg !6767 {
  %2 = alloca %"class.altered_carbon::js::ACAstBaseNode"*, align 8
  store %"class.altered_carbon::js::ACAstBaseNode"* %0, %"class.altered_carbon::js::ACAstBaseNode"** %2, align 8
  call void @llvm.dbg.declare(metadata %"class.altered_carbon::js::ACAstBaseNode"** %2, metadata !6768, metadata !DIExpression()), !dbg !6769
  %3 = load %"class.altered_carbon::js::ACAstBaseNode"*, %"class.altered_carbon::js::ACAstBaseNode"** %2, align 8
  ret i1 false, !dbg !6770
}

declare void @_ZNK14altered_carbon2js13ACAstBaseNode4dumpERNSt3__113basic_ostreamIcNS2_11char_traitsIcEEEE(%"class.altered_carbon::js::ACAstBaseNode"*, %"class.std::__1::basic_ostream"* dereferenceable(160)) unnamed_addr #2

declare void @_ZNK14altered_carbon2js13ACAstBaseNode14dumpGraphLabelERNSt3__113basic_ostreamIcNS2_11char_traitsIcEEEE(%"class.altered_carbon::js::ACAstBaseNode"*, %"class.std::__1::basic_ostream"* dereferenceable(160)) unnamed_addr #2

declare void @_ZNK14altered_carbon2js19ACAstExpressionNode9dumpGraphERNSt3__113basic_ostreamIcNS2_11char_traitsIcEEEE(%"class.altered_carbon::js::ACAstExpressionNode"*, %"class.std::__1::basic_ostream"* dereferenceable(160)) unnamed_addr #2

; Function Attrs: noinline nounwind optnone ssp uwtable
define linkonce_odr hidden void @_ZN14altered_carbon2js21ACAstRuntimeMemberRefD1Ev(%"class.altered_carbon::js::ACAstRuntimeMemberRef"*) unnamed_addr #0 align 2 !dbg !6771 {
  %2 = alloca %"class.altered_carbon::js::ACAstRuntimeMemberRef"*, align 8
  store %"class.altered_carbon::js::ACAstRuntimeMemberRef"* %0, %"class.altered_carbon::js::ACAstRuntimeMemberRef"** %2, align 8
  call void @llvm.dbg.declare(metadata %"class.altered_carbon::js::ACAstRuntimeMemberRef"** %2, metadata !6775, metadata !DIExpression()), !dbg !6776
  %3 = load %"class.altered_carbon::js::ACAstRuntimeMemberRef"*, %"class.altered_carbon::js::ACAstRuntimeMemberRef"** %2, align 8
  call void @_ZN14altered_carbon2js21ACAstRuntimeMemberRefD2Ev(%"class.altered_carbon::js::ACAstRuntimeMemberRef"* %3) #8, !dbg !6777
  ret void, !dbg !6777
}

; Function Attrs: noinline nounwind optnone ssp uwtable
define linkonce_odr hidden void @_ZN14altered_carbon2js21ACAstRuntimeMemberRefD0Ev(%"class.altered_carbon::js::ACAstRuntimeMemberRef"*) unnamed_addr #0 align 2 !dbg !6778 {
  %2 = alloca %"class.altered_carbon::js::ACAstRuntimeMemberRef"*, align 8
  store %"class.altered_carbon::js::ACAstRuntimeMemberRef"* %0, %"class.altered_carbon::js::ACAstRuntimeMemberRef"** %2, align 8
  call void @llvm.dbg.declare(metadata %"class.altered_carbon::js::ACAstRuntimeMemberRef"** %2, metadata !6779, metadata !DIExpression()), !dbg !6780
  %3 = load %"class.altered_carbon::js::ACAstRuntimeMemberRef"*, %"class.altered_carbon::js::ACAstRuntimeMemberRef"** %2, align 8
  call void @_ZN14altered_carbon2js21ACAstRuntimeMemberRefD1Ev(%"class.altered_carbon::js::ACAstRuntimeMemberRef"* %3) #8, !dbg !6781
  %4 = bitcast %"class.altered_carbon::js::ACAstRuntimeMemberRef"* %3 to i8*, !dbg !6781
  call void @_ZdlPv(i8* %4) #9, !dbg !6781
  ret void, !dbg !6781
}

; Function Attrs: noinline nounwind optnone ssp uwtable
define linkonce_odr hidden zeroext i1 @_ZN14altered_carbon2js21ACAstRuntimeMemberRef14convertToParamEv(%"class.altered_carbon::js::ACAstRuntimeMemberRef"*) unnamed_addr #0 align 2 !dbg !6782 {
  %2 = alloca %"class.altered_carbon::js::ACAstRuntimeMemberRef"*, align 8
  store %"class.altered_carbon::js::ACAstRuntimeMemberRef"* %0, %"class.altered_carbon::js::ACAstRuntimeMemberRef"** %2, align 8
  call void @llvm.dbg.declare(metadata %"class.altered_carbon::js::ACAstRuntimeMemberRef"** %2, metadata !6783, metadata !DIExpression()), !dbg !6784
  %3 = load %"class.altered_carbon::js::ACAstRuntimeMemberRef"*, %"class.altered_carbon::js::ACAstRuntimeMemberRef"** %2, align 8
  ret i1 true, !dbg !6785
}

; Function Attrs: noinline nounwind optnone ssp uwtable
define linkonce_odr hidden void @_ZN14altered_carbon2js20ACAstStaticMemberRefD2Ev(%"class.altered_carbon::js::ACAstStaticMemberRef"*) unnamed_addr #0 align 2 !dbg !6786 {
  %2 = alloca %"class.altered_carbon::js::ACAstStaticMemberRef"*, align 8
  store %"class.altered_carbon::js::ACAstStaticMemberRef"* %0, %"class.altered_carbon::js::ACAstStaticMemberRef"** %2, align 8
  call void @llvm.dbg.declare(metadata %"class.altered_carbon::js::ACAstStaticMemberRef"** %2, metadata !6787, metadata !DIExpression()), !dbg !6788
  %3 = load %"class.altered_carbon::js::ACAstStaticMemberRef"*, %"class.altered_carbon::js::ACAstStaticMemberRef"** %2, align 8
  %4 = bitcast %"class.altered_carbon::js::ACAstStaticMemberRef"* %3 to %"class.altered_carbon::js::ACAstExpressionNode"*, !dbg !6789
  call void @_ZN14altered_carbon2js19ACAstExpressionNodeD2Ev(%"class.altered_carbon::js::ACAstExpressionNode"* %4) #8, !dbg !6789
  ret void, !dbg !6791
}

; Function Attrs: noinline nounwind optnone ssp uwtable
define linkonce_odr hidden void @_ZN14altered_carbon2js19ACAstExpressionNodeD2Ev(%"class.altered_carbon::js::ACAstExpressionNode"*) unnamed_addr #0 align 2 !dbg !6792 {
  %2 = alloca %"struct.std::__1::__compressed_pair_elem.4"*, align 8
  call void @llvm.dbg.declare(metadata %"struct.std::__1::__compressed_pair_elem.4"** %2, metadata !5452, metadata !DIExpression()), !dbg !6796
  %3 = alloca %"class.std::__1::__compressed_pair.2"*, align 8
  call void @llvm.dbg.declare(metadata %"class.std::__1::__compressed_pair.2"** %3, metadata !5465, metadata !DIExpression()), !dbg !6803
  %4 = alloca %"struct.std::__1::__compressed_pair_elem.3"*, align 8
  call void @llvm.dbg.declare(metadata %"struct.std::__1::__compressed_pair_elem.3"** %4, metadata !5544, metadata !DIExpression()), !dbg !6804
  %5 = alloca %"class.std::__1::__compressed_pair.2"*, align 8
  call void @llvm.dbg.declare(metadata %"class.std::__1::__compressed_pair.2"** %5, metadata !5552, metadata !DIExpression()), !dbg !6807
  %6 = alloca %"struct.std::__1::default_delete.5"*, align 8
  call void @llvm.dbg.declare(metadata %"struct.std::__1::default_delete.5"** %6, metadata !5586, metadata !DIExpression()), !dbg !6808
  %7 = alloca %"class.altered_carbon::js::ACAstBaseNode"*, align 8
  call void @llvm.dbg.declare(metadata %"class.altered_carbon::js::ACAstBaseNode"** %7, metadata !5591, metadata !DIExpression()), !dbg !6810
  %8 = alloca %"struct.std::__1::__compressed_pair_elem.3"*, align 8
  call void @llvm.dbg.declare(metadata %"struct.std::__1::__compressed_pair_elem.3"** %8, metadata !5544, metadata !DIExpression()), !dbg !6811
  %9 = alloca %"class.std::__1::__compressed_pair.2"*, align 8
  call void @llvm.dbg.declare(metadata %"class.std::__1::__compressed_pair.2"** %9, metadata !5552, metadata !DIExpression()), !dbg !6814
  %10 = alloca %"class.std::__1::unique_ptr.1"*, align 8
  call void @llvm.dbg.declare(metadata %"class.std::__1::unique_ptr.1"** %10, metadata !5597, metadata !DIExpression()), !dbg !6815
  %11 = alloca %"class.altered_carbon::js::ACAstBaseNode"*, align 8
  call void @llvm.dbg.declare(metadata %"class.altered_carbon::js::ACAstBaseNode"** %11, metadata !5599, metadata !DIExpression()), !dbg !6816
  %12 = alloca %"class.altered_carbon::js::ACAstBaseNode"*, align 8
  call void @llvm.dbg.declare(metadata %"class.altered_carbon::js::ACAstBaseNode"** %12, metadata !5601, metadata !DIExpression()), !dbg !6817
  %13 = alloca %"class.std::__1::unique_ptr.1"*, align 8
  call void @llvm.dbg.declare(metadata %"class.std::__1::unique_ptr.1"** %13, metadata !5603, metadata !DIExpression()), !dbg !6818
  %14 = alloca %"class.std::__1::unique_ptr.1"*, align 8
  call void @llvm.dbg.declare(metadata %"class.std::__1::unique_ptr.1"** %14, metadata !5605, metadata !DIExpression()), !dbg !6819
  %15 = alloca %"class.altered_carbon::js::ACAstExpressionNode"*, align 8
  store %"class.altered_carbon::js::ACAstExpressionNode"* %0, %"class.altered_carbon::js::ACAstExpressionNode"** %15, align 8
  call void @llvm.dbg.declare(metadata %"class.altered_carbon::js::ACAstExpressionNode"** %15, metadata !6820, metadata !DIExpression()), !dbg !6822
  %16 = load %"class.altered_carbon::js::ACAstExpressionNode"*, %"class.altered_carbon::js::ACAstExpressionNode"** %15, align 8
  %17 = bitcast %"class.altered_carbon::js::ACAstExpressionNode"* %16 to i32 (...)***, !dbg !6823
  store i32 (...)** bitcast (i8** getelementptr inbounds ({ [14 x i8*] }, { [14 x i8*] }* @_ZTVN14altered_carbon2js19ACAstExpressionNodeE, i32 0, inrange i32 0, i32 2) to i32 (...)**), i32 (...)*** %17, align 8, !dbg !6823
  %18 = getelementptr inbounds %"class.altered_carbon::js::ACAstExpressionNode", %"class.altered_carbon::js::ACAstExpressionNode"* %16, i32 0, i32 1, !dbg !6824
  store %"class.std::__1::unique_ptr.1"* %18, %"class.std::__1::unique_ptr.1"** %14, align 8
  %19 = load %"class.std::__1::unique_ptr.1"*, %"class.std::__1::unique_ptr.1"** %14, align 8
  store %"class.std::__1::unique_ptr.1"* %19, %"class.std::__1::unique_ptr.1"** %13, align 8
  %20 = load %"class.std::__1::unique_ptr.1"*, %"class.std::__1::unique_ptr.1"** %13, align 8
  store %"class.std::__1::unique_ptr.1"* %20, %"class.std::__1::unique_ptr.1"** %10, align 8
  store %"class.altered_carbon::js::ACAstBaseNode"* null, %"class.altered_carbon::js::ACAstBaseNode"** %11, align 8
  %21 = load %"class.std::__1::unique_ptr.1"*, %"class.std::__1::unique_ptr.1"** %10, align 8
  %22 = getelementptr inbounds %"class.std::__1::unique_ptr.1", %"class.std::__1::unique_ptr.1"* %21, i32 0, i32 0, !dbg !6825
  store %"class.std::__1::__compressed_pair.2"* %22, %"class.std::__1::__compressed_pair.2"** %9, align 8
  %23 = load %"class.std::__1::__compressed_pair.2"*, %"class.std::__1::__compressed_pair.2"** %9, align 8
  %24 = bitcast %"class.std::__1::__compressed_pair.2"* %23 to %"struct.std::__1::__compressed_pair_elem.3"*, !dbg !6826
  store %"struct.std::__1::__compressed_pair_elem.3"* %24, %"struct.std::__1::__compressed_pair_elem.3"** %8, align 8
  %25 = load %"struct.std::__1::__compressed_pair_elem.3"*, %"struct.std::__1::__compressed_pair_elem.3"** %8, align 8
  %26 = getelementptr inbounds %"struct.std::__1::__compressed_pair_elem.3", %"struct.std::__1::__compressed_pair_elem.3"* %25, i32 0, i32 0, !dbg !6827
  %27 = load %"class.altered_carbon::js::ACAstBaseNode"*, %"class.altered_carbon::js::ACAstBaseNode"** %26, align 8, !dbg !6828
  store %"class.altered_carbon::js::ACAstBaseNode"* %27, %"class.altered_carbon::js::ACAstBaseNode"** %12, align 8, !dbg !6817
  %28 = load %"class.altered_carbon::js::ACAstBaseNode"*, %"class.altered_carbon::js::ACAstBaseNode"** %11, align 8, !dbg !6829
  %29 = getelementptr inbounds %"class.std::__1::unique_ptr.1", %"class.std::__1::unique_ptr.1"* %21, i32 0, i32 0, !dbg !6830
  store %"class.std::__1::__compressed_pair.2"* %29, %"class.std::__1::__compressed_pair.2"** %5, align 8
  %30 = load %"class.std::__1::__compressed_pair.2"*, %"class.std::__1::__compressed_pair.2"** %5, align 8
  %31 = bitcast %"class.std::__1::__compressed_pair.2"* %30 to %"struct.std::__1::__compressed_pair_elem.3"*, !dbg !6831
  store %"struct.std::__1::__compressed_pair_elem.3"* %31, %"struct.std::__1::__compressed_pair_elem.3"** %4, align 8
  %32 = load %"struct.std::__1::__compressed_pair_elem.3"*, %"struct.std::__1::__compressed_pair_elem.3"** %4, align 8
  %33 = getelementptr inbounds %"struct.std::__1::__compressed_pair_elem.3", %"struct.std::__1::__compressed_pair_elem.3"* %32, i32 0, i32 0, !dbg !6832
  store %"class.altered_carbon::js::ACAstBaseNode"* %28, %"class.altered_carbon::js::ACAstBaseNode"** %33, align 8, !dbg !6833
  %34 = load %"class.altered_carbon::js::ACAstBaseNode"*, %"class.altered_carbon::js::ACAstBaseNode"** %12, align 8, !dbg !6834
  %35 = icmp ne %"class.altered_carbon::js::ACAstBaseNode"* %34, null, !dbg !6834
  br i1 %35, label %36, label %52, !dbg !6835

; <label>:36:                                     ; preds = %1
  %37 = getelementptr inbounds %"class.std::__1::unique_ptr.1", %"class.std::__1::unique_ptr.1"* %21, i32 0, i32 0, !dbg !6836
  store %"class.std::__1::__compressed_pair.2"* %37, %"class.std::__1::__compressed_pair.2"** %3, align 8
  %38 = load %"class.std::__1::__compressed_pair.2"*, %"class.std::__1::__compressed_pair.2"** %3, align 8
  %39 = bitcast %"class.std::__1::__compressed_pair.2"* %38 to %"struct.std::__1::__compressed_pair_elem.4"*, !dbg !6837
  store %"struct.std::__1::__compressed_pair_elem.4"* %39, %"struct.std::__1::__compressed_pair_elem.4"** %2, align 8
  %40 = load %"struct.std::__1::__compressed_pair_elem.4"*, %"struct.std::__1::__compressed_pair_elem.4"** %2, align 8
  %41 = bitcast %"struct.std::__1::__compressed_pair_elem.4"* %40 to %"struct.std::__1::default_delete.5"*, !dbg !6838
  %42 = load %"class.altered_carbon::js::ACAstBaseNode"*, %"class.altered_carbon::js::ACAstBaseNode"** %12, align 8, !dbg !6839
  store %"struct.std::__1::default_delete.5"* %41, %"struct.std::__1::default_delete.5"** %6, align 8
  store %"class.altered_carbon::js::ACAstBaseNode"* %42, %"class.altered_carbon::js::ACAstBaseNode"** %7, align 8
  %43 = load %"struct.std::__1::default_delete.5"*, %"struct.std::__1::default_delete.5"** %6, align 8
  %44 = load %"class.altered_carbon::js::ACAstBaseNode"*, %"class.altered_carbon::js::ACAstBaseNode"** %7, align 8, !dbg !6840
  %45 = icmp eq %"class.altered_carbon::js::ACAstBaseNode"* %44, null, !dbg !6841
  br i1 %45, label %51, label %46, !dbg !6841

; <label>:46:                                     ; preds = %36
  %47 = bitcast %"class.altered_carbon::js::ACAstBaseNode"* %44 to void (%"class.altered_carbon::js::ACAstBaseNode"*)***, !dbg !6841
  %48 = load void (%"class.altered_carbon::js::ACAstBaseNode"*)**, void (%"class.altered_carbon::js::ACAstBaseNode"*)*** %47, align 8, !dbg !6841
  %49 = getelementptr inbounds void (%"class.altered_carbon::js::ACAstBaseNode"*)*, void (%"class.altered_carbon::js::ACAstBaseNode"*)** %48, i64 1, !dbg !6841
  %50 = load void (%"class.altered_carbon::js::ACAstBaseNode"*)*, void (%"class.altered_carbon::js::ACAstBaseNode"*)** %49, align 8, !dbg !6841
  call void %50(%"class.altered_carbon::js::ACAstBaseNode"* %44) #8, !dbg !6841
  br label %51, !dbg !6841

; <label>:51:                                     ; preds = %46, %36
  br label %52, !dbg !6836

; <label>:52:                                     ; preds = %1, %51
  %53 = bitcast %"class.altered_carbon::js::ACAstExpressionNode"* %16 to %"class.altered_carbon::js::ACAstBaseNode"*, !dbg !6824
  call void @_ZN14altered_carbon2js13ACAstBaseNodeD2Ev(%"class.altered_carbon::js::ACAstBaseNode"* %53) #8, !dbg !6824
  ret void, !dbg !6823
}

; Function Attrs: noinline nounwind optnone ssp uwtable
define linkonce_odr hidden void @_ZN14altered_carbon2js13ACAstBaseNodeD2Ev(%"class.altered_carbon::js::ACAstBaseNode"*) unnamed_addr #0 align 2 !dbg !6842 {
  %2 = alloca %"struct.std::__1::__compressed_pair_elem.0"*, align 8
  call void @llvm.dbg.declare(metadata %"struct.std::__1::__compressed_pair_elem.0"** %2, metadata !5618, metadata !DIExpression()), !dbg !6843
  %3 = alloca %"class.std::__1::__compressed_pair"*, align 8
  call void @llvm.dbg.declare(metadata %"class.std::__1::__compressed_pair"** %3, metadata !5633, metadata !DIExpression()), !dbg !6850
  %4 = alloca %"struct.std::__1::__compressed_pair_elem"*, align 8
  call void @llvm.dbg.declare(metadata %"struct.std::__1::__compressed_pair_elem"** %4, metadata !5636, metadata !DIExpression()), !dbg !6851
  %5 = alloca %"class.std::__1::__compressed_pair"*, align 8
  call void @llvm.dbg.declare(metadata %"class.std::__1::__compressed_pair"** %5, metadata !5643, metadata !DIExpression()), !dbg !6854
  %6 = alloca %"struct.std::__1::default_delete"*, align 8
  call void @llvm.dbg.declare(metadata %"struct.std::__1::default_delete"** %6, metadata !5645, metadata !DIExpression()), !dbg !6855
  %7 = alloca %"struct.altered_carbon::js::ACLexPosition"*, align 8
  call void @llvm.dbg.declare(metadata %"struct.altered_carbon::js::ACLexPosition"** %7, metadata !5650, metadata !DIExpression()), !dbg !6857
  %8 = alloca %"struct.std::__1::__compressed_pair_elem"*, align 8
  call void @llvm.dbg.declare(metadata %"struct.std::__1::__compressed_pair_elem"** %8, metadata !5636, metadata !DIExpression()), !dbg !6858
  %9 = alloca %"class.std::__1::__compressed_pair"*, align 8
  call void @llvm.dbg.declare(metadata %"class.std::__1::__compressed_pair"** %9, metadata !5643, metadata !DIExpression()), !dbg !6861
  %10 = alloca %"class.std::__1::unique_ptr"*, align 8
  call void @llvm.dbg.declare(metadata %"class.std::__1::unique_ptr"** %10, metadata !5656, metadata !DIExpression()), !dbg !6862
  %11 = alloca %"struct.altered_carbon::js::ACLexPosition"*, align 8
  call void @llvm.dbg.declare(metadata %"struct.altered_carbon::js::ACLexPosition"** %11, metadata !5659, metadata !DIExpression()), !dbg !6863
  %12 = alloca %"struct.altered_carbon::js::ACLexPosition"*, align 8
  call void @llvm.dbg.declare(metadata %"struct.altered_carbon::js::ACLexPosition"** %12, metadata !5661, metadata !DIExpression()), !dbg !6864
  %13 = alloca %"class.std::__1::unique_ptr"*, align 8
  call void @llvm.dbg.declare(metadata %"class.std::__1::unique_ptr"** %13, metadata !5663, metadata !DIExpression()), !dbg !6865
  %14 = alloca %"class.std::__1::unique_ptr"*, align 8
  call void @llvm.dbg.declare(metadata %"class.std::__1::unique_ptr"** %14, metadata !5665, metadata !DIExpression()), !dbg !6866
  %15 = alloca %"class.altered_carbon::js::ACAstBaseNode"*, align 8
  store %"class.altered_carbon::js::ACAstBaseNode"* %0, %"class.altered_carbon::js::ACAstBaseNode"** %15, align 8
  call void @llvm.dbg.declare(metadata %"class.altered_carbon::js::ACAstBaseNode"** %15, metadata !6867, metadata !DIExpression()), !dbg !6868
  %16 = load %"class.altered_carbon::js::ACAstBaseNode"*, %"class.altered_carbon::js::ACAstBaseNode"** %15, align 8
  %17 = bitcast %"class.altered_carbon::js::ACAstBaseNode"* %16 to i32 (...)***, !dbg !6869
  store i32 (...)** bitcast (i8** getelementptr inbounds ({ [14 x i8*] }, { [14 x i8*] }* @_ZTVN14altered_carbon2js13ACAstBaseNodeE, i32 0, inrange i32 0, i32 2) to i32 (...)**), i32 (...)*** %17, align 8, !dbg !6869
  %18 = getelementptr inbounds %"class.altered_carbon::js::ACAstBaseNode", %"class.altered_carbon::js::ACAstBaseNode"* %16, i32 0, i32 4, !dbg !6870
  call void @_ZNSt3__16vectorINS_10unique_ptrIN14altered_carbon2js13ACAstBaseNodeENS_14default_deleteIS4_EEEENS_9allocatorIS7_EEED1Ev(%"class.std::__1::vector"* %18) #8, !dbg !6870
  %19 = getelementptr inbounds %"class.altered_carbon::js::ACAstBaseNode", %"class.altered_carbon::js::ACAstBaseNode"* %16, i32 0, i32 1, !dbg !6870
  store %"class.std::__1::unique_ptr"* %19, %"class.std::__1::unique_ptr"** %14, align 8
  %20 = load %"class.std::__1::unique_ptr"*, %"class.std::__1::unique_ptr"** %14, align 8
  store %"class.std::__1::unique_ptr"* %20, %"class.std::__1::unique_ptr"** %13, align 8
  %21 = load %"class.std::__1::unique_ptr"*, %"class.std::__1::unique_ptr"** %13, align 8
  store %"class.std::__1::unique_ptr"* %21, %"class.std::__1::unique_ptr"** %10, align 8
  store %"struct.altered_carbon::js::ACLexPosition"* null, %"struct.altered_carbon::js::ACLexPosition"** %11, align 8
  %22 = load %"class.std::__1::unique_ptr"*, %"class.std::__1::unique_ptr"** %10, align 8
  %23 = getelementptr inbounds %"class.std::__1::unique_ptr", %"class.std::__1::unique_ptr"* %22, i32 0, i32 0, !dbg !6871
  store %"class.std::__1::__compressed_pair"* %23, %"class.std::__1::__compressed_pair"** %9, align 8
  %24 = load %"class.std::__1::__compressed_pair"*, %"class.std::__1::__compressed_pair"** %9, align 8
  %25 = bitcast %"class.std::__1::__compressed_pair"* %24 to %"struct.std::__1::__compressed_pair_elem"*, !dbg !6872
  store %"struct.std::__1::__compressed_pair_elem"* %25, %"struct.std::__1::__compressed_pair_elem"** %8, align 8
  %26 = load %"struct.std::__1::__compressed_pair_elem"*, %"struct.std::__1::__compressed_pair_elem"** %8, align 8
  %27 = getelementptr inbounds %"struct.std::__1::__compressed_pair_elem", %"struct.std::__1::__compressed_pair_elem"* %26, i32 0, i32 0, !dbg !6873
  %28 = load %"struct.altered_carbon::js::ACLexPosition"*, %"struct.altered_carbon::js::ACLexPosition"** %27, align 8, !dbg !6874
  store %"struct.altered_carbon::js::ACLexPosition"* %28, %"struct.altered_carbon::js::ACLexPosition"** %12, align 8, !dbg !6864
  %29 = load %"struct.altered_carbon::js::ACLexPosition"*, %"struct.altered_carbon::js::ACLexPosition"** %11, align 8, !dbg !6875
  %30 = getelementptr inbounds %"class.std::__1::unique_ptr", %"class.std::__1::unique_ptr"* %22, i32 0, i32 0, !dbg !6876
  store %"class.std::__1::__compressed_pair"* %30, %"class.std::__1::__compressed_pair"** %5, align 8
  %31 = load %"class.std::__1::__compressed_pair"*, %"class.std::__1::__compressed_pair"** %5, align 8
  %32 = bitcast %"class.std::__1::__compressed_pair"* %31 to %"struct.std::__1::__compressed_pair_elem"*, !dbg !6877
  store %"struct.std::__1::__compressed_pair_elem"* %32, %"struct.std::__1::__compressed_pair_elem"** %4, align 8
  %33 = load %"struct.std::__1::__compressed_pair_elem"*, %"struct.std::__1::__compressed_pair_elem"** %4, align 8
  %34 = getelementptr inbounds %"struct.std::__1::__compressed_pair_elem", %"struct.std::__1::__compressed_pair_elem"* %33, i32 0, i32 0, !dbg !6878
  store %"struct.altered_carbon::js::ACLexPosition"* %29, %"struct.altered_carbon::js::ACLexPosition"** %34, align 8, !dbg !6879
  %35 = load %"struct.altered_carbon::js::ACLexPosition"*, %"struct.altered_carbon::js::ACLexPosition"** %12, align 8, !dbg !6880
  %36 = icmp ne %"struct.altered_carbon::js::ACLexPosition"* %35, null, !dbg !6880
  br i1 %36, label %37, label %53, !dbg !6881

; <label>:37:                                     ; preds = %1
  %38 = getelementptr inbounds %"class.std::__1::unique_ptr", %"class.std::__1::unique_ptr"* %22, i32 0, i32 0, !dbg !6882
  store %"class.std::__1::__compressed_pair"* %38, %"class.std::__1::__compressed_pair"** %3, align 8
  %39 = load %"class.std::__1::__compressed_pair"*, %"class.std::__1::__compressed_pair"** %3, align 8
  %40 = bitcast %"class.std::__1::__compressed_pair"* %39 to %"struct.std::__1::__compressed_pair_elem.0"*, !dbg !6883
  store %"struct.std::__1::__compressed_pair_elem.0"* %40, %"struct.std::__1::__compressed_pair_elem.0"** %2, align 8
  %41 = load %"struct.std::__1::__compressed_pair_elem.0"*, %"struct.std::__1::__compressed_pair_elem.0"** %2, align 8
  %42 = bitcast %"struct.std::__1::__compressed_pair_elem.0"* %41 to %"struct.std::__1::default_delete"*, !dbg !6884
  %43 = load %"struct.altered_carbon::js::ACLexPosition"*, %"struct.altered_carbon::js::ACLexPosition"** %12, align 8, !dbg !6885
  store %"struct.std::__1::default_delete"* %42, %"struct.std::__1::default_delete"** %6, align 8
  store %"struct.altered_carbon::js::ACLexPosition"* %43, %"struct.altered_carbon::js::ACLexPosition"** %7, align 8
  %44 = load %"struct.std::__1::default_delete"*, %"struct.std::__1::default_delete"** %6, align 8
  %45 = load %"struct.altered_carbon::js::ACLexPosition"*, %"struct.altered_carbon::js::ACLexPosition"** %7, align 8, !dbg !6886
  %46 = icmp eq %"struct.altered_carbon::js::ACLexPosition"* %45, null, !dbg !6887
  br i1 %46, label %52, label %47, !dbg !6887

; <label>:47:                                     ; preds = %37
  %48 = bitcast %"struct.altered_carbon::js::ACLexPosition"* %45 to void (%"struct.altered_carbon::js::ACLexPosition"*)***, !dbg !6887
  %49 = load void (%"struct.altered_carbon::js::ACLexPosition"*)**, void (%"struct.altered_carbon::js::ACLexPosition"*)*** %48, align 8, !dbg !6887
  %50 = getelementptr inbounds void (%"struct.altered_carbon::js::ACLexPosition"*)*, void (%"struct.altered_carbon::js::ACLexPosition"*)** %49, i64 1, !dbg !6887
  %51 = load void (%"struct.altered_carbon::js::ACLexPosition"*)*, void (%"struct.altered_carbon::js::ACLexPosition"*)** %50, align 8, !dbg !6887
  call void %51(%"struct.altered_carbon::js::ACLexPosition"* %45) #8, !dbg !6887
  br label %52, !dbg !6887

; <label>:52:                                     ; preds = %47, %37
  br label %53, !dbg !6882

; <label>:53:                                     ; preds = %1, %52
  ret void, !dbg !6888
}

; Function Attrs: noinline nounwind optnone ssp uwtable
define linkonce_odr hidden void @_ZNSt3__16vectorINS_10unique_ptrIN14altered_carbon2js13ACAstBaseNodeENS_14default_deleteIS4_EEEENS_9allocatorIS7_EEED1Ev(%"class.std::__1::vector"*) unnamed_addr #0 align 2 !dbg !6889 {
  %2 = alloca %"class.std::__1::vector"*, align 8
  store %"class.std::__1::vector"* %0, %"class.std::__1::vector"** %2, align 8
  call void @llvm.dbg.declare(metadata %"class.std::__1::vector"** %2, metadata !6891, metadata !DIExpression()), !dbg !6892
  %3 = load %"class.std::__1::vector"*, %"class.std::__1::vector"** %2, align 8
  call void @_ZNSt3__16vectorINS_10unique_ptrIN14altered_carbon2js13ACAstBaseNodeENS_14default_deleteIS4_EEEENS_9allocatorIS7_EEED2Ev(%"class.std::__1::vector"* %3) #8, !dbg !6893
  ret void, !dbg !6893
}

; Function Attrs: noinline nounwind optnone ssp uwtable
define linkonce_odr hidden void @_ZNSt3__16vectorINS_10unique_ptrIN14altered_carbon2js13ACAstBaseNodeENS_14default_deleteIS4_EEEENS_9allocatorIS7_EEED2Ev(%"class.std::__1::vector"*) unnamed_addr #0 align 2 !dbg !6894 {
  %2 = alloca %"class.std::__1::vector"*, align 8
  store %"class.std::__1::vector"* %0, %"class.std::__1::vector"** %2, align 8
  call void @llvm.dbg.declare(metadata %"class.std::__1::vector"** %2, metadata !6895, metadata !DIExpression()), !dbg !6896
  %3 = load %"class.std::__1::vector"*, %"class.std::__1::vector"** %2, align 8
  %4 = bitcast %"class.std::__1::vector"* %3 to %"class.std::__1::__vector_base"*, !dbg !6897
  call void @_ZNSt3__113__vector_baseINS_10unique_ptrIN14altered_carbon2js13ACAstBaseNodeENS_14default_deleteIS4_EEEENS_9allocatorIS7_EEED2Ev(%"class.std::__1::__vector_base"* %4) #8, !dbg !6897
  ret void, !dbg !6899
}

; Function Attrs: noinline nounwind optnone ssp uwtable
define linkonce_odr void @_ZNSt3__113__vector_baseINS_10unique_ptrIN14altered_carbon2js13ACAstBaseNodeENS_14default_deleteIS4_EEEENS_9allocatorIS7_EEED2Ev(%"class.std::__1::__vector_base"*) unnamed_addr #0 align 2 !dbg !6900 {
  %2 = alloca %"struct.std::__1::__compressed_pair_elem.8"*, align 8
  call void @llvm.dbg.declare(metadata %"struct.std::__1::__compressed_pair_elem.8"** %2, metadata !6901, metadata !DIExpression()), !dbg !6904
  %3 = alloca %"class.std::__1::__compressed_pair.7"*, align 8
  call void @llvm.dbg.declare(metadata %"class.std::__1::__compressed_pair.7"** %3, metadata !6915, metadata !DIExpression()), !dbg !6917
  %4 = alloca %"class.std::__1::__vector_base"*, align 8
  call void @llvm.dbg.declare(metadata %"class.std::__1::__vector_base"** %4, metadata !6918, metadata !DIExpression()), !dbg !6920
  %5 = alloca %"class.std::__1::__vector_base"*, align 8
  call void @llvm.dbg.declare(metadata %"class.std::__1::__vector_base"** %5, metadata !6921, metadata !DIExpression()), !dbg !6922
  %6 = alloca i8*, align 8
  call void @llvm.dbg.declare(metadata i8** %6, metadata !6923, metadata !DIExpression()), !dbg !6926
  %7 = alloca %"class.std::__1::allocator"*, align 8
  call void @llvm.dbg.declare(metadata %"class.std::__1::allocator"** %7, metadata !6932, metadata !DIExpression()), !dbg !6933
  %8 = alloca %"class.std::__1::unique_ptr.1"*, align 8
  call void @llvm.dbg.declare(metadata %"class.std::__1::unique_ptr.1"** %8, metadata !6934, metadata !DIExpression()), !dbg !6935
  %9 = alloca i64, align 8
  call void @llvm.dbg.declare(metadata i64* %9, metadata !6936, metadata !DIExpression()), !dbg !6937
  %10 = alloca %"class.std::__1::allocator"*, align 8
  call void @llvm.dbg.declare(metadata %"class.std::__1::allocator"** %10, metadata !6938, metadata !DIExpression()), !dbg !6939
  %11 = alloca %"class.std::__1::unique_ptr.1"*, align 8
  call void @llvm.dbg.declare(metadata %"class.std::__1::unique_ptr.1"** %11, metadata !6940, metadata !DIExpression()), !dbg !6941
  %12 = alloca i64, align 8
  call void @llvm.dbg.declare(metadata i64* %12, metadata !6942, metadata !DIExpression()), !dbg !6943
  %13 = alloca %"struct.std::__1::__compressed_pair_elem.9"*, align 8
  call void @llvm.dbg.declare(metadata %"struct.std::__1::__compressed_pair_elem.9"** %13, metadata !5776, metadata !DIExpression()), !dbg !6944
  %14 = alloca %"class.std::__1::__compressed_pair.7"*, align 8
  call void @llvm.dbg.declare(metadata %"class.std::__1::__compressed_pair.7"** %14, metadata !5789, metadata !DIExpression()), !dbg !6948
  %15 = alloca %"class.std::__1::__vector_base"*, align 8
  call void @llvm.dbg.declare(metadata %"class.std::__1::__vector_base"** %15, metadata !5792, metadata !DIExpression()), !dbg !6949
  %16 = alloca %"class.std::__1::unique_ptr.1"*, align 8
  call void @llvm.dbg.declare(metadata %"class.std::__1::unique_ptr.1"** %16, metadata !5795, metadata !DIExpression()), !dbg !6950
  %17 = alloca %"struct.std::__1::__compressed_pair_elem.4"*, align 8
  call void @llvm.dbg.declare(metadata %"struct.std::__1::__compressed_pair_elem.4"** %17, metadata !5452, metadata !DIExpression()), !dbg !6956
  %18 = alloca %"class.std::__1::__compressed_pair.2"*, align 8
  call void @llvm.dbg.declare(metadata %"class.std::__1::__compressed_pair.2"** %18, metadata !5465, metadata !DIExpression()), !dbg !6974
  %19 = alloca %"struct.std::__1::__compressed_pair_elem.3"*, align 8
  call void @llvm.dbg.declare(metadata %"struct.std::__1::__compressed_pair_elem.3"** %19, metadata !5544, metadata !DIExpression()), !dbg !6975
  %20 = alloca %"class.std::__1::__compressed_pair.2"*, align 8
  call void @llvm.dbg.declare(metadata %"class.std::__1::__compressed_pair.2"** %20, metadata !5552, metadata !DIExpression()), !dbg !6978
  %21 = alloca %"struct.std::__1::default_delete.5"*, align 8
  call void @llvm.dbg.declare(metadata %"struct.std::__1::default_delete.5"** %21, metadata !5586, metadata !DIExpression()), !dbg !6979
  %22 = alloca %"class.altered_carbon::js::ACAstBaseNode"*, align 8
  call void @llvm.dbg.declare(metadata %"class.altered_carbon::js::ACAstBaseNode"** %22, metadata !5591, metadata !DIExpression()), !dbg !6981
  %23 = alloca %"struct.std::__1::__compressed_pair_elem.3"*, align 8
  call void @llvm.dbg.declare(metadata %"struct.std::__1::__compressed_pair_elem.3"** %23, metadata !5544, metadata !DIExpression()), !dbg !6982
  %24 = alloca %"class.std::__1::__compressed_pair.2"*, align 8
  call void @llvm.dbg.declare(metadata %"class.std::__1::__compressed_pair.2"** %24, metadata !5552, metadata !DIExpression()), !dbg !6985
  %25 = alloca %"class.std::__1::unique_ptr.1"*, align 8
  call void @llvm.dbg.declare(metadata %"class.std::__1::unique_ptr.1"** %25, metadata !5597, metadata !DIExpression()), !dbg !6986
  %26 = alloca %"class.altered_carbon::js::ACAstBaseNode"*, align 8
  call void @llvm.dbg.declare(metadata %"class.altered_carbon::js::ACAstBaseNode"** %26, metadata !5599, metadata !DIExpression()), !dbg !6987
  %27 = alloca %"class.altered_carbon::js::ACAstBaseNode"*, align 8
  call void @llvm.dbg.declare(metadata %"class.altered_carbon::js::ACAstBaseNode"** %27, metadata !5601, metadata !DIExpression()), !dbg !6988
  %28 = alloca %"class.std::__1::unique_ptr.1"*, align 8
  call void @llvm.dbg.declare(metadata %"class.std::__1::unique_ptr.1"** %28, metadata !5603, metadata !DIExpression()), !dbg !6989
  %29 = alloca %"class.std::__1::unique_ptr.1"*, align 8
  call void @llvm.dbg.declare(metadata %"class.std::__1::unique_ptr.1"** %29, metadata !5605, metadata !DIExpression()), !dbg !6990
  %30 = alloca %"class.std::__1::allocator"*, align 8
  call void @llvm.dbg.declare(metadata %"class.std::__1::allocator"** %30, metadata !6991, metadata !DIExpression()), !dbg !6992
  %31 = alloca %"class.std::__1::unique_ptr.1"*, align 8
  call void @llvm.dbg.declare(metadata %"class.std::__1::unique_ptr.1"** %31, metadata !6993, metadata !DIExpression()), !dbg !6994
  %32 = alloca %"class.std::__1::allocator"*, align 8
  call void @llvm.dbg.declare(metadata %"class.std::__1::allocator"** %32, metadata !6995, metadata !DIExpression()), !dbg !6996
  %33 = alloca %"class.std::__1::unique_ptr.1"*, align 8
  call void @llvm.dbg.declare(metadata %"class.std::__1::unique_ptr.1"** %33, metadata !6997, metadata !DIExpression()), !dbg !6998
  %34 = alloca %"class.std::__1::allocator"*, align 8
  call void @llvm.dbg.declare(metadata %"class.std::__1::allocator"** %34, metadata !6999, metadata !DIExpression()), !dbg !7000
  %35 = alloca %"class.std::__1::unique_ptr.1"*, align 8
  call void @llvm.dbg.declare(metadata %"class.std::__1::unique_ptr.1"** %35, metadata !7001, metadata !DIExpression()), !dbg !7002
  %36 = alloca %"struct.std::__1::__has_destroy", align 1
  %37 = alloca %"struct.std::__1::__compressed_pair_elem.9"*, align 8
  call void @llvm.dbg.declare(metadata %"struct.std::__1::__compressed_pair_elem.9"** %37, metadata !5776, metadata !DIExpression()), !dbg !7003
  %38 = alloca %"class.std::__1::__compressed_pair.7"*, align 8
  call void @llvm.dbg.declare(metadata %"class.std::__1::__compressed_pair.7"** %38, metadata !5789, metadata !DIExpression()), !dbg !7007
  %39 = alloca %"class.std::__1::__vector_base"*, align 8
  call void @llvm.dbg.declare(metadata %"class.std::__1::__vector_base"** %39, metadata !5792, metadata !DIExpression()), !dbg !7008
  %40 = alloca %"class.std::__1::__vector_base"*, align 8
  call void @llvm.dbg.declare(metadata %"class.std::__1::__vector_base"** %40, metadata !7009, metadata !DIExpression()), !dbg !7010
  %41 = alloca %"class.std::__1::unique_ptr.1"*, align 8
  call void @llvm.dbg.declare(metadata %"class.std::__1::unique_ptr.1"** %41, metadata !7011, metadata !DIExpression()), !dbg !7012
  %42 = alloca %"class.std::__1::unique_ptr.1"*, align 8
  call void @llvm.dbg.declare(metadata %"class.std::__1::unique_ptr.1"** %42, metadata !7013, metadata !DIExpression()), !dbg !7014
  %43 = alloca %"class.std::__1::__vector_base"*, align 8
  call void @llvm.dbg.declare(metadata %"class.std::__1::__vector_base"** %43, metadata !7015, metadata !DIExpression()), !dbg !7016
  %44 = alloca %"class.std::__1::__vector_base"*, align 8
  store %"class.std::__1::__vector_base"* %0, %"class.std::__1::__vector_base"** %44, align 8
  call void @llvm.dbg.declare(metadata %"class.std::__1::__vector_base"** %44, metadata !7017, metadata !DIExpression()), !dbg !7018
  %45 = load %"class.std::__1::__vector_base"*, %"class.std::__1::__vector_base"** %44, align 8
  %46 = getelementptr inbounds %"class.std::__1::__vector_base", %"class.std::__1::__vector_base"* %45, i32 0, i32 0, !dbg !7019
  %47 = load %"class.std::__1::unique_ptr.1"*, %"class.std::__1::unique_ptr.1"** %46, align 8, !dbg !7019
  %48 = icmp ne %"class.std::__1::unique_ptr.1"* %47, null, !dbg !7020
  br i1 %48, label %49, label %143, !dbg !7021

; <label>:49:                                     ; preds = %1
  store %"class.std::__1::__vector_base"* %45, %"class.std::__1::__vector_base"** %43, align 8
  %50 = load %"class.std::__1::__vector_base"*, %"class.std::__1::__vector_base"** %43, align 8
  %51 = getelementptr inbounds %"class.std::__1::__vector_base", %"class.std::__1::__vector_base"* %50, i32 0, i32 0, !dbg !7022
  %52 = load %"class.std::__1::unique_ptr.1"*, %"class.std::__1::unique_ptr.1"** %51, align 8, !dbg !7022
  store %"class.std::__1::__vector_base"* %50, %"class.std::__1::__vector_base"** %40, align 8
  store %"class.std::__1::unique_ptr.1"* %52, %"class.std::__1::unique_ptr.1"** %41, align 8
  %53 = load %"class.std::__1::__vector_base"*, %"class.std::__1::__vector_base"** %40, align 8
  %54 = getelementptr inbounds %"class.std::__1::__vector_base", %"class.std::__1::__vector_base"* %53, i32 0, i32 1, !dbg !7023
  %55 = load %"class.std::__1::unique_ptr.1"*, %"class.std::__1::unique_ptr.1"** %54, align 8, !dbg !7023
  store %"class.std::__1::unique_ptr.1"* %55, %"class.std::__1::unique_ptr.1"** %42, align 8, !dbg !7014
  br label %56, !dbg !7024

; <label>:56:                                     ; preds = %110, %49
  %57 = load %"class.std::__1::unique_ptr.1"*, %"class.std::__1::unique_ptr.1"** %41, align 8, !dbg !7025
  %58 = load %"class.std::__1::unique_ptr.1"*, %"class.std::__1::unique_ptr.1"** %42, align 8, !dbg !7026
  %59 = icmp ne %"class.std::__1::unique_ptr.1"* %57, %58, !dbg !7027
  br i1 %59, label %60, label %111, !dbg !7024

; <label>:60:                                     ; preds = %56
  store %"class.std::__1::__vector_base"* %53, %"class.std::__1::__vector_base"** %39, align 8
  %61 = load %"class.std::__1::__vector_base"*, %"class.std::__1::__vector_base"** %39, align 8
  %62 = getelementptr inbounds %"class.std::__1::__vector_base", %"class.std::__1::__vector_base"* %61, i32 0, i32 2, !dbg !7028
  store %"class.std::__1::__compressed_pair.7"* %62, %"class.std::__1::__compressed_pair.7"** %38, align 8
  %63 = load %"class.std::__1::__compressed_pair.7"*, %"class.std::__1::__compressed_pair.7"** %38, align 8
  %64 = bitcast %"class.std::__1::__compressed_pair.7"* %63 to %"struct.std::__1::__compressed_pair_elem.9"*, !dbg !7029
  store %"struct.std::__1::__compressed_pair_elem.9"* %64, %"struct.std::__1::__compressed_pair_elem.9"** %37, align 8
  %65 = load %"struct.std::__1::__compressed_pair_elem.9"*, %"struct.std::__1::__compressed_pair_elem.9"** %37, align 8
  %66 = bitcast %"struct.std::__1::__compressed_pair_elem.9"* %65 to %"class.std::__1::allocator"*, !dbg !7030
  %67 = load %"class.std::__1::unique_ptr.1"*, %"class.std::__1::unique_ptr.1"** %42, align 8, !dbg !7031
  %68 = getelementptr inbounds %"class.std::__1::unique_ptr.1", %"class.std::__1::unique_ptr.1"* %67, i32 -1, !dbg !7031
  store %"class.std::__1::unique_ptr.1"* %68, %"class.std::__1::unique_ptr.1"** %42, align 8, !dbg !7031
  store %"class.std::__1::unique_ptr.1"* %68, %"class.std::__1::unique_ptr.1"** %16, align 8
  %69 = load %"class.std::__1::unique_ptr.1"*, %"class.std::__1::unique_ptr.1"** %16, align 8, !dbg !7032
  store %"class.std::__1::allocator"* %66, %"class.std::__1::allocator"** %34, align 8
  store %"class.std::__1::unique_ptr.1"* %69, %"class.std::__1::unique_ptr.1"** %35, align 8
  %70 = bitcast %"struct.std::__1::__has_destroy"* %36 to %"struct.std::__1::integral_constant"*, !dbg !7033
  %71 = load %"class.std::__1::allocator"*, %"class.std::__1::allocator"** %34, align 8, !dbg !7034
  %72 = load %"class.std::__1::unique_ptr.1"*, %"class.std::__1::unique_ptr.1"** %35, align 8, !dbg !7035
  call void @llvm.dbg.declare(metadata !162, metadata !7036, metadata !DIExpression()) #8, !dbg !7037
  store %"class.std::__1::allocator"* %71, %"class.std::__1::allocator"** %32, align 8
  store %"class.std::__1::unique_ptr.1"* %72, %"class.std::__1::unique_ptr.1"** %33, align 8
  %73 = load %"class.std::__1::allocator"*, %"class.std::__1::allocator"** %32, align 8, !dbg !7038
  %74 = load %"class.std::__1::unique_ptr.1"*, %"class.std::__1::unique_ptr.1"** %33, align 8, !dbg !7039
  store %"class.std::__1::allocator"* %73, %"class.std::__1::allocator"** %30, align 8
  store %"class.std::__1::unique_ptr.1"* %74, %"class.std::__1::unique_ptr.1"** %31, align 8
  %75 = load %"class.std::__1::allocator"*, %"class.std::__1::allocator"** %30, align 8
  %76 = load %"class.std::__1::unique_ptr.1"*, %"class.std::__1::unique_ptr.1"** %31, align 8, !dbg !7040
  store %"class.std::__1::unique_ptr.1"* %76, %"class.std::__1::unique_ptr.1"** %29, align 8
  %77 = load %"class.std::__1::unique_ptr.1"*, %"class.std::__1::unique_ptr.1"** %29, align 8
  store %"class.std::__1::unique_ptr.1"* %77, %"class.std::__1::unique_ptr.1"** %28, align 8
  %78 = load %"class.std::__1::unique_ptr.1"*, %"class.std::__1::unique_ptr.1"** %28, align 8
  store %"class.std::__1::unique_ptr.1"* %78, %"class.std::__1::unique_ptr.1"** %25, align 8
  store %"class.altered_carbon::js::ACAstBaseNode"* null, %"class.altered_carbon::js::ACAstBaseNode"** %26, align 8
  %79 = load %"class.std::__1::unique_ptr.1"*, %"class.std::__1::unique_ptr.1"** %25, align 8
  %80 = getelementptr inbounds %"class.std::__1::unique_ptr.1", %"class.std::__1::unique_ptr.1"* %79, i32 0, i32 0, !dbg !7041
