; ModuleID = 'temp.bc'
source_filename = "../ac_ast_base_nodes.cc"
target datalayout = "e-m:o-i64:64-f80:128-n8:16:32:64-S128"
target triple = "x86_64-apple-macosx10.13.0"

%"class.altered_carbon::js::NullStream" = type { %"class.altered_carbon::js::NullStreamBuf", %"class.std::__1::basic_ostream.base", %"class.std::__1::basic_ios.base" }
%"class.altered_carbon::js::NullStreamBuf" = type { %"class.std::__1::basic_streambuf", [256 x i8] }
%"class.std::__1::basic_streambuf" = type { i32 (...)**, %"class.std::__1::locale", i8*, i8*, i8*, i8*, i8*, i8* }
%"class.std::__1::locale" = type { %"class.std::__1::locale::__imp"* }
%"class.std::__1::locale::__imp" = type opaque
%"class.std::__1::basic_ostream.base" = type { i32 (...)** }
%"class.std::__1::basic_ios.base" = type <{ %"class.std::__1::ios_base", %"class.std::__1::basic_ostream"*, i32 }>
%"class.std::__1::ios_base" = type { i32 (...)**, i32, i64, i64, i32, i32, i8*, i8*, void (i32, %"class.std::__1::ios_base"*, i32)**, i32*, i64, i64, i64*, i64, i64, i8**, i64, i64 }
%"class.std::__1::basic_ostream" = type { i32 (...)**, %"class.std::__1::basic_ios.base" }
%"class.std::__1::locale::id" = type <{ %"struct.std::__1::once_flag", i32, [4 x i8] }>
%"struct.std::__1::once_flag" = type { i64 }
%"class.std::__1::basic_ios" = type <{ %"class.std::__1::ios_base", %"class.std::__1::basic_ostream"*, i32, [4 x i8] }>
%"class.altered_carbon::js::ACAstBaseNode" = type { i32 (...)**, %"class.std::__1::unique_ptr", i32, i32, %"class.std::__1::vector" }
%"class.std::__1::unique_ptr" = type { %"class.std::__1::__compressed_pair" }
%"class.std::__1::__compressed_pair" = type { %"struct.std::__1::__compressed_pair_elem" }
%"struct.std::__1::__compressed_pair_elem" = type { %"struct.altered_carbon::js::ACLexPosition"* }
%"struct.altered_carbon::js::ACLexPosition" = type { i32 (...)**, i64, i32, i64 }
%"class.std::__1::vector" = type { %"class.std::__1::__vector_base" }
%"class.std::__1::__vector_base" = type { %"class.std::__1::unique_ptr.1"*, %"class.std::__1::unique_ptr.1"*, %"class.std::__1::__compressed_pair.7" }
%"class.std::__1::unique_ptr.1" = type { %"class.std::__1::__compressed_pair.2" }
%"class.std::__1::__compressed_pair.2" = type { %"struct.std::__1::__compressed_pair_elem.3" }
%"struct.std::__1::__compressed_pair_elem.3" = type { %"class.altered_carbon::js::ACAstBaseNode"* }
%"class.std::__1::__compressed_pair.7" = type { %"struct.std::__1::__compressed_pair_elem.8" }
%"struct.std::__1::__compressed_pair_elem.8" = type { %"class.std::__1::unique_ptr.1"* }
%"struct.std::__1::__compressed_pair_elem.0" = type { i8 }
%"struct.std::__1::default_delete" = type { i8 }
%"class.std::__1::allocator" = type { i8 }
%"struct.std::__1::__compressed_pair_elem.9" = type { i8 }
%"class.std::__1::__vector_base_common" = type { i8 }
%"class.std::__1::basic_string" = type { %"class.std::__1::__compressed_pair.10" }
%"class.std::__1::__compressed_pair.10" = type { %"struct.std::__1::__compressed_pair_elem.11" }
%"struct.std::__1::__compressed_pair_elem.11" = type { %"struct.std::__1::basic_string<wchar_t, std::__1::char_traits<wchar_t>, std::__1::allocator<wchar_t> >::__rep" }
%"struct.std::__1::basic_string<wchar_t, std::__1::char_traits<wchar_t>, std::__1::allocator<wchar_t> >::__rep" = type { %union.anon }
%union.anon = type { %"struct.std::__1::basic_string<wchar_t, std::__1::char_traits<wchar_t>, std::__1::allocator<wchar_t> >::__long" }
%"struct.std::__1::basic_string<wchar_t, std::__1::char_traits<wchar_t>, std::__1::allocator<wchar_t> >::__long" = type { i64, i64, i32* }
%"struct.std::__1::basic_string<wchar_t, std::__1::char_traits<wchar_t>, std::__1::allocator<wchar_t> >::__short" = type { %union.anon.12, [5 x i32] }
%union.anon.12 = type { i32 }
%"class.std::__1::__wrap_iter" = type { %"class.std::__1::unique_ptr.1"* }
%"class.altered_carbon::js::ACAstVisitable" = type { i32 (...)** }
%"class.altered_carbon::js::ACAstExpressionNode" = type { %"class.altered_carbon::js::ACAstBaseNode", %"class.std::__1::unique_ptr.1" }
%"struct.std::__1::__compressed_pair_elem.4" = type { i8 }
%"struct.std::__1::default_delete.5" = type { i8 }
%"class.altered_carbon::js::ACAstStatementNode" = type { %"class.altered_carbon::js::ACAstBaseNode", %"class.std::__1::unique_ptr.1" }
%"class.altered_carbon::js::ACAstBlockNode" = type { %"class.altered_carbon::js::ACAstBaseNode" }
%"struct.std::__1::integral_constant" = type { i8 }
%"class.altered_carbon::js::ACAstCollectionNode" = type { %"class.altered_carbon::js::ACAstBaseNode" }
%"class.std::__1::__wrap_iter.16" = type { %"class.std::__1::unique_ptr.1"* }
%"class.altered_carbon::js::ACAstDeclarationNode" = type { %"class.altered_carbon::js::ACAstBaseNode" }
%"class.altered_carbon::js::ACAstElementNode" = type { %"class.altered_carbon::js::ACAstBaseNode" }
%"class.altered_carbon::js::ACAstSpecialNode" = type { %"class.altered_carbon::js::ACAstBaseNode" }
%"class.altered_carbon::js::ACAstSyntaxLiteralNode" = type { %"class.altered_carbon::js::ACAstBaseNode" }
%"class.std::__1::allocator.14" = type { i8 }
%"struct.std::__1::__compressed_pair_elem.13" = type { i8 }
%"class.std::__1::__basic_string_common" = type { i8 }
%"struct.std::__1::__has_destroy" = type { i8 }
%"class.std::__1::ctype" = type <{ %"class.std::__1::locale::facet", i32*, i8, [7 x i8] }>
%"class.std::__1::locale::facet" = type { %"class.std::__1::__shared_count" }
%"class.std::__1::__shared_count" = type { i32 (...)**, i64 }
%"class.std::__1::ostreambuf_iterator" = type { %"class.std::__1::basic_streambuf"* }
%"class.std::__1::basic_ostream<char, std::__1::char_traits<char> >::sentry" = type { i8, %"class.std::__1::basic_ostream"* }
%"struct.std::__1::iterator" = type { i8 }
%"struct.std::__1::__compressed_pair_elem.19" = type { %"struct.std::__1::basic_string<char, std::__1::char_traits<char>, std::__1::allocator<char> >::__rep" }
%"struct.std::__1::basic_string<char, std::__1::char_traits<char>, std::__1::allocator<char> >::__rep" = type { %union.anon.20 }
%union.anon.20 = type { %"struct.std::__1::basic_string<char, std::__1::char_traits<char>, std::__1::allocator<char> >::__long" }
%"struct.std::__1::basic_string<char, std::__1::char_traits<char>, std::__1::allocator<char> >::__long" = type { i64, i64, i8* }
%"class.std::__1::__compressed_pair.18" = type { %"struct.std::__1::__compressed_pair_elem.19" }
%"class.std::__1::basic_string.17" = type { %"class.std::__1::__compressed_pair.18" }
%"class.std::__1::allocator.23" = type { i8 }
%"struct.std::__1::__compressed_pair_elem.22" = type { i8 }
%"struct.std::__1::basic_string<char, std::__1::char_traits<char>, std::__1::allocator<char> >::__short" = type { %union.anon.21, [23 x i8] }
%union.anon.21 = type { i8 }

@_ZN14altered_carbon2jsL9BlackHoleE = internal global %"class.altered_carbon::js::NullStream" zeroinitializer, align 8, !dbg !0
@__dso_handle = external hidden global i8
@.str = private unnamed_addr constant [10 x i8] c"(unknown)\00", align 1
@.str.1 = private unnamed_addr constant [6 x i8] c"error\00", align 1
@.str.2 = private unnamed_addr constant [11 x i8] c"collection\00", align 1
@.str.3 = private unnamed_addr constant [12 x i8] c"declaration\00", align 1
@.str.4 = private unnamed_addr constant [11 x i8] c"expression\00", align 1
@.str.5 = private unnamed_addr constant [9 x i8] c"function\00", align 1
@.str.6 = private unnamed_addr constant [8 x i8] c"variant\00", align 1
@.str.7 = private unnamed_addr constant [10 x i8] c"statement\00", align 1
@.str.8 = private unnamed_addr constant [8 x i8] c"element\00", align 1
@.str.9 = private unnamed_addr constant [11 x i8] c"member ref\00", align 1
@.str.10 = private unnamed_addr constant [8 x i8] c"special\00", align 1
@.str.11 = private unnamed_addr constant [15 x i8] c"syntax literal\00", align 1
@.str.12 = private unnamed_addr constant [6 x i8] c"block\00", align 1
@.str.13 = private unnamed_addr constant [7 x i8] c"object\00", align 1
@_ZN14altered_carbon2js13ACAstBaseNode10NODE_NAMESE = global [14 x i8*] [i8* getelementptr inbounds ([10 x i8], [10 x i8]* @.str, i32 0, i32 0), i8* getelementptr inbounds ([6 x i8], [6 x i8]* @.str.1, i32 0, i32 0), i8* getelementptr inbounds ([11 x i8], [11 x i8]* @.str.2, i32 0, i32 0), i8* getelementptr inbounds ([12 x i8], [12 x i8]* @.str.3, i32 0, i32 0), i8* getelementptr inbounds ([11 x i8], [11 x i8]* @.str.4, i32 0, i32 0), i8* getelementptr inbounds ([9 x i8], [9 x i8]* @.str.5, i32 0, i32 0), i8* getelementptr inbounds ([8 x i8], [8 x i8]* @.str.6, i32 0, i32 0), i8* getelementptr inbounds ([10 x i8], [10 x i8]* @.str.7, i32 0, i32 0), i8* getelementptr inbounds ([8 x i8], [8 x i8]* @.str.8, i32 0, i32 0), i8* getelementptr inbounds ([11 x i8], [11 x i8]* @.str.9, i32 0, i32 0), i8* getelementptr inbounds ([8 x i8], [8 x i8]* @.str.10, i32 0, i32 0), i8* getelementptr inbounds ([15 x i8], [15 x i8]* @.str.11, i32 0, i32 0), i8* getelementptr inbounds ([6 x i8], [6 x i8]* @.str.12, i32 0, i32 0), i8* getelementptr inbounds ([7 x i8], [7 x i8]* @.str.13, i32 0, i32 0)], align 16, !dbg !1577
@_ZN14altered_carbon2jsL18SUB_NODE_ERR_NAMESE = internal global [3 x i8*] [i8* getelementptr inbounds ([10 x i8], [10 x i8]* @.str, i32 0, i32 0), i8* getelementptr inbounds ([12 x i8], [12 x i8]* @.str.43, i32 0, i32 0), i8* getelementptr inbounds ([13 x i8], [13 x i8]* @.str.44, i32 0, i32 0)], align 16, !dbg !4059
@_ZN14altered_carbon2jsL19SUB_NODE_EXPR_NAMESE = internal global [21 x i8*] [i8* getelementptr inbounds ([10 x i8], [10 x i8]* @.str, i32 0, i32 0), i8* getelementptr inbounds ([11 x i8], [11 x i8]* @.str.45, i32 0, i32 0), i8* getelementptr inbounds ([11 x i8], [11 x i8]* @.str.46, i32 0, i32 0), i8* getelementptr inbounds ([16 x i8], [16 x i8]* @.str.47, i32 0, i32 0), i8* getelementptr inbounds ([12 x i8], [12 x i8]* @.str.48, i32 0, i32 0), i8* getelementptr inbounds ([10 x i8], [10 x i8]* @.str.49, i32 0, i32 0), i8* getelementptr inbounds ([11 x i8], [11 x i8]* @.str.50, i32 0, i32 0), i8* getelementptr inbounds ([17 x i8], [17 x i8]* @.str.51, i32 0, i32 0), i8* getelementptr inbounds ([12 x i8], [12 x i8]* @.str.52, i32 0, i32 0), i8* getelementptr inbounds ([10 x i8], [10 x i8]* @.str.53, i32 0, i32 0), i8* getelementptr inbounds ([11 x i8], [11 x i8]* @.str.54, i32 0, i32 0), i8* getelementptr inbounds ([12 x i8], [12 x i8]* @.str.55, i32 0, i32 0), i8* getelementptr inbounds ([9 x i8], [9 x i8]* @.str.56, i32 0, i32 0), i8* getelementptr inbounds ([12 x i8], [12 x i8]* @.str.57, i32 0, i32 0), i8* getelementptr inbounds ([17 x i8], [17 x i8]* @.str.58, i32 0, i32 0), i8* getelementptr inbounds ([13 x i8], [13 x i8]* @.str.59, i32 0, i32 0), i8* getelementptr inbounds ([14 x i8], [14 x i8]* @.str.60, i32 0, i32 0), i8* getelementptr inbounds ([16 x i8], [16 x i8]* @.str.61, i32 0, i32 0), i8* getelementptr inbounds ([10 x i8], [10 x i8]* @.str.62, i32 0, i32 0), i8* getelementptr inbounds ([11 x i8], [11 x i8]* @.str.63, i32 0, i32 0), i8* getelementptr inbounds ([9 x i8], [9 x i8]* @.str.64, i32 0, i32 0)], align 16, !dbg !4062
@_ZN14altered_carbon2jsL25SUB_NODE_FUNC_CLASS_NAMESE = internal global [7 x i8*] [i8* getelementptr inbounds ([10 x i8], [10 x i8]* @.str, i32 0, i32 0), i8* getelementptr inbounds ([18 x i8], [18 x i8]* @.str.65, i32 0, i32 0), i8* getelementptr inbounds ([9 x i8], [9 x i8]* @.str.5, i32 0, i32 0), i8* getelementptr inbounds ([6 x i8], [6 x i8]* @.str.66, i32 0, i32 0), i8* getelementptr inbounds ([9 x i8], [9 x i8]* @.str.67, i32 0, i32 0), i8* getelementptr inbounds ([10 x i8], [10 x i8]* @.str.68, i32 0, i32 0), i8* getelementptr inbounds ([10 x i8], [10 x i8]* @.str.69, i32 0, i32 0)], align 16, !dbg !4067
@_ZN14altered_carbon2jsL18SUB_NODE_VAR_NAMESE = internal global [8 x i8*] [i8* getelementptr inbounds ([10 x i8], [10 x i8]* @.str, i32 0, i32 0), i8* getelementptr inbounds ([11 x i8], [11 x i8]* @.str.70, i32 0, i32 0), i8* getelementptr inbounds ([12 x i8], [12 x i8]* @.str.71, i32 0, i32 0), i8* getelementptr inbounds ([9 x i8], [9 x i8]* @.str.72, i32 0, i32 0), i8* getelementptr inbounds ([10 x i8], [10 x i8]* @.str.73, i32 0, i32 0), i8* getelementptr inbounds ([14 x i8], [14 x i8]* @.str.74, i32 0, i32 0), i8* getelementptr inbounds ([12 x i8], [12 x i8]* @.str.75, i32 0, i32 0), i8* getelementptr inbounds ([13 x i8], [13 x i8]* @.str.76, i32 0, i32 0)], align 16, !dbg !4072
@_ZN14altered_carbon2jsL19SUB_NODE_STMT_NAMESE = internal global [22 x i8*] [i8* getelementptr inbounds ([10 x i8], [10 x i8]* @.str, i32 0, i32 0), i8* getelementptr inbounds ([11 x i8], [11 x i8]* @.str.77, i32 0, i32 0), i8* getelementptr inbounds ([11 x i8], [11 x i8]* @.str.78, i32 0, i32 0), i8* getelementptr inbounds ([14 x i8], [14 x i8]* @.str.79, i32 0, i32 0), i8* getelementptr inbounds ([14 x i8], [14 x i8]* @.str.80, i32 0, i32 0), i8* getelementptr inbounds ([14 x i8], [14 x i8]* @.str.81, i32 0, i32 0), i8* getelementptr inbounds ([11 x i8], [11 x i8]* @.str.82, i32 0, i32 0), i8* getelementptr inbounds ([10 x i8], [10 x i8]* @.str.83, i32 0, i32 0), i8* getelementptr inbounds ([9 x i8], [9 x i8]* @.str.84, i32 0, i32 0), i8* getelementptr inbounds ([12 x i8], [12 x i8]* @.str.85, i32 0, i32 0), i8* getelementptr inbounds ([13 x i8], [13 x i8]* @.str.86, i32 0, i32 0), i8* getelementptr inbounds ([13 x i8], [13 x i8]* @.str.87, i32 0, i32 0), i8* getelementptr inbounds ([14 x i8], [14 x i8]* @.str.88, i32 0, i32 0), i8* getelementptr inbounds ([12 x i8], [12 x i8]* @.str.89, i32 0, i32 0), i8* getelementptr inbounds ([12 x i8], [12 x i8]* @.str.90, i32 0, i32 0), i8* getelementptr inbounds ([12 x i8], [12 x i8]* @.str.91, i32 0, i32 0), i8* getelementptr inbounds ([11 x i8], [11 x i8]* @.str.92, i32 0, i32 0), i8* getelementptr inbounds ([15 x i8], [15 x i8]* @.str.93, i32 0, i32 0), i8* getelementptr inbounds ([13 x i8], [13 x i8]* @.str.94, i32 0, i32 0), i8* getelementptr inbounds ([14 x i8], [14 x i8]* @.str.95, i32 0, i32 0), i8* getelementptr inbounds ([11 x i8], [11 x i8]* @.str.96, i32 0, i32 0), i8* getelementptr inbounds ([10 x i8], [10 x i8]* @.str.97, i32 0, i32 0)], align 16, !dbg !4077
@_ZN14altered_carbon2jsL22SUB_NODE_ELEMENT_NAMESE = internal global [4 x i8*] [i8* getelementptr inbounds ([10 x i8], [10 x i8]* @.str, i32 0, i32 0), i8* getelementptr inbounds ([15 x i8], [15 x i8]* @.str.98, i32 0, i32 0), i8* getelementptr inbounds ([13 x i8], [13 x i8]* @.str.99, i32 0, i32 0), i8* getelementptr inbounds ([17 x i8], [17 x i8]* @.str.100, i32 0, i32 0)], align 16, !dbg !4082
@_ZN14altered_carbon2jsL25SUB_NODE_MEMBER_REF_NAMESE = internal global [3 x i8*] [i8* getelementptr inbounds ([10 x i8], [10 x i8]* @.str, i32 0, i32 0), i8* getelementptr inbounds ([14 x i8], [14 x i8]* @.str.101, i32 0, i32 0), i8* getelementptr inbounds ([15 x i8], [15 x i8]* @.str.102, i32 0, i32 0)], align 16, !dbg !4087
@_ZN14altered_carbon2jsL21SUB_NODE_OBJECT_NAMESE = internal global [3 x i8*] [i8* getelementptr inbounds ([10 x i8], [10 x i8]* @.str, i32 0, i32 0), i8* getelementptr inbounds ([15 x i8], [15 x i8]* @.str.103, i32 0, i32 0), i8* getelementptr inbounds ([17 x i8], [17 x i8]* @.str.104, i32 0, i32 0)], align 16, !dbg !4089
@_ZN14altered_carbon2js13ACAstBaseNode14SUB_NODE_NAMESE = global [14 x i8**] [i8** null, i8** getelementptr inbounds ([3 x i8*], [3 x i8*]* @_ZN14altered_carbon2jsL18SUB_NODE_ERR_NAMESE, i32 0, i32 0), i8** null, i8** null, i8** getelementptr inbounds ([21 x i8*], [21 x i8*]* @_ZN14altered_carbon2jsL19SUB_NODE_EXPR_NAMESE, i32 0, i32 0), i8** getelementptr inbounds ([7 x i8*], [7 x i8*]* @_ZN14altered_carbon2jsL25SUB_NODE_FUNC_CLASS_NAMESE, i32 0, i32 0), i8** getelementptr inbounds ([8 x i8*], [8 x i8*]* @_ZN14altered_carbon2jsL18SUB_NODE_VAR_NAMESE, i32 0, i32 0), i8** getelementptr inbounds ([22 x i8*], [22 x i8*]* @_ZN14altered_carbon2jsL19SUB_NODE_STMT_NAMESE, i32 0, i32 0), i8** getelementptr inbounds ([4 x i8*], [4 x i8*]* @_ZN14altered_carbon2jsL22SUB_NODE_ELEMENT_NAMESE, i32 0, i32 0), i8** getelementptr inbounds ([3 x i8*], [3 x i8*]* @_ZN14altered_carbon2jsL25SUB_NODE_MEMBER_REF_NAMESE, i32 0, i32 0), i8** null, i8** null, i8** null, i8** getelementptr inbounds ([3 x i8*], [3 x i8*]* @_ZN14altered_carbon2jsL21SUB_NODE_OBJECT_NAMESE, i32 0, i32 0)], align 16, !dbg !4091
@_ZTVN14altered_carbon2js13ACAstBaseNodeE = unnamed_addr constant { [14 x i8*] } { [14 x i8*] [i8* null, i8* bitcast ({ i8*, i8* }* @_ZTIN14altered_carbon2js13ACAstBaseNodeE to i8*), i8* bitcast (void (%"class.altered_carbon::js::ACAstBaseNode"*)* @_ZN14altered_carbon2js13ACAstBaseNodeD1Ev to i8*), i8* bitcast (void (%"class.altered_carbon::js::ACAstBaseNode"*)* @_ZN14altered_carbon2js13ACAstBaseNodeD0Ev to i8*), i8* bitcast (i8* (%"class.altered_carbon::js::ACAstBaseNode"*, %"class.altered_carbon::js::ACAstVisitable"*)* @_ZNK14altered_carbon2js13ACAstBaseNode6acceptEPNS0_14ACAstVisitableE to i8*), i8* bitcast (void (%"class.std::__1::basic_string"*, %"class.altered_carbon::js::ACAstBaseNode"*)* @_ZNK14altered_carbon2js13ACAstBaseNode10identifierEv to i8*), i8* bitcast (i32 (%"class.altered_carbon::js::ACAstBaseNode"*)* @_ZNK14altered_carbon2js13ACAstBaseNode10precedenceEv to i8*), i8* bitcast (i32 (%"class.altered_carbon::js::ACAstBaseNode"*)* @_ZNK14altered_carbon2js13ACAstBaseNode2opEv to i8*), i8* bitcast (i1 (%"class.altered_carbon::js::ACAstBaseNode"*)* @_ZN14altered_carbon2js13ACAstBaseNode14convertToParamEv to i8*), i8* bitcast (i1 (%"class.altered_carbon::js::ACAstBaseNode"*)* @_ZN14altered_carbon2js13ACAstBaseNode15convertToFormalEv to i8*), i8* bitcast (void (%"class.altered_carbon::js::ACAstBaseNode"*, %"class.std::__1::basic_ostream"*)* @_ZNK14altered_carbon2js13ACAstBaseNode4dumpERNSt3__113basic_ostreamIcNS2_11char_traitsIcEEEE to i8*), i8* bitcast (void (%"class.altered_carbon::js::ACAstBaseNode"*, %"class.std::__1::basic_ostream"*)* @_ZNK14altered_carbon2js13ACAstBaseNode14dumpGraphLabelERNSt3__113basic_ostreamIcNS2_11char_traitsIcEEEE to i8*), i8* bitcast (void (%"class.altered_carbon::js::ACAstBaseNode"*, %"class.std::__1::basic_ostream"*)* @_ZNK14altered_carbon2js13ACAstBaseNode9dumpGraphERNSt3__113basic_ostreamIcNS2_11char_traitsIcEEEE to i8*), i8* bitcast (void (%"class.altered_carbon::js::ACAstBaseNode"*, %"class.std::__1::basic_ostream"*)* @_ZNK14altered_carbon2js13ACAstBaseNode14dumpChildNodesERNSt3__113basic_ostreamIcNS2_11char_traitsIcEEEE to i8*)] }, align 8
@.str.14 = private unnamed_addr constant [2 x i8] c"[\00", align 1
@.str.15 = private unnamed_addr constant [2 x i8] c"]\00", align 1
@.str.16 = private unnamed_addr constant [5 x i8] c"AST_\00", align 1
@.str.17 = private unnamed_addr constant [2 x i8] c"_\00", align 1
@.str.18 = private unnamed_addr constant [5 x i8] c" -> \00", align 1
@.str.19 = private unnamed_addr constant [10 x i8] c" [label=\22\00", align 1
@.str.20 = private unnamed_addr constant [3 x i8] c"\22]\00", align 1
@.str.21 = private unnamed_addr constant [3 x i8] c";\0A\00", align 1
@.str.22 = private unnamed_addr constant [6 x i8] c"((!))\00", align 1
@.str.23 = private unnamed_addr constant [6 x i8] c"((@))\00", align 1
@.str.24 = private unnamed_addr constant [6 x i8] c"((*))\00", align 1
@.str.25 = private unnamed_addr constant [6 x i8] c" AST(\00", align 1
@.str.26 = private unnamed_addr constant [2 x i8] c",\00", align 1
@.str.27 = private unnamed_addr constant [2 x i8] c")\00", align 1
@.str.28 = private unnamed_addr constant [3 x i8] c" {\00", align 1
@.str.29 = private unnamed_addr constant [2 x i8] c"}\00", align 1
@.str.30 = private unnamed_addr constant [2 x i8] c"?\00", align 1
@.str.31 = private unnamed_addr constant [3 x i8] c", \00", align 1
@.str.32 = private unnamed_addr constant [8 x i8] c"general\00", align 1
@.str.33 = private unnamed_addr constant [2 x i8] c"\0A\00", align 1
@.str.34 = private unnamed_addr constant [5 x i8] c"\22];\0A\00", align 1
@_ZTVN14altered_carbon2js19ACAstExpressionNodeE = unnamed_addr constant { [14 x i8*] } { [14 x i8*] [i8* null, i8* bitcast ({ i8*, i8*, i8* }* @_ZTIN14altered_carbon2js19ACAstExpressionNodeE to i8*), i8* bitcast (void (%"class.altered_carbon::js::ACAstExpressionNode"*)* @_ZN14altered_carbon2js19ACAstExpressionNodeD1Ev to i8*), i8* bitcast (void (%"class.altered_carbon::js::ACAstExpressionNode"*)* @_ZN14altered_carbon2js19ACAstExpressionNodeD0Ev to i8*), i8* bitcast (i8* (%"class.altered_carbon::js::ACAstExpressionNode"*, %"class.altered_carbon::js::ACAstVisitable"*)* @_ZNK14altered_carbon2js19ACAstExpressionNode6acceptEPNS0_14ACAstVisitableE to i8*), i8* bitcast (void (%"class.std::__1::basic_string"*, %"class.altered_carbon::js::ACAstBaseNode"*)* @_ZNK14altered_carbon2js13ACAstBaseNode10identifierEv to i8*), i8* bitcast (i32 (%"class.altered_carbon::js::ACAstBaseNode"*)* @_ZNK14altered_carbon2js13ACAstBaseNode10precedenceEv to i8*), i8* bitcast (i32 (%"class.altered_carbon::js::ACAstBaseNode"*)* @_ZNK14altered_carbon2js13ACAstBaseNode2opEv to i8*), i8* bitcast (i1 (%"class.altered_carbon::js::ACAstBaseNode"*)* @_ZN14altered_carbon2js13ACAstBaseNode14convertToParamEv to i8*), i8* bitcast (i1 (%"class.altered_carbon::js::ACAstBaseNode"*)* @_ZN14altered_carbon2js13ACAstBaseNode15convertToFormalEv to i8*), i8* bitcast (void (%"class.altered_carbon::js::ACAstBaseNode"*, %"class.std::__1::basic_ostream"*)* @_ZNK14altered_carbon2js13ACAstBaseNode4dumpERNSt3__113basic_ostreamIcNS2_11char_traitsIcEEEE to i8*), i8* bitcast (void (%"class.altered_carbon::js::ACAstBaseNode"*, %"class.std::__1::basic_ostream"*)* @_ZNK14altered_carbon2js13ACAstBaseNode14dumpGraphLabelERNSt3__113basic_ostreamIcNS2_11char_traitsIcEEEE to i8*), i8* bitcast (void (%"class.altered_carbon::js::ACAstExpressionNode"*, %"class.std::__1::basic_ostream"*)* @_ZNK14altered_carbon2js19ACAstExpressionNode9dumpGraphERNSt3__113basic_ostreamIcNS2_11char_traitsIcEEEE to i8*), i8* bitcast (void (%"class.altered_carbon::js::ACAstExpressionNode"*, %"class.std::__1::basic_ostream"*)* @_ZNK14altered_carbon2js19ACAstExpressionNode14dumpChildNodesERNSt3__113basic_ostreamIcNS2_11char_traitsIcEEEE to i8*)] }, align 8
@.str.35 = private unnamed_addr constant [4 x i8] c"[] \00", align 1
@.str.36 = private unnamed_addr constant [7 x i8] c"(null)\00", align 1
@_ZTVN14altered_carbon2js18ACAstStatementNodeE = unnamed_addr constant { [14 x i8*] } { [14 x i8*] [i8* null, i8* bitcast ({ i8*, i8*, i8* }* @_ZTIN14altered_carbon2js18ACAstStatementNodeE to i8*), i8* bitcast (void (%"class.altered_carbon::js::ACAstStatementNode"*)* @_ZN14altered_carbon2js18ACAstStatementNodeD1Ev to i8*), i8* bitcast (void (%"class.altered_carbon::js::ACAstStatementNode"*)* @_ZN14altered_carbon2js18ACAstStatementNodeD0Ev to i8*), i8* bitcast (i8* (%"class.altered_carbon::js::ACAstStatementNode"*, %"class.altered_carbon::js::ACAstVisitable"*)* @_ZNK14altered_carbon2js18ACAstStatementNode6acceptEPNS0_14ACAstVisitableE to i8*), i8* bitcast (void (%"class.std::__1::basic_string"*, %"class.altered_carbon::js::ACAstBaseNode"*)* @_ZNK14altered_carbon2js13ACAstBaseNode10identifierEv to i8*), i8* bitcast (i32 (%"class.altered_carbon::js::ACAstBaseNode"*)* @_ZNK14altered_carbon2js13ACAstBaseNode10precedenceEv to i8*), i8* bitcast (i32 (%"class.altered_carbon::js::ACAstBaseNode"*)* @_ZNK14altered_carbon2js13ACAstBaseNode2opEv to i8*), i8* bitcast (i1 (%"class.altered_carbon::js::ACAstBaseNode"*)* @_ZN14altered_carbon2js13ACAstBaseNode14convertToParamEv to i8*), i8* bitcast (i1 (%"class.altered_carbon::js::ACAstBaseNode"*)* @_ZN14altered_carbon2js13ACAstBaseNode15convertToFormalEv to i8*), i8* bitcast (void (%"class.altered_carbon::js::ACAstBaseNode"*, %"class.std::__1::basic_ostream"*)* @_ZNK14altered_carbon2js13ACAstBaseNode4dumpERNSt3__113basic_ostreamIcNS2_11char_traitsIcEEEE to i8*), i8* bitcast (void (%"class.altered_carbon::js::ACAstBaseNode"*, %"class.std::__1::basic_ostream"*)* @_ZNK14altered_carbon2js13ACAstBaseNode14dumpGraphLabelERNSt3__113basic_ostreamIcNS2_11char_traitsIcEEEE to i8*), i8* bitcast (void (%"class.altered_carbon::js::ACAstStatementNode"*, %"class.std::__1::basic_ostream"*)* @_ZNK14altered_carbon2js18ACAstStatementNode9dumpGraphERNSt3__113basic_ostreamIcNS2_11char_traitsIcEEEE to i8*), i8* bitcast (void (%"class.altered_carbon::js::ACAstStatementNode"*, %"class.std::__1::basic_ostream"*)* @_ZNK14altered_carbon2js18ACAstStatementNode14dumpChildNodesERNSt3__113basic_ostreamIcNS2_11char_traitsIcEEEE to i8*)] }, align 8
@_ZTVN14altered_carbon2js14ACAstBlockNodeE = unnamed_addr constant { [14 x i8*] } { [14 x i8*] [i8* null, i8* bitcast ({ i8*, i8*, i8* }* @_ZTIN14altered_carbon2js14ACAstBlockNodeE to i8*), i8* bitcast (void (%"class.altered_carbon::js::ACAstBlockNode"*)* @_ZN14altered_carbon2js14ACAstBlockNodeD1Ev to i8*), i8* bitcast (void (%"class.altered_carbon::js::ACAstBlockNode"*)* @_ZN14altered_carbon2js14ACAstBlockNodeD0Ev to i8*), i8* bitcast (i8* (%"class.altered_carbon::js::ACAstBaseNode"*, %"class.altered_carbon::js::ACAstVisitable"*)* @_ZNK14altered_carbon2js13ACAstBaseNode6acceptEPNS0_14ACAstVisitableE to i8*), i8* bitcast (void (%"class.std::__1::basic_string"*, %"class.altered_carbon::js::ACAstBaseNode"*)* @_ZNK14altered_carbon2js13ACAstBaseNode10identifierEv to i8*), i8* bitcast (i32 (%"class.altered_carbon::js::ACAstBaseNode"*)* @_ZNK14altered_carbon2js13ACAstBaseNode10precedenceEv to i8*), i8* bitcast (i32 (%"class.altered_carbon::js::ACAstBaseNode"*)* @_ZNK14altered_carbon2js13ACAstBaseNode2opEv to i8*), i8* bitcast (i1 (%"class.altered_carbon::js::ACAstBaseNode"*)* @_ZN14altered_carbon2js13ACAstBaseNode14convertToParamEv to i8*), i8* bitcast (i1 (%"class.altered_carbon::js::ACAstBaseNode"*)* @_ZN14altered_carbon2js13ACAstBaseNode15convertToFormalEv to i8*), i8* bitcast (void (%"class.altered_carbon::js::ACAstBaseNode"*, %"class.std::__1::basic_ostream"*)* @_ZNK14altered_carbon2js13ACAstBaseNode4dumpERNSt3__113basic_ostreamIcNS2_11char_traitsIcEEEE to i8*), i8* bitcast (void (%"class.altered_carbon::js::ACAstBaseNode"*, %"class.std::__1::basic_ostream"*)* @_ZNK14altered_carbon2js13ACAstBaseNode14dumpGraphLabelERNSt3__113basic_ostreamIcNS2_11char_traitsIcEEEE to i8*), i8* bitcast (void (%"class.altered_carbon::js::ACAstBaseNode"*, %"class.std::__1::basic_ostream"*)* @_ZNK14altered_carbon2js13ACAstBaseNode9dumpGraphERNSt3__113basic_ostreamIcNS2_11char_traitsIcEEEE to i8*), i8* bitcast (void (%"class.altered_carbon::js::ACAstBlockNode"*, %"class.std::__1::basic_ostream"*)* @_ZNK14altered_carbon2js14ACAstBlockNode14dumpChildNodesERNSt3__113basic_ostreamIcNS2_11char_traitsIcEEEE to i8*)] }, align 8
@.str.37 = private unnamed_addr constant [8 x i8] c">>>>>> \00", align 1
@.str.38 = private unnamed_addr constant [11 x i8] c" >>>>>> (#\00", align 1
@.str.39 = private unnamed_addr constant [4 x i8] c" (#\00", align 1
@.str.40 = private unnamed_addr constant [15 x i8] c") <<<<<<<<<<< \00", align 1
@.str.41 = private unnamed_addr constant [3 x i8] c"(#\00", align 1
@_ZTVN14altered_carbon2js19ACAstCollectionNodeE = unnamed_addr constant { [14 x i8*] } { [14 x i8*] [i8* null, i8* bitcast ({ i8*, i8*, i8* }* @_ZTIN14altered_carbon2js19ACAstCollectionNodeE to i8*), i8* bitcast (void (%"class.altered_carbon::js::ACAstCollectionNode"*)* @_ZN14altered_carbon2js19ACAstCollectionNodeD1Ev to i8*), i8* bitcast (void (%"class.altered_carbon::js::ACAstCollectionNode"*)* @_ZN14altered_carbon2js19ACAstCollectionNodeD0Ev to i8*), i8* bitcast (i8* (%"class.altered_carbon::js::ACAstBaseNode"*, %"class.altered_carbon::js::ACAstVisitable"*)* @_ZNK14altered_carbon2js13ACAstBaseNode6acceptEPNS0_14ACAstVisitableE to i8*), i8* bitcast (void (%"class.std::__1::basic_string"*, %"class.altered_carbon::js::ACAstBaseNode"*)* @_ZNK14altered_carbon2js13ACAstBaseNode10identifierEv to i8*), i8* bitcast (i32 (%"class.altered_carbon::js::ACAstBaseNode"*)* @_ZNK14altered_carbon2js13ACAstBaseNode10precedenceEv to i8*), i8* bitcast (i32 (%"class.altered_carbon::js::ACAstBaseNode"*)* @_ZNK14altered_carbon2js13ACAstBaseNode2opEv to i8*), i8* bitcast (i1 (%"class.altered_carbon::js::ACAstCollectionNode"*)* @_ZN14altered_carbon2js19ACAstCollectionNode14convertToParamEv to i8*), i8* bitcast (i1 (%"class.altered_carbon::js::ACAstBaseNode"*)* @_ZN14altered_carbon2js13ACAstBaseNode15convertToFormalEv to i8*), i8* bitcast (void (%"class.altered_carbon::js::ACAstBaseNode"*, %"class.std::__1::basic_ostream"*)* @_ZNK14altered_carbon2js13ACAstBaseNode4dumpERNSt3__113basic_ostreamIcNS2_11char_traitsIcEEEE to i8*), i8* bitcast (void (%"class.altered_carbon::js::ACAstBaseNode"*, %"class.std::__1::basic_ostream"*)* @_ZNK14altered_carbon2js13ACAstBaseNode14dumpGraphLabelERNSt3__113basic_ostreamIcNS2_11char_traitsIcEEEE to i8*), i8* bitcast (void (%"class.altered_carbon::js::ACAstBaseNode"*, %"class.std::__1::basic_ostream"*)* @_ZNK14altered_carbon2js13ACAstBaseNode9dumpGraphERNSt3__113basic_ostreamIcNS2_11char_traitsIcEEEE to i8*), i8* bitcast (void (%"class.altered_carbon::js::ACAstCollectionNode"*, %"class.std::__1::basic_ostream"*)* @_ZNK14altered_carbon2js19ACAstCollectionNode14dumpChildNodesERNSt3__113basic_ostreamIcNS2_11char_traitsIcEEEE to i8*)] }, align 8
@.str.42 = private unnamed_addr constant [6 x i8] c" <,> \00", align 1
@_ZTVN14altered_carbon2js20ACAstDeclarationNodeE = linkonce_odr unnamed_addr constant { [14 x i8*] } { [14 x i8*] [i8* null, i8* bitcast ({ i8*, i8*, i8* }* @_ZTIN14altered_carbon2js20ACAstDeclarationNodeE to i8*), i8* bitcast (void (%"class.altered_carbon::js::ACAstDeclarationNode"*)* @_ZN14altered_carbon2js20ACAstDeclarationNodeD1Ev to i8*), i8* bitcast (void (%"class.altered_carbon::js::ACAstDeclarationNode"*)* @_ZN14altered_carbon2js20ACAstDeclarationNodeD0Ev to i8*), i8* bitcast (i8* (%"class.altered_carbon::js::ACAstBaseNode"*, %"class.altered_carbon::js::ACAstVisitable"*)* @_ZNK14altered_carbon2js13ACAstBaseNode6acceptEPNS0_14ACAstVisitableE to i8*), i8* bitcast (void (%"class.std::__1::basic_string"*, %"class.altered_carbon::js::ACAstBaseNode"*)* @_ZNK14altered_carbon2js13ACAstBaseNode10identifierEv to i8*), i8* bitcast (i32 (%"class.altered_carbon::js::ACAstBaseNode"*)* @_ZNK14altered_carbon2js13ACAstBaseNode10precedenceEv to i8*), i8* bitcast (i32 (%"class.altered_carbon::js::ACAstBaseNode"*)* @_ZNK14altered_carbon2js13ACAstBaseNode2opEv to i8*), i8* bitcast (i1 (%"class.altered_carbon::js::ACAstBaseNode"*)* @_ZN14altered_carbon2js13ACAstBaseNode14convertToParamEv to i8*), i8* bitcast (i1 (%"class.altered_carbon::js::ACAstBaseNode"*)* @_ZN14altered_carbon2js13ACAstBaseNode15convertToFormalEv to i8*), i8* bitcast (void (%"class.altered_carbon::js::ACAstBaseNode"*, %"class.std::__1::basic_ostream"*)* @_ZNK14altered_carbon2js13ACAstBaseNode4dumpERNSt3__113basic_ostreamIcNS2_11char_traitsIcEEEE to i8*), i8* bitcast (void (%"class.altered_carbon::js::ACAstBaseNode"*, %"class.std::__1::basic_ostream"*)* @_ZNK14altered_carbon2js13ACAstBaseNode14dumpGraphLabelERNSt3__113basic_ostreamIcNS2_11char_traitsIcEEEE to i8*), i8* bitcast (void (%"class.altered_carbon::js::ACAstBaseNode"*, %"class.std::__1::basic_ostream"*)* @_ZNK14altered_carbon2js13ACAstBaseNode9dumpGraphERNSt3__113basic_ostreamIcNS2_11char_traitsIcEEEE to i8*), i8* bitcast (void (%"class.altered_carbon::js::ACAstBaseNode"*, %"class.std::__1::basic_ostream"*)* @_ZNK14altered_carbon2js13ACAstBaseNode14dumpChildNodesERNSt3__113basic_ostreamIcNS2_11char_traitsIcEEEE to i8*)] }, align 8
@_ZTVN14altered_carbon2js16ACAstElementNodeE = linkonce_odr unnamed_addr constant { [14 x i8*] } { [14 x i8*] [i8* null, i8* bitcast ({ i8*, i8*, i8* }* @_ZTIN14altered_carbon2js16ACAstElementNodeE to i8*), i8* bitcast (void (%"class.altered_carbon::js::ACAstElementNode"*)* @_ZN14altered_carbon2js16ACAstElementNodeD1Ev to i8*), i8* bitcast (void (%"class.altered_carbon::js::ACAstElementNode"*)* @_ZN14altered_carbon2js16ACAstElementNodeD0Ev to i8*), i8* bitcast (i8* (%"class.altered_carbon::js::ACAstBaseNode"*, %"class.altered_carbon::js::ACAstVisitable"*)* @_ZNK14altered_carbon2js13ACAstBaseNode6acceptEPNS0_14ACAstVisitableE to i8*), i8* bitcast (void (%"class.std::__1::basic_string"*, %"class.altered_carbon::js::ACAstBaseNode"*)* @_ZNK14altered_carbon2js13ACAstBaseNode10identifierEv to i8*), i8* bitcast (i32 (%"class.altered_carbon::js::ACAstBaseNode"*)* @_ZNK14altered_carbon2js13ACAstBaseNode10precedenceEv to i8*), i8* bitcast (i32 (%"class.altered_carbon::js::ACAstBaseNode"*)* @_ZNK14altered_carbon2js13ACAstBaseNode2opEv to i8*), i8* bitcast (i1 (%"class.altered_carbon::js::ACAstBaseNode"*)* @_ZN14altered_carbon2js13ACAstBaseNode14convertToParamEv to i8*), i8* bitcast (i1 (%"class.altered_carbon::js::ACAstBaseNode"*)* @_ZN14altered_carbon2js13ACAstBaseNode15convertToFormalEv to i8*), i8* bitcast (void (%"class.altered_carbon::js::ACAstBaseNode"*, %"class.std::__1::basic_ostream"*)* @_ZNK14altered_carbon2js13ACAstBaseNode4dumpERNSt3__113basic_ostreamIcNS2_11char_traitsIcEEEE to i8*), i8* bitcast (void (%"class.altered_carbon::js::ACAstBaseNode"*, %"class.std::__1::basic_ostream"*)* @_ZNK14altered_carbon2js13ACAstBaseNode14dumpGraphLabelERNSt3__113basic_ostreamIcNS2_11char_traitsIcEEEE to i8*), i8* bitcast (void (%"class.altered_carbon::js::ACAstBaseNode"*, %"class.std::__1::basic_ostream"*)* @_ZNK14altered_carbon2js13ACAstBaseNode9dumpGraphERNSt3__113basic_ostreamIcNS2_11char_traitsIcEEEE to i8*), i8* bitcast (void (%"class.altered_carbon::js::ACAstBaseNode"*, %"class.std::__1::basic_ostream"*)* @_ZNK14altered_carbon2js13ACAstBaseNode14dumpChildNodesERNSt3__113basic_ostreamIcNS2_11char_traitsIcEEEE to i8*)] }, align 8
@_ZTVN14altered_carbon2js16ACAstSpecialNodeE = linkonce_odr unnamed_addr constant { [14 x i8*] } { [14 x i8*] [i8* null, i8* bitcast ({ i8*, i8*, i8* }* @_ZTIN14altered_carbon2js16ACAstSpecialNodeE to i8*), i8* bitcast (void (%"class.altered_carbon::js::ACAstSpecialNode"*)* @_ZN14altered_carbon2js16ACAstSpecialNodeD1Ev to i8*), i8* bitcast (void (%"class.altered_carbon::js::ACAstSpecialNode"*)* @_ZN14altered_carbon2js16ACAstSpecialNodeD0Ev to i8*), i8* bitcast (i8* (%"class.altered_carbon::js::ACAstBaseNode"*, %"class.altered_carbon::js::ACAstVisitable"*)* @_ZNK14altered_carbon2js13ACAstBaseNode6acceptEPNS0_14ACAstVisitableE to i8*), i8* bitcast (void (%"class.std::__1::basic_string"*, %"class.altered_carbon::js::ACAstBaseNode"*)* @_ZNK14altered_carbon2js13ACAstBaseNode10identifierEv to i8*), i8* bitcast (i32 (%"class.altered_carbon::js::ACAstBaseNode"*)* @_ZNK14altered_carbon2js13ACAstBaseNode10precedenceEv to i8*), i8* bitcast (i32 (%"class.altered_carbon::js::ACAstBaseNode"*)* @_ZNK14altered_carbon2js13ACAstBaseNode2opEv to i8*), i8* bitcast (i1 (%"class.altered_carbon::js::ACAstBaseNode"*)* @_ZN14altered_carbon2js13ACAstBaseNode14convertToParamEv to i8*), i8* bitcast (i1 (%"class.altered_carbon::js::ACAstBaseNode"*)* @_ZN14altered_carbon2js13ACAstBaseNode15convertToFormalEv to i8*), i8* bitcast (void (%"class.altered_carbon::js::ACAstBaseNode"*, %"class.std::__1::basic_ostream"*)* @_ZNK14altered_carbon2js13ACAstBaseNode4dumpERNSt3__113basic_ostreamIcNS2_11char_traitsIcEEEE to i8*), i8* bitcast (void (%"class.altered_carbon::js::ACAstBaseNode"*, %"class.std::__1::basic_ostream"*)* @_ZNK14altered_carbon2js13ACAstBaseNode14dumpGraphLabelERNSt3__113basic_ostreamIcNS2_11char_traitsIcEEEE to i8*), i8* bitcast (void (%"class.altered_carbon::js::ACAstBaseNode"*, %"class.std::__1::basic_ostream"*)* @_ZNK14altered_carbon2js13ACAstBaseNode9dumpGraphERNSt3__113basic_ostreamIcNS2_11char_traitsIcEEEE to i8*), i8* bitcast (void (%"class.altered_carbon::js::ACAstBaseNode"*, %"class.std::__1::basic_ostream"*)* @_ZNK14altered_carbon2js13ACAstBaseNode14dumpChildNodesERNSt3__113basic_ostreamIcNS2_11char_traitsIcEEEE to i8*)] }, align 8
@_ZTVN14altered_carbon2js22ACAstSyntaxLiteralNodeE = linkonce_odr unnamed_addr constant { [14 x i8*] } { [14 x i8*] [i8* null, i8* bitcast ({ i8*, i8*, i8* }* @_ZTIN14altered_carbon2js22ACAstSyntaxLiteralNodeE to i8*), i8* bitcast (void (%"class.altered_carbon::js::ACAstSyntaxLiteralNode"*)* @_ZN14altered_carbon2js22ACAstSyntaxLiteralNodeD1Ev to i8*), i8* bitcast (void (%"class.altered_carbon::js::ACAstSyntaxLiteralNode"*)* @_ZN14altered_carbon2js22ACAstSyntaxLiteralNodeD0Ev to i8*), i8* bitcast (i8* (%"class.altered_carbon::js::ACAstBaseNode"*, %"class.altered_carbon::js::ACAstVisitable"*)* @_ZNK14altered_carbon2js13ACAstBaseNode6acceptEPNS0_14ACAstVisitableE to i8*), i8* bitcast (void (%"class.std::__1::basic_string"*, %"class.altered_carbon::js::ACAstBaseNode"*)* @_ZNK14altered_carbon2js13ACAstBaseNode10identifierEv to i8*), i8* bitcast (i32 (%"class.altered_carbon::js::ACAstBaseNode"*)* @_ZNK14altered_carbon2js13ACAstBaseNode10precedenceEv to i8*), i8* bitcast (i32 (%"class.altered_carbon::js::ACAstBaseNode"*)* @_ZNK14altered_carbon2js13ACAstBaseNode2opEv to i8*), i8* bitcast (i1 (%"class.altered_carbon::js::ACAstBaseNode"*)* @_ZN14altered_carbon2js13ACAstBaseNode14convertToParamEv to i8*), i8* bitcast (i1 (%"class.altered_carbon::js::ACAstBaseNode"*)* @_ZN14altered_carbon2js13ACAstBaseNode15convertToFormalEv to i8*), i8* bitcast (void (%"class.altered_carbon::js::ACAstBaseNode"*, %"class.std::__1::basic_ostream"*)* @_ZNK14altered_carbon2js13ACAstBaseNode4dumpERNSt3__113basic_ostreamIcNS2_11char_traitsIcEEEE to i8*), i8* bitcast (void (%"class.altered_carbon::js::ACAstBaseNode"*, %"class.std::__1::basic_ostream"*)* @_ZNK14altered_carbon2js13ACAstBaseNode14dumpGraphLabelERNSt3__113basic_ostreamIcNS2_11char_traitsIcEEEE to i8*), i8* bitcast (void (%"class.altered_carbon::js::ACAstBaseNode"*, %"class.std::__1::basic_ostream"*)* @_ZNK14altered_carbon2js13ACAstBaseNode9dumpGraphERNSt3__113basic_ostreamIcNS2_11char_traitsIcEEEE to i8*), i8* bitcast (void (%"class.altered_carbon::js::ACAstBaseNode"*, %"class.std::__1::basic_ostream"*)* @_ZNK14altered_carbon2js13ACAstBaseNode14dumpChildNodesERNSt3__113basic_ostreamIcNS2_11char_traitsIcEEEE to i8*)] }, align 8
@_ZTVN10__cxxabiv117__class_type_infoE = external global i8*
@_ZTSN14altered_carbon2js13ACAstBaseNodeE = constant [37 x i8] c"N14altered_carbon2js13ACAstBaseNodeE\00"
@_ZTIN14altered_carbon2js13ACAstBaseNodeE = constant { i8*, i8* } { i8* bitcast (i8** getelementptr inbounds (i8*, i8** @_ZTVN10__cxxabiv117__class_type_infoE, i64 2) to i8*), i8* getelementptr inbounds ([37 x i8], [37 x i8]* @_ZTSN14altered_carbon2js13ACAstBaseNodeE, i32 0, i32 0) }
@_ZTVN10__cxxabiv120__si_class_type_infoE = external global i8*
@_ZTSN14altered_carbon2js19ACAstExpressionNodeE = constant [43 x i8] c"N14altered_carbon2js19ACAstExpressionNodeE\00"
@_ZTIN14altered_carbon2js19ACAstExpressionNodeE = constant { i8*, i8*, i8* } { i8* bitcast (i8** getelementptr inbounds (i8*, i8** @_ZTVN10__cxxabiv120__si_class_type_infoE, i64 2) to i8*), i8* getelementptr inbounds ([43 x i8], [43 x i8]* @_ZTSN14altered_carbon2js19ACAstExpressionNodeE, i32 0, i32 0), i8* bitcast ({ i8*, i8* }* @_ZTIN14altered_carbon2js13ACAstBaseNodeE to i8*) }
@_ZTSN14altered_carbon2js18ACAstStatementNodeE = constant [42 x i8] c"N14altered_carbon2js18ACAstStatementNodeE\00"
@_ZTIN14altered_carbon2js18ACAstStatementNodeE = constant { i8*, i8*, i8* } { i8* bitcast (i8** getelementptr inbounds (i8*, i8** @_ZTVN10__cxxabiv120__si_class_type_infoE, i64 2) to i8*), i8* getelementptr inbounds ([42 x i8], [42 x i8]* @_ZTSN14altered_carbon2js18ACAstStatementNodeE, i32 0, i32 0), i8* bitcast ({ i8*, i8* }* @_ZTIN14altered_carbon2js13ACAstBaseNodeE to i8*) }
@_ZTSN14altered_carbon2js14ACAstBlockNodeE = constant [38 x i8] c"N14altered_carbon2js14ACAstBlockNodeE\00"
@_ZTIN14altered_carbon2js14ACAstBlockNodeE = constant { i8*, i8*, i8* } { i8* bitcast (i8** getelementptr inbounds (i8*, i8** @_ZTVN10__cxxabiv120__si_class_type_infoE, i64 2) to i8*), i8* getelementptr inbounds ([38 x i8], [38 x i8]* @_ZTSN14altered_carbon2js14ACAstBlockNodeE, i32 0, i32 0), i8* bitcast ({ i8*, i8* }* @_ZTIN14altered_carbon2js13ACAstBaseNodeE to i8*) }
@_ZTSN14altered_carbon2js19ACAstCollectionNodeE = constant [43 x i8] c"N14altered_carbon2js19ACAstCollectionNodeE\00"
@_ZTIN14altered_carbon2js19ACAstCollectionNodeE = constant { i8*, i8*, i8* } { i8* bitcast (i8** getelementptr inbounds (i8*, i8** @_ZTVN10__cxxabiv120__si_class_type_infoE, i64 2) to i8*), i8* getelementptr inbounds ([43 x i8], [43 x i8]* @_ZTSN14altered_carbon2js19ACAstCollectionNodeE, i32 0, i32 0), i8* bitcast ({ i8*, i8* }* @_ZTIN14altered_carbon2js13ACAstBaseNodeE to i8*) }
@_ZTSN14altered_carbon2js20ACAstDeclarationNodeE = linkonce_odr constant [44 x i8] c"N14altered_carbon2js20ACAstDeclarationNodeE\00"
@_ZTIN14altered_carbon2js20ACAstDeclarationNodeE = linkonce_odr constant { i8*, i8*, i8* } { i8* bitcast (i8** getelementptr inbounds (i8*, i8** @_ZTVN10__cxxabiv120__si_class_type_infoE, i64 2) to i8*), i8* getelementptr inbounds ([44 x i8], [44 x i8]* @_ZTSN14altered_carbon2js20ACAstDeclarationNodeE, i32 0, i32 0), i8* bitcast ({ i8*, i8* }* @_ZTIN14altered_carbon2js13ACAstBaseNodeE to i8*) }
@_ZTSN14altered_carbon2js16ACAstElementNodeE = linkonce_odr constant [40 x i8] c"N14altered_carbon2js16ACAstElementNodeE\00"
@_ZTIN14altered_carbon2js16ACAstElementNodeE = linkonce_odr constant { i8*, i8*, i8* } { i8* bitcast (i8** getelementptr inbounds (i8*, i8** @_ZTVN10__cxxabiv120__si_class_type_infoE, i64 2) to i8*), i8* getelementptr inbounds ([40 x i8], [40 x i8]* @_ZTSN14altered_carbon2js16ACAstElementNodeE, i32 0, i32 0), i8* bitcast ({ i8*, i8* }* @_ZTIN14altered_carbon2js13ACAstBaseNodeE to i8*) }
@_ZTSN14altered_carbon2js16ACAstSpecialNodeE = linkonce_odr constant [40 x i8] c"N14altered_carbon2js16ACAstSpecialNodeE\00"
@_ZTIN14altered_carbon2js16ACAstSpecialNodeE = linkonce_odr constant { i8*, i8*, i8* } { i8* bitcast (i8** getelementptr inbounds (i8*, i8** @_ZTVN10__cxxabiv120__si_class_type_infoE, i64 2) to i8*), i8* getelementptr inbounds ([40 x i8], [40 x i8]* @_ZTSN14altered_carbon2js16ACAstSpecialNodeE, i32 0, i32 0), i8* bitcast ({ i8*, i8* }* @_ZTIN14altered_carbon2js13ACAstBaseNodeE to i8*) }
@_ZTSN14altered_carbon2js22ACAstSyntaxLiteralNodeE = linkonce_odr constant [46 x i8] c"N14altered_carbon2js22ACAstSyntaxLiteralNodeE\00"
@_ZTIN14altered_carbon2js22ACAstSyntaxLiteralNodeE = linkonce_odr constant { i8*, i8*, i8* } { i8* bitcast (i8** getelementptr inbounds (i8*, i8** @_ZTVN10__cxxabiv120__si_class_type_infoE, i64 2) to i8*), i8* getelementptr inbounds ([46 x i8], [46 x i8]* @_ZTSN14altered_carbon2js22ACAstSyntaxLiteralNodeE, i32 0, i32 0), i8* bitcast ({ i8*, i8* }* @_ZTIN14altered_carbon2js13ACAstBaseNodeE to i8*) }
@_ZTVN14altered_carbon2js10NullStreamE = linkonce_odr unnamed_addr constant { [17 x i8*], [5 x i8*], [5 x i8*] } { [17 x i8*] [i8* inttoptr (i64 328 to i8*), i8* null, i8* bitcast ({ i8*, i8*, i32, i32, i8*, i64, i8*, i64 }* @_ZTIN14altered_carbon2js10NullStreamE to i8*), i8* bitcast (void (%"class.altered_carbon::js::NullStream"*)* @_ZN14altered_carbon2js10NullStreamD1Ev to i8*), i8* bitcast (void (%"class.altered_carbon::js::NullStream"*)* @_ZN14altered_carbon2js10NullStreamD0Ev to i8*), i8* bitcast (void (%"class.std::__1::basic_streambuf"*, %"class.std::__1::locale"*)* @_ZNSt3__115basic_streambufIcNS_11char_traitsIcEEE5imbueERKNS_6localeE to i8*), i8* bitcast (%"class.std::__1::basic_streambuf"* (%"class.std::__1::basic_streambuf"*, i8*, i64)* @_ZNSt3__115basic_streambufIcNS_11char_traitsIcEEE6setbufEPcl to i8*), i8* bitcast (void ()* @_ZNSt3__115basic_streambufIcNS_11char_traitsIcEEE7seekoffExNS_8ios_base7seekdirEj to i8*), i8* bitcast (void ()* @_ZNSt3__115basic_streambufIcNS_11char_traitsIcEEE7seekposENS_4fposI11__mbstate_tEEj to i8*), i8* bitcast (i32 (%"class.std::__1::basic_streambuf"*)* @_ZNSt3__115basic_streambufIcNS_11char_traitsIcEEE4syncEv to i8*), i8* bitcast (i64 (%"class.std::__1::basic_streambuf"*)* @_ZNSt3__115basic_streambufIcNS_11char_traitsIcEEE9showmanycEv to i8*), i8* bitcast (i64 (%"class.std::__1::basic_streambuf"*, i8*, i64)* @_ZNSt3__115basic_streambufIcNS_11char_traitsIcEEE6xsgetnEPcl to i8*), i8* bitcast (i32 (%"class.std::__1::basic_streambuf"*)* @_ZNSt3__115basic_streambufIcNS_11char_traitsIcEEE9underflowEv to i8*), i8* bitcast (i32 (%"class.std::__1::basic_streambuf"*)* @_ZNSt3__115basic_streambufIcNS_11char_traitsIcEEE5uflowEv to i8*), i8* bitcast (i32 (%"class.std::__1::basic_streambuf"*, i32)* @_ZNSt3__115basic_streambufIcNS_11char_traitsIcEEE9pbackfailEi to i8*), i8* bitcast (i64 (%"class.std::__1::basic_streambuf"*, i8*, i64)* @_ZNSt3__115basic_streambufIcNS_11char_traitsIcEEE6xsputnEPKcl to i8*), i8* bitcast (i32 (%"class.altered_carbon::js::NullStreamBuf"*, i32)* @_ZN14altered_carbon2js13NullStreamBuf8overflowEi to i8*)], [5 x i8*] [i8* inttoptr (i64 8 to i8*), i8* inttoptr (i64 -320 to i8*), i8* bitcast ({ i8*, i8*, i32, i32, i8*, i64, i8*, i64 }* @_ZTIN14altered_carbon2js10NullStreamE to i8*), i8* bitcast (void (%"class.altered_carbon::js::NullStream"*)* @_ZThn320_N14altered_carbon2js10NullStreamD1Ev to i8*), i8* bitcast (void (%"class.altered_carbon::js::NullStream"*)* @_ZThn320_N14altered_carbon2js10NullStreamD0Ev to i8*)], [5 x i8*] [i8* inttoptr (i64 -328 to i8*), i8* inttoptr (i64 -328 to i8*), i8* bitcast ({ i8*, i8*, i32, i32, i8*, i64, i8*, i64 }* @_ZTIN14altered_carbon2js10NullStreamE to i8*), i8* bitcast (void (%"class.altered_carbon::js::NullStream"*)* @_ZTv0_n24_N14altered_carbon2js10NullStreamD1Ev to i8*), i8* bitcast (void (%"class.altered_carbon::js::NullStream"*)* @_ZTv0_n24_N14altered_carbon2js10NullStreamD0Ev to i8*)] }, align 8
@_ZTTN14altered_carbon2js10NullStreamE = linkonce_odr unnamed_addr constant [5 x i8*] [i8* bitcast (i8** getelementptr inbounds ({ [17 x i8*], [5 x i8*], [5 x i8*] }, { [17 x i8*], [5 x i8*], [5 x i8*] }* @_ZTVN14altered_carbon2js10NullStreamE, i32 0, inrange i32 0, i32 3) to i8*), i8* bitcast (i8** getelementptr inbounds ({ [5 x i8*], [5 x i8*] }, { [5 x i8*], [5 x i8*] }* @_ZTCN14altered_carbon2js10NullStreamE320_NSt3__113basic_ostreamIcNS1_11char_traitsIcEEEE, i32 0, inrange i32 0, i32 3) to i8*), i8* bitcast (i8** getelementptr inbounds ({ [5 x i8*], [5 x i8*] }, { [5 x i8*], [5 x i8*] }* @_ZTCN14altered_carbon2js10NullStreamE320_NSt3__113basic_ostreamIcNS1_11char_traitsIcEEEE, i32 0, inrange i32 1, i32 3) to i8*), i8* bitcast (i8** getelementptr inbounds ({ [17 x i8*], [5 x i8*], [5 x i8*] }, { [17 x i8*], [5 x i8*], [5 x i8*] }* @_ZTVN14altered_carbon2js10NullStreamE, i32 0, inrange i32 1, i32 3) to i8*), i8* bitcast (i8** getelementptr inbounds ({ [17 x i8*], [5 x i8*], [5 x i8*] }, { [17 x i8*], [5 x i8*], [5 x i8*] }* @_ZTVN14altered_carbon2js10NullStreamE, i32 0, inrange i32 2, i32 3) to i8*)]
@_ZTCN14altered_carbon2js10NullStreamE320_NSt3__113basic_ostreamIcNS1_11char_traitsIcEEEE = linkonce_odr unnamed_addr constant { [5 x i8*], [5 x i8*] } { [5 x i8*] [i8* inttoptr (i64 8 to i8*), i8* null, i8* bitcast (i8** @_ZTINSt3__113basic_ostreamIcNS_11char_traitsIcEEEE to i8*), i8* bitcast (void (%"class.std::__1::basic_ostream"*)* @_ZNSt3__113basic_ostreamIcNS_11char_traitsIcEEED1Ev to i8*), i8* bitcast (void (%"class.std::__1::basic_ostream"*)* @_ZNSt3__113basic_ostreamIcNS_11char_traitsIcEEED0Ev to i8*)], [5 x i8*] [i8* inttoptr (i64 -8 to i8*), i8* inttoptr (i64 -8 to i8*), i8* bitcast (i8** @_ZTINSt3__113basic_ostreamIcNS_11char_traitsIcEEEE to i8*), i8* bitcast (void (%"class.std::__1::basic_ostream"*)* @_ZTv0_n24_NSt3__113basic_ostreamIcNS_11char_traitsIcEEED1Ev to i8*), i8* bitcast (void (%"class.std::__1::basic_ostream"*)* @_ZTv0_n24_NSt3__113basic_ostreamIcNS_11char_traitsIcEEED0Ev to i8*)] }
@_ZTINSt3__113basic_ostreamIcNS_11char_traitsIcEEEE = external constant i8*
@_ZTVN10__cxxabiv121__vmi_class_type_infoE = external global i8*
@_ZTSN14altered_carbon2js10NullStreamE = linkonce_odr constant [34 x i8] c"N14altered_carbon2js10NullStreamE\00"
@_ZTIN14altered_carbon2js13NullStreamBufE = external constant i8*
@_ZTIN14altered_carbon2js10NullStreamE = linkonce_odr constant { i8*, i8*, i32, i32, i8*, i64, i8*, i64 } { i8* bitcast (i8** getelementptr inbounds (i8*, i8** @_ZTVN10__cxxabiv121__vmi_class_type_infoE, i64 2) to i8*), i8* getelementptr inbounds ([34 x i8], [34 x i8]* @_ZTSN14altered_carbon2js10NullStreamE, i32 0, i32 0), i32 0, i32 2, i8* bitcast (i8** @_ZTIN14altered_carbon2js13NullStreamBufE to i8*), i64 0, i8* bitcast (i8** @_ZTINSt3__113basic_ostreamIcNS_11char_traitsIcEEEE to i8*), i64 81922 }
@_ZTVNSt3__19basic_iosIcNS_11char_traitsIcEEEE = external unnamed_addr constant { [4 x i8*] }
@_ZTVNSt3__18ios_baseE = external unnamed_addr constant { [4 x i8*] }
@_ZTVN14altered_carbon2js13NullStreamBufE = external unnamed_addr constant { [16 x i8*] }
@.str.43 = private unnamed_addr constant [12 x i8] c"token error\00", align 1
@.str.44 = private unnamed_addr constant [13 x i8] c"syntax error\00", align 1
@.str.45 = private unnamed_addr constant [11 x i8] c"array expr\00", align 1
@.str.46 = private unnamed_addr constant [11 x i8] c"arrow expr\00", align 1
@.str.47 = private unnamed_addr constant [16 x i8] c"assignment expr\00", align 1
@.str.48 = private unnamed_addr constant [12 x i8] c"binary expr\00", align 1
@.str.49 = private unnamed_addr constant [10 x i8] c"call expr\00", align 1
@.str.50 = private unnamed_addr constant [11 x i8] c"class expr\00", align 1
@.str.51 = private unnamed_addr constant [17 x i8] c"conditional expr\00", align 1
@.str.52 = private unnamed_addr constant [12 x i8] c"formal list\00", align 1
@.str.53 = private unnamed_addr constant [10 x i8] c"func expr\00", align 1
@.str.54 = private unnamed_addr constant [11 x i8] c"group expr\00", align 1
@.str.55 = private unnamed_addr constant [12 x i8] c"member expr\00", align 1
@.str.56 = private unnamed_addr constant [9 x i8] c"new expr\00", align 1
@.str.57 = private unnamed_addr constant [12 x i8] c"object expr\00", align 1
@.str.58 = private unnamed_addr constant [17 x i8] c"placeholder expr\00", align 1
@.str.59 = private unnamed_addr constant [13 x i8] c"postfix expr\00", align 1
@.str.60 = private unnamed_addr constant [14 x i8] c"sequence expr\00", align 1
@.str.61 = private unnamed_addr constant [16 x i8] c"tagged tpl expr\00", align 1
@.str.62 = private unnamed_addr constant [10 x i8] c"this expr\00", align 1
@.str.63 = private unnamed_addr constant [11 x i8] c"unary expr\00", align 1
@.str.64 = private unnamed_addr constant [9 x i8] c"var decl\00", align 1
@.str.65 = private unnamed_addr constant [18 x i8] c"arraw expr formal\00", align 1
@.str.66 = private unnamed_addr constant [6 x i8] c"class\00", align 1
@.str.67 = private unnamed_addr constant [9 x i8] c"id param\00", align 1
@.str.68 = private unnamed_addr constant [10 x i8] c"col param\00", align 1
@.str.69 = private unnamed_addr constant [10 x i8] c"obj param\00", align 1
@.str.70 = private unnamed_addr constant [11 x i8] c"string var\00", align 1
@.str.71 = private unnamed_addr constant [12 x i8] c"numeric var\00", align 1
@.str.72 = private unnamed_addr constant [9 x i8] c"bool var\00", align 1
@.str.73 = private unnamed_addr constant [10 x i8] c"regex var\00", align 1
@.str.74 = private unnamed_addr constant [14 x i8] c"reference var\00", align 1
@.str.75 = private unnamed_addr constant [12 x i8] c"special var\00", align 1
@.str.76 = private unnamed_addr constant [13 x i8] c"variable var\00", align 1
@.str.77 = private unnamed_addr constant [11 x i8] c"block stmt\00", align 1
@.str.78 = private unnamed_addr constant [11 x i8] c"break stmt\00", align 1
@.str.79 = private unnamed_addr constant [14 x i8] c"continue stmt\00", align 1
@.str.80 = private unnamed_addr constant [14 x i8] c"debugger stmt\00", align 1
@.str.81 = private unnamed_addr constant [14 x i8] c"do-while stmt\00", align 1
@.str.82 = private unnamed_addr constant [11 x i8] c"empty stmt\00", align 1
@.str.83 = private unnamed_addr constant [10 x i8] c"expr stmt\00", align 1
@.str.84 = private unnamed_addr constant [9 x i8] c"for stmt\00", align 1
@.str.85 = private unnamed_addr constant [12 x i8] c"for in stmt\00", align 1
@.str.86 = private unnamed_addr constant [13 x i8] c"if-else stmt\00", align 1
@.str.87 = private unnamed_addr constant [13 x i8] c"labeled stmt\00", align 1
@.str.88 = private unnamed_addr constant [14 x i8] c"lex decl list\00", align 1
@.str.89 = private unnamed_addr constant [12 x i8] c"return stmt\00", align 1
@.str.90 = private unnamed_addr constant [12 x i8] c"switch stmt\00", align 1
@.str.91 = private unnamed_addr constant [12 x i8] c"case clause\00", align 1
@.str.92 = private unnamed_addr constant [11 x i8] c"throw stmt\00", align 1
@.str.93 = private unnamed_addr constant [15 x i8] c"try-catch stmt\00", align 1
@.str.94 = private unnamed_addr constant [13 x i8] c"catch clause\00", align 1
@.str.95 = private unnamed_addr constant [14 x i8] c"var decl list\00", align 1
@.str.96 = private unnamed_addr constant [11 x i8] c"while stmt\00", align 1
@.str.97 = private unnamed_addr constant [10 x i8] c"with stmt\00", align 1
@.str.98 = private unnamed_addr constant [15 x i8] c"spread element\00", align 1
@.str.99 = private unnamed_addr constant [13 x i8] c"rest element\00", align 1
@.str.100 = private unnamed_addr constant [17 x i8] c"template element\00", align 1
@.str.101 = private unnamed_addr constant [14 x i8] c"static member\00", align 1
@.str.102 = private unnamed_addr constant [15 x i8] c"runtime member\00", align 1
@.str.103 = private unnamed_addr constant [15 x i8] c"general object\00", align 1
@.str.104 = private unnamed_addr constant [17 x i8] c"object init prop\00", align 1
@.str.105 = private unnamed_addr constant [7 x i32] [i32 40, i32 110, i32 117, i32 108, i32 108, i32 41, i32 0], align 4
@_ZNSt3__15ctypeIcE2idE = external global %"class.std::__1::locale::id", align 8
@llvm.global_ctors = appending global [1 x { i32, void ()*, i8* }] [{ i32, void ()*, i8* } { i32 65535, void ()* @_GLOBAL__sub_I_ac_ast_base_nodes.cc, i8* null }]

; Function Attrs: noinline nounwind ssp uwtable
define internal void @__cxx_global_var_init() #0 section "__TEXT,__StaticInit,regular,pure_instructions" !dbg !5352 {
  call void @_ZN14altered_carbon2js10NullStreamC1Ev(%"class.altered_carbon::js::NullStream"* @_ZN14altered_carbon2jsL9BlackHoleE), !dbg !5353
  %1 = call i32 @__cxa_atexit(void (i8*)* bitcast (void (%"class.altered_carbon::js::NullStream"*)* @_ZN14altered_carbon2js10NullStreamD1Ev to void (i8*)*), i8* bitcast (%"class.altered_carbon::js::NullStream"* @_ZN14altered_carbon2jsL9BlackHoleE to i8*), i8* @__dso_handle) #2, !dbg !5353
  ret void, !dbg !5353
}

; Function Attrs: noinline nounwind optnone ssp uwtable
define linkonce_odr hidden void @_ZN14altered_carbon2js10NullStreamC1Ev(%"class.altered_carbon::js::NullStream"*) unnamed_addr #1 align 2 !dbg !5354 {
  %2 = alloca %"class.std::__1::basic_ios"*, align 8
  call void @llvm.dbg.declare(metadata %"class.std::__1::basic_ios"** %2, metadata !5355, metadata !DIExpression()), !dbg !5358
  %3 = alloca %"class.std::__1::basic_streambuf"*, align 8
  call void @llvm.dbg.declare(metadata %"class.std::__1::basic_streambuf"** %3, metadata !5363, metadata !DIExpression()), !dbg !5364
  %4 = alloca %"class.std::__1::basic_ostream"*, align 8
  call void @llvm.dbg.declare(metadata %"class.std::__1::basic_ostream"** %4, metadata !5365, metadata !DIExpression()), !dbg !5366
  %5 = alloca i8**, align 8
  call void @llvm.dbg.declare(metadata i8*** %5, metadata !5367, metadata !DIExpression()), !dbg !5366
  %6 = alloca %"class.std::__1::basic_streambuf"*, align 8
  call void @llvm.dbg.declare(metadata %"class.std::__1::basic_streambuf"** %6, metadata !5368, metadata !DIExpression()), !dbg !5369
  %7 = alloca %"class.std::__1::ios_base"*, align 8
  call void @llvm.dbg.declare(metadata %"class.std::__1::ios_base"** %7, metadata !5370, metadata !DIExpression()), !dbg !5373
  %8 = alloca %"class.std::__1::basic_ios"*, align 8
  call void @llvm.dbg.declare(metadata %"class.std::__1::basic_ios"** %8, metadata !5377, metadata !DIExpression()), !dbg !5378
  %9 = alloca %"class.altered_carbon::js::NullStream"*, align 8
  store %"class.altered_carbon::js::NullStream"* %0, %"class.altered_carbon::js::NullStream"** %9, align 8
  call void @llvm.dbg.declare(metadata %"class.altered_carbon::js::NullStream"** %9, metadata !5379, metadata !DIExpression()), !dbg !5380
  %10 = load %"class.altered_carbon::js::NullStream"*, %"class.altered_carbon::js::NullStream"** %9, align 8
  %11 = bitcast %"class.altered_carbon::js::NullStream"* %10 to i8*, !dbg !5381
  %12 = getelementptr inbounds i8, i8* %11, i64 328, !dbg !5381
  %13 = bitcast i8* %12 to %"class.std::__1::basic_ios"*, !dbg !5381
  store %"class.std::__1::basic_ios"* %13, %"class.std::__1::basic_ios"** %8, align 8
  %14 = load %"class.std::__1::basic_ios"*, %"class.std::__1::basic_ios"** %8, align 8
  %15 = bitcast %"class.std::__1::basic_ios"* %14 to %"class.std::__1::ios_base"*, !dbg !5382
  store %"class.std::__1::ios_base"* %15, %"class.std::__1::ios_base"** %7, align 8
  %16 = load %"class.std::__1::ios_base"*, %"class.std::__1::ios_base"** %7, align 8
  %17 = bitcast %"class.std::__1::ios_base"* %16 to i32 (...)***, !dbg !5383
  store i32 (...)** bitcast (i8** getelementptr inbounds ({ [4 x i8*] }, { [4 x i8*] }* @_ZTVNSt3__18ios_baseE, i32 0, inrange i32 0, i32 2) to i32 (...)**), i32 (...)*** %17, align 8, !dbg !5383
  %18 = bitcast %"class.std::__1::basic_ios"* %14 to i32 (...)***, !dbg !5382
  store i32 (...)** bitcast (i8** getelementptr inbounds ({ [4 x i8*] }, { [4 x i8*] }* @_ZTVNSt3__19basic_iosIcNS_11char_traitsIcEEEE, i32 0, inrange i32 0, i32 2) to i32 (...)**), i32 (...)*** %18, align 8, !dbg !5382
  %19 = bitcast %"class.altered_carbon::js::NullStream"* %10 to %"class.altered_carbon::js::NullStreamBuf"*, !dbg !5381
  call void @_ZN14altered_carbon2js13NullStreamBufC2Ev(%"class.altered_carbon::js::NullStreamBuf"* %19), !dbg !5384
  %20 = bitcast %"class.altered_carbon::js::NullStream"* %10 to i32 (...)***, !dbg !5381
  store i32 (...)** bitcast (i8** getelementptr inbounds ({ [17 x i8*], [5 x i8*], [5 x i8*] }, { [17 x i8*], [5 x i8*], [5 x i8*] }* @_ZTVN14altered_carbon2js10NullStreamE, i32 0, inrange i32 0, i32 3) to i32 (...)**), i32 (...)*** %20, align 8, !dbg !5381
  %21 = bitcast %"class.altered_carbon::js::NullStream"* %10 to i8*, !dbg !5381
  %22 = getelementptr inbounds i8, i8* %21, i64 320, !dbg !5381
  %23 = bitcast i8* %22 to i32 (...)***, !dbg !5381
  store i32 (...)** bitcast (i8** getelementptr inbounds ({ [17 x i8*], [5 x i8*], [5 x i8*] }, { [17 x i8*], [5 x i8*], [5 x i8*] }* @_ZTVN14altered_carbon2js10NullStreamE, i32 0, inrange i32 1, i32 3) to i32 (...)**), i32 (...)*** %23, align 8, !dbg !5381
  %24 = bitcast %"class.altered_carbon::js::NullStream"* %10 to i8*, !dbg !5381
  %25 = getelementptr inbounds i8, i8* %24, i64 328, !dbg !5381
  %26 = bitcast i8* %25 to i32 (...)***, !dbg !5381
  store i32 (...)** bitcast (i8** getelementptr inbounds ({ [17 x i8*], [5 x i8*], [5 x i8*] }, { [17 x i8*], [5 x i8*], [5 x i8*] }* @_ZTVN14altered_carbon2js10NullStreamE, i32 0, inrange i32 2, i32 3) to i32 (...)**), i32 (...)*** %26, align 8, !dbg !5381
  %27 = bitcast %"class.altered_carbon::js::NullStream"* %10 to i8*, !dbg !5381
  %28 = getelementptr inbounds i8, i8* %27, i64 320, !dbg !5381
  %29 = bitcast i8* %28 to %"class.std::__1::basic_ostream"*, !dbg !5381
  %30 = bitcast %"class.altered_carbon::js::NullStream"* %10 to %"class.std::__1::basic_streambuf"*, !dbg !5385
  store %"class.std::__1::basic_ostream"* %29, %"class.std::__1::basic_ostream"** %4, align 8
  store i8** getelementptr inbounds ([5 x i8*], [5 x i8*]* @_ZTTN14altered_carbon2js10NullStreamE, i64 0, i64 1), i8*** %5, align 8
  store %"class.std::__1::basic_streambuf"* %30, %"class.std::__1::basic_streambuf"** %6, align 8
  %31 = load %"class.std::__1::basic_ostream"*, %"class.std::__1::basic_ostream"** %4, align 8
  %32 = load i8**, i8*** %5, align 8
  %33 = load i8*, i8** %32, align 8, !dbg !5386
  %34 = bitcast %"class.std::__1::basic_ostream"* %31 to i32 (...)***, !dbg !5386
  %35 = bitcast i8* %33 to i32 (...)**, !dbg !5386
  store i32 (...)** %35, i32 (...)*** %34, align 8, !dbg !5386
  %36 = getelementptr inbounds i8*, i8** %32, i64 1, !dbg !5386
  %37 = load i8*, i8** %36, align 8, !dbg !5386
  %38 = bitcast %"class.std::__1::basic_ostream"* %31 to i8**, !dbg !5386
  %39 = load i8*, i8** %38, align 8, !dbg !5386
  %40 = getelementptr i8, i8* %39, i64 -24, !dbg !5386
  %41 = bitcast i8* %40 to i64*, !dbg !5386
  %42 = load i64, i64* %41, align 8, !dbg !5386
  %43 = bitcast %"class.std::__1::basic_ostream"* %31 to i8*, !dbg !5386
  %44 = getelementptr inbounds i8, i8* %43, i64 %42, !dbg !5386
  %45 = bitcast i8* %44 to i32 (...)***, !dbg !5386
  %46 = bitcast i8* %37 to i32 (...)**, !dbg !5386
  store i32 (...)** %46, i32 (...)*** %45, align 8, !dbg !5386
  %47 = bitcast %"class.std::__1::basic_ostream"* %31 to i8**, !dbg !5387
  %48 = load i8*, i8** %47, align 8, !dbg !5387
  %49 = getelementptr i8, i8* %48, i64 -24, !dbg !5387
  %50 = bitcast i8* %49 to i64*, !dbg !5387
  %51 = load i64, i64* %50, align 8, !dbg !5387
  %52 = bitcast %"class.std::__1::basic_ostream"* %31 to i8*, !dbg !5387
  %53 = getelementptr inbounds i8, i8* %52, i64 %51, !dbg !5387
  %54 = bitcast i8* %53 to %"class.std::__1::basic_ios"*, !dbg !5387
  %55 = load %"class.std::__1::basic_streambuf"*, %"class.std::__1::basic_streambuf"** %6, align 8, !dbg !5388
  store %"class.std::__1::basic_ios"* %54, %"class.std::__1::basic_ios"** %2, align 8
  store %"class.std::__1::basic_streambuf"* %55, %"class.std::__1::basic_streambuf"** %3, align 8
  %56 = load %"class.std::__1::basic_ios"*, %"class.std::__1::basic_ios"** %2, align 8
  %57 = bitcast %"class.std::__1::basic_ios"* %56 to %"class.std::__1::ios_base"*, !dbg !5389
  %58 = load %"class.std::__1::basic_streambuf"*, %"class.std::__1::basic_streambuf"** %3, align 8, !dbg !5390
  %59 = bitcast %"class.std::__1::basic_streambuf"* %58 to i8*, !dbg !5390
  call void @_ZNSt3__18ios_base4initEPv(%"class.std::__1::ios_base"* %57, i8* %59) #2, !dbg !5389
  %60 = getelementptr inbounds %"class.std::__1::basic_ios", %"class.std::__1::basic_ios"* %56, i32 0, i32 1, !dbg !5391
  store %"class.std::__1::basic_ostream"* null, %"class.std::__1::basic_ostream"** %60, align 8, !dbg !5392
  %61 = call i32 @_ZNSt3__111char_traitsIcE3eofEv() #2, !dbg !5393
  %62 = getelementptr inbounds %"class.std::__1::basic_ios", %"class.std::__1::basic_ios"* %56, i32 0, i32 2, !dbg !5394
  store i32 %61, i32* %62, align 8, !dbg !5395
  %63 = bitcast %"class.altered_carbon::js::NullStream"* %10 to i32 (...)***, !dbg !5381
  store i32 (...)** bitcast (i8** getelementptr inbounds ({ [17 x i8*], [5 x i8*], [5 x i8*] }, { [17 x i8*], [5 x i8*], [5 x i8*] }* @_ZTVN14altered_carbon2js10NullStreamE, i32 0, inrange i32 0, i32 3) to i32 (...)**), i32 (...)*** %63, align 8, !dbg !5381
  %64 = bitcast %"class.altered_carbon::js::NullStream"* %10 to i8*, !dbg !5381
  %65 = getelementptr inbounds i8, i8* %64, i64 320, !dbg !5381
  %66 = bitcast i8* %65 to i32 (...)***, !dbg !5381
  store i32 (...)** bitcast (i8** getelementptr inbounds ({ [17 x i8*], [5 x i8*], [5 x i8*] }, { [17 x i8*], [5 x i8*], [5 x i8*] }* @_ZTVN14altered_carbon2js10NullStreamE, i32 0, inrange i32 1, i32 3) to i32 (...)**), i32 (...)*** %66, align 8, !dbg !5381
  %67 = bitcast %"class.altered_carbon::js::NullStream"* %10 to i8*, !dbg !5381
  %68 = getelementptr inbounds i8, i8* %67, i64 328, !dbg !5381
  %69 = bitcast i8* %68 to i32 (...)***, !dbg !5381
  store i32 (...)** bitcast (i8** getelementptr inbounds ({ [17 x i8*], [5 x i8*], [5 x i8*] }, { [17 x i8*], [5 x i8*], [5 x i8*] }* @_ZTVN14altered_carbon2js10NullStreamE, i32 0, inrange i32 2, i32 3) to i32 (...)**), i32 (...)*** %69, align 8, !dbg !5381
  ret void, !dbg !5396
}

; Function Attrs: noinline nounwind optnone ssp uwtable
define linkonce_odr hidden void @_ZN14altered_carbon2js10NullStreamD1Ev(%"class.altered_carbon::js::NullStream"*) unnamed_addr #1 align 2 !dbg !5397 {
  %2 = alloca %"class.altered_carbon::js::NullStream"*, align 8
  store %"class.altered_carbon::js::NullStream"* %0, %"class.altered_carbon::js::NullStream"** %2, align 8
  call void @llvm.dbg.declare(metadata %"class.altered_carbon::js::NullStream"** %2, metadata !5399, metadata !DIExpression()), !dbg !5400
  %3 = load %"class.altered_carbon::js::NullStream"*, %"class.altered_carbon::js::NullStream"** %2, align 8
  call void @_ZN14altered_carbon2js10NullStreamD2Ev(%"class.altered_carbon::js::NullStream"* %3, i8** getelementptr inbounds ([5 x i8*], [5 x i8*]* @_ZTTN14altered_carbon2js10NullStreamE, i64 0, i64 0)) #2, !dbg !5401
  %4 = bitcast %"class.altered_carbon::js::NullStream"* %3 to i8*, !dbg !5401
  %5 = getelementptr inbounds i8, i8* %4, i64 328, !dbg !5401
  %6 = bitcast i8* %5 to %"class.std::__1::basic_ios"*, !dbg !5401
  call void @_ZNSt3__19basic_iosIcNS_11char_traitsIcEEED2Ev(%"class.std::__1::basic_ios"* %6) #2, !dbg !5401
  ret void, !dbg !5401
}

; Function Attrs: nounwind
declare i32 @__cxa_atexit(void (i8*)*, i8*, i8*) #2

; Function Attrs: noinline nounwind optnone ssp uwtable
define void @_ZN14altered_carbon2js13ACAstBaseNodeC2ENSt3__110unique_ptrINS0_13ACLexPositionENS2_14default_deleteIS4_EEEENS1_11AstNodeTypeENS1_14AstNodeSubTypeE(%"class.altered_carbon::js::ACAstBaseNode"*, %"class.std::__1::unique_ptr"*, i32, i32) unnamed_addr #1 align 2 !dbg !5402 {
  %5 = alloca %"struct.std::__1::__compressed_pair_elem.0"*, align 8
  call void @llvm.dbg.declare(metadata %"struct.std::__1::__compressed_pair_elem.0"** %5, metadata !5403, metadata !DIExpression()), !dbg !5406
  %6 = alloca %"class.std::__1::__compressed_pair"*, align 8
  call void @llvm.dbg.declare(metadata %"class.std::__1::__compressed_pair"** %6, metadata !5416, metadata !DIExpression()), !dbg !5418
  %7 = alloca %"class.std::__1::unique_ptr"*, align 8
  call void @llvm.dbg.declare(metadata %"class.std::__1::unique_ptr"** %7, metadata !5419, metadata !DIExpression()), !dbg !5421
  %8 = alloca %"struct.std::__1::default_delete"*, align 8
  call void @llvm.dbg.declare(metadata %"struct.std::__1::default_delete"** %8, metadata !5422, metadata !DIExpression()), !dbg !5431
  %9 = alloca %"struct.altered_carbon::js::ACLexPosition"**, align 8
  call void @llvm.dbg.declare(metadata %"struct.altered_carbon::js::ACLexPosition"*** %9, metadata !5433, metadata !DIExpression()), !dbg !5442
  %10 = alloca %"struct.std::__1::__compressed_pair_elem"*, align 8
  call void @llvm.dbg.declare(metadata %"struct.std::__1::__compressed_pair_elem"** %10, metadata !5462, metadata !DIExpression()), !dbg !5464
  %11 = alloca %"struct.altered_carbon::js::ACLexPosition"**, align 8
  call void @llvm.dbg.declare(metadata %"struct.altered_carbon::js::ACLexPosition"*** %11, metadata !5465, metadata !DIExpression()), !dbg !5466
  %12 = alloca %"struct.std::__1::default_delete"*, align 8
  call void @llvm.dbg.declare(metadata %"struct.std::__1::default_delete"** %12, metadata !5422, metadata !DIExpression()), !dbg !5467
  %13 = alloca %"struct.std::__1::default_delete"*, align 8
  call void @llvm.dbg.declare(metadata %"struct.std::__1::default_delete"** %13, metadata !5422, metadata !DIExpression()), !dbg !5469
  %14 = alloca %"struct.std::__1::__compressed_pair_elem.0"*, align 8
  call void @llvm.dbg.declare(metadata %"struct.std::__1::__compressed_pair_elem.0"** %14, metadata !5478, metadata !DIExpression()), !dbg !5479
  %15 = alloca %"struct.std::__1::default_delete"*, align 8
  call void @llvm.dbg.declare(metadata %"struct.std::__1::default_delete"** %15, metadata !5480, metadata !DIExpression()), !dbg !5481
  %16 = alloca %"struct.altered_carbon::js::ACLexPosition"**, align 8
  call void @llvm.dbg.declare(metadata %"struct.altered_carbon::js::ACLexPosition"*** %16, metadata !5433, metadata !DIExpression()), !dbg !5482
  %17 = alloca %"class.std::__1::__compressed_pair"*, align 8
  call void @llvm.dbg.declare(metadata %"class.std::__1::__compressed_pair"** %17, metadata !5484, metadata !DIExpression()), !dbg !5485
  %18 = alloca %"struct.altered_carbon::js::ACLexPosition"**, align 8
  call void @llvm.dbg.declare(metadata %"struct.altered_carbon::js::ACLexPosition"*** %18, metadata !5486, metadata !DIExpression()), !dbg !5487
  %19 = alloca %"struct.std::__1::default_delete"*, align 8
  call void @llvm.dbg.declare(metadata %"struct.std::__1::default_delete"** %19, metadata !5488, metadata !DIExpression()), !dbg !5489
  %20 = alloca %"class.std::__1::__compressed_pair"*, align 8
  call void @llvm.dbg.declare(metadata %"class.std::__1::__compressed_pair"** %20, metadata !5490, metadata !DIExpression()), !dbg !5491
  %21 = alloca %"struct.altered_carbon::js::ACLexPosition"**, align 8
  call void @llvm.dbg.declare(metadata %"struct.altered_carbon::js::ACLexPosition"*** %21, metadata !5492, metadata !DIExpression()), !dbg !5493
  %22 = alloca %"struct.std::__1::default_delete"*, align 8
  call void @llvm.dbg.declare(metadata %"struct.std::__1::default_delete"** %22, metadata !5494, metadata !DIExpression()), !dbg !5495
  %23 = alloca %"struct.std::__1::__compressed_pair_elem"*, align 8
  call void @llvm.dbg.declare(metadata %"struct.std::__1::__compressed_pair_elem"** %23, metadata !5496, metadata !DIExpression()), !dbg !5498
  %24 = alloca %"class.std::__1::__compressed_pair"*, align 8
  call void @llvm.dbg.declare(metadata %"class.std::__1::__compressed_pair"** %24, metadata !5504, metadata !DIExpression()), !dbg !5505
  %25 = alloca %"struct.std::__1::__compressed_pair_elem"*, align 8
  call void @llvm.dbg.declare(metadata %"struct.std::__1::__compressed_pair_elem"** %25, metadata !5496, metadata !DIExpression()), !dbg !5506
  %26 = alloca %"class.std::__1::__compressed_pair"*, align 8
  call void @llvm.dbg.declare(metadata %"class.std::__1::__compressed_pair"** %26, metadata !5504, metadata !DIExpression()), !dbg !5509
  %27 = alloca %"class.std::__1::unique_ptr"*, align 8
  call void @llvm.dbg.declare(metadata %"class.std::__1::unique_ptr"** %27, metadata !5510, metadata !DIExpression()), !dbg !5511
  %28 = alloca %"struct.altered_carbon::js::ACLexPosition"*, align 8
  call void @llvm.dbg.declare(metadata %"struct.altered_carbon::js::ACLexPosition"** %28, metadata !5512, metadata !DIExpression()), !dbg !5513
  %29 = alloca %"class.std::__1::unique_ptr"*, align 8
  call void @llvm.dbg.declare(metadata %"class.std::__1::unique_ptr"** %29, metadata !5514, metadata !DIExpression()), !dbg !5515
  %30 = alloca %"class.std::__1::unique_ptr"*, align 8
  call void @llvm.dbg.declare(metadata %"class.std::__1::unique_ptr"** %30, metadata !5516, metadata !DIExpression()), !dbg !5517
  %31 = alloca %"struct.altered_carbon::js::ACLexPosition"*, align 8
  %32 = alloca %"class.std::__1::unique_ptr"*, align 8
  call void @llvm.dbg.declare(metadata %"class.std::__1::unique_ptr"** %32, metadata !5518, metadata !DIExpression()), !dbg !5519
  %33 = alloca %"class.std::__1::unique_ptr"*, align 8
  call void @llvm.dbg.declare(metadata %"class.std::__1::unique_ptr"** %33, metadata !5520, metadata !DIExpression()), !dbg !5521
  %34 = alloca i8**, align 8
  call void @llvm.dbg.declare(metadata i8*** %34, metadata !5522, metadata !DIExpression()), !dbg !5532
  %35 = alloca %"struct.std::__1::__compressed_pair_elem.8"*, align 8
  call void @llvm.dbg.declare(metadata %"struct.std::__1::__compressed_pair_elem.8"** %35, metadata !5555, metadata !DIExpression()), !dbg !5557
  %36 = alloca i8**, align 8
  call void @llvm.dbg.declare(metadata i8*** %36, metadata !5558, metadata !DIExpression()), !dbg !5559
  %37 = alloca %"class.std::__1::allocator"*, align 8
  call void @llvm.dbg.declare(metadata %"class.std::__1::allocator"** %37, metadata !5560, metadata !DIExpression()), !dbg !5563
  %38 = alloca %"struct.std::__1::__compressed_pair_elem.9"*, align 8
  call void @llvm.dbg.declare(metadata %"struct.std::__1::__compressed_pair_elem.9"** %38, metadata !5567, metadata !DIExpression()), !dbg !5569
  %39 = alloca i8**, align 8
  call void @llvm.dbg.declare(metadata i8*** %39, metadata !5522, metadata !DIExpression()), !dbg !5570
  %40 = alloca %"class.std::__1::__compressed_pair.7"*, align 8
  call void @llvm.dbg.declare(metadata %"class.std::__1::__compressed_pair.7"** %40, metadata !5572, metadata !DIExpression()), !dbg !5574
  %41 = alloca i8**, align 8
  call void @llvm.dbg.declare(metadata i8*** %41, metadata !5575, metadata !DIExpression()), !dbg !5576
  %42 = alloca %"class.std::__1::__compressed_pair.7"*, align 8
  call void @llvm.dbg.declare(metadata %"class.std::__1::__compressed_pair.7"** %42, metadata !5577, metadata !DIExpression()), !dbg !5578
  %43 = alloca i8**, align 8
  call void @llvm.dbg.declare(metadata i8*** %43, metadata !5579, metadata !DIExpression()), !dbg !5580
  %44 = alloca %"class.std::__1::__vector_base_common"*, align 8
  call void @llvm.dbg.declare(metadata %"class.std::__1::__vector_base_common"** %44, metadata !5581, metadata !DIExpression()), !dbg !5584
  %45 = alloca %"class.std::__1::__vector_base"*, align 8
  call void @llvm.dbg.declare(metadata %"class.std::__1::__vector_base"** %45, metadata !5586, metadata !DIExpression()), !dbg !5588
  %46 = alloca i8*, align 8
  %47 = alloca %"class.std::__1::vector"*, align 8
  call void @llvm.dbg.declare(metadata %"class.std::__1::vector"** %47, metadata !5589, metadata !DIExpression()), !dbg !5591
  %48 = alloca %"class.std::__1::vector"*, align 8
  call void @llvm.dbg.declare(metadata %"class.std::__1::vector"** %48, metadata !5592, metadata !DIExpression()), !dbg !5593
  %49 = alloca %"class.std::__1::unique_ptr"*, align 8
  call void @llvm.dbg.declare(metadata %"class.std::__1::unique_ptr"** %49, metadata !5594, metadata !DIExpression()), !dbg !5603
  %50 = alloca %"class.altered_carbon::js::ACAstBaseNode"*, align 8
  %51 = alloca i32, align 4
  %52 = alloca i32, align 4
  store %"class.altered_carbon::js::ACAstBaseNode"* %0, %"class.altered_carbon::js::ACAstBaseNode"** %50, align 8
  call void @llvm.dbg.declare(metadata %"class.altered_carbon::js::ACAstBaseNode"** %50, metadata !5605, metadata !DIExpression()), !dbg !5606
  call void @llvm.dbg.declare(metadata %"class.std::__1::unique_ptr"* %1, metadata !5607, metadata !DIExpression()), !dbg !5608
  store i32 %2, i32* %51, align 4
  call void @llvm.dbg.declare(metadata i32* %51, metadata !5609, metadata !DIExpression()), !dbg !5610
  store i32 %3, i32* %52, align 4
  call void @llvm.dbg.declare(metadata i32* %52, metadata !5611, metadata !DIExpression()), !dbg !5612
  %53 = load %"class.altered_carbon::js::ACAstBaseNode"*, %"class.altered_carbon::js::ACAstBaseNode"** %50, align 8
  %54 = bitcast %"class.altered_carbon::js::ACAstBaseNode"* %53 to i32 (...)***, !dbg !5613
  store i32 (...)** bitcast (i8** getelementptr inbounds ({ [14 x i8*] }, { [14 x i8*] }* @_ZTVN14altered_carbon2js13ACAstBaseNodeE, i32 0, inrange i32 0, i32 2) to i32 (...)**), i32 (...)*** %54, align 8, !dbg !5613
  %55 = getelementptr inbounds %"class.altered_carbon::js::ACAstBaseNode", %"class.altered_carbon::js::ACAstBaseNode"* %53, i32 0, i32 1, !dbg !5614
  store %"class.std::__1::unique_ptr"* %1, %"class.std::__1::unique_ptr"** %49, align 8
  %56 = load %"class.std::__1::unique_ptr"*, %"class.std::__1::unique_ptr"** %49, align 8, !dbg !5615
  store %"class.std::__1::unique_ptr"* %55, %"class.std::__1::unique_ptr"** %32, align 8
  store %"class.std::__1::unique_ptr"* %56, %"class.std::__1::unique_ptr"** %33, align 8
  %57 = load %"class.std::__1::unique_ptr"*, %"class.std::__1::unique_ptr"** %32, align 8
  %58 = load %"class.std::__1::unique_ptr"*, %"class.std::__1::unique_ptr"** %33, align 8, !dbg !5616
  store %"class.std::__1::unique_ptr"* %57, %"class.std::__1::unique_ptr"** %29, align 8
  store %"class.std::__1::unique_ptr"* %58, %"class.std::__1::unique_ptr"** %30, align 8
  %59 = load %"class.std::__1::unique_ptr"*, %"class.std::__1::unique_ptr"** %29, align 8
  %60 = getelementptr inbounds %"class.std::__1::unique_ptr", %"class.std::__1::unique_ptr"* %59, i32 0, i32 0, !dbg !5617
  %61 = load %"class.std::__1::unique_ptr"*, %"class.std::__1::unique_ptr"** %30, align 8, !dbg !5618
  store %"class.std::__1::unique_ptr"* %61, %"class.std::__1::unique_ptr"** %27, align 8
  %62 = load %"class.std::__1::unique_ptr"*, %"class.std::__1::unique_ptr"** %27, align 8
  %63 = getelementptr inbounds %"class.std::__1::unique_ptr", %"class.std::__1::unique_ptr"* %62, i32 0, i32 0, !dbg !5619
  store %"class.std::__1::__compressed_pair"* %63, %"class.std::__1::__compressed_pair"** %26, align 8
  %64 = load %"class.std::__1::__compressed_pair"*, %"class.std::__1::__compressed_pair"** %26, align 8
  %65 = bitcast %"class.std::__1::__compressed_pair"* %64 to %"struct.std::__1::__compressed_pair_elem"*, !dbg !5620
  store %"struct.std::__1::__compressed_pair_elem"* %65, %"struct.std::__1::__compressed_pair_elem"** %25, align 8
  %66 = load %"struct.std::__1::__compressed_pair_elem"*, %"struct.std::__1::__compressed_pair_elem"** %25, align 8
  %67 = getelementptr inbounds %"struct.std::__1::__compressed_pair_elem", %"struct.std::__1::__compressed_pair_elem"* %66, i32 0, i32 0, !dbg !5621
  %68 = load %"struct.altered_carbon::js::ACLexPosition"*, %"struct.altered_carbon::js::ACLexPosition"** %67, align 8, !dbg !5622
  store %"struct.altered_carbon::js::ACLexPosition"* %68, %"struct.altered_carbon::js::ACLexPosition"** %28, align 8, !dbg !5513
  %69 = getelementptr inbounds %"class.std::__1::unique_ptr", %"class.std::__1::unique_ptr"* %62, i32 0, i32 0, !dbg !5623
  store %"class.std::__1::__compressed_pair"* %69, %"class.std::__1::__compressed_pair"** %24, align 8
  %70 = load %"class.std::__1::__compressed_pair"*, %"class.std::__1::__compressed_pair"** %24, align 8
  %71 = bitcast %"class.std::__1::__compressed_pair"* %70 to %"struct.std::__1::__compressed_pair_elem"*, !dbg !5624
  store %"struct.std::__1::__compressed_pair_elem"* %71, %"struct.std::__1::__compressed_pair_elem"** %23, align 8
  %72 = load %"struct.std::__1::__compressed_pair_elem"*, %"struct.std::__1::__compressed_pair_elem"** %23, align 8
  %73 = getelementptr inbounds %"struct.std::__1::__compressed_pair_elem", %"struct.std::__1::__compressed_pair_elem"* %72, i32 0, i32 0, !dbg !5625
  store %"struct.altered_carbon::js::ACLexPosition"* null, %"struct.altered_carbon::js::ACLexPosition"** %73, align 8, !dbg !5626
  %74 = load %"struct.altered_carbon::js::ACLexPosition"*, %"struct.altered_carbon::js::ACLexPosition"** %28, align 8, !dbg !5627
  store %"struct.altered_carbon::js::ACLexPosition"* %74, %"struct.altered_carbon::js::ACLexPosition"** %31, align 8, !dbg !5618
  %75 = load %"class.std::__1::unique_ptr"*, %"class.std::__1::unique_ptr"** %30, align 8, !dbg !5628
  store %"class.std::__1::unique_ptr"* %75, %"class.std::__1::unique_ptr"** %7, align 8
  %76 = load %"class.std::__1::unique_ptr"*, %"class.std::__1::unique_ptr"** %7, align 8
  %77 = getelementptr inbounds %"class.std::__1::unique_ptr", %"class.std::__1::unique_ptr"* %76, i32 0, i32 0, !dbg !5629
  store %"class.std::__1::__compressed_pair"* %77, %"class.std::__1::__compressed_pair"** %6, align 8
  %78 = load %"class.std::__1::__compressed_pair"*, %"class.std::__1::__compressed_pair"** %6, align 8
  %79 = bitcast %"class.std::__1::__compressed_pair"* %78 to %"struct.std::__1::__compressed_pair_elem.0"*, !dbg !5630
  store %"struct.std::__1::__compressed_pair_elem.0"* %79, %"struct.std::__1::__compressed_pair_elem.0"** %5, align 8
  %80 = load %"struct.std::__1::__compressed_pair_elem.0"*, %"struct.std::__1::__compressed_pair_elem.0"** %5, align 8
  %81 = bitcast %"struct.std::__1::__compressed_pair_elem.0"* %80 to %"struct.std::__1::default_delete"*, !dbg !5631
  store %"struct.std::__1::default_delete"* %81, %"struct.std::__1::default_delete"** %8, align 8
  %82 = load %"struct.std::__1::default_delete"*, %"struct.std::__1::default_delete"** %8, align 8, !dbg !5632
  store %"class.std::__1::__compressed_pair"* %60, %"class.std::__1::__compressed_pair"** %20, align 8
  store %"struct.altered_carbon::js::ACLexPosition"** %31, %"struct.altered_carbon::js::ACLexPosition"*** %21, align 8
  store %"struct.std::__1::default_delete"* %82, %"struct.std::__1::default_delete"** %22, align 8
  %83 = load %"class.std::__1::__compressed_pair"*, %"class.std::__1::__compressed_pair"** %20, align 8
  %84 = load %"struct.altered_carbon::js::ACLexPosition"**, %"struct.altered_carbon::js::ACLexPosition"*** %21, align 8, !dbg !5633
  %85 = load %"struct.std::__1::default_delete"*, %"struct.std::__1::default_delete"** %22, align 8, !dbg !5633
  store %"class.std::__1::__compressed_pair"* %83, %"class.std::__1::__compressed_pair"** %17, align 8
  store %"struct.altered_carbon::js::ACLexPosition"** %84, %"struct.altered_carbon::js::ACLexPosition"*** %18, align 8
  store %"struct.std::__1::default_delete"* %85, %"struct.std::__1::default_delete"** %19, align 8
  %86 = load %"class.std::__1::__compressed_pair"*, %"class.std::__1::__compressed_pair"** %17, align 8
  %87 = bitcast %"class.std::__1::__compressed_pair"* %86 to %"struct.std::__1::__compressed_pair_elem"*, !dbg !5634
  %88 = load %"struct.altered_carbon::js::ACLexPosition"**, %"struct.altered_carbon::js::ACLexPosition"*** %18, align 8, !dbg !5635
  store %"struct.altered_carbon::js::ACLexPosition"** %88, %"struct.altered_carbon::js::ACLexPosition"*** %16, align 8
  %89 = load %"struct.altered_carbon::js::ACLexPosition"**, %"struct.altered_carbon::js::ACLexPosition"*** %16, align 8, !dbg !5636
  store %"struct.std::__1::__compressed_pair_elem"* %87, %"struct.std::__1::__compressed_pair_elem"** %10, align 8
  store %"struct.altered_carbon::js::ACLexPosition"** %89, %"struct.altered_carbon::js::ACLexPosition"*** %11, align 8
  %90 = load %"struct.std::__1::__compressed_pair_elem"*, %"struct.std::__1::__compressed_pair_elem"** %10, align 8
  %91 = getelementptr inbounds %"struct.std::__1::__compressed_pair_elem", %"struct.std::__1::__compressed_pair_elem"* %90, i32 0, i32 0, !dbg !5637
  %92 = load %"struct.altered_carbon::js::ACLexPosition"**, %"struct.altered_carbon::js::ACLexPosition"*** %11, align 8, !dbg !5638
  store %"struct.altered_carbon::js::ACLexPosition"** %92, %"struct.altered_carbon::js::ACLexPosition"*** %9, align 8
  %93 = load %"struct.altered_carbon::js::ACLexPosition"**, %"struct.altered_carbon::js::ACLexPosition"*** %9, align 8, !dbg !5639
  %94 = load %"struct.altered_carbon::js::ACLexPosition"*, %"struct.altered_carbon::js::ACLexPosition"** %93, align 8, !dbg !5640
  store %"struct.altered_carbon::js::ACLexPosition"* %94, %"struct.altered_carbon::js::ACLexPosition"** %91, align 8, !dbg !5637
  %95 = bitcast %"class.std::__1::__compressed_pair"* %86 to %"struct.std::__1::__compressed_pair_elem.0"*, !dbg !5634
  %96 = load %"struct.std::__1::default_delete"*, %"struct.std::__1::default_delete"** %19, align 8, !dbg !5641
  store %"struct.std::__1::default_delete"* %96, %"struct.std::__1::default_delete"** %12, align 8
  %97 = load %"struct.std::__1::default_delete"*, %"struct.std::__1::default_delete"** %12, align 8, !dbg !5642
  store %"struct.std::__1::__compressed_pair_elem.0"* %95, %"struct.std::__1::__compressed_pair_elem.0"** %14, align 8
  store %"struct.std::__1::default_delete"* %97, %"struct.std::__1::default_delete"** %15, align 8
  %98 = load %"struct.std::__1::__compressed_pair_elem.0"*, %"struct.std::__1::__compressed_pair_elem.0"** %14, align 8
  %99 = bitcast %"struct.std::__1::__compressed_pair_elem.0"* %98 to %"struct.std::__1::default_delete"*, !dbg !5643
  %100 = load %"struct.std::__1::default_delete"*, %"struct.std::__1::default_delete"** %15, align 8, !dbg !5644
  store %"struct.std::__1::default_delete"* %100, %"struct.std::__1::default_delete"** %13, align 8
  %101 = load %"struct.std::__1::default_delete"*, %"struct.std::__1::default_delete"** %13, align 8, !dbg !5645
  %102 = getelementptr inbounds %"class.altered_carbon::js::ACAstBaseNode", %"class.altered_carbon::js::ACAstBaseNode"* %53, i32 0, i32 2, !dbg !5646
  %103 = load i32, i32* %51, align 4, !dbg !5647
  store i32 %103, i32* %102, align 8, !dbg !5646
  %104 = getelementptr inbounds %"class.altered_carbon::js::ACAstBaseNode", %"class.altered_carbon::js::ACAstBaseNode"* %53, i32 0, i32 3, !dbg !5648
  %105 = load i32, i32* %52, align 4, !dbg !5649
  store i32 %105, i32* %104, align 4, !dbg !5648
  %106 = getelementptr inbounds %"class.altered_carbon::js::ACAstBaseNode", %"class.altered_carbon::js::ACAstBaseNode"* %53, i32 0, i32 4, !dbg !5650
  store %"class.std::__1::vector"* %106, %"class.std::__1::vector"** %48, align 8
  %107 = load %"class.std::__1::vector"*, %"class.std::__1::vector"** %48, align 8
  store %"class.std::__1::vector"* %107, %"class.std::__1::vector"** %47, align 8
  %108 = load %"class.std::__1::vector"*, %"class.std::__1::vector"** %47, align 8
  %109 = bitcast %"class.std::__1::vector"* %108 to %"class.std::__1::__vector_base"*, !dbg !5651
  store %"class.std::__1::__vector_base"* %109, %"class.std::__1::__vector_base"** %45, align 8
  %110 = load %"class.std::__1::__vector_base"*, %"class.std::__1::__vector_base"** %45, align 8
  %111 = bitcast %"class.std::__1::__vector_base"* %110 to %"class.std::__1::__vector_base_common"*, !dbg !5652
  store %"class.std::__1::__vector_base_common"* %111, %"class.std::__1::__vector_base_common"** %44, align 8
  %112 = load %"class.std::__1::__vector_base_common"*, %"class.std::__1::__vector_base_common"** %44, align 8
  %113 = getelementptr inbounds %"class.std::__1::__vector_base", %"class.std::__1::__vector_base"* %110, i32 0, i32 0, !dbg !5653
  store %"class.std::__1::unique_ptr.1"* null, %"class.std::__1::unique_ptr.1"** %113, align 8, !dbg !5653
  %114 = getelementptr inbounds %"class.std::__1::__vector_base", %"class.std::__1::__vector_base"* %110, i32 0, i32 1, !dbg !5654
  store %"class.std::__1::unique_ptr.1"* null, %"class.std::__1::unique_ptr.1"** %114, align 8, !dbg !5654
  %115 = getelementptr inbounds %"class.std::__1::__vector_base", %"class.std::__1::__vector_base"* %110, i32 0, i32 2, !dbg !5655
  store i8* null, i8** %46, align 8, !dbg !5656
  store %"class.std::__1::__compressed_pair.7"* %115, %"class.std::__1::__compressed_pair.7"** %42, align 8
  store i8** %46, i8*** %43, align 8
  %116 = load %"class.std::__1::__compressed_pair.7"*, %"class.std::__1::__compressed_pair.7"** %42, align 8
  %117 = load i8**, i8*** %43, align 8, !dbg !5657
  store %"class.std::__1::__compressed_pair.7"* %116, %"class.std::__1::__compressed_pair.7"** %40, align 8
  store i8** %117, i8*** %41, align 8
  %118 = load %"class.std::__1::__compressed_pair.7"*, %"class.std::__1::__compressed_pair.7"** %40, align 8
  %119 = bitcast %"class.std::__1::__compressed_pair.7"* %118 to %"struct.std::__1::__compressed_pair_elem.8"*, !dbg !5658
  %120 = load i8**, i8*** %41, align 8, !dbg !5659
  store i8** %120, i8*** %39, align 8
  %121 = load i8**, i8*** %39, align 8, !dbg !5660
  store %"struct.std::__1::__compressed_pair_elem.8"* %119, %"struct.std::__1::__compressed_pair_elem.8"** %35, align 8
  store i8** %121, i8*** %36, align 8
  %122 = load %"struct.std::__1::__compressed_pair_elem.8"*, %"struct.std::__1::__compressed_pair_elem.8"** %35, align 8
  %123 = getelementptr inbounds %"struct.std::__1::__compressed_pair_elem.8", %"struct.std::__1::__compressed_pair_elem.8"* %122, i32 0, i32 0, !dbg !5661
  %124 = load i8**, i8*** %36, align 8, !dbg !5662
  store i8** %124, i8*** %34, align 8
  %125 = load i8**, i8*** %34, align 8, !dbg !5663
  %126 = load i8*, i8** %125, align 8, !dbg !5664
  store %"class.std::__1::unique_ptr.1"* null, %"class.std::__1::unique_ptr.1"** %123, align 8, !dbg !5661
  %127 = bitcast %"class.std::__1::__compressed_pair.7"* %118 to %"struct.std::__1::__compressed_pair_elem.9"*, !dbg !5658
  store %"struct.std::__1::__compressed_pair_elem.9"* %127, %"struct.std::__1::__compressed_pair_elem.9"** %38, align 8
  %128 = load %"struct.std::__1::__compressed_pair_elem.9"*, %"struct.std::__1::__compressed_pair_elem.9"** %38, align 8
  %129 = bitcast %"struct.std::__1::__compressed_pair_elem.9"* %128 to %"class.std::__1::allocator"*, !dbg !5665
  store %"class.std::__1::allocator"* %129, %"class.std::__1::allocator"** %37, align 8
  %130 = load %"class.std::__1::allocator"*, %"class.std::__1::allocator"** %37, align 8
  ret void, !dbg !5666
}

; Function Attrs: nounwind readnone speculatable
declare void @llvm.dbg.declare(metadata, metadata, metadata) #3

; Function Attrs: noinline nounwind optnone ssp uwtable
define void @_ZN14altered_carbon2js13ACAstBaseNodeC1ENSt3__110unique_ptrINS0_13ACLexPositionENS2_14default_deleteIS4_EEEENS1_11AstNodeTypeENS1_14AstNodeSubTypeE(%"class.altered_carbon::js::ACAstBaseNode"*, %"class.std::__1::unique_ptr"*, i32, i32) unnamed_addr #1 align 2 !dbg !5667 {
  %5 = alloca %"class.altered_carbon::js::ACAstBaseNode"*, align 8
  %6 = alloca i32, align 4
  %7 = alloca i32, align 4
  store %"class.altered_carbon::js::ACAstBaseNode"* %0, %"class.altered_carbon::js::ACAstBaseNode"** %5, align 8
  call void @llvm.dbg.declare(metadata %"class.altered_carbon::js::ACAstBaseNode"** %5, metadata !5668, metadata !DIExpression()), !dbg !5669
  call void @llvm.dbg.declare(metadata %"class.std::__1::unique_ptr"* %1, metadata !5670, metadata !DIExpression()), !dbg !5671
  store i32 %2, i32* %6, align 4
  call void @llvm.dbg.declare(metadata i32* %6, metadata !5672, metadata !DIExpression()), !dbg !5673
  store i32 %3, i32* %7, align 4
  call void @llvm.dbg.declare(metadata i32* %7, metadata !5674, metadata !DIExpression()), !dbg !5675
  %8 = load %"class.altered_carbon::js::ACAstBaseNode"*, %"class.altered_carbon::js::ACAstBaseNode"** %5, align 8
  %9 = load i32, i32* %6, align 4, !dbg !5676
  %10 = load i32, i32* %7, align 4, !dbg !5676
  call void @_ZN14altered_carbon2js13ACAstBaseNodeC2ENSt3__110unique_ptrINS0_13ACLexPositionENS2_14default_deleteIS4_EEEENS1_11AstNodeTypeENS1_14AstNodeSubTypeE(%"class.altered_carbon::js::ACAstBaseNode"* %8, %"class.std::__1::unique_ptr"* %1, i32 %9, i32 %10), !dbg !5676
  ret void, !dbg !5677
}

; Function Attrs: noinline nounwind optnone ssp uwtable
define void @_ZN14altered_carbon2js13ACAstBaseNode11dumpWStringERNSt3__113basic_ostreamIcNS2_11char_traitsIcEEEERKNS2_12basic_stringIwNS4_IwEENS2_9allocatorIwEEEE(%"class.std::__1::basic_ostream"* dereferenceable(160), %"class.std::__1::basic_string"* dereferenceable(24)) #1 align 2 !dbg !5678 {
  %3 = alloca %"struct.std::__1::__compressed_pair_elem.11"*, align 8
  call void @llvm.dbg.declare(metadata %"struct.std::__1::__compressed_pair_elem.11"** %3, metadata !5679, metadata !DIExpression()), !dbg !5682
  %4 = alloca %"class.std::__1::__compressed_pair.10"*, align 8
  call void @llvm.dbg.declare(metadata %"class.std::__1::__compressed_pair.10"** %4, metadata !5694, metadata !DIExpression()), !dbg !5696
  %5 = alloca %"class.std::__1::basic_string"*, align 8
  call void @llvm.dbg.declare(metadata %"class.std::__1::basic_string"** %5, metadata !5697, metadata !DIExpression()), !dbg !5699
  %6 = alloca %"struct.std::__1::__compressed_pair_elem.11"*, align 8
  call void @llvm.dbg.declare(metadata %"struct.std::__1::__compressed_pair_elem.11"** %6, metadata !5679, metadata !DIExpression()), !dbg !5700
  %7 = alloca %"class.std::__1::__compressed_pair.10"*, align 8
  call void @llvm.dbg.declare(metadata %"class.std::__1::__compressed_pair.10"** %7, metadata !5694, metadata !DIExpression()), !dbg !5705
  %8 = alloca %"class.std::__1::basic_string"*, align 8
  call void @llvm.dbg.declare(metadata %"class.std::__1::basic_string"** %8, metadata !5706, metadata !DIExpression()), !dbg !5707
  %9 = alloca %"struct.std::__1::__compressed_pair_elem.11"*, align 8
  call void @llvm.dbg.declare(metadata %"struct.std::__1::__compressed_pair_elem.11"** %9, metadata !5679, metadata !DIExpression()), !dbg !5708
  %10 = alloca %"class.std::__1::__compressed_pair.10"*, align 8
  call void @llvm.dbg.declare(metadata %"class.std::__1::__compressed_pair.10"** %10, metadata !5694, metadata !DIExpression()), !dbg !5713
  %11 = alloca %"class.std::__1::basic_string"*, align 8
  call void @llvm.dbg.declare(metadata %"class.std::__1::basic_string"** %11, metadata !5714, metadata !DIExpression()), !dbg !5715
  %12 = alloca %"class.std::__1::basic_string"*, align 8
  call void @llvm.dbg.declare(metadata %"class.std::__1::basic_string"** %12, metadata !5716, metadata !DIExpression()), !dbg !5717
  %13 = alloca %"class.std::__1::basic_string"*, align 8
  call void @llvm.dbg.declare(metadata %"class.std::__1::basic_string"** %13, metadata !5718, metadata !DIExpression()), !dbg !5719
  %14 = alloca %"class.std::__1::basic_ostream"*, align 8
  %15 = alloca %"class.std::__1::basic_string"*, align 8
  %16 = alloca i64, align 8
  store %"class.std::__1::basic_ostream"* %0, %"class.std::__1::basic_ostream"** %14, align 8
  call void @llvm.dbg.declare(metadata %"class.std::__1::basic_ostream"** %14, metadata !5720, metadata !DIExpression()), !dbg !5721
  store %"class.std::__1::basic_string"* %1, %"class.std::__1::basic_string"** %15, align 8
  call void @llvm.dbg.declare(metadata %"class.std::__1::basic_string"** %15, metadata !5722, metadata !DIExpression()), !dbg !5723
  call void @llvm.dbg.declare(metadata i64* %16, metadata !5724, metadata !DIExpression()), !dbg !5725
  store i64 0, i64* %16, align 8, !dbg !5725
  br label %17, !dbg !5726

; <label>:17:                                     ; preds = %74, %2
  %18 = load i64, i64* %16, align 8, !dbg !5727
  %19 = load %"class.std::__1::basic_string"*, %"class.std::__1::basic_string"** %15, align 8, !dbg !5728
  store %"class.std::__1::basic_string"* %19, %"class.std::__1::basic_string"** %13, align 8
  %20 = load %"class.std::__1::basic_string"*, %"class.std::__1::basic_string"** %13, align 8
  store %"class.std::__1::basic_string"* %20, %"class.std::__1::basic_string"** %12, align 8
  %21 = load %"class.std::__1::basic_string"*, %"class.std::__1::basic_string"** %12, align 8
  store %"class.std::__1::basic_string"* %21, %"class.std::__1::basic_string"** %11, align 8
  %22 = load %"class.std::__1::basic_string"*, %"class.std::__1::basic_string"** %11, align 8
  %23 = getelementptr inbounds %"class.std::__1::basic_string", %"class.std::__1::basic_string"* %22, i32 0, i32 0, !dbg !5729
  store %"class.std::__1::__compressed_pair.10"* %23, %"class.std::__1::__compressed_pair.10"** %10, align 8
  %24 = load %"class.std::__1::__compressed_pair.10"*, %"class.std::__1::__compressed_pair.10"** %10, align 8
  %25 = bitcast %"class.std::__1::__compressed_pair.10"* %24 to %"struct.std::__1::__compressed_pair_elem.11"*, !dbg !5730
  store %"struct.std::__1::__compressed_pair_elem.11"* %25, %"struct.std::__1::__compressed_pair_elem.11"** %9, align 8
  %26 = load %"struct.std::__1::__compressed_pair_elem.11"*, %"struct.std::__1::__compressed_pair_elem.11"** %9, align 8
  %27 = getelementptr inbounds %"struct.std::__1::__compressed_pair_elem.11", %"struct.std::__1::__compressed_pair_elem.11"* %26, i32 0, i32 0, !dbg !5731
  %28 = getelementptr inbounds %"struct.std::__1::basic_string<wchar_t, std::__1::char_traits<wchar_t>, std::__1::allocator<wchar_t> >::__rep", %"struct.std::__1::basic_string<wchar_t, std::__1::char_traits<wchar_t>, std::__1::allocator<wchar_t> >::__rep"* %27, i32 0, i32 0, !dbg !5732
  %29 = bitcast %union.anon* %28 to %"struct.std::__1::basic_string<wchar_t, std::__1::char_traits<wchar_t>, std::__1::allocator<wchar_t> >::__short"*, !dbg !5732
  %30 = getelementptr inbounds %"struct.std::__1::basic_string<wchar_t, std::__1::char_traits<wchar_t>, std::__1::allocator<wchar_t> >::__short", %"struct.std::__1::basic_string<wchar_t, std::__1::char_traits<wchar_t>, std::__1::allocator<wchar_t> >::__short"* %29, i32 0, i32 0, !dbg !5733
  %31 = bitcast %union.anon.12* %30 to i8*, !dbg !5733
  %32 = load i8, i8* %31, align 8, !dbg !5733
  %33 = zext i8 %32 to i64, !dbg !5729
  %34 = and i64 %33, 1, !dbg !5734
  %35 = icmp ne i64 %34, 0, !dbg !5729
  br i1 %35, label %36, label %47, !dbg !5735

; <label>:36:                                     ; preds = %17
  store %"class.std::__1::basic_string"* %21, %"class.std::__1::basic_string"** %5, align 8
  %37 = load %"class.std::__1::basic_string"*, %"class.std::__1::basic_string"** %5, align 8
  %38 = getelementptr inbounds %"class.std::__1::basic_string", %"class.std::__1::basic_string"* %37, i32 0, i32 0, !dbg !5736
  store %"class.std::__1::__compressed_pair.10"* %38, %"class.std::__1::__compressed_pair.10"** %4, align 8
  %39 = load %"class.std::__1::__compressed_pair.10"*, %"class.std::__1::__compressed_pair.10"** %4, align 8
  %40 = bitcast %"class.std::__1::__compressed_pair.10"* %39 to %"struct.std::__1::__compressed_pair_elem.11"*, !dbg !5737
  store %"struct.std::__1::__compressed_pair_elem.11"* %40, %"struct.std::__1::__compressed_pair_elem.11"** %3, align 8
  %41 = load %"struct.std::__1::__compressed_pair_elem.11"*, %"struct.std::__1::__compressed_pair_elem.11"** %3, align 8
  %42 = getelementptr inbounds %"struct.std::__1::__compressed_pair_elem.11", %"struct.std::__1::__compressed_pair_elem.11"* %41, i32 0, i32 0, !dbg !5738
  %43 = getelementptr inbounds %"struct.std::__1::basic_string<wchar_t, std::__1::char_traits<wchar_t>, std::__1::allocator<wchar_t> >::__rep", %"struct.std::__1::basic_string<wchar_t, std::__1::char_traits<wchar_t>, std::__1::allocator<wchar_t> >::__rep"* %42, i32 0, i32 0, !dbg !5739
  %44 = bitcast %union.anon* %43 to %"struct.std::__1::basic_string<wchar_t, std::__1::char_traits<wchar_t>, std::__1::allocator<wchar_t> >::__long"*, !dbg !5739
  %45 = getelementptr inbounds %"struct.std::__1::basic_string<wchar_t, std::__1::char_traits<wchar_t>, std::__1::allocator<wchar_t> >::__long", %"struct.std::__1::basic_string<wchar_t, std::__1::char_traits<wchar_t>, std::__1::allocator<wchar_t> >::__long"* %44, i32 0, i32 1, !dbg !5740
  %46 = load i64, i64* %45, align 8, !dbg !5740
  br label %62, !dbg !5735

; <label>:47:                                     ; preds = %17
  store %"class.std::__1::basic_string"* %21, %"class.std::__1::basic_string"** %8, align 8
  %48 = load %"class.std::__1::basic_string"*, %"class.std::__1::basic_string"** %8, align 8
  %49 = getelementptr inbounds %"class.std::__1::basic_string", %"class.std::__1::basic_string"* %48, i32 0, i32 0, !dbg !5741
  store %"class.std::__1::__compressed_pair.10"* %49, %"class.std::__1::__compressed_pair.10"** %7, align 8
  %50 = load %"class.std::__1::__compressed_pair.10"*, %"class.std::__1::__compressed_pair.10"** %7, align 8
  %51 = bitcast %"class.std::__1::__compressed_pair.10"* %50 to %"struct.std::__1::__compressed_pair_elem.11"*, !dbg !5742
  store %"struct.std::__1::__compressed_pair_elem.11"* %51, %"struct.std::__1::__compressed_pair_elem.11"** %6, align 8
  %52 = load %"struct.std::__1::__compressed_pair_elem.11"*, %"struct.std::__1::__compressed_pair_elem.11"** %6, align 8
  %53 = getelementptr inbounds %"struct.std::__1::__compressed_pair_elem.11", %"struct.std::__1::__compressed_pair_elem.11"* %52, i32 0, i32 0, !dbg !5743
  %54 = getelementptr inbounds %"struct.std::__1::basic_string<wchar_t, std::__1::char_traits<wchar_t>, std::__1::allocator<wchar_t> >::__rep", %"struct.std::__1::basic_string<wchar_t, std::__1::char_traits<wchar_t>, std::__1::allocator<wchar_t> >::__rep"* %53, i32 0, i32 0, !dbg !5744
  %55 = bitcast %union.anon* %54 to %"struct.std::__1::basic_string<wchar_t, std::__1::char_traits<wchar_t>, std::__1::allocator<wchar_t> >::__short"*, !dbg !5744
  %56 = getelementptr inbounds %"struct.std::__1::basic_string<wchar_t, std::__1::char_traits<wchar_t>, std::__1::allocator<wchar_t> >::__short", %"struct.std::__1::basic_string<wchar_t, std::__1::char_traits<wchar_t>, std::__1::allocator<wchar_t> >::__short"* %55, i32 0, i32 0, !dbg !5745
  %57 = bitcast %union.anon.12* %56 to i8*, !dbg !5745
  %58 = load i8, i8* %57, align 8, !dbg !5745
  %59 = zext i8 %58 to i32, !dbg !5741
  %60 = ashr i32 %59, 1, !dbg !5746
  %61 = sext i32 %60 to i64, !dbg !5741
  br label %62, !dbg !5735

; <label>:62:                                     ; preds = %36, %47
  %63 = phi i64 [ %46, %36 ], [ %61, %47 ], !dbg !5735
  %64 = icmp ult i64 %18, %63, !dbg !5747
  br i1 %64, label %65, label %77, !dbg !5748

; <label>:65:                                     ; preds = %62
  %66 = load %"class.std::__1::basic_ostream"*, %"class.std::__1::basic_ostream"** %14, align 8, !dbg !5749
  %67 = call dereferenceable(160) %"class.std::__1::basic_ostream"* @_ZNSt3__1lsINS_11char_traitsIcEEEERNS_13basic_ostreamIcT_EES6_PKc(%"class.std::__1::basic_ostream"* dereferenceable(160) %66, i8* getelementptr inbounds ([2 x i8], [2 x i8]* @.str.14, i32 0, i32 0)), !dbg !5751
  %68 = load %"class.std::__1::basic_string"*, %"class.std::__1::basic_string"** %15, align 8, !dbg !5752
  %69 = load i64, i64* %16, align 8, !dbg !5753
  %70 = call dereferenceable(4) i32* @_ZNKSt3__112basic_stringIwNS_11char_traitsIwEENS_9allocatorIwEEE2atEm(%"class.std::__1::basic_string"* %68, i64 %69), !dbg !5754
  %71 = load i32, i32* %70, align 4, !dbg !5754
  %72 = call dereferenceable(160) %"class.std::__1::basic_ostream"* @_ZNSt3__113basic_ostreamIcNS_11char_traitsIcEEElsEi(%"class.std::__1::basic_ostream"* %67, i32 %71), !dbg !5755
  %73 = call dereferenceable(160) %"class.std::__1::basic_ostream"* @_ZNSt3__1lsINS_11char_traitsIcEEEERNS_13basic_ostreamIcT_EES6_PKc(%"class.std::__1::basic_ostream"* dereferenceable(160) %72, i8* getelementptr inbounds ([2 x i8], [2 x i8]* @.str.15, i32 0, i32 0)), !dbg !5756
  br label %74, !dbg !5757

; <label>:74:                                     ; preds = %65
  %75 = load i64, i64* %16, align 8, !dbg !5758
  %76 = add i64 %75, 1, !dbg !5758
  store i64 %76, i64* %16, align 8, !dbg !5758
  br label %17, !dbg !5759, !llvm.loop !5760

; <label>:77:                                     ; preds = %62
  ret void, !dbg !5762
}

; Function Attrs: noinline nounwind optnone ssp uwtable
define linkonce_odr dereferenceable(160) %"class.std::__1::basic_ostream"* @_ZNSt3__1lsINS_11char_traitsIcEEEERNS_13basic_ostreamIcT_EES6_PKc(%"class.std::__1::basic_ostream"* dereferenceable(160), i8*) #1 !dbg !5763 {
  %3 = alloca %"class.std::__1::basic_ostream"*, align 8
  %4 = alloca i8*, align 8
  store %"class.std::__1::basic_ostream"* %0, %"class.std::__1::basic_ostream"** %3, align 8
  call void @llvm.dbg.declare(metadata %"class.std::__1::basic_ostream"** %3, metadata !5767, metadata !DIExpression()), !dbg !5768
  store i8* %1, i8** %4, align 8
  call void @llvm.dbg.declare(metadata i8** %4, metadata !5769, metadata !DIExpression()), !dbg !5770
  %5 = load %"class.std::__1::basic_ostream"*, %"class.std::__1::basic_ostream"** %3, align 8, !dbg !5771
  %6 = load i8*, i8** %4, align 8, !dbg !5772
  %7 = load i8*, i8** %4, align 8, !dbg !5773
  %8 = call i64 @_ZNSt3__111char_traitsIcE6lengthEPKc(i8* %7) #2, !dbg !5774
  %9 = call dereferenceable(160) %"class.std::__1::basic_ostream"* @_ZNSt3__124__put_character_sequenceIcNS_11char_traitsIcEEEERNS_13basic_ostreamIT_T0_EES7_PKS4_m(%"class.std::__1::basic_ostream"* dereferenceable(160) %5, i8* %6, i64 %8), !dbg !5775
  ret %"class.std::__1::basic_ostream"* %9, !dbg !5776
}

declare dereferenceable(160) %"class.std::__1::basic_ostream"* @_ZNSt3__113basic_ostreamIcNS_11char_traitsIcEEElsEi(%"class.std::__1::basic_ostream"*, i32) #4

declare dereferenceable(4) i32* @_ZNKSt3__112basic_stringIwNS_11char_traitsIwEENS_9allocatorIwEEE2atEm(%"class.std::__1::basic_string"*, i64) #4

; Function Attrs: noinline nounwind optnone ssp uwtable
define void @_ZNK14altered_carbon2js13ACAstBaseNode18dumpChildNodeGraphERNSt3__113basic_ostreamIcNS2_11char_traitsIcEEEERKNS2_10unique_ptrIS1_NS2_14default_deleteIS1_EEEEPKc(%"class.altered_carbon::js::ACAstBaseNode"*, %"class.std::__1::basic_ostream"* dereferenceable(160), %"class.std::__1::unique_ptr.1"* dereferenceable(8), i8*) #1 align 2 !dbg !5777 {
  %5 = alloca %"struct.std::__1::__compressed_pair_elem"*, align 8
  call void @llvm.dbg.declare(metadata %"struct.std::__1::__compressed_pair_elem"** %5, metadata !5778, metadata !DIExpression()), !dbg !5781
  %6 = alloca %"class.std::__1::__compressed_pair"*, align 8
  call void @llvm.dbg.declare(metadata %"class.std::__1::__compressed_pair"** %6, metadata !5791, metadata !DIExpression()), !dbg !5793
  %7 = alloca %"class.std::__1::unique_ptr"*, align 8
  call void @llvm.dbg.declare(metadata %"class.std::__1::unique_ptr"** %7, metadata !5794, metadata !DIExpression()), !dbg !5796
  %8 = alloca %"struct.std::__1::__compressed_pair_elem.3"*, align 8
  call void @llvm.dbg.declare(metadata %"struct.std::__1::__compressed_pair_elem.3"** %8, metadata !5797, metadata !DIExpression()), !dbg !5800
  %9 = alloca %"class.std::__1::__compressed_pair.2"*, align 8
  call void @llvm.dbg.declare(metadata %"class.std::__1::__compressed_pair.2"** %9, metadata !5806, metadata !DIExpression()), !dbg !5808
  %10 = alloca %"class.std::__1::unique_ptr.1"*, align 8
  call void @llvm.dbg.declare(metadata %"class.std::__1::unique_ptr.1"** %10, metadata !5809, metadata !DIExpression()), !dbg !5810
  %11 = alloca %"struct.std::__1::__compressed_pair_elem"*, align 8
  call void @llvm.dbg.declare(metadata %"struct.std::__1::__compressed_pair_elem"** %11, metadata !5778, metadata !DIExpression()), !dbg !5811
  %12 = alloca %"class.std::__1::__compressed_pair"*, align 8
  call void @llvm.dbg.declare(metadata %"class.std::__1::__compressed_pair"** %12, metadata !5791, metadata !DIExpression()), !dbg !5816
  %13 = alloca %"class.std::__1::unique_ptr"*, align 8
  call void @llvm.dbg.declare(metadata %"class.std::__1::unique_ptr"** %13, metadata !5817, metadata !DIExpression()), !dbg !5818
  %14 = alloca %"struct.std::__1::__compressed_pair_elem.3"*, align 8
  call void @llvm.dbg.declare(metadata %"struct.std::__1::__compressed_pair_elem.3"** %14, metadata !5797, metadata !DIExpression()), !dbg !5819
  %15 = alloca %"class.std::__1::__compressed_pair.2"*, align 8
  call void @llvm.dbg.declare(metadata %"class.std::__1::__compressed_pair.2"** %15, metadata !5806, metadata !DIExpression()), !dbg !5823
  %16 = alloca %"class.std::__1::unique_ptr.1"*, align 8
  call void @llvm.dbg.declare(metadata %"class.std::__1::unique_ptr.1"** %16, metadata !5809, metadata !DIExpression()), !dbg !5824
  %17 = alloca %"struct.std::__1::__compressed_pair_elem"*, align 8
  call void @llvm.dbg.declare(metadata %"struct.std::__1::__compressed_pair_elem"** %17, metadata !5778, metadata !DIExpression()), !dbg !5825
  %18 = alloca %"class.std::__1::__compressed_pair"*, align 8
  call void @llvm.dbg.declare(metadata %"class.std::__1::__compressed_pair"** %18, metadata !5791, metadata !DIExpression()), !dbg !5830
  %19 = alloca %"class.std::__1::unique_ptr"*, align 8
  call void @llvm.dbg.declare(metadata %"class.std::__1::unique_ptr"** %19, metadata !5817, metadata !DIExpression()), !dbg !5831
  %20 = alloca %"struct.std::__1::__compressed_pair_elem"*, align 8
  call void @llvm.dbg.declare(metadata %"struct.std::__1::__compressed_pair_elem"** %20, metadata !5778, metadata !DIExpression()), !dbg !5832
  %21 = alloca %"class.std::__1::__compressed_pair"*, align 8
  call void @llvm.dbg.declare(metadata %"class.std::__1::__compressed_pair"** %21, metadata !5791, metadata !DIExpression()), !dbg !5836
  %22 = alloca %"class.std::__1::unique_ptr"*, align 8
  call void @llvm.dbg.declare(metadata %"class.std::__1::unique_ptr"** %22, metadata !5794, metadata !DIExpression()), !dbg !5837
  %23 = alloca %"struct.std::__1::__compressed_pair_elem.3"*, align 8
  call void @llvm.dbg.declare(metadata %"struct.std::__1::__compressed_pair_elem.3"** %23, metadata !5797, metadata !DIExpression()), !dbg !5838
  %24 = alloca %"class.std::__1::__compressed_pair.2"*, align 8
  call void @llvm.dbg.declare(metadata %"class.std::__1::__compressed_pair.2"** %24, metadata !5806, metadata !DIExpression()), !dbg !5842
  %25 = alloca %"class.std::__1::unique_ptr.1"*, align 8
  call void @llvm.dbg.declare(metadata %"class.std::__1::unique_ptr.1"** %25, metadata !5809, metadata !DIExpression()), !dbg !5843
  %26 = alloca %"struct.std::__1::__compressed_pair_elem.3"*, align 8
  call void @llvm.dbg.declare(metadata %"struct.std::__1::__compressed_pair_elem.3"** %26, metadata !5797, metadata !DIExpression()), !dbg !5844
  %27 = alloca %"class.std::__1::__compressed_pair.2"*, align 8
  call void @llvm.dbg.declare(metadata %"class.std::__1::__compressed_pair.2"** %27, metadata !5806, metadata !DIExpression()), !dbg !5849
  %28 = alloca %"class.std::__1::unique_ptr.1"*, align 8
  call void @llvm.dbg.declare(metadata %"class.std::__1::unique_ptr.1"** %28, metadata !5850, metadata !DIExpression()), !dbg !5851
  %29 = alloca %"class.altered_carbon::js::ACAstBaseNode"*, align 8
  %30 = alloca %"class.std::__1::basic_ostream"*, align 8
  %31 = alloca %"class.std::__1::unique_ptr.1"*, align 8
  %32 = alloca i8*, align 8
  store %"class.altered_carbon::js::ACAstBaseNode"* %0, %"class.altered_carbon::js::ACAstBaseNode"** %29, align 8
  call void @llvm.dbg.declare(metadata %"class.altered_carbon::js::ACAstBaseNode"** %29, metadata !5852, metadata !DIExpression()), !dbg !5853
  store %"class.std::__1::basic_ostream"* %1, %"class.std::__1::basic_ostream"** %30, align 8
  call void @llvm.dbg.declare(metadata %"class.std::__1::basic_ostream"** %30, metadata !5854, metadata !DIExpression()), !dbg !5855
  store %"class.std::__1::unique_ptr.1"* %2, %"class.std::__1::unique_ptr.1"** %31, align 8
  call void @llvm.dbg.declare(metadata %"class.std::__1::unique_ptr.1"** %31, metadata !5856, metadata !DIExpression()), !dbg !5857
  store i8* %3, i8** %32, align 8
  call void @llvm.dbg.declare(metadata i8** %32, metadata !5858, metadata !DIExpression()), !dbg !5859
  %33 = load %"class.altered_carbon::js::ACAstBaseNode"*, %"class.altered_carbon::js::ACAstBaseNode"** %29, align 8
  %34 = load %"class.std::__1::unique_ptr.1"*, %"class.std::__1::unique_ptr.1"** %31, align 8, !dbg !5860
  store %"class.std::__1::unique_ptr.1"* %34, %"class.std::__1::unique_ptr.1"** %28, align 8
  %35 = load %"class.std::__1::unique_ptr.1"*, %"class.std::__1::unique_ptr.1"** %28, align 8
  %36 = getelementptr inbounds %"class.std::__1::unique_ptr.1", %"class.std::__1::unique_ptr.1"* %35, i32 0, i32 0, !dbg !5861
  store %"class.std::__1::__compressed_pair.2"* %36, %"class.std::__1::__compressed_pair.2"** %27, align 8
  %37 = load %"class.std::__1::__compressed_pair.2"*, %"class.std::__1::__compressed_pair.2"** %27, align 8
  %38 = bitcast %"class.std::__1::__compressed_pair.2"* %37 to %"struct.std::__1::__compressed_pair_elem.3"*, !dbg !5862
  store %"struct.std::__1::__compressed_pair_elem.3"* %38, %"struct.std::__1::__compressed_pair_elem.3"** %26, align 8
  %39 = load %"struct.std::__1::__compressed_pair_elem.3"*, %"struct.std::__1::__compressed_pair_elem.3"** %26, align 8
  %40 = getelementptr inbounds %"struct.std::__1::__compressed_pair_elem.3", %"struct.std::__1::__compressed_pair_elem.3"* %39, i32 0, i32 0, !dbg !5863
  %41 = load %"class.altered_carbon::js::ACAstBaseNode"*, %"class.altered_carbon::js::ACAstBaseNode"** %40, align 8, !dbg !5864
  %42 = icmp ne %"class.altered_carbon::js::ACAstBaseNode"* %41, null, !dbg !5865
  br i1 %42, label %43, label %142, !dbg !5866

; <label>:43:                                     ; preds = %4
  %44 = load %"class.std::__1::unique_ptr.1"*, %"class.std::__1::unique_ptr.1"** %31, align 8, !dbg !5867
  store %"class.std::__1::unique_ptr.1"* %44, %"class.std::__1::unique_ptr.1"** %25, align 8
  %45 = load %"class.std::__1::unique_ptr.1"*, %"class.std::__1::unique_ptr.1"** %25, align 8
  %46 = getelementptr inbounds %"class.std::__1::unique_ptr.1", %"class.std::__1::unique_ptr.1"* %45, i32 0, i32 0, !dbg !5868
  store %"class.std::__1::__compressed_pair.2"* %46, %"class.std::__1::__compressed_pair.2"** %24, align 8
  %47 = load %"class.std::__1::__compressed_pair.2"*, %"class.std::__1::__compressed_pair.2"** %24, align 8
  %48 = bitcast %"class.std::__1::__compressed_pair.2"* %47 to %"struct.std::__1::__compressed_pair_elem.3"*, !dbg !5869
  store %"struct.std::__1::__compressed_pair_elem.3"* %48, %"struct.std::__1::__compressed_pair_elem.3"** %23, align 8
  %49 = load %"struct.std::__1::__compressed_pair_elem.3"*, %"struct.std::__1::__compressed_pair_elem.3"** %23, align 8
  %50 = getelementptr inbounds %"struct.std::__1::__compressed_pair_elem.3", %"struct.std::__1::__compressed_pair_elem.3"* %49, i32 0, i32 0, !dbg !5870
  %51 = load %"class.altered_carbon::js::ACAstBaseNode"*, %"class.altered_carbon::js::ACAstBaseNode"** %50, align 8, !dbg !5871
  %52 = bitcast %"class.altered_carbon::js::ACAstBaseNode"* %51 to void (%"class.altered_carbon::js::ACAstBaseNode"*, %"class.std::__1::basic_ostream"*)***, !dbg !5872
  %53 = load void (%"class.altered_carbon::js::ACAstBaseNode"*, %"class.std::__1::basic_ostream"*)**, void (%"class.altered_carbon::js::ACAstBaseNode"*, %"class.std::__1::basic_ostream"*)*** %52, align 8, !dbg !5872
  %54 = getelementptr inbounds void (%"class.altered_carbon::js::ACAstBaseNode"*, %"class.std::__1::basic_ostream"*)*, void (%"class.altered_carbon::js::ACAstBaseNode"*, %"class.std::__1::basic_ostream"*)** %53, i64 10, !dbg !5872
  %55 = load void (%"class.altered_carbon::js::ACAstBaseNode"*, %"class.std::__1::basic_ostream"*)*, void (%"class.altered_carbon::js::ACAstBaseNode"*, %"class.std::__1::basic_ostream"*)** %54, align 8, !dbg !5872
  %56 = load %"class.std::__1::basic_ostream"*, %"class.std::__1::basic_ostream"** %30, align 8, !dbg !5873
  call void %55(%"class.altered_carbon::js::ACAstBaseNode"* %51, %"class.std::__1::basic_ostream"* dereferenceable(160) %56), !dbg !5872
  br label %57, !dbg !5874, !llvm.loop !5875

; <label>:57:                                     ; preds = %43
  br label %58, !dbg !5876, !llvm.loop !5877

; <label>:58:                                     ; preds = %57
  %59 = load %"class.std::__1::basic_ostream"*, %"class.std::__1::basic_ostream"** %30, align 8, !dbg !5878
  %60 = call dereferenceable(160) %"class.std::__1::basic_ostream"* @_ZNSt3__1lsINS_11char_traitsIcEEEERNS_13basic_ostreamIcT_EES6_PKc(%"class.std::__1::basic_ostream"* dereferenceable(160) %59, i8* getelementptr inbounds ([5 x i8], [5 x i8]* @.str.16, i32 0, i32 0)), !dbg !5878
  %61 = getelementptr inbounds %"class.altered_carbon::js::ACAstBaseNode", %"class.altered_carbon::js::ACAstBaseNode"* %33, i32 0, i32 1, !dbg !5878
  store %"class.std::__1::unique_ptr"* %61, %"class.std::__1::unique_ptr"** %22, align 8
  %62 = load %"class.std::__1::unique_ptr"*, %"class.std::__1::unique_ptr"** %22, align 8
  %63 = getelementptr inbounds %"class.std::__1::unique_ptr", %"class.std::__1::unique_ptr"* %62, i32 0, i32 0, !dbg !5879
  store %"class.std::__1::__compressed_pair"* %63, %"class.std::__1::__compressed_pair"** %21, align 8
  %64 = load %"class.std::__1::__compressed_pair"*, %"class.std::__1::__compressed_pair"** %21, align 8
  %65 = bitcast %"class.std::__1::__compressed_pair"* %64 to %"struct.std::__1::__compressed_pair_elem"*, !dbg !5880
  store %"struct.std::__1::__compressed_pair_elem"* %65, %"struct.std::__1::__compressed_pair_elem"** %20, align 8
  %66 = load %"struct.std::__1::__compressed_pair_elem"*, %"struct.std::__1::__compressed_pair_elem"** %20, align 8
  %67 = getelementptr inbounds %"struct.std::__1::__compressed_pair_elem", %"struct.std::__1::__compressed_pair_elem"* %66, i32 0, i32 0, !dbg !5881
  %68 = load %"struct.altered_carbon::js::ACLexPosition"*, %"struct.altered_carbon::js::ACLexPosition"** %67, align 8, !dbg !5882
  %69 = getelementptr inbounds %"struct.altered_carbon::js::ACLexPosition", %"struct.altered_carbon::js::ACLexPosition"* %68, i32 0, i32 1, !dbg !5878
  %70 = load i64, i64* %69, align 8, !dbg !5878
  %71 = call dereferenceable(160) %"class.std::__1::basic_ostream"* @_ZNSt3__113basic_ostreamIcNS_11char_traitsIcEEElsEm(%"class.std::__1::basic_ostream"* %60, i64 %70), !dbg !5878
  %72 = call dereferenceable(160) %"class.std::__1::basic_ostream"* @_ZNSt3__1lsINS_11char_traitsIcEEEERNS_13basic_ostreamIcT_EES6_PKc(%"class.std::__1::basic_ostream"* dereferenceable(160) %71, i8* getelementptr inbounds ([2 x i8], [2 x i8]* @.str.17, i32 0, i32 0)), !dbg !5878
  %73 = getelementptr inbounds %"class.altered_carbon::js::ACAstBaseNode", %"class.altered_carbon::js::ACAstBaseNode"* %33, i32 0, i32 1, !dbg !5878
  store %"class.std::__1::unique_ptr"* %73, %"class.std::__1::unique_ptr"** %19, align 8
  %74 = load %"class.std::__1::unique_ptr"*, %"class.std::__1::unique_ptr"** %19, align 8
  %75 = getelementptr inbounds %"class.std::__1::unique_ptr", %"class.std::__1::unique_ptr"* %74, i32 0, i32 0, !dbg !5883
  store %"class.std::__1::__compressed_pair"* %75, %"class.std::__1::__compressed_pair"** %18, align 8
  %76 = load %"class.std::__1::__compressed_pair"*, %"class.std::__1::__compressed_pair"** %18, align 8
  %77 = bitcast %"class.std::__1::__compressed_pair"* %76 to %"struct.std::__1::__compressed_pair_elem"*, !dbg !5884
  store %"struct.std::__1::__compressed_pair_elem"* %77, %"struct.std::__1::__compressed_pair_elem"** %17, align 8
  %78 = load %"struct.std::__1::__compressed_pair_elem"*, %"struct.std::__1::__compressed_pair_elem"** %17, align 8
  %79 = getelementptr inbounds %"struct.std::__1::__compressed_pair_elem", %"struct.std::__1::__compressed_pair_elem"* %78, i32 0, i32 0, !dbg !5885
  %80 = load %"struct.altered_carbon::js::ACLexPosition"*, %"struct.altered_carbon::js::ACLexPosition"** %79, align 8, !dbg !5886
  %81 = ptrtoint %"struct.altered_carbon::js::ACLexPosition"* %80 to i64, !dbg !5878
  %82 = srem i64 %81, 100, !dbg !5878
  %83 = call dereferenceable(160) %"class.std::__1::basic_ostream"* @_ZNSt3__113basic_ostreamIcNS_11char_traitsIcEEElsEx(%"class.std::__1::basic_ostream"* %72, i64 %82), !dbg !5878
  br label %84, !dbg !5878

; <label>:84:                                     ; preds = %58
  %85 = load %"class.std::__1::basic_ostream"*, %"class.std::__1::basic_ostream"** %30, align 8, !dbg !5876
  %86 = call dereferenceable(160) %"class.std::__1::basic_ostream"* @_ZNSt3__1lsINS_11char_traitsIcEEEERNS_13basic_ostreamIcT_EES6_PKc(%"class.std::__1::basic_ostream"* dereferenceable(160) %85, i8* getelementptr inbounds ([5 x i8], [5 x i8]* @.str.18, i32 0, i32 0)), !dbg !5876
  br label %87, !dbg !5876, !llvm.loop !5887

; <label>:87:                                     ; preds = %84
  %88 = load %"class.std::__1::basic_ostream"*, %"class.std::__1::basic_ostream"** %30, align 8, !dbg !5888
  %89 = call dereferenceable(160) %"class.std::__1::basic_ostream"* @_ZNSt3__1lsINS_11char_traitsIcEEEERNS_13basic_ostreamIcT_EES6_PKc(%"class.std::__1::basic_ostream"* dereferenceable(160) %88, i8* getelementptr inbounds ([5 x i8], [5 x i8]* @.str.16, i32 0, i32 0)), !dbg !5888
  %90 = load %"class.std::__1::unique_ptr.1"*, %"class.std::__1::unique_ptr.1"** %31, align 8, !dbg !5888
  store %"class.std::__1::unique_ptr.1"* %90, %"class.std::__1::unique_ptr.1"** %16, align 8
  %91 = load %"class.std::__1::unique_ptr.1"*, %"class.std::__1::unique_ptr.1"** %16, align 8
  %92 = getelementptr inbounds %"class.std::__1::unique_ptr.1", %"class.std::__1::unique_ptr.1"* %91, i32 0, i32 0, !dbg !5889
  store %"class.std::__1::__compressed_pair.2"* %92, %"class.std::__1::__compressed_pair.2"** %15, align 8
  %93 = load %"class.std::__1::__compressed_pair.2"*, %"class.std::__1::__compressed_pair.2"** %15, align 8
  %94 = bitcast %"class.std::__1::__compressed_pair.2"* %93 to %"struct.std::__1::__compressed_pair_elem.3"*, !dbg !5890
  store %"struct.std::__1::__compressed_pair_elem.3"* %94, %"struct.std::__1::__compressed_pair_elem.3"** %14, align 8
  %95 = load %"struct.std::__1::__compressed_pair_elem.3"*, %"struct.std::__1::__compressed_pair_elem.3"** %14, align 8
  %96 = getelementptr inbounds %"struct.std::__1::__compressed_pair_elem.3", %"struct.std::__1::__compressed_pair_elem.3"* %95, i32 0, i32 0, !dbg !5891
  %97 = load %"class.altered_carbon::js::ACAstBaseNode"*, %"class.altered_carbon::js::ACAstBaseNode"** %96, align 8, !dbg !5892
  %98 = getelementptr inbounds %"class.altered_carbon::js::ACAstBaseNode", %"class.altered_carbon::js::ACAstBaseNode"* %97, i32 0, i32 1, !dbg !5888
  store %"class.std::__1::unique_ptr"* %98, %"class.std::__1::unique_ptr"** %7, align 8
  %99 = load %"class.std::__1::unique_ptr"*, %"class.std::__1::unique_ptr"** %7, align 8
  %100 = getelementptr inbounds %"class.std::__1::unique_ptr", %"class.std::__1::unique_ptr"* %99, i32 0, i32 0, !dbg !5893
  store %"class.std::__1::__compressed_pair"* %100, %"class.std::__1::__compressed_pair"** %6, align 8
  %101 = load %"class.std::__1::__compressed_pair"*, %"class.std::__1::__compressed_pair"** %6, align 8
  %102 = bitcast %"class.std::__1::__compressed_pair"* %101 to %"struct.std::__1::__compressed_pair_elem"*, !dbg !5894
  store %"struct.std::__1::__compressed_pair_elem"* %102, %"struct.std::__1::__compressed_pair_elem"** %5, align 8
  %103 = load %"struct.std::__1::__compressed_pair_elem"*, %"struct.std::__1::__compressed_pair_elem"** %5, align 8
  %104 = getelementptr inbounds %"struct.std::__1::__compressed_pair_elem", %"struct.std::__1::__compressed_pair_elem"* %103, i32 0, i32 0, !dbg !5895
  %105 = load %"struct.altered_carbon::js::ACLexPosition"*, %"struct.altered_carbon::js::ACLexPosition"** %104, align 8, !dbg !5896
  %106 = getelementptr inbounds %"struct.altered_carbon::js::ACLexPosition", %"struct.altered_carbon::js::ACLexPosition"* %105, i32 0, i32 1, !dbg !5888
  %107 = load i64, i64* %106, align 8, !dbg !5888
  %108 = call dereferenceable(160) %"class.std::__1::basic_ostream"* @_ZNSt3__113basic_ostreamIcNS_11char_traitsIcEEElsEm(%"class.std::__1::basic_ostream"* %89, i64 %107), !dbg !5888
  %109 = call dereferenceable(160) %"class.std::__1::basic_ostream"* @_ZNSt3__1lsINS_11char_traitsIcEEEERNS_13basic_ostreamIcT_EES6_PKc(%"class.std::__1::basic_ostream"* dereferenceable(160) %108, i8* getelementptr inbounds ([2 x i8], [2 x i8]* @.str.17, i32 0, i32 0)), !dbg !5888
  %110 = load %"class.std::__1::unique_ptr.1"*, %"class.std::__1::unique_ptr.1"** %31, align 8, !dbg !5888
  store %"class.std::__1::unique_ptr.1"* %110, %"class.std::__1::unique_ptr.1"** %10, align 8
  %111 = load %"class.std::__1::unique_ptr.1"*, %"class.std::__1::unique_ptr.1"** %10, align 8
  %112 = getelementptr inbounds %"class.std::__1::unique_ptr.1", %"class.std::__1::unique_ptr.1"* %111, i32 0, i32 0, !dbg !5897
  store %"class.std::__1::__compressed_pair.2"* %112, %"class.std::__1::__compressed_pair.2"** %9, align 8
  %113 = load %"class.std::__1::__compressed_pair.2"*, %"class.std::__1::__compressed_pair.2"** %9, align 8
  %114 = bitcast %"class.std::__1::__compressed_pair.2"* %113 to %"struct.std::__1::__compressed_pair_elem.3"*, !dbg !5898
  store %"struct.std::__1::__compressed_pair_elem.3"* %114, %"struct.std::__1::__compressed_pair_elem.3"** %8, align 8
  %115 = load %"struct.std::__1::__compressed_pair_elem.3"*, %"struct.std::__1::__compressed_pair_elem.3"** %8, align 8
  %116 = getelementptr inbounds %"struct.std::__1::__compressed_pair_elem.3", %"struct.std::__1::__compressed_pair_elem.3"* %115, i32 0, i32 0, !dbg !5899
  %117 = load %"class.altered_carbon::js::ACAstBaseNode"*, %"class.altered_carbon::js::ACAstBaseNode"** %116, align 8, !dbg !5900
  %118 = getelementptr inbounds %"class.altered_carbon::js::ACAstBaseNode", %"class.altered_carbon::js::ACAstBaseNode"* %117, i32 0, i32 1, !dbg !5888
  store %"class.std::__1::unique_ptr"* %118, %"class.std::__1::unique_ptr"** %13, align 8
  %119 = load %"class.std::__1::unique_ptr"*, %"class.std::__1::unique_ptr"** %13, align 8
  %120 = getelementptr inbounds %"class.std::__1::unique_ptr", %"class.std::__1::unique_ptr"* %119, i32 0, i32 0, !dbg !5901
  store %"class.std::__1::__compressed_pair"* %120, %"class.std::__1::__compressed_pair"** %12, align 8
  %121 = load %"class.std::__1::__compressed_pair"*, %"class.std::__1::__compressed_pair"** %12, align 8
  %122 = bitcast %"class.std::__1::__compressed_pair"* %121 to %"struct.std::__1::__compressed_pair_elem"*, !dbg !5902
  store %"struct.std::__1::__compressed_pair_elem"* %122, %"struct.std::__1::__compressed_pair_elem"** %11, align 8
  %123 = load %"struct.std::__1::__compressed_pair_elem"*, %"struct.std::__1::__compressed_pair_elem"** %11, align 8
  %124 = getelementptr inbounds %"struct.std::__1::__compressed_pair_elem", %"struct.std::__1::__compressed_pair_elem"* %123, i32 0, i32 0, !dbg !5903
  %125 = load %"struct.altered_carbon::js::ACLexPosition"*, %"struct.altered_carbon::js::ACLexPosition"** %124, align 8, !dbg !5904
  %126 = ptrtoint %"struct.altered_carbon::js::ACLexPosition"* %125 to i64, !dbg !5888
  %127 = srem i64 %126, 100, !dbg !5888
  %128 = call dereferenceable(160) %"class.std::__1::basic_ostream"* @_ZNSt3__113basic_ostreamIcNS_11char_traitsIcEEElsEx(%"class.std::__1::basic_ostream"* %109, i64 %127), !dbg !5888
  br label %129, !dbg !5888

; <label>:129:                                    ; preds = %87
  br label %130, !dbg !5876

; <label>:130:                                    ; preds = %129
  %131 = load i8*, i8** %32, align 8, !dbg !5905
  %132 = icmp ne i8* %131, null, !dbg !5905
  br i1 %132, label %133, label %139, !dbg !5907

; <label>:133:                                    ; preds = %130
  %134 = load %"class.std::__1::basic_ostream"*, %"class.std::__1::basic_ostream"** %30, align 8, !dbg !5908
  %135 = call dereferenceable(160) %"class.std::__1::basic_ostream"* @_ZNSt3__1lsINS_11char_traitsIcEEEERNS_13basic_ostreamIcT_EES6_PKc(%"class.std::__1::basic_ostream"* dereferenceable(160) %134, i8* getelementptr inbounds ([10 x i8], [10 x i8]* @.str.19, i32 0, i32 0)), !dbg !5910
  %136 = load i8*, i8** %32, align 8, !dbg !5911
  %137 = call dereferenceable(160) %"class.std::__1::basic_ostream"* @_ZNSt3__1lsINS_11char_traitsIcEEEERNS_13basic_ostreamIcT_EES6_PKc(%"class.std::__1::basic_ostream"* dereferenceable(160) %135, i8* %136), !dbg !5912
  %138 = call dereferenceable(160) %"class.std::__1::basic_ostream"* @_ZNSt3__1lsINS_11char_traitsIcEEEERNS_13basic_ostreamIcT_EES6_PKc(%"class.std::__1::basic_ostream"* dereferenceable(160) %137, i8* getelementptr inbounds ([3 x i8], [3 x i8]* @.str.20, i32 0, i32 0)), !dbg !5913
  br label %139, !dbg !5914

; <label>:139:                                    ; preds = %133, %130
  %140 = load %"class.std::__1::basic_ostream"*, %"class.std::__1::basic_ostream"** %30, align 8, !dbg !5915
  %141 = call dereferenceable(160) %"class.std::__1::basic_ostream"* @_ZNSt3__1lsINS_11char_traitsIcEEEERNS_13basic_ostreamIcT_EES6_PKc(%"class.std::__1::basic_ostream"* dereferenceable(160) %140, i8* getelementptr inbounds ([3 x i8], [3 x i8]* @.str.21, i32 0, i32 0)), !dbg !5916
  br label %142, !dbg !5917

; <label>:142:                                    ; preds = %139, %4
  ret void, !dbg !5918
}

declare dereferenceable(160) %"class.std::__1::basic_ostream"* @_ZNSt3__113basic_ostreamIcNS_11char_traitsIcEEElsEm(%"class.std::__1::basic_ostream"*, i64) #4

declare dereferenceable(160) %"class.std::__1::basic_ostream"* @_ZNSt3__113basic_ostreamIcNS_11char_traitsIcEEElsEx(%"class.std::__1::basic_ostream"*, i64) #4

; Function Attrs: noinline nounwind optnone ssp uwtable
define void @_ZNK14altered_carbon2js13ACAstBaseNode12dumpSubNodesERNSt3__113basic_ostreamIcNS2_11char_traitsIcEEEEPKcS9_S9_(%"class.altered_carbon::js::ACAstBaseNode"*, %"class.std::__1::basic_ostream"* dereferenceable(160), i8*, i8*, i8*) #1 align 2 !dbg !5919 {
  %6 = alloca %"struct.std::__1::__compressed_pair_elem.3"*, align 8
  call void @llvm.dbg.declare(metadata %"struct.std::__1::__compressed_pair_elem.3"** %6, metadata !5797, metadata !DIExpression()), !dbg !5920
  %7 = alloca %"class.std::__1::__compressed_pair.2"*, align 8
  call void @llvm.dbg.declare(metadata %"class.std::__1::__compressed_pair.2"** %7, metadata !5806, metadata !DIExpression()), !dbg !5926
  %8 = alloca %"class.std::__1::unique_ptr.1"*, align 8
  call void @llvm.dbg.declare(metadata %"class.std::__1::unique_ptr.1"** %8, metadata !5809, metadata !DIExpression()), !dbg !5927
  %9 = alloca %"class.std::__1::__wrap_iter"*, align 8
  call void @llvm.dbg.declare(metadata %"class.std::__1::__wrap_iter"** %9, metadata !5928, metadata !DIExpression()), !dbg !5931
  %10 = alloca %"class.std::__1::__wrap_iter"*, align 8
  call void @llvm.dbg.declare(metadata %"class.std::__1::__wrap_iter"** %10, metadata !5934, metadata !DIExpression()), !dbg !5936
  %11 = alloca %"class.std::__1::unique_ptr.1"*, align 8
  call void @llvm.dbg.declare(metadata %"class.std::__1::unique_ptr.1"** %11, metadata !5945, metadata !DIExpression()), !dbg !5946
  %12 = alloca %"class.std::__1::__wrap_iter"*, align 8
  call void @llvm.dbg.declare(metadata %"class.std::__1::__wrap_iter"** %12, metadata !5947, metadata !DIExpression()), !dbg !5948
  %13 = alloca %"class.std::__1::unique_ptr.1"*, align 8
  call void @llvm.dbg.declare(metadata %"class.std::__1::unique_ptr.1"** %13, metadata !5949, metadata !DIExpression()), !dbg !5950
  %14 = alloca %"class.std::__1::__wrap_iter", align 8
  %15 = alloca %"class.std::__1::vector"*, align 8
  call void @llvm.dbg.declare(metadata %"class.std::__1::vector"** %15, metadata !5951, metadata !DIExpression()), !dbg !5953
  %16 = alloca %"class.std::__1::unique_ptr.1"*, align 8
  call void @llvm.dbg.declare(metadata %"class.std::__1::unique_ptr.1"** %16, metadata !5954, metadata !DIExpression()), !dbg !5955
  %17 = alloca %"class.std::__1::__wrap_iter", align 8
  %18 = alloca %"class.std::__1::vector"*, align 8
  call void @llvm.dbg.declare(metadata %"class.std::__1::vector"** %18, metadata !5956, metadata !DIExpression()), !dbg !5957
  %19 = alloca %"class.std::__1::__wrap_iter"*, align 8
  call void @llvm.dbg.declare(metadata %"class.std::__1::__wrap_iter"** %19, metadata !5958, metadata !DIExpression()), !dbg !5961
  %20 = alloca %"class.std::__1::__wrap_iter"*, align 8
  call void @llvm.dbg.declare(metadata %"class.std::__1::__wrap_iter"** %20, metadata !5958, metadata !DIExpression()), !dbg !5974
  %21 = alloca %"class.std::__1::__wrap_iter"*, align 8
  call void @llvm.dbg.declare(metadata %"class.std::__1::__wrap_iter"** %21, metadata !5976, metadata !DIExpression()), !dbg !5977
  %22 = alloca %"class.std::__1::__wrap_iter"*, align 8
  call void @llvm.dbg.declare(metadata %"class.std::__1::__wrap_iter"** %22, metadata !5978, metadata !DIExpression()), !dbg !5979
  %23 = alloca %"class.std::__1::__wrap_iter"*, align 8
  call void @llvm.dbg.declare(metadata %"class.std::__1::__wrap_iter"** %23, metadata !5980, metadata !DIExpression()), !dbg !5981
  %24 = alloca %"class.std::__1::__wrap_iter"*, align 8
  call void @llvm.dbg.declare(metadata %"class.std::__1::__wrap_iter"** %24, metadata !5982, metadata !DIExpression()), !dbg !5983
  %25 = alloca %"class.std::__1::__wrap_iter"*, align 8
  call void @llvm.dbg.declare(metadata %"class.std::__1::__wrap_iter"** %25, metadata !5984, metadata !DIExpression()), !dbg !5986
  %26 = alloca %"class.std::__1::__wrap_iter"*, align 8
  call void @llvm.dbg.declare(metadata %"class.std::__1::__wrap_iter"** %26, metadata !5984, metadata !DIExpression()), !dbg !5988
  %27 = alloca %"struct.std::__1::__compressed_pair_elem.3"*, align 8
  call void @llvm.dbg.declare(metadata %"struct.std::__1::__compressed_pair_elem.3"** %27, metadata !5797, metadata !DIExpression()), !dbg !5991
  %28 = alloca %"class.std::__1::__compressed_pair.2"*, align 8
  call void @llvm.dbg.declare(metadata %"class.std::__1::__compressed_pair.2"** %28, metadata !5806, metadata !DIExpression()), !dbg !5995
  %29 = alloca %"class.std::__1::unique_ptr.1"*, align 8
  call void @llvm.dbg.declare(metadata %"class.std::__1::unique_ptr.1"** %29, metadata !5809, metadata !DIExpression()), !dbg !5996
  %30 = alloca %"class.std::__1::__wrap_iter"*, align 8
  call void @llvm.dbg.declare(metadata %"class.std::__1::__wrap_iter"** %30, metadata !5958, metadata !DIExpression()), !dbg !5997
  %31 = alloca %"class.std::__1::__wrap_iter"*, align 8
  call void @llvm.dbg.declare(metadata %"class.std::__1::__wrap_iter"** %31, metadata !5958, metadata !DIExpression()), !dbg !6001
  %32 = alloca %"class.std::__1::__wrap_iter"*, align 8
  call void @llvm.dbg.declare(metadata %"class.std::__1::__wrap_iter"** %32, metadata !5976, metadata !DIExpression()), !dbg !6003
  %33 = alloca %"class.std::__1::__wrap_iter"*, align 8
  call void @llvm.dbg.declare(metadata %"class.std::__1::__wrap_iter"** %33, metadata !5978, metadata !DIExpression()), !dbg !6004
  %34 = alloca %"class.std::__1::__wrap_iter"*, align 8
  call void @llvm.dbg.declare(metadata %"class.std::__1::__wrap_iter"** %34, metadata !5980, metadata !DIExpression()), !dbg !6005
  %35 = alloca %"class.std::__1::__wrap_iter"*, align 8
  call void @llvm.dbg.declare(metadata %"class.std::__1::__wrap_iter"** %35, metadata !5982, metadata !DIExpression()), !dbg !6006
  %36 = alloca %"class.std::__1::__wrap_iter"*, align 8
  call void @llvm.dbg.declare(metadata %"class.std::__1::__wrap_iter"** %36, metadata !5928, metadata !DIExpression()), !dbg !6007
  %37 = alloca %"class.std::__1::__wrap_iter"*, align 8
  call void @llvm.dbg.declare(metadata %"class.std::__1::__wrap_iter"** %37, metadata !5934, metadata !DIExpression()), !dbg !6009
  %38 = alloca %"class.std::__1::unique_ptr.1"*, align 8
  call void @llvm.dbg.declare(metadata %"class.std::__1::unique_ptr.1"** %38, metadata !5945, metadata !DIExpression()), !dbg !6014
  %39 = alloca %"class.std::__1::__wrap_iter"*, align 8
  call void @llvm.dbg.declare(metadata %"class.std::__1::__wrap_iter"** %39, metadata !5947, metadata !DIExpression()), !dbg !6015
  %40 = alloca %"class.std::__1::unique_ptr.1"*, align 8
  call void @llvm.dbg.declare(metadata %"class.std::__1::unique_ptr.1"** %40, metadata !5949, metadata !DIExpression()), !dbg !6016
  %41 = alloca %"class.std::__1::__wrap_iter", align 8
  %42 = alloca %"class.std::__1::vector"*, align 8
  call void @llvm.dbg.declare(metadata %"class.std::__1::vector"** %42, metadata !5951, metadata !DIExpression()), !dbg !6017
  %43 = alloca %"class.std::__1::unique_ptr.1"*, align 8
  call void @llvm.dbg.declare(metadata %"class.std::__1::unique_ptr.1"** %43, metadata !5954, metadata !DIExpression()), !dbg !6018
  %44 = alloca %"class.std::__1::__wrap_iter", align 8
  %45 = alloca %"class.std::__1::vector"*, align 8
  call void @llvm.dbg.declare(metadata %"class.std::__1::vector"** %45, metadata !5956, metadata !DIExpression()), !dbg !6019
  %46 = alloca %"class.std::__1::__wrap_iter"*, align 8
  call void @llvm.dbg.declare(metadata %"class.std::__1::__wrap_iter"** %46, metadata !5934, metadata !DIExpression()), !dbg !6020
  %47 = alloca %"class.std::__1::unique_ptr.1"*, align 8
  call void @llvm.dbg.declare(metadata %"class.std::__1::unique_ptr.1"** %47, metadata !5945, metadata !DIExpression()), !dbg !6026
  %48 = alloca %"class.std::__1::__wrap_iter"*, align 8
  call void @llvm.dbg.declare(metadata %"class.std::__1::__wrap_iter"** %48, metadata !5947, metadata !DIExpression()), !dbg !6027
  %49 = alloca %"class.std::__1::unique_ptr.1"*, align 8
  call void @llvm.dbg.declare(metadata %"class.std::__1::unique_ptr.1"** %49, metadata !5949, metadata !DIExpression()), !dbg !6028
  %50 = alloca %"class.std::__1::__wrap_iter", align 8
  %51 = alloca %"class.std::__1::vector"*, align 8
  call void @llvm.dbg.declare(metadata %"class.std::__1::vector"** %51, metadata !5951, metadata !DIExpression()), !dbg !6029
  %52 = alloca %"class.std::__1::unique_ptr.1"*, align 8
  call void @llvm.dbg.declare(metadata %"class.std::__1::unique_ptr.1"** %52, metadata !5954, metadata !DIExpression()), !dbg !6030
  %53 = alloca %"class.std::__1::__wrap_iter", align 8
  %54 = alloca %"class.std::__1::vector"*, align 8
  call void @llvm.dbg.declare(metadata %"class.std::__1::vector"** %54, metadata !6031, metadata !DIExpression()), !dbg !6032
  %55 = alloca %"class.altered_carbon::js::ACAstBaseNode"*, align 8
  %56 = alloca %"class.std::__1::basic_ostream"*, align 8
  %57 = alloca i8*, align 8
  %58 = alloca i8*, align 8
  %59 = alloca i8*, align 8
  %60 = alloca %"class.std::__1::__wrap_iter", align 8
  %61 = alloca %"class.std::__1::__wrap_iter", align 8
  %62 = alloca %"class.std::__1::__wrap_iter", align 8
  store %"class.altered_carbon::js::ACAstBaseNode"* %0, %"class.altered_carbon::js::ACAstBaseNode"** %55, align 8
  call void @llvm.dbg.declare(metadata %"class.altered_carbon::js::ACAstBaseNode"** %55, metadata !6033, metadata !DIExpression()), !dbg !6034
  store %"class.std::__1::basic_ostream"* %1, %"class.std::__1::basic_ostream"** %56, align 8
  call void @llvm.dbg.declare(metadata %"class.std::__1::basic_ostream"** %56, metadata !6035, metadata !DIExpression()), !dbg !6036
  store i8* %2, i8** %57, align 8
  call void @llvm.dbg.declare(metadata i8** %57, metadata !6037, metadata !DIExpression()), !dbg !6038
  store i8* %3, i8** %58, align 8
  call void @llvm.dbg.declare(metadata i8** %58, metadata !6039, metadata !DIExpression()), !dbg !6040
  store i8* %4, i8** %59, align 8
  call void @llvm.dbg.declare(metadata i8** %59, metadata !6041, metadata !DIExpression()), !dbg !6042
  %63 = load %"class.altered_carbon::js::ACAstBaseNode"*, %"class.altered_carbon::js::ACAstBaseNode"** %55, align 8
  %64 = load %"class.std::__1::basic_ostream"*, %"class.std::__1::basic_ostream"** %56, align 8, !dbg !6043
  %65 = load i8*, i8** %57, align 8, !dbg !6044
  %66 = call dereferenceable(160) %"class.std::__1::basic_ostream"* @_ZNSt3__1lsINS_11char_traitsIcEEEERNS_13basic_ostreamIcT_EES6_PKc(%"class.std::__1::basic_ostream"* dereferenceable(160) %64, i8* %65), !dbg !6045
  call void @llvm.dbg.declare(metadata %"class.std::__1::__wrap_iter"* %60, metadata !6046, metadata !DIExpression()), !dbg !6047
  %67 = getelementptr inbounds %"class.altered_carbon::js::ACAstBaseNode", %"class.altered_carbon::js::ACAstBaseNode"* %63, i32 0, i32 4, !dbg !6048
  store %"class.std::__1::vector"* %67, %"class.std::__1::vector"** %54, align 8
  %68 = load %"class.std::__1::vector"*, %"class.std::__1::vector"** %54, align 8
  %69 = bitcast %"class.std::__1::vector"* %68 to %"class.std::__1::__vector_base"*, !dbg !6049
  %70 = getelementptr inbounds %"class.std::__1::__vector_base", %"class.std::__1::__vector_base"* %69, i32 0, i32 0, !dbg !6049
  %71 = load %"class.std::__1::unique_ptr.1"*, %"class.std::__1::unique_ptr.1"** %70, align 8, !dbg !6049
  store %"class.std::__1::vector"* %68, %"class.std::__1::vector"** %51, align 8
  store %"class.std::__1::unique_ptr.1"* %71, %"class.std::__1::unique_ptr.1"** %52, align 8
  %72 = load %"class.std::__1::vector"*, %"class.std::__1::vector"** %51, align 8
  %73 = load %"class.std::__1::unique_ptr.1"*, %"class.std::__1::unique_ptr.1"** %52, align 8, !dbg !6050
  store %"class.std::__1::__wrap_iter"* %50, %"class.std::__1::__wrap_iter"** %48, align 8
  store %"class.std::__1::unique_ptr.1"* %73, %"class.std::__1::unique_ptr.1"** %49, align 8
  %74 = load %"class.std::__1::__wrap_iter"*, %"class.std::__1::__wrap_iter"** %48, align 8
  %75 = load %"class.std::__1::unique_ptr.1"*, %"class.std::__1::unique_ptr.1"** %49, align 8, !dbg !6051
  store %"class.std::__1::__wrap_iter"* %74, %"class.std::__1::__wrap_iter"** %46, align 8
  store %"class.std::__1::unique_ptr.1"* %75, %"class.std::__1::unique_ptr.1"** %47, align 8
  %76 = load %"class.std::__1::__wrap_iter"*, %"class.std::__1::__wrap_iter"** %46, align 8
  %77 = getelementptr inbounds %"class.std::__1::__wrap_iter", %"class.std::__1::__wrap_iter"* %76, i32 0, i32 0, !dbg !6052
  %78 = load %"class.std::__1::unique_ptr.1"*, %"class.std::__1::unique_ptr.1"** %47, align 8, !dbg !6053
  store %"class.std::__1::unique_ptr.1"* %78, %"class.std::__1::unique_ptr.1"** %77, align 8, !dbg !6052
  %79 = getelementptr inbounds %"class.std::__1::__wrap_iter", %"class.std::__1::__wrap_iter"* %50, i32 0, i32 0, !dbg !6054
  %80 = load %"class.std::__1::unique_ptr.1"*, %"class.std::__1::unique_ptr.1"** %79, align 8, !dbg !6054
  %81 = getelementptr inbounds %"class.std::__1::__wrap_iter", %"class.std::__1::__wrap_iter"* %53, i32 0, i32 0, !dbg !6055
  store %"class.std::__1::unique_ptr.1"* %80, %"class.std::__1::unique_ptr.1"** %81, align 8, !dbg !6055
  %82 = getelementptr inbounds %"class.std::__1::__wrap_iter", %"class.std::__1::__wrap_iter"* %53, i32 0, i32 0, !dbg !6056
  %83 = load %"class.std::__1::unique_ptr.1"*, %"class.std::__1::unique_ptr.1"** %82, align 8, !dbg !6056
  %84 = getelementptr inbounds %"class.std::__1::__wrap_iter", %"class.std::__1::__wrap_iter"* %60, i32 0, i32 0, !dbg !6057
  store %"class.std::__1::unique_ptr.1"* %83, %"class.std::__1::unique_ptr.1"** %84, align 8, !dbg !6057
  %85 = getelementptr inbounds %"class.altered_carbon::js::ACAstBaseNode", %"class.altered_carbon::js::ACAstBaseNode"* %63, i32 0, i32 4, !dbg !6058
  store %"class.std::__1::vector"* %85, %"class.std::__1::vector"** %45, align 8
  %86 = load %"class.std::__1::vector"*, %"class.std::__1::vector"** %45, align 8
  %87 = bitcast %"class.std::__1::vector"* %86 to %"class.std::__1::__vector_base"*, !dbg !6059
  %88 = getelementptr inbounds %"class.std::__1::__vector_base", %"class.std::__1::__vector_base"* %87, i32 0, i32 1, !dbg !6059
  %89 = load %"class.std::__1::unique_ptr.1"*, %"class.std::__1::unique_ptr.1"** %88, align 8, !dbg !6059
  store %"class.std::__1::vector"* %86, %"class.std::__1::vector"** %42, align 8
  store %"class.std::__1::unique_ptr.1"* %89, %"class.std::__1::unique_ptr.1"** %43, align 8
  %90 = load %"class.std::__1::vector"*, %"class.std::__1::vector"** %42, align 8
  %91 = load %"class.std::__1::unique_ptr.1"*, %"class.std::__1::unique_ptr.1"** %43, align 8, !dbg !6060
  store %"class.std::__1::__wrap_iter"* %41, %"class.std::__1::__wrap_iter"** %39, align 8
  store %"class.std::__1::unique_ptr.1"* %91, %"class.std::__1::unique_ptr.1"** %40, align 8
  %92 = load %"class.std::__1::__wrap_iter"*, %"class.std::__1::__wrap_iter"** %39, align 8
  %93 = load %"class.std::__1::unique_ptr.1"*, %"class.std::__1::unique_ptr.1"** %40, align 8, !dbg !6061
  store %"class.std::__1::__wrap_iter"* %92, %"class.std::__1::__wrap_iter"** %37, align 8
  store %"class.std::__1::unique_ptr.1"* %93, %"class.std::__1::unique_ptr.1"** %38, align 8
  %94 = load %"class.std::__1::__wrap_iter"*, %"class.std::__1::__wrap_iter"** %37, align 8
  %95 = getelementptr inbounds %"class.std::__1::__wrap_iter", %"class.std::__1::__wrap_iter"* %94, i32 0, i32 0, !dbg !6062
  %96 = load %"class.std::__1::unique_ptr.1"*, %"class.std::__1::unique_ptr.1"** %38, align 8, !dbg !6063
  store %"class.std::__1::unique_ptr.1"* %96, %"class.std::__1::unique_ptr.1"** %95, align 8, !dbg !6062
  %97 = getelementptr inbounds %"class.std::__1::__wrap_iter", %"class.std::__1::__wrap_iter"* %41, i32 0, i32 0, !dbg !6064
  %98 = load %"class.std::__1::unique_ptr.1"*, %"class.std::__1::unique_ptr.1"** %97, align 8, !dbg !6064
  %99 = getelementptr inbounds %"class.std::__1::__wrap_iter", %"class.std::__1::__wrap_iter"* %44, i32 0, i32 0, !dbg !6065
  store %"class.std::__1::unique_ptr.1"* %98, %"class.std::__1::unique_ptr.1"** %99, align 8, !dbg !6065
  %100 = getelementptr inbounds %"class.std::__1::__wrap_iter", %"class.std::__1::__wrap_iter"* %44, i32 0, i32 0, !dbg !6066
  %101 = load %"class.std::__1::unique_ptr.1"*, %"class.std::__1::unique_ptr.1"** %100, align 8, !dbg !6066
  %102 = getelementptr inbounds %"class.std::__1::__wrap_iter", %"class.std::__1::__wrap_iter"* %61, i32 0, i32 0, !dbg !6067
  store %"class.std::__1::unique_ptr.1"* %101, %"class.std::__1::unique_ptr.1"** %102, align 8, !dbg !6067
  store %"class.std::__1::__wrap_iter"* %60, %"class.std::__1::__wrap_iter"** %34, align 8
  store %"class.std::__1::__wrap_iter"* %61, %"class.std::__1::__wrap_iter"** %35, align 8
  %103 = load %"class.std::__1::__wrap_iter"*, %"class.std::__1::__wrap_iter"** %34, align 8, !dbg !6068
  %104 = load %"class.std::__1::__wrap_iter"*, %"class.std::__1::__wrap_iter"** %35, align 8, !dbg !6069
  store %"class.std::__1::__wrap_iter"* %103, %"class.std::__1::__wrap_iter"** %32, align 8
  store %"class.std::__1::__wrap_iter"* %104, %"class.std::__1::__wrap_iter"** %33, align 8
  %105 = load %"class.std::__1::__wrap_iter"*, %"class.std::__1::__wrap_iter"** %32, align 8, !dbg !6070
  store %"class.std::__1::__wrap_iter"* %105, %"class.std::__1::__wrap_iter"** %31, align 8
  %106 = load %"class.std::__1::__wrap_iter"*, %"class.std::__1::__wrap_iter"** %31, align 8
  %107 = getelementptr inbounds %"class.std::__1::__wrap_iter", %"class.std::__1::__wrap_iter"* %106, i32 0, i32 0, !dbg !6071
  %108 = load %"class.std::__1::unique_ptr.1"*, %"class.std::__1::unique_ptr.1"** %107, align 8, !dbg !6071
  %109 = load %"class.std::__1::__wrap_iter"*, %"class.std::__1::__wrap_iter"** %33, align 8, !dbg !6072
  store %"class.std::__1::__wrap_iter"* %109, %"class.std::__1::__wrap_iter"** %30, align 8
  %110 = load %"class.std::__1::__wrap_iter"*, %"class.std::__1::__wrap_iter"** %30, align 8
  %111 = getelementptr inbounds %"class.std::__1::__wrap_iter", %"class.std::__1::__wrap_iter"* %110, i32 0, i32 0, !dbg !6073
  %112 = load %"class.std::__1::unique_ptr.1"*, %"class.std::__1::unique_ptr.1"** %111, align 8, !dbg !6073
  %113 = icmp eq %"class.std::__1::unique_ptr.1"* %108, %112, !dbg !6074
  %114 = xor i1 %113, true, !dbg !6075
  br i1 %114, label %115, label %191, !dbg !6076

; <label>:115:                                    ; preds = %5
  store %"class.std::__1::__wrap_iter"* %60, %"class.std::__1::__wrap_iter"** %25, align 8
  %116 = load %"class.std::__1::__wrap_iter"*, %"class.std::__1::__wrap_iter"** %25, align 8
  %117 = getelementptr inbounds %"class.std::__1::__wrap_iter", %"class.std::__1::__wrap_iter"* %116, i32 0, i32 0, !dbg !6077
  %118 = load %"class.std::__1::unique_ptr.1"*, %"class.std::__1::unique_ptr.1"** %117, align 8, !dbg !6077
  store %"class.std::__1::unique_ptr.1"* %118, %"class.std::__1::unique_ptr.1"** %8, align 8
  %119 = load %"class.std::__1::unique_ptr.1"*, %"class.std::__1::unique_ptr.1"** %8, align 8
  %120 = getelementptr inbounds %"class.std::__1::unique_ptr.1", %"class.std::__1::unique_ptr.1"* %119, i32 0, i32 0, !dbg !6078
  store %"class.std::__1::__compressed_pair.2"* %120, %"class.std::__1::__compressed_pair.2"** %7, align 8
  %121 = load %"class.std::__1::__compressed_pair.2"*, %"class.std::__1::__compressed_pair.2"** %7, align 8
  %122 = bitcast %"class.std::__1::__compressed_pair.2"* %121 to %"struct.std::__1::__compressed_pair_elem.3"*, !dbg !6079
  store %"struct.std::__1::__compressed_pair_elem.3"* %122, %"struct.std::__1::__compressed_pair_elem.3"** %6, align 8
  %123 = load %"struct.std::__1::__compressed_pair_elem.3"*, %"struct.std::__1::__compressed_pair_elem.3"** %6, align 8
  %124 = getelementptr inbounds %"struct.std::__1::__compressed_pair_elem.3", %"struct.std::__1::__compressed_pair_elem.3"* %123, i32 0, i32 0, !dbg !6080
  %125 = load %"class.altered_carbon::js::ACAstBaseNode"*, %"class.altered_carbon::js::ACAstBaseNode"** %124, align 8, !dbg !6081
  %126 = bitcast %"class.altered_carbon::js::ACAstBaseNode"* %125 to void (%"class.altered_carbon::js::ACAstBaseNode"*, %"class.std::__1::basic_ostream"*)***, !dbg !6082
  %127 = load void (%"class.altered_carbon::js::ACAstBaseNode"*, %"class.std::__1::basic_ostream"*)**, void (%"class.altered_carbon::js::ACAstBaseNode"*, %"class.std::__1::basic_ostream"*)*** %126, align 8, !dbg !6082
  %128 = getelementptr inbounds void (%"class.altered_carbon::js::ACAstBaseNode"*, %"class.std::__1::basic_ostream"*)*, void (%"class.altered_carbon::js::ACAstBaseNode"*, %"class.std::__1::basic_ostream"*)** %127, i64 8, !dbg !6082
  %129 = load void (%"class.altered_carbon::js::ACAstBaseNode"*, %"class.std::__1::basic_ostream"*)*, void (%"class.altered_carbon::js::ACAstBaseNode"*, %"class.std::__1::basic_ostream"*)** %128, align 8, !dbg !6082
  %130 = load %"class.std::__1::basic_ostream"*, %"class.std::__1::basic_ostream"** %56, align 8, !dbg !6083
  call void %129(%"class.altered_carbon::js::ACAstBaseNode"* %125, %"class.std::__1::basic_ostream"* dereferenceable(160) %130), !dbg !6082
  store %"class.std::__1::__wrap_iter"* %60, %"class.std::__1::__wrap_iter"** %9, align 8
  %131 = load %"class.std::__1::__wrap_iter"*, %"class.std::__1::__wrap_iter"** %9, align 8
  %132 = getelementptr inbounds %"class.std::__1::__wrap_iter", %"class.std::__1::__wrap_iter"* %131, i32 0, i32 0, !dbg !6084
  %133 = load %"class.std::__1::unique_ptr.1"*, %"class.std::__1::unique_ptr.1"** %132, align 8, !dbg !6085
  %134 = getelementptr inbounds %"class.std::__1::unique_ptr.1", %"class.std::__1::unique_ptr.1"* %133, i32 1, !dbg !6085
  store %"class.std::__1::unique_ptr.1"* %134, %"class.std::__1::unique_ptr.1"** %132, align 8, !dbg !6085
  br label %135, !dbg !6086

; <label>:135:                                    ; preds = %185, %115
  %136 = getelementptr inbounds %"class.altered_carbon::js::ACAstBaseNode", %"class.altered_carbon::js::ACAstBaseNode"* %63, i32 0, i32 4, !dbg !6087
  store %"class.std::__1::vector"* %136, %"class.std::__1::vector"** %18, align 8
  %137 = load %"class.std::__1::vector"*, %"class.std::__1::vector"** %18, align 8
  %138 = bitcast %"class.std::__1::vector"* %137 to %"class.std::__1::__vector_base"*, !dbg !6088
  %139 = getelementptr inbounds %"class.std::__1::__vector_base", %"class.std::__1::__vector_base"* %138, i32 0, i32 1, !dbg !6088
  %140 = load %"class.std::__1::unique_ptr.1"*, %"class.std::__1::unique_ptr.1"** %139, align 8, !dbg !6088
  store %"class.std::__1::vector"* %137, %"class.std::__1::vector"** %15, align 8
  store %"class.std::__1::unique_ptr.1"* %140, %"class.std::__1::unique_ptr.1"** %16, align 8
  %141 = load %"class.std::__1::vector"*, %"class.std::__1::vector"** %15, align 8
  %142 = load %"class.std::__1::unique_ptr.1"*, %"class.std::__1::unique_ptr.1"** %16, align 8, !dbg !6089
  store %"class.std::__1::__wrap_iter"* %14, %"class.std::__1::__wrap_iter"** %12, align 8
  store %"class.std::__1::unique_ptr.1"* %142, %"class.std::__1::unique_ptr.1"** %13, align 8
  %143 = load %"class.std::__1::__wrap_iter"*, %"class.std::__1::__wrap_iter"** %12, align 8
  %144 = load %"class.std::__1::unique_ptr.1"*, %"class.std::__1::unique_ptr.1"** %13, align 8, !dbg !6090
  store %"class.std::__1::__wrap_iter"* %143, %"class.std::__1::__wrap_iter"** %10, align 8
  store %"class.std::__1::unique_ptr.1"* %144, %"class.std::__1::unique_ptr.1"** %11, align 8
  %145 = load %"class.std::__1::__wrap_iter"*, %"class.std::__1::__wrap_iter"** %10, align 8
  %146 = getelementptr inbounds %"class.std::__1::__wrap_iter", %"class.std::__1::__wrap_iter"* %145, i32 0, i32 0, !dbg !6091
  %147 = load %"class.std::__1::unique_ptr.1"*, %"class.std::__1::unique_ptr.1"** %11, align 8, !dbg !6092
  store %"class.std::__1::unique_ptr.1"* %147, %"class.std::__1::unique_ptr.1"** %146, align 8, !dbg !6091
  %148 = getelementptr inbounds %"class.std::__1::__wrap_iter", %"class.std::__1::__wrap_iter"* %14, i32 0, i32 0, !dbg !6093
  %149 = load %"class.std::__1::unique_ptr.1"*, %"class.std::__1::unique_ptr.1"** %148, align 8, !dbg !6093
  %150 = getelementptr inbounds %"class.std::__1::__wrap_iter", %"class.std::__1::__wrap_iter"* %17, i32 0, i32 0, !dbg !6094
  store %"class.std::__1::unique_ptr.1"* %149, %"class.std::__1::unique_ptr.1"** %150, align 8, !dbg !6094
  %151 = getelementptr inbounds %"class.std::__1::__wrap_iter", %"class.std::__1::__wrap_iter"* %17, i32 0, i32 0, !dbg !6095
  %152 = load %"class.std::__1::unique_ptr.1"*, %"class.std::__1::unique_ptr.1"** %151, align 8, !dbg !6095
  %153 = getelementptr inbounds %"class.std::__1::__wrap_iter", %"class.std::__1::__wrap_iter"* %62, i32 0, i32 0, !dbg !6096
  store %"class.std::__1::unique_ptr.1"* %152, %"class.std::__1::unique_ptr.1"** %153, align 8, !dbg !6096
  store %"class.std::__1::__wrap_iter"* %60, %"class.std::__1::__wrap_iter"** %23, align 8
  store %"class.std::__1::__wrap_iter"* %62, %"class.std::__1::__wrap_iter"** %24, align 8
  %154 = load %"class.std::__1::__wrap_iter"*, %"class.std::__1::__wrap_iter"** %23, align 8, !dbg !6097
  %155 = load %"class.std::__1::__wrap_iter"*, %"class.std::__1::__wrap_iter"** %24, align 8, !dbg !6098
  store %"class.std::__1::__wrap_iter"* %154, %"class.std::__1::__wrap_iter"** %21, align 8
  store %"class.std::__1::__wrap_iter"* %155, %"class.std::__1::__wrap_iter"** %22, align 8
  %156 = load %"class.std::__1::__wrap_iter"*, %"class.std::__1::__wrap_iter"** %21, align 8, !dbg !6099
  store %"class.std::__1::__wrap_iter"* %156, %"class.std::__1::__wrap_iter"** %20, align 8
  %157 = load %"class.std::__1::__wrap_iter"*, %"class.std::__1::__wrap_iter"** %20, align 8
  %158 = getelementptr inbounds %"class.std::__1::__wrap_iter", %"class.std::__1::__wrap_iter"* %157, i32 0, i32 0, !dbg !6100
  %159 = load %"class.std::__1::unique_ptr.1"*, %"class.std::__1::unique_ptr.1"** %158, align 8, !dbg !6100
  %160 = load %"class.std::__1::__wrap_iter"*, %"class.std::__1::__wrap_iter"** %22, align 8, !dbg !6101
  store %"class.std::__1::__wrap_iter"* %160, %"class.std::__1::__wrap_iter"** %19, align 8
  %161 = load %"class.std::__1::__wrap_iter"*, %"class.std::__1::__wrap_iter"** %19, align 8
  %162 = getelementptr inbounds %"class.std::__1::__wrap_iter", %"class.std::__1::__wrap_iter"* %161, i32 0, i32 0, !dbg !6102
  %163 = load %"class.std::__1::unique_ptr.1"*, %"class.std::__1::unique_ptr.1"** %162, align 8, !dbg !6102
  %164 = icmp eq %"class.std::__1::unique_ptr.1"* %159, %163, !dbg !6103
  %165 = xor i1 %164, true, !dbg !6104
  br i1 %165, label %166, label %190, !dbg !6105

; <label>:166:                                    ; preds = %135
  %167 = load %"class.std::__1::basic_ostream"*, %"class.std::__1::basic_ostream"** %56, align 8, !dbg !6106
  %168 = load i8*, i8** %59, align 8, !dbg !6107
  %169 = call dereferenceable(160) %"class.std::__1::basic_ostream"* @_ZNSt3__1lsINS_11char_traitsIcEEEERNS_13basic_ostreamIcT_EES6_PKc(%"class.std::__1::basic_ostream"* dereferenceable(160) %167, i8* %168), !dbg !6108
  store %"class.std::__1::__wrap_iter"* %60, %"class.std::__1::__wrap_iter"** %26, align 8
  %170 = load %"class.std::__1::__wrap_iter"*, %"class.std::__1::__wrap_iter"** %26, align 8
  %171 = getelementptr inbounds %"class.std::__1::__wrap_iter", %"class.std::__1::__wrap_iter"* %170, i32 0, i32 0, !dbg !6109
  %172 = load %"class.std::__1::unique_ptr.1"*, %"class.std::__1::unique_ptr.1"** %171, align 8, !dbg !6109
  store %"class.std::__1::unique_ptr.1"* %172, %"class.std::__1::unique_ptr.1"** %29, align 8
  %173 = load %"class.std::__1::unique_ptr.1"*, %"class.std::__1::unique_ptr.1"** %29, align 8
  %174 = getelementptr inbounds %"class.std::__1::unique_ptr.1", %"class.std::__1::unique_ptr.1"* %173, i32 0, i32 0, !dbg !6110
  store %"class.std::__1::__compressed_pair.2"* %174, %"class.std::__1::__compressed_pair.2"** %28, align 8
  %175 = load %"class.std::__1::__compressed_pair.2"*, %"class.std::__1::__compressed_pair.2"** %28, align 8
  %176 = bitcast %"class.std::__1::__compressed_pair.2"* %175 to %"struct.std::__1::__compressed_pair_elem.3"*, !dbg !6111
  store %"struct.std::__1::__compressed_pair_elem.3"* %176, %"struct.std::__1::__compressed_pair_elem.3"** %27, align 8
  %177 = load %"struct.std::__1::__compressed_pair_elem.3"*, %"struct.std::__1::__compressed_pair_elem.3"** %27, align 8
  %178 = getelementptr inbounds %"struct.std::__1::__compressed_pair_elem.3", %"struct.std::__1::__compressed_pair_elem.3"* %177, i32 0, i32 0, !dbg !6112
  %179 = load %"class.altered_carbon::js::ACAstBaseNode"*, %"class.altered_carbon::js::ACAstBaseNode"** %178, align 8, !dbg !6113
  %180 = bitcast %"class.altered_carbon::js::ACAstBaseNode"* %179 to void (%"class.altered_carbon::js::ACAstBaseNode"*, %"class.std::__1::basic_ostream"*)***, !dbg !6114
  %181 = load void (%"class.altered_carbon::js::ACAstBaseNode"*, %"class.std::__1::basic_ostream"*)**, void (%"class.altered_carbon::js::ACAstBaseNode"*, %"class.std::__1::basic_ostream"*)*** %180, align 8, !dbg !6114
  %182 = getelementptr inbounds void (%"class.altered_carbon::js::ACAstBaseNode"*, %"class.std::__1::basic_ostream"*)*, void (%"class.altered_carbon::js::ACAstBaseNode"*, %"class.std::__1::basic_ostream"*)** %181, i64 8, !dbg !6114
  %183 = load void (%"class.altered_carbon::js::ACAstBaseNode"*, %"class.std::__1::basic_ostream"*)*, void (%"class.altered_carbon::js::ACAstBaseNode"*, %"class.std::__1::basic_ostream"*)** %182, align 8, !dbg !6114
  %184 = load %"class.std::__1::basic_ostream"*, %"class.std::__1::basic_ostream"** %56, align 8, !dbg !6115
  call void %183(%"class.altered_carbon::js::ACAstBaseNode"* %179, %"class.std::__1::basic_ostream"* dereferenceable(160) %184), !dbg !6114
  br label %185, !dbg !6116

; <label>:185:                                    ; preds = %166
  store %"class.std::__1::__wrap_iter"* %60, %"class.std::__1::__wrap_iter"** %36, align 8
  %186 = load %"class.std::__1::__wrap_iter"*, %"class.std::__1::__wrap_iter"** %36, align 8
  %187 = getelementptr inbounds %"class.std::__1::__wrap_iter", %"class.std::__1::__wrap_iter"* %186, i32 0, i32 0, !dbg !6117
  %188 = load %"class.std::__1::unique_ptr.1"*, %"class.std::__1::unique_ptr.1"** %187, align 8, !dbg !6118
  %189 = getelementptr inbounds %"class.std::__1::unique_ptr.1", %"class.std::__1::unique_ptr.1"* %188, i32 1, !dbg !6118
  store %"class.std::__1::unique_ptr.1"* %189, %"class.std::__1::unique_ptr.1"** %187, align 8, !dbg !6118
  br label %135, !dbg !6119, !llvm.loop !6120

; <label>:190:                                    ; preds = %135
  br label %191, !dbg !6122

; <label>:191:                                    ; preds = %190, %5
  %192 = load %"class.std::__1::basic_ostream"*, %"class.std::__1::basic_ostream"** %56, align 8, !dbg !6123
  %193 = load i8*, i8** %58, align 8, !dbg !6124
  %194 = call dereferenceable(160) %"class.std::__1::basic_ostream"* @_ZNSt3__1lsINS_11char_traitsIcEEEERNS_13basic_ostreamIcT_EES6_PKc(%"class.std::__1::basic_ostream"* dereferenceable(160) %192, i8* %193), !dbg !6125
  ret void, !dbg !6126
}

; Function Attrs: noinline nounwind optnone ssp uwtable
define void @_ZNK14altered_carbon2js13ACAstBaseNode8dumpTypeERNSt3__113basic_ostreamIcNS2_11char_traitsIcEEEE(%"class.altered_carbon::js::ACAstBaseNode"*, %"class.std::__1::basic_ostream"* dereferenceable(160)) #1 align 2 !dbg !6127 {
  %3 = alloca %"class.altered_carbon::js::ACAstBaseNode"*, align 8
  %4 = alloca %"class.std::__1::basic_ostream"*, align 8
  store %"class.altered_carbon::js::ACAstBaseNode"* %0, %"class.altered_carbon::js::ACAstBaseNode"** %3, align 8
  call void @llvm.dbg.declare(metadata %"class.altered_carbon::js::ACAstBaseNode"** %3, metadata !6128, metadata !DIExpression()), !dbg !6129
  store %"class.std::__1::basic_ostream"* %1, %"class.std::__1::basic_ostream"** %4, align 8
  call void @llvm.dbg.declare(metadata %"class.std::__1::basic_ostream"** %4, metadata !6130, metadata !DIExpression()), !dbg !6131
  %5 = load %"class.altered_carbon::js::ACAstBaseNode"*, %"class.altered_carbon::js::ACAstBaseNode"** %3, align 8
  %6 = getelementptr inbounds %"class.altered_carbon::js::ACAstBaseNode", %"class.altered_carbon::js::ACAstBaseNode"* %5, i32 0, i32 2, !dbg !6132
  %7 = load i32, i32* %6, align 8, !dbg !6132
  switch i32 %7, label %14 [
    i32 1, label %8
    i32 7, label %11
  ], !dbg !6133

; <label>:8:                                      ; preds = %2
  %9 = load %"class.std::__1::basic_ostream"*, %"class.std::__1::basic_ostream"** %4, align 8, !dbg !6134
  %10 = call dereferenceable(160) %"class.std::__1::basic_ostream"* @_ZNSt3__1lsINS_11char_traitsIcEEEERNS_13basic_ostreamIcT_EES6_PKc(%"class.std::__1::basic_ostream"* dereferenceable(160) %9, i8* getelementptr inbounds ([6 x i8], [6 x i8]* @.str.22, i32 0, i32 0)), !dbg !6136
  br label %17, !dbg !6137

; <label>:11:                                     ; preds = %2
  %12 = load %"class.std::__1::basic_ostream"*, %"class.std::__1::basic_ostream"** %4, align 8, !dbg !6138
  %13 = call dereferenceable(160) %"class.std::__1::basic_ostream"* @_ZNSt3__1lsINS_11char_traitsIcEEEERNS_13basic_ostreamIcT_EES6_PKc(%"class.std::__1::basic_ostream"* dereferenceable(160) %12, i8* getelementptr inbounds ([6 x i8], [6 x i8]* @.str.23, i32 0, i32 0)), !dbg !6139
  br label %17, !dbg !6140

; <label>:14:                                     ; preds = %2
  %15 = load %"class.std::__1::basic_ostream"*, %"class.std::__1::basic_ostream"** %4, align 8, !dbg !6141
  %16 = call dereferenceable(160) %"class.std::__1::basic_ostream"* @_ZNSt3__1lsINS_11char_traitsIcEEEERNS_13basic_ostreamIcT_EES6_PKc(%"class.std::__1::basic_ostream"* dereferenceable(160) %15, i8* getelementptr inbounds ([6 x i8], [6 x i8]* @.str.24, i32 0, i32 0)), !dbg !6142
  br label %17, !dbg !6143

; <label>:17:                                     ; preds = %14, %11, %8
  %18 = load %"class.std::__1::basic_ostream"*, %"class.std::__1::basic_ostream"** %4, align 8, !dbg !6144
  %19 = call dereferenceable(160) %"class.std::__1::basic_ostream"* @_ZNSt3__1lsINS_11char_traitsIcEEEERNS_13basic_ostreamIcT_EES6_PKc(%"class.std::__1::basic_ostream"* dereferenceable(160) %18, i8* getelementptr inbounds ([6 x i8], [6 x i8]* @.str.25, i32 0, i32 0)), !dbg !6145
  %20 = getelementptr inbounds %"class.altered_carbon::js::ACAstBaseNode", %"class.altered_carbon::js::ACAstBaseNode"* %5, i32 0, i32 2, !dbg !6146
  %21 = load i32, i32* %20, align 8, !dbg !6146
  %22 = zext i32 %21 to i64, !dbg !6147
  %23 = getelementptr inbounds [14 x i8*], [14 x i8*]* @_ZN14altered_carbon2js13ACAstBaseNode10NODE_NAMESE, i64 0, i64 %22, !dbg !6147
  %24 = load i8*, i8** %23, align 8, !dbg !6147
  %25 = call dereferenceable(160) %"class.std::__1::basic_ostream"* @_ZNSt3__1lsINS_11char_traitsIcEEEERNS_13basic_ostreamIcT_EES6_PKc(%"class.std::__1::basic_ostream"* dereferenceable(160) %19, i8* %24), !dbg !6148
  %26 = getelementptr inbounds %"class.altered_carbon::js::ACAstBaseNode", %"class.altered_carbon::js::ACAstBaseNode"* %5, i32 0, i32 3, !dbg !6149
  %27 = load i32, i32* %26, align 4, !dbg !6149
  %28 = icmp ne i32 %27, 1, !dbg !6151
  br i1 %28, label %29, label %44, !dbg !6152

; <label>:29:                                     ; preds = %17
  %30 = load %"class.std::__1::basic_ostream"*, %"class.std::__1::basic_ostream"** %4, align 8, !dbg !6153
  %31 = call dereferenceable(160) %"class.std::__1::basic_ostream"* @_ZNSt3__1lsINS_11char_traitsIcEEEERNS_13basic_ostreamIcT_EES6_PKc(%"class.std::__1::basic_ostream"* dereferenceable(160) %30, i8* getelementptr inbounds ([2 x i8], [2 x i8]* @.str.26, i32 0, i32 0)), !dbg !6155
  %32 = getelementptr inbounds %"class.altered_carbon::js::ACAstBaseNode", %"class.altered_carbon::js::ACAstBaseNode"* %5, i32 0, i32 2, !dbg !6156
  %33 = load i32, i32* %32, align 8, !dbg !6156
  %34 = zext i32 %33 to i64, !dbg !6157
  %35 = getelementptr inbounds [14 x i8**], [14 x i8**]* @_ZN14altered_carbon2js13ACAstBaseNode14SUB_NODE_NAMESE, i64 0, i64 %34, !dbg !6157
  %36 = load i8**, i8*** %35, align 8, !dbg !6157
  %37 = getelementptr inbounds %"class.altered_carbon::js::ACAstBaseNode", %"class.altered_carbon::js::ACAstBaseNode"* %5, i32 0, i32 3, !dbg !6158
  %38 = load i32, i32* %37, align 4, !dbg !6158
  %39 = srem i32 %38, 100, !dbg !6159
  %40 = sext i32 %39 to i64, !dbg !6157
  %41 = getelementptr inbounds i8*, i8** %36, i64 %40, !dbg !6157
  %42 = load i8*, i8** %41, align 8, !dbg !6157
  %43 = call dereferenceable(160) %"class.std::__1::basic_ostream"* @_ZNSt3__1lsINS_11char_traitsIcEEEERNS_13basic_ostreamIcT_EES6_PKc(%"class.std::__1::basic_ostream"* dereferenceable(160) %31, i8* %42), !dbg !6160
  br label %44, !dbg !6161

; <label>:44:                                     ; preds = %29, %17
  %45 = load %"class.std::__1::basic_ostream"*, %"class.std::__1::basic_ostream"** %4, align 8, !dbg !6162
  %46 = call dereferenceable(160) %"class.std::__1::basic_ostream"* @_ZNSt3__1lsINS_11char_traitsIcEEEERNS_13basic_ostreamIcT_EES6_PKc(%"class.std::__1::basic_ostream"* dereferenceable(160) %45, i8* getelementptr inbounds ([2 x i8], [2 x i8]* @.str.27, i32 0, i32 0)), !dbg !6163
  ret void, !dbg !6164
}

; Function Attrs: noinline nounwind optnone ssp uwtable
define void @_ZNK14altered_carbon2js13ACAstBaseNode4dumpERNSt3__113basic_ostreamIcNS2_11char_traitsIcEEEE(%"class.altered_carbon::js::ACAstBaseNode"*, %"class.std::__1::basic_ostream"* dereferenceable(160)) unnamed_addr #1 align 2 !dbg !6165 {
  %3 = alloca %"class.altered_carbon::js::ACAstBaseNode"*, align 8
  %4 = alloca %"class.std::__1::basic_ostream"*, align 8
  store %"class.altered_carbon::js::ACAstBaseNode"* %0, %"class.altered_carbon::js::ACAstBaseNode"** %3, align 8
  call void @llvm.dbg.declare(metadata %"class.altered_carbon::js::ACAstBaseNode"** %3, metadata !6166, metadata !DIExpression()), !dbg !6167
  store %"class.std::__1::basic_ostream"* %1, %"class.std::__1::basic_ostream"** %4, align 8
  call void @llvm.dbg.declare(metadata %"class.std::__1::basic_ostream"** %4, metadata !6168, metadata !DIExpression()), !dbg !6169
  %5 = load %"class.altered_carbon::js::ACAstBaseNode"*, %"class.altered_carbon::js::ACAstBaseNode"** %3, align 8
  %6 = load %"class.std::__1::basic_ostream"*, %"class.std::__1::basic_ostream"** %4, align 8, !dbg !6170
  call void @_ZNK14altered_carbon2js13ACAstBaseNode8dumpTypeERNSt3__113basic_ostreamIcNS2_11char_traitsIcEEEE(%"class.altered_carbon::js::ACAstBaseNode"* %5, %"class.std::__1::basic_ostream"* dereferenceable(160) %6), !dbg !6171
  %7 = load %"class.std::__1::basic_ostream"*, %"class.std::__1::basic_ostream"** %4, align 8, !dbg !6172
  %8 = call dereferenceable(160) %"class.std::__1::basic_ostream"* @_ZNSt3__1lsINS_11char_traitsIcEEEERNS_13basic_ostreamIcT_EES6_PKc(%"class.std::__1::basic_ostream"* dereferenceable(160) %7, i8* getelementptr inbounds ([3 x i8], [3 x i8]* @.str.28, i32 0, i32 0)), !dbg !6173
  %9 = bitcast %"class.altered_carbon::js::ACAstBaseNode"* %5 to void (%"class.altered_carbon::js::ACAstBaseNode"*, %"class.std::__1::basic_ostream"*)***, !dbg !6174
  %10 = load void (%"class.altered_carbon::js::ACAstBaseNode"*, %"class.std::__1::basic_ostream"*)**, void (%"class.altered_carbon::js::ACAstBaseNode"*, %"class.std::__1::basic_ostream"*)*** %9, align 8, !dbg !6174
  %11 = getelementptr inbounds void (%"class.altered_carbon::js::ACAstBaseNode"*, %"class.std::__1::basic_ostream"*)*, void (%"class.altered_carbon::js::ACAstBaseNode"*, %"class.std::__1::basic_ostream"*)** %10, i64 11, !dbg !6174
  %12 = load void (%"class.altered_carbon::js::ACAstBaseNode"*, %"class.std::__1::basic_ostream"*)*, void (%"class.altered_carbon::js::ACAstBaseNode"*, %"class.std::__1::basic_ostream"*)** %11, align 8, !dbg !6174
  %13 = load %"class.std::__1::basic_ostream"*, %"class.std::__1::basic_ostream"** %4, align 8, !dbg !6175
  call void %12(%"class.altered_carbon::js::ACAstBaseNode"* %5, %"class.std::__1::basic_ostream"* dereferenceable(160) %13), !dbg !6174
  %14 = load %"class.std::__1::basic_ostream"*, %"class.std::__1::basic_ostream"** %4, align 8, !dbg !6176
  %15 = call dereferenceable(160) %"class.std::__1::basic_ostream"* @_ZNSt3__1lsINS_11char_traitsIcEEEERNS_13basic_ostreamIcT_EES6_PKc(%"class.std::__1::basic_ostream"* dereferenceable(160) %14, i8* getelementptr inbounds ([2 x i8], [2 x i8]* @.str.29, i32 0, i32 0)), !dbg !6177
  ret void, !dbg !6178
}

; Function Attrs: noinline nounwind optnone ssp uwtable
define void @_ZNK14altered_carbon2js13ACAstBaseNode14dumpGraphLabelERNSt3__113basic_ostreamIcNS2_11char_traitsIcEEEE(%"class.altered_carbon::js::ACAstBaseNode"*, %"class.std::__1::basic_ostream"* dereferenceable(160)) unnamed_addr #1 align 2 !dbg !6179 {
  %3 = alloca %"class.altered_carbon::js::ACAstBaseNode"*, align 8
  %4 = alloca %"class.std::__1::basic_ostream"*, align 8
  store %"class.altered_carbon::js::ACAstBaseNode"* %0, %"class.altered_carbon::js::ACAstBaseNode"** %3, align 8
  call void @llvm.dbg.declare(metadata %"class.altered_carbon::js::ACAstBaseNode"** %3, metadata !6180, metadata !DIExpression()), !dbg !6181
  store %"class.std::__1::basic_ostream"* %1, %"class.std::__1::basic_ostream"** %4, align 8
  call void @llvm.dbg.declare(metadata %"class.std::__1::basic_ostream"** %4, metadata !6182, metadata !DIExpression()), !dbg !6183
  %5 = load %"class.altered_carbon::js::ACAstBaseNode"*, %"class.altered_carbon::js::ACAstBaseNode"** %3, align 8
  %6 = load %"class.std::__1::basic_ostream"*, %"class.std::__1::basic_ostream"** %4, align 8, !dbg !6184
  %7 = call dereferenceable(160) %"class.std::__1::basic_ostream"* @_ZNSt3__1lsINS_11char_traitsIcEEEERNS_13basic_ostreamIcT_EES6_PKc(%"class.std::__1::basic_ostream"* dereferenceable(160) %6, i8* getelementptr inbounds ([2 x i8], [2 x i8]* @.str.30, i32 0, i32 0)), !dbg !6185
  ret void, !dbg !6186
}

; Function Attrs: noinline nounwind optnone ssp uwtable
define void @_ZNK14altered_carbon2js13ACAstBaseNode9dumpGraphERNSt3__113basic_ostreamIcNS2_11char_traitsIcEEEE(%"class.altered_carbon::js::ACAstBaseNode"*, %"class.std::__1::basic_ostream"* dereferenceable(160)) unnamed_addr #1 align 2 !dbg !6187 {
  %3 = alloca %"struct.std::__1::__compressed_pair_elem.3"*, align 8
  call void @llvm.dbg.declare(metadata %"struct.std::__1::__compressed_pair_elem.3"** %3, metadata !5797, metadata !DIExpression()), !dbg !6188
  %4 = alloca %"class.std::__1::__compressed_pair.2"*, align 8
  call void @llvm.dbg.declare(metadata %"class.std::__1::__compressed_pair.2"** %4, metadata !5806, metadata !DIExpression()), !dbg !6197
  %5 = alloca %"class.std::__1::unique_ptr.1"*, align 8
  call void @llvm.dbg.declare(metadata %"class.std::__1::unique_ptr.1"** %5, metadata !5809, metadata !DIExpression()), !dbg !6198
  %6 = alloca %"class.std::__1::__wrap_iter"*, align 8
  call void @llvm.dbg.declare(metadata %"class.std::__1::__wrap_iter"** %6, metadata !5984, metadata !DIExpression()), !dbg !6199
  %7 = alloca %"struct.std::__1::__compressed_pair_elem.3"*, align 8
  call void @llvm.dbg.declare(metadata %"struct.std::__1::__compressed_pair_elem.3"** %7, metadata !5797, metadata !DIExpression()), !dbg !6201
  %8 = alloca %"class.std::__1::__compressed_pair.2"*, align 8
  call void @llvm.dbg.declare(metadata %"class.std::__1::__compressed_pair.2"** %8, metadata !5806, metadata !DIExpression()), !dbg !6205
  %9 = alloca %"class.std::__1::unique_ptr.1"*, align 8
  call void @llvm.dbg.declare(metadata %"class.std::__1::unique_ptr.1"** %9, metadata !5850, metadata !DIExpression()), !dbg !6206
  %10 = alloca %"struct.std::__1::__compressed_pair_elem"*, align 8
  call void @llvm.dbg.declare(metadata %"struct.std::__1::__compressed_pair_elem"** %10, metadata !5778, metadata !DIExpression()), !dbg !6207
  %11 = alloca %"class.std::__1::__compressed_pair"*, align 8
  call void @llvm.dbg.declare(metadata %"class.std::__1::__compressed_pair"** %11, metadata !5791, metadata !DIExpression()), !dbg !6213
  %12 = alloca %"class.std::__1::unique_ptr"*, align 8
  call void @llvm.dbg.declare(metadata %"class.std::__1::unique_ptr"** %12, metadata !5794, metadata !DIExpression()), !dbg !6214
  %13 = alloca %"class.std::__1::__wrap_iter"*, align 8
  call void @llvm.dbg.declare(metadata %"class.std::__1::__wrap_iter"** %13, metadata !5984, metadata !DIExpression()), !dbg !6215
  %14 = alloca %"struct.std::__1::__compressed_pair_elem"*, align 8
  call void @llvm.dbg.declare(metadata %"struct.std::__1::__compressed_pair_elem"** %14, metadata !5778, metadata !DIExpression()), !dbg !6217
  %15 = alloca %"class.std::__1::__compressed_pair"*, align 8
  call void @llvm.dbg.declare(metadata %"class.std::__1::__compressed_pair"** %15, metadata !5791, metadata !DIExpression()), !dbg !6221
  %16 = alloca %"class.std::__1::unique_ptr"*, align 8
  call void @llvm.dbg.declare(metadata %"class.std::__1::unique_ptr"** %16, metadata !5817, metadata !DIExpression()), !dbg !6222
  %17 = alloca %"class.std::__1::__wrap_iter"*, align 8
  call void @llvm.dbg.declare(metadata %"class.std::__1::__wrap_iter"** %17, metadata !5958, metadata !DIExpression()), !dbg !6223
  %18 = alloca %"class.std::__1::__wrap_iter"*, align 8
  call void @llvm.dbg.declare(metadata %"class.std::__1::__wrap_iter"** %18, metadata !5958, metadata !DIExpression()), !dbg !6227
  %19 = alloca %"class.std::__1::__wrap_iter"*, align 8
  call void @llvm.dbg.declare(metadata %"class.std::__1::__wrap_iter"** %19, metadata !5976, metadata !DIExpression()), !dbg !6229
  %20 = alloca %"class.std::__1::__wrap_iter"*, align 8
  call void @llvm.dbg.declare(metadata %"class.std::__1::__wrap_iter"** %20, metadata !5978, metadata !DIExpression()), !dbg !6230
  %21 = alloca %"class.std::__1::__wrap_iter"*, align 8
  call void @llvm.dbg.declare(metadata %"class.std::__1::__wrap_iter"** %21, metadata !5980, metadata !DIExpression()), !dbg !6231
  %22 = alloca %"class.std::__1::__wrap_iter"*, align 8
  call void @llvm.dbg.declare(metadata %"class.std::__1::__wrap_iter"** %22, metadata !5982, metadata !DIExpression()), !dbg !6232
  %23 = alloca %"class.std::__1::__wrap_iter"*, align 8
  call void @llvm.dbg.declare(metadata %"class.std::__1::__wrap_iter"** %23, metadata !5934, metadata !DIExpression()), !dbg !6233
  %24 = alloca %"class.std::__1::unique_ptr.1"*, align 8
  call void @llvm.dbg.declare(metadata %"class.std::__1::unique_ptr.1"** %24, metadata !5945, metadata !DIExpression()), !dbg !6238
  %25 = alloca %"class.std::__1::__wrap_iter"*, align 8
  call void @llvm.dbg.declare(metadata %"class.std::__1::__wrap_iter"** %25, metadata !5947, metadata !DIExpression()), !dbg !6239
  %26 = alloca %"class.std::__1::unique_ptr.1"*, align 8
  call void @llvm.dbg.declare(metadata %"class.std::__1::unique_ptr.1"** %26, metadata !5949, metadata !DIExpression()), !dbg !6240
  %27 = alloca %"class.std::__1::__wrap_iter", align 8
  %28 = alloca %"class.std::__1::vector"*, align 8
  call void @llvm.dbg.declare(metadata %"class.std::__1::vector"** %28, metadata !5951, metadata !DIExpression()), !dbg !6241
  %29 = alloca %"class.std::__1::unique_ptr.1"*, align 8
  call void @llvm.dbg.declare(metadata %"class.std::__1::unique_ptr.1"** %29, metadata !5954, metadata !DIExpression()), !dbg !6242
  %30 = alloca %"class.std::__1::__wrap_iter", align 8
  %31 = alloca %"class.std::__1::vector"*, align 8
  call void @llvm.dbg.declare(metadata %"class.std::__1::vector"** %31, metadata !5956, metadata !DIExpression()), !dbg !6243
  %32 = alloca %"class.std::__1::__wrap_iter"*, align 8
  call void @llvm.dbg.declare(metadata %"class.std::__1::__wrap_iter"** %32, metadata !5984, metadata !DIExpression()), !dbg !6244
  %33 = alloca %"struct.std::__1::__compressed_pair_elem.3"*, align 8
  call void @llvm.dbg.declare(metadata %"struct.std::__1::__compressed_pair_elem.3"** %33, metadata !5797, metadata !DIExpression()), !dbg !6247
  %34 = alloca %"class.std::__1::__compressed_pair.2"*, align 8
  call void @llvm.dbg.declare(metadata %"class.std::__1::__compressed_pair.2"** %34, metadata !5806, metadata !DIExpression()), !dbg !6251
  %35 = alloca %"class.std::__1::unique_ptr.1"*, align 8
  call void @llvm.dbg.declare(metadata %"class.std::__1::unique_ptr.1"** %35, metadata !5809, metadata !DIExpression()), !dbg !6252
  %36 = alloca %"struct.std::__1::__compressed_pair_elem"*, align 8
  call void @llvm.dbg.declare(metadata %"struct.std::__1::__compressed_pair_elem"** %36, metadata !5778, metadata !DIExpression()), !dbg !6253
  %37 = alloca %"class.std::__1::__compressed_pair"*, align 8
  call void @llvm.dbg.declare(metadata %"class.std::__1::__compressed_pair"** %37, metadata !5791, metadata !DIExpression()), !dbg !6257
  %38 = alloca %"class.std::__1::unique_ptr"*, align 8
  call void @llvm.dbg.declare(metadata %"class.std::__1::unique_ptr"** %38, metadata !5794, metadata !DIExpression()), !dbg !6258
  %39 = alloca %"class.std::__1::__wrap_iter"*, align 8
  call void @llvm.dbg.declare(metadata %"class.std::__1::__wrap_iter"** %39, metadata !5934, metadata !DIExpression()), !dbg !6259
  %40 = alloca %"class.std::__1::unique_ptr.1"*, align 8
  call void @llvm.dbg.declare(metadata %"class.std::__1::unique_ptr.1"** %40, metadata !5945, metadata !DIExpression()), !dbg !6264
  %41 = alloca %"class.std::__1::__wrap_iter"*, align 8
  call void @llvm.dbg.declare(metadata %"class.std::__1::__wrap_iter"** %41, metadata !5947, metadata !DIExpression()), !dbg !6265
  %42 = alloca %"class.std::__1::unique_ptr.1"*, align 8
  call void @llvm.dbg.declare(metadata %"class.std::__1::unique_ptr.1"** %42, metadata !5949, metadata !DIExpression()), !dbg !6266
  %43 = alloca %"class.std::__1::__wrap_iter", align 8
  %44 = alloca %"class.std::__1::vector"*, align 8
  call void @llvm.dbg.declare(metadata %"class.std::__1::vector"** %44, metadata !5951, metadata !DIExpression()), !dbg !6267
  %45 = alloca %"class.std::__1::unique_ptr.1"*, align 8
  call void @llvm.dbg.declare(metadata %"class.std::__1::unique_ptr.1"** %45, metadata !5954, metadata !DIExpression()), !dbg !6268
  %46 = alloca %"class.std::__1::__wrap_iter", align 8
  %47 = alloca %"class.std::__1::vector"*, align 8
  call void @llvm.dbg.declare(metadata %"class.std::__1::vector"** %47, metadata !6031, metadata !DIExpression()), !dbg !6269
  %48 = alloca %"class.std::__1::__wrap_iter"*, align 8
  call void @llvm.dbg.declare(metadata %"class.std::__1::__wrap_iter"** %48, metadata !5984, metadata !DIExpression()), !dbg !6270
  %49 = alloca %"struct.std::__1::__compressed_pair_elem.3"*, align 8
  call void @llvm.dbg.declare(metadata %"struct.std::__1::__compressed_pair_elem.3"** %49, metadata !5797, metadata !DIExpression()), !dbg !6272
  %50 = alloca %"class.std::__1::__compressed_pair.2"*, align 8
  call void @llvm.dbg.declare(metadata %"class.std::__1::__compressed_pair.2"** %50, metadata !5806, metadata !DIExpression()), !dbg !6276
  %51 = alloca %"class.std::__1::unique_ptr.1"*, align 8
  call void @llvm.dbg.declare(metadata %"class.std::__1::unique_ptr.1"** %51, metadata !5809, metadata !DIExpression()), !dbg !6277
  %52 = alloca %"struct.std::__1::__compressed_pair_elem"*, align 8
  call void @llvm.dbg.declare(metadata %"struct.std::__1::__compressed_pair_elem"** %52, metadata !5778, metadata !DIExpression()), !dbg !6278
  %53 = alloca %"class.std::__1::__compressed_pair"*, align 8
  call void @llvm.dbg.declare(metadata %"class.std::__1::__compressed_pair"** %53, metadata !5791, metadata !DIExpression()), !dbg !6282
  %54 = alloca %"class.std::__1::unique_ptr"*, align 8
  call void @llvm.dbg.declare(metadata %"class.std::__1::unique_ptr"** %54, metadata !5817, metadata !DIExpression()), !dbg !6283
  %55 = alloca %"struct.std::__1::__compressed_pair_elem"*, align 8
  call void @llvm.dbg.declare(metadata %"struct.std::__1::__compressed_pair_elem"** %55, metadata !5778, metadata !DIExpression()), !dbg !6284
  %56 = alloca %"class.std::__1::__compressed_pair"*, align 8
  call void @llvm.dbg.declare(metadata %"class.std::__1::__compressed_pair"** %56, metadata !5791, metadata !DIExpression()), !dbg !6289
  %57 = alloca %"class.std::__1::unique_ptr"*, align 8
  call void @llvm.dbg.declare(metadata %"class.std::__1::unique_ptr"** %57, metadata !5817, metadata !DIExpression()), !dbg !6290
  %58 = alloca %"class.std::__1::__wrap_iter"*, align 8
  call void @llvm.dbg.declare(metadata %"class.std::__1::__wrap_iter"** %58, metadata !5928, metadata !DIExpression()), !dbg !6291
  %59 = alloca %"struct.std::__1::__compressed_pair_elem"*, align 8
  call void @llvm.dbg.declare(metadata %"struct.std::__1::__compressed_pair_elem"** %59, metadata !5778, metadata !DIExpression()), !dbg !6293
  %60 = alloca %"class.std::__1::__compressed_pair"*, align 8
  call void @llvm.dbg.declare(metadata %"class.std::__1::__compressed_pair"** %60, metadata !5791, metadata !DIExpression()), !dbg !6297
  %61 = alloca %"class.std::__1::unique_ptr"*, align 8
  call void @llvm.dbg.declare(metadata %"class.std::__1::unique_ptr"** %61, metadata !5794, metadata !DIExpression()), !dbg !6298
  %62 = alloca %"class.altered_carbon::js::ACAstBaseNode"*, align 8
  %63 = alloca %"class.std::__1::basic_ostream"*, align 8
  %64 = alloca %"class.std::__1::__wrap_iter", align 8
  %65 = alloca %"class.std::__1::__wrap_iter", align 8
  store %"class.altered_carbon::js::ACAstBaseNode"* %0, %"class.altered_carbon::js::ACAstBaseNode"** %62, align 8
  call void @llvm.dbg.declare(metadata %"class.altered_carbon::js::ACAstBaseNode"** %62, metadata !6299, metadata !DIExpression()), !dbg !6300
  store %"class.std::__1::basic_ostream"* %1, %"class.std::__1::basic_ostream"** %63, align 8
  call void @llvm.dbg.declare(metadata %"class.std::__1::basic_ostream"** %63, metadata !6301, metadata !DIExpression()), !dbg !6302
  %66 = load %"class.altered_carbon::js::ACAstBaseNode"*, %"class.altered_carbon::js::ACAstBaseNode"** %62, align 8
  br label %67, !dbg !6303, !llvm.loop !6304

; <label>:67:                                     ; preds = %2
  %68 = load %"class.std::__1::basic_ostream"*, %"class.std::__1::basic_ostream"** %63, align 8, !dbg !6305
  %69 = call dereferenceable(160) %"class.std::__1::basic_ostream"* @_ZNSt3__1lsINS_11char_traitsIcEEEERNS_13basic_ostreamIcT_EES6_PKc(%"class.std::__1::basic_ostream"* dereferenceable(160) %68, i8* getelementptr inbounds ([5 x i8], [5 x i8]* @.str.16, i32 0, i32 0)), !dbg !6305
  %70 = getelementptr inbounds %"class.altered_carbon::js::ACAstBaseNode", %"class.altered_carbon::js::ACAstBaseNode"* %66, i32 0, i32 1, !dbg !6305
  store %"class.std::__1::unique_ptr"* %70, %"class.std::__1::unique_ptr"** %61, align 8
  %71 = load %"class.std::__1::unique_ptr"*, %"class.std::__1::unique_ptr"** %61, align 8
  %72 = getelementptr inbounds %"class.std::__1::unique_ptr", %"class.std::__1::unique_ptr"* %71, i32 0, i32 0, !dbg !6306
  store %"class.std::__1::__compressed_pair"* %72, %"class.std::__1::__compressed_pair"** %60, align 8
  %73 = load %"class.std::__1::__compressed_pair"*, %"class.std::__1::__compressed_pair"** %60, align 8
  %74 = bitcast %"class.std::__1::__compressed_pair"* %73 to %"struct.std::__1::__compressed_pair_elem"*, !dbg !6307
  store %"struct.std::__1::__compressed_pair_elem"* %74, %"struct.std::__1::__compressed_pair_elem"** %59, align 8
  %75 = load %"struct.std::__1::__compressed_pair_elem"*, %"struct.std::__1::__compressed_pair_elem"** %59, align 8
  %76 = getelementptr inbounds %"struct.std::__1::__compressed_pair_elem", %"struct.std::__1::__compressed_pair_elem"* %75, i32 0, i32 0, !dbg !6308
  %77 = load %"struct.altered_carbon::js::ACLexPosition"*, %"struct.altered_carbon::js::ACLexPosition"** %76, align 8, !dbg !6309
  %78 = getelementptr inbounds %"struct.altered_carbon::js::ACLexPosition", %"struct.altered_carbon::js::ACLexPosition"* %77, i32 0, i32 1, !dbg !6305
  %79 = load i64, i64* %78, align 8, !dbg !6305
  %80 = call dereferenceable(160) %"class.std::__1::basic_ostream"* @_ZNSt3__113basic_ostreamIcNS_11char_traitsIcEEElsEm(%"class.std::__1::basic_ostream"* %69, i64 %79), !dbg !6305
  %81 = call dereferenceable(160) %"class.std::__1::basic_ostream"* @_ZNSt3__1lsINS_11char_traitsIcEEEERNS_13basic_ostreamIcT_EES6_PKc(%"class.std::__1::basic_ostream"* dereferenceable(160) %80, i8* getelementptr inbounds ([2 x i8], [2 x i8]* @.str.17, i32 0, i32 0)), !dbg !6305
  %82 = getelementptr inbounds %"class.altered_carbon::js::ACAstBaseNode", %"class.altered_carbon::js::ACAstBaseNode"* %66, i32 0, i32 1, !dbg !6305
  store %"class.std::__1::unique_ptr"* %82, %"class.std::__1::unique_ptr"** %57, align 8
  %83 = load %"class.std::__1::unique_ptr"*, %"class.std::__1::unique_ptr"** %57, align 8
  %84 = getelementptr inbounds %"class.std::__1::unique_ptr", %"class.std::__1::unique_ptr"* %83, i32 0, i32 0, !dbg !6310
  store %"class.std::__1::__compressed_pair"* %84, %"class.std::__1::__compressed_pair"** %56, align 8
  %85 = load %"class.std::__1::__compressed_pair"*, %"class.std::__1::__compressed_pair"** %56, align 8
  %86 = bitcast %"class.std::__1::__compressed_pair"* %85 to %"struct.std::__1::__compressed_pair_elem"*, !dbg !6311
  store %"struct.std::__1::__compressed_pair_elem"* %86, %"struct.std::__1::__compressed_pair_elem"** %55, align 8
  %87 = load %"struct.std::__1::__compressed_pair_elem"*, %"struct.std::__1::__compressed_pair_elem"** %55, align 8
  %88 = getelementptr inbounds %"struct.std::__1::__compressed_pair_elem", %"struct.std::__1::__compressed_pair_elem"* %87, i32 0, i32 0, !dbg !6312
  %89 = load %"struct.altered_carbon::js::ACLexPosition"*, %"struct.altered_carbon::js::ACLexPosition"** %88, align 8, !dbg !6313
  %90 = ptrtoint %"struct.altered_carbon::js::ACLexPosition"* %89 to i64, !dbg !6305
  %91 = srem i64 %90, 100, !dbg !6305
  %92 = call dereferenceable(160) %"class.std::__1::basic_ostream"* @_ZNSt3__113basic_ostreamIcNS_11char_traitsIcEEElsEx(%"class.std::__1::basic_ostream"* %81, i64 %91), !dbg !6305
  br label %93, !dbg !6305

; <label>:93:                                     ; preds = %67
  %94 = load %"class.std::__1::basic_ostream"*, %"class.std::__1::basic_ostream"** %63, align 8, !dbg !6314
  %95 = call dereferenceable(160) %"class.std::__1::basic_ostream"* @_ZNSt3__1lsINS_11char_traitsIcEEEERNS_13basic_ostreamIcT_EES6_PKc(%"class.std::__1::basic_ostream"* dereferenceable(160) %94, i8* getelementptr inbounds ([10 x i8], [10 x i8]* @.str.19, i32 0, i32 0)), !dbg !6315
  %96 = getelementptr inbounds %"class.altered_carbon::js::ACAstBaseNode", %"class.altered_carbon::js::ACAstBaseNode"* %66, i32 0, i32 2, !dbg !6316
  %97 = load i32, i32* %96, align 8, !dbg !6316
  %98 = zext i32 %97 to i64, !dbg !6317
  %99 = getelementptr inbounds [14 x i8*], [14 x i8*]* @_ZN14altered_carbon2js13ACAstBaseNode10NODE_NAMESE, i64 0, i64 %98, !dbg !6317
  %100 = load i8*, i8** %99, align 8, !dbg !6317
  %101 = call dereferenceable(160) %"class.std::__1::basic_ostream"* @_ZNSt3__1lsINS_11char_traitsIcEEEERNS_13basic_ostreamIcT_EES6_PKc(%"class.std::__1::basic_ostream"* dereferenceable(160) %95, i8* %100), !dbg !6318
  %102 = call dereferenceable(160) %"class.std::__1::basic_ostream"* @_ZNSt3__1lsINS_11char_traitsIcEEEERNS_13basic_ostreamIcT_EES6_PKc(%"class.std::__1::basic_ostream"* dereferenceable(160) %101, i8* getelementptr inbounds ([3 x i8], [3 x i8]* @.str.31, i32 0, i32 0)), !dbg !6319
  %103 = getelementptr inbounds %"class.altered_carbon::js::ACAstBaseNode", %"class.altered_carbon::js::ACAstBaseNode"* %66, i32 0, i32 3, !dbg !6320
  %104 = load i32, i32* %103, align 4, !dbg !6320
  %105 = icmp ne i32 %104, 1, !dbg !6321
  br i1 %105, label %106, label %118, !dbg !6320

; <label>:106:                                    ; preds = %93
  %107 = getelementptr inbounds %"class.altered_carbon::js::ACAstBaseNode", %"class.altered_carbon::js::ACAstBaseNode"* %66, i32 0, i32 2, !dbg !6322
  %108 = load i32, i32* %107, align 8, !dbg !6322
  %109 = zext i32 %108 to i64, !dbg !6323
  %110 = getelementptr inbounds [14 x i8**], [14 x i8**]* @_ZN14altered_carbon2js13ACAstBaseNode14SUB_NODE_NAMESE, i64 0, i64 %109, !dbg !6323
  %111 = load i8**, i8*** %110, align 8, !dbg !6323
  %112 = getelementptr inbounds %"class.altered_carbon::js::ACAstBaseNode", %"class.altered_carbon::js::ACAstBaseNode"* %66, i32 0, i32 3, !dbg !6324
  %113 = load i32, i32* %112, align 4, !dbg !6324
  %114 = srem i32 %113, 100, !dbg !6325
  %115 = sext i32 %114 to i64, !dbg !6323
  %116 = getelementptr inbounds i8*, i8** %111, i64 %115, !dbg !6323
  %117 = load i8*, i8** %116, align 8, !dbg !6323
  br label %119, !dbg !6320

; <label>:118:                                    ; preds = %93
  br label %119, !dbg !6320

; <label>:119:                                    ; preds = %118, %106
  %120 = phi i8* [ %117, %106 ], [ getelementptr inbounds ([8 x i8], [8 x i8]* @.str.32, i32 0, i32 0), %118 ], !dbg !6320
  %121 = call dereferenceable(160) %"class.std::__1::basic_ostream"* @_ZNSt3__1lsINS_11char_traitsIcEEEERNS_13basic_ostreamIcT_EES6_PKc(%"class.std::__1::basic_ostream"* dereferenceable(160) %102, i8* %120), !dbg !6326
  %122 = call dereferenceable(160) %"class.std::__1::basic_ostream"* @_ZNSt3__1lsINS_11char_traitsIcEEEERNS_13basic_ostreamIcT_EES6_PKc(%"class.std::__1::basic_ostream"* dereferenceable(160) %121, i8* getelementptr inbounds ([2 x i8], [2 x i8]* @.str.33, i32 0, i32 0)), !dbg !6327
  %123 = bitcast %"class.altered_carbon::js::ACAstBaseNode"* %66 to void (%"class.altered_carbon::js::ACAstBaseNode"*, %"class.std::__1::basic_ostream"*)***, !dbg !6328
  %124 = load void (%"class.altered_carbon::js::ACAstBaseNode"*, %"class.std::__1::basic_ostream"*)**, void (%"class.altered_carbon::js::ACAstBaseNode"*, %"class.std::__1::basic_ostream"*)*** %123, align 8, !dbg !6328
  %125 = getelementptr inbounds void (%"class.altered_carbon::js::ACAstBaseNode"*, %"class.std::__1::basic_ostream"*)*, void (%"class.altered_carbon::js::ACAstBaseNode"*, %"class.std::__1::basic_ostream"*)** %124, i64 9, !dbg !6328
  %126 = load void (%"class.altered_carbon::js::ACAstBaseNode"*, %"class.std::__1::basic_ostream"*)*, void (%"class.altered_carbon::js::ACAstBaseNode"*, %"class.std::__1::basic_ostream"*)** %125, align 8, !dbg !6328
  %127 = load %"class.std::__1::basic_ostream"*, %"class.std::__1::basic_ostream"** %63, align 8, !dbg !6329
  call void %126(%"class.altered_carbon::js::ACAstBaseNode"* %66, %"class.std::__1::basic_ostream"* dereferenceable(160) %127), !dbg !6328
  %128 = load %"class.std::__1::basic_ostream"*, %"class.std::__1::basic_ostream"** %63, align 8, !dbg !6330
  %129 = call dereferenceable(160) %"class.std::__1::basic_ostream"* @_ZNSt3__1lsINS_11char_traitsIcEEEERNS_13basic_ostreamIcT_EES6_PKc(%"class.std::__1::basic_ostream"* dereferenceable(160) %128, i8* getelementptr inbounds ([5 x i8], [5 x i8]* @.str.34, i32 0, i32 0)), !dbg !6331
  call void @llvm.dbg.declare(metadata %"class.std::__1::__wrap_iter"* %64, metadata !6332, metadata !DIExpression()), !dbg !6333
  %130 = getelementptr inbounds %"class.altered_carbon::js::ACAstBaseNode", %"class.altered_carbon::js::ACAstBaseNode"* %66, i32 0, i32 4, !dbg !6334
  store %"class.std::__1::vector"* %130, %"class.std::__1::vector"** %47, align 8
  %131 = load %"class.std::__1::vector"*, %"class.std::__1::vector"** %47, align 8
  %132 = bitcast %"class.std::__1::vector"* %131 to %"class.std::__1::__vector_base"*, !dbg !6335
  %133 = getelementptr inbounds %"class.std::__1::__vector_base", %"class.std::__1::__vector_base"* %132, i32 0, i32 0, !dbg !6335
  %134 = load %"class.std::__1::unique_ptr.1"*, %"class.std::__1::unique_ptr.1"** %133, align 8, !dbg !6335
  store %"class.std::__1::vector"* %131, %"class.std::__1::vector"** %44, align 8
  store %"class.std::__1::unique_ptr.1"* %134, %"class.std::__1::unique_ptr.1"** %45, align 8
  %135 = load %"class.std::__1::vector"*, %"class.std::__1::vector"** %44, align 8
  %136 = load %"class.std::__1::unique_ptr.1"*, %"class.std::__1::unique_ptr.1"** %45, align 8, !dbg !6336
  store %"class.std::__1::__wrap_iter"* %43, %"class.std::__1::__wrap_iter"** %41, align 8
  store %"class.std::__1::unique_ptr.1"* %136, %"class.std::__1::unique_ptr.1"** %42, align 8
  %137 = load %"class.std::__1::__wrap_iter"*, %"class.std::__1::__wrap_iter"** %41, align 8
  %138 = load %"class.std::__1::unique_ptr.1"*, %"class.std::__1::unique_ptr.1"** %42, align 8, !dbg !6337
  store %"class.std::__1::__wrap_iter"* %137, %"class.std::__1::__wrap_iter"** %39, align 8
  store %"class.std::__1::unique_ptr.1"* %138, %"class.std::__1::unique_ptr.1"** %40, align 8
  %139 = load %"class.std::__1::__wrap_iter"*, %"class.std::__1::__wrap_iter"** %39, align 8
  %140 = getelementptr inbounds %"class.std::__1::__wrap_iter", %"class.std::__1::__wrap_iter"* %139, i32 0, i32 0, !dbg !6338
  %141 = load %"class.std::__1::unique_ptr.1"*, %"class.std::__1::unique_ptr.1"** %40, align 8, !dbg !6339
  store %"class.std::__1::unique_ptr.1"* %141, %"class.std::__1::unique_ptr.1"** %140, align 8, !dbg !6338
  %142 = getelementptr inbounds %"class.std::__1::__wrap_iter", %"class.std::__1::__wrap_iter"* %43, i32 0, i32 0, !dbg !6340
  %143 = load %"class.std::__1::unique_ptr.1"*, %"class.std::__1::unique_ptr.1"** %142, align 8, !dbg !6340
  %144 = getelementptr inbounds %"class.std::__1::__wrap_iter", %"class.std::__1::__wrap_iter"* %46, i32 0, i32 0, !dbg !6341
  store %"class.std::__1::unique_ptr.1"* %143, %"class.std::__1::unique_ptr.1"** %144, align 8, !dbg !6341
  %145 = getelementptr inbounds %"class.std::__1::__wrap_iter", %"class.std::__1::__wrap_iter"* %46, i32 0, i32 0, !dbg !6342
  %146 = load %"class.std::__1::unique_ptr.1"*, %"class.std::__1::unique_ptr.1"** %145, align 8, !dbg !6342
  %147 = getelementptr inbounds %"class.std::__1::__wrap_iter", %"class.std::__1::__wrap_iter"* %64, i32 0, i32 0, !dbg !6343
  store %"class.std::__1::unique_ptr.1"* %146, %"class.std::__1::unique_ptr.1"** %147, align 8, !dbg !6343
  br label %148, !dbg !6344

; <label>:148:                                    ; preds = %288, %119
  %149 = getelementptr inbounds %"class.altered_carbon::js::ACAstBaseNode", %"class.altered_carbon::js::ACAstBaseNode"* %66, i32 0, i32 4, !dbg !6345
  store %"class.std::__1::vector"* %149, %"class.std::__1::vector"** %31, align 8
  %150 = load %"class.std::__1::vector"*, %"class.std::__1::vector"** %31, align 8
  %151 = bitcast %"class.std::__1::vector"* %150 to %"class.std::__1::__vector_base"*, !dbg !6346
  %152 = getelementptr inbounds %"class.std::__1::__vector_base", %"class.std::__1::__vector_base"* %151, i32 0, i32 1, !dbg !6346
  %153 = load %"class.std::__1::unique_ptr.1"*, %"class.std::__1::unique_ptr.1"** %152, align 8, !dbg !6346
  store %"class.std::__1::vector"* %150, %"class.std::__1::vector"** %28, align 8
  store %"class.std::__1::unique_ptr.1"* %153, %"class.std::__1::unique_ptr.1"** %29, align 8
  %154 = load %"class.std::__1::vector"*, %"class.std::__1::vector"** %28, align 8
  %155 = load %"class.std::__1::unique_ptr.1"*, %"class.std::__1::unique_ptr.1"** %29, align 8, !dbg !6347
  store %"class.std::__1::__wrap_iter"* %27, %"class.std::__1::__wrap_iter"** %25, align 8
  store %"class.std::__1::unique_ptr.1"* %155, %"class.std::__1::unique_ptr.1"** %26, align 8
  %156 = load %"class.std::__1::__wrap_iter"*, %"class.std::__1::__wrap_iter"** %25, align 8
  %157 = load %"class.std::__1::unique_ptr.1"*, %"class.std::__1::unique_ptr.1"** %26, align 8, !dbg !6348
  store %"class.std::__1::__wrap_iter"* %156, %"class.std::__1::__wrap_iter"** %23, align 8
  store %"class.std::__1::unique_ptr.1"* %157, %"class.std::__1::unique_ptr.1"** %24, align 8
  %158 = load %"class.std::__1::__wrap_iter"*, %"class.std::__1::__wrap_iter"** %23, align 8
  %159 = getelementptr inbounds %"class.std::__1::__wrap_iter", %"class.std::__1::__wrap_iter"* %158, i32 0, i32 0, !dbg !6349
  %160 = load %"class.std::__1::unique_ptr.1"*, %"class.std::__1::unique_ptr.1"** %24, align 8, !dbg !6350
  store %"class.std::__1::unique_ptr.1"* %160, %"class.std::__1::unique_ptr.1"** %159, align 8, !dbg !6349
  %161 = getelementptr inbounds %"class.std::__1::__wrap_iter", %"class.std::__1::__wrap_iter"* %27, i32 0, i32 0, !dbg !6351
  %162 = load %"class.std::__1::unique_ptr.1"*, %"class.std::__1::unique_ptr.1"** %161, align 8, !dbg !6351
  %163 = getelementptr inbounds %"class.std::__1::__wrap_iter", %"class.std::__1::__wrap_iter"* %30, i32 0, i32 0, !dbg !6352
  store %"class.std::__1::unique_ptr.1"* %162, %"class.std::__1::unique_ptr.1"** %163, align 8, !dbg !6352
  %164 = getelementptr inbounds %"class.std::__1::__wrap_iter", %"class.std::__1::__wrap_iter"* %30, i32 0, i32 0, !dbg !6353
  %165 = load %"class.std::__1::unique_ptr.1"*, %"class.std::__1::unique_ptr.1"** %164, align 8, !dbg !6353
  %166 = getelementptr inbounds %"class.std::__1::__wrap_iter", %"class.std::__1::__wrap_iter"* %65, i32 0, i32 0, !dbg !6354
  store %"class.std::__1::unique_ptr.1"* %165, %"class.std::__1::unique_ptr.1"** %166, align 8, !dbg !6354
  store %"class.std::__1::__wrap_iter"* %64, %"class.std::__1::__wrap_iter"** %21, align 8
  store %"class.std::__1::__wrap_iter"* %65, %"class.std::__1::__wrap_iter"** %22, align 8
  %167 = load %"class.std::__1::__wrap_iter"*, %"class.std::__1::__wrap_iter"** %21, align 8, !dbg !6355
  %168 = load %"class.std::__1::__wrap_iter"*, %"class.std::__1::__wrap_iter"** %22, align 8, !dbg !6356
  store %"class.std::__1::__wrap_iter"* %167, %"class.std::__1::__wrap_iter"** %19, align 8
  store %"class.std::__1::__wrap_iter"* %168, %"class.std::__1::__wrap_iter"** %20, align 8
  %169 = load %"class.std::__1::__wrap_iter"*, %"class.std::__1::__wrap_iter"** %19, align 8, !dbg !6357
  store %"class.std::__1::__wrap_iter"* %169, %"class.std::__1::__wrap_iter"** %18, align 8
  %170 = load %"class.std::__1::__wrap_iter"*, %"class.std::__1::__wrap_iter"** %18, align 8
  %171 = getelementptr inbounds %"class.std::__1::__wrap_iter", %"class.std::__1::__wrap_iter"* %170, i32 0, i32 0, !dbg !6358
  %172 = load %"class.std::__1::unique_ptr.1"*, %"class.std::__1::unique_ptr.1"** %171, align 8, !dbg !6358
  %173 = load %"class.std::__1::__wrap_iter"*, %"class.std::__1::__wrap_iter"** %20, align 8, !dbg !6359
  store %"class.std::__1::__wrap_iter"* %173, %"class.std::__1::__wrap_iter"** %17, align 8
  %174 = load %"class.std::__1::__wrap_iter"*, %"class.std::__1::__wrap_iter"** %17, align 8
  %175 = getelementptr inbounds %"class.std::__1::__wrap_iter", %"class.std::__1::__wrap_iter"* %174, i32 0, i32 0, !dbg !6360
  %176 = load %"class.std::__1::unique_ptr.1"*, %"class.std::__1::unique_ptr.1"** %175, align 8, !dbg !6360
  %177 = icmp eq %"class.std::__1::unique_ptr.1"* %172, %176, !dbg !6361
  %178 = xor i1 %177, true, !dbg !6362
  br i1 %178, label %179, label %293, !dbg !6363

; <label>:179:                                    ; preds = %148
  store %"class.std::__1::__wrap_iter"* %64, %"class.std::__1::__wrap_iter"** %13, align 8
  %180 = load %"class.std::__1::__wrap_iter"*, %"class.std::__1::__wrap_iter"** %13, align 8
  %181 = getelementptr inbounds %"class.std::__1::__wrap_iter", %"class.std::__1::__wrap_iter"* %180, i32 0, i32 0, !dbg !6364
  %182 = load %"class.std::__1::unique_ptr.1"*, %"class.std::__1::unique_ptr.1"** %181, align 8, !dbg !6364
  store %"class.std::__1::unique_ptr.1"* %182, %"class.std::__1::unique_ptr.1"** %9, align 8
  %183 = load %"class.std::__1::unique_ptr.1"*, %"class.std::__1::unique_ptr.1"** %9, align 8
  %184 = getelementptr inbounds %"class.std::__1::unique_ptr.1", %"class.std::__1::unique_ptr.1"* %183, i32 0, i32 0, !dbg !6365
  store %"class.std::__1::__compressed_pair.2"* %184, %"class.std::__1::__compressed_pair.2"** %8, align 8
  %185 = load %"class.std::__1::__compressed_pair.2"*, %"class.std::__1::__compressed_pair.2"** %8, align 8
  %186 = bitcast %"class.std::__1::__compressed_pair.2"* %185 to %"struct.std::__1::__compressed_pair_elem.3"*, !dbg !6366
  store %"struct.std::__1::__compressed_pair_elem.3"* %186, %"struct.std::__1::__compressed_pair_elem.3"** %7, align 8
  %187 = load %"struct.std::__1::__compressed_pair_elem.3"*, %"struct.std::__1::__compressed_pair_elem.3"** %7, align 8
  %188 = getelementptr inbounds %"struct.std::__1::__compressed_pair_elem.3", %"struct.std::__1::__compressed_pair_elem.3"* %187, i32 0, i32 0, !dbg !6367
  %189 = load %"class.altered_carbon::js::ACAstBaseNode"*, %"class.altered_carbon::js::ACAstBaseNode"** %188, align 8, !dbg !6368
  %190 = icmp ne %"class.altered_carbon::js::ACAstBaseNode"* %189, null, !dbg !6369
  br i1 %190, label %191, label %287, !dbg !6370

; <label>:191:                                    ; preds = %179
  store %"class.std::__1::__wrap_iter"* %64, %"class.std::__1::__wrap_iter"** %6, align 8
  %192 = load %"class.std::__1::__wrap_iter"*, %"class.std::__1::__wrap_iter"** %6, align 8
  %193 = getelementptr inbounds %"class.std::__1::__wrap_iter", %"class.std::__1::__wrap_iter"* %192, i32 0, i32 0, !dbg !6371
  %194 = load %"class.std::__1::unique_ptr.1"*, %"class.std::__1::unique_ptr.1"** %193, align 8, !dbg !6371
  store %"class.std::__1::unique_ptr.1"* %194, %"class.std::__1::unique_ptr.1"** %5, align 8
  %195 = load %"class.std::__1::unique_ptr.1"*, %"class.std::__1::unique_ptr.1"** %5, align 8
  %196 = getelementptr inbounds %"class.std::__1::unique_ptr.1", %"class.std::__1::unique_ptr.1"* %195, i32 0, i32 0, !dbg !6372
  store %"class.std::__1::__compressed_pair.2"* %196, %"class.std::__1::__compressed_pair.2"** %4, align 8
  %197 = load %"class.std::__1::__compressed_pair.2"*, %"class.std::__1::__compressed_pair.2"** %4, align 8
  %198 = bitcast %"class.std::__1::__compressed_pair.2"* %197 to %"struct.std::__1::__compressed_pair_elem.3"*, !dbg !6373
  store %"struct.std::__1::__compressed_pair_elem.3"* %198, %"struct.std::__1::__compressed_pair_elem.3"** %3, align 8
  %199 = load %"struct.std::__1::__compressed_pair_elem.3"*, %"struct.std::__1::__compressed_pair_elem.3"** %3, align 8
  %200 = getelementptr inbounds %"struct.std::__1::__compressed_pair_elem.3", %"struct.std::__1::__compressed_pair_elem.3"* %199, i32 0, i32 0, !dbg !6374
  %201 = load %"class.altered_carbon::js::ACAstBaseNode"*, %"class.altered_carbon::js::ACAstBaseNode"** %200, align 8, !dbg !6375
  %202 = bitcast %"class.altered_carbon::js::ACAstBaseNode"* %201 to void (%"class.altered_carbon::js::ACAstBaseNode"*, %"class.std::__1::basic_ostream"*)***, !dbg !6376
  %203 = load void (%"class.altered_carbon::js::ACAstBaseNode"*, %"class.std::__1::basic_ostream"*)**, void (%"class.altered_carbon::js::ACAstBaseNode"*, %"class.std::__1::basic_ostream"*)*** %202, align 8, !dbg !6376
  %204 = getelementptr inbounds void (%"class.altered_carbon::js::ACAstBaseNode"*, %"class.std::__1::basic_ostream"*)*, void (%"class.altered_carbon::js::ACAstBaseNode"*, %"class.std::__1::basic_ostream"*)** %203, i64 10, !dbg !6376
  %205 = load void (%"class.altered_carbon::js::ACAstBaseNode"*, %"class.std::__1::basic_ostream"*)*, void (%"class.altered_carbon::js::ACAstBaseNode"*, %"class.std::__1::basic_ostream"*)** %204, align 8, !dbg !6376
  %206 = load %"class.std::__1::basic_ostream"*, %"class.std::__1::basic_ostream"** %63, align 8, !dbg !6377
  call void %205(%"class.altered_carbon::js::ACAstBaseNode"* %201, %"class.std::__1::basic_ostream"* dereferenceable(160) %206), !dbg !6376
  br label %207, !dbg !6378, !llvm.loop !6379

; <label>:207:                                    ; preds = %191
  br label %208, !dbg !6380, !llvm.loop !6381

; <label>:208:                                    ; preds = %207
  %209 = load %"class.std::__1::basic_ostream"*, %"class.std::__1::basic_ostream"** %63, align 8, !dbg !6382
  %210 = call dereferenceable(160) %"class.std::__1::basic_ostream"* @_ZNSt3__1lsINS_11char_traitsIcEEEERNS_13basic_ostreamIcT_EES6_PKc(%"class.std::__1::basic_ostream"* dereferenceable(160) %209, i8* getelementptr inbounds ([5 x i8], [5 x i8]* @.str.16, i32 0, i32 0)), !dbg !6382
  %211 = getelementptr inbounds %"class.altered_carbon::js::ACAstBaseNode", %"class.altered_carbon::js::ACAstBaseNode"* %66, i32 0, i32 1, !dbg !6382
  store %"class.std::__1::unique_ptr"* %211, %"class.std::__1::unique_ptr"** %12, align 8
  %212 = load %"class.std::__1::unique_ptr"*, %"class.std::__1::unique_ptr"** %12, align 8
  %213 = getelementptr inbounds %"class.std::__1::unique_ptr", %"class.std::__1::unique_ptr"* %212, i32 0, i32 0, !dbg !6383
  store %"class.std::__1::__compressed_pair"* %213, %"class.std::__1::__compressed_pair"** %11, align 8
  %214 = load %"class.std::__1::__compressed_pair"*, %"class.std::__1::__compressed_pair"** %11, align 8
  %215 = bitcast %"class.std::__1::__compressed_pair"* %214 to %"struct.std::__1::__compressed_pair_elem"*, !dbg !6384
  store %"struct.std::__1::__compressed_pair_elem"* %215, %"struct.std::__1::__compressed_pair_elem"** %10, align 8
  %216 = load %"struct.std::__1::__compressed_pair_elem"*, %"struct.std::__1::__compressed_pair_elem"** %10, align 8
  %217 = getelementptr inbounds %"struct.std::__1::__compressed_pair_elem", %"struct.std::__1::__compressed_pair_elem"* %216, i32 0, i32 0, !dbg !6385
  %218 = load %"struct.altered_carbon::js::ACLexPosition"*, %"struct.altered_carbon::js::ACLexPosition"** %217, align 8, !dbg !6386
  %219 = getelementptr inbounds %"struct.altered_carbon::js::ACLexPosition", %"struct.altered_carbon::js::ACLexPosition"* %218, i32 0, i32 1, !dbg !6382
  %220 = load i64, i64* %219, align 8, !dbg !6382
  %221 = call dereferenceable(160) %"class.std::__1::basic_ostream"* @_ZNSt3__113basic_ostreamIcNS_11char_traitsIcEEElsEm(%"class.std::__1::basic_ostream"* %210, i64 %220), !dbg !6382
  %222 = call dereferenceable(160) %"class.std::__1::basic_ostream"* @_ZNSt3__1lsINS_11char_traitsIcEEEERNS_13basic_ostreamIcT_EES6_PKc(%"class.std::__1::basic_ostream"* dereferenceable(160) %221, i8* getelementptr inbounds ([2 x i8], [2 x i8]* @.str.17, i32 0, i32 0)), !dbg !6382
  %223 = getelementptr inbounds %"class.altered_carbon::js::ACAstBaseNode", %"class.altered_carbon::js::ACAstBaseNode"* %66, i32 0, i32 1, !dbg !6382
  store %"class.std::__1::unique_ptr"* %223, %"class.std::__1::unique_ptr"** %16, align 8
  %224 = load %"class.std::__1::unique_ptr"*, %"class.std::__1::unique_ptr"** %16, align 8
  %225 = getelementptr inbounds %"class.std::__1::unique_ptr", %"class.std::__1::unique_ptr"* %224, i32 0, i32 0, !dbg !6387
  store %"class.std::__1::__compressed_pair"* %225, %"class.std::__1::__compressed_pair"** %15, align 8
  %226 = load %"class.std::__1::__compressed_pair"*, %"class.std::__1::__compressed_pair"** %15, align 8
  %227 = bitcast %"class.std::__1::__compressed_pair"* %226 to %"struct.std::__1::__compressed_pair_elem"*, !dbg !6388
  store %"struct.std::__1::__compressed_pair_elem"* %227, %"struct.std::__1::__compressed_pair_elem"** %14, align 8
  %228 = load %"struct.std::__1::__compressed_pair_elem"*, %"struct.std::__1::__compressed_pair_elem"** %14, align 8
  %229 = getelementptr inbounds %"struct.std::__1::__compressed_pair_elem", %"struct.std::__1::__compressed_pair_elem"* %228, i32 0, i32 0, !dbg !6389
  %230 = load %"struct.altered_carbon::js::ACLexPosition"*, %"struct.altered_carbon::js::ACLexPosition"** %229, align 8, !dbg !6390
  %231 = ptrtoint %"struct.altered_carbon::js::ACLexPosition"* %230 to i64, !dbg !6382
  %232 = srem i64 %231, 100, !dbg !6382
  %233 = call dereferenceable(160) %"class.std::__1::basic_ostream"* @_ZNSt3__113basic_ostreamIcNS_11char_traitsIcEEElsEx(%"class.std::__1::basic_ostream"* %222, i64 %232), !dbg !6382
  br label %234, !dbg !6382

; <label>:234:                                    ; preds = %208
  %235 = load %"class.std::__1::basic_ostream"*, %"class.std::__1::basic_ostream"** %63, align 8, !dbg !6380
  %236 = call dereferenceable(160) %"class.std::__1::basic_ostream"* @_ZNSt3__1lsINS_11char_traitsIcEEEERNS_13basic_ostreamIcT_EES6_PKc(%"class.std::__1::basic_ostream"* dereferenceable(160) %235, i8* getelementptr inbounds ([5 x i8], [5 x i8]* @.str.18, i32 0, i32 0)), !dbg !6380
  br label %237, !dbg !6380, !llvm.loop !6391

; <label>:237:                                    ; preds = %234
  %238 = load %"class.std::__1::basic_ostream"*, %"class.std::__1::basic_ostream"** %63, align 8, !dbg !6392
  %239 = call dereferenceable(160) %"class.std::__1::basic_ostream"* @_ZNSt3__1lsINS_11char_traitsIcEEEERNS_13basic_ostreamIcT_EES6_PKc(%"class.std::__1::basic_ostream"* dereferenceable(160) %238, i8* getelementptr inbounds ([5 x i8], [5 x i8]* @.str.16, i32 0, i32 0)), !dbg !6392
  store %"class.std::__1::__wrap_iter"* %64, %"class.std::__1::__wrap_iter"** %32, align 8
  %240 = load %"class.std::__1::__wrap_iter"*, %"class.std::__1::__wrap_iter"** %32, align 8
  %241 = getelementptr inbounds %"class.std::__1::__wrap_iter", %"class.std::__1::__wrap_iter"* %240, i32 0, i32 0, !dbg !6393
  %242 = load %"class.std::__1::unique_ptr.1"*, %"class.std::__1::unique_ptr.1"** %241, align 8, !dbg !6393
  store %"class.std::__1::unique_ptr.1"* %242, %"class.std::__1::unique_ptr.1"** %35, align 8
  %243 = load %"class.std::__1::unique_ptr.1"*, %"class.std::__1::unique_ptr.1"** %35, align 8
  %244 = getelementptr inbounds %"class.std::__1::unique_ptr.1", %"class.std::__1::unique_ptr.1"* %243, i32 0, i32 0, !dbg !6394
  store %"class.std::__1::__compressed_pair.2"* %244, %"class.std::__1::__compressed_pair.2"** %34, align 8
  %245 = load %"class.std::__1::__compressed_pair.2"*, %"class.std::__1::__compressed_pair.2"** %34, align 8
  %246 = bitcast %"class.std::__1::__compressed_pair.2"* %245 to %"struct.std::__1::__compressed_pair_elem.3"*, !dbg !6395
  store %"struct.std::__1::__compressed_pair_elem.3"* %246, %"struct.std::__1::__compressed_pair_elem.3"** %33, align 8
  %247 = load %"struct.std::__1::__compressed_pair_elem.3"*, %"struct.std::__1::__compressed_pair_elem.3"** %33, align 8
  %248 = getelementptr inbounds %"struct.std::__1::__compressed_pair_elem.3", %"struct.std::__1::__compressed_pair_elem.3"* %247, i32 0, i32 0, !dbg !6396
  %249 = load %"class.altered_carbon::js::ACAstBaseNode"*, %"class.altered_carbon::js::ACAstBaseNode"** %248, align 8, !dbg !6397
  %250 = getelementptr inbounds %"class.altered_carbon::js::ACAstBaseNode", %"class.altered_carbon::js::ACAstBaseNode"* %249, i32 0, i32 1, !dbg !6392
  store %"class.std::__1::unique_ptr"* %250, %"class.std::__1::unique_ptr"** %38, align 8
  %251 = load %"class.std::__1::unique_ptr"*, %"class.std::__1::unique_ptr"** %38, align 8
  %252 = getelementptr inbounds %"class.std::__1::unique_ptr", %"class.std::__1::unique_ptr"* %251, i32 0, i32 0, !dbg !6398
  store %"class.std::__1::__compressed_pair"* %252, %"class.std::__1::__compressed_pair"** %37, align 8
  %253 = load %"class.std::__1::__compressed_pair"*, %"class.std::__1::__compressed_pair"** %37, align 8
  %254 = bitcast %"class.std::__1::__compressed_pair"* %253 to %"struct.std::__1::__compressed_pair_elem"*, !dbg !6399
  store %"struct.std::__1::__compressed_pair_elem"* %254, %"struct.std::__1::__compressed_pair_elem"** %36, align 8
  %255 = load %"struct.std::__1::__compressed_pair_elem"*, %"struct.std::__1::__compressed_pair_elem"** %36, align 8
  %256 = getelementptr inbounds %"struct.std::__1::__compressed_pair_elem", %"struct.std::__1::__compressed_pair_elem"* %255, i32 0, i32 0, !dbg !6400
  %257 = load %"struct.altered_carbon::js::ACLexPosition"*, %"struct.altered_carbon::js::ACLexPosition"** %256, align 8, !dbg !6401
  %258 = getelementptr inbounds %"struct.altered_carbon::js::ACLexPosition", %"struct.altered_carbon::js::ACLexPosition"* %257, i32 0, i32 1, !dbg !6392
  %259 = load i64, i64* %258, align 8, !dbg !6392
  %260 = call dereferenceable(160) %"class.std::__1::basic_ostream"* @_ZNSt3__113basic_ostreamIcNS_11char_traitsIcEEElsEm(%"class.std::__1::basic_ostream"* %239, i64 %259), !dbg !6392
  %261 = call dereferenceable(160) %"class.std::__1::basic_ostream"* @_ZNSt3__1lsINS_11char_traitsIcEEEERNS_13basic_ostreamIcT_EES6_PKc(%"class.std::__1::basic_ostream"* dereferenceable(160) %260, i8* getelementptr inbounds ([2 x i8], [2 x i8]* @.str.17, i32 0, i32 0)), !dbg !6392
  store %"class.std::__1::__wrap_iter"* %64, %"class.std::__1::__wrap_iter"** %48, align 8
  %262 = load %"class.std::__1::__wrap_iter"*, %"class.std::__1::__wrap_iter"** %48, align 8
  %263 = getelementptr inbounds %"class.std::__1::__wrap_iter", %"class.std::__1::__wrap_iter"* %262, i32 0, i32 0, !dbg !6402
  %264 = load %"class.std::__1::unique_ptr.1"*, %"class.std::__1::unique_ptr.1"** %263, align 8, !dbg !6402
  store %"class.std::__1::unique_ptr.1"* %264, %"class.std::__1::unique_ptr.1"** %51, align 8
  %265 = load %"class.std::__1::unique_ptr.1"*, %"class.std::__1::unique_ptr.1"** %51, align 8
  %266 = getelementptr inbounds %"class.std::__1::unique_ptr.1", %"class.std::__1::unique_ptr.1"* %265, i32 0, i32 0, !dbg !6403
  store %"class.std::__1::__compressed_pair.2"* %266, %"class.std::__1::__compressed_pair.2"** %50, align 8
  %267 = load %"class.std::__1::__compressed_pair.2"*, %"class.std::__1::__compressed_pair.2"** %50, align 8
  %268 = bitcast %"class.std::__1::__compressed_pair.2"* %267 to %"struct.std::__1::__compressed_pair_elem.3"*, !dbg !6404
  store %"struct.std::__1::__compressed_pair_elem.3"* %268, %"struct.std::__1::__compressed_pair_elem.3"** %49, align 8
  %269 = load %"struct.std::__1::__compressed_pair_elem.3"*, %"struct.std::__1::__compressed_pair_elem.3"** %49, align 8
  %270 = getelementptr inbounds %"struct.std::__1::__compressed_pair_elem.3", %"struct.std::__1::__compressed_pair_elem.3"* %269, i32 0, i32 0, !dbg !6405
  %271 = load %"class.altered_carbon::js::ACAstBaseNode"*, %"class.altered_carbon::js::ACAstBaseNode"** %270, align 8, !dbg !6406
  %272 = getelementptr inbounds %"class.altered_carbon::js::ACAstBaseNode", %"class.altered_carbon::js::ACAstBaseNode"* %271, i32 0, i32 1, !dbg !6392
  store %"class.std::__1::unique_ptr"* %272, %"class.std::__1::unique_ptr"** %54, align 8
  %273 = load %"class.std::__1::unique_ptr"*, %"class.std::__1::unique_ptr"** %54, align 8
  %274 = getelementptr inbounds %"class.std::__1::unique_ptr", %"class.std::__1::unique_ptr"* %273, i32 0, i32 0, !dbg !6407
  store %"class.std::__1::__compressed_pair"* %274, %"class.std::__1::__compressed_pair"** %53, align 8
  %275 = load %"class.std::__1::__compressed_pair"*, %"class.std::__1::__compressed_pair"** %53, align 8
  %276 = bitcast %"class.std::__1::__compressed_pair"* %275 to %"struct.std::__1::__compressed_pair_elem"*, !dbg !6408
  store %"struct.std::__1::__compressed_pair_elem"* %276, %"struct.std::__1::__compressed_pair_elem"** %52, align 8
  %277 = load %"struct.std::__1::__compressed_pair_elem"*, %"struct.std::__1::__compressed_pair_elem"** %52, align 8
  %278 = getelementptr inbounds %"struct.std::__1::__compressed_pair_elem", %"struct.std::__1::__compressed_pair_elem"* %277, i32 0, i32 0, !dbg !6409
  %279 = load %"struct.altered_carbon::js::ACLexPosition"*, %"struct.altered_carbon::js::ACLexPosition"** %278, align 8, !dbg !6410
  %280 = ptrtoint %"struct.altered_carbon::js::ACLexPosition"* %279 to i64, !dbg !6392
  %281 = srem i64 %280, 100, !dbg !6392
  %282 = call dereferenceable(160) %"class.std::__1::basic_ostream"* @_ZNSt3__113basic_ostreamIcNS_11char_traitsIcEEElsEx(%"class.std::__1::basic_ostream"* %261, i64 %281), !dbg !6392
  br label %283, !dbg !6392

; <label>:283:                                    ; preds = %237
  br label %284, !dbg !6380

; <label>:284:                                    ; preds = %283
  %285 = load %"class.std::__1::basic_ostream"*, %"class.std::__1::basic_ostream"** %63, align 8, !dbg !6411
  %286 = call dereferenceable(160) %"class.std::__1::basic_ostream"* @_ZNSt3__1lsINS_11char_traitsIcEEEERNS_13basic_ostreamIcT_EES6_PKc(%"class.std::__1::basic_ostream"* dereferenceable(160) %285, i8* getelementptr inbounds ([3 x i8], [3 x i8]* @.str.21, i32 0, i32 0)), !dbg !6412
  br label %287, !dbg !6413

; <label>:287:                                    ; preds = %284, %179
  br label %288, !dbg !6414

; <label>:288:                                    ; preds = %287
  store %"class.std::__1::__wrap_iter"* %64, %"class.std::__1::__wrap_iter"** %58, align 8
  %289 = load %"class.std::__1::__wrap_iter"*, %"class.std::__1::__wrap_iter"** %58, align 8
  %290 = getelementptr inbounds %"class.std::__1::__wrap_iter", %"class.std::__1::__wrap_iter"* %289, i32 0, i32 0, !dbg !6415
  %291 = load %"class.std::__1::unique_ptr.1"*, %"class.std::__1::unique_ptr.1"** %290, align 8, !dbg !6416
  %292 = getelementptr inbounds %"class.std::__1::unique_ptr.1", %"class.std::__1::unique_ptr.1"* %291, i32 1, !dbg !6416
  store %"class.std::__1::unique_ptr.1"* %292, %"class.std::__1::unique_ptr.1"** %290, align 8, !dbg !6416
  br label %148, !dbg !6417, !llvm.loop !6418

; <label>:293:                                    ; preds = %148
  ret void, !dbg !6420
}

; Function Attrs: noinline nounwind optnone ssp uwtable
define i8* @_ZNK14altered_carbon2js13ACAstBaseNode6acceptEPNS0_14ACAstVisitableE(%"class.altered_carbon::js::ACAstBaseNode"*, %"class.altered_carbon::js::ACAstVisitable"*) unnamed_addr #1 align 2 !dbg !6421 {
  %3 = alloca %"class.altered_carbon::js::ACAstBaseNode"*, align 8
  %4 = alloca %"class.altered_carbon::js::ACAstVisitable"*, align 8
  store %"class.altered_carbon::js::ACAstBaseNode"* %0, %"class.altered_carbon::js::ACAstBaseNode"** %3, align 8
  call void @llvm.dbg.declare(metadata %"class.altered_carbon::js::ACAstBaseNode"** %3, metadata !6422, metadata !DIExpression()), !dbg !6423
  store %"class.altered_carbon::js::ACAstVisitable"* %1, %"class.altered_carbon::js::ACAstVisitable"** %4, align 8
  call void @llvm.dbg.declare(metadata %"class.altered_carbon::js::ACAstVisitable"** %4, metadata !6424, metadata !DIExpression()), !dbg !6425
  %5 = load %"class.altered_carbon::js::ACAstBaseNode"*, %"class.altered_carbon::js::ACAstBaseNode"** %3, align 8
  %6 = load %"class.altered_carbon::js::ACAstVisitable"*, %"class.altered_carbon::js::ACAstVisitable"** %4, align 8, !dbg !6426
  %7 = bitcast %"class.altered_carbon::js::ACAstVisitable"* %6 to i8* (%"class.altered_carbon::js::ACAstVisitable"*, %"class.altered_carbon::js::ACAstBaseNode"*)***, !dbg !6427
  %8 = load i8* (%"class.altered_carbon::js::ACAstVisitable"*, %"class.altered_carbon::js::ACAstBaseNode"*)**, i8* (%"class.altered_carbon::js::ACAstVisitable"*, %"class.altered_carbon::js::ACAstBaseNode"*)*** %7, align 8, !dbg !6427
  %9 = getelementptr inbounds i8* (%"class.altered_carbon::js::ACAstVisitable"*, %"class.altered_carbon::js::ACAstBaseNode"*)*, i8* (%"class.altered_carbon::js::ACAstVisitable"*, %"class.altered_carbon::js::ACAstBaseNode"*)** %8, i64 4, !dbg !6427
  %10 = load i8* (%"class.altered_carbon::js::ACAstVisitable"*, %"class.altered_carbon::js::ACAstBaseNode"*)*, i8* (%"class.altered_carbon::js::ACAstVisitable"*, %"class.altered_carbon::js::ACAstBaseNode"*)** %9, align 8, !dbg !6427
  %11 = call i8* %10(%"class.altered_carbon::js::ACAstVisitable"* %6, %"class.altered_carbon::js::ACAstBaseNode"* %5), !dbg !6427
  ret i8* %11, !dbg !6428
}

; Function Attrs: noinline nounwind optnone ssp uwtable
define void @_ZN14altered_carbon2js19ACAstExpressionNodeC2ENSt3__110unique_ptrINS0_13ACLexPositionENS2_14default_deleteIS4_EEEENS3_INS0_13ACAstBaseNodeENS5_IS8_EEEENS8_11AstNodeTypeENS8_14AstNodeSubTypeE(%"class.altered_carbon::js::ACAstExpressionNode"*, %"class.std::__1::unique_ptr"*, %"class.std::__1::unique_ptr.1"*, i32, i32) unnamed_addr #1 align 2 !dbg !6429 {
  %6 = alloca %"struct.std::__1::__compressed_pair_elem.0"*, align 8
  call void @llvm.dbg.declare(metadata %"struct.std::__1::__compressed_pair_elem.0"** %6, metadata !5403, metadata !DIExpression()), !dbg !6430
  %7 = alloca %"class.std::__1::__compressed_pair"*, align 8
  call void @llvm.dbg.declare(metadata %"class.std::__1::__compressed_pair"** %7, metadata !5416, metadata !DIExpression()), !dbg !6436
  %8 = alloca %"class.std::__1::unique_ptr"*, align 8
  call void @llvm.dbg.declare(metadata %"class.std::__1::unique_ptr"** %8, metadata !5419, metadata !DIExpression()), !dbg !6437
  %9 = alloca %"struct.std::__1::default_delete"*, align 8
  call void @llvm.dbg.declare(metadata %"struct.std::__1::default_delete"** %9, metadata !5422, metadata !DIExpression()), !dbg !6438
  %10 = alloca %"struct.altered_carbon::js::ACLexPosition"**, align 8
  call void @llvm.dbg.declare(metadata %"struct.altered_carbon::js::ACLexPosition"*** %10, metadata !5433, metadata !DIExpression()), !dbg !6440
  %11 = alloca %"struct.std::__1::__compressed_pair_elem"*, align 8
  call void @llvm.dbg.declare(metadata %"struct.std::__1::__compressed_pair_elem"** %11, metadata !5462, metadata !DIExpression()), !dbg !6445
  %12 = alloca %"struct.altered_carbon::js::ACLexPosition"**, align 8
  call void @llvm.dbg.declare(metadata %"struct.altered_carbon::js::ACLexPosition"*** %12, metadata !5465, metadata !DIExpression()), !dbg !6446
  %13 = alloca %"struct.std::__1::default_delete"*, align 8
  call void @llvm.dbg.declare(metadata %"struct.std::__1::default_delete"** %13, metadata !5422, metadata !DIExpression()), !dbg !6447
  %14 = alloca %"struct.std::__1::default_delete"*, align 8
  call void @llvm.dbg.declare(metadata %"struct.std::__1::default_delete"** %14, metadata !5422, metadata !DIExpression()), !dbg !6449
  %15 = alloca %"struct.std::__1::__compressed_pair_elem.0"*, align 8
  call void @llvm.dbg.declare(metadata %"struct.std::__1::__compressed_pair_elem.0"** %15, metadata !5478, metadata !DIExpression()), !dbg !6452
  %16 = alloca %"struct.std::__1::default_delete"*, align 8
  call void @llvm.dbg.declare(metadata %"struct.std::__1::default_delete"** %16, metadata !5480, metadata !DIExpression()), !dbg !6453
  %17 = alloca %"struct.altered_carbon::js::ACLexPosition"**, align 8
  call void @llvm.dbg.declare(metadata %"struct.altered_carbon::js::ACLexPosition"*** %17, metadata !5433, metadata !DIExpression()), !dbg !6454
  %18 = alloca %"class.std::__1::__compressed_pair"*, align 8
  call void @llvm.dbg.declare(metadata %"class.std::__1::__compressed_pair"** %18, metadata !5484, metadata !DIExpression()), !dbg !6456
  %19 = alloca %"struct.altered_carbon::js::ACLexPosition"**, align 8
  call void @llvm.dbg.declare(metadata %"struct.altered_carbon::js::ACLexPosition"*** %19, metadata !5486, metadata !DIExpression()), !dbg !6457
  %20 = alloca %"struct.std::__1::default_delete"*, align 8
  call void @llvm.dbg.declare(metadata %"struct.std::__1::default_delete"** %20, metadata !5488, metadata !DIExpression()), !dbg !6458
  %21 = alloca %"class.std::__1::__compressed_pair"*, align 8
  call void @llvm.dbg.declare(metadata %"class.std::__1::__compressed_pair"** %21, metadata !5490, metadata !DIExpression()), !dbg !6459
  %22 = alloca %"struct.altered_carbon::js::ACLexPosition"**, align 8
  call void @llvm.dbg.declare(metadata %"struct.altered_carbon::js::ACLexPosition"*** %22, metadata !5492, metadata !DIExpression()), !dbg !6460
  %23 = alloca %"struct.std::__1::default_delete"*, align 8
  call void @llvm.dbg.declare(metadata %"struct.std::__1::default_delete"** %23, metadata !5494, metadata !DIExpression()), !dbg !6461
  %24 = alloca %"struct.std::__1::__compressed_pair_elem"*, align 8
  call void @llvm.dbg.declare(metadata %"struct.std::__1::__compressed_pair_elem"** %24, metadata !5496, metadata !DIExpression()), !dbg !6462
  %25 = alloca %"class.std::__1::__compressed_pair"*, align 8
  call void @llvm.dbg.declare(metadata %"class.std::__1::__compressed_pair"** %25, metadata !5504, metadata !DIExpression()), !dbg !6466
  %26 = alloca %"struct.std::__1::__compressed_pair_elem"*, align 8
  call void @llvm.dbg.declare(metadata %"struct.std::__1::__compressed_pair_elem"** %26, metadata !5496, metadata !DIExpression()), !dbg !6467
  %27 = alloca %"class.std::__1::__compressed_pair"*, align 8
  call void @llvm.dbg.declare(metadata %"class.std::__1::__compressed_pair"** %27, metadata !5504, metadata !DIExpression()), !dbg !6470
  %28 = alloca %"class.std::__1::unique_ptr"*, align 8
  call void @llvm.dbg.declare(metadata %"class.std::__1::unique_ptr"** %28, metadata !5510, metadata !DIExpression()), !dbg !6471
  %29 = alloca %"struct.altered_carbon::js::ACLexPosition"*, align 8
  call void @llvm.dbg.declare(metadata %"struct.altered_carbon::js::ACLexPosition"** %29, metadata !5512, metadata !DIExpression()), !dbg !6472
  %30 = alloca %"class.std::__1::unique_ptr"*, align 8
  call void @llvm.dbg.declare(metadata %"class.std::__1::unique_ptr"** %30, metadata !5514, metadata !DIExpression()), !dbg !6473
  %31 = alloca %"class.std::__1::unique_ptr"*, align 8
  call void @llvm.dbg.declare(metadata %"class.std::__1::unique_ptr"** %31, metadata !5516, metadata !DIExpression()), !dbg !6474
  %32 = alloca %"struct.altered_carbon::js::ACLexPosition"*, align 8
  %33 = alloca %"class.std::__1::unique_ptr"*, align 8
  call void @llvm.dbg.declare(metadata %"class.std::__1::unique_ptr"** %33, metadata !5518, metadata !DIExpression()), !dbg !6475
  %34 = alloca %"class.std::__1::unique_ptr"*, align 8
  call void @llvm.dbg.declare(metadata %"class.std::__1::unique_ptr"** %34, metadata !5520, metadata !DIExpression()), !dbg !6476
  %35 = alloca %"struct.std::__1::__compressed_pair_elem.0"*, align 8
  call void @llvm.dbg.declare(metadata %"struct.std::__1::__compressed_pair_elem.0"** %35, metadata !5403, metadata !DIExpression()), !dbg !6477
  %36 = alloca %"class.std::__1::__compressed_pair"*, align 8
  call void @llvm.dbg.declare(metadata %"class.std::__1::__compressed_pair"** %36, metadata !5416, metadata !DIExpression()), !dbg !6488
  %37 = alloca %"struct.std::__1::__compressed_pair_elem"*, align 8
  call void @llvm.dbg.declare(metadata %"struct.std::__1::__compressed_pair_elem"** %37, metadata !5496, metadata !DIExpression()), !dbg !6489
  %38 = alloca %"class.std::__1::__compressed_pair"*, align 8
  call void @llvm.dbg.declare(metadata %"class.std::__1::__compressed_pair"** %38, metadata !5504, metadata !DIExpression()), !dbg !6492
  %39 = alloca %"struct.std::__1::default_delete"*, align 8
  call void @llvm.dbg.declare(metadata %"struct.std::__1::default_delete"** %39, metadata !6493, metadata !DIExpression()), !dbg !6496
  %40 = alloca %"struct.altered_carbon::js::ACLexPosition"*, align 8
  call void @llvm.dbg.declare(metadata %"struct.altered_carbon::js::ACLexPosition"** %40, metadata !6498, metadata !DIExpression()), !dbg !6499
  %41 = alloca %"struct.std::__1::__compressed_pair_elem"*, align 8
  call void @llvm.dbg.declare(metadata %"struct.std::__1::__compressed_pair_elem"** %41, metadata !5496, metadata !DIExpression()), !dbg !6500
  %42 = alloca %"class.std::__1::__compressed_pair"*, align 8
  call void @llvm.dbg.declare(metadata %"class.std::__1::__compressed_pair"** %42, metadata !5504, metadata !DIExpression()), !dbg !6503
  %43 = alloca %"class.std::__1::unique_ptr"*, align 8
  call void @llvm.dbg.declare(metadata %"class.std::__1::unique_ptr"** %43, metadata !6504, metadata !DIExpression()), !dbg !6505
  %44 = alloca %"struct.altered_carbon::js::ACLexPosition"*, align 8
  call void @llvm.dbg.declare(metadata %"struct.altered_carbon::js::ACLexPosition"** %44, metadata !6506, metadata !DIExpression()), !dbg !6507
  %45 = alloca %"struct.altered_carbon::js::ACLexPosition"*, align 8
  call void @llvm.dbg.declare(metadata %"struct.altered_carbon::js::ACLexPosition"** %45, metadata !6508, metadata !DIExpression()), !dbg !6509
  %46 = alloca %"class.std::__1::unique_ptr"*, align 8
  call void @llvm.dbg.declare(metadata %"class.std::__1::unique_ptr"** %46, metadata !6510, metadata !DIExpression()), !dbg !6511
  %47 = alloca %"class.std::__1::unique_ptr"*, align 8
  call void @llvm.dbg.declare(metadata %"class.std::__1::unique_ptr"** %47, metadata !6512, metadata !DIExpression()), !dbg !6513
  %48 = alloca %"class.std::__1::unique_ptr.1"*, align 8
  call void @llvm.dbg.declare(metadata %"class.std::__1::unique_ptr.1"** %48, metadata !6514, metadata !DIExpression()), !dbg !6523
  %49 = alloca %"struct.std::__1::__compressed_pair_elem.4"*, align 8
  call void @llvm.dbg.declare(metadata %"struct.std::__1::__compressed_pair_elem.4"** %49, metadata !6525, metadata !DIExpression()), !dbg !6528
  %50 = alloca %"class.std::__1::__compressed_pair.2"*, align 8
  call void @llvm.dbg.declare(metadata %"class.std::__1::__compressed_pair.2"** %50, metadata !6538, metadata !DIExpression()), !dbg !6540
  %51 = alloca %"class.std::__1::unique_ptr.1"*, align 8
  call void @llvm.dbg.declare(metadata %"class.std::__1::unique_ptr.1"** %51, metadata !6541, metadata !DIExpression()), !dbg !6542
  %52 = alloca %"struct.std::__1::default_delete.5"*, align 8
  call void @llvm.dbg.declare(metadata %"struct.std::__1::default_delete.5"** %52, metadata !6543, metadata !DIExpression()), !dbg !6552
  %53 = alloca %"class.altered_carbon::js::ACAstBaseNode"**, align 8
  call void @llvm.dbg.declare(metadata %"class.altered_carbon::js::ACAstBaseNode"*** %53, metadata !6554, metadata !DIExpression()), !dbg !6563
  %54 = alloca %"struct.std::__1::__compressed_pair_elem.3"*, align 8
  call void @llvm.dbg.declare(metadata %"struct.std::__1::__compressed_pair_elem.3"** %54, metadata !6582, metadata !DIExpression()), !dbg !6584
  %55 = alloca %"class.altered_carbon::js::ACAstBaseNode"**, align 8
  call void @llvm.dbg.declare(metadata %"class.altered_carbon::js::ACAstBaseNode"*** %55, metadata !6585, metadata !DIExpression()), !dbg !6586
  %56 = alloca %"struct.std::__1::default_delete.5"*, align 8
  call void @llvm.dbg.declare(metadata %"struct.std::__1::default_delete.5"** %56, metadata !6543, metadata !DIExpression()), !dbg !6587
  %57 = alloca %"struct.std::__1::default_delete.5"*, align 8
  call void @llvm.dbg.declare(metadata %"struct.std::__1::default_delete.5"** %57, metadata !6543, metadata !DIExpression()), !dbg !6589
  %58 = alloca %"struct.std::__1::__compressed_pair_elem.4"*, align 8
  call void @llvm.dbg.declare(metadata %"struct.std::__1::__compressed_pair_elem.4"** %58, metadata !6598, metadata !DIExpression()), !dbg !6599
  %59 = alloca %"struct.std::__1::default_delete.5"*, align 8
  call void @llvm.dbg.declare(metadata %"struct.std::__1::default_delete.5"** %59, metadata !6600, metadata !DIExpression()), !dbg !6601
  %60 = alloca %"class.altered_carbon::js::ACAstBaseNode"**, align 8
  call void @llvm.dbg.declare(metadata %"class.altered_carbon::js::ACAstBaseNode"*** %60, metadata !6554, metadata !DIExpression()), !dbg !6602
  %61 = alloca %"class.std::__1::__compressed_pair.2"*, align 8
  call void @llvm.dbg.declare(metadata %"class.std::__1::__compressed_pair.2"** %61, metadata !6604, metadata !DIExpression()), !dbg !6605
  %62 = alloca %"class.altered_carbon::js::ACAstBaseNode"**, align 8
  call void @llvm.dbg.declare(metadata %"class.altered_carbon::js::ACAstBaseNode"*** %62, metadata !6606, metadata !DIExpression()), !dbg !6607
  %63 = alloca %"struct.std::__1::default_delete.5"*, align 8
  call void @llvm.dbg.declare(metadata %"struct.std::__1::default_delete.5"** %63, metadata !6608, metadata !DIExpression()), !dbg !6609
  %64 = alloca %"class.std::__1::__compressed_pair.2"*, align 8
  call void @llvm.dbg.declare(metadata %"class.std::__1::__compressed_pair.2"** %64, metadata !6610, metadata !DIExpression()), !dbg !6611
  %65 = alloca %"class.altered_carbon::js::ACAstBaseNode"**, align 8
  call void @llvm.dbg.declare(metadata %"class.altered_carbon::js::ACAstBaseNode"*** %65, metadata !6612, metadata !DIExpression()), !dbg !6613
  %66 = alloca %"struct.std::__1::default_delete.5"*, align 8
  call void @llvm.dbg.declare(metadata %"struct.std::__1::default_delete.5"** %66, metadata !6614, metadata !DIExpression()), !dbg !6615
  %67 = alloca %"struct.std::__1::__compressed_pair_elem.3"*, align 8
  call void @llvm.dbg.declare(metadata %"struct.std::__1::__compressed_pair_elem.3"** %67, metadata !6616, metadata !DIExpression()), !dbg !6618
  %68 = alloca %"class.std::__1::__compressed_pair.2"*, align 8
  call void @llvm.dbg.declare(metadata %"class.std::__1::__compressed_pair.2"** %68, metadata !6624, metadata !DIExpression()), !dbg !6625
  %69 = alloca %"struct.std::__1::__compressed_pair_elem.3"*, align 8
  call void @llvm.dbg.declare(metadata %"struct.std::__1::__compressed_pair_elem.3"** %69, metadata !6616, metadata !DIExpression()), !dbg !6626
  %70 = alloca %"class.std::__1::__compressed_pair.2"*, align 8
  call void @llvm.dbg.declare(metadata %"class.std::__1::__compressed_pair.2"** %70, metadata !6624, metadata !DIExpression()), !dbg !6629
  %71 = alloca %"class.std::__1::unique_ptr.1"*, align 8
  call void @llvm.dbg.declare(metadata %"class.std::__1::unique_ptr.1"** %71, metadata !6630, metadata !DIExpression()), !dbg !6631
  %72 = alloca %"class.altered_carbon::js::ACAstBaseNode"*, align 8
  call void @llvm.dbg.declare(metadata %"class.altered_carbon::js::ACAstBaseNode"** %72, metadata !6632, metadata !DIExpression()), !dbg !6633
  %73 = alloca %"class.std::__1::unique_ptr.1"*, align 8
  call void @llvm.dbg.declare(metadata %"class.std::__1::unique_ptr.1"** %73, metadata !6634, metadata !DIExpression()), !dbg !6635
  %74 = alloca %"class.std::__1::unique_ptr.1"*, align 8
  call void @llvm.dbg.declare(metadata %"class.std::__1::unique_ptr.1"** %74, metadata !6636, metadata !DIExpression()), !dbg !6637
  %75 = alloca %"class.altered_carbon::js::ACAstBaseNode"*, align 8
  %76 = alloca %"class.std::__1::unique_ptr.1"*, align 8
  call void @llvm.dbg.declare(metadata %"class.std::__1::unique_ptr.1"** %76, metadata !6638, metadata !DIExpression()), !dbg !6639
  %77 = alloca %"class.std::__1::unique_ptr.1"*, align 8
  call void @llvm.dbg.declare(metadata %"class.std::__1::unique_ptr.1"** %77, metadata !6640, metadata !DIExpression()), !dbg !6641
  %78 = alloca %"class.std::__1::unique_ptr"*, align 8
  call void @llvm.dbg.declare(metadata %"class.std::__1::unique_ptr"** %78, metadata !5594, metadata !DIExpression()), !dbg !6642
  %79 = alloca %"class.altered_carbon::js::ACAstExpressionNode"*, align 8
  %80 = alloca i32, align 4
  %81 = alloca i32, align 4
  %82 = alloca %"class.std::__1::unique_ptr", align 8
  store %"class.altered_carbon::js::ACAstExpressionNode"* %0, %"class.altered_carbon::js::ACAstExpressionNode"** %79, align 8
  call void @llvm.dbg.declare(metadata %"class.altered_carbon::js::ACAstExpressionNode"** %79, metadata !6644, metadata !DIExpression()), !dbg !6646
  call void @llvm.dbg.declare(metadata %"class.std::__1::unique_ptr"* %1, metadata !6647, metadata !DIExpression()), !dbg !6648
  call void @llvm.dbg.declare(metadata %"class.std::__1::unique_ptr.1"* %2, metadata !6649, metadata !DIExpression()), !dbg !6650
  store i32 %3, i32* %80, align 4
  call void @llvm.dbg.declare(metadata i32* %80, metadata !6651, metadata !DIExpression()), !dbg !6652
  store i32 %4, i32* %81, align 4
  call void @llvm.dbg.declare(metadata i32* %81, metadata !6653, metadata !DIExpression()), !dbg !6654
  %83 = load %"class.altered_carbon::js::ACAstExpressionNode"*, %"class.altered_carbon::js::ACAstExpressionNode"** %79, align 8
  %84 = bitcast %"class.altered_carbon::js::ACAstExpressionNode"* %83 to %"class.altered_carbon::js::ACAstBaseNode"*, !dbg !6655
  store %"class.std::__1::unique_ptr"* %1, %"class.std::__1::unique_ptr"** %78, align 8
  %85 = load %"class.std::__1::unique_ptr"*, %"class.std::__1::unique_ptr"** %78, align 8, !dbg !6656
  store %"class.std::__1::unique_ptr"* %82, %"class.std::__1::unique_ptr"** %33, align 8
  store %"class.std::__1::unique_ptr"* %85, %"class.std::__1::unique_ptr"** %34, align 8
  %86 = load %"class.std::__1::unique_ptr"*, %"class.std::__1::unique_ptr"** %33, align 8
  %87 = load %"class.std::__1::unique_ptr"*, %"class.std::__1::unique_ptr"** %34, align 8, !dbg !6657
  store %"class.std::__1::unique_ptr"* %86, %"class.std::__1::unique_ptr"** %30, align 8
  store %"class.std::__1::unique_ptr"* %87, %"class.std::__1::unique_ptr"** %31, align 8
  %88 = load %"class.std::__1::unique_ptr"*, %"class.std::__1::unique_ptr"** %30, align 8
  %89 = getelementptr inbounds %"class.std::__1::unique_ptr", %"class.std::__1::unique_ptr"* %88, i32 0, i32 0, !dbg !6658
  %90 = load %"class.std::__1::unique_ptr"*, %"class.std::__1::unique_ptr"** %31, align 8, !dbg !6659
  store %"class.std::__1::unique_ptr"* %90, %"class.std::__1::unique_ptr"** %28, align 8
  %91 = load %"class.std::__1::unique_ptr"*, %"class.std::__1::unique_ptr"** %28, align 8
  %92 = getelementptr inbounds %"class.std::__1::unique_ptr", %"class.std::__1::unique_ptr"* %91, i32 0, i32 0, !dbg !6660
  store %"class.std::__1::__compressed_pair"* %92, %"class.std::__1::__compressed_pair"** %27, align 8
  %93 = load %"class.std::__1::__compressed_pair"*, %"class.std::__1::__compressed_pair"** %27, align 8
  %94 = bitcast %"class.std::__1::__compressed_pair"* %93 to %"struct.std::__1::__compressed_pair_elem"*, !dbg !6661
  store %"struct.std::__1::__compressed_pair_elem"* %94, %"struct.std::__1::__compressed_pair_elem"** %26, align 8
  %95 = load %"struct.std::__1::__compressed_pair_elem"*, %"struct.std::__1::__compressed_pair_elem"** %26, align 8
  %96 = getelementptr inbounds %"struct.std::__1::__compressed_pair_elem", %"struct.std::__1::__compressed_pair_elem"* %95, i32 0, i32 0, !dbg !6662
  %97 = load %"struct.altered_carbon::js::ACLexPosition"*, %"struct.altered_carbon::js::ACLexPosition"** %96, align 8, !dbg !6663
  store %"struct.altered_carbon::js::ACLexPosition"* %97, %"struct.altered_carbon::js::ACLexPosition"** %29, align 8, !dbg !6472
  %98 = getelementptr inbounds %"class.std::__1::unique_ptr", %"class.std::__1::unique_ptr"* %91, i32 0, i32 0, !dbg !6664
  store %"class.std::__1::__compressed_pair"* %98, %"class.std::__1::__compressed_pair"** %25, align 8
  %99 = load %"class.std::__1::__compressed_pair"*, %"class.std::__1::__compressed_pair"** %25, align 8
  %100 = bitcast %"class.std::__1::__compressed_pair"* %99 to %"struct.std::__1::__compressed_pair_elem"*, !dbg !6665
  store %"struct.std::__1::__compressed_pair_elem"* %100, %"struct.std::__1::__compressed_pair_elem"** %24, align 8
  %101 = load %"struct.std::__1::__compressed_pair_elem"*, %"struct.std::__1::__compressed_pair_elem"** %24, align 8
  %102 = getelementptr inbounds %"struct.std::__1::__compressed_pair_elem", %"struct.std::__1::__compressed_pair_elem"* %101, i32 0, i32 0, !dbg !6666
  store %"struct.altered_carbon::js::ACLexPosition"* null, %"struct.altered_carbon::js::ACLexPosition"** %102, align 8, !dbg !6667
  %103 = load %"struct.altered_carbon::js::ACLexPosition"*, %"struct.altered_carbon::js::ACLexPosition"** %29, align 8, !dbg !6668
  store %"struct.altered_carbon::js::ACLexPosition"* %103, %"struct.altered_carbon::js::ACLexPosition"** %32, align 8, !dbg !6659
  %104 = load %"class.std::__1::unique_ptr"*, %"class.std::__1::unique_ptr"** %31, align 8, !dbg !6669
  store %"class.std::__1::unique_ptr"* %104, %"class.std::__1::unique_ptr"** %8, align 8
  %105 = load %"class.std::__1::unique_ptr"*, %"class.std::__1::unique_ptr"** %8, align 8
  %106 = getelementptr inbounds %"class.std::__1::unique_ptr", %"class.std::__1::unique_ptr"* %105, i32 0, i32 0, !dbg !6670
  store %"class.std::__1::__compressed_pair"* %106, %"class.std::__1::__compressed_pair"** %7, align 8
  %107 = load %"class.std::__1::__compressed_pair"*, %"class.std::__1::__compressed_pair"** %7, align 8
  %108 = bitcast %"class.std::__1::__compressed_pair"* %107 to %"struct.std::__1::__compressed_pair_elem.0"*, !dbg !6671
  store %"struct.std::__1::__compressed_pair_elem.0"* %108, %"struct.std::__1::__compressed_pair_elem.0"** %6, align 8
  %109 = load %"struct.std::__1::__compressed_pair_elem.0"*, %"struct.std::__1::__compressed_pair_elem.0"** %6, align 8
  %110 = bitcast %"struct.std::__1::__compressed_pair_elem.0"* %109 to %"struct.std::__1::default_delete"*, !dbg !6672
  store %"struct.std::__1::default_delete"* %110, %"struct.std::__1::default_delete"** %9, align 8
  %111 = load %"struct.std::__1::default_delete"*, %"struct.std::__1::default_delete"** %9, align 8, !dbg !6673
  store %"class.std::__1::__compressed_pair"* %89, %"class.std::__1::__compressed_pair"** %21, align 8
  store %"struct.altered_carbon::js::ACLexPosition"** %32, %"struct.altered_carbon::js::ACLexPosition"*** %22, align 8
  store %"struct.std::__1::default_delete"* %111, %"struct.std::__1::default_delete"** %23, align 8
  %112 = load %"class.std::__1::__compressed_pair"*, %"class.std::__1::__compressed_pair"** %21, align 8
  %113 = load %"struct.altered_carbon::js::ACLexPosition"**, %"struct.altered_carbon::js::ACLexPosition"*** %22, align 8, !dbg !6674
  %114 = load %"struct.std::__1::default_delete"*, %"struct.std::__1::default_delete"** %23, align 8, !dbg !6674
  store %"class.std::__1::__compressed_pair"* %112, %"class.std::__1::__compressed_pair"** %18, align 8
  store %"struct.altered_carbon::js::ACLexPosition"** %113, %"struct.altered_carbon::js::ACLexPosition"*** %19, align 8
  store %"struct.std::__1::default_delete"* %114, %"struct.std::__1::default_delete"** %20, align 8
  %115 = load %"class.std::__1::__compressed_pair"*, %"class.std::__1::__compressed_pair"** %18, align 8
  %116 = bitcast %"class.std::__1::__compressed_pair"* %115 to %"struct.std::__1::__compressed_pair_elem"*, !dbg !6675
  %117 = load %"struct.altered_carbon::js::ACLexPosition"**, %"struct.altered_carbon::js::ACLexPosition"*** %19, align 8, !dbg !6676
  store %"struct.altered_carbon::js::ACLexPosition"** %117, %"struct.altered_carbon::js::ACLexPosition"*** %17, align 8
  %118 = load %"struct.altered_carbon::js::ACLexPosition"**, %"struct.altered_carbon::js::ACLexPosition"*** %17, align 8, !dbg !6677
  store %"struct.std::__1::__compressed_pair_elem"* %116, %"struct.std::__1::__compressed_pair_elem"** %11, align 8
  store %"struct.altered_carbon::js::ACLexPosition"** %118, %"struct.altered_carbon::js::ACLexPosition"*** %12, align 8
  %119 = load %"struct.std::__1::__compressed_pair_elem"*, %"struct.std::__1::__compressed_pair_elem"** %11, align 8
  %120 = getelementptr inbounds %"struct.std::__1::__compressed_pair_elem", %"struct.std::__1::__compressed_pair_elem"* %119, i32 0, i32 0, !dbg !6678
  %121 = load %"struct.altered_carbon::js::ACLexPosition"**, %"struct.altered_carbon::js::ACLexPosition"*** %12, align 8, !dbg !6679
  store %"struct.altered_carbon::js::ACLexPosition"** %121, %"struct.altered_carbon::js::ACLexPosition"*** %10, align 8
  %122 = load %"struct.altered_carbon::js::ACLexPosition"**, %"struct.altered_carbon::js::ACLexPosition"*** %10, align 8, !dbg !6680
  %123 = load %"struct.altered_carbon::js::ACLexPosition"*, %"struct.altered_carbon::js::ACLexPosition"** %122, align 8, !dbg !6681
  store %"struct.altered_carbon::js::ACLexPosition"* %123, %"struct.altered_carbon::js::ACLexPosition"** %120, align 8, !dbg !6678
  %124 = bitcast %"class.std::__1::__compressed_pair"* %115 to %"struct.std::__1::__compressed_pair_elem.0"*, !dbg !6675
  %125 = load %"struct.std::__1::default_delete"*, %"struct.std::__1::default_delete"** %20, align 8, !dbg !6682
  store %"struct.std::__1::default_delete"* %125, %"struct.std::__1::default_delete"** %13, align 8
  %126 = load %"struct.std::__1::default_delete"*, %"struct.std::__1::default_delete"** %13, align 8, !dbg !6683
  store %"struct.std::__1::__compressed_pair_elem.0"* %124, %"struct.std::__1::__compressed_pair_elem.0"** %15, align 8
  store %"struct.std::__1::default_delete"* %126, %"struct.std::__1::default_delete"** %16, align 8
  %127 = load %"struct.std::__1::__compressed_pair_elem.0"*, %"struct.std::__1::__compressed_pair_elem.0"** %15, align 8
  %128 = bitcast %"struct.std::__1::__compressed_pair_elem.0"* %127 to %"struct.std::__1::default_delete"*, !dbg !6684
  %129 = load %"struct.std::__1::default_delete"*, %"struct.std::__1::default_delete"** %16, align 8, !dbg !6685
  store %"struct.std::__1::default_delete"* %129, %"struct.std::__1::default_delete"** %14, align 8
  %130 = load %"struct.std::__1::default_delete"*, %"struct.std::__1::default_delete"** %14, align 8, !dbg !6686
  %131 = load i32, i32* %80, align 4, !dbg !6687
  %132 = load i32, i32* %81, align 4, !dbg !6688
  call void @_ZN14altered_carbon2js13ACAstBaseNodeC2ENSt3__110unique_ptrINS0_13ACLexPositionENS2_14default_deleteIS4_EEEENS1_11AstNodeTypeENS1_14AstNodeSubTypeE(%"class.altered_carbon::js::ACAstBaseNode"* %84, %"class.std::__1::unique_ptr"* %82, i32 %131, i32 %132), !dbg !6689
  store %"class.std::__1::unique_ptr"* %82, %"class.std::__1::unique_ptr"** %47, align 8
  %133 = load %"class.std::__1::unique_ptr"*, %"class.std::__1::unique_ptr"** %47, align 8
  store %"class.std::__1::unique_ptr"* %133, %"class.std::__1::unique_ptr"** %46, align 8
  %134 = load %"class.std::__1::unique_ptr"*, %"class.std::__1::unique_ptr"** %46, align 8
  store %"class.std::__1::unique_ptr"* %134, %"class.std::__1::unique_ptr"** %43, align 8
  store %"struct.altered_carbon::js::ACLexPosition"* null, %"struct.altered_carbon::js::ACLexPosition"** %44, align 8
  %135 = load %"class.std::__1::unique_ptr"*, %"class.std::__1::unique_ptr"** %43, align 8
  %136 = getelementptr inbounds %"class.std::__1::unique_ptr", %"class.std::__1::unique_ptr"* %135, i32 0, i32 0, !dbg !6690
  store %"class.std::__1::__compressed_pair"* %136, %"class.std::__1::__compressed_pair"** %42, align 8
  %137 = load %"class.std::__1::__compressed_pair"*, %"class.std::__1::__compressed_pair"** %42, align 8
  %138 = bitcast %"class.std::__1::__compressed_pair"* %137 to %"struct.std::__1::__compressed_pair_elem"*, !dbg !6691
  store %"struct.std::__1::__compressed_pair_elem"* %138, %"struct.std::__1::__compressed_pair_elem"** %41, align 8
  %139 = load %"struct.std::__1::__compressed_pair_elem"*, %"struct.std::__1::__compressed_pair_elem"** %41, align 8
  %140 = getelementptr inbounds %"struct.std::__1::__compressed_pair_elem", %"struct.std::__1::__compressed_pair_elem"* %139, i32 0, i32 0, !dbg !6692
  %141 = load %"struct.altered_carbon::js::ACLexPosition"*, %"struct.altered_carbon::js::ACLexPosition"** %140, align 8, !dbg !6693
  store %"struct.altered_carbon::js::ACLexPosition"* %141, %"struct.altered_carbon::js::ACLexPosition"** %45, align 8, !dbg !6509
  %142 = load %"struct.altered_carbon::js::ACLexPosition"*, %"struct.altered_carbon::js::ACLexPosition"** %44, align 8, !dbg !6694
  %143 = getelementptr inbounds %"class.std::__1::unique_ptr", %"class.std::__1::unique_ptr"* %135, i32 0, i32 0, !dbg !6695
  store %"class.std::__1::__compressed_pair"* %143, %"class.std::__1::__compressed_pair"** %38, align 8
  %144 = load %"class.std::__1::__compressed_pair"*, %"class.std::__1::__compressed_pair"** %38, align 8
  %145 = bitcast %"class.std::__1::__compressed_pair"* %144 to %"struct.std::__1::__compressed_pair_elem"*, !dbg !6696
  store %"struct.std::__1::__compressed_pair_elem"* %145, %"struct.std::__1::__compressed_pair_elem"** %37, align 8
  %146 = load %"struct.std::__1::__compressed_pair_elem"*, %"struct.std::__1::__compressed_pair_elem"** %37, align 8
  %147 = getelementptr inbounds %"struct.std::__1::__compressed_pair_elem", %"struct.std::__1::__compressed_pair_elem"* %146, i32 0, i32 0, !dbg !6697
  store %"struct.altered_carbon::js::ACLexPosition"* %142, %"struct.altered_carbon::js::ACLexPosition"** %147, align 8, !dbg !6698
  %148 = load %"struct.altered_carbon::js::ACLexPosition"*, %"struct.altered_carbon::js::ACLexPosition"** %45, align 8, !dbg !6699
  %149 = icmp ne %"struct.altered_carbon::js::ACLexPosition"* %148, null, !dbg !6699
  br i1 %149, label %150, label %166, !dbg !6700

; <label>:150:                                    ; preds = %5
  %151 = getelementptr inbounds %"class.std::__1::unique_ptr", %"class.std::__1::unique_ptr"* %135, i32 0, i32 0, !dbg !6701
  store %"class.std::__1::__compressed_pair"* %151, %"class.std::__1::__compressed_pair"** %36, align 8
  %152 = load %"class.std::__1::__compressed_pair"*, %"class.std::__1::__compressed_pair"** %36, align 8
  %153 = bitcast %"class.std::__1::__compressed_pair"* %152 to %"struct.std::__1::__compressed_pair_elem.0"*, !dbg !6702
  store %"struct.std::__1::__compressed_pair_elem.0"* %153, %"struct.std::__1::__compressed_pair_elem.0"** %35, align 8
  %154 = load %"struct.std::__1::__compressed_pair_elem.0"*, %"struct.std::__1::__compressed_pair_elem.0"** %35, align 8
  %155 = bitcast %"struct.std::__1::__compressed_pair_elem.0"* %154 to %"struct.std::__1::default_delete"*, !dbg !6703
  %156 = load %"struct.altered_carbon::js::ACLexPosition"*, %"struct.altered_carbon::js::ACLexPosition"** %45, align 8, !dbg !6704
  store %"struct.std::__1::default_delete"* %155, %"struct.std::__1::default_delete"** %39, align 8
  store %"struct.altered_carbon::js::ACLexPosition"* %156, %"struct.altered_carbon::js::ACLexPosition"** %40, align 8
  %157 = load %"struct.std::__1::default_delete"*, %"struct.std::__1::default_delete"** %39, align 8
  %158 = load %"struct.altered_carbon::js::ACLexPosition"*, %"struct.altered_carbon::js::ACLexPosition"** %40, align 8, !dbg !6705
  %159 = icmp eq %"struct.altered_carbon::js::ACLexPosition"* %158, null, !dbg !6706
  br i1 %159, label %165, label %160, !dbg !6706

; <label>:160:                                    ; preds = %150
  %161 = bitcast %"struct.altered_carbon::js::ACLexPosition"* %158 to void (%"struct.altered_carbon::js::ACLexPosition"*)***, !dbg !6706
  %162 = load void (%"struct.altered_carbon::js::ACLexPosition"*)**, void (%"struct.altered_carbon::js::ACLexPosition"*)*** %161, align 8, !dbg !6706
  %163 = getelementptr inbounds void (%"struct.altered_carbon::js::ACLexPosition"*)*, void (%"struct.altered_carbon::js::ACLexPosition"*)** %162, i64 1, !dbg !6706
  %164 = load void (%"struct.altered_carbon::js::ACLexPosition"*)*, void (%"struct.altered_carbon::js::ACLexPosition"*)** %163, align 8, !dbg !6706
  call void %164(%"struct.altered_carbon::js::ACLexPosition"* %158) #2, !dbg !6706
  br label %165, !dbg !6706

; <label>:165:                                    ; preds = %160, %150
  br label %166, !dbg !6701

; <label>:166:                                    ; preds = %5, %165
  %167 = bitcast %"class.altered_carbon::js::ACAstExpressionNode"* %83 to i32 (...)***, !dbg !6655
  store i32 (...)** bitcast (i8** getelementptr inbounds ({ [14 x i8*] }, { [14 x i8*] }* @_ZTVN14altered_carbon2js19ACAstExpressionNodeE, i32 0, inrange i32 0, i32 2) to i32 (...)**), i32 (...)*** %167, align 8, !dbg !6655
  %168 = getelementptr inbounds %"class.altered_carbon::js::ACAstExpressionNode", %"class.altered_carbon::js::ACAstExpressionNode"* %83, i32 0, i32 1, !dbg !6707
  store %"class.std::__1::unique_ptr.1"* %2, %"class.std::__1::unique_ptr.1"** %48, align 8
  %169 = load %"class.std::__1::unique_ptr.1"*, %"class.std::__1::unique_ptr.1"** %48, align 8, !dbg !6708
  store %"class.std::__1::unique_ptr.1"* %168, %"class.std::__1::unique_ptr.1"** %76, align 8
  store %"class.std::__1::unique_ptr.1"* %169, %"class.std::__1::unique_ptr.1"** %77, align 8
  %170 = load %"class.std::__1::unique_ptr.1"*, %"class.std::__1::unique_ptr.1"** %76, align 8
  %171 = load %"class.std::__1::unique_ptr.1"*, %"class.std::__1::unique_ptr.1"** %77, align 8, !dbg !6709
