; ModuleID = 'temp.bc'
source_filename = "../ac_ast_object_nodes.cc"
target datalayout = "e-m:o-i64:64-f80:128-n8:16:32:64-S128"
target triple = "x86_64-apple-macosx10.13.0"

%"class.std::__1::locale::id" = type <{ %"struct.std::__1::once_flag", i32, [4 x i8] }>
%"struct.std::__1::once_flag" = type { i64 }
%"class.altered_carbon::js::ACAstObjectNode" = type { %"class.altered_carbon::js::ACAstBaseNode" }
%"class.altered_carbon::js::ACAstBaseNode" = type { i32 (...)**, %"class.std::__1::unique_ptr", i32, i32, %"class.std::__1::vector" }
%"class.std::__1::unique_ptr" = type { %"class.std::__1::__compressed_pair" }
%"class.std::__1::__compressed_pair" = type { %"struct.std::__1::__compressed_pair_elem" }
%"struct.std::__1::__compressed_pair_elem" = type { %"struct.altered_carbon::js::ACLexPosition"* }
%"struct.altered_carbon::js::ACLexPosition" = type { i32 (...)**, i64, i32, i64 }
%"class.std::__1::vector" = type { %"class.std::__1::__vector_base" }
%"class.std::__1::__vector_base" = type { %"class.std::__1::unique_ptr.1"*, %"class.std::__1::unique_ptr.1"*, %"class.std::__1::__compressed_pair.7" }
%"class.std::__1::unique_ptr.1" = type { %"class.std::__1::__compressed_pair.2" }
%"class.std::__1::__compressed_pair.2" = type { %"struct.std::__1::__compressed_pair_elem.3" }
%"struct.std::__1::__compressed_pair_elem.3" = type { %"class.altered_carbon::js::ACAstBaseNode"* }
%"class.std::__1::__compressed_pair.7" = type { %"struct.std::__1::__compressed_pair_elem.8" }
%"struct.std::__1::__compressed_pair_elem.8" = type { %"class.std::__1::unique_ptr.1"* }
%"struct.std::__1::__compressed_pair_elem.0" = type { i8 }
%"struct.std::__1::default_delete" = type { i8 }
%"struct.std::__1::integral_constant" = type { i8 }
%"class.std::__1::__wrap_iter" = type { %"class.std::__1::unique_ptr.1"* }
%"class.std::__1::basic_ostream" = type { i32 (...)**, %"class.std::__1::basic_ios.base" }
%"class.std::__1::basic_ios.base" = type <{ %"class.std::__1::ios_base", %"class.std::__1::basic_ostream"*, i32 }>
%"class.std::__1::ios_base" = type { i32 (...)**, i32, i64, i64, i32, i32, i8*, i8*, void (i32, %"class.std::__1::ios_base"*, i32)**, i32*, i64, i64, i64*, i64, i64, i8**, i64, i64 }
%"class.altered_carbon::js::ACAstObjectInitProperty" = type <{ %"class.altered_carbon::js::ACAstBaseNode", %"class.std::__1::unique_ptr.1", %"class.std::__1::unique_ptr.1", i8, i8, i8, [5 x i8] }>
%"struct.std::__1::__compressed_pair_elem.4" = type { i8 }
%"struct.std::__1::default_delete.5" = type { i8 }
%"class.altered_carbon::js::ACAstVisitable" = type { i32 (...)** }
%"class.std::__1::basic_string" = type { %"class.std::__1::__compressed_pair.10" }
%"class.std::__1::__compressed_pair.10" = type { %"struct.std::__1::__compressed_pair_elem.11" }
%"struct.std::__1::__compressed_pair_elem.11" = type { %"struct.std::__1::basic_string<wchar_t, std::__1::char_traits<wchar_t>, std::__1::allocator<wchar_t> >::__rep" }
%"struct.std::__1::basic_string<wchar_t, std::__1::char_traits<wchar_t>, std::__1::allocator<wchar_t> >::__rep" = type { %union.anon }
%union.anon = type { %"struct.std::__1::basic_string<wchar_t, std::__1::char_traits<wchar_t>, std::__1::allocator<wchar_t> >::__long" }
%"struct.std::__1::basic_string<wchar_t, std::__1::char_traits<wchar_t>, std::__1::allocator<wchar_t> >::__long" = type { i64, i64, i32* }
%"class.std::__1::allocator.14" = type { i8 }
%"struct.std::__1::__compressed_pair_elem.13" = type { i8 }
%"class.std::__1::__basic_string_common" = type { i8 }
%"class.std::__1::allocator" = type { i8 }
%"struct.std::__1::__compressed_pair_elem.9" = type { i8 }
%"struct.std::__1::__has_destroy" = type { i8 }
%"class.std::__1::ctype" = type <{ %"class.std::__1::locale::facet", i32*, i8, [7 x i8] }>
%"class.std::__1::locale::facet" = type { %"class.std::__1::__shared_count" }
%"class.std::__1::__shared_count" = type { i32 (...)**, i64 }
%"class.std::__1::locale" = type { %"class.std::__1::locale::__imp"* }
%"class.std::__1::locale::__imp" = type opaque
%"class.std::__1::basic_ios" = type <{ %"class.std::__1::ios_base", %"class.std::__1::basic_ostream"*, i32, [4 x i8] }>
%"class.std::__1::ostreambuf_iterator" = type { %"class.std::__1::basic_streambuf"* }
%"class.std::__1::basic_streambuf" = type { i32 (...)**, %"class.std::__1::locale", i8*, i8*, i8*, i8*, i8*, i8* }
%"class.std::__1::basic_ostream<char, std::__1::char_traits<char> >::sentry" = type { i8, %"class.std::__1::basic_ostream"* }
%"struct.std::__1::iterator" = type { i8 }
%"struct.std::__1::__compressed_pair_elem.18" = type { %"struct.std::__1::basic_string<char, std::__1::char_traits<char>, std::__1::allocator<char> >::__rep" }
%"struct.std::__1::basic_string<char, std::__1::char_traits<char>, std::__1::allocator<char> >::__rep" = type { %union.anon.19 }
%union.anon.19 = type { %"struct.std::__1::basic_string<char, std::__1::char_traits<char>, std::__1::allocator<char> >::__long" }
%"struct.std::__1::basic_string<char, std::__1::char_traits<char>, std::__1::allocator<char> >::__long" = type { i64, i64, i8* }
%"class.std::__1::__compressed_pair.17" = type { %"struct.std::__1::__compressed_pair_elem.18" }
%"class.std::__1::basic_string.16" = type { %"class.std::__1::__compressed_pair.17" }
%"class.std::__1::allocator.22" = type { i8 }
%"struct.std::__1::__compressed_pair_elem.21" = type { i8 }
%"struct.std::__1::basic_string<char, std::__1::char_traits<char>, std::__1::allocator<char> >::__short" = type { %union.anon.20, [23 x i8] }
%union.anon.20 = type { i8 }

@_ZTVN14altered_carbon2js15ACAstObjectNodeE = unnamed_addr constant { [14 x i8*] } { [14 x i8*] [i8* null, i8* bitcast ({ i8*, i8*, i8* }* @_ZTIN14altered_carbon2js15ACAstObjectNodeE to i8*), i8* bitcast (void (%"class.altered_carbon::js::ACAstObjectNode"*)* @_ZN14altered_carbon2js15ACAstObjectNodeD1Ev to i8*), i8* bitcast (void (%"class.altered_carbon::js::ACAstObjectNode"*)* @_ZN14altered_carbon2js15ACAstObjectNodeD0Ev to i8*), i8* bitcast (i8* (%"class.altered_carbon::js::ACAstBaseNode"*, %"class.altered_carbon::js::ACAstVisitable"*)* @_ZNK14altered_carbon2js13ACAstBaseNode6acceptEPNS0_14ACAstVisitableE to i8*), i8* bitcast (void (%"class.std::__1::basic_string"*, %"class.altered_carbon::js::ACAstBaseNode"*)* @_ZNK14altered_carbon2js13ACAstBaseNode10identifierEv to i8*), i8* bitcast (i32 (%"class.altered_carbon::js::ACAstBaseNode"*)* @_ZNK14altered_carbon2js13ACAstBaseNode10precedenceEv to i8*), i8* bitcast (i32 (%"class.altered_carbon::js::ACAstBaseNode"*)* @_ZNK14altered_carbon2js13ACAstBaseNode2opEv to i8*), i8* bitcast (i1 (%"class.altered_carbon::js::ACAstObjectNode"*)* @_ZN14altered_carbon2js15ACAstObjectNode14convertToParamEv to i8*), i8* bitcast (i1 (%"class.altered_carbon::js::ACAstBaseNode"*)* @_ZN14altered_carbon2js13ACAstBaseNode15convertToFormalEv to i8*), i8* bitcast (void (%"class.altered_carbon::js::ACAstBaseNode"*, %"class.std::__1::basic_ostream"*)* @_ZNK14altered_carbon2js13ACAstBaseNode4dumpERNSt3__113basic_ostreamIcNS2_11char_traitsIcEEEE to i8*), i8* bitcast (void (%"class.altered_carbon::js::ACAstBaseNode"*, %"class.std::__1::basic_ostream"*)* @_ZNK14altered_carbon2js13ACAstBaseNode14dumpGraphLabelERNSt3__113basic_ostreamIcNS2_11char_traitsIcEEEE to i8*), i8* bitcast (void (%"class.altered_carbon::js::ACAstBaseNode"*, %"class.std::__1::basic_ostream"*)* @_ZNK14altered_carbon2js13ACAstBaseNode9dumpGraphERNSt3__113basic_ostreamIcNS2_11char_traitsIcEEEE to i8*), i8* bitcast (void (%"class.altered_carbon::js::ACAstObjectNode"*, %"class.std::__1::basic_ostream"*)* @_ZNK14altered_carbon2js15ACAstObjectNode14dumpChildNodesERNSt3__113basic_ostreamIcNS2_11char_traitsIcEEEE to i8*)] }, align 8
@.str = private unnamed_addr constant [2 x i8] c"{\00", align 1
@.str.1 = private unnamed_addr constant [2 x i8] c"}\00", align 1
@.str.2 = private unnamed_addr constant [6 x i8] c" <,> \00", align 1
@_ZTVN14altered_carbon2js23ACAstObjectInitPropertyE = unnamed_addr constant { [14 x i8*] } { [14 x i8*] [i8* null, i8* bitcast ({ i8*, i8*, i8* }* @_ZTIN14altered_carbon2js23ACAstObjectInitPropertyE to i8*), i8* bitcast (void (%"class.altered_carbon::js::ACAstObjectInitProperty"*)* @_ZN14altered_carbon2js23ACAstObjectInitPropertyD1Ev to i8*), i8* bitcast (void (%"class.altered_carbon::js::ACAstObjectInitProperty"*)* @_ZN14altered_carbon2js23ACAstObjectInitPropertyD0Ev to i8*), i8* bitcast (i8* (%"class.altered_carbon::js::ACAstBaseNode"*, %"class.altered_carbon::js::ACAstVisitable"*)* @_ZNK14altered_carbon2js13ACAstBaseNode6acceptEPNS0_14ACAstVisitableE to i8*), i8* bitcast (void (%"class.std::__1::basic_string"*, %"class.altered_carbon::js::ACAstBaseNode"*)* @_ZNK14altered_carbon2js13ACAstBaseNode10identifierEv to i8*), i8* bitcast (i32 (%"class.altered_carbon::js::ACAstBaseNode"*)* @_ZNK14altered_carbon2js13ACAstBaseNode10precedenceEv to i8*), i8* bitcast (i32 (%"class.altered_carbon::js::ACAstBaseNode"*)* @_ZNK14altered_carbon2js13ACAstBaseNode2opEv to i8*), i8* bitcast (i1 (%"class.altered_carbon::js::ACAstObjectInitProperty"*)* @_ZN14altered_carbon2js23ACAstObjectInitProperty14convertToParamEv to i8*), i8* bitcast (i1 (%"class.altered_carbon::js::ACAstBaseNode"*)* @_ZN14altered_carbon2js13ACAstBaseNode15convertToFormalEv to i8*), i8* bitcast (void (%"class.altered_carbon::js::ACAstBaseNode"*, %"class.std::__1::basic_ostream"*)* @_ZNK14altered_carbon2js13ACAstBaseNode4dumpERNSt3__113basic_ostreamIcNS2_11char_traitsIcEEEE to i8*), i8* bitcast (void (%"class.altered_carbon::js::ACAstBaseNode"*, %"class.std::__1::basic_ostream"*)* @_ZNK14altered_carbon2js13ACAstBaseNode14dumpGraphLabelERNSt3__113basic_ostreamIcNS2_11char_traitsIcEEEE to i8*), i8* bitcast (void (%"class.altered_carbon::js::ACAstBaseNode"*, %"class.std::__1::basic_ostream"*)* @_ZNK14altered_carbon2js13ACAstBaseNode9dumpGraphERNSt3__113basic_ostreamIcNS2_11char_traitsIcEEEE to i8*), i8* bitcast (void (%"class.altered_carbon::js::ACAstObjectInitProperty"*, %"class.std::__1::basic_ostream"*)* @_ZNK14altered_carbon2js23ACAstObjectInitProperty14dumpChildNodesERNSt3__113basic_ostreamIcNS2_11char_traitsIcEEEE to i8*)] }, align 8
@.str.3 = private unnamed_addr constant [9 x i8] c"Runtime=\00", align 1
@.str.4 = private unnamed_addr constant [9 x i8] c",Method=\00", align 1
@.str.5 = private unnamed_addr constant [12 x i8] c",Shorthand=\00", align 1
@.str.6 = private unnamed_addr constant [7 x i8] c"(null)\00", align 1
@.str.7 = private unnamed_addr constant [6 x i8] c" <:> \00", align 1
@_ZTVN10__cxxabiv120__si_class_type_infoE = external global i8*
@_ZTSN14altered_carbon2js15ACAstObjectNodeE = constant [39 x i8] c"N14altered_carbon2js15ACAstObjectNodeE\00"
@_ZTIN14altered_carbon2js13ACAstBaseNodeE = external constant i8*
@_ZTIN14altered_carbon2js15ACAstObjectNodeE = constant { i8*, i8*, i8* } { i8* bitcast (i8** getelementptr inbounds (i8*, i8** @_ZTVN10__cxxabiv120__si_class_type_infoE, i64 2) to i8*), i8* getelementptr inbounds ([39 x i8], [39 x i8]* @_ZTSN14altered_carbon2js15ACAstObjectNodeE, i32 0, i32 0), i8* bitcast (i8** @_ZTIN14altered_carbon2js13ACAstBaseNodeE to i8*) }
@_ZTSN14altered_carbon2js23ACAstObjectInitPropertyE = constant [47 x i8] c"N14altered_carbon2js23ACAstObjectInitPropertyE\00"
@_ZTIN14altered_carbon2js23ACAstObjectInitPropertyE = constant { i8*, i8*, i8* } { i8* bitcast (i8** getelementptr inbounds (i8*, i8** @_ZTVN10__cxxabiv120__si_class_type_infoE, i64 2) to i8*), i8* getelementptr inbounds ([47 x i8], [47 x i8]* @_ZTSN14altered_carbon2js23ACAstObjectInitPropertyE, i32 0, i32 0), i8* bitcast (i8** @_ZTIN14altered_carbon2js13ACAstBaseNodeE to i8*) }
@_ZTVN14altered_carbon2js13ACAstBaseNodeE = external unnamed_addr constant { [14 x i8*] }
@.str.8 = private unnamed_addr constant [7 x i32] [i32 40, i32 110, i32 117, i32 108, i32 108, i32 41, i32 0], align 4
@_ZNSt3__15ctypeIcE2idE = external global %"class.std::__1::locale::id", align 8

; Function Attrs: noinline nounwind optnone ssp uwtable
define void @_ZN14altered_carbon2js15ACAstObjectNodeC2ENSt3__110unique_ptrINS0_13ACLexPositionENS2_14default_deleteIS4_EEEENS2_6vectorINS3_INS0_13ACAstBaseNodeENS5_IS9_EEEENS2_9allocatorISB_EEEENS9_11AstNodeTypeENS9_14AstNodeSubTypeE(%"class.altered_carbon::js::ACAstObjectNode"*, %"class.std::__1::unique_ptr"*, %"class.std::__1::vector"*, i32, i32) unnamed_addr #0 align 2 !dbg !4622 {
  %6 = alloca %"struct.std::__1::__compressed_pair_elem.0"*, align 8
  call void @llvm.dbg.declare(metadata %"struct.std::__1::__compressed_pair_elem.0"** %6, metadata !4623, metadata !DIExpression()), !dbg !4626
  %7 = alloca %"class.std::__1::__compressed_pair"*, align 8
  call void @llvm.dbg.declare(metadata %"class.std::__1::__compressed_pair"** %7, metadata !4638, metadata !DIExpression()), !dbg !4640
  %8 = alloca %"struct.std::__1::__compressed_pair_elem"*, align 8
  call void @llvm.dbg.declare(metadata %"struct.std::__1::__compressed_pair_elem"** %8, metadata !4641, metadata !DIExpression()), !dbg !4644
  %9 = alloca %"class.std::__1::__compressed_pair"*, align 8
  call void @llvm.dbg.declare(metadata %"class.std::__1::__compressed_pair"** %9, metadata !4648, metadata !DIExpression()), !dbg !4649
  %10 = alloca %"struct.std::__1::default_delete"*, align 8
  call void @llvm.dbg.declare(metadata %"struct.std::__1::default_delete"** %10, metadata !4650, metadata !DIExpression()), !dbg !4653
  %11 = alloca %"struct.altered_carbon::js::ACLexPosition"*, align 8
  call void @llvm.dbg.declare(metadata %"struct.altered_carbon::js::ACLexPosition"** %11, metadata !4655, metadata !DIExpression()), !dbg !4656
  %12 = alloca %"struct.std::__1::__compressed_pair_elem"*, align 8
  call void @llvm.dbg.declare(metadata %"struct.std::__1::__compressed_pair_elem"** %12, metadata !4641, metadata !DIExpression()), !dbg !4657
  %13 = alloca %"class.std::__1::__compressed_pair"*, align 8
  call void @llvm.dbg.declare(metadata %"class.std::__1::__compressed_pair"** %13, metadata !4648, metadata !DIExpression()), !dbg !4660
  %14 = alloca %"class.std::__1::unique_ptr"*, align 8
  call void @llvm.dbg.declare(metadata %"class.std::__1::unique_ptr"** %14, metadata !4661, metadata !DIExpression()), !dbg !4663
  %15 = alloca %"struct.altered_carbon::js::ACLexPosition"*, align 8
  call void @llvm.dbg.declare(metadata %"struct.altered_carbon::js::ACLexPosition"** %15, metadata !4664, metadata !DIExpression()), !dbg !4665
  %16 = alloca %"struct.altered_carbon::js::ACLexPosition"*, align 8
  call void @llvm.dbg.declare(metadata %"struct.altered_carbon::js::ACLexPosition"** %16, metadata !4666, metadata !DIExpression()), !dbg !4667
  %17 = alloca %"class.std::__1::unique_ptr"*, align 8
  call void @llvm.dbg.declare(metadata %"class.std::__1::unique_ptr"** %17, metadata !4668, metadata !DIExpression()), !dbg !4669
  %18 = alloca %"class.std::__1::unique_ptr"*, align 8
  call void @llvm.dbg.declare(metadata %"class.std::__1::unique_ptr"** %18, metadata !4670, metadata !DIExpression()), !dbg !4671
  %19 = alloca %"class.std::__1::vector"*, align 8
  call void @llvm.dbg.declare(metadata %"class.std::__1::vector"** %19, metadata !4672, metadata !DIExpression()), !dbg !4681
  %20 = alloca %"struct.std::__1::__compressed_pair_elem.0"*, align 8
  call void @llvm.dbg.declare(metadata %"struct.std::__1::__compressed_pair_elem.0"** %20, metadata !4623, metadata !DIExpression()), !dbg !4684
  %21 = alloca %"class.std::__1::__compressed_pair"*, align 8
  call void @llvm.dbg.declare(metadata %"class.std::__1::__compressed_pair"** %21, metadata !4638, metadata !DIExpression()), !dbg !4693
  %22 = alloca %"class.std::__1::unique_ptr"*, align 8
  call void @llvm.dbg.declare(metadata %"class.std::__1::unique_ptr"** %22, metadata !4694, metadata !DIExpression()), !dbg !4695
  %23 = alloca %"struct.std::__1::default_delete"*, align 8
  call void @llvm.dbg.declare(metadata %"struct.std::__1::default_delete"** %23, metadata !4696, metadata !DIExpression()), !dbg !4705
  %24 = alloca %"struct.altered_carbon::js::ACLexPosition"**, align 8
  call void @llvm.dbg.declare(metadata %"struct.altered_carbon::js::ACLexPosition"*** %24, metadata !4707, metadata !DIExpression()), !dbg !4716
  %25 = alloca %"struct.std::__1::__compressed_pair_elem"*, align 8
  call void @llvm.dbg.declare(metadata %"struct.std::__1::__compressed_pair_elem"** %25, metadata !4736, metadata !DIExpression()), !dbg !4737
  %26 = alloca %"struct.altered_carbon::js::ACLexPosition"**, align 8
  call void @llvm.dbg.declare(metadata %"struct.altered_carbon::js::ACLexPosition"*** %26, metadata !4738, metadata !DIExpression()), !dbg !4739
  %27 = alloca %"struct.std::__1::default_delete"*, align 8
  call void @llvm.dbg.declare(metadata %"struct.std::__1::default_delete"** %27, metadata !4696, metadata !DIExpression()), !dbg !4740
  %28 = alloca %"struct.std::__1::default_delete"*, align 8
  call void @llvm.dbg.declare(metadata %"struct.std::__1::default_delete"** %28, metadata !4696, metadata !DIExpression()), !dbg !4742
  %29 = alloca %"struct.std::__1::__compressed_pair_elem.0"*, align 8
  call void @llvm.dbg.declare(metadata %"struct.std::__1::__compressed_pair_elem.0"** %29, metadata !4751, metadata !DIExpression()), !dbg !4752
  %30 = alloca %"struct.std::__1::default_delete"*, align 8
  call void @llvm.dbg.declare(metadata %"struct.std::__1::default_delete"** %30, metadata !4753, metadata !DIExpression()), !dbg !4754
  %31 = alloca %"struct.altered_carbon::js::ACLexPosition"**, align 8
  call void @llvm.dbg.declare(metadata %"struct.altered_carbon::js::ACLexPosition"*** %31, metadata !4707, metadata !DIExpression()), !dbg !4755
  %32 = alloca %"class.std::__1::__compressed_pair"*, align 8
  call void @llvm.dbg.declare(metadata %"class.std::__1::__compressed_pair"** %32, metadata !4757, metadata !DIExpression()), !dbg !4758
  %33 = alloca %"struct.altered_carbon::js::ACLexPosition"**, align 8
  call void @llvm.dbg.declare(metadata %"struct.altered_carbon::js::ACLexPosition"*** %33, metadata !4759, metadata !DIExpression()), !dbg !4760
  %34 = alloca %"struct.std::__1::default_delete"*, align 8
  call void @llvm.dbg.declare(metadata %"struct.std::__1::default_delete"** %34, metadata !4761, metadata !DIExpression()), !dbg !4762
  %35 = alloca %"class.std::__1::__compressed_pair"*, align 8
  call void @llvm.dbg.declare(metadata %"class.std::__1::__compressed_pair"** %35, metadata !4763, metadata !DIExpression()), !dbg !4764
  %36 = alloca %"struct.altered_carbon::js::ACLexPosition"**, align 8
  call void @llvm.dbg.declare(metadata %"struct.altered_carbon::js::ACLexPosition"*** %36, metadata !4765, metadata !DIExpression()), !dbg !4766
  %37 = alloca %"struct.std::__1::default_delete"*, align 8
  call void @llvm.dbg.declare(metadata %"struct.std::__1::default_delete"** %37, metadata !4767, metadata !DIExpression()), !dbg !4768
  %38 = alloca %"struct.std::__1::__compressed_pair_elem"*, align 8
  call void @llvm.dbg.declare(metadata %"struct.std::__1::__compressed_pair_elem"** %38, metadata !4641, metadata !DIExpression()), !dbg !4769
  %39 = alloca %"class.std::__1::__compressed_pair"*, align 8
  call void @llvm.dbg.declare(metadata %"class.std::__1::__compressed_pair"** %39, metadata !4648, metadata !DIExpression()), !dbg !4774
  %40 = alloca %"struct.std::__1::__compressed_pair_elem"*, align 8
  call void @llvm.dbg.declare(metadata %"struct.std::__1::__compressed_pair_elem"** %40, metadata !4641, metadata !DIExpression()), !dbg !4775
  %41 = alloca %"class.std::__1::__compressed_pair"*, align 8
  call void @llvm.dbg.declare(metadata %"class.std::__1::__compressed_pair"** %41, metadata !4648, metadata !DIExpression()), !dbg !4778
  %42 = alloca %"class.std::__1::unique_ptr"*, align 8
  call void @llvm.dbg.declare(metadata %"class.std::__1::unique_ptr"** %42, metadata !4779, metadata !DIExpression()), !dbg !4780
  %43 = alloca %"struct.altered_carbon::js::ACLexPosition"*, align 8
  call void @llvm.dbg.declare(metadata %"struct.altered_carbon::js::ACLexPosition"** %43, metadata !4781, metadata !DIExpression()), !dbg !4782
  %44 = alloca %"class.std::__1::unique_ptr"*, align 8
  call void @llvm.dbg.declare(metadata %"class.std::__1::unique_ptr"** %44, metadata !4783, metadata !DIExpression()), !dbg !4784
  %45 = alloca %"class.std::__1::unique_ptr"*, align 8
  call void @llvm.dbg.declare(metadata %"class.std::__1::unique_ptr"** %45, metadata !4785, metadata !DIExpression()), !dbg !4786
  %46 = alloca %"struct.altered_carbon::js::ACLexPosition"*, align 8
  %47 = alloca %"class.std::__1::unique_ptr"*, align 8
  call void @llvm.dbg.declare(metadata %"class.std::__1::unique_ptr"** %47, metadata !4787, metadata !DIExpression()), !dbg !4788
  %48 = alloca %"class.std::__1::unique_ptr"*, align 8
  call void @llvm.dbg.declare(metadata %"class.std::__1::unique_ptr"** %48, metadata !4789, metadata !DIExpression()), !dbg !4790
  %49 = alloca %"class.std::__1::vector"*, align 8
  call void @llvm.dbg.declare(metadata %"class.std::__1::vector"** %49, metadata !4791, metadata !DIExpression()), !dbg !4794
  %50 = alloca %"class.std::__1::vector"*, align 8
  call void @llvm.dbg.declare(metadata %"class.std::__1::vector"** %50, metadata !4796, metadata !DIExpression()), !dbg !4797
  %51 = alloca %"struct.std::__1::integral_constant", align 1
  %52 = alloca %"class.std::__1::unique_ptr"*, align 8
  call void @llvm.dbg.declare(metadata %"class.std::__1::unique_ptr"** %52, metadata !4798, metadata !DIExpression()), !dbg !4807
  %53 = alloca %"class.altered_carbon::js::ACAstObjectNode"*, align 8
  %54 = alloca i32, align 4
  %55 = alloca i32, align 4
  %56 = alloca %"class.std::__1::unique_ptr", align 8
  store %"class.altered_carbon::js::ACAstObjectNode"* %0, %"class.altered_carbon::js::ACAstObjectNode"** %53, align 8
  call void @llvm.dbg.declare(metadata %"class.altered_carbon::js::ACAstObjectNode"** %53, metadata !4809, metadata !DIExpression()), !dbg !4811
  call void @llvm.dbg.declare(metadata %"class.std::__1::unique_ptr"* %1, metadata !4812, metadata !DIExpression()), !dbg !4813
  call void @llvm.dbg.declare(metadata %"class.std::__1::vector"* %2, metadata !4814, metadata !DIExpression()), !dbg !4815
  store i32 %3, i32* %54, align 4
  call void @llvm.dbg.declare(metadata i32* %54, metadata !4816, metadata !DIExpression()), !dbg !4817
  store i32 %4, i32* %55, align 4
  call void @llvm.dbg.declare(metadata i32* %55, metadata !4818, metadata !DIExpression()), !dbg !4819
  %57 = load %"class.altered_carbon::js::ACAstObjectNode"*, %"class.altered_carbon::js::ACAstObjectNode"** %53, align 8
  %58 = bitcast %"class.altered_carbon::js::ACAstObjectNode"* %57 to %"class.altered_carbon::js::ACAstBaseNode"*, !dbg !4820
  store %"class.std::__1::unique_ptr"* %1, %"class.std::__1::unique_ptr"** %52, align 8
  %59 = load %"class.std::__1::unique_ptr"*, %"class.std::__1::unique_ptr"** %52, align 8, !dbg !4821
  store %"class.std::__1::unique_ptr"* %56, %"class.std::__1::unique_ptr"** %47, align 8
  store %"class.std::__1::unique_ptr"* %59, %"class.std::__1::unique_ptr"** %48, align 8
  %60 = load %"class.std::__1::unique_ptr"*, %"class.std::__1::unique_ptr"** %47, align 8
  %61 = load %"class.std::__1::unique_ptr"*, %"class.std::__1::unique_ptr"** %48, align 8, !dbg !4822
  store %"class.std::__1::unique_ptr"* %60, %"class.std::__1::unique_ptr"** %44, align 8
  store %"class.std::__1::unique_ptr"* %61, %"class.std::__1::unique_ptr"** %45, align 8
  %62 = load %"class.std::__1::unique_ptr"*, %"class.std::__1::unique_ptr"** %44, align 8
  %63 = getelementptr inbounds %"class.std::__1::unique_ptr", %"class.std::__1::unique_ptr"* %62, i32 0, i32 0, !dbg !4823
  %64 = load %"class.std::__1::unique_ptr"*, %"class.std::__1::unique_ptr"** %45, align 8, !dbg !4824
  store %"class.std::__1::unique_ptr"* %64, %"class.std::__1::unique_ptr"** %42, align 8
  %65 = load %"class.std::__1::unique_ptr"*, %"class.std::__1::unique_ptr"** %42, align 8
  %66 = getelementptr inbounds %"class.std::__1::unique_ptr", %"class.std::__1::unique_ptr"* %65, i32 0, i32 0, !dbg !4825
  store %"class.std::__1::__compressed_pair"* %66, %"class.std::__1::__compressed_pair"** %41, align 8
  %67 = load %"class.std::__1::__compressed_pair"*, %"class.std::__1::__compressed_pair"** %41, align 8
  %68 = bitcast %"class.std::__1::__compressed_pair"* %67 to %"struct.std::__1::__compressed_pair_elem"*, !dbg !4826
  store %"struct.std::__1::__compressed_pair_elem"* %68, %"struct.std::__1::__compressed_pair_elem"** %40, align 8
  %69 = load %"struct.std::__1::__compressed_pair_elem"*, %"struct.std::__1::__compressed_pair_elem"** %40, align 8
  %70 = getelementptr inbounds %"struct.std::__1::__compressed_pair_elem", %"struct.std::__1::__compressed_pair_elem"* %69, i32 0, i32 0, !dbg !4827
  %71 = load %"struct.altered_carbon::js::ACLexPosition"*, %"struct.altered_carbon::js::ACLexPosition"** %70, align 8, !dbg !4828
  store %"struct.altered_carbon::js::ACLexPosition"* %71, %"struct.altered_carbon::js::ACLexPosition"** %43, align 8, !dbg !4782
  %72 = getelementptr inbounds %"class.std::__1::unique_ptr", %"class.std::__1::unique_ptr"* %65, i32 0, i32 0, !dbg !4829
  store %"class.std::__1::__compressed_pair"* %72, %"class.std::__1::__compressed_pair"** %39, align 8
  %73 = load %"class.std::__1::__compressed_pair"*, %"class.std::__1::__compressed_pair"** %39, align 8
  %74 = bitcast %"class.std::__1::__compressed_pair"* %73 to %"struct.std::__1::__compressed_pair_elem"*, !dbg !4830
  store %"struct.std::__1::__compressed_pair_elem"* %74, %"struct.std::__1::__compressed_pair_elem"** %38, align 8
  %75 = load %"struct.std::__1::__compressed_pair_elem"*, %"struct.std::__1::__compressed_pair_elem"** %38, align 8
  %76 = getelementptr inbounds %"struct.std::__1::__compressed_pair_elem", %"struct.std::__1::__compressed_pair_elem"* %75, i32 0, i32 0, !dbg !4831
  store %"struct.altered_carbon::js::ACLexPosition"* null, %"struct.altered_carbon::js::ACLexPosition"** %76, align 8, !dbg !4832
  %77 = load %"struct.altered_carbon::js::ACLexPosition"*, %"struct.altered_carbon::js::ACLexPosition"** %43, align 8, !dbg !4833
  store %"struct.altered_carbon::js::ACLexPosition"* %77, %"struct.altered_carbon::js::ACLexPosition"** %46, align 8, !dbg !4824
  %78 = load %"class.std::__1::unique_ptr"*, %"class.std::__1::unique_ptr"** %45, align 8, !dbg !4834
  store %"class.std::__1::unique_ptr"* %78, %"class.std::__1::unique_ptr"** %22, align 8
  %79 = load %"class.std::__1::unique_ptr"*, %"class.std::__1::unique_ptr"** %22, align 8
  %80 = getelementptr inbounds %"class.std::__1::unique_ptr", %"class.std::__1::unique_ptr"* %79, i32 0, i32 0, !dbg !4835
  store %"class.std::__1::__compressed_pair"* %80, %"class.std::__1::__compressed_pair"** %21, align 8
  %81 = load %"class.std::__1::__compressed_pair"*, %"class.std::__1::__compressed_pair"** %21, align 8
  %82 = bitcast %"class.std::__1::__compressed_pair"* %81 to %"struct.std::__1::__compressed_pair_elem.0"*, !dbg !4836
  store %"struct.std::__1::__compressed_pair_elem.0"* %82, %"struct.std::__1::__compressed_pair_elem.0"** %20, align 8
  %83 = load %"struct.std::__1::__compressed_pair_elem.0"*, %"struct.std::__1::__compressed_pair_elem.0"** %20, align 8
  %84 = bitcast %"struct.std::__1::__compressed_pair_elem.0"* %83 to %"struct.std::__1::default_delete"*, !dbg !4837
  store %"struct.std::__1::default_delete"* %84, %"struct.std::__1::default_delete"** %23, align 8
  %85 = load %"struct.std::__1::default_delete"*, %"struct.std::__1::default_delete"** %23, align 8, !dbg !4838
  store %"class.std::__1::__compressed_pair"* %63, %"class.std::__1::__compressed_pair"** %35, align 8
  store %"struct.altered_carbon::js::ACLexPosition"** %46, %"struct.altered_carbon::js::ACLexPosition"*** %36, align 8
  store %"struct.std::__1::default_delete"* %85, %"struct.std::__1::default_delete"** %37, align 8
  %86 = load %"class.std::__1::__compressed_pair"*, %"class.std::__1::__compressed_pair"** %35, align 8
  %87 = load %"struct.altered_carbon::js::ACLexPosition"**, %"struct.altered_carbon::js::ACLexPosition"*** %36, align 8, !dbg !4839
  %88 = load %"struct.std::__1::default_delete"*, %"struct.std::__1::default_delete"** %37, align 8, !dbg !4839
  store %"class.std::__1::__compressed_pair"* %86, %"class.std::__1::__compressed_pair"** %32, align 8
  store %"struct.altered_carbon::js::ACLexPosition"** %87, %"struct.altered_carbon::js::ACLexPosition"*** %33, align 8
  store %"struct.std::__1::default_delete"* %88, %"struct.std::__1::default_delete"** %34, align 8
  %89 = load %"class.std::__1::__compressed_pair"*, %"class.std::__1::__compressed_pair"** %32, align 8
  %90 = bitcast %"class.std::__1::__compressed_pair"* %89 to %"struct.std::__1::__compressed_pair_elem"*, !dbg !4840
  %91 = load %"struct.altered_carbon::js::ACLexPosition"**, %"struct.altered_carbon::js::ACLexPosition"*** %33, align 8, !dbg !4841
  store %"struct.altered_carbon::js::ACLexPosition"** %91, %"struct.altered_carbon::js::ACLexPosition"*** %31, align 8
  %92 = load %"struct.altered_carbon::js::ACLexPosition"**, %"struct.altered_carbon::js::ACLexPosition"*** %31, align 8, !dbg !4842
  store %"struct.std::__1::__compressed_pair_elem"* %90, %"struct.std::__1::__compressed_pair_elem"** %25, align 8
  store %"struct.altered_carbon::js::ACLexPosition"** %92, %"struct.altered_carbon::js::ACLexPosition"*** %26, align 8
  %93 = load %"struct.std::__1::__compressed_pair_elem"*, %"struct.std::__1::__compressed_pair_elem"** %25, align 8
  %94 = getelementptr inbounds %"struct.std::__1::__compressed_pair_elem", %"struct.std::__1::__compressed_pair_elem"* %93, i32 0, i32 0, !dbg !4843
  %95 = load %"struct.altered_carbon::js::ACLexPosition"**, %"struct.altered_carbon::js::ACLexPosition"*** %26, align 8, !dbg !4844
  store %"struct.altered_carbon::js::ACLexPosition"** %95, %"struct.altered_carbon::js::ACLexPosition"*** %24, align 8
  %96 = load %"struct.altered_carbon::js::ACLexPosition"**, %"struct.altered_carbon::js::ACLexPosition"*** %24, align 8, !dbg !4845
  %97 = load %"struct.altered_carbon::js::ACLexPosition"*, %"struct.altered_carbon::js::ACLexPosition"** %96, align 8, !dbg !4846
  store %"struct.altered_carbon::js::ACLexPosition"* %97, %"struct.altered_carbon::js::ACLexPosition"** %94, align 8, !dbg !4843
  %98 = bitcast %"class.std::__1::__compressed_pair"* %89 to %"struct.std::__1::__compressed_pair_elem.0"*, !dbg !4840
  %99 = load %"struct.std::__1::default_delete"*, %"struct.std::__1::default_delete"** %34, align 8, !dbg !4847
  store %"struct.std::__1::default_delete"* %99, %"struct.std::__1::default_delete"** %27, align 8
  %100 = load %"struct.std::__1::default_delete"*, %"struct.std::__1::default_delete"** %27, align 8, !dbg !4848
  store %"struct.std::__1::__compressed_pair_elem.0"* %98, %"struct.std::__1::__compressed_pair_elem.0"** %29, align 8
  store %"struct.std::__1::default_delete"* %100, %"struct.std::__1::default_delete"** %30, align 8
  %101 = load %"struct.std::__1::__compressed_pair_elem.0"*, %"struct.std::__1::__compressed_pair_elem.0"** %29, align 8
  %102 = bitcast %"struct.std::__1::__compressed_pair_elem.0"* %101 to %"struct.std::__1::default_delete"*, !dbg !4849
  %103 = load %"struct.std::__1::default_delete"*, %"struct.std::__1::default_delete"** %30, align 8, !dbg !4850
  store %"struct.std::__1::default_delete"* %103, %"struct.std::__1::default_delete"** %28, align 8
  %104 = load %"struct.std::__1::default_delete"*, %"struct.std::__1::default_delete"** %28, align 8, !dbg !4851
  %105 = load i32, i32* %54, align 4, !dbg !4852
  %106 = load i32, i32* %55, align 4, !dbg !4853
  call void @_ZN14altered_carbon2js13ACAstBaseNodeC2ENSt3__110unique_ptrINS0_13ACLexPositionENS2_14default_deleteIS4_EEEENS1_11AstNodeTypeENS1_14AstNodeSubTypeE(%"class.altered_carbon::js::ACAstBaseNode"* %58, %"class.std::__1::unique_ptr"* %56, i32 %105, i32 %106), !dbg !4854
  store %"class.std::__1::unique_ptr"* %56, %"class.std::__1::unique_ptr"** %18, align 8
  %107 = load %"class.std::__1::unique_ptr"*, %"class.std::__1::unique_ptr"** %18, align 8
  store %"class.std::__1::unique_ptr"* %107, %"class.std::__1::unique_ptr"** %17, align 8
  %108 = load %"class.std::__1::unique_ptr"*, %"class.std::__1::unique_ptr"** %17, align 8
  store %"class.std::__1::unique_ptr"* %108, %"class.std::__1::unique_ptr"** %14, align 8
  store %"struct.altered_carbon::js::ACLexPosition"* null, %"struct.altered_carbon::js::ACLexPosition"** %15, align 8
  %109 = load %"class.std::__1::unique_ptr"*, %"class.std::__1::unique_ptr"** %14, align 8
  %110 = getelementptr inbounds %"class.std::__1::unique_ptr", %"class.std::__1::unique_ptr"* %109, i32 0, i32 0, !dbg !4855
  store %"class.std::__1::__compressed_pair"* %110, %"class.std::__1::__compressed_pair"** %13, align 8
  %111 = load %"class.std::__1::__compressed_pair"*, %"class.std::__1::__compressed_pair"** %13, align 8
  %112 = bitcast %"class.std::__1::__compressed_pair"* %111 to %"struct.std::__1::__compressed_pair_elem"*, !dbg !4856
  store %"struct.std::__1::__compressed_pair_elem"* %112, %"struct.std::__1::__compressed_pair_elem"** %12, align 8
  %113 = load %"struct.std::__1::__compressed_pair_elem"*, %"struct.std::__1::__compressed_pair_elem"** %12, align 8
  %114 = getelementptr inbounds %"struct.std::__1::__compressed_pair_elem", %"struct.std::__1::__compressed_pair_elem"* %113, i32 0, i32 0, !dbg !4857
  %115 = load %"struct.altered_carbon::js::ACLexPosition"*, %"struct.altered_carbon::js::ACLexPosition"** %114, align 8, !dbg !4858
  store %"struct.altered_carbon::js::ACLexPosition"* %115, %"struct.altered_carbon::js::ACLexPosition"** %16, align 8, !dbg !4667
  %116 = load %"struct.altered_carbon::js::ACLexPosition"*, %"struct.altered_carbon::js::ACLexPosition"** %15, align 8, !dbg !4859
  %117 = getelementptr inbounds %"class.std::__1::unique_ptr", %"class.std::__1::unique_ptr"* %109, i32 0, i32 0, !dbg !4860
  store %"class.std::__1::__compressed_pair"* %117, %"class.std::__1::__compressed_pair"** %9, align 8
  %118 = load %"class.std::__1::__compressed_pair"*, %"class.std::__1::__compressed_pair"** %9, align 8
  %119 = bitcast %"class.std::__1::__compressed_pair"* %118 to %"struct.std::__1::__compressed_pair_elem"*, !dbg !4861
  store %"struct.std::__1::__compressed_pair_elem"* %119, %"struct.std::__1::__compressed_pair_elem"** %8, align 8
  %120 = load %"struct.std::__1::__compressed_pair_elem"*, %"struct.std::__1::__compressed_pair_elem"** %8, align 8
  %121 = getelementptr inbounds %"struct.std::__1::__compressed_pair_elem", %"struct.std::__1::__compressed_pair_elem"* %120, i32 0, i32 0, !dbg !4862
  store %"struct.altered_carbon::js::ACLexPosition"* %116, %"struct.altered_carbon::js::ACLexPosition"** %121, align 8, !dbg !4863
  %122 = load %"struct.altered_carbon::js::ACLexPosition"*, %"struct.altered_carbon::js::ACLexPosition"** %16, align 8, !dbg !4864
  %123 = icmp ne %"struct.altered_carbon::js::ACLexPosition"* %122, null, !dbg !4864
  br i1 %123, label %124, label %140, !dbg !4865

; <label>:124:                                    ; preds = %5
  %125 = getelementptr inbounds %"class.std::__1::unique_ptr", %"class.std::__1::unique_ptr"* %109, i32 0, i32 0, !dbg !4866
  store %"class.std::__1::__compressed_pair"* %125, %"class.std::__1::__compressed_pair"** %7, align 8
  %126 = load %"class.std::__1::__compressed_pair"*, %"class.std::__1::__compressed_pair"** %7, align 8
  %127 = bitcast %"class.std::__1::__compressed_pair"* %126 to %"struct.std::__1::__compressed_pair_elem.0"*, !dbg !4867
  store %"struct.std::__1::__compressed_pair_elem.0"* %127, %"struct.std::__1::__compressed_pair_elem.0"** %6, align 8
  %128 = load %"struct.std::__1::__compressed_pair_elem.0"*, %"struct.std::__1::__compressed_pair_elem.0"** %6, align 8
  %129 = bitcast %"struct.std::__1::__compressed_pair_elem.0"* %128 to %"struct.std::__1::default_delete"*, !dbg !4868
  %130 = load %"struct.altered_carbon::js::ACLexPosition"*, %"struct.altered_carbon::js::ACLexPosition"** %16, align 8, !dbg !4869
  store %"struct.std::__1::default_delete"* %129, %"struct.std::__1::default_delete"** %10, align 8
  store %"struct.altered_carbon::js::ACLexPosition"* %130, %"struct.altered_carbon::js::ACLexPosition"** %11, align 8
  %131 = load %"struct.std::__1::default_delete"*, %"struct.std::__1::default_delete"** %10, align 8
  %132 = load %"struct.altered_carbon::js::ACLexPosition"*, %"struct.altered_carbon::js::ACLexPosition"** %11, align 8, !dbg !4870
  %133 = icmp eq %"struct.altered_carbon::js::ACLexPosition"* %132, null, !dbg !4871
  br i1 %133, label %139, label %134, !dbg !4871

; <label>:134:                                    ; preds = %124
  %135 = bitcast %"struct.altered_carbon::js::ACLexPosition"* %132 to void (%"struct.altered_carbon::js::ACLexPosition"*)***, !dbg !4871
  %136 = load void (%"struct.altered_carbon::js::ACLexPosition"*)**, void (%"struct.altered_carbon::js::ACLexPosition"*)*** %135, align 8, !dbg !4871
  %137 = getelementptr inbounds void (%"struct.altered_carbon::js::ACLexPosition"*)*, void (%"struct.altered_carbon::js::ACLexPosition"*)** %136, i64 1, !dbg !4871
  %138 = load void (%"struct.altered_carbon::js::ACLexPosition"*)*, void (%"struct.altered_carbon::js::ACLexPosition"*)** %137, align 8, !dbg !4871
  call void %138(%"struct.altered_carbon::js::ACLexPosition"* %132) #6, !dbg !4871
  br label %139, !dbg !4871

; <label>:139:                                    ; preds = %134, %124
  br label %140, !dbg !4866

; <label>:140:                                    ; preds = %5, %139
  %141 = bitcast %"class.altered_carbon::js::ACAstObjectNode"* %57 to i32 (...)***, !dbg !4820
  store i32 (...)** bitcast (i8** getelementptr inbounds ({ [14 x i8*] }, { [14 x i8*] }* @_ZTVN14altered_carbon2js15ACAstObjectNodeE, i32 0, inrange i32 0, i32 2) to i32 (...)**), i32 (...)*** %141, align 8, !dbg !4820
  store %"class.std::__1::vector"* %2, %"class.std::__1::vector"** %19, align 8
  %142 = load %"class.std::__1::vector"*, %"class.std::__1::vector"** %19, align 8, !dbg !4872
  %143 = bitcast %"class.altered_carbon::js::ACAstObjectNode"* %57 to %"class.altered_carbon::js::ACAstBaseNode"*, !dbg !4873
  %144 = getelementptr inbounds %"class.altered_carbon::js::ACAstBaseNode", %"class.altered_carbon::js::ACAstBaseNode"* %143, i32 0, i32 4, !dbg !4873
  store %"class.std::__1::vector"* %144, %"class.std::__1::vector"** %49, align 8
  store %"class.std::__1::vector"* %142, %"class.std::__1::vector"** %50, align 8
  %145 = load %"class.std::__1::vector"*, %"class.std::__1::vector"** %49, align 8
  %146 = load %"class.std::__1::vector"*, %"class.std::__1::vector"** %50, align 8, !dbg !4874
  call void @_ZNSt3__16vectorINS_10unique_ptrIN14altered_carbon2js13ACAstBaseNodeENS_14default_deleteIS4_EEEENS_9allocatorIS7_EEE13__move_assignERSA_NS_17integral_constantIbLb1EEE(%"class.std::__1::vector"* %145, %"class.std::__1::vector"* dereferenceable(24) %146) #6, !dbg !4875
  ret void, !dbg !4876
}

; Function Attrs: nounwind readnone speculatable
declare void @llvm.dbg.declare(metadata, metadata, metadata) #1

declare void @_ZN14altered_carbon2js13ACAstBaseNodeC2ENSt3__110unique_ptrINS0_13ACLexPositionENS2_14default_deleteIS4_EEEENS1_11AstNodeTypeENS1_14AstNodeSubTypeE(%"class.altered_carbon::js::ACAstBaseNode"*, %"class.std::__1::unique_ptr"*, i32, i32) unnamed_addr #2

; Function Attrs: noinline nounwind optnone ssp uwtable
define void @_ZN14altered_carbon2js15ACAstObjectNodeC1ENSt3__110unique_ptrINS0_13ACLexPositionENS2_14default_deleteIS4_EEEENS2_6vectorINS3_INS0_13ACAstBaseNodeENS5_IS9_EEEENS2_9allocatorISB_EEEENS9_11AstNodeTypeENS9_14AstNodeSubTypeE(%"class.altered_carbon::js::ACAstObjectNode"*, %"class.std::__1::unique_ptr"*, %"class.std::__1::vector"*, i32, i32) unnamed_addr #0 align 2 !dbg !4877 {
  %6 = alloca %"class.altered_carbon::js::ACAstObjectNode"*, align 8
  %7 = alloca i32, align 4
  %8 = alloca i32, align 4
  store %"class.altered_carbon::js::ACAstObjectNode"* %0, %"class.altered_carbon::js::ACAstObjectNode"** %6, align 8
  call void @llvm.dbg.declare(metadata %"class.altered_carbon::js::ACAstObjectNode"** %6, metadata !4878, metadata !DIExpression()), !dbg !4879
  call void @llvm.dbg.declare(metadata %"class.std::__1::unique_ptr"* %1, metadata !4880, metadata !DIExpression()), !dbg !4881
  call void @llvm.dbg.declare(metadata %"class.std::__1::vector"* %2, metadata !4882, metadata !DIExpression()), !dbg !4883
  store i32 %3, i32* %7, align 4
  call void @llvm.dbg.declare(metadata i32* %7, metadata !4884, metadata !DIExpression()), !dbg !4885
  store i32 %4, i32* %8, align 4
  call void @llvm.dbg.declare(metadata i32* %8, metadata !4886, metadata !DIExpression()), !dbg !4887
  %9 = load %"class.altered_carbon::js::ACAstObjectNode"*, %"class.altered_carbon::js::ACAstObjectNode"** %6, align 8
  %10 = load i32, i32* %7, align 4, !dbg !4888
  %11 = load i32, i32* %8, align 4, !dbg !4888
  call void @_ZN14altered_carbon2js15ACAstObjectNodeC2ENSt3__110unique_ptrINS0_13ACLexPositionENS2_14default_deleteIS4_EEEENS2_6vectorINS3_INS0_13ACAstBaseNodeENS5_IS9_EEEENS2_9allocatorISB_EEEENS9_11AstNodeTypeENS9_14AstNodeSubTypeE(%"class.altered_carbon::js::ACAstObjectNode"* %9, %"class.std::__1::unique_ptr"* %1, %"class.std::__1::vector"* %2, i32 %10, i32 %11), !dbg !4888
  ret void, !dbg !4889
}

; Function Attrs: noinline nounwind optnone ssp uwtable
define zeroext i1 @_ZN14altered_carbon2js15ACAstObjectNode14convertToParamEv(%"class.altered_carbon::js::ACAstObjectNode"*) unnamed_addr #0 align 2 !dbg !4890 {
  %2 = alloca %"class.std::__1::__wrap_iter"*, align 8
  call void @llvm.dbg.declare(metadata %"class.std::__1::__wrap_iter"** %2, metadata !4891, metadata !DIExpression()), !dbg !4894
  %3 = alloca %"class.std::__1::__wrap_iter"*, align 8
  call void @llvm.dbg.declare(metadata %"class.std::__1::__wrap_iter"** %3, metadata !4891, metadata !DIExpression()), !dbg !4910
  %4 = alloca %"class.std::__1::__wrap_iter"*, align 8
  call void @llvm.dbg.declare(metadata %"class.std::__1::__wrap_iter"** %4, metadata !4912, metadata !DIExpression()), !dbg !4913
  %5 = alloca %"class.std::__1::__wrap_iter"*, align 8
  call void @llvm.dbg.declare(metadata %"class.std::__1::__wrap_iter"** %5, metadata !4914, metadata !DIExpression()), !dbg !4915
  %6 = alloca %"class.std::__1::__wrap_iter"*, align 8
  call void @llvm.dbg.declare(metadata %"class.std::__1::__wrap_iter"** %6, metadata !4916, metadata !DIExpression()), !dbg !4917
  %7 = alloca %"class.std::__1::__wrap_iter"*, align 8
  call void @llvm.dbg.declare(metadata %"class.std::__1::__wrap_iter"** %7, metadata !4918, metadata !DIExpression()), !dbg !4919
  %8 = alloca %"class.std::__1::__wrap_iter"*, align 8
  call void @llvm.dbg.declare(metadata %"class.std::__1::__wrap_iter"** %8, metadata !4920, metadata !DIExpression()), !dbg !4922
  %9 = alloca %"struct.std::__1::__compressed_pair_elem.3"*, align 8
  call void @llvm.dbg.declare(metadata %"struct.std::__1::__compressed_pair_elem.3"** %9, metadata !4926, metadata !DIExpression()), !dbg !4929
  %10 = alloca %"class.std::__1::__compressed_pair.2"*, align 8
  call void @llvm.dbg.declare(metadata %"class.std::__1::__compressed_pair.2"** %10, metadata !4935, metadata !DIExpression()), !dbg !4937
  %11 = alloca %"class.std::__1::unique_ptr.1"*, align 8
  call void @llvm.dbg.declare(metadata %"class.std::__1::unique_ptr.1"** %11, metadata !4938, metadata !DIExpression()), !dbg !4939
  %12 = alloca %"class.std::__1::__wrap_iter"*, align 8
  call void @llvm.dbg.declare(metadata %"class.std::__1::__wrap_iter"** %12, metadata !4920, metadata !DIExpression()), !dbg !4940
  %13 = alloca %"struct.std::__1::__compressed_pair_elem.3"*, align 8
  call void @llvm.dbg.declare(metadata %"struct.std::__1::__compressed_pair_elem.3"** %13, metadata !4926, metadata !DIExpression()), !dbg !4942
  %14 = alloca %"class.std::__1::__compressed_pair.2"*, align 8
  call void @llvm.dbg.declare(metadata %"class.std::__1::__compressed_pair.2"** %14, metadata !4935, metadata !DIExpression()), !dbg !4947
  %15 = alloca %"class.std::__1::unique_ptr.1"*, align 8
  call void @llvm.dbg.declare(metadata %"class.std::__1::unique_ptr.1"** %15, metadata !4948, metadata !DIExpression()), !dbg !4949
  %16 = alloca %"class.std::__1::__wrap_iter"*, align 8
  call void @llvm.dbg.declare(metadata %"class.std::__1::__wrap_iter"** %16, metadata !4950, metadata !DIExpression()), !dbg !4953
  %17 = alloca %"class.std::__1::unique_ptr.1"*, align 8
  call void @llvm.dbg.declare(metadata %"class.std::__1::unique_ptr.1"** %17, metadata !4961, metadata !DIExpression()), !dbg !4962
  %18 = alloca %"class.std::__1::__wrap_iter"*, align 8
  call void @llvm.dbg.declare(metadata %"class.std::__1::__wrap_iter"** %18, metadata !4963, metadata !DIExpression()), !dbg !4964
  %19 = alloca %"class.std::__1::unique_ptr.1"*, align 8
  call void @llvm.dbg.declare(metadata %"class.std::__1::unique_ptr.1"** %19, metadata !4965, metadata !DIExpression()), !dbg !4966
  %20 = alloca %"class.std::__1::__wrap_iter", align 8
  %21 = alloca %"class.std::__1::vector"*, align 8
  call void @llvm.dbg.declare(metadata %"class.std::__1::vector"** %21, metadata !4967, metadata !DIExpression()), !dbg !4968
  %22 = alloca %"class.std::__1::unique_ptr.1"*, align 8
  call void @llvm.dbg.declare(metadata %"class.std::__1::unique_ptr.1"** %22, metadata !4969, metadata !DIExpression()), !dbg !4970
  %23 = alloca %"class.std::__1::__wrap_iter", align 8
  %24 = alloca %"class.std::__1::vector"*, align 8
  call void @llvm.dbg.declare(metadata %"class.std::__1::vector"** %24, metadata !4971, metadata !DIExpression()), !dbg !4972
  %25 = alloca %"class.std::__1::__wrap_iter"*, align 8
  call void @llvm.dbg.declare(metadata %"class.std::__1::__wrap_iter"** %25, metadata !4973, metadata !DIExpression()), !dbg !4975
  %26 = alloca %"class.std::__1::__wrap_iter"*, align 8
  call void @llvm.dbg.declare(metadata %"class.std::__1::__wrap_iter"** %26, metadata !4950, metadata !DIExpression()), !dbg !4977
  %27 = alloca %"class.std::__1::unique_ptr.1"*, align 8
  call void @llvm.dbg.declare(metadata %"class.std::__1::unique_ptr.1"** %27, metadata !4961, metadata !DIExpression()), !dbg !4983
  %28 = alloca %"class.std::__1::__wrap_iter"*, align 8
  call void @llvm.dbg.declare(metadata %"class.std::__1::__wrap_iter"** %28, metadata !4963, metadata !DIExpression()), !dbg !4984
  %29 = alloca %"class.std::__1::unique_ptr.1"*, align 8
  call void @llvm.dbg.declare(metadata %"class.std::__1::unique_ptr.1"** %29, metadata !4965, metadata !DIExpression()), !dbg !4985
  %30 = alloca %"class.std::__1::__wrap_iter", align 8
  %31 = alloca %"class.std::__1::vector"*, align 8
  call void @llvm.dbg.declare(metadata %"class.std::__1::vector"** %31, metadata !4967, metadata !DIExpression()), !dbg !4986
  %32 = alloca %"class.std::__1::unique_ptr.1"*, align 8
  call void @llvm.dbg.declare(metadata %"class.std::__1::unique_ptr.1"** %32, metadata !4969, metadata !DIExpression()), !dbg !4987
  %33 = alloca %"class.std::__1::__wrap_iter", align 8
  %34 = alloca %"class.std::__1::vector"*, align 8
  call void @llvm.dbg.declare(metadata %"class.std::__1::vector"** %34, metadata !4988, metadata !DIExpression()), !dbg !4989
  %35 = alloca %"class.altered_carbon::js::ACAstObjectNode"*, align 8
  %36 = alloca %"class.std::__1::__wrap_iter", align 8
  %37 = alloca %"class.std::__1::__wrap_iter", align 8
  store %"class.altered_carbon::js::ACAstObjectNode"* %0, %"class.altered_carbon::js::ACAstObjectNode"** %35, align 8
  call void @llvm.dbg.declare(metadata %"class.altered_carbon::js::ACAstObjectNode"** %35, metadata !4990, metadata !DIExpression()), !dbg !4991
  %38 = load %"class.altered_carbon::js::ACAstObjectNode"*, %"class.altered_carbon::js::ACAstObjectNode"** %35, align 8
  br label %39, !dbg !4992, !llvm.loop !4993

; <label>:39:                                     ; preds = %1
  call void @llvm.dbg.declare(metadata %"class.std::__1::__wrap_iter"* %36, metadata !4994, metadata !DIExpression()), !dbg !4995
  %40 = bitcast %"class.altered_carbon::js::ACAstObjectNode"* %38 to %"class.altered_carbon::js::ACAstBaseNode"*, !dbg !4995
  %41 = getelementptr inbounds %"class.altered_carbon::js::ACAstBaseNode", %"class.altered_carbon::js::ACAstBaseNode"* %40, i32 0, i32 4, !dbg !4995
  store %"class.std::__1::vector"* %41, %"class.std::__1::vector"** %34, align 8
  %42 = load %"class.std::__1::vector"*, %"class.std::__1::vector"** %34, align 8
  %43 = bitcast %"class.std::__1::vector"* %42 to %"class.std::__1::__vector_base"*, !dbg !4996
  %44 = getelementptr inbounds %"class.std::__1::__vector_base", %"class.std::__1::__vector_base"* %43, i32 0, i32 0, !dbg !4996
  %45 = load %"class.std::__1::unique_ptr.1"*, %"class.std::__1::unique_ptr.1"** %44, align 8, !dbg !4996
  store %"class.std::__1::vector"* %42, %"class.std::__1::vector"** %31, align 8
  store %"class.std::__1::unique_ptr.1"* %45, %"class.std::__1::unique_ptr.1"** %32, align 8
  %46 = load %"class.std::__1::vector"*, %"class.std::__1::vector"** %31, align 8
  %47 = load %"class.std::__1::unique_ptr.1"*, %"class.std::__1::unique_ptr.1"** %32, align 8, !dbg !4997
  store %"class.std::__1::__wrap_iter"* %30, %"class.std::__1::__wrap_iter"** %28, align 8
  store %"class.std::__1::unique_ptr.1"* %47, %"class.std::__1::unique_ptr.1"** %29, align 8
  %48 = load %"class.std::__1::__wrap_iter"*, %"class.std::__1::__wrap_iter"** %28, align 8
  %49 = load %"class.std::__1::unique_ptr.1"*, %"class.std::__1::unique_ptr.1"** %29, align 8, !dbg !4998
  store %"class.std::__1::__wrap_iter"* %48, %"class.std::__1::__wrap_iter"** %26, align 8
  store %"class.std::__1::unique_ptr.1"* %49, %"class.std::__1::unique_ptr.1"** %27, align 8
  %50 = load %"class.std::__1::__wrap_iter"*, %"class.std::__1::__wrap_iter"** %26, align 8
  %51 = getelementptr inbounds %"class.std::__1::__wrap_iter", %"class.std::__1::__wrap_iter"* %50, i32 0, i32 0, !dbg !4999
  %52 = load %"class.std::__1::unique_ptr.1"*, %"class.std::__1::unique_ptr.1"** %27, align 8, !dbg !5000
  store %"class.std::__1::unique_ptr.1"* %52, %"class.std::__1::unique_ptr.1"** %51, align 8, !dbg !4999
  %53 = getelementptr inbounds %"class.std::__1::__wrap_iter", %"class.std::__1::__wrap_iter"* %30, i32 0, i32 0, !dbg !5001
  %54 = load %"class.std::__1::unique_ptr.1"*, %"class.std::__1::unique_ptr.1"** %53, align 8, !dbg !5001
  %55 = getelementptr inbounds %"class.std::__1::__wrap_iter", %"class.std::__1::__wrap_iter"* %33, i32 0, i32 0, !dbg !5002
  store %"class.std::__1::unique_ptr.1"* %54, %"class.std::__1::unique_ptr.1"** %55, align 8, !dbg !5002
  %56 = getelementptr inbounds %"class.std::__1::__wrap_iter", %"class.std::__1::__wrap_iter"* %33, i32 0, i32 0, !dbg !5003
  %57 = load %"class.std::__1::unique_ptr.1"*, %"class.std::__1::unique_ptr.1"** %56, align 8, !dbg !5003
  %58 = getelementptr inbounds %"class.std::__1::__wrap_iter", %"class.std::__1::__wrap_iter"* %36, i32 0, i32 0, !dbg !4995
  store %"class.std::__1::unique_ptr.1"* %57, %"class.std::__1::unique_ptr.1"** %58, align 8, !dbg !4995
  br label %59, !dbg !4995

; <label>:59:                                     ; preds = %120, %39
  %60 = bitcast %"class.altered_carbon::js::ACAstObjectNode"* %38 to %"class.altered_carbon::js::ACAstBaseNode"*, !dbg !5004
  %61 = getelementptr inbounds %"class.altered_carbon::js::ACAstBaseNode", %"class.altered_carbon::js::ACAstBaseNode"* %60, i32 0, i32 4, !dbg !5004
  store %"class.std::__1::vector"* %61, %"class.std::__1::vector"** %24, align 8
  %62 = load %"class.std::__1::vector"*, %"class.std::__1::vector"** %24, align 8
  %63 = bitcast %"class.std::__1::vector"* %62 to %"class.std::__1::__vector_base"*, !dbg !5005
  %64 = getelementptr inbounds %"class.std::__1::__vector_base", %"class.std::__1::__vector_base"* %63, i32 0, i32 1, !dbg !5005
  %65 = load %"class.std::__1::unique_ptr.1"*, %"class.std::__1::unique_ptr.1"** %64, align 8, !dbg !5005
  store %"class.std::__1::vector"* %62, %"class.std::__1::vector"** %21, align 8
  store %"class.std::__1::unique_ptr.1"* %65, %"class.std::__1::unique_ptr.1"** %22, align 8
  %66 = load %"class.std::__1::vector"*, %"class.std::__1::vector"** %21, align 8
  %67 = load %"class.std::__1::unique_ptr.1"*, %"class.std::__1::unique_ptr.1"** %22, align 8, !dbg !5006
  store %"class.std::__1::__wrap_iter"* %20, %"class.std::__1::__wrap_iter"** %18, align 8
  store %"class.std::__1::unique_ptr.1"* %67, %"class.std::__1::unique_ptr.1"** %19, align 8
  %68 = load %"class.std::__1::__wrap_iter"*, %"class.std::__1::__wrap_iter"** %18, align 8
  %69 = load %"class.std::__1::unique_ptr.1"*, %"class.std::__1::unique_ptr.1"** %19, align 8, !dbg !5007
  store %"class.std::__1::__wrap_iter"* %68, %"class.std::__1::__wrap_iter"** %16, align 8
  store %"class.std::__1::unique_ptr.1"* %69, %"class.std::__1::unique_ptr.1"** %17, align 8
  %70 = load %"class.std::__1::__wrap_iter"*, %"class.std::__1::__wrap_iter"** %16, align 8
  %71 = getelementptr inbounds %"class.std::__1::__wrap_iter", %"class.std::__1::__wrap_iter"* %70, i32 0, i32 0, !dbg !5008
  %72 = load %"class.std::__1::unique_ptr.1"*, %"class.std::__1::unique_ptr.1"** %17, align 8, !dbg !5009
  store %"class.std::__1::unique_ptr.1"* %72, %"class.std::__1::unique_ptr.1"** %71, align 8, !dbg !5008
  %73 = getelementptr inbounds %"class.std::__1::__wrap_iter", %"class.std::__1::__wrap_iter"* %20, i32 0, i32 0, !dbg !5010
  %74 = load %"class.std::__1::unique_ptr.1"*, %"class.std::__1::unique_ptr.1"** %73, align 8, !dbg !5010
  %75 = getelementptr inbounds %"class.std::__1::__wrap_iter", %"class.std::__1::__wrap_iter"* %23, i32 0, i32 0, !dbg !5011
  store %"class.std::__1::unique_ptr.1"* %74, %"class.std::__1::unique_ptr.1"** %75, align 8, !dbg !5011
  %76 = getelementptr inbounds %"class.std::__1::__wrap_iter", %"class.std::__1::__wrap_iter"* %23, i32 0, i32 0, !dbg !5012
  %77 = load %"class.std::__1::unique_ptr.1"*, %"class.std::__1::unique_ptr.1"** %76, align 8, !dbg !5012
  %78 = getelementptr inbounds %"class.std::__1::__wrap_iter", %"class.std::__1::__wrap_iter"* %37, i32 0, i32 0, !dbg !5004
  store %"class.std::__1::unique_ptr.1"* %77, %"class.std::__1::unique_ptr.1"** %78, align 8, !dbg !5004
  store %"class.std::__1::__wrap_iter"* %36, %"class.std::__1::__wrap_iter"** %6, align 8
  store %"class.std::__1::__wrap_iter"* %37, %"class.std::__1::__wrap_iter"** %7, align 8
  %79 = load %"class.std::__1::__wrap_iter"*, %"class.std::__1::__wrap_iter"** %6, align 8, !dbg !5013
  %80 = load %"class.std::__1::__wrap_iter"*, %"class.std::__1::__wrap_iter"** %7, align 8, !dbg !5014
  store %"class.std::__1::__wrap_iter"* %79, %"class.std::__1::__wrap_iter"** %4, align 8
  store %"class.std::__1::__wrap_iter"* %80, %"class.std::__1::__wrap_iter"** %5, align 8
  %81 = load %"class.std::__1::__wrap_iter"*, %"class.std::__1::__wrap_iter"** %4, align 8, !dbg !5015
  store %"class.std::__1::__wrap_iter"* %81, %"class.std::__1::__wrap_iter"** %3, align 8
  %82 = load %"class.std::__1::__wrap_iter"*, %"class.std::__1::__wrap_iter"** %3, align 8
  %83 = getelementptr inbounds %"class.std::__1::__wrap_iter", %"class.std::__1::__wrap_iter"* %82, i32 0, i32 0, !dbg !5016
  %84 = load %"class.std::__1::unique_ptr.1"*, %"class.std::__1::unique_ptr.1"** %83, align 8, !dbg !5016
  %85 = load %"class.std::__1::__wrap_iter"*, %"class.std::__1::__wrap_iter"** %5, align 8, !dbg !5017
  store %"class.std::__1::__wrap_iter"* %85, %"class.std::__1::__wrap_iter"** %2, align 8
  %86 = load %"class.std::__1::__wrap_iter"*, %"class.std::__1::__wrap_iter"** %2, align 8
  %87 = getelementptr inbounds %"class.std::__1::__wrap_iter", %"class.std::__1::__wrap_iter"* %86, i32 0, i32 0, !dbg !5018
  %88 = load %"class.std::__1::unique_ptr.1"*, %"class.std::__1::unique_ptr.1"** %87, align 8, !dbg !5018
  %89 = icmp eq %"class.std::__1::unique_ptr.1"* %84, %88, !dbg !5019
  %90 = xor i1 %89, true, !dbg !5020
  br i1 %90, label %91, label %125, !dbg !4995

; <label>:91:                                     ; preds = %59
  store %"class.std::__1::__wrap_iter"* %36, %"class.std::__1::__wrap_iter"** %8, align 8
  %92 = load %"class.std::__1::__wrap_iter"*, %"class.std::__1::__wrap_iter"** %8, align 8
  %93 = getelementptr inbounds %"class.std::__1::__wrap_iter", %"class.std::__1::__wrap_iter"* %92, i32 0, i32 0, !dbg !5021
  %94 = load %"class.std::__1::unique_ptr.1"*, %"class.std::__1::unique_ptr.1"** %93, align 8, !dbg !5021
  store %"class.std::__1::unique_ptr.1"* %94, %"class.std::__1::unique_ptr.1"** %11, align 8
  %95 = load %"class.std::__1::unique_ptr.1"*, %"class.std::__1::unique_ptr.1"** %11, align 8
  %96 = getelementptr inbounds %"class.std::__1::unique_ptr.1", %"class.std::__1::unique_ptr.1"* %95, i32 0, i32 0, !dbg !5022
  store %"class.std::__1::__compressed_pair.2"* %96, %"class.std::__1::__compressed_pair.2"** %10, align 8
  %97 = load %"class.std::__1::__compressed_pair.2"*, %"class.std::__1::__compressed_pair.2"** %10, align 8
  %98 = bitcast %"class.std::__1::__compressed_pair.2"* %97 to %"struct.std::__1::__compressed_pair_elem.3"*, !dbg !5023
  store %"struct.std::__1::__compressed_pair_elem.3"* %98, %"struct.std::__1::__compressed_pair_elem.3"** %9, align 8
  %99 = load %"struct.std::__1::__compressed_pair_elem.3"*, %"struct.std::__1::__compressed_pair_elem.3"** %9, align 8
  %100 = getelementptr inbounds %"struct.std::__1::__compressed_pair_elem.3", %"struct.std::__1::__compressed_pair_elem.3"* %99, i32 0, i32 0, !dbg !5024
  %101 = load %"class.altered_carbon::js::ACAstBaseNode"*, %"class.altered_carbon::js::ACAstBaseNode"** %100, align 8, !dbg !5025
  %102 = icmp ne %"class.altered_carbon::js::ACAstBaseNode"* %101, null, !dbg !5026
  br i1 %102, label %103, label %119, !dbg !5027

; <label>:103:                                    ; preds = %91
  store %"class.std::__1::__wrap_iter"* %36, %"class.std::__1::__wrap_iter"** %12, align 8
  %104 = load %"class.std::__1::__wrap_iter"*, %"class.std::__1::__wrap_iter"** %12, align 8
  %105 = getelementptr inbounds %"class.std::__1::__wrap_iter", %"class.std::__1::__wrap_iter"* %104, i32 0, i32 0, !dbg !5028
  %106 = load %"class.std::__1::unique_ptr.1"*, %"class.std::__1::unique_ptr.1"** %105, align 8, !dbg !5028
  store %"class.std::__1::unique_ptr.1"* %106, %"class.std::__1::unique_ptr.1"** %15, align 8
  %107 = load %"class.std::__1::unique_ptr.1"*, %"class.std::__1::unique_ptr.1"** %15, align 8
  %108 = getelementptr inbounds %"class.std::__1::unique_ptr.1", %"class.std::__1::unique_ptr.1"* %107, i32 0, i32 0, !dbg !5029
  store %"class.std::__1::__compressed_pair.2"* %108, %"class.std::__1::__compressed_pair.2"** %14, align 8
  %109 = load %"class.std::__1::__compressed_pair.2"*, %"class.std::__1::__compressed_pair.2"** %14, align 8
  %110 = bitcast %"class.std::__1::__compressed_pair.2"* %109 to %"struct.std::__1::__compressed_pair_elem.3"*, !dbg !5030
  store %"struct.std::__1::__compressed_pair_elem.3"* %110, %"struct.std::__1::__compressed_pair_elem.3"** %13, align 8
  %111 = load %"struct.std::__1::__compressed_pair_elem.3"*, %"struct.std::__1::__compressed_pair_elem.3"** %13, align 8
  %112 = getelementptr inbounds %"struct.std::__1::__compressed_pair_elem.3", %"struct.std::__1::__compressed_pair_elem.3"* %111, i32 0, i32 0, !dbg !5031
  %113 = load %"class.altered_carbon::js::ACAstBaseNode"*, %"class.altered_carbon::js::ACAstBaseNode"** %112, align 8, !dbg !5032
  %114 = bitcast %"class.altered_carbon::js::ACAstBaseNode"* %113 to i1 (%"class.altered_carbon::js::ACAstBaseNode"*)***, !dbg !5033
  %115 = load i1 (%"class.altered_carbon::js::ACAstBaseNode"*)**, i1 (%"class.altered_carbon::js::ACAstBaseNode"*)*** %114, align 8, !dbg !5033
  %116 = getelementptr inbounds i1 (%"class.altered_carbon::js::ACAstBaseNode"*)*, i1 (%"class.altered_carbon::js::ACAstBaseNode"*)** %115, i64 6, !dbg !5033
  %117 = load i1 (%"class.altered_carbon::js::ACAstBaseNode"*)*, i1 (%"class.altered_carbon::js::ACAstBaseNode"*)** %116, align 8, !dbg !5033
  %118 = call zeroext i1 %117(%"class.altered_carbon::js::ACAstBaseNode"* %113), !dbg !5033
  br label %119, !dbg !5033

; <label>:119:                                    ; preds = %103, %91
  br label %120, !dbg !5027

; <label>:120:                                    ; preds = %119
  store %"class.std::__1::__wrap_iter"* %36, %"class.std::__1::__wrap_iter"** %25, align 8
  %121 = load %"class.std::__1::__wrap_iter"*, %"class.std::__1::__wrap_iter"** %25, align 8
  %122 = getelementptr inbounds %"class.std::__1::__wrap_iter", %"class.std::__1::__wrap_iter"* %121, i32 0, i32 0, !dbg !5034
  %123 = load %"class.std::__1::unique_ptr.1"*, %"class.std::__1::unique_ptr.1"** %122, align 8, !dbg !5035
  %124 = getelementptr inbounds %"class.std::__1::unique_ptr.1", %"class.std::__1::unique_ptr.1"* %123, i32 1, !dbg !5035
  store %"class.std::__1::unique_ptr.1"* %124, %"class.std::__1::unique_ptr.1"** %122, align 8, !dbg !5035
  br label %59, !dbg !5004, !llvm.loop !5036

; <label>:125:                                    ; preds = %59
  br label %126, !dbg !5037

; <label>:126:                                    ; preds = %125
  %127 = bitcast %"class.altered_carbon::js::ACAstObjectNode"* %38 to %"class.altered_carbon::js::ACAstBaseNode"*, !dbg !5038
  %128 = getelementptr inbounds %"class.altered_carbon::js::ACAstBaseNode", %"class.altered_carbon::js::ACAstBaseNode"* %127, i32 0, i32 2, !dbg !5038
  store i32 5, i32* %128, align 8, !dbg !5039
  %129 = bitcast %"class.altered_carbon::js::ACAstObjectNode"* %38 to %"class.altered_carbon::js::ACAstBaseNode"*, !dbg !5040
  %130 = getelementptr inbounds %"class.altered_carbon::js::ACAstBaseNode", %"class.altered_carbon::js::ACAstBaseNode"* %129, i32 0, i32 3, !dbg !5040
  store i32 506, i32* %130, align 4, !dbg !5041
  ret i1 true, !dbg !5042
}

; Function Attrs: noinline nounwind optnone ssp uwtable
define void @_ZNK14altered_carbon2js15ACAstObjectNode14dumpChildNodesERNSt3__113basic_ostreamIcNS2_11char_traitsIcEEEE(%"class.altered_carbon::js::ACAstObjectNode"*, %"class.std::__1::basic_ostream"* dereferenceable(160)) unnamed_addr #0 align 2 !dbg !5043 {
  %3 = alloca %"class.altered_carbon::js::ACAstObjectNode"*, align 8
  %4 = alloca %"class.std::__1::basic_ostream"*, align 8
  store %"class.altered_carbon::js::ACAstObjectNode"* %0, %"class.altered_carbon::js::ACAstObjectNode"** %3, align 8
  call void @llvm.dbg.declare(metadata %"class.altered_carbon::js::ACAstObjectNode"** %3, metadata !5044, metadata !DIExpression()), !dbg !5045
  store %"class.std::__1::basic_ostream"* %1, %"class.std::__1::basic_ostream"** %4, align 8
  call void @llvm.dbg.declare(metadata %"class.std::__1::basic_ostream"** %4, metadata !5046, metadata !DIExpression()), !dbg !5047
  %5 = load %"class.altered_carbon::js::ACAstObjectNode"*, %"class.altered_carbon::js::ACAstObjectNode"** %3, align 8
  %6 = bitcast %"class.altered_carbon::js::ACAstObjectNode"* %5 to %"class.altered_carbon::js::ACAstBaseNode"*, !dbg !5048
  %7 = load %"class.std::__1::basic_ostream"*, %"class.std::__1::basic_ostream"** %4, align 8, !dbg !5049
  call void @_ZNK14altered_carbon2js13ACAstBaseNode12dumpSubNodesERNSt3__113basic_ostreamIcNS2_11char_traitsIcEEEEPKcS9_S9_(%"class.altered_carbon::js::ACAstBaseNode"* %6, %"class.std::__1::basic_ostream"* dereferenceable(160) %7, i8* getelementptr inbounds ([2 x i8], [2 x i8]* @.str, i32 0, i32 0), i8* getelementptr inbounds ([2 x i8], [2 x i8]* @.str.1, i32 0, i32 0), i8* getelementptr inbounds ([6 x i8], [6 x i8]* @.str.2, i32 0, i32 0)), !dbg !5048
  ret void, !dbg !5050
}

declare void @_ZNK14altered_carbon2js13ACAstBaseNode12dumpSubNodesERNSt3__113basic_ostreamIcNS2_11char_traitsIcEEEEPKcS9_S9_(%"class.altered_carbon::js::ACAstBaseNode"*, %"class.std::__1::basic_ostream"* dereferenceable(160), i8*, i8*, i8*) #2

; Function Attrs: noinline nounwind optnone ssp uwtable
define void @_ZN14altered_carbon2js23ACAstObjectInitPropertyC2ENSt3__110unique_ptrINS0_13ACLexPositionENS2_14default_deleteIS4_EEEENS3_INS0_13ACAstBaseNodeENS5_IS8_EEEESA_bbb(%"class.altered_carbon::js::ACAstObjectInitProperty"*, %"class.std::__1::unique_ptr"*, %"class.std::__1::unique_ptr.1"*, %"class.std::__1::unique_ptr.1"*, i1 zeroext, i1 zeroext, i1 zeroext) unnamed_addr #0 align 2 !dbg !5051 {
  %8 = alloca %"struct.std::__1::__compressed_pair_elem.0"*, align 8
  call void @llvm.dbg.declare(metadata %"struct.std::__1::__compressed_pair_elem.0"** %8, metadata !4623, metadata !DIExpression()), !dbg !5072
  %9 = alloca %"class.std::__1::__compressed_pair"*, align 8
  call void @llvm.dbg.declare(metadata %"class.std::__1::__compressed_pair"** %9, metadata !4638, metadata !DIExpression()), !dbg !5078
  %10 = alloca %"class.std::__1::unique_ptr"*, align 8
  call void @llvm.dbg.declare(metadata %"class.std::__1::unique_ptr"** %10, metadata !4694, metadata !DIExpression()), !dbg !5079
  %11 = alloca %"struct.std::__1::default_delete"*, align 8
  call void @llvm.dbg.declare(metadata %"struct.std::__1::default_delete"** %11, metadata !4696, metadata !DIExpression()), !dbg !5080
  %12 = alloca %"struct.altered_carbon::js::ACLexPosition"**, align 8
  call void @llvm.dbg.declare(metadata %"struct.altered_carbon::js::ACLexPosition"*** %12, metadata !4707, metadata !DIExpression()), !dbg !5082
  %13 = alloca %"struct.std::__1::__compressed_pair_elem"*, align 8
  call void @llvm.dbg.declare(metadata %"struct.std::__1::__compressed_pair_elem"** %13, metadata !4736, metadata !DIExpression()), !dbg !5087
  %14 = alloca %"struct.altered_carbon::js::ACLexPosition"**, align 8
  call void @llvm.dbg.declare(metadata %"struct.altered_carbon::js::ACLexPosition"*** %14, metadata !4738, metadata !DIExpression()), !dbg !5088
  %15 = alloca %"struct.std::__1::default_delete"*, align 8
  call void @llvm.dbg.declare(metadata %"struct.std::__1::default_delete"** %15, metadata !4696, metadata !DIExpression()), !dbg !5089
  %16 = alloca %"struct.std::__1::default_delete"*, align 8
  call void @llvm.dbg.declare(metadata %"struct.std::__1::default_delete"** %16, metadata !4696, metadata !DIExpression()), !dbg !5091
  %17 = alloca %"struct.std::__1::__compressed_pair_elem.0"*, align 8
  call void @llvm.dbg.declare(metadata %"struct.std::__1::__compressed_pair_elem.0"** %17, metadata !4751, metadata !DIExpression()), !dbg !5094
  %18 = alloca %"struct.std::__1::default_delete"*, align 8
  call void @llvm.dbg.declare(metadata %"struct.std::__1::default_delete"** %18, metadata !4753, metadata !DIExpression()), !dbg !5095
  %19 = alloca %"struct.altered_carbon::js::ACLexPosition"**, align 8
  call void @llvm.dbg.declare(metadata %"struct.altered_carbon::js::ACLexPosition"*** %19, metadata !4707, metadata !DIExpression()), !dbg !5096
  %20 = alloca %"class.std::__1::__compressed_pair"*, align 8
  call void @llvm.dbg.declare(metadata %"class.std::__1::__compressed_pair"** %20, metadata !4757, metadata !DIExpression()), !dbg !5098
  %21 = alloca %"struct.altered_carbon::js::ACLexPosition"**, align 8
  call void @llvm.dbg.declare(metadata %"struct.altered_carbon::js::ACLexPosition"*** %21, metadata !4759, metadata !DIExpression()), !dbg !5099
  %22 = alloca %"struct.std::__1::default_delete"*, align 8
  call void @llvm.dbg.declare(metadata %"struct.std::__1::default_delete"** %22, metadata !4761, metadata !DIExpression()), !dbg !5100
  %23 = alloca %"class.std::__1::__compressed_pair"*, align 8
  call void @llvm.dbg.declare(metadata %"class.std::__1::__compressed_pair"** %23, metadata !4763, metadata !DIExpression()), !dbg !5101
  %24 = alloca %"struct.altered_carbon::js::ACLexPosition"**, align 8
  call void @llvm.dbg.declare(metadata %"struct.altered_carbon::js::ACLexPosition"*** %24, metadata !4765, metadata !DIExpression()), !dbg !5102
  %25 = alloca %"struct.std::__1::default_delete"*, align 8
  call void @llvm.dbg.declare(metadata %"struct.std::__1::default_delete"** %25, metadata !4767, metadata !DIExpression()), !dbg !5103
  %26 = alloca %"struct.std::__1::__compressed_pair_elem"*, align 8
  call void @llvm.dbg.declare(metadata %"struct.std::__1::__compressed_pair_elem"** %26, metadata !4641, metadata !DIExpression()), !dbg !5104
  %27 = alloca %"class.std::__1::__compressed_pair"*, align 8
  call void @llvm.dbg.declare(metadata %"class.std::__1::__compressed_pair"** %27, metadata !4648, metadata !DIExpression()), !dbg !5108
  %28 = alloca %"struct.std::__1::__compressed_pair_elem"*, align 8
  call void @llvm.dbg.declare(metadata %"struct.std::__1::__compressed_pair_elem"** %28, metadata !4641, metadata !DIExpression()), !dbg !5109
  %29 = alloca %"class.std::__1::__compressed_pair"*, align 8
  call void @llvm.dbg.declare(metadata %"class.std::__1::__compressed_pair"** %29, metadata !4648, metadata !DIExpression()), !dbg !5112
  %30 = alloca %"class.std::__1::unique_ptr"*, align 8
  call void @llvm.dbg.declare(metadata %"class.std::__1::unique_ptr"** %30, metadata !4779, metadata !DIExpression()), !dbg !5113
  %31 = alloca %"struct.altered_carbon::js::ACLexPosition"*, align 8
  call void @llvm.dbg.declare(metadata %"struct.altered_carbon::js::ACLexPosition"** %31, metadata !4781, metadata !DIExpression()), !dbg !5114
  %32 = alloca %"class.std::__1::unique_ptr"*, align 8
  call void @llvm.dbg.declare(metadata %"class.std::__1::unique_ptr"** %32, metadata !4783, metadata !DIExpression()), !dbg !5115
  %33 = alloca %"class.std::__1::unique_ptr"*, align 8
  call void @llvm.dbg.declare(metadata %"class.std::__1::unique_ptr"** %33, metadata !4785, metadata !DIExpression()), !dbg !5116
  %34 = alloca %"struct.altered_carbon::js::ACLexPosition"*, align 8
  %35 = alloca %"class.std::__1::unique_ptr"*, align 8
  call void @llvm.dbg.declare(metadata %"class.std::__1::unique_ptr"** %35, metadata !4787, metadata !DIExpression()), !dbg !5117
  %36 = alloca %"class.std::__1::unique_ptr"*, align 8
  call void @llvm.dbg.declare(metadata %"class.std::__1::unique_ptr"** %36, metadata !4789, metadata !DIExpression()), !dbg !5118
  %37 = alloca %"struct.std::__1::__compressed_pair_elem.0"*, align 8
  call void @llvm.dbg.declare(metadata %"struct.std::__1::__compressed_pair_elem.0"** %37, metadata !4623, metadata !DIExpression()), !dbg !5119
  %38 = alloca %"class.std::__1::__compressed_pair"*, align 8
  call void @llvm.dbg.declare(metadata %"class.std::__1::__compressed_pair"** %38, metadata !4638, metadata !DIExpression()), !dbg !5125
  %39 = alloca %"struct.std::__1::__compressed_pair_elem"*, align 8
  call void @llvm.dbg.declare(metadata %"struct.std::__1::__compressed_pair_elem"** %39, metadata !4641, metadata !DIExpression()), !dbg !5126
  %40 = alloca %"class.std::__1::__compressed_pair"*, align 8
  call void @llvm.dbg.declare(metadata %"class.std::__1::__compressed_pair"** %40, metadata !4648, metadata !DIExpression()), !dbg !5129
  %41 = alloca %"struct.std::__1::default_delete"*, align 8
  call void @llvm.dbg.declare(metadata %"struct.std::__1::default_delete"** %41, metadata !4650, metadata !DIExpression()), !dbg !5130
  %42 = alloca %"struct.altered_carbon::js::ACLexPosition"*, align 8
  call void @llvm.dbg.declare(metadata %"struct.altered_carbon::js::ACLexPosition"** %42, metadata !4655, metadata !DIExpression()), !dbg !5132
  %43 = alloca %"struct.std::__1::__compressed_pair_elem"*, align 8
  call void @llvm.dbg.declare(metadata %"struct.std::__1::__compressed_pair_elem"** %43, metadata !4641, metadata !DIExpression()), !dbg !5133
  %44 = alloca %"class.std::__1::__compressed_pair"*, align 8
  call void @llvm.dbg.declare(metadata %"class.std::__1::__compressed_pair"** %44, metadata !4648, metadata !DIExpression()), !dbg !5136
  %45 = alloca %"class.std::__1::unique_ptr"*, align 8
  call void @llvm.dbg.declare(metadata %"class.std::__1::unique_ptr"** %45, metadata !4661, metadata !DIExpression()), !dbg !5137
  %46 = alloca %"struct.altered_carbon::js::ACLexPosition"*, align 8
  call void @llvm.dbg.declare(metadata %"struct.altered_carbon::js::ACLexPosition"** %46, metadata !4664, metadata !DIExpression()), !dbg !5138
  %47 = alloca %"struct.altered_carbon::js::ACLexPosition"*, align 8
  call void @llvm.dbg.declare(metadata %"struct.altered_carbon::js::ACLexPosition"** %47, metadata !4666, metadata !DIExpression()), !dbg !5139
  %48 = alloca %"class.std::__1::unique_ptr"*, align 8
  call void @llvm.dbg.declare(metadata %"class.std::__1::unique_ptr"** %48, metadata !4668, metadata !DIExpression()), !dbg !5140
  %49 = alloca %"class.std::__1::unique_ptr"*, align 8
  call void @llvm.dbg.declare(metadata %"class.std::__1::unique_ptr"** %49, metadata !4670, metadata !DIExpression()), !dbg !5141
  %50 = alloca %"class.std::__1::unique_ptr.1"*, align 8
  call void @llvm.dbg.declare(metadata %"class.std::__1::unique_ptr.1"** %50, metadata !5142, metadata !DIExpression()), !dbg !5151
  %51 = alloca %"struct.std::__1::__compressed_pair_elem.4"*, align 8
  call void @llvm.dbg.declare(metadata %"struct.std::__1::__compressed_pair_elem.4"** %51, metadata !5153, metadata !DIExpression()), !dbg !5156
  %52 = alloca %"class.std::__1::__compressed_pair.2"*, align 8
  call void @llvm.dbg.declare(metadata %"class.std::__1::__compressed_pair.2"** %52, metadata !5166, metadata !DIExpression()), !dbg !5168
  %53 = alloca %"class.std::__1::unique_ptr.1"*, align 8
  call void @llvm.dbg.declare(metadata %"class.std::__1::unique_ptr.1"** %53, metadata !5169, metadata !DIExpression()), !dbg !5170
  %54 = alloca %"struct.std::__1::default_delete.5"*, align 8
  call void @llvm.dbg.declare(metadata %"struct.std::__1::default_delete.5"** %54, metadata !5171, metadata !DIExpression()), !dbg !5180
  %55 = alloca %"class.altered_carbon::js::ACAstBaseNode"**, align 8
  call void @llvm.dbg.declare(metadata %"class.altered_carbon::js::ACAstBaseNode"*** %55, metadata !5182, metadata !DIExpression()), !dbg !5191
  %56 = alloca %"struct.std::__1::__compressed_pair_elem.3"*, align 8
  call void @llvm.dbg.declare(metadata %"struct.std::__1::__compressed_pair_elem.3"** %56, metadata !5210, metadata !DIExpression()), !dbg !5212
  %57 = alloca %"class.altered_carbon::js::ACAstBaseNode"**, align 8
  call void @llvm.dbg.declare(metadata %"class.altered_carbon::js::ACAstBaseNode"*** %57, metadata !5213, metadata !DIExpression()), !dbg !5214
  %58 = alloca %"struct.std::__1::default_delete.5"*, align 8
  call void @llvm.dbg.declare(metadata %"struct.std::__1::default_delete.5"** %58, metadata !5171, metadata !DIExpression()), !dbg !5215
  %59 = alloca %"struct.std::__1::default_delete.5"*, align 8
  call void @llvm.dbg.declare(metadata %"struct.std::__1::default_delete.5"** %59, metadata !5171, metadata !DIExpression()), !dbg !5217
  %60 = alloca %"struct.std::__1::__compressed_pair_elem.4"*, align 8
  call void @llvm.dbg.declare(metadata %"struct.std::__1::__compressed_pair_elem.4"** %60, metadata !5226, metadata !DIExpression()), !dbg !5227
  %61 = alloca %"struct.std::__1::default_delete.5"*, align 8
  call void @llvm.dbg.declare(metadata %"struct.std::__1::default_delete.5"** %61, metadata !5228, metadata !DIExpression()), !dbg !5229
  %62 = alloca %"class.altered_carbon::js::ACAstBaseNode"**, align 8
  call void @llvm.dbg.declare(metadata %"class.altered_carbon::js::ACAstBaseNode"*** %62, metadata !5182, metadata !DIExpression()), !dbg !5230
  %63 = alloca %"class.std::__1::__compressed_pair.2"*, align 8
  call void @llvm.dbg.declare(metadata %"class.std::__1::__compressed_pair.2"** %63, metadata !5232, metadata !DIExpression()), !dbg !5233
  %64 = alloca %"class.altered_carbon::js::ACAstBaseNode"**, align 8
  call void @llvm.dbg.declare(metadata %"class.altered_carbon::js::ACAstBaseNode"*** %64, metadata !5234, metadata !DIExpression()), !dbg !5235
  %65 = alloca %"struct.std::__1::default_delete.5"*, align 8
  call void @llvm.dbg.declare(metadata %"struct.std::__1::default_delete.5"** %65, metadata !5236, metadata !DIExpression()), !dbg !5237
  %66 = alloca %"class.std::__1::__compressed_pair.2"*, align 8
  call void @llvm.dbg.declare(metadata %"class.std::__1::__compressed_pair.2"** %66, metadata !5238, metadata !DIExpression()), !dbg !5239
  %67 = alloca %"class.altered_carbon::js::ACAstBaseNode"**, align 8
  call void @llvm.dbg.declare(metadata %"class.altered_carbon::js::ACAstBaseNode"*** %67, metadata !5240, metadata !DIExpression()), !dbg !5241
  %68 = alloca %"struct.std::__1::default_delete.5"*, align 8
  call void @llvm.dbg.declare(metadata %"struct.std::__1::default_delete.5"** %68, metadata !5242, metadata !DIExpression()), !dbg !5243
  %69 = alloca %"struct.std::__1::__compressed_pair_elem.3"*, align 8
  call void @llvm.dbg.declare(metadata %"struct.std::__1::__compressed_pair_elem.3"** %69, metadata !5244, metadata !DIExpression()), !dbg !5246
  %70 = alloca %"class.std::__1::__compressed_pair.2"*, align 8
  call void @llvm.dbg.declare(metadata %"class.std::__1::__compressed_pair.2"** %70, metadata !5252, metadata !DIExpression()), !dbg !5253
  %71 = alloca %"struct.std::__1::__compressed_pair_elem.3"*, align 8
  call void @llvm.dbg.declare(metadata %"struct.std::__1::__compressed_pair_elem.3"** %71, metadata !5244, metadata !DIExpression()), !dbg !5254
  %72 = alloca %"class.std::__1::__compressed_pair.2"*, align 8
  call void @llvm.dbg.declare(metadata %"class.std::__1::__compressed_pair.2"** %72, metadata !5252, metadata !DIExpression()), !dbg !5257
  %73 = alloca %"class.std::__1::unique_ptr.1"*, align 8
  call void @llvm.dbg.declare(metadata %"class.std::__1::unique_ptr.1"** %73, metadata !5258, metadata !DIExpression()), !dbg !5259
  %74 = alloca %"class.altered_carbon::js::ACAstBaseNode"*, align 8
  call void @llvm.dbg.declare(metadata %"class.altered_carbon::js::ACAstBaseNode"** %74, metadata !5260, metadata !DIExpression()), !dbg !5261
  %75 = alloca %"class.std::__1::unique_ptr.1"*, align 8
  call void @llvm.dbg.declare(metadata %"class.std::__1::unique_ptr.1"** %75, metadata !5262, metadata !DIExpression()), !dbg !5263
  %76 = alloca %"class.std::__1::unique_ptr.1"*, align 8
  call void @llvm.dbg.declare(metadata %"class.std::__1::unique_ptr.1"** %76, metadata !5264, metadata !DIExpression()), !dbg !5265
  %77 = alloca %"class.altered_carbon::js::ACAstBaseNode"*, align 8
  %78 = alloca %"class.std::__1::unique_ptr.1"*, align 8
  call void @llvm.dbg.declare(metadata %"class.std::__1::unique_ptr.1"** %78, metadata !5266, metadata !DIExpression()), !dbg !5267
  %79 = alloca %"class.std::__1::unique_ptr.1"*, align 8
  call void @llvm.dbg.declare(metadata %"class.std::__1::unique_ptr.1"** %79, metadata !5268, metadata !DIExpression()), !dbg !5269
  %80 = alloca %"class.std::__1::unique_ptr.1"*, align 8
  call void @llvm.dbg.declare(metadata %"class.std::__1::unique_ptr.1"** %80, metadata !5142, metadata !DIExpression()), !dbg !5270
  %81 = alloca %"struct.std::__1::__compressed_pair_elem.4"*, align 8
  call void @llvm.dbg.declare(metadata %"struct.std::__1::__compressed_pair_elem.4"** %81, metadata !5153, metadata !DIExpression()), !dbg !5272
  %82 = alloca %"class.std::__1::__compressed_pair.2"*, align 8
  call void @llvm.dbg.declare(metadata %"class.std::__1::__compressed_pair.2"** %82, metadata !5166, metadata !DIExpression()), !dbg !5278
  %83 = alloca %"class.std::__1::unique_ptr.1"*, align 8
  call void @llvm.dbg.declare(metadata %"class.std::__1::unique_ptr.1"** %83, metadata !5169, metadata !DIExpression()), !dbg !5279
  %84 = alloca %"struct.std::__1::default_delete.5"*, align 8
  call void @llvm.dbg.declare(metadata %"struct.std::__1::default_delete.5"** %84, metadata !5171, metadata !DIExpression()), !dbg !5280
  %85 = alloca %"class.altered_carbon::js::ACAstBaseNode"**, align 8
  call void @llvm.dbg.declare(metadata %"class.altered_carbon::js::ACAstBaseNode"*** %85, metadata !5182, metadata !DIExpression()), !dbg !5282
  %86 = alloca %"struct.std::__1::__compressed_pair_elem.3"*, align 8
  call void @llvm.dbg.declare(metadata %"struct.std::__1::__compressed_pair_elem.3"** %86, metadata !5210, metadata !DIExpression()), !dbg !5287
  %87 = alloca %"class.altered_carbon::js::ACAstBaseNode"**, align 8
  call void @llvm.dbg.declare(metadata %"class.altered_carbon::js::ACAstBaseNode"*** %87, metadata !5213, metadata !DIExpression()), !dbg !5288
  %88 = alloca %"struct.std::__1::default_delete.5"*, align 8
  call void @llvm.dbg.declare(metadata %"struct.std::__1::default_delete.5"** %88, metadata !5171, metadata !DIExpression()), !dbg !5289
  %89 = alloca %"struct.std::__1::default_delete.5"*, align 8
  call void @llvm.dbg.declare(metadata %"struct.std::__1::default_delete.5"** %89, metadata !5171, metadata !DIExpression()), !dbg !5291
  %90 = alloca %"struct.std::__1::__compressed_pair_elem.4"*, align 8
  call void @llvm.dbg.declare(metadata %"struct.std::__1::__compressed_pair_elem.4"** %90, metadata !5226, metadata !DIExpression()), !dbg !5294
  %91 = alloca %"struct.std::__1::default_delete.5"*, align 8
  call void @llvm.dbg.declare(metadata %"struct.std::__1::default_delete.5"** %91, metadata !5228, metadata !DIExpression()), !dbg !5295
  %92 = alloca %"class.altered_carbon::js::ACAstBaseNode"**, align 8
  call void @llvm.dbg.declare(metadata %"class.altered_carbon::js::ACAstBaseNode"*** %92, metadata !5182, metadata !DIExpression()), !dbg !5296
  %93 = alloca %"class.std::__1::__compressed_pair.2"*, align 8
  call void @llvm.dbg.declare(metadata %"class.std::__1::__compressed_pair.2"** %93, metadata !5232, metadata !DIExpression()), !dbg !5298
  %94 = alloca %"class.altered_carbon::js::ACAstBaseNode"**, align 8
  call void @llvm.dbg.declare(metadata %"class.altered_carbon::js::ACAstBaseNode"*** %94, metadata !5234, metadata !DIExpression()), !dbg !5299
  %95 = alloca %"struct.std::__1::default_delete.5"*, align 8
  call void @llvm.dbg.declare(metadata %"struct.std::__1::default_delete.5"** %95, metadata !5236, metadata !DIExpression()), !dbg !5300
  %96 = alloca %"class.std::__1::__compressed_pair.2"*, align 8
  call void @llvm.dbg.declare(metadata %"class.std::__1::__compressed_pair.2"** %96, metadata !5238, metadata !DIExpression()), !dbg !5301
  %97 = alloca %"class.altered_carbon::js::ACAstBaseNode"**, align 8
  call void @llvm.dbg.declare(metadata %"class.altered_carbon::js::ACAstBaseNode"*** %97, metadata !5240, metadata !DIExpression()), !dbg !5302
  %98 = alloca %"struct.std::__1::default_delete.5"*, align 8
  call void @llvm.dbg.declare(metadata %"struct.std::__1::default_delete.5"** %98, metadata !5242, metadata !DIExpression()), !dbg !5303
  %99 = alloca %"struct.std::__1::__compressed_pair_elem.3"*, align 8
  call void @llvm.dbg.declare(metadata %"struct.std::__1::__compressed_pair_elem.3"** %99, metadata !5244, metadata !DIExpression()), !dbg !5304
  %100 = alloca %"class.std::__1::__compressed_pair.2"*, align 8
  call void @llvm.dbg.declare(metadata %"class.std::__1::__compressed_pair.2"** %100, metadata !5252, metadata !DIExpression()), !dbg !5308
  %101 = alloca %"struct.std::__1::__compressed_pair_elem.3"*, align 8
  call void @llvm.dbg.declare(metadata %"struct.std::__1::__compressed_pair_elem.3"** %101, metadata !5244, metadata !DIExpression()), !dbg !5309
  %102 = alloca %"class.std::__1::__compressed_pair.2"*, align 8
  call void @llvm.dbg.declare(metadata %"class.std::__1::__compressed_pair.2"** %102, metadata !5252, metadata !DIExpression()), !dbg !5312
  %103 = alloca %"class.std::__1::unique_ptr.1"*, align 8
  call void @llvm.dbg.declare(metadata %"class.std::__1::unique_ptr.1"** %103, metadata !5258, metadata !DIExpression()), !dbg !5313
  %104 = alloca %"class.altered_carbon::js::ACAstBaseNode"*, align 8
  call void @llvm.dbg.declare(metadata %"class.altered_carbon::js::ACAstBaseNode"** %104, metadata !5260, metadata !DIExpression()), !dbg !5314
  %105 = alloca %"class.std::__1::unique_ptr.1"*, align 8
  call void @llvm.dbg.declare(metadata %"class.std::__1::unique_ptr.1"** %105, metadata !5262, metadata !DIExpression()), !dbg !5315
  %106 = alloca %"class.std::__1::unique_ptr.1"*, align 8
  call void @llvm.dbg.declare(metadata %"class.std::__1::unique_ptr.1"** %106, metadata !5264, metadata !DIExpression()), !dbg !5316
  %107 = alloca %"class.altered_carbon::js::ACAstBaseNode"*, align 8
  %108 = alloca %"class.std::__1::unique_ptr.1"*, align 8
  call void @llvm.dbg.declare(metadata %"class.std::__1::unique_ptr.1"** %108, metadata !5266, metadata !DIExpression()), !dbg !5317
  %109 = alloca %"class.std::__1::unique_ptr.1"*, align 8
  call void @llvm.dbg.declare(metadata %"class.std::__1::unique_ptr.1"** %109, metadata !5268, metadata !DIExpression()), !dbg !5318
  %110 = alloca %"class.std::__1::unique_ptr"*, align 8
  call void @llvm.dbg.declare(metadata %"class.std::__1::unique_ptr"** %110, metadata !4798, metadata !DIExpression()), !dbg !5319
  %111 = alloca %"class.altered_carbon::js::ACAstObjectInitProperty"*, align 8
  %112 = alloca i8, align 1
  %113 = alloca i8, align 1
  %114 = alloca i8, align 1
  %115 = alloca %"class.std::__1::unique_ptr", align 8
  store %"class.altered_carbon::js::ACAstObjectInitProperty"* %0, %"class.altered_carbon::js::ACAstObjectInitProperty"** %111, align 8
  call void @llvm.dbg.declare(metadata %"class.altered_carbon::js::ACAstObjectInitProperty"** %111, metadata !5321, metadata !DIExpression()), !dbg !5323
  call void @llvm.dbg.declare(metadata %"class.std::__1::unique_ptr"* %1, metadata !5324, metadata !DIExpression()), !dbg !5325
  call void @llvm.dbg.declare(metadata %"class.std::__1::unique_ptr.1"* %2, metadata !5326, metadata !DIExpression()), !dbg !5327
  call void @llvm.dbg.declare(metadata %"class.std::__1::unique_ptr.1"* %3, metadata !5328, metadata !DIExpression()), !dbg !5329
  %116 = zext i1 %4 to i8
  store i8 %116, i8* %112, align 1
  call void @llvm.dbg.declare(metadata i8* %112, metadata !5330, metadata !DIExpression()), !dbg !5331
  %117 = zext i1 %5 to i8
  store i8 %117, i8* %113, align 1
  call void @llvm.dbg.declare(metadata i8* %113, metadata !5332, metadata !DIExpression()), !dbg !5333
  %118 = zext i1 %6 to i8
  store i8 %118, i8* %114, align 1
  call void @llvm.dbg.declare(metadata i8* %114, metadata !5334, metadata !DIExpression()), !dbg !5335
  %119 = load %"class.altered_carbon::js::ACAstObjectInitProperty"*, %"class.altered_carbon::js::ACAstObjectInitProperty"** %111, align 8
  %120 = bitcast %"class.altered_carbon::js::ACAstObjectInitProperty"* %119 to %"class.altered_carbon::js::ACAstBaseNode"*, !dbg !5336
  store %"class.std::__1::unique_ptr"* %1, %"class.std::__1::unique_ptr"** %110, align 8
  %121 = load %"class.std::__1::unique_ptr"*, %"class.std::__1::unique_ptr"** %110, align 8, !dbg !5337
  store %"class.std::__1::unique_ptr"* %115, %"class.std::__1::unique_ptr"** %35, align 8
  store %"class.std::__1::unique_ptr"* %121, %"class.std::__1::unique_ptr"** %36, align 8
  %122 = load %"class.std::__1::unique_ptr"*, %"class.std::__1::unique_ptr"** %35, align 8
  %123 = load %"class.std::__1::unique_ptr"*, %"class.std::__1::unique_ptr"** %36, align 8, !dbg !5338
  store %"class.std::__1::unique_ptr"* %122, %"class.std::__1::unique_ptr"** %32, align 8
  store %"class.std::__1::unique_ptr"* %123, %"class.std::__1::unique_ptr"** %33, align 8
  %124 = load %"class.std::__1::unique_ptr"*, %"class.std::__1::unique_ptr"** %32, align 8
  %125 = getelementptr inbounds %"class.std::__1::unique_ptr", %"class.std::__1::unique_ptr"* %124, i32 0, i32 0, !dbg !5339
  %126 = load %"class.std::__1::unique_ptr"*, %"class.std::__1::unique_ptr"** %33, align 8, !dbg !5340
  store %"class.std::__1::unique_ptr"* %126, %"class.std::__1::unique_ptr"** %30, align 8
  %127 = load %"class.std::__1::unique_ptr"*, %"class.std::__1::unique_ptr"** %30, align 8
  %128 = getelementptr inbounds %"class.std::__1::unique_ptr", %"class.std::__1::unique_ptr"* %127, i32 0, i32 0, !dbg !5341
  store %"class.std::__1::__compressed_pair"* %128, %"class.std::__1::__compressed_pair"** %29, align 8
  %129 = load %"class.std::__1::__compressed_pair"*, %"class.std::__1::__compressed_pair"** %29, align 8
  %130 = bitcast %"class.std::__1::__compressed_pair"* %129 to %"struct.std::__1::__compressed_pair_elem"*, !dbg !5342
  store %"struct.std::__1::__compressed_pair_elem"* %130, %"struct.std::__1::__compressed_pair_elem"** %28, align 8
  %131 = load %"struct.std::__1::__compressed_pair_elem"*, %"struct.std::__1::__compressed_pair_elem"** %28, align 8
  %132 = getelementptr inbounds %"struct.std::__1::__compressed_pair_elem", %"struct.std::__1::__compressed_pair_elem"* %131, i32 0, i32 0, !dbg !5343
  %133 = load %"struct.altered_carbon::js::ACLexPosition"*, %"struct.altered_carbon::js::ACLexPosition"** %132, align 8, !dbg !5344
  store %"struct.altered_carbon::js::ACLexPosition"* %133, %"struct.altered_carbon::js::ACLexPosition"** %31, align 8, !dbg !5114
  %134 = getelementptr inbounds %"class.std::__1::unique_ptr", %"class.std::__1::unique_ptr"* %127, i32 0, i32 0, !dbg !5345
  store %"class.std::__1::__compressed_pair"* %134, %"class.std::__1::__compressed_pair"** %27, align 8
  %135 = load %"class.std::__1::__compressed_pair"*, %"class.std::__1::__compressed_pair"** %27, align 8
  %136 = bitcast %"class.std::__1::__compressed_pair"* %135 to %"struct.std::__1::__compressed_pair_elem"*, !dbg !5346
  store %"struct.std::__1::__compressed_pair_elem"* %136, %"struct.std::__1::__compressed_pair_elem"** %26, align 8
  %137 = load %"struct.std::__1::__compressed_pair_elem"*, %"struct.std::__1::__compressed_pair_elem"** %26, align 8
  %138 = getelementptr inbounds %"struct.std::__1::__compressed_pair_elem", %"struct.std::__1::__compressed_pair_elem"* %137, i32 0, i32 0, !dbg !5347
  store %"struct.altered_carbon::js::ACLexPosition"* null, %"struct.altered_carbon::js::ACLexPosition"** %138, align 8, !dbg !5348
  %139 = load %"struct.altered_carbon::js::ACLexPosition"*, %"struct.altered_carbon::js::ACLexPosition"** %31, align 8, !dbg !5349
  store %"struct.altered_carbon::js::ACLexPosition"* %139, %"struct.altered_carbon::js::ACLexPosition"** %34, align 8, !dbg !5340
  %140 = load %"class.std::__1::unique_ptr"*, %"class.std::__1::unique_ptr"** %33, align 8, !dbg !5350
  store %"class.std::__1::unique_ptr"* %140, %"class.std::__1::unique_ptr"** %10, align 8
  %141 = load %"class.std::__1::unique_ptr"*, %"class.std::__1::unique_ptr"** %10, align 8
  %142 = getelementptr inbounds %"class.std::__1::unique_ptr", %"class.std::__1::unique_ptr"* %141, i32 0, i32 0, !dbg !5351
  store %"class.std::__1::__compressed_pair"* %142, %"class.std::__1::__compressed_pair"** %9, align 8
  %143 = load %"class.std::__1::__compressed_pair"*, %"class.std::__1::__compressed_pair"** %9, align 8
  %144 = bitcast %"class.std::__1::__compressed_pair"* %143 to %"struct.std::__1::__compressed_pair_elem.0"*, !dbg !5352
  store %"struct.std::__1::__compressed_pair_elem.0"* %144, %"struct.std::__1::__compressed_pair_elem.0"** %8, align 8
  %145 = load %"struct.std::__1::__compressed_pair_elem.0"*, %"struct.std::__1::__compressed_pair_elem.0"** %8, align 8
  %146 = bitcast %"struct.std::__1::__compressed_pair_elem.0"* %145 to %"struct.std::__1::default_delete"*, !dbg !5353
  store %"struct.std::__1::default_delete"* %146, %"struct.std::__1::default_delete"** %11, align 8
  %147 = load %"struct.std::__1::default_delete"*, %"struct.std::__1::default_delete"** %11, align 8, !dbg !5354
  store %"class.std::__1::__compressed_pair"* %125, %"class.std::__1::__compressed_pair"** %23, align 8
  store %"struct.altered_carbon::js::ACLexPosition"** %34, %"struct.altered_carbon::js::ACLexPosition"*** %24, align 8
  store %"struct.std::__1::default_delete"* %147, %"struct.std::__1::default_delete"** %25, align 8
  %148 = load %"class.std::__1::__compressed_pair"*, %"class.std::__1::__compressed_pair"** %23, align 8
  %149 = load %"struct.altered_carbon::js::ACLexPosition"**, %"struct.altered_carbon::js::ACLexPosition"*** %24, align 8, !dbg !5355
  %150 = load %"struct.std::__1::default_delete"*, %"struct.std::__1::default_delete"** %25, align 8, !dbg !5355
  store %"class.std::__1::__compressed_pair"* %148, %"class.std::__1::__compressed_pair"** %20, align 8
  store %"struct.altered_carbon::js::ACLexPosition"** %149, %"struct.altered_carbon::js::ACLexPosition"*** %21, align 8
  store %"struct.std::__1::default_delete"* %150, %"struct.std::__1::default_delete"** %22, align 8
  %151 = load %"class.std::__1::__compressed_pair"*, %"class.std::__1::__compressed_pair"** %20, align 8
  %152 = bitcast %"class.std::__1::__compressed_pair"* %151 to %"struct.std::__1::__compressed_pair_elem"*, !dbg !5356
  %153 = load %"struct.altered_carbon::js::ACLexPosition"**, %"struct.altered_carbon::js::ACLexPosition"*** %21, align 8, !dbg !5357
  store %"struct.altered_carbon::js::ACLexPosition"** %153, %"struct.altered_carbon::js::ACLexPosition"*** %19, align 8
  %154 = load %"struct.altered_carbon::js::ACLexPosition"**, %"struct.altered_carbon::js::ACLexPosition"*** %19, align 8, !dbg !5358
  store %"struct.std::__1::__compressed_pair_elem"* %152, %"struct.std::__1::__compressed_pair_elem"** %13, align 8
  store %"struct.altered_carbon::js::ACLexPosition"** %154, %"struct.altered_carbon::js::ACLexPosition"*** %14, align 8
  %155 = load %"struct.std::__1::__compressed_pair_elem"*, %"struct.std::__1::__compressed_pair_elem"** %13, align 8
  %156 = getelementptr inbounds %"struct.std::__1::__compressed_pair_elem", %"struct.std::__1::__compressed_pair_elem"* %155, i32 0, i32 0, !dbg !5359
  %157 = load %"struct.altered_carbon::js::ACLexPosition"**, %"struct.altered_carbon::js::ACLexPosition"*** %14, align 8, !dbg !5360
  store %"struct.altered_carbon::js::ACLexPosition"** %157, %"struct.altered_carbon::js::ACLexPosition"*** %12, align 8
  %158 = load %"struct.altered_carbon::js::ACLexPosition"**, %"struct.altered_carbon::js::ACLexPosition"*** %12, align 8, !dbg !5361
  %159 = load %"struct.altered_carbon::js::ACLexPosition"*, %"struct.altered_carbon::js::ACLexPosition"** %158, align 8, !dbg !5362
  store %"struct.altered_carbon::js::ACLexPosition"* %159, %"struct.altered_carbon::js::ACLexPosition"** %156, align 8, !dbg !5359
  %160 = bitcast %"class.std::__1::__compressed_pair"* %151 to %"struct.std::__1::__compressed_pair_elem.0"*, !dbg !5356
  %161 = load %"struct.std::__1::default_delete"*, %"struct.std::__1::default_delete"** %22, align 8, !dbg !5363
  store %"struct.std::__1::default_delete"* %161, %"struct.std::__1::default_delete"** %15, align 8
  %162 = load %"struct.std::__1::default_delete"*, %"struct.std::__1::default_delete"** %15, align 8, !dbg !5364
  store %"struct.std::__1::__compressed_pair_elem.0"* %160, %"struct.std::__1::__compressed_pair_elem.0"** %17, align 8
  store %"struct.std::__1::default_delete"* %162, %"struct.std::__1::default_delete"** %18, align 8
  %163 = load %"struct.std::__1::__compressed_pair_elem.0"*, %"struct.std::__1::__compressed_pair_elem.0"** %17, align 8
  %164 = bitcast %"struct.std::__1::__compressed_pair_elem.0"* %163 to %"struct.std::__1::default_delete"*, !dbg !5365
  %165 = load %"struct.std::__1::default_delete"*, %"struct.std::__1::default_delete"** %18, align 8, !dbg !5366
  store %"struct.std::__1::default_delete"* %165, %"struct.std::__1::default_delete"** %16, align 8
  %166 = load %"struct.std::__1::default_delete"*, %"struct.std::__1::default_delete"** %16, align 8, !dbg !5367
  call void @_ZN14altered_carbon2js13ACAstBaseNodeC2ENSt3__110unique_ptrINS0_13ACLexPositionENS2_14default_deleteIS4_EEEENS1_11AstNodeTypeENS1_14AstNodeSubTypeE(%"class.altered_carbon::js::ACAstBaseNode"* %120, %"class.std::__1::unique_ptr"* %115, i32 13, i32 1302), !dbg !5368
  store %"class.std::__1::unique_ptr"* %115, %"class.std::__1::unique_ptr"** %49, align 8
  %167 = load %"class.std::__1::unique_ptr"*, %"class.std::__1::unique_ptr"** %49, align 8
  store %"class.std::__1::unique_ptr"* %167, %"class.std::__1::unique_ptr"** %48, align 8
  %168 = load %"class.std::__1::unique_ptr"*, %"class.std::__1::unique_ptr"** %48, align 8
  store %"class.std::__1::unique_ptr"* %168, %"class.std::__1::unique_ptr"** %45, align 8
  store %"struct.altered_carbon::js::ACLexPosition"* null, %"struct.altered_carbon::js::ACLexPosition"** %46, align 8
  %169 = load %"class.std::__1::unique_ptr"*, %"class.std::__1::unique_ptr"** %45, align 8
  %170 = getelementptr inbounds %"class.std::__1::unique_ptr", %"class.std::__1::unique_ptr"* %169, i32 0, i32 0, !dbg !5369
  store %"class.std::__1::__compressed_pair"* %170, %"class.std::__1::__compressed_pair"** %44, align 8
  %171 = load %"class.std::__1::__compressed_pair"*, %"class.std::__1::__compressed_pair"** %44, align 8
  %172 = bitcast %"class.std::__1::__compressed_pair"* %171 to %"struct.std::__1::__compressed_pair_elem"*, !dbg !5370
  store %"struct.std::__1::__compressed_pair_elem"* %172, %"struct.std::__1::__compressed_pair_elem"** %43, align 8
  %173 = load %"struct.std::__1::__compressed_pair_elem"*, %"struct.std::__1::__compressed_pair_elem"** %43, align 8
  %174 = getelementptr inbounds %"struct.std::__1::__compressed_pair_elem", %"struct.std::__1::__compressed_pair_elem"* %173, i32 0, i32 0, !dbg !5371
  %175 = load %"struct.altered_carbon::js::ACLexPosition"*, %"struct.altered_carbon::js::ACLexPosition"** %174, align 8, !dbg !5372
  store %"struct.altered_carbon::js::ACLexPosition"* %175, %"struct.altered_carbon::js::ACLexPosition"** %47, align 8, !dbg !5139
  %176 = load %"struct.altered_carbon::js::ACLexPosition"*, %"struct.altered_carbon::js::ACLexPosition"** %46, align 8, !dbg !5373
  %177 = getelementptr inbounds %"class.std::__1::unique_ptr", %"class.std::__1::unique_ptr"* %169, i32 0, i32 0, !dbg !5374
  store %"class.std::__1::__compressed_pair"* %177, %"class.std::__1::__compressed_pair"** %40, align 8
  %178 = load %"class.std::__1::__compressed_pair"*, %"class.std::__1::__compressed_pair"** %40, align 8
  %179 = bitcast %"class.std::__1::__compressed_pair"* %178 to %"struct.std::__1::__compressed_pair_elem"*, !dbg !5375
  store %"struct.std::__1::__compressed_pair_elem"* %179, %"struct.std::__1::__compressed_pair_elem"** %39, align 8
  %180 = load %"struct.std::__1::__compressed_pair_elem"*, %"struct.std::__1::__compressed_pair_elem"** %39, align 8
  %181 = getelementptr inbounds %"struct.std::__1::__compressed_pair_elem", %"struct.std::__1::__compressed_pair_elem"* %180, i32 0, i32 0, !dbg !5376
  store %"struct.altered_carbon::js::ACLexPosition"* %176, %"struct.altered_carbon::js::ACLexPosition"** %181, align 8, !dbg !5377
  %182 = load %"struct.altered_carbon::js::ACLexPosition"*, %"struct.altered_carbon::js::ACLexPosition"** %47, align 8, !dbg !5378
  %183 = icmp ne %"struct.altered_carbon::js::ACLexPosition"* %182, null, !dbg !5378
  br i1 %183, label %184, label %200, !dbg !5379

; <label>:184:                                    ; preds = %7
  %185 = getelementptr inbounds %"class.std::__1::unique_ptr", %"class.std::__1::unique_ptr"* %169, i32 0, i32 0, !dbg !5380
  store %"class.std::__1::__compressed_pair"* %185, %"class.std::__1::__compressed_pair"** %38, align 8
  %186 = load %"class.std::__1::__compressed_pair"*, %"class.std::__1::__compressed_pair"** %38, align 8
  %187 = bitcast %"class.std::__1::__compressed_pair"* %186 to %"struct.std::__1::__compressed_pair_elem.0"*, !dbg !5381
  store %"struct.std::__1::__compressed_pair_elem.0"* %187, %"struct.std::__1::__compressed_pair_elem.0"** %37, align 8
  %188 = load %"struct.std::__1::__compressed_pair_elem.0"*, %"struct.std::__1::__compressed_pair_elem.0"** %37, align 8
  %189 = bitcast %"struct.std::__1::__compressed_pair_elem.0"* %188 to %"struct.std::__1::default_delete"*, !dbg !5382
  %190 = load %"struct.altered_carbon::js::ACLexPosition"*, %"struct.altered_carbon::js::ACLexPosition"** %47, align 8, !dbg !5383
  store %"struct.std::__1::default_delete"* %189, %"struct.std::__1::default_delete"** %41, align 8
  store %"struct.altered_carbon::js::ACLexPosition"* %190, %"struct.altered_carbon::js::ACLexPosition"** %42, align 8
  %191 = load %"struct.std::__1::default_delete"*, %"struct.std::__1::default_delete"** %41, align 8
  %192 = load %"struct.altered_carbon::js::ACLexPosition"*, %"struct.altered_carbon::js::ACLexPosition"** %42, align 8, !dbg !5384
  %193 = icmp eq %"struct.altered_carbon::js::ACLexPosition"* %192, null, !dbg !5385
  br i1 %193, label %199, label %194, !dbg !5385

; <label>:194:                                    ; preds = %184
  %195 = bitcast %"struct.altered_carbon::js::ACLexPosition"* %192 to void (%"struct.altered_carbon::js::ACLexPosition"*)***, !dbg !5385
  %196 = load void (%"struct.altered_carbon::js::ACLexPosition"*)**, void (%"struct.altered_carbon::js::ACLexPosition"*)*** %195, align 8, !dbg !5385
  %197 = getelementptr inbounds void (%"struct.altered_carbon::js::ACLexPosition"*)*, void (%"struct.altered_carbon::js::ACLexPosition"*)** %196, i64 1, !dbg !5385
  %198 = load void (%"struct.altered_carbon::js::ACLexPosition"*)*, void (%"struct.altered_carbon::js::ACLexPosition"*)** %197, align 8, !dbg !5385
  call void %198(%"struct.altered_carbon::js::ACLexPosition"* %192) #6, !dbg !5385
  br label %199, !dbg !5385

; <label>:199:                                    ; preds = %194, %184
  br label %200, !dbg !5380

; <label>:200:                                    ; preds = %7, %199
  %201 = bitcast %"class.altered_carbon::js::ACAstObjectInitProperty"* %119 to i32 (...)***, !dbg !5336
  store i32 (...)** bitcast (i8** getelementptr inbounds ({ [14 x i8*] }, { [14 x i8*] }* @_ZTVN14altered_carbon2js23ACAstObjectInitPropertyE, i32 0, inrange i32 0, i32 2) to i32 (...)**), i32 (...)*** %201, align 8, !dbg !5336
  %202 = getelementptr inbounds %"class.altered_carbon::js::ACAstObjectInitProperty", %"class.altered_carbon::js::ACAstObjectInitProperty"* %119, i32 0, i32 1, !dbg !5386
  store %"class.std::__1::unique_ptr.1"* %2, %"class.std::__1::unique_ptr.1"** %50, align 8
  %203 = load %"class.std::__1::unique_ptr.1"*, %"class.std::__1::unique_ptr.1"** %50, align 8, !dbg !5387
  store %"class.std::__1::unique_ptr.1"* %202, %"class.std::__1::unique_ptr.1"** %78, align 8
  store %"class.std::__1::unique_ptr.1"* %203, %"class.std::__1::unique_ptr.1"** %79, align 8
  %204 = load %"class.std::__1::unique_ptr.1"*, %"class.std::__1::unique_ptr.1"** %78, align 8
  %205 = load %"class.std::__1::unique_ptr.1"*, %"class.std::__1::unique_ptr.1"** %79, align 8, !dbg !5388
  store %"class.std::__1::unique_ptr.1"* %204, %"class.std::__1::unique_ptr.1"** %75, align 8
  store %"class.std::__1::unique_ptr.1"* %205, %"class.std::__1::unique_ptr.1"** %76, align 8
  %206 = load %"class.std::__1::unique_ptr.1"*, %"class.std::__1::unique_ptr.1"** %75, align 8
  %207 = getelementptr inbounds %"class.std::__1::unique_ptr.1", %"class.std::__1::unique_ptr.1"* %206, i32 0, i32 0, !dbg !5389
  %208 = load %"class.std::__1::unique_ptr.1"*, %"class.std::__1::unique_ptr.1"** %76, align 8, !dbg !5390
  store %"class.std::__1::unique_ptr.1"* %208, %"class.std::__1::unique_ptr.1"** %73, align 8
  %209 = load %"class.std::__1::unique_ptr.1"*, %"class.std::__1::unique_ptr.1"** %73, align 8
  %210 = getelementptr inbounds %"class.std::__1::unique_ptr.1", %"class.std::__1::unique_ptr.1"* %209, i32 0, i32 0, !dbg !5391
  store %"class.std::__1::__compressed_pair.2"* %210, %"class.std::__1::__compressed_pair.2"** %72, align 8
  %211 = load %"class.std::__1::__compressed_pair.2"*, %"class.std::__1::__compressed_pair.2"** %72, align 8
  %212 = bitcast %"class.std::__1::__compressed_pair.2"* %211 to %"struct.std::__1::__compressed_pair_elem.3"*, !dbg !5392
  store %"struct.std::__1::__compressed_pair_elem.3"* %212, %"struct.std::__1::__compressed_pair_elem.3"** %71, align 8
  %213 = load %"struct.std::__1::__compressed_pair_elem.3"*, %"struct.std::__1::__compressed_pair_elem.3"** %71, align 8
  %214 = getelementptr inbounds %"struct.std::__1::__compressed_pair_elem.3", %"struct.std::__1::__compressed_pair_elem.3"* %213, i32 0, i32 0, !dbg !5393
  %215 = load %"class.altered_carbon::js::ACAstBaseNode"*, %"class.altered_carbon::js::ACAstBaseNode"** %214, align 8, !dbg !5394
  store %"class.altered_carbon::js::ACAstBaseNode"* %215, %"class.altered_carbon::js::ACAstBaseNode"** %74, align 8, !dbg !5261
  %216 = getelementptr inbounds %"class.std::__1::unique_ptr.1", %"class.std::__1::unique_ptr.1"* %209, i32 0, i32 0, !dbg !5395
  store %"class.std::__1::__compressed_pair.2"* %216, %"class.std::__1::__compressed_pair.2"** %70, align 8
  %217 = load %"class.std::__1::__compressed_pair.2"*, %"class.std::__1::__compressed_pair.2"** %70, align 8
  %218 = bitcast %"class.std::__1::__compressed_pair.2"* %217 to %"struct.std::__1::__compressed_pair_elem.3"*, !dbg !5396
  store %"struct.std::__1::__compressed_pair_elem.3"* %218, %"struct.std::__1::__compressed_pair_elem.3"** %69, align 8
  %219 = load %"struct.std::__1::__compressed_pair_elem.3"*, %"struct.std::__1::__compressed_pair_elem.3"** %69, align 8
  %220 = getelementptr inbounds %"struct.std::__1::__compressed_pair_elem.3", %"struct.std::__1::__compressed_pair_elem.3"* %219, i32 0, i32 0, !dbg !5397
  store %"class.altered_carbon::js::ACAstBaseNode"* null, %"class.altered_carbon::js::ACAstBaseNode"** %220, align 8, !dbg !5398
  %221 = load %"class.altered_carbon::js::ACAstBaseNode"*, %"class.altered_carbon::js::ACAstBaseNode"** %74, align 8, !dbg !5399
  store %"class.altered_carbon::js::ACAstBaseNode"* %221, %"class.altered_carbon::js::ACAstBaseNode"** %77, align 8, !dbg !5390
  %222 = load %"class.std::__1::unique_ptr.1"*, %"class.std::__1::unique_ptr.1"** %76, align 8, !dbg !5400
  store %"class.std::__1::unique_ptr.1"* %222, %"class.std::__1::unique_ptr.1"** %53, align 8
  %223 = load %"class.std::__1::unique_ptr.1"*, %"class.std::__1::unique_ptr.1"** %53, align 8
  %224 = getelementptr inbounds %"class.std::__1::unique_ptr.1", %"class.std::__1::unique_ptr.1"* %223, i32 0, i32 0, !dbg !5401
  store %"class.std::__1::__compressed_pair.2"* %224, %"class.std::__1::__compressed_pair.2"** %52, align 8
  %225 = load %"class.std::__1::__compressed_pair.2"*, %"class.std::__1::__compressed_pair.2"** %52, align 8
  %226 = bitcast %"class.std::__1::__compressed_pair.2"* %225 to %"struct.std::__1::__compressed_pair_elem.4"*, !dbg !5402
  store %"struct.std::__1::__compressed_pair_elem.4"* %226, %"struct.std::__1::__compressed_pair_elem.4"** %51, align 8
  %227 = load %"struct.std::__1::__compressed_pair_elem.4"*, %"struct.std::__1::__compressed_pair_elem.4"** %51, align 8
  %228 = bitcast %"struct.std::__1::__compressed_pair_elem.4"* %227 to %"struct.std::__1::default_delete.5"*, !dbg !5403
  store %"struct.std::__1::default_delete.5"* %228, %"struct.std::__1::default_delete.5"** %54, align 8
  %229 = load %"struct.std::__1::default_delete.5"*, %"struct.std::__1::default_delete.5"** %54, align 8, !dbg !5404
  store %"class.std::__1::__compressed_pair.2"* %207, %"class.std::__1::__compressed_pair.2"** %66, align 8
  store %"class.altered_carbon::js::ACAstBaseNode"** %77, %"class.altered_carbon::js::ACAstBaseNode"*** %67, align 8
  store %"struct.std::__1::default_delete.5"* %229, %"struct.std::__1::default_delete.5"** %68, align 8
  %230 = load %"class.std::__1::__compressed_pair.2"*, %"class.std::__1::__compressed_pair.2"** %66, align 8
  %231 = load %"class.altered_carbon::js::ACAstBaseNode"**, %"class.altered_carbon::js::ACAstBaseNode"*** %67, align 8, !dbg !5405
  %232 = load %"struct.std::__1::default_delete.5"*, %"struct.std::__1::default_delete.5"** %68, align 8, !dbg !5405
  store %"class.std::__1::__compressed_pair.2"* %230, %"class.std::__1::__compressed_pair.2"** %63, align 8
  store %"class.altered_carbon::js::ACAstBaseNode"** %231, %"class.altered_carbon::js::ACAstBaseNode"*** %64, align 8
  store %"struct.std::__1::default_delete.5"* %232, %"struct.std::__1::default_delete.5"** %65, align 8
  %233 = load %"class.std::__1::__compressed_pair.2"*, %"class.std::__1::__compressed_pair.2"** %63, align 8
  %234 = bitcast %"class.std::__1::__compressed_pair.2"* %233 to %"struct.std::__1::__compressed_pair_elem.3"*, !dbg !5406
  %235 = load %"class.altered_carbon::js::ACAstBaseNode"**, %"class.altered_carbon::js::ACAstBaseNode"*** %64, align 8, !dbg !5407
  store %"class.altered_carbon::js::ACAstBaseNode"** %235, %"class.altered_carbon::js::ACAstBaseNode"*** %62, align 8
  %236 = load %"class.altered_carbon::js::ACAstBaseNode"**, %"class.altered_carbon::js::ACAstBaseNode"*** %62, align 8, !dbg !5408
  store %"struct.std::__1::__compressed_pair_elem.3"* %234, %"struct.std::__1::__compressed_pair_elem.3"** %56, align 8
  store %"class.altered_carbon::js::ACAstBaseNode"** %236, %"class.altered_carbon::js::ACAstBaseNode"*** %57, align 8
  %237 = load %"struct.std::__1::__compressed_pair_elem.3"*, %"struct.std::__1::__compressed_pair_elem.3"** %56, align 8
  %238 = getelementptr inbounds %"struct.std::__1::__compressed_pair_elem.3", %"struct.std::__1::__compressed_pair_elem.3"* %237, i32 0, i32 0, !dbg !5409
  %239 = load %"class.altered_carbon::js::ACAstBaseNode"**, %"class.altered_carbon::js::ACAstBaseNode"*** %57, align 8, !dbg !5410
  store %"class.altered_carbon::js::ACAstBaseNode"** %239, %"class.altered_carbon::js::ACAstBaseNode"*** %55, align 8
  %240 = load %"class.altered_carbon::js::ACAstBaseNode"**, %"class.altered_carbon::js::ACAstBaseNode"*** %55, align 8, !dbg !5411
  %241 = load %"class.altered_carbon::js::ACAstBaseNode"*, %"class.altered_carbon::js::ACAstBaseNode"** %240, align 8, !dbg !5412
  store %"class.altered_carbon::js::ACAstBaseNode"* %241, %"class.altered_carbon::js::ACAstBaseNode"** %238, align 8, !dbg !5409
  %242 = bitcast %"class.std::__1::__compressed_pair.2"* %233 to %"struct.std::__1::__compressed_pair_elem.4"*, !dbg !5406
  %243 = load %"struct.std::__1::default_delete.5"*, %"struct.std::__1::default_delete.5"** %65, align 8, !dbg !5413
  store %"struct.std::__1::default_delete.5"* %243, %"struct.std::__1::default_delete.5"** %58, align 8
  %244 = load %"struct.std::__1::default_delete.5"*, %"struct.std::__1::default_delete.5"** %58, align 8, !dbg !5414
  store %"struct.std::__1::__compressed_pair_elem.4"* %242, %"struct.std::__1::__compressed_pair_elem.4"** %60, align 8
  store %"struct.std::__1::default_delete.5"* %244, %"struct.std::__1::default_delete.5"** %61, align 8
  %245 = load %"struct.std::__1::__compressed_pair_elem.4"*, %"struct.std::__1::__compressed_pair_elem.4"** %60, align 8
  %246 = bitcast %"struct.std::__1::__compressed_pair_elem.4"* %245 to %"struct.std::__1::default_delete.5"*, !dbg !5415
  %247 = load %"struct.std::__1::default_delete.5"*, %"struct.std::__1::default_delete.5"** %61, align 8, !dbg !5416
  store %"struct.std::__1::default_delete.5"* %247, %"struct.std::__1::default_delete.5"** %59, align 8
  %248 = load %"struct.std::__1::default_delete.5"*, %"struct.std::__1::default_delete.5"** %59, align 8, !dbg !5417
  %249 = getelementptr inbounds %"class.altered_carbon::js::ACAstObjectInitProperty", %"class.altered_carbon::js::ACAstObjectInitProperty"* %119, i32 0, i32 2, !dbg !5418
  store %"class.std::__1::unique_ptr.1"* %3, %"class.std::__1::unique_ptr.1"** %80, align 8
  %250 = load %"class.std::__1::unique_ptr.1"*, %"class.std::__1::unique_ptr.1"** %80, align 8, !dbg !5419
  store %"class.std::__1::unique_ptr.1"* %249, %"class.std::__1::unique_ptr.1"** %108, align 8
  store %"class.std::__1::unique_ptr.1"* %250, %"class.std::__1::unique_ptr.1"** %109, align 8
  %251 = load %"class.std::__1::unique_ptr.1"*, %"class.std::__1::unique_ptr.1"** %108, align 8
  %252 = load %"class.std::__1::unique_ptr.1"*, %"class.std::__1::unique_ptr.1"** %109, align 8, !dbg !5420
  store %"class.std::__1::unique_ptr.1"* %251, %"class.std::__1::unique_ptr.1"** %105, align 8
  store %"class.std::__1::unique_ptr.1"* %252, %"class.std::__1::unique_ptr.1"** %106, align 8
  %253 = load %"class.std::__1::unique_ptr.1"*, %"class.std::__1::unique_ptr.1"** %105, align 8
  %254 = getelementptr inbounds %"class.std::__1::unique_ptr.1", %"class.std::__1::unique_ptr.1"* %253, i32 0, i32 0, !dbg !5421
  %255 = load %"class.std::__1::unique_ptr.1"*, %"class.std::__1::unique_ptr.1"** %106, align 8, !dbg !5422
  store %"class.std::__1::unique_ptr.1"* %255, %"class.std::__1::unique_ptr.1"** %103, align 8
  %256 = load %"class.std::__1::unique_ptr.1"*, %"class.std::__1::unique_ptr.1"** %103, align 8
  %257 = getelementptr inbounds %"class.std::__1::unique_ptr.1", %"class.std::__1::unique_ptr.1"* %256, i32 0, i32 0, !dbg !5423
  store %"class.std::__1::__compressed_pair.2"* %257, %"class.std::__1::__compressed_pair.2"** %102, align 8
  %258 = load %"class.std::__1::__compressed_pair.2"*, %"class.std::__1::__compressed_pair.2"** %102, align 8
  %259 = bitcast %"class.std::__1::__compressed_pair.2"* %258 to %"struct.std::__1::__compressed_pair_elem.3"*, !dbg !5424
  store %"struct.std::__1::__compressed_pair_elem.3"* %259, %"struct.std::__1::__compressed_pair_elem.3"** %101, align 8
  %260 = load %"struct.std::__1::__compressed_pair_elem.3"*, %"struct.std::__1::__compressed_pair_elem.3"** %101, align 8
  %261 = getelementptr inbounds %"struct.std::__1::__compressed_pair_elem.3", %"struct.std::__1::__compressed_pair_elem.3"* %260, i32 0, i32 0, !dbg !5425
  %262 = load %"class.altered_carbon::js::ACAstBaseNode"*, %"class.altered_carbon::js::ACAstBaseNode"** %261, align 8, !dbg !5426
  store %"class.altered_carbon::js::ACAstBaseNode"* %262, %"class.altered_carbon::js::ACAstBaseNode"** %104, align 8, !dbg !5314
  %263 = getelementptr inbounds %"class.std::__1::unique_ptr.1", %"class.std::__1::unique_ptr.1"* %256, i32 0, i32 0, !dbg !5427
  store %"class.std::__1::__compressed_pair.2"* %263, %"class.std::__1::__compressed_pair.2"** %100, align 8
  %264 = load %"class.std::__1::__compressed_pair.2"*, %"class.std::__1::__compressed_pair.2"** %100, align 8
  %265 = bitcast %"class.std::__1::__compressed_pair.2"* %264 to %"struct.std::__1::__compressed_pair_elem.3"*, !dbg !5428
  store %"struct.std::__1::__compressed_pair_elem.3"* %265, %"struct.std::__1::__compressed_pair_elem.3"** %99, align 8
  %266 = load %"struct.std::__1::__compressed_pair_elem.3"*, %"struct.std::__1::__compressed_pair_elem.3"** %99, align 8
  %267 = getelementptr inbounds %"struct.std::__1::__compressed_pair_elem.3", %"struct.std::__1::__compressed_pair_elem.3"* %266, i32 0, i32 0, !dbg !5429
  store %"class.altered_carbon::js::ACAstBaseNode"* null, %"class.altered_carbon::js::ACAstBaseNode"** %267, align 8, !dbg !5430
  %268 = load %"class.altered_carbon::js::ACAstBaseNode"*, %"class.altered_carbon::js::ACAstBaseNode"** %104, align 8, !dbg !5431
  store %"class.altered_carbon::js::ACAstBaseNode"* %268, %"class.altered_carbon::js::ACAstBaseNode"** %107, align 8, !dbg !5422
  %269 = load %"class.std::__1::unique_ptr.1"*, %"class.std::__1::unique_ptr.1"** %106, align 8, !dbg !5432
  store %"class.std::__1::unique_ptr.1"* %269, %"class.std::__1::unique_ptr.1"** %83, align 8
  %270 = load %"class.std::__1::unique_ptr.1"*, %"class.std::__1::unique_ptr.1"** %83, align 8
  %271 = getelementptr inbounds %"class.std::__1::unique_ptr.1", %"class.std::__1::unique_ptr.1"* %270, i32 0, i32 0, !dbg !5433
  store %"class.std::__1::__compressed_pair.2"* %271, %"class.std::__1::__compressed_pair.2"** %82, align 8
  %272 = load %"class.std::__1::__compressed_pair.2"*, %"class.std::__1::__compressed_pair.2"** %82, align 8
  %273 = bitcast %"class.std::__1::__compressed_pair.2"* %272 to %"struct.std::__1::__compressed_pair_elem.4"*, !dbg !5434
  store %"struct.std::__1::__compressed_pair_elem.4"* %273, %"struct.std::__1::__compressed_pair_elem.4"** %81, align 8
  %274 = load %"struct.std::__1::__compressed_pair_elem.4"*, %"struct.std::__1::__compressed_pair_elem.4"** %81, align 8
  %275 = bitcast %"struct.std::__1::__compressed_pair_elem.4"* %274 to %"struct.std::__1::default_delete.5"*, !dbg !5435
  store %"struct.std::__1::default_delete.5"* %275, %"struct.std::__1::default_delete.5"** %84, align 8
  %276 = load %"struct.std::__1::default_delete.5"*, %"struct.std::__1::default_delete.5"** %84, align 8, !dbg !5436
  store %"class.std::__1::__compressed_pair.2"* %254, %"class.std::__1::__compressed_pair.2"** %96, align 8
  store %"class.altered_carbon::js::ACAstBaseNode"** %107, %"class.altered_carbon::js::ACAstBaseNode"*** %97, align 8
  store %"struct.std::__1::default_delete.5"* %276, %"struct.std::__1::default_delete.5"** %98, align 8
  %277 = load %"class.std::__1::__compressed_pair.2"*, %"class.std::__1::__compressed_pair.2"** %96, align 8
  %278 = load %"class.altered_carbon::js::ACAstBaseNode"**, %"class.altered_carbon::js::ACAstBaseNode"*** %97, align 8, !dbg !5437
  %279 = load %"struct.std::__1::default_delete.5"*, %"struct.std::__1::default_delete.5"** %98, align 8, !dbg !5437
  store %"class.std::__1::__compressed_pair.2"* %277, %"class.std::__1::__compressed_pair.2"** %93, align 8
  store %"class.altered_carbon::js::ACAstBaseNode"** %278, %"class.altered_carbon::js::ACAstBaseNode"*** %94, align 8
  store %"struct.std::__1::default_delete.5"* %279, %"struct.std::__1::default_delete.5"** %95, align 8
  %280 = load %"class.std::__1::__compressed_pair.2"*, %"class.std::__1::__compressed_pair.2"** %93, align 8
  %281 = bitcast %"class.std::__1::__compressed_pair.2"* %280 to %"struct.std::__1::__compressed_pair_elem.3"*, !dbg !5438
  %282 = load %"class.altered_carbon::js::ACAstBaseNode"**, %"class.altered_carbon::js::ACAstBaseNode"*** %94, align 8, !dbg !5439
  store %"class.altered_carbon::js::ACAstBaseNode"** %282, %"class.altered_carbon::js::ACAstBaseNode"*** %92, align 8
  %283 = load %"class.altered_carbon::js::ACAstBaseNode"**, %"class.altered_carbon::js::ACAstBaseNode"*** %92, align 8, !dbg !5440
  store %"struct.std::__1::__compressed_pair_elem.3"* %281, %"struct.std::__1::__compressed_pair_elem.3"** %86, align 8
  store %"class.altered_carbon::js::ACAstBaseNode"** %283, %"class.altered_carbon::js::ACAstBaseNode"*** %87, align 8
  %284 = load %"struct.std::__1::__compressed_pair_elem.3"*, %"struct.std::__1::__compressed_pair_elem.3"** %86, align 8
  %285 = getelementptr inbounds %"struct.std::__1::__compressed_pair_elem.3", %"struct.std::__1::__compressed_pair_elem.3"* %284, i32 0, i32 0, !dbg !5441
  %286 = load %"class.altered_carbon::js::ACAstBaseNode"**, %"class.altered_carbon::js::ACAstBaseNode"*** %87, align 8, !dbg !5442
  store %"class.altered_carbon::js::ACAstBaseNode"** %286, %"class.altered_carbon::js::ACAstBaseNode"*** %85, align 8
  %287 = load %"class.altered_carbon::js::ACAstBaseNode"**, %"class.altered_carbon::js::ACAstBaseNode"*** %85, align 8, !dbg !5443
  %288 = load %"class.altered_carbon::js::ACAstBaseNode"*, %"class.altered_carbon::js::ACAstBaseNode"** %287, align 8, !dbg !5444
  store %"class.altered_carbon::js::ACAstBaseNode"* %288, %"class.altered_carbon::js::ACAstBaseNode"** %285, align 8, !dbg !5441
  %289 = bitcast %"class.std::__1::__compressed_pair.2"* %280 to %"struct.std::__1::__compressed_pair_elem.4"*, !dbg !5438
  %290 = load %"struct.std::__1::default_delete.5"*, %"struct.std::__1::default_delete.5"** %95, align 8, !dbg !5445
  store %"struct.std::__1::default_delete.5"* %290, %"struct.std::__1::default_delete.5"** %88, align 8
  %291 = load %"struct.std::__1::default_delete.5"*, %"struct.std::__1::default_delete.5"** %88, align 8, !dbg !5446
  store %"struct.std::__1::__compressed_pair_elem.4"* %289, %"struct.std::__1::__compressed_pair_elem.4"** %90, align 8
  store %"struct.std::__1::default_delete.5"* %291, %"struct.std::__1::default_delete.5"** %91, align 8
  %292 = load %"struct.std::__1::__compressed_pair_elem.4"*, %"struct.std::__1::__compressed_pair_elem.4"** %90, align 8
  %293 = bitcast %"struct.std::__1::__compressed_pair_elem.4"* %292 to %"struct.std::__1::default_delete.5"*, !dbg !5447
  %294 = load %"struct.std::__1::default_delete.5"*, %"struct.std::__1::default_delete.5"** %91, align 8, !dbg !5448
  store %"struct.std::__1::default_delete.5"* %294, %"struct.std::__1::default_delete.5"** %89, align 8
  %295 = load %"struct.std::__1::default_delete.5"*, %"struct.std::__1::default_delete.5"** %89, align 8, !dbg !5449
  %296 = getelementptr inbounds %"class.altered_carbon::js::ACAstObjectInitProperty", %"class.altered_carbon::js::ACAstObjectInitProperty"* %119, i32 0, i32 3, !dbg !5450
  %297 = load i8, i8* %112, align 1, !dbg !5451
  %298 = trunc i8 %297 to i1, !dbg !5451
  %299 = zext i1 %298 to i8, !dbg !5450
  store i8 %299, i8* %296, align 8, !dbg !5450
  %300 = getelementptr inbounds %"class.altered_carbon::js::ACAstObjectInitProperty", %"class.altered_carbon::js::ACAstObjectInitProperty"* %119, i32 0, i32 4, !dbg !5452
  %301 = load i8, i8* %113, align 1, !dbg !5453
  %302 = trunc i8 %301 to i1, !dbg !5453
  %303 = zext i1 %302 to i8, !dbg !5452
  store i8 %303, i8* %300, align 1, !dbg !5452
  %304 = getelementptr inbounds %"class.altered_carbon::js::ACAstObjectInitProperty", %"class.altered_carbon::js::ACAstObjectInitProperty"* %119, i32 0, i32 5, !dbg !5454
  %305 = load i8, i8* %114, align 1, !dbg !5455
  %306 = trunc i8 %305 to i1, !dbg !5455
  %307 = zext i1 %306 to i8, !dbg !5454
  store i8 %307, i8* %304, align 2, !dbg !5454
  ret void, !dbg !5456
}

; Function Attrs: noinline nounwind optnone ssp uwtable
define void @_ZN14altered_carbon2js23ACAstObjectInitPropertyC1ENSt3__110unique_ptrINS0_13ACLexPositionENS2_14default_deleteIS4_EEEENS3_INS0_13ACAstBaseNodeENS5_IS8_EEEESA_bbb(%"class.altered_carbon::js::ACAstObjectInitProperty"*, %"class.std::__1::unique_ptr"*, %"class.std::__1::unique_ptr.1"*, %"class.std::__1::unique_ptr.1"*, i1 zeroext, i1 zeroext, i1 zeroext) unnamed_addr #0 align 2 !dbg !5457 {
  %8 = alloca %"class.altered_carbon::js::ACAstObjectInitProperty"*, align 8
  %9 = alloca i8, align 1
  %10 = alloca i8, align 1
  %11 = alloca i8, align 1
  store %"class.altered_carbon::js::ACAstObjectInitProperty"* %0, %"class.altered_carbon::js::ACAstObjectInitProperty"** %8, align 8
  call void @llvm.dbg.declare(metadata %"class.altered_carbon::js::ACAstObjectInitProperty"** %8, metadata !5458, metadata !DIExpression()), !dbg !5459
  call void @llvm.dbg.declare(metadata %"class.std::__1::unique_ptr"* %1, metadata !5460, metadata !DIExpression()), !dbg !5461
  call void @llvm.dbg.declare(metadata %"class.std::__1::unique_ptr.1"* %2, metadata !5462, metadata !DIExpression()), !dbg !5463
  call void @llvm.dbg.declare(metadata %"class.std::__1::unique_ptr.1"* %3, metadata !5464, metadata !DIExpression()), !dbg !5465
  %12 = zext i1 %4 to i8
  store i8 %12, i8* %9, align 1
  call void @llvm.dbg.declare(metadata i8* %9, metadata !5466, metadata !DIExpression()), !dbg !5467
  %13 = zext i1 %5 to i8
  store i8 %13, i8* %10, align 1
  call void @llvm.dbg.declare(metadata i8* %10, metadata !5468, metadata !DIExpression()), !dbg !5469
  %14 = zext i1 %6 to i8
  store i8 %14, i8* %11, align 1
  call void @llvm.dbg.declare(metadata i8* %11, metadata !5470, metadata !DIExpression()), !dbg !5471
  %15 = load %"class.altered_carbon::js::ACAstObjectInitProperty"*, %"class.altered_carbon::js::ACAstObjectInitProperty"** %8, align 8
  %16 = load i8, i8* %9, align 1, !dbg !5472
  %17 = trunc i8 %16 to i1, !dbg !5472
  %18 = load i8, i8* %10, align 1, !dbg !5472
  %19 = trunc i8 %18 to i1, !dbg !5472
  %20 = load i8, i8* %11, align 1, !dbg !5472
  %21 = trunc i8 %20 to i1, !dbg !5472
  call void @_ZN14altered_carbon2js23ACAstObjectInitPropertyC2ENSt3__110unique_ptrINS0_13ACLexPositionENS2_14default_deleteIS4_EEEENS3_INS0_13ACAstBaseNodeENS5_IS8_EEEESA_bbb(%"class.altered_carbon::js::ACAstObjectInitProperty"* %15, %"class.std::__1::unique_ptr"* %1, %"class.std::__1::unique_ptr.1"* %2, %"class.std::__1::unique_ptr.1"* %3, i1 zeroext %17, i1 zeroext %19, i1 zeroext %21), !dbg !5472
  ret void, !dbg !5473
}

; Function Attrs: noinline nounwind optnone ssp uwtable
define zeroext i1 @_ZN14altered_carbon2js23ACAstObjectInitProperty14convertToParamEv(%"class.altered_carbon::js::ACAstObjectInitProperty"*) unnamed_addr #0 align 2 !dbg !5474 {
  %2 = alloca %"struct.std::__1::__compressed_pair_elem.3"*, align 8
  call void @llvm.dbg.declare(metadata %"struct.std::__1::__compressed_pair_elem.3"** %2, metadata !4926, metadata !DIExpression()), !dbg !5475
  %3 = alloca %"class.std::__1::__compressed_pair.2"*, align 8
  call void @llvm.dbg.declare(metadata %"class.std::__1::__compressed_pair.2"** %3, metadata !4935, metadata !DIExpression()), !dbg !5481
  %4 = alloca %"class.std::__1::unique_ptr.1"*, align 8
  call void @llvm.dbg.declare(metadata %"class.std::__1::unique_ptr.1"** %4, metadata !4948, metadata !DIExpression()), !dbg !5482
  %5 = alloca %"struct.std::__1::__compressed_pair_elem.3"*, align 8
  call void @llvm.dbg.declare(metadata %"struct.std::__1::__compressed_pair_elem.3"** %5, metadata !4926, metadata !DIExpression()), !dbg !5483
  %6 = alloca %"class.std::__1::__compressed_pair.2"*, align 8
  call void @llvm.dbg.declare(metadata %"class.std::__1::__compressed_pair.2"** %6, metadata !4935, metadata !DIExpression()), !dbg !5487
  %7 = alloca %"class.std::__1::unique_ptr.1"*, align 8
  call void @llvm.dbg.declare(metadata %"class.std::__1::unique_ptr.1"** %7, metadata !4938, metadata !DIExpression()), !dbg !5488
  %8 = alloca %"class.altered_carbon::js::ACAstObjectInitProperty"*, align 8
  store %"class.altered_carbon::js::ACAstObjectInitProperty"* %0, %"class.altered_carbon::js::ACAstObjectInitProperty"** %8, align 8
  call void @llvm.dbg.declare(metadata %"class.altered_carbon::js::ACAstObjectInitProperty"** %8, metadata !5489, metadata !DIExpression()), !dbg !5490
  %9 = load %"class.altered_carbon::js::ACAstObjectInitProperty"*, %"class.altered_carbon::js::ACAstObjectInitProperty"** %8, align 8
  %10 = getelementptr inbounds %"class.altered_carbon::js::ACAstObjectInitProperty", %"class.altered_carbon::js::ACAstObjectInitProperty"* %9, i32 0, i32 2, !dbg !5491
  store %"class.std::__1::unique_ptr.1"* %10, %"class.std::__1::unique_ptr.1"** %7, align 8
  %11 = load %"class.std::__1::unique_ptr.1"*, %"class.std::__1::unique_ptr.1"** %7, align 8
  %12 = getelementptr inbounds %"class.std::__1::unique_ptr.1", %"class.std::__1::unique_ptr.1"* %11, i32 0, i32 0, !dbg !5492
  store %"class.std::__1::__compressed_pair.2"* %12, %"class.std::__1::__compressed_pair.2"** %6, align 8
  %13 = load %"class.std::__1::__compressed_pair.2"*, %"class.std::__1::__compressed_pair.2"** %6, align 8
  %14 = bitcast %"class.std::__1::__compressed_pair.2"* %13 to %"struct.std::__1::__compressed_pair_elem.3"*, !dbg !5493
  store %"struct.std::__1::__compressed_pair_elem.3"* %14, %"struct.std::__1::__compressed_pair_elem.3"** %5, align 8
  %15 = load %"struct.std::__1::__compressed_pair_elem.3"*, %"struct.std::__1::__compressed_pair_elem.3"** %5, align 8
  %16 = getelementptr inbounds %"struct.std::__1::__compressed_pair_elem.3", %"struct.std::__1::__compressed_pair_elem.3"* %15, i32 0, i32 0, !dbg !5494
  %17 = load %"class.altered_carbon::js::ACAstBaseNode"*, %"class.altered_carbon::js::ACAstBaseNode"** %16, align 8, !dbg !5495
  %18 = icmp ne %"class.altered_carbon::js::ACAstBaseNode"* %17, null, !dbg !5496
  br i1 %18, label %19, label %33, !dbg !5497

; <label>:19:                                     ; preds = %1
  %20 = getelementptr inbounds %"class.altered_carbon::js::ACAstObjectInitProperty", %"class.altered_carbon::js::ACAstObjectInitProperty"* %9, i32 0, i32 2, !dbg !5498
  store %"class.std::__1::unique_ptr.1"* %20, %"class.std::__1::unique_ptr.1"** %4, align 8
  %21 = load %"class.std::__1::unique_ptr.1"*, %"class.std::__1::unique_ptr.1"** %4, align 8
  %22 = getelementptr inbounds %"class.std::__1::unique_ptr.1", %"class.std::__1::unique_ptr.1"* %21, i32 0, i32 0, !dbg !5499
  store %"class.std::__1::__compressed_pair.2"* %22, %"class.std::__1::__compressed_pair.2"** %3, align 8
  %23 = load %"class.std::__1::__compressed_pair.2"*, %"class.std::__1::__compressed_pair.2"** %3, align 8
  %24 = bitcast %"class.std::__1::__compressed_pair.2"* %23 to %"struct.std::__1::__compressed_pair_elem.3"*, !dbg !5500
  store %"struct.std::__1::__compressed_pair_elem.3"* %24, %"struct.std::__1::__compressed_pair_elem.3"** %2, align 8
  %25 = load %"struct.std::__1::__compressed_pair_elem.3"*, %"struct.std::__1::__compressed_pair_elem.3"** %2, align 8
  %26 = getelementptr inbounds %"struct.std::__1::__compressed_pair_elem.3", %"struct.std::__1::__compressed_pair_elem.3"* %25, i32 0, i32 0, !dbg !5501
  %27 = load %"class.altered_carbon::js::ACAstBaseNode"*, %"class.altered_carbon::js::ACAstBaseNode"** %26, align 8, !dbg !5502
  %28 = bitcast %"class.altered_carbon::js::ACAstBaseNode"* %27 to i1 (%"class.altered_carbon::js::ACAstBaseNode"*)***, !dbg !5503
  %29 = load i1 (%"class.altered_carbon::js::ACAstBaseNode"*)**, i1 (%"class.altered_carbon::js::ACAstBaseNode"*)*** %28, align 8, !dbg !5503
  %30 = getelementptr inbounds i1 (%"class.altered_carbon::js::ACAstBaseNode"*)*, i1 (%"class.altered_carbon::js::ACAstBaseNode"*)** %29, i64 6, !dbg !5503
  %31 = load i1 (%"class.altered_carbon::js::ACAstBaseNode"*)*, i1 (%"class.altered_carbon::js::ACAstBaseNode"*)** %30, align 8, !dbg !5503
  %32 = call zeroext i1 %31(%"class.altered_carbon::js::ACAstBaseNode"* %27), !dbg !5503
  br label %33, !dbg !5504

; <label>:33:                                     ; preds = %19, %1
  ret i1 true, !dbg !5505
}

; Function Attrs: noinline nounwind optnone ssp uwtable
define void @_ZNK14altered_carbon2js23ACAstObjectInitProperty14dumpChildNodesERNSt3__113basic_ostreamIcNS2_11char_traitsIcEEEE(%"class.altered_carbon::js::ACAstObjectInitProperty"*, %"class.std::__1::basic_ostream"* dereferenceable(160)) unnamed_addr #0 align 2 !dbg !5506 {
  %3 = alloca %"struct.std::__1::__compressed_pair_elem.3"*, align 8
  call void @llvm.dbg.declare(metadata %"struct.std::__1::__compressed_pair_elem.3"** %3, metadata !4926, metadata !DIExpression()), !dbg !5507
  %4 = alloca %"class.std::__1::__compressed_pair.2"*, align 8
  call void @llvm.dbg.declare(metadata %"class.std::__1::__compressed_pair.2"** %4, metadata !4935, metadata !DIExpression()), !dbg !5512
  %5 = alloca %"class.std::__1::unique_ptr.1"*, align 8
  call void @llvm.dbg.declare(metadata %"class.std::__1::unique_ptr.1"** %5, metadata !4938, metadata !DIExpression()), !dbg !5513
  %6 = alloca %"struct.std::__1::__compressed_pair_elem.3"*, align 8
  call void @llvm.dbg.declare(metadata %"struct.std::__1::__compressed_pair_elem.3"** %6, metadata !4926, metadata !DIExpression()), !dbg !5514
  %7 = alloca %"class.std::__1::__compressed_pair.2"*, align 8
  call void @llvm.dbg.declare(metadata %"class.std::__1::__compressed_pair.2"** %7, metadata !4935, metadata !DIExpression()), !dbg !5519
  %8 = alloca %"class.std::__1::unique_ptr.1"*, align 8
  call void @llvm.dbg.declare(metadata %"class.std::__1::unique_ptr.1"** %8, metadata !4948, metadata !DIExpression()), !dbg !5520
  %9 = alloca %"struct.std::__1::__compressed_pair_elem.3"*, align 8
  call void @llvm.dbg.declare(metadata %"struct.std::__1::__compressed_pair_elem.3"** %9, metadata !4926, metadata !DIExpression()), !dbg !5521
  %10 = alloca %"class.std::__1::__compressed_pair.2"*, align 8
  call void @llvm.dbg.declare(metadata %"class.std::__1::__compressed_pair.2"** %10, metadata !4935, metadata !DIExpression()), !dbg !5527
  %11 = alloca %"class.std::__1::unique_ptr.1"*, align 8
  call void @llvm.dbg.declare(metadata %"class.std::__1::unique_ptr.1"** %11, metadata !4948, metadata !DIExpression()), !dbg !5528
  %12 = alloca %"struct.std::__1::__compressed_pair_elem.3"*, align 8
  call void @llvm.dbg.declare(metadata %"struct.std::__1::__compressed_pair_elem.3"** %12, metadata !4926, metadata !DIExpression()), !dbg !5529
  %13 = alloca %"class.std::__1::__compressed_pair.2"*, align 8
  call void @llvm.dbg.declare(metadata %"class.std::__1::__compressed_pair.2"** %13, metadata !4935, metadata !DIExpression()), !dbg !5533
  %14 = alloca %"class.std::__1::unique_ptr.1"*, align 8
  call void @llvm.dbg.declare(metadata %"class.std::__1::unique_ptr.1"** %14, metadata !4938, metadata !DIExpression()), !dbg !5534
  %15 = alloca %"class.altered_carbon::js::ACAstObjectInitProperty"*, align 8
  %16 = alloca %"class.std::__1::basic_ostream"*, align 8
  store %"class.altered_carbon::js::ACAstObjectInitProperty"* %0, %"class.altered_carbon::js::ACAstObjectInitProperty"** %15, align 8
  call void @llvm.dbg.declare(metadata %"class.altered_carbon::js::ACAstObjectInitProperty"** %15, metadata !5535, metadata !DIExpression()), !dbg !5537
  store %"class.std::__1::basic_ostream"* %1, %"class.std::__1::basic_ostream"** %16, align 8
  call void @llvm.dbg.declare(metadata %"class.std::__1::basic_ostream"** %16, metadata !5538, metadata !DIExpression()), !dbg !5539
  %17 = load %"class.altered_carbon::js::ACAstObjectInitProperty"*, %"class.altered_carbon::js::ACAstObjectInitProperty"** %15, align 8
  %18 = load %"class.std::__1::basic_ostream"*, %"class.std::__1::basic_ostream"** %16, align 8, !dbg !5540
  %19 = call dereferenceable(160) %"class.std::__1::basic_ostream"* @_ZNSt3__1lsINS_11char_traitsIcEEEERNS_13basic_ostreamIcT_EES6_PKc(%"class.std::__1::basic_ostream"* dereferenceable(160) %18, i8* getelementptr inbounds ([9 x i8], [9 x i8]* @.str.3, i32 0, i32 0)), !dbg !5541
  %20 = getelementptr inbounds %"class.altered_carbon::js::ACAstObjectInitProperty", %"class.altered_carbon::js::ACAstObjectInitProperty"* %17, i32 0, i32 3, !dbg !5542
  %21 = load i8, i8* %20, align 8, !dbg !5542
  %22 = trunc i8 %21 to i1, !dbg !5542
  %23 = call dereferenceable(160) %"class.std::__1::basic_ostream"* @_ZNSt3__113basic_ostreamIcNS_11char_traitsIcEEElsEb(%"class.std::__1::basic_ostream"* %19, i1 zeroext %22), !dbg !5543
  %24 = load %"class.std::__1::basic_ostream"*, %"class.std::__1::basic_ostream"** %16, align 8, !dbg !5544
  %25 = call dereferenceable(160) %"class.std::__1::basic_ostream"* @_ZNSt3__1lsINS_11char_traitsIcEEEERNS_13basic_ostreamIcT_EES6_PKc(%"class.std::__1::basic_ostream"* dereferenceable(160) %24, i8* getelementptr inbounds ([9 x i8], [9 x i8]* @.str.4, i32 0, i32 0)), !dbg !5545
  %26 = getelementptr inbounds %"class.altered_carbon::js::ACAstObjectInitProperty", %"class.altered_carbon::js::ACAstObjectInitProperty"* %17, i32 0, i32 4, !dbg !5546
  %27 = load i8, i8* %26, align 1, !dbg !5546
  %28 = trunc i8 %27 to i1, !dbg !5546
  %29 = call dereferenceable(160) %"class.std::__1::basic_ostream"* @_ZNSt3__113basic_ostreamIcNS_11char_traitsIcEEElsEb(%"class.std::__1::basic_ostream"* %25, i1 zeroext %28), !dbg !5547
  %30 = load %"class.std::__1::basic_ostream"*, %"class.std::__1::basic_ostream"** %16, align 8, !dbg !5548
  %31 = call dereferenceable(160) %"class.std::__1::basic_ostream"* @_ZNSt3__1lsINS_11char_traitsIcEEEERNS_13basic_ostreamIcT_EES6_PKc(%"class.std::__1::basic_ostream"* dereferenceable(160) %30, i8* getelementptr inbounds ([12 x i8], [12 x i8]* @.str.5, i32 0, i32 0)), !dbg !5549
  %32 = getelementptr inbounds %"class.altered_carbon::js::ACAstObjectInitProperty", %"class.altered_carbon::js::ACAstObjectInitProperty"* %17, i32 0, i32 5, !dbg !5550
  %33 = load i8, i8* %32, align 2, !dbg !5550
  %34 = trunc i8 %33 to i1, !dbg !5550
  %35 = call dereferenceable(160) %"class.std::__1::basic_ostream"* @_ZNSt3__113basic_ostreamIcNS_11char_traitsIcEEElsEb(%"class.std::__1::basic_ostream"* %31, i1 zeroext %34), !dbg !5551
  %36 = getelementptr inbounds %"class.altered_carbon::js::ACAstObjectInitProperty", %"class.altered_carbon::js::ACAstObjectInitProperty"* %17, i32 0, i32 1, !dbg !5552
  store %"class.std::__1::unique_ptr.1"* %36, %"class.std::__1::unique_ptr.1"** %14, align 8
  %37 = load %"class.std::__1::unique_ptr.1"*, %"class.std::__1::unique_ptr.1"** %14, align 8
  %38 = getelementptr inbounds %"class.std::__1::unique_ptr.1", %"class.std::__1::unique_ptr.1"* %37, i32 0, i32 0, !dbg !5553
  store %"class.std::__1::__compressed_pair.2"* %38, %"class.std::__1::__compressed_pair.2"** %13, align 8
  %39 = load %"class.std::__1::__compressed_pair.2"*, %"class.std::__1::__compressed_pair.2"** %13, align 8
  %40 = bitcast %"class.std::__1::__compressed_pair.2"* %39 to %"struct.std::__1::__compressed_pair_elem.3"*, !dbg !5554
  store %"struct.std::__1::__compressed_pair_elem.3"* %40, %"struct.std::__1::__compressed_pair_elem.3"** %12, align 8
  %41 = load %"struct.std::__1::__compressed_pair_elem.3"*, %"struct.std::__1::__compressed_pair_elem.3"** %12, align 8
  %42 = getelementptr inbounds %"struct.std::__1::__compressed_pair_elem.3", %"struct.std::__1::__compressed_pair_elem.3"* %41, i32 0, i32 0, !dbg !5555
  %43 = load %"class.altered_carbon::js::ACAstBaseNode"*, %"class.altered_carbon::js::ACAstBaseNode"** %42, align 8, !dbg !5556
  %44 = icmp ne %"class.altered_carbon::js::ACAstBaseNode"* %43, null, !dbg !5557
  br i1 %44, label %45, label %59, !dbg !5558

; <label>:45:                                     ; preds = %2
  %46 = getelementptr inbounds %"class.altered_carbon::js::ACAstObjectInitProperty", %"class.altered_carbon::js::ACAstObjectInitProperty"* %17, i32 0, i32 1, !dbg !5559
  store %"class.std::__1::unique_ptr.1"* %46, %"class.std::__1::unique_ptr.1"** %11, align 8
  %47 = load %"class.std::__1::unique_ptr.1"*, %"class.std::__1::unique_ptr.1"** %11, align 8
  %48 = getelementptr inbounds %"class.std::__1::unique_ptr.1", %"class.std::__1::unique_ptr.1"* %47, i32 0, i32 0, !dbg !5560
  store %"class.std::__1::__compressed_pair.2"* %48, %"class.std::__1::__compressed_pair.2"** %10, align 8
  %49 = load %"class.std::__1::__compressed_pair.2"*, %"class.std::__1::__compressed_pair.2"** %10, align 8
  %50 = bitcast %"class.std::__1::__compressed_pair.2"* %49 to %"struct.std::__1::__compressed_pair_elem.3"*, !dbg !5561
  store %"struct.std::__1::__compressed_pair_elem.3"* %50, %"struct.std::__1::__compressed_pair_elem.3"** %9, align 8
  %51 = load %"struct.std::__1::__compressed_pair_elem.3"*, %"struct.std::__1::__compressed_pair_elem.3"** %9, align 8
  %52 = getelementptr inbounds %"struct.std::__1::__compressed_pair_elem.3", %"struct.std::__1::__compressed_pair_elem.3"* %51, i32 0, i32 0, !dbg !5562
  %53 = load %"class.altered_carbon::js::ACAstBaseNode"*, %"class.altered_carbon::js::ACAstBaseNode"** %52, align 8, !dbg !5563
  %54 = bitcast %"class.altered_carbon::js::ACAstBaseNode"* %53 to void (%"class.altered_carbon::js::ACAstBaseNode"*, %"class.std::__1::basic_ostream"*)***, !dbg !5564
  %55 = load void (%"class.altered_carbon::js::ACAstBaseNode"*, %"class.std::__1::basic_ostream"*)**, void (%"class.altered_carbon::js::ACAstBaseNode"*, %"class.std::__1::basic_ostream"*)*** %54, align 8, !dbg !5564
  %56 = getelementptr inbounds void (%"class.altered_carbon::js::ACAstBaseNode"*, %"class.std::__1::basic_ostream"*)*, void (%"class.altered_carbon::js::ACAstBaseNode"*, %"class.std::__1::basic_ostream"*)** %55, i64 8, !dbg !5564
  %57 = load void (%"class.altered_carbon::js::ACAstBaseNode"*, %"class.std::__1::basic_ostream"*)*, void (%"class.altered_carbon::js::ACAstBaseNode"*, %"class.std::__1::basic_ostream"*)** %56, align 8, !dbg !5564
  %58 = load %"class.std::__1::basic_ostream"*, %"class.std::__1::basic_ostream"** %16, align 8, !dbg !5565
  call void %57(%"class.altered_carbon::js::ACAstBaseNode"* %53, %"class.std::__1::basic_ostream"* dereferenceable(160) %58), !dbg !5564
  br label %62, !dbg !5566

; <label>:59:                                     ; preds = %2
  %60 = load %"class.std::__1::basic_ostream"*, %"class.std::__1::basic_ostream"** %16, align 8, !dbg !5567
  %61 = call dereferenceable(160) %"class.std::__1::basic_ostream"* @_ZNSt3__1lsINS_11char_traitsIcEEEERNS_13basic_ostreamIcT_EES6_PKc(%"class.std::__1::basic_ostream"* dereferenceable(160) %60, i8* getelementptr inbounds ([7 x i8], [7 x i8]* @.str.6, i32 0, i32 0)), !dbg !5569
  br label %62

; <label>:62:                                     ; preds = %59, %45
  %63 = getelementptr inbounds %"class.altered_carbon::js::ACAstObjectInitProperty", %"class.altered_carbon::js::ACAstObjectInitProperty"* %17, i32 0, i32 2, !dbg !5570
  store %"class.std::__1::unique_ptr.1"* %63, %"class.std::__1::unique_ptr.1"** %5, align 8
  %64 = load %"class.std::__1::unique_ptr.1"*, %"class.std::__1::unique_ptr.1"** %5, align 8
  %65 = getelementptr inbounds %"class.std::__1::unique_ptr.1", %"class.std::__1::unique_ptr.1"* %64, i32 0, i32 0, !dbg !5571
  store %"class.std::__1::__compressed_pair.2"* %65, %"class.std::__1::__compressed_pair.2"** %4, align 8
  %66 = load %"class.std::__1::__compressed_pair.2"*, %"class.std::__1::__compressed_pair.2"** %4, align 8
  %67 = bitcast %"class.std::__1::__compressed_pair.2"* %66 to %"struct.std::__1::__compressed_pair_elem.3"*, !dbg !5572
  store %"struct.std::__1::__compressed_pair_elem.3"* %67, %"struct.std::__1::__compressed_pair_elem.3"** %3, align 8
  %68 = load %"struct.std::__1::__compressed_pair_elem.3"*, %"struct.std::__1::__compressed_pair_elem.3"** %3, align 8
  %69 = getelementptr inbounds %"struct.std::__1::__compressed_pair_elem.3", %"struct.std::__1::__compressed_pair_elem.3"* %68, i32 0, i32 0, !dbg !5573
  %70 = load %"class.altered_carbon::js::ACAstBaseNode"*, %"class.altered_carbon::js::ACAstBaseNode"** %69, align 8, !dbg !5574
  %71 = icmp ne %"class.altered_carbon::js::ACAstBaseNode"* %70, null, !dbg !5575
  br i1 %71, label %72, label %88, !dbg !5576

; <label>:72:                                     ; preds = %62
  %73 = load %"class.std::__1::basic_ostream"*, %"class.std::__1::basic_ostream"** %16, align 8, !dbg !5577
  %74 = call dereferenceable(160) %"class.std::__1::basic_ostream"* @_ZNSt3__1lsINS_11char_traitsIcEEEERNS_13basic_ostreamIcT_EES6_PKc(%"class.std::__1::basic_ostream"* dereferenceable(160) %73, i8* getelementptr inbounds ([6 x i8], [6 x i8]* @.str.7, i32 0, i32 0)), !dbg !5578
  %75 = getelementptr inbounds %"class.altered_carbon::js::ACAstObjectInitProperty", %"class.altered_carbon::js::ACAstObjectInitProperty"* %17, i32 0, i32 2, !dbg !5579
  store %"class.std::__1::unique_ptr.1"* %75, %"class.std::__1::unique_ptr.1"** %8, align 8
  %76 = load %"class.std::__1::unique_ptr.1"*, %"class.std::__1::unique_ptr.1"** %8, align 8
  %77 = getelementptr inbounds %"class.std::__1::unique_ptr.1", %"class.std::__1::unique_ptr.1"* %76, i32 0, i32 0, !dbg !5580
  store %"class.std::__1::__compressed_pair.2"* %77, %"class.std::__1::__compressed_pair.2"** %7, align 8
  %78 = load %"class.std::__1::__compressed_pair.2"*, %"class.std::__1::__compressed_pair.2"** %7, align 8
  %79 = bitcast %"class.std::__1::__compressed_pair.2"* %78 to %"struct.std::__1::__compressed_pair_elem.3"*, !dbg !5581
  store %"struct.std::__1::__compressed_pair_elem.3"* %79, %"struct.std::__1::__compressed_pair_elem.3"** %6, align 8
  %80 = load %"struct.std::__1::__compressed_pair_elem.3"*, %"struct.std::__1::__compressed_pair_elem.3"** %6, align 8
  %81 = getelementptr inbounds %"struct.std::__1::__compressed_pair_elem.3", %"struct.std::__1::__compressed_pair_elem.3"* %80, i32 0, i32 0, !dbg !5582
  %82 = load %"class.altered_carbon::js::ACAstBaseNode"*, %"class.altered_carbon::js::ACAstBaseNode"** %81, align 8, !dbg !5583
  %83 = bitcast %"class.altered_carbon::js::ACAstBaseNode"* %82 to void (%"class.altered_carbon::js::ACAstBaseNode"*, %"class.std::__1::basic_ostream"*)***, !dbg !5584
  %84 = load void (%"class.altered_carbon::js::ACAstBaseNode"*, %"class.std::__1::basic_ostream"*)**, void (%"class.altered_carbon::js::ACAstBaseNode"*, %"class.std::__1::basic_ostream"*)*** %83, align 8, !dbg !5584
  %85 = getelementptr inbounds void (%"class.altered_carbon::js::ACAstBaseNode"*, %"class.std::__1::basic_ostream"*)*, void (%"class.altered_carbon::js::ACAstBaseNode"*, %"class.std::__1::basic_ostream"*)** %84, i64 8, !dbg !5584
  %86 = load void (%"class.altered_carbon::js::ACAstBaseNode"*, %"class.std::__1::basic_ostream"*)*, void (%"class.altered_carbon::js::ACAstBaseNode"*, %"class.std::__1::basic_ostream"*)** %85, align 8, !dbg !5584
  %87 = load %"class.std::__1::basic_ostream"*, %"class.std::__1::basic_ostream"** %16, align 8, !dbg !5585
  call void %86(%"class.altered_carbon::js::ACAstBaseNode"* %82, %"class.std::__1::basic_ostream"* dereferenceable(160) %87), !dbg !5584
  br label %88, !dbg !5586

; <label>:88:                                     ; preds = %72, %62
  ret void, !dbg !5587
}

; Function Attrs: noinline nounwind optnone ssp uwtable
define linkonce_odr dereferenceable(160) %"class.std::__1::basic_ostream"* @_ZNSt3__1lsINS_11char_traitsIcEEEERNS_13basic_ostreamIcT_EES6_PKc(%"class.std::__1::basic_ostream"* dereferenceable(160), i8*) #0 !dbg !5588 {
  %3 = alloca %"class.std::__1::basic_ostream"*, align 8
  %4 = alloca i8*, align 8
  store %"class.std::__1::basic_ostream"* %0, %"class.std::__1::basic_ostream"** %3, align 8
  call void @llvm.dbg.declare(metadata %"class.std::__1::basic_ostream"** %3, metadata !5592, metadata !DIExpression()), !dbg !5593
  store i8* %1, i8** %4, align 8
  call void @llvm.dbg.declare(metadata i8** %4, metadata !5594, metadata !DIExpression()), !dbg !5595
  %5 = load %"class.std::__1::basic_ostream"*, %"class.std::__1::basic_ostream"** %3, align 8, !dbg !5596
  %6 = load i8*, i8** %4, align 8, !dbg !5597
  %7 = load i8*, i8** %4, align 8, !dbg !5598
  %8 = call i64 @_ZNSt3__111char_traitsIcE6lengthEPKc(i8* %7) #6, !dbg !5599
  %9 = call dereferenceable(160) %"class.std::__1::basic_ostream"* @_ZNSt3__124__put_character_sequenceIcNS_11char_traitsIcEEEERNS_13basic_ostreamIT_T0_EES7_PKS4_m(%"class.std::__1::basic_ostream"* dereferenceable(160) %5, i8* %6, i64 %8), !dbg !5600
  ret %"class.std::__1::basic_ostream"* %9, !dbg !5601
}

declare dereferenceable(160) %"class.std::__1::basic_ostream"* @_ZNSt3__113basic_ostreamIcNS_11char_traitsIcEEElsEb(%"class.std::__1::basic_ostream"*, i1 zeroext) #2

; Function Attrs: noinline nounwind optnone ssp uwtable
define linkonce_odr hidden void @_ZN14altered_carbon2js15ACAstObjectNodeD1Ev(%"class.altered_carbon::js::ACAstObjectNode"*) unnamed_addr #0 align 2 !dbg !5602 {
  %2 = alloca %"class.altered_carbon::js::ACAstObjectNode"*, align 8
  store %"class.altered_carbon::js::ACAstObjectNode"* %0, %"class.altered_carbon::js::ACAstObjectNode"** %2, align 8
  call void @llvm.dbg.declare(metadata %"class.altered_carbon::js::ACAstObjectNode"** %2, metadata !5606, metadata !DIExpression()), !dbg !5607
  %3 = load %"class.altered_carbon::js::ACAstObjectNode"*, %"class.altered_carbon::js::ACAstObjectNode"** %2, align 8
  call void @_ZN14altered_carbon2js15ACAstObjectNodeD2Ev(%"class.altered_carbon::js::ACAstObjectNode"* %3) #6, !dbg !5608
  ret void, !dbg !5608
}

; Function Attrs: noinline nounwind optnone ssp uwtable
define linkonce_odr hidden void @_ZN14altered_carbon2js15ACAstObjectNodeD0Ev(%"class.altered_carbon::js::ACAstObjectNode"*) unnamed_addr #0 align 2 !dbg !5609 {
  %2 = alloca %"class.altered_carbon::js::ACAstObjectNode"*, align 8
  store %"class.altered_carbon::js::ACAstObjectNode"* %0, %"class.altered_carbon::js::ACAstObjectNode"** %2, align 8
  call void @llvm.dbg.declare(metadata %"class.altered_carbon::js::ACAstObjectNode"** %2, metadata !5610, metadata !DIExpression()), !dbg !5611
  %3 = load %"class.altered_carbon::js::ACAstObjectNode"*, %"class.altered_carbon::js::ACAstObjectNode"** %2, align 8
  call void @_ZN14altered_carbon2js15ACAstObjectNodeD1Ev(%"class.altered_carbon::js::ACAstObjectNode"* %3) #6, !dbg !5612
  %4 = bitcast %"class.altered_carbon::js::ACAstObjectNode"* %3 to i8*, !dbg !5612
  call void @_ZdlPv(i8* %4) #7, !dbg !5612
  ret void, !dbg !5612
}

declare i8* @_ZNK14altered_carbon2js13ACAstBaseNode6acceptEPNS0_14ACAstVisitableE(%"class.altered_carbon::js::ACAstBaseNode"*, %"class.altered_carbon::js::ACAstVisitable"*) unnamed_addr #2

; Function Attrs: noinline nounwind optnone ssp uwtable
define linkonce_odr hidden void @_ZNK14altered_carbon2js13ACAstBaseNode10identifierEv(%"class.std::__1::basic_string"* noalias sret, %"class.altered_carbon::js::ACAstBaseNode"*) unnamed_addr #0 align 2 !dbg !5613 {
  %3 = alloca %"class.std::__1::allocator.14"*, align 8
  call void @llvm.dbg.declare(metadata %"class.std::__1::allocator.14"** %3, metadata !5614, metadata !DIExpression()), !dbg !5617
  %4 = alloca %"struct.std::__1::__compressed_pair_elem.13"*, align 8
  call void @llvm.dbg.declare(metadata %"struct.std::__1::__compressed_pair_elem.13"** %4, metadata !5634, metadata !DIExpression()), !dbg !5636
  %5 = alloca %"struct.std::__1::__compressed_pair_elem.11"*, align 8
  call void @llvm.dbg.declare(metadata %"struct.std::__1::__compressed_pair_elem.11"** %5, metadata !5637, metadata !DIExpression()), !dbg !5640
  %6 = alloca %"class.std::__1::__compressed_pair.10"*, align 8
  call void @llvm.dbg.declare(metadata %"class.std::__1::__compressed_pair.10"** %6, metadata !5642, metadata !DIExpression()), !dbg !5644
  %7 = alloca %"class.std::__1::__compressed_pair.10"*, align 8
  call void @llvm.dbg.declare(metadata %"class.std::__1::__compressed_pair.10"** %7, metadata !5645, metadata !DIExpression()), !dbg !5646
  %8 = alloca %"class.std::__1::basic_string"*, align 8
  call void @llvm.dbg.declare(metadata %"class.std::__1::basic_string"** %8, metadata !5647, metadata !DIExpression()), !dbg !5649
  %9 = alloca i32*, align 8
  call void @llvm.dbg.declare(metadata i32** %9, metadata !5650, metadata !DIExpression()), !dbg !5651
  %10 = alloca %"class.std::__1::basic_string"*, align 8
  call void @llvm.dbg.declare(metadata %"class.std::__1::basic_string"** %10, metadata !5652, metadata !DIExpression()), !dbg !5653
  %11 = alloca i32*, align 8
  call void @llvm.dbg.declare(metadata i32** %11, metadata !5654, metadata !DIExpression()), !dbg !5655
  %12 = alloca %"class.altered_carbon::js::ACAstBaseNode"*, align 8
  store %"class.altered_carbon::js::ACAstBaseNode"* %1, %"class.altered_carbon::js::ACAstBaseNode"** %12, align 8
  call void @llvm.dbg.declare(metadata %"class.altered_carbon::js::ACAstBaseNode"** %12, metadata !5656, metadata !DIExpression()), !dbg !5657
  %13 = load %"class.altered_carbon::js::ACAstBaseNode"*, %"class.altered_carbon::js::ACAstBaseNode"** %12, align 8
  store %"class.std::__1::basic_string"* %0, %"class.std::__1::basic_string"** %10, align 8
  store i32* getelementptr inbounds ([7 x i32], [7 x i32]* @.str.8, i32 0, i32 0), i32** %11, align 8
  %14 = load %"class.std::__1::basic_string"*, %"class.std::__1::basic_string"** %10, align 8
  %15 = load i32*, i32** %11, align 8, !dbg !5658
  store %"class.std::__1::basic_string"* %14, %"class.std::__1::basic_string"** %8, align 8
  store i32* %15, i32** %9, align 8
  %16 = load %"class.std::__1::basic_string"*, %"class.std::__1::basic_string"** %8, align 8
  %17 = bitcast %"class.std::__1::basic_string"* %16 to %"class.std::__1::__basic_string_common"*, !dbg !5659
  %18 = getelementptr inbounds %"class.std::__1::basic_string", %"class.std::__1::basic_string"* %16, i32 0, i32 0, !dbg !5660
  store %"class.std::__1::__compressed_pair.10"* %18, %"class.std::__1::__compressed_pair.10"** %7, align 8
  %19 = load %"class.std::__1::__compressed_pair.10"*, %"class.std::__1::__compressed_pair.10"** %7, align 8
  store %"class.std::__1::__compressed_pair.10"* %19, %"class.std::__1::__compressed_pair.10"** %6, align 8
  %20 = load %"class.std::__1::__compressed_pair.10"*, %"class.std::__1::__compressed_pair.10"** %6, align 8
  %21 = bitcast %"class.std::__1::__compressed_pair.10"* %20 to %"struct.std::__1::__compressed_pair_elem.11"*, !dbg !5661
  store %"struct.std::__1::__compressed_pair_elem.11"* %21, %"struct.std::__1::__compressed_pair_elem.11"** %5, align 8
  %22 = load %"struct.std::__1::__compressed_pair_elem.11"*, %"struct.std::__1::__compressed_pair_elem.11"** %5, align 8
  %23 = getelementptr inbounds %"struct.std::__1::__compressed_pair_elem.11", %"struct.std::__1::__compressed_pair_elem.11"* %22, i32 0, i32 0, !dbg !5662
  %24 = bitcast %"struct.std::__1::basic_string<wchar_t, std::__1::char_traits<wchar_t>, std::__1::allocator<wchar_t> >::__rep"* %23 to i8*, !dbg !5662
  call void @llvm.memset.p0i8.i64(i8* align 8 %24, i8 0, i64 24, i1 false), !dbg !5662
  %25 = bitcast %"class.std::__1::__compressed_pair.10"* %20 to %"struct.std::__1::__compressed_pair_elem.13"*, !dbg !5661
  store %"struct.std::__1::__compressed_pair_elem.13"* %25, %"struct.std::__1::__compressed_pair_elem.13"** %4, align 8
  %26 = load %"struct.std::__1::__compressed_pair_elem.13"*, %"struct.std::__1::__compressed_pair_elem.13"** %4, align 8
  %27 = bitcast %"struct.std::__1::__compressed_pair_elem.13"* %26 to %"class.std::__1::allocator.14"*, !dbg !5663
  store %"class.std::__1::allocator.14"* %27, %"class.std::__1::allocator.14"** %3, align 8
  %28 = load %"class.std::__1::allocator.14"*, %"class.std::__1::allocator.14"** %3, align 8
  %29 = load i32*, i32** %9, align 8, !dbg !5664
  %30 = load i32*, i32** %9, align 8, !dbg !5666
  %31 = call i64 @_ZNSt3__111char_traitsIwE6lengthEPKw(i32* %30) #6, !dbg !5667
  call void @_ZNSt3__112basic_stringIwNS_11char_traitsIwEENS_9allocatorIwEEE6__initEPKwm(%"class.std::__1::basic_string"* %16, i32* %29, i64 %31) #6, !dbg !5668
  ret void, !dbg !5669
}

; Function Attrs: noinline nounwind optnone ssp uwtable
define linkonce_odr hidden i32 @_ZNK14altered_carbon2js13ACAstBaseNode10precedenceEv(%"class.altered_carbon::js::ACAstBaseNode"*) unnamed_addr #0 align 2 !dbg !5670 {
  %2 = alloca %"class.altered_carbon::js::ACAstBaseNode"*, align 8
  store %"class.altered_carbon::js::ACAstBaseNode"* %0, %"class.altered_carbon::js::ACAstBaseNode"** %2, align 8
  call void @llvm.dbg.declare(metadata %"class.altered_carbon::js::ACAstBaseNode"** %2, metadata !5671, metadata !DIExpression()), !dbg !5672
  %3 = load %"class.altered_carbon::js::ACAstBaseNode"*, %"class.altered_carbon::js::ACAstBaseNode"** %2, align 8
  ret i32 0, !dbg !5673
}

; Function Attrs: noinline nounwind optnone ssp uwtable
define linkonce_odr hidden i32 @_ZNK14altered_carbon2js13ACAstBaseNode2opEv(%"class.altered_carbon::js::ACAstBaseNode"*) unnamed_addr #0 align 2 !dbg !5674 {
  %2 = alloca %"class.altered_carbon::js::ACAstBaseNode"*, align 8
  store %"class.altered_carbon::js::ACAstBaseNode"* %0, %"class.altered_carbon::js::ACAstBaseNode"** %2, align 8
  call void @llvm.dbg.declare(metadata %"class.altered_carbon::js::ACAstBaseNode"** %2, metadata !5675, metadata !DIExpression()), !dbg !5676
  %3 = load %"class.altered_carbon::js::ACAstBaseNode"*, %"class.altered_carbon::js::ACAstBaseNode"** %2, align 8
  ret i32 0, !dbg !5677
}

; Function Attrs: noinline nounwind optnone ssp uwtable
define linkonce_odr hidden zeroext i1 @_ZN14altered_carbon2js13ACAstBaseNode15convertToFormalEv(%"class.altered_carbon::js::ACAstBaseNode"*) unnamed_addr #0 align 2 !dbg !5678 {
  %2 = alloca %"class.altered_carbon::js::ACAstBaseNode"*, align 8
  store %"class.altered_carbon::js::ACAstBaseNode"* %0, %"class.altered_carbon::js::ACAstBaseNode"** %2, align 8
  call void @llvm.dbg.declare(metadata %"class.altered_carbon::js::ACAstBaseNode"** %2, metadata !5679, metadata !DIExpression()), !dbg !5680
  %3 = load %"class.altered_carbon::js::ACAstBaseNode"*, %"class.altered_carbon::js::ACAstBaseNode"** %2, align 8
  ret i1 false, !dbg !5681
}

declare void @_ZNK14altered_carbon2js13ACAstBaseNode4dumpERNSt3__113basic_ostreamIcNS2_11char_traitsIcEEEE(%"class.altered_carbon::js::ACAstBaseNode"*, %"class.std::__1::basic_ostream"* dereferenceable(160)) unnamed_addr #2

declare void @_ZNK14altered_carbon2js13ACAstBaseNode14dumpGraphLabelERNSt3__113basic_ostreamIcNS2_11char_traitsIcEEEE(%"class.altered_carbon::js::ACAstBaseNode"*, %"class.std::__1::basic_ostream"* dereferenceable(160)) unnamed_addr #2

declare void @_ZNK14altered_carbon2js13ACAstBaseNode9dumpGraphERNSt3__113basic_ostreamIcNS2_11char_traitsIcEEEE(%"class.altered_carbon::js::ACAstBaseNode"*, %"class.std::__1::basic_ostream"* dereferenceable(160)) unnamed_addr #2

; Function Attrs: noinline nounwind optnone ssp uwtable
define linkonce_odr hidden void @_ZN14altered_carbon2js23ACAstObjectInitPropertyD1Ev(%"class.altered_carbon::js::ACAstObjectInitProperty"*) unnamed_addr #0 align 2 !dbg !5682 {
  %2 = alloca %"class.altered_carbon::js::ACAstObjectInitProperty"*, align 8
  store %"class.altered_carbon::js::ACAstObjectInitProperty"* %0, %"class.altered_carbon::js::ACAstObjectInitProperty"** %2, align 8
  call void @llvm.dbg.declare(metadata %"class.altered_carbon::js::ACAstObjectInitProperty"** %2, metadata !5686, metadata !DIExpression()), !dbg !5687
  %3 = load %"class.altered_carbon::js::ACAstObjectInitProperty"*, %"class.altered_carbon::js::ACAstObjectInitProperty"** %2, align 8
  call void @_ZN14altered_carbon2js23ACAstObjectInitPropertyD2Ev(%"class.altered_carbon::js::ACAstObjectInitProperty"* %3) #6, !dbg !5688
  ret void, !dbg !5688
}

; Function Attrs: noinline nounwind optnone ssp uwtable
define linkonce_odr hidden void @_ZN14altered_carbon2js23ACAstObjectInitPropertyD0Ev(%"class.altered_carbon::js::ACAstObjectInitProperty"*) unnamed_addr #0 align 2 !dbg !5689 {
  %2 = alloca %"class.altered_carbon::js::ACAstObjectInitProperty"*, align 8
  store %"class.altered_carbon::js::ACAstObjectInitProperty"* %0, %"class.altered_carbon::js::ACAstObjectInitProperty"** %2, align 8
  call void @llvm.dbg.declare(metadata %"class.altered_carbon::js::ACAstObjectInitProperty"** %2, metadata !5690, metadata !DIExpression()), !dbg !5691
  %3 = load %"class.altered_carbon::js::ACAstObjectInitProperty"*, %"class.altered_carbon::js::ACAstObjectInitProperty"** %2, align 8
  call void @_ZN14altered_carbon2js23ACAstObjectInitPropertyD1Ev(%"class.altered_carbon::js::ACAstObjectInitProperty"* %3) #6, !dbg !5692
  %4 = bitcast %"class.altered_carbon::js::ACAstObjectInitProperty"* %3 to i8*, !dbg !5692
  call void @_ZdlPv(i8* %4) #7, !dbg !5692
  ret void, !dbg !5692
}

; Function Attrs: noinline nounwind optnone ssp uwtable
define linkonce_odr hidden void @_ZN14altered_carbon2js15ACAstObjectNodeD2Ev(%"class.altered_carbon::js::ACAstObjectNode"*) unnamed_addr #0 align 2 !dbg !5693 {
  %2 = alloca %"class.altered_carbon::js::ACAstObjectNode"*, align 8
  store %"class.altered_carbon::js::ACAstObjectNode"* %0, %"class.altered_carbon::js::ACAstObjectNode"** %2, align 8
  call void @llvm.dbg.declare(metadata %"class.altered_carbon::js::ACAstObjectNode"** %2, metadata !5694, metadata !DIExpression()), !dbg !5695
  %3 = load %"class.altered_carbon::js::ACAstObjectNode"*, %"class.altered_carbon::js::ACAstObjectNode"** %2, align 8
  %4 = bitcast %"class.altered_carbon::js::ACAstObjectNode"* %3 to %"class.altered_carbon::js::ACAstBaseNode"*, !dbg !5696
  call void @_ZN14altered_carbon2js13ACAstBaseNodeD2Ev(%"class.altered_carbon::js::ACAstBaseNode"* %4) #6, !dbg !5696
  ret void, !dbg !5698
}

; Function Attrs: noinline nounwind optnone ssp uwtable
define linkonce_odr hidden void @_ZN14altered_carbon2js13ACAstBaseNodeD2Ev(%"class.altered_carbon::js::ACAstBaseNode"*) unnamed_addr #0 align 2 !dbg !5699 {
  %2 = alloca %"struct.std::__1::__compressed_pair_elem.0"*, align 8
  call void @llvm.dbg.declare(metadata %"struct.std::__1::__compressed_pair_elem.0"** %2, metadata !4623, metadata !DIExpression()), !dbg !5700
  %3 = alloca %"class.std::__1::__compressed_pair"*, align 8
  call void @llvm.dbg.declare(metadata %"class.std::__1::__compressed_pair"** %3, metadata !4638, metadata !DIExpression()), !dbg !5707
  %4 = alloca %"struct.std::__1::__compressed_pair_elem"*, align 8
  call void @llvm.dbg.declare(metadata %"struct.std::__1::__compressed_pair_elem"** %4, metadata !4641, metadata !DIExpression()), !dbg !5708
  %5 = alloca %"class.std::__1::__compressed_pair"*, align 8
  call void @llvm.dbg.declare(metadata %"class.std::__1::__compressed_pair"** %5, metadata !4648, metadata !DIExpression()), !dbg !5711
  %6 = alloca %"struct.std::__1::default_delete"*, align 8
  call void @llvm.dbg.declare(metadata %"struct.std::__1::default_delete"** %6, metadata !4650, metadata !DIExpression()), !dbg !5712
  %7 = alloca %"struct.altered_carbon::js::ACLexPosition"*, align 8
  call void @llvm.dbg.declare(metadata %"struct.altered_carbon::js::ACLexPosition"** %7, metadata !4655, metadata !DIExpression()), !dbg !5714
  %8 = alloca %"struct.std::__1::__compressed_pair_elem"*, align 8
  call void @llvm.dbg.declare(metadata %"struct.std::__1::__compressed_pair_elem"** %8, metadata !4641, metadata !DIExpression()), !dbg !5715
  %9 = alloca %"class.std::__1::__compressed_pair"*, align 8
  call void @llvm.dbg.declare(metadata %"class.std::__1::__compressed_pair"** %9, metadata !4648, metadata !DIExpression()), !dbg !5718
  %10 = alloca %"class.std::__1::unique_ptr"*, align 8
  call void @llvm.dbg.declare(metadata %"class.std::__1::unique_ptr"** %10, metadata !4661, metadata !DIExpression()), !dbg !5719
  %11 = alloca %"struct.altered_carbon::js::ACLexPosition"*, align 8
  call void @llvm.dbg.declare(metadata %"struct.altered_carbon::js::ACLexPosition"** %11, metadata !4664, metadata !DIExpression()), !dbg !5720
  %12 = alloca %"struct.altered_carbon::js::ACLexPosition"*, align 8
  call void @llvm.dbg.declare(metadata %"struct.altered_carbon::js::ACLexPosition"** %12, metadata !4666, metadata !DIExpression()), !dbg !5721
  %13 = alloca %"class.std::__1::unique_ptr"*, align 8
  call void @llvm.dbg.declare(metadata %"class.std::__1::unique_ptr"** %13, metadata !4668, metadata !DIExpression()), !dbg !5722
  %14 = alloca %"class.std::__1::unique_ptr"*, align 8
  call void @llvm.dbg.declare(metadata %"class.std::__1::unique_ptr"** %14, metadata !4670, metadata !DIExpression()), !dbg !5723
  %15 = alloca %"class.altered_carbon::js::ACAstBaseNode"*, align 8
  store %"class.altered_carbon::js::ACAstBaseNode"* %0, %"class.altered_carbon::js::ACAstBaseNode"** %15, align 8
  call void @llvm.dbg.declare(metadata %"class.altered_carbon::js::ACAstBaseNode"** %15, metadata !5724, metadata !DIExpression()), !dbg !5725
  %16 = load %"class.altered_carbon::js::ACAstBaseNode"*, %"class.altered_carbon::js::ACAstBaseNode"** %15, align 8
  %17 = bitcast %"class.altered_carbon::js::ACAstBaseNode"* %16 to i32 (...)***, !dbg !5726
  store i32 (...)** bitcast (i8** getelementptr inbounds ({ [14 x i8*] }, { [14 x i8*] }* @_ZTVN14altered_carbon2js13ACAstBaseNodeE, i32 0, inrange i32 0, i32 2) to i32 (...)**), i32 (...)*** %17, align 8, !dbg !5726
  %18 = getelementptr inbounds %"class.altered_carbon::js::ACAstBaseNode", %"class.altered_carbon::js::ACAstBaseNode"* %16, i32 0, i32 4, !dbg !5727
  call void @_ZNSt3__16vectorINS_10unique_ptrIN14altered_carbon2js13ACAstBaseNodeENS_14default_deleteIS4_EEEENS_9allocatorIS7_EEED1Ev(%"class.std::__1::vector"* %18) #6, !dbg !5727
  %19 = getelementptr inbounds %"class.altered_carbon::js::ACAstBaseNode", %"class.altered_carbon::js::ACAstBaseNode"* %16, i32 0, i32 1, !dbg !5727
  store %"class.std::__1::unique_ptr"* %19, %"class.std::__1::unique_ptr"** %14, align 8
  %20 = load %"class.std::__1::unique_ptr"*, %"class.std::__1::unique_ptr"** %14, align 8
  store %"class.std::__1::unique_ptr"* %20, %"class.std::__1::unique_ptr"** %13, align 8
  %21 = load %"class.std::__1::unique_ptr"*, %"class.std::__1::unique_ptr"** %13, align 8
  store %"class.std::__1::unique_ptr"* %21, %"class.std::__1::unique_ptr"** %10, align 8
  store %"struct.altered_carbon::js::ACLexPosition"* null, %"struct.altered_carbon::js::ACLexPosition"** %11, align 8
  %22 = load %"class.std::__1::unique_ptr"*, %"class.std::__1::unique_ptr"** %10, align 8
  %23 = getelementptr inbounds %"class.std::__1::unique_ptr", %"class.std::__1::unique_ptr"* %22, i32 0, i32 0, !dbg !5728
  store %"class.std::__1::__compressed_pair"* %23, %"class.std::__1::__compressed_pair"** %9, align 8
  %24 = load %"class.std::__1::__compressed_pair"*, %"class.std::__1::__compressed_pair"** %9, align 8
  %25 = bitcast %"class.std::__1::__compressed_pair"* %24 to %"struct.std::__1::__compressed_pair_elem"*, !dbg !5729
  store %"struct.std::__1::__compressed_pair_elem"* %25, %"struct.std::__1::__compressed_pair_elem"** %8, align 8
  %26 = load %"struct.std::__1::__compressed_pair_elem"*, %"struct.std::__1::__compressed_pair_elem"** %8, align 8
  %27 = getelementptr inbounds %"struct.std::__1::__compressed_pair_elem", %"struct.std::__1::__compressed_pair_elem"* %26, i32 0, i32 0, !dbg !5730
  %28 = load %"struct.altered_carbon::js::ACLexPosition"*, %"struct.altered_carbon::js::ACLexPosition"** %27, align 8, !dbg !5731
  store %"struct.altered_carbon::js::ACLexPosition"* %28, %"struct.altered_carbon::js::ACLexPosition"** %12, align 8, !dbg !5721
  %29 = load %"struct.altered_carbon::js::ACLexPosition"*, %"struct.altered_carbon::js::ACLexPosition"** %11, align 8, !dbg !5732
  %30 = getelementptr inbounds %"class.std::__1::unique_ptr", %"class.std::__1::unique_ptr"* %22, i32 0, i32 0, !dbg !5733
  store %"class.std::__1::__compressed_pair"* %30, %"class.std::__1::__compressed_pair"** %5, align 8
  %31 = load %"class.std::__1::__compressed_pair"*, %"class.std::__1::__compressed_pair"** %5, align 8
  %32 = bitcast %"class.std::__1::__compressed_pair"* %31 to %"struct.std::__1::__compressed_pair_elem"*, !dbg !5734
  store %"struct.std::__1::__compressed_pair_elem"* %32, %"struct.std::__1::__compressed_pair_elem"** %4, align 8
  %33 = load %"struct.std::__1::__compressed_pair_elem"*, %"struct.std::__1::__compressed_pair_elem"** %4, align 8
  %34 = getelementptr inbounds %"struct.std::__1::__compressed_pair_elem", %"struct.std::__1::__compressed_pair_elem"* %33, i32 0, i32 0, !dbg !5735
  store %"struct.altered_carbon::js::ACLexPosition"* %29, %"struct.altered_carbon::js::ACLexPosition"** %34, align 8, !dbg !5736
  %35 = load %"struct.altered_carbon::js::ACLexPosition"*, %"struct.altered_carbon::js::ACLexPosition"** %12, align 8, !dbg !5737
  %36 = icmp ne %"struct.altered_carbon::js::ACLexPosition"* %35, null, !dbg !5737
  br i1 %36, label %37, label %53, !dbg !5738

; <label>:37:                                     ; preds = %1
  %38 = getelementptr inbounds %"class.std::__1::unique_ptr", %"class.std::__1::unique_ptr"* %22, i32 0, i32 0, !dbg !5739
  store %"class.std::__1::__compressed_pair"* %38, %"class.std::__1::__compressed_pair"** %3, align 8
  %39 = load %"class.std::__1::__compressed_pair"*, %"class.std::__1::__compressed_pair"** %3, align 8
  %40 = bitcast %"class.std::__1::__compressed_pair"* %39 to %"struct.std::__1::__compressed_pair_elem.0"*, !dbg !5740
  store %"struct.std::__1::__compressed_pair_elem.0"* %40, %"struct.std::__1::__compressed_pair_elem.0"** %2, align 8
  %41 = load %"struct.std::__1::__compressed_pair_elem.0"*, %"struct.std::__1::__compressed_pair_elem.0"** %2, align 8
  %42 = bitcast %"struct.std::__1::__compressed_pair_elem.0"* %41 to %"struct.std::__1::default_delete"*, !dbg !5741
  %43 = load %"struct.altered_carbon::js::ACLexPosition"*, %"struct.altered_carbon::js::ACLexPosition"** %12, align 8, !dbg !5742
  store %"struct.std::__1::default_delete"* %42, %"struct.std::__1::default_delete"** %6, align 8
  store %"struct.altered_carbon::js::ACLexPosition"* %43, %"struct.altered_carbon::js::ACLexPosition"** %7, align 8
  %44 = load %"struct.std::__1::default_delete"*, %"struct.std::__1::default_delete"** %6, align 8
  %45 = load %"struct.altered_carbon::js::ACLexPosition"*, %"struct.altered_carbon::js::ACLexPosition"** %7, align 8, !dbg !5743
  %46 = icmp eq %"struct.altered_carbon::js::ACLexPosition"* %45, null, !dbg !5744
  br i1 %46, label %52, label %47, !dbg !5744

; <label>:47:                                     ; preds = %37
  %48 = bitcast %"struct.altered_carbon::js::ACLexPosition"* %45 to void (%"struct.altered_carbon::js::ACLexPosition"*)***, !dbg !5744
  %49 = load void (%"struct.altered_carbon::js::ACLexPosition"*)**, void (%"struct.altered_carbon::js::ACLexPosition"*)*** %48, align 8, !dbg !5744
  %50 = getelementptr inbounds void (%"struct.altered_carbon::js::ACLexPosition"*)*, void (%"struct.altered_carbon::js::ACLexPosition"*)** %49, i64 1, !dbg !5744
  %51 = load void (%"struct.altered_carbon::js::ACLexPosition"*)*, void (%"struct.altered_carbon::js::ACLexPosition"*)** %50, align 8, !dbg !5744
  call void %51(%"struct.altered_carbon::js::ACLexPosition"* %45) #6, !dbg !5744
  br label %52, !dbg !5744

; <label>:52:                                     ; preds = %47, %37
  br label %53, !dbg !5739

; <label>:53:                                     ; preds = %1, %52
  ret void, !dbg !5745
}

; Function Attrs: noinline nounwind optnone ssp uwtable
define linkonce_odr hidden void @_ZNSt3__16vectorINS_10unique_ptrIN14altered_carbon2js13ACAstBaseNodeENS_14default_deleteIS4_EEEENS_9allocatorIS7_EEED1Ev(%"class.std::__1::vector"*) unnamed_addr #0 align 2 !dbg !5746 {
  %2 = alloca %"class.std::__1::vector"*, align 8
  store %"class.std::__1::vector"* %0, %"class.std::__1::vector"** %2, align 8
  call void @llvm.dbg.declare(metadata %"class.std::__1::vector"** %2, metadata !5748, metadata !DIExpression()), !dbg !5749
  %3 = load %"class.std::__1::vector"*, %"class.std::__1::vector"** %2, align 8
  call void @_ZNSt3__16vectorINS_10unique_ptrIN14altered_carbon2js13ACAstBaseNodeENS_14default_deleteIS4_EEEENS_9allocatorIS7_EEED2Ev(%"class.std::__1::vector"* %3) #6, !dbg !5750
  ret void, !dbg !5750
}

; Function Attrs: noinline nounwind optnone ssp uwtable
define linkonce_odr hidden void @_ZNSt3__16vectorINS_10unique_ptrIN14altered_carbon2js13ACAstBaseNodeENS_14default_deleteIS4_EEEENS_9allocatorIS7_EEED2Ev(%"class.std::__1::vector"*) unnamed_addr #0 align 2 !dbg !5751 {
  %2 = alloca %"class.std::__1::vector"*, align 8
  store %"class.std::__1::vector"* %0, %"class.std::__1::vector"** %2, align 8
  call void @llvm.dbg.declare(metadata %"class.std::__1::vector"** %2, metadata !5752, metadata !DIExpression()), !dbg !5753
  %3 = load %"class.std::__1::vector"*, %"class.std::__1::vector"** %2, align 8
  %4 = bitcast %"class.std::__1::vector"* %3 to %"class.std::__1::__vector_base"*, !dbg !5754
  call void @_ZNSt3__113__vector_baseINS_10unique_ptrIN14altered_carbon2js13ACAstBaseNodeENS_14default_deleteIS4_EEEENS_9allocatorIS7_EEED2Ev(%"class.std::__1::__vector_base"* %4) #6, !dbg !5754
  ret void, !dbg !5756
}

; Function Attrs: noinline nounwind optnone ssp uwtable
define linkonce_odr void @_ZNSt3__113__vector_baseINS_10unique_ptrIN14altered_carbon2js13ACAstBaseNodeENS_14default_deleteIS4_EEEENS_9allocatorIS7_EEED2Ev(%"class.std::__1::__vector_base"*) unnamed_addr #0 align 2 !dbg !5757 {
  %2 = alloca %"struct.std::__1::__compressed_pair_elem.8"*, align 8
  call void @llvm.dbg.declare(metadata %"struct.std::__1::__compressed_pair_elem.8"** %2, metadata !5758, metadata !DIExpression()), !dbg !5761
  %3 = alloca %"class.std::__1::__compressed_pair.7"*, align 8
  call void @llvm.dbg.declare(metadata %"class.std::__1::__compressed_pair.7"** %3, metadata !5772, metadata !DIExpression()), !dbg !5774
  %4 = alloca %"class.std::__1::__vector_base"*, align 8
  call void @llvm.dbg.declare(metadata %"class.std::__1::__vector_base"** %4, metadata !5775, metadata !DIExpression()), !dbg !5777
  %5 = alloca %"class.std::__1::__vector_base"*, align 8
  call void @llvm.dbg.declare(metadata %"class.std::__1::__vector_base"** %5, metadata !5778, metadata !DIExpression()), !dbg !5779
  %6 = alloca i8*, align 8
  call void @llvm.dbg.declare(metadata i8** %6, metadata !5780, metadata !DIExpression()), !dbg !5783
  %7 = alloca %"class.std::__1::allocator"*, align 8
  call void @llvm.dbg.declare(metadata %"class.std::__1::allocator"** %7, metadata !5789, metadata !DIExpression()), !dbg !5791
  %8 = alloca %"class.std::__1::unique_ptr.1"*, align 8
  call void @llvm.dbg.declare(metadata %"class.std::__1::unique_ptr.1"** %8, metadata !5792, metadata !DIExpression()), !dbg !5793
  %9 = alloca i64, align 8
  call void @llvm.dbg.declare(metadata i64* %9, metadata !5794, metadata !DIExpression()), !dbg !5795
  %10 = alloca %"class.std::__1::allocator"*, align 8
  call void @llvm.dbg.declare(metadata %"class.std::__1::allocator"** %10, metadata !5796, metadata !DIExpression()), !dbg !5797
  %11 = alloca %"class.std::__1::unique_ptr.1"*, align 8
  call void @llvm.dbg.declare(metadata %"class.std::__1::unique_ptr.1"** %11, metadata !5798, metadata !DIExpression()), !dbg !5799
  %12 = alloca i64, align 8
  call void @llvm.dbg.declare(metadata i64* %12, metadata !5800, metadata !DIExpression()), !dbg !5801
  %13 = alloca %"struct.std::__1::__compressed_pair_elem.9"*, align 8
  call void @llvm.dbg.declare(metadata %"struct.std::__1::__compressed_pair_elem.9"** %13, metadata !5802, metadata !DIExpression()), !dbg !5805
  %14 = alloca %"class.std::__1::__compressed_pair.7"*, align 8
  call void @llvm.dbg.declare(metadata %"class.std::__1::__compressed_pair.7"** %14, metadata !5811, metadata !DIExpression()), !dbg !5813
  %15 = alloca %"class.std::__1::__vector_base"*, align 8
  call void @llvm.dbg.declare(metadata %"class.std::__1::__vector_base"** %15, metadata !5814, metadata !DIExpression()), !dbg !5816
  %16 = alloca %"class.std::__1::unique_ptr.1"*, align 8
  call void @llvm.dbg.declare(metadata %"class.std::__1::unique_ptr.1"** %16, metadata !5817, metadata !DIExpression()), !dbg !5821
  %17 = alloca %"struct.std::__1::__compressed_pair_elem.4"*, align 8
  call void @llvm.dbg.declare(metadata %"struct.std::__1::__compressed_pair_elem.4"** %17, metadata !5153, metadata !DIExpression()), !dbg !5827
  %18 = alloca %"class.std::__1::__compressed_pair.2"*, align 8
  call void @llvm.dbg.declare(metadata %"class.std::__1::__compressed_pair.2"** %18, metadata !5166, metadata !DIExpression()), !dbg !5850
  %19 = alloca %"struct.std::__1::__compressed_pair_elem.3"*, align 8
  call void @llvm.dbg.declare(metadata %"struct.std::__1::__compressed_pair_elem.3"** %19, metadata !5244, metadata !DIExpression()), !dbg !5851
  %20 = alloca %"class.std::__1::__compressed_pair.2"*, align 8
  call void @llvm.dbg.declare(metadata %"class.std::__1::__compressed_pair.2"** %20, metadata !5252, metadata !DIExpression()), !dbg !5854
  %21 = alloca %"struct.std::__1::default_delete.5"*, align 8
  call void @llvm.dbg.declare(metadata %"struct.std::__1::default_delete.5"** %21, metadata !5855, metadata !DIExpression()), !dbg !5858
  %22 = alloca %"class.altered_carbon::js::ACAstBaseNode"*, align 8
  call void @llvm.dbg.declare(metadata %"class.altered_carbon::js::ACAstBaseNode"** %22, metadata !5860, metadata !DIExpression()), !dbg !5861
  %23 = alloca %"struct.std::__1::__compressed_pair_elem.3"*, align 8
  call void @llvm.dbg.declare(metadata %"struct.std::__1::__compressed_pair_elem.3"** %23, metadata !5244, metadata !DIExpression()), !dbg !5862
  %24 = alloca %"class.std::__1::__compressed_pair.2"*, align 8
  call void @llvm.dbg.declare(metadata %"class.std::__1::__compressed_pair.2"** %24, metadata !5252, metadata !DIExpression()), !dbg !5865
  %25 = alloca %"class.std::__1::unique_ptr.1"*, align 8
  call void @llvm.dbg.declare(metadata %"class.std::__1::unique_ptr.1"** %25, metadata !5866, metadata !DIExpression()), !dbg !5867
  %26 = alloca %"class.altered_carbon::js::ACAstBaseNode"*, align 8
  call void @llvm.dbg.declare(metadata %"class.altered_carbon::js::ACAstBaseNode"** %26, metadata !5868, metadata !DIExpression()), !dbg !5869
  %27 = alloca %"class.altered_carbon::js::ACAstBaseNode"*, align 8
  call void @llvm.dbg.declare(metadata %"class.altered_carbon::js::ACAstBaseNode"** %27, metadata !5870, metadata !DIExpression()), !dbg !5871
  %28 = alloca %"class.std::__1::unique_ptr.1"*, align 8
  call void @llvm.dbg.declare(metadata %"class.std::__1::unique_ptr.1"** %28, metadata !5872, metadata !DIExpression()), !dbg !5873
  %29 = alloca %"class.std::__1::unique_ptr.1"*, align 8
  call void @llvm.dbg.declare(metadata %"class.std::__1::unique_ptr.1"** %29, metadata !5874, metadata !DIExpression()), !dbg !5875
  %30 = alloca %"class.std::__1::allocator"*, align 8
  call void @llvm.dbg.declare(metadata %"class.std::__1::allocator"** %30, metadata !5876, metadata !DIExpression()), !dbg !5877
  %31 = alloca %"class.std::__1::unique_ptr.1"*, align 8
  call void @llvm.dbg.declare(metadata %"class.std::__1::unique_ptr.1"** %31, metadata !5878, metadata !DIExpression()), !dbg !5879
  %32 = alloca %"class.std::__1::allocator"*, align 8
  call void @llvm.dbg.declare(metadata %"class.std::__1::allocator"** %32, metadata !5880, metadata !DIExpression()), !dbg !5881
  %33 = alloca %"class.std::__1::unique_ptr.1"*, align 8
  call void @llvm.dbg.declare(metadata %"class.std::__1::unique_ptr.1"** %33, metadata !5882, metadata !DIExpression()), !dbg !5883
  %34 = alloca %"class.std::__1::allocator"*, align 8
  call void @llvm.dbg.declare(metadata %"class.std::__1::allocator"** %34, metadata !5884, metadata !DIExpression()), !dbg !5885
  %35 = alloca %"class.std::__1::unique_ptr.1"*, align 8
  call void @llvm.dbg.declare(metadata %"class.std::__1::unique_ptr.1"** %35, metadata !5886, metadata !DIExpression()), !dbg !5887
  %36 = alloca %"struct.std::__1::__has_destroy", align 1
  %37 = alloca %"struct.std::__1::__compressed_pair_elem.9"*, align 8
  call void @llvm.dbg.declare(metadata %"struct.std::__1::__compressed_pair_elem.9"** %37, metadata !5802, metadata !DIExpression()), !dbg !5888
  %38 = alloca %"class.std::__1::__compressed_pair.7"*, align 8
  call void @llvm.dbg.declare(metadata %"class.std::__1::__compressed_pair.7"** %38, metadata !5811, metadata !DIExpression()), !dbg !5892
  %39 = alloca %"class.std::__1::__vector_base"*, align 8
  call void @llvm.dbg.declare(metadata %"class.std::__1::__vector_base"** %39, metadata !5814, metadata !DIExpression()), !dbg !5893
  %40 = alloca %"class.std::__1::__vector_base"*, align 8
  call void @llvm.dbg.declare(metadata %"class.std::__1::__vector_base"** %40, metadata !5894, metadata !DIExpression()), !dbg !5895
  %41 = alloca %"class.std::__1::unique_ptr.1"*, align 8
  call void @llvm.dbg.declare(metadata %"class.std::__1::unique_ptr.1"** %41, metadata !5896, metadata !DIExpression()), !dbg !5897
  %42 = alloca %"class.std::__1::unique_ptr.1"*, align 8
  call void @llvm.dbg.declare(metadata %"class.std::__1::unique_ptr.1"** %42, metadata !5898, metadata !DIExpression()), !dbg !5899
  %43 = alloca %"class.std::__1::__vector_base"*, align 8
  call void @llvm.dbg.declare(metadata %"class.std::__1::__vector_base"** %43, metadata !5900, metadata !DIExpression()), !dbg !5901
  %44 = alloca %"class.std::__1::__vector_base"*, align 8
  store %"class.std::__1::__vector_base"* %0, %"class.std::__1::__vector_base"** %44, align 8
  call void @llvm.dbg.declare(metadata %"class.std::__1::__vector_base"** %44, metadata !5902, metadata !DIExpression()), !dbg !5903
  %45 = load %"class.std::__1::__vector_base"*, %"class.std::__1::__vector_base"** %44, align 8
  %46 = getelementptr inbounds %"class.std::__1::__vector_base", %"class.std::__1::__vector_base"* %45, i32 0, i32 0, !dbg !5904
  %47 = load %"class.std::__1::unique_ptr.1"*, %"class.std::__1::unique_ptr.1"** %46, align 8, !dbg !5904
  %48 = icmp ne %"class.std::__1::unique_ptr.1"* %47, null, !dbg !5905
  br i1 %48, label %49, label %143, !dbg !5906

; <label>:49:                                     ; preds = %1
  store %"class.std::__1::__vector_base"* %45, %"class.std::__1::__vector_base"** %43, align 8
  %50 = load %"class.std::__1::__vector_base"*, %"class.std::__1::__vector_base"** %43, align 8
  %51 = getelementptr inbounds %"class.std::__1::__vector_base", %"class.std::__1::__vector_base"* %50, i32 0, i32 0, !dbg !5907
  %52 = load %"class.std::__1::unique_ptr.1"*, %"class.std::__1::unique_ptr.1"** %51, align 8, !dbg !5907
  store %"class.std::__1::__vector_base"* %50, %"class.std::__1::__vector_base"** %40, align 8
  store %"class.std::__1::unique_ptr.1"* %52, %"class.std::__1::unique_ptr.1"** %41, align 8
  %53 = load %"class.std::__1::__vector_base"*, %"class.std::__1::__vector_base"** %40, align 8
  %54 = getelementptr inbounds %"class.std::__1::__vector_base", %"class.std::__1::__vector_base"* %53, i32 0, i32 1, !dbg !5908
  %55 = load %"class.std::__1::unique_ptr.1"*, %"class.std::__1::unique_ptr.1"** %54, align 8, !dbg !5908
  store %"class.std::__1::unique_ptr.1"* %55, %"class.std::__1::unique_ptr.1"** %42, align 8, !dbg !5899
  br label %56, !dbg !5909

; <label>:56:                                     ; preds = %110, %49
  %57 = load %"class.std::__1::unique_ptr.1"*, %"class.std::__1::unique_ptr.1"** %41, align 8, !dbg !5910
  %58 = load %"class.std::__1::unique_ptr.1"*, %"class.std::__1::unique_ptr.1"** %42, align 8, !dbg !5911
  %59 = icmp ne %"class.std::__1::unique_ptr.1"* %57, %58, !dbg !5912
  br i1 %59, label %60, label %111, !dbg !5909

; <label>:60:                                     ; preds = %56
  store %"class.std::__1::__vector_base"* %53, %"class.std::__1::__vector_base"** %39, align 8
  %61 = load %"class.std::__1::__vector_base"*, %"class.std::__1::__vector_base"** %39, align 8
  %62 = getelementptr inbounds %"class.std::__1::__vector_base", %"class.std::__1::__vector_base"* %61, i32 0, i32 2, !dbg !5913
  store %"class.std::__1::__compressed_pair.7"* %62, %"class.std::__1::__compressed_pair.7"** %38, align 8
  %63 = load %"class.std::__1::__compressed_pair.7"*, %"class.std::__1::__compressed_pair.7"** %38, align 8
  %64 = bitcast %"class.std::__1::__compressed_pair.7"* %63 to %"struct.std::__1::__compressed_pair_elem.9"*, !dbg !5914
  store %"struct.std::__1::__compressed_pair_elem.9"* %64, %"struct.std::__1::__compressed_pair_elem.9"** %37, align 8
  %65 = load %"struct.std::__1::__compressed_pair_elem.9"*, %"struct.std::__1::__compressed_pair_elem.9"** %37, align 8
  %66 = bitcast %"struct.std::__1::__compressed_pair_elem.9"* %65 to %"class.std::__1::allocator"*, !dbg !5915
  %67 = load %"class.std::__1::unique_ptr.1"*, %"class.std::__1::unique_ptr.1"** %42, align 8, !dbg !5916
  %68 = getelementptr inbounds %"class.std::__1::unique_ptr.1", %"class.std::__1::unique_ptr.1"* %67, i32 -1, !dbg !5916
  store %"class.std::__1::unique_ptr.1"* %68, %"class.std::__1::unique_ptr.1"** %42, align 8, !dbg !5916
  store %"class.std::__1::unique_ptr.1"* %68, %"class.std::__1::unique_ptr.1"** %16, align 8
  %69 = load %"class.std::__1::unique_ptr.1"*, %"class.std::__1::unique_ptr.1"** %16, align 8, !dbg !5917
  store %"class.std::__1::allocator"* %66, %"class.std::__1::allocator"** %34, align 8
  store %"class.std::__1::unique_ptr.1"* %69, %"class.std::__1::unique_ptr.1"** %35, align 8
  %70 = bitcast %"struct.std::__1::__has_destroy"* %36 to %"struct.std::__1::integral_constant"*, !dbg !5918
  %71 = load %"class.std::__1::allocator"*, %"class.std::__1::allocator"** %34, align 8, !dbg !5919
  %72 = load %"class.std::__1::unique_ptr.1"*, %"class.std::__1::unique_ptr.1"** %35, align 8, !dbg !5920
  call void @llvm.dbg.declare(metadata !162, metadata !5921, metadata !DIExpression()) #6, !dbg !5922
  store %"class.std::__1::allocator"* %71, %"class.std::__1::allocator"** %32, align 8
  store %"class.std::__1::unique_ptr.1"* %72, %"class.std::__1::unique_ptr.1"** %33, align 8
  %73 = load %"class.std::__1::allocator"*, %"class.std::__1::allocator"** %32, align 8, !dbg !5923
  %74 = load %"class.std::__1::unique_ptr.1"*, %"class.std::__1::unique_ptr.1"** %33, align 8, !dbg !5924
  store %"class.std::__1::allocator"* %73, %"class.std::__1::allocator"** %30, align 8
  store %"class.std::__1::unique_ptr.1"* %74, %"class.std::__1::unique_ptr.1"** %31, align 8
  %75 = load %"class.std::__1::allocator"*, %"class.std::__1::allocator"** %30, align 8
  %76 = load %"class.std::__1::unique_ptr.1"*, %"class.std::__1::unique_ptr.1"** %31, align 8, !dbg !5925
  store %"class.std::__1::unique_ptr.1"* %76, %"class.std::__1::unique_ptr.1"** %29, align 8
  %77 = load %"class.std::__1::unique_ptr.1"*, %"class.std::__1::unique_ptr.1"** %29, align 8
  store %"class.std::__1::unique_ptr.1"* %77, %"class.std::__1::unique_ptr.1"** %28, align 8
  %78 = load %"class.std::__1::unique_ptr.1"*, %"class.std::__1::unique_ptr.1"** %28, align 8
  store %"class.std::__1::unique_ptr.1"* %78, %"class.std::__1::unique_ptr.1"** %25, align 8
  store %"class.altered_carbon::js::ACAstBaseNode"* null, %"class.altered_carbon::js::ACAstBaseNode"** %26, align 8
  %79 = load %"class.std::__1::unique_ptr.1"*, %"class.std::__1::unique_ptr.1"** %25, align 8
  %80 = getelementptr inbounds %"class.std::__1::unique_ptr.1", %"class.std::__1::unique_ptr.1"* %79, i32 0, i32 0, !dbg !5926
  store %"class.std::__1::__compressed_pair.2"* %80, %"class.std::__1::__compressed_pair.2"** %24, align 8
  %81 = load %"class.std::__1::__compressed_pair.2"*, %"class.std::__1::__compressed_pair.2"** %24, align 8
  %82 = bitcast %"class.std::__1::__compressed_pair.2"* %81 to %"struct.std::__1::__compressed_pair_elem.3"*, !dbg !5927
  store %"struct.std::__1::__compressed_pair_elem.3"* %82, %"struct.std::__1::__compressed_pair_elem.3"** %23, align 8
  %83 = load %"struct.std::__1::__compressed_pair_elem.3"*, %"struct.std::__1::__compressed_pair_elem.3"** %23, align 8
  %84 = getelementptr inbounds %"struct.std::__1::__compressed_pair_elem.3", %"struct.std::__1::__compressed_pair_elem.3"* %83, i32 0, i32 0, !dbg !5928
  %85 = load %"class.altered_carbon::js::ACAstBaseNode"*, %"class.altered_carbon::js::ACAstBaseNode"** %84, align 8, !dbg !5929
  store %"class.altered_carbon::js::ACAstBaseNode"* %85, %"class.altered_carbon::js::ACAstBaseNode"** %27, align 8, !dbg !5871
  %86 = load %"class.altered_carbon::js::ACAstBaseNode"*, %"class.altered_carbon::js::ACAstBaseNode"** %26, align 8, !dbg !5930
  %87 = getelementptr inbounds %"class.std::__1::unique_ptr.1", %"class.std::__1::unique_ptr.1"* %79, i32 0, i32 0, !dbg !5931
  store %"class.std::__1::__compressed_pair.2"* %87, %"class.std::__1::__compressed_pair.2"** %20, align 8
  %88 = load %"class.std::__1::__compressed_pair.2"*, %"class.std::__1::__compressed_pair.2"** %20, align 8
  %89 = bitcast %"class.std::__1::__compressed_pair.2"* %88 to %"struct.std::__1::__compressed_pair_elem.3"*, !dbg !5932
  store %"struct.std::__1::__compressed_pair_elem.3"* %89, %"struct.std::__1::__compressed_pair_elem.3"** %19, align 8
  %90 = load %"struct.std::__1::__compressed_pair_elem.3"*, %"struct.std::__1::__compressed_pair_elem.3"** %19, align 8
  %91 = getelementptr inbounds %"struct.std::__1::__compressed_pair_elem.3", %"struct.std::__1::__compressed_pair_elem.3"* %90, i32 0, i32 0, !dbg !5933
  store %"class.altered_carbon::js::ACAstBaseNode"* %86, %"class.altered_carbon::js::ACAstBaseNode"** %91, align 8, !dbg !5934
  %92 = load %"class.altered_carbon::js::ACAstBaseNode"*, %"class.altered_carbon::js::ACAstBaseNode"** %27, align 8, !dbg !5935
  %93 = icmp ne %"class.altered_carbon::js::ACAstBaseNode"* %92, null, !dbg !5935
  br i1 %93, label %94, label %110, !dbg !5936

; <label>:94:                                     ; preds = %60
  %95 = getelementptr inbounds %"class.std::__1::unique_ptr.1", %"class.std::__1::unique_ptr.1"* %79, i32 0, i32 0, !dbg !5937
  store %"class.std::__1::__compressed_pair.2"* %95, %"class.std::__1::__compressed_pair.2"** %18, align 8
  %96 = load %"class.std::__1::__compressed_pair.2"*, %"class.std::__1::__compressed_pair.2"** %18, align 8
  %97 = bitcast %"class.std::__1::__compressed_pair.2"* %96 to %"struct.std::__1::__compressed_pair_elem.4"*, !dbg !5938
  store %"struct.std::__1::__compressed_pair_elem.4"* %97, %"struct.std::__1::__compressed_pair_elem.4"** %17, align 8
  %98 = load %"struct.std::__1::__compressed_pair_elem.4"*, %"struct.std::__1::__compressed_pair_elem.4"** %17, align 8
  %99 = bitcast %"struct.std::__1::__compressed_pair_elem.4"* %98 to %"struct.std::__1::default_delete.5"*, !dbg !5939
  %100 = load %"class.altered_carbon::js::ACAstBaseNode"*, %"class.altered_carbon::js::ACAstBaseNode"** %27, align 8, !dbg !5940
  store %"struct.std::__1::default_delete.5"* %99, %"struct.std::__1::default_delete.5"** %21, align 8
  store %"class.altered_carbon::js::ACAstBaseNode"* %100, %"class.altered_carbon::js::ACAstBaseNode"** %22, align 8
  %101 = load %"struct.std::__1::default_delete.5"*, %"struct.std::__1::default_delete.5"** %21, align 8
  %102 = load %"class.altered_carbon::js::ACAstBaseNode"*, %"class.altered_carbon::js::ACAstBaseNode"** %22, align 8, !dbg !5941
  %103 = icmp eq %"class.altered_carbon::js::ACAstBaseNode"* %102, null, !dbg !5942
  br i1 %103, label %109, label %104, !dbg !5942

; <label>:104:                                    ; preds = %94
  %105 = bitcast %"class.altered_carbon::js::ACAstBaseNode"* %102 to void (%"class.altered_carbon::js::ACAstBaseNode"*)***, !dbg !5942
  %106 = load void (%"class.altered_carbon::js::ACAstBaseNode"*)**, void (%"class.altered_carbon::js::ACAstBaseNode"*)*** %105, align 8, !dbg !5942
  %107 = getelementptr inbounds void (%"class.altered_carbon::js::ACAstBaseNode"*)*, void (%"class.altered_carbon::js::ACAstBaseNode"*)** %106, i64 1, !dbg !5942
  %108 = load void (%"class.altered_carbon::js::ACAstBaseNode"*)*, void (%"class.altered_carbon::js::ACAstBaseNode"*)** %107, align 8, !dbg !5942
  call void %108(%"class.altered_carbon::js::ACAstBaseNode"* %102) #6, !dbg !5942
  br label %109, !dbg !5942

; <label>:109:                                    ; preds = %104, %94
  br label %110, !dbg !5937

; <label>:110:                                    ; preds = %109, %60
  br label %56, !dbg !5909, !llvm.loop !5943

; <label>:111:                                    ; preds = %56
  %112 = load %"class.std::__1::unique_ptr.1"*, %"class.std::__1::unique_ptr.1"** %41, align 8, !dbg !5946
  %113 = getelementptr inbounds %"class.std::__1::__vector_base", %"class.std::__1::__vector_base"* %53, i32 0, i32 1, !dbg !5947
  store %"class.std::__1::unique_ptr.1"* %112, %"class.std::__1::unique_ptr.1"** %113, align 8, !dbg !5948
  store %"class.std::__1::__vector_base"* %45, %"class.std::__1::__vector_base"** %15, align 8
  %114 = load %"class.std::__1::__vector_base"*, %"class.std::__1::__vector_base"** %15, align 8
  %115 = getelementptr inbounds %"class.std::__1::__vector_base", %"class.std::__1::__vector_base"* %114, i32 0, i32 2, !dbg !5949
  store %"class.std::__1::__compressed_pair.7"* %115, %"class.std::__1::__compressed_pair.7"** %14, align 8
  %116 = load %"class.std::__1::__compressed_pair.7"*, %"class.std::__1::__compressed_pair.7"** %14, align 8
  %117 = bitcast %"class.std::__1::__compressed_pair.7"* %116 to %"struct.std::__1::__compressed_pair_elem.9"*, !dbg !5950
  store %"struct.std::__1::__compressed_pair_elem.9"* %117, %"struct.std::__1::__compressed_pair_elem.9"** %13, align 8
  %118 = load %"struct.std::__1::__compressed_pair_elem.9"*, %"struct.std::__1::__compressed_pair_elem.9"** %13, align 8
  %119 = bitcast %"struct.std::__1::__compressed_pair_elem.9"* %118 to %"class.std::__1::allocator"*, !dbg !5951
  %120 = getelementptr inbounds %"class.std::__1::__vector_base", %"class.std::__1::__vector_base"* %45, i32 0, i32 0, !dbg !5952
  %121 = load %"class.std::__1::unique_ptr.1"*, %"class.std::__1::unique_ptr.1"** %120, align 8, !dbg !5952
  store %"class.std::__1::__vector_base"* %45, %"class.std::__1::__vector_base"** %5, align 8
  %122 = load %"class.std::__1::__vector_base"*, %"class.std::__1::__vector_base"** %5, align 8
  store %"class.std::__1::__vector_base"* %122, %"class.std::__1::__vector_base"** %4, align 8
  %123 = load %"class.std::__1::__vector_base"*, %"class.std::__1::__vector_base"** %4, align 8
  %124 = getelementptr inbounds %"class.std::__1::__vector_base", %"class.std::__1::__vector_base"* %123, i32 0, i32 2, !dbg !5953
  store %"class.std::__1::__compressed_pair.7"* %124, %"class.std::__1::__compressed_pair.7"** %3, align 8
  %125 = load %"class.std::__1::__compressed_pair.7"*, %"class.std::__1::__compressed_pair.7"** %3, align 8
  %126 = bitcast %"class.std::__1::__compressed_pair.7"* %125 to %"struct.std::__1::__compressed_pair_elem.8"*, !dbg !5954
  store %"struct.std::__1::__compressed_pair_elem.8"* %126, %"struct.std::__1::__compressed_pair_elem.8"** %2, align 8
  %127 = load %"struct.std::__1::__compressed_pair_elem.8"*, %"struct.std::__1::__compressed_pair_elem.8"** %2, align 8
  %128 = getelementptr inbounds %"struct.std::__1::__compressed_pair_elem.8", %"struct.std::__1::__compressed_pair_elem.8"* %127, i32 0, i32 0, !dbg !5955
  %129 = load %"class.std::__1::unique_ptr.1"*, %"class.std::__1::unique_ptr.1"** %128, align 8, !dbg !5956
  %130 = getelementptr inbounds %"class.std::__1::__vector_base", %"class.std::__1::__vector_base"* %122, i32 0, i32 0, !dbg !5957
  %131 = load %"class.std::__1::unique_ptr.1"*, %"class.std::__1::unique_ptr.1"** %130, align 8, !dbg !5957
  %132 = ptrtoint %"class.std::__1::unique_ptr.1"* %129 to i64, !dbg !5958
  %133 = ptrtoint %"class.std::__1::unique_ptr.1"* %131 to i64, !dbg !5958
  %134 = sub i64 %132, %133, !dbg !5958
  %135 = sdiv exact i64 %134, 8, !dbg !5958
  store %"class.std::__1::allocator"* %119, %"class.std::__1::allocator"** %10, align 8
  store %"class.std::__1::unique_ptr.1"* %121, %"class.std::__1::unique_ptr.1"** %11, align 8
  store i64 %135, i64* %12, align 8
  %136 = load %"class.std::__1::allocator"*, %"class.std::__1::allocator"** %10, align 8, !dbg !5959
  %137 = load %"class.std::__1::unique_ptr.1"*, %"class.std::__1::unique_ptr.1"** %11, align 8, !dbg !5960
  %138 = load i64, i64* %12, align 8, !dbg !5961
  store %"class.std::__1::allocator"* %136, %"class.std::__1::allocator"** %7, align 8
  store %"class.std::__1::unique_ptr.1"* %137, %"class.std::__1::unique_ptr.1"** %8, align 8
  store i64 %138, i64* %9, align 8
  %139 = load %"class.std::__1::allocator"*, %"class.std::__1::allocator"** %7, align 8
  %140 = load %"class.std::__1::unique_ptr.1"*, %"class.std::__1::unique_ptr.1"** %8, align 8, !dbg !5962
  %141 = bitcast %"class.std::__1::unique_ptr.1"* %140 to i8*, !dbg !5962
  store i8* %141, i8** %6, align 8
  %142 = load i8*, i8** %6, align 8, !dbg !5963
  call void @_ZdlPv(i8* %142) #7, !dbg !5964
  br label %143, !dbg !5965

; <label>:143:                                    ; preds = %111, %1
  ret void, !dbg !5966
}

; Function Attrs: nobuiltin nounwind
declare void @_ZdlPv(i8*) #3

declare void @_ZNSt3__112basic_stringIwNS_11char_traitsIwEENS_9allocatorIwEEE6__initEPKwm(%"class.std::__1::basic_string"*, i32*, i64) #2

; Function Attrs: noinline nounwind optnone ssp uwtable
define linkonce_odr hidden i64 @_ZNSt3__111char_traitsIwE6lengthEPKw(i32*) #0 align 2 !dbg !5967 {
  %2 = alloca i32*, align 8
  store i32* %0, i32** %2, align 8
  call void @llvm.dbg.declare(metadata i32** %2, metadata !5968, metadata !DIExpression()), !dbg !5969
  %3 = load i32*, i32** %2, align 8, !dbg !5970
  %4 = call i64 @wcslen(i32* %3) #6, !dbg !5971
  ret i64 %4, !dbg !5972
}

; Function Attrs: nounwind
declare i64 @wcslen(i32*) #4

; Function Attrs: noinline nounwind optnone ssp uwtable
define linkonce_odr hidden void @_ZN14altered_carbon2js23ACAstObjectInitPropertyD2Ev(%"class.altered_carbon::js::ACAstObjectInitProperty"*) unnamed_addr #0 align 2 !dbg !5973 {
  %2 = alloca %"struct.std::__1::__compressed_pair_elem.4"*, align 8
  call void @llvm.dbg.declare(metadata %"struct.std::__1::__compressed_pair_elem.4"** %2, metadata !5153, metadata !DIExpression()), !dbg !5974
  %3 = alloca %"class.std::__1::__compressed_pair.2"*, align 8
  call void @llvm.dbg.declare(metadata %"class.std::__1::__compressed_pair.2"** %3, metadata !5166, metadata !DIExpression()), !dbg !5981
  %4 = alloca %"struct.std::__1::__compressed_pair_elem.3"*, align 8
  call void @llvm.dbg.declare(metadata %"struct.std::__1::__compressed_pair_elem.3"** %4, metadata !5244, metadata !DIExpression()), !dbg !5982
  %5 = alloca %"class.std::__1::__compressed_pair.2"*, align 8
  call void @llvm.dbg.declare(metadata %"class.std::__1::__compressed_pair.2"** %5, metadata !5252, metadata !DIExpression()), !dbg !5985
  %6 = alloca %"struct.std::__1::default_delete.5"*, align 8
  call void @llvm.dbg.declare(metadata %"struct.std::__1::default_delete.5"** %6, metadata !5855, metadata !DIExpression()), !dbg !5986
  %7 = alloca %"class.altered_carbon::js::ACAstBaseNode"*, align 8
  call void @llvm.dbg.declare(metadata %"class.altered_carbon::js::ACAstBaseNode"** %7, metadata !5860, metadata !DIExpression()), !dbg !5988
  %8 = alloca %"struct.std::__1::__compressed_pair_elem.3"*, align 8
  call void @llvm.dbg.declare(metadata %"struct.std::__1::__compressed_pair_elem.3"** %8, metadata !5244, metadata !DIExpression()), !dbg !5989
  %9 = alloca %"class.std::__1::__compressed_pair.2"*, align 8
  call void @llvm.dbg.declare(metadata %"class.std::__1::__compressed_pair.2"** %9, metadata !5252, metadata !DIExpression()), !dbg !5992
  %10 = alloca %"class.std::__1::unique_ptr.1"*, align 8
  call void @llvm.dbg.declare(metadata %"class.std::__1::unique_ptr.1"** %10, metadata !5866, metadata !DIExpression()), !dbg !5993
  %11 = alloca %"class.altered_carbon::js::ACAstBaseNode"*, align 8
  call void @llvm.dbg.declare(metadata %"class.altered_carbon::js::ACAstBaseNode"** %11, metadata !5868, metadata !DIExpression()), !dbg !5994
  %12 = alloca %"class.altered_carbon::js::ACAstBaseNode"*, align 8
  call void @llvm.dbg.declare(metadata %"class.altered_carbon::js::ACAstBaseNode"** %12, metadata !5870, metadata !DIExpression()), !dbg !5995
  %13 = alloca %"class.std::__1::unique_ptr.1"*, align 8
  call void @llvm.dbg.declare(metadata %"class.std::__1::unique_ptr.1"** %13, metadata !5872, metadata !DIExpression()), !dbg !5996
  %14 = alloca %"class.std::__1::unique_ptr.1"*, align 8
  call void @llvm.dbg.declare(metadata %"class.std::__1::unique_ptr.1"** %14, metadata !5874, metadata !DIExpression()), !dbg !5997
  %15 = alloca %"struct.std::__1::__compressed_pair_elem.4"*, align 8
  call void @llvm.dbg.declare(metadata %"struct.std::__1::__compressed_pair_elem.4"** %15, metadata !5153, metadata !DIExpression()), !dbg !5998
  %16 = alloca %"class.std::__1::__compressed_pair.2"*, align 8
  call void @llvm.dbg.declare(metadata %"class.std::__1::__compressed_pair.2"** %16, metadata !5166, metadata !DIExpression()), !dbg !6004
  %17 = alloca %"struct.std::__1::__compressed_pair_elem.3"*, align 8
  call void @llvm.dbg.declare(metadata %"struct.std::__1::__compressed_pair_elem.3"** %17, metadata !5244, metadata !DIExpression()), !dbg !6005
  %18 = alloca %"class.std::__1::__compressed_pair.2"*, align 8
  call void @llvm.dbg.declare(metadata %"class.std::__1::__compressed_pair.2"** %18, metadata !5252, metadata !DIExpression()), !dbg !6008
  %19 = alloca %"struct.std::__1::default_delete.5"*, align 8
  call void @llvm.dbg.declare(metadata %"struct.std::__1::default_delete.5"** %19, metadata !5855, metadata !DIExpression()), !dbg !6009
  %20 = alloca %"class.altered_carbon::js::ACAstBaseNode"*, align 8
  call void @llvm.dbg.declare(metadata %"class.altered_carbon::js::ACAstBaseNode"** %20, metadata !5860, metadata !DIExpression()), !dbg !6011
  %21 = alloca %"struct.std::__1::__compressed_pair_elem.3"*, align 8
  call void @llvm.dbg.declare(metadata %"struct.std::__1::__compressed_pair_elem.3"** %21, metadata !5244, metadata !DIExpression()), !dbg !6012
  %22 = alloca %"class.std::__1::__compressed_pair.2"*, align 8
  call void @llvm.dbg.declare(metadata %"class.std::__1::__compressed_pair.2"** %22, metadata !5252, metadata !DIExpression()), !dbg !6015
  %23 = alloca %"class.std::__1::unique_ptr.1"*, align 8
  call void @llvm.dbg.declare(metadata %"class.std::__1::unique_ptr.1"** %23, metadata !5866, metadata !DIExpression()), !dbg !6016
  %24 = alloca %"class.altered_carbon::js::ACAstBaseNode"*, align 8
  call void @llvm.dbg.declare(metadata %"class.altered_carbon::js::ACAstBaseNode"** %24, metadata !5868, metadata !DIExpression()), !dbg !6017
  %25 = alloca %"class.altered_carbon::js::ACAstBaseNode"*, align 8
  call void @llvm.dbg.declare(metadata %"class.altered_carbon::js::ACAstBaseNode"** %25, metadata !5870, metadata !DIExpression()), !dbg !6018
  %26 = alloca %"class.std::__1::unique_ptr.1"*, align 8
  call void @llvm.dbg.declare(metadata %"class.std::__1::unique_ptr.1"** %26, metadata !5872, metadata !DIExpression()), !dbg !6019
  %27 = alloca %"class.std::__1::unique_ptr.1"*, align 8
  call void @llvm.dbg.declare(metadata %"class.std::__1::unique_ptr.1"** %27, metadata !5874, metadata !DIExpression()), !dbg !6020
  %28 = alloca %"class.altered_carbon::js::ACAstObjectInitProperty"*, align 8
  store %"class.altered_carbon::js::ACAstObjectInitProperty"* %0, %"class.altered_carbon::js::ACAstObjectInitProperty"** %28, align 8
  call void @llvm.dbg.declare(metadata %"class.altered_carbon::js::ACAstObjectInitProperty"** %28, metadata !6021, metadata !DIExpression()), !dbg !6022
  %29 = load %"class.altered_carbon::js::ACAstObjectInitProperty"*, %"class.altered_carbon::js::ACAstObjectInitProperty"** %28, align 8
  %30 = bitcast %"class.altered_carbon::js::ACAstObjectInitProperty"* %29 to i32 (...)***, !dbg !6023
  store i32 (...)** bitcast (i8** getelementptr inbounds ({ [14 x i8*] }, { [14 x i8*] }* @_ZTVN14altered_carbon2js23ACAstObjectInitPropertyE, i32 0, inrange i32 0, i32 2) to i32 (...)**), i32 (...)*** %30, align 8, !dbg !6023
  %31 = getelementptr inbounds %"class.altered_carbon::js::ACAstObjectInitProperty", %"class.altered_carbon::js::ACAstObjectInitProperty"* %29, i32 0, i32 2, !dbg !6024
  store %"class.std::__1::unique_ptr.1"* %31, %"class.std::__1::unique_ptr.1"** %27, align 8
  %32 = load %"class.std::__1::unique_ptr.1"*, %"class.std::__1::unique_ptr.1"** %27, align 8
  store %"class.std::__1::unique_ptr.1"* %32, %"class.std::__1::unique_ptr.1"** %26, align 8
  %33 = load %"class.std::__1::unique_ptr.1"*, %"class.std::__1::unique_ptr.1"** %26, align 8
  store %"class.std::__1::unique_ptr.1"* %33, %"class.std::__1::unique_ptr.1"** %23, align 8
  store %"class.altered_carbon::js::ACAstBaseNode"* null, %"class.altered_carbon::js::ACAstBaseNode"** %24, align 8
  %34 = load %"class.std::__1::unique_ptr.1"*, %"class.std::__1::unique_ptr.1"** %23, align 8
  %35 = getelementptr inbounds %"class.std::__1::unique_ptr.1", %"class.std::__1::unique_ptr.1"* %34, i32 0, i32 0, !dbg !6025
  store %"class.std::__1::__compressed_pair.2"* %35, %"class.std::__1::__compressed_pair.2"** %22, align 8
  %36 = load %"class.std::__1::__compressed_pair.2"*, %"class.std::__1::__compressed_pair.2"** %22, align 8
  %37 = bitcast %"class.std::__1::__compressed_pair.2"* %36 to %"struct.std::__1::__compressed_pair_elem.3"*, !dbg !6026
  store %"struct.std::__1::__compressed_pair_elem.3"* %37, %"struct.std::__1::__compressed_pair_elem.3"** %21, align 8
  %38 = load %"struct.std::__1::__compressed_pair_elem.3"*, %"struct.std::__1::__compressed_pair_elem.3"** %21, align 8
  %39 = getelementptr inbounds %"struct.std::__1::__compressed_pair_elem.3", %"struct.std::__1::__compressed_pair_elem.3"* %38, i32 0, i32 0, !dbg !6027
  %40 = load %"class.altered_carbon::js::ACAstBaseNode"*, %"class.altered_carbon::js::ACAstBaseNode"** %39, align 8, !dbg !6028
  store %"class.altered_carbon::js::ACAstBaseNode"* %40, %"class.altered_carbon::js::ACAstBaseNode"** %25, align 8, !dbg !6018
  %41 = load %"class.altered_carbon::js::ACAstBaseNode"*, %"class.altered_carbon::js::ACAstBaseNode"** %24, align 8, !dbg !6029
  %42 = getelementptr inbounds %"class.std::__1::unique_ptr.1", %"class.std::__1::unique_ptr.1"* %34, i32 0, i32 0, !dbg !6030
  store %"class.std::__1::__compressed_pair.2"* %42, %"class.std::__1::__compressed_pair.2"** %18, align 8
  %43 = load %"class.std::__1::__compressed_pair.2"*, %"class.std::__1::__compressed_pair.2"** %18, align 8
  %44 = bitcast %"class.std::__1::__compressed_pair.2"* %43 to %"struct.std::__1::__compressed_pair_elem.3"*, !dbg !6031
  store %"struct.std::__1::__compressed_pair_elem.3"* %44, %"struct.std::__1::__compressed_pair_elem.3"** %17, align 8
  %45 = load %"struct.std::__1::__compressed_pair_elem.3"*, %"struct.std::__1::__compressed_pair_elem.3"** %17, align 8
  %46 = getelementptr inbounds %"struct.std::__1::__compressed_pair_elem.3", %"struct.std::__1::__compressed_pair_elem.3"* %45, i32 0, i32 0, !dbg !6032
  store %"class.altered_carbon::js::ACAstBaseNode"* %41, %"class.altered_carbon::js::ACAstBaseNode"** %46, align 8, !dbg !6033
  %47 = load %"class.altered_carbon::js::ACAstBaseNode"*, %"class.altered_carbon::js::ACAstBaseNode"** %25, align 8, !dbg !6034
  %48 = icmp ne %"class.altered_carbon::js::ACAstBaseNode"* %47, null, !dbg !6034
  br i1 %48, label %49, label %65, !dbg !6035

; <label>:49:                                     ; preds = %1
  %50 = getelementptr inbounds %"class.std::__1::unique_ptr.1", %"class.std::__1::unique_ptr.1"* %34, i32 0, i32 0, !dbg !6036
  store %"class.std::__1::__compressed_pair.2"* %50, %"class.std::__1::__compressed_pair.2"** %16, align 8
  %51 = load %"class.std::__1::__compressed_pair.2"*, %"class.std::__1::__compressed_pair.2"** %16, align 8
  %52 = bitcast %"class.std::__1::__compressed_pair.2"* %51 to %"struct.std::__1::__compressed_pair_elem.4"*, !dbg !6037
  store %"struct.std::__1::__compressed_pair_elem.4"* %52, %"struct.std::__1::__compressed_pair_elem.4"** %15, align 8
  %53 = load %"struct.std::__1::__compressed_pair_elem.4"*, %"struct.std::__1::__compressed_pair_elem.4"** %15, align 8
  %54 = bitcast %"struct.std::__1::__compressed_pair_elem.4"* %53 to %"struct.std::__1::default_delete.5"*, !dbg !6038
  %55 = load %"class.altered_carbon::js::ACAstBaseNode"*, %"class.altered_carbon::js::ACAstBaseNode"** %25, align 8, !dbg !6039
  store %"struct.std::__1::default_delete.5"* %54, %"struct.std::__1::default_delete.5"** %19, align 8
  store %"class.altered_carbon::js::ACAstBaseNode"* %55, %"class.altered_carbon::js::ACAstBaseNode"** %20, align 8
  %56 = load %"struct.std::__1::default_delete.5"*, %"struct.std::__1::default_delete.5"** %19, align 8
  %57 = load %"class.altered_carbon::js::ACAstBaseNode"*, %"class.altered_carbon::js::ACAstBaseNode"** %20, align 8, !dbg !6040
  %58 = icmp eq %"class.altered_carbon::js::ACAstBaseNode"* %57, null, !dbg !6041
  br i1 %58, label %64, label %59, !dbg !6041

; <label>:59:                                     ; preds = %49
  %60 = bitcast %"class.altered_carbon::js::ACAstBaseNode"* %57 to void (%"class.altered_carbon::js::ACAstBaseNode"*)***, !dbg !6041
  %61 = load void (%"class.altered_carbon::js::ACAstBaseNode"*)**, void (%"class.altered_carbon::js::ACAstBaseNode"*)*** %60, align 8, !dbg !6041
  %62 = getelementptr inbounds void (%"class.altered_carbon::js::ACAstBaseNode"*)*, void (%"class.altered_carbon::js::ACAstBaseNode"*)** %61, i64 1, !dbg !6041
  %63 = load void (%"class.altered_carbon::js::ACAstBaseNode"*)*, void (%"class.altered_carbon::js::ACAstBaseNode"*)** %62, align 8, !dbg !6041
  call void %63(%"class.altered_carbon::js::ACAstBaseNode"* %57) #6, !dbg !6041
  br label %64, !dbg !6041

; <label>:64:                                     ; preds = %59, %49
  br label %65, !dbg !6036

; <label>:65:                                     ; preds = %1, %64
  %66 = getelementptr inbounds %"class.altered_carbon::js::ACAstObjectInitProperty", %"class.altered_carbon::js::ACAstObjectInitProperty"* %29, i32 0, i32 1, !dbg !6024
  store %"class.std::__1::unique_ptr.1"* %66, %"class.std::__1::unique_ptr.1"** %14, align 8
  %67 = load %"class.std::__1::unique_ptr.1"*, %"class.std::__1::unique_ptr.1"** %14, align 8
  store %"class.std::__1::unique_ptr.1"* %67, %"class.std::__1::unique_ptr.1"** %13, align 8
  %68 = load %"class.std::__1::unique_ptr.1"*, %"class.std::__1::unique_ptr.1"** %13, align 8
  store %"class.std::__1::unique_ptr.1"* %68, %"class.std::__1::unique_ptr.1"** %10, align 8
  store %"class.altered_carbon::js::ACAstBaseNode"* null, %"class.altered_carbon::js::ACAstBaseNode"** %11, align 8
  %69 = load %"class.std::__1::unique_ptr.1"*, %"class.std::__1::unique_ptr.1"** %10, align 8
  %70 = getelementptr inbounds %"class.std::__1::unique_ptr.1", %"class.std::__1::unique_ptr.1"* %69, i32 0, i32 0, !dbg !6042
  store %"class.std::__1::__compressed_pair.2"* %70, %"class.std::__1::__compressed_pair.2"** %9, align 8
  %71 = load %"class.std::__1::__compressed_pair.2"*, %"class.std::__1::__compressed_pair.2"** %9, align 8
  %72 = bitcast %"class.std::__1::__compressed_pair.2"* %71 to %"struct.std::__1::__compressed_pair_elem.3"*, !dbg !6043
  store %"struct.std::__1::__compressed_pair_elem.3"* %72, %"struct.std::__1::__compressed_pair_elem.3"** %8, align 8
  %73 = load %"struct.std::__1::__compressed_pair_elem.3"*, %"struct.std::__1::__compressed_pair_elem.3"** %8, align 8
  %74 = getelementptr inbounds %"struct.std::__1::__compressed_pair_elem.3", %"struct.std::__1::__compressed_pair_elem.3"* %73, i32 0, i32 0, !dbg !6044
  %75 = load %"class.altered_carbon::js::ACAstBaseNode"*, %"class.altered_carbon::js::ACAstBaseNode"** %74, align 8, !dbg !6045
  store %"class.altered_carbon::js::ACAstBaseNode"* %75, %"class.altered_carbon::js::ACAstBaseNode"** %12, align 8, !dbg !5995
  %76 = load %"class.altered_carbon::js::ACAstBaseNode"*, %"class.altered_carbon::js::ACAstBaseNode"** %11, align 8, !dbg !6046
  %77 = getelementptr inbounds %"class.std::__1::unique_ptr.1", %"class.std::__1::unique_ptr.1"* %69, i32 0, i32 0, !dbg !6047
  store %"class.std::__1::__compressed_pair.2"* %77, %"class.std::__1::__compressed_pair.2"** %5, align 8
  %78 = load %"class.std::__1::__compressed_pair.2"*, %"class.std::__1::__compressed_pair.2"** %5, align 8
  %79 = bitcast %"class.std::__1::__compressed_pair.2"* %78 to %"struct.std::__1::__compressed_pair_elem.3"*, !dbg !6048
  store %"struct.std::__1::__compressed_pair_elem.3"* %79, %"struct.std::__1::__compressed_pair_elem.3"** %4, align 8
  %80 = load %"struct.std::__1::__compressed_pair_elem.3"*, %"struct.std::__1::__compressed_pair_elem.3"** %4, align 8
  %81 = getelementptr inbounds %"struct.std::__1::__compressed_pair_elem.3", %"struct.std::__1::__compressed_pair_elem.3"* %80, i32 0, i32 0, !dbg !6049
  store %"class.altered_carbon::js::ACAstBaseNode"* %76, %"class.altered_carbon::js::ACAstBaseNode"** %81, align 8, !dbg !6050
  %82 = load %"class.altered_carbon::js::ACAstBaseNode"*, %"class.altered_carbon::js::ACAstBaseNode"** %12, align 8, !dbg !6051
  %83 = icmp ne %"class.altered_carbon::js::ACAstBaseNode"* %82, null, !dbg !6051
  br i1 %83, label %84, label %100, !dbg !6052

; <label>:84:                                     ; preds = %65
  %85 = getelementptr inbounds %"class.std::__1::unique_ptr.1", %"class.std::__1::unique_ptr.1"* %69, i32 0, i32 0, !dbg !6053
  store %"class.std::__1::__compressed_pair.2"* %85, %"class.std::__1::__compressed_pair.2"** %3, align 8
  %86 = load %"class.std::__1::__compressed_pair.2"*, %"class.std::__1::__compressed_pair.2"** %3, align 8
  %87 = bitcast %"class.std::__1::__compressed_pair.2"* %86 to %"struct.std::__1::__compressed_pair_elem.4"*, !dbg !6054
  store %"struct.std::__1::__compressed_pair_elem.4"* %87, %"struct.std::__1::__compressed_pair_elem.4"** %2, align 8
  %88 = load %"struct.std::__1::__compressed_pair_elem.4"*, %"struct.std::__1::__compressed_pair_elem.4"** %2, align 8
  %89 = bitcast %"struct.std::__1::__compressed_pair_elem.4"* %88 to %"struct.std::__1::default_delete.5"*, !dbg !6055
  %90 = load %"class.altered_carbon::js::ACAstBaseNode"*, %"class.altered_carbon::js::ACAstBaseNode"** %12, align 8, !dbg !6056
  store %"struct.std::__1::default_delete.5"* %89, %"struct.std::__1::default_delete.5"** %6, align 8
  store %"class.altered_carbon::js::ACAstBaseNode"* %90, %"class.altered_carbon::js::ACAstBaseNode"** %7, align 8
  %91 = load %"struct.std::__1::default_delete.5"*, %"struct.std::__1::default_delete.5"** %6, align 8
  %92 = load %"class.altered_carbon::js::ACAstBaseNode"*, %"class.altered_carbon::js::ACAstBaseNode"** %7, align 8, !dbg !6057
  %93 = icmp eq %"class.altered_carbon::js::ACAstBaseNode"* %92, null, !dbg !6058
  br i1 %93, label %99, label %94, !dbg !6058

; <label>:94:                                     ; preds = %84
  %95 = bitcast %"class.altered_carbon::js::ACAstBaseNode"* %92 to void (%"class.altered_carbon::js::ACAstBaseNode"*)***, !dbg !6058
  %96 = load void (%"class.altered_carbon::js::ACAstBaseNode"*)**, void (%"class.altered_carbon::js::ACAstBaseNode"*)*** %95, align 8, !dbg !6058
  %97 = getelementptr inbounds void (%"class.altered_carbon::js::ACAstBaseNode"*)*, void (%"class.altered_carbon::js::ACAstBaseNode"*)** %96, i64 1, !dbg !6058
  %98 = load void (%"class.altered_carbon::js::ACAstBaseNode"*)*, void (%"class.altered_carbon::js::ACAstBaseNode"*)** %97, align 8, !dbg !6058
  call void %98(%"class.altered_carbon::js::ACAstBaseNode"* %92) #6, !dbg !6058
  br label %99, !dbg !6058

; <label>:99:                                     ; preds = %94, %84
  br label %100, !dbg !6053

; <label>:100:                                    ; preds = %65, %99
  %101 = bitcast %"class.altered_carbon::js::ACAstObjectInitProperty"* %29 to %"class.altered_carbon::js::ACAstBaseNode"*, !dbg !6024
  call void @_ZN14altered_carbon2js13ACAstBaseNodeD2Ev(%"class.altered_carbon::js::ACAstBaseNode"* %101) #6, !dbg !6024
  ret void, !dbg !6023
}

; Function Attrs: noinline nounwind optnone ssp uwtable
define linkonce_odr void @_ZNSt3__16vectorINS_10unique_ptrIN14altered_carbon2js13ACAstBaseNodeENS_14default_deleteIS4_EEEENS_9allocatorIS7_EEE13__move_assignERSA_NS_17integral_constantIbLb1EEE(%"class.std::__1::vector"*, %"class.std::__1::vector"* dereferenceable(24)) #0 align 2 !dbg !6059 {
  %3 = alloca %"struct.std::__1::__compressed_pair_elem.8"*, align 8
  call void @llvm.dbg.declare(metadata %"struct.std::__1::__compressed_pair_elem.8"** %3, metadata !6060, metadata !DIExpression()), !dbg !6063
  %4 = alloca %"class.std::__1::__compressed_pair.7"*, align 8
  call void @llvm.dbg.declare(metadata %"class.std::__1::__compressed_pair.7"** %4, metadata !6069, metadata !DIExpression()), !dbg !6070
  %5 = alloca %"class.std::__1::__vector_base"*, align 8
  call void @llvm.dbg.declare(metadata %"class.std::__1::__vector_base"** %5, metadata !6071, metadata !DIExpression()), !dbg !6072
  %6 = alloca %"struct.std::__1::__compressed_pair_elem.8"*, align 8
  call void @llvm.dbg.declare(metadata %"struct.std::__1::__compressed_pair_elem.8"** %6, metadata !6060, metadata !DIExpression()), !dbg !6073
  %7 = alloca %"class.std::__1::__compressed_pair.7"*, align 8
  call void @llvm.dbg.declare(metadata %"class.std::__1::__compressed_pair.7"** %7, metadata !6069, metadata !DIExpression()), !dbg !6077
  %8 = alloca %"class.std::__1::__vector_base"*, align 8
  call void @llvm.dbg.declare(metadata %"class.std::__1::__vector_base"** %8, metadata !6071, metadata !DIExpression()), !dbg !6078
  %9 = alloca %"struct.std::__1::__compressed_pair_elem.8"*, align 8
  call void @llvm.dbg.declare(metadata %"struct.std::__1::__compressed_pair_elem.8"** %9, metadata !6060, metadata !DIExpression()), !dbg !6079
  %10 = alloca %"class.std::__1::__compressed_pair.7"*, align 8
  call void @llvm.dbg.declare(metadata %"class.std::__1::__compressed_pair.7"** %10, metadata !6069, metadata !DIExpression()), !dbg !6083
  %11 = alloca %"class.std::__1::__vector_base"*, align 8
  call void @llvm.dbg.declare(metadata %"class.std::__1::__vector_base"** %11, metadata !6071, metadata !DIExpression()), !dbg !6084
  %12 = alloca %"class.std::__1::allocator"*, align 8
  call void @llvm.dbg.declare(metadata %"class.std::__1::allocator"** %12, metadata !6085, metadata !DIExpression()), !dbg !6094
  %13 = alloca %"struct.std::__1::__compressed_pair_elem.9"*, align 8
  call void @llvm.dbg.declare(metadata %"struct.std::__1::__compressed_pair_elem.9"** %13, metadata !5802, metadata !DIExpression()), !dbg !6100
  %14 = alloca %"class.std::__1::__compressed_pair.7"*, align 8
  call void @llvm.dbg.declare(metadata %"class.std::__1::__compressed_pair.7"** %14, metadata !5811, metadata !DIExpression()), !dbg !6104
  %15 = alloca %"class.std::__1::__vector_base"*, align 8
  call void @llvm.dbg.declare(metadata %"class.std::__1::__vector_base"** %15, metadata !5814, metadata !DIExpression()), !dbg !6105
  %16 = alloca %"struct.std::__1::__compressed_pair_elem.9"*, align 8
  call void @llvm.dbg.declare(metadata %"struct.std::__1::__compressed_pair_elem.9"** %16, metadata !5802, metadata !DIExpression()), !dbg !6106
  %17 = alloca %"class.std::__1::__compressed_pair.7"*, align 8
  call void @llvm.dbg.declare(metadata %"class.std::__1::__compressed_pair.7"** %17, metadata !5811, metadata !DIExpression()), !dbg !6110
  %18 = alloca %"class.std::__1::__vector_base"*, align 8
  call void @llvm.dbg.declare(metadata %"class.std::__1::__vector_base"** %18, metadata !5814, metadata !DIExpression()), !dbg !6111
  %19 = alloca %"class.std::__1::__vector_base"*, align 8
  call void @llvm.dbg.declare(metadata %"class.std::__1::__vector_base"** %19, metadata !6112, metadata !DIExpression()), !dbg !6113
  %20 = alloca %"class.std::__1::__vector_base"*, align 8
  call void @llvm.dbg.declare(metadata %"class.std::__1::__vector_base"** %20, metadata !6114, metadata !DIExpression()), !dbg !6115
  %21 = alloca %"class.std::__1::__vector_base"*, align 8
  call void @llvm.dbg.declare(metadata %"class.std::__1::__vector_base"** %21, metadata !6116, metadata !DIExpression()), !dbg !6117
  %22 = alloca %"class.std::__1::__vector_base"*, align 8
  call void @llvm.dbg.declare(metadata %"class.std::__1::__vector_base"** %22, metadata !6118, metadata !DIExpression()), !dbg !6119
  %23 = alloca %"struct.std::__1::integral_constant", align 1
  %24 = alloca %"struct.std::__1::integral_constant", align 1
  %25 = alloca %"class.std::__1::vector"*, align 8
  %26 = alloca %"class.std::__1::vector"*, align 8
  store %"class.std::__1::vector"* %0, %"class.std::__1::vector"** %25, align 8
  call void @llvm.dbg.declare(metadata %"class.std::__1::vector"** %25, metadata !6120, metadata !DIExpression()), !dbg !6121
  store %"class.std::__1::vector"* %1, %"class.std::__1::vector"** %26, align 8
  call void @llvm.dbg.declare(metadata %"class.std::__1::vector"** %26, metadata !6122, metadata !DIExpression()), !dbg !6123
  call void @llvm.dbg.declare(metadata %"struct.std::__1::integral_constant"* %24, metadata !6124, metadata !DIExpression()), !dbg !6125
  %27 = load %"class.std::__1::vector"*, %"class.std::__1::vector"** %25, align 8
  call void @_ZNSt3__16vectorINS_10unique_ptrIN14altered_carbon2js13ACAstBaseNodeENS_14default_deleteIS4_EEEENS_9allocatorIS7_EEE10deallocateEv(%"class.std::__1::vector"* %27) #6, !dbg !6126
  %28 = bitcast %"class.std::__1::vector"* %27 to %"class.std::__1::__vector_base"*, !dbg !6127
  %29 = load %"class.std::__1::vector"*, %"class.std::__1::vector"** %26, align 8, !dbg !6128
  %30 = bitcast %"class.std::__1::vector"* %29 to %"class.std::__1::__vector_base"*, !dbg !6128
  store %"class.std::__1::__vector_base"* %28, %"class.std::__1::__vector_base"** %21, align 8
  store %"class.std::__1::__vector_base"* %30, %"class.std::__1::__vector_base"** %22, align 8
  %31 = load %"class.std::__1::__vector_base"*, %"class.std::__1::__vector_base"** %21, align 8
  %32 = load %"class.std::__1::__vector_base"*, %"class.std::__1::__vector_base"** %22, align 8, !dbg !6129
  store %"class.std::__1::__vector_base"* %31, %"class.std::__1::__vector_base"** %19, align 8
  store %"class.std::__1::__vector_base"* %32, %"class.std::__1::__vector_base"** %20, align 8
  call void @llvm.dbg.declare(metadata !162, metadata !6130, metadata !DIExpression()), !dbg !6131
  %33 = load %"class.std::__1::__vector_base"*, %"class.std::__1::__vector_base"** %19, align 8
  %34 = load %"class.std::__1::__vector_base"*, %"class.std::__1::__vector_base"** %20, align 8, !dbg !6132
  store %"class.std::__1::__vector_base"* %34, %"class.std::__1::__vector_base"** %18, align 8
  %35 = load %"class.std::__1::__vector_base"*, %"class.std::__1::__vector_base"** %18, align 8
  %36 = getelementptr inbounds %"class.std::__1::__vector_base", %"class.std::__1::__vector_base"* %35, i32 0, i32 2, !dbg !6133
  store %"class.std::__1::__compressed_pair.7"* %36, %"class.std::__1::__compressed_pair.7"** %17, align 8
  %37 = load %"class.std::__1::__compressed_pair.7"*, %"class.std::__1::__compressed_pair.7"** %17, align 8
  %38 = bitcast %"class.std::__1::__compressed_pair.7"* %37 to %"struct.std::__1::__compressed_pair_elem.9"*, !dbg !6134
  store %"struct.std::__1::__compressed_pair_elem.9"* %38, %"struct.std::__1::__compressed_pair_elem.9"** %16, align 8
  %39 = load %"struct.std::__1::__compressed_pair_elem.9"*, %"struct.std::__1::__compressed_pair_elem.9"** %16, align 8
  %40 = bitcast %"struct.std::__1::__compressed_pair_elem.9"* %39 to %"class.std::__1::allocator"*, !dbg !6135
  store %"class.std::__1::allocator"* %40, %"class.std::__1::allocator"** %12, align 8
  %41 = load %"class.std::__1::allocator"*, %"class.std::__1::allocator"** %12, align 8, !dbg !6136
  store %"class.std::__1::__vector_base"* %33, %"class.std::__1::__vector_base"** %15, align 8
  %42 = load %"class.std::__1::__vector_base"*, %"class.std::__1::__vector_base"** %15, align 8
  %43 = getelementptr inbounds %"class.std::__1::__vector_base", %"class.std::__1::__vector_base"* %42, i32 0, i32 2, !dbg !6137
  store %"class.std::__1::__compressed_pair.7"* %43, %"class.std::__1::__compressed_pair.7"** %14, align 8
  %44 = load %"class.std::__1::__compressed_pair.7"*, %"class.std::__1::__compressed_pair.7"** %14, align 8
  %45 = bitcast %"class.std::__1::__compressed_pair.7"* %44 to %"struct.std::__1::__compressed_pair_elem.9"*, !dbg !6138
  store %"struct.std::__1::__compressed_pair_elem.9"* %45, %"struct.std::__1::__compressed_pair_elem.9"** %13, align 8
  %46 = load %"struct.std::__1::__compressed_pair_elem.9"*, %"struct.std::__1::__compressed_pair_elem.9"** %13, align 8
  %47 = bitcast %"struct.std::__1::__compressed_pair_elem.9"* %46 to %"class.std::__1::allocator"*, !dbg !6139
  %48 = load %"class.std::__1::vector"*, %"class.std::__1::vector"** %26, align 8, !dbg !6140
  %49 = bitcast %"class.std::__1::vector"* %48 to %"class.std::__1::__vector_base"*, !dbg !6140
  %50 = getelementptr inbounds %"class.std::__1::__vector_base", %"class.std::__1::__vector_base"* %49, i32 0, i32 0, !dbg !6141
  %51 = load %"class.std::__1::unique_ptr.1"*, %"class.std::__1::unique_ptr.1"** %50, align 8, !dbg !6141
  %52 = bitcast %"class.std::__1::vector"* %27 to %"class.std::__1::__vector_base"*, !dbg !6142
  %53 = getelementptr inbounds %"class.std::__1::__vector_base", %"class.std::__1::__vector_base"* %52, i32 0, i32 0, !dbg !6142
  store %"class.std::__1::unique_ptr.1"* %51, %"class.std::__1::unique_ptr.1"** %53, align 8, !dbg !6143
  %54 = load %"class.std::__1::vector"*, %"class.std::__1::vector"** %26, align 8, !dbg !6144
  %55 = bitcast %"class.std::__1::vector"* %54 to %"class.std::__1::__vector_base"*, !dbg !6144
  %56 = getelementptr inbounds %"class.std::__1::__vector_base", %"class.std::__1::__vector_base"* %55, i32 0, i32 1, !dbg !6145
  %57 = load %"class.std::__1::unique_ptr.1"*, %"class.std::__1::unique_ptr.1"** %56, align 8, !dbg !6145
  %58 = bitcast %"class.std::__1::vector"* %27 to %"class.std::__1::__vector_base"*, !dbg !6146
  %59 = getelementptr inbounds %"class.std::__1::__vector_base", %"class.std::__1::__vector_base"* %58, i32 0, i32 1, !dbg !6146
  store %"class.std::__1::unique_ptr.1"* %57, %"class.std::__1::unique_ptr.1"** %59, align 8, !dbg !6147
  %60 = load %"class.std::__1::vector"*, %"class.std::__1::vector"** %26, align 8, !dbg !6148
  %61 = bitcast %"class.std::__1::vector"* %60 to %"class.std::__1::__vector_base"*, !dbg !6148
  store %"class.std::__1::__vector_base"* %61, %"class.std::__1::__vector_base"** %5, align 8
  %62 = load %"class.std::__1::__vector_base"*, %"class.std::__1::__vector_base"** %5, align 8
  %63 = getelementptr inbounds %"class.std::__1::__vector_base", %"class.std::__1::__vector_base"* %62, i32 0, i32 2, !dbg !6149
  store %"class.std::__1::__compressed_pair.7"* %63, %"class.std::__1::__compressed_pair.7"** %4, align 8
  %64 = load %"class.std::__1::__compressed_pair.7"*, %"class.std::__1::__compressed_pair.7"** %4, align 8
  %65 = bitcast %"class.std::__1::__compressed_pair.7"* %64 to %"struct.std::__1::__compressed_pair_elem.8"*, !dbg !6150
  store %"struct.std::__1::__compressed_pair_elem.8"* %65, %"struct.std::__1::__compressed_pair_elem.8"** %3, align 8
  %66 = load %"struct.std::__1::__compressed_pair_elem.8"*, %"struct.std::__1::__compressed_pair_elem.8"** %3, align 8
  %67 = getelementptr inbounds %"struct.std::__1::__compressed_pair_elem.8", %"struct.std::__1::__compressed_pair_elem.8"* %66, i32 0, i32 0, !dbg !6151
  %68 = load %"class.std::__1::unique_ptr.1"*, %"class.std::__1::unique_ptr.1"** %67, align 8, !dbg !6152
  %69 = bitcast %"class.std::__1::vector"* %27 to %"class.std::__1::__vector_base"*, !dbg !6153
  store %"class.std::__1::__vector_base"* %69, %"class.std::__1::__vector_base"** %8, align 8
  %70 = load %"class.std::__1::__vector_base"*, %"class.std::__1::__vector_base"** %8, align 8
  %71 = getelementptr inbounds %"class.std::__1::__vector_base", %"class.std::__1::__vector_base"* %70, i32 0, i32 2, !dbg !6154
  store %"class.std::__1::__compressed_pair.7"* %71, %"class.std::__1::__compressed_pair.7"** %7, align 8
  %72 = load %"class.std::__1::__compressed_pair.7"*, %"class.std::__1::__compressed_pair.7"** %7, align 8
  %73 = bitcast %"class.std::__1::__compressed_pair.7"* %72 to %"struct.std::__1::__compressed_pair_elem.8"*, !dbg !6155
  store %"struct.std::__1::__compressed_pair_elem.8"* %73, %"struct.std::__1::__compressed_pair_elem.8"** %6, align 8
  %74 = load %"struct.std::__1::__compressed_pair_elem.8"*, %"struct.std::__1::__compressed_pair_elem.8"** %6, align 8
  %75 = getelementptr inbounds %"struct.std::__1::__compressed_pair_elem.8", %"struct.std::__1::__compressed_pair_elem.8"* %74, i32 0, i32 0, !dbg !6156
  store %"class.std::__1::unique_ptr.1"* %68, %"class.std::__1::unique_ptr.1"** %75, align 8, !dbg !6157
  %76 = load %"class.std::__1::vector"*, %"class.std::__1::vector"** %26, align 8, !dbg !6158
  %77 = bitcast %"class.std::__1::vector"* %76 to %"class.std::__1::__vector_base"*, !dbg !6158
  store %"class.std::__1::__vector_base"* %77, %"class.std::__1::__vector_base"** %11, align 8
  %78 = load %"class.std::__1::__vector_base"*, %"class.std::__1::__vector_base"** %11, align 8
  %79 = getelementptr inbounds %"class.std::__1::__vector_base", %"class.std::__1::__vector_base"* %78, i32 0, i32 2, !dbg !6159
  store %"class.std::__1::__compressed_pair.7"* %79, %"class.std::__1::__compressed_pair.7"** %10, align 8
  %80 = load %"class.std::__1::__compressed_pair.7"*, %"class.std::__1::__compressed_pair.7"** %10, align 8
  %81 = bitcast %"class.std::__1::__compressed_pair.7"* %80 to %"struct.std::__1::__compressed_pair_elem.8"*, !dbg !6160
  store %"struct.std::__1::__compressed_pair_elem.8"* %81, %"struct.std::__1::__compressed_pair_elem.8"** %9, align 8
  %82 = load %"struct.std::__1::__compressed_pair_elem.8"*, %"struct.std::__1::__compressed_pair_elem.8"** %9, align 8
  %83 = getelementptr inbounds %"struct.std::__1::__compressed_pair_elem.8", %"struct.std::__1::__compressed_pair_elem.8"* %82, i32 0, i32 0, !dbg !6161
  store %"class.std::__1::unique_ptr.1"* null, %"class.std::__1::unique_ptr.1"** %83, align 8, !dbg !6162
  %84 = load %"class.std::__1::vector"*, %"class.std::__1::vector"** %26, align 8, !dbg !6163
  %85 = bitcast %"class.std::__1::vector"* %84 to %"class.std::__1::__vector_base"*, !dbg !6163
  %86 = getelementptr inbounds %"class.std::__1::__vector_base", %"class.std::__1::__vector_base"* %85, i32 0, i32 1, !dbg !6164
  store %"class.std::__1::unique_ptr.1"* null, %"class.std::__1::unique_ptr.1"** %86, align 8, !dbg !6165
  %87 = load %"class.std::__1::vector"*, %"class.std::__1::vector"** %26, align 8, !dbg !6166
  %88 = bitcast %"class.std::__1::vector"* %87 to %"class.std::__1::__vector_base"*, !dbg !6166
  %89 = getelementptr inbounds %"class.std::__1::__vector_base", %"class.std::__1::__vector_base"* %88, i32 0, i32 0, !dbg !6167
  store %"class.std::__1::unique_ptr.1"* null, %"class.std::__1::unique_ptr.1"** %89, align 8, !dbg !6168
  ret void, !dbg !6169
}

; Function Attrs: noinline nounwind optnone ssp uwtable
define linkonce_odr void @_ZNSt3__16vectorINS_10unique_ptrIN14altered_carbon2js13ACAstBaseNodeENS_14default_deleteIS4_EEEENS_9allocatorIS7_EEE10deallocateEv(%"class.std::__1::vector"*) #0 align 2 !dbg !6170 {
  %2 = alloca %"struct.std::__1::__compressed_pair_elem.8"*, align 8
  call void @llvm.dbg.declare(metadata %"struct.std::__1::__compressed_pair_elem.8"** %2, metadata !5758, metadata !DIExpression()), !dbg !6171
  %3 = alloca %"class.std::__1::__compressed_pair.7"*, align 8
  call void @llvm.dbg.declare(metadata %"class.std::__1::__compressed_pair.7"** %3, metadata !5772, metadata !DIExpression()), !dbg !6180
  %4 = alloca %"class.std::__1::__vector_base"*, align 8
  call void @llvm.dbg.declare(metadata %"class.std::__1::__vector_base"** %4, metadata !5775, metadata !DIExpression()), !dbg !6181
  %5 = alloca %"class.std::__1::__vector_base"*, align 8
  call void @llvm.dbg.declare(metadata %"class.std::__1::__vector_base"** %5, metadata !5778, metadata !DIExpression()), !dbg !6182
  %6 = alloca %"class.std::__1::vector"*, align 8
  call void @llvm.dbg.declare(metadata %"class.std::__1::vector"** %6, metadata !6183, metadata !DIExpression()), !dbg !6185
  %7 = alloca i8*, align 8
  call void @llvm.dbg.declare(metadata i8** %7, metadata !5780, metadata !DIExpression()), !dbg !6186
  %8 = alloca %"class.std::__1::allocator"*, align 8
  call void @llvm.dbg.declare(metadata %"class.std::__1::allocator"** %8, metadata !5789, metadata !DIExpression()), !dbg !6190
  %9 = alloca %"class.std::__1::unique_ptr.1"*, align 8
  call void @llvm.dbg.declare(metadata %"class.std::__1::unique_ptr.1"** %9, metadata !5792, metadata !DIExpression()), !dbg !6191
  %10 = alloca i64, align 8
  call void @llvm.dbg.declare(metadata i64* %10, metadata !5794, metadata !DIExpression()), !dbg !6192
  %11 = alloca %"class.std::__1::allocator"*, align 8
  call void @llvm.dbg.declare(metadata %"class.std::__1::allocator"** %11, metadata !5796, metadata !DIExpression()), !dbg !6193
  %12 = alloca %"class.std::__1::unique_ptr.1"*, align 8
  call void @llvm.dbg.declare(metadata %"class.std::__1::unique_ptr.1"** %12, metadata !5798, metadata !DIExpression()), !dbg !6194
  %13 = alloca i64, align 8
  call void @llvm.dbg.declare(metadata i64* %13, metadata !5800, metadata !DIExpression()), !dbg !6195
  %14 = alloca %"struct.std::__1::__compressed_pair_elem.8"*, align 8
  call void @llvm.dbg.declare(metadata %"struct.std::__1::__compressed_pair_elem.8"** %14, metadata !6060, metadata !DIExpression()), !dbg !6196
  %15 = alloca %"class.std::__1::__compressed_pair.7"*, align 8
  call void @llvm.dbg.declare(metadata %"class.std::__1::__compressed_pair.7"** %15, metadata !6069, metadata !DIExpression()), !dbg !6200
  %16 = alloca %"class.std::__1::__vector_base"*, align 8
  call void @llvm.dbg.declare(metadata %"class.std::__1::__vector_base"** %16, metadata !6071, metadata !DIExpression()), !dbg !6201
  %17 = alloca %"struct.std::__1::__compressed_pair_elem.9"*, align 8
  call void @llvm.dbg.declare(metadata %"struct.std::__1::__compressed_pair_elem.9"** %17, metadata !5802, metadata !DIExpression()), !dbg !6202
  %18 = alloca %"class.std::__1::__compressed_pair.7"*, align 8
  call void @llvm.dbg.declare(metadata %"class.std::__1::__compressed_pair.7"** %18, metadata !5811, metadata !DIExpression()), !dbg !6206
  %19 = alloca %"class.std::__1::__vector_base"*, align 8
  call void @llvm.dbg.declare(metadata %"class.std::__1::__vector_base"** %19, metadata !5814, metadata !DIExpression()), !dbg !6207
  %20 = alloca %"class.std::__1::unique_ptr.1"*, align 8
  call void @llvm.dbg.declare(metadata %"class.std::__1::unique_ptr.1"** %20, metadata !5817, metadata !DIExpression()), !dbg !6208
  %21 = alloca %"struct.std::__1::__compressed_pair_elem.4"*, align 8
  call void @llvm.dbg.declare(metadata %"struct.std::__1::__compressed_pair_elem.4"** %21, metadata !5153, metadata !DIExpression()), !dbg !6214
  %22 = alloca %"class.std::__1::__compressed_pair.2"*, align 8
  call void @llvm.dbg.declare(metadata %"class.std::__1::__compressed_pair.2"** %22, metadata !5166, metadata !DIExpression()), !dbg !6223
  %23 = alloca %"struct.std::__1::__compressed_pair_elem.3"*, align 8
  call void @llvm.dbg.declare(metadata %"struct.std::__1::__compressed_pair_elem.3"** %23, metadata !5244, metadata !DIExpression()), !dbg !6224
  %24 = alloca %"class.std::__1::__compressed_pair.2"*, align 8
  call void @llvm.dbg.declare(metadata %"class.std::__1::__compressed_pair.2"** %24, metadata !5252, metadata !DIExpression()), !dbg !6227
  %25 = alloca %"struct.std::__1::default_delete.5"*, align 8
  call void @llvm.dbg.declare(metadata %"struct.std::__1::default_delete.5"** %25, metadata !5855, metadata !DIExpression()), !dbg !6228
  %26 = alloca %"class.altered_carbon::js::ACAstBaseNode"*, align 8
  call void @llvm.dbg.declare(metadata %"class.altered_carbon::js::ACAstBaseNode"** %26, metadata !5860, metadata !DIExpression()), !dbg !6230
  %27 = alloca %"struct.std::__1::__compressed_pair_elem.3"*, align 8
  call void @llvm.dbg.declare(metadata %"struct.std::__1::__compressed_pair_elem.3"** %27, metadata !5244, metadata !DIExpression()), !dbg !6231
  %28 = alloca %"class.std::__1::__compressed_pair.2"*, align 8
  call void @llvm.dbg.declare(metadata %"class.std::__1::__compressed_pair.2"** %28, metadata !5252, metadata !DIExpression()), !dbg !6234
  %29 = alloca %"class.std::__1::unique_ptr.1"*, align 8
  call void @llvm.dbg.declare(metadata %"class.std::__1::unique_ptr.1"** %29, metadata !5866, metadata !DIExpression()), !dbg !6235
  %30 = alloca %"class.altered_carbon::js::ACAstBaseNode"*, align 8
  call void @llvm.dbg.declare(metadata %"class.altered_carbon::js::ACAstBaseNode"** %30, metadata !5868, metadata !DIExpression()), !dbg !6236
  %31 = alloca %"class.altered_carbon::js::ACAstBaseNode"*, align 8
  call void @llvm.dbg.declare(metadata %"class.altered_carbon::js::ACAstBaseNode"** %31, metadata !5870, metadata !DIExpression()), !dbg !6237
  %32 = alloca %"class.std::__1::unique_ptr.1"*, align 8
  call void @llvm.dbg.declare(metadata %"class.std::__1::unique_ptr.1"** %32, metadata !5872, metadata !DIExpression()), !dbg !6238
  %33 = alloca %"class.std::__1::unique_ptr.1"*, align 8
  call void @llvm.dbg.declare(metadata %"class.std::__1::unique_ptr.1"** %33, metadata !5874, metadata !DIExpression()), !dbg !6239
  %34 = alloca %"class.std::__1::allocator"*, align 8
  call void @llvm.dbg.declare(metadata %"class.std::__1::allocator"** %34, metadata !5876, metadata !DIExpression()), !dbg !6240
  %35 = alloca %"class.std::__1::unique_ptr.1"*, align 8
  call void @llvm.dbg.declare(metadata %"class.std::__1::unique_ptr.1"** %35, metadata !5878, metadata !DIExpression()), !dbg !6241
  %36 = alloca %"class.std::__1::allocator"*, align 8
  call void @llvm.dbg.declare(metadata %"class.std::__1::allocator"** %36, metadata !5880, metadata !DIExpression()), !dbg !6242
  %37 = alloca %"class.std::__1::unique_ptr.1"*, align 8
  call void @llvm.dbg.declare(metadata %"class.std::__1::unique_ptr.1"** %37, metadata !5882, metadata !DIExpression()), !dbg !6243
  %38 = alloca %"class.std::__1::allocator"*, align 8
  call void @llvm.dbg.declare(metadata %"class.std::__1::allocator"** %38, metadata !5884, metadata !DIExpression()), !dbg !6244
  %39 = alloca %"class.std::__1::unique_ptr.1"*, align 8
  call void @llvm.dbg.declare(metadata %"class.std::__1::unique_ptr.1"** %39, metadata !5886, metadata !DIExpression()), !dbg !6245
  %40 = alloca %"struct.std::__1::__has_destroy", align 1
  %41 = alloca %"struct.std::__1::__compressed_pair_elem.9"*, align 8
  call void @llvm.dbg.declare(metadata %"struct.std::__1::__compressed_pair_elem.9"** %41, metadata !5802, metadata !DIExpression()), !dbg !6246
  %42 = alloca %"class.std::__1::__compressed_pair.7"*, align 8
  call void @llvm.dbg.declare(metadata %"class.std::__1::__compressed_pair.7"** %42, metadata !5811, metadata !DIExpression()), !dbg !6250
  %43 = alloca %"class.std::__1::__vector_base"*, align 8
  call void @llvm.dbg.declare(metadata %"class.std::__1::__vector_base"** %43, metadata !5814, metadata !DIExpression()), !dbg !6251
  %44 = alloca %"class.std::__1::__vector_base"*, align 8
  call void @llvm.dbg.declare(metadata %"class.std::__1::__vector_base"** %44, metadata !5894, metadata !DIExpression()), !dbg !6252
  %45 = alloca %"class.std::__1::unique_ptr.1"*, align 8
  call void @llvm.dbg.declare(metadata %"class.std::__1::unique_ptr.1"** %45, metadata !5896, metadata !DIExpression()), !dbg !6253
  %46 = alloca %"class.std::__1::unique_ptr.1"*, align 8
  call void @llvm.dbg.declare(metadata %"class.std::__1::unique_ptr.1"** %46, metadata !5898, metadata !DIExpression()), !dbg !6254
  %47 = alloca %"class.std::__1::__vector_base"*, align 8
  call void @llvm.dbg.declare(metadata %"class.std::__1::__vector_base"** %47, metadata !5900, metadata !DIExpression()), !dbg !6255
  %48 = alloca %"class.std::__1::unique_ptr.1"*, align 8
  call void @llvm.dbg.declare(metadata %"class.std::__1::unique_ptr.1"** %48, metadata !5817, metadata !DIExpression()), !dbg !6256
  %49 = alloca %"class.std::__1::vector"*, align 8
  call void @llvm.dbg.declare(metadata %"class.std::__1::vector"** %49, metadata !6262, metadata !DIExpression()), !dbg !6263
  %50 = alloca %"struct.std::__1::__compressed_pair_elem.8"*, align 8
  call void @llvm.dbg.declare(metadata %"struct.std::__1::__compressed_pair_elem.8"** %50, metadata !5758, metadata !DIExpression()), !dbg !6264
  %51 = alloca %"class.std::__1::__compressed_pair.7"*, align 8
  call void @llvm.dbg.declare(metadata %"class.std::__1::__compressed_pair.7"** %51, metadata !5772, metadata !DIExpression()), !dbg !6270
  %52 = alloca %"class.std::__1::__vector_base"*, align 8
  call void @llvm.dbg.declare(metadata %"class.std::__1::__vector_base"** %52, metadata !5775, metadata !DIExpression()), !dbg !6271
  %53 = alloca %"class.std::__1::__vector_base"*, align 8
  call void @llvm.dbg.declare(metadata %"class.std::__1::__vector_base"** %53, metadata !5778, metadata !DIExpression()), !dbg !6272
  %54 = alloca %"class.std::__1::vector"*, align 8
  call void @llvm.dbg.declare(metadata %"class.std::__1::vector"** %54, metadata !6183, metadata !DIExpression()), !dbg !6273
  %55 = alloca %"class.std::__1::unique_ptr.1"*, align 8
  call void @llvm.dbg.declare(metadata %"class.std::__1::unique_ptr.1"** %55, metadata !5817, metadata !DIExpression()), !dbg !6274
  %56 = alloca %"class.std::__1::vector"*, align 8
  call void @llvm.dbg.declare(metadata %"class.std::__1::vector"** %56, metadata !6262, metadata !DIExpression()), !dbg !6277
  %57 = alloca %"class.std::__1::unique_ptr.1"*, align 8
  call void @llvm.dbg.declare(metadata %"class.std::__1::unique_ptr.1"** %57, metadata !5817, metadata !DIExpression()), !dbg !6278
  %58 = alloca %"class.std::__1::vector"*, align 8
  call void @llvm.dbg.declare(metadata %"class.std::__1::vector"** %58, metadata !6262, metadata !DIExpression()), !dbg !6281
  %59 = alloca %"class.std::__1::vector"*, align 8
  call void @llvm.dbg.declare(metadata %"class.std::__1::vector"** %59, metadata !6282, metadata !DIExpression()), !dbg !6284
  %60 = alloca %"class.std::__1::vector"*, align 8
  call void @llvm.dbg.declare(metadata %"class.std::__1::vector"** %60, metadata !6286, metadata !DIExpression()), !dbg !6288
  %61 = alloca i8*, align 8
  call void @llvm.dbg.declare(metadata i8** %61, metadata !6290, metadata !DIExpression()), !dbg !6291
  %62 = alloca i8*, align 8
  call void @llvm.dbg.declare(metadata i8** %62, metadata !6292, metadata !DIExpression()), !dbg !6293
  %63 = alloca i8*, align 8
  call void @llvm.dbg.declare(metadata i8** %63, metadata !6294, metadata !DIExpression()), !dbg !6295
  %64 = alloca i8*, align 8
  call void @llvm.dbg.declare(metadata i8** %64, metadata !6296, metadata !DIExpression()), !dbg !6297
  %65 = alloca %"class.std::__1::unique_ptr.1"*, align 8
  call void @llvm.dbg.declare(metadata %"class.std::__1::unique_ptr.1"** %65, metadata !5817, metadata !DIExpression()), !dbg !6298
  %66 = alloca %"class.std::__1::vector"*, align 8
  call void @llvm.dbg.declare(metadata %"class.std::__1::vector"** %66, metadata !6262, metadata !DIExpression()), !dbg !6301
  %67 = alloca %"class.std::__1::vector"*, align 8
  call void @llvm.dbg.declare(metadata %"class.std::__1::vector"** %67, metadata !6302, metadata !DIExpression()), !dbg !6303
  %68 = alloca i64, align 8
  call void @llvm.dbg.declare(metadata i64* %68, metadata !6304, metadata !DIExpression()), !dbg !6305
  %69 = alloca %"class.std::__1::vector"*, align 8
  call void @llvm.dbg.declare(metadata %"class.std::__1::vector"** %69, metadata !6306, metadata !DIExpression()), !dbg !6308
  %70 = alloca %"class.std::__1::vector"*, align 8
  call void @llvm.dbg.declare(metadata %"class.std::__1::vector"** %70, metadata !6282, metadata !DIExpression()), !dbg !6310
  %71 = alloca %"class.std::__1::vector"*, align 8
  call void @llvm.dbg.declare(metadata %"class.std::__1::vector"** %71, metadata !6312, metadata !DIExpression()), !dbg !6313
  %72 = alloca i64, align 8
  call void @llvm.dbg.declare(metadata i64* %72, metadata !6314, metadata !DIExpression()), !dbg !6315
  %73 = alloca %"class.std::__1::vector"*, align 8
  store %"class.std::__1::vector"* %0, %"class.std::__1::vector"** %73, align 8
  call void @llvm.dbg.declare(metadata %"class.std::__1::vector"** %73, metadata !6316, metadata !DIExpression()), !dbg !6317
  %74 = load %"class.std::__1::vector"*, %"class.std::__1::vector"** %73, align 8
  %75 = bitcast %"class.std::__1::vector"* %74 to %"class.std::__1::__vector_base"*, !dbg !6318
  %76 = getelementptr inbounds %"class.std::__1::__vector_base", %"class.std::__1::__vector_base"* %75, i32 0, i32 0, !dbg !6318
  %77 = load %"class.std::__1::unique_ptr.1"*, %"class.std::__1::unique_ptr.1"** %76, align 8, !dbg !6318
  %78 = icmp ne %"class.std::__1::unique_ptr.1"* %77, null, !dbg !6319
  br i1 %78, label %79, label %260, !dbg !6320

; <label>:79:                                     ; preds = %1
  store %"class.std::__1::vector"* %74, %"class.std::__1::vector"** %71, align 8
  %80 = load %"class.std::__1::vector"*, %"class.std::__1::vector"** %71, align 8
  store %"class.std::__1::vector"* %80, %"class.std::__1::vector"** %70, align 8
  %81 = load %"class.std::__1::vector"*, %"class.std::__1::vector"** %70, align 8
  %82 = bitcast %"class.std::__1::vector"* %81 to %"class.std::__1::__vector_base"*, !dbg !6321
  %83 = getelementptr inbounds %"class.std::__1::__vector_base", %"class.std::__1::__vector_base"* %82, i32 0, i32 1, !dbg !6321
  %84 = load %"class.std::__1::unique_ptr.1"*, %"class.std::__1::unique_ptr.1"** %83, align 8, !dbg !6321
  %85 = bitcast %"class.std::__1::vector"* %81 to %"class.std::__1::__vector_base"*, !dbg !6322
  %86 = getelementptr inbounds %"class.std::__1::__vector_base", %"class.std::__1::__vector_base"* %85, i32 0, i32 0, !dbg !6322
  %87 = load %"class.std::__1::unique_ptr.1"*, %"class.std::__1::unique_ptr.1"** %86, align 8, !dbg !6322
  %88 = ptrtoint %"class.std::__1::unique_ptr.1"* %84 to i64, !dbg !6323
  %89 = ptrtoint %"class.std::__1::unique_ptr.1"* %87 to i64, !dbg !6323
  %90 = sub i64 %88, %89, !dbg !6323
  %91 = sdiv exact i64 %90, 8, !dbg !6323
  store i64 %91, i64* %72, align 8, !dbg !6315
  %92 = bitcast %"class.std::__1::vector"* %80 to %"class.std::__1::__vector_base"*, !dbg !6324
  store %"class.std::__1::__vector_base"* %92, %"class.std::__1::__vector_base"** %47, align 8
  %93 = load %"class.std::__1::__vector_base"*, %"class.std::__1::__vector_base"** %47, align 8
  %94 = getelementptr inbounds %"class.std::__1::__vector_base", %"class.std::__1::__vector_base"* %93, i32 0, i32 0, !dbg !6325
  %95 = load %"class.std::__1::unique_ptr.1"*, %"class.std::__1::unique_ptr.1"** %94, align 8, !dbg !6325
  store %"class.std::__1::__vector_base"* %93, %"class.std::__1::__vector_base"** %44, align 8
  store %"class.std::__1::unique_ptr.1"* %95, %"class.std::__1::unique_ptr.1"** %45, align 8
  %96 = load %"class.std::__1::__vector_base"*, %"class.std::__1::__vector_base"** %44, align 8
  %97 = getelementptr inbounds %"class.std::__1::__vector_base", %"class.std::__1::__vector_base"* %96, i32 0, i32 1, !dbg !6326
  %98 = load %"class.std::__1::unique_ptr.1"*, %"class.std::__1::unique_ptr.1"** %97, align 8, !dbg !6326
  store %"class.std::__1::unique_ptr.1"* %98, %"class.std::__1::unique_ptr.1"** %46, align 8, !dbg !6254
  br label %99, !dbg !6327

; <label>:99:                                     ; preds = %153, %79
  %100 = load %"class.std::__1::unique_ptr.1"*, %"class.std::__1::unique_ptr.1"** %45, align 8, !dbg !6328
  %101 = load %"class.std::__1::unique_ptr.1"*, %"class.std::__1::unique_ptr.1"** %46, align 8, !dbg !6329
  %102 = icmp ne %"class.std::__1::unique_ptr.1"* %100, %101, !dbg !6330
  br i1 %102, label %103, label %154, !dbg !6327

; <label>:103:                                    ; preds = %99
  store %"class.std::__1::__vector_base"* %96, %"class.std::__1::__vector_base"** %43, align 8
  %104 = load %"class.std::__1::__vector_base"*, %"class.std::__1::__vector_base"** %43, align 8
  %105 = getelementptr inbounds %"class.std::__1::__vector_base", %"class.std::__1::__vector_base"* %104, i32 0, i32 2, !dbg !6331
  store %"class.std::__1::__compressed_pair.7"* %105, %"class.std::__1::__compressed_pair.7"** %42, align 8
  %106 = load %"class.std::__1::__compressed_pair.7"*, %"class.std::__1::__compressed_pair.7"** %42, align 8
  %107 = bitcast %"class.std::__1::__compressed_pair.7"* %106 to %"struct.std::__1::__compressed_pair_elem.9"*, !dbg !6332
  store %"struct.std::__1::__compressed_pair_elem.9"* %107, %"struct.std::__1::__compressed_pair_elem.9"** %41, align 8
  %108 = load %"struct.std::__1::__compressed_pair_elem.9"*, %"struct.std::__1::__compressed_pair_elem.9"** %41, align 8
  %109 = bitcast %"struct.std::__1::__compressed_pair_elem.9"* %108 to %"class.std::__1::allocator"*, !dbg !6333
  %110 = load %"class.std::__1::unique_ptr.1"*, %"class.std::__1::unique_ptr.1"** %46, align 8, !dbg !6334
  %111 = getelementptr inbounds %"class.std::__1::unique_ptr.1", %"class.std::__1::unique_ptr.1"* %110, i32 -1, !dbg !6334
  store %"class.std::__1::unique_ptr.1"* %111, %"class.std::__1::unique_ptr.1"** %46, align 8, !dbg !6334
  store %"class.std::__1::unique_ptr.1"* %111, %"class.std::__1::unique_ptr.1"** %20, align 8
  %112 = load %"class.std::__1::unique_ptr.1"*, %"class.std::__1::unique_ptr.1"** %20, align 8, !dbg !6335
  store %"class.std::__1::allocator"* %109, %"class.std::__1::allocator"** %38, align 8
  store %"class.std::__1::unique_ptr.1"* %112, %"class.std::__1::unique_ptr.1"** %39, align 8
  %113 = bitcast %"struct.std::__1::__has_destroy"* %40 to %"struct.std::__1::integral_constant"*, !dbg !6336
  %114 = load %"class.std::__1::allocator"*, %"class.std::__1::allocator"** %38, align 8, !dbg !6337
  %115 = load %"class.std::__1::unique_ptr.1"*, %"class.std::__1::unique_ptr.1"** %39, align 8, !dbg !6338
  call void @llvm.dbg.declare(metadata !162, metadata !5921, metadata !DIExpression()) #6, !dbg !6339
  store %"class.std::__1::allocator"* %114, %"class.std::__1::allocator"** %36, align 8
  store %"class.std::__1::unique_ptr.1"* %115, %"class.std::__1::unique_ptr.1"** %37, align 8
  %116 = load %"class.std::__1::allocator"*, %"class.std::__1::allocator"** %36, align 8, !dbg !6340
  %117 = load %"class.std::__1::unique_ptr.1"*, %"class.std::__1::unique_ptr.1"** %37, align 8, !dbg !6341
  store %"class.std::__1::allocator"* %116, %"class.std::__1::allocator"** %34, align 8
  store %"class.std::__1::unique_ptr.1"* %117, %"class.std::__1::unique_ptr.1"** %35, align 8
  %118 = load %"class.std::__1::allocator"*, %"class.std::__1::allocator"** %34, align 8
  %119 = load %"class.std::__1::unique_ptr.1"*, %"class.std::__1::unique_ptr.1"** %35, align 8, !dbg !6342
  store %"class.std::__1::unique_ptr.1"* %119, %"class.std::__1::unique_ptr.1"** %33, align 8
  %120 = load %"class.std::__1::unique_ptr.1"*, %"class.std::__1::unique_ptr.1"** %33, align 8
  store %"class.std::__1::unique_ptr.1"* %120, %"class.std::__1::unique_ptr.1"** %32, align 8
  %121 = load %"class.std::__1::unique_ptr.1"*, %"class.std::__1::unique_ptr.1"** %32, align 8
  store %"class.std::__1::unique_ptr.1"* %121, %"class.std::__1::unique_ptr.1"** %29, align 8
  store %"class.altered_carbon::js::ACAstBaseNode"* null, %"class.altered_carbon::js::ACAstBaseNode"** %30, align 8
  %122 = load %"class.std::__1::unique_ptr.1"*, %"class.std::__1::unique_ptr.1"** %29, align 8
  %123 = getelementptr inbounds %"class.std::__1::unique_ptr.1", %"class.std::__1::unique_ptr.1"* %122, i32 0, i32 0, !dbg !6343
  store %"class.std::__1::__compressed_pair.2"* %123, %"class.std::__1::__compressed_pair.2"** %28, align 8
  %124 = load %"class.std::__1::__compressed_pair.2"*, %"class.std::__1::__compressed_pair.2"** %28, align 8
  %125 = bitcast %"class.std::__1::__compressed_pair.2"* %124 to %"struct.std::__1::__compressed_pair_elem.3"*, !dbg !6344
  store %"struct.std::__1::__compressed_pair_elem.3"* %125, %"struct.std::__1::__compressed_pair_elem.3"** %27, align 8
  %126 = load %"struct.std::__1::__compressed_pair_elem.3"*, %"struct.std::__1::__compressed_pair_elem.3"** %27, align 8
  %127 = getelementptr inbounds %"struct.std::__1::__compressed_pair_elem.3", %"struct.std::__1::__compressed_pair_elem.3"* %126, i32 0, i32 0, !dbg !6345
  %128 = load %"class.altered_carbon::js::ACAstBaseNode"*, %"class.altered_carbon::js::ACAstBaseNode"** %127, align 8, !dbg !6346
  store %"class.altered_carbon::js::ACAstBaseNode"* %128, %"class.altered_carbon::js::ACAstBaseNode"** %31, align 8, !dbg !6237
  %129 = load %"class.altered_carbon::js::ACAstBaseNode"*, %"class.altered_carbon::js::ACAstBaseNode"** %30, align 8, !dbg !6347
  %130 = getelementptr inbounds %"class.std::__1::unique_ptr.1", %"class.std::__1::unique_ptr.1"* %122, i32 0, i32 0, !dbg !6348
  store %"class.std::__1::__compressed_pair.2"* %130, %"class.std::__1::__compressed_pair.2"** %24, align 8
  %131 = load %"class.std::__1::__compressed_pair.2"*, %"class.std::__1::__compressed_pair.2"** %24, align 8
