; ModuleID = 'temp.bc'
source_filename = "../ac_lex_state.cc"
target datalayout = "e-m:o-i64:64-f80:128-n8:16:32:64-S128"
target triple = "x86_64-apple-macosx10.13.0"

%"class.altered_carbon::js::NullStream" = type { %"class.altered_carbon::js::NullStreamBuf", %"class.std::__1::basic_ostream.base", %"class.std::__1::basic_ios.base" }
%"class.altered_carbon::js::NullStreamBuf" = type { %"class.std::__1::basic_streambuf", [256 x i8] }
%"class.std::__1::basic_streambuf" = type { i32 (...)**, %"class.std::__1::locale", i8*, i8*, i8*, i8*, i8*, i8* }
%"class.std::__1::locale" = type { %"class.std::__1::locale::__imp"* }
%"class.std::__1::locale::__imp" = type opaque
%"class.std::__1::basic_ostream.base" = type { i32 (...)** }
%"class.std::__1::basic_ios.base" = type <{ %"class.std::__1::ios_base", %"class.std::__1::basic_ostream"*, i32 }>
%"class.std::__1::ios_base" = type { i32 (...)**, i32, i64, i64, i32, i32, i8*, i8*, void (i32, %"class.std::__1::ios_base"*, i32)**, i32*, i64, i64, i64*, i64, i64, i8**, i64, i64 }
%"class.std::__1::basic_ostream" = type { i32 (...)**, %"class.std::__1::basic_ios.base" }
%"class.std::__1::basic_ios" = type <{ %"class.std::__1::ios_base", %"class.std::__1::basic_ostream"*, i32, [4 x i8] }>
%"class.altered_carbon::js::ACLexState" = type { i32 (...)**, i32, %"struct.altered_carbon::js::BlockLevelState", i8, i8, %"class.std::__1::map", %"class.std::__1::vector" }
%"struct.altered_carbon::js::BlockLevelState" = type { i8, i8, i8 }
%"class.std::__1::map" = type { %"class.std::__1::__tree" }
%"class.std::__1::__tree" = type { %"class.std::__1::__tree_end_node"*, %"class.std::__1::__compressed_pair", %"class.std::__1::__compressed_pair.1" }
%"class.std::__1::__tree_end_node" = type { %"class.std::__1::__tree_node_base"* }
%"class.std::__1::__tree_node_base" = type <{ %"class.std::__1::__tree_end_node", %"class.std::__1::__tree_node_base"*, %"class.std::__1::__tree_end_node"*, i8, [7 x i8] }>
%"class.std::__1::__compressed_pair" = type { %"struct.std::__1::__compressed_pair_elem" }
%"struct.std::__1::__compressed_pair_elem" = type { %"class.std::__1::__tree_end_node" }
%"class.std::__1::__compressed_pair.1" = type { %"struct.std::__1::__compressed_pair_elem.2" }
%"struct.std::__1::__compressed_pair_elem.2" = type { i64 }
%"class.std::__1::vector" = type { %"class.std::__1::__vector_base" }
%"class.std::__1::__vector_base" = type { i32*, i32*, %"class.std::__1::__compressed_pair.4" }
%"class.std::__1::__compressed_pair.4" = type { %"struct.std::__1::__compressed_pair_elem.5" }
%"struct.std::__1::__compressed_pair_elem.5" = type { i32* }
%"class.std::__1::allocator.7" = type { i8 }
%"struct.std::__1::__compressed_pair_elem.6" = type { i8 }
%"class.std::__1::__vector_base_common" = type { i8 }
%"class.std::__1::__map_value_compare" = type { i8 }
%"struct.std::__1::less" = type { i8 }
%"struct.std::__1::__has_destroy" = type { i8 }
%"struct.std::__1::integral_constant" = type { i8 }
%"struct.std::__1::__has_construct" = type { i8 }
%"struct.std::__1::vector<altered_carbon::js::ACLexTokenType, std::__1::allocator<altered_carbon::js::ACLexTokenType> >::__RAII_IncreaseAnnotator" = type { i8 }
%"struct.std::__1::__compressed_pair_elem.3" = type { i8 }
%"class.std::__1::allocator" = type { i8 }
%"struct.std::__1::__compressed_pair_elem.0" = type { i8 }
%"class.std::__1::__tree_node" = type { %"class.std::__1::__tree_node_base.base", %"union.std::__1::__value_type" }
%"class.std::__1::__tree_node_base.base" = type <{ %"class.std::__1::__tree_end_node", %"class.std::__1::__tree_node_base"*, %"class.std::__1::__tree_end_node"*, i8 }>
%"union.std::__1::__value_type" = type { %"struct.std::__1::pair" }
%"struct.std::__1::pair" = type { %"class.std::__1::basic_string", %"class.altered_carbon::js::ACAstBaseNode"* }
%"class.std::__1::basic_string" = type { %"class.std::__1::__compressed_pair.9" }
%"class.std::__1::__compressed_pair.9" = type { %"struct.std::__1::__compressed_pair_elem.10" }
%"struct.std::__1::__compressed_pair_elem.10" = type { %"struct.std::__1::basic_string<wchar_t, std::__1::char_traits<wchar_t>, std::__1::allocator<wchar_t> >::__rep" }
%"struct.std::__1::basic_string<wchar_t, std::__1::char_traits<wchar_t>, std::__1::allocator<wchar_t> >::__rep" = type { %union.anon }
%union.anon = type { %"struct.std::__1::basic_string<wchar_t, std::__1::char_traits<wchar_t>, std::__1::allocator<wchar_t> >::__long" }
%"struct.std::__1::basic_string<wchar_t, std::__1::char_traits<wchar_t>, std::__1::allocator<wchar_t> >::__long" = type { i64, i64, i32* }
%"class.altered_carbon::js::ACAstBaseNode" = type { i32 (...)**, %"class.std::__1::unique_ptr", i32, i32, %"class.std::__1::vector.18" }
%"class.std::__1::unique_ptr" = type { %"class.std::__1::__compressed_pair.15" }
%"class.std::__1::__compressed_pair.15" = type { %"struct.std::__1::__compressed_pair_elem.16" }
%"struct.std::__1::__compressed_pair_elem.16" = type { %"struct.altered_carbon::js::ACLexPosition"* }
%"struct.altered_carbon::js::ACLexPosition" = type { i32 (...)**, i64, i32, i64 }
%"class.std::__1::vector.18" = type { %"class.std::__1::__vector_base.19" }
%"class.std::__1::__vector_base.19" = type { %"class.std::__1::unique_ptr.20"*, %"class.std::__1::unique_ptr.20"*, %"class.std::__1::__compressed_pair.26" }
%"class.std::__1::unique_ptr.20" = type { %"class.std::__1::__compressed_pair.21" }
%"class.std::__1::__compressed_pair.21" = type { %"struct.std::__1::__compressed_pair_elem.22" }
%"struct.std::__1::__compressed_pair_elem.22" = type { %"class.altered_carbon::js::ACAstBaseNode"* }
%"class.std::__1::__compressed_pair.26" = type { %"struct.std::__1::__compressed_pair_elem.27" }
%"struct.std::__1::__compressed_pair_elem.27" = type { %"class.std::__1::unique_ptr.20"* }
%"struct.std::__1::integral_constant.32" = type { i8 }
%"struct.std::__1::__has_destroy.33" = type { i8 }
%"struct.std::__1::__less" = type { i8 }
%"struct.std::__1::__split_buffer" = type { i32*, i32*, i32*, %"class.std::__1::__compressed_pair.34" }
%"class.std::__1::__compressed_pair.34" = type { %"struct.std::__1::__compressed_pair_elem.5", %"struct.std::__1::__compressed_pair_elem.35" }
%"struct.std::__1::__compressed_pair_elem.35" = type { %"class.std::__1::allocator.7"* }
%"struct.std::__1::__has_max_size" = type { i8 }
%"class.std::__1::__split_buffer_common" = type { i8 }

@_ZN14altered_carbon2jsL9BlackHoleE = internal global %"class.altered_carbon::js::NullStream" zeroinitializer, align 8, !dbg !0
@__dso_handle = external hidden global i8
@_ZTVN14altered_carbon2js10ACLexStateE = linkonce_odr unnamed_addr constant { [4 x i8*] } { [4 x i8*] [i8* null, i8* bitcast ({ i8*, i8* }* @_ZTIN14altered_carbon2js10ACLexStateE to i8*), i8* bitcast (void (%"class.altered_carbon::js::ACLexState"*)* @_ZN14altered_carbon2js10ACLexStateD1Ev to i8*), i8* bitcast (void (%"class.altered_carbon::js::ACLexState"*)* @_ZN14altered_carbon2js10ACLexStateD0Ev to i8*)] }, align 8
@_ZTVN10__cxxabiv117__class_type_infoE = external global i8*
@_ZTSN14altered_carbon2js10ACLexStateE = linkonce_odr constant [34 x i8] c"N14altered_carbon2js10ACLexStateE\00"
@_ZTIN14altered_carbon2js10ACLexStateE = linkonce_odr constant { i8*, i8* } { i8* bitcast (i8** getelementptr inbounds (i8*, i8** @_ZTVN10__cxxabiv117__class_type_infoE, i64 2) to i8*), i8* getelementptr inbounds ([34 x i8], [34 x i8]* @_ZTSN14altered_carbon2js10ACLexStateE, i32 0, i32 0) }
@_ZTVN14altered_carbon2js10NullStreamE = linkonce_odr unnamed_addr constant { [17 x i8*], [5 x i8*], [5 x i8*] } { [17 x i8*] [i8* inttoptr (i64 328 to i8*), i8* null, i8* bitcast ({ i8*, i8*, i32, i32, i8*, i64, i8*, i64 }* @_ZTIN14altered_carbon2js10NullStreamE to i8*), i8* bitcast (void (%"class.altered_carbon::js::NullStream"*)* @_ZN14altered_carbon2js10NullStreamD1Ev to i8*), i8* bitcast (void (%"class.altered_carbon::js::NullStream"*)* @_ZN14altered_carbon2js10NullStreamD0Ev to i8*), i8* bitcast (void (%"class.std::__1::basic_streambuf"*, %"class.std::__1::locale"*)* @_ZNSt3__115basic_streambufIcNS_11char_traitsIcEEE5imbueERKNS_6localeE to i8*), i8* bitcast (%"class.std::__1::basic_streambuf"* (%"class.std::__1::basic_streambuf"*, i8*, i64)* @_ZNSt3__115basic_streambufIcNS_11char_traitsIcEEE6setbufEPcl to i8*), i8* bitcast (void ()* @_ZNSt3__115basic_streambufIcNS_11char_traitsIcEEE7seekoffExNS_8ios_base7seekdirEj to i8*), i8* bitcast (void ()* @_ZNSt3__115basic_streambufIcNS_11char_traitsIcEEE7seekposENS_4fposI11__mbstate_tEEj to i8*), i8* bitcast (i32 (%"class.std::__1::basic_streambuf"*)* @_ZNSt3__115basic_streambufIcNS_11char_traitsIcEEE4syncEv to i8*), i8* bitcast (i64 (%"class.std::__1::basic_streambuf"*)* @_ZNSt3__115basic_streambufIcNS_11char_traitsIcEEE9showmanycEv to i8*), i8* bitcast (i64 (%"class.std::__1::basic_streambuf"*, i8*, i64)* @_ZNSt3__115basic_streambufIcNS_11char_traitsIcEEE6xsgetnEPcl to i8*), i8* bitcast (i32 (%"class.std::__1::basic_streambuf"*)* @_ZNSt3__115basic_streambufIcNS_11char_traitsIcEEE9underflowEv to i8*), i8* bitcast (i32 (%"class.std::__1::basic_streambuf"*)* @_ZNSt3__115basic_streambufIcNS_11char_traitsIcEEE5uflowEv to i8*), i8* bitcast (i32 (%"class.std::__1::basic_streambuf"*, i32)* @_ZNSt3__115basic_streambufIcNS_11char_traitsIcEEE9pbackfailEi to i8*), i8* bitcast (i64 (%"class.std::__1::basic_streambuf"*, i8*, i64)* @_ZNSt3__115basic_streambufIcNS_11char_traitsIcEEE6xsputnEPKcl to i8*), i8* bitcast (i32 (%"class.altered_carbon::js::NullStreamBuf"*, i32)* @_ZN14altered_carbon2js13NullStreamBuf8overflowEi to i8*)], [5 x i8*] [i8* inttoptr (i64 8 to i8*), i8* inttoptr (i64 -320 to i8*), i8* bitcast ({ i8*, i8*, i32, i32, i8*, i64, i8*, i64 }* @_ZTIN14altered_carbon2js10NullStreamE to i8*), i8* bitcast (void (%"class.altered_carbon::js::NullStream"*)* @_ZThn320_N14altered_carbon2js10NullStreamD1Ev to i8*), i8* bitcast (void (%"class.altered_carbon::js::NullStream"*)* @_ZThn320_N14altered_carbon2js10NullStreamD0Ev to i8*)], [5 x i8*] [i8* inttoptr (i64 -328 to i8*), i8* inttoptr (i64 -328 to i8*), i8* bitcast ({ i8*, i8*, i32, i32, i8*, i64, i8*, i64 }* @_ZTIN14altered_carbon2js10NullStreamE to i8*), i8* bitcast (void (%"class.altered_carbon::js::NullStream"*)* @_ZTv0_n24_N14altered_carbon2js10NullStreamD1Ev to i8*), i8* bitcast (void (%"class.altered_carbon::js::NullStream"*)* @_ZTv0_n24_N14altered_carbon2js10NullStreamD0Ev to i8*)] }, align 8
@_ZTTN14altered_carbon2js10NullStreamE = linkonce_odr unnamed_addr constant [5 x i8*] [i8* bitcast (i8** getelementptr inbounds ({ [17 x i8*], [5 x i8*], [5 x i8*] }, { [17 x i8*], [5 x i8*], [5 x i8*] }* @_ZTVN14altered_carbon2js10NullStreamE, i32 0, inrange i32 0, i32 3) to i8*), i8* bitcast (i8** getelementptr inbounds ({ [5 x i8*], [5 x i8*] }, { [5 x i8*], [5 x i8*] }* @_ZTCN14altered_carbon2js10NullStreamE320_NSt3__113basic_ostreamIcNS1_11char_traitsIcEEEE, i32 0, inrange i32 0, i32 3) to i8*), i8* bitcast (i8** getelementptr inbounds ({ [5 x i8*], [5 x i8*] }, { [5 x i8*], [5 x i8*] }* @_ZTCN14altered_carbon2js10NullStreamE320_NSt3__113basic_ostreamIcNS1_11char_traitsIcEEEE, i32 0, inrange i32 1, i32 3) to i8*), i8* bitcast (i8** getelementptr inbounds ({ [17 x i8*], [5 x i8*], [5 x i8*] }, { [17 x i8*], [5 x i8*], [5 x i8*] }* @_ZTVN14altered_carbon2js10NullStreamE, i32 0, inrange i32 1, i32 3) to i8*), i8* bitcast (i8** getelementptr inbounds ({ [17 x i8*], [5 x i8*], [5 x i8*] }, { [17 x i8*], [5 x i8*], [5 x i8*] }* @_ZTVN14altered_carbon2js10NullStreamE, i32 0, inrange i32 2, i32 3) to i8*)]
@_ZTCN14altered_carbon2js10NullStreamE320_NSt3__113basic_ostreamIcNS1_11char_traitsIcEEEE = linkonce_odr unnamed_addr constant { [5 x i8*], [5 x i8*] } { [5 x i8*] [i8* inttoptr (i64 8 to i8*), i8* null, i8* bitcast (i8** @_ZTINSt3__113basic_ostreamIcNS_11char_traitsIcEEEE to i8*), i8* bitcast (void (%"class.std::__1::basic_ostream"*)* @_ZNSt3__113basic_ostreamIcNS_11char_traitsIcEEED1Ev to i8*), i8* bitcast (void (%"class.std::__1::basic_ostream"*)* @_ZNSt3__113basic_ostreamIcNS_11char_traitsIcEEED0Ev to i8*)], [5 x i8*] [i8* inttoptr (i64 -8 to i8*), i8* inttoptr (i64 -8 to i8*), i8* bitcast (i8** @_ZTINSt3__113basic_ostreamIcNS_11char_traitsIcEEEE to i8*), i8* bitcast (void (%"class.std::__1::basic_ostream"*)* @_ZTv0_n24_NSt3__113basic_ostreamIcNS_11char_traitsIcEEED1Ev to i8*), i8* bitcast (void (%"class.std::__1::basic_ostream"*)* @_ZTv0_n24_NSt3__113basic_ostreamIcNS_11char_traitsIcEEED0Ev to i8*)] }
@_ZTINSt3__113basic_ostreamIcNS_11char_traitsIcEEEE = external constant i8*
@_ZTVN10__cxxabiv121__vmi_class_type_infoE = external global i8*
@_ZTSN14altered_carbon2js10NullStreamE = linkonce_odr constant [34 x i8] c"N14altered_carbon2js10NullStreamE\00"
@_ZTIN14altered_carbon2js13NullStreamBufE = external constant i8*
@_ZTIN14altered_carbon2js10NullStreamE = linkonce_odr constant { i8*, i8*, i32, i32, i8*, i64, i8*, i64 } { i8* bitcast (i8** getelementptr inbounds (i8*, i8** @_ZTVN10__cxxabiv121__vmi_class_type_infoE, i64 2) to i8*), i8* getelementptr inbounds ([34 x i8], [34 x i8]* @_ZTSN14altered_carbon2js10NullStreamE, i32 0, i32 0), i32 0, i32 2, i8* bitcast (i8** @_ZTIN14altered_carbon2js13NullStreamBufE to i8*), i64 0, i8* bitcast (i8** @_ZTINSt3__113basic_ostreamIcNS_11char_traitsIcEEEE to i8*), i64 81922 }
@_ZTVNSt3__19basic_iosIcNS_11char_traitsIcEEEE = external unnamed_addr constant { [4 x i8*] }
@_ZTVNSt3__18ios_baseE = external unnamed_addr constant { [4 x i8*] }
@_ZTVN14altered_carbon2js13NullStreamBufE = external unnamed_addr constant { [16 x i8*] }
@.str = private unnamed_addr constant [68 x i8] c"allocator<T>::allocate(size_t n) 'n' exceeds maximum supported size\00", align 1
@llvm.global_ctors = appending global [1 x { i32, void ()*, i8* }] [{ i32, void ()*, i8* } { i32 65535, void ()* @_GLOBAL__sub_I_ac_lex_state.cc, i8* null }]

; Function Attrs: noinline nounwind ssp uwtable
define internal void @__cxx_global_var_init() #0 section "__TEXT,__StaticInit,regular,pure_instructions" !dbg !6328 {
  call void @_ZN14altered_carbon2js10NullStreamC1Ev(%"class.altered_carbon::js::NullStream"* @_ZN14altered_carbon2jsL9BlackHoleE), !dbg !6329
  %1 = call i32 @__cxa_atexit(void (i8*)* bitcast (void (%"class.altered_carbon::js::NullStream"*)* @_ZN14altered_carbon2js10NullStreamD1Ev to void (i8*)*), i8* bitcast (%"class.altered_carbon::js::NullStream"* @_ZN14altered_carbon2jsL9BlackHoleE to i8*), i8* @__dso_handle) #2, !dbg !6329
  ret void, !dbg !6329
}

; Function Attrs: noinline nounwind optnone ssp uwtable
define linkonce_odr hidden void @_ZN14altered_carbon2js10NullStreamC1Ev(%"class.altered_carbon::js::NullStream"*) unnamed_addr #1 align 2 !dbg !6330 {
  %2 = alloca %"class.std::__1::basic_ios"*, align 8
  call void @llvm.dbg.declare(metadata %"class.std::__1::basic_ios"** %2, metadata !6331, metadata !DIExpression()), !dbg !6334
  %3 = alloca %"class.std::__1::basic_streambuf"*, align 8
  call void @llvm.dbg.declare(metadata %"class.std::__1::basic_streambuf"** %3, metadata !6339, metadata !DIExpression()), !dbg !6340
  %4 = alloca %"class.std::__1::basic_ostream"*, align 8
  call void @llvm.dbg.declare(metadata %"class.std::__1::basic_ostream"** %4, metadata !6341, metadata !DIExpression()), !dbg !6342
  %5 = alloca i8**, align 8
  call void @llvm.dbg.declare(metadata i8*** %5, metadata !6343, metadata !DIExpression()), !dbg !6342
  %6 = alloca %"class.std::__1::basic_streambuf"*, align 8
  call void @llvm.dbg.declare(metadata %"class.std::__1::basic_streambuf"** %6, metadata !6344, metadata !DIExpression()), !dbg !6345
  %7 = alloca %"class.std::__1::ios_base"*, align 8
  call void @llvm.dbg.declare(metadata %"class.std::__1::ios_base"** %7, metadata !6346, metadata !DIExpression()), !dbg !6349
  %8 = alloca %"class.std::__1::basic_ios"*, align 8
  call void @llvm.dbg.declare(metadata %"class.std::__1::basic_ios"** %8, metadata !6353, metadata !DIExpression()), !dbg !6354
  %9 = alloca %"class.altered_carbon::js::NullStream"*, align 8
  store %"class.altered_carbon::js::NullStream"* %0, %"class.altered_carbon::js::NullStream"** %9, align 8
  call void @llvm.dbg.declare(metadata %"class.altered_carbon::js::NullStream"** %9, metadata !6355, metadata !DIExpression()), !dbg !6356
  %10 = load %"class.altered_carbon::js::NullStream"*, %"class.altered_carbon::js::NullStream"** %9, align 8
  %11 = bitcast %"class.altered_carbon::js::NullStream"* %10 to i8*, !dbg !6357
  %12 = getelementptr inbounds i8, i8* %11, i64 328, !dbg !6357
  %13 = bitcast i8* %12 to %"class.std::__1::basic_ios"*, !dbg !6357
  store %"class.std::__1::basic_ios"* %13, %"class.std::__1::basic_ios"** %8, align 8
  %14 = load %"class.std::__1::basic_ios"*, %"class.std::__1::basic_ios"** %8, align 8
  %15 = bitcast %"class.std::__1::basic_ios"* %14 to %"class.std::__1::ios_base"*, !dbg !6358
  store %"class.std::__1::ios_base"* %15, %"class.std::__1::ios_base"** %7, align 8
  %16 = load %"class.std::__1::ios_base"*, %"class.std::__1::ios_base"** %7, align 8
  %17 = bitcast %"class.std::__1::ios_base"* %16 to i32 (...)***, !dbg !6359
  store i32 (...)** bitcast (i8** getelementptr inbounds ({ [4 x i8*] }, { [4 x i8*] }* @_ZTVNSt3__18ios_baseE, i32 0, inrange i32 0, i32 2) to i32 (...)**), i32 (...)*** %17, align 8, !dbg !6359
  %18 = bitcast %"class.std::__1::basic_ios"* %14 to i32 (...)***, !dbg !6358
  store i32 (...)** bitcast (i8** getelementptr inbounds ({ [4 x i8*] }, { [4 x i8*] }* @_ZTVNSt3__19basic_iosIcNS_11char_traitsIcEEEE, i32 0, inrange i32 0, i32 2) to i32 (...)**), i32 (...)*** %18, align 8, !dbg !6358
  %19 = bitcast %"class.altered_carbon::js::NullStream"* %10 to %"class.altered_carbon::js::NullStreamBuf"*, !dbg !6357
  call void @_ZN14altered_carbon2js13NullStreamBufC2Ev(%"class.altered_carbon::js::NullStreamBuf"* %19), !dbg !6360
  %20 = bitcast %"class.altered_carbon::js::NullStream"* %10 to i32 (...)***, !dbg !6357
  store i32 (...)** bitcast (i8** getelementptr inbounds ({ [17 x i8*], [5 x i8*], [5 x i8*] }, { [17 x i8*], [5 x i8*], [5 x i8*] }* @_ZTVN14altered_carbon2js10NullStreamE, i32 0, inrange i32 0, i32 3) to i32 (...)**), i32 (...)*** %20, align 8, !dbg !6357
  %21 = bitcast %"class.altered_carbon::js::NullStream"* %10 to i8*, !dbg !6357
  %22 = getelementptr inbounds i8, i8* %21, i64 320, !dbg !6357
  %23 = bitcast i8* %22 to i32 (...)***, !dbg !6357
  store i32 (...)** bitcast (i8** getelementptr inbounds ({ [17 x i8*], [5 x i8*], [5 x i8*] }, { [17 x i8*], [5 x i8*], [5 x i8*] }* @_ZTVN14altered_carbon2js10NullStreamE, i32 0, inrange i32 1, i32 3) to i32 (...)**), i32 (...)*** %23, align 8, !dbg !6357
  %24 = bitcast %"class.altered_carbon::js::NullStream"* %10 to i8*, !dbg !6357
  %25 = getelementptr inbounds i8, i8* %24, i64 328, !dbg !6357
  %26 = bitcast i8* %25 to i32 (...)***, !dbg !6357
  store i32 (...)** bitcast (i8** getelementptr inbounds ({ [17 x i8*], [5 x i8*], [5 x i8*] }, { [17 x i8*], [5 x i8*], [5 x i8*] }* @_ZTVN14altered_carbon2js10NullStreamE, i32 0, inrange i32 2, i32 3) to i32 (...)**), i32 (...)*** %26, align 8, !dbg !6357
  %27 = bitcast %"class.altered_carbon::js::NullStream"* %10 to i8*, !dbg !6357
  %28 = getelementptr inbounds i8, i8* %27, i64 320, !dbg !6357
  %29 = bitcast i8* %28 to %"class.std::__1::basic_ostream"*, !dbg !6357
  %30 = bitcast %"class.altered_carbon::js::NullStream"* %10 to %"class.std::__1::basic_streambuf"*, !dbg !6361
  store %"class.std::__1::basic_ostream"* %29, %"class.std::__1::basic_ostream"** %4, align 8
  store i8** getelementptr inbounds ([5 x i8*], [5 x i8*]* @_ZTTN14altered_carbon2js10NullStreamE, i64 0, i64 1), i8*** %5, align 8
  store %"class.std::__1::basic_streambuf"* %30, %"class.std::__1::basic_streambuf"** %6, align 8
  %31 = load %"class.std::__1::basic_ostream"*, %"class.std::__1::basic_ostream"** %4, align 8
  %32 = load i8**, i8*** %5, align 8
  %33 = load i8*, i8** %32, align 8, !dbg !6362
  %34 = bitcast %"class.std::__1::basic_ostream"* %31 to i32 (...)***, !dbg !6362
  %35 = bitcast i8* %33 to i32 (...)**, !dbg !6362
  store i32 (...)** %35, i32 (...)*** %34, align 8, !dbg !6362
  %36 = getelementptr inbounds i8*, i8** %32, i64 1, !dbg !6362
  %37 = load i8*, i8** %36, align 8, !dbg !6362
  %38 = bitcast %"class.std::__1::basic_ostream"* %31 to i8**, !dbg !6362
  %39 = load i8*, i8** %38, align 8, !dbg !6362
  %40 = getelementptr i8, i8* %39, i64 -24, !dbg !6362
  %41 = bitcast i8* %40 to i64*, !dbg !6362
  %42 = load i64, i64* %41, align 8, !dbg !6362
  %43 = bitcast %"class.std::__1::basic_ostream"* %31 to i8*, !dbg !6362
  %44 = getelementptr inbounds i8, i8* %43, i64 %42, !dbg !6362
  %45 = bitcast i8* %44 to i32 (...)***, !dbg !6362
  %46 = bitcast i8* %37 to i32 (...)**, !dbg !6362
  store i32 (...)** %46, i32 (...)*** %45, align 8, !dbg !6362
  %47 = bitcast %"class.std::__1::basic_ostream"* %31 to i8**, !dbg !6363
  %48 = load i8*, i8** %47, align 8, !dbg !6363
  %49 = getelementptr i8, i8* %48, i64 -24, !dbg !6363
  %50 = bitcast i8* %49 to i64*, !dbg !6363
  %51 = load i64, i64* %50, align 8, !dbg !6363
  %52 = bitcast %"class.std::__1::basic_ostream"* %31 to i8*, !dbg !6363
  %53 = getelementptr inbounds i8, i8* %52, i64 %51, !dbg !6363
  %54 = bitcast i8* %53 to %"class.std::__1::basic_ios"*, !dbg !6363
  %55 = load %"class.std::__1::basic_streambuf"*, %"class.std::__1::basic_streambuf"** %6, align 8, !dbg !6364
  store %"class.std::__1::basic_ios"* %54, %"class.std::__1::basic_ios"** %2, align 8
  store %"class.std::__1::basic_streambuf"* %55, %"class.std::__1::basic_streambuf"** %3, align 8
  %56 = load %"class.std::__1::basic_ios"*, %"class.std::__1::basic_ios"** %2, align 8
  %57 = bitcast %"class.std::__1::basic_ios"* %56 to %"class.std::__1::ios_base"*, !dbg !6365
  %58 = load %"class.std::__1::basic_streambuf"*, %"class.std::__1::basic_streambuf"** %3, align 8, !dbg !6366
  %59 = bitcast %"class.std::__1::basic_streambuf"* %58 to i8*, !dbg !6366
  call void @_ZNSt3__18ios_base4initEPv(%"class.std::__1::ios_base"* %57, i8* %59) #2, !dbg !6365
  %60 = getelementptr inbounds %"class.std::__1::basic_ios", %"class.std::__1::basic_ios"* %56, i32 0, i32 1, !dbg !6367
  store %"class.std::__1::basic_ostream"* null, %"class.std::__1::basic_ostream"** %60, align 8, !dbg !6368
  %61 = call i32 @_ZNSt3__111char_traitsIcE3eofEv() #2, !dbg !6369
  %62 = getelementptr inbounds %"class.std::__1::basic_ios", %"class.std::__1::basic_ios"* %56, i32 0, i32 2, !dbg !6370
  store i32 %61, i32* %62, align 8, !dbg !6371
  %63 = bitcast %"class.altered_carbon::js::NullStream"* %10 to i32 (...)***, !dbg !6357
  store i32 (...)** bitcast (i8** getelementptr inbounds ({ [17 x i8*], [5 x i8*], [5 x i8*] }, { [17 x i8*], [5 x i8*], [5 x i8*] }* @_ZTVN14altered_carbon2js10NullStreamE, i32 0, inrange i32 0, i32 3) to i32 (...)**), i32 (...)*** %63, align 8, !dbg !6357
  %64 = bitcast %"class.altered_carbon::js::NullStream"* %10 to i8*, !dbg !6357
  %65 = getelementptr inbounds i8, i8* %64, i64 320, !dbg !6357
  %66 = bitcast i8* %65 to i32 (...)***, !dbg !6357
  store i32 (...)** bitcast (i8** getelementptr inbounds ({ [17 x i8*], [5 x i8*], [5 x i8*] }, { [17 x i8*], [5 x i8*], [5 x i8*] }* @_ZTVN14altered_carbon2js10NullStreamE, i32 0, inrange i32 1, i32 3) to i32 (...)**), i32 (...)*** %66, align 8, !dbg !6357
  %67 = bitcast %"class.altered_carbon::js::NullStream"* %10 to i8*, !dbg !6357
  %68 = getelementptr inbounds i8, i8* %67, i64 328, !dbg !6357
  %69 = bitcast i8* %68 to i32 (...)***, !dbg !6357
  store i32 (...)** bitcast (i8** getelementptr inbounds ({ [17 x i8*], [5 x i8*], [5 x i8*] }, { [17 x i8*], [5 x i8*], [5 x i8*] }* @_ZTVN14altered_carbon2js10NullStreamE, i32 0, inrange i32 2, i32 3) to i32 (...)**), i32 (...)*** %69, align 8, !dbg !6357
  ret void, !dbg !6372
}

; Function Attrs: noinline nounwind optnone ssp uwtable
define linkonce_odr hidden void @_ZN14altered_carbon2js10NullStreamD1Ev(%"class.altered_carbon::js::NullStream"*) unnamed_addr #1 align 2 !dbg !6373 {
  %2 = alloca %"class.altered_carbon::js::NullStream"*, align 8
  store %"class.altered_carbon::js::NullStream"* %0, %"class.altered_carbon::js::NullStream"** %2, align 8
  call void @llvm.dbg.declare(metadata %"class.altered_carbon::js::NullStream"** %2, metadata !6375, metadata !DIExpression()), !dbg !6376
  %3 = load %"class.altered_carbon::js::NullStream"*, %"class.altered_carbon::js::NullStream"** %2, align 8
  call void @_ZN14altered_carbon2js10NullStreamD2Ev(%"class.altered_carbon::js::NullStream"* %3, i8** getelementptr inbounds ([5 x i8*], [5 x i8*]* @_ZTTN14altered_carbon2js10NullStreamE, i64 0, i64 0)) #2, !dbg !6377
  %4 = bitcast %"class.altered_carbon::js::NullStream"* %3 to i8*, !dbg !6377
  %5 = getelementptr inbounds i8, i8* %4, i64 328, !dbg !6377
  %6 = bitcast i8* %5 to %"class.std::__1::basic_ios"*, !dbg !6377
  call void @_ZNSt3__19basic_iosIcNS_11char_traitsIcEEED2Ev(%"class.std::__1::basic_ios"* %6) #2, !dbg !6377
  ret void, !dbg !6377
}

; Function Attrs: nounwind
declare i32 @__cxa_atexit(void (i8*)*, i8*, i8*) #2

; Function Attrs: noinline nounwind optnone ssp uwtable
define void @_ZN14altered_carbon2js10ACLexStateC2Ev(%"class.altered_carbon::js::ACLexState"*) unnamed_addr #1 align 2 !dbg !6378 {
  %2 = alloca i8**, align 8
  call void @llvm.dbg.declare(metadata i8*** %2, metadata !6417, metadata !DIExpression()), !dbg !6427
  %3 = alloca %"struct.std::__1::__compressed_pair_elem.5"*, align 8
  call void @llvm.dbg.declare(metadata %"struct.std::__1::__compressed_pair_elem.5"** %3, metadata !6451, metadata !DIExpression()), !dbg !6453
  %4 = alloca i8**, align 8
  call void @llvm.dbg.declare(metadata i8*** %4, metadata !6454, metadata !DIExpression()), !dbg !6455
  %5 = alloca %"class.std::__1::allocator.7"*, align 8
  call void @llvm.dbg.declare(metadata %"class.std::__1::allocator.7"** %5, metadata !6456, metadata !DIExpression()), !dbg !6459
  %6 = alloca %"struct.std::__1::__compressed_pair_elem.6"*, align 8
  call void @llvm.dbg.declare(metadata %"struct.std::__1::__compressed_pair_elem.6"** %6, metadata !6463, metadata !DIExpression()), !dbg !6465
  %7 = alloca i8**, align 8
  call void @llvm.dbg.declare(metadata i8*** %7, metadata !6417, metadata !DIExpression()), !dbg !6466
  %8 = alloca %"class.std::__1::__compressed_pair.4"*, align 8
  call void @llvm.dbg.declare(metadata %"class.std::__1::__compressed_pair.4"** %8, metadata !6468, metadata !DIExpression()), !dbg !6470
  %9 = alloca i8**, align 8
  call void @llvm.dbg.declare(metadata i8*** %9, metadata !6471, metadata !DIExpression()), !dbg !6472
  %10 = alloca %"class.std::__1::__compressed_pair.4"*, align 8
  call void @llvm.dbg.declare(metadata %"class.std::__1::__compressed_pair.4"** %10, metadata !6473, metadata !DIExpression()), !dbg !6474
  %11 = alloca i8**, align 8
  call void @llvm.dbg.declare(metadata i8*** %11, metadata !6475, metadata !DIExpression()), !dbg !6476
  %12 = alloca %"class.std::__1::__vector_base_common"*, align 8
  call void @llvm.dbg.declare(metadata %"class.std::__1::__vector_base_common"** %12, metadata !6477, metadata !DIExpression()), !dbg !6480
  %13 = alloca %"class.std::__1::__vector_base"*, align 8
  call void @llvm.dbg.declare(metadata %"class.std::__1::__vector_base"** %13, metadata !6482, metadata !DIExpression()), !dbg !6484
  %14 = alloca i8*, align 8
  %15 = alloca %"class.std::__1::vector"*, align 8
  call void @llvm.dbg.declare(metadata %"class.std::__1::vector"** %15, metadata !6485, metadata !DIExpression()), !dbg !6487
  %16 = alloca %"class.std::__1::vector"*, align 8
  call void @llvm.dbg.declare(metadata %"class.std::__1::vector"** %16, metadata !6488, metadata !DIExpression()), !dbg !6489
  %17 = alloca %"class.std::__1::__map_value_compare"*, align 8
  call void @llvm.dbg.declare(metadata %"class.std::__1::__map_value_compare"** %17, metadata !6490, metadata !DIExpression()), !dbg !6493
  %18 = alloca %"class.std::__1::__map_value_compare"*, align 8
  call void @llvm.dbg.declare(metadata %"class.std::__1::__map_value_compare"** %18, metadata !6501, metadata !DIExpression()), !dbg !6502
  %19 = alloca %"class.std::__1::map"*, align 8
  call void @llvm.dbg.declare(metadata %"class.std::__1::map"** %19, metadata !6503, metadata !DIExpression()), !dbg !6505
  %20 = alloca %"class.std::__1::__map_value_compare", align 1
  %21 = alloca %"struct.std::__1::less", align 1
  %22 = alloca %"class.std::__1::map"*, align 8
  call void @llvm.dbg.declare(metadata %"class.std::__1::map"** %22, metadata !6506, metadata !DIExpression()), !dbg !6507
  %23 = alloca %"class.altered_carbon::js::ACLexState"*, align 8
  store %"class.altered_carbon::js::ACLexState"* %0, %"class.altered_carbon::js::ACLexState"** %23, align 8
  call void @llvm.dbg.declare(metadata %"class.altered_carbon::js::ACLexState"** %23, metadata !6508, metadata !DIExpression()), !dbg !6510
  %24 = load %"class.altered_carbon::js::ACLexState"*, %"class.altered_carbon::js::ACLexState"** %23, align 8
  %25 = bitcast %"class.altered_carbon::js::ACLexState"* %24 to i32 (...)***, !dbg !6511
  store i32 (...)** bitcast (i8** getelementptr inbounds ({ [4 x i8*] }, { [4 x i8*] }* @_ZTVN14altered_carbon2js10ACLexStateE, i32 0, inrange i32 0, i32 2) to i32 (...)**), i32 (...)*** %25, align 8, !dbg !6511
  %26 = getelementptr inbounds %"class.altered_carbon::js::ACLexState", %"class.altered_carbon::js::ACLexState"* %24, i32 0, i32 2, !dbg !6512
  %27 = getelementptr inbounds %"class.altered_carbon::js::ACLexState", %"class.altered_carbon::js::ACLexState"* %24, i32 0, i32 5, !dbg !6512
  store %"class.std::__1::map"* %27, %"class.std::__1::map"** %22, align 8
  %28 = load %"class.std::__1::map"*, %"class.std::__1::map"** %22, align 8
  store %"class.std::__1::map"* %28, %"class.std::__1::map"** %19, align 8
  %29 = load %"class.std::__1::map"*, %"class.std::__1::map"** %19, align 8
  %30 = getelementptr inbounds %"class.std::__1::map", %"class.std::__1::map"* %29, i32 0, i32 0, !dbg !6513
  store %"class.std::__1::__map_value_compare"* %20, %"class.std::__1::__map_value_compare"** %18, align 8
  call void @llvm.dbg.declare(metadata !90, metadata !6514, metadata !DIExpression()) #2, !dbg !6515
  %31 = load %"class.std::__1::__map_value_compare"*, %"class.std::__1::__map_value_compare"** %18, align 8
  store %"class.std::__1::__map_value_compare"* %31, %"class.std::__1::__map_value_compare"** %17, align 8
  call void @llvm.dbg.declare(metadata !90, metadata !6516, metadata !DIExpression()) #2, !dbg !6517
  %32 = load %"class.std::__1::__map_value_compare"*, %"class.std::__1::__map_value_compare"** %17, align 8
  %33 = bitcast %"class.std::__1::__map_value_compare"* %32 to %"struct.std::__1::less"*, !dbg !6518
  call void @_ZNSt3__16__treeINS_12__value_typeINS_12basic_stringIwNS_11char_traitsIwEENS_9allocatorIwEEEEPN14altered_carbon2js13ACAstBaseNodeEEENS_19__map_value_compareIS7_SC_NS_4lessIS7_EELb1EEENS5_ISC_EEEC1ERKSG_(%"class.std::__1::__tree"* %30, %"class.std::__1::__map_value_compare"* dereferenceable(1) %20) #2, !dbg !6513
  %34 = getelementptr inbounds %"class.altered_carbon::js::ACLexState", %"class.altered_carbon::js::ACLexState"* %24, i32 0, i32 6, !dbg !6512
  store %"class.std::__1::vector"* %34, %"class.std::__1::vector"** %16, align 8
  %35 = load %"class.std::__1::vector"*, %"class.std::__1::vector"** %16, align 8
  store %"class.std::__1::vector"* %35, %"class.std::__1::vector"** %15, align 8
  %36 = load %"class.std::__1::vector"*, %"class.std::__1::vector"** %15, align 8
  %37 = bitcast %"class.std::__1::vector"* %36 to %"class.std::__1::__vector_base"*, !dbg !6519
  store %"class.std::__1::__vector_base"* %37, %"class.std::__1::__vector_base"** %13, align 8
  %38 = load %"class.std::__1::__vector_base"*, %"class.std::__1::__vector_base"** %13, align 8
  %39 = bitcast %"class.std::__1::__vector_base"* %38 to %"class.std::__1::__vector_base_common"*, !dbg !6520
  store %"class.std::__1::__vector_base_common"* %39, %"class.std::__1::__vector_base_common"** %12, align 8
  %40 = load %"class.std::__1::__vector_base_common"*, %"class.std::__1::__vector_base_common"** %12, align 8
  %41 = getelementptr inbounds %"class.std::__1::__vector_base", %"class.std::__1::__vector_base"* %38, i32 0, i32 0, !dbg !6521
  store i32* null, i32** %41, align 8, !dbg !6521
  %42 = getelementptr inbounds %"class.std::__1::__vector_base", %"class.std::__1::__vector_base"* %38, i32 0, i32 1, !dbg !6522
  store i32* null, i32** %42, align 8, !dbg !6522
  %43 = getelementptr inbounds %"class.std::__1::__vector_base", %"class.std::__1::__vector_base"* %38, i32 0, i32 2, !dbg !6523
  store i8* null, i8** %14, align 8, !dbg !6524
  store %"class.std::__1::__compressed_pair.4"* %43, %"class.std::__1::__compressed_pair.4"** %10, align 8
  store i8** %14, i8*** %11, align 8
  %44 = load %"class.std::__1::__compressed_pair.4"*, %"class.std::__1::__compressed_pair.4"** %10, align 8
  %45 = load i8**, i8*** %11, align 8, !dbg !6525
  store %"class.std::__1::__compressed_pair.4"* %44, %"class.std::__1::__compressed_pair.4"** %8, align 8
  store i8** %45, i8*** %9, align 8
  %46 = load %"class.std::__1::__compressed_pair.4"*, %"class.std::__1::__compressed_pair.4"** %8, align 8
  %47 = bitcast %"class.std::__1::__compressed_pair.4"* %46 to %"struct.std::__1::__compressed_pair_elem.5"*, !dbg !6526
  %48 = load i8**, i8*** %9, align 8, !dbg !6527
  store i8** %48, i8*** %7, align 8
  %49 = load i8**, i8*** %7, align 8, !dbg !6528
  store %"struct.std::__1::__compressed_pair_elem.5"* %47, %"struct.std::__1::__compressed_pair_elem.5"** %3, align 8
  store i8** %49, i8*** %4, align 8
  %50 = load %"struct.std::__1::__compressed_pair_elem.5"*, %"struct.std::__1::__compressed_pair_elem.5"** %3, align 8
  %51 = getelementptr inbounds %"struct.std::__1::__compressed_pair_elem.5", %"struct.std::__1::__compressed_pair_elem.5"* %50, i32 0, i32 0, !dbg !6529
  %52 = load i8**, i8*** %4, align 8, !dbg !6530
  store i8** %52, i8*** %2, align 8
  %53 = load i8**, i8*** %2, align 8, !dbg !6531
  %54 = load i8*, i8** %53, align 8, !dbg !6532
  store i32* null, i32** %51, align 8, !dbg !6529
  %55 = bitcast %"class.std::__1::__compressed_pair.4"* %46 to %"struct.std::__1::__compressed_pair_elem.6"*, !dbg !6526
  store %"struct.std::__1::__compressed_pair_elem.6"* %55, %"struct.std::__1::__compressed_pair_elem.6"** %6, align 8
  %56 = load %"struct.std::__1::__compressed_pair_elem.6"*, %"struct.std::__1::__compressed_pair_elem.6"** %6, align 8
  %57 = bitcast %"struct.std::__1::__compressed_pair_elem.6"* %56 to %"class.std::__1::allocator.7"*, !dbg !6533
  store %"class.std::__1::allocator.7"* %57, %"class.std::__1::allocator.7"** %5, align 8
  %58 = load %"class.std::__1::allocator.7"*, %"class.std::__1::allocator.7"** %5, align 8
  %59 = call zeroext i1 @_ZN14altered_carbon2js10ACLexState5resetEv(%"class.altered_carbon::js::ACLexState"* %24), !dbg !6534
  ret void, !dbg !6536
}

; Function Attrs: nounwind readnone speculatable
declare void @llvm.dbg.declare(metadata, metadata, metadata) #3

; Function Attrs: noinline nounwind optnone ssp uwtable
define zeroext i1 @_ZN14altered_carbon2js10ACLexState5resetEv(%"class.altered_carbon::js::ACLexState"*) #1 align 2 !dbg !6537 {
  %2 = alloca %"class.std::__1::map"*, align 8
  call void @llvm.dbg.declare(metadata %"class.std::__1::map"** %2, metadata !6538, metadata !DIExpression()), !dbg !6540
  %3 = alloca i32*, align 8
  call void @llvm.dbg.declare(metadata i32** %3, metadata !6542, metadata !DIExpression()), !dbg !6546
  %4 = alloca %"class.std::__1::allocator.7"*, align 8
  call void @llvm.dbg.declare(metadata %"class.std::__1::allocator.7"** %4, metadata !6554, metadata !DIExpression()), !dbg !6556
  %5 = alloca i32*, align 8
  call void @llvm.dbg.declare(metadata i32** %5, metadata !6568, metadata !DIExpression()), !dbg !6569
  %6 = alloca %"class.std::__1::allocator.7"*, align 8
  call void @llvm.dbg.declare(metadata %"class.std::__1::allocator.7"** %6, metadata !6570, metadata !DIExpression()), !dbg !6571
  %7 = alloca i32*, align 8
  call void @llvm.dbg.declare(metadata i32** %7, metadata !6572, metadata !DIExpression()), !dbg !6573
  %8 = alloca %"class.std::__1::allocator.7"*, align 8
  call void @llvm.dbg.declare(metadata %"class.std::__1::allocator.7"** %8, metadata !6574, metadata !DIExpression()), !dbg !6575
  %9 = alloca i32*, align 8
  call void @llvm.dbg.declare(metadata i32** %9, metadata !6576, metadata !DIExpression()), !dbg !6577
  %10 = alloca %"struct.std::__1::__has_destroy", align 1
  %11 = alloca %"struct.std::__1::__compressed_pair_elem.6"*, align 8
  call void @llvm.dbg.declare(metadata %"struct.std::__1::__compressed_pair_elem.6"** %11, metadata !6578, metadata !DIExpression()), !dbg !6580
  %12 = alloca %"class.std::__1::__compressed_pair.4"*, align 8
  call void @llvm.dbg.declare(metadata %"class.std::__1::__compressed_pair.4"** %12, metadata !6586, metadata !DIExpression()), !dbg !6587
  %13 = alloca %"class.std::__1::__vector_base"*, align 8
  call void @llvm.dbg.declare(metadata %"class.std::__1::__vector_base"** %13, metadata !6588, metadata !DIExpression()), !dbg !6589
  %14 = alloca %"class.std::__1::__vector_base"*, align 8
  call void @llvm.dbg.declare(metadata %"class.std::__1::__vector_base"** %14, metadata !6590, metadata !DIExpression()), !dbg !6591
  %15 = alloca i32*, align 8
  call void @llvm.dbg.declare(metadata i32** %15, metadata !6592, metadata !DIExpression()), !dbg !6593
  %16 = alloca i32*, align 8
  call void @llvm.dbg.declare(metadata i32** %16, metadata !6594, metadata !DIExpression()), !dbg !6595
  %17 = alloca %"class.std::__1::__vector_base"*, align 8
  call void @llvm.dbg.declare(metadata %"class.std::__1::__vector_base"** %17, metadata !6596, metadata !DIExpression()), !dbg !6597
  %18 = alloca i32*, align 8
  call void @llvm.dbg.declare(metadata i32** %18, metadata !6542, metadata !DIExpression()), !dbg !6598
  %19 = alloca %"class.std::__1::vector"*, align 8
  call void @llvm.dbg.declare(metadata %"class.std::__1::vector"** %19, metadata !6604, metadata !DIExpression()), !dbg !6606
  %20 = alloca %"struct.std::__1::__compressed_pair_elem.5"*, align 8
  call void @llvm.dbg.declare(metadata %"struct.std::__1::__compressed_pair_elem.5"** %20, metadata !6607, metadata !DIExpression()), !dbg !6610
  %21 = alloca %"class.std::__1::__compressed_pair.4"*, align 8
  call void @llvm.dbg.declare(metadata %"class.std::__1::__compressed_pair.4"** %21, metadata !6620, metadata !DIExpression()), !dbg !6622
  %22 = alloca %"class.std::__1::__vector_base"*, align 8
  call void @llvm.dbg.declare(metadata %"class.std::__1::__vector_base"** %22, metadata !6623, metadata !DIExpression()), !dbg !6625
  %23 = alloca %"class.std::__1::__vector_base"*, align 8
  call void @llvm.dbg.declare(metadata %"class.std::__1::__vector_base"** %23, metadata !6626, metadata !DIExpression()), !dbg !6627
  %24 = alloca %"class.std::__1::vector"*, align 8
  call void @llvm.dbg.declare(metadata %"class.std::__1::vector"** %24, metadata !6628, metadata !DIExpression()), !dbg !6629
  %25 = alloca i32*, align 8
  call void @llvm.dbg.declare(metadata i32** %25, metadata !6542, metadata !DIExpression()), !dbg !6630
  %26 = alloca %"class.std::__1::vector"*, align 8
  call void @llvm.dbg.declare(metadata %"class.std::__1::vector"** %26, metadata !6604, metadata !DIExpression()), !dbg !6633
  %27 = alloca i32*, align 8
  call void @llvm.dbg.declare(metadata i32** %27, metadata !6542, metadata !DIExpression()), !dbg !6634
  %28 = alloca %"class.std::__1::vector"*, align 8
  call void @llvm.dbg.declare(metadata %"class.std::__1::vector"** %28, metadata !6604, metadata !DIExpression()), !dbg !6637
  %29 = alloca %"class.std::__1::vector"*, align 8
  call void @llvm.dbg.declare(metadata %"class.std::__1::vector"** %29, metadata !6638, metadata !DIExpression()), !dbg !6640
  %30 = alloca %"class.std::__1::vector"*, align 8
  call void @llvm.dbg.declare(metadata %"class.std::__1::vector"** %30, metadata !6642, metadata !DIExpression()), !dbg !6644
  %31 = alloca i8*, align 8
  call void @llvm.dbg.declare(metadata i8** %31, metadata !6646, metadata !DIExpression()), !dbg !6647
  %32 = alloca i8*, align 8
  call void @llvm.dbg.declare(metadata i8** %32, metadata !6648, metadata !DIExpression()), !dbg !6649
  %33 = alloca i8*, align 8
  call void @llvm.dbg.declare(metadata i8** %33, metadata !6650, metadata !DIExpression()), !dbg !6651
  %34 = alloca i8*, align 8
  call void @llvm.dbg.declare(metadata i8** %34, metadata !6652, metadata !DIExpression()), !dbg !6653
  %35 = alloca i32*, align 8
  call void @llvm.dbg.declare(metadata i32** %35, metadata !6542, metadata !DIExpression()), !dbg !6654
  %36 = alloca %"class.std::__1::vector"*, align 8
  call void @llvm.dbg.declare(metadata %"class.std::__1::vector"** %36, metadata !6604, metadata !DIExpression()), !dbg !6657
  %37 = alloca %"class.std::__1::vector"*, align 8
  call void @llvm.dbg.declare(metadata %"class.std::__1::vector"** %37, metadata !6658, metadata !DIExpression()), !dbg !6659
  %38 = alloca i64, align 8
  call void @llvm.dbg.declare(metadata i64* %38, metadata !6660, metadata !DIExpression()), !dbg !6661
  %39 = alloca %"class.std::__1::vector"*, align 8
  call void @llvm.dbg.declare(metadata %"class.std::__1::vector"** %39, metadata !6662, metadata !DIExpression()), !dbg !6664
  %40 = alloca %"class.std::__1::vector"*, align 8
  call void @llvm.dbg.declare(metadata %"class.std::__1::vector"** %40, metadata !6638, metadata !DIExpression()), !dbg !6666
  %41 = alloca %"class.std::__1::vector"*, align 8
  call void @llvm.dbg.declare(metadata %"class.std::__1::vector"** %41, metadata !6668, metadata !DIExpression()), !dbg !6669
  %42 = alloca i64, align 8
  call void @llvm.dbg.declare(metadata i64* %42, metadata !6670, metadata !DIExpression()), !dbg !6671
  %43 = alloca %"class.altered_carbon::js::ACLexState"*, align 8
  store %"class.altered_carbon::js::ACLexState"* %0, %"class.altered_carbon::js::ACLexState"** %43, align 8
  call void @llvm.dbg.declare(metadata %"class.altered_carbon::js::ACLexState"** %43, metadata !6672, metadata !DIExpression()), !dbg !6673
  %44 = load %"class.altered_carbon::js::ACLexState"*, %"class.altered_carbon::js::ACLexState"** %43, align 8
  %45 = call zeroext i1 @_ZN14altered_carbon2js10ACLexState11reset_blockEv(%"class.altered_carbon::js::ACLexState"* %44), !dbg !6674
  %46 = getelementptr inbounds %"class.altered_carbon::js::ACLexState", %"class.altered_carbon::js::ACLexState"* %44, i32 0, i32 3, !dbg !6675
  store i8 1, i8* %46, align 1, !dbg !6676
  %47 = getelementptr inbounds %"class.altered_carbon::js::ACLexState", %"class.altered_carbon::js::ACLexState"* %44, i32 0, i32 4, !dbg !6677
  store i8 1, i8* %47, align 8, !dbg !6678
  %48 = getelementptr inbounds %"class.altered_carbon::js::ACLexState", %"class.altered_carbon::js::ACLexState"* %44, i32 0, i32 1, !dbg !6679
  store i32 -1, i32* %48, align 8, !dbg !6680
  %49 = getelementptr inbounds %"class.altered_carbon::js::ACLexState", %"class.altered_carbon::js::ACLexState"* %44, i32 0, i32 6, !dbg !6681
  store %"class.std::__1::vector"* %49, %"class.std::__1::vector"** %41, align 8
  %50 = load %"class.std::__1::vector"*, %"class.std::__1::vector"** %41, align 8
  store %"class.std::__1::vector"* %50, %"class.std::__1::vector"** %40, align 8
  %51 = load %"class.std::__1::vector"*, %"class.std::__1::vector"** %40, align 8
  %52 = bitcast %"class.std::__1::vector"* %51 to %"class.std::__1::__vector_base"*, !dbg !6682
  %53 = getelementptr inbounds %"class.std::__1::__vector_base", %"class.std::__1::__vector_base"* %52, i32 0, i32 1, !dbg !6682
  %54 = load i32*, i32** %53, align 8, !dbg !6682
  %55 = bitcast %"class.std::__1::vector"* %51 to %"class.std::__1::__vector_base"*, !dbg !6683
  %56 = getelementptr inbounds %"class.std::__1::__vector_base", %"class.std::__1::__vector_base"* %55, i32 0, i32 0, !dbg !6683
  %57 = load i32*, i32** %56, align 8, !dbg !6683
  %58 = ptrtoint i32* %54 to i64, !dbg !6684
  %59 = ptrtoint i32* %57 to i64, !dbg !6684
  %60 = sub i64 %58, %59, !dbg !6684
  %61 = sdiv exact i64 %60, 4, !dbg !6684
  store i64 %61, i64* %42, align 8, !dbg !6671
  %62 = bitcast %"class.std::__1::vector"* %50 to %"class.std::__1::__vector_base"*, !dbg !6685
  store %"class.std::__1::__vector_base"* %62, %"class.std::__1::__vector_base"** %17, align 8
  %63 = load %"class.std::__1::__vector_base"*, %"class.std::__1::__vector_base"** %17, align 8
  %64 = getelementptr inbounds %"class.std::__1::__vector_base", %"class.std::__1::__vector_base"* %63, i32 0, i32 0, !dbg !6686
  %65 = load i32*, i32** %64, align 8, !dbg !6686
  store %"class.std::__1::__vector_base"* %63, %"class.std::__1::__vector_base"** %14, align 8
  store i32* %65, i32** %15, align 8
  %66 = load %"class.std::__1::__vector_base"*, %"class.std::__1::__vector_base"** %14, align 8
  %67 = getelementptr inbounds %"class.std::__1::__vector_base", %"class.std::__1::__vector_base"* %66, i32 0, i32 1, !dbg !6687
  %68 = load i32*, i32** %67, align 8, !dbg !6687
  store i32* %68, i32** %16, align 8, !dbg !6595
  br label %69, !dbg !6688

; <label>:69:                                     ; preds = %73, %1
  %70 = load i32*, i32** %15, align 8, !dbg !6689
  %71 = load i32*, i32** %16, align 8, !dbg !6690
  %72 = icmp ne i32* %70, %71, !dbg !6691
  br i1 %72, label %73, label %89, !dbg !6688

; <label>:73:                                     ; preds = %69
  store %"class.std::__1::__vector_base"* %66, %"class.std::__1::__vector_base"** %13, align 8
  %74 = load %"class.std::__1::__vector_base"*, %"class.std::__1::__vector_base"** %13, align 8
  %75 = getelementptr inbounds %"class.std::__1::__vector_base", %"class.std::__1::__vector_base"* %74, i32 0, i32 2, !dbg !6692
  store %"class.std::__1::__compressed_pair.4"* %75, %"class.std::__1::__compressed_pair.4"** %12, align 8
  %76 = load %"class.std::__1::__compressed_pair.4"*, %"class.std::__1::__compressed_pair.4"** %12, align 8
  %77 = bitcast %"class.std::__1::__compressed_pair.4"* %76 to %"struct.std::__1::__compressed_pair_elem.6"*, !dbg !6693
  store %"struct.std::__1::__compressed_pair_elem.6"* %77, %"struct.std::__1::__compressed_pair_elem.6"** %11, align 8
  %78 = load %"struct.std::__1::__compressed_pair_elem.6"*, %"struct.std::__1::__compressed_pair_elem.6"** %11, align 8
  %79 = bitcast %"struct.std::__1::__compressed_pair_elem.6"* %78 to %"class.std::__1::allocator.7"*, !dbg !6694
  %80 = load i32*, i32** %16, align 8, !dbg !6695
  %81 = getelementptr inbounds i32, i32* %80, i32 -1, !dbg !6695
  store i32* %81, i32** %16, align 8, !dbg !6695
  store i32* %81, i32** %3, align 8
  %82 = load i32*, i32** %3, align 8, !dbg !6696
  store %"class.std::__1::allocator.7"* %79, %"class.std::__1::allocator.7"** %8, align 8
  store i32* %82, i32** %9, align 8
  %83 = bitcast %"struct.std::__1::__has_destroy"* %10 to %"struct.std::__1::integral_constant"*, !dbg !6697
  %84 = load %"class.std::__1::allocator.7"*, %"class.std::__1::allocator.7"** %8, align 8, !dbg !6698
  %85 = load i32*, i32** %9, align 8, !dbg !6699
  call void @llvm.dbg.declare(metadata !90, metadata !6700, metadata !DIExpression()), !dbg !6701
  store %"class.std::__1::allocator.7"* %84, %"class.std::__1::allocator.7"** %6, align 8
  store i32* %85, i32** %7, align 8
  %86 = load %"class.std::__1::allocator.7"*, %"class.std::__1::allocator.7"** %6, align 8, !dbg !6702
  %87 = load i32*, i32** %7, align 8, !dbg !6703
  store %"class.std::__1::allocator.7"* %86, %"class.std::__1::allocator.7"** %4, align 8
  store i32* %87, i32** %5, align 8
  %88 = load %"class.std::__1::allocator.7"*, %"class.std::__1::allocator.7"** %4, align 8
  br label %69, !dbg !6688, !llvm.loop !6704

; <label>:89:                                     ; preds = %69
  %90 = load i32*, i32** %15, align 8, !dbg !6707
  %91 = getelementptr inbounds %"class.std::__1::__vector_base", %"class.std::__1::__vector_base"* %66, i32 0, i32 1, !dbg !6708
  store i32* %90, i32** %91, align 8, !dbg !6709
  %92 = load i64, i64* %42, align 8, !dbg !6710
  store %"class.std::__1::vector"* %50, %"class.std::__1::vector"** %37, align 8
  store i64 %92, i64* %38, align 8
  %93 = load %"class.std::__1::vector"*, %"class.std::__1::vector"** %37, align 8
  store %"class.std::__1::vector"* %93, %"class.std::__1::vector"** %36, align 8
  %94 = load %"class.std::__1::vector"*, %"class.std::__1::vector"** %36, align 8
  %95 = bitcast %"class.std::__1::vector"* %94 to %"class.std::__1::__vector_base"*, !dbg !6711
  %96 = getelementptr inbounds %"class.std::__1::__vector_base", %"class.std::__1::__vector_base"* %95, i32 0, i32 0, !dbg !6711
  %97 = load i32*, i32** %96, align 8, !dbg !6711
  store i32* %97, i32** %35, align 8
  %98 = load i32*, i32** %35, align 8, !dbg !6712
  %99 = bitcast i32* %98 to i8*, !dbg !6713
  store %"class.std::__1::vector"* %93, %"class.std::__1::vector"** %19, align 8
  %100 = load %"class.std::__1::vector"*, %"class.std::__1::vector"** %19, align 8
  %101 = bitcast %"class.std::__1::vector"* %100 to %"class.std::__1::__vector_base"*, !dbg !6714
  %102 = getelementptr inbounds %"class.std::__1::__vector_base", %"class.std::__1::__vector_base"* %101, i32 0, i32 0, !dbg !6714
  %103 = load i32*, i32** %102, align 8, !dbg !6714
  store i32* %103, i32** %18, align 8
  %104 = load i32*, i32** %18, align 8, !dbg !6715
  store %"class.std::__1::vector"* %93, %"class.std::__1::vector"** %24, align 8
  %105 = load %"class.std::__1::vector"*, %"class.std::__1::vector"** %24, align 8
  %106 = bitcast %"class.std::__1::vector"* %105 to %"class.std::__1::__vector_base"*, !dbg !6716
  store %"class.std::__1::__vector_base"* %106, %"class.std::__1::__vector_base"** %23, align 8
  %107 = load %"class.std::__1::__vector_base"*, %"class.std::__1::__vector_base"** %23, align 8
  store %"class.std::__1::__vector_base"* %107, %"class.std::__1::__vector_base"** %22, align 8
  %108 = load %"class.std::__1::__vector_base"*, %"class.std::__1::__vector_base"** %22, align 8
  %109 = getelementptr inbounds %"class.std::__1::__vector_base", %"class.std::__1::__vector_base"* %108, i32 0, i32 2, !dbg !6717
  store %"class.std::__1::__compressed_pair.4"* %109, %"class.std::__1::__compressed_pair.4"** %21, align 8
  %110 = load %"class.std::__1::__compressed_pair.4"*, %"class.std::__1::__compressed_pair.4"** %21, align 8
  %111 = bitcast %"class.std::__1::__compressed_pair.4"* %110 to %"struct.std::__1::__compressed_pair_elem.5"*, !dbg !6718
  store %"struct.std::__1::__compressed_pair_elem.5"* %111, %"struct.std::__1::__compressed_pair_elem.5"** %20, align 8
  %112 = load %"struct.std::__1::__compressed_pair_elem.5"*, %"struct.std::__1::__compressed_pair_elem.5"** %20, align 8
  %113 = getelementptr inbounds %"struct.std::__1::__compressed_pair_elem.5", %"struct.std::__1::__compressed_pair_elem.5"* %112, i32 0, i32 0, !dbg !6719
  %114 = load i32*, i32** %113, align 8, !dbg !6720
  %115 = getelementptr inbounds %"class.std::__1::__vector_base", %"class.std::__1::__vector_base"* %107, i32 0, i32 0, !dbg !6721
  %116 = load i32*, i32** %115, align 8, !dbg !6721
  %117 = ptrtoint i32* %114 to i64, !dbg !6722
  %118 = ptrtoint i32* %116 to i64, !dbg !6722
  %119 = sub i64 %117, %118, !dbg !6722
  %120 = sdiv exact i64 %119, 4, !dbg !6722
  %121 = getelementptr inbounds i32, i32* %104, i64 %120, !dbg !6723
  %122 = bitcast i32* %121 to i8*, !dbg !6724
  store %"class.std::__1::vector"* %93, %"class.std::__1::vector"** %26, align 8
  %123 = load %"class.std::__1::vector"*, %"class.std::__1::vector"** %26, align 8
  %124 = bitcast %"class.std::__1::vector"* %123 to %"class.std::__1::__vector_base"*, !dbg !6725
  %125 = getelementptr inbounds %"class.std::__1::__vector_base", %"class.std::__1::__vector_base"* %124, i32 0, i32 0, !dbg !6725
  %126 = load i32*, i32** %125, align 8, !dbg !6725
  store i32* %126, i32** %25, align 8
  %127 = load i32*, i32** %25, align 8, !dbg !6726
  %128 = load i64, i64* %38, align 8, !dbg !6727
  %129 = getelementptr inbounds i32, i32* %127, i64 %128, !dbg !6728
  %130 = bitcast i32* %129 to i8*, !dbg !6729
  store %"class.std::__1::vector"* %93, %"class.std::__1::vector"** %28, align 8
  %131 = load %"class.std::__1::vector"*, %"class.std::__1::vector"** %28, align 8
  %132 = bitcast %"class.std::__1::vector"* %131 to %"class.std::__1::__vector_base"*, !dbg !6730
  %133 = getelementptr inbounds %"class.std::__1::__vector_base", %"class.std::__1::__vector_base"* %132, i32 0, i32 0, !dbg !6730
  %134 = load i32*, i32** %133, align 8, !dbg !6730
  store i32* %134, i32** %27, align 8
  %135 = load i32*, i32** %27, align 8, !dbg !6731
  store %"class.std::__1::vector"* %93, %"class.std::__1::vector"** %29, align 8
  %136 = load %"class.std::__1::vector"*, %"class.std::__1::vector"** %29, align 8
  %137 = bitcast %"class.std::__1::vector"* %136 to %"class.std::__1::__vector_base"*, !dbg !6732
  %138 = getelementptr inbounds %"class.std::__1::__vector_base", %"class.std::__1::__vector_base"* %137, i32 0, i32 1, !dbg !6732
  %139 = load i32*, i32** %138, align 8, !dbg !6732
  %140 = bitcast %"class.std::__1::vector"* %136 to %"class.std::__1::__vector_base"*, !dbg !6733
  %141 = getelementptr inbounds %"class.std::__1::__vector_base", %"class.std::__1::__vector_base"* %140, i32 0, i32 0, !dbg !6733
  %142 = load i32*, i32** %141, align 8, !dbg !6733
  %143 = ptrtoint i32* %139 to i64, !dbg !6734
  %144 = ptrtoint i32* %142 to i64, !dbg !6734
  %145 = sub i64 %143, %144, !dbg !6734
  %146 = sdiv exact i64 %145, 4, !dbg !6734
  %147 = getelementptr inbounds i32, i32* %135, i64 %146, !dbg !6735
  %148 = bitcast i32* %147 to i8*, !dbg !6736
  store %"class.std::__1::vector"* %93, %"class.std::__1::vector"** %30, align 8
  store i8* %99, i8** %31, align 8
  store i8* %122, i8** %32, align 8
  store i8* %130, i8** %33, align 8
  store i8* %148, i8** %34, align 8
  %149 = load %"class.std::__1::vector"*, %"class.std::__1::vector"** %30, align 8
  store %"class.std::__1::vector"* %50, %"class.std::__1::vector"** %39, align 8
  %150 = load %"class.std::__1::vector"*, %"class.std::__1::vector"** %39, align 8
  %151 = getelementptr inbounds %"class.altered_carbon::js::ACLexState", %"class.altered_carbon::js::ACLexState"* %44, i32 0, i32 5, !dbg !6737
  store %"class.std::__1::map"* %151, %"class.std::__1::map"** %2, align 8
  %152 = load %"class.std::__1::map"*, %"class.std::__1::map"** %2, align 8
  %153 = getelementptr inbounds %"class.std::__1::map", %"class.std::__1::map"* %152, i32 0, i32 0, !dbg !6738
  call void @_ZNSt3__16__treeINS_12__value_typeINS_12basic_stringIwNS_11char_traitsIwEENS_9allocatorIwEEEEPN14altered_carbon2js13ACAstBaseNodeEEENS_19__map_value_compareIS7_SC_NS_4lessIS7_EELb1EEENS5_ISC_EEE5clearEv(%"class.std::__1::__tree"* %153) #2, !dbg !6739
  ret i1 true, !dbg !6740
}

; Function Attrs: noinline nounwind optnone ssp uwtable
define void @_ZN14altered_carbon2js10ACLexStateC1Ev(%"class.altered_carbon::js::ACLexState"*) unnamed_addr #1 align 2 !dbg !6741 {
  %2 = alloca %"class.altered_carbon::js::ACLexState"*, align 8
  store %"class.altered_carbon::js::ACLexState"* %0, %"class.altered_carbon::js::ACLexState"** %2, align 8
  call void @llvm.dbg.declare(metadata %"class.altered_carbon::js::ACLexState"** %2, metadata !6742, metadata !DIExpression()), !dbg !6743
  %3 = load %"class.altered_carbon::js::ACLexState"*, %"class.altered_carbon::js::ACLexState"** %2, align 8
  call void @_ZN14altered_carbon2js10ACLexStateC2Ev(%"class.altered_carbon::js::ACLexState"* %3), !dbg !6744
  ret void, !dbg !6745
}

; Function Attrs: noinline nounwind optnone ssp uwtable
define zeroext i1 @_ZN14altered_carbon2js10ACLexState11reset_blockEv(%"class.altered_carbon::js::ACLexState"*) #1 align 2 !dbg !6746 {
  %2 = alloca %"class.altered_carbon::js::ACLexState"*, align 8
  store %"class.altered_carbon::js::ACLexState"* %0, %"class.altered_carbon::js::ACLexState"** %2, align 8
  call void @llvm.dbg.declare(metadata %"class.altered_carbon::js::ACLexState"** %2, metadata !6747, metadata !DIExpression()), !dbg !6748
  %3 = load %"class.altered_carbon::js::ACLexState"*, %"class.altered_carbon::js::ACLexState"** %2, align 8
  %4 = getelementptr inbounds %"class.altered_carbon::js::ACLexState", %"class.altered_carbon::js::ACLexState"* %3, i32 0, i32 2, !dbg !6749
  %5 = getelementptr inbounds %"struct.altered_carbon::js::BlockLevelState", %"struct.altered_carbon::js::BlockLevelState"* %4, i32 0, i32 0, !dbg !6750
  store i8 0, i8* %5, align 4, !dbg !6751
  %6 = getelementptr inbounds %"class.altered_carbon::js::ACLexState", %"class.altered_carbon::js::ACLexState"* %3, i32 0, i32 2, !dbg !6752
  %7 = getelementptr inbounds %"struct.altered_carbon::js::BlockLevelState", %"struct.altered_carbon::js::BlockLevelState"* %6, i32 0, i32 1, !dbg !6753
  store i8 0, i8* %7, align 1, !dbg !6754
  %8 = getelementptr inbounds %"class.altered_carbon::js::ACLexState", %"class.altered_carbon::js::ACLexState"* %3, i32 0, i32 2, !dbg !6755
  %9 = getelementptr inbounds %"struct.altered_carbon::js::BlockLevelState", %"struct.altered_carbon::js::BlockLevelState"* %8, i32 0, i32 2, !dbg !6756
  store i8 0, i8* %9, align 2, !dbg !6757
  ret i1 true, !dbg !6758
}

; Function Attrs: noinline nounwind optnone ssp uwtable
define zeroext i1 @_ZN14altered_carbon2js10ACLexState12blockControlEb(%"class.altered_carbon::js::ACLexState"*, i1 zeroext) #1 align 2 !dbg !6759 {
  %3 = alloca %"class.std::__1::vector"*, align 8
  call void @llvm.dbg.declare(metadata %"class.std::__1::vector"** %3, metadata !6638, metadata !DIExpression()), !dbg !6760
  %4 = alloca i32*, align 8
  call void @llvm.dbg.declare(metadata i32** %4, metadata !6542, metadata !DIExpression()), !dbg !6769
  %5 = alloca %"class.std::__1::allocator.7"*, align 8
  call void @llvm.dbg.declare(metadata %"class.std::__1::allocator.7"** %5, metadata !6554, metadata !DIExpression()), !dbg !6772
  %6 = alloca i32*, align 8
  call void @llvm.dbg.declare(metadata i32** %6, metadata !6568, metadata !DIExpression()), !dbg !6776
  %7 = alloca %"class.std::__1::allocator.7"*, align 8
  call void @llvm.dbg.declare(metadata %"class.std::__1::allocator.7"** %7, metadata !6570, metadata !DIExpression()), !dbg !6777
  %8 = alloca i32*, align 8
  call void @llvm.dbg.declare(metadata i32** %8, metadata !6572, metadata !DIExpression()), !dbg !6778
  %9 = alloca %"class.std::__1::allocator.7"*, align 8
  call void @llvm.dbg.declare(metadata %"class.std::__1::allocator.7"** %9, metadata !6574, metadata !DIExpression()), !dbg !6779
  %10 = alloca i32*, align 8
  call void @llvm.dbg.declare(metadata i32** %10, metadata !6576, metadata !DIExpression()), !dbg !6780
  %11 = alloca %"struct.std::__1::__has_destroy", align 1
  %12 = alloca %"struct.std::__1::__compressed_pair_elem.6"*, align 8
  call void @llvm.dbg.declare(metadata %"struct.std::__1::__compressed_pair_elem.6"** %12, metadata !6578, metadata !DIExpression()), !dbg !6781
  %13 = alloca %"class.std::__1::__compressed_pair.4"*, align 8
  call void @llvm.dbg.declare(metadata %"class.std::__1::__compressed_pair.4"** %13, metadata !6586, metadata !DIExpression()), !dbg !6785
  %14 = alloca %"class.std::__1::__vector_base"*, align 8
  call void @llvm.dbg.declare(metadata %"class.std::__1::__vector_base"** %14, metadata !6588, metadata !DIExpression()), !dbg !6786
  %15 = alloca %"class.std::__1::__vector_base"*, align 8
  call void @llvm.dbg.declare(metadata %"class.std::__1::__vector_base"** %15, metadata !6590, metadata !DIExpression()), !dbg !6787
  %16 = alloca i32*, align 8
  call void @llvm.dbg.declare(metadata i32** %16, metadata !6592, metadata !DIExpression()), !dbg !6788
  %17 = alloca i32*, align 8
  call void @llvm.dbg.declare(metadata i32** %17, metadata !6594, metadata !DIExpression()), !dbg !6789
  %18 = alloca i32*, align 8
  call void @llvm.dbg.declare(metadata i32** %18, metadata !6542, metadata !DIExpression()), !dbg !6790
  %19 = alloca %"class.std::__1::vector"*, align 8
  call void @llvm.dbg.declare(metadata %"class.std::__1::vector"** %19, metadata !6604, metadata !DIExpression()), !dbg !6794
  %20 = alloca %"struct.std::__1::__compressed_pair_elem.5"*, align 8
  call void @llvm.dbg.declare(metadata %"struct.std::__1::__compressed_pair_elem.5"** %20, metadata !6607, metadata !DIExpression()), !dbg !6795
  %21 = alloca %"class.std::__1::__compressed_pair.4"*, align 8
  call void @llvm.dbg.declare(metadata %"class.std::__1::__compressed_pair.4"** %21, metadata !6620, metadata !DIExpression()), !dbg !6801
  %22 = alloca %"class.std::__1::__vector_base"*, align 8
  call void @llvm.dbg.declare(metadata %"class.std::__1::__vector_base"** %22, metadata !6623, metadata !DIExpression()), !dbg !6802
  %23 = alloca %"class.std::__1::__vector_base"*, align 8
  call void @llvm.dbg.declare(metadata %"class.std::__1::__vector_base"** %23, metadata !6626, metadata !DIExpression()), !dbg !6803
  %24 = alloca %"class.std::__1::vector"*, align 8
  call void @llvm.dbg.declare(metadata %"class.std::__1::vector"** %24, metadata !6628, metadata !DIExpression()), !dbg !6804
  %25 = alloca i32*, align 8
  call void @llvm.dbg.declare(metadata i32** %25, metadata !6542, metadata !DIExpression()), !dbg !6805
  %26 = alloca %"class.std::__1::vector"*, align 8
  call void @llvm.dbg.declare(metadata %"class.std::__1::vector"** %26, metadata !6604, metadata !DIExpression()), !dbg !6808
  %27 = alloca i32*, align 8
  call void @llvm.dbg.declare(metadata i32** %27, metadata !6542, metadata !DIExpression()), !dbg !6809
  %28 = alloca %"class.std::__1::vector"*, align 8
  call void @llvm.dbg.declare(metadata %"class.std::__1::vector"** %28, metadata !6604, metadata !DIExpression()), !dbg !6812
  %29 = alloca %"class.std::__1::vector"*, align 8
  call void @llvm.dbg.declare(metadata %"class.std::__1::vector"** %29, metadata !6638, metadata !DIExpression()), !dbg !6813
  %30 = alloca %"class.std::__1::vector"*, align 8
  call void @llvm.dbg.declare(metadata %"class.std::__1::vector"** %30, metadata !6642, metadata !DIExpression()), !dbg !6815
  %31 = alloca i8*, align 8
  call void @llvm.dbg.declare(metadata i8** %31, metadata !6646, metadata !DIExpression()), !dbg !6817
  %32 = alloca i8*, align 8
  call void @llvm.dbg.declare(metadata i8** %32, metadata !6648, metadata !DIExpression()), !dbg !6818
  %33 = alloca i8*, align 8
  call void @llvm.dbg.declare(metadata i8** %33, metadata !6650, metadata !DIExpression()), !dbg !6819
  %34 = alloca i8*, align 8
  call void @llvm.dbg.declare(metadata i8** %34, metadata !6652, metadata !DIExpression()), !dbg !6820
  %35 = alloca i32*, align 8
  call void @llvm.dbg.declare(metadata i32** %35, metadata !6542, metadata !DIExpression()), !dbg !6821
  %36 = alloca %"class.std::__1::vector"*, align 8
  call void @llvm.dbg.declare(metadata %"class.std::__1::vector"** %36, metadata !6604, metadata !DIExpression()), !dbg !6824
  %37 = alloca %"class.std::__1::vector"*, align 8
  call void @llvm.dbg.declare(metadata %"class.std::__1::vector"** %37, metadata !6658, metadata !DIExpression()), !dbg !6825
  %38 = alloca i64, align 8
  call void @llvm.dbg.declare(metadata i64* %38, metadata !6660, metadata !DIExpression()), !dbg !6826
  %39 = alloca %"class.std::__1::vector"*, align 8
  call void @llvm.dbg.declare(metadata %"class.std::__1::vector"** %39, metadata !6827, metadata !DIExpression()), !dbg !6829
  %40 = alloca i32*, align 8
  call void @llvm.dbg.declare(metadata i32** %40, metadata !6831, metadata !DIExpression()), !dbg !6832
  %41 = alloca %"class.std::__1::vector"*, align 8
  call void @llvm.dbg.declare(metadata %"class.std::__1::vector"** %41, metadata !6833, metadata !DIExpression()), !dbg !6834
  %42 = alloca i32*, align 8
  call void @llvm.dbg.declare(metadata i32** %42, metadata !6835, metadata !DIExpression()), !dbg !6836
  %43 = alloca i64, align 8
  call void @llvm.dbg.declare(metadata i64* %43, metadata !6837, metadata !DIExpression()), !dbg !6838
  %44 = alloca %"class.std::__1::vector"*, align 8
  call void @llvm.dbg.declare(metadata %"class.std::__1::vector"** %44, metadata !6839, metadata !DIExpression()), !dbg !6840
  %45 = alloca %"class.std::__1::vector"*, align 8
  call void @llvm.dbg.declare(metadata %"class.std::__1::vector"** %45, metadata !6841, metadata !DIExpression()), !dbg !6843
  %46 = alloca %"struct.std::__1::__compressed_pair_elem.6"*, align 8
  call void @llvm.dbg.declare(metadata %"struct.std::__1::__compressed_pair_elem.6"** %46, metadata !6578, metadata !DIExpression()), !dbg !6845
  %47 = alloca %"class.std::__1::__compressed_pair.4"*, align 8
  call void @llvm.dbg.declare(metadata %"class.std::__1::__compressed_pair.4"** %47, metadata !6586, metadata !DIExpression()), !dbg !6854
  %48 = alloca %"class.std::__1::__vector_base"*, align 8
  call void @llvm.dbg.declare(metadata %"class.std::__1::__vector_base"** %48, metadata !6588, metadata !DIExpression()), !dbg !6855
  %49 = alloca i32*, align 8
  call void @llvm.dbg.declare(metadata i32** %49, metadata !6542, metadata !DIExpression()), !dbg !6856
  %50 = alloca i32*, align 8
  call void @llvm.dbg.declare(metadata i32** %50, metadata !6858, metadata !DIExpression()), !dbg !6867
  %51 = alloca i32*, align 8
  call void @llvm.dbg.declare(metadata i32** %51, metadata !6869, metadata !DIExpression()), !dbg !6877
  %52 = alloca %"class.std::__1::allocator.7"*, align 8
  call void @llvm.dbg.declare(metadata %"class.std::__1::allocator.7"** %52, metadata !6900, metadata !DIExpression()), !dbg !6901
  %53 = alloca i32*, align 8
  call void @llvm.dbg.declare(metadata i32** %53, metadata !6902, metadata !DIExpression()), !dbg !6903
  %54 = alloca i32*, align 8
  call void @llvm.dbg.declare(metadata i32** %54, metadata !6904, metadata !DIExpression()), !dbg !6905
  %55 = alloca i32*, align 8
  call void @llvm.dbg.declare(metadata i32** %55, metadata !6869, metadata !DIExpression()), !dbg !6906
  %56 = alloca %"class.std::__1::allocator.7"*, align 8
  call void @llvm.dbg.declare(metadata %"class.std::__1::allocator.7"** %56, metadata !6908, metadata !DIExpression()), !dbg !6909
  %57 = alloca i32*, align 8
  call void @llvm.dbg.declare(metadata i32** %57, metadata !6910, metadata !DIExpression()), !dbg !6911
  %58 = alloca i32*, align 8
  call void @llvm.dbg.declare(metadata i32** %58, metadata !6912, metadata !DIExpression()), !dbg !6913
  %59 = alloca i32*, align 8
  call void @llvm.dbg.declare(metadata i32** %59, metadata !6869, metadata !DIExpression()), !dbg !6914
  %60 = alloca %"class.std::__1::allocator.7"*, align 8
  call void @llvm.dbg.declare(metadata %"class.std::__1::allocator.7"** %60, metadata !6916, metadata !DIExpression()), !dbg !6917
  %61 = alloca i32*, align 8
  call void @llvm.dbg.declare(metadata i32** %61, metadata !6918, metadata !DIExpression()), !dbg !6919
  %62 = alloca i32*, align 8
  call void @llvm.dbg.declare(metadata i32** %62, metadata !6920, metadata !DIExpression()), !dbg !6921
  %63 = alloca %"struct.std::__1::__has_construct", align 1
  %64 = alloca %"struct.std::__1::vector<altered_carbon::js::ACLexTokenType, std::__1::allocator<altered_carbon::js::ACLexTokenType> >::__RAII_IncreaseAnnotator"*, align 8
  call void @llvm.dbg.declare(metadata %"struct.std::__1::vector<altered_carbon::js::ACLexTokenType, std::__1::allocator<altered_carbon::js::ACLexTokenType> >::__RAII_IncreaseAnnotator"** %64, metadata !6922, metadata !DIExpression()), !dbg !6934
  %65 = alloca i32*, align 8
  call void @llvm.dbg.declare(metadata i32** %65, metadata !6858, metadata !DIExpression()), !dbg !6936
  %66 = alloca %"struct.std::__1::vector<altered_carbon::js::ACLexTokenType, std::__1::allocator<altered_carbon::js::ACLexTokenType> >::__RAII_IncreaseAnnotator"*, align 8
  call void @llvm.dbg.declare(metadata %"struct.std::__1::vector<altered_carbon::js::ACLexTokenType, std::__1::allocator<altered_carbon::js::ACLexTokenType> >::__RAII_IncreaseAnnotator"** %66, metadata !6938, metadata !DIExpression()), !dbg !6940
  %67 = alloca %"class.std::__1::vector"*, align 8
  call void @llvm.dbg.declare(metadata %"class.std::__1::vector"** %67, metadata !6944, metadata !DIExpression()), !dbg !6945
  %68 = alloca i64, align 8
  call void @llvm.dbg.declare(metadata i64* %68, metadata !6946, metadata !DIExpression()), !dbg !6947
  %69 = alloca %"struct.std::__1::vector<altered_carbon::js::ACLexTokenType, std::__1::allocator<altered_carbon::js::ACLexTokenType> >::__RAII_IncreaseAnnotator"*, align 8
  call void @llvm.dbg.declare(metadata %"struct.std::__1::vector<altered_carbon::js::ACLexTokenType, std::__1::allocator<altered_carbon::js::ACLexTokenType> >::__RAII_IncreaseAnnotator"** %69, metadata !6948, metadata !DIExpression()), !dbg !6949
  %70 = alloca %"class.std::__1::vector"*, align 8
  call void @llvm.dbg.declare(metadata %"class.std::__1::vector"** %70, metadata !6950, metadata !DIExpression()), !dbg !6951
  %71 = alloca i64, align 8
  call void @llvm.dbg.declare(metadata i64* %71, metadata !6952, metadata !DIExpression()), !dbg !6953
  %72 = alloca %"struct.std::__1::__compressed_pair_elem.5"*, align 8
  call void @llvm.dbg.declare(metadata %"struct.std::__1::__compressed_pair_elem.5"** %72, metadata !6954, metadata !DIExpression()), !dbg !6956
  %73 = alloca %"class.std::__1::__compressed_pair.4"*, align 8
  call void @llvm.dbg.declare(metadata %"class.std::__1::__compressed_pair.4"** %73, metadata !6962, metadata !DIExpression()), !dbg !6963
  %74 = alloca %"class.std::__1::__vector_base"*, align 8
  call void @llvm.dbg.declare(metadata %"class.std::__1::__vector_base"** %74, metadata !6964, metadata !DIExpression()), !dbg !6965
  %75 = alloca %"class.std::__1::vector"*, align 8
  call void @llvm.dbg.declare(metadata %"class.std::__1::vector"** %75, metadata !6966, metadata !DIExpression()), !dbg !6967
  %76 = alloca i32*, align 8
  call void @llvm.dbg.declare(metadata i32** %76, metadata !6968, metadata !DIExpression()), !dbg !6969
  %77 = alloca %"struct.std::__1::vector<altered_carbon::js::ACLexTokenType, std::__1::allocator<altered_carbon::js::ACLexTokenType> >::__RAII_IncreaseAnnotator", align 1
  call void @llvm.dbg.declare(metadata %"struct.std::__1::vector<altered_carbon::js::ACLexTokenType, std::__1::allocator<altered_carbon::js::ACLexTokenType> >::__RAII_IncreaseAnnotator"* %77, metadata !6970, metadata !DIExpression()), !dbg !6971
  %78 = alloca i1, align 1
  %79 = alloca %"class.altered_carbon::js::ACLexState"*, align 8
  %80 = alloca i8, align 1
  %81 = alloca i32, align 4
  store %"class.altered_carbon::js::ACLexState"* %0, %"class.altered_carbon::js::ACLexState"** %79, align 8
  call void @llvm.dbg.declare(metadata %"class.altered_carbon::js::ACLexState"** %79, metadata !6972, metadata !DIExpression()), !dbg !6973
  %82 = zext i1 %1 to i8
  store i8 %82, i8* %80, align 1
  call void @llvm.dbg.declare(metadata i8* %80, metadata !6974, metadata !DIExpression()), !dbg !6975
  %83 = load %"class.altered_carbon::js::ACLexState"*, %"class.altered_carbon::js::ACLexState"** %79, align 8
  %84 = load i8, i8* %80, align 1, !dbg !6976
  %85 = trunc i8 %84 to i1, !dbg !6976
  br i1 %85, label %86, label %143, !dbg !6977

; <label>:86:                                     ; preds = %2
  %87 = getelementptr inbounds %"class.altered_carbon::js::ACLexState", %"class.altered_carbon::js::ACLexState"* %83, i32 0, i32 6, !dbg !6978
  store i32 17, i32* %81, align 4, !dbg !6979
  store %"class.std::__1::vector"* %87, %"class.std::__1::vector"** %75, align 8
  store i32* %81, i32** %76, align 8
  %88 = load %"class.std::__1::vector"*, %"class.std::__1::vector"** %75, align 8
  %89 = bitcast %"class.std::__1::vector"* %88 to %"class.std::__1::__vector_base"*, !dbg !6980
  %90 = getelementptr inbounds %"class.std::__1::__vector_base", %"class.std::__1::__vector_base"* %89, i32 0, i32 1, !dbg !6980
  %91 = load i32*, i32** %90, align 8, !dbg !6980
  %92 = bitcast %"class.std::__1::vector"* %88 to %"class.std::__1::__vector_base"*, !dbg !6981
  store %"class.std::__1::__vector_base"* %92, %"class.std::__1::__vector_base"** %74, align 8
  %93 = load %"class.std::__1::__vector_base"*, %"class.std::__1::__vector_base"** %74, align 8
  %94 = getelementptr inbounds %"class.std::__1::__vector_base", %"class.std::__1::__vector_base"* %93, i32 0, i32 2, !dbg !6982
  store %"class.std::__1::__compressed_pair.4"* %94, %"class.std::__1::__compressed_pair.4"** %73, align 8
  %95 = load %"class.std::__1::__compressed_pair.4"*, %"class.std::__1::__compressed_pair.4"** %73, align 8
  %96 = bitcast %"class.std::__1::__compressed_pair.4"* %95 to %"struct.std::__1::__compressed_pair_elem.5"*, !dbg !6983
  store %"struct.std::__1::__compressed_pair_elem.5"* %96, %"struct.std::__1::__compressed_pair_elem.5"** %72, align 8
  %97 = load %"struct.std::__1::__compressed_pair_elem.5"*, %"struct.std::__1::__compressed_pair_elem.5"** %72, align 8
  %98 = getelementptr inbounds %"struct.std::__1::__compressed_pair_elem.5", %"struct.std::__1::__compressed_pair_elem.5"* %97, i32 0, i32 0, !dbg !6984
  %99 = load i32*, i32** %98, align 8, !dbg !6981
  %100 = icmp ult i32* %91, %99, !dbg !6985
  br i1 %100, label %101, label %139, !dbg !6986

; <label>:101:                                    ; preds = %86
  store %"struct.std::__1::vector<altered_carbon::js::ACLexTokenType, std::__1::allocator<altered_carbon::js::ACLexTokenType> >::__RAII_IncreaseAnnotator"* %77, %"struct.std::__1::vector<altered_carbon::js::ACLexTokenType, std::__1::allocator<altered_carbon::js::ACLexTokenType> >::__RAII_IncreaseAnnotator"** %69, align 8
  store %"class.std::__1::vector"* %88, %"class.std::__1::vector"** %70, align 8
  store i64 1, i64* %71, align 8
  %102 = load %"struct.std::__1::vector<altered_carbon::js::ACLexTokenType, std::__1::allocator<altered_carbon::js::ACLexTokenType> >::__RAII_IncreaseAnnotator"*, %"struct.std::__1::vector<altered_carbon::js::ACLexTokenType, std::__1::allocator<altered_carbon::js::ACLexTokenType> >::__RAII_IncreaseAnnotator"** %69, align 8
  %103 = load %"class.std::__1::vector"*, %"class.std::__1::vector"** %70, align 8, !dbg !6987
  %104 = load i64, i64* %71, align 8, !dbg !6987
  store %"struct.std::__1::vector<altered_carbon::js::ACLexTokenType, std::__1::allocator<altered_carbon::js::ACLexTokenType> >::__RAII_IncreaseAnnotator"* %102, %"struct.std::__1::vector<altered_carbon::js::ACLexTokenType, std::__1::allocator<altered_carbon::js::ACLexTokenType> >::__RAII_IncreaseAnnotator"** %66, align 8
  store %"class.std::__1::vector"* %103, %"class.std::__1::vector"** %67, align 8
  store i64 %104, i64* %68, align 8
  %105 = load %"struct.std::__1::vector<altered_carbon::js::ACLexTokenType, std::__1::allocator<altered_carbon::js::ACLexTokenType> >::__RAII_IncreaseAnnotator"*, %"struct.std::__1::vector<altered_carbon::js::ACLexTokenType, std::__1::allocator<altered_carbon::js::ACLexTokenType> >::__RAII_IncreaseAnnotator"** %66, align 8
  %106 = bitcast %"class.std::__1::vector"* %88 to %"class.std::__1::__vector_base"*, !dbg !6988
  store %"class.std::__1::__vector_base"* %106, %"class.std::__1::__vector_base"** %48, align 8
  %107 = load %"class.std::__1::__vector_base"*, %"class.std::__1::__vector_base"** %48, align 8
  %108 = getelementptr inbounds %"class.std::__1::__vector_base", %"class.std::__1::__vector_base"* %107, i32 0, i32 2, !dbg !6989
  store %"class.std::__1::__compressed_pair.4"* %108, %"class.std::__1::__compressed_pair.4"** %47, align 8
  %109 = load %"class.std::__1::__compressed_pair.4"*, %"class.std::__1::__compressed_pair.4"** %47, align 8
  %110 = bitcast %"class.std::__1::__compressed_pair.4"* %109 to %"struct.std::__1::__compressed_pair_elem.6"*, !dbg !6990
  store %"struct.std::__1::__compressed_pair_elem.6"* %110, %"struct.std::__1::__compressed_pair_elem.6"** %46, align 8
  %111 = load %"struct.std::__1::__compressed_pair_elem.6"*, %"struct.std::__1::__compressed_pair_elem.6"** %46, align 8
  %112 = bitcast %"struct.std::__1::__compressed_pair_elem.6"* %111 to %"class.std::__1::allocator.7"*, !dbg !6991
  %113 = bitcast %"class.std::__1::vector"* %88 to %"class.std::__1::__vector_base"*, !dbg !6992
  %114 = getelementptr inbounds %"class.std::__1::__vector_base", %"class.std::__1::__vector_base"* %113, i32 0, i32 1, !dbg !6992
  %115 = load i32*, i32** %114, align 8, !dbg !6992
  store i32* %115, i32** %49, align 8
  %116 = load i32*, i32** %49, align 8, !dbg !6993
  %117 = load i32*, i32** %76, align 8, !dbg !6994
  store i32* %117, i32** %50, align 8
  %118 = load i32*, i32** %50, align 8, !dbg !6995
  store %"class.std::__1::allocator.7"* %112, %"class.std::__1::allocator.7"** %60, align 8
  store i32* %116, i32** %61, align 8
  store i32* %118, i32** %62, align 8
  %119 = bitcast %"struct.std::__1::__has_construct"* %63 to %"struct.std::__1::integral_constant"*, !dbg !6996
  %120 = load %"class.std::__1::allocator.7"*, %"class.std::__1::allocator.7"** %60, align 8, !dbg !6997
  %121 = load i32*, i32** %61, align 8, !dbg !6998
  %122 = load i32*, i32** %62, align 8, !dbg !6999
  store i32* %122, i32** %59, align 8
  %123 = load i32*, i32** %59, align 8, !dbg !7000
  call void @llvm.dbg.declare(metadata !90, metadata !7001, metadata !DIExpression()) #2, !dbg !7002
  store %"class.std::__1::allocator.7"* %120, %"class.std::__1::allocator.7"** %56, align 8
  store i32* %121, i32** %57, align 8
  store i32* %123, i32** %58, align 8
  %124 = load %"class.std::__1::allocator.7"*, %"class.std::__1::allocator.7"** %56, align 8, !dbg !7003
  %125 = load i32*, i32** %57, align 8, !dbg !7004
  %126 = load i32*, i32** %58, align 8, !dbg !7005
  store i32* %126, i32** %55, align 8
  %127 = load i32*, i32** %55, align 8, !dbg !7006
  store %"class.std::__1::allocator.7"* %124, %"class.std::__1::allocator.7"** %52, align 8
  store i32* %125, i32** %53, align 8
  store i32* %127, i32** %54, align 8
  %128 = load %"class.std::__1::allocator.7"*, %"class.std::__1::allocator.7"** %52, align 8
  %129 = load i32*, i32** %53, align 8, !dbg !7007
  %130 = bitcast i32* %129 to i8*, !dbg !7007
  %131 = load i32*, i32** %54, align 8, !dbg !7008
  store i32* %131, i32** %51, align 8
  %132 = load i32*, i32** %51, align 8, !dbg !7009
  %133 = load i32, i32* %132, align 4, !dbg !7010
  store i32 %133, i32* %129, align 4, !dbg !7011
  store %"struct.std::__1::vector<altered_carbon::js::ACLexTokenType, std::__1::allocator<altered_carbon::js::ACLexTokenType> >::__RAII_IncreaseAnnotator"* %77, %"struct.std::__1::vector<altered_carbon::js::ACLexTokenType, std::__1::allocator<altered_carbon::js::ACLexTokenType> >::__RAII_IncreaseAnnotator"** %64, align 8
  %134 = load %"struct.std::__1::vector<altered_carbon::js::ACLexTokenType, std::__1::allocator<altered_carbon::js::ACLexTokenType> >::__RAII_IncreaseAnnotator"*, %"struct.std::__1::vector<altered_carbon::js::ACLexTokenType, std::__1::allocator<altered_carbon::js::ACLexTokenType> >::__RAII_IncreaseAnnotator"** %64, align 8
  %135 = bitcast %"class.std::__1::vector"* %88 to %"class.std::__1::__vector_base"*, !dbg !7012
  %136 = getelementptr inbounds %"class.std::__1::__vector_base", %"class.std::__1::__vector_base"* %135, i32 0, i32 1, !dbg !7012
  %137 = load i32*, i32** %136, align 8, !dbg !7013
  %138 = getelementptr inbounds i32, i32* %137, i32 1, !dbg !7013
  store i32* %138, i32** %136, align 8, !dbg !7013
  br label %142, !dbg !7014

; <label>:139:                                    ; preds = %86
  %140 = load i32*, i32** %76, align 8, !dbg !7015
  store i32* %140, i32** %65, align 8
  %141 = load i32*, i32** %65, align 8, !dbg !7016
  call void @_ZNSt3__16vectorIN14altered_carbon2js14ACLexTokenTypeENS_9allocatorIS3_EEE21__push_back_slow_pathIS3_EEvOT_(%"class.std::__1::vector"* %88, i32* dereferenceable(4) %141) #2, !dbg !7017
  br label %142

; <label>:142:                                    ; preds = %101, %139
  br label %262, !dbg !7018

; <label>:143:                                    ; preds = %2
  %144 = getelementptr inbounds %"class.altered_carbon::js::ACLexState", %"class.altered_carbon::js::ACLexState"* %83, i32 0, i32 6, !dbg !7019
  store %"class.std::__1::vector"* %144, %"class.std::__1::vector"** %45, align 8
  %145 = load %"class.std::__1::vector"*, %"class.std::__1::vector"** %45, align 8
  %146 = bitcast %"class.std::__1::vector"* %145 to %"class.std::__1::__vector_base"*, !dbg !7020
  %147 = getelementptr inbounds %"class.std::__1::__vector_base", %"class.std::__1::__vector_base"* %146, i32 0, i32 0, !dbg !7020
  %148 = load i32*, i32** %147, align 8, !dbg !7020
  %149 = bitcast %"class.std::__1::vector"* %145 to %"class.std::__1::__vector_base"*, !dbg !7021
  %150 = getelementptr inbounds %"class.std::__1::__vector_base", %"class.std::__1::__vector_base"* %149, i32 0, i32 1, !dbg !7021
  %151 = load i32*, i32** %150, align 8, !dbg !7021
  %152 = icmp eq i32* %148, %151, !dbg !7022
  br i1 %152, label %153, label %154, !dbg !7023

; <label>:153:                                    ; preds = %143
  store i1 false, i1* %78, align 1, !dbg !7024
  br label %263, !dbg !7024

; <label>:154:                                    ; preds = %143
  %155 = getelementptr inbounds %"class.altered_carbon::js::ACLexState", %"class.altered_carbon::js::ACLexState"* %83, i32 0, i32 6, !dbg !7026
  store %"class.std::__1::vector"* %155, %"class.std::__1::vector"** %44, align 8
  %156 = load %"class.std::__1::vector"*, %"class.std::__1::vector"** %44, align 8
  %157 = bitcast %"class.std::__1::vector"* %156 to %"class.std::__1::__vector_base"*, !dbg !7027
  %158 = getelementptr inbounds %"class.std::__1::__vector_base", %"class.std::__1::__vector_base"* %157, i32 0, i32 1, !dbg !7027
  %159 = load i32*, i32** %158, align 8, !dbg !7027
  %160 = getelementptr inbounds i32, i32* %159, i64 -1, !dbg !7028
  store %"class.std::__1::vector"* %156, %"class.std::__1::vector"** %41, align 8
  store i32* %160, i32** %42, align 8
  %161 = load %"class.std::__1::vector"*, %"class.std::__1::vector"** %41, align 8
  %162 = load i32*, i32** %42, align 8, !dbg !7029
  store %"class.std::__1::vector"* %161, %"class.std::__1::vector"** %39, align 8
  store i32* %162, i32** %40, align 8
  %163 = load %"class.std::__1::vector"*, %"class.std::__1::vector"** %39, align 8
  store %"class.std::__1::vector"* %161, %"class.std::__1::vector"** %3, align 8
  %164 = load %"class.std::__1::vector"*, %"class.std::__1::vector"** %3, align 8
  %165 = bitcast %"class.std::__1::vector"* %164 to %"class.std::__1::__vector_base"*, !dbg !7030
  %166 = getelementptr inbounds %"class.std::__1::__vector_base", %"class.std::__1::__vector_base"* %165, i32 0, i32 1, !dbg !7030
  %167 = load i32*, i32** %166, align 8, !dbg !7030
  %168 = bitcast %"class.std::__1::vector"* %164 to %"class.std::__1::__vector_base"*, !dbg !7031
  %169 = getelementptr inbounds %"class.std::__1::__vector_base", %"class.std::__1::__vector_base"* %168, i32 0, i32 0, !dbg !7031
  %170 = load i32*, i32** %169, align 8, !dbg !7031
  %171 = ptrtoint i32* %167 to i64, !dbg !7032
  %172 = ptrtoint i32* %170 to i64, !dbg !7032
  %173 = sub i64 %171, %172, !dbg !7032
  %174 = sdiv exact i64 %173, 4, !dbg !7032
  store i64 %174, i64* %43, align 8, !dbg !6838
  %175 = bitcast %"class.std::__1::vector"* %161 to %"class.std::__1::__vector_base"*, !dbg !7033
  %176 = load i32*, i32** %42, align 8, !dbg !7034
  store %"class.std::__1::__vector_base"* %175, %"class.std::__1::__vector_base"** %15, align 8
  store i32* %176, i32** %16, align 8
  %177 = load %"class.std::__1::__vector_base"*, %"class.std::__1::__vector_base"** %15, align 8
  %178 = getelementptr inbounds %"class.std::__1::__vector_base", %"class.std::__1::__vector_base"* %177, i32 0, i32 1, !dbg !7035
  %179 = load i32*, i32** %178, align 8, !dbg !7035
  store i32* %179, i32** %17, align 8, !dbg !6789
  br label %180, !dbg !7036

; <label>:180:                                    ; preds = %184, %154
  %181 = load i32*, i32** %16, align 8, !dbg !7037
  %182 = load i32*, i32** %17, align 8, !dbg !7038
  %183 = icmp ne i32* %181, %182, !dbg !7039
  br i1 %183, label %184, label %200, !dbg !7036

; <label>:184:                                    ; preds = %180
  store %"class.std::__1::__vector_base"* %177, %"class.std::__1::__vector_base"** %14, align 8
  %185 = load %"class.std::__1::__vector_base"*, %"class.std::__1::__vector_base"** %14, align 8
  %186 = getelementptr inbounds %"class.std::__1::__vector_base", %"class.std::__1::__vector_base"* %185, i32 0, i32 2, !dbg !7040
  store %"class.std::__1::__compressed_pair.4"* %186, %"class.std::__1::__compressed_pair.4"** %13, align 8
  %187 = load %"class.std::__1::__compressed_pair.4"*, %"class.std::__1::__compressed_pair.4"** %13, align 8
  %188 = bitcast %"class.std::__1::__compressed_pair.4"* %187 to %"struct.std::__1::__compressed_pair_elem.6"*, !dbg !7041
  store %"struct.std::__1::__compressed_pair_elem.6"* %188, %"struct.std::__1::__compressed_pair_elem.6"** %12, align 8
  %189 = load %"struct.std::__1::__compressed_pair_elem.6"*, %"struct.std::__1::__compressed_pair_elem.6"** %12, align 8
  %190 = bitcast %"struct.std::__1::__compressed_pair_elem.6"* %189 to %"class.std::__1::allocator.7"*, !dbg !7042
  %191 = load i32*, i32** %17, align 8, !dbg !7043
  %192 = getelementptr inbounds i32, i32* %191, i32 -1, !dbg !7043
  store i32* %192, i32** %17, align 8, !dbg !7043
  store i32* %192, i32** %4, align 8
  %193 = load i32*, i32** %4, align 8, !dbg !7044
  store %"class.std::__1::allocator.7"* %190, %"class.std::__1::allocator.7"** %9, align 8
  store i32* %193, i32** %10, align 8
  %194 = bitcast %"struct.std::__1::__has_destroy"* %11 to %"struct.std::__1::integral_constant"*, !dbg !7045
  %195 = load %"class.std::__1::allocator.7"*, %"class.std::__1::allocator.7"** %9, align 8, !dbg !7046
  %196 = load i32*, i32** %10, align 8, !dbg !7047
  call void @llvm.dbg.declare(metadata !90, metadata !6700, metadata !DIExpression()), !dbg !7048
  store %"class.std::__1::allocator.7"* %195, %"class.std::__1::allocator.7"** %7, align 8
  store i32* %196, i32** %8, align 8
  %197 = load %"class.std::__1::allocator.7"*, %"class.std::__1::allocator.7"** %7, align 8, !dbg !7049
  %198 = load i32*, i32** %8, align 8, !dbg !7050
  store %"class.std::__1::allocator.7"* %197, %"class.std::__1::allocator.7"** %5, align 8
  store i32* %198, i32** %6, align 8
  %199 = load %"class.std::__1::allocator.7"*, %"class.std::__1::allocator.7"** %5, align 8
  br label %180, !dbg !7036, !llvm.loop !6704

; <label>:200:                                    ; preds = %180
  %201 = load i32*, i32** %16, align 8, !dbg !7051
  %202 = getelementptr inbounds %"class.std::__1::__vector_base", %"class.std::__1::__vector_base"* %177, i32 0, i32 1, !dbg !7052
  store i32* %201, i32** %202, align 8, !dbg !7053
  %203 = load i64, i64* %43, align 8, !dbg !7054
  store %"class.std::__1::vector"* %161, %"class.std::__1::vector"** %37, align 8
  store i64 %203, i64* %38, align 8
  %204 = load %"class.std::__1::vector"*, %"class.std::__1::vector"** %37, align 8
  store %"class.std::__1::vector"* %204, %"class.std::__1::vector"** %36, align 8
  %205 = load %"class.std::__1::vector"*, %"class.std::__1::vector"** %36, align 8
  %206 = bitcast %"class.std::__1::vector"* %205 to %"class.std::__1::__vector_base"*, !dbg !7055
  %207 = getelementptr inbounds %"class.std::__1::__vector_base", %"class.std::__1::__vector_base"* %206, i32 0, i32 0, !dbg !7055
  %208 = load i32*, i32** %207, align 8, !dbg !7055
  store i32* %208, i32** %35, align 8
  %209 = load i32*, i32** %35, align 8, !dbg !7056
  %210 = bitcast i32* %209 to i8*, !dbg !7057
  store %"class.std::__1::vector"* %204, %"class.std::__1::vector"** %19, align 8
  %211 = load %"class.std::__1::vector"*, %"class.std::__1::vector"** %19, align 8
  %212 = bitcast %"class.std::__1::vector"* %211 to %"class.std::__1::__vector_base"*, !dbg !7058
  %213 = getelementptr inbounds %"class.std::__1::__vector_base", %"class.std::__1::__vector_base"* %212, i32 0, i32 0, !dbg !7058
  %214 = load i32*, i32** %213, align 8, !dbg !7058
  store i32* %214, i32** %18, align 8
  %215 = load i32*, i32** %18, align 8, !dbg !7059
  store %"class.std::__1::vector"* %204, %"class.std::__1::vector"** %24, align 8
  %216 = load %"class.std::__1::vector"*, %"class.std::__1::vector"** %24, align 8
  %217 = bitcast %"class.std::__1::vector"* %216 to %"class.std::__1::__vector_base"*, !dbg !7060
  store %"class.std::__1::__vector_base"* %217, %"class.std::__1::__vector_base"** %23, align 8
  %218 = load %"class.std::__1::__vector_base"*, %"class.std::__1::__vector_base"** %23, align 8
  store %"class.std::__1::__vector_base"* %218, %"class.std::__1::__vector_base"** %22, align 8
  %219 = load %"class.std::__1::__vector_base"*, %"class.std::__1::__vector_base"** %22, align 8
  %220 = getelementptr inbounds %"class.std::__1::__vector_base", %"class.std::__1::__vector_base"* %219, i32 0, i32 2, !dbg !7061
  store %"class.std::__1::__compressed_pair.4"* %220, %"class.std::__1::__compressed_pair.4"** %21, align 8
  %221 = load %"class.std::__1::__compressed_pair.4"*, %"class.std::__1::__compressed_pair.4"** %21, align 8
  %222 = bitcast %"class.std::__1::__compressed_pair.4"* %221 to %"struct.std::__1::__compressed_pair_elem.5"*, !dbg !7062
  store %"struct.std::__1::__compressed_pair_elem.5"* %222, %"struct.std::__1::__compressed_pair_elem.5"** %20, align 8
  %223 = load %"struct.std::__1::__compressed_pair_elem.5"*, %"struct.std::__1::__compressed_pair_elem.5"** %20, align 8
  %224 = getelementptr inbounds %"struct.std::__1::__compressed_pair_elem.5", %"struct.std::__1::__compressed_pair_elem.5"* %223, i32 0, i32 0, !dbg !7063
  %225 = load i32*, i32** %224, align 8, !dbg !7064
  %226 = getelementptr inbounds %"class.std::__1::__vector_base", %"class.std::__1::__vector_base"* %218, i32 0, i32 0, !dbg !7065
  %227 = load i32*, i32** %226, align 8, !dbg !7065
  %228 = ptrtoint i32* %225 to i64, !dbg !7066
  %229 = ptrtoint i32* %227 to i64, !dbg !7066
  %230 = sub i64 %228, %229, !dbg !7066
  %231 = sdiv exact i64 %230, 4, !dbg !7066
  %232 = getelementptr inbounds i32, i32* %215, i64 %231, !dbg !7067
  %233 = bitcast i32* %232 to i8*, !dbg !7068
  store %"class.std::__1::vector"* %204, %"class.std::__1::vector"** %26, align 8
  %234 = load %"class.std::__1::vector"*, %"class.std::__1::vector"** %26, align 8
  %235 = bitcast %"class.std::__1::vector"* %234 to %"class.std::__1::__vector_base"*, !dbg !7069
  %236 = getelementptr inbounds %"class.std::__1::__vector_base", %"class.std::__1::__vector_base"* %235, i32 0, i32 0, !dbg !7069
  %237 = load i32*, i32** %236, align 8, !dbg !7069
  store i32* %237, i32** %25, align 8
  %238 = load i32*, i32** %25, align 8, !dbg !7070
  %239 = load i64, i64* %38, align 8, !dbg !7071
  %240 = getelementptr inbounds i32, i32* %238, i64 %239, !dbg !7072
  %241 = bitcast i32* %240 to i8*, !dbg !7073
  store %"class.std::__1::vector"* %204, %"class.std::__1::vector"** %28, align 8
  %242 = load %"class.std::__1::vector"*, %"class.std::__1::vector"** %28, align 8
  %243 = bitcast %"class.std::__1::vector"* %242 to %"class.std::__1::__vector_base"*, !dbg !7074
  %244 = getelementptr inbounds %"class.std::__1::__vector_base", %"class.std::__1::__vector_base"* %243, i32 0, i32 0, !dbg !7074
  %245 = load i32*, i32** %244, align 8, !dbg !7074
  store i32* %245, i32** %27, align 8
  %246 = load i32*, i32** %27, align 8, !dbg !7075
  store %"class.std::__1::vector"* %204, %"class.std::__1::vector"** %29, align 8
  %247 = load %"class.std::__1::vector"*, %"class.std::__1::vector"** %29, align 8
  %248 = bitcast %"class.std::__1::vector"* %247 to %"class.std::__1::__vector_base"*, !dbg !7076
  %249 = getelementptr inbounds %"class.std::__1::__vector_base", %"class.std::__1::__vector_base"* %248, i32 0, i32 1, !dbg !7076
  %250 = load i32*, i32** %249, align 8, !dbg !7076
  %251 = bitcast %"class.std::__1::vector"* %247 to %"class.std::__1::__vector_base"*, !dbg !7077
  %252 = getelementptr inbounds %"class.std::__1::__vector_base", %"class.std::__1::__vector_base"* %251, i32 0, i32 0, !dbg !7077
  %253 = load i32*, i32** %252, align 8, !dbg !7077
  %254 = ptrtoint i32* %250 to i64, !dbg !7078
  %255 = ptrtoint i32* %253 to i64, !dbg !7078
  %256 = sub i64 %254, %255, !dbg !7078
  %257 = sdiv exact i64 %256, 4, !dbg !7078
  %258 = getelementptr inbounds i32, i32* %246, i64 %257, !dbg !7079
  %259 = bitcast i32* %258 to i8*, !dbg !7080
  store %"class.std::__1::vector"* %204, %"class.std::__1::vector"** %30, align 8
  store i8* %210, i8** %31, align 8
  store i8* %233, i8** %32, align 8
  store i8* %241, i8** %33, align 8
  store i8* %259, i8** %34, align 8
  %260 = load %"class.std::__1::vector"*, %"class.std::__1::vector"** %30, align 8
  br label %261

; <label>:261:                                    ; preds = %200
  br label %262

; <label>:262:                                    ; preds = %261, %142
  store i1 true, i1* %78, align 1, !dbg !7081
  br label %263, !dbg !7081

; <label>:263:                                    ; preds = %262, %153
  %264 = load i1, i1* %78, align 1, !dbg !7082
  ret i1 %264, !dbg !7082
}

; Function Attrs: noinline nounwind optnone ssp uwtable
define zeroext i1 @_ZN14altered_carbon2js10ACLexState16saveAllowInStateEb(%"class.altered_carbon::js::ACLexState"*, i1 zeroext) #1 align 2 !dbg !7083 {
  %3 = alloca %"class.altered_carbon::js::ACLexState"*, align 8
  %4 = alloca i8, align 1
  store %"class.altered_carbon::js::ACLexState"* %0, %"class.altered_carbon::js::ACLexState"** %3, align 8
  call void @llvm.dbg.declare(metadata %"class.altered_carbon::js::ACLexState"** %3, metadata !7084, metadata !DIExpression()), !dbg !7085
  %5 = zext i1 %1 to i8
  store i8 %5, i8* %4, align 1
  call void @llvm.dbg.declare(metadata i8* %4, metadata !7086, metadata !DIExpression()), !dbg !7087
  %6 = load %"class.altered_carbon::js::ACLexState"*, %"class.altered_carbon::js::ACLexState"** %3, align 8
  %7 = getelementptr inbounds %"class.altered_carbon::js::ACLexState", %"class.altered_carbon::js::ACLexState"* %6, i32 0, i32 3, !dbg !7088
  %8 = load i8, i8* %7, align 1, !dbg !7088
  %9 = trunc i8 %8 to i1, !dbg !7088
  %10 = getelementptr inbounds %"class.altered_carbon::js::ACLexState", %"class.altered_carbon::js::ACLexState"* %6, i32 0, i32 4, !dbg !7089
  %11 = zext i1 %9 to i8, !dbg !7090
  store i8 %11, i8* %10, align 8, !dbg !7090
  %12 = load i8, i8* %4, align 1, !dbg !7091
  %13 = trunc i8 %12 to i1, !dbg !7091
  %14 = getelementptr inbounds %"class.altered_carbon::js::ACLexState", %"class.altered_carbon::js::ACLexState"* %6, i32 0, i32 3, !dbg !7092
  %15 = zext i1 %13 to i8, !dbg !7093
  store i8 %15, i8* %14, align 1, !dbg !7093
  %16 = getelementptr inbounds %"class.altered_carbon::js::ACLexState", %"class.altered_carbon::js::ACLexState"* %6, i32 0, i32 4, !dbg !7094
  %17 = load i8, i8* %16, align 8, !dbg !7094
  %18 = trunc i8 %17 to i1, !dbg !7094
  ret i1 %18, !dbg !7095
}

; Function Attrs: noinline nounwind optnone ssp uwtable
define zeroext i1 @_ZN14altered_carbon2js10ACLexState19restoreAllowInStateEv(%"class.altered_carbon::js::ACLexState"*) #1 align 2 !dbg !7096 {
  %2 = alloca %"class.altered_carbon::js::ACLexState"*, align 8
  store %"class.altered_carbon::js::ACLexState"* %0, %"class.altered_carbon::js::ACLexState"** %2, align 8
  call void @llvm.dbg.declare(metadata %"class.altered_carbon::js::ACLexState"** %2, metadata !7097, metadata !DIExpression()), !dbg !7098
  %3 = load %"class.altered_carbon::js::ACLexState"*, %"class.altered_carbon::js::ACLexState"** %2, align 8
  %4 = getelementptr inbounds %"class.altered_carbon::js::ACLexState", %"class.altered_carbon::js::ACLexState"* %3, i32 0, i32 4, !dbg !7099
  %5 = load i8, i8* %4, align 8, !dbg !7099
  %6 = trunc i8 %5 to i1, !dbg !7099
  %7 = getelementptr inbounds %"class.altered_carbon::js::ACLexState", %"class.altered_carbon::js::ACLexState"* %3, i32 0, i32 3, !dbg !7100
  %8 = zext i1 %6 to i8, !dbg !7101
  store i8 %8, i8* %7, align 1, !dbg !7101
  %9 = getelementptr inbounds %"class.altered_carbon::js::ACLexState", %"class.altered_carbon::js::ACLexState"* %3, i32 0, i32 3, !dbg !7102
  %10 = load i8, i8* %9, align 1, !dbg !7102
  %11 = trunc i8 %10 to i1, !dbg !7102
  ret i1 %11, !dbg !7103
}

; Function Attrs: noinline nounwind optnone ssp uwtable
define linkonce_odr hidden void @_ZN14altered_carbon2js10ACLexStateD1Ev(%"class.altered_carbon::js::ACLexState"*) unnamed_addr #1 align 2 !dbg !7104 {
  %2 = alloca %"class.altered_carbon::js::ACLexState"*, align 8
  store %"class.altered_carbon::js::ACLexState"* %0, %"class.altered_carbon::js::ACLexState"** %2, align 8
  call void @llvm.dbg.declare(metadata %"class.altered_carbon::js::ACLexState"** %2, metadata !7105, metadata !DIExpression()), !dbg !7106
  %3 = load %"class.altered_carbon::js::ACLexState"*, %"class.altered_carbon::js::ACLexState"** %2, align 8
  call void @_ZN14altered_carbon2js10ACLexStateD2Ev(%"class.altered_carbon::js::ACLexState"* %3) #2, !dbg !7107
  ret void, !dbg !7108
}

; Function Attrs: noinline nounwind optnone ssp uwtable
define linkonce_odr hidden void @_ZN14altered_carbon2js10ACLexStateD0Ev(%"class.altered_carbon::js::ACLexState"*) unnamed_addr #1 align 2 !dbg !7109 {
  %2 = alloca %"class.altered_carbon::js::ACLexState"*, align 8
  store %"class.altered_carbon::js::ACLexState"* %0, %"class.altered_carbon::js::ACLexState"** %2, align 8
  call void @llvm.dbg.declare(metadata %"class.altered_carbon::js::ACLexState"** %2, metadata !7110, metadata !DIExpression()), !dbg !7111
  %3 = load %"class.altered_carbon::js::ACLexState"*, %"class.altered_carbon::js::ACLexState"** %2, align 8
  call void @_ZN14altered_carbon2js10ACLexStateD1Ev(%"class.altered_carbon::js::ACLexState"* %3) #2, !dbg !7112
  %4 = bitcast %"class.altered_carbon::js::ACLexState"* %3 to i8*, !dbg !7112
  call void @_ZdlPv(i8* %4) #10, !dbg !7112
  ret void, !dbg !7113
}

; Function Attrs: noinline nounwind optnone ssp uwtable
define linkonce_odr hidden void @_ZN14altered_carbon2js13NullStreamBufC2Ev(%"class.altered_carbon::js::NullStreamBuf"*) unnamed_addr #1 align 2 !dbg !7114 {
  %2 = alloca %"class.altered_carbon::js::NullStreamBuf"*, align 8
  store %"class.altered_carbon::js::NullStreamBuf"* %0, %"class.altered_carbon::js::NullStreamBuf"** %2, align 8
  call void @llvm.dbg.declare(metadata %"class.altered_carbon::js::NullStreamBuf"** %2, metadata !7118, metadata !DIExpression()), !dbg !7120
  %3 = load %"class.altered_carbon::js::NullStreamBuf"*, %"class.altered_carbon::js::NullStreamBuf"** %2, align 8
  %4 = bitcast %"class.altered_carbon::js::NullStreamBuf"* %3 to %"class.std::__1::basic_streambuf"*, !dbg !7121
  call void @_ZNSt3__115basic_streambufIcNS_11char_traitsIcEEEC2Ev(%"class.std::__1::basic_streambuf"* %4), !dbg !7121
  %5 = bitcast %"class.altered_carbon::js::NullStreamBuf"* %3 to i32 (...)***, !dbg !7121
  store i32 (...)** bitcast (i8** getelementptr inbounds ({ [16 x i8*] }, { [16 x i8*] }* @_ZTVN14altered_carbon2js13NullStreamBufE, i32 0, inrange i32 0, i32 2) to i32 (...)**), i32 (...)*** %5, align 8, !dbg !7121
  ret void, !dbg !7121
}

; Function Attrs: nounwind
declare void @_ZNSt3__113basic_ostreamIcNS_11char_traitsIcEEED1Ev(%"class.std::__1::basic_ostream"*) unnamed_addr #4

; Function Attrs: nounwind
declare void @_ZNSt3__113basic_ostreamIcNS_11char_traitsIcEEED0Ev(%"class.std::__1::basic_ostream"*) unnamed_addr #4

; Function Attrs: nounwind
declare void @_ZTv0_n24_NSt3__113basic_ostreamIcNS_11char_traitsIcEEED1Ev(%"class.std::__1::basic_ostream"*) unnamed_addr #4

; Function Attrs: nounwind
declare void @_ZTv0_n24_NSt3__113basic_ostreamIcNS_11char_traitsIcEEED0Ev(%"class.std::__1::basic_ostream"*) unnamed_addr #4

; Function Attrs: noinline nounwind optnone ssp uwtable
define linkonce_odr hidden void @_ZN14altered_carbon2js10NullStreamD0Ev(%"class.altered_carbon::js::NullStream"*) unnamed_addr #1 align 2 !dbg !7122 {
  %2 = alloca %"class.altered_carbon::js::NullStream"*, align 8
  store %"class.altered_carbon::js::NullStream"* %0, %"class.altered_carbon::js::NullStream"** %2, align 8
  call void @llvm.dbg.declare(metadata %"class.altered_carbon::js::NullStream"** %2, metadata !7123, metadata !DIExpression()), !dbg !7124
  %3 = load %"class.altered_carbon::js::NullStream"*, %"class.altered_carbon::js::NullStream"** %2, align 8
  call void @_ZN14altered_carbon2js10NullStreamD1Ev(%"class.altered_carbon::js::NullStream"* %3) #2, !dbg !7125
  %4 = bitcast %"class.altered_carbon::js::NullStream"* %3 to i8*, !dbg !7125
  call void @_ZdlPv(i8* %4) #10, !dbg !7125
  ret void, !dbg !7125
}

declare void @_ZNSt3__115basic_streambufIcNS_11char_traitsIcEEE5imbueERKNS_6localeE(%"class.std::__1::basic_streambuf"*, %"class.std::__1::locale"* dereferenceable(8)) unnamed_addr #5

declare %"class.std::__1::basic_streambuf"* @_ZNSt3__115basic_streambufIcNS_11char_traitsIcEEE6setbufEPcl(%"class.std::__1::basic_streambuf"*, i8*, i64) unnamed_addr #5

declare void @_ZNSt3__115basic_streambufIcNS_11char_traitsIcEEE7seekoffExNS_8ios_base7seekdirEj() unnamed_addr

declare void @_ZNSt3__115basic_streambufIcNS_11char_traitsIcEEE7seekposENS_4fposI11__mbstate_tEEj() unnamed_addr

declare i32 @_ZNSt3__115basic_streambufIcNS_11char_traitsIcEEE4syncEv(%"class.std::__1::basic_streambuf"*) unnamed_addr #5

declare i64 @_ZNSt3__115basic_streambufIcNS_11char_traitsIcEEE9showmanycEv(%"class.std::__1::basic_streambuf"*) unnamed_addr #5

declare i64 @_ZNSt3__115basic_streambufIcNS_11char_traitsIcEEE6xsgetnEPcl(%"class.std::__1::basic_streambuf"*, i8*, i64) unnamed_addr #5

declare i32 @_ZNSt3__115basic_streambufIcNS_11char_traitsIcEEE9underflowEv(%"class.std::__1::basic_streambuf"*) unnamed_addr #5

declare i32 @_ZNSt3__115basic_streambufIcNS_11char_traitsIcEEE5uflowEv(%"class.std::__1::basic_streambuf"*) unnamed_addr #5

declare i32 @_ZNSt3__115basic_streambufIcNS_11char_traitsIcEEE9pbackfailEi(%"class.std::__1::basic_streambuf"*, i32) unnamed_addr #5

declare i64 @_ZNSt3__115basic_streambufIcNS_11char_traitsIcEEE6xsputnEPKcl(%"class.std::__1::basic_streambuf"*, i8*, i64) unnamed_addr #5

declare i32 @_ZN14altered_carbon2js13NullStreamBuf8overflowEi(%"class.altered_carbon::js::NullStreamBuf"*, i32) unnamed_addr #5

; Function Attrs: noinline nounwind optnone ssp uwtable
define linkonce_odr hidden void @_ZThn320_N14altered_carbon2js10NullStreamD1Ev(%"class.altered_carbon::js::NullStream"*) unnamed_addr #1 align 2 !dbg !7126 {
  %2 = alloca %"class.altered_carbon::js::NullStream"*, align 8
  store %"class.altered_carbon::js::NullStream"* %0, %"class.altered_carbon::js::NullStream"** %2, align 8
  call void @llvm.dbg.declare(metadata %"class.altered_carbon::js::NullStream"** %2, metadata !7128, metadata !DIExpression()), !dbg !7129
  %3 = load %"class.altered_carbon::js::NullStream"*, %"class.altered_carbon::js::NullStream"** %2, align 8, !dbg !7129
  %4 = bitcast %"class.altered_carbon::js::NullStream"* %3 to i8*, !dbg !7129
  %5 = getelementptr inbounds i8, i8* %4, i64 -320, !dbg !7129
  %6 = bitcast i8* %5 to %"class.altered_carbon::js::NullStream"*, !dbg !7129
  tail call void @_ZN14altered_carbon2js10NullStreamD1Ev(%"class.altered_carbon::js::NullStream"* %6) #2, !dbg !7129
  ret void, !dbg !7129
}

; Function Attrs: noinline nounwind optnone ssp uwtable
define linkonce_odr hidden void @_ZThn320_N14altered_carbon2js10NullStreamD0Ev(%"class.altered_carbon::js::NullStream"*) unnamed_addr #1 align 2 !dbg !7130 {
  %2 = alloca %"class.altered_carbon::js::NullStream"*, align 8
  store %"class.altered_carbon::js::NullStream"* %0, %"class.altered_carbon::js::NullStream"** %2, align 8
  call void @llvm.dbg.declare(metadata %"class.altered_carbon::js::NullStream"** %2, metadata !7131, metadata !DIExpression()), !dbg !7132
  %3 = load %"class.altered_carbon::js::NullStream"*, %"class.altered_carbon::js::NullStream"** %2, align 8, !dbg !7132
  %4 = bitcast %"class.altered_carbon::js::NullStream"* %3 to i8*, !dbg !7132
  %5 = getelementptr inbounds i8, i8* %4, i64 -320, !dbg !7132
  %6 = bitcast i8* %5 to %"class.altered_carbon::js::NullStream"*, !dbg !7132
  tail call void @_ZN14altered_carbon2js10NullStreamD0Ev(%"class.altered_carbon::js::NullStream"* %6) #2, !dbg !7132
  ret void, !dbg !7132
}

; Function Attrs: noinline nounwind optnone ssp uwtable
define linkonce_odr hidden void @_ZTv0_n24_N14altered_carbon2js10NullStreamD1Ev(%"class.altered_carbon::js::NullStream"*) unnamed_addr #1 align 2 !dbg !7133 {
  %2 = alloca %"class.altered_carbon::js::NullStream"*, align 8
  store %"class.altered_carbon::js::NullStream"* %0, %"class.altered_carbon::js::NullStream"** %2, align 8
  call void @llvm.dbg.declare(metadata %"class.altered_carbon::js::NullStream"** %2, metadata !7134, metadata !DIExpression()), !dbg !7135
  %3 = load %"class.altered_carbon::js::NullStream"*, %"class.altered_carbon::js::NullStream"** %2, align 8, !dbg !7135
  %4 = bitcast %"class.altered_carbon::js::NullStream"* %3 to i8*, !dbg !7135
  %5 = bitcast i8* %4 to i8**, !dbg !7135
  %6 = load i8*, i8** %5, align 8, !dbg !7135
  %7 = getelementptr inbounds i8, i8* %6, i64 -24, !dbg !7135
  %8 = bitcast i8* %7 to i64*, !dbg !7135
  %9 = load i64, i64* %8, align 8, !dbg !7135
  %10 = getelementptr inbounds i8, i8* %4, i64 %9, !dbg !7135
  %11 = bitcast i8* %10 to %"class.altered_carbon::js::NullStream"*, !dbg !7135
  tail call void @_ZN14altered_carbon2js10NullStreamD1Ev(%"class.altered_carbon::js::NullStream"* %11) #2, !dbg !7135
  ret void, !dbg !7135
}

; Function Attrs: noinline nounwind optnone ssp uwtable
define linkonce_odr hidden void @_ZTv0_n24_N14altered_carbon2js10NullStreamD0Ev(%"class.altered_carbon::js::NullStream"*) unnamed_addr #1 align 2 !dbg !7136 {
  %2 = alloca %"class.altered_carbon::js::NullStream"*, align 8
  store %"class.altered_carbon::js::NullStream"* %0, %"class.altered_carbon::js::NullStream"** %2, align 8
  call void @llvm.dbg.declare(metadata %"class.altered_carbon::js::NullStream"** %2, metadata !7137, metadata !DIExpression()), !dbg !7138
  %3 = load %"class.altered_carbon::js::NullStream"*, %"class.altered_carbon::js::NullStream"** %2, align 8, !dbg !7138
  %4 = bitcast %"class.altered_carbon::js::NullStream"* %3 to i8*, !dbg !7138
  %5 = bitcast i8* %4 to i8**, !dbg !7138
  %6 = load i8*, i8** %5, align 8, !dbg !7138
  %7 = getelementptr inbounds i8, i8* %6, i64 -24, !dbg !7138
  %8 = bitcast i8* %7 to i64*, !dbg !7138
  %9 = load i64, i64* %8, align 8, !dbg !7138
  %10 = getelementptr inbounds i8, i8* %4, i64 %9, !dbg !7138
  %11 = bitcast i8* %10 to %"class.altered_carbon::js::NullStream"*, !dbg !7138
  tail call void @_ZN14altered_carbon2js10NullStreamD0Ev(%"class.altered_carbon::js::NullStream"* %11) #2, !dbg !7138
  ret void, !dbg !7138
}

declare void @_ZNSt3__115basic_streambufIcNS_11char_traitsIcEEEC2Ev(%"class.std::__1::basic_streambuf"*) unnamed_addr #5

declare void @_ZNSt3__18ios_base4initEPv(%"class.std::__1::ios_base"*, i8*) #5

; Function Attrs: noinline nounwind optnone ssp uwtable
define linkonce_odr hidden i32 @_ZNSt3__111char_traitsIcE3eofEv() #1 align 2 !dbg !7139 {
  ret i32 -1, !dbg !7140
}

; Function Attrs: nobuiltin nounwind
declare void @_ZdlPv(i8*) #6

; Function Attrs: noinline nounwind optnone ssp uwtable
define linkonce_odr hidden void @_ZN14altered_carbon2js10NullStreamD2Ev(%"class.altered_carbon::js::NullStream"*, i8**) unnamed_addr #1 align 2 !dbg !7141 {
  %3 = alloca %"class.altered_carbon::js::NullStream"*, align 8
  %4 = alloca i8**, align 8
  store %"class.altered_carbon::js::NullStream"* %0, %"class.altered_carbon::js::NullStream"** %3, align 8
  call void @llvm.dbg.declare(metadata %"class.altered_carbon::js::NullStream"** %3, metadata !7142, metadata !DIExpression()), !dbg !7143
  store i8** %1, i8*** %4, align 8
  call void @llvm.dbg.declare(metadata i8*** %4, metadata !7144, metadata !DIExpression()), !dbg !7143
  %5 = load %"class.altered_carbon::js::NullStream"*, %"class.altered_carbon::js::NullStream"** %3, align 8
  %6 = load i8**, i8*** %4, align 8
  %7 = bitcast %"class.altered_carbon::js::NullStream"* %5 to i8*, !dbg !7145
  %8 = getelementptr inbounds i8, i8* %7, i64 320, !dbg !7145
  %9 = bitcast i8* %8 to %"class.std::__1::basic_ostream"*, !dbg !7145
  %10 = getelementptr inbounds i8*, i8** %6, i64 1, !dbg !7145
  call void @_ZNSt3__113basic_ostreamIcNS_11char_traitsIcEEED2Ev(%"class.std::__1::basic_ostream"* %9, i8** %10) #2, !dbg !7145
  %11 = bitcast %"class.altered_carbon::js::NullStream"* %5 to %"class.altered_carbon::js::NullStreamBuf"*, !dbg !7145
  call void @_ZN14altered_carbon2js13NullStreamBufD2Ev(%"class.altered_carbon::js::NullStreamBuf"* %11) #2, !dbg !7145
  ret void, !dbg !7147
}

; Function Attrs: nounwind
declare void @_ZNSt3__19basic_iosIcNS_11char_traitsIcEEED2Ev(%"class.std::__1::basic_ios"*) unnamed_addr #4

; Function Attrs: nounwind
declare void @_ZNSt3__113basic_ostreamIcNS_11char_traitsIcEEED2Ev(%"class.std::__1::basic_ostream"*, i8**) unnamed_addr #4

; Function Attrs: noinline nounwind optnone ssp uwtable
define linkonce_odr hidden void @_ZN14altered_carbon2js13NullStreamBufD2Ev(%"class.altered_carbon::js::NullStreamBuf"*) unnamed_addr #1 align 2 !dbg !7148 {
  %2 = alloca %"class.altered_carbon::js::NullStreamBuf"*, align 8
  store %"class.altered_carbon::js::NullStreamBuf"* %0, %"class.altered_carbon::js::NullStreamBuf"** %2, align 8
  call void @llvm.dbg.declare(metadata %"class.altered_carbon::js::NullStreamBuf"** %2, metadata !7150, metadata !DIExpression()), !dbg !7151
  %3 = load %"class.altered_carbon::js::NullStreamBuf"*, %"class.altered_carbon::js::NullStreamBuf"** %2, align 8
  %4 = bitcast %"class.altered_carbon::js::NullStreamBuf"* %3 to %"class.std::__1::basic_streambuf"*, !dbg !7152
  call void @_ZNSt3__115basic_streambufIcNS_11char_traitsIcEEED2Ev(%"class.std::__1::basic_streambuf"* %4) #2, !dbg !7152
  ret void, !dbg !7154
}

; Function Attrs: nounwind
declare void @_ZNSt3__115basic_streambufIcNS_11char_traitsIcEEED2Ev(%"class.std::__1::basic_streambuf"*) unnamed_addr #4

; Function Attrs: noinline nounwind optnone ssp uwtable
define linkonce_odr void @_ZNSt3__16__treeINS_12__value_typeINS_12basic_stringIwNS_11char_traitsIwEENS_9allocatorIwEEEEPN14altered_carbon2js13ACAstBaseNodeEEENS_19__map_value_compareIS7_SC_NS_4lessIS7_EELb1EEENS5_ISC_EEEC1ERKSG_(%"class.std::__1::__tree"*, %"class.std::__1::__map_value_compare"* dereferenceable(1)) unnamed_addr #1 align 2 !dbg !7155 {
  %3 = alloca %"class.std::__1::__tree"*, align 8
  %4 = alloca %"class.std::__1::__map_value_compare"*, align 8
  store %"class.std::__1::__tree"* %0, %"class.std::__1::__tree"** %3, align 8
  call void @llvm.dbg.declare(metadata %"class.std::__1::__tree"** %3, metadata !7156, metadata !DIExpression()), !dbg !7158
  store %"class.std::__1::__map_value_compare"* %1, %"class.std::__1::__map_value_compare"** %4, align 8
  call void @llvm.dbg.declare(metadata %"class.std::__1::__map_value_compare"** %4, metadata !7159, metadata !DIExpression()), !dbg !7160
  %5 = load %"class.std::__1::__tree"*, %"class.std::__1::__tree"** %3, align 8
  %6 = load %"class.std::__1::__map_value_compare"*, %"class.std::__1::__map_value_compare"** %4, align 8, !dbg !7161
  call void @_ZNSt3__16__treeINS_12__value_typeINS_12basic_stringIwNS_11char_traitsIwEENS_9allocatorIwEEEEPN14altered_carbon2js13ACAstBaseNodeEEENS_19__map_value_compareIS7_SC_NS_4lessIS7_EELb1EEENS5_ISC_EEEC2ERKSG_(%"class.std::__1::__tree"* %5, %"class.std::__1::__map_value_compare"* dereferenceable(1) %6) #2, !dbg !7161
  ret void, !dbg !7162
}

; Function Attrs: noinline nounwind optnone ssp uwtable
define linkonce_odr void @_ZNSt3__16__treeINS_12__value_typeINS_12basic_stringIwNS_11char_traitsIwEENS_9allocatorIwEEEEPN14altered_carbon2js13ACAstBaseNodeEEENS_19__map_value_compareIS7_SC_NS_4lessIS7_EELb1EEENS5_ISC_EEEC2ERKSG_(%"class.std::__1::__tree"*, %"class.std::__1::__map_value_compare"* dereferenceable(1)) unnamed_addr #1 align 2 !dbg !7163 {
  %3 = alloca i32*, align 8
  call void @llvm.dbg.declare(metadata i32** %3, metadata !7164, metadata !DIExpression()), !dbg !7174
  %4 = alloca %"struct.std::__1::__compressed_pair_elem.2"*, align 8
  call void @llvm.dbg.declare(metadata %"struct.std::__1::__compressed_pair_elem.2"** %4, metadata !7193, metadata !DIExpression()), !dbg !7195
  %5 = alloca i32*, align 8
  call void @llvm.dbg.declare(metadata i32** %5, metadata !7196, metadata !DIExpression()), !dbg !7197
  %6 = alloca %"class.std::__1::__map_value_compare"*, align 8
  call void @llvm.dbg.declare(metadata %"class.std::__1::__map_value_compare"** %6, metadata !7198, metadata !DIExpression()), !dbg !7207
  %7 = alloca %"class.std::__1::__map_value_compare"*, align 8
  call void @llvm.dbg.declare(metadata %"class.std::__1::__map_value_compare"** %7, metadata !7198, metadata !DIExpression()), !dbg !7209
  %8 = alloca %"struct.std::__1::__compressed_pair_elem.3"*, align 8
  call void @llvm.dbg.declare(metadata %"struct.std::__1::__compressed_pair_elem.3"** %8, metadata !7218, metadata !DIExpression()), !dbg !7220
  %9 = alloca %"class.std::__1::__map_value_compare"*, align 8
  call void @llvm.dbg.declare(metadata %"class.std::__1::__map_value_compare"** %9, metadata !7221, metadata !DIExpression()), !dbg !7222
  %10 = alloca i32*, align 8
  call void @llvm.dbg.declare(metadata i32** %10, metadata !7164, metadata !DIExpression()), !dbg !7223
  %11 = alloca %"class.std::__1::__compressed_pair.1"*, align 8
  call void @llvm.dbg.declare(metadata %"class.std::__1::__compressed_pair.1"** %11, metadata !7225, metadata !DIExpression()), !dbg !7227
  %12 = alloca i32*, align 8
  call void @llvm.dbg.declare(metadata i32** %12, metadata !7228, metadata !DIExpression()), !dbg !7229
  %13 = alloca %"class.std::__1::__map_value_compare"*, align 8
  call void @llvm.dbg.declare(metadata %"class.std::__1::__map_value_compare"** %13, metadata !7230, metadata !DIExpression()), !dbg !7231
  %14 = alloca %"class.std::__1::__compressed_pair.1"*, align 8
  call void @llvm.dbg.declare(metadata %"class.std::__1::__compressed_pair.1"** %14, metadata !7232, metadata !DIExpression()), !dbg !7233
  %15 = alloca i32*, align 8
  call void @llvm.dbg.declare(metadata i32** %15, metadata !7234, metadata !DIExpression()), !dbg !7235
  %16 = alloca %"class.std::__1::__map_value_compare"*, align 8
  call void @llvm.dbg.declare(metadata %"class.std::__1::__map_value_compare"** %16, metadata !7236, metadata !DIExpression()), !dbg !7237
  %17 = alloca %"class.std::__1::__tree_end_node"*, align 8
  call void @llvm.dbg.declare(metadata %"class.std::__1::__tree_end_node"** %17, metadata !7238, metadata !DIExpression()), !dbg !7243
  %18 = alloca %"class.std::__1::__tree_end_node"*, align 8
  call void @llvm.dbg.declare(metadata %"class.std::__1::__tree_end_node"** %18, metadata !7265, metadata !DIExpression()), !dbg !7266
  %19 = alloca %"struct.std::__1::__compressed_pair_elem"*, align 8
  call void @llvm.dbg.declare(metadata %"struct.std::__1::__compressed_pair_elem"** %19, metadata !7267, metadata !DIExpression()), !dbg !7270
  %20 = alloca %"class.std::__1::__compressed_pair"*, align 8
  call void @llvm.dbg.declare(metadata %"class.std::__1::__compressed_pair"** %20, metadata !7274, metadata !DIExpression()), !dbg !7276
  %21 = alloca %"class.std::__1::__tree"*, align 8
  call void @llvm.dbg.declare(metadata %"class.std::__1::__tree"** %21, metadata !7277, metadata !DIExpression()), !dbg !7278
  %22 = alloca %"class.std::__1::__tree"*, align 8
  call void @llvm.dbg.declare(metadata %"class.std::__1::__tree"** %22, metadata !7279, metadata !DIExpression()), !dbg !7281
  %23 = alloca %"class.std::__1::allocator"*, align 8
  call void @llvm.dbg.declare(metadata %"class.std::__1::allocator"** %23, metadata !7283, metadata !DIExpression()), !dbg !7286
  %24 = alloca %"struct.std::__1::__compressed_pair_elem.0"*, align 8
  call void @llvm.dbg.declare(metadata %"struct.std::__1::__compressed_pair_elem.0"** %24, metadata !7299, metadata !DIExpression()), !dbg !7301
  %25 = alloca %"class.std::__1::__tree_end_node"*, align 8
  call void @llvm.dbg.declare(metadata %"class.std::__1::__tree_end_node"** %25, metadata !7302, metadata !DIExpression()), !dbg !7304
  %26 = alloca %"class.std::__1::__tree_end_node"*, align 8
  call void @llvm.dbg.declare(metadata %"class.std::__1::__tree_end_node"** %26, metadata !7310, metadata !DIExpression()), !dbg !7311
  %27 = alloca %"struct.std::__1::__compressed_pair_elem"*, align 8
  call void @llvm.dbg.declare(metadata %"struct.std::__1::__compressed_pair_elem"** %27, metadata !7312, metadata !DIExpression()), !dbg !7313
  %28 = alloca %"class.std::__1::__compressed_pair"*, align 8
  call void @llvm.dbg.declare(metadata %"class.std::__1::__compressed_pair"** %28, metadata !7314, metadata !DIExpression()), !dbg !7315
  %29 = alloca %"class.std::__1::__compressed_pair"*, align 8
  call void @llvm.dbg.declare(metadata %"class.std::__1::__compressed_pair"** %29, metadata !7316, metadata !DIExpression()), !dbg !7317
  %30 = alloca %"class.std::__1::__tree"*, align 8
  %31 = alloca %"class.std::__1::__map_value_compare"*, align 8
  %32 = alloca i32, align 4
  store %"class.std::__1::__tree"* %0, %"class.std::__1::__tree"** %30, align 8
  call void @llvm.dbg.declare(metadata %"class.std::__1::__tree"** %30, metadata !7318, metadata !DIExpression()), !dbg !7319
  store %"class.std::__1::__map_value_compare"* %1, %"class.std::__1::__map_value_compare"** %31, align 8
  call void @llvm.dbg.declare(metadata %"class.std::__1::__map_value_compare"** %31, metadata !7320, metadata !DIExpression()), !dbg !7321
  %33 = load %"class.std::__1::__tree"*, %"class.std::__1::__tree"** %30, align 8
  %34 = getelementptr inbounds %"class.std::__1::__tree", %"class.std::__1::__tree"* %33, i32 0, i32 1, !dbg !7322
  store %"class.std::__1::__compressed_pair"* %34, %"class.std::__1::__compressed_pair"** %29, align 8
  %35 = load %"class.std::__1::__compressed_pair"*, %"class.std::__1::__compressed_pair"** %29, align 8
  store %"class.std::__1::__compressed_pair"* %35, %"class.std::__1::__compressed_pair"** %28, align 8
  %36 = load %"class.std::__1::__compressed_pair"*, %"class.std::__1::__compressed_pair"** %28, align 8
  %37 = bitcast %"class.std::__1::__compressed_pair"* %36 to %"struct.std::__1::__compressed_pair_elem"*, !dbg !7323
  store %"struct.std::__1::__compressed_pair_elem"* %37, %"struct.std::__1::__compressed_pair_elem"** %27, align 8
  %38 = load %"struct.std::__1::__compressed_pair_elem"*, %"struct.std::__1::__compressed_pair_elem"** %27, align 8
  %39 = getelementptr inbounds %"struct.std::__1::__compressed_pair_elem", %"struct.std::__1::__compressed_pair_elem"* %38, i32 0, i32 0, !dbg !7324
  store %"class.std::__1::__tree_end_node"* %39, %"class.std::__1::__tree_end_node"** %26, align 8
  %40 = load %"class.std::__1::__tree_end_node"*, %"class.std::__1::__tree_end_node"** %26, align 8
  store %"class.std::__1::__tree_end_node"* %40, %"class.std::__1::__tree_end_node"** %25, align 8
  %41 = load %"class.std::__1::__tree_end_node"*, %"class.std::__1::__tree_end_node"** %25, align 8
  %42 = getelementptr inbounds %"class.std::__1::__tree_end_node", %"class.std::__1::__tree_end_node"* %41, i32 0, i32 0, !dbg !7325
  store %"class.std::__1::__tree_node_base"* null, %"class.std::__1::__tree_node_base"** %42, align 8, !dbg !7325
  %43 = bitcast %"class.std::__1::__compressed_pair"* %36 to %"struct.std::__1::__compressed_pair_elem.0"*, !dbg !7323
  store %"struct.std::__1::__compressed_pair_elem.0"* %43, %"struct.std::__1::__compressed_pair_elem.0"** %24, align 8
  %44 = load %"struct.std::__1::__compressed_pair_elem.0"*, %"struct.std::__1::__compressed_pair_elem.0"** %24, align 8
  %45 = bitcast %"struct.std::__1::__compressed_pair_elem.0"* %44 to %"class.std::__1::allocator"*, !dbg !7326
  store %"class.std::__1::allocator"* %45, %"class.std::__1::allocator"** %23, align 8
  %46 = load %"class.std::__1::allocator"*, %"class.std::__1::allocator"** %23, align 8
  %47 = getelementptr inbounds %"class.std::__1::__tree", %"class.std::__1::__tree"* %33, i32 0, i32 2, !dbg !7327
  store i32 0, i32* %32, align 4, !dbg !7328
  %48 = load %"class.std::__1::__map_value_compare"*, %"class.std::__1::__map_value_compare"** %31, align 8, !dbg !7329
  store %"class.std::__1::__compressed_pair.1"* %47, %"class.std::__1::__compressed_pair.1"** %14, align 8
  store i32* %32, i32** %15, align 8
  store %"class.std::__1::__map_value_compare"* %48, %"class.std::__1::__map_value_compare"** %16, align 8
  %49 = load %"class.std::__1::__compressed_pair.1"*, %"class.std::__1::__compressed_pair.1"** %14, align 8
  %50 = load i32*, i32** %15, align 8, !dbg !7330
  %51 = load %"class.std::__1::__map_value_compare"*, %"class.std::__1::__map_value_compare"** %16, align 8, !dbg !7330
  store %"class.std::__1::__compressed_pair.1"* %49, %"class.std::__1::__compressed_pair.1"** %11, align 8
  store i32* %50, i32** %12, align 8
  store %"class.std::__1::__map_value_compare"* %51, %"class.std::__1::__map_value_compare"** %13, align 8
  %52 = load %"class.std::__1::__compressed_pair.1"*, %"class.std::__1::__compressed_pair.1"** %11, align 8
  %53 = bitcast %"class.std::__1::__compressed_pair.1"* %52 to %"struct.std::__1::__compressed_pair_elem.2"*, !dbg !7331
  %54 = load i32*, i32** %12, align 8, !dbg !7332
  store i32* %54, i32** %10, align 8
  %55 = load i32*, i32** %10, align 8, !dbg !7333
  store %"struct.std::__1::__compressed_pair_elem.2"* %53, %"struct.std::__1::__compressed_pair_elem.2"** %4, align 8
  store i32* %55, i32** %5, align 8
  %56 = load %"struct.std::__1::__compressed_pair_elem.2"*, %"struct.std::__1::__compressed_pair_elem.2"** %4, align 8
  %57 = getelementptr inbounds %"struct.std::__1::__compressed_pair_elem.2", %"struct.std::__1::__compressed_pair_elem.2"* %56, i32 0, i32 0, !dbg !7334
  %58 = load i32*, i32** %5, align 8, !dbg !7335
  store i32* %58, i32** %3, align 8
  %59 = load i32*, i32** %3, align 8, !dbg !7336
  %60 = load i32, i32* %59, align 4, !dbg !7337
  %61 = sext i32 %60 to i64, !dbg !7337
  store i64 %61, i64* %57, align 8, !dbg !7334
  %62 = bitcast %"class.std::__1::__compressed_pair.1"* %52 to %"struct.std::__1::__compressed_pair_elem.3"*, !dbg !7331
  %63 = load %"class.std::__1::__map_value_compare"*, %"class.std::__1::__map_value_compare"** %13, align 8, !dbg !7338
  store %"class.std::__1::__map_value_compare"* %63, %"class.std::__1::__map_value_compare"** %6, align 8
  %64 = load %"class.std::__1::__map_value_compare"*, %"class.std::__1::__map_value_compare"** %6, align 8, !dbg !7339
  store %"struct.std::__1::__compressed_pair_elem.3"* %62, %"struct.std::__1::__compressed_pair_elem.3"** %8, align 8
  store %"class.std::__1::__map_value_compare"* %64, %"class.std::__1::__map_value_compare"** %9, align 8
  %65 = load %"struct.std::__1::__compressed_pair_elem.3"*, %"struct.std::__1::__compressed_pair_elem.3"** %8, align 8
  %66 = bitcast %"struct.std::__1::__compressed_pair_elem.3"* %65 to %"class.std::__1::__map_value_compare"*, !dbg !7340
  %67 = load %"class.std::__1::__map_value_compare"*, %"class.std::__1::__map_value_compare"** %9, align 8, !dbg !7341
  store %"class.std::__1::__map_value_compare"* %67, %"class.std::__1::__map_value_compare"** %7, align 8
  %68 = load %"class.std::__1::__map_value_compare"*, %"class.std::__1::__map_value_compare"** %7, align 8, !dbg !7342
  store %"class.std::__1::__tree"* %33, %"class.std::__1::__tree"** %21, align 8
  %69 = load %"class.std::__1::__tree"*, %"class.std::__1::__tree"** %21, align 8
  %70 = getelementptr inbounds %"class.std::__1::__tree", %"class.std::__1::__tree"* %69, i32 0, i32 1, !dbg !7343
  store %"class.std::__1::__compressed_pair"* %70, %"class.std::__1::__compressed_pair"** %20, align 8
  %71 = load %"class.std::__1::__compressed_pair"*, %"class.std::__1::__compressed_pair"** %20, align 8
  %72 = bitcast %"class.std::__1::__compressed_pair"* %71 to %"struct.std::__1::__compressed_pair_elem"*, !dbg !7344
  store %"struct.std::__1::__compressed_pair_elem"* %72, %"struct.std::__1::__compressed_pair_elem"** %19, align 8
  %73 = load %"struct.std::__1::__compressed_pair_elem"*, %"struct.std::__1::__compressed_pair_elem"** %19, align 8
  %74 = getelementptr inbounds %"struct.std::__1::__compressed_pair_elem", %"struct.std::__1::__compressed_pair_elem"* %73, i32 0, i32 0, !dbg !7345
  store %"class.std::__1::__tree_end_node"* %74, %"class.std::__1::__tree_end_node"** %18, align 8
  %75 = load %"class.std::__1::__tree_end_node"*, %"class.std::__1::__tree_end_node"** %18, align 8, !dbg !7346
  store %"class.std::__1::__tree_end_node"* %75, %"class.std::__1::__tree_end_node"** %17, align 8
  %76 = load %"class.std::__1::__tree_end_node"*, %"class.std::__1::__tree_end_node"** %17, align 8, !dbg !7347
  store %"class.std::__1::__tree"* %33, %"class.std::__1::__tree"** %22, align 8
  %77 = load %"class.std::__1::__tree"*, %"class.std::__1::__tree"** %22, align 8
  %78 = getelementptr inbounds %"class.std::__1::__tree", %"class.std::__1::__tree"* %77, i32 0, i32 0, !dbg !7348
  store %"class.std::__1::__tree_end_node"* %76, %"class.std::__1::__tree_end_node"** %78, align 8, !dbg !7349
  ret void, !dbg !7350
}

; Function Attrs: noinline nounwind optnone ssp uwtable
define linkonce_odr void @_ZNSt3__16__treeINS_12__value_typeINS_12basic_stringIwNS_11char_traitsIwEENS_9allocatorIwEEEEPN14altered_carbon2js13ACAstBaseNodeEEENS_19__map_value_compareIS7_SC_NS_4lessIS7_EELb1EEENS5_ISC_EEE5clearEv(%"class.std::__1::__tree"*) #1 align 2 !dbg !7351 {
  %2 = alloca %"struct.std::__1::__compressed_pair_elem.2"*, align 8
  call void @llvm.dbg.declare(metadata %"struct.std::__1::__compressed_pair_elem.2"** %2, metadata !7352, metadata !DIExpression()), !dbg !7354
  %3 = alloca %"class.std::__1::__compressed_pair.1"*, align 8
  call void @llvm.dbg.declare(metadata %"class.std::__1::__compressed_pair.1"** %3, metadata !7360, metadata !DIExpression()), !dbg !7361
  %4 = alloca %"class.std::__1::__tree"*, align 8
  call void @llvm.dbg.declare(metadata %"class.std::__1::__tree"** %4, metadata !7362, metadata !DIExpression()), !dbg !7363
  %5 = alloca %"class.std::__1::__tree_end_node"*, align 8
  call void @llvm.dbg.declare(metadata %"class.std::__1::__tree_end_node"** %5, metadata !7238, metadata !DIExpression()), !dbg !7364
  %6 = alloca %"class.std::__1::__tree_end_node"*, align 8
  call void @llvm.dbg.declare(metadata %"class.std::__1::__tree_end_node"** %6, metadata !7265, metadata !DIExpression()), !dbg !7368
  %7 = alloca %"struct.std::__1::__compressed_pair_elem"*, align 8
  call void @llvm.dbg.declare(metadata %"struct.std::__1::__compressed_pair_elem"** %7, metadata !7267, metadata !DIExpression()), !dbg !7369
  %8 = alloca %"class.std::__1::__compressed_pair"*, align 8
  call void @llvm.dbg.declare(metadata %"class.std::__1::__compressed_pair"** %8, metadata !7274, metadata !DIExpression()), !dbg !7372
  %9 = alloca %"class.std::__1::__tree"*, align 8
  call void @llvm.dbg.declare(metadata %"class.std::__1::__tree"** %9, metadata !7277, metadata !DIExpression()), !dbg !7373
  %10 = alloca %"class.std::__1::__tree"*, align 8
  call void @llvm.dbg.declare(metadata %"class.std::__1::__tree"** %10, metadata !7279, metadata !DIExpression()), !dbg !7374
  %11 = alloca %"class.std::__1::__tree_end_node"*, align 8
  call void @llvm.dbg.declare(metadata %"class.std::__1::__tree_end_node"** %11, metadata !7238, metadata !DIExpression()), !dbg !7376
  %12 = alloca %"class.std::__1::__tree_end_node"*, align 8
  call void @llvm.dbg.declare(metadata %"class.std::__1::__tree_end_node"** %12, metadata !7265, metadata !DIExpression()), !dbg !7380
  %13 = alloca %"struct.std::__1::__compressed_pair_elem"*, align 8
  call void @llvm.dbg.declare(metadata %"struct.std::__1::__compressed_pair_elem"** %13, metadata !7267, metadata !DIExpression()), !dbg !7381
  %14 = alloca %"class.std::__1::__compressed_pair"*, align 8
  call void @llvm.dbg.declare(metadata %"class.std::__1::__compressed_pair"** %14, metadata !7274, metadata !DIExpression()), !dbg !7384
  %15 = alloca %"class.std::__1::__tree"*, align 8
  call void @llvm.dbg.declare(metadata %"class.std::__1::__tree"** %15, metadata !7277, metadata !DIExpression()), !dbg !7385
  %16 = alloca %"class.std::__1::__tree_end_node"*, align 8
  call void @llvm.dbg.declare(metadata %"class.std::__1::__tree_end_node"** %16, metadata !7238, metadata !DIExpression()), !dbg !7386
  %17 = alloca %"class.std::__1::__tree_end_node"*, align 8
  call void @llvm.dbg.declare(metadata %"class.std::__1::__tree_end_node"** %17, metadata !7265, metadata !DIExpression()), !dbg !7393
  %18 = alloca %"struct.std::__1::__compressed_pair_elem"*, align 8
  call void @llvm.dbg.declare(metadata %"struct.std::__1::__compressed_pair_elem"** %18, metadata !7394, metadata !DIExpression()), !dbg !7397
  %19 = alloca %"class.std::__1::__compressed_pair"*, align 8
  call void @llvm.dbg.declare(metadata %"class.std::__1::__compressed_pair"** %19, metadata !7401, metadata !DIExpression()), !dbg !7403
  %20 = alloca %"class.std::__1::__tree"*, align 8
  call void @llvm.dbg.declare(metadata %"class.std::__1::__tree"** %20, metadata !7404, metadata !DIExpression()), !dbg !7406
  %21 = alloca %"class.std::__1::__tree"*, align 8
  call void @llvm.dbg.declare(metadata %"class.std::__1::__tree"** %21, metadata !7407, metadata !DIExpression()), !dbg !7408
  %22 = alloca %"class.std::__1::__tree"*, align 8
  store %"class.std::__1::__tree"* %0, %"class.std::__1::__tree"** %22, align 8
  call void @llvm.dbg.declare(metadata %"class.std::__1::__tree"** %22, metadata !7409, metadata !DIExpression()), !dbg !7410
  %23 = load %"class.std::__1::__tree"*, %"class.std::__1::__tree"** %22, align 8
  store %"class.std::__1::__tree"* %23, %"class.std::__1::__tree"** %21, align 8
  %24 = load %"class.std::__1::__tree"*, %"class.std::__1::__tree"** %21, align 8
  store %"class.std::__1::__tree"* %24, %"class.std::__1::__tree"** %20, align 8
  %25 = load %"class.std::__1::__tree"*, %"class.std::__1::__tree"** %20, align 8
  %26 = getelementptr inbounds %"class.std::__1::__tree", %"class.std::__1::__tree"* %25, i32 0, i32 1, !dbg !7411
  store %"class.std::__1::__compressed_pair"* %26, %"class.std::__1::__compressed_pair"** %19, align 8
  %27 = load %"class.std::__1::__compressed_pair"*, %"class.std::__1::__compressed_pair"** %19, align 8
  %28 = bitcast %"class.std::__1::__compressed_pair"* %27 to %"struct.std::__1::__compressed_pair_elem"*, !dbg !7412
  store %"struct.std::__1::__compressed_pair_elem"* %28, %"struct.std::__1::__compressed_pair_elem"** %18, align 8
  %29 = load %"struct.std::__1::__compressed_pair_elem"*, %"struct.std::__1::__compressed_pair_elem"** %18, align 8
  %30 = getelementptr inbounds %"struct.std::__1::__compressed_pair_elem", %"struct.std::__1::__compressed_pair_elem"* %29, i32 0, i32 0, !dbg !7413
  store %"class.std::__1::__tree_end_node"* %30, %"class.std::__1::__tree_end_node"** %17, align 8
  %31 = load %"class.std::__1::__tree_end_node"*, %"class.std::__1::__tree_end_node"** %17, align 8, !dbg !7414
  store %"class.std::__1::__tree_end_node"* %31, %"class.std::__1::__tree_end_node"** %16, align 8
  %32 = load %"class.std::__1::__tree_end_node"*, %"class.std::__1::__tree_end_node"** %16, align 8, !dbg !7415
  %33 = getelementptr inbounds %"class.std::__1::__tree_end_node", %"class.std::__1::__tree_end_node"* %32, i32 0, i32 0, !dbg !7416
  %34 = load %"class.std::__1::__tree_node_base"*, %"class.std::__1::__tree_node_base"** %33, align 8, !dbg !7416
  %35 = bitcast %"class.std::__1::__tree_node_base"* %34 to %"class.std::__1::__tree_node"*, !dbg !7417
  call void @_ZNSt3__16__treeINS_12__value_typeINS_12basic_stringIwNS_11char_traitsIwEENS_9allocatorIwEEEEPN14altered_carbon2js13ACAstBaseNodeEEENS_19__map_value_compareIS7_SC_NS_4lessIS7_EELb1EEENS5_ISC_EEE7destroyEPNS_11__tree_nodeISC_PvEE(%"class.std::__1::__tree"* %23, %"class.std::__1::__tree_node"* %35) #2, !dbg !7418
  store %"class.std::__1::__tree"* %23, %"class.std::__1::__tree"** %4, align 8
  %36 = load %"class.std::__1::__tree"*, %"class.std::__1::__tree"** %4, align 8
  %37 = getelementptr inbounds %"class.std::__1::__tree", %"class.std::__1::__tree"* %36, i32 0, i32 2, !dbg !7419
  store %"class.std::__1::__compressed_pair.1"* %37, %"class.std::__1::__compressed_pair.1"** %3, align 8
  %38 = load %"class.std::__1::__compressed_pair.1"*, %"class.std::__1::__compressed_pair.1"** %3, align 8
  %39 = bitcast %"class.std::__1::__compressed_pair.1"* %38 to %"struct.std::__1::__compressed_pair_elem.2"*, !dbg !7420
  store %"struct.std::__1::__compressed_pair_elem.2"* %39, %"struct.std::__1::__compressed_pair_elem.2"** %2, align 8
  %40 = load %"struct.std::__1::__compressed_pair_elem.2"*, %"struct.std::__1::__compressed_pair_elem.2"** %2, align 8
  %41 = getelementptr inbounds %"struct.std::__1::__compressed_pair_elem.2", %"struct.std::__1::__compressed_pair_elem.2"* %40, i32 0, i32 0, !dbg !7421
  store i64 0, i64* %41, align 8, !dbg !7422
  store %"class.std::__1::__tree"* %23, %"class.std::__1::__tree"** %9, align 8
  %42 = load %"class.std::__1::__tree"*, %"class.std::__1::__tree"** %9, align 8
  %43 = getelementptr inbounds %"class.std::__1::__tree", %"class.std::__1::__tree"* %42, i32 0, i32 1, !dbg !7423
  store %"class.std::__1::__compressed_pair"* %43, %"class.std::__1::__compressed_pair"** %8, align 8
  %44 = load %"class.std::__1::__compressed_pair"*, %"class.std::__1::__compressed_pair"** %8, align 8
  %45 = bitcast %"class.std::__1::__compressed_pair"* %44 to %"struct.std::__1::__compressed_pair_elem"*, !dbg !7424
  store %"struct.std::__1::__compressed_pair_elem"* %45, %"struct.std::__1::__compressed_pair_elem"** %7, align 8
  %46 = load %"struct.std::__1::__compressed_pair_elem"*, %"struct.std::__1::__compressed_pair_elem"** %7, align 8
  %47 = getelementptr inbounds %"struct.std::__1::__compressed_pair_elem", %"struct.std::__1::__compressed_pair_elem"* %46, i32 0, i32 0, !dbg !7425
  store %"class.std::__1::__tree_end_node"* %47, %"class.std::__1::__tree_end_node"** %6, align 8
  %48 = load %"class.std::__1::__tree_end_node"*, %"class.std::__1::__tree_end_node"** %6, align 8, !dbg !7426
  store %"class.std::__1::__tree_end_node"* %48, %"class.std::__1::__tree_end_node"** %5, align 8
  %49 = load %"class.std::__1::__tree_end_node"*, %"class.std::__1::__tree_end_node"** %5, align 8, !dbg !7427
  store %"class.std::__1::__tree"* %23, %"class.std::__1::__tree"** %10, align 8
  %50 = load %"class.std::__1::__tree"*, %"class.std::__1::__tree"** %10, align 8
  %51 = getelementptr inbounds %"class.std::__1::__tree", %"class.std::__1::__tree"* %50, i32 0, i32 0, !dbg !7428
  store %"class.std::__1::__tree_end_node"* %49, %"class.std::__1::__tree_end_node"** %51, align 8, !dbg !7429
  store %"class.std::__1::__tree"* %23, %"class.std::__1::__tree"** %15, align 8
  %52 = load %"class.std::__1::__tree"*, %"class.std::__1::__tree"** %15, align 8
  %53 = getelementptr inbounds %"class.std::__1::__tree", %"class.std::__1::__tree"* %52, i32 0, i32 1, !dbg !7430
  store %"class.std::__1::__compressed_pair"* %53, %"class.std::__1::__compressed_pair"** %14, align 8
  %54 = load %"class.std::__1::__compressed_pair"*, %"class.std::__1::__compressed_pair"** %14, align 8
  %55 = bitcast %"class.std::__1::__compressed_pair"* %54 to %"struct.std::__1::__compressed_pair_elem"*, !dbg !7431
  store %"struct.std::__1::__compressed_pair_elem"* %55, %"struct.std::__1::__compressed_pair_elem"** %13, align 8
  %56 = load %"struct.std::__1::__compressed_pair_elem"*, %"struct.std::__1::__compressed_pair_elem"** %13, align 8
  %57 = getelementptr inbounds %"struct.std::__1::__compressed_pair_elem", %"struct.std::__1::__compressed_pair_elem"* %56, i32 0, i32 0, !dbg !7432
  store %"class.std::__1::__tree_end_node"* %57, %"class.std::__1::__tree_end_node"** %12, align 8
  %58 = load %"class.std::__1::__tree_end_node"*, %"class.std::__1::__tree_end_node"** %12, align 8, !dbg !7433
  store %"class.std::__1::__tree_end_node"* %58, %"class.std::__1::__tree_end_node"** %11, align 8
  %59 = load %"class.std::__1::__tree_end_node"*, %"class.std::__1::__tree_end_node"** %11, align 8, !dbg !7434
  %60 = getelementptr inbounds %"class.std::__1::__tree_end_node", %"class.std::__1::__tree_end_node"* %59, i32 0, i32 0, !dbg !7435
  store %"class.std::__1::__tree_node_base"* null, %"class.std::__1::__tree_node_base"** %60, align 8, !dbg !7436
  ret void, !dbg !7437
}

; Function Attrs: noinline nounwind optnone ssp uwtable
define linkonce_odr void @_ZNSt3__16__treeINS_12__value_typeINS_12basic_stringIwNS_11char_traitsIwEENS_9allocatorIwEEEEPN14altered_carbon2js13ACAstBaseNodeEEENS_19__map_value_compareIS7_SC_NS_4lessIS7_EELb1EEENS5_ISC_EEE7destroyEPNS_11__tree_nodeISC_PvEE(%"class.std::__1::__tree"*, %"class.std::__1::__tree_node"*) #1 align 2 !dbg !7438 {
  %3 = alloca %"struct.std::__1::pair"*, align 8
  call void @llvm.dbg.declare(metadata %"struct.std::__1::pair"** %3, metadata !7439, metadata !DIExpression()), !dbg !7443
  %4 = alloca %"union.std::__1::__value_type"*, align 8
  call void @llvm.dbg.declare(metadata %"union.std::__1::__value_type"** %4, metadata !7449, metadata !DIExpression()), !dbg !7450
  %5 = alloca %"struct.std::__1::__compressed_pair_elem.0"*, align 8
  call void @llvm.dbg.declare(metadata %"struct.std::__1::__compressed_pair_elem.0"** %5, metadata !7451, metadata !DIExpression()), !dbg !7453
  %6 = alloca %"class.std::__1::__compressed_pair"*, align 8
  call void @llvm.dbg.declare(metadata %"class.std::__1::__compressed_pair"** %6, metadata !7459, metadata !DIExpression()), !dbg !7460
  %7 = alloca %"class.std::__1::__tree"*, align 8
  call void @llvm.dbg.declare(metadata %"class.std::__1::__tree"** %7, metadata !7461, metadata !DIExpression()), !dbg !7462
  %8 = alloca %"class.std::__1::allocator"*, align 8
  call void @llvm.dbg.declare(metadata %"class.std::__1::allocator"** %8, metadata !7463, metadata !DIExpression()), !dbg !7542
  %9 = alloca %"struct.std::__1::pair"*, align 8
  call void @llvm.dbg.declare(metadata %"struct.std::__1::pair"** %9, metadata !7549, metadata !DIExpression()), !dbg !7550
  %10 = alloca %"class.std::__1::allocator"*, align 8
  call void @llvm.dbg.declare(metadata %"class.std::__1::allocator"** %10, metadata !7551, metadata !DIExpression()), !dbg !7552
  %11 = alloca %"struct.std::__1::pair"*, align 8
  call void @llvm.dbg.declare(metadata %"struct.std::__1::pair"** %11, metadata !7553, metadata !DIExpression()), !dbg !7554
  %12 = alloca %"struct.std::__1::integral_constant.32", align 1
  %13 = alloca %"struct.std::__1::__has_destroy.33", align 1
  %14 = alloca i8*, align 8
  call void @llvm.dbg.declare(metadata i8** %14, metadata !7555, metadata !DIExpression()), !dbg !7558
  %15 = alloca %"class.std::__1::allocator"*, align 8
  call void @llvm.dbg.declare(metadata %"class.std::__1::allocator"** %15, metadata !7564, metadata !DIExpression()), !dbg !7565
  %16 = alloca %"class.std::__1::__tree_node"*, align 8
  call void @llvm.dbg.declare(metadata %"class.std::__1::__tree_node"** %16, metadata !7566, metadata !DIExpression()), !dbg !7567
  %17 = alloca i64, align 8
  call void @llvm.dbg.declare(metadata i64* %17, metadata !7568, metadata !DIExpression()), !dbg !7569
  %18 = alloca %"class.std::__1::allocator"*, align 8
  call void @llvm.dbg.declare(metadata %"class.std::__1::allocator"** %18, metadata !7570, metadata !DIExpression()), !dbg !7571
  %19 = alloca %"class.std::__1::__tree_node"*, align 8
  call void @llvm.dbg.declare(metadata %"class.std::__1::__tree_node"** %19, metadata !7572, metadata !DIExpression()), !dbg !7573
  %20 = alloca i64, align 8
  call void @llvm.dbg.declare(metadata i64* %20, metadata !7574, metadata !DIExpression()), !dbg !7575
  %21 = alloca %"class.std::__1::__tree"*, align 8
  %22 = alloca %"class.std::__1::__tree_node"*, align 8
  %23 = alloca %"class.std::__1::allocator"*, align 8
  store %"class.std::__1::__tree"* %0, %"class.std::__1::__tree"** %21, align 8
  call void @llvm.dbg.declare(metadata %"class.std::__1::__tree"** %21, metadata !7576, metadata !DIExpression()), !dbg !7577
  store %"class.std::__1::__tree_node"* %1, %"class.std::__1::__tree_node"** %22, align 8
  call void @llvm.dbg.declare(metadata %"class.std::__1::__tree_node"** %22, metadata !7578, metadata !DIExpression()), !dbg !7579
  %24 = load %"class.std::__1::__tree"*, %"class.std::__1::__tree"** %21, align 8
  %25 = load %"class.std::__1::__tree_node"*, %"class.std::__1::__tree_node"** %22, align 8, !dbg !7580
  %26 = icmp ne %"class.std::__1::__tree_node"* %25, null, !dbg !7581
  br i1 %26, label %27, label %63, !dbg !7582

; <label>:27:                                     ; preds = %2
  %28 = load %"class.std::__1::__tree_node"*, %"class.std::__1::__tree_node"** %22, align 8, !dbg !7583
  %29 = bitcast %"class.std::__1::__tree_node"* %28 to %"class.std::__1::__tree_end_node"*, !dbg !7584
  %30 = getelementptr inbounds %"class.std::__1::__tree_end_node", %"class.std::__1::__tree_end_node"* %29, i32 0, i32 0, !dbg !7584
  %31 = load %"class.std::__1::__tree_node_base"*, %"class.std::__1::__tree_node_base"** %30, align 8, !dbg !7584
  %32 = bitcast %"class.std::__1::__tree_node_base"* %31 to %"class.std::__1::__tree_node"*, !dbg !7585
  call void @_ZNSt3__16__treeINS_12__value_typeINS_12basic_stringIwNS_11char_traitsIwEENS_9allocatorIwEEEEPN14altered_carbon2js13ACAstBaseNodeEEENS_19__map_value_compareIS7_SC_NS_4lessIS7_EELb1EEENS5_ISC_EEE7destroyEPNS_11__tree_nodeISC_PvEE(%"class.std::__1::__tree"* %24, %"class.std::__1::__tree_node"* %32) #2, !dbg !7586
  %33 = load %"class.std::__1::__tree_node"*, %"class.std::__1::__tree_node"** %22, align 8, !dbg !7587
  %34 = bitcast %"class.std::__1::__tree_node"* %33 to %"class.std::__1::__tree_node_base"*, !dbg !7588
  %35 = getelementptr inbounds %"class.std::__1::__tree_node_base", %"class.std::__1::__tree_node_base"* %34, i32 0, i32 1, !dbg !7588
  %36 = load %"class.std::__1::__tree_node_base"*, %"class.std::__1::__tree_node_base"** %35, align 8, !dbg !7588
  %37 = bitcast %"class.std::__1::__tree_node_base"* %36 to %"class.std::__1::__tree_node"*, !dbg !7589
  call void @_ZNSt3__16__treeINS_12__value_typeINS_12basic_stringIwNS_11char_traitsIwEENS_9allocatorIwEEEEPN14altered_carbon2js13ACAstBaseNodeEEENS_19__map_value_compareIS7_SC_NS_4lessIS7_EELb1EEENS5_ISC_EEE7destroyEPNS_11__tree_nodeISC_PvEE(%"class.std::__1::__tree"* %24, %"class.std::__1::__tree_node"* %37) #2, !dbg !7590
  call void @llvm.dbg.declare(metadata %"class.std::__1::allocator"** %23, metadata !7591, metadata !DIExpression()), !dbg !7592
  store %"class.std::__1::__tree"* %24, %"class.std::__1::__tree"** %7, align 8
  %38 = load %"class.std::__1::__tree"*, %"class.std::__1::__tree"** %7, align 8
  %39 = getelementptr inbounds %"class.std::__1::__tree", %"class.std::__1::__tree"* %38, i32 0, i32 1, !dbg !7593
  store %"class.std::__1::__compressed_pair"* %39, %"class.std::__1::__compressed_pair"** %6, align 8
  %40 = load %"class.std::__1::__compressed_pair"*, %"class.std::__1::__compressed_pair"** %6, align 8
  %41 = bitcast %"class.std::__1::__compressed_pair"* %40 to %"struct.std::__1::__compressed_pair_elem.0"*, !dbg !7594
  store %"struct.std::__1::__compressed_pair_elem.0"* %41, %"struct.std::__1::__compressed_pair_elem.0"** %5, align 8
  %42 = load %"struct.std::__1::__compressed_pair_elem.0"*, %"struct.std::__1::__compressed_pair_elem.0"** %5, align 8
  %43 = bitcast %"struct.std::__1::__compressed_pair_elem.0"* %42 to %"class.std::__1::allocator"*, !dbg !7595
  store %"class.std::__1::allocator"* %43, %"class.std::__1::allocator"** %23, align 8, !dbg !7592
  %44 = load %"class.std::__1::allocator"*, %"class.std::__1::allocator"** %23, align 8, !dbg !7596
  %45 = load %"class.std::__1::__tree_node"*, %"class.std::__1::__tree_node"** %22, align 8, !dbg !7597
  %46 = getelementptr inbounds %"class.std::__1::__tree_node", %"class.std::__1::__tree_node"* %45, i32 0, i32 1, !dbg !7598
  store %"union.std::__1::__value_type"* %46, %"union.std::__1::__value_type"** %4, align 8
  %47 = load %"union.std::__1::__value_type"*, %"union.std::__1::__value_type"** %4, align 8, !dbg !7599
  %48 = bitcast %"union.std::__1::__value_type"* %47 to %"struct.std::__1::pair"*, !dbg !7600
  store %"struct.std::__1::pair"* %48, %"struct.std::__1::pair"** %3, align 8
  %49 = load %"struct.std::__1::pair"*, %"struct.std::__1::pair"** %3, align 8, !dbg !7601
  store %"class.std::__1::allocator"* %44, %"class.std::__1::allocator"** %10, align 8
  store %"struct.std::__1::pair"* %49, %"struct.std::__1::pair"** %11, align 8
  %50 = bitcast %"struct.std::__1::__has_destroy.33"* %13 to %"struct.std::__1::integral_constant.32"*, !dbg !7602
  %51 = load %"class.std::__1::allocator"*, %"class.std::__1::allocator"** %10, align 8, !dbg !7603
  %52 = load %"struct.std::__1::pair"*, %"struct.std::__1::pair"** %11, align 8, !dbg !7604
  call void @llvm.dbg.declare(metadata !90, metadata !7605, metadata !DIExpression()) #2, !dbg !7606
  store %"class.std::__1::allocator"* %51, %"class.std::__1::allocator"** %8, align 8
  store %"struct.std::__1::pair"* %52, %"struct.std::__1::pair"** %9, align 8
  %53 = load %"struct.std::__1::pair"*, %"struct.std::__1::pair"** %9, align 8, !dbg !7607
  call void @_ZNSt3__14pairIKNS_12basic_stringIwNS_11char_traitsIwEENS_9allocatorIwEEEEPN14altered_carbon2js13ACAstBaseNodeEED1Ev(%"struct.std::__1::pair"* %53) #2, !dbg !7608
  %54 = load %"class.std::__1::allocator"*, %"class.std::__1::allocator"** %23, align 8, !dbg !7609
  %55 = load %"class.std::__1::__tree_node"*, %"class.std::__1::__tree_node"** %22, align 8, !dbg !7610
  store %"class.std::__1::allocator"* %54, %"class.std::__1::allocator"** %18, align 8
  store %"class.std::__1::__tree_node"* %55, %"class.std::__1::__tree_node"** %19, align 8
  store i64 1, i64* %20, align 8
  %56 = load %"class.std::__1::allocator"*, %"class.std::__1::allocator"** %18, align 8, !dbg !7611
  %57 = load %"class.std::__1::__tree_node"*, %"class.std::__1::__tree_node"** %19, align 8, !dbg !7612
  %58 = load i64, i64* %20, align 8, !dbg !7613
  store %"class.std::__1::allocator"* %56, %"class.std::__1::allocator"** %15, align 8
  store %"class.std::__1::__tree_node"* %57, %"class.std::__1::__tree_node"** %16, align 8
  store i64 %58, i64* %17, align 8
  %59 = load %"class.std::__1::allocator"*, %"class.std::__1::allocator"** %15, align 8
  %60 = load %"class.std::__1::__tree_node"*, %"class.std::__1::__tree_node"** %16, align 8, !dbg !7614
  %61 = bitcast %"class.std::__1::__tree_node"* %60 to i8*, !dbg !7614
  store i8* %61, i8** %14, align 8
  %62 = load i8*, i8** %14, align 8, !dbg !7615
  call void @_ZdlPv(i8* %62) #10, !dbg !7616
  br label %63, !dbg !7617

; <label>:63:                                     ; preds = %27, %2
  ret void, !dbg !7618
}

; Function Attrs: noinline nounwind optnone ssp uwtable
define linkonce_odr hidden void @_ZNSt3__14pairIKNS_12basic_stringIwNS_11char_traitsIwEENS_9allocatorIwEEEEPN14altered_carbon2js13ACAstBaseNodeEED1Ev(%"struct.std::__1::pair"*) unnamed_addr #1 align 2 !dbg !7619 {
  %2 = alloca %"struct.std::__1::pair"*, align 8
  store %"struct.std::__1::pair"* %0, %"struct.std::__1::pair"** %2, align 8
  call void @llvm.dbg.declare(metadata %"struct.std::__1::pair"** %2, metadata !7623, metadata !DIExpression()), !dbg !7624
  %3 = load %"struct.std::__1::pair"*, %"struct.std::__1::pair"** %2, align 8
  call void @_ZNSt3__14pairIKNS_12basic_stringIwNS_11char_traitsIwEENS_9allocatorIwEEEEPN14altered_carbon2js13ACAstBaseNodeEED2Ev(%"struct.std::__1::pair"* %3) #2, !dbg !7625
  ret void, !dbg !7625
}

; Function Attrs: noinline nounwind optnone ssp uwtable
define linkonce_odr hidden void @_ZNSt3__14pairIKNS_12basic_stringIwNS_11char_traitsIwEENS_9allocatorIwEEEEPN14altered_carbon2js13ACAstBaseNodeEED2Ev(%"struct.std::__1::pair"*) unnamed_addr #1 align 2 !dbg !7626 {
  %2 = alloca %"struct.std::__1::pair"*, align 8
  store %"struct.std::__1::pair"* %0, %"struct.std::__1::pair"** %2, align 8
  call void @llvm.dbg.declare(metadata %"struct.std::__1::pair"** %2, metadata !7627, metadata !DIExpression()), !dbg !7628
  %3 = load %"struct.std::__1::pair"*, %"struct.std::__1::pair"** %2, align 8
  %4 = getelementptr inbounds %"struct.std::__1::pair", %"struct.std::__1::pair"* %3, i32 0, i32 0, !dbg !7629
  call void @_ZNSt3__112basic_stringIwNS_11char_traitsIwEENS_9allocatorIwEEED1Ev(%"class.std::__1::basic_string"* %4) #2, !dbg !7629
  ret void, !dbg !7631
}

; Function Attrs: nounwind
declare void @_ZNSt3__112basic_stringIwNS_11char_traitsIwEENS_9allocatorIwEEED1Ev(%"class.std::__1::basic_string"*) unnamed_addr #4

; Function Attrs: noinline nounwind optnone ssp uwtable
define linkonce_odr void @_ZNSt3__16vectorIN14altered_carbon2js14ACLexTokenTypeENS_9allocatorIS3_EEE21__push_back_slow_pathIS3_EEvOT_(%"class.std::__1::vector"*, i32* dereferenceable(4)) #1 align 2 !dbg !7632 {
  %3 = alloca i32*, align 8
  call void @llvm.dbg.declare(metadata i32** %3, metadata !6869, metadata !DIExpression()), !dbg !7637
  %4 = alloca i32*, align 8
  call void @llvm.dbg.declare(metadata i32** %4, metadata !6869, metadata !DIExpression()), !dbg !7639
  %5 = alloca %"class.std::__1::allocator.7"*, align 8
  call void @llvm.dbg.declare(metadata %"class.std::__1::allocator.7"** %5, metadata !6900, metadata !DIExpression()), !dbg !7644
  %6 = alloca i32*, align 8
  call void @llvm.dbg.declare(metadata i32** %6, metadata !6902, metadata !DIExpression()), !dbg !7645
  %7 = alloca i32*, align 8
  call void @llvm.dbg.declare(metadata i32** %7, metadata !6904, metadata !DIExpression()), !dbg !7646
  %8 = alloca i32*, align 8
  call void @llvm.dbg.declare(metadata i32** %8, metadata !6869, metadata !DIExpression()), !dbg !7647
  %9 = alloca %"class.std::__1::allocator.7"*, align 8
  call void @llvm.dbg.declare(metadata %"class.std::__1::allocator.7"** %9, metadata !6908, metadata !DIExpression()), !dbg !7649
  %10 = alloca i32*, align 8
  call void @llvm.dbg.declare(metadata i32** %10, metadata !6910, metadata !DIExpression()), !dbg !7650
  %11 = alloca i32*, align 8
  call void @llvm.dbg.declare(metadata i32** %11, metadata !6912, metadata !DIExpression()), !dbg !7651
  %12 = alloca i32*, align 8
  call void @llvm.dbg.declare(metadata i32** %12, metadata !6869, metadata !DIExpression()), !dbg !7652
  %13 = alloca %"class.std::__1::allocator.7"*, align 8
  call void @llvm.dbg.declare(metadata %"class.std::__1::allocator.7"** %13, metadata !6916, metadata !DIExpression()), !dbg !7654
  %14 = alloca i32*, align 8
  call void @llvm.dbg.declare(metadata i32** %14, metadata !6918, metadata !DIExpression()), !dbg !7655
  %15 = alloca i32*, align 8
  call void @llvm.dbg.declare(metadata i32** %15, metadata !6920, metadata !DIExpression()), !dbg !7656
  %16 = alloca %"struct.std::__1::integral_constant", align 1
  %17 = alloca %"struct.std::__1::__has_construct", align 1
  %18 = alloca i32*, align 8
  call void @llvm.dbg.declare(metadata i32** %18, metadata !6542, metadata !DIExpression()), !dbg !7657
  %19 = alloca %"class.std::__1::vector"*, align 8
  call void @llvm.dbg.declare(metadata %"class.std::__1::vector"** %19, metadata !6638, metadata !DIExpression()), !dbg !7659
  %20 = alloca %"struct.std::__1::__less"*, align 8
  call void @llvm.dbg.declare(metadata %"struct.std::__1::__less"** %20, metadata !7661, metadata !DIExpression()), !dbg !7674
  %21 = alloca i64*, align 8
  call void @llvm.dbg.declare(metadata i64** %21, metadata !7689, metadata !DIExpression()), !dbg !7690
  %22 = alloca i64*, align 8
  call void @llvm.dbg.declare(metadata i64** %22, metadata !7691, metadata !DIExpression()), !dbg !7692
  %23 = alloca %"struct.std::__1::__less", align 1
  call void @llvm.dbg.declare(metadata %"struct.std::__1::__less"* %23, metadata !7693, metadata !DIExpression()), !dbg !7694
  %24 = alloca i64*, align 8
  call void @llvm.dbg.declare(metadata i64** %24, metadata !7695, metadata !DIExpression()), !dbg !7696
  %25 = alloca i64*, align 8
  call void @llvm.dbg.declare(metadata i64** %25, metadata !7697, metadata !DIExpression()), !dbg !7698
  %26 = alloca i64*, align 8
  call void @llvm.dbg.declare(metadata i64** %26, metadata !7699, metadata !DIExpression()), !dbg !7700
  %27 = alloca i64*, align 8
  call void @llvm.dbg.declare(metadata i64** %27, metadata !7701, metadata !DIExpression()), !dbg !7702
  %28 = alloca %"struct.std::__1::__compressed_pair_elem.5"*, align 8
  call void @llvm.dbg.declare(metadata %"struct.std::__1::__compressed_pair_elem.5"** %28, metadata !6607, metadata !DIExpression()), !dbg !7703
  %29 = alloca %"class.std::__1::__compressed_pair.4"*, align 8
  call void @llvm.dbg.declare(metadata %"class.std::__1::__compressed_pair.4"** %29, metadata !6620, metadata !DIExpression()), !dbg !7709
  %30 = alloca %"class.std::__1::__vector_base"*, align 8
  call void @llvm.dbg.declare(metadata %"class.std::__1::__vector_base"** %30, metadata !6623, metadata !DIExpression()), !dbg !7710
  %31 = alloca %"class.std::__1::__vector_base"*, align 8
  call void @llvm.dbg.declare(metadata %"class.std::__1::__vector_base"** %31, metadata !6626, metadata !DIExpression()), !dbg !7711
  %32 = alloca %"class.std::__1::vector"*, align 8
  call void @llvm.dbg.declare(metadata %"class.std::__1::vector"** %32, metadata !6628, metadata !DIExpression()), !dbg !7712
  %33 = alloca i64, align 8
  %34 = alloca %"class.std::__1::vector"*, align 8
  call void @llvm.dbg.declare(metadata %"class.std::__1::vector"** %34, metadata !7713, metadata !DIExpression()), !dbg !7714
  %35 = alloca i64, align 8
  call void @llvm.dbg.declare(metadata i64* %35, metadata !7715, metadata !DIExpression()), !dbg !7716
  %36 = alloca i64, align 8
  call void @llvm.dbg.declare(metadata i64* %36, metadata !7717, metadata !DIExpression()), !dbg !7719
  %37 = alloca i64, align 8
  call void @llvm.dbg.declare(metadata i64* %37, metadata !7720, metadata !DIExpression()), !dbg !7721
  %38 = alloca i64, align 8
  %39 = alloca %"class.std::__1::vector"*, align 8
  call void @llvm.dbg.declare(metadata %"class.std::__1::vector"** %39, metadata !6638, metadata !DIExpression()), !dbg !7722
  %40 = alloca %"struct.std::__1::__compressed_pair_elem.6"*, align 8
  call void @llvm.dbg.declare(metadata %"struct.std::__1::__compressed_pair_elem.6"** %40, metadata !6578, metadata !DIExpression()), !dbg !7724
  %41 = alloca %"class.std::__1::__compressed_pair.4"*, align 8
  call void @llvm.dbg.declare(metadata %"class.std::__1::__compressed_pair.4"** %41, metadata !6586, metadata !DIExpression()), !dbg !7728
  %42 = alloca %"class.std::__1::__vector_base"*, align 8
  call void @llvm.dbg.declare(metadata %"class.std::__1::__vector_base"** %42, metadata !6588, metadata !DIExpression()), !dbg !7729
  %43 = alloca %"class.std::__1::vector"*, align 8
  %44 = alloca i32*, align 8
  %45 = alloca %"class.std::__1::allocator.7"*, align 8
  %46 = alloca %"struct.std::__1::__split_buffer", align 8
  store %"class.std::__1::vector"* %0, %"class.std::__1::vector"** %43, align 8
  call void @llvm.dbg.declare(metadata %"class.std::__1::vector"** %43, metadata !7730, metadata !DIExpression()), !dbg !7731
  store i32* %1, i32** %44, align 8
  call void @llvm.dbg.declare(metadata i32** %44, metadata !7732, metadata !DIExpression()), !dbg !7733
  %47 = load %"class.std::__1::vector"*, %"class.std::__1::vector"** %43, align 8
  call void @llvm.dbg.declare(metadata %"class.std::__1::allocator.7"** %45, metadata !7734, metadata !DIExpression()), !dbg !7736
  %48 = bitcast %"class.std::__1::vector"* %47 to %"class.std::__1::__vector_base"*, !dbg !7737
  store %"class.std::__1::__vector_base"* %48, %"class.std::__1::__vector_base"** %42, align 8
  %49 = load %"class.std::__1::__vector_base"*, %"class.std::__1::__vector_base"** %42, align 8
  %50 = getelementptr inbounds %"class.std::__1::__vector_base", %"class.std::__1::__vector_base"* %49, i32 0, i32 2, !dbg !7738
  store %"class.std::__1::__compressed_pair.4"* %50, %"class.std::__1::__compressed_pair.4"** %41, align 8
  %51 = load %"class.std::__1::__compressed_pair.4"*, %"class.std::__1::__compressed_pair.4"** %41, align 8
  %52 = bitcast %"class.std::__1::__compressed_pair.4"* %51 to %"struct.std::__1::__compressed_pair_elem.6"*, !dbg !7739
  store %"struct.std::__1::__compressed_pair_elem.6"* %52, %"struct.std::__1::__compressed_pair_elem.6"** %40, align 8
  %53 = load %"struct.std::__1::__compressed_pair_elem.6"*, %"struct.std::__1::__compressed_pair_elem.6"** %40, align 8
  %54 = bitcast %"struct.std::__1::__compressed_pair_elem.6"* %53 to %"class.std::__1::allocator.7"*, !dbg !7740
  store %"class.std::__1::allocator.7"* %54, %"class.std::__1::allocator.7"** %45, align 8, !dbg !7736
  call void @llvm.dbg.declare(metadata %"struct.std::__1::__split_buffer"* %46, metadata !7741, metadata !DIExpression()), !dbg !7742
  store %"class.std::__1::vector"* %47, %"class.std::__1::vector"** %39, align 8
  %55 = load %"class.std::__1::vector"*, %"class.std::__1::vector"** %39, align 8
  %56 = bitcast %"class.std::__1::vector"* %55 to %"class.std::__1::__vector_base"*, !dbg !7743
  %57 = getelementptr inbounds %"class.std::__1::__vector_base", %"class.std::__1::__vector_base"* %56, i32 0, i32 1, !dbg !7743
  %58 = load i32*, i32** %57, align 8, !dbg !7743
  %59 = bitcast %"class.std::__1::vector"* %55 to %"class.std::__1::__vector_base"*, !dbg !7744
  %60 = getelementptr inbounds %"class.std::__1::__vector_base", %"class.std::__1::__vector_base"* %59, i32 0, i32 0, !dbg !7744
  %61 = load i32*, i32** %60, align 8, !dbg !7744
  %62 = ptrtoint i32* %58 to i64, !dbg !7745
  %63 = ptrtoint i32* %61 to i64, !dbg !7745
  %64 = sub i64 %62, %63, !dbg !7745
  %65 = sdiv exact i64 %64, 4, !dbg !7745
  %66 = add i64 %65, 1, !dbg !7746
  store %"class.std::__1::vector"* %47, %"class.std::__1::vector"** %34, align 8
  store i64 %66, i64* %35, align 8
  %67 = load %"class.std::__1::vector"*, %"class.std::__1::vector"** %34, align 8
  %68 = call i64 @_ZNKSt3__16vectorIN14altered_carbon2js14ACLexTokenTypeENS_9allocatorIS3_EEE8max_sizeEv(%"class.std::__1::vector"* %67) #2, !dbg !7747
  store i64 %68, i64* %36, align 8, !dbg !7719
  %69 = load i64, i64* %35, align 8, !dbg !7748
  %70 = load i64, i64* %36, align 8, !dbg !7750
  %71 = icmp ugt i64 %69, %70, !dbg !7751
  br i1 %71, label %72, label %74, !dbg !7752

; <label>:72:                                     ; preds = %2
  %73 = bitcast %"class.std::__1::vector"* %67 to %"class.std::__1::__vector_base_common"*, !dbg !7753
  call void @_ZNKSt3__120__vector_base_commonILb1EE20__throw_length_errorEv(%"class.std::__1::__vector_base_common"* %73) #11, !dbg !7753
  unreachable, !dbg !7753

; <label>:74:                                     ; preds = %2
  store %"class.std::__1::vector"* %67, %"class.std::__1::vector"** %32, align 8
  %75 = load %"class.std::__1::vector"*, %"class.std::__1::vector"** %32, align 8
  %76 = bitcast %"class.std::__1::vector"* %75 to %"class.std::__1::__vector_base"*, !dbg !7754
  store %"class.std::__1::__vector_base"* %76, %"class.std::__1::__vector_base"** %31, align 8
  %77 = load %"class.std::__1::__vector_base"*, %"class.std::__1::__vector_base"** %31, align 8
  store %"class.std::__1::__vector_base"* %77, %"class.std::__1::__vector_base"** %30, align 8
  %78 = load %"class.std::__1::__vector_base"*, %"class.std::__1::__vector_base"** %30, align 8
  %79 = getelementptr inbounds %"class.std::__1::__vector_base", %"class.std::__1::__vector_base"* %78, i32 0, i32 2, !dbg !7755
  store %"class.std::__1::__compressed_pair.4"* %79, %"class.std::__1::__compressed_pair.4"** %29, align 8
  %80 = load %"class.std::__1::__compressed_pair.4"*, %"class.std::__1::__compressed_pair.4"** %29, align 8
  %81 = bitcast %"class.std::__1::__compressed_pair.4"* %80 to %"struct.std::__1::__compressed_pair_elem.5"*, !dbg !7756
  store %"struct.std::__1::__compressed_pair_elem.5"* %81, %"struct.std::__1::__compressed_pair_elem.5"** %28, align 8
  %82 = load %"struct.std::__1::__compressed_pair_elem.5"*, %"struct.std::__1::__compressed_pair_elem.5"** %28, align 8
  %83 = getelementptr inbounds %"struct.std::__1::__compressed_pair_elem.5", %"struct.std::__1::__compressed_pair_elem.5"* %82, i32 0, i32 0, !dbg !7757
  %84 = load i32*, i32** %83, align 8, !dbg !7758
  %85 = getelementptr inbounds %"class.std::__1::__vector_base", %"class.std::__1::__vector_base"* %77, i32 0, i32 0, !dbg !7759
  %86 = load i32*, i32** %85, align 8, !dbg !7759
  %87 = ptrtoint i32* %84 to i64, !dbg !7760
  %88 = ptrtoint i32* %86 to i64, !dbg !7760
  %89 = sub i64 %87, %88, !dbg !7760
  %90 = sdiv exact i64 %89, 4, !dbg !7760
  store i64 %90, i64* %37, align 8, !dbg !7721
  %91 = load i64, i64* %37, align 8, !dbg !7761
  %92 = load i64, i64* %36, align 8, !dbg !7763
  %93 = udiv i64 %92, 2, !dbg !7764
  %94 = icmp uge i64 %91, %93, !dbg !7765
  br i1 %94, label %95, label %97, !dbg !7766

; <label>:95:                                     ; preds = %74
  %96 = load i64, i64* %36, align 8, !dbg !7767
  store i64 %96, i64* %33, align 8, !dbg !7768
  br label %117, !dbg !7768

; <label>:97:                                     ; preds = %74
  %98 = load i64, i64* %37, align 8, !dbg !7769
  %99 = mul i64 2, %98, !dbg !7770
  store i64 %99, i64* %38, align 8, !dbg !7771
  store i64* %38, i64** %26, align 8
  store i64* %35, i64** %27, align 8
  %100 = load i64*, i64** %26, align 8, !dbg !7772
  %101 = load i64*, i64** %27, align 8, !dbg !7773
  store i64* %100, i64** %24, align 8
  store i64* %101, i64** %25, align 8
  %102 = load i64*, i64** %24, align 8, !dbg !7774
  %103 = load i64*, i64** %25, align 8, !dbg !7775
  store %"struct.std::__1::__less"* %23, %"struct.std::__1::__less"** %20, align 8
  store i64* %102, i64** %21, align 8
  store i64* %103, i64** %22, align 8
  %104 = load %"struct.std::__1::__less"*, %"struct.std::__1::__less"** %20, align 8
  %105 = load i64*, i64** %21, align 8, !dbg !7776
  %106 = load i64, i64* %105, align 8, !dbg !7776
  %107 = load i64*, i64** %22, align 8, !dbg !7777
  %108 = load i64, i64* %107, align 8, !dbg !7777
  %109 = icmp ult i64 %106, %108, !dbg !7778
  br i1 %109, label %110, label %112, !dbg !7779

; <label>:110:                                    ; preds = %97
  %111 = load i64*, i64** %25, align 8, !dbg !7780
  br label %114, !dbg !7779

; <label>:112:                                    ; preds = %97
  %113 = load i64*, i64** %24, align 8, !dbg !7781
  br label %114, !dbg !7779

; <label>:114:                                    ; preds = %112, %110
  %115 = phi i64* [ %111, %110 ], [ %113, %112 ], !dbg !7779
  %116 = load i64, i64* %115, align 8, !dbg !7782
  store i64 %116, i64* %33, align 8, !dbg !7783
  br label %117, !dbg !7783

; <label>:117:                                    ; preds = %95, %114
  %118 = load i64, i64* %33, align 8, !dbg !7784
  store %"class.std::__1::vector"* %47, %"class.std::__1::vector"** %19, align 8
  %119 = load %"class.std::__1::vector"*, %"class.std::__1::vector"** %19, align 8
  %120 = bitcast %"class.std::__1::vector"* %119 to %"class.std::__1::__vector_base"*, !dbg !7785
  %121 = getelementptr inbounds %"class.std::__1::__vector_base", %"class.std::__1::__vector_base"* %120, i32 0, i32 1, !dbg !7785
  %122 = load i32*, i32** %121, align 8, !dbg !7785
  %123 = bitcast %"class.std::__1::vector"* %119 to %"class.std::__1::__vector_base"*, !dbg !7786
  %124 = getelementptr inbounds %"class.std::__1::__vector_base", %"class.std::__1::__vector_base"* %123, i32 0, i32 0, !dbg !7786
  %125 = load i32*, i32** %124, align 8, !dbg !7786
  %126 = ptrtoint i32* %122 to i64, !dbg !7787
  %127 = ptrtoint i32* %125 to i64, !dbg !7787
  %128 = sub i64 %126, %127, !dbg !7787
  %129 = sdiv exact i64 %128, 4, !dbg !7787
  %130 = load %"class.std::__1::allocator.7"*, %"class.std::__1::allocator.7"** %45, align 8, !dbg !7788
  call void @_ZNSt3__114__split_bufferIN14altered_carbon2js14ACLexTokenTypeERNS_9allocatorIS3_EEEC1EmmS6_(%"struct.std::__1::__split_buffer"* %46, i64 %118, i64 %129, %"class.std::__1::allocator.7"* dereferenceable(1) %130), !dbg !7742
  %131 = load %"class.std::__1::allocator.7"*, %"class.std::__1::allocator.7"** %45, align 8, !dbg !7789
  %132 = getelementptr inbounds %"struct.std::__1::__split_buffer", %"struct.std::__1::__split_buffer"* %46, i32 0, i32 2, !dbg !7790
  %133 = load i32*, i32** %132, align 8, !dbg !7790
  store i32* %133, i32** %18, align 8
  %134 = load i32*, i32** %18, align 8, !dbg !7791
  %135 = load i32*, i32** %44, align 8, !dbg !7792
  store i32* %135, i32** %3, align 8
  %136 = load i32*, i32** %3, align 8, !dbg !7793
  store %"class.std::__1::allocator.7"* %131, %"class.std::__1::allocator.7"** %13, align 8
  store i32* %134, i32** %14, align 8
  store i32* %136, i32** %15, align 8
  %137 = bitcast %"struct.std::__1::__has_construct"* %17 to %"struct.std::__1::integral_constant"*, !dbg !7794
  %138 = load %"class.std::__1::allocator.7"*, %"class.std::__1::allocator.7"** %13, align 8, !dbg !7795
  %139 = load i32*, i32** %14, align 8, !dbg !7796
  %140 = load i32*, i32** %15, align 8, !dbg !7797
  store i32* %140, i32** %12, align 8
  %141 = load i32*, i32** %12, align 8, !dbg !7798
  call void @llvm.dbg.declare(metadata !90, metadata !7001, metadata !DIExpression()), !dbg !7799
  store %"class.std::__1::allocator.7"* %138, %"class.std::__1::allocator.7"** %9, align 8
  store i32* %139, i32** %10, align 8
  store i32* %141, i32** %11, align 8
  %142 = load %"class.std::__1::allocator.7"*, %"class.std::__1::allocator.7"** %9, align 8, !dbg !7800
  %143 = load i32*, i32** %10, align 8, !dbg !7801
  %144 = load i32*, i32** %11, align 8, !dbg !7802
  store i32* %144, i32** %8, align 8
  %145 = load i32*, i32** %8, align 8, !dbg !7803
  store %"class.std::__1::allocator.7"* %142, %"class.std::__1::allocator.7"** %5, align 8
  store i32* %143, i32** %6, align 8
  store i32* %145, i32** %7, align 8
  %146 = load %"class.std::__1::allocator.7"*, %"class.std::__1::allocator.7"** %5, align 8
  %147 = load i32*, i32** %6, align 8, !dbg !7804
  %148 = bitcast i32* %147 to i8*, !dbg !7804
  %149 = load i32*, i32** %7, align 8, !dbg !7805
  store i32* %149, i32** %4, align 8
  %150 = load i32*, i32** %4, align 8, !dbg !7806
  %151 = load i32, i32* %150, align 4, !dbg !7807
  store i32 %151, i32* %147, align 4, !dbg !7808
  %152 = getelementptr inbounds %"struct.std::__1::__split_buffer", %"struct.std::__1::__split_buffer"* %46, i32 0, i32 2, !dbg !7809
  %153 = load i32*, i32** %152, align 8, !dbg !7810
  %154 = getelementptr inbounds i32, i32* %153, i32 1, !dbg !7810
  store i32* %154, i32** %152, align 8, !dbg !7810
  call void @_ZNSt3__16vectorIN14altered_carbon2js14ACLexTokenTypeENS_9allocatorIS3_EEE26__swap_out_circular_bufferERNS_14__split_bufferIS3_RS5_EE(%"class.std::__1::vector"* %47, %"struct.std::__1::__split_buffer"* dereferenceable(40) %46), !dbg !7811
  call void @_ZNSt3__114__split_bufferIN14altered_carbon2js14ACLexTokenTypeERNS_9allocatorIS3_EEED1Ev(%"struct.std::__1::__split_buffer"* %46) #2, !dbg !7812
  ret void, !dbg !7812
}

; Function Attrs: noinline nounwind optnone ssp uwtable
define linkonce_odr void @_ZNSt3__114__split_bufferIN14altered_carbon2js14ACLexTokenTypeERNS_9allocatorIS3_EEEC1EmmS6_(%"struct.std::__1::__split_buffer"*, i64, i64, %"class.std::__1::allocator.7"* dereferenceable(1)) unnamed_addr #1 align 2 !dbg !7813 {
  %5 = alloca %"struct.std::__1::__split_buffer"*, align 8
  %6 = alloca i64, align 8
  %7 = alloca i64, align 8
  %8 = alloca %"class.std::__1::allocator.7"*, align 8
  store %"struct.std::__1::__split_buffer"* %0, %"struct.std::__1::__split_buffer"** %5, align 8
  call void @llvm.dbg.declare(metadata %"struct.std::__1::__split_buffer"** %5, metadata !7814, metadata !DIExpression()), !dbg !7816
  store i64 %1, i64* %6, align 8
  call void @llvm.dbg.declare(metadata i64* %6, metadata !7817, metadata !DIExpression()), !dbg !7818
  store i64 %2, i64* %7, align 8
  call void @llvm.dbg.declare(metadata i64* %7, metadata !7819, metadata !DIExpression()), !dbg !7820
  store %"class.std::__1::allocator.7"* %3, %"class.std::__1::allocator.7"** %8, align 8
  call void @llvm.dbg.declare(metadata %"class.std::__1::allocator.7"** %8, metadata !7821, metadata !DIExpression()), !dbg !7822
  %9 = load %"struct.std::__1::__split_buffer"*, %"struct.std::__1::__split_buffer"** %5, align 8
  %10 = load i64, i64* %6, align 8, !dbg !7823
  %11 = load i64, i64* %7, align 8, !dbg !7823
  %12 = load %"class.std::__1::allocator.7"*, %"class.std::__1::allocator.7"** %8, align 8, !dbg !7823
  call void @_ZNSt3__114__split_bufferIN14altered_carbon2js14ACLexTokenTypeERNS_9allocatorIS3_EEEC2EmmS6_(%"struct.std::__1::__split_buffer"* %9, i64 %10, i64 %11, %"class.std::__1::allocator.7"* dereferenceable(1) %12), !dbg !7823
  ret void, !dbg !7824
}

; Function Attrs: noinline nounwind optnone ssp uwtable
define linkonce_odr void @_ZNSt3__16vectorIN14altered_carbon2js14ACLexTokenTypeENS_9allocatorIS3_EEE26__swap_out_circular_bufferERNS_14__split_bufferIS3_RS5_EE(%"class.std::__1::vector"*, %"struct.std::__1::__split_buffer"* dereferenceable(40)) #1 align 2 !dbg !7825 {
  %3 = alloca %"struct.std::__1::__compressed_pair_elem.6"*, align 8
  call void @llvm.dbg.declare(metadata %"struct.std::__1::__compressed_pair_elem.6"** %3, metadata !6578, metadata !DIExpression()), !dbg !7826
  %4 = alloca %"class.std::__1::__compressed_pair.4"*, align 8
  call void @llvm.dbg.declare(metadata %"class.std::__1::__compressed_pair.4"** %4, metadata !6586, metadata !DIExpression()), !dbg !7830
  %5 = alloca %"class.std::__1::__vector_base"*, align 8
  call void @llvm.dbg.declare(metadata %"class.std::__1::__vector_base"** %5, metadata !6588, metadata !DIExpression()), !dbg !7831
  %6 = alloca %"class.std::__1::allocator.7"*, align 8
  call void @llvm.dbg.declare(metadata %"class.std::__1::allocator.7"** %6, metadata !7832, metadata !DIExpression()), !dbg !7840
  %7 = alloca i32*, align 8
  call void @llvm.dbg.declare(metadata i32** %7, metadata !7842, metadata !DIExpression()), !dbg !7843
  %8 = alloca i32*, align 8
  call void @llvm.dbg.declare(metadata i32** %8, metadata !7844, metadata !DIExpression()), !dbg !7845
  %9 = alloca i32**, align 8
  call void @llvm.dbg.declare(metadata i32*** %9, metadata !7846, metadata !DIExpression()), !dbg !7847
  %10 = alloca i64, align 8
  call void @llvm.dbg.declare(metadata i64* %10, metadata !7848, metadata !DIExpression()), !dbg !7849
  %11 = alloca i32**, align 8
  call void @llvm.dbg.declare(metadata i32*** %11, metadata !7850, metadata !DIExpression()), !dbg !7859
  %12 = alloca i32**, align 8
  call void @llvm.dbg.declare(metadata i32*** %12, metadata !7850, metadata !DIExpression()), !dbg !7866
  %13 = alloca i32**, align 8
  call void @llvm.dbg.declare(metadata i32*** %13, metadata !7850, metadata !DIExpression()), !dbg !7868
  %14 = alloca i32**, align 8
  call void @llvm.dbg.declare(metadata i32*** %14, metadata !7870, metadata !DIExpression()), !dbg !7871
  %15 = alloca i32**, align 8
  call void @llvm.dbg.declare(metadata i32*** %15, metadata !7872, metadata !DIExpression()), !dbg !7873
  %16 = alloca i32*, align 8
  call void @llvm.dbg.declare(metadata i32** %16, metadata !7874, metadata !DIExpression()), !dbg !7875
  %17 = alloca i32**, align 8
  call void @llvm.dbg.declare(metadata i32*** %17, metadata !7850, metadata !DIExpression()), !dbg !7876
  %18 = alloca i32**, align 8
  call void @llvm.dbg.declare(metadata i32*** %18, metadata !7850, metadata !DIExpression()), !dbg !7879
  %19 = alloca i32**, align 8
  call void @llvm.dbg.declare(metadata i32*** %19, metadata !7850, metadata !DIExpression()), !dbg !7881
  %20 = alloca i32**, align 8
  call void @llvm.dbg.declare(metadata i32*** %20, metadata !7870, metadata !DIExpression()), !dbg !7883
  %21 = alloca i32**, align 8
  call void @llvm.dbg.declare(metadata i32*** %21, metadata !7872, metadata !DIExpression()), !dbg !7884
  %22 = alloca i32*, align 8
  call void @llvm.dbg.declare(metadata i32** %22, metadata !7874, metadata !DIExpression()), !dbg !7885
  %23 = alloca %"struct.std::__1::__compressed_pair_elem.5"*, align 8
  call void @llvm.dbg.declare(metadata %"struct.std::__1::__compressed_pair_elem.5"** %23, metadata !6954, metadata !DIExpression()), !dbg !7886
  %24 = alloca %"class.std::__1::__compressed_pair.4"*, align 8
  call void @llvm.dbg.declare(metadata %"class.std::__1::__compressed_pair.4"** %24, metadata !6962, metadata !DIExpression()), !dbg !7890
  %25 = alloca %"class.std::__1::__vector_base"*, align 8
  call void @llvm.dbg.declare(metadata %"class.std::__1::__vector_base"** %25, metadata !6964, metadata !DIExpression()), !dbg !7891
  %26 = alloca %"struct.std::__1::__compressed_pair_elem.5"*, align 8
  call void @llvm.dbg.declare(metadata %"struct.std::__1::__compressed_pair_elem.5"** %26, metadata !6954, metadata !DIExpression()), !dbg !7892
  %27 = alloca %"class.std::__1::__compressed_pair.34"*, align 8
  call void @llvm.dbg.declare(metadata %"class.std::__1::__compressed_pair.34"** %27, metadata !7898, metadata !DIExpression()), !dbg !7900
  %28 = alloca %"struct.std::__1::__split_buffer"*, align 8
  call void @llvm.dbg.declare(metadata %"struct.std::__1::__split_buffer"** %28, metadata !7901, metadata !DIExpression()), !dbg !7902
  %29 = alloca i32**, align 8
  call void @llvm.dbg.declare(metadata i32*** %29, metadata !7850, metadata !DIExpression()), !dbg !7903
  %30 = alloca i32**, align 8
  call void @llvm.dbg.declare(metadata i32*** %30, metadata !7850, metadata !DIExpression()), !dbg !7906
  %31 = alloca i32**, align 8
  call void @llvm.dbg.declare(metadata i32*** %31, metadata !7850, metadata !DIExpression()), !dbg !7908
  %32 = alloca i32**, align 8
  call void @llvm.dbg.declare(metadata i32*** %32, metadata !7870, metadata !DIExpression()), !dbg !7910
  %33 = alloca i32**, align 8
  call void @llvm.dbg.declare(metadata i32*** %33, metadata !7872, metadata !DIExpression()), !dbg !7911
  %34 = alloca i32*, align 8
  call void @llvm.dbg.declare(metadata i32** %34, metadata !7874, metadata !DIExpression()), !dbg !7912
  %35 = alloca %"class.std::__1::vector"*, align 8
  call void @llvm.dbg.declare(metadata %"class.std::__1::vector"** %35, metadata !6638, metadata !DIExpression()), !dbg !7913
  %36 = alloca i32*, align 8
  call void @llvm.dbg.declare(metadata i32** %36, metadata !6542, metadata !DIExpression()), !dbg !7915
  %37 = alloca %"class.std::__1::vector"*, align 8
  call void @llvm.dbg.declare(metadata %"class.std::__1::vector"** %37, metadata !6604, metadata !DIExpression()), !dbg !7920
  %38 = alloca %"struct.std::__1::__compressed_pair_elem.5"*, align 8
  call void @llvm.dbg.declare(metadata %"struct.std::__1::__compressed_pair_elem.5"** %38, metadata !6607, metadata !DIExpression()), !dbg !7921
  %39 = alloca %"class.std::__1::__compressed_pair.4"*, align 8
  call void @llvm.dbg.declare(metadata %"class.std::__1::__compressed_pair.4"** %39, metadata !6620, metadata !DIExpression()), !dbg !7927
  %40 = alloca %"class.std::__1::__vector_base"*, align 8
  call void @llvm.dbg.declare(metadata %"class.std::__1::__vector_base"** %40, metadata !6623, metadata !DIExpression()), !dbg !7928
  %41 = alloca %"class.std::__1::__vector_base"*, align 8
  call void @llvm.dbg.declare(metadata %"class.std::__1::__vector_base"** %41, metadata !6626, metadata !DIExpression()), !dbg !7929
  %42 = alloca %"class.std::__1::vector"*, align 8
  call void @llvm.dbg.declare(metadata %"class.std::__1::vector"** %42, metadata !6628, metadata !DIExpression()), !dbg !7930
  %43 = alloca i32*, align 8
  call void @llvm.dbg.declare(metadata i32** %43, metadata !6542, metadata !DIExpression()), !dbg !7931
  %44 = alloca %"class.std::__1::vector"*, align 8
  call void @llvm.dbg.declare(metadata %"class.std::__1::vector"** %44, metadata !6604, metadata !DIExpression()), !dbg !7934
  %45 = alloca %"struct.std::__1::__compressed_pair_elem.5"*, align 8
  call void @llvm.dbg.declare(metadata %"struct.std::__1::__compressed_pair_elem.5"** %45, metadata !6607, metadata !DIExpression()), !dbg !7935
  %46 = alloca %"class.std::__1::__compressed_pair.4"*, align 8
  call void @llvm.dbg.declare(metadata %"class.std::__1::__compressed_pair.4"** %46, metadata !6620, metadata !DIExpression()), !dbg !7941
  %47 = alloca %"class.std::__1::__vector_base"*, align 8
  call void @llvm.dbg.declare(metadata %"class.std::__1::__vector_base"** %47, metadata !6623, metadata !DIExpression()), !dbg !7942
  %48 = alloca %"class.std::__1::__vector_base"*, align 8
  call void @llvm.dbg.declare(metadata %"class.std::__1::__vector_base"** %48, metadata !6626, metadata !DIExpression()), !dbg !7943
  %49 = alloca %"class.std::__1::vector"*, align 8
  call void @llvm.dbg.declare(metadata %"class.std::__1::vector"** %49, metadata !6628, metadata !DIExpression()), !dbg !7944
  %50 = alloca i32*, align 8
  call void @llvm.dbg.declare(metadata i32** %50, metadata !6542, metadata !DIExpression()), !dbg !7945
  %51 = alloca %"class.std::__1::vector"*, align 8
  call void @llvm.dbg.declare(metadata %"class.std::__1::vector"** %51, metadata !6604, metadata !DIExpression()), !dbg !7948
  %52 = alloca %"class.std::__1::vector"*, align 8
  call void @llvm.dbg.declare(metadata %"class.std::__1::vector"** %52, metadata !6642, metadata !DIExpression()), !dbg !7949
  %53 = alloca i8*, align 8
  call void @llvm.dbg.declare(metadata i8** %53, metadata !6646, metadata !DIExpression()), !dbg !7951
  %54 = alloca i8*, align 8
  call void @llvm.dbg.declare(metadata i8** %54, metadata !6648, metadata !DIExpression()), !dbg !7952
  %55 = alloca i8*, align 8
  call void @llvm.dbg.declare(metadata i8** %55, metadata !6650, metadata !DIExpression()), !dbg !7953
  %56 = alloca i8*, align 8
  call void @llvm.dbg.declare(metadata i8** %56, metadata !6652, metadata !DIExpression()), !dbg !7954
  %57 = alloca i32*, align 8
  call void @llvm.dbg.declare(metadata i32** %57, metadata !6542, metadata !DIExpression()), !dbg !7955
  %58 = alloca %"class.std::__1::vector"*, align 8
  call void @llvm.dbg.declare(metadata %"class.std::__1::vector"** %58, metadata !6604, metadata !DIExpression()), !dbg !7958
  %59 = alloca %"class.std::__1::vector"*, align 8
  call void @llvm.dbg.declare(metadata %"class.std::__1::vector"** %59, metadata !7959, metadata !DIExpression()), !dbg !7960
  %60 = alloca i64, align 8
  call void @llvm.dbg.declare(metadata i64* %60, metadata !7961, metadata !DIExpression()), !dbg !7962
  %61 = alloca %"class.std::__1::vector"*, align 8
  call void @llvm.dbg.declare(metadata %"class.std::__1::vector"** %61, metadata !6662, metadata !DIExpression()), !dbg !7963
  %62 = alloca i32*, align 8
  call void @llvm.dbg.declare(metadata i32** %62, metadata !6542, metadata !DIExpression()), !dbg !7965
  %63 = alloca %"class.std::__1::vector"*, align 8
  call void @llvm.dbg.declare(metadata %"class.std::__1::vector"** %63, metadata !6604, metadata !DIExpression()), !dbg !7970
  %64 = alloca %"struct.std::__1::__compressed_pair_elem.5"*, align 8
  call void @llvm.dbg.declare(metadata %"struct.std::__1::__compressed_pair_elem.5"** %64, metadata !6607, metadata !DIExpression()), !dbg !7971
  %65 = alloca %"class.std::__1::__compressed_pair.4"*, align 8
  call void @llvm.dbg.declare(metadata %"class.std::__1::__compressed_pair.4"** %65, metadata !6620, metadata !DIExpression()), !dbg !7977
  %66 = alloca %"class.std::__1::__vector_base"*, align 8
  call void @llvm.dbg.declare(metadata %"class.std::__1::__vector_base"** %66, metadata !6623, metadata !DIExpression()), !dbg !7978
  %67 = alloca %"class.std::__1::__vector_base"*, align 8
  call void @llvm.dbg.declare(metadata %"class.std::__1::__vector_base"** %67, metadata !6626, metadata !DIExpression()), !dbg !7979
  %68 = alloca %"class.std::__1::vector"*, align 8
  call void @llvm.dbg.declare(metadata %"class.std::__1::vector"** %68, metadata !6628, metadata !DIExpression()), !dbg !7980
  %69 = alloca i32*, align 8
  call void @llvm.dbg.declare(metadata i32** %69, metadata !6542, metadata !DIExpression()), !dbg !7981
  %70 = alloca %"class.std::__1::vector"*, align 8
  call void @llvm.dbg.declare(metadata %"class.std::__1::vector"** %70, metadata !6604, metadata !DIExpression()), !dbg !7984
  %71 = alloca %"class.std::__1::vector"*, align 8
  call void @llvm.dbg.declare(metadata %"class.std::__1::vector"** %71, metadata !6638, metadata !DIExpression()), !dbg !7985
  %72 = alloca i32*, align 8
  call void @llvm.dbg.declare(metadata i32** %72, metadata !6542, metadata !DIExpression()), !dbg !7987
  %73 = alloca %"class.std::__1::vector"*, align 8
  call void @llvm.dbg.declare(metadata %"class.std::__1::vector"** %73, metadata !6604, metadata !DIExpression()), !dbg !7990
  %74 = alloca %"struct.std::__1::__compressed_pair_elem.5"*, align 8
  call void @llvm.dbg.declare(metadata %"struct.std::__1::__compressed_pair_elem.5"** %74, metadata !6607, metadata !DIExpression()), !dbg !7991
  %75 = alloca %"class.std::__1::__compressed_pair.4"*, align 8
  call void @llvm.dbg.declare(metadata %"class.std::__1::__compressed_pair.4"** %75, metadata !6620, metadata !DIExpression()), !dbg !7997
  %76 = alloca %"class.std::__1::__vector_base"*, align 8
  call void @llvm.dbg.declare(metadata %"class.std::__1::__vector_base"** %76, metadata !6623, metadata !DIExpression()), !dbg !7998
  %77 = alloca %"class.std::__1::__vector_base"*, align 8
  call void @llvm.dbg.declare(metadata %"class.std::__1::__vector_base"** %77, metadata !6626, metadata !DIExpression()), !dbg !7999
  %78 = alloca %"class.std::__1::vector"*, align 8
  call void @llvm.dbg.declare(metadata %"class.std::__1::vector"** %78, metadata !6628, metadata !DIExpression()), !dbg !8000
  %79 = alloca %"class.std::__1::vector"*, align 8
  call void @llvm.dbg.declare(metadata %"class.std::__1::vector"** %79, metadata !6642, metadata !DIExpression()), !dbg !8001
  %80 = alloca i8*, align 8
  call void @llvm.dbg.declare(metadata i8** %80, metadata !6646, metadata !DIExpression()), !dbg !8003
  %81 = alloca i8*, align 8
  call void @llvm.dbg.declare(metadata i8** %81, metadata !6648, metadata !DIExpression()), !dbg !8004
  %82 = alloca i8*, align 8
  call void @llvm.dbg.declare(metadata i8** %82, metadata !6650, metadata !DIExpression()), !dbg !8005
  %83 = alloca i8*, align 8
  call void @llvm.dbg.declare(metadata i8** %83, metadata !6652, metadata !DIExpression()), !dbg !8006
  %84 = alloca i32*, align 8
  call void @llvm.dbg.declare(metadata i32** %84, metadata !6542, metadata !DIExpression()), !dbg !8007
  %85 = alloca %"class.std::__1::vector"*, align 8
  call void @llvm.dbg.declare(metadata %"class.std::__1::vector"** %85, metadata !6604, metadata !DIExpression()), !dbg !8010
  %86 = alloca %"class.std::__1::vector"*, align 8
  call void @llvm.dbg.declare(metadata %"class.std::__1::vector"** %86, metadata !8011, metadata !DIExpression()), !dbg !8012
  %87 = alloca %"class.std::__1::vector"*, align 8
  %88 = alloca %"struct.std::__1::__split_buffer"*, align 8
  store %"class.std::__1::vector"* %0, %"class.std::__1::vector"** %87, align 8
  call void @llvm.dbg.declare(metadata %"class.std::__1::vector"** %87, metadata !8013, metadata !DIExpression()), !dbg !8014
  store %"struct.std::__1::__split_buffer"* %1, %"struct.std::__1::__split_buffer"** %88, align 8
  call void @llvm.dbg.declare(metadata %"struct.std::__1::__split_buffer"** %88, metadata !8015, metadata !DIExpression()), !dbg !8016
  %89 = load %"class.std::__1::vector"*, %"class.std::__1::vector"** %87, align 8
  store %"class.std::__1::vector"* %89, %"class.std::__1::vector"** %86, align 8
  %90 = load %"class.std::__1::vector"*, %"class.std::__1::vector"** %86, align 8
  store %"class.std::__1::vector"* %90, %"class.std::__1::vector"** %85, align 8
  %91 = load %"class.std::__1::vector"*, %"class.std::__1::vector"** %85, align 8
  %92 = bitcast %"class.std::__1::vector"* %91 to %"class.std::__1::__vector_base"*, !dbg !8017
  %93 = getelementptr inbounds %"class.std::__1::__vector_base", %"class.std::__1::__vector_base"* %92, i32 0, i32 0, !dbg !8017
  %94 = load i32*, i32** %93, align 8, !dbg !8017
  store i32* %94, i32** %84, align 8
  %95 = load i32*, i32** %84, align 8, !dbg !8018
  %96 = bitcast i32* %95 to i8*, !dbg !8019
  store %"class.std::__1::vector"* %90, %"class.std::__1::vector"** %63, align 8
  %97 = load %"class.std::__1::vector"*, %"class.std::__1::vector"** %63, align 8
  %98 = bitcast %"class.std::__1::vector"* %97 to %"class.std::__1::__vector_base"*, !dbg !8020
  %99 = getelementptr inbounds %"class.std::__1::__vector_base", %"class.std::__1::__vector_base"* %98, i32 0, i32 0, !dbg !8020
  %100 = load i32*, i32** %99, align 8, !dbg !8020
  store i32* %100, i32** %62, align 8
  %101 = load i32*, i32** %62, align 8, !dbg !8021
  store %"class.std::__1::vector"* %90, %"class.std::__1::vector"** %68, align 8
  %102 = load %"class.std::__1::vector"*, %"class.std::__1::vector"** %68, align 8
  %103 = bitcast %"class.std::__1::vector"* %102 to %"class.std::__1::__vector_base"*, !dbg !8022
  store %"class.std::__1::__vector_base"* %103, %"class.std::__1::__vector_base"** %67, align 8
  %104 = load %"class.std::__1::__vector_base"*, %"class.std::__1::__vector_base"** %67, align 8
  store %"class.std::__1::__vector_base"* %104, %"class.std::__1::__vector_base"** %66, align 8
  %105 = load %"class.std::__1::__vector_base"*, %"class.std::__1::__vector_base"** %66, align 8
  %106 = getelementptr inbounds %"class.std::__1::__vector_base", %"class.std::__1::__vector_base"* %105, i32 0, i32 2, !dbg !8023
  store %"class.std::__1::__compressed_pair.4"* %106, %"class.std::__1::__compressed_pair.4"** %65, align 8
  %107 = load %"class.std::__1::__compressed_pair.4"*, %"class.std::__1::__compressed_pair.4"** %65, align 8
  %108 = bitcast %"class.std::__1::__compressed_pair.4"* %107 to %"struct.std::__1::__compressed_pair_elem.5"*, !dbg !8024
  store %"struct.std::__1::__compressed_pair_elem.5"* %108, %"struct.std::__1::__compressed_pair_elem.5"** %64, align 8
  %109 = load %"struct.std::__1::__compressed_pair_elem.5"*, %"struct.std::__1::__compressed_pair_elem.5"** %64, align 8
  %110 = getelementptr inbounds %"struct.std::__1::__compressed_pair_elem.5", %"struct.std::__1::__compressed_pair_elem.5"* %109, i32 0, i32 0, !dbg !8025
  %111 = load i32*, i32** %110, align 8, !dbg !8026
  %112 = getelementptr inbounds %"class.std::__1::__vector_base", %"class.std::__1::__vector_base"* %104, i32 0, i32 0, !dbg !8027
  %113 = load i32*, i32** %112, align 8, !dbg !8027
  %114 = ptrtoint i32* %111 to i64, !dbg !8028
  %115 = ptrtoint i32* %113 to i64, !dbg !8028
  %116 = sub i64 %114, %115, !dbg !8028
  %117 = sdiv exact i64 %116, 4, !dbg !8028
  %118 = getelementptr inbounds i32, i32* %101, i64 %117, !dbg !8029
  %119 = bitcast i32* %118 to i8*, !dbg !8030
  store %"class.std::__1::vector"* %90, %"class.std::__1::vector"** %70, align 8
  %120 = load %"class.std::__1::vector"*, %"class.std::__1::vector"** %70, align 8
  %121 = bitcast %"class.std::__1::vector"* %120 to %"class.std::__1::__vector_base"*, !dbg !8031
  %122 = getelementptr inbounds %"class.std::__1::__vector_base", %"class.std::__1::__vector_base"* %121, i32 0, i32 0, !dbg !8031
  %123 = load i32*, i32** %122, align 8, !dbg !8031
  store i32* %123, i32** %69, align 8
  %124 = load i32*, i32** %69, align 8, !dbg !8032
  store %"class.std::__1::vector"* %90, %"class.std::__1::vector"** %71, align 8
  %125 = load %"class.std::__1::vector"*, %"class.std::__1::vector"** %71, align 8
  %126 = bitcast %"class.std::__1::vector"* %125 to %"class.std::__1::__vector_base"*, !dbg !8033
  %127 = getelementptr inbounds %"class.std::__1::__vector_base", %"class.std::__1::__vector_base"* %126, i32 0, i32 1, !dbg !8033
  %128 = load i32*, i32** %127, align 8, !dbg !8033
  %129 = bitcast %"class.std::__1::vector"* %125 to %"class.std::__1::__vector_base"*, !dbg !8034
  %130 = getelementptr inbounds %"class.std::__1::__vector_base", %"class.std::__1::__vector_base"* %129, i32 0, i32 0, !dbg !8034
  %131 = load i32*, i32** %130, align 8, !dbg !8034
  %132 = ptrtoint i32* %128 to i64, !dbg !8035
  %133 = ptrtoint i32* %131 to i64, !dbg !8035
  %134 = sub i64 %132, %133, !dbg !8035
  %135 = sdiv exact i64 %134, 4, !dbg !8035
  %136 = getelementptr inbounds i32, i32* %124, i64 %135, !dbg !8036
  %137 = bitcast i32* %136 to i8*, !dbg !8037
  store %"class.std::__1::vector"* %90, %"class.std::__1::vector"** %73, align 8
  %138 = load %"class.std::__1::vector"*, %"class.std::__1::vector"** %73, align 8
  %139 = bitcast %"class.std::__1::vector"* %138 to %"class.std::__1::__vector_base"*, !dbg !8038
  %140 = getelementptr inbounds %"class.std::__1::__vector_base", %"class.std::__1::__vector_base"* %139, i32 0, i32 0, !dbg !8038
  %141 = load i32*, i32** %140, align 8, !dbg !8038
  store i32* %141, i32** %72, align 8
  %142 = load i32*, i32** %72, align 8, !dbg !8039
  store %"class.std::__1::vector"* %90, %"class.std::__1::vector"** %78, align 8
  %143 = load %"class.std::__1::vector"*, %"class.std::__1::vector"** %78, align 8
  %144 = bitcast %"class.std::__1::vector"* %143 to %"class.std::__1::__vector_base"*, !dbg !8040
  store %"class.std::__1::__vector_base"* %144, %"class.std::__1::__vector_base"** %77, align 8
  %145 = load %"class.std::__1::__vector_base"*, %"class.std::__1::__vector_base"** %77, align 8
  store %"class.std::__1::__vector_base"* %145, %"class.std::__1::__vector_base"** %76, align 8
  %146 = load %"class.std::__1::__vector_base"*, %"class.std::__1::__vector_base"** %76, align 8
  %147 = getelementptr inbounds %"class.std::__1::__vector_base", %"class.std::__1::__vector_base"* %146, i32 0, i32 2, !dbg !8041
  store %"class.std::__1::__compressed_pair.4"* %147, %"class.std::__1::__compressed_pair.4"** %75, align 8
  %148 = load %"class.std::__1::__compressed_pair.4"*, %"class.std::__1::__compressed_pair.4"** %75, align 8
  %149 = bitcast %"class.std::__1::__compressed_pair.4"* %148 to %"struct.std::__1::__compressed_pair_elem.5"*, !dbg !8042
  store %"struct.std::__1::__compressed_pair_elem.5"* %149, %"struct.std::__1::__compressed_pair_elem.5"** %74, align 8
  %150 = load %"struct.std::__1::__compressed_pair_elem.5"*, %"struct.std::__1::__compressed_pair_elem.5"** %74, align 8
  %151 = getelementptr inbounds %"struct.std::__1::__compressed_pair_elem.5", %"struct.std::__1::__compressed_pair_elem.5"* %150, i32 0, i32 0, !dbg !8043
  %152 = load i32*, i32** %151, align 8, !dbg !8044
  %153 = getelementptr inbounds %"class.std::__1::__vector_base", %"class.std::__1::__vector_base"* %145, i32 0, i32 0, !dbg !8045
  %154 = load i32*, i32** %153, align 8, !dbg !8045
  %155 = ptrtoint i32* %152 to i64, !dbg !8046
  %156 = ptrtoint i32* %154 to i64, !dbg !8046
  %157 = sub i64 %155, %156, !dbg !8046
  %158 = sdiv exact i64 %157, 4, !dbg !8046
  %159 = getelementptr inbounds i32, i32* %142, i64 %158, !dbg !8047
  %160 = bitcast i32* %159 to i8*, !dbg !8048
  store %"class.std::__1::vector"* %90, %"class.std::__1::vector"** %79, align 8
  store i8* %96, i8** %80, align 8
  store i8* %119, i8** %81, align 8
  store i8* %137, i8** %82, align 8
  store i8* %160, i8** %83, align 8
  %161 = load %"class.std::__1::vector"*, %"class.std::__1::vector"** %79, align 8
  %162 = bitcast %"class.std::__1::vector"* %89 to %"class.std::__1::__vector_base"*, !dbg !8049
  store %"class.std::__1::__vector_base"* %162, %"class.std::__1::__vector_base"** %5, align 8
  %163 = load %"class.std::__1::__vector_base"*, %"class.std::__1::__vector_base"** %5, align 8
  %164 = getelementptr inbounds %"class.std::__1::__vector_base", %"class.std::__1::__vector_base"* %163, i32 0, i32 2, !dbg !8050
  store %"class.std::__1::__compressed_pair.4"* %164, %"class.std::__1::__compressed_pair.4"** %4, align 8
  %165 = load %"class.std::__1::__compressed_pair.4"*, %"class.std::__1::__compressed_pair.4"** %4, align 8
  %166 = bitcast %"class.std::__1::__compressed_pair.4"* %165 to %"struct.std::__1::__compressed_pair_elem.6"*, !dbg !8051
  store %"struct.std::__1::__compressed_pair_elem.6"* %166, %"struct.std::__1::__compressed_pair_elem.6"** %3, align 8
  %167 = load %"struct.std::__1::__compressed_pair_elem.6"*, %"struct.std::__1::__compressed_pair_elem.6"** %3, align 8
  %168 = bitcast %"struct.std::__1::__compressed_pair_elem.6"* %167 to %"class.std::__1::allocator.7"*, !dbg !8052
  %169 = bitcast %"class.std::__1::vector"* %89 to %"class.std::__1::__vector_base"*, !dbg !8053
  %170 = getelementptr inbounds %"class.std::__1::__vector_base", %"class.std::__1::__vector_base"* %169, i32 0, i32 0, !dbg !8053
  %171 = load i32*, i32** %170, align 8, !dbg !8053
  %172 = bitcast %"class.std::__1::vector"* %89 to %"class.std::__1::__vector_base"*, !dbg !8054
  %173 = getelementptr inbounds %"class.std::__1::__vector_base", %"class.std::__1::__vector_base"* %172, i32 0, i32 1, !dbg !8054
  %174 = load i32*, i32** %173, align 8, !dbg !8054
  %175 = load %"struct.std::__1::__split_buffer"*, %"struct.std::__1::__split_buffer"** %88, align 8, !dbg !8055
  %176 = getelementptr inbounds %"struct.std::__1::__split_buffer", %"struct.std::__1::__split_buffer"* %175, i32 0, i32 1, !dbg !8056
  store %"class.std::__1::allocator.7"* %168, %"class.std::__1::allocator.7"** %6, align 8
  store i32* %171, i32** %7, align 8
  store i32* %174, i32** %8, align 8
  store i32** %176, i32*** %9, align 8
  %177 = load i32*, i32** %8, align 8, !dbg !8057
  %178 = load i32*, i32** %7, align 8, !dbg !8058
  %179 = ptrtoint i32* %177 to i64, !dbg !8059
  %180 = ptrtoint i32* %178 to i64, !dbg !8059
  %181 = sub i64 %179, %180, !dbg !8059
  %182 = sdiv exact i64 %181, 4, !dbg !8059
  store i64 %182, i64* %10, align 8, !dbg !7849
  %183 = load i64, i64* %10, align 8, !dbg !8060
  %184 = load i32**, i32*** %9, align 8, !dbg !8061
  %185 = load i32*, i32** %184, align 8, !dbg !8062
  %186 = sub i64 0, %183, !dbg !8062
  %187 = getelementptr inbounds i32, i32* %185, i64 %186, !dbg !8062
  store i32* %187, i32** %184, align 8, !dbg !8062
  %188 = load i64, i64* %10, align 8, !dbg !8063
  %189 = icmp sgt i64 %188, 0, !dbg !8065
  br i1 %189, label %190, label %198, !dbg !8066

; <label>:190:                                    ; preds = %2
  %191 = load i32**, i32*** %9, align 8, !dbg !8067
  %192 = load i32*, i32** %191, align 8, !dbg !8067
  %193 = bitcast i32* %192 to i8*, !dbg !8068
  %194 = load i32*, i32** %7, align 8, !dbg !8069
  %195 = bitcast i32* %194 to i8*, !dbg !8068
  %196 = load i64, i64* %10, align 8, !dbg !8070
  %197 = mul i64 %196, 4, !dbg !8071
  call void @llvm.memcpy.p0i8.p0i8.i64(i8* align 4 %193, i8* align 4 %195, i64 %197, i1 false), !dbg !8068
  br label %198, !dbg !8068

; <label>:198:                                    ; preds = %2, %190
  %199 = bitcast %"class.std::__1::vector"* %89 to %"class.std::__1::__vector_base"*, !dbg !8072
  %200 = getelementptr inbounds %"class.std::__1::__vector_base", %"class.std::__1::__vector_base"* %199, i32 0, i32 0, !dbg !8072
  %201 = load %"struct.std::__1::__split_buffer"*, %"struct.std::__1::__split_buffer"** %88, align 8, !dbg !8073
  %202 = getelementptr inbounds %"struct.std::__1::__split_buffer", %"struct.std::__1::__split_buffer"* %201, i32 0, i32 1, !dbg !8074
  store i32** %200, i32*** %14, align 8
  store i32** %202, i32*** %15, align 8
  %203 = load i32**, i32*** %14, align 8, !dbg !8075
  store i32** %203, i32*** %13, align 8
  %204 = load i32**, i32*** %13, align 8, !dbg !8076
  %205 = load i32*, i32** %204, align 8, !dbg !8077
  store i32* %205, i32** %16, align 8, !dbg !7875
  %206 = load i32**, i32*** %15, align 8, !dbg !8078
  store i32** %206, i32*** %11, align 8
  %207 = load i32**, i32*** %11, align 8, !dbg !8079
  %208 = load i32*, i32** %207, align 8, !dbg !8080
  %209 = load i32**, i32*** %14, align 8, !dbg !8081
  store i32* %208, i32** %209, align 8, !dbg !8082
  store i32** %16, i32*** %12, align 8
  %210 = load i32**, i32*** %12, align 8, !dbg !8083
  %211 = load i32*, i32** %210, align 8, !dbg !8084
  %212 = load i32**, i32*** %15, align 8, !dbg !8085
  store i32* %211, i32** %212, align 8, !dbg !8086
  %213 = bitcast %"class.std::__1::vector"* %89 to %"class.std::__1::__vector_base"*, !dbg !8087
  %214 = getelementptr inbounds %"class.std::__1::__vector_base", %"class.std::__1::__vector_base"* %213, i32 0, i32 1, !dbg !8087
  %215 = load %"struct.std::__1::__split_buffer"*, %"struct.std::__1::__split_buffer"** %88, align 8, !dbg !8088
  %216 = getelementptr inbounds %"struct.std::__1::__split_buffer", %"struct.std::__1::__split_buffer"* %215, i32 0, i32 2, !dbg !8089
  store i32** %214, i32*** %20, align 8
  store i32** %216, i32*** %21, align 8
  %217 = load i32**, i32*** %20, align 8, !dbg !8090
  store i32** %217, i32*** %19, align 8
  %218 = load i32**, i32*** %19, align 8, !dbg !8091
  %219 = load i32*, i32** %218, align 8, !dbg !8092
  store i32* %219, i32** %22, align 8, !dbg !7885
  %220 = load i32**, i32*** %21, align 8, !dbg !8093
  store i32** %220, i32*** %17, align 8
  %221 = load i32**, i32*** %17, align 8, !dbg !8094
  %222 = load i32*, i32** %221, align 8, !dbg !8095
  %223 = load i32**, i32*** %20, align 8, !dbg !8096
  store i32* %222, i32** %223, align 8, !dbg !8097
  store i32** %22, i32*** %18, align 8
  %224 = load i32**, i32*** %18, align 8, !dbg !8098
  %225 = load i32*, i32** %224, align 8, !dbg !8099
  %226 = load i32**, i32*** %21, align 8, !dbg !8100
  store i32* %225, i32** %226, align 8, !dbg !8101
  %227 = bitcast %"class.std::__1::vector"* %89 to %"class.std::__1::__vector_base"*, !dbg !8102
  store %"class.std::__1::__vector_base"* %227, %"class.std::__1::__vector_base"** %25, align 8
  %228 = load %"class.std::__1::__vector_base"*, %"class.std::__1::__vector_base"** %25, align 8
  %229 = getelementptr inbounds %"class.std::__1::__vector_base", %"class.std::__1::__vector_base"* %228, i32 0, i32 2, !dbg !8103
  store %"class.std::__1::__compressed_pair.4"* %229, %"class.std::__1::__compressed_pair.4"** %24, align 8
  %230 = load %"class.std::__1::__compressed_pair.4"*, %"class.std::__1::__compressed_pair.4"** %24, align 8
  %231 = bitcast %"class.std::__1::__compressed_pair.4"* %230 to %"struct.std::__1::__compressed_pair_elem.5"*, !dbg !8104
  store %"struct.std::__1::__compressed_pair_elem.5"* %231, %"struct.std::__1::__compressed_pair_elem.5"** %23, align 8
  %232 = load %"struct.std::__1::__compressed_pair_elem.5"*, %"struct.std::__1::__compressed_pair_elem.5"** %23, align 8
  %233 = getelementptr inbounds %"struct.std::__1::__compressed_pair_elem.5", %"struct.std::__1::__compressed_pair_elem.5"* %232, i32 0, i32 0, !dbg !8105
  %234 = load %"struct.std::__1::__split_buffer"*, %"struct.std::__1::__split_buffer"** %88, align 8, !dbg !8106
  store %"struct.std::__1::__split_buffer"* %234, %"struct.std::__1::__split_buffer"** %28, align 8
  %235 = load %"struct.std::__1::__split_buffer"*, %"struct.std::__1::__split_buffer"** %28, align 8
  %236 = getelementptr inbounds %"struct.std::__1::__split_buffer", %"struct.std::__1::__split_buffer"* %235, i32 0, i32 3, !dbg !8107
  store %"class.std::__1::__compressed_pair.34"* %236, %"class.std::__1::__compressed_pair.34"** %27, align 8
  %237 = load %"class.std::__1::__compressed_pair.34"*, %"class.std::__1::__compressed_pair.34"** %27, align 8
  %238 = bitcast %"class.std::__1::__compressed_pair.34"* %237 to %"struct.std::__1::__compressed_pair_elem.5"*, !dbg !8108
  store %"struct.std::__1::__compressed_pair_elem.5"* %238, %"struct.std::__1::__compressed_pair_elem.5"** %26, align 8
  %239 = load %"struct.std::__1::__compressed_pair_elem.5"*, %"struct.std::__1::__compressed_pair_elem.5"** %26, align 8
  %240 = getelementptr inbounds %"struct.std::__1::__compressed_pair_elem.5", %"struct.std::__1::__compressed_pair_elem.5"* %239, i32 0, i32 0, !dbg !8109
  store i32** %233, i32*** %32, align 8
  store i32** %240, i32*** %33, align 8
  %241 = load i32**, i32*** %32, align 8, !dbg !8110
  store i32** %241, i32*** %31, align 8
  %242 = load i32**, i32*** %31, align 8, !dbg !8111
  %243 = load i32*, i32** %242, align 8, !dbg !8112
  store i32* %243, i32** %34, align 8, !dbg !7912
  %244 = load i32**, i32*** %33, align 8, !dbg !8113
  store i32** %244, i32*** %29, align 8
  %245 = load i32**, i32*** %29, align 8, !dbg !8114
  %246 = load i32*, i32** %245, align 8, !dbg !8115
  %247 = load i32**, i32*** %32, align 8, !dbg !8116
  store i32* %246, i32** %247, align 8, !dbg !8117
  store i32** %34, i32*** %30, align 8
  %248 = load i32**, i32*** %30, align 8, !dbg !8118
  %249 = load i32*, i32** %248, align 8, !dbg !8119
  %250 = load i32**, i32*** %33, align 8, !dbg !8120
  store i32* %249, i32** %250, align 8, !dbg !8121
  %251 = load %"struct.std::__1::__split_buffer"*, %"struct.std::__1::__split_buffer"** %88, align 8, !dbg !8122
  %252 = getelementptr inbounds %"struct.std::__1::__split_buffer", %"struct.std::__1::__split_buffer"* %251, i32 0, i32 1, !dbg !8123
  %253 = load i32*, i32** %252, align 8, !dbg !8123
  %254 = load %"struct.std::__1::__split_buffer"*, %"struct.std::__1::__split_buffer"** %88, align 8, !dbg !8124
  %255 = getelementptr inbounds %"struct.std::__1::__split_buffer", %"struct.std::__1::__split_buffer"* %254, i32 0, i32 0, !dbg !8125
  store i32* %253, i32** %255, align 8, !dbg !8126
  store %"class.std::__1::vector"* %89, %"class.std::__1::vector"** %35, align 8
  %256 = load %"class.std::__1::vector"*, %"class.std::__1::vector"** %35, align 8
  %257 = bitcast %"class.std::__1::vector"* %256 to %"class.std::__1::__vector_base"*, !dbg !8127
  %258 = getelementptr inbounds %"class.std::__1::__vector_base", %"class.std::__1::__vector_base"* %257, i32 0, i32 1, !dbg !8127
  %259 = load i32*, i32** %258, align 8, !dbg !8127
  %260 = bitcast %"class.std::__1::vector"* %256 to %"class.std::__1::__vector_base"*, !dbg !8128
  %261 = getelementptr inbounds %"class.std::__1::__vector_base", %"class.std::__1::__vector_base"* %260, i32 0, i32 0, !dbg !8128
  %262 = load i32*, i32** %261, align 8, !dbg !8128
  %263 = ptrtoint i32* %259 to i64, !dbg !8129
  %264 = ptrtoint i32* %262 to i64, !dbg !8129
  %265 = sub i64 %263, %264, !dbg !8129
  %266 = sdiv exact i64 %265, 4, !dbg !8129
  store %"class.std::__1::vector"* %89, %"class.std::__1::vector"** %59, align 8
  store i64 %266, i64* %60, align 8
  %267 = load %"class.std::__1::vector"*, %"class.std::__1::vector"** %59, align 8
  store %"class.std::__1::vector"* %267, %"class.std::__1::vector"** %58, align 8
  %268 = load %"class.std::__1::vector"*, %"class.std::__1::vector"** %58, align 8
  %269 = bitcast %"class.std::__1::vector"* %268 to %"class.std::__1::__vector_base"*, !dbg !8130
  %270 = getelementptr inbounds %"class.std::__1::__vector_base", %"class.std::__1::__vector_base"* %269, i32 0, i32 0, !dbg !8130
  %271 = load i32*, i32** %270, align 8, !dbg !8130
  store i32* %271, i32** %57, align 8
  %272 = load i32*, i32** %57, align 8, !dbg !8131
  %273 = bitcast i32* %272 to i8*, !dbg !8132
  store %"class.std::__1::vector"* %267, %"class.std::__1::vector"** %37, align 8
  %274 = load %"class.std::__1::vector"*, %"class.std::__1::vector"** %37, align 8
  %275 = bitcast %"class.std::__1::vector"* %274 to %"class.std::__1::__vector_base"*, !dbg !8133
  %276 = getelementptr inbounds %"class.std::__1::__vector_base", %"class.std::__1::__vector_base"* %275, i32 0, i32 0, !dbg !8133
  %277 = load i32*, i32** %276, align 8, !dbg !8133
  store i32* %277, i32** %36, align 8
  %278 = load i32*, i32** %36, align 8, !dbg !8134
  store %"class.std::__1::vector"* %267, %"class.std::__1::vector"** %42, align 8
  %279 = load %"class.std::__1::vector"*, %"class.std::__1::vector"** %42, align 8
  %280 = bitcast %"class.std::__1::vector"* %279 to %"class.std::__1::__vector_base"*, !dbg !8135
  store %"class.std::__1::__vector_base"* %280, %"class.std::__1::__vector_base"** %41, align 8
  %281 = load %"class.std::__1::__vector_base"*, %"class.std::__1::__vector_base"** %41, align 8
  store %"class.std::__1::__vector_base"* %281, %"class.std::__1::__vector_base"** %40, align 8
  %282 = load %"class.std::__1::__vector_base"*, %"class.std::__1::__vector_base"** %40, align 8
  %283 = getelementptr inbounds %"class.std::__1::__vector_base", %"class.std::__1::__vector_base"* %282, i32 0, i32 2, !dbg !8136
  store %"class.std::__1::__compressed_pair.4"* %283, %"class.std::__1::__compressed_pair.4"** %39, align 8
  %284 = load %"class.std::__1::__compressed_pair.4"*, %"class.std::__1::__compressed_pair.4"** %39, align 8
  %285 = bitcast %"class.std::__1::__compressed_pair.4"* %284 to %"struct.std::__1::__compressed_pair_elem.5"*, !dbg !8137
  store %"struct.std::__1::__compressed_pair_elem.5"* %285, %"struct.std::__1::__compressed_pair_elem.5"** %38, align 8
  %286 = load %"struct.std::__1::__compressed_pair_elem.5"*, %"struct.std::__1::__compressed_pair_elem.5"** %38, align 8
  %287 = getelementptr inbounds %"struct.std::__1::__compressed_pair_elem.5", %"struct.std::__1::__compressed_pair_elem.5"* %286, i32 0, i32 0, !dbg !8138
  %288 = load i32*, i32** %287, align 8, !dbg !8139
  %289 = getelementptr inbounds %"class.std::__1::__vector_base", %"class.std::__1::__vector_base"* %281, i32 0, i32 0, !dbg !8140
  %290 = load i32*, i32** %289, align 8, !dbg !8140
  %291 = ptrtoint i32* %288 to i64, !dbg !8141
  %292 = ptrtoint i32* %290 to i64, !dbg !8141
  %293 = sub i64 %291, %292, !dbg !8141
  %294 = sdiv exact i64 %293, 4, !dbg !8141
  %295 = getelementptr inbounds i32, i32* %278, i64 %294, !dbg !8142
  %296 = bitcast i32* %295 to i8*, !dbg !8143
  store %"class.std::__1::vector"* %267, %"class.std::__1::vector"** %44, align 8
  %297 = load %"class.std::__1::vector"*, %"class.std::__1::vector"** %44, align 8
  %298 = bitcast %"class.std::__1::vector"* %297 to %"class.std::__1::__vector_base"*, !dbg !8144
  %299 = getelementptr inbounds %"class.std::__1::__vector_base", %"class.std::__1::__vector_base"* %298, i32 0, i32 0, !dbg !8144
  %300 = load i32*, i32** %299, align 8, !dbg !8144
  store i32* %300, i32** %43, align 8
  %301 = load i32*, i32** %43, align 8, !dbg !8145
  store %"class.std::__1::vector"* %267, %"class.std::__1::vector"** %49, align 8
  %302 = load %"class.std::__1::vector"*, %"class.std::__1::vector"** %49, align 8
  %303 = bitcast %"class.std::__1::vector"* %302 to %"class.std::__1::__vector_base"*, !dbg !8146
  store %"class.std::__1::__vector_base"* %303, %"class.std::__1::__vector_base"** %48, align 8
  %304 = load %"class.std::__1::__vector_base"*, %"class.std::__1::__vector_base"** %48, align 8
  store %"class.std::__1::__vector_base"* %304, %"class.std::__1::__vector_base"** %47, align 8
  %305 = load %"class.std::__1::__vector_base"*, %"class.std::__1::__vector_base"** %47, align 8
  %306 = getelementptr inbounds %"class.std::__1::__vector_base", %"class.std::__1::__vector_base"* %305, i32 0, i32 2, !dbg !8147
  store %"class.std::__1::__compressed_pair.4"* %306, %"class.std::__1::__compressed_pair.4"** %46, align 8
  %307 = load %"class.std::__1::__compressed_pair.4"*, %"class.std::__1::__compressed_pair.4"** %46, align 8
  %308 = bitcast %"class.std::__1::__compressed_pair.4"* %307 to %"struct.std::__1::__compressed_pair_elem.5"*, !dbg !8148
  store %"struct.std::__1::__compressed_pair_elem.5"* %308, %"struct.std::__1::__compressed_pair_elem.5"** %45, align 8
  %309 = load %"struct.std::__1::__compressed_pair_elem.5"*, %"struct.std::__1::__compressed_pair_elem.5"** %45, align 8
  %310 = getelementptr inbounds %"struct.std::__1::__compressed_pair_elem.5", %"struct.std::__1::__compressed_pair_elem.5"* %309, i32 0, i32 0, !dbg !8149
  %311 = load i32*, i32** %310, align 8, !dbg !8150
  %312 = getelementptr inbounds %"class.std::__1::__vector_base", %"class.std::__1::__vector_base"* %304, i32 0, i32 0, !dbg !8151
  %313 = load i32*, i32** %312, align 8, !dbg !8151
  %314 = ptrtoint i32* %311 to i64, !dbg !8152
  %315 = ptrtoint i32* %313 to i64, !dbg !8152
  %316 = sub i64 %314, %315, !dbg !8152
  %317 = sdiv exact i64 %316, 4, !dbg !8152
  %318 = getelementptr inbounds i32, i32* %301, i64 %317, !dbg !8153
  %319 = bitcast i32* %318 to i8*, !dbg !8154
  store %"class.std::__1::vector"* %267, %"class.std::__1::vector"** %51, align 8
  %320 = load %"class.std::__1::vector"*, %"class.std::__1::vector"** %51, align 8
  %321 = bitcast %"class.std::__1::vector"* %320 to %"class.std::__1::__vector_base"*, !dbg !8155
  %322 = getelementptr inbounds %"class.std::__1::__vector_base", %"class.std::__1::__vector_base"* %321, i32 0, i32 0, !dbg !8155
  %323 = load i32*, i32** %322, align 8, !dbg !8155
  store i32* %323, i32** %50, align 8
  %324 = load i32*, i32** %50, align 8, !dbg !8156
  %325 = load i64, i64* %60, align 8, !dbg !8157
  %326 = getelementptr inbounds i32, i32* %324, i64 %325, !dbg !8158
  %327 = bitcast i32* %326 to i8*, !dbg !8159
  store %"class.std::__1::vector"* %267, %"class.std::__1::vector"** %52, align 8
  store i8* %273, i8** %53, align 8
  store i8* %296, i8** %54, align 8
  store i8* %319, i8** %55, align 8
  store i8* %327, i8** %56, align 8
  %328 = load %"class.std::__1::vector"*, %"class.std::__1::vector"** %52, align 8
  store %"class.std::__1::vector"* %89, %"class.std::__1::vector"** %61, align 8
  %329 = load %"class.std::__1::vector"*, %"class.std::__1::vector"** %61, align 8
  ret void, !dbg !8160
}

; Function Attrs: noinline nounwind optnone ssp uwtable
define linkonce_odr void @_ZNSt3__114__split_bufferIN14altered_carbon2js14ACLexTokenTypeERNS_9allocatorIS3_EEED1Ev(%"struct.std::__1::__split_buffer"*) unnamed_addr #1 align 2 !dbg !8161 {
  %2 = alloca %"struct.std::__1::__split_buffer"*, align 8
  store %"struct.std::__1::__split_buffer"* %0, %"struct.std::__1::__split_buffer"** %2, align 8
  call void @llvm.dbg.declare(metadata %"struct.std::__1::__split_buffer"** %2, metadata !8162, metadata !DIExpression()), !dbg !8163
  %3 = load %"struct.std::__1::__split_buffer"*, %"struct.std::__1::__split_buffer"** %2, align 8
  call void @_ZNSt3__114__split_bufferIN14altered_carbon2js14ACLexTokenTypeERNS_9allocatorIS3_EEED2Ev(%"struct.std::__1::__split_buffer"* %3) #2, !dbg !8164
  ret void, !dbg !8165
}

; Function Attrs: noinline nounwind optnone ssp uwtable
define linkonce_odr i64 @_ZNKSt3__16vectorIN14altered_carbon2js14ACLexTokenTypeENS_9allocatorIS3_EEE8max_sizeEv(%"class.std::__1::vector"*) #1 align 2 !dbg !8166 {
  %2 = alloca %"class.std::__1::allocator.7"*, align 8
  call void @llvm.dbg.declare(metadata %"class.std::__1::allocator.7"** %2, metadata !8167, metadata !DIExpression()), !dbg !8170
  %3 = alloca %"class.std::__1::allocator.7"*, align 8
  call void @llvm.dbg.declare(metadata %"class.std::__1::allocator.7"** %3, metadata !8176, metadata !DIExpression()), !dbg !8177
  %4 = alloca %"class.std::__1::allocator.7"*, align 8
  call void @llvm.dbg.declare(metadata %"class.std::__1::allocator.7"** %4, metadata !8178, metadata !DIExpression()), !dbg !8179
  %5 = alloca %"struct.std::__1::integral_constant", align 1
  %6 = alloca %"struct.std::__1::__has_max_size", align 1
  %7 = alloca %"struct.std::__1::__less"*, align 8
  call void @llvm.dbg.declare(metadata %"struct.std::__1::__less"** %7, metadata !7661, metadata !DIExpression()), !dbg !8180
  %8 = alloca i64*, align 8
  call void @llvm.dbg.declare(metadata i64** %8, metadata !7689, metadata !DIExpression()), !dbg !8186
  %9 = alloca i64*, align 8
  call void @llvm.dbg.declare(metadata i64** %9, metadata !7691, metadata !DIExpression()), !dbg !8187
  %10 = alloca %"struct.std::__1::__less", align 1
  call void @llvm.dbg.declare(metadata %"struct.std::__1::__less"* %10, metadata !8188, metadata !DIExpression()), !dbg !8189
  %11 = alloca i64*, align 8
  call void @llvm.dbg.declare(metadata i64** %11, metadata !8190, metadata !DIExpression()), !dbg !8191
  %12 = alloca i64*, align 8
  call void @llvm.dbg.declare(metadata i64** %12, metadata !8192, metadata !DIExpression()), !dbg !8193
  %13 = alloca i64*, align 8
  call void @llvm.dbg.declare(metadata i64** %13, metadata !8194, metadata !DIExpression()), !dbg !8195
  %14 = alloca i64*, align 8
  call void @llvm.dbg.declare(metadata i64** %14, metadata !8196, metadata !DIExpression()), !dbg !8197
  %15 = alloca %"struct.std::__1::__less", align 1
  %16 = alloca %"struct.std::__1::__compressed_pair_elem.6"*, align 8
  call void @llvm.dbg.declare(metadata %"struct.std::__1::__compressed_pair_elem.6"** %16, metadata !8198, metadata !DIExpression()), !dbg !8201
  %17 = alloca %"class.std::__1::__compressed_pair.4"*, align 8
  call void @llvm.dbg.declare(metadata %"class.std::__1::__compressed_pair.4"** %17, metadata !8207, metadata !DIExpression()), !dbg !8208
  %18 = alloca %"class.std::__1::__vector_base"*, align 8
  call void @llvm.dbg.declare(metadata %"class.std::__1::__vector_base"** %18, metadata !8209, metadata !DIExpression()), !dbg !8210
  %19 = alloca %"class.std::__1::vector"*, align 8
  %20 = alloca i64, align 8
  %21 = alloca i64, align 8
  store %"class.std::__1::vector"* %0, %"class.std::__1::vector"** %19, align 8
  call void @llvm.dbg.declare(metadata %"class.std::__1::vector"** %19, metadata !8211, metadata !DIExpression()), !dbg !8212
  %22 = load %"class.std::__1::vector"*, %"class.std::__1::vector"** %19, align 8
  %23 = bitcast %"class.std::__1::vector"* %22 to %"class.std::__1::__vector_base"*, !dbg !8213
  store %"class.std::__1::__vector_base"* %23, %"class.std::__1::__vector_base"** %18, align 8
  %24 = load %"class.std::__1::__vector_base"*, %"class.std::__1::__vector_base"** %18, align 8
  %25 = getelementptr inbounds %"class.std::__1::__vector_base", %"class.std::__1::__vector_base"* %24, i32 0, i32 2, !dbg !8214
  store %"class.std::__1::__compressed_pair.4"* %25, %"class.std::__1::__compressed_pair.4"** %17, align 8
  %26 = load %"class.std::__1::__compressed_pair.4"*, %"class.std::__1::__compressed_pair.4"** %17, align 8
  %27 = bitcast %"class.std::__1::__compressed_pair.4"* %26 to %"struct.std::__1::__compressed_pair_elem.6"*, !dbg !8215
  store %"struct.std::__1::__compressed_pair_elem.6"* %27, %"struct.std::__1::__compressed_pair_elem.6"** %16, align 8
  %28 = load %"struct.std::__1::__compressed_pair_elem.6"*, %"struct.std::__1::__compressed_pair_elem.6"** %16, align 8
  %29 = bitcast %"struct.std::__1::__compressed_pair_elem.6"* %28 to %"class.std::__1::allocator.7"*, !dbg !8216
  store %"class.std::__1::allocator.7"* %29, %"class.std::__1::allocator.7"** %4, align 8
  %30 = bitcast %"struct.std::__1::__has_max_size"* %6 to %"struct.std::__1::integral_constant"*, !dbg !8217
  %31 = load %"class.std::__1::allocator.7"*, %"class.std::__1::allocator.7"** %4, align 8, !dbg !8218
  call void @llvm.dbg.declare(metadata !90, metadata !8219, metadata !DIExpression()), !dbg !8220
  store %"class.std::__1::allocator.7"* %31, %"class.std::__1::allocator.7"** %3, align 8
  %32 = load %"class.std::__1::allocator.7"*, %"class.std::__1::allocator.7"** %3, align 8, !dbg !8221
  store %"class.std::__1::allocator.7"* %32, %"class.std::__1::allocator.7"** %2, align 8
  %33 = load %"class.std::__1::allocator.7"*, %"class.std::__1::allocator.7"** %2, align 8
  store i64 4611686018427387903, i64* %20, align 8, !dbg !8222
  store i64 9223372036854775807, i64* %21, align 8, !dbg !8223
  store i64* %20, i64** %13, align 8
  store i64* %21, i64** %14, align 8
  %34 = load i64*, i64** %13, align 8, !dbg !8224
  %35 = load i64*, i64** %14, align 8, !dbg !8225
  store i64* %34, i64** %11, align 8
  store i64* %35, i64** %12, align 8
  %36 = load i64*, i64** %12, align 8, !dbg !8226
  %37 = load i64*, i64** %11, align 8, !dbg !8227
  store %"struct.std::__1::__less"* %10, %"struct.std::__1::__less"** %7, align 8
  store i64* %36, i64** %8, align 8
  store i64* %37, i64** %9, align 8
  %38 = load %"struct.std::__1::__less"*, %"struct.std::__1::__less"** %7, align 8
  %39 = load i64*, i64** %8, align 8, !dbg !8228
  %40 = load i64, i64* %39, align 8, !dbg !8228
  %41 = load i64*, i64** %9, align 8, !dbg !8229
  %42 = load i64, i64* %41, align 8, !dbg !8229
  %43 = icmp ult i64 %40, %42, !dbg !8230
  br i1 %43, label %44, label %46, !dbg !8231

; <label>:44:                                     ; preds = %1
  %45 = load i64*, i64** %12, align 8, !dbg !8232
  br label %48, !dbg !8231

; <label>:46:                                     ; preds = %1
  %47 = load i64*, i64** %11, align 8, !dbg !8233
  br label %48, !dbg !8231

; <label>:48:                                     ; preds = %44, %46
  %49 = phi i64* [ %45, %44 ], [ %47, %46 ], !dbg !8231
  %50 = load i64, i64* %49, align 8, !dbg !8234
  ret i64 %50, !dbg !8235
}

; Function Attrs: noreturn
declare void @_ZNKSt3__120__vector_base_commonILb1EE20__throw_length_errorEv(%"class.std::__1::__vector_base_common"*) #7

; Function Attrs: noinline nounwind optnone ssp uwtable
define linkonce_odr void @_ZNSt3__114__split_bufferIN14altered_carbon2js14ACLexTokenTypeERNS_9allocatorIS3_EEEC2EmmS6_(%"struct.std::__1::__split_buffer"*, i64, i64, %"class.std::__1::allocator.7"* dereferenceable(1)) unnamed_addr #1 align 2 !dbg !8236 {
  %5 = alloca %"struct.std::__1::__compressed_pair_elem.35"*, align 8
  call void @llvm.dbg.declare(metadata %"struct.std::__1::__compressed_pair_elem.35"** %5, metadata !8237, metadata !DIExpression()), !dbg !8240
  %6 = alloca %"class.std::__1::__compressed_pair.34"*, align 8
  call void @llvm.dbg.declare(metadata %"class.std::__1::__compressed_pair.34"** %6, metadata !8247, metadata !DIExpression()), !dbg !8248
  %7 = alloca %"struct.std::__1::__split_buffer"*, align 8
  call void @llvm.dbg.declare(metadata %"struct.std::__1::__split_buffer"** %7, metadata !8249, metadata !DIExpression()), !dbg !8250
  %8 = alloca i8*, align 8
  call void @llvm.dbg.declare(metadata i8** %8, metadata !8251, metadata !DIExpression()), !dbg !8254
  %9 = alloca i64, align 8
  call void @llvm.dbg.declare(metadata i64* %9, metadata !8261, metadata !DIExpression()), !dbg !8263
  %10 = alloca %"class.std::__1::allocator.7"*, align 8
  call void @llvm.dbg.declare(metadata %"class.std::__1::allocator.7"** %10, metadata !8167, metadata !DIExpression()), !dbg !8265
  %11 = alloca %"class.std::__1::allocator.7"*, align 8
  call void @llvm.dbg.declare(metadata %"class.std::__1::allocator.7"** %11, metadata !8267, metadata !DIExpression()), !dbg !8268
  %12 = alloca i64, align 8
  call void @llvm.dbg.declare(metadata i64* %12, metadata !8269, metadata !DIExpression()), !dbg !8270
  %13 = alloca i8*, align 8
  call void @llvm.dbg.declare(metadata i8** %13, metadata !8271, metadata !DIExpression()), !dbg !8272
  %14 = alloca %"class.std::__1::allocator.7"*, align 8
  call void @llvm.dbg.declare(metadata %"class.std::__1::allocator.7"** %14, metadata !8273, metadata !DIExpression()), !dbg !8274
  %15 = alloca i64, align 8
  call void @llvm.dbg.declare(metadata i64* %15, metadata !8275, metadata !DIExpression()), !dbg !8276
  %16 = alloca %"struct.std::__1::__compressed_pair_elem.5"*, align 8
  call void @llvm.dbg.declare(metadata %"struct.std::__1::__compressed_pair_elem.5"** %16, metadata !6954, metadata !DIExpression()), !dbg !8277
  %17 = alloca %"class.std::__1::__compressed_pair.34"*, align 8
  call void @llvm.dbg.declare(metadata %"class.std::__1::__compressed_pair.34"** %17, metadata !7898, metadata !DIExpression()), !dbg !8281
  %18 = alloca %"struct.std::__1::__split_buffer"*, align 8
  call void @llvm.dbg.declare(metadata %"struct.std::__1::__split_buffer"** %18, metadata !7901, metadata !DIExpression()), !dbg !8282
  %19 = alloca i8**, align 8
  call void @llvm.dbg.declare(metadata i8*** %19, metadata !6417, metadata !DIExpression()), !dbg !8283
  %20 = alloca %"struct.std::__1::__compressed_pair_elem.5"*, align 8
  call void @llvm.dbg.declare(metadata %"struct.std::__1::__compressed_pair_elem.5"** %20, metadata !6451, metadata !DIExpression()), !dbg !8296
  %21 = alloca i8**, align 8
  call void @llvm.dbg.declare(metadata i8*** %21, metadata !6454, metadata !DIExpression()), !dbg !8297
  %22 = alloca %"class.std::__1::allocator.7"*, align 8
  call void @llvm.dbg.declare(metadata %"class.std::__1::allocator.7"** %22, metadata !8298, metadata !DIExpression()), !dbg !8303
  %23 = alloca %"class.std::__1::allocator.7"*, align 8
  call void @llvm.dbg.declare(metadata %"class.std::__1::allocator.7"** %23, metadata !8298, metadata !DIExpression()), !dbg !8305
  %24 = alloca %"struct.std::__1::__compressed_pair_elem.35"*, align 8
  call void @llvm.dbg.declare(metadata %"struct.std::__1::__compressed_pair_elem.35"** %24, metadata !8314, metadata !DIExpression()), !dbg !8315
  %25 = alloca %"class.std::__1::allocator.7"*, align 8
  call void @llvm.dbg.declare(metadata %"class.std::__1::allocator.7"** %25, metadata !8316, metadata !DIExpression()), !dbg !8317
  %26 = alloca i8**, align 8
  call void @llvm.dbg.declare(metadata i8*** %26, metadata !6417, metadata !DIExpression()), !dbg !8318
  %27 = alloca %"class.std::__1::__compressed_pair.34"*, align 8
  call void @llvm.dbg.declare(metadata %"class.std::__1::__compressed_pair.34"** %27, metadata !8320, metadata !DIExpression()), !dbg !8321
  %28 = alloca i8**, align 8
  call void @llvm.dbg.declare(metadata i8*** %28, metadata !8322, metadata !DIExpression()), !dbg !8323
  %29 = alloca %"class.std::__1::allocator.7"*, align 8
  call void @llvm.dbg.declare(metadata %"class.std::__1::allocator.7"** %29, metadata !8324, metadata !DIExpression()), !dbg !8325
  %30 = alloca %"class.std::__1::__compressed_pair.34"*, align 8
  call void @llvm.dbg.declare(metadata %"class.std::__1::__compressed_pair.34"** %30, metadata !8326, metadata !DIExpression()), !dbg !8327
  %31 = alloca i8**, align 8
  call void @llvm.dbg.declare(metadata i8*** %31, metadata !8328, metadata !DIExpression()), !dbg !8329
  %32 = alloca %"class.std::__1::allocator.7"*, align 8
  call void @llvm.dbg.declare(metadata %"class.std::__1::allocator.7"** %32, metadata !8330, metadata !DIExpression()), !dbg !8331
  %33 = alloca %"struct.std::__1::__split_buffer"*, align 8
  %34 = alloca i64, align 8
  %35 = alloca i64, align 8
  %36 = alloca %"class.std::__1::allocator.7"*, align 8
  %37 = alloca i8*, align 8
  store %"struct.std::__1::__split_buffer"* %0, %"struct.std::__1::__split_buffer"** %33, align 8
  call void @llvm.dbg.declare(metadata %"struct.std::__1::__split_buffer"** %33, metadata !8332, metadata !DIExpression()), !dbg !8333
  store i64 %1, i64* %34, align 8
  call void @llvm.dbg.declare(metadata i64* %34, metadata !8334, metadata !DIExpression()), !dbg !8335
  store i64 %2, i64* %35, align 8
  call void @llvm.dbg.declare(metadata i64* %35, metadata !8336, metadata !DIExpression()), !dbg !8337
  store %"class.std::__1::allocator.7"* %3, %"class.std::__1::allocator.7"** %36, align 8
  call void @llvm.dbg.declare(metadata %"class.std::__1::allocator.7"** %36, metadata !8338, metadata !DIExpression()), !dbg !8339
  %38 = load %"struct.std::__1::__split_buffer"*, %"struct.std::__1::__split_buffer"** %33, align 8
  %39 = bitcast %"struct.std::__1::__split_buffer"* %38 to %"class.std::__1::__split_buffer_common"*, !dbg !8340
  %40 = getelementptr inbounds %"struct.std::__1::__split_buffer", %"struct.std::__1::__split_buffer"* %38, i32 0, i32 3, !dbg !8341
  store i8* null, i8** %37, align 8, !dbg !8342
  %41 = load %"class.std::__1::allocator.7"*, %"class.std::__1::allocator.7"** %36, align 8, !dbg !8343
  store %"class.std::__1::__compressed_pair.34"* %40, %"class.std::__1::__compressed_pair.34"** %30, align 8
  store i8** %37, i8*** %31, align 8
  store %"class.std::__1::allocator.7"* %41, %"class.std::__1::allocator.7"** %32, align 8
  %42 = load %"class.std::__1::__compressed_pair.34"*, %"class.std::__1::__compressed_pair.34"** %30, align 8
  %43 = load i8**, i8*** %31, align 8, !dbg !8344
  %44 = load %"class.std::__1::allocator.7"*, %"class.std::__1::allocator.7"** %32, align 8, !dbg !8344
  store %"class.std::__1::__compressed_pair.34"* %42, %"class.std::__1::__compressed_pair.34"** %27, align 8
  store i8** %43, i8*** %28, align 8
  store %"class.std::__1::allocator.7"* %44, %"class.std::__1::allocator.7"** %29, align 8
  %45 = load %"class.std::__1::__compressed_pair.34"*, %"class.std::__1::__compressed_pair.34"** %27, align 8
  %46 = bitcast %"class.std::__1::__compressed_pair.34"* %45 to %"struct.std::__1::__compressed_pair_elem.5"*, !dbg !8345
  %47 = load i8**, i8*** %28, align 8, !dbg !8346
  store i8** %47, i8*** %26, align 8
  %48 = load i8**, i8*** %26, align 8, !dbg !8347
  store %"struct.std::__1::__compressed_pair_elem.5"* %46, %"struct.std::__1::__compressed_pair_elem.5"** %20, align 8
  store i8** %48, i8*** %21, align 8
  %49 = load %"struct.std::__1::__compressed_pair_elem.5"*, %"struct.std::__1::__compressed_pair_elem.5"** %20, align 8
  %50 = getelementptr inbounds %"struct.std::__1::__compressed_pair_elem.5", %"struct.std::__1::__compressed_pair_elem.5"* %49, i32 0, i32 0, !dbg !8348
  %51 = load i8**, i8*** %21, align 8, !dbg !8349
  store i8** %51, i8*** %19, align 8
  %52 = load i8**, i8*** %19, align 8, !dbg !8350
  %53 = load i8*, i8** %52, align 8, !dbg !8351
  store i32* null, i32** %50, align 8, !dbg !8348
  %54 = bitcast %"class.std::__1::__compressed_pair.34"* %45 to i8*, !dbg !8345
  %55 = getelementptr inbounds i8, i8* %54, i64 8, !dbg !8345
  %56 = bitcast i8* %55 to %"struct.std::__1::__compressed_pair_elem.35"*, !dbg !8345
  %57 = load %"class.std::__1::allocator.7"*, %"class.std::__1::allocator.7"** %29, align 8, !dbg !8352
  store %"class.std::__1::allocator.7"* %57, %"class.std::__1::allocator.7"** %22, align 8
  %58 = load %"class.std::__1::allocator.7"*, %"class.std::__1::allocator.7"** %22, align 8, !dbg !8353
  store %"struct.std::__1::__compressed_pair_elem.35"* %56, %"struct.std::__1::__compressed_pair_elem.35"** %24, align 8
  store %"class.std::__1::allocator.7"* %58, %"class.std::__1::allocator.7"** %25, align 8
  %59 = load %"struct.std::__1::__compressed_pair_elem.35"*, %"struct.std::__1::__compressed_pair_elem.35"** %24, align 8
  %60 = getelementptr inbounds %"struct.std::__1::__compressed_pair_elem.35", %"struct.std::__1::__compressed_pair_elem.35"* %59, i32 0, i32 0, !dbg !8354
  %61 = load %"class.std::__1::allocator.7"*, %"class.std::__1::allocator.7"** %25, align 8, !dbg !8355
  store %"class.std::__1::allocator.7"* %61, %"class.std::__1::allocator.7"** %23, align 8
  %62 = load %"class.std::__1::allocator.7"*, %"class.std::__1::allocator.7"** %23, align 8, !dbg !8356
  store %"class.std::__1::allocator.7"* %62, %"class.std::__1::allocator.7"** %60, align 8, !dbg !8354
  %63 = load i64, i64* %34, align 8, !dbg !8357
  %64 = icmp ne i64 %63, 0, !dbg !8358
  br i1 %64, label %65, label %89, !dbg !8357

; <label>:65:                                     ; preds = %4
  store %"struct.std::__1::__split_buffer"* %38, %"struct.std::__1::__split_buffer"** %7, align 8
  %66 = load %"struct.std::__1::__split_buffer"*, %"struct.std::__1::__split_buffer"** %7, align 8
  %67 = getelementptr inbounds %"struct.std::__1::__split_buffer", %"struct.std::__1::__split_buffer"* %66, i32 0, i32 3, !dbg !8359
  store %"class.std::__1::__compressed_pair.34"* %67, %"class.std::__1::__compressed_pair.34"** %6, align 8
  %68 = load %"class.std::__1::__compressed_pair.34"*, %"class.std::__1::__compressed_pair.34"** %6, align 8
  %69 = bitcast %"class.std::__1::__compressed_pair.34"* %68 to i8*, !dbg !8360
  %70 = getelementptr inbounds i8, i8* %69, i64 8, !dbg !8360
  %71 = bitcast i8* %70 to %"struct.std::__1::__compressed_pair_elem.35"*, !dbg !8360
  store %"struct.std::__1::__compressed_pair_elem.35"* %71, %"struct.std::__1::__compressed_pair_elem.35"** %5, align 8
  %72 = load %"struct.std::__1::__compressed_pair_elem.35"*, %"struct.std::__1::__compressed_pair_elem.35"** %5, align 8
  %73 = getelementptr inbounds %"struct.std::__1::__compressed_pair_elem.35", %"struct.std::__1::__compressed_pair_elem.35"* %72, i32 0, i32 0, !dbg !8361
  %74 = load %"class.std::__1::allocator.7"*, %"class.std::__1::allocator.7"** %73, align 8, !dbg !8361
  %75 = load i64, i64* %34, align 8, !dbg !8362
  store %"class.std::__1::allocator.7"* %74, %"class.std::__1::allocator.7"** %14, align 8
  store i64 %75, i64* %15, align 8
  %76 = load %"class.std::__1::allocator.7"*, %"class.std::__1::allocator.7"** %14, align 8, !dbg !8363
  %77 = load i64, i64* %15, align 8, !dbg !8364
  store %"class.std::__1::allocator.7"* %76, %"class.std::__1::allocator.7"** %11, align 8
  store i64 %77, i64* %12, align 8
  store i8* null, i8** %13, align 8
  %78 = load %"class.std::__1::allocator.7"*, %"class.std::__1::allocator.7"** %11, align 8
  %79 = load i64, i64* %12, align 8, !dbg !8365
  store %"class.std::__1::allocator.7"* %78, %"class.std::__1::allocator.7"** %10, align 8
  %80 = load %"class.std::__1::allocator.7"*, %"class.std::__1::allocator.7"** %10, align 8
  %81 = icmp ugt i64 %79, 4611686018427387903, !dbg !8366
  br i1 %81, label %82, label %83, !dbg !8367

; <label>:82:                                     ; preds = %65
  store i8* getelementptr inbounds ([68 x i8], [68 x i8]* @.str, i32 0, i32 0), i8** %8, align 8
  call void @abort() #11, !dbg !8368
  unreachable, !dbg !8368

; <label>:83:                                     ; preds = %65
  %84 = load i64, i64* %12, align 8, !dbg !8369
  %85 = mul i64 %84, 4, !dbg !8370
  store i64 %85, i64* %9, align 8
  %86 = load i64, i64* %9, align 8, !dbg !8371
  %87 = call i8* @_Znwm(i64 %86) #10, !dbg !8372
  %88 = bitcast i8* %87 to i32*, !dbg !8373
  br label %90, !dbg !8357

; <label>:89:                                     ; preds = %4
  br label %90, !dbg !8357

; <label>:90:                                     ; preds = %89, %83
  %91 = phi i32* [ %88, %83 ], [ null, %89 ], !dbg !8357
  %92 = getelementptr inbounds %"struct.std::__1::__split_buffer", %"struct.std::__1::__split_buffer"* %38, i32 0, i32 0, !dbg !8374
  store i32* %91, i32** %92, align 8, !dbg !8375
  %93 = getelementptr inbounds %"struct.std::__1::__split_buffer", %"struct.std::__1::__split_buffer"* %38, i32 0, i32 0, !dbg !8376
  %94 = load i32*, i32** %93, align 8, !dbg !8376
  %95 = load i64, i64* %35, align 8, !dbg !8377
  %96 = getelementptr inbounds i32, i32* %94, i64 %95, !dbg !8378
  %97 = getelementptr inbounds %"struct.std::__1::__split_buffer", %"struct.std::__1::__split_buffer"* %38, i32 0, i32 2, !dbg !8379
  store i32* %96, i32** %97, align 8, !dbg !8380
  %98 = getelementptr inbounds %"struct.std::__1::__split_buffer", %"struct.std::__1::__split_buffer"* %38, i32 0, i32 1, !dbg !8381
  store i32* %96, i32** %98, align 8, !dbg !8382
  %99 = getelementptr inbounds %"struct.std::__1::__split_buffer", %"struct.std::__1::__split_buffer"* %38, i32 0, i32 0, !dbg !8383
  %100 = load i32*, i32** %99, align 8, !dbg !8383
  %101 = load i64, i64* %34, align 8, !dbg !8384
  %102 = getelementptr inbounds i32, i32* %100, i64 %101, !dbg !8385
  store %"struct.std::__1::__split_buffer"* %38, %"struct.std::__1::__split_buffer"** %18, align 8
  %103 = load %"struct.std::__1::__split_buffer"*, %"struct.std::__1::__split_buffer"** %18, align 8
  %104 = getelementptr inbounds %"struct.std::__1::__split_buffer", %"struct.std::__1::__split_buffer"* %103, i32 0, i32 3, !dbg !8386
  store %"class.std::__1::__compressed_pair.34"* %104, %"class.std::__1::__compressed_pair.34"** %17, align 8
  %105 = load %"class.std::__1::__compressed_pair.34"*, %"class.std::__1::__compressed_pair.34"** %17, align 8
  %106 = bitcast %"class.std::__1::__compressed_pair.34"* %105 to %"struct.std::__1::__compressed_pair_elem.5"*, !dbg !8387
  store %"struct.std::__1::__compressed_pair_elem.5"* %106, %"struct.std::__1::__compressed_pair_elem.5"** %16, align 8
  %107 = load %"struct.std::__1::__compressed_pair_elem.5"*, %"struct.std::__1::__compressed_pair_elem.5"** %16, align 8
  %108 = getelementptr inbounds %"struct.std::__1::__compressed_pair_elem.5", %"struct.std::__1::__compressed_pair_elem.5"* %107, i32 0, i32 0, !dbg !8388
  store i32* %102, i32** %108, align 8, !dbg !8389
  ret void, !dbg !8390
}

; Function Attrs: noreturn
declare void @abort() #7

; Function Attrs: nobuiltin
declare noalias i8* @_Znwm(i64) #8

; Function Attrs: noinline nounwind optnone ssp uwtable
define linkonce_odr void @_ZNSt3__114__split_bufferIN14altered_carbon2js14ACLexTokenTypeERNS_9allocatorIS3_EEED2Ev(%"struct.std::__1::__split_buffer"*) unnamed_addr #1 align 2 !dbg !8391 {
  %2 = alloca %"struct.std::__1::__compressed_pair_elem.5"*, align 8
  call void @llvm.dbg.declare(metadata %"struct.std::__1::__compressed_pair_elem.5"** %2, metadata !6607, metadata !DIExpression()), !dbg !8392
  %3 = alloca %"class.std::__1::__compressed_pair.34"*, align 8
  call void @llvm.dbg.declare(metadata %"class.std::__1::__compressed_pair.34"** %3, metadata !8402, metadata !DIExpression()), !dbg !8404
  %4 = alloca %"struct.std::__1::__split_buffer"*, align 8
  call void @llvm.dbg.declare(metadata %"struct.std::__1::__split_buffer"** %4, metadata !8405, metadata !DIExpression()), !dbg !8407
  %5 = alloca %"struct.std::__1::__split_buffer"*, align 8
  call void @llvm.dbg.declare(metadata %"struct.std::__1::__split_buffer"** %5, metadata !8408, metadata !DIExpression()), !dbg !8409
  %6 = alloca %"struct.std::__1::__compressed_pair_elem.35"*, align 8
  call void @llvm.dbg.declare(metadata %"struct.std::__1::__compressed_pair_elem.35"** %6, metadata !8237, metadata !DIExpression()), !dbg !8410
  %7 = alloca %"class.std::__1::__compressed_pair.34"*, align 8
  call void @llvm.dbg.declare(metadata %"class.std::__1::__compressed_pair.34"** %7, metadata !8247, metadata !DIExpression()), !dbg !8414
  %8 = alloca %"struct.std::__1::__split_buffer"*, align 8
  call void @llvm.dbg.declare(metadata %"struct.std::__1::__split_buffer"** %8, metadata !8249, metadata !DIExpression()), !dbg !8415
  %9 = alloca i8*, align 8
  call void @llvm.dbg.declare(metadata i8** %9, metadata !7555, metadata !DIExpression()), !dbg !8416
  %10 = alloca %"class.std::__1::allocator.7"*, align 8
  call void @llvm.dbg.declare(metadata %"class.std::__1::allocator.7"** %10, metadata !8422, metadata !DIExpression()), !dbg !8423
  %11 = alloca i32*, align 8
  call void @llvm.dbg.declare(metadata i32** %11, metadata !8424, metadata !DIExpression()), !dbg !8425
  %12 = alloca i64, align 8
  call void @llvm.dbg.declare(metadata i64* %12, metadata !8426, metadata !DIExpression()), !dbg !8427
  %13 = alloca %"class.std::__1::allocator.7"*, align 8
  call void @llvm.dbg.declare(metadata %"class.std::__1::allocator.7"** %13, metadata !8428, metadata !DIExpression()), !dbg !8429
  %14 = alloca i32*, align 8
  call void @llvm.dbg.declare(metadata i32** %14, metadata !8430, metadata !DIExpression()), !dbg !8431
  %15 = alloca i64, align 8
  call void @llvm.dbg.declare(metadata i64* %15, metadata !8432, metadata !DIExpression()), !dbg !8433
  %16 = alloca i32*, align 8
  call void @llvm.dbg.declare(metadata i32** %16, metadata !6542, metadata !DIExpression()), !dbg !8434
  %17 = alloca %"class.std::__1::allocator.7"*, align 8
  call void @llvm.dbg.declare(metadata %"class.std::__1::allocator.7"** %17, metadata !6554, metadata !DIExpression()), !dbg !8442
  %18 = alloca i32*, align 8
  call void @llvm.dbg.declare(metadata i32** %18, metadata !6568, metadata !DIExpression()), !dbg !8446
  %19 = alloca %"class.std::__1::allocator.7"*, align 8
  call void @llvm.dbg.declare(metadata %"class.std::__1::allocator.7"** %19, metadata !6570, metadata !DIExpression()), !dbg !8447
  %20 = alloca i32*, align 8
  call void @llvm.dbg.declare(metadata i32** %20, metadata !6572, metadata !DIExpression()), !dbg !8448
  %21 = alloca %"class.std::__1::allocator.7"*, align 8
  call void @llvm.dbg.declare(metadata %"class.std::__1::allocator.7"** %21, metadata !6574, metadata !DIExpression()), !dbg !8449
  %22 = alloca i32*, align 8
  call void @llvm.dbg.declare(metadata i32** %22, metadata !6576, metadata !DIExpression()), !dbg !8450
  %23 = alloca %"struct.std::__1::__has_destroy", align 1
  %24 = alloca %"struct.std::__1::__compressed_pair_elem.35"*, align 8
  call void @llvm.dbg.declare(metadata %"struct.std::__1::__compressed_pair_elem.35"** %24, metadata !8237, metadata !DIExpression()), !dbg !8451
  %25 = alloca %"class.std::__1::__compressed_pair.34"*, align 8
  call void @llvm.dbg.declare(metadata %"class.std::__1::__compressed_pair.34"** %25, metadata !8247, metadata !DIExpression()), !dbg !8455
  %26 = alloca %"struct.std::__1::__split_buffer"*, align 8
  call void @llvm.dbg.declare(metadata %"struct.std::__1::__split_buffer"** %26, metadata !8249, metadata !DIExpression()), !dbg !8456
  %27 = alloca %"struct.std::__1::__split_buffer"*, align 8
  call void @llvm.dbg.declare(metadata %"struct.std::__1::__split_buffer"** %27, metadata !8457, metadata !DIExpression()), !dbg !8458
  %28 = alloca i32*, align 8
  call void @llvm.dbg.declare(metadata i32** %28, metadata !8459, metadata !DIExpression()), !dbg !8460
  %29 = alloca %"struct.std::__1::__split_buffer"*, align 8
  call void @llvm.dbg.declare(metadata %"struct.std::__1::__split_buffer"** %29, metadata !8461, metadata !DIExpression()), !dbg !8462
  %30 = alloca i32*, align 8
  call void @llvm.dbg.declare(metadata i32** %30, metadata !8463, metadata !DIExpression()), !dbg !8464
  %31 = alloca %"struct.std::__1::__split_buffer"*, align 8
  call void @llvm.dbg.declare(metadata %"struct.std::__1::__split_buffer"** %31, metadata !8465, metadata !DIExpression()), !dbg !8466
  %32 = alloca %"struct.std::__1::__split_buffer"*, align 8
  store %"struct.std::__1::__split_buffer"* %0, %"struct.std::__1::__split_buffer"** %32, align 8
  call void @llvm.dbg.declare(metadata %"struct.std::__1::__split_buffer"** %32, metadata !8467, metadata !DIExpression()), !dbg !8468
  %33 = load %"struct.std::__1::__split_buffer"*, %"struct.std::__1::__split_buffer"** %32, align 8
  store %"struct.std::__1::__split_buffer"* %33, %"struct.std::__1::__split_buffer"** %31, align 8
  %34 = load %"struct.std::__1::__split_buffer"*, %"struct.std::__1::__split_buffer"** %31, align 8
  %35 = getelementptr inbounds %"struct.std::__1::__split_buffer", %"struct.std::__1::__split_buffer"* %34, i32 0, i32 1, !dbg !8469
  %36 = load i32*, i32** %35, align 8, !dbg !8469
  store %"struct.std::__1::__split_buffer"* %34, %"struct.std::__1::__split_buffer"** %29, align 8
  store i32* %36, i32** %30, align 8
  %37 = load %"struct.std::__1::__split_buffer"*, %"struct.std::__1::__split_buffer"** %29, align 8
  %38 = load i32*, i32** %30, align 8, !dbg !8470
  store %"struct.std::__1::__split_buffer"* %37, %"struct.std::__1::__split_buffer"** %27, align 8
  store i32* %38, i32** %28, align 8
  call void @llvm.dbg.declare(metadata !90, metadata !8471, metadata !DIExpression()), !dbg !8472
  %39 = load %"struct.std::__1::__split_buffer"*, %"struct.std::__1::__split_buffer"** %27, align 8
  br label %40, !dbg !8473

; <label>:40:                                     ; preds = %45, %1
  %41 = load i32*, i32** %28, align 8, !dbg !8474
  %42 = getelementptr inbounds %"struct.std::__1::__split_buffer", %"struct.std::__1::__split_buffer"* %39, i32 0, i32 2, !dbg !8475
  %43 = load i32*, i32** %42, align 8, !dbg !8475
  %44 = icmp ne i32* %41, %43, !dbg !8476
  br i1 %44, label %45, label %65, !dbg !8473

; <label>:45:                                     ; preds = %40
  store %"struct.std::__1::__split_buffer"* %39, %"struct.std::__1::__split_buffer"** %26, align 8
  %46 = load %"struct.std::__1::__split_buffer"*, %"struct.std::__1::__split_buffer"** %26, align 8
  %47 = getelementptr inbounds %"struct.std::__1::__split_buffer", %"struct.std::__1::__split_buffer"* %46, i32 0, i32 3, !dbg !8477
  store %"class.std::__1::__compressed_pair.34"* %47, %"class.std::__1::__compressed_pair.34"** %25, align 8
  %48 = load %"class.std::__1::__compressed_pair.34"*, %"class.std::__1::__compressed_pair.34"** %25, align 8
  %49 = bitcast %"class.std::__1::__compressed_pair.34"* %48 to i8*, !dbg !8478
  %50 = getelementptr inbounds i8, i8* %49, i64 8, !dbg !8478
  %51 = bitcast i8* %50 to %"struct.std::__1::__compressed_pair_elem.35"*, !dbg !8478
  store %"struct.std::__1::__compressed_pair_elem.35"* %51, %"struct.std::__1::__compressed_pair_elem.35"** %24, align 8
  %52 = load %"struct.std::__1::__compressed_pair_elem.35"*, %"struct.std::__1::__compressed_pair_elem.35"** %24, align 8
  %53 = getelementptr inbounds %"struct.std::__1::__compressed_pair_elem.35", %"struct.std::__1::__compressed_pair_elem.35"* %52, i32 0, i32 0, !dbg !8479
  %54 = load %"class.std::__1::allocator.7"*, %"class.std::__1::allocator.7"** %53, align 8, !dbg !8479
  %55 = getelementptr inbounds %"struct.std::__1::__split_buffer", %"struct.std::__1::__split_buffer"* %39, i32 0, i32 2, !dbg !8480
  %56 = load i32*, i32** %55, align 8, !dbg !8481
  %57 = getelementptr inbounds i32, i32* %56, i32 -1, !dbg !8481
  store i32* %57, i32** %55, align 8, !dbg !8481
  store i32* %57, i32** %16, align 8
  %58 = load i32*, i32** %16, align 8, !dbg !8482
  store %"class.std::__1::allocator.7"* %54, %"class.std::__1::allocator.7"** %21, align 8
  store i32* %58, i32** %22, align 8
  %59 = bitcast %"struct.std::__1::__has_destroy"* %23 to %"struct.std::__1::integral_constant"*, !dbg !8483
  %60 = load %"class.std::__1::allocator.7"*, %"class.std::__1::allocator.7"** %21, align 8, !dbg !8484
  %61 = load i32*, i32** %22, align 8, !dbg !8485
  call void @llvm.dbg.declare(metadata !90, metadata !6700, metadata !DIExpression()), !dbg !8486
  store %"class.std::__1::allocator.7"* %60, %"class.std::__1::allocator.7"** %19, align 8
  store i32* %61, i32** %20, align 8
  %62 = load %"class.std::__1::allocator.7"*, %"class.std::__1::allocator.7"** %19, align 8, !dbg !8487
  %63 = load i32*, i32** %20, align 8, !dbg !8488
  store %"class.std::__1::allocator.7"* %62, %"class.std::__1::allocator.7"** %17, align 8
  store i32* %63, i32** %18, align 8
  %64 = load %"class.std::__1::allocator.7"*, %"class.std::__1::allocator.7"** %17, align 8
  br label %40, !dbg !8473, !llvm.loop !8489

; <label>:65:                                     ; preds = %40
  %66 = getelementptr inbounds %"struct.std::__1::__split_buffer", %"struct.std::__1::__split_buffer"* %33, i32 0, i32 0, !dbg !8492
  %67 = load i32*, i32** %66, align 8, !dbg !8492
  %68 = icmp ne i32* %67, null, !dbg !8492
  br i1 %68, label %69, label %102, !dbg !8493

; <label>:69:                                     ; preds = %65
  store %"struct.std::__1::__split_buffer"* %33, %"struct.std::__1::__split_buffer"** %8, align 8
  %70 = load %"struct.std::__1::__split_buffer"*, %"struct.std::__1::__split_buffer"** %8, align 8
  %71 = getelementptr inbounds %"struct.std::__1::__split_buffer", %"struct.std::__1::__split_buffer"* %70, i32 0, i32 3, !dbg !8494
  store %"class.std::__1::__compressed_pair.34"* %71, %"class.std::__1::__compressed_pair.34"** %7, align 8
  %72 = load %"class.std::__1::__compressed_pair.34"*, %"class.std::__1::__compressed_pair.34"** %7, align 8
  %73 = bitcast %"class.std::__1::__compressed_pair.34"* %72 to i8*, !dbg !8495
  %74 = getelementptr inbounds i8, i8* %73, i64 8, !dbg !8495
  %75 = bitcast i8* %74 to %"struct.std::__1::__compressed_pair_elem.35"*, !dbg !8495
  store %"struct.std::__1::__compressed_pair_elem.35"* %75, %"struct.std::__1::__compressed_pair_elem.35"** %6, align 8
  %76 = load %"struct.std::__1::__compressed_pair_elem.35"*, %"struct.std::__1::__compressed_pair_elem.35"** %6, align 8
  %77 = getelementptr inbounds %"struct.std::__1::__compressed_pair_elem.35", %"struct.std::__1::__compressed_pair_elem.35"* %76, i32 0, i32 0, !dbg !8496
  %78 = load %"class.std::__1::allocator.7"*, %"class.std::__1::allocator.7"** %77, align 8, !dbg !8496
  %79 = getelementptr inbounds %"struct.std::__1::__split_buffer", %"struct.std::__1::__split_buffer"* %33, i32 0, i32 0, !dbg !8497
  %80 = load i32*, i32** %79, align 8, !dbg !8497
  store %"struct.std::__1::__split_buffer"* %33, %"struct.std::__1::__split_buffer"** %5, align 8
  %81 = load %"struct.std::__1::__split_buffer"*, %"struct.std::__1::__split_buffer"** %5, align 8
  store %"struct.std::__1::__split_buffer"* %81, %"struct.std::__1::__split_buffer"** %4, align 8
  %82 = load %"struct.std::__1::__split_buffer"*, %"struct.std::__1::__split_buffer"** %4, align 8
  %83 = getelementptr inbounds %"struct.std::__1::__split_buffer", %"struct.std::__1::__split_buffer"* %82, i32 0, i32 3, !dbg !8498
  store %"class.std::__1::__compressed_pair.34"* %83, %"class.std::__1::__compressed_pair.34"** %3, align 8
  %84 = load %"class.std::__1::__compressed_pair.34"*, %"class.std::__1::__compressed_pair.34"** %3, align 8
  %85 = bitcast %"class.std::__1::__compressed_pair.34"* %84 to %"struct.std::__1::__compressed_pair_elem.5"*, !dbg !8499
  store %"struct.std::__1::__compressed_pair_elem.5"* %85, %"struct.std::__1::__compressed_pair_elem.5"** %2, align 8
  %86 = load %"struct.std::__1::__compressed_pair_elem.5"*, %"struct.std::__1::__compressed_pair_elem.5"** %2, align 8
  %87 = getelementptr inbounds %"struct.std::__1::__compressed_pair_elem.5", %"struct.std::__1::__compressed_pair_elem.5"* %86, i32 0, i32 0, !dbg !8500
  %88 = load i32*, i32** %87, align 8, !dbg !8501
  %89 = getelementptr inbounds %"struct.std::__1::__split_buffer", %"struct.std::__1::__split_buffer"* %81, i32 0, i32 0, !dbg !8502
  %90 = load i32*, i32** %89, align 8, !dbg !8502
  %91 = ptrtoint i32* %88 to i64, !dbg !8503
  %92 = ptrtoint i32* %90 to i64, !dbg !8503
  %93 = sub i64 %91, %92, !dbg !8503
  %94 = sdiv exact i64 %93, 4, !dbg !8503
  store %"class.std::__1::allocator.7"* %78, %"class.std::__1::allocator.7"** %13, align 8
  store i32* %80, i32** %14, align 8
  store i64 %94, i64* %15, align 8
  %95 = load %"class.std::__1::allocator.7"*, %"class.std::__1::allocator.7"** %13, align 8, !dbg !8504
  %96 = load i32*, i32** %14, align 8, !dbg !8505
  %97 = load i64, i64* %15, align 8, !dbg !8506
  store %"class.std::__1::allocator.7"* %95, %"class.std::__1::allocator.7"** %10, align 8
  store i32* %96, i32** %11, align 8
  store i64 %97, i64* %12, align 8
  %98 = load %"class.std::__1::allocator.7"*, %"class.std::__1::allocator.7"** %10, align 8
  %99 = load i32*, i32** %11, align 8, !dbg !8507
  %100 = bitcast i32* %99 to i8*, !dbg !8507
  store i8* %100, i8** %9, align 8
  %101 = load i8*, i8** %9, align 8, !dbg !8508
  call void @_ZdlPv(i8* %101) #10, !dbg !8509
  br label %102, !dbg !8510

; <label>:102:                                    ; preds = %69, %65
  ret void, !dbg !8511
}

; Function Attrs: noinline nounwind optnone ssp uwtable
define linkonce_odr hidden void @_ZN14altered_carbon2js10ACLexStateD2Ev(%"class.altered_carbon::js::ACLexState"*) unnamed_addr #1 align 2 !dbg !8512 {
  %2 = alloca %"class.altered_carbon::js::ACLexState"*, align 8
  store %"class.altered_carbon::js::ACLexState"* %0, %"class.altered_carbon::js::ACLexState"** %2, align 8
  call void @llvm.dbg.declare(metadata %"class.altered_carbon::js::ACLexState"** %2, metadata !8513, metadata !DIExpression()), !dbg !8514
  %3 = load %"class.altered_carbon::js::ACLexState"*, %"class.altered_carbon::js::ACLexState"** %2, align 8
  %4 = bitcast %"class.altered_carbon::js::ACLexState"* %3 to i32 (...)***, !dbg !8515
  store i32 (...)** bitcast (i8** getelementptr inbounds ({ [4 x i8*] }, { [4 x i8*] }* @_ZTVN14altered_carbon2js10ACLexStateE, i32 0, inrange i32 0, i32 2) to i32 (...)**), i32 (...)*** %4, align 8, !dbg !8515
  %5 = getelementptr inbounds %"class.altered_carbon::js::ACLexState", %"class.altered_carbon::js::ACLexState"* %3, i32 0, i32 6, !dbg !8516
  call void @_ZNSt3__16vectorIN14altered_carbon2js14ACLexTokenTypeENS_9allocatorIS3_EEED1Ev(%"class.std::__1::vector"* %5) #2, !dbg !8516
  %6 = getelementptr inbounds %"class.altered_carbon::js::ACLexState", %"class.altered_carbon::js::ACLexState"* %3, i32 0, i32 5, !dbg !8516
  call void @_ZNSt3__13mapINS_12basic_stringIwNS_11char_traitsIwEENS_9allocatorIwEEEEPN14altered_carbon2js13ACAstBaseNodeENS_4lessIS6_EENS4_INS_4pairIKS6_SA_EEEEED1Ev(%"class.std::__1::map"* %6) #2, !dbg !8516
  ret void, !dbg !8518
}

; Function Attrs: noinline nounwind optnone ssp uwtable
define linkonce_odr hidden void @_ZNSt3__16vectorIN14altered_carbon2js14ACLexTokenTypeENS_9allocatorIS3_EEED1Ev(%"class.std::__1::vector"*) unnamed_addr #1 align 2 !dbg !8519 {
  %2 = alloca %"class.std::__1::vector"*, align 8
  store %"class.std::__1::vector"* %0, %"class.std::__1::vector"** %2, align 8
  call void @llvm.dbg.declare(metadata %"class.std::__1::vector"** %2, metadata !8521, metadata !DIExpression()), !dbg !8522
  %3 = load %"class.std::__1::vector"*, %"class.std::__1::vector"** %2, align 8
  call void @_ZNSt3__16vectorIN14altered_carbon2js14ACLexTokenTypeENS_9allocatorIS3_EEED2Ev(%"class.std::__1::vector"* %3) #2, !dbg !8523
  ret void, !dbg !8523
}

; Function Attrs: noinline nounwind optnone ssp uwtable
define linkonce_odr hidden void @_ZNSt3__13mapINS_12basic_stringIwNS_11char_traitsIwEENS_9allocatorIwEEEEPN14altered_carbon2js13ACAstBaseNodeENS_4lessIS6_EENS4_INS_4pairIKS6_SA_EEEEED1Ev(%"class.std::__1::map"*) unnamed_addr #1 align 2 !dbg !8524 {
  %2 = alloca %"class.std::__1::map"*, align 8
  store %"class.std::__1::map"* %0, %"class.std::__1::map"** %2, align 8
  call void @llvm.dbg.declare(metadata %"class.std::__1::map"** %2, metadata !8526, metadata !DIExpression()), !dbg !8527
  %3 = load %"class.std::__1::map"*, %"class.std::__1::map"** %2, align 8
  call void @_ZNSt3__13mapINS_12basic_stringIwNS_11char_traitsIwEENS_9allocatorIwEEEEPN14altered_carbon2js13ACAstBaseNodeENS_4lessIS6_EENS4_INS_4pairIKS6_SA_EEEEED2Ev(%"class.std::__1::map"* %3) #2, !dbg !8528
  ret void, !dbg !8528
}

; Function Attrs: noinline nounwind optnone ssp uwtable
define linkonce_odr hidden void @_ZNSt3__16vectorIN14altered_carbon2js14ACLexTokenTypeENS_9allocatorIS3_EEED2Ev(%"class.std::__1::vector"*) unnamed_addr #1 align 2 !dbg !8529 {
  %2 = alloca %"class.std::__1::vector"*, align 8
