; ModuleID = 'temp.bc'
source_filename = "../ac_lex_numbers.cc"
target datalayout = "e-m:o-i64:64-f80:128-n8:16:32:64-S128"
target triple = "x86_64-apple-macosx10.13.0"

%"class.altered_carbon::js::NullStream" = type { %"class.altered_carbon::js::NullStreamBuf", %"class.std::__1::basic_ostream.base", %"class.std::__1::basic_ios.base" }
%"class.altered_carbon::js::NullStreamBuf" = type { %"class.std::__1::basic_streambuf", [256 x i8] }
%"class.std::__1::basic_streambuf" = type { i32 (...)**, %"class.std::__1::locale", i8*, i8*, i8*, i8*, i8*, i8* }
%"class.std::__1::locale" = type { %"class.std::__1::locale::__imp"* }
%"class.std::__1::locale::__imp" = type opaque
%"class.std::__1::basic_ostream.base" = type { i32 (...)** }
%"class.std::__1::basic_ios.base" = type <{ %"class.std::__1::ios_base", %"class.std::__1::basic_ostream"*, i32 }>
%"class.std::__1::ios_base" = type { i32 (...)**, i32, i64, i64, i32, i32, i8*, i8*, void (i32, %"class.std::__1::ios_base"*, i32)**, i32*, i64, i64, i64*, i64, i64, i8**, i64, i64 }
%"class.std::__1::basic_ostream" = type { i32 (...)**, %"class.std::__1::basic_ios.base" }
%"class.std::__1::locale::id" = type <{ %"struct.std::__1::once_flag", i32, [4 x i8] }>
%"struct.std::__1::once_flag" = type { i64 }
%"class.std::__1::basic_ios" = type <{ %"class.std::__1::ios_base", %"class.std::__1::basic_ostream"*, i32, [4 x i8] }>
%"class.altered_carbon::js::ACJsParser" = type { i32 (...)**, i8*, %"class.std::__1::basic_string", i8*, i8, i32, i8, i8, i32, i32, %"class.altered_carbon::js::ACLexState", %"struct.altered_carbon::js::ACLexPosition", %"struct.altered_carbon::js::ACLexPosition", %"struct.altered_carbon::js::ACLexPosition", %"class.std::__1::unique_ptr" }
%"class.std::__1::basic_string" = type { %"class.std::__1::__compressed_pair" }
%"class.std::__1::__compressed_pair" = type { %"struct.std::__1::__compressed_pair_elem" }
%"struct.std::__1::__compressed_pair_elem" = type { %"struct.std::__1::basic_string<char, std::__1::char_traits<char>, std::__1::allocator<char> >::__rep" }
%"struct.std::__1::basic_string<char, std::__1::char_traits<char>, std::__1::allocator<char> >::__rep" = type { %union.anon }
%union.anon = type { %"struct.std::__1::basic_string<char, std::__1::char_traits<char>, std::__1::allocator<char> >::__long" }
%"struct.std::__1::basic_string<char, std::__1::char_traits<char>, std::__1::allocator<char> >::__long" = type { i64, i64, i8* }
%"class.altered_carbon::js::ACLexState" = type { i32 (...)**, i32, %"struct.altered_carbon::js::BlockLevelState", i8, i8, %"class.std::__1::map", %"class.std::__1::vector" }
%"struct.altered_carbon::js::BlockLevelState" = type { i8, i8, i8 }
%"class.std::__1::map" = type { %"class.std::__1::__tree" }
%"class.std::__1::__tree" = type { %"class.std::__1::__tree_end_node"*, %"class.std::__1::__compressed_pair.2", %"class.std::__1::__compressed_pair.7" }
%"class.std::__1::__tree_end_node" = type { %"class.std::__1::__tree_node_base"* }
%"class.std::__1::__tree_node_base" = type <{ %"class.std::__1::__tree_end_node", %"class.std::__1::__tree_node_base"*, %"class.std::__1::__tree_end_node"*, i8, [7 x i8] }>
%"class.std::__1::__compressed_pair.2" = type { %"struct.std::__1::__compressed_pair_elem.3" }
%"struct.std::__1::__compressed_pair_elem.3" = type { %"class.std::__1::__tree_end_node" }
%"class.std::__1::__compressed_pair.7" = type { %"struct.std::__1::__compressed_pair_elem.8" }
%"struct.std::__1::__compressed_pair_elem.8" = type { i64 }
%"class.std::__1::vector" = type { %"class.std::__1::__vector_base" }
%"class.std::__1::__vector_base" = type { i32*, i32*, %"class.std::__1::__compressed_pair.10" }
%"class.std::__1::__compressed_pair.10" = type { %"struct.std::__1::__compressed_pair_elem.11" }
%"struct.std::__1::__compressed_pair_elem.11" = type { i32* }
%"struct.altered_carbon::js::ACLexPosition" = type { i32 (...)**, i64, i32, i64 }
%"class.std::__1::unique_ptr" = type { %"class.std::__1::__compressed_pair.15" }
%"class.std::__1::__compressed_pair.15" = type { %"struct.std::__1::__compressed_pair_elem.16" }
%"struct.std::__1::__compressed_pair_elem.16" = type { %"class.altered_carbon::js::ACLexToken"* }
%"class.altered_carbon::js::ACLexToken" = type { i32 (...)**, i32, i64, %"class.std::__1::basic_string_view", %"struct.altered_carbon::js::ACLexPosition", %"class.std::__1::basic_string.17" }
%"class.std::__1::basic_string_view" = type { i8*, i64 }
%"class.std::__1::basic_string.17" = type { %"class.std::__1::__compressed_pair.18" }
%"class.std::__1::__compressed_pair.18" = type { %"struct.std::__1::__compressed_pair_elem.19" }
%"struct.std::__1::__compressed_pair_elem.19" = type { %"struct.std::__1::basic_string<wchar_t, std::__1::char_traits<wchar_t>, std::__1::allocator<wchar_t> >::__rep" }
%"struct.std::__1::basic_string<wchar_t, std::__1::char_traits<wchar_t>, std::__1::allocator<wchar_t> >::__rep" = type { %union.anon.20 }
%union.anon.20 = type { %"struct.std::__1::basic_string<wchar_t, std::__1::char_traits<wchar_t>, std::__1::allocator<wchar_t> >::__long" }
%"struct.std::__1::basic_string<wchar_t, std::__1::char_traits<wchar_t>, std::__1::allocator<wchar_t> >::__long" = type { i64, i64, i32* }
%"struct.std::__1::__compressed_pair_elem.30" = type { i8 }
%"class.std::__1::__compressed_pair.27" = type { %"struct.std::__1::__compressed_pair_elem.28" }
%"struct.std::__1::__compressed_pair_elem.28" = type { %"class.altered_carbon::js::ACLexNumberToken"* }
%"class.altered_carbon::js::ACLexNumberToken" = type <{ %"class.altered_carbon::js::ACLexToken", %"class.altered_carbon::js::ACLexNumber", i32, [4 x i8] }>
%"class.altered_carbon::js::ACLexNumber" = type { i32 (...)**, i8, %union.anon.29 }
%union.anon.29 = type { double }
%"struct.std::__1::default_delete.31" = type { i8 }
%"class.std::__1::unique_ptr.26" = type { %"class.std::__1::__compressed_pair.27" }
%"struct.std::__1::default_delete" = type { i8 }
%"struct.std::__1::__compressed_pair_elem.25" = type { i8 }
%"class.std::__1::allocator" = type { i8 }
%"struct.std::__1::__compressed_pair_elem.1" = type { i8 }
%"class.std::__1::__basic_string_common" = type { i8 }
%"struct.std::__1::basic_string<char, std::__1::char_traits<char>, std::__1::allocator<char> >::__raw" = type { [3 x i64] }
%"class.std::__1::ctype" = type <{ %"class.std::__1::locale::facet", i32*, i8, [7 x i8] }>
%"class.std::__1::locale::facet" = type { %"class.std::__1::__shared_count" }
%"class.std::__1::__shared_count" = type { i32 (...)**, i64 }
%"class.std::__1::ostreambuf_iterator" = type { %"class.std::__1::basic_streambuf"* }
%"class.std::__1::basic_ostream<char, std::__1::char_traits<char> >::sentry" = type { i8, %"class.std::__1::basic_ostream"* }
%"struct.std::__1::iterator" = type { i8 }
%"struct.std::__1::basic_string<char, std::__1::char_traits<char>, std::__1::allocator<char> >::__short" = type { %union.anon.0, [23 x i8] }
%union.anon.0 = type { i8 }

@_ZN14altered_carbon2jsL9BlackHoleE = internal global %"class.altered_carbon::js::NullStream" zeroinitializer, align 8, !dbg !0
@__dso_handle = external hidden global i8
@_ZN14altered_carbon2jsL10HEX_LOOKUPE = internal constant [55 x i32] [i32 0, i32 1, i32 2, i32 3, i32 4, i32 5, i32 6, i32 7, i32 8, i32 9, i32 0, i32 0, i32 0, i32 0, i32 0, i32 0, i32 0, i32 10, i32 11, i32 12, i32 13, i32 14, i32 15, i32 0, i32 0, i32 0, i32 0, i32 0, i32 0, i32 0, i32 0, i32 0, i32 0, i32 0, i32 0, i32 0, i32 0, i32 0, i32 0, i32 0, i32 0, i32 0, i32 0, i32 0, i32 0, i32 0, i32 0, i32 0, i32 0, i32 10, i32 11, i32 12, i32 13, i32 14, i32 15], align 16, !dbg !1577
@.str = private unnamed_addr constant [10 x i8] c"\1B[1m\1B[31m\00", align 1
@.str.1 = private unnamed_addr constant [9 x i8] c"[ACLex] \00", align 1
@.str.2 = private unnamed_addr constant [5 x i8] c"\1B[0m\00", align 1
@.str.3 = private unnamed_addr constant [23 x i8] c"Invalid number literal\00", align 1
@.str.4 = private unnamed_addr constant [10 x i8] c" around [\00", align 1
@.str.5 = private unnamed_addr constant [3 x i8] c"] \00", align 1
@.str.6 = private unnamed_addr constant [3 x i8] c".\0A\00", align 1
@.str.7 = private unnamed_addr constant [34 x i8] c"Invalid number literal start char\00", align 1
@.str.8 = private unnamed_addr constant [3 x i8] c"][\00", align 1
@.str.9 = private unnamed_addr constant [6 x i8] c"\1B[31m\00", align 1
@.str.10 = private unnamed_addr constant [44 x i8] c"Hex number above the range limit (2^53 - 1)\00", align 1
@.str.11 = private unnamed_addr constant [46 x i8] c"Octal number above the range limit (2^53 - 1)\00", align 1
@.str.12 = private unnamed_addr constant [47 x i8] c"Binary number above the range limit (2^53 - 1)\00", align 1
@_ZTVN14altered_carbon2js10NullStreamE = linkonce_odr unnamed_addr constant { [17 x i8*], [5 x i8*], [5 x i8*] } { [17 x i8*] [i8* inttoptr (i64 328 to i8*), i8* null, i8* bitcast ({ i8*, i8*, i32, i32, i8*, i64, i8*, i64 }* @_ZTIN14altered_carbon2js10NullStreamE to i8*), i8* bitcast (void (%"class.altered_carbon::js::NullStream"*)* @_ZN14altered_carbon2js10NullStreamD1Ev to i8*), i8* bitcast (void (%"class.altered_carbon::js::NullStream"*)* @_ZN14altered_carbon2js10NullStreamD0Ev to i8*), i8* bitcast (void (%"class.std::__1::basic_streambuf"*, %"class.std::__1::locale"*)* @_ZNSt3__115basic_streambufIcNS_11char_traitsIcEEE5imbueERKNS_6localeE to i8*), i8* bitcast (%"class.std::__1::basic_streambuf"* (%"class.std::__1::basic_streambuf"*, i8*, i64)* @_ZNSt3__115basic_streambufIcNS_11char_traitsIcEEE6setbufEPcl to i8*), i8* bitcast (void ()* @_ZNSt3__115basic_streambufIcNS_11char_traitsIcEEE7seekoffExNS_8ios_base7seekdirEj to i8*), i8* bitcast (void ()* @_ZNSt3__115basic_streambufIcNS_11char_traitsIcEEE7seekposENS_4fposI11__mbstate_tEEj to i8*), i8* bitcast (i32 (%"class.std::__1::basic_streambuf"*)* @_ZNSt3__115basic_streambufIcNS_11char_traitsIcEEE4syncEv to i8*), i8* bitcast (i64 (%"class.std::__1::basic_streambuf"*)* @_ZNSt3__115basic_streambufIcNS_11char_traitsIcEEE9showmanycEv to i8*), i8* bitcast (i64 (%"class.std::__1::basic_streambuf"*, i8*, i64)* @_ZNSt3__115basic_streambufIcNS_11char_traitsIcEEE6xsgetnEPcl to i8*), i8* bitcast (i32 (%"class.std::__1::basic_streambuf"*)* @_ZNSt3__115basic_streambufIcNS_11char_traitsIcEEE9underflowEv to i8*), i8* bitcast (i32 (%"class.std::__1::basic_streambuf"*)* @_ZNSt3__115basic_streambufIcNS_11char_traitsIcEEE5uflowEv to i8*), i8* bitcast (i32 (%"class.std::__1::basic_streambuf"*, i32)* @_ZNSt3__115basic_streambufIcNS_11char_traitsIcEEE9pbackfailEi to i8*), i8* bitcast (i64 (%"class.std::__1::basic_streambuf"*, i8*, i64)* @_ZNSt3__115basic_streambufIcNS_11char_traitsIcEEE6xsputnEPKcl to i8*), i8* bitcast (i32 (%"class.altered_carbon::js::NullStreamBuf"*, i32)* @_ZN14altered_carbon2js13NullStreamBuf8overflowEi to i8*)], [5 x i8*] [i8* inttoptr (i64 8 to i8*), i8* inttoptr (i64 -320 to i8*), i8* bitcast ({ i8*, i8*, i32, i32, i8*, i64, i8*, i64 }* @_ZTIN14altered_carbon2js10NullStreamE to i8*), i8* bitcast (void (%"class.altered_carbon::js::NullStream"*)* @_ZThn320_N14altered_carbon2js10NullStreamD1Ev to i8*), i8* bitcast (void (%"class.altered_carbon::js::NullStream"*)* @_ZThn320_N14altered_carbon2js10NullStreamD0Ev to i8*)], [5 x i8*] [i8* inttoptr (i64 -328 to i8*), i8* inttoptr (i64 -328 to i8*), i8* bitcast ({ i8*, i8*, i32, i32, i8*, i64, i8*, i64 }* @_ZTIN14altered_carbon2js10NullStreamE to i8*), i8* bitcast (void (%"class.altered_carbon::js::NullStream"*)* @_ZTv0_n24_N14altered_carbon2js10NullStreamD1Ev to i8*), i8* bitcast (void (%"class.altered_carbon::js::NullStream"*)* @_ZTv0_n24_N14altered_carbon2js10NullStreamD0Ev to i8*)] }, align 8
@_ZTTN14altered_carbon2js10NullStreamE = linkonce_odr unnamed_addr constant [5 x i8*] [i8* bitcast (i8** getelementptr inbounds ({ [17 x i8*], [5 x i8*], [5 x i8*] }, { [17 x i8*], [5 x i8*], [5 x i8*] }* @_ZTVN14altered_carbon2js10NullStreamE, i32 0, inrange i32 0, i32 3) to i8*), i8* bitcast (i8** getelementptr inbounds ({ [5 x i8*], [5 x i8*] }, { [5 x i8*], [5 x i8*] }* @_ZTCN14altered_carbon2js10NullStreamE320_NSt3__113basic_ostreamIcNS1_11char_traitsIcEEEE, i32 0, inrange i32 0, i32 3) to i8*), i8* bitcast (i8** getelementptr inbounds ({ [5 x i8*], [5 x i8*] }, { [5 x i8*], [5 x i8*] }* @_ZTCN14altered_carbon2js10NullStreamE320_NSt3__113basic_ostreamIcNS1_11char_traitsIcEEEE, i32 0, inrange i32 1, i32 3) to i8*), i8* bitcast (i8** getelementptr inbounds ({ [17 x i8*], [5 x i8*], [5 x i8*] }, { [17 x i8*], [5 x i8*], [5 x i8*] }* @_ZTVN14altered_carbon2js10NullStreamE, i32 0, inrange i32 1, i32 3) to i8*), i8* bitcast (i8** getelementptr inbounds ({ [17 x i8*], [5 x i8*], [5 x i8*] }, { [17 x i8*], [5 x i8*], [5 x i8*] }* @_ZTVN14altered_carbon2js10NullStreamE, i32 0, inrange i32 2, i32 3) to i8*)]
@_ZTCN14altered_carbon2js10NullStreamE320_NSt3__113basic_ostreamIcNS1_11char_traitsIcEEEE = linkonce_odr unnamed_addr constant { [5 x i8*], [5 x i8*] } { [5 x i8*] [i8* inttoptr (i64 8 to i8*), i8* null, i8* bitcast (i8** @_ZTINSt3__113basic_ostreamIcNS_11char_traitsIcEEEE to i8*), i8* bitcast (void (%"class.std::__1::basic_ostream"*)* @_ZNSt3__113basic_ostreamIcNS_11char_traitsIcEEED1Ev to i8*), i8* bitcast (void (%"class.std::__1::basic_ostream"*)* @_ZNSt3__113basic_ostreamIcNS_11char_traitsIcEEED0Ev to i8*)], [5 x i8*] [i8* inttoptr (i64 -8 to i8*), i8* inttoptr (i64 -8 to i8*), i8* bitcast (i8** @_ZTINSt3__113basic_ostreamIcNS_11char_traitsIcEEEE to i8*), i8* bitcast (void (%"class.std::__1::basic_ostream"*)* @_ZTv0_n24_NSt3__113basic_ostreamIcNS_11char_traitsIcEEED1Ev to i8*), i8* bitcast (void (%"class.std::__1::basic_ostream"*)* @_ZTv0_n24_NSt3__113basic_ostreamIcNS_11char_traitsIcEEED0Ev to i8*)] }
@_ZTINSt3__113basic_ostreamIcNS_11char_traitsIcEEEE = external constant i8*
@_ZTVN10__cxxabiv121__vmi_class_type_infoE = external global i8*
@_ZTSN14altered_carbon2js10NullStreamE = linkonce_odr constant [34 x i8] c"N14altered_carbon2js10NullStreamE\00"
@_ZTIN14altered_carbon2js13NullStreamBufE = external constant i8*
@_ZTIN14altered_carbon2js10NullStreamE = linkonce_odr constant { i8*, i8*, i32, i32, i8*, i64, i8*, i64 } { i8* bitcast (i8** getelementptr inbounds (i8*, i8** @_ZTVN10__cxxabiv121__vmi_class_type_infoE, i64 2) to i8*), i8* getelementptr inbounds ([34 x i8], [34 x i8]* @_ZTSN14altered_carbon2js10NullStreamE, i32 0, i32 0), i32 0, i32 2, i8* bitcast (i8** @_ZTIN14altered_carbon2js13NullStreamBufE to i8*), i64 0, i8* bitcast (i8** @_ZTINSt3__113basic_ostreamIcNS_11char_traitsIcEEEE to i8*), i64 81922 }
@_ZTVNSt3__19basic_iosIcNS_11char_traitsIcEEEE = external unnamed_addr constant { [4 x i8*] }
@_ZTVNSt3__18ios_baseE = external unnamed_addr constant { [4 x i8*] }
@_ZTVN14altered_carbon2js13NullStreamBufE = external unnamed_addr constant { [16 x i8*] }
@_ZNSt3__15ctypeIcE2idE = external global %"class.std::__1::locale::id", align 8
@llvm.global_ctors = appending global [1 x { i32, void ()*, i8* }] [{ i32, void ()*, i8* } { i32 65535, void ()* @_GLOBAL__sub_I_ac_lex_numbers.cc, i8* null }]

; Function Attrs: noinline nounwind ssp uwtable
define internal void @__cxx_global_var_init() #0 section "__TEXT,__StaticInit,regular,pure_instructions" !dbg !7163 {
  call void @_ZN14altered_carbon2js10NullStreamC1Ev(%"class.altered_carbon::js::NullStream"* @_ZN14altered_carbon2jsL9BlackHoleE), !dbg !7164
  %1 = call i32 @__cxa_atexit(void (i8*)* bitcast (void (%"class.altered_carbon::js::NullStream"*)* @_ZN14altered_carbon2js10NullStreamD1Ev to void (i8*)*), i8* bitcast (%"class.altered_carbon::js::NullStream"* @_ZN14altered_carbon2jsL9BlackHoleE to i8*), i8* @__dso_handle) #2, !dbg !7164
  ret void, !dbg !7164
}

; Function Attrs: noinline nounwind optnone ssp uwtable
define linkonce_odr hidden void @_ZN14altered_carbon2js10NullStreamC1Ev(%"class.altered_carbon::js::NullStream"*) unnamed_addr #1 align 2 !dbg !7165 {
  %2 = alloca %"class.std::__1::basic_ios"*, align 8
  call void @llvm.dbg.declare(metadata %"class.std::__1::basic_ios"** %2, metadata !7166, metadata !DIExpression()), !dbg !7169
  %3 = alloca %"class.std::__1::basic_streambuf"*, align 8
  call void @llvm.dbg.declare(metadata %"class.std::__1::basic_streambuf"** %3, metadata !7174, metadata !DIExpression()), !dbg !7175
  %4 = alloca %"class.std::__1::basic_ostream"*, align 8
  call void @llvm.dbg.declare(metadata %"class.std::__1::basic_ostream"** %4, metadata !7176, metadata !DIExpression()), !dbg !7177
  %5 = alloca i8**, align 8
  call void @llvm.dbg.declare(metadata i8*** %5, metadata !7178, metadata !DIExpression()), !dbg !7177
  %6 = alloca %"class.std::__1::basic_streambuf"*, align 8
  call void @llvm.dbg.declare(metadata %"class.std::__1::basic_streambuf"** %6, metadata !7179, metadata !DIExpression()), !dbg !7180
  %7 = alloca %"class.std::__1::ios_base"*, align 8
  call void @llvm.dbg.declare(metadata %"class.std::__1::ios_base"** %7, metadata !7181, metadata !DIExpression()), !dbg !7184
  %8 = alloca %"class.std::__1::basic_ios"*, align 8
  call void @llvm.dbg.declare(metadata %"class.std::__1::basic_ios"** %8, metadata !7188, metadata !DIExpression()), !dbg !7189
  %9 = alloca %"class.altered_carbon::js::NullStream"*, align 8
  store %"class.altered_carbon::js::NullStream"* %0, %"class.altered_carbon::js::NullStream"** %9, align 8
  call void @llvm.dbg.declare(metadata %"class.altered_carbon::js::NullStream"** %9, metadata !7190, metadata !DIExpression()), !dbg !7191
  %10 = load %"class.altered_carbon::js::NullStream"*, %"class.altered_carbon::js::NullStream"** %9, align 8
  %11 = bitcast %"class.altered_carbon::js::NullStream"* %10 to i8*, !dbg !7192
  %12 = getelementptr inbounds i8, i8* %11, i64 328, !dbg !7192
  %13 = bitcast i8* %12 to %"class.std::__1::basic_ios"*, !dbg !7192
  store %"class.std::__1::basic_ios"* %13, %"class.std::__1::basic_ios"** %8, align 8
  %14 = load %"class.std::__1::basic_ios"*, %"class.std::__1::basic_ios"** %8, align 8
  %15 = bitcast %"class.std::__1::basic_ios"* %14 to %"class.std::__1::ios_base"*, !dbg !7193
  store %"class.std::__1::ios_base"* %15, %"class.std::__1::ios_base"** %7, align 8
  %16 = load %"class.std::__1::ios_base"*, %"class.std::__1::ios_base"** %7, align 8
  %17 = bitcast %"class.std::__1::ios_base"* %16 to i32 (...)***, !dbg !7194
  store i32 (...)** bitcast (i8** getelementptr inbounds ({ [4 x i8*] }, { [4 x i8*] }* @_ZTVNSt3__18ios_baseE, i32 0, inrange i32 0, i32 2) to i32 (...)**), i32 (...)*** %17, align 8, !dbg !7194
  %18 = bitcast %"class.std::__1::basic_ios"* %14 to i32 (...)***, !dbg !7193
  store i32 (...)** bitcast (i8** getelementptr inbounds ({ [4 x i8*] }, { [4 x i8*] }* @_ZTVNSt3__19basic_iosIcNS_11char_traitsIcEEEE, i32 0, inrange i32 0, i32 2) to i32 (...)**), i32 (...)*** %18, align 8, !dbg !7193
  %19 = bitcast %"class.altered_carbon::js::NullStream"* %10 to %"class.altered_carbon::js::NullStreamBuf"*, !dbg !7192
  call void @_ZN14altered_carbon2js13NullStreamBufC2Ev(%"class.altered_carbon::js::NullStreamBuf"* %19), !dbg !7195
  %20 = bitcast %"class.altered_carbon::js::NullStream"* %10 to i32 (...)***, !dbg !7192
  store i32 (...)** bitcast (i8** getelementptr inbounds ({ [17 x i8*], [5 x i8*], [5 x i8*] }, { [17 x i8*], [5 x i8*], [5 x i8*] }* @_ZTVN14altered_carbon2js10NullStreamE, i32 0, inrange i32 0, i32 3) to i32 (...)**), i32 (...)*** %20, align 8, !dbg !7192
  %21 = bitcast %"class.altered_carbon::js::NullStream"* %10 to i8*, !dbg !7192
  %22 = getelementptr inbounds i8, i8* %21, i64 320, !dbg !7192
  %23 = bitcast i8* %22 to i32 (...)***, !dbg !7192
  store i32 (...)** bitcast (i8** getelementptr inbounds ({ [17 x i8*], [5 x i8*], [5 x i8*] }, { [17 x i8*], [5 x i8*], [5 x i8*] }* @_ZTVN14altered_carbon2js10NullStreamE, i32 0, inrange i32 1, i32 3) to i32 (...)**), i32 (...)*** %23, align 8, !dbg !7192
  %24 = bitcast %"class.altered_carbon::js::NullStream"* %10 to i8*, !dbg !7192
  %25 = getelementptr inbounds i8, i8* %24, i64 328, !dbg !7192
  %26 = bitcast i8* %25 to i32 (...)***, !dbg !7192
  store i32 (...)** bitcast (i8** getelementptr inbounds ({ [17 x i8*], [5 x i8*], [5 x i8*] }, { [17 x i8*], [5 x i8*], [5 x i8*] }* @_ZTVN14altered_carbon2js10NullStreamE, i32 0, inrange i32 2, i32 3) to i32 (...)**), i32 (...)*** %26, align 8, !dbg !7192
  %27 = bitcast %"class.altered_carbon::js::NullStream"* %10 to i8*, !dbg !7192
  %28 = getelementptr inbounds i8, i8* %27, i64 320, !dbg !7192
  %29 = bitcast i8* %28 to %"class.std::__1::basic_ostream"*, !dbg !7192
  %30 = bitcast %"class.altered_carbon::js::NullStream"* %10 to %"class.std::__1::basic_streambuf"*, !dbg !7196
  store %"class.std::__1::basic_ostream"* %29, %"class.std::__1::basic_ostream"** %4, align 8
  store i8** getelementptr inbounds ([5 x i8*], [5 x i8*]* @_ZTTN14altered_carbon2js10NullStreamE, i64 0, i64 1), i8*** %5, align 8
  store %"class.std::__1::basic_streambuf"* %30, %"class.std::__1::basic_streambuf"** %6, align 8
  %31 = load %"class.std::__1::basic_ostream"*, %"class.std::__1::basic_ostream"** %4, align 8
  %32 = load i8**, i8*** %5, align 8
  %33 = load i8*, i8** %32, align 8, !dbg !7197
  %34 = bitcast %"class.std::__1::basic_ostream"* %31 to i32 (...)***, !dbg !7197
  %35 = bitcast i8* %33 to i32 (...)**, !dbg !7197
  store i32 (...)** %35, i32 (...)*** %34, align 8, !dbg !7197
  %36 = getelementptr inbounds i8*, i8** %32, i64 1, !dbg !7197
  %37 = load i8*, i8** %36, align 8, !dbg !7197
  %38 = bitcast %"class.std::__1::basic_ostream"* %31 to i8**, !dbg !7197
  %39 = load i8*, i8** %38, align 8, !dbg !7197
  %40 = getelementptr i8, i8* %39, i64 -24, !dbg !7197
  %41 = bitcast i8* %40 to i64*, !dbg !7197
  %42 = load i64, i64* %41, align 8, !dbg !7197
  %43 = bitcast %"class.std::__1::basic_ostream"* %31 to i8*, !dbg !7197
  %44 = getelementptr inbounds i8, i8* %43, i64 %42, !dbg !7197
  %45 = bitcast i8* %44 to i32 (...)***, !dbg !7197
  %46 = bitcast i8* %37 to i32 (...)**, !dbg !7197
  store i32 (...)** %46, i32 (...)*** %45, align 8, !dbg !7197
  %47 = bitcast %"class.std::__1::basic_ostream"* %31 to i8**, !dbg !7198
  %48 = load i8*, i8** %47, align 8, !dbg !7198
  %49 = getelementptr i8, i8* %48, i64 -24, !dbg !7198
  %50 = bitcast i8* %49 to i64*, !dbg !7198
  %51 = load i64, i64* %50, align 8, !dbg !7198
  %52 = bitcast %"class.std::__1::basic_ostream"* %31 to i8*, !dbg !7198
  %53 = getelementptr inbounds i8, i8* %52, i64 %51, !dbg !7198
  %54 = bitcast i8* %53 to %"class.std::__1::basic_ios"*, !dbg !7198
  %55 = load %"class.std::__1::basic_streambuf"*, %"class.std::__1::basic_streambuf"** %6, align 8, !dbg !7199
  store %"class.std::__1::basic_ios"* %54, %"class.std::__1::basic_ios"** %2, align 8
  store %"class.std::__1::basic_streambuf"* %55, %"class.std::__1::basic_streambuf"** %3, align 8
  %56 = load %"class.std::__1::basic_ios"*, %"class.std::__1::basic_ios"** %2, align 8
  %57 = bitcast %"class.std::__1::basic_ios"* %56 to %"class.std::__1::ios_base"*, !dbg !7200
  %58 = load %"class.std::__1::basic_streambuf"*, %"class.std::__1::basic_streambuf"** %3, align 8, !dbg !7201
  %59 = bitcast %"class.std::__1::basic_streambuf"* %58 to i8*, !dbg !7201
  call void @_ZNSt3__18ios_base4initEPv(%"class.std::__1::ios_base"* %57, i8* %59) #2, !dbg !7200
  %60 = getelementptr inbounds %"class.std::__1::basic_ios", %"class.std::__1::basic_ios"* %56, i32 0, i32 1, !dbg !7202
  store %"class.std::__1::basic_ostream"* null, %"class.std::__1::basic_ostream"** %60, align 8, !dbg !7203
  %61 = call i32 @_ZNSt3__111char_traitsIcE3eofEv() #2, !dbg !7204
  %62 = getelementptr inbounds %"class.std::__1::basic_ios", %"class.std::__1::basic_ios"* %56, i32 0, i32 2, !dbg !7205
  store i32 %61, i32* %62, align 8, !dbg !7206
  %63 = bitcast %"class.altered_carbon::js::NullStream"* %10 to i32 (...)***, !dbg !7192
  store i32 (...)** bitcast (i8** getelementptr inbounds ({ [17 x i8*], [5 x i8*], [5 x i8*] }, { [17 x i8*], [5 x i8*], [5 x i8*] }* @_ZTVN14altered_carbon2js10NullStreamE, i32 0, inrange i32 0, i32 3) to i32 (...)**), i32 (...)*** %63, align 8, !dbg !7192
  %64 = bitcast %"class.altered_carbon::js::NullStream"* %10 to i8*, !dbg !7192
  %65 = getelementptr inbounds i8, i8* %64, i64 320, !dbg !7192
  %66 = bitcast i8* %65 to i32 (...)***, !dbg !7192
  store i32 (...)** bitcast (i8** getelementptr inbounds ({ [17 x i8*], [5 x i8*], [5 x i8*] }, { [17 x i8*], [5 x i8*], [5 x i8*] }* @_ZTVN14altered_carbon2js10NullStreamE, i32 0, inrange i32 1, i32 3) to i32 (...)**), i32 (...)*** %66, align 8, !dbg !7192
  %67 = bitcast %"class.altered_carbon::js::NullStream"* %10 to i8*, !dbg !7192
  %68 = getelementptr inbounds i8, i8* %67, i64 328, !dbg !7192
  %69 = bitcast i8* %68 to i32 (...)***, !dbg !7192
  store i32 (...)** bitcast (i8** getelementptr inbounds ({ [17 x i8*], [5 x i8*], [5 x i8*] }, { [17 x i8*], [5 x i8*], [5 x i8*] }* @_ZTVN14altered_carbon2js10NullStreamE, i32 0, inrange i32 2, i32 3) to i32 (...)**), i32 (...)*** %69, align 8, !dbg !7192
  ret void, !dbg !7207
}

; Function Attrs: noinline nounwind optnone ssp uwtable
define linkonce_odr hidden void @_ZN14altered_carbon2js10NullStreamD1Ev(%"class.altered_carbon::js::NullStream"*) unnamed_addr #1 align 2 !dbg !7208 {
  %2 = alloca %"class.altered_carbon::js::NullStream"*, align 8
  store %"class.altered_carbon::js::NullStream"* %0, %"class.altered_carbon::js::NullStream"** %2, align 8
  call void @llvm.dbg.declare(metadata %"class.altered_carbon::js::NullStream"** %2, metadata !7210, metadata !DIExpression()), !dbg !7211
  %3 = load %"class.altered_carbon::js::NullStream"*, %"class.altered_carbon::js::NullStream"** %2, align 8
  call void @_ZN14altered_carbon2js10NullStreamD2Ev(%"class.altered_carbon::js::NullStream"* %3, i8** getelementptr inbounds ([5 x i8*], [5 x i8*]* @_ZTTN14altered_carbon2js10NullStreamE, i64 0, i64 0)) #2, !dbg !7212
  %4 = bitcast %"class.altered_carbon::js::NullStream"* %3 to i8*, !dbg !7212
  %5 = getelementptr inbounds i8, i8* %4, i64 328, !dbg !7212
  %6 = bitcast i8* %5 to %"class.std::__1::basic_ios"*, !dbg !7212
  call void @_ZNSt3__19basic_iosIcNS_11char_traitsIcEEED2Ev(%"class.std::__1::basic_ios"* %6) #2, !dbg !7212
  ret void, !dbg !7212
}

; Function Attrs: nounwind
declare i32 @__cxa_atexit(void (i8*)*, i8*, i8*) #2

; Function Attrs: noinline nounwind optnone ssp uwtable
define i64 @_ZN14altered_carbon2js10ACJsParser22scanNumberByShiftCountEiPFbwE(%"class.altered_carbon::js::ACJsParser"*, i32, i1 (i32)*) #1 align 2 !dbg !7213 {
  %4 = alloca %"class.altered_carbon::js::ACJsParser"*, align 8
  %5 = alloca i32, align 4
  %6 = alloca i1 (i32)*, align 8
  %7 = alloca i64, align 8
  %8 = alloca i32, align 4
  %9 = alloca i32, align 4
  %10 = alloca i32, align 4
  store %"class.altered_carbon::js::ACJsParser"* %0, %"class.altered_carbon::js::ACJsParser"** %4, align 8
  call void @llvm.dbg.declare(metadata %"class.altered_carbon::js::ACJsParser"** %4, metadata !7214, metadata !DIExpression()), !dbg !7216
  store i32 %1, i32* %5, align 4
  call void @llvm.dbg.declare(metadata i32* %5, metadata !7217, metadata !DIExpression()), !dbg !7218
  store i1 (i32)* %2, i1 (i32)** %6, align 8
  call void @llvm.dbg.declare(metadata i1 (i32)** %6, metadata !7219, metadata !DIExpression()), !dbg !7220
  %11 = load %"class.altered_carbon::js::ACJsParser"*, %"class.altered_carbon::js::ACJsParser"** %4, align 8
  call void @llvm.dbg.declare(metadata i64* %7, metadata !7221, metadata !DIExpression()), !dbg !7222
  store i64 0, i64* %7, align 8, !dbg !7222
  call void @llvm.dbg.declare(metadata i32* %8, metadata !7223, metadata !DIExpression()), !dbg !7224
  call void @llvm.dbg.declare(metadata i32* %9, metadata !7225, metadata !DIExpression()), !dbg !7226
  store i32 0, i32* %9, align 4, !dbg !7226
  call void @llvm.dbg.declare(metadata i32* %10, metadata !7227, metadata !DIExpression()), !dbg !7228
  %12 = load i32, i32* %5, align 4, !dbg !7229
  %13 = sdiv i32 64, %12, !dbg !7230
  store i32 %13, i32* %10, align 4, !dbg !7228
  br label %14, !dbg !7231

; <label>:14:                                     ; preds = %37, %3
  %15 = load i32, i32* %9, align 4, !dbg !7232
  %16 = load i32, i32* %10, align 4, !dbg !7233
  %17 = icmp slt i32 %15, %16, !dbg !7234
  br i1 %17, label %18, label %52, !dbg !7231

; <label>:18:                                     ; preds = %14
  %19 = call signext i32 @_ZN14altered_carbon2js10ACJsParser6nextChEib(%"class.altered_carbon::js::ACJsParser"* %11, i32 0, i1 zeroext true), !dbg !7235
  store i32 %19, i32* %8, align 4, !dbg !7237
  %20 = load i1 (i32)*, i1 (i32)** %6, align 8, !dbg !7238
  %21 = load i32, i32* %8, align 4, !dbg !7240
  %22 = call zeroext i1 %20(i32 signext %21), !dbg !7238
  br i1 %22, label %24, label %23, !dbg !7241

; <label>:23:                                     ; preds = %18
  br label %52, !dbg !7242

; <label>:24:                                     ; preds = %18
  br label %25, !dbg !7244, !llvm.loop !7245

; <label>:25:                                     ; preds = %24
  %26 = getelementptr inbounds %"class.altered_carbon::js::ACJsParser", %"class.altered_carbon::js::ACJsParser"* %11, i32 0, i32 8, !dbg !7246
  %27 = load i32, i32* %26, align 4, !dbg !7246
  %28 = getelementptr inbounds %"class.altered_carbon::js::ACJsParser", %"class.altered_carbon::js::ACJsParser"* %11, i32 0, i32 9, !dbg !7246
  store i32 %27, i32* %28, align 8, !dbg !7246
  %29 = getelementptr inbounds %"class.altered_carbon::js::ACJsParser", %"class.altered_carbon::js::ACJsParser"* %11, i32 0, i32 8, !dbg !7246
  %30 = load i32, i32* %29, align 4, !dbg !7246
  %31 = sext i32 %30 to i64, !dbg !7246
  %32 = getelementptr inbounds %"class.altered_carbon::js::ACJsParser", %"class.altered_carbon::js::ACJsParser"* %11, i32 0, i32 11, !dbg !7246
  %33 = getelementptr inbounds %"struct.altered_carbon::js::ACLexPosition", %"struct.altered_carbon::js::ACLexPosition"* %32, i32 0, i32 1, !dbg !7246
  %34 = load i64, i64* %33, align 8, !dbg !7246
  %35 = add i64 %34, %31, !dbg !7246
  store i64 %35, i64* %33, align 8, !dbg !7246
  %36 = getelementptr inbounds %"class.altered_carbon::js::ACJsParser", %"class.altered_carbon::js::ACJsParser"* %11, i32 0, i32 8, !dbg !7246
  store i32 0, i32* %36, align 4, !dbg !7246
  br label %37, !dbg !7246

; <label>:37:                                     ; preds = %25
  %38 = load i32, i32* %5, align 4, !dbg !7248
  %39 = load i64, i64* %7, align 8, !dbg !7249
  %40 = zext i32 %38 to i64, !dbg !7249
  %41 = shl i64 %39, %40, !dbg !7249
  store i64 %41, i64* %7, align 8, !dbg !7249
  %42 = load i32, i32* %8, align 4, !dbg !7250
  %43 = sub nsw i32 %42, 48, !dbg !7251
  %44 = sext i32 %43 to i64, !dbg !7252
  %45 = getelementptr inbounds [55 x i32], [55 x i32]* @_ZN14altered_carbon2jsL10HEX_LOOKUPE, i64 0, i64 %44, !dbg !7252
  %46 = load i32, i32* %45, align 4, !dbg !7252
  %47 = sext i32 %46 to i64, !dbg !7252
  %48 = load i64, i64* %7, align 8, !dbg !7253
  %49 = or i64 %48, %47, !dbg !7253
  store i64 %49, i64* %7, align 8, !dbg !7253
  %50 = load i32, i32* %9, align 4, !dbg !7254
  %51 = add nsw i32 %50, 1, !dbg !7254
  store i32 %51, i32* %9, align 4, !dbg !7254
  br label %14, !dbg !7231, !llvm.loop !7255

; <label>:52:                                     ; preds = %23, %14
  %53 = load i32, i32* %9, align 4, !dbg !7257
  %54 = icmp eq i32 %53, 0, !dbg !7259
  br i1 %54, label %55, label %69, !dbg !7260

; <label>:55:                                     ; preds = %52
  br label %56, !dbg !7261, !llvm.loop !7263

; <label>:56:                                     ; preds = %55
  %57 = call dereferenceable(160) %"class.std::__1::basic_ostream"* @_ZNSt3__1lsINS_11char_traitsIcEEEERNS_13basic_ostreamIcT_EES6_PKc(%"class.std::__1::basic_ostream"* dereferenceable(160) bitcast (i8* getelementptr inbounds (i8, i8* bitcast (%"class.altered_carbon::js::NullStream"* @_ZN14altered_carbon2jsL9BlackHoleE to i8*), i64 320) to %"class.std::__1::basic_ostream"*), i8* getelementptr inbounds ([10 x i8], [10 x i8]* @.str, i32 0, i32 0)), !dbg !7264
  %58 = call dereferenceable(160) %"class.std::__1::basic_ostream"* @_ZNSt3__1lsINS_11char_traitsIcEEEERNS_13basic_ostreamIcT_EES6_PKc(%"class.std::__1::basic_ostream"* dereferenceable(160) %57, i8* getelementptr inbounds ([9 x i8], [9 x i8]* @.str.1, i32 0, i32 0)), !dbg !7264
  %59 = call dereferenceable(160) %"class.std::__1::basic_ostream"* @_ZNSt3__1lsINS_11char_traitsIcEEEERNS_13basic_ostreamIcT_EES6_PKc(%"class.std::__1::basic_ostream"* dereferenceable(160) %58, i8* getelementptr inbounds ([5 x i8], [5 x i8]* @.str.2, i32 0, i32 0)), !dbg !7264
  %60 = call dereferenceable(160) %"class.std::__1::basic_ostream"* @_ZNSt3__1lsINS_11char_traitsIcEEEERNS_13basic_ostreamIcT_EES6_PKc(%"class.std::__1::basic_ostream"* dereferenceable(160) %59, i8* getelementptr inbounds ([23 x i8], [23 x i8]* @.str.3, i32 0, i32 0)), !dbg !7264
  %61 = call dereferenceable(160) %"class.std::__1::basic_ostream"* @_ZNSt3__1lsINS_11char_traitsIcEEEERNS_13basic_ostreamIcT_EES6_PKc(%"class.std::__1::basic_ostream"* dereferenceable(160) %60, i8* getelementptr inbounds ([10 x i8], [10 x i8]* @.str.4, i32 0, i32 0)), !dbg !7264
  %62 = load i32, i32* %8, align 4, !dbg !7264
  %63 = call dereferenceable(160) %"class.std::__1::basic_ostream"* @_ZNSt3__113basic_ostreamIcNS_11char_traitsIcEEElsEi(%"class.std::__1::basic_ostream"* %61, i32 %62), !dbg !7264
  %64 = call dereferenceable(160) %"class.std::__1::basic_ostream"* @_ZNSt3__1lsINS_11char_traitsIcEEEERNS_13basic_ostreamIcT_EES6_PKc(%"class.std::__1::basic_ostream"* dereferenceable(160) %63, i8* getelementptr inbounds ([3 x i8], [3 x i8]* @.str.5, i32 0, i32 0)), !dbg !7264
  %65 = getelementptr inbounds %"class.altered_carbon::js::ACJsParser", %"class.altered_carbon::js::ACJsParser"* %11, i32 0, i32 11, !dbg !7264
  %66 = call dereferenceable(160) %"class.std::__1::basic_ostream"* @_ZN14altered_carbon2jslsERNSt3__113basic_ostreamIcNS1_11char_traitsIcEEEERKNS0_13ACLexPositionE(%"class.std::__1::basic_ostream"* dereferenceable(160) %64, %"struct.altered_carbon::js::ACLexPosition"* dereferenceable(32) %65), !dbg !7264
  %67 = call dereferenceable(160) %"class.std::__1::basic_ostream"* @_ZNSt3__1lsINS_11char_traitsIcEEEERNS_13basic_ostreamIcT_EES6_PKc(%"class.std::__1::basic_ostream"* dereferenceable(160) %66, i8* getelementptr inbounds ([3 x i8], [3 x i8]* @.str.6, i32 0, i32 0)), !dbg !7264
  call void @_ZN14altered_carbon2js10ACJsParser16showErrorContextEv(%"class.altered_carbon::js::ACJsParser"* %11), !dbg !7264
  br label %68, !dbg !7264

; <label>:68:                                     ; preds = %56
  br label %69, !dbg !7266

; <label>:69:                                     ; preds = %68, %52
  %70 = load i64, i64* %7, align 8, !dbg !7267
  ret i64 %70, !dbg !7268
}

; Function Attrs: nounwind readnone speculatable
declare void @llvm.dbg.declare(metadata, metadata, metadata) #3

declare signext i32 @_ZN14altered_carbon2js10ACJsParser6nextChEib(%"class.altered_carbon::js::ACJsParser"*, i32, i1 zeroext) #4

; Function Attrs: noinline nounwind optnone ssp uwtable
define linkonce_odr dereferenceable(160) %"class.std::__1::basic_ostream"* @_ZNSt3__1lsINS_11char_traitsIcEEEERNS_13basic_ostreamIcT_EES6_PKc(%"class.std::__1::basic_ostream"* dereferenceable(160), i8*) #1 !dbg !7269 {
  %3 = alloca %"class.std::__1::basic_ostream"*, align 8
  %4 = alloca i8*, align 8
  store %"class.std::__1::basic_ostream"* %0, %"class.std::__1::basic_ostream"** %3, align 8
  call void @llvm.dbg.declare(metadata %"class.std::__1::basic_ostream"** %3, metadata !7273, metadata !DIExpression()), !dbg !7274
  store i8* %1, i8** %4, align 8
  call void @llvm.dbg.declare(metadata i8** %4, metadata !7275, metadata !DIExpression()), !dbg !7276
  %5 = load %"class.std::__1::basic_ostream"*, %"class.std::__1::basic_ostream"** %3, align 8, !dbg !7277
  %6 = load i8*, i8** %4, align 8, !dbg !7278
  %7 = load i8*, i8** %4, align 8, !dbg !7279
  %8 = call i64 @_ZNSt3__111char_traitsIcE6lengthEPKc(i8* %7) #2, !dbg !7280
  %9 = call dereferenceable(160) %"class.std::__1::basic_ostream"* @_ZNSt3__124__put_character_sequenceIcNS_11char_traitsIcEEEERNS_13basic_ostreamIT_T0_EES7_PKS4_m(%"class.std::__1::basic_ostream"* dereferenceable(160) %5, i8* %6, i64 %8), !dbg !7281
  ret %"class.std::__1::basic_ostream"* %9, !dbg !7282
}

declare dereferenceable(160) %"class.std::__1::basic_ostream"* @_ZN14altered_carbon2jslsERNSt3__113basic_ostreamIcNS1_11char_traitsIcEEEERKNS0_13ACLexPositionE(%"class.std::__1::basic_ostream"* dereferenceable(160), %"struct.altered_carbon::js::ACLexPosition"* dereferenceable(32)) #4

declare dereferenceable(160) %"class.std::__1::basic_ostream"* @_ZNSt3__113basic_ostreamIcNS_11char_traitsIcEEElsEi(%"class.std::__1::basic_ostream"*, i32) #4

declare void @_ZN14altered_carbon2js10ACJsParser16showErrorContextEv(%"class.altered_carbon::js::ACJsParser"*) #4

; Function Attrs: noinline nounwind optnone ssp uwtable
define i64 @_ZN14altered_carbon2js10ACJsParser13scanHexNumberEv(%"class.altered_carbon::js::ACJsParser"*) #1 align 2 !dbg !7283 {
  %2 = alloca %"class.altered_carbon::js::ACJsParser"*, align 8
  store %"class.altered_carbon::js::ACJsParser"* %0, %"class.altered_carbon::js::ACJsParser"** %2, align 8
  call void @llvm.dbg.declare(metadata %"class.altered_carbon::js::ACJsParser"** %2, metadata !7284, metadata !DIExpression()), !dbg !7285
  %3 = load %"class.altered_carbon::js::ACJsParser"*, %"class.altered_carbon::js::ACJsParser"** %2, align 8
  %4 = call i64 @_ZN14altered_carbon2js10ACJsParser22scanNumberByShiftCountEiPFbwE(%"class.altered_carbon::js::ACJsParser"* %3, i32 4, i1 (i32)* @_ZN14altered_carbon2jsL12hexValidatorEw), !dbg !7286
  ret i64 %4, !dbg !7287
}

; Function Attrs: noinline nounwind optnone ssp uwtable
define internal zeroext i1 @_ZN14altered_carbon2jsL12hexValidatorEw(i32 signext) #1 !dbg !7288 {
  %2 = alloca i32, align 4
  store i32 %0, i32* %2, align 4
  call void @llvm.dbg.declare(metadata i32* %2, metadata !7289, metadata !DIExpression()), !dbg !7290
  %3 = load i32, i32* %2, align 4, !dbg !7291
  %4 = icmp sge i32 %3, 48, !dbg !7291
  br i1 %4, label %5, label %8, !dbg !7291

; <label>:5:                                      ; preds = %1
  %6 = load i32, i32* %2, align 4, !dbg !7291
  %7 = icmp sle i32 %6, 57, !dbg !7291
  br i1 %7, label %22, label %8, !dbg !7291

; <label>:8:                                      ; preds = %5, %1
  %9 = load i32, i32* %2, align 4, !dbg !7291
  %10 = icmp sge i32 %9, 97, !dbg !7291
  br i1 %10, label %11, label %14, !dbg !7291

; <label>:11:                                     ; preds = %8
  %12 = load i32, i32* %2, align 4, !dbg !7291
  %13 = icmp sle i32 %12, 102, !dbg !7291
  br i1 %13, label %22, label %14, !dbg !7291

; <label>:14:                                     ; preds = %11, %8
  %15 = load i32, i32* %2, align 4, !dbg !7291
  %16 = icmp sge i32 %15, 65, !dbg !7291
  br i1 %16, label %17, label %20, !dbg !7291

; <label>:17:                                     ; preds = %14
  %18 = load i32, i32* %2, align 4, !dbg !7291
  %19 = icmp sle i32 %18, 70, !dbg !7291
  br label %20

; <label>:20:                                     ; preds = %17, %14
  %21 = phi i1 [ false, %14 ], [ %19, %17 ]
  br label %22, !dbg !7291

; <label>:22:                                     ; preds = %20, %11, %5
  %23 = phi i1 [ true, %11 ], [ true, %5 ], [ %21, %20 ]
  ret i1 %23, !dbg !7292
}

; Function Attrs: noinline nounwind optnone ssp uwtable
define i64 @_ZN14altered_carbon2js10ACJsParser15scanOctalNumberEv(%"class.altered_carbon::js::ACJsParser"*) #1 align 2 !dbg !7293 {
  %2 = alloca %"class.altered_carbon::js::ACJsParser"*, align 8
  store %"class.altered_carbon::js::ACJsParser"* %0, %"class.altered_carbon::js::ACJsParser"** %2, align 8
  call void @llvm.dbg.declare(metadata %"class.altered_carbon::js::ACJsParser"** %2, metadata !7294, metadata !DIExpression()), !dbg !7295
  %3 = load %"class.altered_carbon::js::ACJsParser"*, %"class.altered_carbon::js::ACJsParser"** %2, align 8
  %4 = call i64 @_ZN14altered_carbon2js10ACJsParser22scanNumberByShiftCountEiPFbwE(%"class.altered_carbon::js::ACJsParser"* %3, i32 3, i1 (i32)* @_ZN14altered_carbon2jsL14octalValidatorEw), !dbg !7296
  ret i64 %4, !dbg !7297
}

; Function Attrs: noinline nounwind optnone ssp uwtable
define internal zeroext i1 @_ZN14altered_carbon2jsL14octalValidatorEw(i32 signext) #1 !dbg !7298 {
  %2 = alloca i32, align 4
  store i32 %0, i32* %2, align 4
  call void @llvm.dbg.declare(metadata i32* %2, metadata !7299, metadata !DIExpression()), !dbg !7300
  %3 = load i32, i32* %2, align 4, !dbg !7301
  %4 = icmp sge i32 %3, 48, !dbg !7301
  br i1 %4, label %5, label %8, !dbg !7301

; <label>:5:                                      ; preds = %1
  %6 = load i32, i32* %2, align 4, !dbg !7301
  %7 = icmp sle i32 %6, 55, !dbg !7301
  br label %8

; <label>:8:                                      ; preds = %5, %1
  %9 = phi i1 [ false, %1 ], [ %7, %5 ]
  ret i1 %9, !dbg !7302
}

; Function Attrs: noinline nounwind optnone ssp uwtable
define i64 @_ZN14altered_carbon2js10ACJsParser16scanBinaryNumberEv(%"class.altered_carbon::js::ACJsParser"*) #1 align 2 !dbg !7303 {
  %2 = alloca %"class.altered_carbon::js::ACJsParser"*, align 8
  store %"class.altered_carbon::js::ACJsParser"* %0, %"class.altered_carbon::js::ACJsParser"** %2, align 8
  call void @llvm.dbg.declare(metadata %"class.altered_carbon::js::ACJsParser"** %2, metadata !7304, metadata !DIExpression()), !dbg !7305
  %3 = load %"class.altered_carbon::js::ACJsParser"*, %"class.altered_carbon::js::ACJsParser"** %2, align 8
  %4 = call i64 @_ZN14altered_carbon2js10ACJsParser22scanNumberByShiftCountEiPFbwE(%"class.altered_carbon::js::ACJsParser"* %3, i32 1, i1 (i32)* @_ZN14altered_carbon2jsL15binaryValidatorEw), !dbg !7306
  ret i64 %4, !dbg !7307
}

; Function Attrs: noinline nounwind optnone ssp uwtable
define internal zeroext i1 @_ZN14altered_carbon2jsL15binaryValidatorEw(i32 signext) #1 !dbg !7308 {
  %2 = alloca i32, align 4
  store i32 %0, i32* %2, align 4
  call void @llvm.dbg.declare(metadata i32* %2, metadata !7309, metadata !DIExpression()), !dbg !7310
  %3 = load i32, i32* %2, align 4, !dbg !7311
  %4 = icmp eq i32 %3, 48, !dbg !7312
  br i1 %4, label %8, label %5, !dbg !7313

; <label>:5:                                      ; preds = %1
  %6 = load i32, i32* %2, align 4, !dbg !7314
  %7 = icmp eq i32 %6, 49, !dbg !7315
  br label %8, !dbg !7313

; <label>:8:                                      ; preds = %5, %1
  %9 = phi i1 [ true, %1 ], [ %7, %5 ]
  ret i1 %9, !dbg !7316
}

; Function Attrs: noinline nounwind optnone ssp uwtable
define void @_ZN14altered_carbon2js10ACJsParser11scanNumericEv(%"class.std::__1::unique_ptr"* noalias sret, %"class.altered_carbon::js::ACJsParser"*) #1 align 2 !dbg !7317 {
  %3 = alloca i32, align 4
  call void @llvm.dbg.declare(metadata i32* %3, metadata !7318, metadata !DIExpression()), !dbg !7319
  %4 = alloca i32, align 4
  call void @llvm.dbg.declare(metadata i32* %4, metadata !7327, metadata !DIExpression()), !dbg !7328
  %5 = alloca %"struct.std::__1::__compressed_pair_elem.30"*, align 8
  call void @llvm.dbg.declare(metadata %"struct.std::__1::__compressed_pair_elem.30"** %5, metadata !7329, metadata !DIExpression()), !dbg !7332
  %6 = alloca %"class.std::__1::__compressed_pair.27"*, align 8
  call void @llvm.dbg.declare(metadata %"class.std::__1::__compressed_pair.27"** %6, metadata !7344, metadata !DIExpression()), !dbg !7346
  %7 = alloca %"struct.std::__1::__compressed_pair_elem.28"*, align 8
  call void @llvm.dbg.declare(metadata %"struct.std::__1::__compressed_pair_elem.28"** %7, metadata !7347, metadata !DIExpression()), !dbg !7350
  %8 = alloca %"class.std::__1::__compressed_pair.27"*, align 8
  call void @llvm.dbg.declare(metadata %"class.std::__1::__compressed_pair.27"** %8, metadata !7354, metadata !DIExpression()), !dbg !7355
  %9 = alloca %"struct.std::__1::default_delete.31"*, align 8
  call void @llvm.dbg.declare(metadata %"struct.std::__1::default_delete.31"** %9, metadata !7356, metadata !DIExpression()), !dbg !7359
  %10 = alloca %"class.altered_carbon::js::ACLexNumberToken"*, align 8
  call void @llvm.dbg.declare(metadata %"class.altered_carbon::js::ACLexNumberToken"** %10, metadata !7361, metadata !DIExpression()), !dbg !7362
  %11 = alloca %"struct.std::__1::__compressed_pair_elem.28"*, align 8
  call void @llvm.dbg.declare(metadata %"struct.std::__1::__compressed_pair_elem.28"** %11, metadata !7347, metadata !DIExpression()), !dbg !7363
  %12 = alloca %"class.std::__1::__compressed_pair.27"*, align 8
  call void @llvm.dbg.declare(metadata %"class.std::__1::__compressed_pair.27"** %12, metadata !7354, metadata !DIExpression()), !dbg !7366
  %13 = alloca %"class.std::__1::unique_ptr.26"*, align 8
  call void @llvm.dbg.declare(metadata %"class.std::__1::unique_ptr.26"** %13, metadata !7367, metadata !DIExpression()), !dbg !7369
  %14 = alloca %"class.altered_carbon::js::ACLexNumberToken"*, align 8
  call void @llvm.dbg.declare(metadata %"class.altered_carbon::js::ACLexNumberToken"** %14, metadata !7370, metadata !DIExpression()), !dbg !7371
  %15 = alloca %"class.altered_carbon::js::ACLexNumberToken"*, align 8
  call void @llvm.dbg.declare(metadata %"class.altered_carbon::js::ACLexNumberToken"** %15, metadata !7372, metadata !DIExpression()), !dbg !7373
  %16 = alloca %"class.std::__1::unique_ptr.26"*, align 8
  call void @llvm.dbg.declare(metadata %"class.std::__1::unique_ptr.26"** %16, metadata !7374, metadata !DIExpression()), !dbg !7375
  %17 = alloca %"class.std::__1::unique_ptr.26"*, align 8
  call void @llvm.dbg.declare(metadata %"class.std::__1::unique_ptr.26"** %17, metadata !7376, metadata !DIExpression()), !dbg !7377
  %18 = alloca %"class.std::__1::basic_string_view"*, align 8
  call void @llvm.dbg.declare(metadata %"class.std::__1::basic_string_view"** %18, metadata !7378, metadata !DIExpression()), !dbg !7381
  %19 = alloca i8*, align 8
  call void @llvm.dbg.declare(metadata i8** %19, metadata !7385, metadata !DIExpression()), !dbg !7386
  %20 = alloca i64, align 8
  call void @llvm.dbg.declare(metadata i64* %20, metadata !7387, metadata !DIExpression()), !dbg !7388
  %21 = alloca %"class.std::__1::basic_string_view"*, align 8
  call void @llvm.dbg.declare(metadata %"class.std::__1::basic_string_view"** %21, metadata !7389, metadata !DIExpression()), !dbg !7390
  %22 = alloca i8*, align 8
  call void @llvm.dbg.declare(metadata i8** %22, metadata !7391, metadata !DIExpression()), !dbg !7392
  %23 = alloca i64, align 8
  call void @llvm.dbg.declare(metadata i64* %23, metadata !7393, metadata !DIExpression()), !dbg !7394
  %24 = alloca %"struct.std::__1::__compressed_pair_elem.30"*, align 8
  call void @llvm.dbg.declare(metadata %"struct.std::__1::__compressed_pair_elem.30"** %24, metadata !7329, metadata !DIExpression()), !dbg !7395
  %25 = alloca %"class.std::__1::__compressed_pair.27"*, align 8
  call void @llvm.dbg.declare(metadata %"class.std::__1::__compressed_pair.27"** %25, metadata !7344, metadata !DIExpression()), !dbg !7411
  %26 = alloca %"class.std::__1::unique_ptr.26"*, align 8
  call void @llvm.dbg.declare(metadata %"class.std::__1::unique_ptr.26"** %26, metadata !7412, metadata !DIExpression()), !dbg !7413
  %27 = alloca %"struct.std::__1::default_delete.31"*, align 8
  call void @llvm.dbg.declare(metadata %"struct.std::__1::default_delete.31"** %27, metadata !7414, metadata !DIExpression()), !dbg !7423
  %28 = alloca %"class.altered_carbon::js::ACLexNumberToken"**, align 8
  call void @llvm.dbg.declare(metadata %"class.altered_carbon::js::ACLexNumberToken"*** %28, metadata !7425, metadata !DIExpression()), !dbg !7434
  %29 = alloca %"struct.std::__1::__compressed_pair_elem.16"*, align 8
  call void @llvm.dbg.declare(metadata %"struct.std::__1::__compressed_pair_elem.16"** %29, metadata !7453, metadata !DIExpression()), !dbg !7455
  %30 = alloca %"class.altered_carbon::js::ACLexNumberToken"**, align 8
  call void @llvm.dbg.declare(metadata %"class.altered_carbon::js::ACLexNumberToken"*** %30, metadata !7456, metadata !DIExpression()), !dbg !7457
  %31 = alloca %"struct.std::__1::default_delete.31"*, align 8
  call void @llvm.dbg.declare(metadata %"struct.std::__1::default_delete.31"** %31, metadata !7414, metadata !DIExpression()), !dbg !7458
  %32 = alloca %"struct.std::__1::default_delete"*, align 8
  call void @llvm.dbg.declare(metadata %"struct.std::__1::default_delete"** %32, metadata !7460, metadata !DIExpression()), !dbg !7471
  %33 = alloca %"struct.std::__1::default_delete.31"*, align 8
  call void @llvm.dbg.declare(metadata %"struct.std::__1::default_delete.31"** %33, metadata !7480, metadata !DIExpression()), !dbg !7481
  %34 = alloca i8*, align 8
  call void @llvm.dbg.declare(metadata i8** %34, metadata !7482, metadata !DIExpression()), !dbg !7483
  %35 = alloca %"struct.std::__1::default_delete.31"*, align 8
  call void @llvm.dbg.declare(metadata %"struct.std::__1::default_delete.31"** %35, metadata !7414, metadata !DIExpression()), !dbg !7484
  %36 = alloca %"struct.std::__1::__compressed_pair_elem.25"*, align 8
  call void @llvm.dbg.declare(metadata %"struct.std::__1::__compressed_pair_elem.25"** %36, metadata !7486, metadata !DIExpression()), !dbg !7488
  %37 = alloca %"struct.std::__1::default_delete.31"*, align 8
  call void @llvm.dbg.declare(metadata %"struct.std::__1::default_delete.31"** %37, metadata !7489, metadata !DIExpression()), !dbg !7490
  %38 = alloca %"class.altered_carbon::js::ACLexNumberToken"**, align 8
  call void @llvm.dbg.declare(metadata %"class.altered_carbon::js::ACLexNumberToken"*** %38, metadata !7425, metadata !DIExpression()), !dbg !7491
  %39 = alloca %"class.std::__1::__compressed_pair.15"*, align 8
  call void @llvm.dbg.declare(metadata %"class.std::__1::__compressed_pair.15"** %39, metadata !7493, metadata !DIExpression()), !dbg !7495
  %40 = alloca %"class.altered_carbon::js::ACLexNumberToken"**, align 8
  call void @llvm.dbg.declare(metadata %"class.altered_carbon::js::ACLexNumberToken"*** %40, metadata !7496, metadata !DIExpression()), !dbg !7497
  %41 = alloca %"struct.std::__1::default_delete.31"*, align 8
  call void @llvm.dbg.declare(metadata %"struct.std::__1::default_delete.31"** %41, metadata !7498, metadata !DIExpression()), !dbg !7499
  %42 = alloca %"class.std::__1::__compressed_pair.15"*, align 8
  call void @llvm.dbg.declare(metadata %"class.std::__1::__compressed_pair.15"** %42, metadata !7500, metadata !DIExpression()), !dbg !7501
  %43 = alloca %"class.altered_carbon::js::ACLexNumberToken"**, align 8
  call void @llvm.dbg.declare(metadata %"class.altered_carbon::js::ACLexNumberToken"*** %43, metadata !7502, metadata !DIExpression()), !dbg !7503
  %44 = alloca %"struct.std::__1::default_delete.31"*, align 8
  call void @llvm.dbg.declare(metadata %"struct.std::__1::default_delete.31"** %44, metadata !7504, metadata !DIExpression()), !dbg !7505
  %45 = alloca %"struct.std::__1::__compressed_pair_elem.28"*, align 8
  call void @llvm.dbg.declare(metadata %"struct.std::__1::__compressed_pair_elem.28"** %45, metadata !7347, metadata !DIExpression()), !dbg !7506
  %46 = alloca %"class.std::__1::__compressed_pair.27"*, align 8
  call void @llvm.dbg.declare(metadata %"class.std::__1::__compressed_pair.27"** %46, metadata !7354, metadata !DIExpression()), !dbg !7511
  %47 = alloca %"struct.std::__1::__compressed_pair_elem.28"*, align 8
  call void @llvm.dbg.declare(metadata %"struct.std::__1::__compressed_pair_elem.28"** %47, metadata !7347, metadata !DIExpression()), !dbg !7512
  %48 = alloca %"class.std::__1::__compressed_pair.27"*, align 8
  call void @llvm.dbg.declare(metadata %"class.std::__1::__compressed_pair.27"** %48, metadata !7354, metadata !DIExpression()), !dbg !7515
  %49 = alloca %"class.std::__1::unique_ptr.26"*, align 8
  call void @llvm.dbg.declare(metadata %"class.std::__1::unique_ptr.26"** %49, metadata !7516, metadata !DIExpression()), !dbg !7517
  %50 = alloca %"class.altered_carbon::js::ACLexNumberToken"*, align 8
  call void @llvm.dbg.declare(metadata %"class.altered_carbon::js::ACLexNumberToken"** %50, metadata !7518, metadata !DIExpression()), !dbg !7519
  %51 = alloca %"class.std::__1::unique_ptr"*, align 8
  call void @llvm.dbg.declare(metadata %"class.std::__1::unique_ptr"** %51, metadata !7520, metadata !DIExpression()), !dbg !7522
  %52 = alloca %"class.std::__1::unique_ptr.26"*, align 8
  call void @llvm.dbg.declare(metadata %"class.std::__1::unique_ptr.26"** %52, metadata !7523, metadata !DIExpression()), !dbg !7524
  %53 = alloca %"class.altered_carbon::js::ACLexNumberToken"*, align 8
  %54 = alloca %"class.std::__1::unique_ptr"*, align 8
  call void @llvm.dbg.declare(metadata %"class.std::__1::unique_ptr"** %54, metadata !7525, metadata !DIExpression()), !dbg !7526
  %55 = alloca %"class.std::__1::unique_ptr.26"*, align 8
  call void @llvm.dbg.declare(metadata %"class.std::__1::unique_ptr.26"** %55, metadata !7527, metadata !DIExpression()), !dbg !7528
  %56 = alloca %"struct.std::__1::__compressed_pair_elem.30"*, align 8
  call void @llvm.dbg.declare(metadata %"struct.std::__1::__compressed_pair_elem.30"** %56, metadata !7329, metadata !DIExpression()), !dbg !7529
  %57 = alloca %"class.std::__1::__compressed_pair.27"*, align 8
  call void @llvm.dbg.declare(metadata %"class.std::__1::__compressed_pair.27"** %57, metadata !7344, metadata !DIExpression()), !dbg !7535
  %58 = alloca %"class.std::__1::unique_ptr.26"*, align 8
  call void @llvm.dbg.declare(metadata %"class.std::__1::unique_ptr.26"** %58, metadata !7412, metadata !DIExpression()), !dbg !7536
  %59 = alloca %"struct.std::__1::default_delete.31"*, align 8
  call void @llvm.dbg.declare(metadata %"struct.std::__1::default_delete.31"** %59, metadata !7414, metadata !DIExpression()), !dbg !7537
  %60 = alloca %"class.altered_carbon::js::ACLexNumberToken"**, align 8
  call void @llvm.dbg.declare(metadata %"class.altered_carbon::js::ACLexNumberToken"*** %60, metadata !7425, metadata !DIExpression()), !dbg !7539
  %61 = alloca %"struct.std::__1::__compressed_pair_elem.16"*, align 8
  call void @llvm.dbg.declare(metadata %"struct.std::__1::__compressed_pair_elem.16"** %61, metadata !7453, metadata !DIExpression()), !dbg !7544
  %62 = alloca %"class.altered_carbon::js::ACLexNumberToken"**, align 8
  call void @llvm.dbg.declare(metadata %"class.altered_carbon::js::ACLexNumberToken"*** %62, metadata !7456, metadata !DIExpression()), !dbg !7545
  %63 = alloca %"struct.std::__1::default_delete.31"*, align 8
  call void @llvm.dbg.declare(metadata %"struct.std::__1::default_delete.31"** %63, metadata !7414, metadata !DIExpression()), !dbg !7546
  %64 = alloca %"struct.std::__1::default_delete"*, align 8
  call void @llvm.dbg.declare(metadata %"struct.std::__1::default_delete"** %64, metadata !7460, metadata !DIExpression()), !dbg !7548
  %65 = alloca %"struct.std::__1::default_delete.31"*, align 8
  call void @llvm.dbg.declare(metadata %"struct.std::__1::default_delete.31"** %65, metadata !7480, metadata !DIExpression()), !dbg !7551
  %66 = alloca i8*, align 8
  call void @llvm.dbg.declare(metadata i8** %66, metadata !7482, metadata !DIExpression()), !dbg !7552
  %67 = alloca %"struct.std::__1::default_delete.31"*, align 8
  call void @llvm.dbg.declare(metadata %"struct.std::__1::default_delete.31"** %67, metadata !7414, metadata !DIExpression()), !dbg !7553
  %68 = alloca %"struct.std::__1::__compressed_pair_elem.25"*, align 8
  call void @llvm.dbg.declare(metadata %"struct.std::__1::__compressed_pair_elem.25"** %68, metadata !7486, metadata !DIExpression()), !dbg !7555
  %69 = alloca %"struct.std::__1::default_delete.31"*, align 8
  call void @llvm.dbg.declare(metadata %"struct.std::__1::default_delete.31"** %69, metadata !7489, metadata !DIExpression()), !dbg !7556
  %70 = alloca %"class.altered_carbon::js::ACLexNumberToken"**, align 8
  call void @llvm.dbg.declare(metadata %"class.altered_carbon::js::ACLexNumberToken"*** %70, metadata !7425, metadata !DIExpression()), !dbg !7557
  %71 = alloca %"class.std::__1::__compressed_pair.15"*, align 8
  call void @llvm.dbg.declare(metadata %"class.std::__1::__compressed_pair.15"** %71, metadata !7493, metadata !DIExpression()), !dbg !7559
  %72 = alloca %"class.altered_carbon::js::ACLexNumberToken"**, align 8
  call void @llvm.dbg.declare(metadata %"class.altered_carbon::js::ACLexNumberToken"*** %72, metadata !7496, metadata !DIExpression()), !dbg !7560
  %73 = alloca %"struct.std::__1::default_delete.31"*, align 8
  call void @llvm.dbg.declare(metadata %"struct.std::__1::default_delete.31"** %73, metadata !7498, metadata !DIExpression()), !dbg !7561
  %74 = alloca %"class.std::__1::__compressed_pair.15"*, align 8
  call void @llvm.dbg.declare(metadata %"class.std::__1::__compressed_pair.15"** %74, metadata !7500, metadata !DIExpression()), !dbg !7562
  %75 = alloca %"class.altered_carbon::js::ACLexNumberToken"**, align 8
  call void @llvm.dbg.declare(metadata %"class.altered_carbon::js::ACLexNumberToken"*** %75, metadata !7502, metadata !DIExpression()), !dbg !7563
  %76 = alloca %"struct.std::__1::default_delete.31"*, align 8
  call void @llvm.dbg.declare(metadata %"struct.std::__1::default_delete.31"** %76, metadata !7504, metadata !DIExpression()), !dbg !7564
  %77 = alloca %"struct.std::__1::__compressed_pair_elem.28"*, align 8
  call void @llvm.dbg.declare(metadata %"struct.std::__1::__compressed_pair_elem.28"** %77, metadata !7347, metadata !DIExpression()), !dbg !7565
  %78 = alloca %"class.std::__1::__compressed_pair.27"*, align 8
  call void @llvm.dbg.declare(metadata %"class.std::__1::__compressed_pair.27"** %78, metadata !7354, metadata !DIExpression()), !dbg !7569
  %79 = alloca %"struct.std::__1::__compressed_pair_elem.28"*, align 8
  call void @llvm.dbg.declare(metadata %"struct.std::__1::__compressed_pair_elem.28"** %79, metadata !7347, metadata !DIExpression()), !dbg !7570
  %80 = alloca %"class.std::__1::__compressed_pair.27"*, align 8
  call void @llvm.dbg.declare(metadata %"class.std::__1::__compressed_pair.27"** %80, metadata !7354, metadata !DIExpression()), !dbg !7573
  %81 = alloca %"class.std::__1::unique_ptr.26"*, align 8
  call void @llvm.dbg.declare(metadata %"class.std::__1::unique_ptr.26"** %81, metadata !7516, metadata !DIExpression()), !dbg !7574
  %82 = alloca %"class.altered_carbon::js::ACLexNumberToken"*, align 8
  call void @llvm.dbg.declare(metadata %"class.altered_carbon::js::ACLexNumberToken"** %82, metadata !7518, metadata !DIExpression()), !dbg !7575
  %83 = alloca %"class.std::__1::unique_ptr"*, align 8
  call void @llvm.dbg.declare(metadata %"class.std::__1::unique_ptr"** %83, metadata !7520, metadata !DIExpression()), !dbg !7576
  %84 = alloca %"class.std::__1::unique_ptr.26"*, align 8
  call void @llvm.dbg.declare(metadata %"class.std::__1::unique_ptr.26"** %84, metadata !7523, metadata !DIExpression()), !dbg !7577
  %85 = alloca %"class.altered_carbon::js::ACLexNumberToken"*, align 8
  %86 = alloca %"class.std::__1::unique_ptr"*, align 8
  call void @llvm.dbg.declare(metadata %"class.std::__1::unique_ptr"** %86, metadata !7525, metadata !DIExpression()), !dbg !7578
  %87 = alloca %"class.std::__1::unique_ptr.26"*, align 8
  call void @llvm.dbg.declare(metadata %"class.std::__1::unique_ptr.26"** %87, metadata !7527, metadata !DIExpression()), !dbg !7579
  %88 = alloca %"class.std::__1::basic_string_view"*, align 8
  call void @llvm.dbg.declare(metadata %"class.std::__1::basic_string_view"** %88, metadata !7378, metadata !DIExpression()), !dbg !7580
  %89 = alloca i8*, align 8
  call void @llvm.dbg.declare(metadata i8** %89, metadata !7385, metadata !DIExpression()), !dbg !7583
  %90 = alloca i64, align 8
  call void @llvm.dbg.declare(metadata i64* %90, metadata !7387, metadata !DIExpression()), !dbg !7584
  %91 = alloca %"class.std::__1::basic_string_view"*, align 8
  call void @llvm.dbg.declare(metadata %"class.std::__1::basic_string_view"** %91, metadata !7389, metadata !DIExpression()), !dbg !7585
  %92 = alloca i8*, align 8
  call void @llvm.dbg.declare(metadata i8** %92, metadata !7391, metadata !DIExpression()), !dbg !7586
  %93 = alloca i64, align 8
  call void @llvm.dbg.declare(metadata i64* %93, metadata !7393, metadata !DIExpression()), !dbg !7587
  %94 = alloca %"struct.std::__1::__compressed_pair_elem.30"*, align 8
  call void @llvm.dbg.declare(metadata %"struct.std::__1::__compressed_pair_elem.30"** %94, metadata !7329, metadata !DIExpression()), !dbg !7588
  %95 = alloca %"class.std::__1::__compressed_pair.27"*, align 8
  call void @llvm.dbg.declare(metadata %"class.std::__1::__compressed_pair.27"** %95, metadata !7344, metadata !DIExpression()), !dbg !7594
  %96 = alloca %"struct.std::__1::__compressed_pair_elem.28"*, align 8
  call void @llvm.dbg.declare(metadata %"struct.std::__1::__compressed_pair_elem.28"** %96, metadata !7347, metadata !DIExpression()), !dbg !7595
  %97 = alloca %"class.std::__1::__compressed_pair.27"*, align 8
  call void @llvm.dbg.declare(metadata %"class.std::__1::__compressed_pair.27"** %97, metadata !7354, metadata !DIExpression()), !dbg !7598
  %98 = alloca %"struct.std::__1::default_delete.31"*, align 8
  call void @llvm.dbg.declare(metadata %"struct.std::__1::default_delete.31"** %98, metadata !7356, metadata !DIExpression()), !dbg !7599
  %99 = alloca %"class.altered_carbon::js::ACLexNumberToken"*, align 8
  call void @llvm.dbg.declare(metadata %"class.altered_carbon::js::ACLexNumberToken"** %99, metadata !7361, metadata !DIExpression()), !dbg !7601
  %100 = alloca %"struct.std::__1::__compressed_pair_elem.28"*, align 8
  call void @llvm.dbg.declare(metadata %"struct.std::__1::__compressed_pair_elem.28"** %100, metadata !7347, metadata !DIExpression()), !dbg !7602
  %101 = alloca %"class.std::__1::__compressed_pair.27"*, align 8
  call void @llvm.dbg.declare(metadata %"class.std::__1::__compressed_pair.27"** %101, metadata !7354, metadata !DIExpression()), !dbg !7605
  %102 = alloca %"class.std::__1::unique_ptr.26"*, align 8
  call void @llvm.dbg.declare(metadata %"class.std::__1::unique_ptr.26"** %102, metadata !7367, metadata !DIExpression()), !dbg !7606
  %103 = alloca %"class.altered_carbon::js::ACLexNumberToken"*, align 8
  call void @llvm.dbg.declare(metadata %"class.altered_carbon::js::ACLexNumberToken"** %103, metadata !7370, metadata !DIExpression()), !dbg !7607
  %104 = alloca %"class.altered_carbon::js::ACLexNumberToken"*, align 8
  call void @llvm.dbg.declare(metadata %"class.altered_carbon::js::ACLexNumberToken"** %104, metadata !7372, metadata !DIExpression()), !dbg !7608
  %105 = alloca %"class.std::__1::unique_ptr.26"*, align 8
  call void @llvm.dbg.declare(metadata %"class.std::__1::unique_ptr.26"** %105, metadata !7374, metadata !DIExpression()), !dbg !7609
  %106 = alloca %"class.std::__1::unique_ptr.26"*, align 8
  call void @llvm.dbg.declare(metadata %"class.std::__1::unique_ptr.26"** %106, metadata !7376, metadata !DIExpression()), !dbg !7610
  %107 = alloca i32, align 4
  call void @llvm.dbg.declare(metadata i32* %107, metadata !7318, metadata !DIExpression()), !dbg !7611
  %108 = alloca i32, align 4
  call void @llvm.dbg.declare(metadata i32* %108, metadata !7327, metadata !DIExpression()), !dbg !7617
  %109 = alloca %"class.std::__1::basic_string_view"*, align 8
  call void @llvm.dbg.declare(metadata %"class.std::__1::basic_string_view"** %109, metadata !7378, metadata !DIExpression()), !dbg !7618
  %110 = alloca i8*, align 8
  call void @llvm.dbg.declare(metadata i8** %110, metadata !7385, metadata !DIExpression()), !dbg !7623
  %111 = alloca i64, align 8
  call void @llvm.dbg.declare(metadata i64* %111, metadata !7387, metadata !DIExpression()), !dbg !7624
  %112 = alloca %"class.std::__1::basic_string_view"*, align 8
  call void @llvm.dbg.declare(metadata %"class.std::__1::basic_string_view"** %112, metadata !7389, metadata !DIExpression()), !dbg !7625
  %113 = alloca i8*, align 8
  call void @llvm.dbg.declare(metadata i8** %113, metadata !7391, metadata !DIExpression()), !dbg !7626
  %114 = alloca i64, align 8
  call void @llvm.dbg.declare(metadata i64* %114, metadata !7393, metadata !DIExpression()), !dbg !7627
  %115 = alloca i32, align 4
  call void @llvm.dbg.declare(metadata i32* %115, metadata !7318, metadata !DIExpression()), !dbg !7628
  %116 = alloca i32, align 4
  call void @llvm.dbg.declare(metadata i32* %116, metadata !7327, metadata !DIExpression()), !dbg !7631
  %117 = alloca %"struct.std::__1::__compressed_pair_elem.30"*, align 8
  call void @llvm.dbg.declare(metadata %"struct.std::__1::__compressed_pair_elem.30"** %117, metadata !7329, metadata !DIExpression()), !dbg !7632
  %118 = alloca %"class.std::__1::__compressed_pair.27"*, align 8
  call void @llvm.dbg.declare(metadata %"class.std::__1::__compressed_pair.27"** %118, metadata !7344, metadata !DIExpression()), !dbg !7638
  %119 = alloca %"struct.std::__1::__compressed_pair_elem.28"*, align 8
  call void @llvm.dbg.declare(metadata %"struct.std::__1::__compressed_pair_elem.28"** %119, metadata !7347, metadata !DIExpression()), !dbg !7639
  %120 = alloca %"class.std::__1::__compressed_pair.27"*, align 8
  call void @llvm.dbg.declare(metadata %"class.std::__1::__compressed_pair.27"** %120, metadata !7354, metadata !DIExpression()), !dbg !7642
  %121 = alloca %"struct.std::__1::default_delete.31"*, align 8
  call void @llvm.dbg.declare(metadata %"struct.std::__1::default_delete.31"** %121, metadata !7356, metadata !DIExpression()), !dbg !7643
  %122 = alloca %"class.altered_carbon::js::ACLexNumberToken"*, align 8
  call void @llvm.dbg.declare(metadata %"class.altered_carbon::js::ACLexNumberToken"** %122, metadata !7361, metadata !DIExpression()), !dbg !7645
  %123 = alloca %"struct.std::__1::__compressed_pair_elem.28"*, align 8
  call void @llvm.dbg.declare(metadata %"struct.std::__1::__compressed_pair_elem.28"** %123, metadata !7347, metadata !DIExpression()), !dbg !7646
  %124 = alloca %"class.std::__1::__compressed_pair.27"*, align 8
  call void @llvm.dbg.declare(metadata %"class.std::__1::__compressed_pair.27"** %124, metadata !7354, metadata !DIExpression()), !dbg !7649
  %125 = alloca %"class.std::__1::unique_ptr.26"*, align 8
  call void @llvm.dbg.declare(metadata %"class.std::__1::unique_ptr.26"** %125, metadata !7367, metadata !DIExpression()), !dbg !7650
  %126 = alloca %"class.altered_carbon::js::ACLexNumberToken"*, align 8
  call void @llvm.dbg.declare(metadata %"class.altered_carbon::js::ACLexNumberToken"** %126, metadata !7370, metadata !DIExpression()), !dbg !7651
  %127 = alloca %"class.altered_carbon::js::ACLexNumberToken"*, align 8
  call void @llvm.dbg.declare(metadata %"class.altered_carbon::js::ACLexNumberToken"** %127, metadata !7372, metadata !DIExpression()), !dbg !7652
  %128 = alloca %"class.std::__1::unique_ptr.26"*, align 8
  call void @llvm.dbg.declare(metadata %"class.std::__1::unique_ptr.26"** %128, metadata !7374, metadata !DIExpression()), !dbg !7653
  %129 = alloca %"class.std::__1::unique_ptr.26"*, align 8
  call void @llvm.dbg.declare(metadata %"class.std::__1::unique_ptr.26"** %129, metadata !7376, metadata !DIExpression()), !dbg !7654
  %130 = alloca %"struct.std::__1::__compressed_pair_elem.30"*, align 8
  call void @llvm.dbg.declare(metadata %"struct.std::__1::__compressed_pair_elem.30"** %130, metadata !7329, metadata !DIExpression()), !dbg !7655
  %131 = alloca %"class.std::__1::__compressed_pair.27"*, align 8
  call void @llvm.dbg.declare(metadata %"class.std::__1::__compressed_pair.27"** %131, metadata !7344, metadata !DIExpression()), !dbg !7661
  %132 = alloca %"class.std::__1::unique_ptr.26"*, align 8
  call void @llvm.dbg.declare(metadata %"class.std::__1::unique_ptr.26"** %132, metadata !7412, metadata !DIExpression()), !dbg !7662
  %133 = alloca %"struct.std::__1::default_delete.31"*, align 8
  call void @llvm.dbg.declare(metadata %"struct.std::__1::default_delete.31"** %133, metadata !7414, metadata !DIExpression()), !dbg !7663
  %134 = alloca %"class.altered_carbon::js::ACLexNumberToken"**, align 8
  call void @llvm.dbg.declare(metadata %"class.altered_carbon::js::ACLexNumberToken"*** %134, metadata !7425, metadata !DIExpression()), !dbg !7665
  %135 = alloca %"struct.std::__1::__compressed_pair_elem.16"*, align 8
  call void @llvm.dbg.declare(metadata %"struct.std::__1::__compressed_pair_elem.16"** %135, metadata !7453, metadata !DIExpression()), !dbg !7670
  %136 = alloca %"class.altered_carbon::js::ACLexNumberToken"**, align 8
  call void @llvm.dbg.declare(metadata %"class.altered_carbon::js::ACLexNumberToken"*** %136, metadata !7456, metadata !DIExpression()), !dbg !7671
  %137 = alloca %"struct.std::__1::default_delete.31"*, align 8
  call void @llvm.dbg.declare(metadata %"struct.std::__1::default_delete.31"** %137, metadata !7414, metadata !DIExpression()), !dbg !7672
  %138 = alloca %"struct.std::__1::default_delete"*, align 8
  call void @llvm.dbg.declare(metadata %"struct.std::__1::default_delete"** %138, metadata !7460, metadata !DIExpression()), !dbg !7674
  %139 = alloca %"struct.std::__1::default_delete.31"*, align 8
  call void @llvm.dbg.declare(metadata %"struct.std::__1::default_delete.31"** %139, metadata !7480, metadata !DIExpression()), !dbg !7677
  %140 = alloca i8*, align 8
  call void @llvm.dbg.declare(metadata i8** %140, metadata !7482, metadata !DIExpression()), !dbg !7678
  %141 = alloca %"struct.std::__1::default_delete.31"*, align 8
  call void @llvm.dbg.declare(metadata %"struct.std::__1::default_delete.31"** %141, metadata !7414, metadata !DIExpression()), !dbg !7679
  %142 = alloca %"struct.std::__1::__compressed_pair_elem.25"*, align 8
  call void @llvm.dbg.declare(metadata %"struct.std::__1::__compressed_pair_elem.25"** %142, metadata !7486, metadata !DIExpression()), !dbg !7681
  %143 = alloca %"struct.std::__1::default_delete.31"*, align 8
  call void @llvm.dbg.declare(metadata %"struct.std::__1::default_delete.31"** %143, metadata !7489, metadata !DIExpression()), !dbg !7682
  %144 = alloca %"class.altered_carbon::js::ACLexNumberToken"**, align 8
  call void @llvm.dbg.declare(metadata %"class.altered_carbon::js::ACLexNumberToken"*** %144, metadata !7425, metadata !DIExpression()), !dbg !7683
  %145 = alloca %"class.std::__1::__compressed_pair.15"*, align 8
  call void @llvm.dbg.declare(metadata %"class.std::__1::__compressed_pair.15"** %145, metadata !7493, metadata !DIExpression()), !dbg !7685
  %146 = alloca %"class.altered_carbon::js::ACLexNumberToken"**, align 8
  call void @llvm.dbg.declare(metadata %"class.altered_carbon::js::ACLexNumberToken"*** %146, metadata !7496, metadata !DIExpression()), !dbg !7686
  %147 = alloca %"struct.std::__1::default_delete.31"*, align 8
  call void @llvm.dbg.declare(metadata %"struct.std::__1::default_delete.31"** %147, metadata !7498, metadata !DIExpression()), !dbg !7687
  %148 = alloca %"class.std::__1::__compressed_pair.15"*, align 8
  call void @llvm.dbg.declare(metadata %"class.std::__1::__compressed_pair.15"** %148, metadata !7500, metadata !DIExpression()), !dbg !7688
  %149 = alloca %"class.altered_carbon::js::ACLexNumberToken"**, align 8
  call void @llvm.dbg.declare(metadata %"class.altered_carbon::js::ACLexNumberToken"*** %149, metadata !7502, metadata !DIExpression()), !dbg !7689
  %150 = alloca %"struct.std::__1::default_delete.31"*, align 8
  call void @llvm.dbg.declare(metadata %"struct.std::__1::default_delete.31"** %150, metadata !7504, metadata !DIExpression()), !dbg !7690
  %151 = alloca %"struct.std::__1::__compressed_pair_elem.28"*, align 8
  call void @llvm.dbg.declare(metadata %"struct.std::__1::__compressed_pair_elem.28"** %151, metadata !7347, metadata !DIExpression()), !dbg !7691
  %152 = alloca %"class.std::__1::__compressed_pair.27"*, align 8
  call void @llvm.dbg.declare(metadata %"class.std::__1::__compressed_pair.27"** %152, metadata !7354, metadata !DIExpression()), !dbg !7695
  %153 = alloca %"struct.std::__1::__compressed_pair_elem.28"*, align 8
  call void @llvm.dbg.declare(metadata %"struct.std::__1::__compressed_pair_elem.28"** %153, metadata !7347, metadata !DIExpression()), !dbg !7696
  %154 = alloca %"class.std::__1::__compressed_pair.27"*, align 8
  call void @llvm.dbg.declare(metadata %"class.std::__1::__compressed_pair.27"** %154, metadata !7354, metadata !DIExpression()), !dbg !7699
  %155 = alloca %"class.std::__1::unique_ptr.26"*, align 8
  call void @llvm.dbg.declare(metadata %"class.std::__1::unique_ptr.26"** %155, metadata !7516, metadata !DIExpression()), !dbg !7700
  %156 = alloca %"class.altered_carbon::js::ACLexNumberToken"*, align 8
  call void @llvm.dbg.declare(metadata %"class.altered_carbon::js::ACLexNumberToken"** %156, metadata !7518, metadata !DIExpression()), !dbg !7701
  %157 = alloca %"class.std::__1::unique_ptr"*, align 8
  call void @llvm.dbg.declare(metadata %"class.std::__1::unique_ptr"** %157, metadata !7520, metadata !DIExpression()), !dbg !7702
  %158 = alloca %"class.std::__1::unique_ptr.26"*, align 8
  call void @llvm.dbg.declare(metadata %"class.std::__1::unique_ptr.26"** %158, metadata !7523, metadata !DIExpression()), !dbg !7703
  %159 = alloca %"class.altered_carbon::js::ACLexNumberToken"*, align 8
  %160 = alloca %"class.std::__1::unique_ptr"*, align 8
  call void @llvm.dbg.declare(metadata %"class.std::__1::unique_ptr"** %160, metadata !7525, metadata !DIExpression()), !dbg !7704
  %161 = alloca %"class.std::__1::unique_ptr.26"*, align 8
  call void @llvm.dbg.declare(metadata %"class.std::__1::unique_ptr.26"** %161, metadata !7527, metadata !DIExpression()), !dbg !7705
  %162 = alloca %"struct.std::__1::__compressed_pair_elem.30"*, align 8
  call void @llvm.dbg.declare(metadata %"struct.std::__1::__compressed_pair_elem.30"** %162, metadata !7329, metadata !DIExpression()), !dbg !7706
  %163 = alloca %"class.std::__1::__compressed_pair.27"*, align 8
  call void @llvm.dbg.declare(metadata %"class.std::__1::__compressed_pair.27"** %163, metadata !7344, metadata !DIExpression()), !dbg !7712
  %164 = alloca %"class.std::__1::unique_ptr.26"*, align 8
  call void @llvm.dbg.declare(metadata %"class.std::__1::unique_ptr.26"** %164, metadata !7412, metadata !DIExpression()), !dbg !7713
  %165 = alloca %"struct.std::__1::default_delete.31"*, align 8
  call void @llvm.dbg.declare(metadata %"struct.std::__1::default_delete.31"** %165, metadata !7414, metadata !DIExpression()), !dbg !7714
  %166 = alloca %"class.altered_carbon::js::ACLexNumberToken"**, align 8
  call void @llvm.dbg.declare(metadata %"class.altered_carbon::js::ACLexNumberToken"*** %166, metadata !7425, metadata !DIExpression()), !dbg !7716
  %167 = alloca %"struct.std::__1::__compressed_pair_elem.16"*, align 8
  call void @llvm.dbg.declare(metadata %"struct.std::__1::__compressed_pair_elem.16"** %167, metadata !7453, metadata !DIExpression()), !dbg !7721
  %168 = alloca %"class.altered_carbon::js::ACLexNumberToken"**, align 8
  call void @llvm.dbg.declare(metadata %"class.altered_carbon::js::ACLexNumberToken"*** %168, metadata !7456, metadata !DIExpression()), !dbg !7722
  %169 = alloca %"struct.std::__1::default_delete.31"*, align 8
  call void @llvm.dbg.declare(metadata %"struct.std::__1::default_delete.31"** %169, metadata !7414, metadata !DIExpression()), !dbg !7723
  %170 = alloca %"struct.std::__1::default_delete"*, align 8
  call void @llvm.dbg.declare(metadata %"struct.std::__1::default_delete"** %170, metadata !7460, metadata !DIExpression()), !dbg !7725
  %171 = alloca %"struct.std::__1::default_delete.31"*, align 8
  call void @llvm.dbg.declare(metadata %"struct.std::__1::default_delete.31"** %171, metadata !7480, metadata !DIExpression()), !dbg !7728
  %172 = alloca i8*, align 8
  call void @llvm.dbg.declare(metadata i8** %172, metadata !7482, metadata !DIExpression()), !dbg !7729
  %173 = alloca %"struct.std::__1::default_delete.31"*, align 8
  call void @llvm.dbg.declare(metadata %"struct.std::__1::default_delete.31"** %173, metadata !7414, metadata !DIExpression()), !dbg !7730
  %174 = alloca %"struct.std::__1::__compressed_pair_elem.25"*, align 8
  call void @llvm.dbg.declare(metadata %"struct.std::__1::__compressed_pair_elem.25"** %174, metadata !7486, metadata !DIExpression()), !dbg !7732
  %175 = alloca %"struct.std::__1::default_delete.31"*, align 8
  call void @llvm.dbg.declare(metadata %"struct.std::__1::default_delete.31"** %175, metadata !7489, metadata !DIExpression()), !dbg !7733
  %176 = alloca %"class.altered_carbon::js::ACLexNumberToken"**, align 8
  call void @llvm.dbg.declare(metadata %"class.altered_carbon::js::ACLexNumberToken"*** %176, metadata !7425, metadata !DIExpression()), !dbg !7734
  %177 = alloca %"class.std::__1::__compressed_pair.15"*, align 8
  call void @llvm.dbg.declare(metadata %"class.std::__1::__compressed_pair.15"** %177, metadata !7493, metadata !DIExpression()), !dbg !7736
  %178 = alloca %"class.altered_carbon::js::ACLexNumberToken"**, align 8
  call void @llvm.dbg.declare(metadata %"class.altered_carbon::js::ACLexNumberToken"*** %178, metadata !7496, metadata !DIExpression()), !dbg !7737
  %179 = alloca %"struct.std::__1::default_delete.31"*, align 8
  call void @llvm.dbg.declare(metadata %"struct.std::__1::default_delete.31"** %179, metadata !7498, metadata !DIExpression()), !dbg !7738
  %180 = alloca %"class.std::__1::__compressed_pair.15"*, align 8
  call void @llvm.dbg.declare(metadata %"class.std::__1::__compressed_pair.15"** %180, metadata !7500, metadata !DIExpression()), !dbg !7739
  %181 = alloca %"class.altered_carbon::js::ACLexNumberToken"**, align 8
  call void @llvm.dbg.declare(metadata %"class.altered_carbon::js::ACLexNumberToken"*** %181, metadata !7502, metadata !DIExpression()), !dbg !7740
  %182 = alloca %"struct.std::__1::default_delete.31"*, align 8
  call void @llvm.dbg.declare(metadata %"struct.std::__1::default_delete.31"** %182, metadata !7504, metadata !DIExpression()), !dbg !7741
  %183 = alloca %"struct.std::__1::__compressed_pair_elem.28"*, align 8
  call void @llvm.dbg.declare(metadata %"struct.std::__1::__compressed_pair_elem.28"** %183, metadata !7347, metadata !DIExpression()), !dbg !7742
  %184 = alloca %"class.std::__1::__compressed_pair.27"*, align 8
  call void @llvm.dbg.declare(metadata %"class.std::__1::__compressed_pair.27"** %184, metadata !7354, metadata !DIExpression()), !dbg !7746
  %185 = alloca %"struct.std::__1::__compressed_pair_elem.28"*, align 8
  call void @llvm.dbg.declare(metadata %"struct.std::__1::__compressed_pair_elem.28"** %185, metadata !7347, metadata !DIExpression()), !dbg !7747
  %186 = alloca %"class.std::__1::__compressed_pair.27"*, align 8
  call void @llvm.dbg.declare(metadata %"class.std::__1::__compressed_pair.27"** %186, metadata !7354, metadata !DIExpression()), !dbg !7750
  %187 = alloca %"class.std::__1::unique_ptr.26"*, align 8
  call void @llvm.dbg.declare(metadata %"class.std::__1::unique_ptr.26"** %187, metadata !7516, metadata !DIExpression()), !dbg !7751
  %188 = alloca %"class.altered_carbon::js::ACLexNumberToken"*, align 8
  call void @llvm.dbg.declare(metadata %"class.altered_carbon::js::ACLexNumberToken"** %188, metadata !7518, metadata !DIExpression()), !dbg !7752
  %189 = alloca %"class.std::__1::unique_ptr"*, align 8
  call void @llvm.dbg.declare(metadata %"class.std::__1::unique_ptr"** %189, metadata !7520, metadata !DIExpression()), !dbg !7753
  %190 = alloca %"class.std::__1::unique_ptr.26"*, align 8
  call void @llvm.dbg.declare(metadata %"class.std::__1::unique_ptr.26"** %190, metadata !7523, metadata !DIExpression()), !dbg !7754
  %191 = alloca %"class.altered_carbon::js::ACLexNumberToken"*, align 8
  %192 = alloca %"class.std::__1::unique_ptr"*, align 8
  call void @llvm.dbg.declare(metadata %"class.std::__1::unique_ptr"** %192, metadata !7525, metadata !DIExpression()), !dbg !7755
  %193 = alloca %"class.std::__1::unique_ptr.26"*, align 8
  call void @llvm.dbg.declare(metadata %"class.std::__1::unique_ptr.26"** %193, metadata !7527, metadata !DIExpression()), !dbg !7756
  %194 = alloca %"struct.std::__1::__compressed_pair_elem.30"*, align 8
  call void @llvm.dbg.declare(metadata %"struct.std::__1::__compressed_pair_elem.30"** %194, metadata !7329, metadata !DIExpression()), !dbg !7757
  %195 = alloca %"class.std::__1::__compressed_pair.27"*, align 8
  call void @llvm.dbg.declare(metadata %"class.std::__1::__compressed_pair.27"** %195, metadata !7344, metadata !DIExpression()), !dbg !7763
  %196 = alloca %"struct.std::__1::__compressed_pair_elem.28"*, align 8
  call void @llvm.dbg.declare(metadata %"struct.std::__1::__compressed_pair_elem.28"** %196, metadata !7347, metadata !DIExpression()), !dbg !7764
  %197 = alloca %"class.std::__1::__compressed_pair.27"*, align 8
  call void @llvm.dbg.declare(metadata %"class.std::__1::__compressed_pair.27"** %197, metadata !7354, metadata !DIExpression()), !dbg !7767
  %198 = alloca %"struct.std::__1::default_delete.31"*, align 8
  call void @llvm.dbg.declare(metadata %"struct.std::__1::default_delete.31"** %198, metadata !7356, metadata !DIExpression()), !dbg !7768
  %199 = alloca %"class.altered_carbon::js::ACLexNumberToken"*, align 8
  call void @llvm.dbg.declare(metadata %"class.altered_carbon::js::ACLexNumberToken"** %199, metadata !7361, metadata !DIExpression()), !dbg !7770
  %200 = alloca %"struct.std::__1::__compressed_pair_elem.28"*, align 8
  call void @llvm.dbg.declare(metadata %"struct.std::__1::__compressed_pair_elem.28"** %200, metadata !7347, metadata !DIExpression()), !dbg !7771
  %201 = alloca %"class.std::__1::__compressed_pair.27"*, align 8
  call void @llvm.dbg.declare(metadata %"class.std::__1::__compressed_pair.27"** %201, metadata !7354, metadata !DIExpression()), !dbg !7774
  %202 = alloca %"class.std::__1::unique_ptr.26"*, align 8
  call void @llvm.dbg.declare(metadata %"class.std::__1::unique_ptr.26"** %202, metadata !7367, metadata !DIExpression()), !dbg !7775
  %203 = alloca %"class.altered_carbon::js::ACLexNumberToken"*, align 8
  call void @llvm.dbg.declare(metadata %"class.altered_carbon::js::ACLexNumberToken"** %203, metadata !7370, metadata !DIExpression()), !dbg !7776
  %204 = alloca %"class.altered_carbon::js::ACLexNumberToken"*, align 8
  call void @llvm.dbg.declare(metadata %"class.altered_carbon::js::ACLexNumberToken"** %204, metadata !7372, metadata !DIExpression()), !dbg !7777
  %205 = alloca %"class.std::__1::unique_ptr.26"*, align 8
  call void @llvm.dbg.declare(metadata %"class.std::__1::unique_ptr.26"** %205, metadata !7374, metadata !DIExpression()), !dbg !7778
  %206 = alloca %"class.std::__1::unique_ptr.26"*, align 8
  call void @llvm.dbg.declare(metadata %"class.std::__1::unique_ptr.26"** %206, metadata !7376, metadata !DIExpression()), !dbg !7779
  %207 = alloca %"class.std::__1::basic_string_view"*, align 8
  call void @llvm.dbg.declare(metadata %"class.std::__1::basic_string_view"** %207, metadata !7378, metadata !DIExpression()), !dbg !7780
  %208 = alloca i8*, align 8
  call void @llvm.dbg.declare(metadata i8** %208, metadata !7385, metadata !DIExpression()), !dbg !7783
  %209 = alloca i64, align 8
  call void @llvm.dbg.declare(metadata i64* %209, metadata !7387, metadata !DIExpression()), !dbg !7784
  %210 = alloca %"class.std::__1::basic_string_view"*, align 8
  call void @llvm.dbg.declare(metadata %"class.std::__1::basic_string_view"** %210, metadata !7389, metadata !DIExpression()), !dbg !7785
  %211 = alloca i8*, align 8
  call void @llvm.dbg.declare(metadata i8** %211, metadata !7391, metadata !DIExpression()), !dbg !7786
  %212 = alloca i64, align 8
  call void @llvm.dbg.declare(metadata i64* %212, metadata !7393, metadata !DIExpression()), !dbg !7787
  %213 = alloca %"class.std::__1::basic_string_view"*, align 8
  call void @llvm.dbg.declare(metadata %"class.std::__1::basic_string_view"** %213, metadata !7378, metadata !DIExpression()), !dbg !7788
  %214 = alloca i8*, align 8
  call void @llvm.dbg.declare(metadata i8** %214, metadata !7385, metadata !DIExpression()), !dbg !7791
  %215 = alloca i64, align 8
  call void @llvm.dbg.declare(metadata i64* %215, metadata !7387, metadata !DIExpression()), !dbg !7792
  %216 = alloca %"class.std::__1::basic_string_view"*, align 8
  call void @llvm.dbg.declare(metadata %"class.std::__1::basic_string_view"** %216, metadata !7389, metadata !DIExpression()), !dbg !7793
  %217 = alloca i8*, align 8
  call void @llvm.dbg.declare(metadata i8** %217, metadata !7391, metadata !DIExpression()), !dbg !7794
  %218 = alloca i64, align 8
  call void @llvm.dbg.declare(metadata i64* %218, metadata !7393, metadata !DIExpression()), !dbg !7795
  %219 = alloca %"struct.std::__1::__compressed_pair_elem.30"*, align 8
  call void @llvm.dbg.declare(metadata %"struct.std::__1::__compressed_pair_elem.30"** %219, metadata !7329, metadata !DIExpression()), !dbg !7796
  %220 = alloca %"class.std::__1::__compressed_pair.27"*, align 8
  call void @llvm.dbg.declare(metadata %"class.std::__1::__compressed_pair.27"** %220, metadata !7344, metadata !DIExpression()), !dbg !7802
  %221 = alloca %"class.std::__1::unique_ptr.26"*, align 8
  call void @llvm.dbg.declare(metadata %"class.std::__1::unique_ptr.26"** %221, metadata !7412, metadata !DIExpression()), !dbg !7803
  %222 = alloca %"struct.std::__1::default_delete.31"*, align 8
  call void @llvm.dbg.declare(metadata %"struct.std::__1::default_delete.31"** %222, metadata !7414, metadata !DIExpression()), !dbg !7804
  %223 = alloca %"class.altered_carbon::js::ACLexNumberToken"**, align 8
  call void @llvm.dbg.declare(metadata %"class.altered_carbon::js::ACLexNumberToken"*** %223, metadata !7425, metadata !DIExpression()), !dbg !7806
  %224 = alloca %"struct.std::__1::__compressed_pair_elem.16"*, align 8
  call void @llvm.dbg.declare(metadata %"struct.std::__1::__compressed_pair_elem.16"** %224, metadata !7453, metadata !DIExpression()), !dbg !7811
  %225 = alloca %"class.altered_carbon::js::ACLexNumberToken"**, align 8
  call void @llvm.dbg.declare(metadata %"class.altered_carbon::js::ACLexNumberToken"*** %225, metadata !7456, metadata !DIExpression()), !dbg !7812
  %226 = alloca %"struct.std::__1::default_delete.31"*, align 8
  call void @llvm.dbg.declare(metadata %"struct.std::__1::default_delete.31"** %226, metadata !7414, metadata !DIExpression()), !dbg !7813
  %227 = alloca %"struct.std::__1::default_delete"*, align 8
  call void @llvm.dbg.declare(metadata %"struct.std::__1::default_delete"** %227, metadata !7460, metadata !DIExpression()), !dbg !7815
  %228 = alloca %"struct.std::__1::default_delete.31"*, align 8
  call void @llvm.dbg.declare(metadata %"struct.std::__1::default_delete.31"** %228, metadata !7480, metadata !DIExpression()), !dbg !7818
  %229 = alloca i8*, align 8
  call void @llvm.dbg.declare(metadata i8** %229, metadata !7482, metadata !DIExpression()), !dbg !7819
  %230 = alloca %"struct.std::__1::default_delete.31"*, align 8
  call void @llvm.dbg.declare(metadata %"struct.std::__1::default_delete.31"** %230, metadata !7414, metadata !DIExpression()), !dbg !7820
  %231 = alloca %"struct.std::__1::__compressed_pair_elem.25"*, align 8
  call void @llvm.dbg.declare(metadata %"struct.std::__1::__compressed_pair_elem.25"** %231, metadata !7486, metadata !DIExpression()), !dbg !7822
  %232 = alloca %"struct.std::__1::default_delete.31"*, align 8
  call void @llvm.dbg.declare(metadata %"struct.std::__1::default_delete.31"** %232, metadata !7489, metadata !DIExpression()), !dbg !7823
  %233 = alloca %"class.altered_carbon::js::ACLexNumberToken"**, align 8
  call void @llvm.dbg.declare(metadata %"class.altered_carbon::js::ACLexNumberToken"*** %233, metadata !7425, metadata !DIExpression()), !dbg !7824
  %234 = alloca %"class.std::__1::__compressed_pair.15"*, align 8
  call void @llvm.dbg.declare(metadata %"class.std::__1::__compressed_pair.15"** %234, metadata !7493, metadata !DIExpression()), !dbg !7826
  %235 = alloca %"class.altered_carbon::js::ACLexNumberToken"**, align 8
  call void @llvm.dbg.declare(metadata %"class.altered_carbon::js::ACLexNumberToken"*** %235, metadata !7496, metadata !DIExpression()), !dbg !7827
  %236 = alloca %"struct.std::__1::default_delete.31"*, align 8
  call void @llvm.dbg.declare(metadata %"struct.std::__1::default_delete.31"** %236, metadata !7498, metadata !DIExpression()), !dbg !7828
  %237 = alloca %"class.std::__1::__compressed_pair.15"*, align 8
  call void @llvm.dbg.declare(metadata %"class.std::__1::__compressed_pair.15"** %237, metadata !7500, metadata !DIExpression()), !dbg !7829
  %238 = alloca %"class.altered_carbon::js::ACLexNumberToken"**, align 8
  call void @llvm.dbg.declare(metadata %"class.altered_carbon::js::ACLexNumberToken"*** %238, metadata !7502, metadata !DIExpression()), !dbg !7830
  %239 = alloca %"struct.std::__1::default_delete.31"*, align 8
  call void @llvm.dbg.declare(metadata %"struct.std::__1::default_delete.31"** %239, metadata !7504, metadata !DIExpression()), !dbg !7831
  %240 = alloca %"struct.std::__1::__compressed_pair_elem.28"*, align 8
  call void @llvm.dbg.declare(metadata %"struct.std::__1::__compressed_pair_elem.28"** %240, metadata !7347, metadata !DIExpression()), !dbg !7832
  %241 = alloca %"class.std::__1::__compressed_pair.27"*, align 8
  call void @llvm.dbg.declare(metadata %"class.std::__1::__compressed_pair.27"** %241, metadata !7354, metadata !DIExpression()), !dbg !7836
  %242 = alloca %"struct.std::__1::__compressed_pair_elem.28"*, align 8
  call void @llvm.dbg.declare(metadata %"struct.std::__1::__compressed_pair_elem.28"** %242, metadata !7347, metadata !DIExpression()), !dbg !7837
  %243 = alloca %"class.std::__1::__compressed_pair.27"*, align 8
  call void @llvm.dbg.declare(metadata %"class.std::__1::__compressed_pair.27"** %243, metadata !7354, metadata !DIExpression()), !dbg !7840
  %244 = alloca %"class.std::__1::unique_ptr.26"*, align 8
  call void @llvm.dbg.declare(metadata %"class.std::__1::unique_ptr.26"** %244, metadata !7516, metadata !DIExpression()), !dbg !7841
  %245 = alloca %"class.altered_carbon::js::ACLexNumberToken"*, align 8
  call void @llvm.dbg.declare(metadata %"class.altered_carbon::js::ACLexNumberToken"** %245, metadata !7518, metadata !DIExpression()), !dbg !7842
  %246 = alloca %"class.std::__1::unique_ptr"*, align 8
  call void @llvm.dbg.declare(metadata %"class.std::__1::unique_ptr"** %246, metadata !7520, metadata !DIExpression()), !dbg !7843
  %247 = alloca %"class.std::__1::unique_ptr.26"*, align 8
  call void @llvm.dbg.declare(metadata %"class.std::__1::unique_ptr.26"** %247, metadata !7523, metadata !DIExpression()), !dbg !7844
  %248 = alloca %"class.altered_carbon::js::ACLexNumberToken"*, align 8
  %249 = alloca %"class.std::__1::unique_ptr"*, align 8
  call void @llvm.dbg.declare(metadata %"class.std::__1::unique_ptr"** %249, metadata !7525, metadata !DIExpression()), !dbg !7845
  %250 = alloca %"class.std::__1::unique_ptr.26"*, align 8
  call void @llvm.dbg.declare(metadata %"class.std::__1::unique_ptr.26"** %250, metadata !7527, metadata !DIExpression()), !dbg !7846
  %251 = alloca i32, align 4
  call void @llvm.dbg.declare(metadata i32* %251, metadata !7318, metadata !DIExpression()), !dbg !7847
  %252 = alloca i32, align 4
  call void @llvm.dbg.declare(metadata i32* %252, metadata !7327, metadata !DIExpression()), !dbg !7850
  %253 = alloca %"struct.std::__1::__compressed_pair_elem.30"*, align 8
  call void @llvm.dbg.declare(metadata %"struct.std::__1::__compressed_pair_elem.30"** %253, metadata !7329, metadata !DIExpression()), !dbg !7851
  %254 = alloca %"class.std::__1::__compressed_pair.27"*, align 8
  call void @llvm.dbg.declare(metadata %"class.std::__1::__compressed_pair.27"** %254, metadata !7344, metadata !DIExpression()), !dbg !7857
  %255 = alloca %"struct.std::__1::__compressed_pair_elem.28"*, align 8
  call void @llvm.dbg.declare(metadata %"struct.std::__1::__compressed_pair_elem.28"** %255, metadata !7347, metadata !DIExpression()), !dbg !7858
  %256 = alloca %"class.std::__1::__compressed_pair.27"*, align 8
  call void @llvm.dbg.declare(metadata %"class.std::__1::__compressed_pair.27"** %256, metadata !7354, metadata !DIExpression()), !dbg !7861
  %257 = alloca %"struct.std::__1::default_delete.31"*, align 8
  call void @llvm.dbg.declare(metadata %"struct.std::__1::default_delete.31"** %257, metadata !7356, metadata !DIExpression()), !dbg !7862
  %258 = alloca %"class.altered_carbon::js::ACLexNumberToken"*, align 8
  call void @llvm.dbg.declare(metadata %"class.altered_carbon::js::ACLexNumberToken"** %258, metadata !7361, metadata !DIExpression()), !dbg !7864
  %259 = alloca %"struct.std::__1::__compressed_pair_elem.28"*, align 8
  call void @llvm.dbg.declare(metadata %"struct.std::__1::__compressed_pair_elem.28"** %259, metadata !7347, metadata !DIExpression()), !dbg !7865
  %260 = alloca %"class.std::__1::__compressed_pair.27"*, align 8
  call void @llvm.dbg.declare(metadata %"class.std::__1::__compressed_pair.27"** %260, metadata !7354, metadata !DIExpression()), !dbg !7868
  %261 = alloca %"class.std::__1::unique_ptr.26"*, align 8
  call void @llvm.dbg.declare(metadata %"class.std::__1::unique_ptr.26"** %261, metadata !7367, metadata !DIExpression()), !dbg !7869
  %262 = alloca %"class.altered_carbon::js::ACLexNumberToken"*, align 8
  call void @llvm.dbg.declare(metadata %"class.altered_carbon::js::ACLexNumberToken"** %262, metadata !7370, metadata !DIExpression()), !dbg !7870
  %263 = alloca %"class.altered_carbon::js::ACLexNumberToken"*, align 8
  call void @llvm.dbg.declare(metadata %"class.altered_carbon::js::ACLexNumberToken"** %263, metadata !7372, metadata !DIExpression()), !dbg !7871
  %264 = alloca %"class.std::__1::unique_ptr.26"*, align 8
  call void @llvm.dbg.declare(metadata %"class.std::__1::unique_ptr.26"** %264, metadata !7374, metadata !DIExpression()), !dbg !7872
  %265 = alloca %"class.std::__1::unique_ptr.26"*, align 8
  call void @llvm.dbg.declare(metadata %"class.std::__1::unique_ptr.26"** %265, metadata !7376, metadata !DIExpression()), !dbg !7873
  %266 = alloca %"struct.std::__1::__compressed_pair_elem"*, align 8
  call void @llvm.dbg.declare(metadata %"struct.std::__1::__compressed_pair_elem"** %266, metadata !7874, metadata !DIExpression()), !dbg !7877
  %267 = alloca %"class.std::__1::__compressed_pair"*, align 8
  call void @llvm.dbg.declare(metadata %"class.std::__1::__compressed_pair"** %267, metadata !7888, metadata !DIExpression()), !dbg !7890
  %268 = alloca %"class.std::__1::basic_string"*, align 8
  call void @llvm.dbg.declare(metadata %"class.std::__1::basic_string"** %268, metadata !7891, metadata !DIExpression()), !dbg !7893
  %269 = alloca [3 x i64]*, align 8
  call void @llvm.dbg.declare(metadata [3 x i64]** %269, metadata !7894, metadata !DIExpression()), !dbg !7896
  %270 = alloca i32, align 4
  call void @llvm.dbg.declare(metadata i32* %270, metadata !7897, metadata !DIExpression()), !dbg !7899
  %271 = alloca %"class.std::__1::allocator"*, align 8
  call void @llvm.dbg.declare(metadata %"class.std::__1::allocator"** %271, metadata !7900, metadata !DIExpression()), !dbg !7903
  %272 = alloca %"struct.std::__1::__compressed_pair_elem.1"*, align 8
  call void @llvm.dbg.declare(metadata %"struct.std::__1::__compressed_pair_elem.1"** %272, metadata !7916, metadata !DIExpression()), !dbg !7918
  %273 = alloca %"struct.std::__1::__compressed_pair_elem"*, align 8
  call void @llvm.dbg.declare(metadata %"struct.std::__1::__compressed_pair_elem"** %273, metadata !7919, metadata !DIExpression()), !dbg !7921
  %274 = alloca %"class.std::__1::__compressed_pair"*, align 8
  call void @llvm.dbg.declare(metadata %"class.std::__1::__compressed_pair"** %274, metadata !7923, metadata !DIExpression()), !dbg !7924
  %275 = alloca %"class.std::__1::__compressed_pair"*, align 8
  call void @llvm.dbg.declare(metadata %"class.std::__1::__compressed_pair"** %275, metadata !7925, metadata !DIExpression()), !dbg !7926
  %276 = alloca %"class.std::__1::basic_string"*, align 8
  call void @llvm.dbg.declare(metadata %"class.std::__1::basic_string"** %276, metadata !7927, metadata !DIExpression()), !dbg !7928
  %277 = alloca %"class.std::__1::basic_string"*, align 8
  call void @llvm.dbg.declare(metadata %"class.std::__1::basic_string"** %277, metadata !7929, metadata !DIExpression()), !dbg !7930
  %278 = alloca %"class.altered_carbon::js::ACJsParser"*, align 8
  %279 = alloca %"class.std::__1::basic_string", align 8
  %280 = alloca i64, align 8
  %281 = alloca double, align 8
  %282 = alloca i32, align 4
  %283 = alloca i8, align 1
  %284 = alloca i32, align 4
  %285 = alloca %"class.std::__1::unique_ptr.26", align 8
  %286 = alloca i64, align 8
  %287 = alloca %"class.std::__1::basic_string_view", align 8
  %288 = alloca i32, align 4
  %289 = alloca i32
  %290 = alloca %"class.std::__1::unique_ptr.26", align 8
  %291 = alloca i64, align 8
  %292 = alloca %"class.std::__1::basic_string_view", align 8
  %293 = alloca i32, align 4
  %294 = alloca %"class.std::__1::unique_ptr.26", align 8
  %295 = alloca i64, align 8
  %296 = alloca %"class.std::__1::basic_string_view", align 8
  %297 = alloca i32, align 4
  %298 = alloca %"class.std::__1::unique_ptr.26", align 8
  %299 = alloca i64, align 8
  %300 = alloca %"class.std::__1::basic_string_view", align 8
  %301 = alloca i32, align 4
  %302 = alloca %"class.std::__1::unique_ptr.26", align 8
  %303 = alloca i64, align 8
  %304 = alloca %"class.std::__1::basic_string_view", align 8
  store %"class.altered_carbon::js::ACJsParser"* %1, %"class.altered_carbon::js::ACJsParser"** %278, align 8
  call void @llvm.dbg.declare(metadata %"class.altered_carbon::js::ACJsParser"** %278, metadata !7931, metadata !DIExpression()), !dbg !7932
  %305 = load %"class.altered_carbon::js::ACJsParser"*, %"class.altered_carbon::js::ACJsParser"** %278, align 8
  call void @llvm.dbg.declare(metadata %"class.std::__1::basic_string"* %279, metadata !7933, metadata !DIExpression()), !dbg !7934
  store %"class.std::__1::basic_string"* %279, %"class.std::__1::basic_string"** %277, align 8
  %306 = load %"class.std::__1::basic_string"*, %"class.std::__1::basic_string"** %277, align 8
  store %"class.std::__1::basic_string"* %306, %"class.std::__1::basic_string"** %276, align 8
  %307 = load %"class.std::__1::basic_string"*, %"class.std::__1::basic_string"** %276, align 8
  %308 = bitcast %"class.std::__1::basic_string"* %307 to %"class.std::__1::__basic_string_common"*, !dbg !7935
  %309 = getelementptr inbounds %"class.std::__1::basic_string", %"class.std::__1::basic_string"* %307, i32 0, i32 0, !dbg !7936
  store %"class.std::__1::__compressed_pair"* %309, %"class.std::__1::__compressed_pair"** %275, align 8
  %310 = load %"class.std::__1::__compressed_pair"*, %"class.std::__1::__compressed_pair"** %275, align 8
  store %"class.std::__1::__compressed_pair"* %310, %"class.std::__1::__compressed_pair"** %274, align 8
  %311 = load %"class.std::__1::__compressed_pair"*, %"class.std::__1::__compressed_pair"** %274, align 8
  %312 = bitcast %"class.std::__1::__compressed_pair"* %311 to %"struct.std::__1::__compressed_pair_elem"*, !dbg !7937
  store %"struct.std::__1::__compressed_pair_elem"* %312, %"struct.std::__1::__compressed_pair_elem"** %273, align 8
  %313 = load %"struct.std::__1::__compressed_pair_elem"*, %"struct.std::__1::__compressed_pair_elem"** %273, align 8
  %314 = getelementptr inbounds %"struct.std::__1::__compressed_pair_elem", %"struct.std::__1::__compressed_pair_elem"* %313, i32 0, i32 0, !dbg !7938
  %315 = bitcast %"struct.std::__1::basic_string<char, std::__1::char_traits<char>, std::__1::allocator<char> >::__rep"* %314 to i8*, !dbg !7938
  call void @llvm.memset.p0i8.i64(i8* align 8 %315, i8 0, i64 24, i1 false), !dbg !7938
  %316 = bitcast %"class.std::__1::__compressed_pair"* %311 to %"struct.std::__1::__compressed_pair_elem.1"*, !dbg !7937
  store %"struct.std::__1::__compressed_pair_elem.1"* %316, %"struct.std::__1::__compressed_pair_elem.1"** %272, align 8
  %317 = load %"struct.std::__1::__compressed_pair_elem.1"*, %"struct.std::__1::__compressed_pair_elem.1"** %272, align 8
  %318 = bitcast %"struct.std::__1::__compressed_pair_elem.1"* %317 to %"class.std::__1::allocator"*, !dbg !7939
  store %"class.std::__1::allocator"* %318, %"class.std::__1::allocator"** %271, align 8
  %319 = load %"class.std::__1::allocator"*, %"class.std::__1::allocator"** %271, align 8
  store %"class.std::__1::basic_string"* %307, %"class.std::__1::basic_string"** %268, align 8
  %320 = load %"class.std::__1::basic_string"*, %"class.std::__1::basic_string"** %268, align 8
  %321 = getelementptr inbounds %"class.std::__1::basic_string", %"class.std::__1::basic_string"* %320, i32 0, i32 0, !dbg !7940
  store %"class.std::__1::__compressed_pair"* %321, %"class.std::__1::__compressed_pair"** %267, align 8
  %322 = load %"class.std::__1::__compressed_pair"*, %"class.std::__1::__compressed_pair"** %267, align 8
  %323 = bitcast %"class.std::__1::__compressed_pair"* %322 to %"struct.std::__1::__compressed_pair_elem"*, !dbg !7941
  store %"struct.std::__1::__compressed_pair_elem"* %323, %"struct.std::__1::__compressed_pair_elem"** %266, align 8
  %324 = load %"struct.std::__1::__compressed_pair_elem"*, %"struct.std::__1::__compressed_pair_elem"** %266, align 8
  %325 = getelementptr inbounds %"struct.std::__1::__compressed_pair_elem", %"struct.std::__1::__compressed_pair_elem"* %324, i32 0, i32 0, !dbg !7942
  %326 = getelementptr inbounds %"struct.std::__1::basic_string<char, std::__1::char_traits<char>, std::__1::allocator<char> >::__rep", %"struct.std::__1::basic_string<char, std::__1::char_traits<char>, std::__1::allocator<char> >::__rep"* %325, i32 0, i32 0, !dbg !7943
  %327 = bitcast %union.anon* %326 to %"struct.std::__1::basic_string<char, std::__1::char_traits<char>, std::__1::allocator<char> >::__raw"*, !dbg !7943
  %328 = getelementptr inbounds %"struct.std::__1::basic_string<char, std::__1::char_traits<char>, std::__1::allocator<char> >::__raw", %"struct.std::__1::basic_string<char, std::__1::char_traits<char>, std::__1::allocator<char> >::__raw"* %327, i32 0, i32 0, !dbg !7944
  store [3 x i64]* %328, [3 x i64]** %269, align 8, !dbg !7896
  store i32 0, i32* %270, align 4, !dbg !7899
  br label %329, !dbg !7945

; <label>:329:                                    ; preds = %332, %2
  %330 = load i32, i32* %270, align 4, !dbg !7946
  %331 = icmp ult i32 %330, 3, !dbg !7948
  br i1 %331, label %332, label %339, !dbg !7949

; <label>:332:                                    ; preds = %329
  %333 = load [3 x i64]*, [3 x i64]** %269, align 8, !dbg !7950
  %334 = load i32, i32* %270, align 4, !dbg !7951
  %335 = zext i32 %334 to i64, !dbg !7950
  %336 = getelementptr inbounds [3 x i64], [3 x i64]* %333, i64 0, i64 %335, !dbg !7950
  store i64 0, i64* %336, align 8, !dbg !7952
  %337 = load i32, i32* %270, align 4, !dbg !7953
  %338 = add i32 %337, 1, !dbg !7953
  store i32 %338, i32* %270, align 4, !dbg !7953
  br label %329, !dbg !7954, !llvm.loop !7955

; <label>:339:                                    ; preds = %329
  call void @llvm.dbg.declare(metadata i64* %280, metadata !7958, metadata !DIExpression()), !dbg !7959
  store i64 0, i64* %280, align 8, !dbg !7959
  call void @llvm.dbg.declare(metadata double* %281, metadata !7960, metadata !DIExpression()), !dbg !7961
  store double 0.000000e+00, double* %281, align 8, !dbg !7961
  %340 = getelementptr inbounds %"class.altered_carbon::js::ACJsParser", %"class.altered_carbon::js::ACJsParser"* %305, i32 0, i32 11, !dbg !7962
  %341 = getelementptr inbounds %"class.altered_carbon::js::ACJsParser", %"class.altered_carbon::js::ACJsParser"* %305, i32 0, i32 13, !dbg !7963
  %342 = call dereferenceable(32) %"struct.altered_carbon::js::ACLexPosition"* @_ZN14altered_carbon2js13ACLexPositionaSERKS1_(%"struct.altered_carbon::js::ACLexPosition"* %341, %"struct.altered_carbon::js::ACLexPosition"* dereferenceable(32) %340) #2, !dbg !7964
  call void @llvm.dbg.declare(metadata i32* %282, metadata !7965, metadata !DIExpression()), !dbg !7966
  %343 = call signext i32 @_ZN14altered_carbon2js10ACJsParser6nextChEib(%"class.altered_carbon::js::ACJsParser"* %305, i32 0, i1 zeroext false), !dbg !7967
  store i32 %343, i32* %282, align 4, !dbg !7966
  call void @llvm.dbg.declare(metadata i8* %283, metadata !7968, metadata !DIExpression()), !dbg !7969
  store i8 0, i8* %283, align 1, !dbg !7969
  %344 = load i32, i32* %282, align 4, !dbg !7970
  %345 = icmp sge i32 %344, 48, !dbg !7970
  br i1 %345, label %346, label %349, !dbg !7970

; <label>:346:                                    ; preds = %339
  %347 = load i32, i32* %282, align 4, !dbg !7970
  %348 = icmp sle i32 %347, 57, !dbg !7970
  br i1 %348, label %369, label %349, !dbg !7972

; <label>:349:                                    ; preds = %346, %339
  %350 = load i32, i32* %282, align 4, !dbg !7973
  %351 = icmp ne i32 %350, 46, !dbg !7974
  br i1 %351, label %352, label %369, !dbg !7975

; <label>:352:                                    ; preds = %349
  br label %353, !dbg !7976, !llvm.loop !7978

; <label>:353:                                    ; preds = %352
  %354 = call dereferenceable(160) %"class.std::__1::basic_ostream"* @_ZNSt3__1lsINS_11char_traitsIcEEEERNS_13basic_ostreamIcT_EES6_PKc(%"class.std::__1::basic_ostream"* dereferenceable(160) bitcast (i8* getelementptr inbounds (i8, i8* bitcast (%"class.altered_carbon::js::NullStream"* @_ZN14altered_carbon2jsL9BlackHoleE to i8*), i64 320) to %"class.std::__1::basic_ostream"*), i8* getelementptr inbounds ([10 x i8], [10 x i8]* @.str, i32 0, i32 0)), !dbg !7979
  %355 = call dereferenceable(160) %"class.std::__1::basic_ostream"* @_ZNSt3__1lsINS_11char_traitsIcEEEERNS_13basic_ostreamIcT_EES6_PKc(%"class.std::__1::basic_ostream"* dereferenceable(160) %354, i8* getelementptr inbounds ([9 x i8], [9 x i8]* @.str.1, i32 0, i32 0)), !dbg !7979
  %356 = call dereferenceable(160) %"class.std::__1::basic_ostream"* @_ZNSt3__1lsINS_11char_traitsIcEEEERNS_13basic_ostreamIcT_EES6_PKc(%"class.std::__1::basic_ostream"* dereferenceable(160) %355, i8* getelementptr inbounds ([5 x i8], [5 x i8]* @.str.2, i32 0, i32 0)), !dbg !7979
  %357 = call dereferenceable(160) %"class.std::__1::basic_ostream"* @_ZNSt3__1lsINS_11char_traitsIcEEEERNS_13basic_ostreamIcT_EES6_PKc(%"class.std::__1::basic_ostream"* dereferenceable(160) %356, i8* getelementptr inbounds ([34 x i8], [34 x i8]* @.str.7, i32 0, i32 0)), !dbg !7979
  %358 = call dereferenceable(160) %"class.std::__1::basic_ostream"* @_ZNSt3__1lsINS_11char_traitsIcEEEERNS_13basic_ostreamIcT_EES6_PKc(%"class.std::__1::basic_ostream"* dereferenceable(160) %357, i8* getelementptr inbounds ([10 x i8], [10 x i8]* @.str.4, i32 0, i32 0)), !dbg !7979
  %359 = load i32, i32* %282, align 4, !dbg !7979
  %360 = call dereferenceable(160) %"class.std::__1::basic_ostream"* @_ZNSt3__113basic_ostreamIcNS_11char_traitsIcEEElsEi(%"class.std::__1::basic_ostream"* %358, i32 %359), !dbg !7979
  %361 = call dereferenceable(160) %"class.std::__1::basic_ostream"* @_ZNSt3__1lsINS_11char_traitsIcEEEERNS_13basic_ostreamIcT_EES6_PKc(%"class.std::__1::basic_ostream"* dereferenceable(160) %360, i8* getelementptr inbounds ([3 x i8], [3 x i8]* @.str.8, i32 0, i32 0)), !dbg !7979
  %362 = call dereferenceable(160) %"class.std::__1::basic_ostream"* @_ZNSt3__113basic_ostreamIcNS_11char_traitsIcEEElsEi(%"class.std::__1::basic_ostream"* %361, i32 0), !dbg !7979
  %363 = call dereferenceable(160) %"class.std::__1::basic_ostream"* @_ZNSt3__1lsINS_11char_traitsIcEEEERNS_13basic_ostreamIcT_EES6_PKc(%"class.std::__1::basic_ostream"* dereferenceable(160) %362, i8* getelementptr inbounds ([3 x i8], [3 x i8]* @.str.5, i32 0, i32 0)), !dbg !7979
  %364 = getelementptr inbounds %"class.altered_carbon::js::ACJsParser", %"class.altered_carbon::js::ACJsParser"* %305, i32 0, i32 11, !dbg !7979
  %365 = call dereferenceable(160) %"class.std::__1::basic_ostream"* @_ZN14altered_carbon2jslsERNSt3__113basic_ostreamIcNS1_11char_traitsIcEEEERKNS0_13ACLexPositionE(%"class.std::__1::basic_ostream"* dereferenceable(160) %363, %"struct.altered_carbon::js::ACLexPosition"* dereferenceable(32) %364), !dbg !7979
  %366 = call dereferenceable(160) %"class.std::__1::basic_ostream"* @_ZNSt3__1lsINS_11char_traitsIcEEEERNS_13basic_ostreamIcT_EES6_PKc(%"class.std::__1::basic_ostream"* dereferenceable(160) %365, i8* getelementptr inbounds ([3 x i8], [3 x i8]* @.str.6, i32 0, i32 0)), !dbg !7979
  call void @_ZN14altered_carbon2js10ACJsParser16showErrorContextEv(%"class.altered_carbon::js::ACJsParser"* %305), !dbg !7979
  br label %367, !dbg !7979

; <label>:367:                                    ; preds = %353
  br label %368, !dbg !7979

; <label>:368:                                    ; preds = %367
  br label %369, !dbg !7981

; <label>:369:                                    ; preds = %368, %349, %346
  %370 = load i32, i32* %282, align 4, !dbg !7982
  %371 = icmp ne i32 %370, 46, !dbg !7983
  br i1 %371, label %372, label %913, !dbg !7984

; <label>:372:                                    ; preds = %369
  br label %373, !dbg !7985, !llvm.loop !7986

; <label>:373:                                    ; preds = %372
  %374 = getelementptr inbounds %"class.altered_carbon::js::ACJsParser", %"class.altered_carbon::js::ACJsParser"* %305, i32 0, i32 8, !dbg !7987
  %375 = load i32, i32* %374, align 4, !dbg !7987
  %376 = getelementptr inbounds %"class.altered_carbon::js::ACJsParser", %"class.altered_carbon::js::ACJsParser"* %305, i32 0, i32 9, !dbg !7987
  store i32 %375, i32* %376, align 8, !dbg !7987
  %377 = getelementptr inbounds %"class.altered_carbon::js::ACJsParser", %"class.altered_carbon::js::ACJsParser"* %305, i32 0, i32 8, !dbg !7987
  %378 = load i32, i32* %377, align 4, !dbg !7987
  %379 = sext i32 %378 to i64, !dbg !7987
  %380 = getelementptr inbounds %"class.altered_carbon::js::ACJsParser", %"class.altered_carbon::js::ACJsParser"* %305, i32 0, i32 11, !dbg !7987
  %381 = getelementptr inbounds %"struct.altered_carbon::js::ACLexPosition", %"struct.altered_carbon::js::ACLexPosition"* %380, i32 0, i32 1, !dbg !7987
  %382 = load i64, i64* %381, align 8, !dbg !7987
  %383 = add i64 %382, %379, !dbg !7987
  store i64 %383, i64* %381, align 8, !dbg !7987
  %384 = getelementptr inbounds %"class.altered_carbon::js::ACJsParser", %"class.altered_carbon::js::ACJsParser"* %305, i32 0, i32 8, !dbg !7987
  store i32 0, i32* %384, align 4, !dbg !7987
  br label %385, !dbg !7987

; <label>:385:                                    ; preds = %373
  br label %386, !dbg !7987

; <label>:386:                                    ; preds = %385
  %387 = load i32, i32* %282, align 4, !dbg !7989
  %388 = icmp eq i32 %387, 48, !dbg !7990
  br i1 %388, label %389, label %859, !dbg !7991

; <label>:389:                                    ; preds = %386
  call void @llvm.dbg.declare(metadata i32* %284, metadata !7992, metadata !DIExpression()), !dbg !7993
  %390 = call signext i32 @_ZN14altered_carbon2js10ACJsParser6nextChEib(%"class.altered_carbon::js::ACJsParser"* %305, i32 0, i1 zeroext false), !dbg !7994
  store i32 %390, i32* %284, align 4, !dbg !7993
  %391 = load i32, i32* %284, align 4, !dbg !7995
  switch i32 %391, label %857 [
    i32 120, label %392
    i32 88, label %392
    i32 111, label %547
    i32 79, label %547
    i32 98, label %702
    i32 66, label %702
  ], !dbg !7996

; <label>:392:                                    ; preds = %389, %389
  br label %393, !dbg !7997, !llvm.loop !7998

; <label>:393:                                    ; preds = %392
  %394 = call signext i32 @_ZN14altered_carbon2js10ACJsParser6nextChEib(%"class.altered_carbon::js::ACJsParser"* %305, i32 0, i1 zeroext true), !dbg !7999
  br label %395, !dbg !7999, !llvm.loop !8001

; <label>:395:                                    ; preds = %393
  %396 = getelementptr inbounds %"class.altered_carbon::js::ACJsParser", %"class.altered_carbon::js::ACJsParser"* %305, i32 0, i32 8, !dbg !8002
  %397 = load i32, i32* %396, align 4, !dbg !8002
  %398 = getelementptr inbounds %"class.altered_carbon::js::ACJsParser", %"class.altered_carbon::js::ACJsParser"* %305, i32 0, i32 9, !dbg !8002
  store i32 %397, i32* %398, align 8, !dbg !8002
  %399 = getelementptr inbounds %"class.altered_carbon::js::ACJsParser", %"class.altered_carbon::js::ACJsParser"* %305, i32 0, i32 8, !dbg !8002
  %400 = load i32, i32* %399, align 4, !dbg !8002
  %401 = sext i32 %400 to i64, !dbg !8002
  %402 = getelementptr inbounds %"class.altered_carbon::js::ACJsParser", %"class.altered_carbon::js::ACJsParser"* %305, i32 0, i32 11, !dbg !8002
  %403 = getelementptr inbounds %"struct.altered_carbon::js::ACLexPosition", %"struct.altered_carbon::js::ACLexPosition"* %402, i32 0, i32 1, !dbg !8002
  %404 = load i64, i64* %403, align 8, !dbg !8002
  %405 = add i64 %404, %401, !dbg !8002
  store i64 %405, i64* %403, align 8, !dbg !8002
  %406 = getelementptr inbounds %"class.altered_carbon::js::ACJsParser", %"class.altered_carbon::js::ACJsParser"* %305, i32 0, i32 8, !dbg !8002
  store i32 0, i32* %406, align 4, !dbg !8002
  br label %407, !dbg !8002

; <label>:407:                                    ; preds = %395
  br label %408, !dbg !8002

; <label>:408:                                    ; preds = %407
  br label %409, !dbg !7999

; <label>:409:                                    ; preds = %408
  br label %410, !dbg !7999

; <label>:410:                                    ; preds = %409
  %411 = call i64 @_ZN14altered_carbon2js10ACJsParser13scanHexNumberEv(%"class.altered_carbon::js::ACJsParser"* %305), !dbg !8004
  store i64 %411, i64* %280, align 8, !dbg !8005
  %412 = load i64, i64* %280, align 8, !dbg !8006
  %413 = sitofp i64 %412 to double, !dbg !8006
  store i32 2, i32* %251, align 4
  store i32 53, i32* %252, align 4
  %414 = load i32, i32* %251, align 4, !dbg !8007
  %415 = sitofp i32 %414 to double, !dbg !8007
  %416 = load i32, i32* %252, align 4, !dbg !8008
  %417 = sitofp i32 %416 to double, !dbg !8008
  %418 = call double @llvm.pow.f64(double %415, double %417) #2, !dbg !8009
  %419 = fsub double %418, 1.000000e+00, !dbg !8010
  %420 = fcmp ogt double %413, %419, !dbg !8011
  br i1 %420, label %421, label %436, !dbg !8012

; <label>:421:                                    ; preds = %410
  br label %422, !dbg !8013, !llvm.loop !8015

; <label>:422:                                    ; preds = %421
  %423 = call dereferenceable(160) %"class.std::__1::basic_ostream"* @_ZNSt3__1lsINS_11char_traitsIcEEEERNS_13basic_ostreamIcT_EES6_PKc(%"class.std::__1::basic_ostream"* dereferenceable(160) bitcast (i8* getelementptr inbounds (i8, i8* bitcast (%"class.altered_carbon::js::NullStream"* @_ZN14altered_carbon2jsL9BlackHoleE to i8*), i64 320) to %"class.std::__1::basic_ostream"*), i8* getelementptr inbounds ([6 x i8], [6 x i8]* @.str.9, i32 0, i32 0)), !dbg !8016
  %424 = call dereferenceable(160) %"class.std::__1::basic_ostream"* @_ZNSt3__1lsINS_11char_traitsIcEEEERNS_13basic_ostreamIcT_EES6_PKc(%"class.std::__1::basic_ostream"* dereferenceable(160) %423, i8* getelementptr inbounds ([9 x i8], [9 x i8]* @.str.1, i32 0, i32 0)), !dbg !8016
  %425 = call dereferenceable(160) %"class.std::__1::basic_ostream"* @_ZNSt3__1lsINS_11char_traitsIcEEEERNS_13basic_ostreamIcT_EES6_PKc(%"class.std::__1::basic_ostream"* dereferenceable(160) %424, i8* getelementptr inbounds ([5 x i8], [5 x i8]* @.str.2, i32 0, i32 0)), !dbg !8016
  %426 = call dereferenceable(160) %"class.std::__1::basic_ostream"* @_ZNSt3__1lsINS_11char_traitsIcEEEERNS_13basic_ostreamIcT_EES6_PKc(%"class.std::__1::basic_ostream"* dereferenceable(160) %425, i8* getelementptr inbounds ([44 x i8], [44 x i8]* @.str.10, i32 0, i32 0)), !dbg !8016
  %427 = call dereferenceable(160) %"class.std::__1::basic_ostream"* @_ZNSt3__1lsINS_11char_traitsIcEEEERNS_13basic_ostreamIcT_EES6_PKc(%"class.std::__1::basic_ostream"* dereferenceable(160) %426, i8* getelementptr inbounds ([10 x i8], [10 x i8]* @.str.4, i32 0, i32 0)), !dbg !8016
  %428 = load i32, i32* %282, align 4, !dbg !8016
  %429 = call dereferenceable(160) %"class.std::__1::basic_ostream"* @_ZNSt3__113basic_ostreamIcNS_11char_traitsIcEEElsEi(%"class.std::__1::basic_ostream"* %427, i32 %428), !dbg !8016
  %430 = call dereferenceable(160) %"class.std::__1::basic_ostream"* @_ZNSt3__1lsINS_11char_traitsIcEEEERNS_13basic_ostreamIcT_EES6_PKc(%"class.std::__1::basic_ostream"* dereferenceable(160) %429, i8* getelementptr inbounds ([3 x i8], [3 x i8]* @.str.5, i32 0, i32 0)), !dbg !8016
  %431 = getelementptr inbounds %"class.altered_carbon::js::ACJsParser", %"class.altered_carbon::js::ACJsParser"* %305, i32 0, i32 11, !dbg !8016
  %432 = call dereferenceable(160) %"class.std::__1::basic_ostream"* @_ZN14altered_carbon2jslsERNSt3__113basic_ostreamIcNS1_11char_traitsIcEEEERKNS0_13ACLexPositionE(%"class.std::__1::basic_ostream"* dereferenceable(160) %430, %"struct.altered_carbon::js::ACLexPosition"* dereferenceable(32) %431), !dbg !8016
  %433 = call dereferenceable(160) %"class.std::__1::basic_ostream"* @_ZNSt3__1lsINS_11char_traitsIcEEEERNS_13basic_ostreamIcT_EES6_PKc(%"class.std::__1::basic_ostream"* dereferenceable(160) %432, i8* getelementptr inbounds ([3 x i8], [3 x i8]* @.str.6, i32 0, i32 0)), !dbg !8016
  call void @_ZN14altered_carbon2js10ACJsParser16showErrorContextEv(%"class.altered_carbon::js::ACJsParser"* %305), !dbg !8016
  br label %434, !dbg !8016

; <label>:434:                                    ; preds = %422
  br label %435, !dbg !8016

; <label>:435:                                    ; preds = %434
  br label %436, !dbg !8018

; <label>:436:                                    ; preds = %435, %410
  %437 = getelementptr inbounds %"class.altered_carbon::js::ACJsParser", %"class.altered_carbon::js::ACJsParser"* %305, i32 0, i32 11, !dbg !8019
  %438 = getelementptr inbounds %"struct.altered_carbon::js::ACLexPosition", %"struct.altered_carbon::js::ACLexPosition"* %437, i32 0, i32 1, !dbg !8019
  %439 = load i64, i64* %438, align 8, !dbg !8019
  %440 = getelementptr inbounds %"class.altered_carbon::js::ACJsParser", %"class.altered_carbon::js::ACJsParser"* %305, i32 0, i32 13, !dbg !8019
  %441 = getelementptr inbounds %"struct.altered_carbon::js::ACLexPosition", %"struct.altered_carbon::js::ACLexPosition"* %440, i32 0, i32 1, !dbg !8019
  %442 = load i64, i64* %441, align 8, !dbg !8019
  %443 = sub i64 %439, %442, !dbg !8019
  store i64 %443, i64* %286, align 8, !dbg !8019
  %444 = getelementptr inbounds %"class.altered_carbon::js::ACJsParser", %"class.altered_carbon::js::ACJsParser"* %305, i32 0, i32 3, !dbg !8019
  %445 = load i8*, i8** %444, align 8, !dbg !8019
  %446 = getelementptr inbounds %"class.altered_carbon::js::ACJsParser", %"class.altered_carbon::js::ACJsParser"* %305, i32 0, i32 13, !dbg !8019
  %447 = getelementptr inbounds %"struct.altered_carbon::js::ACLexPosition", %"struct.altered_carbon::js::ACLexPosition"* %446, i32 0, i32 1, !dbg !8019
  %448 = load i64, i64* %447, align 8, !dbg !8019
  %449 = getelementptr inbounds i8, i8* %445, i64 %448, !dbg !8019
  %450 = getelementptr inbounds %"class.altered_carbon::js::ACJsParser", %"class.altered_carbon::js::ACJsParser"* %305, i32 0, i32 11, !dbg !8019
  %451 = getelementptr inbounds %"struct.altered_carbon::js::ACLexPosition", %"struct.altered_carbon::js::ACLexPosition"* %450, i32 0, i32 1, !dbg !8019
  %452 = load i64, i64* %451, align 8, !dbg !8019
  %453 = getelementptr inbounds %"class.altered_carbon::js::ACJsParser", %"class.altered_carbon::js::ACJsParser"* %305, i32 0, i32 13, !dbg !8019
  %454 = getelementptr inbounds %"struct.altered_carbon::js::ACLexPosition", %"struct.altered_carbon::js::ACLexPosition"* %453, i32 0, i32 1, !dbg !8019
  %455 = load i64, i64* %454, align 8, !dbg !8019
  %456 = sub i64 %452, %455, !dbg !8019
  store %"class.std::__1::basic_string_view"* %287, %"class.std::__1::basic_string_view"** %216, align 8
  store i8* %449, i8** %217, align 8
  store i64 %456, i64* %218, align 8
  %457 = load %"class.std::__1::basic_string_view"*, %"class.std::__1::basic_string_view"** %216, align 8
  %458 = load i8*, i8** %217, align 8, !dbg !8020
  %459 = load i64, i64* %218, align 8, !dbg !8020
  store %"class.std::__1::basic_string_view"* %457, %"class.std::__1::basic_string_view"** %213, align 8
  store i8* %458, i8** %214, align 8
  store i64 %459, i64* %215, align 8
  %460 = load %"class.std::__1::basic_string_view"*, %"class.std::__1::basic_string_view"** %213, align 8
  %461 = getelementptr inbounds %"class.std::__1::basic_string_view", %"class.std::__1::basic_string_view"* %460, i32 0, i32 0, !dbg !8021
  %462 = load i8*, i8** %214, align 8, !dbg !8022
  store i8* %462, i8** %461, align 8, !dbg !8021
  %463 = getelementptr inbounds %"class.std::__1::basic_string_view", %"class.std::__1::basic_string_view"* %460, i32 0, i32 1, !dbg !8023
  %464 = load i64, i64* %215, align 8, !dbg !8024
  store i64 %464, i64* %463, align 8, !dbg !8023
  %465 = getelementptr inbounds %"class.altered_carbon::js::ACJsParser", %"class.altered_carbon::js::ACJsParser"* %305, i32 0, i32 13, !dbg !8019
  store i32 16, i32* %288, align 4, !dbg !8019
  call void @_ZN4llvm11make_uniqueIN14altered_carbon2js16ACLexNumberTokenEJmNSt3__117basic_string_viewIcNS4_11char_traitsIcEEEERNS2_13ACLexPositionERxNS3_10NumberBaseEEEENS4_9enable_ifIXntsr3std8is_arrayIT_EE5valueENS4_10unique_ptrISE_NS4_14default_deleteISE_EEEEE4typeEDpOT0_(%"class.std::__1::unique_ptr.26"* sret %285, i64* dereferenceable(8) %286, %"class.std::__1::basic_string_view"* dereferenceable(16) %287, %"struct.altered_carbon::js::ACLexPosition"* dereferenceable(32) %465, i64* dereferenceable(8) %280, i32* dereferenceable(4) %288), !dbg !8019
  store %"class.std::__1::unique_ptr"* %0, %"class.std::__1::unique_ptr"** %192, align 8
  store %"class.std::__1::unique_ptr.26"* %285, %"class.std::__1::unique_ptr.26"** %193, align 8
  %466 = load %"class.std::__1::unique_ptr"*, %"class.std::__1::unique_ptr"** %192, align 8
  %467 = load %"class.std::__1::unique_ptr.26"*, %"class.std::__1::unique_ptr.26"** %193, align 8, !dbg !8025
  store %"class.std::__1::unique_ptr"* %466, %"class.std::__1::unique_ptr"** %189, align 8
  store %"class.std::__1::unique_ptr.26"* %467, %"class.std::__1::unique_ptr.26"** %190, align 8
  %468 = load %"class.std::__1::unique_ptr"*, %"class.std::__1::unique_ptr"** %189, align 8
  %469 = getelementptr inbounds %"class.std::__1::unique_ptr", %"class.std::__1::unique_ptr"* %468, i32 0, i32 0, !dbg !8026
  %470 = load %"class.std::__1::unique_ptr.26"*, %"class.std::__1::unique_ptr.26"** %190, align 8, !dbg !8027
  store %"class.std::__1::unique_ptr.26"* %470, %"class.std::__1::unique_ptr.26"** %187, align 8
  %471 = load %"class.std::__1::unique_ptr.26"*, %"class.std::__1::unique_ptr.26"** %187, align 8
  %472 = getelementptr inbounds %"class.std::__1::unique_ptr.26", %"class.std::__1::unique_ptr.26"* %471, i32 0, i32 0, !dbg !8028
  store %"class.std::__1::__compressed_pair.27"* %472, %"class.std::__1::__compressed_pair.27"** %186, align 8
  %473 = load %"class.std::__1::__compressed_pair.27"*, %"class.std::__1::__compressed_pair.27"** %186, align 8
  %474 = bitcast %"class.std::__1::__compressed_pair.27"* %473 to %"struct.std::__1::__compressed_pair_elem.28"*, !dbg !8029
  store %"struct.std::__1::__compressed_pair_elem.28"* %474, %"struct.std::__1::__compressed_pair_elem.28"** %185, align 8
  %475 = load %"struct.std::__1::__compressed_pair_elem.28"*, %"struct.std::__1::__compressed_pair_elem.28"** %185, align 8
  %476 = getelementptr inbounds %"struct.std::__1::__compressed_pair_elem.28", %"struct.std::__1::__compressed_pair_elem.28"* %475, i32 0, i32 0, !dbg !8030
  %477 = load %"class.altered_carbon::js::ACLexNumberToken"*, %"class.altered_carbon::js::ACLexNumberToken"** %476, align 8, !dbg !8031
  store %"class.altered_carbon::js::ACLexNumberToken"* %477, %"class.altered_carbon::js::ACLexNumberToken"** %188, align 8, !dbg !7752
  %478 = getelementptr inbounds %"class.std::__1::unique_ptr.26", %"class.std::__1::unique_ptr.26"* %471, i32 0, i32 0, !dbg !8032
  store %"class.std::__1::__compressed_pair.27"* %478, %"class.std::__1::__compressed_pair.27"** %184, align 8
  %479 = load %"class.std::__1::__compressed_pair.27"*, %"class.std::__1::__compressed_pair.27"** %184, align 8
  %480 = bitcast %"class.std::__1::__compressed_pair.27"* %479 to %"struct.std::__1::__compressed_pair_elem.28"*, !dbg !8033
  store %"struct.std::__1::__compressed_pair_elem.28"* %480, %"struct.std::__1::__compressed_pair_elem.28"** %183, align 8
  %481 = load %"struct.std::__1::__compressed_pair_elem.28"*, %"struct.std::__1::__compressed_pair_elem.28"** %183, align 8
  %482 = getelementptr inbounds %"struct.std::__1::__compressed_pair_elem.28", %"struct.std::__1::__compressed_pair_elem.28"* %481, i32 0, i32 0, !dbg !8034
  store %"class.altered_carbon::js::ACLexNumberToken"* null, %"class.altered_carbon::js::ACLexNumberToken"** %482, align 8, !dbg !8035
  %483 = load %"class.altered_carbon::js::ACLexNumberToken"*, %"class.altered_carbon::js::ACLexNumberToken"** %188, align 8, !dbg !8036
  store %"class.altered_carbon::js::ACLexNumberToken"* %483, %"class.altered_carbon::js::ACLexNumberToken"** %191, align 8, !dbg !8027
  %484 = load %"class.std::__1::unique_ptr.26"*, %"class.std::__1::unique_ptr.26"** %190, align 8, !dbg !8037
  store %"class.std::__1::unique_ptr.26"* %484, %"class.std::__1::unique_ptr.26"** %164, align 8
  %485 = load %"class.std::__1::unique_ptr.26"*, %"class.std::__1::unique_ptr.26"** %164, align 8
  %486 = getelementptr inbounds %"class.std::__1::unique_ptr.26", %"class.std::__1::unique_ptr.26"* %485, i32 0, i32 0, !dbg !8038
  store %"class.std::__1::__compressed_pair.27"* %486, %"class.std::__1::__compressed_pair.27"** %163, align 8
  %487 = load %"class.std::__1::__compressed_pair.27"*, %"class.std::__1::__compressed_pair.27"** %163, align 8
  %488 = bitcast %"class.std::__1::__compressed_pair.27"* %487 to %"struct.std::__1::__compressed_pair_elem.30"*, !dbg !8039
  store %"struct.std::__1::__compressed_pair_elem.30"* %488, %"struct.std::__1::__compressed_pair_elem.30"** %162, align 8
  %489 = load %"struct.std::__1::__compressed_pair_elem.30"*, %"struct.std::__1::__compressed_pair_elem.30"** %162, align 8
  %490 = bitcast %"struct.std::__1::__compressed_pair_elem.30"* %489 to %"struct.std::__1::default_delete.31"*, !dbg !8040
  store %"struct.std::__1::default_delete.31"* %490, %"struct.std::__1::default_delete.31"** %165, align 8
  %491 = load %"struct.std::__1::default_delete.31"*, %"struct.std::__1::default_delete.31"** %165, align 8, !dbg !8041
  store %"class.std::__1::__compressed_pair.15"* %469, %"class.std::__1::__compressed_pair.15"** %180, align 8
  store %"class.altered_carbon::js::ACLexNumberToken"** %191, %"class.altered_carbon::js::ACLexNumberToken"*** %181, align 8
  store %"struct.std::__1::default_delete.31"* %491, %"struct.std::__1::default_delete.31"** %182, align 8
  %492 = load %"class.std::__1::__compressed_pair.15"*, %"class.std::__1::__compressed_pair.15"** %180, align 8
  %493 = load %"class.altered_carbon::js::ACLexNumberToken"**, %"class.altered_carbon::js::ACLexNumberToken"*** %181, align 8, !dbg !8042
  %494 = load %"struct.std::__1::default_delete.31"*, %"struct.std::__1::default_delete.31"** %182, align 8, !dbg !8042
  store %"class.std::__1::__compressed_pair.15"* %492, %"class.std::__1::__compressed_pair.15"** %177, align 8
  store %"class.altered_carbon::js::ACLexNumberToken"** %493, %"class.altered_carbon::js::ACLexNumberToken"*** %178, align 8
  store %"struct.std::__1::default_delete.31"* %494, %"struct.std::__1::default_delete.31"** %179, align 8
  %495 = load %"class.std::__1::__compressed_pair.15"*, %"class.std::__1::__compressed_pair.15"** %177, align 8
  %496 = bitcast %"class.std::__1::__compressed_pair.15"* %495 to %"struct.std::__1::__compressed_pair_elem.16"*, !dbg !8043
  %497 = load %"class.altered_carbon::js::ACLexNumberToken"**, %"class.altered_carbon::js::ACLexNumberToken"*** %178, align 8, !dbg !8044
  store %"class.altered_carbon::js::ACLexNumberToken"** %497, %"class.altered_carbon::js::ACLexNumberToken"*** %176, align 8
  %498 = load %"class.altered_carbon::js::ACLexNumberToken"**, %"class.altered_carbon::js::ACLexNumberToken"*** %176, align 8, !dbg !8045
  store %"struct.std::__1::__compressed_pair_elem.16"* %496, %"struct.std::__1::__compressed_pair_elem.16"** %167, align 8
  store %"class.altered_carbon::js::ACLexNumberToken"** %498, %"class.altered_carbon::js::ACLexNumberToken"*** %168, align 8
  %499 = load %"struct.std::__1::__compressed_pair_elem.16"*, %"struct.std::__1::__compressed_pair_elem.16"** %167, align 8
  %500 = getelementptr inbounds %"struct.std::__1::__compressed_pair_elem.16", %"struct.std::__1::__compressed_pair_elem.16"* %499, i32 0, i32 0, !dbg !8046
  %501 = load %"class.altered_carbon::js::ACLexNumberToken"**, %"class.altered_carbon::js::ACLexNumberToken"*** %168, align 8, !dbg !8047
  store %"class.altered_carbon::js::ACLexNumberToken"** %501, %"class.altered_carbon::js::ACLexNumberToken"*** %166, align 8
  %502 = load %"class.altered_carbon::js::ACLexNumberToken"**, %"class.altered_carbon::js::ACLexNumberToken"*** %166, align 8, !dbg !8048
  %503 = load %"class.altered_carbon::js::ACLexNumberToken"*, %"class.altered_carbon::js::ACLexNumberToken"** %502, align 8, !dbg !8049
  %504 = bitcast %"class.altered_carbon::js::ACLexNumberToken"* %503 to %"class.altered_carbon::js::ACLexToken"*, !dbg !8049
  store %"class.altered_carbon::js::ACLexToken"* %504, %"class.altered_carbon::js::ACLexToken"** %500, align 8, !dbg !8046
  %505 = bitcast %"class.std::__1::__compressed_pair.15"* %495 to %"struct.std::__1::__compressed_pair_elem.25"*, !dbg !8043
  %506 = load %"struct.std::__1::default_delete.31"*, %"struct.std::__1::default_delete.31"** %179, align 8, !dbg !8050
  store %"struct.std::__1::default_delete.31"* %506, %"struct.std::__1::default_delete.31"** %169, align 8
  %507 = load %"struct.std::__1::default_delete.31"*, %"struct.std::__1::default_delete.31"** %169, align 8, !dbg !8051
  store %"struct.std::__1::__compressed_pair_elem.25"* %505, %"struct.std::__1::__compressed_pair_elem.25"** %174, align 8
  store %"struct.std::__1::default_delete.31"* %507, %"struct.std::__1::default_delete.31"** %175, align 8
  %508 = load %"struct.std::__1::__compressed_pair_elem.25"*, %"struct.std::__1::__compressed_pair_elem.25"** %174, align 8
  %509 = bitcast %"struct.std::__1::__compressed_pair_elem.25"* %508 to %"struct.std::__1::default_delete"*, !dbg !8052
  %510 = load %"struct.std::__1::default_delete.31"*, %"struct.std::__1::default_delete.31"** %175, align 8, !dbg !8053
  store %"struct.std::__1::default_delete.31"* %510, %"struct.std::__1::default_delete.31"** %173, align 8
  %511 = load %"struct.std::__1::default_delete.31"*, %"struct.std::__1::default_delete.31"** %173, align 8, !dbg !8054
  store %"struct.std::__1::default_delete"* %509, %"struct.std::__1::default_delete"** %170, align 8
  store %"struct.std::__1::default_delete.31"* %511, %"struct.std::__1::default_delete.31"** %171, align 8
  store i8* null, i8** %172, align 8
  %512 = load %"struct.std::__1::default_delete"*, %"struct.std::__1::default_delete"** %170, align 8
  store %"class.std::__1::unique_ptr.26"* %285, %"class.std::__1::unique_ptr.26"** %129, align 8
  %513 = load %"class.std::__1::unique_ptr.26"*, %"class.std::__1::unique_ptr.26"** %129, align 8
  store %"class.std::__1::unique_ptr.26"* %513, %"class.std::__1::unique_ptr.26"** %128, align 8
  %514 = load %"class.std::__1::unique_ptr.26"*, %"class.std::__1::unique_ptr.26"** %128, align 8
  store %"class.std::__1::unique_ptr.26"* %514, %"class.std::__1::unique_ptr.26"** %125, align 8
  store %"class.altered_carbon::js::ACLexNumberToken"* null, %"class.altered_carbon::js::ACLexNumberToken"** %126, align 8
  %515 = load %"class.std::__1::unique_ptr.26"*, %"class.std::__1::unique_ptr.26"** %125, align 8
  %516 = getelementptr inbounds %"class.std::__1::unique_ptr.26", %"class.std::__1::unique_ptr.26"* %515, i32 0, i32 0, !dbg !8055
  store %"class.std::__1::__compressed_pair.27"* %516, %"class.std::__1::__compressed_pair.27"** %124, align 8
  %517 = load %"class.std::__1::__compressed_pair.27"*, %"class.std::__1::__compressed_pair.27"** %124, align 8
  %518 = bitcast %"class.std::__1::__compressed_pair.27"* %517 to %"struct.std::__1::__compressed_pair_elem.28"*, !dbg !8056
  store %"struct.std::__1::__compressed_pair_elem.28"* %518, %"struct.std::__1::__compressed_pair_elem.28"** %123, align 8
  %519 = load %"struct.std::__1::__compressed_pair_elem.28"*, %"struct.std::__1::__compressed_pair_elem.28"** %123, align 8
  %520 = getelementptr inbounds %"struct.std::__1::__compressed_pair_elem.28", %"struct.std::__1::__compressed_pair_elem.28"* %519, i32 0, i32 0, !dbg !8057
  %521 = load %"class.altered_carbon::js::ACLexNumberToken"*, %"class.altered_carbon::js::ACLexNumberToken"** %520, align 8, !dbg !8058
  store %"class.altered_carbon::js::ACLexNumberToken"* %521, %"class.altered_carbon::js::ACLexNumberToken"** %127, align 8, !dbg !7652
  %522 = load %"class.altered_carbon::js::ACLexNumberToken"*, %"class.altered_carbon::js::ACLexNumberToken"** %126, align 8, !dbg !8059
  %523 = getelementptr inbounds %"class.std::__1::unique_ptr.26", %"class.std::__1::unique_ptr.26"* %515, i32 0, i32 0, !dbg !8060
  store %"class.std::__1::__compressed_pair.27"* %523, %"class.std::__1::__compressed_pair.27"** %120, align 8
  %524 = load %"class.std::__1::__compressed_pair.27"*, %"class.std::__1::__compressed_pair.27"** %120, align 8
  %525 = bitcast %"class.std::__1::__compressed_pair.27"* %524 to %"struct.std::__1::__compressed_pair_elem.28"*, !dbg !8061
  store %"struct.std::__1::__compressed_pair_elem.28"* %525, %"struct.std::__1::__compressed_pair_elem.28"** %119, align 8
  %526 = load %"struct.std::__1::__compressed_pair_elem.28"*, %"struct.std::__1::__compressed_pair_elem.28"** %119, align 8
  %527 = getelementptr inbounds %"struct.std::__1::__compressed_pair_elem.28", %"struct.std::__1::__compressed_pair_elem.28"* %526, i32 0, i32 0, !dbg !8062
  store %"class.altered_carbon::js::ACLexNumberToken"* %522, %"class.altered_carbon::js::ACLexNumberToken"** %527, align 8, !dbg !8063
  %528 = load %"class.altered_carbon::js::ACLexNumberToken"*, %"class.altered_carbon::js::ACLexNumberToken"** %127, align 8, !dbg !8064
  %529 = icmp ne %"class.altered_carbon::js::ACLexNumberToken"* %528, null, !dbg !8064
  br i1 %529, label %530, label %546, !dbg !8065

; <label>:530:                                    ; preds = %436
  %531 = getelementptr inbounds %"class.std::__1::unique_ptr.26", %"class.std::__1::unique_ptr.26"* %515, i32 0, i32 0, !dbg !8066
  store %"class.std::__1::__compressed_pair.27"* %531, %"class.std::__1::__compressed_pair.27"** %118, align 8
  %532 = load %"class.std::__1::__compressed_pair.27"*, %"class.std::__1::__compressed_pair.27"** %118, align 8
  %533 = bitcast %"class.std::__1::__compressed_pair.27"* %532 to %"struct.std::__1::__compressed_pair_elem.30"*, !dbg !8067
  store %"struct.std::__1::__compressed_pair_elem.30"* %533, %"struct.std::__1::__compressed_pair_elem.30"** %117, align 8
  %534 = load %"struct.std::__1::__compressed_pair_elem.30"*, %"struct.std::__1::__compressed_pair_elem.30"** %117, align 8
  %535 = bitcast %"struct.std::__1::__compressed_pair_elem.30"* %534 to %"struct.std::__1::default_delete.31"*, !dbg !8068
  %536 = load %"class.altered_carbon::js::ACLexNumberToken"*, %"class.altered_carbon::js::ACLexNumberToken"** %127, align 8, !dbg !8069
  store %"struct.std::__1::default_delete.31"* %535, %"struct.std::__1::default_delete.31"** %121, align 8
  store %"class.altered_carbon::js::ACLexNumberToken"* %536, %"class.altered_carbon::js::ACLexNumberToken"** %122, align 8
  %537 = load %"struct.std::__1::default_delete.31"*, %"struct.std::__1::default_delete.31"** %121, align 8
  %538 = load %"class.altered_carbon::js::ACLexNumberToken"*, %"class.altered_carbon::js::ACLexNumberToken"** %122, align 8, !dbg !8070
  %539 = icmp eq %"class.altered_carbon::js::ACLexNumberToken"* %538, null, !dbg !8071
  br i1 %539, label %545, label %540, !dbg !8071

; <label>:540:                                    ; preds = %530
  %541 = bitcast %"class.altered_carbon::js::ACLexNumberToken"* %538 to void (%"class.altered_carbon::js::ACLexNumberToken"*)***, !dbg !8071
  %542 = load void (%"class.altered_carbon::js::ACLexNumberToken"*)**, void (%"class.altered_carbon::js::ACLexNumberToken"*)*** %541, align 8, !dbg !8071
  %543 = getelementptr inbounds void (%"class.altered_carbon::js::ACLexNumberToken"*)*, void (%"class.altered_carbon::js::ACLexNumberToken"*)** %542, i64 2, !dbg !8071
  %544 = load void (%"class.altered_carbon::js::ACLexNumberToken"*)*, void (%"class.altered_carbon::js::ACLexNumberToken"*)** %543, align 8, !dbg !8071
  call void %544(%"class.altered_carbon::js::ACLexNumberToken"* %538) #2, !dbg !8071
  br label %545, !dbg !8071

; <label>:545:                                    ; preds = %540, %530
  br label %546, !dbg !8066

; <label>:546:                                    ; preds = %436, %545
  store i32 1, i32* %289, align 4
  br label %1283, !dbg !8072

; <label>:547:                                    ; preds = %389, %389
  br label %548, !dbg !8073, !llvm.loop !8074

; <label>:548:                                    ; preds = %547
  %549 = call signext i32 @_ZN14altered_carbon2js10ACJsParser6nextChEib(%"class.altered_carbon::js::ACJsParser"* %305, i32 0, i1 zeroext true), !dbg !8075
  br label %550, !dbg !8075, !llvm.loop !8077

; <label>:550:                                    ; preds = %548
  %551 = getelementptr inbounds %"class.altered_carbon::js::ACJsParser", %"class.altered_carbon::js::ACJsParser"* %305, i32 0, i32 8, !dbg !8078
  %552 = load i32, i32* %551, align 4, !dbg !8078
  %553 = getelementptr inbounds %"class.altered_carbon::js::ACJsParser", %"class.altered_carbon::js::ACJsParser"* %305, i32 0, i32 9, !dbg !8078
  store i32 %552, i32* %553, align 8, !dbg !8078
  %554 = getelementptr inbounds %"class.altered_carbon::js::ACJsParser", %"class.altered_carbon::js::ACJsParser"* %305, i32 0, i32 8, !dbg !8078
  %555 = load i32, i32* %554, align 4, !dbg !8078
  %556 = sext i32 %555 to i64, !dbg !8078
  %557 = getelementptr inbounds %"class.altered_carbon::js::ACJsParser", %"class.altered_carbon::js::ACJsParser"* %305, i32 0, i32 11, !dbg !8078
  %558 = getelementptr inbounds %"struct.altered_carbon::js::ACLexPosition", %"struct.altered_carbon::js::ACLexPosition"* %557, i32 0, i32 1, !dbg !8078
  %559 = load i64, i64* %558, align 8, !dbg !8078
  %560 = add i64 %559, %556, !dbg !8078
  store i64 %560, i64* %558, align 8, !dbg !8078
  %561 = getelementptr inbounds %"class.altered_carbon::js::ACJsParser", %"class.altered_carbon::js::ACJsParser"* %305, i32 0, i32 8, !dbg !8078
  store i32 0, i32* %561, align 4, !dbg !8078
  br label %562, !dbg !8078

; <label>:562:                                    ; preds = %550
  br label %563, !dbg !8078

; <label>:563:                                    ; preds = %562
  br label %564, !dbg !8075

; <label>:564:                                    ; preds = %563
  br label %565, !dbg !8075

; <label>:565:                                    ; preds = %564
  %566 = call i64 @_ZN14altered_carbon2js10ACJsParser15scanOctalNumberEv(%"class.altered_carbon::js::ACJsParser"* %305), !dbg !8080
  store i64 %566, i64* %280, align 8, !dbg !8081
  %567 = load i64, i64* %280, align 8, !dbg !8082
  %568 = sitofp i64 %567 to double, !dbg !8082
  store i32 2, i32* %115, align 4
  store i32 53, i32* %116, align 4
  %569 = load i32, i32* %115, align 4, !dbg !8083
  %570 = sitofp i32 %569 to double, !dbg !8083
  %571 = load i32, i32* %116, align 4, !dbg !8084
  %572 = sitofp i32 %571 to double, !dbg !8084
  %573 = call double @llvm.pow.f64(double %570, double %572) #2, !dbg !8085
  %574 = fsub double %573, 1.000000e+00, !dbg !8086
  %575 = fcmp ogt double %568, %574, !dbg !8087
  br i1 %575, label %576, label %591, !dbg !8088

; <label>:576:                                    ; preds = %565
  br label %577, !dbg !8089, !llvm.loop !8091

; <label>:577:                                    ; preds = %576
  %578 = call dereferenceable(160) %"class.std::__1::basic_ostream"* @_ZNSt3__1lsINS_11char_traitsIcEEEERNS_13basic_ostreamIcT_EES6_PKc(%"class.std::__1::basic_ostream"* dereferenceable(160) bitcast (i8* getelementptr inbounds (i8, i8* bitcast (%"class.altered_carbon::js::NullStream"* @_ZN14altered_carbon2jsL9BlackHoleE to i8*), i64 320) to %"class.std::__1::basic_ostream"*), i8* getelementptr inbounds ([6 x i8], [6 x i8]* @.str.9, i32 0, i32 0)), !dbg !8092
  %579 = call dereferenceable(160) %"class.std::__1::basic_ostream"* @_ZNSt3__1lsINS_11char_traitsIcEEEERNS_13basic_ostreamIcT_EES6_PKc(%"class.std::__1::basic_ostream"* dereferenceable(160) %578, i8* getelementptr inbounds ([9 x i8], [9 x i8]* @.str.1, i32 0, i32 0)), !dbg !8092
  %580 = call dereferenceable(160) %"class.std::__1::basic_ostream"* @_ZNSt3__1lsINS_11char_traitsIcEEEERNS_13basic_ostreamIcT_EES6_PKc(%"class.std::__1::basic_ostream"* dereferenceable(160) %579, i8* getelementptr inbounds ([5 x i8], [5 x i8]* @.str.2, i32 0, i32 0)), !dbg !8092
  %581 = call dereferenceable(160) %"class.std::__1::basic_ostream"* @_ZNSt3__1lsINS_11char_traitsIcEEEERNS_13basic_ostreamIcT_EES6_PKc(%"class.std::__1::basic_ostream"* dereferenceable(160) %580, i8* getelementptr inbounds ([46 x i8], [46 x i8]* @.str.11, i32 0, i32 0)), !dbg !8092
  %582 = call dereferenceable(160) %"class.std::__1::basic_ostream"* @_ZNSt3__1lsINS_11char_traitsIcEEEERNS_13basic_ostreamIcT_EES6_PKc(%"class.std::__1::basic_ostream"* dereferenceable(160) %581, i8* getelementptr inbounds ([10 x i8], [10 x i8]* @.str.4, i32 0, i32 0)), !dbg !8092
  %583 = load i32, i32* %282, align 4, !dbg !8092
  %584 = call dereferenceable(160) %"class.std::__1::basic_ostream"* @_ZNSt3__113basic_ostreamIcNS_11char_traitsIcEEElsEi(%"class.std::__1::basic_ostream"* %582, i32 %583), !dbg !8092
  %585 = call dereferenceable(160) %"class.std::__1::basic_ostream"* @_ZNSt3__1lsINS_11char_traitsIcEEEERNS_13basic_ostreamIcT_EES6_PKc(%"class.std::__1::basic_ostream"* dereferenceable(160) %584, i8* getelementptr inbounds ([3 x i8], [3 x i8]* @.str.5, i32 0, i32 0)), !dbg !8092
  %586 = getelementptr inbounds %"class.altered_carbon::js::ACJsParser", %"class.altered_carbon::js::ACJsParser"* %305, i32 0, i32 11, !dbg !8092
  %587 = call dereferenceable(160) %"class.std::__1::basic_ostream"* @_ZN14altered_carbon2jslsERNSt3__113basic_ostreamIcNS1_11char_traitsIcEEEERKNS0_13ACLexPositionE(%"class.std::__1::basic_ostream"* dereferenceable(160) %585, %"struct.altered_carbon::js::ACLexPosition"* dereferenceable(32) %586), !dbg !8092
  %588 = call dereferenceable(160) %"class.std::__1::basic_ostream"* @_ZNSt3__1lsINS_11char_traitsIcEEEERNS_13basic_ostreamIcT_EES6_PKc(%"class.std::__1::basic_ostream"* dereferenceable(160) %587, i8* getelementptr inbounds ([3 x i8], [3 x i8]* @.str.6, i32 0, i32 0)), !dbg !8092
  call void @_ZN14altered_carbon2js10ACJsParser16showErrorContextEv(%"class.altered_carbon::js::ACJsParser"* %305), !dbg !8092
  br label %589, !dbg !8092

; <label>:589:                                    ; preds = %577
  br label %590, !dbg !8092

; <label>:590:                                    ; preds = %589
  br label %591, !dbg !8094

; <label>:591:                                    ; preds = %590, %565
  %592 = getelementptr inbounds %"class.altered_carbon::js::ACJsParser", %"class.altered_carbon::js::ACJsParser"* %305, i32 0, i32 11, !dbg !8095
  %593 = getelementptr inbounds %"struct.altered_carbon::js::ACLexPosition", %"struct.altered_carbon::js::ACLexPosition"* %592, i32 0, i32 1, !dbg !8095
  %594 = load i64, i64* %593, align 8, !dbg !8095
  %595 = getelementptr inbounds %"class.altered_carbon::js::ACJsParser", %"class.altered_carbon::js::ACJsParser"* %305, i32 0, i32 13, !dbg !8095
  %596 = getelementptr inbounds %"struct.altered_carbon::js::ACLexPosition", %"struct.altered_carbon::js::ACLexPosition"* %595, i32 0, i32 1, !dbg !8095
  %597 = load i64, i64* %596, align 8, !dbg !8095
  %598 = sub i64 %594, %597, !dbg !8095
  store i64 %598, i64* %291, align 8, !dbg !8095
  %599 = getelementptr inbounds %"class.altered_carbon::js::ACJsParser", %"class.altered_carbon::js::ACJsParser"* %305, i32 0, i32 3, !dbg !8095
  %600 = load i8*, i8** %599, align 8, !dbg !8095
  %601 = getelementptr inbounds %"class.altered_carbon::js::ACJsParser", %"class.altered_carbon::js::ACJsParser"* %305, i32 0, i32 13, !dbg !8095
  %602 = getelementptr inbounds %"struct.altered_carbon::js::ACLexPosition", %"struct.altered_carbon::js::ACLexPosition"* %601, i32 0, i32 1, !dbg !8095
  %603 = load i64, i64* %602, align 8, !dbg !8095
  %604 = getelementptr inbounds i8, i8* %600, i64 %603, !dbg !8095
  %605 = getelementptr inbounds %"class.altered_carbon::js::ACJsParser", %"class.altered_carbon::js::ACJsParser"* %305, i32 0, i32 11, !dbg !8095
  %606 = getelementptr inbounds %"struct.altered_carbon::js::ACLexPosition", %"struct.altered_carbon::js::ACLexPosition"* %605, i32 0, i32 1, !dbg !8095
  %607 = load i64, i64* %606, align 8, !dbg !8095
  %608 = getelementptr inbounds %"class.altered_carbon::js::ACJsParser", %"class.altered_carbon::js::ACJsParser"* %305, i32 0, i32 13, !dbg !8095
  %609 = getelementptr inbounds %"struct.altered_carbon::js::ACLexPosition", %"struct.altered_carbon::js::ACLexPosition"* %608, i32 0, i32 1, !dbg !8095
  %610 = load i64, i64* %609, align 8, !dbg !8095
  %611 = sub i64 %607, %610, !dbg !8095
  store %"class.std::__1::basic_string_view"* %292, %"class.std::__1::basic_string_view"** %91, align 8
  store i8* %604, i8** %92, align 8
  store i64 %611, i64* %93, align 8
  %612 = load %"class.std::__1::basic_string_view"*, %"class.std::__1::basic_string_view"** %91, align 8
  %613 = load i8*, i8** %92, align 8, !dbg !8096
  %614 = load i64, i64* %93, align 8, !dbg !8096
  store %"class.std::__1::basic_string_view"* %612, %"class.std::__1::basic_string_view"** %88, align 8
  store i8* %613, i8** %89, align 8
  store i64 %614, i64* %90, align 8
  %615 = load %"class.std::__1::basic_string_view"*, %"class.std::__1::basic_string_view"** %88, align 8
  %616 = getelementptr inbounds %"class.std::__1::basic_string_view", %"class.std::__1::basic_string_view"* %615, i32 0, i32 0, !dbg !8097
  %617 = load i8*, i8** %89, align 8, !dbg !8098
  store i8* %617, i8** %616, align 8, !dbg !8097
  %618 = getelementptr inbounds %"class.std::__1::basic_string_view", %"class.std::__1::basic_string_view"* %615, i32 0, i32 1, !dbg !8099
  %619 = load i64, i64* %90, align 8, !dbg !8100
  store i64 %619, i64* %618, align 8, !dbg !8099
  %620 = getelementptr inbounds %"class.altered_carbon::js::ACJsParser", %"class.altered_carbon::js::ACJsParser"* %305, i32 0, i32 13, !dbg !8095
  store i32 8, i32* %293, align 4, !dbg !8095
  call void @_ZN4llvm11make_uniqueIN14altered_carbon2js16ACLexNumberTokenEJmNSt3__117basic_string_viewIcNS4_11char_traitsIcEEEERNS2_13ACLexPositionERxNS3_10NumberBaseEEEENS4_9enable_ifIXntsr3std8is_arrayIT_EE5valueENS4_10unique_ptrISE_NS4_14default_deleteISE_EEEEE4typeEDpOT0_(%"class.std::__1::unique_ptr.26"* sret %290, i64* dereferenceable(8) %291, %"class.std::__1::basic_string_view"* dereferenceable(16) %292, %"struct.altered_carbon::js::ACLexPosition"* dereferenceable(32) %620, i64* dereferenceable(8) %280, i32* dereferenceable(4) %293), !dbg !8095
  store %"class.std::__1::unique_ptr"* %0, %"class.std::__1::unique_ptr"** %54, align 8
  store %"class.std::__1::unique_ptr.26"* %290, %"class.std::__1::unique_ptr.26"** %55, align 8
  %621 = load %"class.std::__1::unique_ptr"*, %"class.std::__1::unique_ptr"** %54, align 8
  %622 = load %"class.std::__1::unique_ptr.26"*, %"class.std::__1::unique_ptr.26"** %55, align 8, !dbg !8101
  store %"class.std::__1::unique_ptr"* %621, %"class.std::__1::unique_ptr"** %51, align 8
  store %"class.std::__1::unique_ptr.26"* %622, %"class.std::__1::unique_ptr.26"** %52, align 8
  %623 = load %"class.std::__1::unique_ptr"*, %"class.std::__1::unique_ptr"** %51, align 8
  %624 = getelementptr inbounds %"class.std::__1::unique_ptr", %"class.std::__1::unique_ptr"* %623, i32 0, i32 0, !dbg !8102
  %625 = load %"class.std::__1::unique_ptr.26"*, %"class.std::__1::unique_ptr.26"** %52, align 8, !dbg !8103
  store %"class.std::__1::unique_ptr.26"* %625, %"class.std::__1::unique_ptr.26"** %49, align 8
  %626 = load %"class.std::__1::unique_ptr.26"*, %"class.std::__1::unique_ptr.26"** %49, align 8
  %627 = getelementptr inbounds %"class.std::__1::unique_ptr.26", %"class.std::__1::unique_ptr.26"* %626, i32 0, i32 0, !dbg !8104
  store %"class.std::__1::__compressed_pair.27"* %627, %"class.std::__1::__compressed_pair.27"** %48, align 8
  %628 = load %"class.std::__1::__compressed_pair.27"*, %"class.std::__1::__compressed_pair.27"** %48, align 8
  %629 = bitcast %"class.std::__1::__compressed_pair.27"* %628 to %"struct.std::__1::__compressed_pair_elem.28"*, !dbg !8105
  store %"struct.std::__1::__compressed_pair_elem.28"* %629, %"struct.std::__1::__compressed_pair_elem.28"** %47, align 8
  %630 = load %"struct.std::__1::__compressed_pair_elem.28"*, %"struct.std::__1::__compressed_pair_elem.28"** %47, align 8
  %631 = getelementptr inbounds %"struct.std::__1::__compressed_pair_elem.28", %"struct.std::__1::__compressed_pair_elem.28"* %630, i32 0, i32 0, !dbg !8106
  %632 = load %"class.altered_carbon::js::ACLexNumberToken"*, %"class.altered_carbon::js::ACLexNumberToken"** %631, align 8, !dbg !8107
  store %"class.altered_carbon::js::ACLexNumberToken"* %632, %"class.altered_carbon::js::ACLexNumberToken"** %50, align 8, !dbg !7519
  %633 = getelementptr inbounds %"class.std::__1::unique_ptr.26", %"class.std::__1::unique_ptr.26"* %626, i32 0, i32 0, !dbg !8108
  store %"class.std::__1::__compressed_pair.27"* %633, %"class.std::__1::__compressed_pair.27"** %46, align 8
  %634 = load %"class.std::__1::__compressed_pair.27"*, %"class.std::__1::__compressed_pair.27"** %46, align 8
  %635 = bitcast %"class.std::__1::__compressed_pair.27"* %634 to %"struct.std::__1::__compressed_pair_elem.28"*, !dbg !8109
  store %"struct.std::__1::__compressed_pair_elem.28"* %635, %"struct.std::__1::__compressed_pair_elem.28"** %45, align 8
  %636 = load %"struct.std::__1::__compressed_pair_elem.28"*, %"struct.std::__1::__compressed_pair_elem.28"** %45, align 8
  %637 = getelementptr inbounds %"struct.std::__1::__compressed_pair_elem.28", %"struct.std::__1::__compressed_pair_elem.28"* %636, i32 0, i32 0, !dbg !8110
  store %"class.altered_carbon::js::ACLexNumberToken"* null, %"class.altered_carbon::js::ACLexNumberToken"** %637, align 8, !dbg !8111
  %638 = load %"class.altered_carbon::js::ACLexNumberToken"*, %"class.altered_carbon::js::ACLexNumberToken"** %50, align 8, !dbg !8112
  store %"class.altered_carbon::js::ACLexNumberToken"* %638, %"class.altered_carbon::js::ACLexNumberToken"** %53, align 8, !dbg !8103
  %639 = load %"class.std::__1::unique_ptr.26"*, %"class.std::__1::unique_ptr.26"** %52, align 8, !dbg !8113
  store %"class.std::__1::unique_ptr.26"* %639, %"class.std::__1::unique_ptr.26"** %26, align 8
  %640 = load %"class.std::__1::unique_ptr.26"*, %"class.std::__1::unique_ptr.26"** %26, align 8
  %641 = getelementptr inbounds %"class.std::__1::unique_ptr.26", %"class.std::__1::unique_ptr.26"* %640, i32 0, i32 0, !dbg !8114
  store %"class.std::__1::__compressed_pair.27"* %641, %"class.std::__1::__compressed_pair.27"** %25, align 8
  %642 = load %"class.std::__1::__compressed_pair.27"*, %"class.std::__1::__compressed_pair.27"** %25, align 8
  %643 = bitcast %"class.std::__1::__compressed_pair.27"* %642 to %"struct.std::__1::__compressed_pair_elem.30"*, !dbg !8115
  store %"struct.std::__1::__compressed_pair_elem.30"* %643, %"struct.std::__1::__compressed_pair_elem.30"** %24, align 8
  %644 = load %"struct.std::__1::__compressed_pair_elem.30"*, %"struct.std::__1::__compressed_pair_elem.30"** %24, align 8
  %645 = bitcast %"struct.std::__1::__compressed_pair_elem.30"* %644 to %"struct.std::__1::default_delete.31"*, !dbg !8116
  store %"struct.std::__1::default_delete.31"* %645, %"struct.std::__1::default_delete.31"** %27, align 8
  %646 = load %"struct.std::__1::default_delete.31"*, %"struct.std::__1::default_delete.31"** %27, align 8, !dbg !8117
  store %"class.std::__1::__compressed_pair.15"* %624, %"class.std::__1::__compressed_pair.15"** %42, align 8
  store %"class.altered_carbon::js::ACLexNumberToken"** %53, %"class.altered_carbon::js::ACLexNumberToken"*** %43, align 8
  store %"struct.std::__1::default_delete.31"* %646, %"struct.std::__1::default_delete.31"** %44, align 8
  %647 = load %"class.std::__1::__compressed_pair.15"*, %"class.std::__1::__compressed_pair.15"** %42, align 8
  %648 = load %"class.altered_carbon::js::ACLexNumberToken"**, %"class.altered_carbon::js::ACLexNumberToken"*** %43, align 8, !dbg !8118
  %649 = load %"struct.std::__1::default_delete.31"*, %"struct.std::__1::default_delete.31"** %44, align 8, !dbg !8118
  store %"class.std::__1::__compressed_pair.15"* %647, %"class.std::__1::__compressed_pair.15"** %39, align 8
  store %"class.altered_carbon::js::ACLexNumberToken"** %648, %"class.altered_carbon::js::ACLexNumberToken"*** %40, align 8
  store %"struct.std::__1::default_delete.31"* %649, %"struct.std::__1::default_delete.31"** %41, align 8
  %650 = load %"class.std::__1::__compressed_pair.15"*, %"class.std::__1::__compressed_pair.15"** %39, align 8
  %651 = bitcast %"class.std::__1::__compressed_pair.15"* %650 to %"struct.std::__1::__compressed_pair_elem.16"*, !dbg !8119
  %652 = load %"class.altered_carbon::js::ACLexNumberToken"**, %"class.altered_carbon::js::ACLexNumberToken"*** %40, align 8, !dbg !8120
  store %"class.altered_carbon::js::ACLexNumberToken"** %652, %"class.altered_carbon::js::ACLexNumberToken"*** %38, align 8
  %653 = load %"class.altered_carbon::js::ACLexNumberToken"**, %"class.altered_carbon::js::ACLexNumberToken"*** %38, align 8, !dbg !8121
  store %"struct.std::__1::__compressed_pair_elem.16"* %651, %"struct.std::__1::__compressed_pair_elem.16"** %29, align 8
  store %"class.altered_carbon::js::ACLexNumberToken"** %653, %"class.altered_carbon::js::ACLexNumberToken"*** %30, align 8
  %654 = load %"struct.std::__1::__compressed_pair_elem.16"*, %"struct.std::__1::__compressed_pair_elem.16"** %29, align 8
  %655 = getelementptr inbounds %"struct.std::__1::__compressed_pair_elem.16", %"struct.std::__1::__compressed_pair_elem.16"* %654, i32 0, i32 0, !dbg !8122
  %656 = load %"class.altered_carbon::js::ACLexNumberToken"**, %"class.altered_carbon::js::ACLexNumberToken"*** %30, align 8, !dbg !8123
  store %"class.altered_carbon::js::ACLexNumberToken"** %656, %"class.altered_carbon::js::ACLexNumberToken"*** %28, align 8
  %657 = load %"class.altered_carbon::js::ACLexNumberToken"**, %"class.altered_carbon::js::ACLexNumberToken"*** %28, align 8, !dbg !8124
  %658 = load %"class.altered_carbon::js::ACLexNumberToken"*, %"class.altered_carbon::js::ACLexNumberToken"** %657, align 8, !dbg !8125
  %659 = bitcast %"class.altered_carbon::js::ACLexNumberToken"* %658 to %"class.altered_carbon::js::ACLexToken"*, !dbg !8125
  store %"class.altered_carbon::js::ACLexToken"* %659, %"class.altered_carbon::js::ACLexToken"** %655, align 8, !dbg !8122
  %660 = bitcast %"class.std::__1::__compressed_pair.15"* %650 to %"struct.std::__1::__compressed_pair_elem.25"*, !dbg !8119
  %661 = load %"struct.std::__1::default_delete.31"*, %"struct.std::__1::default_delete.31"** %41, align 8, !dbg !8126
  store %"struct.std::__1::default_delete.31"* %661, %"struct.std::__1::default_delete.31"** %31, align 8
  %662 = load %"struct.std::__1::default_delete.31"*, %"struct.std::__1::default_delete.31"** %31, align 8, !dbg !8127
  store %"struct.std::__1::__compressed_pair_elem.25"* %660, %"struct.std::__1::__compressed_pair_elem.25"** %36, align 8
  store %"struct.std::__1::default_delete.31"* %662, %"struct.std::__1::default_delete.31"** %37, align 8
  %663 = load %"struct.std::__1::__compressed_pair_elem.25"*, %"struct.std::__1::__compressed_pair_elem.25"** %36, align 8
  %664 = bitcast %"struct.std::__1::__compressed_pair_elem.25"* %663 to %"struct.std::__1::default_delete"*, !dbg !8128
  %665 = load %"struct.std::__1::default_delete.31"*, %"struct.std::__1::default_delete.31"** %37, align 8, !dbg !8129
  store %"struct.std::__1::default_delete.31"* %665, %"struct.std::__1::default_delete.31"** %35, align 8
  %666 = load %"struct.std::__1::default_delete.31"*, %"struct.std::__1::default_delete.31"** %35, align 8, !dbg !8130
  store %"struct.std::__1::default_delete"* %664, %"struct.std::__1::default_delete"** %32, align 8
  store %"struct.std::__1::default_delete.31"* %666, %"struct.std::__1::default_delete.31"** %33, align 8
  store i8* null, i8** %34, align 8
  %667 = load %"struct.std::__1::default_delete"*, %"struct.std::__1::default_delete"** %32, align 8
  store %"class.std::__1::unique_ptr.26"* %290, %"class.std::__1::unique_ptr.26"** %17, align 8
  %668 = load %"class.std::__1::unique_ptr.26"*, %"class.std::__1::unique_ptr.26"** %17, align 8
  store %"class.std::__1::unique_ptr.26"* %668, %"class.std::__1::unique_ptr.26"** %16, align 8
  %669 = load %"class.std::__1::unique_ptr.26"*, %"class.std::__1::unique_ptr.26"** %16, align 8
  store %"class.std::__1::unique_ptr.26"* %669, %"class.std::__1::unique_ptr.26"** %13, align 8
  store %"class.altered_carbon::js::ACLexNumberToken"* null, %"class.altered_carbon::js::ACLexNumberToken"** %14, align 8
  %670 = load %"class.std::__1::unique_ptr.26"*, %"class.std::__1::unique_ptr.26"** %13, align 8
  %671 = getelementptr inbounds %"class.std::__1::unique_ptr.26", %"class.std::__1::unique_ptr.26"* %670, i32 0, i32 0, !dbg !8131
  store %"class.std::__1::__compressed_pair.27"* %671, %"class.std::__1::__compressed_pair.27"** %12, align 8
  %672 = load %"class.std::__1::__compressed_pair.27"*, %"class.std::__1::__compressed_pair.27"** %12, align 8
  %673 = bitcast %"class.std::__1::__compressed_pair.27"* %672 to %"struct.std::__1::__compressed_pair_elem.28"*, !dbg !8132
  store %"struct.std::__1::__compressed_pair_elem.28"* %673, %"struct.std::__1::__compressed_pair_elem.28"** %11, align 8
  %674 = load %"struct.std::__1::__compressed_pair_elem.28"*, %"struct.std::__1::__compressed_pair_elem.28"** %11, align 8
  %675 = getelementptr inbounds %"struct.std::__1::__compressed_pair_elem.28", %"struct.std::__1::__compressed_pair_elem.28"* %674, i32 0, i32 0, !dbg !8133
  %676 = load %"class.altered_carbon::js::ACLexNumberToken"*, %"class.altered_carbon::js::ACLexNumberToken"** %675, align 8, !dbg !8134
  store %"class.altered_carbon::js::ACLexNumberToken"* %676, %"class.altered_carbon::js::ACLexNumberToken"** %15, align 8, !dbg !7373
  %677 = load %"class.altered_carbon::js::ACLexNumberToken"*, %"class.altered_carbon::js::ACLexNumberToken"** %14, align 8, !dbg !8135
  %678 = getelementptr inbounds %"class.std::__1::unique_ptr.26", %"class.std::__1::unique_ptr.26"* %670, i32 0, i32 0, !dbg !8136
  store %"class.std::__1::__compressed_pair.27"* %678, %"class.std::__1::__compressed_pair.27"** %8, align 8
  %679 = load %"class.std::__1::__compressed_pair.27"*, %"class.std::__1::__compressed_pair.27"** %8, align 8
  %680 = bitcast %"class.std::__1::__compressed_pair.27"* %679 to %"struct.std::__1::__compressed_pair_elem.28"*, !dbg !8137
  store %"struct.std::__1::__compressed_pair_elem.28"* %680, %"struct.std::__1::__compressed_pair_elem.28"** %7, align 8
  %681 = load %"struct.std::__1::__compressed_pair_elem.28"*, %"struct.std::__1::__compressed_pair_elem.28"** %7, align 8
  %682 = getelementptr inbounds %"struct.std::__1::__compressed_pair_elem.28", %"struct.std::__1::__compressed_pair_elem.28"* %681, i32 0, i32 0, !dbg !8138
  store %"class.altered_carbon::js::ACLexNumberToken"* %677, %"class.altered_carbon::js::ACLexNumberToken"** %682, align 8, !dbg !8139
  %683 = load %"class.altered_carbon::js::ACLexNumberToken"*, %"class.altered_carbon::js::ACLexNumberToken"** %15, align 8, !dbg !8140
  %684 = icmp ne %"class.altered_carbon::js::ACLexNumberToken"* %683, null, !dbg !8140
  br i1 %684, label %685, label %701, !dbg !8141

; <label>:685:                                    ; preds = %591
  %686 = getelementptr inbounds %"class.std::__1::unique_ptr.26", %"class.std::__1::unique_ptr.26"* %670, i32 0, i32 0, !dbg !8142
  store %"class.std::__1::__compressed_pair.27"* %686, %"class.std::__1::__compressed_pair.27"** %6, align 8
  %687 = load %"class.std::__1::__compressed_pair.27"*, %"class.std::__1::__compressed_pair.27"** %6, align 8
  %688 = bitcast %"class.std::__1::__compressed_pair.27"* %687 to %"struct.std::__1::__compressed_pair_elem.30"*, !dbg !8143
  store %"struct.std::__1::__compressed_pair_elem.30"* %688, %"struct.std::__1::__compressed_pair_elem.30"** %5, align 8
  %689 = load %"struct.std::__1::__compressed_pair_elem.30"*, %"struct.std::__1::__compressed_pair_elem.30"** %5, align 8
  %690 = bitcast %"struct.std::__1::__compressed_pair_elem.30"* %689 to %"struct.std::__1::default_delete.31"*, !dbg !8144
  %691 = load %"class.altered_carbon::js::ACLexNumberToken"*, %"class.altered_carbon::js::ACLexNumberToken"** %15, align 8, !dbg !8145
  store %"struct.std::__1::default_delete.31"* %690, %"struct.std::__1::default_delete.31"** %9, align 8
  store %"class.altered_carbon::js::ACLexNumberToken"* %691, %"class.altered_carbon::js::ACLexNumberToken"** %10, align 8
  %692 = load %"struct.std::__1::default_delete.31"*, %"struct.std::__1::default_delete.31"** %9, align 8
  %693 = load %"class.altered_carbon::js::ACLexNumberToken"*, %"class.altered_carbon::js::ACLexNumberToken"** %10, align 8, !dbg !8146
  %694 = icmp eq %"class.altered_carbon::js::ACLexNumberToken"* %693, null, !dbg !8147
  br i1 %694, label %700, label %695, !dbg !8147

; <label>:695:                                    ; preds = %685
  %696 = bitcast %"class.altered_carbon::js::ACLexNumberToken"* %693 to void (%"class.altered_carbon::js::ACLexNumberToken"*)***, !dbg !8147
  %697 = load void (%"class.altered_carbon::js::ACLexNumberToken"*)**, void (%"class.altered_carbon::js::ACLexNumberToken"*)*** %696, align 8, !dbg !8147
  %698 = getelementptr inbounds void (%"class.altered_carbon::js::ACLexNumberToken"*)*, void (%"class.altered_carbon::js::ACLexNumberToken"*)** %697, i64 2, !dbg !8147
  %699 = load void (%"class.altered_carbon::js::ACLexNumberToken"*)*, void (%"class.altered_carbon::js::ACLexNumberToken"*)** %698, align 8, !dbg !8147
  call void %699(%"class.altered_carbon::js::ACLexNumberToken"* %693) #2, !dbg !8147
  br label %700, !dbg !8147

; <label>:700:                                    ; preds = %695, %685
  br label %701, !dbg !8142

; <label>:701:                                    ; preds = %591, %700
  store i32 1, i32* %289, align 4
  br label %1283, !dbg !8148

; <label>:702:                                    ; preds = %389, %389
  br label %703, !dbg !8149, !llvm.loop !8150

; <label>:703:                                    ; preds = %702
  %704 = call signext i32 @_ZN14altered_carbon2js10ACJsParser6nextChEib(%"class.altered_carbon::js::ACJsParser"* %305, i32 0, i1 zeroext true), !dbg !8151
  br label %705, !dbg !8151, !llvm.loop !8153

; <label>:705:                                    ; preds = %703
  %706 = getelementptr inbounds %"class.altered_carbon::js::ACJsParser", %"class.altered_carbon::js::ACJsParser"* %305, i32 0, i32 8, !dbg !8154
  %707 = load i32, i32* %706, align 4, !dbg !8154
  %708 = getelementptr inbounds %"class.altered_carbon::js::ACJsParser", %"class.altered_carbon::js::ACJsParser"* %305, i32 0, i32 9, !dbg !8154
  store i32 %707, i32* %708, align 8, !dbg !8154
  %709 = getelementptr inbounds %"class.altered_carbon::js::ACJsParser", %"class.altered_carbon::js::ACJsParser"* %305, i32 0, i32 8, !dbg !8154
  %710 = load i32, i32* %709, align 4, !dbg !8154
  %711 = sext i32 %710 to i64, !dbg !8154
  %712 = getelementptr inbounds %"class.altered_carbon::js::ACJsParser", %"class.altered_carbon::js::ACJsParser"* %305, i32 0, i32 11, !dbg !8154
  %713 = getelementptr inbounds %"struct.altered_carbon::js::ACLexPosition", %"struct.altered_carbon::js::ACLexPosition"* %712, i32 0, i32 1, !dbg !8154
  %714 = load i64, i64* %713, align 8, !dbg !8154
  %715 = add i64 %714, %711, !dbg !8154
  store i64 %715, i64* %713, align 8, !dbg !8154
  %716 = getelementptr inbounds %"class.altered_carbon::js::ACJsParser", %"class.altered_carbon::js::ACJsParser"* %305, i32 0, i32 8, !dbg !8154
  store i32 0, i32* %716, align 4, !dbg !8154
  br label %717, !dbg !8154

; <label>:717:                                    ; preds = %705
  br label %718, !dbg !8154

; <label>:718:                                    ; preds = %717
  br label %719, !dbg !8151

; <label>:719:                                    ; preds = %718
  br label %720, !dbg !8151

; <label>:720:                                    ; preds = %719
  %721 = call i64 @_ZN14altered_carbon2js10ACJsParser16scanBinaryNumberEv(%"class.altered_carbon::js::ACJsParser"* %305), !dbg !8156
  store i64 %721, i64* %280, align 8, !dbg !8157
  %722 = load i64, i64* %280, align 8, !dbg !8158
  %723 = sitofp i64 %722 to double, !dbg !8158
  store i32 2, i32* %3, align 4
  store i32 53, i32* %4, align 4
  %724 = load i32, i32* %3, align 4, !dbg !8159
  %725 = sitofp i32 %724 to double, !dbg !8159
  %726 = load i32, i32* %4, align 4, !dbg !8160
  %727 = sitofp i32 %726 to double, !dbg !8160
  %728 = call double @llvm.pow.f64(double %725, double %727) #2, !dbg !8161
  %729 = fsub double %728, 1.000000e+00, !dbg !8162
  %730 = fcmp ogt double %723, %729, !dbg !8163
  br i1 %730, label %731, label %746, !dbg !8164

; <label>:731:                                    ; preds = %720
  br label %732, !dbg !8165, !llvm.loop !8167

; <label>:732:                                    ; preds = %731
  %733 = call dereferenceable(160) %"class.std::__1::basic_ostream"* @_ZNSt3__1lsINS_11char_traitsIcEEEERNS_13basic_ostreamIcT_EES6_PKc(%"class.std::__1::basic_ostream"* dereferenceable(160) bitcast (i8* getelementptr inbounds (i8, i8* bitcast (%"class.altered_carbon::js::NullStream"* @_ZN14altered_carbon2jsL9BlackHoleE to i8*), i64 320) to %"class.std::__1::basic_ostream"*), i8* getelementptr inbounds ([6 x i8], [6 x i8]* @.str.9, i32 0, i32 0)), !dbg !8168
  %734 = call dereferenceable(160) %"class.std::__1::basic_ostream"* @_ZNSt3__1lsINS_11char_traitsIcEEEERNS_13basic_ostreamIcT_EES6_PKc(%"class.std::__1::basic_ostream"* dereferenceable(160) %733, i8* getelementptr inbounds ([9 x i8], [9 x i8]* @.str.1, i32 0, i32 0)), !dbg !8168
  %735 = call dereferenceable(160) %"class.std::__1::basic_ostream"* @_ZNSt3__1lsINS_11char_traitsIcEEEERNS_13basic_ostreamIcT_EES6_PKc(%"class.std::__1::basic_ostream"* dereferenceable(160) %734, i8* getelementptr inbounds ([5 x i8], [5 x i8]* @.str.2, i32 0, i32 0)), !dbg !8168
  %736 = call dereferenceable(160) %"class.std::__1::basic_ostream"* @_ZNSt3__1lsINS_11char_traitsIcEEEERNS_13basic_ostreamIcT_EES6_PKc(%"class.std::__1::basic_ostream"* dereferenceable(160) %735, i8* getelementptr inbounds ([47 x i8], [47 x i8]* @.str.12, i32 0, i32 0)), !dbg !8168
  %737 = call dereferenceable(160) %"class.std::__1::basic_ostream"* @_ZNSt3__1lsINS_11char_traitsIcEEEERNS_13basic_ostreamIcT_EES6_PKc(%"class.std::__1::basic_ostream"* dereferenceable(160) %736, i8* getelementptr inbounds ([10 x i8], [10 x i8]* @.str.4, i32 0, i32 0)), !dbg !8168
  %738 = load i32, i32* %282, align 4, !dbg !8168
  %739 = call dereferenceable(160) %"class.std::__1::basic_ostream"* @_ZNSt3__113basic_ostreamIcNS_11char_traitsIcEEElsEi(%"class.std::__1::basic_ostream"* %737, i32 %738), !dbg !8168
  %740 = call dereferenceable(160) %"class.std::__1::basic_ostream"* @_ZNSt3__1lsINS_11char_traitsIcEEEERNS_13basic_ostreamIcT_EES6_PKc(%"class.std::__1::basic_ostream"* dereferenceable(160) %739, i8* getelementptr inbounds ([3 x i8], [3 x i8]* @.str.5, i32 0, i32 0)), !dbg !8168
  %741 = getelementptr inbounds %"class.altered_carbon::js::ACJsParser", %"class.altered_carbon::js::ACJsParser"* %305, i32 0, i32 11, !dbg !8168
  %742 = call dereferenceable(160) %"class.std::__1::basic_ostream"* @_ZN14altered_carbon2jslsERNSt3__113basic_ostreamIcNS1_11char_traitsIcEEEERKNS0_13ACLexPositionE(%"class.std::__1::basic_ostream"* dereferenceable(160) %740, %"struct.altered_carbon::js::ACLexPosition"* dereferenceable(32) %741), !dbg !8168
  %743 = call dereferenceable(160) %"class.std::__1::basic_ostream"* @_ZNSt3__1lsINS_11char_traitsIcEEEERNS_13basic_ostreamIcT_EES6_PKc(%"class.std::__1::basic_ostream"* dereferenceable(160) %742, i8* getelementptr inbounds ([3 x i8], [3 x i8]* @.str.6, i32 0, i32 0)), !dbg !8168
  call void @_ZN14altered_carbon2js10ACJsParser16showErrorContextEv(%"class.altered_carbon::js::ACJsParser"* %305), !dbg !8168
  br label %744, !dbg !8168

; <label>:744:                                    ; preds = %732
  br label %745, !dbg !8168

; <label>:745:                                    ; preds = %744
  br label %746, !dbg !8170

; <label>:746:                                    ; preds = %745, %720
  %747 = getelementptr inbounds %"class.altered_carbon::js::ACJsParser", %"class.altered_carbon::js::ACJsParser"* %305, i32 0, i32 11, !dbg !8171
  %748 = getelementptr inbounds %"struct.altered_carbon::js::ACLexPosition", %"struct.altered_carbon::js::ACLexPosition"* %747, i32 0, i32 1, !dbg !8171
  %749 = load i64, i64* %748, align 8, !dbg !8171
  %750 = getelementptr inbounds %"class.altered_carbon::js::ACJsParser", %"class.altered_carbon::js::ACJsParser"* %305, i32 0, i32 13, !dbg !8171
  %751 = getelementptr inbounds %"struct.altered_carbon::js::ACLexPosition", %"struct.altered_carbon::js::ACLexPosition"* %750, i32 0, i32 1, !dbg !8171
  %752 = load i64, i64* %751, align 8, !dbg !8171
  %753 = sub i64 %749, %752, !dbg !8171
  store i64 %753, i64* %295, align 8, !dbg !8171
  %754 = getelementptr inbounds %"class.altered_carbon::js::ACJsParser", %"class.altered_carbon::js::ACJsParser"* %305, i32 0, i32 3, !dbg !8171
  %755 = load i8*, i8** %754, align 8, !dbg !8171
  %756 = getelementptr inbounds %"class.altered_carbon::js::ACJsParser", %"class.altered_carbon::js::ACJsParser"* %305, i32 0, i32 13, !dbg !8171
  %757 = getelementptr inbounds %"struct.altered_carbon::js::ACLexPosition", %"struct.altered_carbon::js::ACLexPosition"* %756, i32 0, i32 1, !dbg !8171
  %758 = load i64, i64* %757, align 8, !dbg !8171
  %759 = getelementptr inbounds i8, i8* %755, i64 %758, !dbg !8171
  %760 = getelementptr inbounds %"class.altered_carbon::js::ACJsParser", %"class.altered_carbon::js::ACJsParser"* %305, i32 0, i32 11, !dbg !8171
  %761 = getelementptr inbounds %"struct.altered_carbon::js::ACLexPosition", %"struct.altered_carbon::js::ACLexPosition"* %760, i32 0, i32 1, !dbg !8171
  %762 = load i64, i64* %761, align 8, !dbg !8171
  %763 = getelementptr inbounds %"class.altered_carbon::js::ACJsParser", %"class.altered_carbon::js::ACJsParser"* %305, i32 0, i32 13, !dbg !8171
  %764 = getelementptr inbounds %"struct.altered_carbon::js::ACLexPosition", %"struct.altered_carbon::js::ACLexPosition"* %763, i32 0, i32 1, !dbg !8171
  %765 = load i64, i64* %764, align 8, !dbg !8171
  %766 = sub i64 %762, %765, !dbg !8171
  store %"class.std::__1::basic_string_view"* %296, %"class.std::__1::basic_string_view"** %21, align 8
  store i8* %759, i8** %22, align 8
  store i64 %766, i64* %23, align 8
  %767 = load %"class.std::__1::basic_string_view"*, %"class.std::__1::basic_string_view"** %21, align 8
  %768 = load i8*, i8** %22, align 8, !dbg !8172
  %769 = load i64, i64* %23, align 8, !dbg !8172
  store %"class.std::__1::basic_string_view"* %767, %"class.std::__1::basic_string_view"** %18, align 8
  store i8* %768, i8** %19, align 8
  store i64 %769, i64* %20, align 8
  %770 = load %"class.std::__1::basic_string_view"*, %"class.std::__1::basic_string_view"** %18, align 8
  %771 = getelementptr inbounds %"class.std::__1::basic_string_view", %"class.std::__1::basic_string_view"* %770, i32 0, i32 0, !dbg !8173
  %772 = load i8*, i8** %19, align 8, !dbg !8174
  store i8* %772, i8** %771, align 8, !dbg !8173
  %773 = getelementptr inbounds %"class.std::__1::basic_string_view", %"class.std::__1::basic_string_view"* %770, i32 0, i32 1, !dbg !8175
  %774 = load i64, i64* %20, align 8, !dbg !8176
  store i64 %774, i64* %773, align 8, !dbg !8175
  %775 = getelementptr inbounds %"class.altered_carbon::js::ACJsParser", %"class.altered_carbon::js::ACJsParser"* %305, i32 0, i32 13, !dbg !8171
  store i32 2, i32* %297, align 4, !dbg !8171
  call void @_ZN4llvm11make_uniqueIN14altered_carbon2js16ACLexNumberTokenEJmNSt3__117basic_string_viewIcNS4_11char_traitsIcEEEERNS2_13ACLexPositionERxNS3_10NumberBaseEEEENS4_9enable_ifIXntsr3std8is_arrayIT_EE5valueENS4_10unique_ptrISE_NS4_14default_deleteISE_EEEEE4typeEDpOT0_(%"class.std::__1::unique_ptr.26"* sret %294, i64* dereferenceable(8) %295, %"class.std::__1::basic_string_view"* dereferenceable(16) %296, %"struct.altered_carbon::js::ACLexPosition"* dereferenceable(32) %775, i64* dereferenceable(8) %280, i32* dereferenceable(4) %297), !dbg !8171
  store %"class.std::__1::unique_ptr"* %0, %"class.std::__1::unique_ptr"** %86, align 8
  store %"class.std::__1::unique_ptr.26"* %294, %"class.std::__1::unique_ptr.26"** %87, align 8
  %776 = load %"class.std::__1::unique_ptr"*, %"class.std::__1::unique_ptr"** %86, align 8
  %777 = load %"class.std::__1::unique_ptr.26"*, %"class.std::__1::unique_ptr.26"** %87, align 8, !dbg !8177
  store %"class.std::__1::unique_ptr"* %776, %"class.std::__1::unique_ptr"** %83, align 8
  store %"class.std::__1::unique_ptr.26"* %777, %"class.std::__1::unique_ptr.26"** %84, align 8
  %778 = load %"class.std::__1::unique_ptr"*, %"class.std::__1::unique_ptr"** %83, align 8
  %779 = getelementptr inbounds %"class.std::__1::unique_ptr", %"class.std::__1::unique_ptr"* %778, i32 0, i32 0, !dbg !8178
  %780 = load %"class.std::__1::unique_ptr.26"*, %"class.std::__1::unique_ptr.26"** %84, align 8, !dbg !8179
  store %"class.std::__1::unique_ptr.26"* %780, %"class.std::__1::unique_ptr.26"** %81, align 8
  %781 = load %"class.std::__1::unique_ptr.26"*, %"class.std::__1::unique_ptr.26"** %81, align 8
  %782 = getelementptr inbounds %"class.std::__1::unique_ptr.26", %"class.std::__1::unique_ptr.26"* %781, i32 0, i32 0, !dbg !8180
  store %"class.std::__1::__compressed_pair.27"* %782, %"class.std::__1::__compressed_pair.27"** %80, align 8
  %783 = load %"class.std::__1::__compressed_pair.27"*, %"class.std::__1::__compressed_pair.27"** %80, align 8
  %784 = bitcast %"class.std::__1::__compressed_pair.27"* %783 to %"struct.std::__1::__compressed_pair_elem.28"*, !dbg !8181
  store %"struct.std::__1::__compressed_pair_elem.28"* %784, %"struct.std::__1::__compressed_pair_elem.28"** %79, align 8
  %785 = load %"struct.std::__1::__compressed_pair_elem.28"*, %"struct.std::__1::__compressed_pair_elem.28"** %79, align 8
  %786 = getelementptr inbounds %"struct.std::__1::__compressed_pair_elem.28", %"struct.std::__1::__compressed_pair_elem.28"* %785, i32 0, i32 0, !dbg !8182
  %787 = load %"class.altered_carbon::js::ACLexNumberToken"*, %"class.altered_carbon::js::ACLexNumberToken"** %786, align 8, !dbg !8183
  store %"class.altered_carbon::js::ACLexNumberToken"* %787, %"class.altered_carbon::js::ACLexNumberToken"** %82, align 8, !dbg !7575
  %788 = getelementptr inbounds %"class.std::__1::unique_ptr.26", %"class.std::__1::unique_ptr.26"* %781, i32 0, i32 0, !dbg !8184
  store %"class.std::__1::__compressed_pair.27"* %788, %"class.std::__1::__compressed_pair.27"** %78, align 8
  %789 = load %"class.std::__1::__compressed_pair.27"*, %"class.std::__1::__compressed_pair.27"** %78, align 8
  %790 = bitcast %"class.std::__1::__compressed_pair.27"* %789 to %"struct.std::__1::__compressed_pair_elem.28"*, !dbg !8185
  store %"struct.std::__1::__compressed_pair_elem.28"* %790, %"struct.std::__1::__compressed_pair_elem.28"** %77, align 8
  %791 = load %"struct.std::__1::__compressed_pair_elem.28"*, %"struct.std::__1::__compressed_pair_elem.28"** %77, align 8
  %792 = getelementptr inbounds %"struct.std::__1::__compressed_pair_elem.28", %"struct.std::__1::__compressed_pair_elem.28"* %791, i32 0, i32 0, !dbg !8186
  store %"class.altered_carbon::js::ACLexNumberToken"* null, %"class.altered_carbon::js::ACLexNumberToken"** %792, align 8, !dbg !8187
  %793 = load %"class.altered_carbon::js::ACLexNumberToken"*, %"class.altered_carbon::js::ACLexNumberToken"** %82, align 8, !dbg !8188
  store %"class.altered_carbon::js::ACLexNumberToken"* %793, %"class.altered_carbon::js::ACLexNumberToken"** %85, align 8, !dbg !8179
  %794 = load %"class.std::__1::unique_ptr.26"*, %"class.std::__1::unique_ptr.26"** %84, align 8, !dbg !8189
  store %"class.std::__1::unique_ptr.26"* %794, %"class.std::__1::unique_ptr.26"** %58, align 8
  %795 = load %"class.std::__1::unique_ptr.26"*, %"class.std::__1::unique_ptr.26"** %58, align 8
  %796 = getelementptr inbounds %"class.std::__1::unique_ptr.26", %"class.std::__1::unique_ptr.26"* %795, i32 0, i32 0, !dbg !8190
  store %"class.std::__1::__compressed_pair.27"* %796, %"class.std::__1::__compressed_pair.27"** %57, align 8
  %797 = load %"class.std::__1::__compressed_pair.27"*, %"class.std::__1::__compressed_pair.27"** %57, align 8
  %798 = bitcast %"class.std::__1::__compressed_pair.27"* %797 to %"struct.std::__1::__compressed_pair_elem.30"*, !dbg !8191
  store %"struct.std::__1::__compressed_pair_elem.30"* %798, %"struct.std::__1::__compressed_pair_elem.30"** %56, align 8
  %799 = load %"struct.std::__1::__compressed_pair_elem.30"*, %"struct.std::__1::__compressed_pair_elem.30"** %56, align 8
  %800 = bitcast %"struct.std::__1::__compressed_pair_elem.30"* %799 to %"struct.std::__1::default_delete.31"*, !dbg !8192
  store %"struct.std::__1::default_delete.31"* %800, %"struct.std::__1::default_delete.31"** %59, align 8
  %801 = load %"struct.std::__1::default_delete.31"*, %"struct.std::__1::default_delete.31"** %59, align 8, !dbg !8193
  store %"class.std::__1::__compressed_pair.15"* %779, %"class.std::__1::__compressed_pair.15"** %74, align 8
  store %"class.altered_carbon::js::ACLexNumberToken"** %85, %"class.altered_carbon::js::ACLexNumberToken"*** %75, align 8
  store %"struct.std::__1::default_delete.31"* %801, %"struct.std::__1::default_delete.31"** %76, align 8
  %802 = load %"class.std::__1::__compressed_pair.15"*, %"class.std::__1::__compressed_pair.15"** %74, align 8
  %803 = load %"class.altered_carbon::js::ACLexNumberToken"**, %"class.altered_carbon::js::ACLexNumberToken"*** %75, align 8, !dbg !8194
  %804 = load %"struct.std::__1::default_delete.31"*, %"struct.std::__1::default_delete.31"** %76, align 8, !dbg !8194
  store %"class.std::__1::__compressed_pair.15"* %802, %"class.std::__1::__compressed_pair.15"** %71, align 8
  store %"class.altered_carbon::js::ACLexNumberToken"** %803, %"class.altered_carbon::js::ACLexNumberToken"*** %72, align 8
  store %"struct.std::__1::default_delete.31"* %804, %"struct.std::__1::default_delete.31"** %73, align 8
  %805 = load %"class.std::__1::__compressed_pair.15"*, %"class.std::__1::__compressed_pair.15"** %71, align 8
  %806 = bitcast %"class.std::__1::__compressed_pair.15"* %805 to %"struct.std::__1::__compressed_pair_elem.16"*, !dbg !8195
  %807 = load %"class.altered_carbon::js::ACLexNumberToken"**, %"class.altered_carbon::js::ACLexNumberToken"*** %72, align 8, !dbg !8196
  store %"class.altered_carbon::js::ACLexNumberToken"** %807, %"class.altered_carbon::js::ACLexNumberToken"*** %70, align 8
  %808 = load %"class.altered_carbon::js::ACLexNumberToken"**, %"class.altered_carbon::js::ACLexNumberToken"*** %70, align 8, !dbg !8197
  store %"struct.std::__1::__compressed_pair_elem.16"* %806, %"struct.std::__1::__compressed_pair_elem.16"** %61, align 8
  store %"class.altered_carbon::js::ACLexNumberToken"** %808, %"class.altered_carbon::js::ACLexNumberToken"*** %62, align 8
  %809 = load %"struct.std::__1::__compressed_pair_elem.16"*, %"struct.std::__1::__compressed_pair_elem.16"** %61, align 8
  %810 = getelementptr inbounds %"struct.std::__1::__compressed_pair_elem.16", %"struct.std::__1::__compressed_pair_elem.16"* %809, i32 0, i32 0, !dbg !8198
  %811 = load %"class.altered_carbon::js::ACLexNumberToken"**, %"class.altered_carbon::js::ACLexNumberToken"*** %62, align 8, !dbg !8199
  store %"class.altered_carbon::js::ACLexNumberToken"** %811, %"class.altered_carbon::js::ACLexNumberToken"*** %60, align 8
  %812 = load %"class.altered_carbon::js::ACLexNumberToken"**, %"class.altered_carbon::js::ACLexNumberToken"*** %60, align 8, !dbg !8200
  %813 = load %"class.altered_carbon::js::ACLexNumberToken"*, %"class.altered_carbon::js::ACLexNumberToken"** %812, align 8, !dbg !8201
  %814 = bitcast %"class.altered_carbon::js::ACLexNumberToken"* %813 to %"class.altered_carbon::js::ACLexToken"*, !dbg !8201
  store %"class.altered_carbon::js::ACLexToken"* %814, %"class.altered_carbon::js::ACLexToken"** %810, align 8, !dbg !8198
  %815 = bitcast %"class.std::__1::__compressed_pair.15"* %805 to %"struct.std::__1::__compressed_pair_elem.25"*, !dbg !8195
  %816 = load %"struct.std::__1::default_delete.31"*, %"struct.std::__1::default_delete.31"** %73, align 8, !dbg !8202
  store %"struct.std::__1::default_delete.31"* %816, %"struct.std::__1::default_delete.31"** %63, align 8
  %817 = load %"struct.std::__1::default_delete.31"*, %"struct.std::__1::default_delete.31"** %63, align 8, !dbg !8203
  store %"struct.std::__1::__compressed_pair_elem.25"* %815, %"struct.std::__1::__compressed_pair_elem.25"** %68, align 8
  store %"struct.std::__1::default_delete.31"* %817, %"struct.std::__1::default_delete.31"** %69, align 8
  %818 = load %"struct.std::__1::__compressed_pair_elem.25"*, %"struct.std::__1::__compressed_pair_elem.25"** %68, align 8
  %819 = bitcast %"struct.std::__1::__compressed_pair_elem.25"* %818 to %"struct.std::__1::default_delete"*, !dbg !8204
  %820 = load %"struct.std::__1::default_delete.31"*, %"struct.std::__1::default_delete.31"** %69, align 8, !dbg !8205
  store %"struct.std::__1::default_delete.31"* %820, %"struct.std::__1::default_delete.31"** %67, align 8
  %821 = load %"struct.std::__1::default_delete.31"*, %"struct.std::__1::default_delete.31"** %67, align 8, !dbg !8206
  store %"struct.std::__1::default_delete"* %819, %"struct.std::__1::default_delete"** %64, align 8
  store %"struct.std::__1::default_delete.31"* %821, %"struct.std::__1::default_delete.31"** %65, align 8
  store i8* null, i8** %66, align 8
  %822 = load %"struct.std::__1::default_delete"*, %"struct.std::__1::default_delete"** %64, align 8
  store %"class.std::__1::unique_ptr.26"* %294, %"class.std::__1::unique_ptr.26"** %106, align 8
  %823 = load %"class.std::__1::unique_ptr.26"*, %"class.std::__1::unique_ptr.26"** %106, align 8
  store %"class.std::__1::unique_ptr.26"* %823, %"class.std::__1::unique_ptr.26"** %105, align 8
  %824 = load %"class.std::__1::unique_ptr.26"*, %"class.std::__1::unique_ptr.26"** %105, align 8
  store %"class.std::__1::unique_ptr.26"* %824, %"class.std::__1::unique_ptr.26"** %102, align 8
  store %"class.altered_carbon::js::ACLexNumberToken"* null, %"class.altered_carbon::js::ACLexNumberToken"** %103, align 8
  %825 = load %"class.std::__1::unique_ptr.26"*, %"class.std::__1::unique_ptr.26"** %102, align 8
  %826 = getelementptr inbounds %"class.std::__1::unique_ptr.26", %"class.std::__1::unique_ptr.26"* %825, i32 0, i32 0, !dbg !8207
  store %"class.std::__1::__compressed_pair.27"* %826, %"class.std::__1::__compressed_pair.27"** %101, align 8
  %827 = load %"class.std::__1::__compressed_pair.27"*, %"class.std::__1::__compressed_pair.27"** %101, align 8
  %828 = bitcast %"class.std::__1::__compressed_pair.27"* %827 to %"struct.std::__1::__compressed_pair_elem.28"*, !dbg !8208
  store %"struct.std::__1::__compressed_pair_elem.28"* %828, %"struct.std::__1::__compressed_pair_elem.28"** %100, align 8
  %829 = load %"struct.std::__1::__compressed_pair_elem.28"*, %"struct.std::__1::__compressed_pair_elem.28"** %100, align 8
  %830 = getelementptr inbounds %"struct.std::__1::__compressed_pair_elem.28", %"struct.std::__1::__compressed_pair_elem.28"* %829, i32 0, i32 0, !dbg !8209
  %831 = load %"class.altered_carbon::js::ACLexNumberToken"*, %"class.altered_carbon::js::ACLexNumberToken"** %830, align 8, !dbg !8210
  store %"class.altered_carbon::js::ACLexNumberToken"* %831, %"class.altered_carbon::js::ACLexNumberToken"** %104, align 8, !dbg !7608
  %832 = load %"class.altered_carbon::js::ACLexNumberToken"*, %"class.altered_carbon::js::ACLexNumberToken"** %103, align 8, !dbg !8211
  %833 = getelementptr inbounds %"class.std::__1::unique_ptr.26", %"class.std::__1::unique_ptr.26"* %825, i32 0, i32 0, !dbg !8212
  store %"class.std::__1::__compressed_pair.27"* %833, %"class.std::__1::__compressed_pair.27"** %97, align 8
  %834 = load %"class.std::__1::__compressed_pair.27"*, %"class.std::__1::__compressed_pair.27"** %97, align 8
  %835 = bitcast %"class.std::__1::__compressed_pair.27"* %834 to %"struct.std::__1::__compressed_pair_elem.28"*, !dbg !8213
  store %"struct.std::__1::__compressed_pair_elem.28"* %835, %"struct.std::__1::__compressed_pair_elem.28"** %96, align 8
  %836 = load %"struct.std::__1::__compressed_pair_elem.28"*, %"struct.std::__1::__compressed_pair_elem.28"** %96, align 8
  %837 = getelementptr inbounds %"struct.std::__1::__compressed_pair_elem.28", %"struct.std::__1::__compressed_pair_elem.28"* %836, i32 0, i32 0, !dbg !8214
  store %"class.altered_carbon::js::ACLexNumberToken"* %832, %"class.altered_carbon::js::ACLexNumberToken"** %837, align 8, !dbg !8215
  %838 = load %"class.altered_carbon::js::ACLexNumberToken"*, %"class.altered_carbon::js::ACLexNumberToken"** %104, align 8, !dbg !8216
  %839 = icmp ne %"class.altered_carbon::js::ACLexNumberToken"* %838, null, !dbg !8216
  br i1 %839, label %840, label %856, !dbg !8217

; <label>:840:                                    ; preds = %746
  %841 = getelementptr inbounds %"class.std::__1::unique_ptr.26", %"class.std::__1::unique_ptr.26"* %825, i32 0, i32 0, !dbg !8218
  store %"class.std::__1::__compressed_pair.27"* %841, %"class.std::__1::__compressed_pair.27"** %95, align 8
  %842 = load %"class.std::__1::__compressed_pair.27"*, %"class.std::__1::__compressed_pair.27"** %95, align 8
  %843 = bitcast %"class.std::__1::__compressed_pair.27"* %842 to %"struct.std::__1::__compressed_pair_elem.30"*, !dbg !8219
  store %"struct.std::__1::__compressed_pair_elem.30"* %843, %"struct.std::__1::__compressed_pair_elem.30"** %94, align 8
  %844 = load %"struct.std::__1::__compressed_pair_elem.30"*, %"struct.std::__1::__compressed_pair_elem.30"** %94, align 8
  %845 = bitcast %"struct.std::__1::__compressed_pair_elem.30"* %844 to %"struct.std::__1::default_delete.31"*, !dbg !8220
  %846 = load %"class.altered_carbon::js::ACLexNumberToken"*, %"class.altered_carbon::js::ACLexNumberToken"** %104, align 8, !dbg !8221
  store %"struct.std::__1::default_delete.31"* %845, %"struct.std::__1::default_delete.31"** %98, align 8
  store %"class.altered_carbon::js::ACLexNumberToken"* %846, %"class.altered_carbon::js::ACLexNumberToken"** %99, align 8
  %847 = load %"struct.std::__1::default_delete.31"*, %"struct.std::__1::default_delete.31"** %98, align 8
  %848 = load %"class.altered_carbon::js::ACLexNumberToken"*, %"class.altered_carbon::js::ACLexNumberToken"** %99, align 8, !dbg !8222
  %849 = icmp eq %"class.altered_carbon::js::ACLexNumberToken"* %848, null, !dbg !8223
  br i1 %849, label %855, label %850, !dbg !8223

; <label>:850:                                    ; preds = %840
  %851 = bitcast %"class.altered_carbon::js::ACLexNumberToken"* %848 to void (%"class.altered_carbon::js::ACLexNumberToken"*)***, !dbg !8223
  %852 = load void (%"class.altered_carbon::js::ACLexNumberToken"*)**, void (%"class.altered_carbon::js::ACLexNumberToken"*)*** %851, align 8, !dbg !8223
  %853 = getelementptr inbounds void (%"class.altered_carbon::js::ACLexNumberToken"*)*, void (%"class.altered_carbon::js::ACLexNumberToken"*)** %852, i64 2, !dbg !8223
  %854 = load void (%"class.altered_carbon::js::ACLexNumberToken"*)*, void (%"class.altered_carbon::js::ACLexNumberToken"*)** %853, align 8, !dbg !8223
  call void %854(%"class.altered_carbon::js::ACLexNumberToken"* %848) #2, !dbg !8223
  br label %855, !dbg !8223

; <label>:855:                                    ; preds = %850, %840
  br label %856, !dbg !8218

; <label>:856:                                    ; preds = %746, %855
  store i32 1, i32* %289, align 4
  br label %1283, !dbg !8224

; <label>:857:                                    ; preds = %389
  br label %858, !dbg !8225

; <label>:858:                                    ; preds = %857
  br label %859, !dbg !8226

; <label>:859:                                    ; preds = %858, %386
  br label %860, !dbg !8227

; <label>:860:                                    ; preds = %907, %859
  %861 = load i32, i32* %282, align 4, !dbg !8228
  %862 = icmp sge i32 %861, 48, !dbg !8228
  br i1 %862, label %863, label %866, !dbg !8228

; <label>:863:                                    ; preds = %860
  %864 = load i32, i32* %282, align 4, !dbg !8228
  %865 = icmp sle i32 %864, 57, !dbg !8228
  br label %866

; <label>:866:                                    ; preds = %863, %860
  %867 = phi i1 [ false, %860 ], [ %865, %863 ]
  br i1 %867, label %868, label %912, !dbg !8227

; <label>:868:                                    ; preds = %866
  br label %869, !dbg !8229, !llvm.loop !8230

; <label>:869:                                    ; preds = %868
  %870 = getelementptr inbounds %"class.altered_carbon::js::ACJsParser", %"class.altered_carbon::js::ACJsParser"* %305, i32 0, i32 8, !dbg !8231
  %871 = load i32, i32* %870, align 4, !dbg !8231
  %872 = getelementptr inbounds %"class.altered_carbon::js::ACJsParser", %"class.altered_carbon::js::ACJsParser"* %305, i32 0, i32 9, !dbg !8231
  store i32 %871, i32* %872, align 8, !dbg !8231
  %873 = getelementptr inbounds %"class.altered_carbon::js::ACJsParser", %"class.altered_carbon::js::ACJsParser"* %305, i32 0, i32 8, !dbg !8231
  %874 = load i32, i32* %873, align 4, !dbg !8231
  %875 = sext i32 %874 to i64, !dbg !8231
  %876 = getelementptr inbounds %"class.altered_carbon::js::ACJsParser", %"class.altered_carbon::js::ACJsParser"* %305, i32 0, i32 11, !dbg !8231
  %877 = getelementptr inbounds %"struct.altered_carbon::js::ACLexPosition", %"struct.altered_carbon::js::ACLexPosition"* %876, i32 0, i32 1, !dbg !8231
  %878 = load i64, i64* %877, align 8, !dbg !8231
  %879 = add i64 %878, %875, !dbg !8231
  store i64 %879, i64* %877, align 8, !dbg !8231
  %880 = getelementptr inbounds %"class.altered_carbon::js::ACJsParser", %"class.altered_carbon::js::ACJsParser"* %305, i32 0, i32 8, !dbg !8231
  store i32 0, i32* %880, align 4, !dbg !8231
  br label %881, !dbg !8231

; <label>:881:                                    ; preds = %869
  br label %882, !dbg !8231

; <label>:882:                                    ; preds = %881
  %883 = load i8, i8* %283, align 1, !dbg !8233
  %884 = trunc i8 %883 to i1, !dbg !8233
  br i1 %884, label %907, label %885, !dbg !8234

; <label>:885:                                    ; preds = %882
  %886 = load i64, i64* %280, align 8, !dbg !8235
  %887 = mul nsw i64 %886, 10, !dbg !8235
  store i64 %887, i64* %280, align 8, !dbg !8235
  %888 = load i32, i32* %282, align 4, !dbg !8236
  %889 = sub nsw i32 %888, 48, !dbg !8237
  %890 = sext i32 %889 to i64, !dbg !8238
  %891 = getelementptr inbounds [55 x i32], [55 x i32]* @_ZN14altered_carbon2jsL10HEX_LOOKUPE, i64 0, i64 %890, !dbg !8238
  %892 = load i32, i32* %891, align 4, !dbg !8238
  %893 = sext i32 %892 to i64, !dbg !8238
  %894 = load i64, i64* %280, align 8, !dbg !8239
  %895 = add nsw i64 %894, %893, !dbg !8239
  store i64 %895, i64* %280, align 8, !dbg !8239
  %896 = load i64, i64* %280, align 8, !dbg !8240
  %897 = sitofp i64 %896 to double, !dbg !8240
  store i32 2, i32* %107, align 4
  store i32 53, i32* %108, align 4
  %898 = load i32, i32* %107, align 4, !dbg !8241
  %899 = sitofp i32 %898 to double, !dbg !8241
  %900 = load i32, i32* %108, align 4, !dbg !8242
  %901 = sitofp i32 %900 to double, !dbg !8242
  %902 = call double @llvm.pow.f64(double %899, double %901) #2, !dbg !8243
  %903 = fsub double %902, 1.000000e+00, !dbg !8244
  %904 = fcmp ogt double %897, %903, !dbg !8245
  br i1 %904, label %905, label %906, !dbg !8246

; <label>:905:                                    ; preds = %885
  store i8 1, i8* %283, align 1, !dbg !8247
  br label %906, !dbg !8249

; <label>:906:                                    ; preds = %905, %885
  br label %907, !dbg !8250

; <label>:907:                                    ; preds = %906, %882
  %908 = load i32, i32* %282, align 4, !dbg !8251
  %909 = trunc i32 %908 to i8, !dbg !8251
  %910 = call dereferenceable(24) %"class.std::__1::basic_string"* @_ZNSt3__112basic_stringIcNS_11char_traitsIcEENS_9allocatorIcEEE6appendEmc(%"class.std::__1::basic_string"* %279, i64 1, i8 signext %909), !dbg !8252
  %911 = call signext i32 @_ZN14altered_carbon2js10ACJsParser6nextChEib(%"class.altered_carbon::js::ACJsParser"* %305, i32 0, i1 zeroext true), !dbg !8253
  store i32 %911, i32* %282, align 4, !dbg !8254
  br label %860, !dbg !8227, !llvm.loop !8255

; <label>:912:                                    ; preds = %866
  br label %913, !dbg !8257

; <label>:913:                                    ; preds = %912, %369
  %914 = load i8, i8* %283, align 1, !dbg !8258
  %915 = trunc i8 %914 to i1, !dbg !8258
  br i1 %915, label %1036, label %916, !dbg !8259

; <label>:916:                                    ; preds = %913
  %917 = load i32, i32* %282, align 4, !dbg !8260
  %918 = icmp ne i32 %917, 46, !dbg !8261
  br i1 %918, label %919, label %1036, !dbg !8262

; <label>:919:                                    ; preds = %916
  %920 = load i32, i32* %282, align 4, !dbg !8263
  %921 = icmp ne i32 %920, 101, !dbg !8264
  br i1 %921, label %922, label %1036, !dbg !8265

; <label>:922:                                    ; preds = %919
  %923 = load i32, i32* %282, align 4, !dbg !8266
  %924 = icmp ne i32 %923, 69, !dbg !8267
  br i1 %924, label %925, label %1036, !dbg !8268

; <label>:925:                                    ; preds = %922
  %926 = getelementptr inbounds %"class.altered_carbon::js::ACJsParser", %"class.altered_carbon::js::ACJsParser"* %305, i32 0, i32 11, !dbg !8269
  %927 = getelementptr inbounds %"struct.altered_carbon::js::ACLexPosition", %"struct.altered_carbon::js::ACLexPosition"* %926, i32 0, i32 1, !dbg !8269
  %928 = load i64, i64* %927, align 8, !dbg !8269
  %929 = getelementptr inbounds %"class.altered_carbon::js::ACJsParser", %"class.altered_carbon::js::ACJsParser"* %305, i32 0, i32 13, !dbg !8269
  %930 = getelementptr inbounds %"struct.altered_carbon::js::ACLexPosition", %"struct.altered_carbon::js::ACLexPosition"* %929, i32 0, i32 1, !dbg !8269
  %931 = load i64, i64* %930, align 8, !dbg !8269
  %932 = sub i64 %928, %931, !dbg !8269
  store i64 %932, i64* %299, align 8, !dbg !8269
  %933 = getelementptr inbounds %"class.altered_carbon::js::ACJsParser", %"class.altered_carbon::js::ACJsParser"* %305, i32 0, i32 3, !dbg !8269
  %934 = load i8*, i8** %933, align 8, !dbg !8269
  %935 = getelementptr inbounds %"class.altered_carbon::js::ACJsParser", %"class.altered_carbon::js::ACJsParser"* %305, i32 0, i32 13, !dbg !8269
  %936 = getelementptr inbounds %"struct.altered_carbon::js::ACLexPosition", %"struct.altered_carbon::js::ACLexPosition"* %935, i32 0, i32 1, !dbg !8269
  %937 = load i64, i64* %936, align 8, !dbg !8269
  %938 = getelementptr inbounds i8, i8* %934, i64 %937, !dbg !8269
  %939 = getelementptr inbounds %"class.altered_carbon::js::ACJsParser", %"class.altered_carbon::js::ACJsParser"* %305, i32 0, i32 11, !dbg !8269
  %940 = getelementptr inbounds %"struct.altered_carbon::js::ACLexPosition", %"struct.altered_carbon::js::ACLexPosition"* %939, i32 0, i32 1, !dbg !8269
  %941 = load i64, i64* %940, align 8, !dbg !8269
  %942 = getelementptr inbounds %"class.altered_carbon::js::ACJsParser", %"class.altered_carbon::js::ACJsParser"* %305, i32 0, i32 13, !dbg !8269
  %943 = getelementptr inbounds %"struct.altered_carbon::js::ACLexPosition", %"struct.altered_carbon::js::ACLexPosition"* %942, i32 0, i32 1, !dbg !8269
  %944 = load i64, i64* %943, align 8, !dbg !8269
  %945 = sub i64 %941, %944, !dbg !8269
  store %"class.std::__1::basic_string_view"* %300, %"class.std::__1::basic_string_view"** %112, align 8
  store i8* %938, i8** %113, align 8
  store i64 %945, i64* %114, align 8
  %946 = load %"class.std::__1::basic_string_view"*, %"class.std::__1::basic_string_view"** %112, align 8
  %947 = load i8*, i8** %113, align 8, !dbg !8270
  %948 = load i64, i64* %114, align 8, !dbg !8270
  store %"class.std::__1::basic_string_view"* %946, %"class.std::__1::basic_string_view"** %109, align 8
  store i8* %947, i8** %110, align 8
  store i64 %948, i64* %111, align 8
  %949 = load %"class.std::__1::basic_string_view"*, %"class.std::__1::basic_string_view"** %109, align 8
  %950 = getelementptr inbounds %"class.std::__1::basic_string_view", %"class.std::__1::basic_string_view"* %949, i32 0, i32 0, !dbg !8271
  %951 = load i8*, i8** %110, align 8, !dbg !8272
  store i8* %951, i8** %950, align 8, !dbg !8271
  %952 = getelementptr inbounds %"class.std::__1::basic_string_view", %"class.std::__1::basic_string_view"* %949, i32 0, i32 1, !dbg !8273
  %953 = load i64, i64* %111, align 8, !dbg !8274
  store i64 %953, i64* %952, align 8, !dbg !8273
  %954 = getelementptr inbounds %"class.altered_carbon::js::ACJsParser", %"class.altered_carbon::js::ACJsParser"* %305, i32 0, i32 13, !dbg !8269
  store i32 10, i32* %301, align 4, !dbg !8269
  call void @_ZN4llvm11make_uniqueIN14altered_carbon2js16ACLexNumberTokenEJmNSt3__117basic_string_viewIcNS4_11char_traitsIcEEEERNS2_13ACLexPositionERxNS3_10NumberBaseEEEENS4_9enable_ifIXntsr3std8is_arrayIT_EE5valueENS4_10unique_ptrISE_NS4_14default_deleteISE_EEEEE4typeEDpOT0_(%"class.std::__1::unique_ptr.26"* sret %298, i64* dereferenceable(8) %299, %"class.std::__1::basic_string_view"* dereferenceable(16) %300, %"struct.altered_carbon::js::ACLexPosition"* dereferenceable(32) %954, i64* dereferenceable(8) %280, i32* dereferenceable(4) %301), !dbg !8269
  store %"class.std::__1::unique_ptr"* %0, %"class.std::__1::unique_ptr"** %160, align 8
  store %"class.std::__1::unique_ptr.26"* %298, %"class.std::__1::unique_ptr.26"** %161, align 8
  %955 = load %"class.std::__1::unique_ptr"*, %"class.std::__1::unique_ptr"** %160, align 8
  %956 = load %"class.std::__1::unique_ptr.26"*, %"class.std::__1::unique_ptr.26"** %161, align 8, !dbg !8275
  store %"class.std::__1::unique_ptr"* %955, %"class.std::__1::unique_ptr"** %157, align 8
  store %"class.std::__1::unique_ptr.26"* %956, %"class.std::__1::unique_ptr.26"** %158, align 8
  %957 = load %"class.std::__1::unique_ptr"*, %"class.std::__1::unique_ptr"** %157, align 8
  %958 = getelementptr inbounds %"class.std::__1::unique_ptr", %"class.std::__1::unique_ptr"* %957, i32 0, i32 0, !dbg !8276
  %959 = load %"class.std::__1::unique_ptr.26"*, %"class.std::__1::unique_ptr.26"** %158, align 8, !dbg !8277
  store %"class.std::__1::unique_ptr.26"* %959, %"class.std::__1::unique_ptr.26"** %155, align 8
  %960 = load %"class.std::__1::unique_ptr.26"*, %"class.std::__1::unique_ptr.26"** %155, align 8
  %961 = getelementptr inbounds %"class.std::__1::unique_ptr.26", %"class.std::__1::unique_ptr.26"* %960, i32 0, i32 0, !dbg !8278
  store %"class.std::__1::__compressed_pair.27"* %961, %"class.std::__1::__compressed_pair.27"** %154, align 8
  %962 = load %"class.std::__1::__compressed_pair.27"*, %"class.std::__1::__compressed_pair.27"** %154, align 8
  %963 = bitcast %"class.std::__1::__compressed_pair.27"* %962 to %"struct.std::__1::__compressed_pair_elem.28"*, !dbg !8279
  store %"struct.std::__1::__compressed_pair_elem.28"* %963, %"struct.std::__1::__compressed_pair_elem.28"** %153, align 8
  %964 = load %"struct.std::__1::__compressed_pair_elem.28"*, %"struct.std::__1::__compressed_pair_elem.28"** %153, align 8
  %965 = getelementptr inbounds %"struct.std::__1::__compressed_pair_elem.28", %"struct.std::__1::__compressed_pair_elem.28"* %964, i32 0, i32 0, !dbg !8280
  %966 = load %"class.altered_carbon::js::ACLexNumberToken"*, %"class.altered_carbon::js::ACLexNumberToken"** %965, align 8, !dbg !8281
  store %"class.altered_carbon::js::ACLexNumberToken"* %966, %"class.altered_carbon::js::ACLexNumberToken"** %156, align 8, !dbg !7701
  %967 = getelementptr inbounds %"class.std::__1::unique_ptr.26", %"class.std::__1::unique_ptr.26"* %960, i32 0, i32 0, !dbg !8282
  store %"class.std::__1::__compressed_pair.27"* %967, %"class.std::__1::__compressed_pair.27"** %152, align 8
  %968 = load %"class.std::__1::__compressed_pair.27"*, %"class.std::__1::__compressed_pair.27"** %152, align 8
  %969 = bitcast %"class.std::__1::__compressed_pair.27"* %968 to %"struct.std::__1::__compressed_pair_elem.28"*, !dbg !8283
  store %"struct.std::__1::__compressed_pair_elem.28"* %969, %"struct.std::__1::__compressed_pair_elem.28"** %151, align 8
  %970 = load %"struct.std::__1::__compressed_pair_elem.28"*, %"struct.std::__1::__compressed_pair_elem.28"** %151, align 8
  %971 = getelementptr inbounds %"struct.std::__1::__compressed_pair_elem.28", %"struct.std::__1::__compressed_pair_elem.28"* %970, i32 0, i32 0, !dbg !8284
  store %"class.altered_carbon::js::ACLexNumberToken"* null, %"class.altered_carbon::js::ACLexNumberToken"** %971, align 8, !dbg !8285
  %972 = load %"class.altered_carbon::js::ACLexNumberToken"*, %"class.altered_carbon::js::ACLexNumberToken"** %156, align 8, !dbg !8286
  store %"class.altered_carbon::js::ACLexNumberToken"* %972, %"class.altered_carbon::js::ACLexNumberToken"** %159, align 8, !dbg !8277
  %973 = load %"class.std::__1::unique_ptr.26"*, %"class.std::__1::unique_ptr.26"** %158, align 8, !dbg !8287
  store %"class.std::__1::unique_ptr.26"* %973, %"class.std::__1::unique_ptr.26"** %132, align 8
  %974 = load %"class.std::__1::unique_ptr.26"*, %"class.std::__1::unique_ptr.26"** %132, align 8
  %975 = getelementptr inbounds %"class.std::__1::unique_ptr.26", %"class.std::__1::unique_ptr.26"* %974, i32 0, i32 0, !dbg !8288
  store %"class.std::__1::__compressed_pair.27"* %975, %"class.std::__1::__compressed_pair.27"** %131, align 8
  %976 = load %"class.std::__1::__compressed_pair.27"*, %"class.std::__1::__compressed_pair.27"** %131, align 8
  %977 = bitcast %"class.std::__1::__compressed_pair.27"* %976 to %"struct.std::__1::__compressed_pair_elem.30"*, !dbg !8289
  store %"struct.std::__1::__compressed_pair_elem.30"* %977, %"struct.std::__1::__compressed_pair_elem.30"** %130, align 8
  %978 = load %"struct.std::__1::__compressed_pair_elem.30"*, %"struct.std::__1::__compressed_pair_elem.30"** %130, align 8
  %979 = bitcast %"struct.std::__1::__compressed_pair_elem.30"* %978 to %"struct.std::__1::default_delete.31"*, !dbg !8290
  store %"struct.std::__1::default_delete.31"* %979, %"struct.std::__1::default_delete.31"** %133, align 8
  %980 = load %"struct.std::__1::default_delete.31"*, %"struct.std::__1::default_delete.31"** %133, align 8, !dbg !8291
  store %"class.std::__1::__compressed_pair.15"* %958, %"class.std::__1::__compressed_pair.15"** %148, align 8
  store %"class.altered_carbon::js::ACLexNumberToken"** %159, %"class.altered_carbon::js::ACLexNumberToken"*** %149, align 8
  store %"struct.std::__1::default_delete.31"* %980, %"struct.std::__1::default_delete.31"** %150, align 8
  %981 = load %"class.std::__1::__compressed_pair.15"*, %"class.std::__1::__compressed_pair.15"** %148, align 8
  %982 = load %"class.altered_carbon::js::ACLexNumberToken"**, %"class.altered_carbon::js::ACLexNumberToken"*** %149, align 8, !dbg !8292
  %983 = load %"struct.std::__1::default_delete.31"*, %"struct.std::__1::default_delete.31"** %150, align 8, !dbg !8292
  store %"class.std::__1::__compressed_pair.15"* %981, %"class.std::__1::__compressed_pair.15"** %145, align 8
  store %"class.altered_carbon::js::ACLexNumberToken"** %982, %"class.altered_carbon::js::ACLexNumberToken"*** %146, align 8
  store %"struct.std::__1::default_delete.31"* %983, %"struct.std::__1::default_delete.31"** %147, align 8
  %984 = load %"class.std::__1::__compressed_pair.15"*, %"class.std::__1::__compressed_pair.15"** %145, align 8
  %985 = bitcast %"class.std::__1::__compressed_pair.15"* %984 to %"struct.std::__1::__compressed_pair_elem.16"*, !dbg !8293
  %986 = load %"class.altered_carbon::js::ACLexNumberToken"**, %"class.altered_carbon::js::ACLexNumberToken"*** %146, align 8, !dbg !8294
  store %"class.altered_carbon::js::ACLexNumberToken"** %986, %"class.altered_carbon::js::ACLexNumberToken"*** %144, align 8
  %987 = load %"class.altered_carbon::js::ACLexNumberToken"**, %"class.altered_carbon::js::ACLexNumberToken"*** %144, align 8, !dbg !8295
  store %"struct.std::__1::__compressed_pair_elem.16"* %985, %"struct.std::__1::__compressed_pair_elem.16"** %135, align 8
  store %"class.altered_carbon::js::ACLexNumberToken"** %987, %"class.altered_carbon::js::ACLexNumberToken"*** %136, align 8
  %988 = load %"struct.std::__1::__compressed_pair_elem.16"*, %"struct.std::__1::__compressed_pair_elem.16"** %135, align 8
  %989 = getelementptr inbounds %"struct.std::__1::__compressed_pair_elem.16", %"struct.std::__1::__compressed_pair_elem.16"* %988, i32 0, i32 0, !dbg !8296
  %990 = load %"class.altered_carbon::js::ACLexNumberToken"**, %"class.altered_carbon::js::ACLexNumberToken"*** %136, align 8, !dbg !8297
  store %"class.altered_carbon::js::ACLexNumberToken"** %990, %"class.altered_carbon::js::ACLexNumberToken"*** %134, align 8
  %991 = load %"class.altered_carbon::js::ACLexNumberToken"**, %"class.altered_carbon::js::ACLexNumberToken"*** %134, align 8, !dbg !8298
  %992 = load %"class.altered_carbon::js::ACLexNumberToken"*, %"class.altered_carbon::js::ACLexNumberToken"** %991, align 8, !dbg !8299
  %993 = bitcast %"class.altered_carbon::js::ACLexNumberToken"* %992 to %"class.altered_carbon::js::ACLexToken"*, !dbg !8299
  store %"class.altered_carbon::js::ACLexToken"* %993, %"class.altered_carbon::js::ACLexToken"** %989, align 8, !dbg !8296
  %994 = bitcast %"class.std::__1::__compressed_pair.15"* %984 to %"struct.std::__1::__compressed_pair_elem.25"*, !dbg !8293
  %995 = load %"struct.std::__1::default_delete.31"*, %"struct.std::__1::default_delete.31"** %147, align 8, !dbg !8300
  store %"struct.std::__1::default_delete.31"* %995, %"struct.std::__1::default_delete.31"** %137, align 8
  %996 = load %"struct.std::__1::default_delete.31"*, %"struct.std::__1::default_delete.31"** %137, align 8, !dbg !8301
  store %"struct.std::__1::__compressed_pair_elem.25"* %994, %"struct.std::__1::__compressed_pair_elem.25"** %142, align 8
  store %"struct.std::__1::default_delete.31"* %996, %"struct.std::__1::default_delete.31"** %143, align 8
  %997 = load %"struct.std::__1::__compressed_pair_elem.25"*, %"struct.std::__1::__compressed_pair_elem.25"** %142, align 8
  %998 = bitcast %"struct.std::__1::__compressed_pair_elem.25"* %997 to %"struct.std::__1::default_delete"*, !dbg !8302
  %999 = load %"struct.std::__1::default_delete.31"*, %"struct.std::__1::default_delete.31"** %143, align 8, !dbg !8303
  store %"struct.std::__1::default_delete.31"* %999, %"struct.std::__1::default_delete.31"** %141, align 8
  %1000 = load %"struct.std::__1::default_delete.31"*, %"struct.std::__1::default_delete.31"** %141, align 8, !dbg !8304
  store %"struct.std::__1::default_delete"* %998, %"struct.std::__1::default_delete"** %138, align 8
  store %"struct.std::__1::default_delete.31"* %1000, %"struct.std::__1::default_delete.31"** %139, align 8
  store i8* null, i8** %140, align 8
  %1001 = load %"struct.std::__1::default_delete"*, %"struct.std::__1::default_delete"** %138, align 8
  store %"class.std::__1::unique_ptr.26"* %298, %"class.std::__1::unique_ptr.26"** %206, align 8
  %1002 = load %"class.std::__1::unique_ptr.26"*, %"class.std::__1::unique_ptr.26"** %206, align 8
  store %"class.std::__1::unique_ptr.26"* %1002, %"class.std::__1::unique_ptr.26"** %205, align 8
  %1003 = load %"class.std::__1::unique_ptr.26"*, %"class.std::__1::unique_ptr.26"** %205, align 8
  store %"class.std::__1::unique_ptr.26"* %1003, %"class.std::__1::unique_ptr.26"** %202, align 8
  store %"class.altered_carbon::js::ACLexNumberToken"* null, %"class.altered_carbon::js::ACLexNumberToken"** %203, align 8
  %1004 = load %"class.std::__1::unique_ptr.26"*, %"class.std::__1::unique_ptr.26"** %202, align 8
  %1005 = getelementptr inbounds %"class.std::__1::unique_ptr.26", %"class.std::__1::unique_ptr.26"* %1004, i32 0, i32 0, !dbg !8305
  store %"class.std::__1::__compressed_pair.27"* %1005, %"class.std::__1::__compressed_pair.27"** %201, align 8
  %1006 = load %"class.std::__1::__compressed_pair.27"*, %"class.std::__1::__compressed_pair.27"** %201, align 8
  %1007 = bitcast %"class.std::__1::__compressed_pair.27"* %1006 to %"struct.std::__1::__compressed_pair_elem.28"*, !dbg !8306
  store %"struct.std::__1::__compressed_pair_elem.28"* %1007, %"struct.std::__1::__compressed_pair_elem.28"** %200, align 8
  %1008 = load %"struct.std::__1::__compressed_pair_elem.28"*, %"struct.std::__1::__compressed_pair_elem.28"** %200, align 8
  %1009 = getelementptr inbounds %"struct.std::__1::__compressed_pair_elem.28", %"struct.std::__1::__compressed_pair_elem.28"* %1008, i32 0, i32 0, !dbg !8307
  %1010 = load %"class.altered_carbon::js::ACLexNumberToken"*, %"class.altered_carbon::js::ACLexNumberToken"** %1009, align 8, !dbg !8308
  store %"class.altered_carbon::js::ACLexNumberToken"* %1010, %"class.altered_carbon::js::ACLexNumberToken"** %204, align 8, !dbg !7777
  %1011 = load %"class.altered_carbon::js::ACLexNumberToken"*, %"class.altered_carbon::js::ACLexNumberToken"** %203, align 8, !dbg !8309
  %1012 = getelementptr inbounds %"class.std::__1::unique_ptr.26", %"class.std::__1::unique_ptr.26"* %1004, i32 0, i32 0, !dbg !8310
  store %"class.std::__1::__compressed_pair.27"* %1012, %"class.std::__1::__compressed_pair.27"** %197, align 8
  %1013 = load %"class.std::__1::__compressed_pair.27"*, %"class.std::__1::__compressed_pair.27"** %197, align 8
  %1014 = bitcast %"class.std::__1::__compressed_pair.27"* %1013 to %"struct.std::__1::__compressed_pair_elem.28"*, !dbg !8311
  store %"struct.std::__1::__compressed_pair_elem.28"* %1014, %"struct.std::__1::__compressed_pair_elem.28"** %196, align 8
  %1015 = load %"struct.std::__1::__compressed_pair_elem.28"*, %"struct.std::__1::__compressed_pair_elem.28"** %196, align 8
  %1016 = getelementptr inbounds %"struct.std::__1::__compressed_pair_elem.28", %"struct.std::__1::__compressed_pair_elem.28"* %1015, i32 0, i32 0, !dbg !8312
  store %"class.altered_carbon::js::ACLexNumberToken"* %1011, %"class.altered_carbon::js::ACLexNumberToken"** %1016, align 8, !dbg !8313
  %1017 = load %"class.altered_carbon::js::ACLexNumberToken"*, %"class.altered_carbon::js::ACLexNumberToken"** %204, align 8, !dbg !8314
  %1018 = icmp ne %"class.altered_carbon::js::ACLexNumberToken"* %1017, null, !dbg !8314
  br i1 %1018, label %1019, label %1035, !dbg !8315

; <label>:1019:                                   ; preds = %925
  %1020 = getelementptr inbounds %"class.std::__1::unique_ptr.26", %"class.std::__1::unique_ptr.26"* %1004, i32 0, i32 0, !dbg !8316
  store %"class.std::__1::__compressed_pair.27"* %1020, %"class.std::__1::__compressed_pair.27"** %195, align 8
  %1021 = load %"class.std::__1::__compressed_pair.27"*, %"class.std::__1::__compressed_pair.27"** %195, align 8
  %1022 = bitcast %"class.std::__1::__compressed_pair.27"* %1021 to %"struct.std::__1::__compressed_pair_elem.30"*, !dbg !8317
  store %"struct.std::__1::__compressed_pair_elem.30"* %1022, %"struct.std::__1::__compressed_pair_elem.30"** %194, align 8
  %1023 = load %"struct.std::__1::__compressed_pair_elem.30"*, %"struct.std::__1::__compressed_pair_elem.30"** %194, align 8
  %1024 = bitcast %"struct.std::__1::__compressed_pair_elem.30"* %1023 to %"struct.std::__1::default_delete.31"*, !dbg !8318
  %1025 = load %"class.altered_carbon::js::ACLexNumberToken"*, %"class.altered_carbon::js::ACLexNumberToken"** %204, align 8, !dbg !8319
  store %"struct.std::__1::default_delete.31"* %1024, %"struct.std::__1::default_delete.31"** %198, align 8
  store %"class.altered_carbon::js::ACLexNumberToken"* %1025, %"class.altered_carbon::js::ACLexNumberToken"** %199, align 8
  %1026 = load %"struct.std::__1::default_delete.31"*, %"struct.std::__1::default_delete.31"** %198, align 8
  %1027 = load %"class.altered_carbon::js::ACLexNumberToken"*, %"class.altered_carbon::js::ACLexNumberToken"** %199, align 8, !dbg !8320
  %1028 = icmp eq %"class.altered_carbon::js::ACLexNumberToken"* %1027, null, !dbg !8321
  br i1 %1028, label %1034, label %1029, !dbg !8321

; <label>:1029:                                   ; preds = %1019
  %1030 = bitcast %"class.altered_carbon::js::ACLexNumberToken"* %1027 to void (%"class.altered_carbon::js::ACLexNumberToken"*)***, !dbg !8321
  %1031 = load void (%"class.altered_carbon::js::ACLexNumberToken"*)**, void (%"class.altered_carbon::js::ACLexNumberToken"*)*** %1030, align 8, !dbg !8321
  %1032 = getelementptr inbounds void (%"class.altered_carbon::js::ACLexNumberToken"*)*, void (%"class.altered_carbon::js::ACLexNumberToken"*)** %1031, i64 2, !dbg !8321
  %1033 = load void (%"class.altered_carbon::js::ACLexNumberToken"*)*, void (%"class.altered_carbon::js::ACLexNumberToken"*)** %1032, align 8, !dbg !8321
  call void %1033(%"class.altered_carbon::js::ACLexNumberToken"* %1027) #2, !dbg !8321
  br label %1034, !dbg !8321

; <label>:1034:                                   ; preds = %1029, %1019
  br label %1035, !dbg !8316

; <label>:1035:                                   ; preds = %925, %1034
  store i32 1, i32* %289, align 4
  br label %1283, !dbg !8322

; <label>:1036:                                   ; preds = %922, %919, %916, %913
  %1037 = load i32, i32* %282, align 4, !dbg !8323
  %1038 = icmp eq i32 %1037, 46, !dbg !8325
  br i1 %1038, label %1039, label %1086, !dbg !8326

; <label>:1039:                                   ; preds = %1036
  br label %1040, !dbg !8327, !llvm.loop !8329

; <label>:1040:                                   ; preds = %1039
  %1041 = getelementptr inbounds %"class.altered_carbon::js::ACJsParser", %"class.altered_carbon::js::ACJsParser"* %305, i32 0, i32 8, !dbg !8330
  %1042 = load i32, i32* %1041, align 4, !dbg !8330
  %1043 = getelementptr inbounds %"class.altered_carbon::js::ACJsParser", %"class.altered_carbon::js::ACJsParser"* %305, i32 0, i32 9, !dbg !8330
  store i32 %1042, i32* %1043, align 8, !dbg !8330
  %1044 = getelementptr inbounds %"class.altered_carbon::js::ACJsParser", %"class.altered_carbon::js::ACJsParser"* %305, i32 0, i32 8, !dbg !8330
  %1045 = load i32, i32* %1044, align 4, !dbg !8330
  %1046 = sext i32 %1045 to i64, !dbg !8330
  %1047 = getelementptr inbounds %"class.altered_carbon::js::ACJsParser", %"class.altered_carbon::js::ACJsParser"* %305, i32 0, i32 11, !dbg !8330
  %1048 = getelementptr inbounds %"struct.altered_carbon::js::ACLexPosition", %"struct.altered_carbon::js::ACLexPosition"* %1047, i32 0, i32 1, !dbg !8330
  %1049 = load i64, i64* %1048, align 8, !dbg !8330
  %1050 = add i64 %1049, %1046, !dbg !8330
  store i64 %1050, i64* %1048, align 8, !dbg !8330
  %1051 = getelementptr inbounds %"class.altered_carbon::js::ACJsParser", %"class.altered_carbon::js::ACJsParser"* %305, i32 0, i32 8, !dbg !8330
  store i32 0, i32* %1051, align 4, !dbg !8330
  br label %1052, !dbg !8330

; <label>:1052:                                   ; preds = %1040
  br label %1053, !dbg !8330

; <label>:1053:                                   ; preds = %1052
  %1054 = load i32, i32* %282, align 4, !dbg !8332
  %1055 = trunc i32 %1054 to i8, !dbg !8332
  %1056 = call dereferenceable(24) %"class.std::__1::basic_string"* @_ZNSt3__112basic_stringIcNS_11char_traitsIcEENS_9allocatorIcEEE6appendEmc(%"class.std::__1::basic_string"* %279, i64 1, i8 signext %1055), !dbg !8333
  %1057 = call signext i32 @_ZN14altered_carbon2js10ACJsParser6nextChEib(%"class.altered_carbon::js::ACJsParser"* %305, i32 0, i1 zeroext true), !dbg !8334
  store i32 %1057, i32* %282, align 4, !dbg !8335
  br label %1058, !dbg !8336

; <label>:1058:                                   ; preds = %1080, %1053
  %1059 = load i32, i32* %282, align 4, !dbg !8336
  %1060 = icmp sge i32 %1059, 48, !dbg !8336
  br i1 %1060, label %1061, label %1064, !dbg !8336

; <label>:1061:                                   ; preds = %1058
  %1062 = load i32, i32* %282, align 4, !dbg !8336
  %1063 = icmp sle i32 %1062, 57, !dbg !8336
  br label %1064

; <label>:1064:                                   ; preds = %1061, %1058
  %1065 = phi i1 [ false, %1058 ], [ %1063, %1061 ]
  br i1 %1065, label %1066, label %1085, !dbg !8336

; <label>:1066:                                   ; preds = %1064
  br label %1067, !dbg !8337, !llvm.loop !8339

; <label>:1067:                                   ; preds = %1066
  %1068 = getelementptr inbounds %"class.altered_carbon::js::ACJsParser", %"class.altered_carbon::js::ACJsParser"* %305, i32 0, i32 8, !dbg !8340
  %1069 = load i32, i32* %1068, align 4, !dbg !8340
  %1070 = getelementptr inbounds %"class.altered_carbon::js::ACJsParser", %"class.altered_carbon::js::ACJsParser"* %305, i32 0, i32 9, !dbg !8340
  store i32 %1069, i32* %1070, align 8, !dbg !8340
  %1071 = getelementptr inbounds %"class.altered_carbon::js::ACJsParser", %"class.altered_carbon::js::ACJsParser"* %305, i32 0, i32 8, !dbg !8340
  %1072 = load i32, i32* %1071, align 4, !dbg !8340
  %1073 = sext i32 %1072 to i64, !dbg !8340
  %1074 = getelementptr inbounds %"class.altered_carbon::js::ACJsParser", %"class.altered_carbon::js::ACJsParser"* %305, i32 0, i32 11, !dbg !8340
  %1075 = getelementptr inbounds %"struct.altered_carbon::js::ACLexPosition", %"struct.altered_carbon::js::ACLexPosition"* %1074, i32 0, i32 1, !dbg !8340
  %1076 = load i64, i64* %1075, align 8, !dbg !8340
  %1077 = add i64 %1076, %1073, !dbg !8340
  store i64 %1077, i64* %1075, align 8, !dbg !8340
  %1078 = getelementptr inbounds %"class.altered_carbon::js::ACJsParser", %"class.altered_carbon::js::ACJsParser"* %305, i32 0, i32 8, !dbg !8340
  store i32 0, i32* %1078, align 4, !dbg !8340
  br label %1079, !dbg !8340

; <label>:1079:                                   ; preds = %1067
  br label %1080, !dbg !8340

; <label>:1080:                                   ; preds = %1079
  %1081 = load i32, i32* %282, align 4, !dbg !8337
  %1082 = trunc i32 %1081 to i8, !dbg !8337
  %1083 = call dereferenceable(24) %"class.std::__1::basic_string"* @_ZNSt3__112basic_stringIcNS_11char_traitsIcEENS_9allocatorIcEEE6appendEmc(%"class.std::__1::basic_string"* %279, i64 1, i8 signext %1082), !dbg !8337
  %1084 = call signext i32 @_ZN14altered_carbon2js10ACJsParser6nextChEib(%"class.altered_carbon::js::ACJsParser"* %305, i32 0, i1 zeroext true), !dbg !8337
  store i32 %1084, i32* %282, align 4, !dbg !8337
  br label %1058, !dbg !8336, !llvm.loop !8342

; <label>:1085:                                   ; preds = %1064
  br label %1086, !dbg !8343

; <label>:1086:                                   ; preds = %1085, %1036
  %1087 = load i32, i32* %282, align 4, !dbg !8344
  %1088 = icmp eq i32 %1087, 101, !dbg !8346
  br i1 %1088, label %1092, label %1089, !dbg !8347

; <label>:1089:                                   ; preds = %1086
  %1090 = load i32, i32* %282, align 4, !dbg !8348
  %1091 = icmp eq i32 %1090, 69, !dbg !8349
  br i1 %1091, label %1092, label %1170, !dbg !8350

; <label>:1092:                                   ; preds = %1089, %1086
  %1093 = load i32, i32* %282, align 4, !dbg !8351
  %1094 = trunc i32 %1093 to i8, !dbg !8351
  %1095 = call dereferenceable(24) %"class.std::__1::basic_string"* @_ZNSt3__112basic_stringIcNS_11char_traitsIcEENS_9allocatorIcEEE6appendEmc(%"class.std::__1::basic_string"* %279, i64 1, i8 signext %1094), !dbg !8353
  br label %1096, !dbg !8354, !llvm.loop !8355

; <label>:1096:                                   ; preds = %1092
  br label %1097, !dbg !8356, !llvm.loop !8358

; <label>:1097:                                   ; preds = %1096
  %1098 = getelementptr inbounds %"class.altered_carbon::js::ACJsParser", %"class.altered_carbon::js::ACJsParser"* %305, i32 0, i32 8, !dbg !8359
  %1099 = load i32, i32* %1098, align 4, !dbg !8359
  %1100 = getelementptr inbounds %"class.altered_carbon::js::ACJsParser", %"class.altered_carbon::js::ACJsParser"* %305, i32 0, i32 9, !dbg !8359
  store i32 %1099, i32* %1100, align 8, !dbg !8359
  %1101 = getelementptr inbounds %"class.altered_carbon::js::ACJsParser", %"class.altered_carbon::js::ACJsParser"* %305, i32 0, i32 8, !dbg !8359
  %1102 = load i32, i32* %1101, align 4, !dbg !8359
  %1103 = sext i32 %1102 to i64, !dbg !8359
  %1104 = getelementptr inbounds %"class.altered_carbon::js::ACJsParser", %"class.altered_carbon::js::ACJsParser"* %305, i32 0, i32 11, !dbg !8359
  %1105 = getelementptr inbounds %"struct.altered_carbon::js::ACLexPosition", %"struct.altered_carbon::js::ACLexPosition"* %1104, i32 0, i32 1, !dbg !8359
  %1106 = load i64, i64* %1105, align 8, !dbg !8359
  %1107 = add i64 %1106, %1103, !dbg !8359
  store i64 %1107, i64* %1105, align 8, !dbg !8359
  %1108 = getelementptr inbounds %"class.altered_carbon::js::ACJsParser", %"class.altered_carbon::js::ACJsParser"* %305, i32 0, i32 8, !dbg !8359
  store i32 0, i32* %1108, align 4, !dbg !8359
  br label %1109, !dbg !8359

; <label>:1109:                                   ; preds = %1097
  br label %1110, !dbg !8359

; <label>:1110:                                   ; preds = %1109
  %1111 = call signext i32 @_ZN14altered_carbon2js10ACJsParser6nextChEib(%"class.altered_carbon::js::ACJsParser"* %305, i32 0, i1 zeroext true), !dbg !8356
  store i32 %1111, i32* %282, align 4, !dbg !8356
  br label %1112, !dbg !8356

; <label>:1112:                                   ; preds = %1110
  br label %1113, !dbg !8356

; <label>:1113:                                   ; preds = %1112
  %1114 = load i32, i32* %282, align 4, !dbg !8361
  %1115 = icmp eq i32 %1114, 45, !dbg !8363
  br i1 %1115, label %1119, label %1116, !dbg !8364

; <label>:1116:                                   ; preds = %1113
  %1117 = load i32, i32* %282, align 4, !dbg !8365
  %1118 = icmp eq i32 %1117, 43, !dbg !8366
  br i1 %1118, label %1119, label %1141, !dbg !8367

; <label>:1119:                                   ; preds = %1116, %1113
  %1120 = load i32, i32* %282, align 4, !dbg !8368
  %1121 = trunc i32 %1120 to i8, !dbg !8368
  %1122 = call dereferenceable(24) %"class.std::__1::basic_string"* @_ZNSt3__112basic_stringIcNS_11char_traitsIcEENS_9allocatorIcEEE6appendEmc(%"class.std::__1::basic_string"* %279, i64 1, i8 signext %1121), !dbg !8370
  br label %1123, !dbg !8371, !llvm.loop !8372

; <label>:1123:                                   ; preds = %1119
  br label %1124, !dbg !8373, !llvm.loop !8375

; <label>:1124:                                   ; preds = %1123
  %1125 = getelementptr inbounds %"class.altered_carbon::js::ACJsParser", %"class.altered_carbon::js::ACJsParser"* %305, i32 0, i32 8, !dbg !8376
  %1126 = load i32, i32* %1125, align 4, !dbg !8376
  %1127 = getelementptr inbounds %"class.altered_carbon::js::ACJsParser", %"class.altered_carbon::js::ACJsParser"* %305, i32 0, i32 9, !dbg !8376
  store i32 %1126, i32* %1127, align 8, !dbg !8376
  %1128 = getelementptr inbounds %"class.altered_carbon::js::ACJsParser", %"class.altered_carbon::js::ACJsParser"* %305, i32 0, i32 8, !dbg !8376
  %1129 = load i32, i32* %1128, align 4, !dbg !8376
  %1130 = sext i32 %1129 to i64, !dbg !8376
  %1131 = getelementptr inbounds %"class.altered_carbon::js::ACJsParser", %"class.altered_carbon::js::ACJsParser"* %305, i32 0, i32 11, !dbg !8376
  %1132 = getelementptr inbounds %"struct.altered_carbon::js::ACLexPosition", %"struct.altered_carbon::js::ACLexPosition"* %1131, i32 0, i32 1, !dbg !8376
  %1133 = load i64, i64* %1132, align 8, !dbg !8376
  %1134 = add i64 %1133, %1130, !dbg !8376
  store i64 %1134, i64* %1132, align 8, !dbg !8376
  %1135 = getelementptr inbounds %"class.altered_carbon::js::ACJsParser", %"class.altered_carbon::js::ACJsParser"* %305, i32 0, i32 8, !dbg !8376
  store i32 0, i32* %1135, align 4, !dbg !8376
  br label %1136, !dbg !8376

; <label>:1136:                                   ; preds = %1124
  br label %1137, !dbg !8376

; <label>:1137:                                   ; preds = %1136
  %1138 = call signext i32 @_ZN14altered_carbon2js10ACJsParser6nextChEib(%"class.altered_carbon::js::ACJsParser"* %305, i32 0, i1 zeroext true), !dbg !8373
  store i32 %1138, i32* %282, align 4, !dbg !8373
  br label %1139, !dbg !8373

; <label>:1139:                                   ; preds = %1137
  br label %1140, !dbg !8373

; <label>:1140:                                   ; preds = %1139
  br label %1141, !dbg !8378

; <label>:1141:                                   ; preds = %1140, %1116
  br label %1142, !dbg !8379

; <label>:1142:                                   ; preds = %1164, %1141
  %1143 = load i32, i32* %282, align 4, !dbg !8379
  %1144 = icmp sge i32 %1143, 48, !dbg !8379
  br i1 %1144, label %1145, label %1148, !dbg !8379

; <label>:1145:                                   ; preds = %1142
  %1146 = load i32, i32* %282, align 4, !dbg !8379
  %1147 = icmp sle i32 %1146, 57, !dbg !8379
  br label %1148

; <label>:1148:                                   ; preds = %1145, %1142
  %1149 = phi i1 [ false, %1142 ], [ %1147, %1145 ]
  br i1 %1149, label %1150, label %1169, !dbg !8379

; <label>:1150:                                   ; preds = %1148
  br label %1151, !dbg !8380, !llvm.loop !8382

; <label>:1151:                                   ; preds = %1150
  %1152 = getelementptr inbounds %"class.altered_carbon::js::ACJsParser", %"class.altered_carbon::js::ACJsParser"* %305, i32 0, i32 8, !dbg !8383
  %1153 = load i32, i32* %1152, align 4, !dbg !8383
  %1154 = getelementptr inbounds %"class.altered_carbon::js::ACJsParser", %"class.altered_carbon::js::ACJsParser"* %305, i32 0, i32 9, !dbg !8383
  store i32 %1153, i32* %1154, align 8, !dbg !8383
  %1155 = getelementptr inbounds %"class.altered_carbon::js::ACJsParser", %"class.altered_carbon::js::ACJsParser"* %305, i32 0, i32 8, !dbg !8383
  %1156 = load i32, i32* %1155, align 4, !dbg !8383
  %1157 = sext i32 %1156 to i64, !dbg !8383
  %1158 = getelementptr inbounds %"class.altered_carbon::js::ACJsParser", %"class.altered_carbon::js::ACJsParser"* %305, i32 0, i32 11, !dbg !8383
  %1159 = getelementptr inbounds %"struct.altered_carbon::js::ACLexPosition", %"struct.altered_carbon::js::ACLexPosition"* %1158, i32 0, i32 1, !dbg !8383
  %1160 = load i64, i64* %1159, align 8, !dbg !8383
  %1161 = add i64 %1160, %1157, !dbg !8383
  store i64 %1161, i64* %1159, align 8, !dbg !8383
  %1162 = getelementptr inbounds %"class.altered_carbon::js::ACJsParser", %"class.altered_carbon::js::ACJsParser"* %305, i32 0, i32 8, !dbg !8383
  store i32 0, i32* %1162, align 4, !dbg !8383
  br label %1163, !dbg !8383

; <label>:1163:                                   ; preds = %1151
  br label %1164, !dbg !8383

; <label>:1164:                                   ; preds = %1163
  %1165 = load i32, i32* %282, align 4, !dbg !8380
  %1166 = trunc i32 %1165 to i8, !dbg !8380
  %1167 = call dereferenceable(24) %"class.std::__1::basic_string"* @_ZNSt3__112basic_stringIcNS_11char_traitsIcEENS_9allocatorIcEEE6appendEmc(%"class.std::__1::basic_string"* %279, i64 1, i8 signext %1166), !dbg !8380
  %1168 = call signext i32 @_ZN14altered_carbon2js10ACJsParser6nextChEib(%"class.altered_carbon::js::ACJsParser"* %305, i32 0, i1 zeroext true), !dbg !8380
  store i32 %1168, i32* %282, align 4, !dbg !8380
  br label %1142, !dbg !8379, !llvm.loop !8385

; <label>:1169:                                   ; preds = %1148
  br label %1170, !dbg !8386

; <label>:1170:                                   ; preds = %1169, %1089
  %1171 = call x86_fp80 @_ZNSt3__15stoldERKNS_12basic_stringIcNS_11char_traitsIcEENS_9allocatorIcEEEEPm(%"class.std::__1::basic_string"* dereferenceable(24) %279, i64* null), !dbg !8387
  %1172 = fptrunc x86_fp80 %1171 to double, !dbg !8387
  store double %1172, double* %281, align 8, !dbg !8388
  %1173 = getelementptr inbounds %"class.altered_carbon::js::ACJsParser", %"class.altered_carbon::js::ACJsParser"* %305, i32 0, i32 11, !dbg !8389
  %1174 = getelementptr inbounds %"struct.altered_carbon::js::ACLexPosition", %"struct.altered_carbon::js::ACLexPosition"* %1173, i32 0, i32 1, !dbg !8389
  %1175 = load i64, i64* %1174, align 8, !dbg !8389
  %1176 = getelementptr inbounds %"class.altered_carbon::js::ACJsParser", %"class.altered_carbon::js::ACJsParser"* %305, i32 0, i32 13, !dbg !8389
  %1177 = getelementptr inbounds %"struct.altered_carbon::js::ACLexPosition", %"struct.altered_carbon::js::ACLexPosition"* %1176, i32 0, i32 1, !dbg !8389
  %1178 = load i64, i64* %1177, align 8, !dbg !8389
  %1179 = sub i64 %1175, %1178, !dbg !8389
  store i64 %1179, i64* %303, align 8, !dbg !8389
  %1180 = getelementptr inbounds %"class.altered_carbon::js::ACJsParser", %"class.altered_carbon::js::ACJsParser"* %305, i32 0, i32 3, !dbg !8389
  %1181 = load i8*, i8** %1180, align 8, !dbg !8389
  %1182 = getelementptr inbounds %"class.altered_carbon::js::ACJsParser", %"class.altered_carbon::js::ACJsParser"* %305, i32 0, i32 13, !dbg !8389
  %1183 = getelementptr inbounds %"struct.altered_carbon::js::ACLexPosition", %"struct.altered_carbon::js::ACLexPosition"* %1182, i32 0, i32 1, !dbg !8389
  %1184 = load i64, i64* %1183, align 8, !dbg !8389
  %1185 = getelementptr inbounds i8, i8* %1181, i64 %1184, !dbg !8389
  %1186 = getelementptr inbounds %"class.altered_carbon::js::ACJsParser", %"class.altered_carbon::js::ACJsParser"* %305, i32 0, i32 11, !dbg !8389
  %1187 = getelementptr inbounds %"struct.altered_carbon::js::ACLexPosition", %"struct.altered_carbon::js::ACLexPosition"* %1186, i32 0, i32 1, !dbg !8389
  %1188 = load i64, i64* %1187, align 8, !dbg !8389
  %1189 = getelementptr inbounds %"class.altered_carbon::js::ACJsParser", %"class.altered_carbon::js::ACJsParser"* %305, i32 0, i32 13, !dbg !8389
  %1190 = getelementptr inbounds %"struct.altered_carbon::js::ACLexPosition", %"struct.altered_carbon::js::ACLexPosition"* %1189, i32 0, i32 1, !dbg !8389
  %1191 = load i64, i64* %1190, align 8, !dbg !8389
  %1192 = sub i64 %1188, %1191, !dbg !8389
  store %"class.std::__1::basic_string_view"* %304, %"class.std::__1::basic_string_view"** %210, align 8
  store i8* %1185, i8** %211, align 8
  store i64 %1192, i64* %212, align 8
  %1193 = load %"class.std::__1::basic_string_view"*, %"class.std::__1::basic_string_view"** %210, align 8
  %1194 = load i8*, i8** %211, align 8, !dbg !8390
  %1195 = load i64, i64* %212, align 8, !dbg !8390
  store %"class.std::__1::basic_string_view"* %1193, %"class.std::__1::basic_string_view"** %207, align 8
  store i8* %1194, i8** %208, align 8
  store i64 %1195, i64* %209, align 8
  %1196 = load %"class.std::__1::basic_string_view"*, %"class.std::__1::basic_string_view"** %207, align 8
  %1197 = getelementptr inbounds %"class.std::__1::basic_string_view", %"class.std::__1::basic_string_view"* %1196, i32 0, i32 0, !dbg !8391
  %1198 = load i8*, i8** %208, align 8, !dbg !8392
  store i8* %1198, i8** %1197, align 8, !dbg !8391
  %1199 = getelementptr inbounds %"class.std::__1::basic_string_view", %"class.std::__1::basic_string_view"* %1196, i32 0, i32 1, !dbg !8393
  %1200 = load i64, i64* %209, align 8, !dbg !8394
  store i64 %1200, i64* %1199, align 8, !dbg !8393
  %1201 = getelementptr inbounds %"class.altered_carbon::js::ACJsParser", %"class.altered_carbon::js::ACJsParser"* %305, i32 0, i32 13, !dbg !8389
  call void @_ZN4llvm11make_uniqueIN14altered_carbon2js16ACLexNumberTokenEJmNSt3__117basic_string_viewIcNS4_11char_traitsIcEEEERNS2_13ACLexPositionERdEEENS4_9enable_ifIXntsr3std8is_arrayIT_EE5valueENS4_10unique_ptrISD_NS4_14default_deleteISD_EEEEE4typeEDpOT0_(%"class.std::__1::unique_ptr.26"* sret %302, i64* dereferenceable(8) %303, %"class.std::__1::basic_string_view"* dereferenceable(16) %304, %"struct.altered_carbon::js::ACLexPosition"* dereferenceable(32) %1201, double* dereferenceable(8) %281), !dbg !8389
  store %"class.std::__1::unique_ptr"* %0, %"class.std::__1::unique_ptr"** %249, align 8
  store %"class.std::__1::unique_ptr.26"* %302, %"class.std::__1::unique_ptr.26"** %250, align 8
  %1202 = load %"class.std::__1::unique_ptr"*, %"class.std::__1::unique_ptr"** %249, align 8
  %1203 = load %"class.std::__1::unique_ptr.26"*, %"class.std::__1::unique_ptr.26"** %250, align 8, !dbg !8395
  store %"class.std::__1::unique_ptr"* %1202, %"class.std::__1::unique_ptr"** %246, align 8
  store %"class.std::__1::unique_ptr.26"* %1203, %"class.std::__1::unique_ptr.26"** %247, align 8
  %1204 = load %"class.std::__1::unique_ptr"*, %"class.std::__1::unique_ptr"** %246, align 8
  %1205 = getelementptr inbounds %"class.std::__1::unique_ptr", %"class.std::__1::unique_ptr"* %1204, i32 0, i32 0, !dbg !8396
  %1206 = load %"class.std::__1::unique_ptr.26"*, %"class.std::__1::unique_ptr.26"** %247, align 8, !dbg !8397
  store %"class.std::__1::unique_ptr.26"* %1206, %"class.std::__1::unique_ptr.26"** %244, align 8
  %1207 = load %"class.std::__1::unique_ptr.26"*, %"class.std::__1::unique_ptr.26"** %244, align 8
  %1208 = getelementptr inbounds %"class.std::__1::unique_ptr.26", %"class.std::__1::unique_ptr.26"* %1207, i32 0, i32 0, !dbg !8398
  store %"class.std::__1::__compressed_pair.27"* %1208, %"class.std::__1::__compressed_pair.27"** %243, align 8
  %1209 = load %"class.std::__1::__compressed_pair.27"*, %"class.std::__1::__compressed_pair.27"** %243, align 8
  %1210 = bitcast %"class.std::__1::__compressed_pair.27"* %1209 to %"struct.std::__1::__compressed_pair_elem.28"*, !dbg !8399
  store %"struct.std::__1::__compressed_pair_elem.28"* %1210, %"struct.std::__1::__compressed_pair_elem.28"** %242, align 8
  %1211 = load %"struct.std::__1::__compressed_pair_elem.28"*, %"struct.std::__1::__compressed_pair_elem.28"** %242, align 8
  %1212 = getelementptr inbounds %"struct.std::__1::__compressed_pair_elem.28", %"struct.std::__1::__compressed_pair_elem.28"* %1211, i32 0, i32 0, !dbg !8400
  %1213 = load %"class.altered_carbon::js::ACLexNumberToken"*, %"class.altered_carbon::js::ACLexNumberToken"** %1212, align 8, !dbg !8401
  store %"class.altered_carbon::js::ACLexNumberToken"* %1213, %"class.altered_carbon::js::ACLexNumberToken"** %245, align 8, !dbg !7842
  %1214 = getelementptr inbounds %"class.std::__1::unique_ptr.26", %"class.std::__1::unique_ptr.26"* %1207, i32 0, i32 0, !dbg !8402
  store %"class.std::__1::__compressed_pair.27"* %1214, %"class.std::__1::__compressed_pair.27"** %241, align 8
  %1215 = load %"class.std::__1::__compressed_pair.27"*, %"class.std::__1::__compressed_pair.27"** %241, align 8
  %1216 = bitcast %"class.std::__1::__compressed_pair.27"* %1215 to %"struct.std::__1::__compressed_pair_elem.28"*, !dbg !8403
  store %"struct.std::__1::__compressed_pair_elem.28"* %1216, %"struct.std::__1::__compressed_pair_elem.28"** %240, align 8
  %1217 = load %"struct.std::__1::__compressed_pair_elem.28"*, %"struct.std::__1::__compressed_pair_elem.28"** %240, align 8
  %1218 = getelementptr inbounds %"struct.std::__1::__compressed_pair_elem.28", %"struct.std::__1::__compressed_pair_elem.28"* %1217, i32 0, i32 0, !dbg !8404
  store %"class.altered_carbon::js::ACLexNumberToken"* null, %"class.altered_carbon::js::ACLexNumberToken"** %1218, align 8, !dbg !8405
  %1219 = load %"class.altered_carbon::js::ACLexNumberToken"*, %"class.altered_carbon::js::ACLexNumberToken"** %245, align 8, !dbg !8406
  store %"class.altered_carbon::js::ACLexNumberToken"* %1219, %"class.altered_carbon::js::ACLexNumberToken"** %248, align 8, !dbg !8397
  %1220 = load %"class.std::__1::unique_ptr.26"*, %"class.std::__1::unique_ptr.26"** %247, align 8, !dbg !8407
  store %"class.std::__1::unique_ptr.26"* %1220, %"class.std::__1::unique_ptr.26"** %221, align 8
  %1221 = load %"class.std::__1::unique_ptr.26"*, %"class.std::__1::unique_ptr.26"** %221, align 8
  %1222 = getelementptr inbounds %"class.std::__1::unique_ptr.26", %"class.std::__1::unique_ptr.26"* %1221, i32 0, i32 0, !dbg !8408
  store %"class.std::__1::__compressed_pair.27"* %1222, %"class.std::__1::__compressed_pair.27"** %220, align 8
  %1223 = load %"class.std::__1::__compressed_pair.27"*, %"class.std::__1::__compressed_pair.27"** %220, align 8
  %1224 = bitcast %"class.std::__1::__compressed_pair.27"* %1223 to %"struct.std::__1::__compressed_pair_elem.30"*, !dbg !8409
  store %"struct.std::__1::__compressed_pair_elem.30"* %1224, %"struct.std::__1::__compressed_pair_elem.30"** %219, align 8
  %1225 = load %"struct.std::__1::__compressed_pair_elem.30"*, %"struct.std::__1::__compressed_pair_elem.30"** %219, align 8
  %1226 = bitcast %"struct.std::__1::__compressed_pair_elem.30"* %1225 to %"struct.std::__1::default_delete.31"*, !dbg !8410
  store %"struct.std::__1::default_delete.31"* %1226, %"struct.std::__1::default_delete.31"** %222, align 8
  %1227 = load %"struct.std::__1::default_delete.31"*, %"struct.std::__1::default_delete.31"** %222, align 8, !dbg !8411
  store %"class.std::__1::__compressed_pair.15"* %1205, %"class.std::__1::__compressed_pair.15"** %237, align 8
  store %"class.altered_carbon::js::ACLexNumberToken"** %248, %"class.altered_carbon::js::ACLexNumberToken"*** %238, align 8
  store %"struct.std::__1::default_delete.31"* %1227, %"struct.std::__1::default_delete.31"** %239, align 8
  %1228 = load %"class.std::__1::__compressed_pair.15"*, %"class.std::__1::__compressed_pair.15"** %237, align 8
  %1229 = load %"class.altered_carbon::js::ACLexNumberToken"**, %"class.altered_carbon::js::ACLexNumberToken"*** %238, align 8, !dbg !8412
  %1230 = load %"struct.std::__1::default_delete.31"*, %"struct.std::__1::default_delete.31"** %239, align 8, !dbg !8412
  store %"class.std::__1::__compressed_pair.15"* %1228, %"class.std::__1::__compressed_pair.15"** %234, align 8
  store %"class.altered_carbon::js::ACLexNumberToken"** %1229, %"class.altered_carbon::js::ACLexNumberToken"*** %235, align 8
  store %"struct.std::__1::default_delete.31"* %1230, %"struct.std::__1::default_delete.31"** %236, align 8
  %1231 = load %"class.std::__1::__compressed_pair.15"*, %"class.std::__1::__compressed_pair.15"** %234, align 8
  %1232 = bitcast %"class.std::__1::__compressed_pair.15"* %1231 to %"struct.std::__1::__compressed_pair_elem.16"*, !dbg !8413
  %1233 = load %"class.altered_carbon::js::ACLexNumberToken"**, %"class.altered_carbon::js::ACLexNumberToken"*** %235, align 8, !dbg !8414
  store %"class.altered_carbon::js::ACLexNumberToken"** %1233, %"class.altered_carbon::js::ACLexNumberToken"*** %233, align 8
  %1234 = load %"class.altered_carbon::js::ACLexNumberToken"**, %"class.altered_carbon::js::ACLexNumberToken"*** %233, align 8, !dbg !8415
  store %"struct.std::__1::__compressed_pair_elem.16"* %1232, %"struct.std::__1::__compressed_pair_elem.16"** %224, align 8
  store %"class.altered_carbon::js::ACLexNumberToken"** %1234, %"class.altered_carbon::js::ACLexNumberToken"*** %225, align 8
  %1235 = load %"struct.std::__1::__compressed_pair_elem.16"*, %"struct.std::__1::__compressed_pair_elem.16"** %224, align 8
  %1236 = getelementptr inbounds %"struct.std::__1::__compressed_pair_elem.16", %"struct.std::__1::__compressed_pair_elem.16"* %1235, i32 0, i32 0, !dbg !8416
  %1237 = load %"class.altered_carbon::js::ACLexNumberToken"**, %"class.altered_carbon::js::ACLexNumberToken"*** %225, align 8, !dbg !8417
  store %"class.altered_carbon::js::ACLexNumberToken"** %1237, %"class.altered_carbon::js::ACLexNumberToken"*** %223, align 8
  %1238 = load %"class.altered_carbon::js::ACLexNumberToken"**, %"class.altered_carbon::js::ACLexNumberToken"*** %223, align 8, !dbg !8418
  %1239 = load %"class.altered_carbon::js::ACLexNumberToken"*, %"class.altered_carbon::js::ACLexNumberToken"** %1238, align 8, !dbg !8419
  %1240 = bitcast %"class.altered_carbon::js::ACLexNumberToken"* %1239 to %"class.altered_carbon::js::ACLexToken"*, !dbg !8419
  store %"class.altered_carbon::js::ACLexToken"* %1240, %"class.altered_carbon::js::ACLexToken"** %1236, align 8, !dbg !8416
  %1241 = bitcast %"class.std::__1::__compressed_pair.15"* %1231 to %"struct.std::__1::__compressed_pair_elem.25"*, !dbg !8413
  %1242 = load %"struct.std::__1::default_delete.31"*, %"struct.std::__1::default_delete.31"** %236, align 8, !dbg !8420
  store %"struct.std::__1::default_delete.31"* %1242, %"struct.std::__1::default_delete.31"** %226, align 8
  %1243 = load %"struct.std::__1::default_delete.31"*, %"struct.std::__1::default_delete.31"** %226, align 8, !dbg !8421
  store %"struct.std::__1::__compressed_pair_elem.25"* %1241, %"struct.std::__1::__compressed_pair_elem.25"** %231, align 8
  store %"struct.std::__1::default_delete.31"* %1243, %"struct.std::__1::default_delete.31"** %232, align 8
  %1244 = load %"struct.std::__1::__compressed_pair_elem.25"*, %"struct.std::__1::__compressed_pair_elem.25"** %231, align 8
  %1245 = bitcast %"struct.std::__1::__compressed_pair_elem.25"* %1244 to %"struct.std::__1::default_delete"*, !dbg !8422
  %1246 = load %"struct.std::__1::default_delete.31"*, %"struct.std::__1::default_delete.31"** %232, align 8, !dbg !8423
  store %"struct.std::__1::default_delete.31"* %1246, %"struct.std::__1::default_delete.31"** %230, align 8
  %1247 = load %"struct.std::__1::default_delete.31"*, %"struct.std::__1::default_delete.31"** %230, align 8, !dbg !8424
  store %"struct.std::__1::default_delete"* %1245, %"struct.std::__1::default_delete"** %227, align 8
  store %"struct.std::__1::default_delete.31"* %1247, %"struct.std::__1::default_delete.31"** %228, align 8
  store i8* null, i8** %229, align 8
  %1248 = load %"struct.std::__1::default_delete"*, %"struct.std::__1::default_delete"** %227, align 8
  store %"class.std::__1::unique_ptr.26"* %302, %"class.std::__1::unique_ptr.26"** %265, align 8
  %1249 = load %"class.std::__1::unique_ptr.26"*, %"class.std::__1::unique_ptr.26"** %265, align 8
  store %"class.std::__1::unique_ptr.26"* %1249, %"class.std::__1::unique_ptr.26"** %264, align 8
  %1250 = load %"class.std::__1::unique_ptr.26"*, %"class.std::__1::unique_ptr.26"** %264, align 8
  store %"class.std::__1::unique_ptr.26"* %1250, %"class.std::__1::unique_ptr.26"** %261, align 8
  store %"class.altered_carbon::js::ACLexNumberToken"* null, %"class.altered_carbon::js::ACLexNumberToken"** %262, align 8
  %1251 = load %"class.std::__1::unique_ptr.26"*, %"class.std::__1::unique_ptr.26"** %261, align 8
  %1252 = getelementptr inbounds %"class.std::__1::unique_ptr.26", %"class.std::__1::unique_ptr.26"* %1251, i32 0, i32 0, !dbg !8425
  store %"class.std::__1::__compressed_pair.27"* %1252, %"class.std::__1::__compressed_pair.27"** %260, align 8
  %1253 = load %"class.std::__1::__compressed_pair.27"*, %"class.std::__1::__compressed_pair.27"** %260, align 8
  %1254 = bitcast %"class.std::__1::__compressed_pair.27"* %1253 to %"struct.std::__1::__compressed_pair_elem.28"*, !dbg !8426
  store %"struct.std::__1::__compressed_pair_elem.28"* %1254, %"struct.std::__1::__compressed_pair_elem.28"** %259, align 8
  %1255 = load %"struct.std::__1::__compressed_pair_elem.28"*, %"struct.std::__1::__compressed_pair_elem.28"** %259, align 8
  %1256 = getelementptr inbounds %"struct.std::__1::__compressed_pair_elem.28", %"struct.std::__1::__compressed_pair_elem.28"* %1255, i32 0, i32 0, !dbg !8427
  %1257 = load %"class.altered_carbon::js::ACLexNumberToken"*, %"class.altered_carbon::js::ACLexNumberToken"** %1256, align 8, !dbg !8428
  store %"class.altered_carbon::js::ACLexNumberToken"* %1257, %"class.altered_carbon::js::ACLexNumberToken"** %263, align 8, !dbg !7871
  %1258 = load %"class.altered_carbon::js::ACLexNumberToken"*, %"class.altered_carbon::js::ACLexNumberToken"** %262, align 8, !dbg !8429
  %1259 = getelementptr inbounds %"class.std::__1::unique_ptr.26", %"class.std::__1::unique_ptr.26"* %1251, i32 0, i32 0, !dbg !8430
  store %"class.std::__1::__compressed_pair.27"* %1259, %"class.std::__1::__compressed_pair.27"** %256, align 8
  %1260 = load %"class.std::__1::__compressed_pair.27"*, %"class.std::__1::__compressed_pair.27"** %256, align 8
  %1261 = bitcast %"class.std::__1::__compressed_pair.27"* %1260 to %"struct.std::__1::__compressed_pair_elem.28"*, !dbg !8431
  store %"struct.std::__1::__compressed_pair_elem.28"* %1261, %"struct.std::__1::__compressed_pair_elem.28"** %255, align 8
  %1262 = load %"struct.std::__1::__compressed_pair_elem.28"*, %"struct.std::__1::__compressed_pair_elem.28"** %255, align 8
  %1263 = getelementptr inbounds %"struct.std::__1::__compressed_pair_elem.28", %"struct.std::__1::__compressed_pair_elem.28"* %1262, i32 0, i32 0, !dbg !8432
  store %"class.altered_carbon::js::ACLexNumberToken"* %1258, %"class.altered_carbon::js::ACLexNumberToken"** %1263, align 8, !dbg !8433
  %1264 = load %"class.altered_carbon::js::ACLexNumberToken"*, %"class.altered_carbon::js::ACLexNumberToken"** %263, align 8, !dbg !8434
  %1265 = icmp ne %"class.altered_carbon::js::ACLexNumberToken"* %1264, null, !dbg !8434
  br i1 %1265, label %1266, label %1282, !dbg !8435

; <label>:1266:                                   ; preds = %1170
  %1267 = getelementptr inbounds %"class.std::__1::unique_ptr.26", %"class.std::__1::unique_ptr.26"* %1251, i32 0, i32 0, !dbg !8436
  store %"class.std::__1::__compressed_pair.27"* %1267, %"class.std::__1::__compressed_pair.27"** %254, align 8
  %1268 = load %"class.std::__1::__compressed_pair.27"*, %"class.std::__1::__compressed_pair.27"** %254, align 8
  %1269 = bitcast %"class.std::__1::__compressed_pair.27"* %1268 to %"struct.std::__1::__compressed_pair_elem.30"*, !dbg !8437
  store %"struct.std::__1::__compressed_pair_elem.30"* %1269, %"struct.std::__1::__compressed_pair_elem.30"** %253, align 8
  %1270 = load %"struct.std::__1::__compressed_pair_elem.30"*, %"struct.std::__1::__compressed_pair_elem.30"** %253, align 8
  %1271 = bitcast %"struct.std::__1::__compressed_pair_elem.30"* %1270 to %"struct.std::__1::default_delete.31"*, !dbg !8438
  %1272 = load %"class.altered_carbon::js::ACLexNumberToken"*, %"class.altered_carbon::js::ACLexNumberToken"** %263, align 8, !dbg !8439
  store %"struct.std::__1::default_delete.31"* %1271, %"struct.std::__1::default_delete.31"** %257, align 8
  store %"class.altered_carbon::js::ACLexNumberToken"* %1272, %"class.altered_carbon::js::ACLexNumberToken"** %258, align 8
  %1273 = load %"struct.std::__1::default_delete.31"*, %"struct.std::__1::default_delete.31"** %257, align 8
  %1274 = load %"class.altered_carbon::js::ACLexNumberToken"*, %"class.altered_carbon::js::ACLexNumberToken"** %258, align 8, !dbg !8440
  %1275 = icmp eq %"class.altered_carbon::js::ACLexNumberToken"* %1274, null, !dbg !8441
  br i1 %1275, label %1281, label %1276, !dbg !8441

; <label>:1276:                                   ; preds = %1266
  %1277 = bitcast %"class.altered_carbon::js::ACLexNumberToken"* %1274 to void (%"class.altered_carbon::js::ACLexNumberToken"*)***, !dbg !8441
  %1278 = load void (%"class.altered_carbon::js::ACLexNumberToken"*)**, void (%"class.altered_carbon::js::ACLexNumberToken"*)*** %1277, align 8, !dbg !8441
  %1279 = getelementptr inbounds void (%"class.altered_carbon::js::ACLexNumberToken"*)*, void (%"class.altered_carbon::js::ACLexNumberToken"*)** %1278, i64 2, !dbg !8441
  %1280 = load void (%"class.altered_carbon::js::ACLexNumberToken"*)*, void (%"class.altered_carbon::js::ACLexNumberToken"*)** %1279, align 8, !dbg !8441
  call void %1280(%"class.altered_carbon::js::ACLexNumberToken"* %1274) #2, !dbg !8441
  br label %1281, !dbg !8441

; <label>:1281:                                   ; preds = %1276, %1266
  br label %1282, !dbg !8436

; <label>:1282:                                   ; preds = %1170, %1281
  store i32 1, i32* %289, align 4
  br label %1283, !dbg !8442

; <label>:1283:                                   ; preds = %1282, %1035, %856, %701, %546
  call void @_ZNSt3__112basic_stringIcNS_11char_traitsIcEENS_9allocatorIcEEED1Ev(%"class.std::__1::basic_string"* %279) #2, !dbg !8443
  ret void, !dbg !8443
}

; Function Attrs: noinline nounwind optnone ssp uwtable
define linkonce_odr hidden dereferenceable(32) %"struct.altered_carbon::js::ACLexPosition"* @_ZN14altered_carbon2js13ACLexPositionaSERKS1_(%"struct.altered_carbon::js::ACLexPosition"*, %"struct.altered_carbon::js::ACLexPosition"* dereferenceable(32)) #1 align 2 !dbg !8444 {
  %3 = alloca %"struct.altered_carbon::js::ACLexPosition"*, align 8
  %4 = alloca %"struct.altered_carbon::js::ACLexPosition"*, align 8
  store %"struct.altered_carbon::js::ACLexPosition"* %0, %"struct.altered_carbon::js::ACLexPosition"** %3, align 8
  call void @llvm.dbg.declare(metadata %"struct.altered_carbon::js::ACLexPosition"** %3, metadata !8448, metadata !DIExpression()), !dbg !8449
  store %"struct.altered_carbon::js::ACLexPosition"* %1, %"struct.altered_carbon::js::ACLexPosition"** %4, align 8
  call void @llvm.dbg.declare(metadata %"struct.altered_carbon::js::ACLexPosition"** %4, metadata !8450, metadata !DIExpression()), !dbg !8449
  %5 = load %"struct.altered_carbon::js::ACLexPosition"*, %"struct.altered_carbon::js::ACLexPosition"** %3, align 8
  %6 = getelementptr inbounds %"struct.altered_carbon::js::ACLexPosition", %"struct.altered_carbon::js::ACLexPosition"* %5, i32 0, i32 1, !dbg !8451
  %7 = load %"struct.altered_carbon::js::ACLexPosition"*, %"struct.altered_carbon::js::ACLexPosition"** %4, align 8, !dbg !8451
