; ModuleID = 'temp.bc'
source_filename = "../ac_lex_datatypes.cc"
target datalayout = "e-m:o-i64:64-f80:128-n8:16:32:64-S128"
target triple = "x86_64-apple-macosx10.13.0"

%"class.std::__1::locale::id" = type <{ %"struct.std::__1::once_flag", i32, [4 x i8] }>
%"struct.std::__1::once_flag" = type { i64 }
%"class.altered_carbon::js::ACLexNumber" = type { i32 (...)**, i8, %union.anon }
%union.anon = type { double }
%"class.std::__1::basic_ostream" = type { i32 (...)**, %"class.std::__1::basic_ios.base" }
%"class.std::__1::basic_ios.base" = type <{ %"class.std::__1::ios_base", %"class.std::__1::basic_ostream"*, i32 }>
%"class.std::__1::ios_base" = type { i32 (...)**, i32, i64, i64, i32, i32, i8*, i8*, void (i32, %"class.std::__1::ios_base"*, i32)**, i32*, i64, i64, i64*, i64, i64, i8**, i64, i64 }
%"class.altered_carbon::js::ACLexRegex" = type <{ i32 (...)**, %"class.std::__1::basic_string", i8, i8, i8, [5 x i8] }>
%"class.std::__1::basic_string" = type { %"class.std::__1::__compressed_pair" }
%"class.std::__1::__compressed_pair" = type { %"struct.std::__1::__compressed_pair_elem" }
%"struct.std::__1::__compressed_pair_elem" = type { %"struct.std::__1::basic_string<char, std::__1::char_traits<char>, std::__1::allocator<char> >::__rep" }
%"struct.std::__1::basic_string<char, std::__1::char_traits<char>, std::__1::allocator<char> >::__rep" = type { %union.anon.0 }
%union.anon.0 = type { %"struct.std::__1::basic_string<char, std::__1::char_traits<char>, std::__1::allocator<char> >::__long" }
%"struct.std::__1::basic_string<char, std::__1::char_traits<char>, std::__1::allocator<char> >::__long" = type { i64, i64, i8* }
%"class.std::__1::allocator" = type { i8 }
%"struct.std::__1::__compressed_pair_elem.2" = type { i8 }
%"class.std::__1::__basic_string_common" = type { i8 }
%"struct.std::__1::basic_string<char, std::__1::char_traits<char>, std::__1::allocator<char> >::__short" = type { %union.anon.1, [23 x i8] }
%union.anon.1 = type { i8 }
%"class.std::__1::ctype" = type <{ %"class.std::__1::locale::facet", i32*, i8, [7 x i8] }>
%"class.std::__1::locale::facet" = type { %"class.std::__1::__shared_count" }
%"class.std::__1::__shared_count" = type { i32 (...)**, i64 }
%"class.std::__1::locale" = type { %"class.std::__1::locale::__imp"* }
%"class.std::__1::locale::__imp" = type opaque
%"class.std::__1::basic_ios" = type <{ %"class.std::__1::ios_base", %"class.std::__1::basic_ostream"*, i32, [4 x i8] }>
%"class.std::__1::ostreambuf_iterator" = type { %"class.std::__1::basic_streambuf"* }
%"class.std::__1::basic_streambuf" = type { i32 (...)**, %"class.std::__1::locale", i8*, i8*, i8*, i8*, i8*, i8* }
%"class.std::__1::basic_ostream<char, std::__1::char_traits<char> >::sentry" = type { i8, %"class.std::__1::basic_ostream"* }
%"struct.std::__1::iterator" = type { i8 }

@_ZTVN14altered_carbon2js11ACLexNumberE = linkonce_odr unnamed_addr constant { [4 x i8*] } { [4 x i8*] [i8* null, i8* bitcast ({ i8*, i8* }* @_ZTIN14altered_carbon2js11ACLexNumberE to i8*), i8* bitcast (void (%"class.altered_carbon::js::ACLexNumber"*)* @_ZN14altered_carbon2js11ACLexNumberD1Ev to i8*), i8* bitcast (void (%"class.altered_carbon::js::ACLexNumber"*)* @_ZN14altered_carbon2js11ACLexNumberD0Ev to i8*)] }, align 8
@.str = private unnamed_addr constant [4 x i8] c"(I)\00", align 1
@.str.1 = private unnamed_addr constant [4 x i8] c"(R)\00", align 1
@_ZTVN14altered_carbon2js10ACLexRegexE = linkonce_odr unnamed_addr constant { [4 x i8*] } { [4 x i8*] [i8* null, i8* bitcast ({ i8*, i8* }* @_ZTIN14altered_carbon2js10ACLexRegexE to i8*), i8* bitcast (void (%"class.altered_carbon::js::ACLexRegex"*)* @_ZN14altered_carbon2js10ACLexRegexD1Ev to i8*), i8* bitcast (void (%"class.altered_carbon::js::ACLexRegex"*)* @_ZN14altered_carbon2js10ACLexRegexD0Ev to i8*)] }, align 8
@.str.2 = private unnamed_addr constant [1 x i8] zeroinitializer, align 1
@.str.3 = private unnamed_addr constant [2 x i8] c"/\00", align 1
@.str.4 = private unnamed_addr constant [2 x i8] c"i\00", align 1
@.str.5 = private unnamed_addr constant [2 x i8] c"g\00", align 1
@.str.6 = private unnamed_addr constant [2 x i8] c"m\00", align 1
@_ZTVN10__cxxabiv117__class_type_infoE = external global i8*
@_ZTSN14altered_carbon2js11ACLexNumberE = linkonce_odr constant [35 x i8] c"N14altered_carbon2js11ACLexNumberE\00"
@_ZTIN14altered_carbon2js11ACLexNumberE = linkonce_odr constant { i8*, i8* } { i8* bitcast (i8** getelementptr inbounds (i8*, i8** @_ZTVN10__cxxabiv117__class_type_infoE, i64 2) to i8*), i8* getelementptr inbounds ([35 x i8], [35 x i8]* @_ZTSN14altered_carbon2js11ACLexNumberE, i32 0, i32 0) }
@_ZTSN14altered_carbon2js10ACLexRegexE = linkonce_odr constant [34 x i8] c"N14altered_carbon2js10ACLexRegexE\00"
@_ZTIN14altered_carbon2js10ACLexRegexE = linkonce_odr constant { i8*, i8* } { i8* bitcast (i8** getelementptr inbounds (i8*, i8** @_ZTVN10__cxxabiv117__class_type_infoE, i64 2) to i8*), i8* getelementptr inbounds ([34 x i8], [34 x i8]* @_ZTSN14altered_carbon2js10ACLexRegexE, i32 0, i32 0) }
@_ZNSt3__15ctypeIcE2idE = external global %"class.std::__1::locale::id", align 8

; Function Attrs: noinline nounwind optnone ssp uwtable
define void @_ZN14altered_carbon2js11ACLexNumberC2Ev(%"class.altered_carbon::js::ACLexNumber"*) unnamed_addr #0 align 2 !dbg !2514 {
  %2 = alloca %"class.altered_carbon::js::ACLexNumber"*, align 8
  store %"class.altered_carbon::js::ACLexNumber"* %0, %"class.altered_carbon::js::ACLexNumber"** %2, align 8
  call void @llvm.dbg.declare(metadata %"class.altered_carbon::js::ACLexNumber"** %2, metadata !2577, metadata !DIExpression()), !dbg !2579
  %3 = load %"class.altered_carbon::js::ACLexNumber"*, %"class.altered_carbon::js::ACLexNumber"** %2, align 8
  %4 = bitcast %"class.altered_carbon::js::ACLexNumber"* %3 to i32 (...)***, !dbg !2580
  store i32 (...)** bitcast (i8** getelementptr inbounds ({ [4 x i8*] }, { [4 x i8*] }* @_ZTVN14altered_carbon2js11ACLexNumberE, i32 0, inrange i32 0, i32 2) to i32 (...)**), i32 (...)*** %4, align 8, !dbg !2580
  %5 = getelementptr inbounds %"class.altered_carbon::js::ACLexNumber", %"class.altered_carbon::js::ACLexNumber"* %3, i32 0, i32 1, !dbg !2581
  store i8 1, i8* %5, align 8, !dbg !2581
  %6 = getelementptr inbounds %"class.altered_carbon::js::ACLexNumber", %"class.altered_carbon::js::ACLexNumber"* %3, i32 0, i32 2, !dbg !2582
  %7 = bitcast %union.anon* %6 to i64*, !dbg !2582
  store i64 0, i64* %7, align 8, !dbg !2582
  ret void, !dbg !2583
}

; Function Attrs: nounwind readnone speculatable
declare void @llvm.dbg.declare(metadata, metadata, metadata) #1

; Function Attrs: noinline nounwind optnone ssp uwtable
define void @_ZN14altered_carbon2js11ACLexNumberC1Ev(%"class.altered_carbon::js::ACLexNumber"*) unnamed_addr #0 align 2 !dbg !2584 {
  %2 = alloca %"class.altered_carbon::js::ACLexNumber"*, align 8
  store %"class.altered_carbon::js::ACLexNumber"* %0, %"class.altered_carbon::js::ACLexNumber"** %2, align 8
  call void @llvm.dbg.declare(metadata %"class.altered_carbon::js::ACLexNumber"** %2, metadata !2585, metadata !DIExpression()), !dbg !2586
  %3 = load %"class.altered_carbon::js::ACLexNumber"*, %"class.altered_carbon::js::ACLexNumber"** %2, align 8
  call void @_ZN14altered_carbon2js11ACLexNumberC2Ev(%"class.altered_carbon::js::ACLexNumber"* %3), !dbg !2587
  ret void, !dbg !2588
}

; Function Attrs: noinline nounwind optnone ssp uwtable
define void @_ZN14altered_carbon2js11ACLexNumberC2Ex(%"class.altered_carbon::js::ACLexNumber"*, i64) unnamed_addr #0 align 2 !dbg !2589 {
  %3 = alloca %"class.altered_carbon::js::ACLexNumber"*, align 8
  %4 = alloca i64, align 8
  store %"class.altered_carbon::js::ACLexNumber"* %0, %"class.altered_carbon::js::ACLexNumber"** %3, align 8
  call void @llvm.dbg.declare(metadata %"class.altered_carbon::js::ACLexNumber"** %3, metadata !2590, metadata !DIExpression()), !dbg !2591
  store i64 %1, i64* %4, align 8
  call void @llvm.dbg.declare(metadata i64* %4, metadata !2592, metadata !DIExpression()), !dbg !2593
  %5 = load %"class.altered_carbon::js::ACLexNumber"*, %"class.altered_carbon::js::ACLexNumber"** %3, align 8
  %6 = bitcast %"class.altered_carbon::js::ACLexNumber"* %5 to i32 (...)***, !dbg !2594
  store i32 (...)** bitcast (i8** getelementptr inbounds ({ [4 x i8*] }, { [4 x i8*] }* @_ZTVN14altered_carbon2js11ACLexNumberE, i32 0, inrange i32 0, i32 2) to i32 (...)**), i32 (...)*** %6, align 8, !dbg !2594
  %7 = getelementptr inbounds %"class.altered_carbon::js::ACLexNumber", %"class.altered_carbon::js::ACLexNumber"* %5, i32 0, i32 1, !dbg !2595
  store i8 1, i8* %7, align 8, !dbg !2595
  %8 = getelementptr inbounds %"class.altered_carbon::js::ACLexNumber", %"class.altered_carbon::js::ACLexNumber"* %5, i32 0, i32 2, !dbg !2596
  %9 = bitcast %union.anon* %8 to i64*, !dbg !2596
  %10 = load i64, i64* %4, align 8, !dbg !2597
  store i64 %10, i64* %9, align 8, !dbg !2596
  ret void, !dbg !2598
}

; Function Attrs: noinline nounwind optnone ssp uwtable
define void @_ZN14altered_carbon2js11ACLexNumberC1Ex(%"class.altered_carbon::js::ACLexNumber"*, i64) unnamed_addr #0 align 2 !dbg !2599 {
  %3 = alloca %"class.altered_carbon::js::ACLexNumber"*, align 8
  %4 = alloca i64, align 8
  store %"class.altered_carbon::js::ACLexNumber"* %0, %"class.altered_carbon::js::ACLexNumber"** %3, align 8
  call void @llvm.dbg.declare(metadata %"class.altered_carbon::js::ACLexNumber"** %3, metadata !2600, metadata !DIExpression()), !dbg !2601
  store i64 %1, i64* %4, align 8
  call void @llvm.dbg.declare(metadata i64* %4, metadata !2602, metadata !DIExpression()), !dbg !2603
  %5 = load %"class.altered_carbon::js::ACLexNumber"*, %"class.altered_carbon::js::ACLexNumber"** %3, align 8
  %6 = load i64, i64* %4, align 8, !dbg !2604
  call void @_ZN14altered_carbon2js11ACLexNumberC2Ex(%"class.altered_carbon::js::ACLexNumber"* %5, i64 %6), !dbg !2604
  ret void, !dbg !2605
}

; Function Attrs: noinline nounwind optnone ssp uwtable
define void @_ZN14altered_carbon2js11ACLexNumberC2Ed(%"class.altered_carbon::js::ACLexNumber"*, double) unnamed_addr #0 align 2 !dbg !2606 {
  %3 = alloca %"class.altered_carbon::js::ACLexNumber"*, align 8
  %4 = alloca double, align 8
  store %"class.altered_carbon::js::ACLexNumber"* %0, %"class.altered_carbon::js::ACLexNumber"** %3, align 8
  call void @llvm.dbg.declare(metadata %"class.altered_carbon::js::ACLexNumber"** %3, metadata !2607, metadata !DIExpression()), !dbg !2608
  store double %1, double* %4, align 8
  call void @llvm.dbg.declare(metadata double* %4, metadata !2609, metadata !DIExpression()), !dbg !2610
  %5 = load %"class.altered_carbon::js::ACLexNumber"*, %"class.altered_carbon::js::ACLexNumber"** %3, align 8
  %6 = bitcast %"class.altered_carbon::js::ACLexNumber"* %5 to i32 (...)***, !dbg !2611
  store i32 (...)** bitcast (i8** getelementptr inbounds ({ [4 x i8*] }, { [4 x i8*] }* @_ZTVN14altered_carbon2js11ACLexNumberE, i32 0, inrange i32 0, i32 2) to i32 (...)**), i32 (...)*** %6, align 8, !dbg !2611
  %7 = getelementptr inbounds %"class.altered_carbon::js::ACLexNumber", %"class.altered_carbon::js::ACLexNumber"* %5, i32 0, i32 1, !dbg !2612
  store i8 0, i8* %7, align 8, !dbg !2612
  %8 = getelementptr inbounds %"class.altered_carbon::js::ACLexNumber", %"class.altered_carbon::js::ACLexNumber"* %5, i32 0, i32 2, !dbg !2613
  %9 = bitcast %union.anon* %8 to double*, !dbg !2613
  %10 = load double, double* %4, align 8, !dbg !2614
  store double %10, double* %9, align 8, !dbg !2613
  ret void, !dbg !2615
}

; Function Attrs: noinline nounwind optnone ssp uwtable
define void @_ZN14altered_carbon2js11ACLexNumberC1Ed(%"class.altered_carbon::js::ACLexNumber"*, double) unnamed_addr #0 align 2 !dbg !2616 {
  %3 = alloca %"class.altered_carbon::js::ACLexNumber"*, align 8
  %4 = alloca double, align 8
  store %"class.altered_carbon::js::ACLexNumber"* %0, %"class.altered_carbon::js::ACLexNumber"** %3, align 8
  call void @llvm.dbg.declare(metadata %"class.altered_carbon::js::ACLexNumber"** %3, metadata !2617, metadata !DIExpression()), !dbg !2618
  store double %1, double* %4, align 8
  call void @llvm.dbg.declare(metadata double* %4, metadata !2619, metadata !DIExpression()), !dbg !2620
  %5 = load %"class.altered_carbon::js::ACLexNumber"*, %"class.altered_carbon::js::ACLexNumber"** %3, align 8
  %6 = load double, double* %4, align 8, !dbg !2621
  call void @_ZN14altered_carbon2js11ACLexNumberC2Ed(%"class.altered_carbon::js::ACLexNumber"* %5, double %6), !dbg !2621
  ret void, !dbg !2622
}

; Function Attrs: noinline nounwind optnone ssp uwtable
define void @_ZN14altered_carbon2js11ACLexNumberC2ERKS1_(%"class.altered_carbon::js::ACLexNumber"*, %"class.altered_carbon::js::ACLexNumber"* dereferenceable(24)) unnamed_addr #0 align 2 !dbg !2623 {
  %3 = alloca %"class.altered_carbon::js::ACLexNumber"*, align 8
  %4 = alloca %"class.altered_carbon::js::ACLexNumber"*, align 8
  store %"class.altered_carbon::js::ACLexNumber"* %0, %"class.altered_carbon::js::ACLexNumber"** %3, align 8
  call void @llvm.dbg.declare(metadata %"class.altered_carbon::js::ACLexNumber"** %3, metadata !2624, metadata !DIExpression()), !dbg !2625
  store %"class.altered_carbon::js::ACLexNumber"* %1, %"class.altered_carbon::js::ACLexNumber"** %4, align 8
  call void @llvm.dbg.declare(metadata %"class.altered_carbon::js::ACLexNumber"** %4, metadata !2626, metadata !DIExpression()), !dbg !2627
  %5 = load %"class.altered_carbon::js::ACLexNumber"*, %"class.altered_carbon::js::ACLexNumber"** %3, align 8
  %6 = bitcast %"class.altered_carbon::js::ACLexNumber"* %5 to i32 (...)***, !dbg !2628
  store i32 (...)** bitcast (i8** getelementptr inbounds ({ [4 x i8*] }, { [4 x i8*] }* @_ZTVN14altered_carbon2js11ACLexNumberE, i32 0, inrange i32 0, i32 2) to i32 (...)**), i32 (...)*** %6, align 8, !dbg !2628
  %7 = load %"class.altered_carbon::js::ACLexNumber"*, %"class.altered_carbon::js::ACLexNumber"** %4, align 8, !dbg !2629
  %8 = call dereferenceable(24) %"class.altered_carbon::js::ACLexNumber"* @_ZN14altered_carbon2js11ACLexNumberaSERKS1_(%"class.altered_carbon::js::ACLexNumber"* %5, %"class.altered_carbon::js::ACLexNumber"* dereferenceable(24) %7), !dbg !2631
  ret void, !dbg !2632
}

; Function Attrs: noinline nounwind optnone ssp uwtable
define dereferenceable(24) %"class.altered_carbon::js::ACLexNumber"* @_ZN14altered_carbon2js11ACLexNumberaSERKS1_(%"class.altered_carbon::js::ACLexNumber"*, %"class.altered_carbon::js::ACLexNumber"* dereferenceable(24)) #0 align 2 !dbg !2633 {
  %3 = alloca %"class.altered_carbon::js::ACLexNumber"*, align 8
  %4 = alloca %"class.altered_carbon::js::ACLexNumber"*, align 8
  store %"class.altered_carbon::js::ACLexNumber"* %0, %"class.altered_carbon::js::ACLexNumber"** %3, align 8
  call void @llvm.dbg.declare(metadata %"class.altered_carbon::js::ACLexNumber"** %3, metadata !2634, metadata !DIExpression()), !dbg !2635
  store %"class.altered_carbon::js::ACLexNumber"* %1, %"class.altered_carbon::js::ACLexNumber"** %4, align 8
  call void @llvm.dbg.declare(metadata %"class.altered_carbon::js::ACLexNumber"** %4, metadata !2636, metadata !DIExpression()), !dbg !2637
  %5 = load %"class.altered_carbon::js::ACLexNumber"*, %"class.altered_carbon::js::ACLexNumber"** %3, align 8
  %6 = load %"class.altered_carbon::js::ACLexNumber"*, %"class.altered_carbon::js::ACLexNumber"** %4, align 8, !dbg !2638
  %7 = getelementptr inbounds %"class.altered_carbon::js::ACLexNumber", %"class.altered_carbon::js::ACLexNumber"* %6, i32 0, i32 1, !dbg !2640
  %8 = load i8, i8* %7, align 8, !dbg !2640
  %9 = trunc i8 %8 to i1, !dbg !2640
  br i1 %9, label %10, label %18, !dbg !2641

; <label>:10:                                     ; preds = %2
  %11 = getelementptr inbounds %"class.altered_carbon::js::ACLexNumber", %"class.altered_carbon::js::ACLexNumber"* %5, i32 0, i32 1, !dbg !2642
  store i8 1, i8* %11, align 8, !dbg !2644
  %12 = load %"class.altered_carbon::js::ACLexNumber"*, %"class.altered_carbon::js::ACLexNumber"** %4, align 8, !dbg !2645
  %13 = getelementptr inbounds %"class.altered_carbon::js::ACLexNumber", %"class.altered_carbon::js::ACLexNumber"* %12, i32 0, i32 2, !dbg !2646
  %14 = bitcast %union.anon* %13 to i64*, !dbg !2646
  %15 = load i64, i64* %14, align 8, !dbg !2646
  %16 = getelementptr inbounds %"class.altered_carbon::js::ACLexNumber", %"class.altered_carbon::js::ACLexNumber"* %5, i32 0, i32 2, !dbg !2647
  %17 = bitcast %union.anon* %16 to i64*, !dbg !2647
  store i64 %15, i64* %17, align 8, !dbg !2648
  br label %26, !dbg !2649

; <label>:18:                                     ; preds = %2
  %19 = getelementptr inbounds %"class.altered_carbon::js::ACLexNumber", %"class.altered_carbon::js::ACLexNumber"* %5, i32 0, i32 1, !dbg !2650
  store i8 0, i8* %19, align 8, !dbg !2652
  %20 = load %"class.altered_carbon::js::ACLexNumber"*, %"class.altered_carbon::js::ACLexNumber"** %4, align 8, !dbg !2653
  %21 = getelementptr inbounds %"class.altered_carbon::js::ACLexNumber", %"class.altered_carbon::js::ACLexNumber"* %20, i32 0, i32 2, !dbg !2654
  %22 = bitcast %union.anon* %21 to double*, !dbg !2654
  %23 = load double, double* %22, align 8, !dbg !2654
  %24 = getelementptr inbounds %"class.altered_carbon::js::ACLexNumber", %"class.altered_carbon::js::ACLexNumber"* %5, i32 0, i32 2, !dbg !2655
  %25 = bitcast %union.anon* %24 to double*, !dbg !2655
  store double %23, double* %25, align 8, !dbg !2656
  br label %26

; <label>:26:                                     ; preds = %18, %10
  ret %"class.altered_carbon::js::ACLexNumber"* %5, !dbg !2657
}

; Function Attrs: noinline nounwind optnone ssp uwtable
define void @_ZN14altered_carbon2js11ACLexNumberC1ERKS1_(%"class.altered_carbon::js::ACLexNumber"*, %"class.altered_carbon::js::ACLexNumber"* dereferenceable(24)) unnamed_addr #0 align 2 !dbg !2658 {
  %3 = alloca %"class.altered_carbon::js::ACLexNumber"*, align 8
  %4 = alloca %"class.altered_carbon::js::ACLexNumber"*, align 8
  store %"class.altered_carbon::js::ACLexNumber"* %0, %"class.altered_carbon::js::ACLexNumber"** %3, align 8
  call void @llvm.dbg.declare(metadata %"class.altered_carbon::js::ACLexNumber"** %3, metadata !2659, metadata !DIExpression()), !dbg !2660
  store %"class.altered_carbon::js::ACLexNumber"* %1, %"class.altered_carbon::js::ACLexNumber"** %4, align 8
  call void @llvm.dbg.declare(metadata %"class.altered_carbon::js::ACLexNumber"** %4, metadata !2661, metadata !DIExpression()), !dbg !2662
  %5 = load %"class.altered_carbon::js::ACLexNumber"*, %"class.altered_carbon::js::ACLexNumber"** %3, align 8
  %6 = load %"class.altered_carbon::js::ACLexNumber"*, %"class.altered_carbon::js::ACLexNumber"** %4, align 8, !dbg !2663
  call void @_ZN14altered_carbon2js11ACLexNumberC2ERKS1_(%"class.altered_carbon::js::ACLexNumber"* %5, %"class.altered_carbon::js::ACLexNumber"* dereferenceable(24) %6), !dbg !2663
  ret void, !dbg !2664
}

; Function Attrs: noinline nounwind optnone ssp uwtable
define zeroext i1 @_ZNK14altered_carbon2js11ACLexNumbereqEx(%"class.altered_carbon::js::ACLexNumber"*, i64) #0 align 2 !dbg !2665 {
  %3 = alloca i1, align 1
  %4 = alloca %"class.altered_carbon::js::ACLexNumber"*, align 8
  %5 = alloca i64, align 8
  store %"class.altered_carbon::js::ACLexNumber"* %0, %"class.altered_carbon::js::ACLexNumber"** %4, align 8
  call void @llvm.dbg.declare(metadata %"class.altered_carbon::js::ACLexNumber"** %4, metadata !2668, metadata !DIExpression()), !dbg !2670
  store i64 %1, i64* %5, align 8
  call void @llvm.dbg.declare(metadata i64* %5, metadata !2671, metadata !DIExpression()), !dbg !2672
  %6 = load %"class.altered_carbon::js::ACLexNumber"*, %"class.altered_carbon::js::ACLexNumber"** %4, align 8
  %7 = getelementptr inbounds %"class.altered_carbon::js::ACLexNumber", %"class.altered_carbon::js::ACLexNumber"* %6, i32 0, i32 1, !dbg !2673
  %8 = load i8, i8* %7, align 8, !dbg !2673
  %9 = trunc i8 %8 to i1, !dbg !2673
  br i1 %9, label %10, label %16, !dbg !2675

; <label>:10:                                     ; preds = %2
  %11 = getelementptr inbounds %"class.altered_carbon::js::ACLexNumber", %"class.altered_carbon::js::ACLexNumber"* %6, i32 0, i32 2, !dbg !2676
  %12 = bitcast %union.anon* %11 to i64*, !dbg !2676
  %13 = load i64, i64* %12, align 8, !dbg !2676
  %14 = load i64, i64* %5, align 8, !dbg !2678
  %15 = icmp eq i64 %13, %14, !dbg !2679
  store i1 %15, i1* %3, align 1, !dbg !2680
  br label %23, !dbg !2680

; <label>:16:                                     ; preds = %2
  %17 = getelementptr inbounds %"class.altered_carbon::js::ACLexNumber", %"class.altered_carbon::js::ACLexNumber"* %6, i32 0, i32 2, !dbg !2681
  %18 = bitcast %union.anon* %17 to double*, !dbg !2681
  %19 = load double, double* %18, align 8, !dbg !2681
  %20 = fptosi double %19 to i64, !dbg !2681
  %21 = load i64, i64* %5, align 8, !dbg !2683
  %22 = icmp eq i64 %20, %21, !dbg !2684
  store i1 %22, i1* %3, align 1, !dbg !2685
  br label %23, !dbg !2685

; <label>:23:                                     ; preds = %16, %10
  %24 = load i1, i1* %3, align 1, !dbg !2686
  ret i1 %24, !dbg !2686
}

; Function Attrs: noinline nounwind optnone ssp uwtable
define zeroext i1 @_ZNK14altered_carbon2js11ACLexNumbereqEd(%"class.altered_carbon::js::ACLexNumber"*, double) #0 align 2 !dbg !2687 {
  %3 = alloca i1, align 1
  %4 = alloca %"class.altered_carbon::js::ACLexNumber"*, align 8
  %5 = alloca double, align 8
  store %"class.altered_carbon::js::ACLexNumber"* %0, %"class.altered_carbon::js::ACLexNumber"** %4, align 8
  call void @llvm.dbg.declare(metadata %"class.altered_carbon::js::ACLexNumber"** %4, metadata !2690, metadata !DIExpression()), !dbg !2691
  store double %1, double* %5, align 8
  call void @llvm.dbg.declare(metadata double* %5, metadata !2692, metadata !DIExpression()), !dbg !2693
  %6 = load %"class.altered_carbon::js::ACLexNumber"*, %"class.altered_carbon::js::ACLexNumber"** %4, align 8
  %7 = getelementptr inbounds %"class.altered_carbon::js::ACLexNumber", %"class.altered_carbon::js::ACLexNumber"* %6, i32 0, i32 1, !dbg !2694
  %8 = load i8, i8* %7, align 8, !dbg !2694
  %9 = trunc i8 %8 to i1, !dbg !2694
  br i1 %9, label %10, label %17, !dbg !2696

; <label>:10:                                     ; preds = %2
  %11 = getelementptr inbounds %"class.altered_carbon::js::ACLexNumber", %"class.altered_carbon::js::ACLexNumber"* %6, i32 0, i32 2, !dbg !2697
  %12 = bitcast %union.anon* %11 to i64*, !dbg !2697
  %13 = load i64, i64* %12, align 8, !dbg !2697
  %14 = sitofp i64 %13 to double, !dbg !2697
  %15 = load double, double* %5, align 8, !dbg !2699
  %16 = fcmp oeq double %14, %15, !dbg !2700
  store i1 %16, i1* %3, align 1, !dbg !2701
  br label %23, !dbg !2701

; <label>:17:                                     ; preds = %2
  %18 = getelementptr inbounds %"class.altered_carbon::js::ACLexNumber", %"class.altered_carbon::js::ACLexNumber"* %6, i32 0, i32 2, !dbg !2702
  %19 = bitcast %union.anon* %18 to double*, !dbg !2702
  %20 = load double, double* %19, align 8, !dbg !2702
  %21 = load double, double* %5, align 8, !dbg !2704
  %22 = fcmp oeq double %20, %21, !dbg !2705
  store i1 %22, i1* %3, align 1, !dbg !2706
  br label %23, !dbg !2706

; <label>:23:                                     ; preds = %17, %10
  %24 = load i1, i1* %3, align 1, !dbg !2707
  ret i1 %24, !dbg !2707
}

; Function Attrs: noinline nounwind optnone ssp uwtable
define dereferenceable(24) %"class.altered_carbon::js::ACLexNumber"* @_ZN14altered_carbon2js11ACLexNumberpLERKS1_(%"class.altered_carbon::js::ACLexNumber"*, %"class.altered_carbon::js::ACLexNumber"* dereferenceable(24)) #0 align 2 !dbg !2708 {
  %3 = alloca %"class.altered_carbon::js::ACLexNumber"*, align 8
  %4 = alloca %"class.altered_carbon::js::ACLexNumber"*, align 8
  store %"class.altered_carbon::js::ACLexNumber"* %0, %"class.altered_carbon::js::ACLexNumber"** %3, align 8
  call void @llvm.dbg.declare(metadata %"class.altered_carbon::js::ACLexNumber"** %3, metadata !2709, metadata !DIExpression()), !dbg !2710
  store %"class.altered_carbon::js::ACLexNumber"* %1, %"class.altered_carbon::js::ACLexNumber"** %4, align 8
  call void @llvm.dbg.declare(metadata %"class.altered_carbon::js::ACLexNumber"** %4, metadata !2711, metadata !DIExpression()), !dbg !2712
  %5 = load %"class.altered_carbon::js::ACLexNumber"*, %"class.altered_carbon::js::ACLexNumber"** %3, align 8
  %6 = getelementptr inbounds %"class.altered_carbon::js::ACLexNumber", %"class.altered_carbon::js::ACLexNumber"* %5, i32 0, i32 1, !dbg !2713
  %7 = load i8, i8* %6, align 8, !dbg !2713
  %8 = trunc i8 %7 to i1, !dbg !2713
  %9 = zext i1 %8 to i32, !dbg !2713
  %10 = load %"class.altered_carbon::js::ACLexNumber"*, %"class.altered_carbon::js::ACLexNumber"** %4, align 8, !dbg !2713
  %11 = getelementptr inbounds %"class.altered_carbon::js::ACLexNumber", %"class.altered_carbon::js::ACLexNumber"* %10, i32 0, i32 1, !dbg !2713
  %12 = load i8, i8* %11, align 8, !dbg !2713
  %13 = trunc i8 %12 to i1, !dbg !2713
  %14 = zext i1 %13 to i32, !dbg !2713
  %15 = icmp ne i32 %9, %14, !dbg !2713
  br i1 %15, label %16, label %23, !dbg !2712

; <label>:16:                                     ; preds = %2
  call void @_ZN14altered_carbon2js11ACLexNumber14convertToFloatEv(%"class.altered_carbon::js::ACLexNumber"* %5), !dbg !2715
  %17 = load %"class.altered_carbon::js::ACLexNumber"*, %"class.altered_carbon::js::ACLexNumber"** %4, align 8, !dbg !2715
  %18 = call double @_ZNK14altered_carbon2js11ACLexNumber8getFloatEv(%"class.altered_carbon::js::ACLexNumber"* %17), !dbg !2715
  %19 = getelementptr inbounds %"class.altered_carbon::js::ACLexNumber", %"class.altered_carbon::js::ACLexNumber"* %5, i32 0, i32 2, !dbg !2715
  %20 = bitcast %union.anon* %19 to double*, !dbg !2715
  %21 = load double, double* %20, align 8, !dbg !2715
  %22 = fadd double %21, %18, !dbg !2715
  store double %22, double* %20, align 8, !dbg !2715
  br label %42, !dbg !2715

; <label>:23:                                     ; preds = %2
  %24 = getelementptr inbounds %"class.altered_carbon::js::ACLexNumber", %"class.altered_carbon::js::ACLexNumber"* %5, i32 0, i32 1, !dbg !2717
  %25 = load i8, i8* %24, align 8, !dbg !2717
  %26 = trunc i8 %25 to i1, !dbg !2717
  br i1 %26, label %27, label %34, !dbg !2713

; <label>:27:                                     ; preds = %23
  %28 = load %"class.altered_carbon::js::ACLexNumber"*, %"class.altered_carbon::js::ACLexNumber"** %4, align 8, !dbg !2719
  %29 = call i64 @_ZNK14altered_carbon2js11ACLexNumber6getIntEv(%"class.altered_carbon::js::ACLexNumber"* %28), !dbg !2719
  %30 = getelementptr inbounds %"class.altered_carbon::js::ACLexNumber", %"class.altered_carbon::js::ACLexNumber"* %5, i32 0, i32 2, !dbg !2719
  %31 = bitcast %union.anon* %30 to i64*, !dbg !2719
  %32 = load i64, i64* %31, align 8, !dbg !2719
  %33 = add nsw i64 %32, %29, !dbg !2719
  store i64 %33, i64* %31, align 8, !dbg !2719
  br label %41, !dbg !2719

; <label>:34:                                     ; preds = %23
  %35 = load %"class.altered_carbon::js::ACLexNumber"*, %"class.altered_carbon::js::ACLexNumber"** %4, align 8, !dbg !2721
  %36 = call double @_ZNK14altered_carbon2js11ACLexNumber8getFloatEv(%"class.altered_carbon::js::ACLexNumber"* %35), !dbg !2721
  %37 = getelementptr inbounds %"class.altered_carbon::js::ACLexNumber", %"class.altered_carbon::js::ACLexNumber"* %5, i32 0, i32 2, !dbg !2721
  %38 = bitcast %union.anon* %37 to double*, !dbg !2721
  %39 = load double, double* %38, align 8, !dbg !2721
  %40 = fadd double %39, %36, !dbg !2721
  store double %40, double* %38, align 8, !dbg !2721
  br label %41

; <label>:41:                                     ; preds = %34, %27
  br label %42

; <label>:42:                                     ; preds = %41, %16
  ret %"class.altered_carbon::js::ACLexNumber"* %5, !dbg !2712
}

; Function Attrs: noinline nounwind optnone ssp uwtable
define linkonce_odr hidden void @_ZN14altered_carbon2js11ACLexNumber14convertToFloatEv(%"class.altered_carbon::js::ACLexNumber"*) #0 align 2 !dbg !2723 {
  %2 = alloca %"class.altered_carbon::js::ACLexNumber"*, align 8
  store %"class.altered_carbon::js::ACLexNumber"* %0, %"class.altered_carbon::js::ACLexNumber"** %2, align 8
  call void @llvm.dbg.declare(metadata %"class.altered_carbon::js::ACLexNumber"** %2, metadata !2724, metadata !DIExpression()), !dbg !2725
  %3 = load %"class.altered_carbon::js::ACLexNumber"*, %"class.altered_carbon::js::ACLexNumber"** %2, align 8
  %4 = getelementptr inbounds %"class.altered_carbon::js::ACLexNumber", %"class.altered_carbon::js::ACLexNumber"* %3, i32 0, i32 1, !dbg !2726
  %5 = load i8, i8* %4, align 8, !dbg !2726
  %6 = trunc i8 %5 to i1, !dbg !2726
  br i1 %6, label %7, label %12, !dbg !2728

; <label>:7:                                      ; preds = %1
  %8 = call double @_ZNK14altered_carbon2js11ACLexNumber8getFloatEv(%"class.altered_carbon::js::ACLexNumber"* %3), !dbg !2729
  %9 = getelementptr inbounds %"class.altered_carbon::js::ACLexNumber", %"class.altered_carbon::js::ACLexNumber"* %3, i32 0, i32 2, !dbg !2731
  %10 = bitcast %union.anon* %9 to double*, !dbg !2731
  store double %8, double* %10, align 8, !dbg !2732
  %11 = getelementptr inbounds %"class.altered_carbon::js::ACLexNumber", %"class.altered_carbon::js::ACLexNumber"* %3, i32 0, i32 1, !dbg !2733
  store i8 0, i8* %11, align 8, !dbg !2734
  br label %12, !dbg !2735

; <label>:12:                                     ; preds = %7, %1
  ret void, !dbg !2736
}

; Function Attrs: noinline nounwind optnone ssp uwtable
define linkonce_odr hidden double @_ZNK14altered_carbon2js11ACLexNumber8getFloatEv(%"class.altered_carbon::js::ACLexNumber"*) #0 align 2 !dbg !2737 {
  %2 = alloca %"class.altered_carbon::js::ACLexNumber"*, align 8
  store %"class.altered_carbon::js::ACLexNumber"* %0, %"class.altered_carbon::js::ACLexNumber"** %2, align 8
  call void @llvm.dbg.declare(metadata %"class.altered_carbon::js::ACLexNumber"** %2, metadata !2738, metadata !DIExpression()), !dbg !2739
  %3 = load %"class.altered_carbon::js::ACLexNumber"*, %"class.altered_carbon::js::ACLexNumber"** %2, align 8
  %4 = getelementptr inbounds %"class.altered_carbon::js::ACLexNumber", %"class.altered_carbon::js::ACLexNumber"* %3, i32 0, i32 1, !dbg !2740
  %5 = load i8, i8* %4, align 8, !dbg !2740
  %6 = trunc i8 %5 to i1, !dbg !2740
  br i1 %6, label %7, label %12, !dbg !2740

; <label>:7:                                      ; preds = %1
  %8 = getelementptr inbounds %"class.altered_carbon::js::ACLexNumber", %"class.altered_carbon::js::ACLexNumber"* %3, i32 0, i32 2, !dbg !2741
  %9 = bitcast %union.anon* %8 to i64*, !dbg !2741
  %10 = load i64, i64* %9, align 8, !dbg !2741
  %11 = sitofp i64 %10 to double, !dbg !2741
  br label %16, !dbg !2740

; <label>:12:                                     ; preds = %1
  %13 = getelementptr inbounds %"class.altered_carbon::js::ACLexNumber", %"class.altered_carbon::js::ACLexNumber"* %3, i32 0, i32 2, !dbg !2742
  %14 = bitcast %union.anon* %13 to double*, !dbg !2742
  %15 = load double, double* %14, align 8, !dbg !2742
  br label %16, !dbg !2740

; <label>:16:                                     ; preds = %12, %7
  %17 = phi double [ %11, %7 ], [ %15, %12 ], !dbg !2740
  ret double %17, !dbg !2743
}

; Function Attrs: noinline nounwind optnone ssp uwtable
define linkonce_odr hidden i64 @_ZNK14altered_carbon2js11ACLexNumber6getIntEv(%"class.altered_carbon::js::ACLexNumber"*) #0 align 2 !dbg !2744 {
  %2 = alloca %"class.altered_carbon::js::ACLexNumber"*, align 8
  store %"class.altered_carbon::js::ACLexNumber"* %0, %"class.altered_carbon::js::ACLexNumber"** %2, align 8
  call void @llvm.dbg.declare(metadata %"class.altered_carbon::js::ACLexNumber"** %2, metadata !2745, metadata !DIExpression()), !dbg !2746
  %3 = load %"class.altered_carbon::js::ACLexNumber"*, %"class.altered_carbon::js::ACLexNumber"** %2, align 8
  %4 = getelementptr inbounds %"class.altered_carbon::js::ACLexNumber", %"class.altered_carbon::js::ACLexNumber"* %3, i32 0, i32 1, !dbg !2747
  %5 = load i8, i8* %4, align 8, !dbg !2747
  %6 = trunc i8 %5 to i1, !dbg !2747
  br i1 %6, label %7, label %11, !dbg !2747

; <label>:7:                                      ; preds = %1
  %8 = getelementptr inbounds %"class.altered_carbon::js::ACLexNumber", %"class.altered_carbon::js::ACLexNumber"* %3, i32 0, i32 2, !dbg !2748
  %9 = bitcast %union.anon* %8 to i64*, !dbg !2748
  %10 = load i64, i64* %9, align 8, !dbg !2748
  br label %16, !dbg !2747

; <label>:11:                                     ; preds = %1
  %12 = getelementptr inbounds %"class.altered_carbon::js::ACLexNumber", %"class.altered_carbon::js::ACLexNumber"* %3, i32 0, i32 2, !dbg !2749
  %13 = bitcast %union.anon* %12 to double*, !dbg !2749
  %14 = load double, double* %13, align 8, !dbg !2749
  %15 = fptosi double %14 to i64, !dbg !2749
  br label %16, !dbg !2747

; <label>:16:                                     ; preds = %11, %7
  %17 = phi i64 [ %10, %7 ], [ %15, %11 ], !dbg !2747
  ret i64 %17, !dbg !2750
}

; Function Attrs: noinline nounwind optnone ssp uwtable
define dereferenceable(24) %"class.altered_carbon::js::ACLexNumber"* @_ZN14altered_carbon2js11ACLexNumbermIERKS1_(%"class.altered_carbon::js::ACLexNumber"*, %"class.altered_carbon::js::ACLexNumber"* dereferenceable(24)) #0 align 2 !dbg !2751 {
  %3 = alloca %"class.altered_carbon::js::ACLexNumber"*, align 8
  %4 = alloca %"class.altered_carbon::js::ACLexNumber"*, align 8
  store %"class.altered_carbon::js::ACLexNumber"* %0, %"class.altered_carbon::js::ACLexNumber"** %3, align 8
  call void @llvm.dbg.declare(metadata %"class.altered_carbon::js::ACLexNumber"** %3, metadata !2752, metadata !DIExpression()), !dbg !2753
  store %"class.altered_carbon::js::ACLexNumber"* %1, %"class.altered_carbon::js::ACLexNumber"** %4, align 8
  call void @llvm.dbg.declare(metadata %"class.altered_carbon::js::ACLexNumber"** %4, metadata !2754, metadata !DIExpression()), !dbg !2755
  %5 = load %"class.altered_carbon::js::ACLexNumber"*, %"class.altered_carbon::js::ACLexNumber"** %3, align 8
  %6 = getelementptr inbounds %"class.altered_carbon::js::ACLexNumber", %"class.altered_carbon::js::ACLexNumber"* %5, i32 0, i32 1, !dbg !2756
  %7 = load i8, i8* %6, align 8, !dbg !2756
  %8 = trunc i8 %7 to i1, !dbg !2756
  %9 = zext i1 %8 to i32, !dbg !2756
  %10 = load %"class.altered_carbon::js::ACLexNumber"*, %"class.altered_carbon::js::ACLexNumber"** %4, align 8, !dbg !2756
  %11 = getelementptr inbounds %"class.altered_carbon::js::ACLexNumber", %"class.altered_carbon::js::ACLexNumber"* %10, i32 0, i32 1, !dbg !2756
  %12 = load i8, i8* %11, align 8, !dbg !2756
  %13 = trunc i8 %12 to i1, !dbg !2756
  %14 = zext i1 %13 to i32, !dbg !2756
  %15 = icmp ne i32 %9, %14, !dbg !2756
  br i1 %15, label %16, label %23, !dbg !2755

; <label>:16:                                     ; preds = %2
  call void @_ZN14altered_carbon2js11ACLexNumber14convertToFloatEv(%"class.altered_carbon::js::ACLexNumber"* %5), !dbg !2758
  %17 = load %"class.altered_carbon::js::ACLexNumber"*, %"class.altered_carbon::js::ACLexNumber"** %4, align 8, !dbg !2758
  %18 = call double @_ZNK14altered_carbon2js11ACLexNumber8getFloatEv(%"class.altered_carbon::js::ACLexNumber"* %17), !dbg !2758
  %19 = getelementptr inbounds %"class.altered_carbon::js::ACLexNumber", %"class.altered_carbon::js::ACLexNumber"* %5, i32 0, i32 2, !dbg !2758
  %20 = bitcast %union.anon* %19 to double*, !dbg !2758
  %21 = load double, double* %20, align 8, !dbg !2758
  %22 = fsub double %21, %18, !dbg !2758
  store double %22, double* %20, align 8, !dbg !2758
  br label %42, !dbg !2758

; <label>:23:                                     ; preds = %2
  %24 = getelementptr inbounds %"class.altered_carbon::js::ACLexNumber", %"class.altered_carbon::js::ACLexNumber"* %5, i32 0, i32 1, !dbg !2760
  %25 = load i8, i8* %24, align 8, !dbg !2760
  %26 = trunc i8 %25 to i1, !dbg !2760
  br i1 %26, label %27, label %34, !dbg !2756

; <label>:27:                                     ; preds = %23
  %28 = load %"class.altered_carbon::js::ACLexNumber"*, %"class.altered_carbon::js::ACLexNumber"** %4, align 8, !dbg !2762
  %29 = call i64 @_ZNK14altered_carbon2js11ACLexNumber6getIntEv(%"class.altered_carbon::js::ACLexNumber"* %28), !dbg !2762
  %30 = getelementptr inbounds %"class.altered_carbon::js::ACLexNumber", %"class.altered_carbon::js::ACLexNumber"* %5, i32 0, i32 2, !dbg !2762
  %31 = bitcast %union.anon* %30 to i64*, !dbg !2762
  %32 = load i64, i64* %31, align 8, !dbg !2762
  %33 = sub nsw i64 %32, %29, !dbg !2762
  store i64 %33, i64* %31, align 8, !dbg !2762
  br label %41, !dbg !2762

; <label>:34:                                     ; preds = %23
  %35 = load %"class.altered_carbon::js::ACLexNumber"*, %"class.altered_carbon::js::ACLexNumber"** %4, align 8, !dbg !2764
  %36 = call double @_ZNK14altered_carbon2js11ACLexNumber8getFloatEv(%"class.altered_carbon::js::ACLexNumber"* %35), !dbg !2764
  %37 = getelementptr inbounds %"class.altered_carbon::js::ACLexNumber", %"class.altered_carbon::js::ACLexNumber"* %5, i32 0, i32 2, !dbg !2764
  %38 = bitcast %union.anon* %37 to double*, !dbg !2764
  %39 = load double, double* %38, align 8, !dbg !2764
  %40 = fsub double %39, %36, !dbg !2764
  store double %40, double* %38, align 8, !dbg !2764
  br label %41

; <label>:41:                                     ; preds = %34, %27
  br label %42

; <label>:42:                                     ; preds = %41, %16
  ret %"class.altered_carbon::js::ACLexNumber"* %5, !dbg !2755
}

; Function Attrs: noinline nounwind optnone ssp uwtable
define dereferenceable(24) %"class.altered_carbon::js::ACLexNumber"* @_ZN14altered_carbon2js11ACLexNumbermLERKS1_(%"class.altered_carbon::js::ACLexNumber"*, %"class.altered_carbon::js::ACLexNumber"* dereferenceable(24)) #0 align 2 !dbg !2766 {
  %3 = alloca %"class.altered_carbon::js::ACLexNumber"*, align 8
  %4 = alloca %"class.altered_carbon::js::ACLexNumber"*, align 8
  store %"class.altered_carbon::js::ACLexNumber"* %0, %"class.altered_carbon::js::ACLexNumber"** %3, align 8
  call void @llvm.dbg.declare(metadata %"class.altered_carbon::js::ACLexNumber"** %3, metadata !2767, metadata !DIExpression()), !dbg !2768
  store %"class.altered_carbon::js::ACLexNumber"* %1, %"class.altered_carbon::js::ACLexNumber"** %4, align 8
  call void @llvm.dbg.declare(metadata %"class.altered_carbon::js::ACLexNumber"** %4, metadata !2769, metadata !DIExpression()), !dbg !2770
  %5 = load %"class.altered_carbon::js::ACLexNumber"*, %"class.altered_carbon::js::ACLexNumber"** %3, align 8
  %6 = getelementptr inbounds %"class.altered_carbon::js::ACLexNumber", %"class.altered_carbon::js::ACLexNumber"* %5, i32 0, i32 1, !dbg !2771
  %7 = load i8, i8* %6, align 8, !dbg !2771
  %8 = trunc i8 %7 to i1, !dbg !2771
  %9 = zext i1 %8 to i32, !dbg !2771
  %10 = load %"class.altered_carbon::js::ACLexNumber"*, %"class.altered_carbon::js::ACLexNumber"** %4, align 8, !dbg !2771
  %11 = getelementptr inbounds %"class.altered_carbon::js::ACLexNumber", %"class.altered_carbon::js::ACLexNumber"* %10, i32 0, i32 1, !dbg !2771
  %12 = load i8, i8* %11, align 8, !dbg !2771
  %13 = trunc i8 %12 to i1, !dbg !2771
  %14 = zext i1 %13 to i32, !dbg !2771
  %15 = icmp ne i32 %9, %14, !dbg !2771
  br i1 %15, label %16, label %23, !dbg !2770

; <label>:16:                                     ; preds = %2
  call void @_ZN14altered_carbon2js11ACLexNumber14convertToFloatEv(%"class.altered_carbon::js::ACLexNumber"* %5), !dbg !2773
  %17 = load %"class.altered_carbon::js::ACLexNumber"*, %"class.altered_carbon::js::ACLexNumber"** %4, align 8, !dbg !2773
  %18 = call double @_ZNK14altered_carbon2js11ACLexNumber8getFloatEv(%"class.altered_carbon::js::ACLexNumber"* %17), !dbg !2773
  %19 = getelementptr inbounds %"class.altered_carbon::js::ACLexNumber", %"class.altered_carbon::js::ACLexNumber"* %5, i32 0, i32 2, !dbg !2773
  %20 = bitcast %union.anon* %19 to double*, !dbg !2773
  %21 = load double, double* %20, align 8, !dbg !2773
  %22 = fmul double %21, %18, !dbg !2773
  store double %22, double* %20, align 8, !dbg !2773
  br label %42, !dbg !2773

; <label>:23:                                     ; preds = %2
  %24 = getelementptr inbounds %"class.altered_carbon::js::ACLexNumber", %"class.altered_carbon::js::ACLexNumber"* %5, i32 0, i32 1, !dbg !2775
  %25 = load i8, i8* %24, align 8, !dbg !2775
  %26 = trunc i8 %25 to i1, !dbg !2775
  br i1 %26, label %27, label %34, !dbg !2771

; <label>:27:                                     ; preds = %23
  %28 = load %"class.altered_carbon::js::ACLexNumber"*, %"class.altered_carbon::js::ACLexNumber"** %4, align 8, !dbg !2777
  %29 = call i64 @_ZNK14altered_carbon2js11ACLexNumber6getIntEv(%"class.altered_carbon::js::ACLexNumber"* %28), !dbg !2777
  %30 = getelementptr inbounds %"class.altered_carbon::js::ACLexNumber", %"class.altered_carbon::js::ACLexNumber"* %5, i32 0, i32 2, !dbg !2777
  %31 = bitcast %union.anon* %30 to i64*, !dbg !2777
  %32 = load i64, i64* %31, align 8, !dbg !2777
  %33 = mul nsw i64 %32, %29, !dbg !2777
  store i64 %33, i64* %31, align 8, !dbg !2777
  br label %41, !dbg !2777

; <label>:34:                                     ; preds = %23
  %35 = load %"class.altered_carbon::js::ACLexNumber"*, %"class.altered_carbon::js::ACLexNumber"** %4, align 8, !dbg !2779
  %36 = call double @_ZNK14altered_carbon2js11ACLexNumber8getFloatEv(%"class.altered_carbon::js::ACLexNumber"* %35), !dbg !2779
  %37 = getelementptr inbounds %"class.altered_carbon::js::ACLexNumber", %"class.altered_carbon::js::ACLexNumber"* %5, i32 0, i32 2, !dbg !2779
  %38 = bitcast %union.anon* %37 to double*, !dbg !2779
  %39 = load double, double* %38, align 8, !dbg !2779
  %40 = fmul double %39, %36, !dbg !2779
  store double %40, double* %38, align 8, !dbg !2779
  br label %41

; <label>:41:                                     ; preds = %34, %27
  br label %42

; <label>:42:                                     ; preds = %41, %16
  ret %"class.altered_carbon::js::ACLexNumber"* %5, !dbg !2770
}

; Function Attrs: noinline nounwind optnone ssp uwtable
define dereferenceable(24) %"class.altered_carbon::js::ACLexNumber"* @_ZN14altered_carbon2js11ACLexNumberdVERKS1_(%"class.altered_carbon::js::ACLexNumber"*, %"class.altered_carbon::js::ACLexNumber"* dereferenceable(24)) #0 align 2 !dbg !2781 {
  %3 = alloca %"class.altered_carbon::js::ACLexNumber"*, align 8
  %4 = alloca %"class.altered_carbon::js::ACLexNumber"*, align 8
  store %"class.altered_carbon::js::ACLexNumber"* %0, %"class.altered_carbon::js::ACLexNumber"** %3, align 8
  call void @llvm.dbg.declare(metadata %"class.altered_carbon::js::ACLexNumber"** %3, metadata !2782, metadata !DIExpression()), !dbg !2783
  store %"class.altered_carbon::js::ACLexNumber"* %1, %"class.altered_carbon::js::ACLexNumber"** %4, align 8
  call void @llvm.dbg.declare(metadata %"class.altered_carbon::js::ACLexNumber"** %4, metadata !2784, metadata !DIExpression()), !dbg !2785
  %5 = load %"class.altered_carbon::js::ACLexNumber"*, %"class.altered_carbon::js::ACLexNumber"** %3, align 8
  %6 = getelementptr inbounds %"class.altered_carbon::js::ACLexNumber", %"class.altered_carbon::js::ACLexNumber"* %5, i32 0, i32 1, !dbg !2786
  %7 = load i8, i8* %6, align 8, !dbg !2786
  %8 = trunc i8 %7 to i1, !dbg !2786
  br i1 %8, label %9, label %14, !dbg !2788

; <label>:9:                                      ; preds = %2
  %10 = load %"class.altered_carbon::js::ACLexNumber"*, %"class.altered_carbon::js::ACLexNumber"** %4, align 8, !dbg !2789
  %11 = getelementptr inbounds %"class.altered_carbon::js::ACLexNumber", %"class.altered_carbon::js::ACLexNumber"* %10, i32 0, i32 1, !dbg !2790
  %12 = load i8, i8* %11, align 8, !dbg !2790
  %13 = trunc i8 %12 to i1, !dbg !2790
  br i1 %13, label %21, label %14, !dbg !2791

; <label>:14:                                     ; preds = %9, %2
  call void @_ZN14altered_carbon2js11ACLexNumber14convertToFloatEv(%"class.altered_carbon::js::ACLexNumber"* %5), !dbg !2792
  %15 = load %"class.altered_carbon::js::ACLexNumber"*, %"class.altered_carbon::js::ACLexNumber"** %4, align 8, !dbg !2794
  %16 = call double @_ZNK14altered_carbon2js11ACLexNumber8getFloatEv(%"class.altered_carbon::js::ACLexNumber"* %15), !dbg !2795
  %17 = getelementptr inbounds %"class.altered_carbon::js::ACLexNumber", %"class.altered_carbon::js::ACLexNumber"* %5, i32 0, i32 2, !dbg !2796
  %18 = bitcast %union.anon* %17 to double*, !dbg !2796
  %19 = load double, double* %18, align 8, !dbg !2797
  %20 = fdiv double %19, %16, !dbg !2797
  store double %20, double* %18, align 8, !dbg !2797
  br label %46, !dbg !2798

; <label>:21:                                     ; preds = %9
  %22 = getelementptr inbounds %"class.altered_carbon::js::ACLexNumber", %"class.altered_carbon::js::ACLexNumber"* %5, i32 0, i32 2, !dbg !2799
  %23 = bitcast %union.anon* %22 to i64*, !dbg !2799
  %24 = load i64, i64* %23, align 8, !dbg !2799
  %25 = load %"class.altered_carbon::js::ACLexNumber"*, %"class.altered_carbon::js::ACLexNumber"** %4, align 8, !dbg !2802
  %26 = getelementptr inbounds %"class.altered_carbon::js::ACLexNumber", %"class.altered_carbon::js::ACLexNumber"* %25, i32 0, i32 2, !dbg !2803
  %27 = bitcast %union.anon* %26 to i64*, !dbg !2803
  %28 = load i64, i64* %27, align 8, !dbg !2803
  %29 = srem i64 %24, %28, !dbg !2804
  %30 = icmp sgt i64 %29, 0, !dbg !2805
  br i1 %30, label %31, label %38, !dbg !2806

; <label>:31:                                     ; preds = %21
  call void @_ZN14altered_carbon2js11ACLexNumber14convertToFloatEv(%"class.altered_carbon::js::ACLexNumber"* %5), !dbg !2807
  %32 = load %"class.altered_carbon::js::ACLexNumber"*, %"class.altered_carbon::js::ACLexNumber"** %4, align 8, !dbg !2809
  %33 = call double @_ZNK14altered_carbon2js11ACLexNumber8getFloatEv(%"class.altered_carbon::js::ACLexNumber"* %32), !dbg !2810
  %34 = getelementptr inbounds %"class.altered_carbon::js::ACLexNumber", %"class.altered_carbon::js::ACLexNumber"* %5, i32 0, i32 2, !dbg !2811
  %35 = bitcast %union.anon* %34 to double*, !dbg !2811
  %36 = load double, double* %35, align 8, !dbg !2812
  %37 = fdiv double %36, %33, !dbg !2812
  store double %37, double* %35, align 8, !dbg !2812
  br label %45, !dbg !2813

; <label>:38:                                     ; preds = %21
  %39 = load %"class.altered_carbon::js::ACLexNumber"*, %"class.altered_carbon::js::ACLexNumber"** %4, align 8, !dbg !2814
  %40 = call i64 @_ZNK14altered_carbon2js11ACLexNumber6getIntEv(%"class.altered_carbon::js::ACLexNumber"* %39), !dbg !2816
  %41 = getelementptr inbounds %"class.altered_carbon::js::ACLexNumber", %"class.altered_carbon::js::ACLexNumber"* %5, i32 0, i32 2, !dbg !2817
  %42 = bitcast %union.anon* %41 to i64*, !dbg !2817
  %43 = load i64, i64* %42, align 8, !dbg !2818
  %44 = sdiv i64 %43, %40, !dbg !2818
  store i64 %44, i64* %42, align 8, !dbg !2818
  br label %45

; <label>:45:                                     ; preds = %38, %31
  br label %46

; <label>:46:                                     ; preds = %45, %14
  ret %"class.altered_carbon::js::ACLexNumber"* %5, !dbg !2819
}

; Function Attrs: noinline nounwind optnone ssp uwtable
define dereferenceable(24) %"class.altered_carbon::js::ACLexNumber"* @_ZN14altered_carbon2js11ACLexNumberrMERKS1_(%"class.altered_carbon::js::ACLexNumber"*, %"class.altered_carbon::js::ACLexNumber"* dereferenceable(24)) #0 align 2 !dbg !2820 {
  %3 = alloca %"class.altered_carbon::js::ACLexNumber"*, align 8
  %4 = alloca %"class.altered_carbon::js::ACLexNumber"*, align 8
  %5 = alloca double, align 8
  store %"class.altered_carbon::js::ACLexNumber"* %0, %"class.altered_carbon::js::ACLexNumber"** %3, align 8
  call void @llvm.dbg.declare(metadata %"class.altered_carbon::js::ACLexNumber"** %3, metadata !2821, metadata !DIExpression()), !dbg !2822
  store %"class.altered_carbon::js::ACLexNumber"* %1, %"class.altered_carbon::js::ACLexNumber"** %4, align 8
  call void @llvm.dbg.declare(metadata %"class.altered_carbon::js::ACLexNumber"** %4, metadata !2823, metadata !DIExpression()), !dbg !2824
  %6 = load %"class.altered_carbon::js::ACLexNumber"*, %"class.altered_carbon::js::ACLexNumber"** %3, align 8
  %7 = getelementptr inbounds %"class.altered_carbon::js::ACLexNumber", %"class.altered_carbon::js::ACLexNumber"* %6, i32 0, i32 1, !dbg !2825
  %8 = load i8, i8* %7, align 8, !dbg !2825
  %9 = trunc i8 %8 to i1, !dbg !2825
  br i1 %9, label %10, label %22, !dbg !2827

; <label>:10:                                     ; preds = %2
  %11 = load %"class.altered_carbon::js::ACLexNumber"*, %"class.altered_carbon::js::ACLexNumber"** %4, align 8, !dbg !2828
  %12 = getelementptr inbounds %"class.altered_carbon::js::ACLexNumber", %"class.altered_carbon::js::ACLexNumber"* %11, i32 0, i32 1, !dbg !2829
  %13 = load i8, i8* %12, align 8, !dbg !2829
  %14 = trunc i8 %13 to i1, !dbg !2829
  br i1 %14, label %15, label %22, !dbg !2830

; <label>:15:                                     ; preds = %10
  %16 = load %"class.altered_carbon::js::ACLexNumber"*, %"class.altered_carbon::js::ACLexNumber"** %4, align 8, !dbg !2831
  %17 = call i64 @_ZNK14altered_carbon2js11ACLexNumber6getIntEv(%"class.altered_carbon::js::ACLexNumber"* %16), !dbg !2833
  %18 = getelementptr inbounds %"class.altered_carbon::js::ACLexNumber", %"class.altered_carbon::js::ACLexNumber"* %6, i32 0, i32 2, !dbg !2834
  %19 = bitcast %union.anon* %18 to i64*, !dbg !2834
  %20 = load i64, i64* %19, align 8, !dbg !2835
  %21 = srem i64 %20, %17, !dbg !2835
  store i64 %21, i64* %19, align 8, !dbg !2835
  br label %38, !dbg !2836

; <label>:22:                                     ; preds = %10, %2
  call void @_ZN14altered_carbon2js11ACLexNumber14convertToFloatEv(%"class.altered_carbon::js::ACLexNumber"* %6), !dbg !2837
  call void @llvm.dbg.declare(metadata double* %5, metadata !2839, metadata !DIExpression()), !dbg !2840
  %23 = load %"class.altered_carbon::js::ACLexNumber"*, %"class.altered_carbon::js::ACLexNumber"** %4, align 8, !dbg !2841
  %24 = call double @_ZNK14altered_carbon2js11ACLexNumber8getFloatEv(%"class.altered_carbon::js::ACLexNumber"* %23), !dbg !2842
  store double %24, double* %5, align 8, !dbg !2840
  %25 = load double, double* %5, align 8, !dbg !2843
  %26 = getelementptr inbounds %"class.altered_carbon::js::ACLexNumber", %"class.altered_carbon::js::ACLexNumber"* %6, i32 0, i32 2, !dbg !2844
  %27 = bitcast %union.anon* %26 to double*, !dbg !2844
  %28 = load double, double* %27, align 8, !dbg !2844
  %29 = load double, double* %5, align 8, !dbg !2845
  %30 = fdiv double %28, %29, !dbg !2846
  %31 = fptosi double %30 to i64, !dbg !2847
  %32 = sitofp i64 %31 to double, !dbg !2848
  %33 = fmul double %25, %32, !dbg !2849
  %34 = getelementptr inbounds %"class.altered_carbon::js::ACLexNumber", %"class.altered_carbon::js::ACLexNumber"* %6, i32 0, i32 2, !dbg !2850
  %35 = bitcast %union.anon* %34 to double*, !dbg !2850
  %36 = load double, double* %35, align 8, !dbg !2851
  %37 = fsub double %36, %33, !dbg !2851
  store double %37, double* %35, align 8, !dbg !2851
  br label %38

; <label>:38:                                     ; preds = %22, %15
  ret %"class.altered_carbon::js::ACLexNumber"* %6, !dbg !2852
}

; Function Attrs: noinline nounwind optnone ssp uwtable
define dereferenceable(24) %"class.altered_carbon::js::ACLexNumber"* @_ZN14altered_carbon2js11ACLexNumbereOERKS1_(%"class.altered_carbon::js::ACLexNumber"*, %"class.altered_carbon::js::ACLexNumber"* dereferenceable(24)) #0 align 2 !dbg !2853 {
  %3 = alloca %"class.altered_carbon::js::ACLexNumber"*, align 8
  %4 = alloca %"class.altered_carbon::js::ACLexNumber"*, align 8
  store %"class.altered_carbon::js::ACLexNumber"* %0, %"class.altered_carbon::js::ACLexNumber"** %3, align 8
  call void @llvm.dbg.declare(metadata %"class.altered_carbon::js::ACLexNumber"** %3, metadata !2854, metadata !DIExpression()), !dbg !2855
  store %"class.altered_carbon::js::ACLexNumber"* %1, %"class.altered_carbon::js::ACLexNumber"** %4, align 8
  call void @llvm.dbg.declare(metadata %"class.altered_carbon::js::ACLexNumber"** %4, metadata !2856, metadata !DIExpression()), !dbg !2857
  %5 = load %"class.altered_carbon::js::ACLexNumber"*, %"class.altered_carbon::js::ACLexNumber"** %3, align 8
  call void @_ZN14altered_carbon2js11ACLexNumber12convertToIntEv(%"class.altered_carbon::js::ACLexNumber"* %5), !dbg !2857
  %6 = load %"class.altered_carbon::js::ACLexNumber"*, %"class.altered_carbon::js::ACLexNumber"** %4, align 8, !dbg !2857
  %7 = call i64 @_ZNK14altered_carbon2js11ACLexNumber6getIntEv(%"class.altered_carbon::js::ACLexNumber"* %6), !dbg !2857
  %8 = getelementptr inbounds %"class.altered_carbon::js::ACLexNumber", %"class.altered_carbon::js::ACLexNumber"* %5, i32 0, i32 2, !dbg !2857
  %9 = bitcast %union.anon* %8 to i64*, !dbg !2857
  %10 = load i64, i64* %9, align 8, !dbg !2857
  %11 = xor i64 %10, %7, !dbg !2857
  store i64 %11, i64* %9, align 8, !dbg !2857
  ret %"class.altered_carbon::js::ACLexNumber"* %5, !dbg !2857
}

; Function Attrs: noinline nounwind optnone ssp uwtable
define linkonce_odr hidden void @_ZN14altered_carbon2js11ACLexNumber12convertToIntEv(%"class.altered_carbon::js::ACLexNumber"*) #0 align 2 !dbg !2858 {
  %2 = alloca %"class.altered_carbon::js::ACLexNumber"*, align 8
  store %"class.altered_carbon::js::ACLexNumber"* %0, %"class.altered_carbon::js::ACLexNumber"** %2, align 8
  call void @llvm.dbg.declare(metadata %"class.altered_carbon::js::ACLexNumber"** %2, metadata !2859, metadata !DIExpression()), !dbg !2860
  %3 = load %"class.altered_carbon::js::ACLexNumber"*, %"class.altered_carbon::js::ACLexNumber"** %2, align 8
  %4 = getelementptr inbounds %"class.altered_carbon::js::ACLexNumber", %"class.altered_carbon::js::ACLexNumber"* %3, i32 0, i32 1, !dbg !2861
  %5 = load i8, i8* %4, align 8, !dbg !2861
  %6 = trunc i8 %5 to i1, !dbg !2861
  br i1 %6, label %12, label %7, !dbg !2863

; <label>:7:                                      ; preds = %1
  %8 = call i64 @_ZNK14altered_carbon2js11ACLexNumber6getIntEv(%"class.altered_carbon::js::ACLexNumber"* %3), !dbg !2864
  %9 = getelementptr inbounds %"class.altered_carbon::js::ACLexNumber", %"class.altered_carbon::js::ACLexNumber"* %3, i32 0, i32 2, !dbg !2866
  %10 = bitcast %union.anon* %9 to i64*, !dbg !2866
  store i64 %8, i64* %10, align 8, !dbg !2867
  %11 = getelementptr inbounds %"class.altered_carbon::js::ACLexNumber", %"class.altered_carbon::js::ACLexNumber"* %3, i32 0, i32 1, !dbg !2868
  store i8 1, i8* %11, align 8, !dbg !2869
  br label %12, !dbg !2870

; <label>:12:                                     ; preds = %7, %1
  ret void, !dbg !2871
}

; Function Attrs: noinline nounwind optnone ssp uwtable
define dereferenceable(24) %"class.altered_carbon::js::ACLexNumber"* @_ZN14altered_carbon2js11ACLexNumberoRERKS1_(%"class.altered_carbon::js::ACLexNumber"*, %"class.altered_carbon::js::ACLexNumber"* dereferenceable(24)) #0 align 2 !dbg !2872 {
  %3 = alloca %"class.altered_carbon::js::ACLexNumber"*, align 8
  %4 = alloca %"class.altered_carbon::js::ACLexNumber"*, align 8
  store %"class.altered_carbon::js::ACLexNumber"* %0, %"class.altered_carbon::js::ACLexNumber"** %3, align 8
  call void @llvm.dbg.declare(metadata %"class.altered_carbon::js::ACLexNumber"** %3, metadata !2873, metadata !DIExpression()), !dbg !2874
  store %"class.altered_carbon::js::ACLexNumber"* %1, %"class.altered_carbon::js::ACLexNumber"** %4, align 8
  call void @llvm.dbg.declare(metadata %"class.altered_carbon::js::ACLexNumber"** %4, metadata !2875, metadata !DIExpression()), !dbg !2876
  %5 = load %"class.altered_carbon::js::ACLexNumber"*, %"class.altered_carbon::js::ACLexNumber"** %3, align 8
  call void @_ZN14altered_carbon2js11ACLexNumber12convertToIntEv(%"class.altered_carbon::js::ACLexNumber"* %5), !dbg !2876
  %6 = load %"class.altered_carbon::js::ACLexNumber"*, %"class.altered_carbon::js::ACLexNumber"** %4, align 8, !dbg !2876
  %7 = call i64 @_ZNK14altered_carbon2js11ACLexNumber6getIntEv(%"class.altered_carbon::js::ACLexNumber"* %6), !dbg !2876
  %8 = getelementptr inbounds %"class.altered_carbon::js::ACLexNumber", %"class.altered_carbon::js::ACLexNumber"* %5, i32 0, i32 2, !dbg !2876
  %9 = bitcast %union.anon* %8 to i64*, !dbg !2876
  %10 = load i64, i64* %9, align 8, !dbg !2876
  %11 = or i64 %10, %7, !dbg !2876
  store i64 %11, i64* %9, align 8, !dbg !2876
  ret %"class.altered_carbon::js::ACLexNumber"* %5, !dbg !2876
}

; Function Attrs: noinline nounwind optnone ssp uwtable
define dereferenceable(24) %"class.altered_carbon::js::ACLexNumber"* @_ZN14altered_carbon2js11ACLexNumberaNERKS1_(%"class.altered_carbon::js::ACLexNumber"*, %"class.altered_carbon::js::ACLexNumber"* dereferenceable(24)) #0 align 2 !dbg !2877 {
  %3 = alloca %"class.altered_carbon::js::ACLexNumber"*, align 8
  %4 = alloca %"class.altered_carbon::js::ACLexNumber"*, align 8
  store %"class.altered_carbon::js::ACLexNumber"* %0, %"class.altered_carbon::js::ACLexNumber"** %3, align 8
  call void @llvm.dbg.declare(metadata %"class.altered_carbon::js::ACLexNumber"** %3, metadata !2878, metadata !DIExpression()), !dbg !2879
  store %"class.altered_carbon::js::ACLexNumber"* %1, %"class.altered_carbon::js::ACLexNumber"** %4, align 8
  call void @llvm.dbg.declare(metadata %"class.altered_carbon::js::ACLexNumber"** %4, metadata !2880, metadata !DIExpression()), !dbg !2881
  %5 = load %"class.altered_carbon::js::ACLexNumber"*, %"class.altered_carbon::js::ACLexNumber"** %3, align 8
  call void @_ZN14altered_carbon2js11ACLexNumber12convertToIntEv(%"class.altered_carbon::js::ACLexNumber"* %5), !dbg !2881
  %6 = load %"class.altered_carbon::js::ACLexNumber"*, %"class.altered_carbon::js::ACLexNumber"** %4, align 8, !dbg !2881
  %7 = call i64 @_ZNK14altered_carbon2js11ACLexNumber6getIntEv(%"class.altered_carbon::js::ACLexNumber"* %6), !dbg !2881
  %8 = getelementptr inbounds %"class.altered_carbon::js::ACLexNumber", %"class.altered_carbon::js::ACLexNumber"* %5, i32 0, i32 2, !dbg !2881
  %9 = bitcast %union.anon* %8 to i64*, !dbg !2881
  %10 = load i64, i64* %9, align 8, !dbg !2881
  %11 = and i64 %10, %7, !dbg !2881
  store i64 %11, i64* %9, align 8, !dbg !2881
  ret %"class.altered_carbon::js::ACLexNumber"* %5, !dbg !2881
}

; Function Attrs: noinline nounwind optnone ssp uwtable
define dereferenceable(24) %"class.altered_carbon::js::ACLexNumber"* @_ZN14altered_carbon2js11ACLexNumberrSERKS1_(%"class.altered_carbon::js::ACLexNumber"*, %"class.altered_carbon::js::ACLexNumber"* dereferenceable(24)) #0 align 2 !dbg !2882 {
  %3 = alloca %"class.altered_carbon::js::ACLexNumber"*, align 8
  %4 = alloca %"class.altered_carbon::js::ACLexNumber"*, align 8
  store %"class.altered_carbon::js::ACLexNumber"* %0, %"class.altered_carbon::js::ACLexNumber"** %3, align 8
  call void @llvm.dbg.declare(metadata %"class.altered_carbon::js::ACLexNumber"** %3, metadata !2883, metadata !DIExpression()), !dbg !2884
  store %"class.altered_carbon::js::ACLexNumber"* %1, %"class.altered_carbon::js::ACLexNumber"** %4, align 8
  call void @llvm.dbg.declare(metadata %"class.altered_carbon::js::ACLexNumber"** %4, metadata !2885, metadata !DIExpression()), !dbg !2886
  %5 = load %"class.altered_carbon::js::ACLexNumber"*, %"class.altered_carbon::js::ACLexNumber"** %3, align 8
  call void @_ZN14altered_carbon2js11ACLexNumber12convertToIntEv(%"class.altered_carbon::js::ACLexNumber"* %5), !dbg !2886
  %6 = load %"class.altered_carbon::js::ACLexNumber"*, %"class.altered_carbon::js::ACLexNumber"** %4, align 8, !dbg !2886
  %7 = call i64 @_ZNK14altered_carbon2js11ACLexNumber6getIntEv(%"class.altered_carbon::js::ACLexNumber"* %6), !dbg !2886
  %8 = getelementptr inbounds %"class.altered_carbon::js::ACLexNumber", %"class.altered_carbon::js::ACLexNumber"* %5, i32 0, i32 2, !dbg !2886
  %9 = bitcast %union.anon* %8 to i64*, !dbg !2886
  %10 = load i64, i64* %9, align 8, !dbg !2886
  %11 = ashr i64 %10, %7, !dbg !2886
  store i64 %11, i64* %9, align 8, !dbg !2886
  ret %"class.altered_carbon::js::ACLexNumber"* %5, !dbg !2886
}

; Function Attrs: noinline nounwind optnone ssp uwtable
define dereferenceable(24) %"class.altered_carbon::js::ACLexNumber"* @_ZN14altered_carbon2js11ACLexNumberlSERKS1_(%"class.altered_carbon::js::ACLexNumber"*, %"class.altered_carbon::js::ACLexNumber"* dereferenceable(24)) #0 align 2 !dbg !2887 {
  %3 = alloca %"class.altered_carbon::js::ACLexNumber"*, align 8
  %4 = alloca %"class.altered_carbon::js::ACLexNumber"*, align 8
  store %"class.altered_carbon::js::ACLexNumber"* %0, %"class.altered_carbon::js::ACLexNumber"** %3, align 8
  call void @llvm.dbg.declare(metadata %"class.altered_carbon::js::ACLexNumber"** %3, metadata !2888, metadata !DIExpression()), !dbg !2889
  store %"class.altered_carbon::js::ACLexNumber"* %1, %"class.altered_carbon::js::ACLexNumber"** %4, align 8
  call void @llvm.dbg.declare(metadata %"class.altered_carbon::js::ACLexNumber"** %4, metadata !2890, metadata !DIExpression()), !dbg !2891
  %5 = load %"class.altered_carbon::js::ACLexNumber"*, %"class.altered_carbon::js::ACLexNumber"** %3, align 8
  call void @_ZN14altered_carbon2js11ACLexNumber12convertToIntEv(%"class.altered_carbon::js::ACLexNumber"* %5), !dbg !2891
  %6 = load %"class.altered_carbon::js::ACLexNumber"*, %"class.altered_carbon::js::ACLexNumber"** %4, align 8, !dbg !2891
  %7 = call i64 @_ZNK14altered_carbon2js11ACLexNumber6getIntEv(%"class.altered_carbon::js::ACLexNumber"* %6), !dbg !2891
  %8 = getelementptr inbounds %"class.altered_carbon::js::ACLexNumber", %"class.altered_carbon::js::ACLexNumber"* %5, i32 0, i32 2, !dbg !2891
  %9 = bitcast %union.anon* %8 to i64*, !dbg !2891
  %10 = load i64, i64* %9, align 8, !dbg !2891
  %11 = shl i64 %10, %7, !dbg !2891
  store i64 %11, i64* %9, align 8, !dbg !2891
  ret %"class.altered_carbon::js::ACLexNumber"* %5, !dbg !2891
}

; Function Attrs: noinline nounwind optnone ssp uwtable
define dereferenceable(160) %"class.std::__1::basic_ostream"* @_ZN14altered_carbon2jslsERNSt3__113basic_ostreamIcNS1_11char_traitsIcEEEERKNS0_11ACLexNumberE(%"class.std::__1::basic_ostream"* dereferenceable(160), %"class.altered_carbon::js::ACLexNumber"* dereferenceable(24)) #0 !dbg !2892 {
  %3 = alloca %"class.std::__1::basic_ostream"*, align 8
  %4 = alloca %"class.altered_carbon::js::ACLexNumber"*, align 8
  store %"class.std::__1::basic_ostream"* %0, %"class.std::__1::basic_ostream"** %3, align 8
  call void @llvm.dbg.declare(metadata %"class.std::__1::basic_ostream"** %3, metadata !2897, metadata !DIExpression()), !dbg !2898
  store %"class.altered_carbon::js::ACLexNumber"* %1, %"class.altered_carbon::js::ACLexNumber"** %4, align 8
  call void @llvm.dbg.declare(metadata %"class.altered_carbon::js::ACLexNumber"** %4, metadata !2899, metadata !DIExpression()), !dbg !2900
  %5 = load %"class.altered_carbon::js::ACLexNumber"*, %"class.altered_carbon::js::ACLexNumber"** %4, align 8, !dbg !2901
  %6 = getelementptr inbounds %"class.altered_carbon::js::ACLexNumber", %"class.altered_carbon::js::ACLexNumber"* %5, i32 0, i32 1, !dbg !2903
  %7 = load i8, i8* %6, align 8, !dbg !2903
  %8 = trunc i8 %7 to i1, !dbg !2903
  br i1 %8, label %9, label %17, !dbg !2904

; <label>:9:                                      ; preds = %2
  %10 = load %"class.std::__1::basic_ostream"*, %"class.std::__1::basic_ostream"** %3, align 8, !dbg !2905
  %11 = call dereferenceable(160) %"class.std::__1::basic_ostream"* @_ZNSt3__1lsINS_11char_traitsIcEEEERNS_13basic_ostreamIcT_EES6_PKc(%"class.std::__1::basic_ostream"* dereferenceable(160) %10, i8* getelementptr inbounds ([4 x i8], [4 x i8]* @.str, i32 0, i32 0)), !dbg !2907
  %12 = load %"class.altered_carbon::js::ACLexNumber"*, %"class.altered_carbon::js::ACLexNumber"** %4, align 8, !dbg !2908
  %13 = getelementptr inbounds %"class.altered_carbon::js::ACLexNumber", %"class.altered_carbon::js::ACLexNumber"* %12, i32 0, i32 2, !dbg !2909
  %14 = bitcast %union.anon* %13 to i64*, !dbg !2909
  %15 = load i64, i64* %14, align 8, !dbg !2909
  %16 = call dereferenceable(160) %"class.std::__1::basic_ostream"* @_ZNSt3__113basic_ostreamIcNS_11char_traitsIcEEElsEx(%"class.std::__1::basic_ostream"* %11, i64 %15), !dbg !2910
  br label %25, !dbg !2911

; <label>:17:                                     ; preds = %2
  %18 = load %"class.std::__1::basic_ostream"*, %"class.std::__1::basic_ostream"** %3, align 8, !dbg !2912
  %19 = call dereferenceable(160) %"class.std::__1::basic_ostream"* @_ZNSt3__1lsINS_11char_traitsIcEEEERNS_13basic_ostreamIcT_EES6_PKc(%"class.std::__1::basic_ostream"* dereferenceable(160) %18, i8* getelementptr inbounds ([4 x i8], [4 x i8]* @.str.1, i32 0, i32 0)), !dbg !2914
  %20 = load %"class.altered_carbon::js::ACLexNumber"*, %"class.altered_carbon::js::ACLexNumber"** %4, align 8, !dbg !2915
  %21 = getelementptr inbounds %"class.altered_carbon::js::ACLexNumber", %"class.altered_carbon::js::ACLexNumber"* %20, i32 0, i32 2, !dbg !2916
  %22 = bitcast %union.anon* %21 to double*, !dbg !2916
  %23 = load double, double* %22, align 8, !dbg !2916
  %24 = call dereferenceable(160) %"class.std::__1::basic_ostream"* @_ZNSt3__113basic_ostreamIcNS_11char_traitsIcEEElsEd(%"class.std::__1::basic_ostream"* %19, double %23), !dbg !2917
  br label %25

; <label>:25:                                     ; preds = %17, %9
  %26 = load %"class.std::__1::basic_ostream"*, %"class.std::__1::basic_ostream"** %3, align 8, !dbg !2918
  ret %"class.std::__1::basic_ostream"* %26, !dbg !2919
}

; Function Attrs: noinline nounwind optnone ssp uwtable
define linkonce_odr dereferenceable(160) %"class.std::__1::basic_ostream"* @_ZNSt3__1lsINS_11char_traitsIcEEEERNS_13basic_ostreamIcT_EES6_PKc(%"class.std::__1::basic_ostream"* dereferenceable(160), i8*) #0 !dbg !2920 {
  %3 = alloca %"class.std::__1::basic_ostream"*, align 8
  %4 = alloca i8*, align 8
  store %"class.std::__1::basic_ostream"* %0, %"class.std::__1::basic_ostream"** %3, align 8
  call void @llvm.dbg.declare(metadata %"class.std::__1::basic_ostream"** %3, metadata !2924, metadata !DIExpression()), !dbg !2925
  store i8* %1, i8** %4, align 8
  call void @llvm.dbg.declare(metadata i8** %4, metadata !2926, metadata !DIExpression()), !dbg !2927
  %5 = load %"class.std::__1::basic_ostream"*, %"class.std::__1::basic_ostream"** %3, align 8, !dbg !2928
  %6 = load i8*, i8** %4, align 8, !dbg !2929
  %7 = load i8*, i8** %4, align 8, !dbg !2930
  %8 = call i64 @_ZNSt3__111char_traitsIcE6lengthEPKc(i8* %7) #6, !dbg !2931
  %9 = call dereferenceable(160) %"class.std::__1::basic_ostream"* @_ZNSt3__124__put_character_sequenceIcNS_11char_traitsIcEEEERNS_13basic_ostreamIT_T0_EES7_PKS4_m(%"class.std::__1::basic_ostream"* dereferenceable(160) %5, i8* %6, i64 %8), !dbg !2932
  ret %"class.std::__1::basic_ostream"* %9, !dbg !2933
}

declare dereferenceable(160) %"class.std::__1::basic_ostream"* @_ZNSt3__113basic_ostreamIcNS_11char_traitsIcEEElsEx(%"class.std::__1::basic_ostream"*, i64) #2

declare dereferenceable(160) %"class.std::__1::basic_ostream"* @_ZNSt3__113basic_ostreamIcNS_11char_traitsIcEEElsEd(%"class.std::__1::basic_ostream"*, double) #2

; Function Attrs: noinline nounwind optnone ssp uwtable
define void @_ZN14altered_carbon2js10ACLexRegexC2ENSt3__112basic_stringIcNS2_11char_traitsIcEENS2_9allocatorIcEEEEbbb(%"class.altered_carbon::js::ACLexRegex"*, %"class.std::__1::basic_string"*, i1 zeroext, i1 zeroext, i1 zeroext) unnamed_addr #0 align 2 !dbg !2934 {
  %6 = alloca %"class.altered_carbon::js::ACLexRegex"*, align 8
  %7 = alloca i8, align 1
  %8 = alloca i8, align 1
  %9 = alloca i8, align 1
  store %"class.altered_carbon::js::ACLexRegex"* %0, %"class.altered_carbon::js::ACLexRegex"** %6, align 8
  call void @llvm.dbg.declare(metadata %"class.altered_carbon::js::ACLexRegex"** %6, metadata !2955, metadata !DIExpression()), !dbg !2957
  call void @llvm.dbg.declare(metadata %"class.std::__1::basic_string"* %1, metadata !2958, metadata !DIExpression()), !dbg !2959
  %10 = zext i1 %2 to i8
  store i8 %10, i8* %7, align 1
  call void @llvm.dbg.declare(metadata i8* %7, metadata !2960, metadata !DIExpression()), !dbg !2961
  %11 = zext i1 %3 to i8
  store i8 %11, i8* %8, align 1
  call void @llvm.dbg.declare(metadata i8* %8, metadata !2962, metadata !DIExpression()), !dbg !2963
  %12 = zext i1 %4 to i8
  store i8 %12, i8* %9, align 1
  call void @llvm.dbg.declare(metadata i8* %9, metadata !2964, metadata !DIExpression()), !dbg !2965
  %13 = load %"class.altered_carbon::js::ACLexRegex"*, %"class.altered_carbon::js::ACLexRegex"** %6, align 8
  %14 = bitcast %"class.altered_carbon::js::ACLexRegex"* %13 to i32 (...)***, !dbg !2966
  store i32 (...)** bitcast (i8** getelementptr inbounds ({ [4 x i8*] }, { [4 x i8*] }* @_ZTVN14altered_carbon2js10ACLexRegexE, i32 0, inrange i32 0, i32 2) to i32 (...)**), i32 (...)*** %14, align 8, !dbg !2966
  %15 = getelementptr inbounds %"class.altered_carbon::js::ACLexRegex", %"class.altered_carbon::js::ACLexRegex"* %13, i32 0, i32 1, !dbg !2967
  call void @_ZNSt3__112basic_stringIcNS_11char_traitsIcEENS_9allocatorIcEEEC1ERKS5_(%"class.std::__1::basic_string"* %15, %"class.std::__1::basic_string"* dereferenceable(24) %1), !dbg !2967
  %16 = getelementptr inbounds %"class.altered_carbon::js::ACLexRegex", %"class.altered_carbon::js::ACLexRegex"* %13, i32 0, i32 2, !dbg !2968
  %17 = load i8, i8* %7, align 1, !dbg !2969
  %18 = trunc i8 %17 to i1, !dbg !2969
  %19 = zext i1 %18 to i8, !dbg !2968
  store i8 %19, i8* %16, align 8, !dbg !2968
  %20 = getelementptr inbounds %"class.altered_carbon::js::ACLexRegex", %"class.altered_carbon::js::ACLexRegex"* %13, i32 0, i32 3, !dbg !2970
  %21 = load i8, i8* %8, align 1, !dbg !2971
  %22 = trunc i8 %21 to i1, !dbg !2971
  %23 = zext i1 %22 to i8, !dbg !2970
  store i8 %23, i8* %20, align 1, !dbg !2970
  %24 = getelementptr inbounds %"class.altered_carbon::js::ACLexRegex", %"class.altered_carbon::js::ACLexRegex"* %13, i32 0, i32 4, !dbg !2972
  %25 = load i8, i8* %9, align 1, !dbg !2973
  %26 = trunc i8 %25 to i1, !dbg !2973
  %27 = zext i1 %26 to i8, !dbg !2972
  store i8 %27, i8* %24, align 2, !dbg !2972
  ret void, !dbg !2974
}

declare void @_ZNSt3__112basic_stringIcNS_11char_traitsIcEENS_9allocatorIcEEEC1ERKS5_(%"class.std::__1::basic_string"*, %"class.std::__1::basic_string"* dereferenceable(24)) unnamed_addr #2

; Function Attrs: noinline nounwind optnone ssp uwtable
define void @_ZN14altered_carbon2js10ACLexRegexC1ENSt3__112basic_stringIcNS2_11char_traitsIcEENS2_9allocatorIcEEEEbbb(%"class.altered_carbon::js::ACLexRegex"*, %"class.std::__1::basic_string"*, i1 zeroext, i1 zeroext, i1 zeroext) unnamed_addr #0 align 2 !dbg !2975 {
  %6 = alloca %"class.altered_carbon::js::ACLexRegex"*, align 8
  %7 = alloca i8, align 1
  %8 = alloca i8, align 1
  %9 = alloca i8, align 1
  store %"class.altered_carbon::js::ACLexRegex"* %0, %"class.altered_carbon::js::ACLexRegex"** %6, align 8
  call void @llvm.dbg.declare(metadata %"class.altered_carbon::js::ACLexRegex"** %6, metadata !2976, metadata !DIExpression()), !dbg !2977
  call void @llvm.dbg.declare(metadata %"class.std::__1::basic_string"* %1, metadata !2978, metadata !DIExpression()), !dbg !2979
  %10 = zext i1 %2 to i8
  store i8 %10, i8* %7, align 1
  call void @llvm.dbg.declare(metadata i8* %7, metadata !2980, metadata !DIExpression()), !dbg !2981
  %11 = zext i1 %3 to i8
  store i8 %11, i8* %8, align 1
  call void @llvm.dbg.declare(metadata i8* %8, metadata !2982, metadata !DIExpression()), !dbg !2983
  %12 = zext i1 %4 to i8
  store i8 %12, i8* %9, align 1
  call void @llvm.dbg.declare(metadata i8* %9, metadata !2984, metadata !DIExpression()), !dbg !2985
  %13 = load %"class.altered_carbon::js::ACLexRegex"*, %"class.altered_carbon::js::ACLexRegex"** %6, align 8
  %14 = load i8, i8* %7, align 1, !dbg !2986
  %15 = trunc i8 %14 to i1, !dbg !2986
  %16 = load i8, i8* %8, align 1, !dbg !2986
  %17 = trunc i8 %16 to i1, !dbg !2986
  %18 = load i8, i8* %9, align 1, !dbg !2986
  %19 = trunc i8 %18 to i1, !dbg !2986
  call void @_ZN14altered_carbon2js10ACLexRegexC2ENSt3__112basic_stringIcNS2_11char_traitsIcEENS2_9allocatorIcEEEEbbb(%"class.altered_carbon::js::ACLexRegex"* %13, %"class.std::__1::basic_string"* %1, i1 zeroext %15, i1 zeroext %17, i1 zeroext %19), !dbg !2986
  ret void, !dbg !2987
}

; Function Attrs: noinline nounwind optnone ssp uwtable
define void @_ZN14altered_carbon2js10ACLexRegexC2ERKS1_(%"class.altered_carbon::js::ACLexRegex"*, %"class.altered_carbon::js::ACLexRegex"* dereferenceable(40)) unnamed_addr #0 align 2 !dbg !2988 {
  %3 = alloca %"class.altered_carbon::js::ACLexRegex"*, align 8
  %4 = alloca %"class.altered_carbon::js::ACLexRegex"*, align 8
  store %"class.altered_carbon::js::ACLexRegex"* %0, %"class.altered_carbon::js::ACLexRegex"** %3, align 8
  call void @llvm.dbg.declare(metadata %"class.altered_carbon::js::ACLexRegex"** %3, metadata !2989, metadata !DIExpression()), !dbg !2990
  store %"class.altered_carbon::js::ACLexRegex"* %1, %"class.altered_carbon::js::ACLexRegex"** %4, align 8
  call void @llvm.dbg.declare(metadata %"class.altered_carbon::js::ACLexRegex"** %4, metadata !2991, metadata !DIExpression()), !dbg !2992
  %5 = load %"class.altered_carbon::js::ACLexRegex"*, %"class.altered_carbon::js::ACLexRegex"** %3, align 8
  %6 = bitcast %"class.altered_carbon::js::ACLexRegex"* %5 to i32 (...)***, !dbg !2993
  store i32 (...)** bitcast (i8** getelementptr inbounds ({ [4 x i8*] }, { [4 x i8*] }* @_ZTVN14altered_carbon2js10ACLexRegexE, i32 0, inrange i32 0, i32 2) to i32 (...)**), i32 (...)*** %6, align 8, !dbg !2993
  %7 = getelementptr inbounds %"class.altered_carbon::js::ACLexRegex", %"class.altered_carbon::js::ACLexRegex"* %5, i32 0, i32 1, !dbg !2994
  %8 = load %"class.altered_carbon::js::ACLexRegex"*, %"class.altered_carbon::js::ACLexRegex"** %4, align 8, !dbg !2995
  %9 = getelementptr inbounds %"class.altered_carbon::js::ACLexRegex", %"class.altered_carbon::js::ACLexRegex"* %8, i32 0, i32 1, !dbg !2996
  call void @_ZNSt3__112basic_stringIcNS_11char_traitsIcEENS_9allocatorIcEEEC1ERKS5_(%"class.std::__1::basic_string"* %7, %"class.std::__1::basic_string"* dereferenceable(24) %9), !dbg !2994
  %10 = getelementptr inbounds %"class.altered_carbon::js::ACLexRegex", %"class.altered_carbon::js::ACLexRegex"* %5, i32 0, i32 2, !dbg !2997
  %11 = load %"class.altered_carbon::js::ACLexRegex"*, %"class.altered_carbon::js::ACLexRegex"** %4, align 8, !dbg !2998
  %12 = getelementptr inbounds %"class.altered_carbon::js::ACLexRegex", %"class.altered_carbon::js::ACLexRegex"* %11, i32 0, i32 2, !dbg !2999
  %13 = load i8, i8* %12, align 8, !dbg !2999
  %14 = trunc i8 %13 to i1, !dbg !2999
  %15 = zext i1 %14 to i8, !dbg !2997
  store i8 %15, i8* %10, align 8, !dbg !2997
  %16 = getelementptr inbounds %"class.altered_carbon::js::ACLexRegex", %"class.altered_carbon::js::ACLexRegex"* %5, i32 0, i32 3, !dbg !3000
  %17 = load %"class.altered_carbon::js::ACLexRegex"*, %"class.altered_carbon::js::ACLexRegex"** %4, align 8, !dbg !3001
  %18 = getelementptr inbounds %"class.altered_carbon::js::ACLexRegex", %"class.altered_carbon::js::ACLexRegex"* %17, i32 0, i32 3, !dbg !3002
  %19 = load i8, i8* %18, align 1, !dbg !3002
  %20 = trunc i8 %19 to i1, !dbg !3002
  %21 = zext i1 %20 to i8, !dbg !3000
  store i8 %21, i8* %16, align 1, !dbg !3000
  %22 = getelementptr inbounds %"class.altered_carbon::js::ACLexRegex", %"class.altered_carbon::js::ACLexRegex"* %5, i32 0, i32 4, !dbg !3003
  %23 = load %"class.altered_carbon::js::ACLexRegex"*, %"class.altered_carbon::js::ACLexRegex"** %4, align 8, !dbg !3004
  %24 = getelementptr inbounds %"class.altered_carbon::js::ACLexRegex", %"class.altered_carbon::js::ACLexRegex"* %23, i32 0, i32 4, !dbg !3005
  %25 = load i8, i8* %24, align 2, !dbg !3005
  %26 = trunc i8 %25 to i1, !dbg !3005
  %27 = zext i1 %26 to i8, !dbg !3003
  store i8 %27, i8* %22, align 2, !dbg !3003
  ret void, !dbg !3006
}

; Function Attrs: noinline nounwind optnone ssp uwtable
define void @_ZN14altered_carbon2js10ACLexRegexC1ERKS1_(%"class.altered_carbon::js::ACLexRegex"*, %"class.altered_carbon::js::ACLexRegex"* dereferenceable(40)) unnamed_addr #0 align 2 !dbg !3007 {
  %3 = alloca %"class.altered_carbon::js::ACLexRegex"*, align 8
  %4 = alloca %"class.altered_carbon::js::ACLexRegex"*, align 8
  store %"class.altered_carbon::js::ACLexRegex"* %0, %"class.altered_carbon::js::ACLexRegex"** %3, align 8
  call void @llvm.dbg.declare(metadata %"class.altered_carbon::js::ACLexRegex"** %3, metadata !3008, metadata !DIExpression()), !dbg !3009
  store %"class.altered_carbon::js::ACLexRegex"* %1, %"class.altered_carbon::js::ACLexRegex"** %4, align 8
  call void @llvm.dbg.declare(metadata %"class.altered_carbon::js::ACLexRegex"** %4, metadata !3010, metadata !DIExpression()), !dbg !3011
  %5 = load %"class.altered_carbon::js::ACLexRegex"*, %"class.altered_carbon::js::ACLexRegex"** %3, align 8
  %6 = load %"class.altered_carbon::js::ACLexRegex"*, %"class.altered_carbon::js::ACLexRegex"** %4, align 8, !dbg !3012
  call void @_ZN14altered_carbon2js10ACLexRegexC2ERKS1_(%"class.altered_carbon::js::ACLexRegex"* %5, %"class.altered_carbon::js::ACLexRegex"* dereferenceable(40) %6), !dbg !3012
  ret void, !dbg !3013
}

; Function Attrs: noinline nounwind optnone ssp uwtable
define void @_ZN14altered_carbon2js10ACLexRegexC2Ev(%"class.altered_carbon::js::ACLexRegex"*) unnamed_addr #0 align 2 !dbg !3014 {
  %2 = alloca %"class.std::__1::allocator"*, align 8
  call void @llvm.dbg.declare(metadata %"class.std::__1::allocator"** %2, metadata !3015, metadata !DIExpression()), !dbg !3018
  %3 = alloca %"struct.std::__1::__compressed_pair_elem.2"*, align 8
  call void @llvm.dbg.declare(metadata %"struct.std::__1::__compressed_pair_elem.2"** %3, metadata !3036, metadata !DIExpression()), !dbg !3038
  %4 = alloca %"struct.std::__1::__compressed_pair_elem"*, align 8
  call void @llvm.dbg.declare(metadata %"struct.std::__1::__compressed_pair_elem"** %4, metadata !3039, metadata !DIExpression()), !dbg !3042
  %5 = alloca %"class.std::__1::__compressed_pair"*, align 8
  call void @llvm.dbg.declare(metadata %"class.std::__1::__compressed_pair"** %5, metadata !3044, metadata !DIExpression()), !dbg !3046
  %6 = alloca %"class.std::__1::__compressed_pair"*, align 8
  call void @llvm.dbg.declare(metadata %"class.std::__1::__compressed_pair"** %6, metadata !3047, metadata !DIExpression()), !dbg !3048
  %7 = alloca %"class.std::__1::basic_string"*, align 8
  call void @llvm.dbg.declare(metadata %"class.std::__1::basic_string"** %7, metadata !3049, metadata !DIExpression()), !dbg !3051
  %8 = alloca i8*, align 8
  call void @llvm.dbg.declare(metadata i8** %8, metadata !3052, metadata !DIExpression()), !dbg !3053
  %9 = alloca %"class.std::__1::basic_string"*, align 8
  call void @llvm.dbg.declare(metadata %"class.std::__1::basic_string"** %9, metadata !3054, metadata !DIExpression()), !dbg !3055
  %10 = alloca i8*, align 8
  call void @llvm.dbg.declare(metadata i8** %10, metadata !3056, metadata !DIExpression()), !dbg !3057
  %11 = alloca %"class.altered_carbon::js::ACLexRegex"*, align 8
  store %"class.altered_carbon::js::ACLexRegex"* %0, %"class.altered_carbon::js::ACLexRegex"** %11, align 8
  call void @llvm.dbg.declare(metadata %"class.altered_carbon::js::ACLexRegex"** %11, metadata !3058, metadata !DIExpression()), !dbg !3059
  %12 = load %"class.altered_carbon::js::ACLexRegex"*, %"class.altered_carbon::js::ACLexRegex"** %11, align 8
  %13 = bitcast %"class.altered_carbon::js::ACLexRegex"* %12 to i32 (...)***, !dbg !3060
  store i32 (...)** bitcast (i8** getelementptr inbounds ({ [4 x i8*] }, { [4 x i8*] }* @_ZTVN14altered_carbon2js10ACLexRegexE, i32 0, inrange i32 0, i32 2) to i32 (...)**), i32 (...)*** %13, align 8, !dbg !3060
  %14 = getelementptr inbounds %"class.altered_carbon::js::ACLexRegex", %"class.altered_carbon::js::ACLexRegex"* %12, i32 0, i32 1, !dbg !3061
  store %"class.std::__1::basic_string"* %14, %"class.std::__1::basic_string"** %9, align 8
  store i8* getelementptr inbounds ([1 x i8], [1 x i8]* @.str.2, i32 0, i32 0), i8** %10, align 8
  %15 = load %"class.std::__1::basic_string"*, %"class.std::__1::basic_string"** %9, align 8
  %16 = load i8*, i8** %10, align 8, !dbg !3062
  store %"class.std::__1::basic_string"* %15, %"class.std::__1::basic_string"** %7, align 8
  store i8* %16, i8** %8, align 8
  %17 = load %"class.std::__1::basic_string"*, %"class.std::__1::basic_string"** %7, align 8
  %18 = bitcast %"class.std::__1::basic_string"* %17 to %"class.std::__1::__basic_string_common"*, !dbg !3063
  %19 = getelementptr inbounds %"class.std::__1::basic_string", %"class.std::__1::basic_string"* %17, i32 0, i32 0, !dbg !3064
  store %"class.std::__1::__compressed_pair"* %19, %"class.std::__1::__compressed_pair"** %6, align 8
  %20 = load %"class.std::__1::__compressed_pair"*, %"class.std::__1::__compressed_pair"** %6, align 8
  store %"class.std::__1::__compressed_pair"* %20, %"class.std::__1::__compressed_pair"** %5, align 8
  %21 = load %"class.std::__1::__compressed_pair"*, %"class.std::__1::__compressed_pair"** %5, align 8
  %22 = bitcast %"class.std::__1::__compressed_pair"* %21 to %"struct.std::__1::__compressed_pair_elem"*, !dbg !3065
  store %"struct.std::__1::__compressed_pair_elem"* %22, %"struct.std::__1::__compressed_pair_elem"** %4, align 8
  %23 = load %"struct.std::__1::__compressed_pair_elem"*, %"struct.std::__1::__compressed_pair_elem"** %4, align 8
  %24 = getelementptr inbounds %"struct.std::__1::__compressed_pair_elem", %"struct.std::__1::__compressed_pair_elem"* %23, i32 0, i32 0, !dbg !3066
  %25 = bitcast %"struct.std::__1::basic_string<char, std::__1::char_traits<char>, std::__1::allocator<char> >::__rep"* %24 to i8*, !dbg !3066
  call void @llvm.memset.p0i8.i64(i8* align 8 %25, i8 0, i64 24, i1 false), !dbg !3066
  %26 = bitcast %"class.std::__1::__compressed_pair"* %21 to %"struct.std::__1::__compressed_pair_elem.2"*, !dbg !3065
  store %"struct.std::__1::__compressed_pair_elem.2"* %26, %"struct.std::__1::__compressed_pair_elem.2"** %3, align 8
  %27 = load %"struct.std::__1::__compressed_pair_elem.2"*, %"struct.std::__1::__compressed_pair_elem.2"** %3, align 8
  %28 = bitcast %"struct.std::__1::__compressed_pair_elem.2"* %27 to %"class.std::__1::allocator"*, !dbg !3067
  store %"class.std::__1::allocator"* %28, %"class.std::__1::allocator"** %2, align 8
  %29 = load %"class.std::__1::allocator"*, %"class.std::__1::allocator"** %2, align 8
  %30 = load i8*, i8** %8, align 8, !dbg !3068
  %31 = load i8*, i8** %8, align 8, !dbg !3070
  %32 = call i64 @_ZNSt3__111char_traitsIcE6lengthEPKc(i8* %31) #6, !dbg !3071
  call void @_ZNSt3__112basic_stringIcNS_11char_traitsIcEENS_9allocatorIcEEE6__initEPKcm(%"class.std::__1::basic_string"* %17, i8* %30, i64 %32) #6, !dbg !3072
  %33 = getelementptr inbounds %"class.altered_carbon::js::ACLexRegex", %"class.altered_carbon::js::ACLexRegex"* %12, i32 0, i32 2, !dbg !3073
  store i8 0, i8* %33, align 8, !dbg !3073
  %34 = getelementptr inbounds %"class.altered_carbon::js::ACLexRegex", %"class.altered_carbon::js::ACLexRegex"* %12, i32 0, i32 3, !dbg !3074
  store i8 0, i8* %34, align 1, !dbg !3074
  %35 = getelementptr inbounds %"class.altered_carbon::js::ACLexRegex", %"class.altered_carbon::js::ACLexRegex"* %12, i32 0, i32 4, !dbg !3075
  store i8 0, i8* %35, align 2, !dbg !3075
  ret void, !dbg !3076
}

; Function Attrs: noinline nounwind optnone ssp uwtable
define void @_ZN14altered_carbon2js10ACLexRegexC1Ev(%"class.altered_carbon::js::ACLexRegex"*) unnamed_addr #0 align 2 !dbg !3077 {
  %2 = alloca %"class.altered_carbon::js::ACLexRegex"*, align 8
  store %"class.altered_carbon::js::ACLexRegex"* %0, %"class.altered_carbon::js::ACLexRegex"** %2, align 8
  call void @llvm.dbg.declare(metadata %"class.altered_carbon::js::ACLexRegex"** %2, metadata !3078, metadata !DIExpression()), !dbg !3079
  %3 = load %"class.altered_carbon::js::ACLexRegex"*, %"class.altered_carbon::js::ACLexRegex"** %2, align 8
  call void @_ZN14altered_carbon2js10ACLexRegexC2Ev(%"class.altered_carbon::js::ACLexRegex"* %3), !dbg !3080
  ret void, !dbg !3081
}

; Function Attrs: noinline nounwind optnone ssp uwtable
define dereferenceable(160) %"class.std::__1::basic_ostream"* @_ZN14altered_carbon2jslsERNSt3__113basic_ostreamIcNS1_11char_traitsIcEEEERKNS0_10ACLexRegexE(%"class.std::__1::basic_ostream"* dereferenceable(160), %"class.altered_carbon::js::ACLexRegex"* dereferenceable(40)) #0 !dbg !3082 {
  %3 = alloca %"class.std::__1::basic_ostream"*, align 8
  %4 = alloca %"class.altered_carbon::js::ACLexRegex"*, align 8
  store %"class.std::__1::basic_ostream"* %0, %"class.std::__1::basic_ostream"** %3, align 8
  call void @llvm.dbg.declare(metadata %"class.std::__1::basic_ostream"** %3, metadata !3085, metadata !DIExpression()), !dbg !3086
  store %"class.altered_carbon::js::ACLexRegex"* %1, %"class.altered_carbon::js::ACLexRegex"** %4, align 8
  call void @llvm.dbg.declare(metadata %"class.altered_carbon::js::ACLexRegex"** %4, metadata !3087, metadata !DIExpression()), !dbg !3088
  %5 = load %"class.std::__1::basic_ostream"*, %"class.std::__1::basic_ostream"** %3, align 8, !dbg !3089
  %6 = call dereferenceable(160) %"class.std::__1::basic_ostream"* @_ZNSt3__1lsINS_11char_traitsIcEEEERNS_13basic_ostreamIcT_EES6_PKc(%"class.std::__1::basic_ostream"* dereferenceable(160) %5, i8* getelementptr inbounds ([2 x i8], [2 x i8]* @.str.3, i32 0, i32 0)), !dbg !3090
  %7 = load %"class.altered_carbon::js::ACLexRegex"*, %"class.altered_carbon::js::ACLexRegex"** %4, align 8, !dbg !3091
  %8 = getelementptr inbounds %"class.altered_carbon::js::ACLexRegex", %"class.altered_carbon::js::ACLexRegex"* %7, i32 0, i32 1, !dbg !3092
  %9 = call dereferenceable(160) %"class.std::__1::basic_ostream"* @_ZNSt3__1lsIcNS_11char_traitsIcEENS_9allocatorIcEEEERNS_13basic_ostreamIT_T0_EES9_RKNS_12basic_stringIS6_S7_T1_EE(%"class.std::__1::basic_ostream"* dereferenceable(160) %6, %"class.std::__1::basic_string"* dereferenceable(24) %8), !dbg !3093
  %10 = call dereferenceable(160) %"class.std::__1::basic_ostream"* @_ZNSt3__1lsINS_11char_traitsIcEEEERNS_13basic_ostreamIcT_EES6_PKc(%"class.std::__1::basic_ostream"* dereferenceable(160) %9, i8* getelementptr inbounds ([2 x i8], [2 x i8]* @.str.3, i32 0, i32 0)), !dbg !3094
  %11 = load %"class.altered_carbon::js::ACLexRegex"*, %"class.altered_carbon::js::ACLexRegex"** %4, align 8, !dbg !3095
  %12 = getelementptr inbounds %"class.altered_carbon::js::ACLexRegex", %"class.altered_carbon::js::ACLexRegex"* %11, i32 0, i32 2, !dbg !3097
  %13 = load i8, i8* %12, align 8, !dbg !3097
  %14 = trunc i8 %13 to i1, !dbg !3097
  br i1 %14, label %15, label %18, !dbg !3098

; <label>:15:                                     ; preds = %2
  %16 = load %"class.std::__1::basic_ostream"*, %"class.std::__1::basic_ostream"** %3, align 8, !dbg !3099
  %17 = call dereferenceable(160) %"class.std::__1::basic_ostream"* @_ZNSt3__1lsINS_11char_traitsIcEEEERNS_13basic_ostreamIcT_EES6_PKc(%"class.std::__1::basic_ostream"* dereferenceable(160) %16, i8* getelementptr inbounds ([2 x i8], [2 x i8]* @.str.4, i32 0, i32 0)), !dbg !3100
  br label %18, !dbg !3099

; <label>:18:                                     ; preds = %15, %2
  %19 = load %"class.altered_carbon::js::ACLexRegex"*, %"class.altered_carbon::js::ACLexRegex"** %4, align 8, !dbg !3101
  %20 = getelementptr inbounds %"class.altered_carbon::js::ACLexRegex", %"class.altered_carbon::js::ACLexRegex"* %19, i32 0, i32 3, !dbg !3103
  %21 = load i8, i8* %20, align 1, !dbg !3103
  %22 = trunc i8 %21 to i1, !dbg !3103
  br i1 %22, label %23, label %26, !dbg !3104

; <label>:23:                                     ; preds = %18
  %24 = load %"class.std::__1::basic_ostream"*, %"class.std::__1::basic_ostream"** %3, align 8, !dbg !3105
  %25 = call dereferenceable(160) %"class.std::__1::basic_ostream"* @_ZNSt3__1lsINS_11char_traitsIcEEEERNS_13basic_ostreamIcT_EES6_PKc(%"class.std::__1::basic_ostream"* dereferenceable(160) %24, i8* getelementptr inbounds ([2 x i8], [2 x i8]* @.str.5, i32 0, i32 0)), !dbg !3106
  br label %26, !dbg !3105

; <label>:26:                                     ; preds = %23, %18
  %27 = load %"class.altered_carbon::js::ACLexRegex"*, %"class.altered_carbon::js::ACLexRegex"** %4, align 8, !dbg !3107
  %28 = getelementptr inbounds %"class.altered_carbon::js::ACLexRegex", %"class.altered_carbon::js::ACLexRegex"* %27, i32 0, i32 4, !dbg !3109
  %29 = load i8, i8* %28, align 2, !dbg !3109
  %30 = trunc i8 %29 to i1, !dbg !3109
  br i1 %30, label %31, label %34, !dbg !3110

; <label>:31:                                     ; preds = %26
  %32 = load %"class.std::__1::basic_ostream"*, %"class.std::__1::basic_ostream"** %3, align 8, !dbg !3111
  %33 = call dereferenceable(160) %"class.std::__1::basic_ostream"* @_ZNSt3__1lsINS_11char_traitsIcEEEERNS_13basic_ostreamIcT_EES6_PKc(%"class.std::__1::basic_ostream"* dereferenceable(160) %32, i8* getelementptr inbounds ([2 x i8], [2 x i8]* @.str.6, i32 0, i32 0)), !dbg !3112
  br label %34, !dbg !3111

; <label>:34:                                     ; preds = %31, %26
  %35 = load %"class.std::__1::basic_ostream"*, %"class.std::__1::basic_ostream"** %3, align 8, !dbg !3113
  ret %"class.std::__1::basic_ostream"* %35, !dbg !3114
}

; Function Attrs: noinline nounwind optnone ssp uwtable
define linkonce_odr dereferenceable(160) %"class.std::__1::basic_ostream"* @_ZNSt3__1lsIcNS_11char_traitsIcEENS_9allocatorIcEEEERNS_13basic_ostreamIT_T0_EES9_RKNS_12basic_stringIS6_S7_T1_EE(%"class.std::__1::basic_ostream"* dereferenceable(160), %"class.std::__1::basic_string"* dereferenceable(24)) #0 !dbg !3115 {
  %3 = alloca %"struct.std::__1::__compressed_pair_elem"*, align 8
  call void @llvm.dbg.declare(metadata %"struct.std::__1::__compressed_pair_elem"** %3, metadata !3118, metadata !DIExpression()), !dbg !3121
  %4 = alloca %"class.std::__1::__compressed_pair"*, align 8
  call void @llvm.dbg.declare(metadata %"class.std::__1::__compressed_pair"** %4, metadata !3129, metadata !DIExpression()), !dbg !3131
  %5 = alloca %"class.std::__1::basic_string"*, align 8
  call void @llvm.dbg.declare(metadata %"class.std::__1::basic_string"** %5, metadata !3132, metadata !DIExpression()), !dbg !3134
  %6 = alloca %"struct.std::__1::__compressed_pair_elem"*, align 8
  call void @llvm.dbg.declare(metadata %"struct.std::__1::__compressed_pair_elem"** %6, metadata !3118, metadata !DIExpression()), !dbg !3135
  %7 = alloca %"class.std::__1::__compressed_pair"*, align 8
  call void @llvm.dbg.declare(metadata %"class.std::__1::__compressed_pair"** %7, metadata !3129, metadata !DIExpression()), !dbg !3140
  %8 = alloca %"class.std::__1::basic_string"*, align 8
  call void @llvm.dbg.declare(metadata %"class.std::__1::basic_string"** %8, metadata !3141, metadata !DIExpression()), !dbg !3142
  %9 = alloca %"struct.std::__1::__compressed_pair_elem"*, align 8
  call void @llvm.dbg.declare(metadata %"struct.std::__1::__compressed_pair_elem"** %9, metadata !3118, metadata !DIExpression()), !dbg !3143
  %10 = alloca %"class.std::__1::__compressed_pair"*, align 8
  call void @llvm.dbg.declare(metadata %"class.std::__1::__compressed_pair"** %10, metadata !3129, metadata !DIExpression()), !dbg !3148
  %11 = alloca %"class.std::__1::basic_string"*, align 8
  call void @llvm.dbg.declare(metadata %"class.std::__1::basic_string"** %11, metadata !3149, metadata !DIExpression()), !dbg !3150
  %12 = alloca %"class.std::__1::basic_string"*, align 8
  call void @llvm.dbg.declare(metadata %"class.std::__1::basic_string"** %12, metadata !3151, metadata !DIExpression()), !dbg !3152
  %13 = alloca i8*, align 8
  call void @llvm.dbg.declare(metadata i8** %13, metadata !3153, metadata !DIExpression()), !dbg !3159
  %14 = alloca %"struct.std::__1::__compressed_pair_elem"*, align 8
  call void @llvm.dbg.declare(metadata %"struct.std::__1::__compressed_pair_elem"** %14, metadata !3118, metadata !DIExpression()), !dbg !3163
  %15 = alloca %"class.std::__1::__compressed_pair"*, align 8
  call void @llvm.dbg.declare(metadata %"class.std::__1::__compressed_pair"** %15, metadata !3129, metadata !DIExpression()), !dbg !3170
  %16 = alloca %"class.std::__1::basic_string"*, align 8
  call void @llvm.dbg.declare(metadata %"class.std::__1::basic_string"** %16, metadata !3171, metadata !DIExpression()), !dbg !3172
  %17 = alloca i8*, align 8
  call void @llvm.dbg.declare(metadata i8** %17, metadata !3173, metadata !DIExpression()), !dbg !3177
  %18 = alloca i8*, align 8
  call void @llvm.dbg.declare(metadata i8** %18, metadata !3198, metadata !DIExpression()), !dbg !3199
  %19 = alloca %"struct.std::__1::__compressed_pair_elem"*, align 8
  call void @llvm.dbg.declare(metadata %"struct.std::__1::__compressed_pair_elem"** %19, metadata !3118, metadata !DIExpression()), !dbg !3200
  %20 = alloca %"class.std::__1::__compressed_pair"*, align 8
  call void @llvm.dbg.declare(metadata %"class.std::__1::__compressed_pair"** %20, metadata !3129, metadata !DIExpression()), !dbg !3203
  %21 = alloca %"class.std::__1::basic_string"*, align 8
  call void @llvm.dbg.declare(metadata %"class.std::__1::basic_string"** %21, metadata !3204, metadata !DIExpression()), !dbg !3205
  %22 = alloca %"struct.std::__1::__compressed_pair_elem"*, align 8
  call void @llvm.dbg.declare(metadata %"struct.std::__1::__compressed_pair_elem"** %22, metadata !3118, metadata !DIExpression()), !dbg !3206
  %23 = alloca %"class.std::__1::__compressed_pair"*, align 8
  call void @llvm.dbg.declare(metadata %"class.std::__1::__compressed_pair"** %23, metadata !3129, metadata !DIExpression()), !dbg !3210
  %24 = alloca %"class.std::__1::basic_string"*, align 8
  call void @llvm.dbg.declare(metadata %"class.std::__1::basic_string"** %24, metadata !3149, metadata !DIExpression()), !dbg !3211
  %25 = alloca %"class.std::__1::basic_string"*, align 8
  call void @llvm.dbg.declare(metadata %"class.std::__1::basic_string"** %25, metadata !3212, metadata !DIExpression()), !dbg !3213
  %26 = alloca %"class.std::__1::basic_string"*, align 8
  call void @llvm.dbg.declare(metadata %"class.std::__1::basic_string"** %26, metadata !3214, metadata !DIExpression()), !dbg !3215
  %27 = alloca %"class.std::__1::basic_ostream"*, align 8
  %28 = alloca %"class.std::__1::basic_string"*, align 8
  store %"class.std::__1::basic_ostream"* %0, %"class.std::__1::basic_ostream"** %27, align 8
  call void @llvm.dbg.declare(metadata %"class.std::__1::basic_ostream"** %27, metadata !3216, metadata !DIExpression()), !dbg !3217
  store %"class.std::__1::basic_string"* %1, %"class.std::__1::basic_string"** %28, align 8
  call void @llvm.dbg.declare(metadata %"class.std::__1::basic_string"** %28, metadata !3218, metadata !DIExpression()), !dbg !3219
  %29 = load %"class.std::__1::basic_ostream"*, %"class.std::__1::basic_ostream"** %27, align 8, !dbg !3220
  %30 = load %"class.std::__1::basic_string"*, %"class.std::__1::basic_string"** %28, align 8, !dbg !3221
  store %"class.std::__1::basic_string"* %30, %"class.std::__1::basic_string"** %26, align 8
  %31 = load %"class.std::__1::basic_string"*, %"class.std::__1::basic_string"** %26, align 8
  store %"class.std::__1::basic_string"* %31, %"class.std::__1::basic_string"** %25, align 8
  %32 = load %"class.std::__1::basic_string"*, %"class.std::__1::basic_string"** %25, align 8
  store %"class.std::__1::basic_string"* %32, %"class.std::__1::basic_string"** %24, align 8
  %33 = load %"class.std::__1::basic_string"*, %"class.std::__1::basic_string"** %24, align 8
  %34 = getelementptr inbounds %"class.std::__1::basic_string", %"class.std::__1::basic_string"* %33, i32 0, i32 0, !dbg !3222
  store %"class.std::__1::__compressed_pair"* %34, %"class.std::__1::__compressed_pair"** %23, align 8
  %35 = load %"class.std::__1::__compressed_pair"*, %"class.std::__1::__compressed_pair"** %23, align 8
  %36 = bitcast %"class.std::__1::__compressed_pair"* %35 to %"struct.std::__1::__compressed_pair_elem"*, !dbg !3223
  store %"struct.std::__1::__compressed_pair_elem"* %36, %"struct.std::__1::__compressed_pair_elem"** %22, align 8
  %37 = load %"struct.std::__1::__compressed_pair_elem"*, %"struct.std::__1::__compressed_pair_elem"** %22, align 8
  %38 = getelementptr inbounds %"struct.std::__1::__compressed_pair_elem", %"struct.std::__1::__compressed_pair_elem"* %37, i32 0, i32 0, !dbg !3224
  %39 = getelementptr inbounds %"struct.std::__1::basic_string<char, std::__1::char_traits<char>, std::__1::allocator<char> >::__rep", %"struct.std::__1::basic_string<char, std::__1::char_traits<char>, std::__1::allocator<char> >::__rep"* %38, i32 0, i32 0, !dbg !3225
  %40 = bitcast %union.anon.0* %39 to %"struct.std::__1::basic_string<char, std::__1::char_traits<char>, std::__1::allocator<char> >::__short"*, !dbg !3225
  %41 = getelementptr inbounds %"struct.std::__1::basic_string<char, std::__1::char_traits<char>, std::__1::allocator<char> >::__short", %"struct.std::__1::basic_string<char, std::__1::char_traits<char>, std::__1::allocator<char> >::__short"* %40, i32 0, i32 0, !dbg !3226
  %42 = bitcast %union.anon.1* %41 to i8*, !dbg !3226
  %43 = load i8, i8* %42, align 8, !dbg !3226
  %44 = zext i8 %43 to i64, !dbg !3222
  %45 = and i64 %44, 1, !dbg !3227
  %46 = icmp ne i64 %45, 0, !dbg !3222
  br i1 %46, label %47, label %58, !dbg !3228

; <label>:47:                                     ; preds = %2
  store %"class.std::__1::basic_string"* %32, %"class.std::__1::basic_string"** %16, align 8
  %48 = load %"class.std::__1::basic_string"*, %"class.std::__1::basic_string"** %16, align 8
  %49 = getelementptr inbounds %"class.std::__1::basic_string", %"class.std::__1::basic_string"* %48, i32 0, i32 0, !dbg !3229
  store %"class.std::__1::__compressed_pair"* %49, %"class.std::__1::__compressed_pair"** %15, align 8
  %50 = load %"class.std::__1::__compressed_pair"*, %"class.std::__1::__compressed_pair"** %15, align 8
  %51 = bitcast %"class.std::__1::__compressed_pair"* %50 to %"struct.std::__1::__compressed_pair_elem"*, !dbg !3230
  store %"struct.std::__1::__compressed_pair_elem"* %51, %"struct.std::__1::__compressed_pair_elem"** %14, align 8
  %52 = load %"struct.std::__1::__compressed_pair_elem"*, %"struct.std::__1::__compressed_pair_elem"** %14, align 8
  %53 = getelementptr inbounds %"struct.std::__1::__compressed_pair_elem", %"struct.std::__1::__compressed_pair_elem"* %52, i32 0, i32 0, !dbg !3231
  %54 = getelementptr inbounds %"struct.std::__1::basic_string<char, std::__1::char_traits<char>, std::__1::allocator<char> >::__rep", %"struct.std::__1::basic_string<char, std::__1::char_traits<char>, std::__1::allocator<char> >::__rep"* %53, i32 0, i32 0, !dbg !3232
  %55 = bitcast %union.anon.0* %54 to %"struct.std::__1::basic_string<char, std::__1::char_traits<char>, std::__1::allocator<char> >::__long"*, !dbg !3232
  %56 = getelementptr inbounds %"struct.std::__1::basic_string<char, std::__1::char_traits<char>, std::__1::allocator<char> >::__long", %"struct.std::__1::basic_string<char, std::__1::char_traits<char>, std::__1::allocator<char> >::__long"* %55, i32 0, i32 2, !dbg !3233
  %57 = load i8*, i8** %56, align 8, !dbg !3233
  br label %71, !dbg !3228

; <label>:58:                                     ; preds = %2
  store %"class.std::__1::basic_string"* %32, %"class.std::__1::basic_string"** %21, align 8
  %59 = load %"class.std::__1::basic_string"*, %"class.std::__1::basic_string"** %21, align 8
  %60 = getelementptr inbounds %"class.std::__1::basic_string", %"class.std::__1::basic_string"* %59, i32 0, i32 0, !dbg !3234
  store %"class.std::__1::__compressed_pair"* %60, %"class.std::__1::__compressed_pair"** %20, align 8
  %61 = load %"class.std::__1::__compressed_pair"*, %"class.std::__1::__compressed_pair"** %20, align 8
  %62 = bitcast %"class.std::__1::__compressed_pair"* %61 to %"struct.std::__1::__compressed_pair_elem"*, !dbg !3235
  store %"struct.std::__1::__compressed_pair_elem"* %62, %"struct.std::__1::__compressed_pair_elem"** %19, align 8
  %63 = load %"struct.std::__1::__compressed_pair_elem"*, %"struct.std::__1::__compressed_pair_elem"** %19, align 8
  %64 = getelementptr inbounds %"struct.std::__1::__compressed_pair_elem", %"struct.std::__1::__compressed_pair_elem"* %63, i32 0, i32 0, !dbg !3236
  %65 = getelementptr inbounds %"struct.std::__1::basic_string<char, std::__1::char_traits<char>, std::__1::allocator<char> >::__rep", %"struct.std::__1::basic_string<char, std::__1::char_traits<char>, std::__1::allocator<char> >::__rep"* %64, i32 0, i32 0, !dbg !3237
  %66 = bitcast %union.anon.0* %65 to %"struct.std::__1::basic_string<char, std::__1::char_traits<char>, std::__1::allocator<char> >::__short"*, !dbg !3237
  %67 = getelementptr inbounds %"struct.std::__1::basic_string<char, std::__1::char_traits<char>, std::__1::allocator<char> >::__short", %"struct.std::__1::basic_string<char, std::__1::char_traits<char>, std::__1::allocator<char> >::__short"* %66, i32 0, i32 1, !dbg !3238
  %68 = getelementptr inbounds [23 x i8], [23 x i8]* %67, i64 0, i64 0, !dbg !3234
  store i8* %68, i8** %18, align 8
  %69 = load i8*, i8** %18, align 8, !dbg !3239
  store i8* %69, i8** %17, align 8
  %70 = load i8*, i8** %17, align 8, !dbg !3240
  br label %71, !dbg !3228

; <label>:71:                                     ; preds = %47, %58
  %72 = phi i8* [ %57, %47 ], [ %70, %58 ], !dbg !3228
  store i8* %72, i8** %13, align 8
  %73 = load i8*, i8** %13, align 8, !dbg !3241
  %74 = load %"class.std::__1::basic_string"*, %"class.std::__1::basic_string"** %28, align 8, !dbg !3242
  store %"class.std::__1::basic_string"* %74, %"class.std::__1::basic_string"** %12, align 8
  %75 = load %"class.std::__1::basic_string"*, %"class.std::__1::basic_string"** %12, align 8
  store %"class.std::__1::basic_string"* %75, %"class.std::__1::basic_string"** %11, align 8
  %76 = load %"class.std::__1::basic_string"*, %"class.std::__1::basic_string"** %11, align 8
  %77 = getelementptr inbounds %"class.std::__1::basic_string", %"class.std::__1::basic_string"* %76, i32 0, i32 0, !dbg !3243
  store %"class.std::__1::__compressed_pair"* %77, %"class.std::__1::__compressed_pair"** %10, align 8
  %78 = load %"class.std::__1::__compressed_pair"*, %"class.std::__1::__compressed_pair"** %10, align 8
  %79 = bitcast %"class.std::__1::__compressed_pair"* %78 to %"struct.std::__1::__compressed_pair_elem"*, !dbg !3244
  store %"struct.std::__1::__compressed_pair_elem"* %79, %"struct.std::__1::__compressed_pair_elem"** %9, align 8
  %80 = load %"struct.std::__1::__compressed_pair_elem"*, %"struct.std::__1::__compressed_pair_elem"** %9, align 8
  %81 = getelementptr inbounds %"struct.std::__1::__compressed_pair_elem", %"struct.std::__1::__compressed_pair_elem"* %80, i32 0, i32 0, !dbg !3245
  %82 = getelementptr inbounds %"struct.std::__1::basic_string<char, std::__1::char_traits<char>, std::__1::allocator<char> >::__rep", %"struct.std::__1::basic_string<char, std::__1::char_traits<char>, std::__1::allocator<char> >::__rep"* %81, i32 0, i32 0, !dbg !3246
  %83 = bitcast %union.anon.0* %82 to %"struct.std::__1::basic_string<char, std::__1::char_traits<char>, std::__1::allocator<char> >::__short"*, !dbg !3246
  %84 = getelementptr inbounds %"struct.std::__1::basic_string<char, std::__1::char_traits<char>, std::__1::allocator<char> >::__short", %"struct.std::__1::basic_string<char, std::__1::char_traits<char>, std::__1::allocator<char> >::__short"* %83, i32 0, i32 0, !dbg !3247
  %85 = bitcast %union.anon.1* %84 to i8*, !dbg !3247
  %86 = load i8, i8* %85, align 8, !dbg !3247
  %87 = zext i8 %86 to i64, !dbg !3243
  %88 = and i64 %87, 1, !dbg !3248
  %89 = icmp ne i64 %88, 0, !dbg !3243
  br i1 %89, label %90, label %101, !dbg !3249

; <label>:90:                                     ; preds = %71
  store %"class.std::__1::basic_string"* %75, %"class.std::__1::basic_string"** %5, align 8
  %91 = load %"class.std::__1::basic_string"*, %"class.std::__1::basic_string"** %5, align 8
  %92 = getelementptr inbounds %"class.std::__1::basic_string", %"class.std::__1::basic_string"* %91, i32 0, i32 0, !dbg !3250
  store %"class.std::__1::__compressed_pair"* %92, %"class.std::__1::__compressed_pair"** %4, align 8
  %93 = load %"class.std::__1::__compressed_pair"*, %"class.std::__1::__compressed_pair"** %4, align 8
  %94 = bitcast %"class.std::__1::__compressed_pair"* %93 to %"struct.std::__1::__compressed_pair_elem"*, !dbg !3251
  store %"struct.std::__1::__compressed_pair_elem"* %94, %"struct.std::__1::__compressed_pair_elem"** %3, align 8
  %95 = load %"struct.std::__1::__compressed_pair_elem"*, %"struct.std::__1::__compressed_pair_elem"** %3, align 8
  %96 = getelementptr inbounds %"struct.std::__1::__compressed_pair_elem", %"struct.std::__1::__compressed_pair_elem"* %95, i32 0, i32 0, !dbg !3252
  %97 = getelementptr inbounds %"struct.std::__1::basic_string<char, std::__1::char_traits<char>, std::__1::allocator<char> >::__rep", %"struct.std::__1::basic_string<char, std::__1::char_traits<char>, std::__1::allocator<char> >::__rep"* %96, i32 0, i32 0, !dbg !3253
  %98 = bitcast %union.anon.0* %97 to %"struct.std::__1::basic_string<char, std::__1::char_traits<char>, std::__1::allocator<char> >::__long"*, !dbg !3253
  %99 = getelementptr inbounds %"struct.std::__1::basic_string<char, std::__1::char_traits<char>, std::__1::allocator<char> >::__long", %"struct.std::__1::basic_string<char, std::__1::char_traits<char>, std::__1::allocator<char> >::__long"* %98, i32 0, i32 1, !dbg !3254
  %100 = load i64, i64* %99, align 8, !dbg !3254
  br label %116, !dbg !3249

; <label>:101:                                    ; preds = %71
  store %"class.std::__1::basic_string"* %75, %"class.std::__1::basic_string"** %8, align 8
  %102 = load %"class.std::__1::basic_string"*, %"class.std::__1::basic_string"** %8, align 8
  %103 = getelementptr inbounds %"class.std::__1::basic_string", %"class.std::__1::basic_string"* %102, i32 0, i32 0, !dbg !3255
  store %"class.std::__1::__compressed_pair"* %103, %"class.std::__1::__compressed_pair"** %7, align 8
  %104 = load %"class.std::__1::__compressed_pair"*, %"class.std::__1::__compressed_pair"** %7, align 8
  %105 = bitcast %"class.std::__1::__compressed_pair"* %104 to %"struct.std::__1::__compressed_pair_elem"*, !dbg !3256
  store %"struct.std::__1::__compressed_pair_elem"* %105, %"struct.std::__1::__compressed_pair_elem"** %6, align 8
  %106 = load %"struct.std::__1::__compressed_pair_elem"*, %"struct.std::__1::__compressed_pair_elem"** %6, align 8
  %107 = getelementptr inbounds %"struct.std::__1::__compressed_pair_elem", %"struct.std::__1::__compressed_pair_elem"* %106, i32 0, i32 0, !dbg !3257
  %108 = getelementptr inbounds %"struct.std::__1::basic_string<char, std::__1::char_traits<char>, std::__1::allocator<char> >::__rep", %"struct.std::__1::basic_string<char, std::__1::char_traits<char>, std::__1::allocator<char> >::__rep"* %107, i32 0, i32 0, !dbg !3258
  %109 = bitcast %union.anon.0* %108 to %"struct.std::__1::basic_string<char, std::__1::char_traits<char>, std::__1::allocator<char> >::__short"*, !dbg !3258
  %110 = getelementptr inbounds %"struct.std::__1::basic_string<char, std::__1::char_traits<char>, std::__1::allocator<char> >::__short", %"struct.std::__1::basic_string<char, std::__1::char_traits<char>, std::__1::allocator<char> >::__short"* %109, i32 0, i32 0, !dbg !3259
  %111 = bitcast %union.anon.1* %110 to i8*, !dbg !3259
  %112 = load i8, i8* %111, align 8, !dbg !3259
  %113 = zext i8 %112 to i32, !dbg !3255
  %114 = ashr i32 %113, 1, !dbg !3260
  %115 = sext i32 %114 to i64, !dbg !3255
  br label %116, !dbg !3249

; <label>:116:                                    ; preds = %90, %101
  %117 = phi i64 [ %100, %90 ], [ %115, %101 ], !dbg !3249
  %118 = call dereferenceable(160) %"class.std::__1::basic_ostream"* @_ZNSt3__124__put_character_sequenceIcNS_11char_traitsIcEEEERNS_13basic_ostreamIT_T0_EES7_PKS4_m(%"class.std::__1::basic_ostream"* dereferenceable(160) %29, i8* %73, i64 %117), !dbg !3261
  ret %"class.std::__1::basic_ostream"* %118, !dbg !3262
}

; Function Attrs: noinline nounwind optnone ssp uwtable
define linkonce_odr hidden void @_ZN14altered_carbon2js11ACLexNumberD1Ev(%"class.altered_carbon::js::ACLexNumber"*) unnamed_addr #0 align 2 !dbg !3263 {
  %2 = alloca %"class.altered_carbon::js::ACLexNumber"*, align 8
  store %"class.altered_carbon::js::ACLexNumber"* %0, %"class.altered_carbon::js::ACLexNumber"** %2, align 8
  call void @llvm.dbg.declare(metadata %"class.altered_carbon::js::ACLexNumber"** %2, metadata !3264, metadata !DIExpression()), !dbg !3265
  %3 = load %"class.altered_carbon::js::ACLexNumber"*, %"class.altered_carbon::js::ACLexNumber"** %2, align 8
  call void @_ZN14altered_carbon2js11ACLexNumberD2Ev(%"class.altered_carbon::js::ACLexNumber"* %3) #6, !dbg !3266
  ret void, !dbg !3267
}

; Function Attrs: noinline nounwind optnone ssp uwtable
define linkonce_odr hidden void @_ZN14altered_carbon2js11ACLexNumberD0Ev(%"class.altered_carbon::js::ACLexNumber"*) unnamed_addr #0 align 2 !dbg !3268 {
  %2 = alloca %"class.altered_carbon::js::ACLexNumber"*, align 8
  store %"class.altered_carbon::js::ACLexNumber"* %0, %"class.altered_carbon::js::ACLexNumber"** %2, align 8
  call void @llvm.dbg.declare(metadata %"class.altered_carbon::js::ACLexNumber"** %2, metadata !3269, metadata !DIExpression()), !dbg !3270
  %3 = load %"class.altered_carbon::js::ACLexNumber"*, %"class.altered_carbon::js::ACLexNumber"** %2, align 8
  call void @_ZN14altered_carbon2js11ACLexNumberD1Ev(%"class.altered_carbon::js::ACLexNumber"* %3) #6, !dbg !3271
  %4 = bitcast %"class.altered_carbon::js::ACLexNumber"* %3 to i8*, !dbg !3271
  call void @_ZdlPv(i8* %4) #7, !dbg !3271
  ret void, !dbg !3272
}

; Function Attrs: noinline nounwind optnone ssp uwtable
define linkonce_odr hidden void @_ZN14altered_carbon2js10ACLexRegexD1Ev(%"class.altered_carbon::js::ACLexRegex"*) unnamed_addr #0 align 2 !dbg !3273 {
  %2 = alloca %"class.altered_carbon::js::ACLexRegex"*, align 8
  store %"class.altered_carbon::js::ACLexRegex"* %0, %"class.altered_carbon::js::ACLexRegex"** %2, align 8
  call void @llvm.dbg.declare(metadata %"class.altered_carbon::js::ACLexRegex"** %2, metadata !3274, metadata !DIExpression()), !dbg !3275
  %3 = load %"class.altered_carbon::js::ACLexRegex"*, %"class.altered_carbon::js::ACLexRegex"** %2, align 8
  call void @_ZN14altered_carbon2js10ACLexRegexD2Ev(%"class.altered_carbon::js::ACLexRegex"* %3) #6, !dbg !3276
  ret void, !dbg !3277
}

; Function Attrs: noinline nounwind optnone ssp uwtable
define linkonce_odr hidden void @_ZN14altered_carbon2js10ACLexRegexD0Ev(%"class.altered_carbon::js::ACLexRegex"*) unnamed_addr #0 align 2 !dbg !3278 {
  %2 = alloca %"class.altered_carbon::js::ACLexRegex"*, align 8
  store %"class.altered_carbon::js::ACLexRegex"* %0, %"class.altered_carbon::js::ACLexRegex"** %2, align 8
  call void @llvm.dbg.declare(metadata %"class.altered_carbon::js::ACLexRegex"** %2, metadata !3279, metadata !DIExpression()), !dbg !3280
  %3 = load %"class.altered_carbon::js::ACLexRegex"*, %"class.altered_carbon::js::ACLexRegex"** %2, align 8
  call void @_ZN14altered_carbon2js10ACLexRegexD1Ev(%"class.altered_carbon::js::ACLexRegex"* %3) #6, !dbg !3281
  %4 = bitcast %"class.altered_carbon::js::ACLexRegex"* %3 to i8*, !dbg !3281
  call void @_ZdlPv(i8* %4) #7, !dbg !3281
  ret void, !dbg !3282
}

; Function Attrs: noinline nounwind optnone ssp uwtable
define linkonce_odr dereferenceable(160) %"class.std::__1::basic_ostream"* @_ZNSt3__124__put_character_sequenceIcNS_11char_traitsIcEEEERNS_13basic_ostreamIT_T0_EES7_PKS4_m(%"class.std::__1::basic_ostream"* dereferenceable(160), i8*, i64) #0 !dbg !1243 {
  %4 = alloca %"class.std::__1::ctype"*, align 8
  call void @llvm.dbg.declare(metadata %"class.std::__1::ctype"** %4, metadata !3283, metadata !DIExpression()), !dbg !3374
  %5 = alloca i8, align 1
  call void @llvm.dbg.declare(metadata i8* %5, metadata !3384, metadata !DIExpression()), !dbg !3385
  %6 = alloca %"class.std::__1::locale"*, align 8
  call void @llvm.dbg.declare(metadata %"class.std::__1::locale"** %6, metadata !3386, metadata !DIExpression()), !dbg !3393
  %7 = alloca %"class.std::__1::basic_ios"*, align 8
  call void @llvm.dbg.declare(metadata %"class.std::__1::basic_ios"** %7, metadata !3395, metadata !DIExpression()), !dbg !3397
  %8 = alloca i8, align 1
  call void @llvm.dbg.declare(metadata i8* %8, metadata !3398, metadata !DIExpression()), !dbg !3399
  %9 = alloca %"class.std::__1::locale", align 8
  %10 = alloca %"class.std::__1::basic_ios"*, align 8
  call void @llvm.dbg.declare(metadata %"class.std::__1::basic_ios"** %10, metadata !3400, metadata !DIExpression()), !dbg !3401
  %11 = alloca %"class.std::__1::ios_base"*, align 8
  call void @llvm.dbg.declare(metadata %"class.std::__1::ios_base"** %11, metadata !3402, metadata !DIExpression()), !dbg !3405
  %12 = alloca %"class.std::__1::ostreambuf_iterator"*, align 8
  call void @llvm.dbg.declare(metadata %"class.std::__1::ostreambuf_iterator"** %12, metadata !3407, metadata !DIExpression()), !dbg !3410
  %13 = alloca %"class.std::__1::ios_base"*, align 8
  call void @llvm.dbg.declare(metadata %"class.std::__1::ios_base"** %13, metadata !3412, metadata !DIExpression()), !dbg !3414
  %14 = alloca %"class.std::__1::basic_ios"*, align 8
  call void @llvm.dbg.declare(metadata %"class.std::__1::basic_ios"** %14, metadata !3422, metadata !DIExpression()), !dbg !3423
  %15 = alloca %"class.std::__1::ostreambuf_iterator"*, align 8
  call void @llvm.dbg.declare(metadata %"class.std::__1::ostreambuf_iterator"** %15, metadata !3424, metadata !DIExpression()), !dbg !3426
  %16 = alloca %"class.std::__1::basic_ostream"*, align 8
  call void @llvm.dbg.declare(metadata %"class.std::__1::basic_ostream"** %16, metadata !3427, metadata !DIExpression()), !dbg !3428
  %17 = alloca %"class.std::__1::ostreambuf_iterator"*, align 8
  call void @llvm.dbg.declare(metadata %"class.std::__1::ostreambuf_iterator"** %17, metadata !3429, metadata !DIExpression()), !dbg !3430
  %18 = alloca %"class.std::__1::basic_ostream"*, align 8
  call void @llvm.dbg.declare(metadata %"class.std::__1::basic_ostream"** %18, metadata !3431, metadata !DIExpression()), !dbg !3432
  %19 = alloca %"class.std::__1::ios_base"*, align 8
  call void @llvm.dbg.declare(metadata %"class.std::__1::ios_base"** %19, metadata !3433, metadata !DIExpression()), !dbg !3436
  %20 = alloca i32, align 4
  call void @llvm.dbg.declare(metadata i32* %20, metadata !3440, metadata !DIExpression()), !dbg !3441
  %21 = alloca %"class.std::__1::basic_ios"*, align 8
  call void @llvm.dbg.declare(metadata %"class.std::__1::basic_ios"** %21, metadata !3442, metadata !DIExpression()), !dbg !3444
  %22 = alloca i32, align 4
  call void @llvm.dbg.declare(metadata i32* %22, metadata !3445, metadata !DIExpression()), !dbg !3446
  %23 = alloca %"class.std::__1::basic_ostream<char, std::__1::char_traits<char> >::sentry"*, align 8
  call void @llvm.dbg.declare(metadata %"class.std::__1::basic_ostream<char, std::__1::char_traits<char> >::sentry"** %23, metadata !3447, metadata !DIExpression()), !dbg !3474
  %24 = alloca %"class.std::__1::basic_ostream"*, align 8
  %25 = alloca i8*, align 8
  %26 = alloca i64, align 8
  %27 = alloca %"class.std::__1::basic_ostream<char, std::__1::char_traits<char> >::sentry", align 8
  %28 = alloca %"class.std::__1::ostreambuf_iterator", align 8
  %29 = alloca %"class.std::__1::ostreambuf_iterator", align 8
  store %"class.std::__1::basic_ostream"* %0, %"class.std::__1::basic_ostream"** %24, align 8
  call void @llvm.dbg.declare(metadata %"class.std::__1::basic_ostream"** %24, metadata !3476, metadata !DIExpression()), !dbg !3477
  store i8* %1, i8** %25, align 8
  call void @llvm.dbg.declare(metadata i8** %25, metadata !3478, metadata !DIExpression()), !dbg !3479
  store i64 %2, i64* %26, align 8
  call void @llvm.dbg.declare(metadata i64* %26, metadata !3480, metadata !DIExpression()), !dbg !3481
  call void @llvm.dbg.declare(metadata %"class.std::__1::basic_ostream<char, std::__1::char_traits<char> >::sentry"* %27, metadata !3482, metadata !DIExpression()), !dbg !3483
  %30 = load %"class.std::__1::basic_ostream"*, %"class.std::__1::basic_ostream"** %24, align 8, !dbg !3484
  call void @_ZNSt3__113basic_ostreamIcNS_11char_traitsIcEEE6sentryC1ERS3_(%"class.std::__1::basic_ostream<char, std::__1::char_traits<char> >::sentry"* %27, %"class.std::__1::basic_ostream"* dereferenceable(160) %30), !dbg !3483
  store %"class.std::__1::basic_ostream<char, std::__1::char_traits<char> >::sentry"* %27, %"class.std::__1::basic_ostream<char, std::__1::char_traits<char> >::sentry"** %23, align 8
  %31 = load %"class.std::__1::basic_ostream<char, std::__1::char_traits<char> >::sentry"*, %"class.std::__1::basic_ostream<char, std::__1::char_traits<char> >::sentry"** %23, align 8
  %32 = getelementptr inbounds %"class.std::__1::basic_ostream<char, std::__1::char_traits<char> >::sentry", %"class.std::__1::basic_ostream<char, std::__1::char_traits<char> >::sentry"* %31, i32 0, i32 0, !dbg !3485
  %33 = load i8, i8* %32, align 8, !dbg !3485
  %34 = trunc i8 %33 to i1, !dbg !3485
  br i1 %34, label %35, label %153, !dbg !3486

; <label>:35:                                     ; preds = %3
  %36 = load %"class.std::__1::basic_ostream"*, %"class.std::__1::basic_ostream"** %24, align 8, !dbg !3487
  store %"class.std::__1::ostreambuf_iterator"* %29, %"class.std::__1::ostreambuf_iterator"** %17, align 8
  store %"class.std::__1::basic_ostream"* %36, %"class.std::__1::basic_ostream"** %18, align 8
  %37 = load %"class.std::__1::ostreambuf_iterator"*, %"class.std::__1::ostreambuf_iterator"** %17, align 8
  %38 = load %"class.std::__1::basic_ostream"*, %"class.std::__1::basic_ostream"** %18, align 8, !dbg !3488
  store %"class.std::__1::ostreambuf_iterator"* %37, %"class.std::__1::ostreambuf_iterator"** %15, align 8
  store %"class.std::__1::basic_ostream"* %38, %"class.std::__1::basic_ostream"** %16, align 8
  %39 = load %"class.std::__1::ostreambuf_iterator"*, %"class.std::__1::ostreambuf_iterator"** %15, align 8
  %40 = bitcast %"class.std::__1::ostreambuf_iterator"* %39 to %"struct.std::__1::iterator"*, !dbg !3489
  %41 = getelementptr inbounds %"class.std::__1::ostreambuf_iterator", %"class.std::__1::ostreambuf_iterator"* %39, i32 0, i32 0, !dbg !3490
  %42 = load %"class.std::__1::basic_ostream"*, %"class.std::__1::basic_ostream"** %16, align 8, !dbg !3491
  %43 = bitcast %"class.std::__1::basic_ostream"* %42 to i8**, !dbg !3491
  %44 = load i8*, i8** %43, align 8, !dbg !3491
  %45 = getelementptr i8, i8* %44, i64 -24, !dbg !3491
  %46 = bitcast i8* %45 to i64*, !dbg !3491
  %47 = load i64, i64* %46, align 8, !dbg !3491
  %48 = bitcast %"class.std::__1::basic_ostream"* %42 to i8*, !dbg !3491
  %49 = getelementptr inbounds i8, i8* %48, i64 %47, !dbg !3491
  %50 = bitcast i8* %49 to %"class.std::__1::basic_ios"*, !dbg !3491
  store %"class.std::__1::basic_ios"* %50, %"class.std::__1::basic_ios"** %14, align 8
  %51 = load %"class.std::__1::basic_ios"*, %"class.std::__1::basic_ios"** %14, align 8
  %52 = bitcast %"class.std::__1::basic_ios"* %51 to %"class.std::__1::ios_base"*, !dbg !3492
  store %"class.std::__1::ios_base"* %52, %"class.std::__1::ios_base"** %13, align 8
  %53 = load %"class.std::__1::ios_base"*, %"class.std::__1::ios_base"** %13, align 8
  %54 = getelementptr inbounds %"class.std::__1::ios_base", %"class.std::__1::ios_base"* %53, i32 0, i32 6, !dbg !3493
  %55 = load i8*, i8** %54, align 8, !dbg !3493
  %56 = bitcast i8* %55 to %"class.std::__1::basic_streambuf"*, !dbg !3494
  store %"class.std::__1::basic_streambuf"* %56, %"class.std::__1::basic_streambuf"** %41, align 8, !dbg !3490
  %57 = load i8*, i8** %25, align 8, !dbg !3495
  %58 = load %"class.std::__1::basic_ostream"*, %"class.std::__1::basic_ostream"** %24, align 8, !dbg !3496
  %59 = bitcast %"class.std::__1::basic_ostream"* %58 to i8**, !dbg !3496
  %60 = load i8*, i8** %59, align 8, !dbg !3496
  %61 = getelementptr i8, i8* %60, i64 -24, !dbg !3496
  %62 = bitcast i8* %61 to i64*, !dbg !3496
  %63 = load i64, i64* %62, align 8, !dbg !3496
  %64 = bitcast %"class.std::__1::basic_ostream"* %58 to i8*, !dbg !3496
  %65 = getelementptr inbounds i8, i8* %64, i64 %63, !dbg !3496
  %66 = bitcast i8* %65 to %"class.std::__1::ios_base"*, !dbg !3496
  store %"class.std::__1::ios_base"* %66, %"class.std::__1::ios_base"** %11, align 8
  %67 = load %"class.std::__1::ios_base"*, %"class.std::__1::ios_base"** %11, align 8
  %68 = getelementptr inbounds %"class.std::__1::ios_base", %"class.std::__1::ios_base"* %67, i32 0, i32 1, !dbg !3497
  %69 = load i32, i32* %68, align 8, !dbg !3497
  %70 = and i32 %69, 176, !dbg !3498
  %71 = icmp eq i32 %70, 32, !dbg !3499
  br i1 %71, label %72, label %76, !dbg !3500

; <label>:72:                                     ; preds = %35
  %73 = load i8*, i8** %25, align 8, !dbg !3501
  %74 = load i64, i64* %26, align 8, !dbg !3502
  %75 = getelementptr inbounds i8, i8* %73, i64 %74, !dbg !3503
  br label %78, !dbg !3500

; <label>:76:                                     ; preds = %35
  %77 = load i8*, i8** %25, align 8, !dbg !3504
  br label %78, !dbg !3500

; <label>:78:                                     ; preds = %76, %72
  %79 = phi i8* [ %75, %72 ], [ %77, %76 ], !dbg !3500
  %80 = load i8*, i8** %25, align 8, !dbg !3505
  %81 = load i64, i64* %26, align 8, !dbg !3506
  %82 = getelementptr inbounds i8, i8* %80, i64 %81, !dbg !3507
  %83 = load %"class.std::__1::basic_ostream"*, %"class.std::__1::basic_ostream"** %24, align 8, !dbg !3508
  %84 = bitcast %"class.std::__1::basic_ostream"* %83 to i8**, !dbg !3508
  %85 = load i8*, i8** %84, align 8, !dbg !3508
  %86 = getelementptr i8, i8* %85, i64 -24, !dbg !3508
  %87 = bitcast i8* %86 to i64*, !dbg !3508
  %88 = load i64, i64* %87, align 8, !dbg !3508
  %89 = bitcast %"class.std::__1::basic_ostream"* %83 to i8*, !dbg !3508
  %90 = getelementptr inbounds i8, i8* %89, i64 %88, !dbg !3508
  %91 = bitcast i8* %90 to %"class.std::__1::ios_base"*, !dbg !3508
  %92 = load %"class.std::__1::basic_ostream"*, %"class.std::__1::basic_ostream"** %24, align 8, !dbg !3509
  %93 = bitcast %"class.std::__1::basic_ostream"* %92 to i8**, !dbg !3509
  %94 = load i8*, i8** %93, align 8, !dbg !3509
  %95 = getelementptr i8, i8* %94, i64 -24, !dbg !3509
  %96 = bitcast i8* %95 to i64*, !dbg !3509
  %97 = load i64, i64* %96, align 8, !dbg !3509
  %98 = bitcast %"class.std::__1::basic_ostream"* %92 to i8*, !dbg !3509
  %99 = getelementptr inbounds i8, i8* %98, i64 %97, !dbg !3509
  %100 = bitcast i8* %99 to %"class.std::__1::basic_ios"*, !dbg !3509
  store %"class.std::__1::basic_ios"* %100, %"class.std::__1::basic_ios"** %10, align 8
  %101 = load %"class.std::__1::basic_ios"*, %"class.std::__1::basic_ios"** %10, align 8
  %102 = call i32 @_ZNSt3__111char_traitsIcE3eofEv() #6, !dbg !3510
  %103 = getelementptr inbounds %"class.std::__1::basic_ios", %"class.std::__1::basic_ios"* %101, i32 0, i32 2, !dbg !3511
  %104 = load i32, i32* %103, align 8, !dbg !3511
  %105 = call zeroext i1 @_ZNSt3__111char_traitsIcE11eq_int_typeEii(i32 %102, i32 %104) #6, !dbg !3512
  br i1 %105, label %106, label %122, !dbg !3513

; <label>:106:                                    ; preds = %78
  store %"class.std::__1::basic_ios"* %101, %"class.std::__1::basic_ios"** %7, align 8
  store i8 32, i8* %8, align 1
  %107 = load %"class.std::__1::basic_ios"*, %"class.std::__1::basic_ios"** %7, align 8
  %108 = bitcast %"class.std::__1::basic_ios"* %107 to %"class.std::__1::ios_base"*, !dbg !3514
  call void @_ZNKSt3__18ios_base6getlocEv(%"class.std::__1::locale"* sret %9, %"class.std::__1::ios_base"* %108) #6, !dbg !3514
  store %"class.std::__1::locale"* %9, %"class.std::__1::locale"** %6, align 8
  %109 = load %"class.std::__1::locale"*, %"class.std::__1::locale"** %6, align 8, !dbg !3515
  %110 = call %"class.std::__1::locale::facet"* @_ZNKSt3__16locale9use_facetERNS0_2idE(%"class.std::__1::locale"* %109, %"class.std::__1::locale::id"* dereferenceable(16) @_ZNSt3__15ctypeIcE2idE) #6, !dbg !3516
  %111 = bitcast %"class.std::__1::locale::facet"* %110 to %"class.std::__1::ctype"*, !dbg !3517
  %112 = load i8, i8* %8, align 1, !dbg !3518
  store %"class.std::__1::ctype"* %111, %"class.std::__1::ctype"** %4, align 8
  store i8 %112, i8* %5, align 1
  %113 = load %"class.std::__1::ctype"*, %"class.std::__1::ctype"** %4, align 8
  %114 = bitcast %"class.std::__1::ctype"* %113 to i8 (%"class.std::__1::ctype"*, i8)***, !dbg !3519
  %115 = load i8 (%"class.std::__1::ctype"*, i8)**, i8 (%"class.std::__1::ctype"*, i8)*** %114, align 8, !dbg !3519
  %116 = getelementptr inbounds i8 (%"class.std::__1::ctype"*, i8)*, i8 (%"class.std::__1::ctype"*, i8)** %115, i64 7, !dbg !3519
  %117 = load i8 (%"class.std::__1::ctype"*, i8)*, i8 (%"class.std::__1::ctype"*, i8)** %116, align 8, !dbg !3519
  %118 = load i8, i8* %5, align 1, !dbg !3520
  %119 = call signext i8 %117(%"class.std::__1::ctype"* %113, i8 signext %118) #6, !dbg !3519
  call void @_ZNSt3__16localeD1Ev(%"class.std::__1::locale"* %9) #6, !dbg !3521
  %120 = sext i8 %119 to i32, !dbg !3522
  %121 = getelementptr inbounds %"class.std::__1::basic_ios", %"class.std::__1::basic_ios"* %101, i32 0, i32 2, !dbg !3523
  store i32 %120, i32* %121, align 8, !dbg !3524
  br label %122, !dbg !3523

; <label>:122:                                    ; preds = %78, %106
  %123 = getelementptr inbounds %"class.std::__1::basic_ios", %"class.std::__1::basic_ios"* %101, i32 0, i32 2, !dbg !3525
  %124 = load i32, i32* %123, align 8, !dbg !3525
  %125 = trunc i32 %124 to i8, !dbg !3525
  %126 = getelementptr inbounds %"class.std::__1::ostreambuf_iterator", %"class.std::__1::ostreambuf_iterator"* %29, i32 0, i32 0, !dbg !3526
  %127 = load %"class.std::__1::basic_streambuf"*, %"class.std::__1::basic_streambuf"** %126, align 8, !dbg !3526
  %128 = call %"class.std::__1::basic_streambuf"* @_ZNSt3__116__pad_and_outputIcNS_11char_traitsIcEEEENS_19ostreambuf_iteratorIT_T0_EES6_PKS4_S8_S8_RNS_8ios_baseES4_(%"class.std::__1::basic_streambuf"* %127, i8* %57, i8* %79, i8* %82, %"class.std::__1::ios_base"* dereferenceable(136) %91, i8 signext %125), !dbg !3526
  %129 = getelementptr inbounds %"class.std::__1::ostreambuf_iterator", %"class.std::__1::ostreambuf_iterator"* %28, i32 0, i32 0, !dbg !3526
  store %"class.std::__1::basic_streambuf"* %128, %"class.std::__1::basic_streambuf"** %129, align 8, !dbg !3526
  store %"class.std::__1::ostreambuf_iterator"* %28, %"class.std::__1::ostreambuf_iterator"** %12, align 8
  %130 = load %"class.std::__1::ostreambuf_iterator"*, %"class.std::__1::ostreambuf_iterator"** %12, align 8
  %131 = getelementptr inbounds %"class.std::__1::ostreambuf_iterator", %"class.std::__1::ostreambuf_iterator"* %130, i32 0, i32 0, !dbg !3527
  %132 = load %"class.std::__1::basic_streambuf"*, %"class.std::__1::basic_streambuf"** %131, align 8, !dbg !3527
  %133 = icmp eq %"class.std::__1::basic_streambuf"* %132, null, !dbg !3528
  br i1 %133, label %134, label %152, !dbg !3529

; <label>:134:                                    ; preds = %122
  %135 = load %"class.std::__1::basic_ostream"*, %"class.std::__1::basic_ostream"** %24, align 8, !dbg !3530
  %136 = bitcast %"class.std::__1::basic_ostream"* %135 to i8**, !dbg !3530
  %137 = load i8*, i8** %136, align 8, !dbg !3530
  %138 = getelementptr i8, i8* %137, i64 -24, !dbg !3530
  %139 = bitcast i8* %138 to i64*, !dbg !3530
  %140 = load i64, i64* %139, align 8, !dbg !3530
  %141 = bitcast %"class.std::__1::basic_ostream"* %135 to i8*, !dbg !3530
  %142 = getelementptr inbounds i8, i8* %141, i64 %140, !dbg !3530
  %143 = bitcast i8* %142 to %"class.std::__1::basic_ios"*, !dbg !3530
  store %"class.std::__1::basic_ios"* %143, %"class.std::__1::basic_ios"** %21, align 8
  store i32 5, i32* %22, align 4
  %144 = load %"class.std::__1::basic_ios"*, %"class.std::__1::basic_ios"** %21, align 8
  %145 = bitcast %"class.std::__1::basic_ios"* %144 to %"class.std::__1::ios_base"*, !dbg !3531
  %146 = load i32, i32* %22, align 4, !dbg !3532
  store %"class.std::__1::ios_base"* %145, %"class.std::__1::ios_base"** %19, align 8
  store i32 %146, i32* %20, align 4
  %147 = load %"class.std::__1::ios_base"*, %"class.std::__1::ios_base"** %19, align 8
  %148 = getelementptr inbounds %"class.std::__1::ios_base", %"class.std::__1::ios_base"* %147, i32 0, i32 4, !dbg !3533
  %149 = load i32, i32* %148, align 8, !dbg !3533
  %150 = load i32, i32* %20, align 4, !dbg !3534
  %151 = or i32 %149, %150, !dbg !3535
  call void @_ZNSt3__18ios_base5clearEj(%"class.std::__1::ios_base"* %147, i32 %151) #6, !dbg !3536
  br label %152, !dbg !3530

; <label>:152:                                    ; preds = %134, %122
  br label %153, !dbg !3537

; <label>:153:                                    ; preds = %152, %3
  %154 = load %"class.std::__1::basic_ostream"*, %"class.std::__1::basic_ostream"** %24, align 8, !dbg !3538
  call void @_ZNSt3__113basic_ostreamIcNS_11char_traitsIcEEE6sentryD1Ev(%"class.std::__1::basic_ostream<char, std::__1::char_traits<char> >::sentry"* %27) #6, !dbg !3539
  ret %"class.std::__1::basic_ostream"* %154, !dbg !3539
}

; Function Attrs: noinline nounwind optnone ssp uwtable
define linkonce_odr hidden i64 @_ZNSt3__111char_traitsIcE6lengthEPKc(i8*) #0 align 2 !dbg !3540 {
  %2 = alloca i8*, align 8
  store i8* %0, i8** %2, align 8
  call void @llvm.dbg.declare(metadata i8** %2, metadata !3541, metadata !DIExpression()), !dbg !3542
  %3 = load i8*, i8** %2, align 8, !dbg !3543
  %4 = call i64 @strlen(i8* %3) #6, !dbg !3544
  ret i64 %4, !dbg !3545
}

declare void @_ZNSt3__113basic_ostreamIcNS_11char_traitsIcEEE6sentryC1ERS3_(%"class.std::__1::basic_ostream<char, std::__1::char_traits<char> >::sentry"*, %"class.std::__1::basic_ostream"* dereferenceable(160)) unnamed_addr #2

; Function Attrs: noinline nounwind optnone ssp uwtable
define linkonce_odr hidden %"class.std::__1::basic_streambuf"* @_ZNSt3__116__pad_and_outputIcNS_11char_traitsIcEEEENS_19ostreambuf_iteratorIT_T0_EES6_PKS4_S8_S8_RNS_8ios_baseES4_(%"class.std::__1::basic_streambuf"*, i8*, i8*, i8*, %"class.std::__1::ios_base"* dereferenceable(136), i8 signext) #0 !dbg !3546 {
  %7 = alloca %"class.std::__1::basic_streambuf"*, align 8
  call void @llvm.dbg.declare(metadata %"class.std::__1::basic_streambuf"** %7, metadata !3550, metadata !DIExpression()), !dbg !3552
  %8 = alloca i8*, align 8
  call void @llvm.dbg.declare(metadata i8** %8, metadata !3557, metadata !DIExpression()), !dbg !3558
  %9 = alloca i64, align 8
  call void @llvm.dbg.declare(metadata i64* %9, metadata !3559, metadata !DIExpression()), !dbg !3560
  %10 = alloca i8*, align 8
  call void @llvm.dbg.declare(metadata i8** %10, metadata !3153, metadata !DIExpression()), !dbg !3561
  %11 = alloca %"struct.std::__1::__compressed_pair_elem"*, align 8
  call void @llvm.dbg.declare(metadata %"struct.std::__1::__compressed_pair_elem"** %11, metadata !3118, metadata !DIExpression()), !dbg !3564
  %12 = alloca %"class.std::__1::__compressed_pair"*, align 8
  call void @llvm.dbg.declare(metadata %"class.std::__1::__compressed_pair"** %12, metadata !3129, metadata !DIExpression()), !dbg !3569
  %13 = alloca %"class.std::__1::basic_string"*, align 8
  call void @llvm.dbg.declare(metadata %"class.std::__1::basic_string"** %13, metadata !3171, metadata !DIExpression()), !dbg !3570
  %14 = alloca i8*, align 8
  call void @llvm.dbg.declare(metadata i8** %14, metadata !3173, metadata !DIExpression()), !dbg !3571
  %15 = alloca i8*, align 8
  call void @llvm.dbg.declare(metadata i8** %15, metadata !3198, metadata !DIExpression()), !dbg !3575
  %16 = alloca %"struct.std::__1::__compressed_pair_elem"*, align 8
  call void @llvm.dbg.declare(metadata %"struct.std::__1::__compressed_pair_elem"** %16, metadata !3118, metadata !DIExpression()), !dbg !3576
  %17 = alloca %"class.std::__1::__compressed_pair"*, align 8
  call void @llvm.dbg.declare(metadata %"class.std::__1::__compressed_pair"** %17, metadata !3129, metadata !DIExpression()), !dbg !3579
  %18 = alloca %"class.std::__1::basic_string"*, align 8
  call void @llvm.dbg.declare(metadata %"class.std::__1::basic_string"** %18, metadata !3204, metadata !DIExpression()), !dbg !3580
  %19 = alloca %"struct.std::__1::__compressed_pair_elem"*, align 8
  call void @llvm.dbg.declare(metadata %"struct.std::__1::__compressed_pair_elem"** %19, metadata !3118, metadata !DIExpression()), !dbg !3581
  %20 = alloca %"class.std::__1::__compressed_pair"*, align 8
  call void @llvm.dbg.declare(metadata %"class.std::__1::__compressed_pair"** %20, metadata !3129, metadata !DIExpression()), !dbg !3585
  %21 = alloca %"class.std::__1::basic_string"*, align 8
  call void @llvm.dbg.declare(metadata %"class.std::__1::basic_string"** %21, metadata !3149, metadata !DIExpression()), !dbg !3586
  %22 = alloca %"class.std::__1::basic_string"*, align 8
  call void @llvm.dbg.declare(metadata %"class.std::__1::basic_string"** %22, metadata !3212, metadata !DIExpression()), !dbg !3587
  %23 = alloca %"class.std::__1::basic_string"*, align 8
  call void @llvm.dbg.declare(metadata %"class.std::__1::basic_string"** %23, metadata !3214, metadata !DIExpression()), !dbg !3588
  %24 = alloca %"class.std::__1::allocator"*, align 8
  call void @llvm.dbg.declare(metadata %"class.std::__1::allocator"** %24, metadata !3015, metadata !DIExpression()), !dbg !3589
  %25 = alloca %"struct.std::__1::__compressed_pair_elem.2"*, align 8
  call void @llvm.dbg.declare(metadata %"struct.std::__1::__compressed_pair_elem.2"** %25, metadata !3036, metadata !DIExpression()), !dbg !3598
  %26 = alloca %"struct.std::__1::__compressed_pair_elem"*, align 8
  call void @llvm.dbg.declare(metadata %"struct.std::__1::__compressed_pair_elem"** %26, metadata !3039, metadata !DIExpression()), !dbg !3599
  %27 = alloca %"class.std::__1::__compressed_pair"*, align 8
  call void @llvm.dbg.declare(metadata %"class.std::__1::__compressed_pair"** %27, metadata !3044, metadata !DIExpression()), !dbg !3601
  %28 = alloca %"class.std::__1::__compressed_pair"*, align 8
  call void @llvm.dbg.declare(metadata %"class.std::__1::__compressed_pair"** %28, metadata !3047, metadata !DIExpression()), !dbg !3602
  %29 = alloca %"class.std::__1::basic_string"*, align 8
  call void @llvm.dbg.declare(metadata %"class.std::__1::basic_string"** %29, metadata !3603, metadata !DIExpression()), !dbg !3604
  %30 = alloca i64, align 8
  call void @llvm.dbg.declare(metadata i64* %30, metadata !3605, metadata !DIExpression()), !dbg !3606
  %31 = alloca i8, align 1
  call void @llvm.dbg.declare(metadata i8* %31, metadata !3607, metadata !DIExpression()), !dbg !3608
  %32 = alloca %"class.std::__1::basic_string"*, align 8
  call void @llvm.dbg.declare(metadata %"class.std::__1::basic_string"** %32, metadata !3609, metadata !DIExpression()), !dbg !3610
  %33 = alloca i64, align 8
  call void @llvm.dbg.declare(metadata i64* %33, metadata !3611, metadata !DIExpression()), !dbg !3612
  %34 = alloca i8, align 1
  call void @llvm.dbg.declare(metadata i8* %34, metadata !3613, metadata !DIExpression()), !dbg !3614
  %35 = alloca %"class.std::__1::basic_streambuf"*, align 8
  call void @llvm.dbg.declare(metadata %"class.std::__1::basic_streambuf"** %35, metadata !3550, metadata !DIExpression()), !dbg !3615
  %36 = alloca i8*, align 8
  call void @llvm.dbg.declare(metadata i8** %36, metadata !3557, metadata !DIExpression()), !dbg !3620
  %37 = alloca i64, align 8
  call void @llvm.dbg.declare(metadata i64* %37, metadata !3559, metadata !DIExpression()), !dbg !3621
  %38 = alloca %"class.std::__1::basic_streambuf"*, align 8
  call void @llvm.dbg.declare(metadata %"class.std::__1::basic_streambuf"** %38, metadata !3550, metadata !DIExpression()), !dbg !3622
  %39 = alloca i8*, align 8
  call void @llvm.dbg.declare(metadata i8** %39, metadata !3557, metadata !DIExpression()), !dbg !3627
  %40 = alloca i64, align 8
  call void @llvm.dbg.declare(metadata i64* %40, metadata !3559, metadata !DIExpression()), !dbg !3628
  %41 = alloca %"class.std::__1::ios_base"*, align 8
  call void @llvm.dbg.declare(metadata %"class.std::__1::ios_base"** %41, metadata !3629, metadata !DIExpression()), !dbg !3631
  %42 = alloca i64, align 8
  call void @llvm.dbg.declare(metadata i64* %42, metadata !3633, metadata !DIExpression()), !dbg !3634
  %43 = alloca i64, align 8
  call void @llvm.dbg.declare(metadata i64* %43, metadata !3635, metadata !DIExpression()), !dbg !3636
  %44 = alloca %"class.std::__1::ios_base"*, align 8
  call void @llvm.dbg.declare(metadata %"class.std::__1::ios_base"** %44, metadata !3637, metadata !DIExpression()), !dbg !3639
  %45 = alloca %"class.std::__1::ostreambuf_iterator", align 8
  %46 = alloca %"class.std::__1::ostreambuf_iterator", align 8
  %47 = alloca i8*, align 8
  %48 = alloca i8*, align 8
  %49 = alloca i8*, align 8
  %50 = alloca %"class.std::__1::ios_base"*, align 8
  %51 = alloca i8, align 1
  %52 = alloca i64, align 8
  %53 = alloca i64, align 8
  %54 = alloca i64, align 8
  %55 = alloca %"class.std::__1::basic_string", align 8
  %56 = alloca i32
  %57 = getelementptr inbounds %"class.std::__1::ostreambuf_iterator", %"class.std::__1::ostreambuf_iterator"* %46, i32 0, i32 0
  store %"class.std::__1::basic_streambuf"* %0, %"class.std::__1::basic_streambuf"** %57, align 8
  call void @llvm.dbg.declare(metadata %"class.std::__1::ostreambuf_iterator"* %46, metadata !3641, metadata !DIExpression()), !dbg !3642
  store i8* %1, i8** %47, align 8
  call void @llvm.dbg.declare(metadata i8** %47, metadata !3643, metadata !DIExpression()), !dbg !3644
  store i8* %2, i8** %48, align 8
  call void @llvm.dbg.declare(metadata i8** %48, metadata !3645, metadata !DIExpression()), !dbg !3646
  store i8* %3, i8** %49, align 8
  call void @llvm.dbg.declare(metadata i8** %49, metadata !3647, metadata !DIExpression()), !dbg !3648
  store %"class.std::__1::ios_base"* %4, %"class.std::__1::ios_base"** %50, align 8
  call void @llvm.dbg.declare(metadata %"class.std::__1::ios_base"** %50, metadata !3649, metadata !DIExpression()), !dbg !3650
  store i8 %5, i8* %51, align 1
  call void @llvm.dbg.declare(metadata i8* %51, metadata !3651, metadata !DIExpression()), !dbg !3652
  %58 = getelementptr inbounds %"class.std::__1::ostreambuf_iterator", %"class.std::__1::ostreambuf_iterator"* %46, i32 0, i32 0, !dbg !3653
  %59 = load %"class.std::__1::basic_streambuf"*, %"class.std::__1::basic_streambuf"** %58, align 8, !dbg !3653
  %60 = icmp eq %"class.std::__1::basic_streambuf"* %59, null, !dbg !3655
  br i1 %60, label %61, label %64, !dbg !3656

; <label>:61:                                     ; preds = %6
  %62 = bitcast %"class.std::__1::ostreambuf_iterator"* %45 to i8*, !dbg !3657
  %63 = bitcast %"class.std::__1::ostreambuf_iterator"* %46 to i8*, !dbg !3657
  call void @llvm.memcpy.p0i8.p0i8.i64(i8* align 8 %62, i8* align 8 %63, i64 8, i1 false), !dbg !3657
  br label %236, !dbg !3658

; <label>:64:                                     ; preds = %6
  call void @llvm.dbg.declare(metadata i64* %52, metadata !3659, metadata !DIExpression()), !dbg !3660
  %65 = load i8*, i8** %49, align 8, !dbg !3661
  %66 = load i8*, i8** %47, align 8, !dbg !3662
  %67 = ptrtoint i8* %65 to i64, !dbg !3663
  %68 = ptrtoint i8* %66 to i64, !dbg !3663
  %69 = sub i64 %67, %68, !dbg !3663
  store i64 %69, i64* %52, align 8, !dbg !3660
  call void @llvm.dbg.declare(metadata i64* %53, metadata !3664, metadata !DIExpression()), !dbg !3665
  %70 = load %"class.std::__1::ios_base"*, %"class.std::__1::ios_base"** %50, align 8, !dbg !3666
  store %"class.std::__1::ios_base"* %70, %"class.std::__1::ios_base"** %44, align 8
  %71 = load %"class.std::__1::ios_base"*, %"class.std::__1::ios_base"** %44, align 8
  %72 = getelementptr inbounds %"class.std::__1::ios_base", %"class.std::__1::ios_base"* %71, i32 0, i32 3, !dbg !3667
  %73 = load i64, i64* %72, align 8, !dbg !3667
  store i64 %73, i64* %53, align 8, !dbg !3665
  %74 = load i64, i64* %53, align 8, !dbg !3668
  %75 = load i64, i64* %52, align 8, !dbg !3670
  %76 = icmp sgt i64 %74, %75, !dbg !3671
  br i1 %76, label %77, label %81, !dbg !3672

; <label>:77:                                     ; preds = %64
  %78 = load i64, i64* %52, align 8, !dbg !3673
  %79 = load i64, i64* %53, align 8, !dbg !3674
  %80 = sub nsw i64 %79, %78, !dbg !3674
  store i64 %80, i64* %53, align 8, !dbg !3674
  br label %82, !dbg !3675

; <label>:81:                                     ; preds = %64
  store i64 0, i64* %53, align 8, !dbg !3676
  br label %82

; <label>:82:                                     ; preds = %81, %77
  call void @llvm.dbg.declare(metadata i64* %54, metadata !3677, metadata !DIExpression()), !dbg !3678
  %83 = load i8*, i8** %48, align 8, !dbg !3679
  %84 = load i8*, i8** %47, align 8, !dbg !3680
  %85 = ptrtoint i8* %83 to i64, !dbg !3681
  %86 = ptrtoint i8* %84 to i64, !dbg !3681
  %87 = sub i64 %85, %86, !dbg !3681
  store i64 %87, i64* %54, align 8, !dbg !3678
  %88 = load i64, i64* %54, align 8, !dbg !3682
  %89 = icmp sgt i64 %88, 0, !dbg !3683
  br i1 %89, label %90, label %110, !dbg !3684

; <label>:90:                                     ; preds = %82
  %91 = getelementptr inbounds %"class.std::__1::ostreambuf_iterator", %"class.std::__1::ostreambuf_iterator"* %46, i32 0, i32 0, !dbg !3685
  %92 = load %"class.std::__1::basic_streambuf"*, %"class.std::__1::basic_streambuf"** %91, align 8, !dbg !3685
  %93 = load i8*, i8** %47, align 8, !dbg !3686
  %94 = load i64, i64* %54, align 8, !dbg !3687
  store %"class.std::__1::basic_streambuf"* %92, %"class.std::__1::basic_streambuf"** %35, align 8
  store i8* %93, i8** %36, align 8
  store i64 %94, i64* %37, align 8
  %95 = load %"class.std::__1::basic_streambuf"*, %"class.std::__1::basic_streambuf"** %35, align 8
  %96 = bitcast %"class.std::__1::basic_streambuf"* %95 to i64 (%"class.std::__1::basic_streambuf"*, i8*, i64)***, !dbg !3688
  %97 = load i64 (%"class.std::__1::basic_streambuf"*, i8*, i64)**, i64 (%"class.std::__1::basic_streambuf"*, i8*, i64)*** %96, align 8, !dbg !3688
  %98 = getelementptr inbounds i64 (%"class.std::__1::basic_streambuf"*, i8*, i64)*, i64 (%"class.std::__1::basic_streambuf"*, i8*, i64)** %97, i64 12, !dbg !3688
  %99 = load i64 (%"class.std::__1::basic_streambuf"*, i8*, i64)*, i64 (%"class.std::__1::basic_streambuf"*, i8*, i64)** %98, align 8, !dbg !3688
  %100 = load i8*, i8** %36, align 8, !dbg !3689
  %101 = load i64, i64* %37, align 8, !dbg !3690
  %102 = call i64 %99(%"class.std::__1::basic_streambuf"* %95, i8* %100, i64 %101) #6, !dbg !3688
  %103 = load i64, i64* %54, align 8, !dbg !3691
  %104 = icmp ne i64 %102, %103, !dbg !3692
  br i1 %104, label %105, label %109, !dbg !3693

; <label>:105:                                    ; preds = %90
  %106 = getelementptr inbounds %"class.std::__1::ostreambuf_iterator", %"class.std::__1::ostreambuf_iterator"* %46, i32 0, i32 0, !dbg !3694
  store %"class.std::__1::basic_streambuf"* null, %"class.std::__1::basic_streambuf"** %106, align 8, !dbg !3696
  %107 = bitcast %"class.std::__1::ostreambuf_iterator"* %45 to i8*, !dbg !3697
  %108 = bitcast %"class.std::__1::ostreambuf_iterator"* %46 to i8*, !dbg !3697
  call void @llvm.memcpy.p0i8.p0i8.i64(i8* align 8 %107, i8* align 8 %108, i64 8, i1 false), !dbg !3697
  br label %236, !dbg !3698

; <label>:109:                                    ; preds = %90
  br label %110, !dbg !3699

; <label>:110:                                    ; preds = %109, %82
  %111 = load i64, i64* %53, align 8, !dbg !3700
  %112 = icmp sgt i64 %111, 0, !dbg !3701
  br i1 %112, label %113, label %198, !dbg !3702

; <label>:113:                                    ; preds = %110
  call void @llvm.dbg.declare(metadata %"class.std::__1::basic_string"* %55, metadata !3703, metadata !DIExpression()), !dbg !3704
  %114 = load i64, i64* %53, align 8, !dbg !3705
  %115 = load i8, i8* %51, align 1, !dbg !3706
  store %"class.std::__1::basic_string"* %55, %"class.std::__1::basic_string"** %32, align 8
  store i64 %114, i64* %33, align 8
  store i8 %115, i8* %34, align 1
  %116 = load %"class.std::__1::basic_string"*, %"class.std::__1::basic_string"** %32, align 8
  %117 = load i64, i64* %33, align 8, !dbg !3707
  %118 = load i8, i8* %34, align 1, !dbg !3707
  store %"class.std::__1::basic_string"* %116, %"class.std::__1::basic_string"** %29, align 8
  store i64 %117, i64* %30, align 8
  store i8 %118, i8* %31, align 1
  %119 = load %"class.std::__1::basic_string"*, %"class.std::__1::basic_string"** %29, align 8
  %120 = bitcast %"class.std::__1::basic_string"* %119 to %"class.std::__1::__basic_string_common"*, !dbg !3708
  %121 = getelementptr inbounds %"class.std::__1::basic_string", %"class.std::__1::basic_string"* %119, i32 0, i32 0, !dbg !3709
  store %"class.std::__1::__compressed_pair"* %121, %"class.std::__1::__compressed_pair"** %28, align 8
  %122 = load %"class.std::__1::__compressed_pair"*, %"class.std::__1::__compressed_pair"** %28, align 8
  store %"class.std::__1::__compressed_pair"* %122, %"class.std::__1::__compressed_pair"** %27, align 8
  %123 = load %"class.std::__1::__compressed_pair"*, %"class.std::__1::__compressed_pair"** %27, align 8
  %124 = bitcast %"class.std::__1::__compressed_pair"* %123 to %"struct.std::__1::__compressed_pair_elem"*, !dbg !3710
  store %"struct.std::__1::__compressed_pair_elem"* %124, %"struct.std::__1::__compressed_pair_elem"** %26, align 8
  %125 = load %"struct.std::__1::__compressed_pair_elem"*, %"struct.std::__1::__compressed_pair_elem"** %26, align 8
  %126 = getelementptr inbounds %"struct.std::__1::__compressed_pair_elem", %"struct.std::__1::__compressed_pair_elem"* %125, i32 0, i32 0, !dbg !3711
  %127 = bitcast %"struct.std::__1::basic_string<char, std::__1::char_traits<char>, std::__1::allocator<char> >::__rep"* %126 to i8*, !dbg !3711
  call void @llvm.memset.p0i8.i64(i8* align 8 %127, i8 0, i64 24, i1 false), !dbg !3711
  %128 = bitcast %"class.std::__1::__compressed_pair"* %123 to %"struct.std::__1::__compressed_pair_elem.2"*, !dbg !3710
  store %"struct.std::__1::__compressed_pair_elem.2"* %128, %"struct.std::__1::__compressed_pair_elem.2"** %25, align 8
  %129 = load %"struct.std::__1::__compressed_pair_elem.2"*, %"struct.std::__1::__compressed_pair_elem.2"** %25, align 8
  %130 = bitcast %"struct.std::__1::__compressed_pair_elem.2"* %129 to %"class.std::__1::allocator"*, !dbg !3712
  store %"class.std::__1::allocator"* %130, %"class.std::__1::allocator"** %24, align 8
  %131 = load %"class.std::__1::allocator"*, %"class.std::__1::allocator"** %24, align 8
  %132 = load i64, i64* %30, align 8, !dbg !3713
  %133 = load i8, i8* %31, align 1, !dbg !3715
  call void @_ZNSt3__112basic_stringIcNS_11char_traitsIcEENS_9allocatorIcEEE6__initEmc(%"class.std::__1::basic_string"* %119, i64 %132, i8 signext %133) #6, !dbg !3716
  %134 = getelementptr inbounds %"class.std::__1::ostreambuf_iterator", %"class.std::__1::ostreambuf_iterator"* %46, i32 0, i32 0, !dbg !3717
  %135 = load %"class.std::__1::basic_streambuf"*, %"class.std::__1::basic_streambuf"** %134, align 8, !dbg !3717
  store %"class.std::__1::basic_string"* %55, %"class.std::__1::basic_string"** %23, align 8
  %136 = load %"class.std::__1::basic_string"*, %"class.std::__1::basic_string"** %23, align 8
  store %"class.std::__1::basic_string"* %136, %"class.std::__1::basic_string"** %22, align 8
  %137 = load %"class.std::__1::basic_string"*, %"class.std::__1::basic_string"** %22, align 8
  store %"class.std::__1::basic_string"* %137, %"class.std::__1::basic_string"** %21, align 8
  %138 = load %"class.std::__1::basic_string"*, %"class.std::__1::basic_string"** %21, align 8
  %139 = getelementptr inbounds %"class.std::__1::basic_string", %"class.std::__1::basic_string"* %138, i32 0, i32 0, !dbg !3718
  store %"class.std::__1::__compressed_pair"* %139, %"class.std::__1::__compressed_pair"** %20, align 8
  %140 = load %"class.std::__1::__compressed_pair"*, %"class.std::__1::__compressed_pair"** %20, align 8
  %141 = bitcast %"class.std::__1::__compressed_pair"* %140 to %"struct.std::__1::__compressed_pair_elem"*, !dbg !3719
  store %"struct.std::__1::__compressed_pair_elem"* %141, %"struct.std::__1::__compressed_pair_elem"** %19, align 8
  %142 = load %"struct.std::__1::__compressed_pair_elem"*, %"struct.std::__1::__compressed_pair_elem"** %19, align 8
  %143 = getelementptr inbounds %"struct.std::__1::__compressed_pair_elem", %"struct.std::__1::__compressed_pair_elem"* %142, i32 0, i32 0, !dbg !3720
  %144 = getelementptr inbounds %"struct.std::__1::basic_string<char, std::__1::char_traits<char>, std::__1::allocator<char> >::__rep", %"struct.std::__1::basic_string<char, std::__1::char_traits<char>, std::__1::allocator<char> >::__rep"* %143, i32 0, i32 0, !dbg !3721
  %145 = bitcast %union.anon.0* %144 to %"struct.std::__1::basic_string<char, std::__1::char_traits<char>, std::__1::allocator<char> >::__short"*, !dbg !3721
  %146 = getelementptr inbounds %"struct.std::__1::basic_string<char, std::__1::char_traits<char>, std::__1::allocator<char> >::__short", %"struct.std::__1::basic_string<char, std::__1::char_traits<char>, std::__1::allocator<char> >::__short"* %145, i32 0, i32 0, !dbg !3722
  %147 = bitcast %union.anon.1* %146 to i8*, !dbg !3722
  %148 = load i8, i8* %147, align 8, !dbg !3722
  %149 = zext i8 %148 to i64, !dbg !3718
  %150 = and i64 %149, 1, !dbg !3723
  %151 = icmp ne i64 %150, 0, !dbg !3718
  br i1 %151, label %152, label %163, !dbg !3724

; <label>:152:                                    ; preds = %113
  store %"class.std::__1::basic_string"* %137, %"class.std::__1::basic_string"** %13, align 8
  %153 = load %"class.std::__1::basic_string"*, %"class.std::__1::basic_string"** %13, align 8
  %154 = getelementptr inbounds %"class.std::__1::basic_string", %"class.std::__1::basic_string"* %153, i32 0, i32 0, !dbg !3725
  store %"class.std::__1::__compressed_pair"* %154, %"class.std::__1::__compressed_pair"** %12, align 8
  %155 = load %"class.std::__1::__compressed_pair"*, %"class.std::__1::__compressed_pair"** %12, align 8
  %156 = bitcast %"class.std::__1::__compressed_pair"* %155 to %"struct.std::__1::__compressed_pair_elem"*, !dbg !3726
  store %"struct.std::__1::__compressed_pair_elem"* %156, %"struct.std::__1::__compressed_pair_elem"** %11, align 8
  %157 = load %"struct.std::__1::__compressed_pair_elem"*, %"struct.std::__1::__compressed_pair_elem"** %11, align 8
  %158 = getelementptr inbounds %"struct.std::__1::__compressed_pair_elem", %"struct.std::__1::__compressed_pair_elem"* %157, i32 0, i32 0, !dbg !3727
  %159 = getelementptr inbounds %"struct.std::__1::basic_string<char, std::__1::char_traits<char>, std::__1::allocator<char> >::__rep", %"struct.std::__1::basic_string<char, std::__1::char_traits<char>, std::__1::allocator<char> >::__rep"* %158, i32 0, i32 0, !dbg !3728
  %160 = bitcast %union.anon.0* %159 to %"struct.std::__1::basic_string<char, std::__1::char_traits<char>, std::__1::allocator<char> >::__long"*, !dbg !3728
  %161 = getelementptr inbounds %"struct.std::__1::basic_string<char, std::__1::char_traits<char>, std::__1::allocator<char> >::__long", %"struct.std::__1::basic_string<char, std::__1::char_traits<char>, std::__1::allocator<char> >::__long"* %160, i32 0, i32 2, !dbg !3729
  %162 = load i8*, i8** %161, align 8, !dbg !3729
  br label %176, !dbg !3724

; <label>:163:                                    ; preds = %113
  store %"class.std::__1::basic_string"* %137, %"class.std::__1::basic_string"** %18, align 8
  %164 = load %"class.std::__1::basic_string"*, %"class.std::__1::basic_string"** %18, align 8
  %165 = getelementptr inbounds %"class.std::__1::basic_string", %"class.std::__1::basic_string"* %164, i32 0, i32 0, !dbg !3730
  store %"class.std::__1::__compressed_pair"* %165, %"class.std::__1::__compressed_pair"** %17, align 8
  %166 = load %"class.std::__1::__compressed_pair"*, %"class.std::__1::__compressed_pair"** %17, align 8
  %167 = bitcast %"class.std::__1::__compressed_pair"* %166 to %"struct.std::__1::__compressed_pair_elem"*, !dbg !3731
  store %"struct.std::__1::__compressed_pair_elem"* %167, %"struct.std::__1::__compressed_pair_elem"** %16, align 8
  %168 = load %"struct.std::__1::__compressed_pair_elem"*, %"struct.std::__1::__compressed_pair_elem"** %16, align 8
  %169 = getelementptr inbounds %"struct.std::__1::__compressed_pair_elem", %"struct.std::__1::__compressed_pair_elem"* %168, i32 0, i32 0, !dbg !3732
  %170 = getelementptr inbounds %"struct.std::__1::basic_string<char, std::__1::char_traits<char>, std::__1::allocator<char> >::__rep", %"struct.std::__1::basic_string<char, std::__1::char_traits<char>, std::__1::allocator<char> >::__rep"* %169, i32 0, i32 0, !dbg !3733
  %171 = bitcast %union.anon.0* %170 to %"struct.std::__1::basic_string<char, std::__1::char_traits<char>, std::__1::allocator<char> >::__short"*, !dbg !3733
  %172 = getelementptr inbounds %"struct.std::__1::basic_string<char, std::__1::char_traits<char>, std::__1::allocator<char> >::__short", %"struct.std::__1::basic_string<char, std::__1::char_traits<char>, std::__1::allocator<char> >::__short"* %171, i32 0, i32 1, !dbg !3734
  %173 = getelementptr inbounds [23 x i8], [23 x i8]* %172, i64 0, i64 0, !dbg !3730
  store i8* %173, i8** %15, align 8
  %174 = load i8*, i8** %15, align 8, !dbg !3735
  store i8* %174, i8** %14, align 8
  %175 = load i8*, i8** %14, align 8, !dbg !3736
  br label %176, !dbg !3724

; <label>:176:                                    ; preds = %152, %163
  %177 = phi i8* [ %162, %152 ], [ %175, %163 ], !dbg !3724
  store i8* %177, i8** %10, align 8
  %178 = load i8*, i8** %10, align 8, !dbg !3737
  %179 = load i64, i64* %53, align 8, !dbg !3738
  store %"class.std::__1::basic_streambuf"* %135, %"class.std::__1::basic_streambuf"** %7, align 8
  store i8* %178, i8** %8, align 8
  store i64 %179, i64* %9, align 8
  %180 = load %"class.std::__1::basic_streambuf"*, %"class.std::__1::basic_streambuf"** %7, align 8
  %181 = bitcast %"class.std::__1::basic_streambuf"* %180 to i64 (%"class.std::__1::basic_streambuf"*, i8*, i64)***, !dbg !3739
  %182 = load i64 (%"class.std::__1::basic_streambuf"*, i8*, i64)**, i64 (%"class.std::__1::basic_streambuf"*, i8*, i64)*** %181, align 8, !dbg !3739
  %183 = getelementptr inbounds i64 (%"class.std::__1::basic_streambuf"*, i8*, i64)*, i64 (%"class.std::__1::basic_streambuf"*, i8*, i64)** %182, i64 12, !dbg !3739
  %184 = load i64 (%"class.std::__1::basic_streambuf"*, i8*, i64)*, i64 (%"class.std::__1::basic_streambuf"*, i8*, i64)** %183, align 8, !dbg !3739
  %185 = load i8*, i8** %8, align 8, !dbg !3740
  %186 = load i64, i64* %9, align 8, !dbg !3741
  %187 = call i64 %184(%"class.std::__1::basic_streambuf"* %180, i8* %185, i64 %186) #6, !dbg !3739
  %188 = load i64, i64* %53, align 8, !dbg !3742
  %189 = icmp ne i64 %187, %188, !dbg !3743
  br i1 %189, label %190, label %194, !dbg !3744

; <label>:190:                                    ; preds = %176
  %191 = getelementptr inbounds %"class.std::__1::ostreambuf_iterator", %"class.std::__1::ostreambuf_iterator"* %46, i32 0, i32 0, !dbg !3745
  store %"class.std::__1::basic_streambuf"* null, %"class.std::__1::basic_streambuf"** %191, align 8, !dbg !3747
  %192 = bitcast %"class.std::__1::ostreambuf_iterator"* %45 to i8*, !dbg !3748
  %193 = bitcast %"class.std::__1::ostreambuf_iterator"* %46 to i8*, !dbg !3748
  call void @llvm.memcpy.p0i8.p0i8.i64(i8* align 8 %192, i8* align 8 %193, i64 8, i1 false), !dbg !3748
  store i32 1, i32* %56, align 4
  br label %195, !dbg !3749

; <label>:194:                                    ; preds = %176
  store i32 0, i32* %56, align 4, !dbg !3750
  br label %195, !dbg !3750

; <label>:195:                                    ; preds = %194, %190
  call void @_ZNSt3__112basic_stringIcNS_11char_traitsIcEENS_9allocatorIcEEED1Ev(%"class.std::__1::basic_string"* %55) #6, !dbg !3750
  %196 = load i32, i32* %56, align 4
  switch i32 %196, label %239 [
    i32 0, label %197
    i32 1, label %236
  ]

; <label>:197:                                    ; preds = %195
  br label %198, !dbg !3751

; <label>:198:                                    ; preds = %197, %110
  %199 = load i8*, i8** %49, align 8, !dbg !3752
  %200 = load i8*, i8** %48, align 8, !dbg !3753
  %201 = ptrtoint i8* %199 to i64, !dbg !3754
  %202 = ptrtoint i8* %200 to i64, !dbg !3754
  %203 = sub i64 %201, %202, !dbg !3754
  store i64 %203, i64* %54, align 8, !dbg !3755
  %204 = load i64, i64* %54, align 8, !dbg !3756
  %205 = icmp sgt i64 %204, 0, !dbg !3757
  br i1 %205, label %206, label %226, !dbg !3758

; <label>:206:                                    ; preds = %198
  %207 = getelementptr inbounds %"class.std::__1::ostreambuf_iterator", %"class.std::__1::ostreambuf_iterator"* %46, i32 0, i32 0, !dbg !3759
  %208 = load %"class.std::__1::basic_streambuf"*, %"class.std::__1::basic_streambuf"** %207, align 8, !dbg !3759
  %209 = load i8*, i8** %48, align 8, !dbg !3760
  %210 = load i64, i64* %54, align 8, !dbg !3761
  store %"class.std::__1::basic_streambuf"* %208, %"class.std::__1::basic_streambuf"** %38, align 8
  store i8* %209, i8** %39, align 8
  store i64 %210, i64* %40, align 8
  %211 = load %"class.std::__1::basic_streambuf"*, %"class.std::__1::basic_streambuf"** %38, align 8
  %212 = bitcast %"class.std::__1::basic_streambuf"* %211 to i64 (%"class.std::__1::basic_streambuf"*, i8*, i64)***, !dbg !3762
  %213 = load i64 (%"class.std::__1::basic_streambuf"*, i8*, i64)**, i64 (%"class.std::__1::basic_streambuf"*, i8*, i64)*** %212, align 8, !dbg !3762
  %214 = getelementptr inbounds i64 (%"class.std::__1::basic_streambuf"*, i8*, i64)*, i64 (%"class.std::__1::basic_streambuf"*, i8*, i64)** %213, i64 12, !dbg !3762
  %215 = load i64 (%"class.std::__1::basic_streambuf"*, i8*, i64)*, i64 (%"class.std::__1::basic_streambuf"*, i8*, i64)** %214, align 8, !dbg !3762
  %216 = load i8*, i8** %39, align 8, !dbg !3763
  %217 = load i64, i64* %40, align 8, !dbg !3764
  %218 = call i64 %215(%"class.std::__1::basic_streambuf"* %211, i8* %216, i64 %217) #6, !dbg !3762
  %219 = load i64, i64* %54, align 8, !dbg !3765
  %220 = icmp ne i64 %218, %219, !dbg !3766
  br i1 %220, label %221, label %225, !dbg !3767

; <label>:221:                                    ; preds = %206
  %222 = getelementptr inbounds %"class.std::__1::ostreambuf_iterator", %"class.std::__1::ostreambuf_iterator"* %46, i32 0, i32 0, !dbg !3768
  store %"class.std::__1::basic_streambuf"* null, %"class.std::__1::basic_streambuf"** %222, align 8, !dbg !3770
  %223 = bitcast %"class.std::__1::ostreambuf_iterator"* %45 to i8*, !dbg !3771
  %224 = bitcast %"class.std::__1::ostreambuf_iterator"* %46 to i8*, !dbg !3771
  call void @llvm.memcpy.p0i8.p0i8.i64(i8* align 8 %223, i8* align 8 %224, i64 8, i1 false), !dbg !3771
  br label %236, !dbg !3772

; <label>:225:                                    ; preds = %206
  br label %226, !dbg !3773

; <label>:226:                                    ; preds = %225, %198
  %227 = load %"class.std::__1::ios_base"*, %"class.std::__1::ios_base"** %50, align 8, !dbg !3774
  store %"class.std::__1::ios_base"* %227, %"class.std::__1::ios_base"** %41, align 8
  store i64 0, i64* %42, align 8
  %228 = load %"class.std::__1::ios_base"*, %"class.std::__1::ios_base"** %41, align 8
  %229 = getelementptr inbounds %"class.std::__1::ios_base", %"class.std::__1::ios_base"* %228, i32 0, i32 3, !dbg !3775
  %230 = load i64, i64* %229, align 8, !dbg !3775
  store i64 %230, i64* %43, align 8, !dbg !3636
  %231 = load i64, i64* %42, align 8, !dbg !3776
  %232 = getelementptr inbounds %"class.std::__1::ios_base", %"class.std::__1::ios_base"* %228, i32 0, i32 3, !dbg !3777
  store i64 %231, i64* %232, align 8, !dbg !3778
  %233 = load i64, i64* %43, align 8, !dbg !3779
  %234 = bitcast %"class.std::__1::ostreambuf_iterator"* %45 to i8*, !dbg !3780
  %235 = bitcast %"class.std::__1::ostreambuf_iterator"* %46 to i8*, !dbg !3780
  call void @llvm.memcpy.p0i8.p0i8.i64(i8* align 8 %234, i8* align 8 %235, i64 8, i1 false), !dbg !3780
  br label %236, !dbg !3781

; <label>:236:                                    ; preds = %226, %221, %195, %105, %61
  %237 = getelementptr inbounds %"class.std::__1::ostreambuf_iterator", %"class.std::__1::ostreambuf_iterator"* %45, i32 0, i32 0, !dbg !3782
  %238 = load %"class.std::__1::basic_streambuf"*, %"class.std::__1::basic_streambuf"** %237, align 8, !dbg !3782
  ret %"class.std::__1::basic_streambuf"* %238, !dbg !3782

; <label>:239:                                    ; preds = %195
  unreachable
}

; Function Attrs: nounwind
declare void @_ZNSt3__113basic_ostreamIcNS_11char_traitsIcEEE6sentryD1Ev(%"class.std::__1::basic_ostream<char, std::__1::char_traits<char> >::sentry"*) unnamed_addr #3

; Function Attrs: nounwind
declare void @_ZNSt3__112basic_stringIcNS_11char_traitsIcEENS_9allocatorIcEEED1Ev(%"class.std::__1::basic_string"*) unnamed_addr #3

declare void @_ZNSt3__112basic_stringIcNS_11char_traitsIcEENS_9allocatorIcEEE6__initEmc(%"class.std::__1::basic_string"*, i64, i8 signext) #2

; Function Attrs: noinline nounwind optnone ssp uwtable
define linkonce_odr hidden zeroext i1 @_ZNSt3__111char_traitsIcE11eq_int_typeEii(i32, i32) #0 align 2 !dbg !3783 {
  %3 = alloca i32, align 4
  %4 = alloca i32, align 4
  store i32 %0, i32* %3, align 4
  call void @llvm.dbg.declare(metadata i32* %3, metadata !3784, metadata !DIExpression()), !dbg !3785
  store i32 %1, i32* %4, align 4
  call void @llvm.dbg.declare(metadata i32* %4, metadata !3786, metadata !DIExpression()), !dbg !3787
  %5 = load i32, i32* %3, align 4, !dbg !3788
  %6 = load i32, i32* %4, align 4, !dbg !3789
  %7 = icmp eq i32 %5, %6, !dbg !3790
  ret i1 %7, !dbg !3791
}

; Function Attrs: noinline nounwind optnone ssp uwtable
define linkonce_odr hidden i32 @_ZNSt3__111char_traitsIcE3eofEv() #0 align 2 !dbg !3792 {
  ret i32 -1, !dbg !3793
}

declare void @_ZNKSt3__18ios_base6getlocEv(%"class.std::__1::locale"* sret, %"class.std::__1::ios_base"*) #2

; Function Attrs: nounwind
declare void @_ZNSt3__16localeD1Ev(%"class.std::__1::locale"*) unnamed_addr #3

declare %"class.std::__1::locale::facet"* @_ZNKSt3__16locale9use_facetERNS0_2idE(%"class.std::__1::locale"*, %"class.std::__1::locale::id"* dereferenceable(16)) #2

declare void @_ZNSt3__18ios_base5clearEj(%"class.std::__1::ios_base"*, i32) #2

; Function Attrs: nounwind
declare i64 @strlen(i8*) #3

declare void @_ZNSt3__112basic_stringIcNS_11char_traitsIcEENS_9allocatorIcEEE6__initEPKcm(%"class.std::__1::basic_string"*, i8*, i64) #2

; Function Attrs: noinline nounwind optnone ssp uwtable
define linkonce_odr hidden void @_ZN14altered_carbon2js11ACLexNumberD2Ev(%"class.altered_carbon::js::ACLexNumber"*) unnamed_addr #0 align 2 !dbg !3794 {
  %2 = alloca %"class.altered_carbon::js::ACLexNumber"*, align 8
  store %"class.altered_carbon::js::ACLexNumber"* %0, %"class.altered_carbon::js::ACLexNumber"** %2, align 8
  call void @llvm.dbg.declare(metadata %"class.altered_carbon::js::ACLexNumber"** %2, metadata !3795, metadata !DIExpression()), !dbg !3796
  %3 = load %"class.altered_carbon::js::ACLexNumber"*, %"class.altered_carbon::js::ACLexNumber"** %2, align 8
  %4 = bitcast %"class.altered_carbon::js::ACLexNumber"* %3 to i32 (...)***, !dbg !3797
  store i32 (...)** bitcast (i8** getelementptr inbounds ({ [4 x i8*] }, { [4 x i8*] }* @_ZTVN14altered_carbon2js11ACLexNumberE, i32 0, inrange i32 0, i32 2) to i32 (...)**), i32 (...)*** %4, align 8, !dbg !3797
  ret void, !dbg !3798
}

; Function Attrs: nobuiltin nounwind
declare void @_ZdlPv(i8*) #4

; Function Attrs: noinline nounwind optnone ssp uwtable
define linkonce_odr hidden void @_ZN14altered_carbon2js10ACLexRegexD2Ev(%"class.altered_carbon::js::ACLexRegex"*) unnamed_addr #0 align 2 !dbg !3799 {
  %2 = alloca %"class.altered_carbon::js::ACLexRegex"*, align 8
  store %"class.altered_carbon::js::ACLexRegex"* %0, %"class.altered_carbon::js::ACLexRegex"** %2, align 8
  call void @llvm.dbg.declare(metadata %"class.altered_carbon::js::ACLexRegex"** %2, metadata !3800, metadata !DIExpression()), !dbg !3801
  %3 = load %"class.altered_carbon::js::ACLexRegex"*, %"class.altered_carbon::js::ACLexRegex"** %2, align 8
  %4 = bitcast %"class.altered_carbon::js::ACLexRegex"* %3 to i32 (...)***, !dbg !3802
  store i32 (...)** bitcast (i8** getelementptr inbounds ({ [4 x i8*] }, { [4 x i8*] }* @_ZTVN14altered_carbon2js10ACLexRegexE, i32 0, inrange i32 0, i32 2) to i32 (...)**), i32 (...)*** %4, align 8, !dbg !3802
  %5 = getelementptr inbounds %"class.altered_carbon::js::ACLexRegex", %"class.altered_carbon::js::ACLexRegex"* %3, i32 0, i32 1, !dbg !3803
  call void @_ZNSt3__112basic_stringIcNS_11char_traitsIcEENS_9allocatorIcEEED1Ev(%"class.std::__1::basic_string"* %5) #6, !dbg !3803
  ret void, !dbg !3805
}

; Function Attrs: argmemonly nounwind
declare void @llvm.memcpy.p0i8.p0i8.i64(i8* nocapture writeonly, i8* nocapture readonly, i64, i1) #5

; Function Attrs: argmemonly nounwind
declare void @llvm.memset.p0i8.i64(i8* nocapture writeonly, i8, i64, i1) #5

attributes #0 = { noinline nounwind optnone ssp uwtable "correctly-rounded-divide-sqrt-fp-math"="false" "disable-tail-calls"="false" "less-precise-fpmad"="false" "no-frame-pointer-elim"="true" "no-frame-pointer-elim-non-leaf" "no-infs-fp-math"="false" "no-jump-tables"="false" "no-nans-fp-math"="false" "no-signed-zeros-fp-math"="false" "no-trapping-math"="false" "stack-protector-buffer-size"="8" "target-cpu"="penryn" "target-features"="+cx16,+fxsr,+mmx,+sse,+sse2,+sse3,+sse4.1,+ssse3,+x87" "unsafe-fp-math"="false" "use-soft-float"="false" }
attributes #1 = { nounwind readnone speculatable }
attributes #2 = { "correctly-rounded-divide-sqrt-fp-math"="false" "disable-tail-calls"="false" "less-precise-fpmad"="false" "no-frame-pointer-elim"="true" "no-frame-pointer-elim-non-leaf" "no-infs-fp-math"="false" "no-nans-fp-math"="false" "no-signed-zeros-fp-math"="false" "no-trapping-math"="false" "stack-protector-buffer-size"="8" "target-cpu"="penryn" "target-features"="+cx16,+fxsr,+mmx,+sse,+sse2,+sse3,+sse4.1,+ssse3,+x87" "unsafe-fp-math"="false" "use-soft-float"="false" }
attributes #3 = { nounwind "correctly-rounded-divide-sqrt-fp-math"="false" "disable-tail-calls"="false" "less-precise-fpmad"="false" "no-frame-pointer-elim"="true" "no-frame-pointer-elim-non-leaf" "no-infs-fp-math"="false" "no-nans-fp-math"="false" "no-signed-zeros-fp-math"="false" "no-trapping-math"="false" "stack-protector-buffer-size"="8" "target-cpu"="penryn" "target-features"="+cx16,+fxsr,+mmx,+sse,+sse2,+sse3,+sse4.1,+ssse3,+x87" "unsafe-fp-math"="false" "use-soft-float"="false" }
attributes #4 = { nobuiltin nounwind "correctly-rounded-divide-sqrt-fp-math"="false" "disable-tail-calls"="false" "less-precise-fpmad"="false" "no-frame-pointer-elim"="true" "no-frame-pointer-elim-non-leaf" "no-infs-fp-math"="false" "no-nans-fp-math"="false" "no-signed-zeros-fp-math"="false" "no-trapping-math"="false" "stack-protector-buffer-size"="8" "target-cpu"="penryn" "target-features"="+cx16,+fxsr,+mmx,+sse,+sse2,+sse3,+sse4.1,+ssse3,+x87" "unsafe-fp-math"="false" "use-soft-float"="false" }
attributes #5 = { argmemonly nounwind }
attributes #6 = { nounwind }
attributes #7 = { builtin nounwind }

!llvm.dbg.cu = !{!0}
!llvm.module.flags = !{!2509, !2510, !2511, !2512}
!llvm.ident = !{!2513}

!0 = distinct !DICompileUnit(language: DW_LANG_C_plus_plus, file: !1, producer: "Apple LLVM version 9.1.0 (clang-902.0.39.2)", isOptimized: false, runtimeVersion: 0, emissionKind: FullDebug, enums: !2, retainedTypes: !1238, imports: !1593)
!1 = !DIFile(filename: "../ac_lex_datatypes.cc", directory: "/Users/ejiang/Projects/lls/ac/llfiles")
!2 = !{!3, !1233}
!3 = !DICompositeType(tag: DW_TAG_enumeration_type, name: "event", scope: !5, file: !4, line: 308, size: 32, elements: !1229, identifier: "_ZTSNSt3__18ios_base5eventE")
!4 = !DIFile(filename: "/Applications/Xcode.app/Contents/Developer/Toolchains/XcodeDefault.xctoolchain/usr/include/c++/v1/ios", directory: "/Users/ejiang/Projects/lls/ac/llfiles")
!5 = distinct !DICompositeType(tag: DW_TAG_class_type, name: "ios_base", scope: !6, file: !4, line: 231, size: 1088, elements: !8, vtableHolder: !5, identifier: "_ZTSNSt3__18ios_baseE")
!6 = !DINamespace(name: "__1", scope: !7, exportSymbols: true)
!7 = !DINamespace(name: "std", scope: null)
!8 = !{!9, !15, !19, !20, !21, !22, !23, !24, !25, !26, !27, !28, !29, !30, !31, !32, !33, !34, !35, !36, !39, !40, !41, !42, !45, !46, !47, !48, !49, !50, !51, !56, !57, !58, !59, !61, !62, !69, !71, !77, !78, !81, !83, !84, !85, !87, !88, !89, !94, !98, !99, !102, !105, !108, !111, !112, !113, !1167, !1170, !1171, !1175, !1179, !1182, !1185, !1189, !1192, !1195, !1198, !1201, !1202, !1205, !1206, !1207, !1208, !1209, !1210, !1211, !1212, !1213, !1216, !1219, !1220, !1223, !1224, !1227, !1228}
!9 = !DIDerivedType(tag: DW_TAG_member, name: "_vptr$ios_base", scope: !4, file: !4, baseType: !10, size: 64, flags: DIFlagArtificial)
!10 = !DIDerivedType(tag: DW_TAG_pointer_type, baseType: !11, size: 64)
!11 = !DIDerivedType(tag: DW_TAG_pointer_type, name: "__vtbl_ptr_type", baseType: !12, size: 64)
!12 = !DISubroutineType(types: !13)
!13 = !{!14}
!14 = !DIBasicType(name: "int", size: 32, encoding: DW_ATE_signed)
!15 = !DIDerivedType(tag: DW_TAG_member, name: "boolalpha", scope: !5, file: !4, line: 237, baseType: !16, flags: DIFlagPublic | DIFlagStaticMember, extraData: i32 1)
!16 = !DIDerivedType(tag: DW_TAG_const_type, baseType: !17)
!17 = !DIDerivedType(tag: DW_TAG_typedef, name: "fmtflags", scope: !5, file: !4, line: 236, baseType: !18)
!18 = !DIBasicType(name: "unsigned int", size: 32, encoding: DW_ATE_unsigned)
!19 = !DIDerivedType(tag: DW_TAG_member, name: "dec", scope: !5, file: !4, line: 238, baseType: !16, flags: DIFlagPublic | DIFlagStaticMember, extraData: i32 2)
!20 = !DIDerivedType(tag: DW_TAG_member, name: "fixed", scope: !5, file: !4, line: 239, baseType: !16, flags: DIFlagPublic | DIFlagStaticMember, extraData: i32 4)
!21 = !DIDerivedType(tag: DW_TAG_member, name: "hex", scope: !5, file: !4, line: 240, baseType: !16, flags: DIFlagPublic | DIFlagStaticMember, extraData: i32 8)
!22 = !DIDerivedType(tag: DW_TAG_member, name: "internal", scope: !5, file: !4, line: 241, baseType: !16, flags: DIFlagPublic | DIFlagStaticMember, extraData: i32 16)
!23 = !DIDerivedType(tag: DW_TAG_member, name: "left", scope: !5, file: !4, line: 242, baseType: !16, flags: DIFlagPublic | DIFlagStaticMember, extraData: i32 32)
!24 = !DIDerivedType(tag: DW_TAG_member, name: "oct", scope: !5, file: !4, line: 243, baseType: !16, flags: DIFlagPublic | DIFlagStaticMember, extraData: i32 64)
!25 = !DIDerivedType(tag: DW_TAG_member, name: "right", scope: !5, file: !4, line: 244, baseType: !16, flags: DIFlagPublic | DIFlagStaticMember, extraData: i32 128)
!26 = !DIDerivedType(tag: DW_TAG_member, name: "scientific", scope: !5, file: !4, line: 245, baseType: !16, flags: DIFlagPublic | DIFlagStaticMember, extraData: i32 256)
!27 = !DIDerivedType(tag: DW_TAG_member, name: "showbase", scope: !5, file: !4, line: 246, baseType: !16, flags: DIFlagPublic | DIFlagStaticMember, extraData: i32 512)
!28 = !DIDerivedType(tag: DW_TAG_member, name: "showpoint", scope: !5, file: !4, line: 247, baseType: !16, flags: DIFlagPublic | DIFlagStaticMember, extraData: i32 1024)
!29 = !DIDerivedType(tag: DW_TAG_member, name: "showpos", scope: !5, file: !4, line: 248, baseType: !16, flags: DIFlagPublic | DIFlagStaticMember, extraData: i32 2048)
!30 = !DIDerivedType(tag: DW_TAG_member, name: "skipws", scope: !5, file: !4, line: 249, baseType: !16, flags: DIFlagPublic | DIFlagStaticMember, extraData: i32 4096)
!31 = !DIDerivedType(tag: DW_TAG_member, name: "unitbuf", scope: !5, file: !4, line: 250, baseType: !16, flags: DIFlagPublic | DIFlagStaticMember, extraData: i32 8192)
!32 = !DIDerivedType(tag: DW_TAG_member, name: "uppercase", scope: !5, file: !4, line: 251, baseType: !16, flags: DIFlagPublic | DIFlagStaticMember, extraData: i32 16384)
!33 = !DIDerivedType(tag: DW_TAG_member, name: "adjustfield", scope: !5, file: !4, line: 252, baseType: !16, flags: DIFlagPublic | DIFlagStaticMember, extraData: i32 176)
!34 = !DIDerivedType(tag: DW_TAG_member, name: "basefield", scope: !5, file: !4, line: 253, baseType: !16, flags: DIFlagPublic | DIFlagStaticMember, extraData: i32 74)
!35 = !DIDerivedType(tag: DW_TAG_member, name: "floatfield", scope: !5, file: !4, line: 254, baseType: !16, flags: DIFlagPublic | DIFlagStaticMember, extraData: i32 260)
!36 = !DIDerivedType(tag: DW_TAG_member, name: "badbit", scope: !5, file: !4, line: 257, baseType: !37, flags: DIFlagPublic | DIFlagStaticMember, extraData: i32 1)
!37 = !DIDerivedType(tag: DW_TAG_const_type, baseType: !38)
!38 = !DIDerivedType(tag: DW_TAG_typedef, name: "iostate", scope: !5, file: !4, line: 256, baseType: !18)
!39 = !DIDerivedType(tag: DW_TAG_member, name: "eofbit", scope: !5, file: !4, line: 258, baseType: !37, flags: DIFlagPublic | DIFlagStaticMember, extraData: i32 2)
!40 = !DIDerivedType(tag: DW_TAG_member, name: "failbit", scope: !5, file: !4, line: 259, baseType: !37, flags: DIFlagPublic | DIFlagStaticMember, extraData: i32 4)
!41 = !DIDerivedType(tag: DW_TAG_member, name: "goodbit", scope: !5, file: !4, line: 260, baseType: !37, flags: DIFlagPublic | DIFlagStaticMember, extraData: i32 0)
!42 = !DIDerivedType(tag: DW_TAG_member, name: "app", scope: !5, file: !4, line: 263, baseType: !43, flags: DIFlagPublic | DIFlagStaticMember, extraData: i32 1)
!43 = !DIDerivedType(tag: DW_TAG_const_type, baseType: !44)
!44 = !DIDerivedType(tag: DW_TAG_typedef, name: "openmode", scope: !5, file: !4, line: 262, baseType: !18)
!45 = !DIDerivedType(tag: DW_TAG_member, name: "ate", scope: !5, file: !4, line: 264, baseType: !43, flags: DIFlagPublic | DIFlagStaticMember, extraData: i32 2)
!46 = !DIDerivedType(tag: DW_TAG_member, name: "binary", scope: !5, file: !4, line: 265, baseType: !43, flags: DIFlagPublic | DIFlagStaticMember, extraData: i32 4)
!47 = !DIDerivedType(tag: DW_TAG_member, name: "in", scope: !5, file: !4, line: 266, baseType: !43, flags: DIFlagPublic | DIFlagStaticMember, extraData: i32 8)
!48 = !DIDerivedType(tag: DW_TAG_member, name: "out", scope: !5, file: !4, line: 267, baseType: !43, flags: DIFlagPublic | DIFlagStaticMember, extraData: i32 16)
!49 = !DIDerivedType(tag: DW_TAG_member, name: "trunc", scope: !5, file: !4, line: 268, baseType: !43, flags: DIFlagPublic | DIFlagStaticMember, extraData: i32 32)
!50 = !DIDerivedType(tag: DW_TAG_member, name: "__fmtflags_", scope: !5, file: !4, line: 362, baseType: !17, size: 32, offset: 64)
!51 = !DIDerivedType(tag: DW_TAG_member, name: "__precision_", scope: !5, file: !4, line: 363, baseType: !52, size: 64, offset: 128)
!52 = !DIDerivedType(tag: DW_TAG_typedef, name: "streamsize", scope: !6, file: !4, line: 229, baseType: !53)
!53 = !DIDerivedType(tag: DW_TAG_typedef, name: "ptrdiff_t", file: !54, line: 51, baseType: !55)
!54 = !DIFile(filename: "/Applications/Xcode.app/Contents/Developer/Toolchains/XcodeDefault.xctoolchain/usr/lib/clang/9.1.0/include/stddef.h", directory: "/Users/ejiang/Projects/lls/ac/llfiles")
!55 = !DIBasicType(name: "long int", size: 64, encoding: DW_ATE_signed)
!56 = !DIDerivedType(tag: DW_TAG_member, name: "__width_", scope: !5, file: !4, line: 364, baseType: !52, size: 64, offset: 192)
!57 = !DIDerivedType(tag: DW_TAG_member, name: "__rdstate_", scope: !5, file: !4, line: 365, baseType: !38, size: 32, offset: 256)
!58 = !DIDerivedType(tag: DW_TAG_member, name: "__exceptions_", scope: !5, file: !4, line: 366, baseType: !38, size: 32, offset: 288)
!59 = !DIDerivedType(tag: DW_TAG_member, name: "__rdbuf_", scope: !5, file: !4, line: 367, baseType: !60, size: 64, offset: 320)
!60 = !DIDerivedType(tag: DW_TAG_pointer_type, baseType: null, size: 64)
!61 = !DIDerivedType(tag: DW_TAG_member, name: "__loc_", scope: !5, file: !4, line: 368, baseType: !60, size: 64, offset: 384)
!62 = !DIDerivedType(tag: DW_TAG_member, name: "__fn_", scope: !5, file: !4, line: 369, baseType: !63, size: 64, offset: 448)
!63 = !DIDerivedType(tag: DW_TAG_pointer_type, baseType: !64, size: 64)
!64 = !DIDerivedType(tag: DW_TAG_typedef, name: "event_callback", scope: !5, file: !4, line: 309, baseType: !65)
!65 = !DIDerivedType(tag: DW_TAG_pointer_type, baseType: !66, size: 64)
!66 = !DISubroutineType(types: !67)
!67 = !{null, !3, !68, !14}
!68 = !DIDerivedType(tag: DW_TAG_reference_type, baseType: !5, size: 64)
!69 = !DIDerivedType(tag: DW_TAG_member, name: "__index_", scope: !5, file: !4, line: 370, baseType: !70, size: 64, offset: 512)
!70 = !DIDerivedType(tag: DW_TAG_pointer_type, baseType: !14, size: 64)
!71 = !DIDerivedType(tag: DW_TAG_member, name: "__event_size_", scope: !5, file: !4, line: 371, baseType: !72, size: 64, offset: 576)
!72 = !DIDerivedType(tag: DW_TAG_typedef, name: "size_t", file: !73, line: 31, baseType: !74)
!73 = !DIFile(filename: "/Applications/Xcode.app/Contents/Developer/Platforms/MacOSX.platform/Developer/SDKs/MacOSX10.13.sdk/usr/include/sys/_types/_size_t.h", directory: "/Users/ejiang/Projects/lls/ac/llfiles")
!74 = !DIDerivedType(tag: DW_TAG_typedef, name: "__darwin_size_t", file: !75, line: 92, baseType: !76)
!75 = !DIFile(filename: "/Applications/Xcode.app/Contents/Developer/Platforms/MacOSX.platform/Developer/SDKs/MacOSX10.13.sdk/usr/include/i386/_types.h", directory: "/Users/ejiang/Projects/lls/ac/llfiles")
!76 = !DIBasicType(name: "long unsigned int", size: 64, encoding: DW_ATE_unsigned)
!77 = !DIDerivedType(tag: DW_TAG_member, name: "__event_cap_", scope: !5, file: !4, line: 372, baseType: !72, size: 64, offset: 640)
!78 = !DIDerivedType(tag: DW_TAG_member, name: "__xindex_", scope: !5, file: !4, line: 376, baseType: !79, flags: DIFlagStaticMember)
!79 = !DICompositeType(tag: DW_TAG_structure_type, name: "atomic<int>", scope: !6, file: !80, line: 1084, flags: DIFlagFwdDecl, identifier: "_ZTSNSt3__16atomicIiEE")
!80 = !DIFile(filename: "/Applications/Xcode.app/Contents/Developer/Toolchains/XcodeDefault.xctoolchain/usr/include/c++/v1/atomic", directory: "/Users/ejiang/Projects/lls/ac/llfiles")
!81 = !DIDerivedType(tag: DW_TAG_member, name: "__iarray_", scope: !5, file: !4, line: 380, baseType: !82, size: 64, offset: 704)
!82 = !DIDerivedType(tag: DW_TAG_pointer_type, baseType: !55, size: 64)
!83 = !DIDerivedType(tag: DW_TAG_member, name: "__iarray_size_", scope: !5, file: !4, line: 381, baseType: !72, size: 64, offset: 768)
!84 = !DIDerivedType(tag: DW_TAG_member, name: "__iarray_cap_", scope: !5, file: !4, line: 382, baseType: !72, size: 64, offset: 832)
!85 = !DIDerivedType(tag: DW_TAG_member, name: "__parray_", scope: !5, file: !4, line: 383, baseType: !86, size: 64, offset: 896)
!86 = !DIDerivedType(tag: DW_TAG_pointer_type, baseType: !60, size: 64)
!87 = !DIDerivedType(tag: DW_TAG_member, name: "__parray_size_", scope: !5, file: !4, line: 384, baseType: !72, size: 64, offset: 960)
!88 = !DIDerivedType(tag: DW_TAG_member, name: "__parray_cap_", scope: !5, file: !4, line: 385, baseType: !72, size: 64, offset: 1024)
!89 = !DISubprogram(name: "flags", linkageName: "_ZNKSt3__18ios_base5flagsEv", scope: !5, file: !4, line: 284, type: !90, isLocal: false, isDefinition: false, scopeLine: 284, flags: DIFlagPublic | DIFlagPrototyped, isOptimized: false)
!90 = !DISubroutineType(types: !91)
!91 = !{!17, !92}
!92 = !DIDerivedType(tag: DW_TAG_pointer_type, baseType: !93, size: 64, flags: DIFlagArtificial | DIFlagObjectPointer)
!93 = !DIDerivedType(tag: DW_TAG_const_type, baseType: !5)
!94 = !DISubprogram(name: "flags", linkageName: "_ZNSt3__18ios_base5flagsEj", scope: !5, file: !4, line: 285, type: !95, isLocal: false, isDefinition: false, scopeLine: 285, flags: DIFlagPublic | DIFlagPrototyped, isOptimized: false)
!95 = !DISubroutineType(types: !96)
!96 = !{!17, !97, !17}
!97 = !DIDerivedType(tag: DW_TAG_pointer_type, baseType: !5, size: 64, flags: DIFlagArtificial | DIFlagObjectPointer)
!98 = !DISubprogram(name: "setf", linkageName: "_ZNSt3__18ios_base4setfEj", scope: !5, file: !4, line: 286, type: !95, isLocal: false, isDefinition: false, scopeLine: 286, flags: DIFlagPublic | DIFlagPrototyped, isOptimized: false)
!99 = !DISubprogram(name: "setf", linkageName: "_ZNSt3__18ios_base4setfEjj", scope: !5, file: !4, line: 287, type: !100, isLocal: false, isDefinition: false, scopeLine: 287, flags: DIFlagPublic | DIFlagPrototyped, isOptimized: false)
!100 = !DISubroutineType(types: !101)
!101 = !{!17, !97, !17, !17}
!102 = !DISubprogram(name: "unsetf", linkageName: "_ZNSt3__18ios_base6unsetfEj", scope: !5, file: !4, line: 288, type: !103, isLocal: false, isDefinition: false, scopeLine: 288, flags: DIFlagPublic | DIFlagPrototyped, isOptimized: false)
!103 = !DISubroutineType(types: !104)
!104 = !{null, !97, !17}
!105 = !DISubprogram(name: "precision", linkageName: "_ZNKSt3__18ios_base9precisionEv", scope: !5, file: !4, line: 290, type: !106, isLocal: false, isDefinition: false, scopeLine: 290, flags: DIFlagPublic | DIFlagPrototyped, isOptimized: false)
!106 = !DISubroutineType(types: !107)
!107 = !{!52, !92}
!108 = !DISubprogram(name: "precision", linkageName: "_ZNSt3__18ios_base9precisionEl", scope: !5, file: !4, line: 291, type: !109, isLocal: false, isDefinition: false, scopeLine: 291, flags: DIFlagPublic | DIFlagPrototyped, isOptimized: false)
!109 = !DISubroutineType(types: !110)
!110 = !{!52, !97, !52}
!111 = !DISubprogram(name: "width", linkageName: "_ZNKSt3__18ios_base5widthEv", scope: !5, file: !4, line: 292, type: !106, isLocal: false, isDefinition: false, scopeLine: 292, flags: DIFlagPublic | DIFlagPrototyped, isOptimized: false)
!112 = !DISubprogram(name: "width", linkageName: "_ZNSt3__18ios_base5widthEl", scope: !5, file: !4, line: 293, type: !109, isLocal: false, isDefinition: false, scopeLine: 293, flags: DIFlagPublic | DIFlagPrototyped, isOptimized: false)
!113 = !DISubprogram(name: "imbue", linkageName: "_ZNSt3__18ios_base5imbueERKNS_6localeE", scope: !5, file: !4, line: 296, type: !114, isLocal: false, isDefinition: false, scopeLine: 296, flags: DIFlagPublic | DIFlagPrototyped, isOptimized: false)
!114 = !DISubroutineType(types: !115)
!115 = !{!116, !97, !139}
!116 = distinct !DICompositeType(tag: DW_TAG_class_type, name: "locale", scope: !6, file: !117, line: 83, size: 64, elements: !118, identifier: "_ZTSNSt3__16localeE")
!117 = !DIFile(filename: "/Applications/Xcode.app/Contents/Developer/Toolchains/XcodeDefault.xctoolchain/usr/include/c++/v1/__locale", directory: "/Users/ejiang/Projects/lls/ac/llfiles")
!118 = !{!119, !122, !123, !124, !125, !126, !127, !128, !129, !132, !136, !141, !147, !1045, !1048, !1051, !1054, !1055, !1058, !1062, !1065, !1066, !1069, !1072, !1116, !1120, !1162}
!119 = !DIDerivedType(tag: DW_TAG_member, name: "none", scope: !116, file: !117, line: 93, baseType: !120, flags: DIFlagPublic | DIFlagStaticMember, extraData: i32 0)
!120 = !DIDerivedType(tag: DW_TAG_const_type, baseType: !121)
!121 = !DIDerivedType(tag: DW_TAG_typedef, name: "category", scope: !116, file: !117, line: 90, baseType: !14)
!122 = !DIDerivedType(tag: DW_TAG_member, name: "collate", scope: !116, file: !117, line: 94, baseType: !120, flags: DIFlagPublic | DIFlagStaticMember, extraData: i32 1)
!123 = !DIDerivedType(tag: DW_TAG_member, name: "ctype", scope: !116, file: !117, line: 95, baseType: !120, flags: DIFlagPublic | DIFlagStaticMember, extraData: i32 2)
!124 = !DIDerivedType(tag: DW_TAG_member, name: "monetary", scope: !116, file: !117, line: 96, baseType: !120, flags: DIFlagPublic | DIFlagStaticMember, extraData: i32 8)
!125 = !DIDerivedType(tag: DW_TAG_member, name: "numeric", scope: !116, file: !117, line: 97, baseType: !120, flags: DIFlagPublic | DIFlagStaticMember, extraData: i32 16)
!126 = !DIDerivedType(tag: DW_TAG_member, name: "time", scope: !116, file: !117, line: 98, baseType: !120, flags: DIFlagPublic | DIFlagStaticMember, extraData: i32 32)
!127 = !DIDerivedType(tag: DW_TAG_member, name: "messages", scope: !116, file: !117, line: 99, baseType: !120, flags: DIFlagPublic | DIFlagStaticMember, extraData: i32 4)
!128 = !DIDerivedType(tag: DW_TAG_member, name: "all", scope: !116, file: !117, line: 100, baseType: !120, flags: DIFlagPublic | DIFlagStaticMember, extraData: i32 63)
!129 = !DIDerivedType(tag: DW_TAG_member, name: "__locale_", scope: !116, file: !117, line: 136, baseType: !130, size: 64)
!130 = !DIDerivedType(tag: DW_TAG_pointer_type, baseType: !131, size: 64)
!131 = !DICompositeType(tag: DW_TAG_class_type, name: "__imp", scope: !116, file: !117, line: 135, flags: DIFlagFwdDecl, identifier: "_ZTSNSt3__16locale5__impE")
!132 = !DISubprogram(name: "locale", scope: !116, file: !117, line: 103, type: !133, isLocal: false, isDefinition: false, scopeLine: 103, flags: DIFlagPublic | DIFlagPrototyped, isOptimized: false)
!133 = !DISubroutineType(types: !134)
!134 = !{null, !135}
!135 = !DIDerivedType(tag: DW_TAG_pointer_type, baseType: !116, size: 64, flags: DIFlagArtificial | DIFlagObjectPointer)
!136 = !DISubprogram(name: "locale", scope: !116, file: !117, line: 104, type: !137, isLocal: false, isDefinition: false, scopeLine: 104, flags: DIFlagPublic | DIFlagPrototyped, isOptimized: false)
!137 = !DISubroutineType(types: !138)
!138 = !{null, !135, !139}
!139 = !DIDerivedType(tag: DW_TAG_reference_type, baseType: !140, size: 64)
!140 = !DIDerivedType(tag: DW_TAG_const_type, baseType: !116)
!141 = !DISubprogram(name: "locale", scope: !116, file: !117, line: 105, type: !142, isLocal: false, isDefinition: false, scopeLine: 105, flags: DIFlagPublic | DIFlagExplicit | DIFlagPrototyped, isOptimized: false)
!142 = !DISubroutineType(types: !143)
!143 = !{null, !135, !144}
!144 = !DIDerivedType(tag: DW_TAG_pointer_type, baseType: !145, size: 64)
!145 = !DIDerivedType(tag: DW_TAG_const_type, baseType: !146)
!146 = !DIBasicType(name: "char", size: 8, encoding: DW_ATE_signed_char)
!147 = !DISubprogram(name: "locale", scope: !116, file: !117, line: 106, type: !148, isLocal: false, isDefinition: false, scopeLine: 106, flags: DIFlagPublic | DIFlagExplicit | DIFlagPrototyped, isOptimized: false)
!148 = !DISubroutineType(types: !149)
!149 = !{null, !135, !150}
!150 = !DIDerivedType(tag: DW_TAG_reference_type, baseType: !151, size: 64)
!151 = !DIDerivedType(tag: DW_TAG_const_type, baseType: !152)
!152 = !DIDerivedType(tag: DW_TAG_typedef, name: "string", scope: !6, file: !153, line: 194, baseType: !154)
!153 = !DIFile(filename: "/Applications/Xcode.app/Contents/Developer/Toolchains/XcodeDefault.xctoolchain/usr/include/c++/v1/iosfwd", directory: "/Users/ejiang/Projects/lls/ac/llfiles")
!154 = distinct !DICompositeType(tag: DW_TAG_class_type, name: "basic_string<char, std::__1::char_traits<char>, std::__1::allocator<char> >", scope: !6, file: !155, line: 4002, size: 192, elements: !156, templateParams: !1043, identifier: "_ZTSNSt3__112basic_stringIcNS_11char_traitsIcEENS_9allocatorIcEEEE")
!155 = !DIFile(filename: "/Applications/Xcode.app/Contents/Developer/Toolchains/XcodeDefault.xctoolchain/usr/include/c++/v1/string", directory: "/Users/ejiang/Projects/lls/ac/llfiles")
!156 = !{!157, !169, !321, !322, !429, !430, !434, !440, !445, !448, !452, !455, !458, !461, !464, !467, !470, !473, !476, !479, !667, !670, !696, !699, !700, !704, !708, !711, !714, !719, !722, !727, !732, !733, !734, !739, !744, !745, !746, !747, !748, !749, !750, !753, !754, !755, !756, !759, !762, !763, !764, !765, !768, !773, !778, !779, !780, !781, !784, !785, !786, !787, !788, !789, !792, !795, !796, !799, !800, !803, !804, !807, !810, !811, !812, !813, !814, !815, !816, !817, !818, !819, !820, !823, !826, !829, !832, !835, !838, !841, !844, !847, !850, !853, !856, !859, !862, !865, !868, !871, !874, !877, !880, !883, !886, !889, !892, !896, !899, !902, !905, !906, !909, !912, !915, !918, !921, !924, !925, !926, !927, !928, !929, !930, !931, !932, !933, !934, !935, !936, !937, !938, !939, !940, !941, !942, !943, !944, !945, !946, !947, !948, !949, !952, !955, !958, !961, !964, !967, !970, !973, !974, !975, !979, !982, !983, !984, !985, !986, !987, !988, !989, !992, !995, !1003, !1004, !1005, !1006, !1007, !1008, !1011, !1014, !1017, !1018, !1021, !1024, !1025, !1026, !1029, !1032, !1035, !1038, !1039, !1040, !1041, !1042}
!157 = !DIDerivedType(tag: DW_TAG_inheritance, scope: !154, baseType: !158)
!158 = distinct !DICompositeType(tag: DW_TAG_class_type, name: "__basic_string_common<true>", scope: !6, file: !155, line: 583, size: 8, elements: !159, templateParams: !166, identifier: "_ZTSNSt3__121__basic_string_commonILb1EEE")
!159 = !{!160, !165}
!160 = !DISubprogram(name: "__throw_length_error", linkageName: "_ZNKSt3__121__basic_string_commonILb1EE20__throw_length_errorEv", scope: !158, file: !155, line: 565, type: !161, isLocal: false, isDefinition: false, scopeLine: 565, flags: DIFlagProtected | DIFlagPrototyped, isOptimized: false)
!161 = !DISubroutineType(types: !162)
!162 = !{null, !163}
!163 = !DIDerivedType(tag: DW_TAG_pointer_type, baseType: !164, size: 64, flags: DIFlagArtificial | DIFlagObjectPointer)
!164 = !DIDerivedType(tag: DW_TAG_const_type, baseType: !158)
!165 = !DISubprogram(name: "__throw_out_of_range", linkageName: "_ZNKSt3__121__basic_string_commonILb1EE20__throw_out_of_rangeEv", scope: !158, file: !155, line: 566, type: !161, isLocal: false, isDefinition: false, scopeLine: 566, flags: DIFlagProtected | DIFlagPrototyped, isOptimized: false)
!166 = !{!167}
!167 = !DITemplateValueParameter(type: !168, value: i8 1)
!168 = !DIBasicType(name: "bool", size: 8, encoding: DW_ATE_boolean)
!169 = !DIDerivedType(tag: DW_TAG_member, name: "__short_mask", scope: !154, file: !155, line: 707, baseType: !170, flags: DIFlagStaticMember, extraData: i64 1)
!170 = !DIDerivedType(tag: DW_TAG_const_type, baseType: !171)
!171 = !DIDerivedType(tag: DW_TAG_typedef, name: "size_type", scope: !154, file: !155, line: 640, baseType: !172)
!172 = !DIDerivedType(tag: DW_TAG_typedef, name: "size_type", scope: !174, file: !173, line: 1478, baseType: !316)
!173 = !DIFile(filename: "/Applications/Xcode.app/Contents/Developer/Toolchains/XcodeDefault.xctoolchain/usr/include/c++/v1/memory", directory: "/Users/ejiang/Projects/lls/ac/llfiles")
!174 = distinct !DICompositeType(tag: DW_TAG_structure_type, name: "allocator_traits<std::__1::allocator<char> >", scope: !6, file: !173, line: 1467, size: 8, elements: !175, templateParams: !315, identifier: "_ZTSNSt3__116allocator_traitsINS_9allocatorIcEEEE")
!175 = !{!176, !233, !260, !263, !268, !271, !288, !303, !306, !309, !312}
!176 = !DISubprogram(name: "allocate", linkageName: "_ZNSt3__116allocator_traitsINS_9allocatorIcEEE8allocateERS2_m", scope: !174, file: !173, line: 1501, type: !177, isLocal: false, isDefinition: false, scopeLine: 1501, flags: DIFlagPrototyped, isOptimized: false)
!177 = !DISubroutineType(types: !178)
!178 = !{!179, !231, !172}
!179 = !DIDerivedType(tag: DW_TAG_typedef, name: "pointer", scope: !174, file: !173, line: 1472, baseType: !180)
!180 = !DIDerivedType(tag: DW_TAG_typedef, name: "type", scope: !181, file: !173, line: 1020, baseType: !227)
!181 = distinct !DICompositeType(tag: DW_TAG_structure_type, name: "__pointer_type<char, std::__1::allocator<char> >", scope: !6, file: !173, line: 1018, size: 8, elements: !182, templateParams: !183, identifier: "_ZTSNSt3__114__pointer_typeIcNS_9allocatorIcEEEE")
!182 = !{}
!183 = !{!184, !185}
!184 = !DITemplateTypeParameter(name: "_Tp", type: !146)
!185 = !DITemplateTypeParameter(name: "_Dp", type: !186)
!186 = distinct !DICompositeType(tag: DW_TAG_class_type, name: "allocator<char>", scope: !6, file: !173, line: 1720, size: 8, elements: !187, templateParams: !226, identifier: "_ZTSNSt3__19allocatorIcEE")
!187 = !{!188, !192, !201, !207, !217, !220, !223}
!188 = !DISubprogram(name: "allocator", scope: !186, file: !173, line: 1736, type: !189, isLocal: false, isDefinition: false, scopeLine: 1736, flags: DIFlagPublic | DIFlagPrototyped, isOptimized: false)
!189 = !DISubroutineType(types: !190)
!190 = !{null, !191}
!191 = !DIDerivedType(tag: DW_TAG_pointer_type, baseType: !186, size: 64, flags: DIFlagArtificial | DIFlagObjectPointer)
!192 = !DISubprogram(name: "address", linkageName: "_ZNKSt3__19allocatorIcE7addressERc", scope: !186, file: !173, line: 1738, type: !193, isLocal: false, isDefinition: false, scopeLine: 1738, flags: DIFlagPublic | DIFlagPrototyped, isOptimized: false)
!193 = !DISubroutineType(types: !194)
!194 = !{!195, !197, !199}
!195 = !DIDerivedType(tag: DW_TAG_typedef, name: "pointer", scope: !186, file: !173, line: 1725, baseType: !196)
!196 = !DIDerivedType(tag: DW_TAG_pointer_type, baseType: !146, size: 64)
!197 = !DIDerivedType(tag: DW_TAG_pointer_type, baseType: !198, size: 64, flags: DIFlagArtificial | DIFlagObjectPointer)
!198 = !DIDerivedType(tag: DW_TAG_const_type, baseType: !186)
!199 = !DIDerivedType(tag: DW_TAG_typedef, name: "reference", scope: !186, file: !173, line: 1727, baseType: !200)
!200 = !DIDerivedType(tag: DW_TAG_reference_type, baseType: !146, size: 64)
!201 = !DISubprogram(name: "address", linkageName: "_ZNKSt3__19allocatorIcE7addressERKc", scope: !186, file: !173, line: 1740, type: !202, isLocal: false, isDefinition: false, scopeLine: 1740, flags: DIFlagPublic | DIFlagPrototyped, isOptimized: false)
!202 = !DISubroutineType(types: !203)
!203 = !{!204, !197, !205}
!204 = !DIDerivedType(tag: DW_TAG_typedef, name: "const_pointer", scope: !186, file: !173, line: 1726, baseType: !144)
!205 = !DIDerivedType(tag: DW_TAG_typedef, name: "const_reference", scope: !186, file: !173, line: 1728, baseType: !206)
!206 = !DIDerivedType(tag: DW_TAG_reference_type, baseType: !145, size: 64)
!207 = !DISubprogram(name: "allocate", linkageName: "_ZNSt3__19allocatorIcE8allocateEmPKv", scope: !186, file: !173, line: 1742, type: !208, isLocal: false, isDefinition: false, scopeLine: 1742, flags: DIFlagPublic | DIFlagPrototyped, isOptimized: false)
!208 = !DISubroutineType(types: !209)
!209 = !{!195, !191, !210, !211}
!210 = !DIDerivedType(tag: DW_TAG_typedef, name: "size_type", file: !173, line: 1723, baseType: !72)
!211 = !DIDerivedType(tag: DW_TAG_typedef, name: "const_pointer", scope: !212, file: !173, line: 704, baseType: !215)
!212 = distinct !DICompositeType(tag: DW_TAG_class_type, name: "allocator<void>", scope: !6, file: !173, line: 700, size: 8, elements: !182, templateParams: !213, identifier: "_ZTSNSt3__19allocatorIvEE")
!213 = !{!214}
!214 = !DITemplateTypeParameter(name: "_Tp", type: null)
!215 = !DIDerivedType(tag: DW_TAG_pointer_type, baseType: !216, size: 64)
!216 = !DIDerivedType(tag: DW_TAG_const_type, baseType: null)
!217 = !DISubprogram(name: "deallocate", linkageName: "_ZNSt3__19allocatorIcE10deallocateEPcm", scope: !186, file: !173, line: 1749, type: !218, isLocal: false, isDefinition: false, scopeLine: 1749, flags: DIFlagPublic | DIFlagPrototyped, isOptimized: false)
!218 = !DISubroutineType(types: !219)
!219 = !{null, !191, !195, !210}
!220 = !DISubprogram(name: "max_size", linkageName: "_ZNKSt3__19allocatorIcE8max_sizeEv", scope: !186, file: !173, line: 1751, type: !221, isLocal: false, isDefinition: false, scopeLine: 1751, flags: DIFlagPublic | DIFlagPrototyped, isOptimized: false)
!221 = !DISubroutineType(types: !222)
!222 = !{!210, !197}
!223 = !DISubprogram(name: "destroy", linkageName: "_ZNSt3__19allocatorIcE7destroyEPc", scope: !186, file: !173, line: 1814, type: !224, isLocal: false, isDefinition: false, scopeLine: 1814, flags: DIFlagPublic | DIFlagPrototyped, isOptimized: false)
!224 = !DISubroutineType(types: !225)
!225 = !{null, !191, !195}
!226 = !{!184}
!227 = !DIDerivedType(tag: DW_TAG_typedef, name: "type", scope: !228, file: !173, line: 1006, baseType: !195)
!228 = distinct !DICompositeType(tag: DW_TAG_structure_type, name: "__pointer_type<char, std::__1::allocator<char>, true>", scope: !229, file: !173, line: 1004, size: 8, elements: !182, templateParams: !230, identifier: "_ZTSNSt3__118__pointer_type_imp14__pointer_typeIcNS_9allocatorIcEELb1EEE")
!229 = !DINamespace(name: "__pointer_type_imp", scope: !6)
!230 = !{!184, !185, !167}
!231 = !DIDerivedType(tag: DW_TAG_reference_type, baseType: !232, size: 64)
!232 = !DIDerivedType(tag: DW_TAG_typedef, name: "allocator_type", scope: !174, file: !173, line: 1469, baseType: !186)
!233 = !DISubprogram(name: "allocate", linkageName: "_ZNSt3__116allocator_traitsINS_9allocatorIcEEE8allocateERS2_mPKv", scope: !174, file: !173, line: 1504, type: !234, isLocal: false, isDefinition: false, scopeLine: 1504, flags: DIFlagPrototyped, isOptimized: false)
!234 = !DISubroutineType(types: !235)
!235 = !{!179, !231, !172, !236}
!236 = !DIDerivedType(tag: DW_TAG_typedef, name: "const_void_pointer", scope: !174, file: !173, line: 1475, baseType: !237)
!237 = !DIDerivedType(tag: DW_TAG_typedef, name: "type", scope: !238, file: !173, line: 1086, baseType: !243)
!238 = distinct !DICompositeType(tag: DW_TAG_structure_type, name: "__const_void_pointer<char *, std::__1::allocator<char>, false>", scope: !6, file: !173, line: 1083, size: 8, elements: !182, templateParams: !239, identifier: "_ZTSNSt3__120__const_void_pointerIPcNS_9allocatorIcEELb0EEE")
!239 = !{!240, !241, !242}
!240 = !DITemplateTypeParameter(name: "_Ptr", type: !196)
!241 = !DITemplateTypeParameter(name: "_Alloc", type: !186)
!242 = !DITemplateValueParameter(type: !168, value: i8 0)
!243 = !DIDerivedType(tag: DW_TAG_typedef, name: "rebind<const void>", scope: !244, file: !173, line: 968, baseType: !215)
!244 = distinct !DICompositeType(tag: DW_TAG_structure_type, name: "pointer_traits<char *>", scope: !6, file: !173, line: 961, size: 8, elements: !245, templateParams: !259, identifier: "_ZTSNSt3__114pointer_traitsIPcEE")
!245 = !{!246}
!246 = !DISubprogram(name: "pointer_to", linkageName: "_ZNSt3__114pointer_traitsIPcE10pointer_toERc", scope: !244, file: !173, line: 977, type: !247, isLocal: false, isDefinition: false, scopeLine: 977, flags: DIFlagPrototyped, isOptimized: false)
!247 = !DISubroutineType(types: !248)
!248 = !{!249, !250}
!249 = !DIDerivedType(tag: DW_TAG_typedef, name: "pointer", scope: !244, file: !173, line: 963, baseType: !196)
!250 = !DIDerivedType(tag: DW_TAG_reference_type, baseType: !251, size: 64)
!251 = !DIDerivedType(tag: DW_TAG_typedef, name: "type", scope: !253, file: !252, line: 414, baseType: !146)
!252 = !DIFile(filename: "/Applications/Xcode.app/Contents/Developer/Toolchains/XcodeDefault.xctoolchain/usr/include/c++/v1/type_traits", directory: "/Users/ejiang/Projects/lls/ac/llfiles")
!253 = distinct !DICompositeType(tag: DW_TAG_structure_type, name: "conditional<false, std::__1::pointer_traits<char *>::__nat, char>", scope: !6, file: !252, line: 414, size: 8, elements: !182, templateParams: !254, identifier: "_ZTSNSt3__111conditionalILb0ENS_14pointer_traitsIPcE5__natEcEE")
!254 = !{!255, !256, !258}
!255 = !DITemplateValueParameter(name: "_Bp", type: !168, value: i8 0)
!256 = !DITemplateTypeParameter(name: "_If", type: !257)
!257 = !DICompositeType(tag: DW_TAG_structure_type, name: "__nat", scope: !244, file: !173, line: 974, flags: DIFlagFwdDecl, identifier: "_ZTSNSt3__114pointer_traitsIPcE5__natE")
!258 = !DITemplateTypeParameter(name: "_Then", type: !146)
!259 = !{!240}
!260 = !DISubprogram(name: "deallocate", linkageName: "_ZNSt3__116allocator_traitsINS_9allocatorIcEEE10deallocateERS2_Pcm", scope: !174, file: !173, line: 1509, type: !261, isLocal: false, isDefinition: false, scopeLine: 1509, flags: DIFlagPrototyped, isOptimized: false)
!261 = !DISubroutineType(types: !262)
!262 = !{null, !231, !179, !172}
!263 = !DISubprogram(name: "max_size", linkageName: "_ZNSt3__116allocator_traitsINS_9allocatorIcEEE8max_sizeERKS2_", scope: !174, file: !173, line: 1553, type: !264, isLocal: false, isDefinition: false, scopeLine: 1553, flags: DIFlagPrototyped, isOptimized: false)
!264 = !DISubroutineType(types: !265)
!265 = !{!172, !266}
!266 = !DIDerivedType(tag: DW_TAG_reference_type, baseType: !267, size: 64)
!267 = !DIDerivedType(tag: DW_TAG_const_type, baseType: !232)
!268 = !DISubprogram(name: "select_on_container_copy_construction", linkageName: "_ZNSt3__116allocator_traitsINS_9allocatorIcEEE37select_on_container_copy_constructionERKS2_", scope: !174, file: !173, line: 1558, type: !269, isLocal: false, isDefinition: false, scopeLine: 1558, flags: DIFlagPrototyped, isOptimized: false)
!269 = !DISubroutineType(types: !270)
!270 = !{!232, !266}
!271 = !DISubprogram(name: "__allocate", linkageName: "_ZNSt3__116allocator_traitsINS_9allocatorIcEEE10__allocateERS2_mPKvNS_17integral_constantIbLb1EEE", scope: !174, file: !173, line: 1658, type: !272, isLocal: false, isDefinition: false, scopeLine: 1658, flags: DIFlagPrivate | DIFlagPrototyped, isOptimized: false)
!272 = !DISubroutineType(types: !273)
!273 = !{!179, !231, !172, !236, !274}
!274 = !DIDerivedType(tag: DW_TAG_typedef, name: "true_type", scope: !6, file: !252, line: 528, baseType: !275)
!275 = distinct !DICompositeType(tag: DW_TAG_structure_type, name: "integral_constant<bool, true>", scope: !6, file: !252, line: 504, size: 8, elements: !276, templateParams: !285, identifier: "_ZTSNSt3__117integral_constantIbLb1EEE")
!276 = !{!277, !279}
!277 = !DIDerivedType(tag: DW_TAG_member, name: "value", scope: !275, file: !252, line: 506, baseType: !278, flags: DIFlagStaticMember, extraData: i1 true)
!278 = !DIDerivedType(tag: DW_TAG_const_type, baseType: !168)
!279 = !DISubprogram(name: "operator bool", linkageName: "_ZNKSt3__117integral_constantIbLb1EEcvbEv", scope: !275, file: !252, line: 510, type: !280, isLocal: false, isDefinition: false, scopeLine: 510, flags: DIFlagPrototyped, isOptimized: false)
!280 = !DISubroutineType(types: !281)
!281 = !{!282, !283}
!282 = !DIDerivedType(tag: DW_TAG_typedef, name: "value_type", scope: !275, file: !252, line: 507, baseType: !168)
!283 = !DIDerivedType(tag: DW_TAG_pointer_type, baseType: !284, size: 64, flags: DIFlagArtificial | DIFlagObjectPointer)
!284 = !DIDerivedType(tag: DW_TAG_const_type, baseType: !275)
!285 = !{!286, !287}
!286 = !DITemplateTypeParameter(name: "_Tp", type: !168)
!287 = !DITemplateValueParameter(name: "__v", type: !168, value: i8 1)
!288 = !DISubprogram(name: "__allocate", linkageName: "_ZNSt3__116allocator_traitsINS_9allocatorIcEEE10__allocateERS2_mPKvNS_17integral_constantIbLb0EEE", scope: !174, file: !173, line: 1662, type: !289, isLocal: false, isDefinition: false, scopeLine: 1662, flags: DIFlagPrivate | DIFlagPrototyped, isOptimized: false)
!289 = !DISubroutineType(types: !290)
!290 = !{!179, !231, !172, !236, !291}
!291 = !DIDerivedType(tag: DW_TAG_typedef, name: "false_type", scope: !6, file: !252, line: 529, baseType: !292)
!292 = distinct !DICompositeType(tag: DW_TAG_structure_type, name: "integral_constant<bool, false>", scope: !6, file: !252, line: 504, size: 8, elements: !293, templateParams: !301, identifier: "_ZTSNSt3__117integral_constantIbLb0EEE")
!293 = !{!294, !295}
!294 = !DIDerivedType(tag: DW_TAG_member, name: "value", scope: !292, file: !252, line: 506, baseType: !278, flags: DIFlagStaticMember, extraData: i1 false)
!295 = !DISubprogram(name: "operator bool", linkageName: "_ZNKSt3__117integral_constantIbLb0EEcvbEv", scope: !292, file: !252, line: 510, type: !296, isLocal: false, isDefinition: false, scopeLine: 510, flags: DIFlagPrototyped, isOptimized: false)
!296 = !DISubroutineType(types: !297)
!297 = !{!298, !299}
!298 = !DIDerivedType(tag: DW_TAG_typedef, name: "value_type", scope: !292, file: !252, line: 507, baseType: !168)
!299 = !DIDerivedType(tag: DW_TAG_pointer_type, baseType: !300, size: 64, flags: DIFlagArtificial | DIFlagObjectPointer)
!300 = !DIDerivedType(tag: DW_TAG_const_type, baseType: !292)
!301 = !{!286, !302}
!302 = !DITemplateValueParameter(name: "__v", type: !168, value: i8 0)
!303 = !DISubprogram(name: "__max_size", linkageName: "_ZNSt3__116allocator_traitsINS_9allocatorIcEEE10__max_sizeENS_17integral_constantIbLb1EEERKS2_", scope: !174, file: !173, line: 1691, type: !304, isLocal: false, isDefinition: false, scopeLine: 1691, flags: DIFlagPrivate | DIFlagPrototyped, isOptimized: false)
!304 = !DISubroutineType(types: !305)
!305 = !{!172, !274, !266}
!306 = !DISubprogram(name: "__max_size", linkageName: "_ZNSt3__116allocator_traitsINS_9allocatorIcEEE10__max_sizeENS_17integral_constantIbLb0EEERKS2_", scope: !174, file: !173, line: 1694, type: !307, isLocal: false, isDefinition: false, scopeLine: 1694, flags: DIFlagPrivate | DIFlagPrototyped, isOptimized: false)
!307 = !DISubroutineType(types: !308)
!308 = !{!172, !291, !266}
!309 = !DISubprogram(name: "__select_on_container_copy_construction", linkageName: "_ZNSt3__116allocator_traitsINS_9allocatorIcEEE39__select_on_container_copy_constructionENS_17integral_constantIbLb1EEERKS2_", scope: !174, file: !173, line: 1699, type: !310, isLocal: false, isDefinition: false, scopeLine: 1699, flags: DIFlagPrivate | DIFlagPrototyped, isOptimized: false)
!310 = !DISubroutineType(types: !311)
!311 = !{!232, !274, !266}
!312 = !DISubprogram(name: "__select_on_container_copy_construction", linkageName: "_ZNSt3__116allocator_traitsINS_9allocatorIcEEE39__select_on_container_copy_constructionENS_17integral_constantIbLb0EEERKS2_", scope: !174, file: !173, line: 1703, type: !313, isLocal: false, isDefinition: false, scopeLine: 1703, flags: DIFlagPrivate | DIFlagPrototyped, isOptimized: false)
!313 = !DISubroutineType(types: !314)
!314 = !{!232, !291, !266}
!315 = !{!241}
!316 = !DIDerivedType(tag: DW_TAG_typedef, name: "type", scope: !317, file: !173, line: 1124, baseType: !320)
!317 = distinct !DICompositeType(tag: DW_TAG_structure_type, name: "__size_type<std::__1::allocator<char>, long, true>", scope: !6, file: !173, line: 1122, size: 8, elements: !182, templateParams: !318, identifier: "_ZTSNSt3__111__size_typeINS_9allocatorIcEElLb1EEE")
!318 = !{!241, !319, !167}
!319 = !DITemplateTypeParameter(name: "_DiffType", type: !55)
!320 = !DIDerivedType(tag: DW_TAG_typedef, name: "size_type", scope: !186, file: !173, line: 1723, baseType: !72)
!321 = !DIDerivedType(tag: DW_TAG_member, name: "__long_mask", scope: !154, file: !155, line: 708, baseType: !170, flags: DIFlagStaticMember, extraData: i64 1)
!322 = !DIDerivedType(tag: DW_TAG_member, name: "__r_", scope: !154, file: !155, line: 745, baseType: !323, size: 192)
!323 = distinct !DICompositeType(tag: DW_TAG_class_type, name: "__compressed_pair<std::__1::basic_string<char, std::__1::char_traits<char>, std::__1::allocator<char> >::__rep, std::__1::allocator<char> >", scope: !6, file: !173, line: 2111, size: 192, elements: !324, templateParams: !426, identifier: "_ZTSNSt3__117__compressed_pairINS_12basic_stringIcNS_11char_traitsIcEENS_9allocatorIcEEE5__repES5_EE")
!324 = !{!325, !383, !407, !411, !416, !419, !422}
!325 = !DIDerivedType(tag: DW_TAG_inheritance, scope: !323, baseType: !326)
!326 = distinct !DICompositeType(tag: DW_TAG_structure_type, name: "__compressed_pair_elem<std::__1::basic_string<char, std::__1::char_traits<char>, std::__1::allocator<char> >::__rep, 0, false>", scope: !6, file: !173, line: 2037, size: 192, elements: !327, templateParams: !379, identifier: "_ZTSNSt3__122__compressed_pair_elemINS_12basic_stringIcNS_11char_traitsIcEENS_9allocatorIcEEE5__repELi0ELb0EEE")
!327 = !{!328, !362, !366, !371}
!328 = !DIDerivedType(tag: DW_TAG_member, name: "__value_", scope: !326, file: !173, line: 2069, baseType: !329, size: 192, flags: DIFlagPrivate)
!329 = distinct !DICompositeType(tag: DW_TAG_structure_type, name: "__rep", scope: !154, file: !155, line: 735, size: 192, elements: !330, identifier: "_ZTSNSt3__112basic_stringIcNS_11char_traitsIcEENS_9allocatorIcEEE5__repE")
!330 = !{!331}
!331 = !DIDerivedType(tag: DW_TAG_member, scope: !329, file: !155, line: 737, baseType: !332, size: 192)
!332 = distinct !DICompositeType(tag: DW_TAG_union_type, scope: !329, file: !155, line: 737, size: 192, elements: !333, identifier: "_ZTSNSt3__112basic_stringIcNS_11char_traitsIcEENS_9allocatorIcEEE5__repUt_E")
!333 = !{!334, !341, !355}
!334 = !DIDerivedType(tag: DW_TAG_member, name: "__l", scope: !332, file: !155, line: 739, baseType: !335, size: 192)
!335 = distinct !DICompositeType(tag: DW_TAG_structure_type, name: "__long", scope: !154, file: !155, line: 696, size: 192, elements: !336, identifier: "_ZTSNSt3__112basic_stringIcNS_11char_traitsIcEENS_9allocatorIcEEE6__longE")
!336 = !{!337, !338, !339}
!337 = !DIDerivedType(tag: DW_TAG_member, name: "__cap_", scope: !335, file: !155, line: 698, baseType: !171, size: 64)
!338 = !DIDerivedType(tag: DW_TAG_member, name: "__size_", scope: !335, file: !155, line: 699, baseType: !171, size: 64, offset: 64)
!339 = !DIDerivedType(tag: DW_TAG_member, name: "__data_", scope: !335, file: !155, line: 700, baseType: !340, size: 64, offset: 128)
!340 = !DIDerivedType(tag: DW_TAG_typedef, name: "pointer", scope: !154, file: !155, line: 644, baseType: !179)
!341 = !DIDerivedType(tag: DW_TAG_member, name: "__s", scope: !332, file: !155, line: 740, baseType: !342, size: 192)
!342 = distinct !DICompositeType(tag: DW_TAG_structure_type, name: "__short", scope: !154, file: !155, line: 714, size: 192, elements: !343, identifier: "_ZTSNSt3__112basic_stringIcNS_11char_traitsIcEENS_9allocatorIcEEE7__shortE")
!343 = !{!344, !351}
!344 = !DIDerivedType(tag: DW_TAG_member, scope: !342, file: !155, line: 716, baseType: !345, size: 8)
!345 = distinct !DICompositeType(tag: DW_TAG_union_type, scope: !342, file: !155, line: 716, size: 8, elements: !346, identifier: "_ZTSNSt3__112basic_stringIcNS_11char_traitsIcEENS_9allocatorIcEEE7__shortUt_E")
!346 = !{!347, !349}
!347 = !DIDerivedType(tag: DW_TAG_member, name: "__size_", scope: !345, file: !155, line: 718, baseType: !348, size: 8)
!348 = !DIBasicType(name: "unsigned char", size: 8, encoding: DW_ATE_unsigned_char)
!349 = !DIDerivedType(tag: DW_TAG_member, name: "__lx", scope: !345, file: !155, line: 719, baseType: !350, size: 8)
!350 = !DIDerivedType(tag: DW_TAG_typedef, name: "value_type", scope: !154, file: !155, line: 637, baseType: !146)
!351 = !DIDerivedType(tag: DW_TAG_member, name: "__data_", scope: !342, file: !155, line: 721, baseType: !352, size: 184, offset: 8)
!352 = !DICompositeType(tag: DW_TAG_array_type, baseType: !350, size: 184, elements: !353)
!353 = !{!354}
!354 = !DISubrange(count: 23)
!355 = !DIDerivedType(tag: DW_TAG_member, name: "__r", scope: !332, file: !155, line: 741, baseType: !356, size: 192)
!356 = distinct !DICompositeType(tag: DW_TAG_structure_type, name: "__raw", scope: !154, file: !155, line: 730, size: 192, elements: !357, identifier: "_ZTSNSt3__112basic_stringIcNS_11char_traitsIcEENS_9allocatorIcEEE5__rawE")
!357 = !{!358}
!358 = !DIDerivedType(tag: DW_TAG_member, name: "__words", scope: !356, file: !155, line: 732, baseType: !359, size: 192)
!359 = !DICompositeType(tag: DW_TAG_array_type, baseType: !171, size: 192, elements: !360)
!360 = !{!361}
!361 = !DISubrange(count: 3)
!362 = !DISubprogram(name: "__compressed_pair_elem", scope: !326, file: !173, line: 2043, type: !363, isLocal: false, isDefinition: false, scopeLine: 2043, flags: DIFlagPrototyped, isOptimized: false)
!363 = !DISubroutineType(types: !364)
!364 = !{null, !365}
!365 = !DIDerivedType(tag: DW_TAG_pointer_type, baseType: !326, size: 64, flags: DIFlagArtificial | DIFlagObjectPointer)
!366 = !DISubprogram(name: "__get", linkageName: "_ZNSt3__122__compressed_pair_elemINS_12basic_stringIcNS_11char_traitsIcEENS_9allocatorIcEEE5__repELi0ELb0EE5__getEv", scope: !326, file: !173, line: 2064, type: !367, isLocal: false, isDefinition: false, scopeLine: 2064, flags: DIFlagPrototyped, isOptimized: false)
!367 = !DISubroutineType(types: !368)
!368 = !{!369, !365}
!369 = !DIDerivedType(tag: DW_TAG_typedef, name: "reference", scope: !326, file: !173, line: 2039, baseType: !370)
!370 = !DIDerivedType(tag: DW_TAG_reference_type, baseType: !329, size: 64)
!371 = !DISubprogram(name: "__get", linkageName: "_ZNKSt3__122__compressed_pair_elemINS_12basic_stringIcNS_11char_traitsIcEENS_9allocatorIcEEE5__repELi0ELb0EE5__getEv", scope: !326, file: !173, line: 2066, type: !372, isLocal: false, isDefinition: false, scopeLine: 2066, flags: DIFlagPrototyped, isOptimized: false)
!372 = !DISubroutineType(types: !373)
!373 = !{!374, !377}
!374 = !DIDerivedType(tag: DW_TAG_typedef, name: "const_reference", scope: !326, file: !173, line: 2040, baseType: !375)
!375 = !DIDerivedType(tag: DW_TAG_reference_type, baseType: !376, size: 64)
!376 = !DIDerivedType(tag: DW_TAG_const_type, baseType: !329)
!377 = !DIDerivedType(tag: DW_TAG_pointer_type, baseType: !378, size: 64, flags: DIFlagArtificial | DIFlagObjectPointer)
!378 = !DIDerivedType(tag: DW_TAG_const_type, baseType: !326)
!379 = !{!380, !381, !382}
!380 = !DITemplateTypeParameter(name: "_Tp", type: !329)
!381 = !DITemplateValueParameter(name: "_Idx", type: !14, value: i32 0)
!382 = !DITemplateValueParameter(name: "_CanBeEmptyBase", type: !168, value: i8 0)
!383 = !DIDerivedType(tag: DW_TAG_inheritance, scope: !323, baseType: !384)
!384 = distinct !DICompositeType(tag: DW_TAG_structure_type, name: "__compressed_pair_elem<std::__1::allocator<char>, 1, true>", scope: !6, file: !173, line: 2073, size: 8, elements: !385, templateParams: !403, identifier: "_ZTSNSt3__122__compressed_pair_elemINS_9allocatorIcEELi1ELb1EEE")
!385 = !{!386, !387, !391, !396}
!386 = !DIDerivedType(tag: DW_TAG_inheritance, scope: !384, baseType: !186, flags: DIFlagPrivate)
!387 = !DISubprogram(name: "__compressed_pair_elem", scope: !384, file: !173, line: 2080, type: !388, isLocal: false, isDefinition: false, scopeLine: 2080, flags: DIFlagPrototyped, isOptimized: false)
!388 = !DISubroutineType(types: !389)
!389 = !{null, !390}
!390 = !DIDerivedType(tag: DW_TAG_pointer_type, baseType: !384, size: 64, flags: DIFlagArtificial | DIFlagObjectPointer)
!391 = !DISubprogram(name: "__get", linkageName: "_ZNSt3__122__compressed_pair_elemINS_9allocatorIcEELi1ELb1EE5__getEv", scope: !384, file: !173, line: 2102, type: !392, isLocal: false, isDefinition: false, scopeLine: 2102, flags: DIFlagPrototyped, isOptimized: false)
!392 = !DISubroutineType(types: !393)
!393 = !{!394, !390}
!394 = !DIDerivedType(tag: DW_TAG_typedef, name: "reference", scope: !384, file: !173, line: 2075, baseType: !395)
!395 = !DIDerivedType(tag: DW_TAG_reference_type, baseType: !186, size: 64)
!396 = !DISubprogram(name: "__get", linkageName: "_ZNKSt3__122__compressed_pair_elemINS_9allocatorIcEELi1ELb1EE5__getEv", scope: !384, file: !173, line: 2104, type: !397, isLocal: false, isDefinition: false, scopeLine: 2104, flags: DIFlagPrototyped, isOptimized: false)
!397 = !DISubroutineType(types: !398)
!398 = !{!399, !401}
!399 = !DIDerivedType(tag: DW_TAG_typedef, name: "const_reference", scope: !384, file: !173, line: 2076, baseType: !400)
!400 = !DIDerivedType(tag: DW_TAG_reference_type, baseType: !198, size: 64)
!401 = !DIDerivedType(tag: DW_TAG_pointer_type, baseType: !402, size: 64, flags: DIFlagArtificial | DIFlagObjectPointer)
!402 = !DIDerivedType(tag: DW_TAG_const_type, baseType: !384)
!403 = !{!404, !405, !406}
!404 = !DITemplateTypeParameter(name: "_Tp", type: !186)
!405 = !DITemplateValueParameter(name: "_Idx", type: !14, value: i32 1)
!406 = !DITemplateValueParameter(name: "_CanBeEmptyBase", type: !168, value: i8 1)
!407 = !DISubprogram(name: "first", linkageName: "_ZNSt3__117__compressed_pairINS_12basic_stringIcNS_11char_traitsIcEENS_9allocatorIcEEE5__repES5_E5firstEv", scope: !323, file: !173, line: 2179, type: !408, isLocal: false, isDefinition: false, scopeLine: 2179, flags: DIFlagPublic | DIFlagPrototyped, isOptimized: false)
!408 = !DISubroutineType(types: !409)
!409 = !{!369, !410}
!410 = !DIDerivedType(tag: DW_TAG_pointer_type, baseType: !323, size: 64, flags: DIFlagArtificial | DIFlagObjectPointer)
!411 = !DISubprogram(name: "first", linkageName: "_ZNKSt3__117__compressed_pairINS_12basic_stringIcNS_11char_traitsIcEENS_9allocatorIcEEE5__repES5_E5firstEv", scope: !323, file: !173, line: 2184, type: !412, isLocal: false, isDefinition: false, scopeLine: 2184, flags: DIFlagPublic | DIFlagPrototyped, isOptimized: false)
!412 = !DISubroutineType(types: !413)
!413 = !{!374, !414}
!414 = !DIDerivedType(tag: DW_TAG_pointer_type, baseType: !415, size: 64, flags: DIFlagArtificial | DIFlagObjectPointer)
!415 = !DIDerivedType(tag: DW_TAG_const_type, baseType: !323)
!416 = !DISubprogram(name: "second", linkageName: "_ZNSt3__117__compressed_pairINS_12basic_stringIcNS_11char_traitsIcEENS_9allocatorIcEEE5__repES5_E6secondEv", scope: !323, file: !173, line: 2189, type: !417, isLocal: false, isDefinition: false, scopeLine: 2189, flags: DIFlagPublic | DIFlagPrototyped, isOptimized: false)
!417 = !DISubroutineType(types: !418)
!418 = !{!394, !410}
!419 = !DISubprogram(name: "second", linkageName: "_ZNKSt3__117__compressed_pairINS_12basic_stringIcNS_11char_traitsIcEENS_9allocatorIcEEE5__repES5_E6secondEv", scope: !323, file: !173, line: 2194, type: !420, isLocal: false, isDefinition: false, scopeLine: 2194, flags: DIFlagPublic | DIFlagPrototyped, isOptimized: false)
!420 = !DISubroutineType(types: !421)
!421 = !{!399, !414}
!422 = !DISubprogram(name: "swap", linkageName: "_ZNSt3__117__compressed_pairINS_12basic_stringIcNS_11char_traitsIcEENS_9allocatorIcEEE5__repES5_E4swapERS8_", scope: !323, file: !173, line: 2199, type: !423, isLocal: false, isDefinition: false, scopeLine: 2199, flags: DIFlagPublic | DIFlagPrototyped, isOptimized: false)
!423 = !DISubroutineType(types: !424)
!424 = !{null, !410, !425}
!425 = !DIDerivedType(tag: DW_TAG_reference_type, baseType: !323, size: 64)
!426 = !{!427, !428}
!427 = !DITemplateTypeParameter(name: "_T1", type: !329)
!428 = !DITemplateTypeParameter(name: "_T2", type: !186)
!429 = !DIDerivedType(tag: DW_TAG_member, name: "npos", scope: !154, file: !155, line: 748, baseType: !170, flags: DIFlagPublic | DIFlagStaticMember, extraData: i64 -1)
!430 = !DISubprogram(name: "basic_string", scope: !154, file: !155, line: 750, type: !431, isLocal: false, isDefinition: false, scopeLine: 750, flags: DIFlagPublic | DIFlagPrototyped, isOptimized: false)
!431 = !DISubroutineType(types: !432)
!432 = !{null, !433}
!433 = !DIDerivedType(tag: DW_TAG_pointer_type, baseType: !154, size: 64, flags: DIFlagArtificial | DIFlagObjectPointer)
!434 = !DISubprogram(name: "basic_string", scope: !154, file: !155, line: 753, type: !435, isLocal: false, isDefinition: false, scopeLine: 753, flags: DIFlagPublic | DIFlagExplicit | DIFlagPrototyped, isOptimized: false)
!435 = !DISubroutineType(types: !436)
!436 = !{null, !433, !437}
!437 = !DIDerivedType(tag: DW_TAG_reference_type, baseType: !438, size: 64)
!438 = !DIDerivedType(tag: DW_TAG_const_type, baseType: !439)
!439 = !DIDerivedType(tag: DW_TAG_typedef, name: "allocator_type", scope: !154, file: !155, line: 638, baseType: !186)
!440 = !DISubprogram(name: "basic_string", scope: !154, file: !155, line: 760, type: !441, isLocal: false, isDefinition: false, scopeLine: 760, flags: DIFlagPublic | DIFlagPrototyped, isOptimized: false)
!441 = !DISubroutineType(types: !442)
!442 = !{null, !433, !443}
!443 = !DIDerivedType(tag: DW_TAG_reference_type, baseType: !444, size: 64)
!444 = !DIDerivedType(tag: DW_TAG_const_type, baseType: !154)
!445 = !DISubprogram(name: "basic_string", scope: !154, file: !155, line: 761, type: !446, isLocal: false, isDefinition: false, scopeLine: 761, flags: DIFlagPublic | DIFlagPrototyped, isOptimized: false)
!446 = !DISubroutineType(types: !447)
!447 = !{null, !433, !443, !437}
!448 = !DISubprogram(name: "basic_string", scope: !154, file: !155, line: 765, type: !449, isLocal: false, isDefinition: false, scopeLine: 765, flags: DIFlagPublic | DIFlagPrototyped, isOptimized: false)
!449 = !DISubroutineType(types: !450)
!450 = !{null, !433, !451}
!451 = !DIDerivedType(tag: DW_TAG_rvalue_reference_type, baseType: !154, size: 64)
!452 = !DISubprogram(name: "basic_string", scope: !154, file: !155, line: 773, type: !453, isLocal: false, isDefinition: false, scopeLine: 773, flags: DIFlagPublic | DIFlagPrototyped, isOptimized: false)
!453 = !DISubroutineType(types: !454)
!454 = !{null, !433, !451, !437}
!455 = !DISubprogram(name: "basic_string", scope: !154, file: !155, line: 775, type: !456, isLocal: false, isDefinition: false, scopeLine: 775, flags: DIFlagPublic | DIFlagPrototyped, isOptimized: false)
!456 = !DISubroutineType(types: !457)
!457 = !{null, !433, !144}
!458 = !DISubprogram(name: "basic_string", scope: !154, file: !155, line: 777, type: !459, isLocal: false, isDefinition: false, scopeLine: 777, flags: DIFlagPublic | DIFlagPrototyped, isOptimized: false)
!459 = !DISubroutineType(types: !460)
!460 = !{null, !433, !144, !400}
!461 = !DISubprogram(name: "basic_string", scope: !154, file: !155, line: 779, type: !462, isLocal: false, isDefinition: false, scopeLine: 779, flags: DIFlagPublic | DIFlagPrototyped, isOptimized: false)
!462 = !DISubroutineType(types: !463)
!463 = !{null, !433, !144, !171}
!464 = !DISubprogram(name: "basic_string", scope: !154, file: !155, line: 781, type: !465, isLocal: false, isDefinition: false, scopeLine: 781, flags: DIFlagPublic | DIFlagPrototyped, isOptimized: false)
!465 = !DISubroutineType(types: !466)
!466 = !{null, !433, !144, !171, !400}
!467 = !DISubprogram(name: "basic_string", scope: !154, file: !155, line: 783, type: !468, isLocal: false, isDefinition: false, scopeLine: 783, flags: DIFlagPublic | DIFlagPrototyped, isOptimized: false)
!468 = !DISubroutineType(types: !469)
!469 = !{null, !433, !171, !146}
!470 = !DISubprogram(name: "basic_string", scope: !154, file: !155, line: 785, type: !471, isLocal: false, isDefinition: false, scopeLine: 785, flags: DIFlagPublic | DIFlagPrototyped, isOptimized: false)
!471 = !DISubroutineType(types: !472)
!472 = !{null, !433, !171, !146, !400}
!473 = !DISubprogram(name: "basic_string", scope: !154, file: !155, line: 786, type: !474, isLocal: false, isDefinition: false, scopeLine: 786, flags: DIFlagPublic | DIFlagPrototyped, isOptimized: false)
!474 = !DISubroutineType(types: !475)
!475 = !{null, !433, !443, !171, !171, !400}
!476 = !DISubprogram(name: "basic_string", scope: !154, file: !155, line: 789, type: !477, isLocal: false, isDefinition: false, scopeLine: 789, flags: DIFlagPublic | DIFlagPrototyped, isOptimized: false)
!477 = !DISubroutineType(types: !478)
!478 = !{null, !433, !443, !171, !400}
!479 = !DISubprogram(name: "basic_string", scope: !154, file: !155, line: 797, type: !480, isLocal: false, isDefinition: false, scopeLine: 797, flags: DIFlagPublic | DIFlagExplicit | DIFlagPrototyped, isOptimized: false)
!480 = !DISubroutineType(types: !481)
!481 = !{null, !433, !482}
!482 = !DIDerivedType(tag: DW_TAG_typedef, name: "__self_view", scope: !154, file: !155, line: 635, baseType: !483)
!483 = distinct !DICompositeType(tag: DW_TAG_class_type, name: "basic_string_view<char, std::__1::char_traits<char> >", scope: !6, file: !484, line: 187, size: 128, elements: !485, templateParams: !615, identifier: "_ZTSNSt3__117basic_string_viewIcNS_11char_traitsIcEEEE")
!484 = !DIFile(filename: "/Applications/Xcode.app/Contents/Developer/Toolchains/XcodeDefault.xctoolchain/usr/include/c++/v1/string_view", directory: "/Users/ejiang/Projects/lls/ac/llfiles")
!485 = !{!486, !489, !493, !494, !498, !503, !507, !510, !513, !519, !520, !521, !522, !528, !529, !530, !531, !534, !535, !536, !539, !543, !544, !547, !548, !551, !554, !555, !558, !562, !565, !568, !571, !574, !577, !580, !583, !586, !589, !592, !595, !596, !597, !598, !599, !600, !601, !602, !603, !604, !605, !606, !607, !608, !609, !610, !611, !612, !613, !614}
!486 = !DIDerivedType(tag: DW_TAG_member, name: "npos", scope: !483, file: !484, line: 202, baseType: !487, flags: DIFlagPublic | DIFlagStaticMember, extraData: i64 -1)
!487 = !DIDerivedType(tag: DW_TAG_const_type, baseType: !488)
!488 = !DIDerivedType(tag: DW_TAG_typedef, name: "size_type", file: !484, line: 200, baseType: !72)
!489 = !DIDerivedType(tag: DW_TAG_member, name: "__data", scope: !483, file: !484, line: 569, baseType: !490, size: 64)
!490 = !DIDerivedType(tag: DW_TAG_pointer_type, baseType: !491, size: 64)
!491 = !DIDerivedType(tag: DW_TAG_const_type, baseType: !492)
!492 = !DIDerivedType(tag: DW_TAG_typedef, name: "value_type", scope: !483, file: !484, line: 191, baseType: !146)
!493 = !DIDerivedType(tag: DW_TAG_member, name: "__size", scope: !483, file: !484, line: 570, baseType: !488, size: 64, offset: 64)
!494 = !DISubprogram(name: "basic_string_view", scope: !483, file: !484, line: 210, type: !495, isLocal: false, isDefinition: false, scopeLine: 210, flags: DIFlagPublic | DIFlagPrototyped, isOptimized: false)
!495 = !DISubroutineType(types: !496)
!496 = !{null, !497}
!497 = !DIDerivedType(tag: DW_TAG_pointer_type, baseType: !483, size: 64, flags: DIFlagArtificial | DIFlagObjectPointer)
!498 = !DISubprogram(name: "basic_string_view", scope: !483, file: !484, line: 213, type: !499, isLocal: false, isDefinition: false, scopeLine: 213, flags: DIFlagPublic | DIFlagPrototyped, isOptimized: false)
!499 = !DISubroutineType(types: !500)
!500 = !{null, !497, !501}
!501 = !DIDerivedType(tag: DW_TAG_reference_type, baseType: !502, size: 64)
!502 = !DIDerivedType(tag: DW_TAG_const_type, baseType: !483)
!503 = !DISubprogram(name: "operator=", linkageName: "_ZNSt3__117basic_string_viewIcNS_11char_traitsIcEEEaSERKS3_", scope: !483, file: !484, line: 216, type: !504, isLocal: false, isDefinition: false, scopeLine: 216, flags: DIFlagPublic | DIFlagPrototyped, isOptimized: false)
!504 = !DISubroutineType(types: !505)
!505 = !{!506, !497, !501}
!506 = !DIDerivedType(tag: DW_TAG_reference_type, baseType: !483, size: 64)
!507 = !DISubprogram(name: "basic_string_view", scope: !483, file: !484, line: 219, type: !508, isLocal: false, isDefinition: false, scopeLine: 219, flags: DIFlagPublic | DIFlagPrototyped, isOptimized: false)
!508 = !DISubroutineType(types: !509)
!509 = !{null, !497, !144, !488}
!510 = !DISubprogram(name: "basic_string_view", scope: !483, file: !484, line: 228, type: !511, isLocal: false, isDefinition: false, scopeLine: 228, flags: DIFlagPublic | DIFlagPrototyped, isOptimized: false)
!511 = !DISubroutineType(types: !512)
!512 = !{null, !497, !144}
!513 = !DISubprogram(name: "begin", linkageName: "_ZNKSt3__117basic_string_viewIcNS_11char_traitsIcEEE5beginEv", scope: !483, file: !484, line: 233, type: !514, isLocal: false, isDefinition: false, scopeLine: 233, flags: DIFlagPublic | DIFlagPrototyped, isOptimized: false)
!514 = !DISubroutineType(types: !515)
!515 = !{!516, !518}
!516 = !DIDerivedType(tag: DW_TAG_typedef, name: "const_iterator", scope: !483, file: !484, line: 196, baseType: !517)
!517 = !DIDerivedType(tag: DW_TAG_typedef, name: "const_pointer", scope: !483, file: !484, line: 193, baseType: !144)
!518 = !DIDerivedType(tag: DW_TAG_pointer_type, baseType: !502, size: 64, flags: DIFlagArtificial | DIFlagObjectPointer)
!519 = !DISubprogram(name: "end", linkageName: "_ZNKSt3__117basic_string_viewIcNS_11char_traitsIcEEE3endEv", scope: !483, file: !484, line: 236, type: !514, isLocal: false, isDefinition: false, scopeLine: 236, flags: DIFlagPublic | DIFlagPrototyped, isOptimized: false)
!520 = !DISubprogram(name: "cbegin", linkageName: "_ZNKSt3__117basic_string_viewIcNS_11char_traitsIcEEE6cbeginEv", scope: !483, file: !484, line: 239, type: !514, isLocal: false, isDefinition: false, scopeLine: 239, flags: DIFlagPublic | DIFlagPrototyped, isOptimized: false)
!521 = !DISubprogram(name: "cend", linkageName: "_ZNKSt3__117basic_string_viewIcNS_11char_traitsIcEEE4cendEv", scope: !483, file: !484, line: 242, type: !514, isLocal: false, isDefinition: false, scopeLine: 242, flags: DIFlagPublic | DIFlagPrototyped, isOptimized: false)
!522 = !DISubprogram(name: "rbegin", linkageName: "_ZNKSt3__117basic_string_viewIcNS_11char_traitsIcEEE6rbeginEv", scope: !483, file: !484, line: 245, type: !523, isLocal: false, isDefinition: false, scopeLine: 245, flags: DIFlagPublic | DIFlagPrototyped, isOptimized: false)
!523 = !DISubroutineType(types: !524)
!524 = !{!525, !518}
!525 = !DIDerivedType(tag: DW_TAG_typedef, name: "const_reverse_iterator", scope: !483, file: !484, line: 198, baseType: !526)
!526 = !DICompositeType(tag: DW_TAG_class_type, name: "reverse_iterator<const char *>", scope: !6, file: !527, line: 636, flags: DIFlagFwdDecl, identifier: "_ZTSNSt3__116reverse_iteratorIPKcEE")
!527 = !DIFile(filename: "/Applications/Xcode.app/Contents/Developer/Toolchains/XcodeDefault.xctoolchain/usr/include/c++/v1/iterator", directory: "/Users/ejiang/Projects/lls/ac/llfiles")
!528 = !DISubprogram(name: "rend", linkageName: "_ZNKSt3__117basic_string_viewIcNS_11char_traitsIcEEE4rendEv", scope: !483, file: !484, line: 248, type: !523, isLocal: false, isDefinition: false, scopeLine: 248, flags: DIFlagPublic | DIFlagPrototyped, isOptimized: false)
!529 = !DISubprogram(name: "crbegin", linkageName: "_ZNKSt3__117basic_string_viewIcNS_11char_traitsIcEEE7crbeginEv", scope: !483, file: !484, line: 251, type: !523, isLocal: false, isDefinition: false, scopeLine: 251, flags: DIFlagPublic | DIFlagPrototyped, isOptimized: false)
!530 = !DISubprogram(name: "crend", linkageName: "_ZNKSt3__117basic_string_viewIcNS_11char_traitsIcEEE5crendEv", scope: !483, file: !484, line: 254, type: !523, isLocal: false, isDefinition: false, scopeLine: 254, flags: DIFlagPublic | DIFlagPrototyped, isOptimized: false)
!531 = !DISubprogram(name: "size", linkageName: "_ZNKSt3__117basic_string_viewIcNS_11char_traitsIcEEE4sizeEv", scope: !483, file: !484, line: 258, type: !532, isLocal: false, isDefinition: false, scopeLine: 258, flags: DIFlagPublic | DIFlagPrototyped, isOptimized: false)
!532 = !DISubroutineType(types: !533)
!533 = !{!488, !518}
!534 = !DISubprogram(name: "length", linkageName: "_ZNKSt3__117basic_string_viewIcNS_11char_traitsIcEEE6lengthEv", scope: !483, file: !484, line: 261, type: !532, isLocal: false, isDefinition: false, scopeLine: 261, flags: DIFlagPublic | DIFlagPrototyped, isOptimized: false)
!535 = !DISubprogram(name: "max_size", linkageName: "_ZNKSt3__117basic_string_viewIcNS_11char_traitsIcEEE8max_sizeEv", scope: !483, file: !484, line: 264, type: !532, isLocal: false, isDefinition: false, scopeLine: 264, flags: DIFlagPublic | DIFlagPrototyped, isOptimized: false)
!536 = !DISubprogram(name: "empty", linkageName: "_ZNKSt3__117basic_string_viewIcNS_11char_traitsIcEEE5emptyEv", scope: !483, file: !484, line: 267, type: !537, isLocal: false, isDefinition: false, scopeLine: 267, flags: DIFlagPublic | DIFlagPrototyped, isOptimized: false)
!537 = !DISubroutineType(types: !538)
!538 = !{!168, !518}
!539 = !DISubprogram(name: "operator[]", linkageName: "_ZNKSt3__117basic_string_viewIcNS_11char_traitsIcEEEixEm", scope: !483, file: !484, line: 271, type: !540, isLocal: false, isDefinition: false, scopeLine: 271, flags: DIFlagPublic | DIFlagPrototyped, isOptimized: false)
!540 = !DISubroutineType(types: !541)
!541 = !{!542, !518, !488}
!542 = !DIDerivedType(tag: DW_TAG_typedef, name: "const_reference", scope: !483, file: !484, line: 195, baseType: !206)
!543 = !DISubprogram(name: "at", linkageName: "_ZNKSt3__117basic_string_viewIcNS_11char_traitsIcEEE2atEm", scope: !483, file: !484, line: 274, type: !540, isLocal: false, isDefinition: false, scopeLine: 274, flags: DIFlagPublic | DIFlagPrototyped, isOptimized: false)
!544 = !DISubprogram(name: "front", linkageName: "_ZNKSt3__117basic_string_viewIcNS_11char_traitsIcEEE5frontEv", scope: !483, file: !484, line: 282, type: !545, isLocal: false, isDefinition: false, scopeLine: 282, flags: DIFlagPublic | DIFlagPrototyped, isOptimized: false)
!545 = !DISubroutineType(types: !546)
!546 = !{!542, !518}
!547 = !DISubprogram(name: "back", linkageName: "_ZNKSt3__117basic_string_viewIcNS_11char_traitsIcEEE4backEv", scope: !483, file: !484, line: 288, type: !545, isLocal: false, isDefinition: false, scopeLine: 288, flags: DIFlagPublic | DIFlagPrototyped, isOptimized: false)
!548 = !DISubprogram(name: "data", linkageName: "_ZNKSt3__117basic_string_viewIcNS_11char_traitsIcEEE4dataEv", scope: !483, file: !484, line: 294, type: !549, isLocal: false, isDefinition: false, scopeLine: 294, flags: DIFlagPublic | DIFlagPrototyped, isOptimized: false)
!549 = !DISubroutineType(types: !550)
!550 = !{!517, !518}
!551 = !DISubprogram(name: "remove_prefix", linkageName: "_ZNSt3__117basic_string_viewIcNS_11char_traitsIcEEE13remove_prefixEm", scope: !483, file: !484, line: 298, type: !552, isLocal: false, isDefinition: false, scopeLine: 298, flags: DIFlagPublic | DIFlagPrototyped, isOptimized: false)
!552 = !DISubroutineType(types: !553)
!553 = !{null, !497, !488}
!554 = !DISubprogram(name: "remove_suffix", linkageName: "_ZNSt3__117basic_string_viewIcNS_11char_traitsIcEEE13remove_suffixEm", scope: !483, file: !484, line: 306, type: !552, isLocal: false, isDefinition: false, scopeLine: 306, flags: DIFlagPublic | DIFlagPrototyped, isOptimized: false)
!555 = !DISubprogram(name: "swap", linkageName: "_ZNSt3__117basic_string_viewIcNS_11char_traitsIcEEE4swapERS3_", scope: !483, file: !484, line: 313, type: !556, isLocal: false, isDefinition: false, scopeLine: 313, flags: DIFlagPublic | DIFlagPrototyped, isOptimized: false)
!556 = !DISubroutineType(types: !557)
!557 = !{null, !497, !506}
!558 = !DISubprogram(name: "copy", linkageName: "_ZNKSt3__117basic_string_viewIcNS_11char_traitsIcEEE4copyEPcmm", scope: !483, file: !484, line: 325, type: !559, isLocal: false, isDefinition: false, scopeLine: 325, flags: DIFlagPublic | DIFlagPrototyped, isOptimized: false)
!559 = !DISubroutineType(types: !560)
!560 = !{!561, !518, !196, !488, !488}
!561 = !DIDerivedType(tag: DW_TAG_typedef, name: "size_type", scope: !483, file: !484, line: 200, baseType: !72)
!562 = !DISubprogram(name: "substr", linkageName: "_ZNKSt3__117basic_string_viewIcNS_11char_traitsIcEEE6substrEmm", scope: !483, file: !484, line: 335, type: !563, isLocal: false, isDefinition: false, scopeLine: 335, flags: DIFlagPublic | DIFlagPrototyped, isOptimized: false)
!563 = !DISubroutineType(types: !564)
!564 = !{!483, !518, !488, !488}
!565 = !DISubprogram(name: "compare", linkageName: "_ZNKSt3__117basic_string_viewIcNS_11char_traitsIcEEE7compareES3_", scope: !483, file: !484, line: 342, type: !566, isLocal: false, isDefinition: false, scopeLine: 342, flags: DIFlagPublic | DIFlagPrototyped, isOptimized: false)
!566 = !DISubroutineType(types: !567)
!567 = !{!14, !518, !483}
!568 = !DISubprogram(name: "compare", linkageName: "_ZNKSt3__117basic_string_viewIcNS_11char_traitsIcEEE7compareEmmS3_", scope: !483, file: !484, line: 352, type: !569, isLocal: false, isDefinition: false, scopeLine: 352, flags: DIFlagPublic | DIFlagPrototyped, isOptimized: false)
!569 = !DISubroutineType(types: !570)
!570 = !{!14, !518, !488, !488, !483}
!571 = !DISubprogram(name: "compare", linkageName: "_ZNKSt3__117basic_string_viewIcNS_11char_traitsIcEEE7compareEmmS3_mm", scope: !483, file: !484, line: 358, type: !572, isLocal: false, isDefinition: false, scopeLine: 358, flags: DIFlagPublic | DIFlagPrototyped, isOptimized: false)
!572 = !DISubroutineType(types: !573)
!573 = !{!14, !518, !488, !488, !483, !488, !488}
!574 = !DISubprogram(name: "compare", linkageName: "_ZNKSt3__117basic_string_viewIcNS_11char_traitsIcEEE7compareEPKc", scope: !483, file: !484, line: 365, type: !575, isLocal: false, isDefinition: false, scopeLine: 365, flags: DIFlagPublic | DIFlagPrototyped, isOptimized: false)
!575 = !DISubroutineType(types: !576)
!576 = !{!14, !518, !144}
!577 = !DISubprogram(name: "compare", linkageName: "_ZNKSt3__117basic_string_viewIcNS_11char_traitsIcEEE7compareEmmPKc", scope: !483, file: !484, line: 371, type: !578, isLocal: false, isDefinition: false, scopeLine: 371, flags: DIFlagPublic | DIFlagPrototyped, isOptimized: false)
!578 = !DISubroutineType(types: !579)
!579 = !{!14, !518, !488, !488, !144}
!580 = !DISubprogram(name: "compare", linkageName: "_ZNKSt3__117basic_string_viewIcNS_11char_traitsIcEEE7compareEmmPKcm", scope: !483, file: !484, line: 377, type: !581, isLocal: false, isDefinition: false, scopeLine: 377, flags: DIFlagPublic | DIFlagPrototyped, isOptimized: false)
!581 = !DISubroutineType(types: !582)
!582 = !{!14, !518, !488, !488, !144, !488}
!583 = !DISubprogram(name: "find", linkageName: "_ZNKSt3__117basic_string_viewIcNS_11char_traitsIcEEE4findES3_m", scope: !483, file: !484, line: 384, type: !584, isLocal: false, isDefinition: false, scopeLine: 384, flags: DIFlagPublic | DIFlagPrototyped, isOptimized: false)
!584 = !DISubroutineType(types: !585)
!585 = !{!561, !518, !483, !488}
!586 = !DISubprogram(name: "find", linkageName: "_ZNKSt3__117basic_string_viewIcNS_11char_traitsIcEEE4findEcm", scope: !483, file: !484, line: 392, type: !587, isLocal: false, isDefinition: false, scopeLine: 392, flags: DIFlagPublic | DIFlagPrototyped, isOptimized: false)
!587 = !DISubroutineType(types: !588)
!588 = !{!561, !518, !146, !488}
!589 = !DISubprogram(name: "find", linkageName: "_ZNKSt3__117basic_string_viewIcNS_11char_traitsIcEEE4findEPKcmm", scope: !483, file: !484, line: 399, type: !590, isLocal: false, isDefinition: false, scopeLine: 399, flags: DIFlagPublic | DIFlagPrototyped, isOptimized: false)
!590 = !DISubroutineType(types: !591)
!591 = !{!561, !518, !144, !488, !488}
!592 = !DISubprogram(name: "find", linkageName: "_ZNKSt3__117basic_string_viewIcNS_11char_traitsIcEEE4findEPKcm", scope: !483, file: !484, line: 407, type: !593, isLocal: false, isDefinition: false, scopeLine: 407, flags: DIFlagPublic | DIFlagPrototyped, isOptimized: false)
!593 = !DISubroutineType(types: !594)
!594 = !{!561, !518, !144, !488}
!595 = !DISubprogram(name: "rfind", linkageName: "_ZNKSt3__117basic_string_viewIcNS_11char_traitsIcEEE5rfindES3_m", scope: !483, file: !484, line: 416, type: !584, isLocal: false, isDefinition: false, scopeLine: 416, flags: DIFlagPublic | DIFlagPrototyped, isOptimized: false)
!596 = !DISubprogram(name: "rfind", linkageName: "_ZNKSt3__117basic_string_viewIcNS_11char_traitsIcEEE5rfindEcm", scope: !483, file: !484, line: 424, type: !587, isLocal: false, isDefinition: false, scopeLine: 424, flags: DIFlagPublic | DIFlagPrototyped, isOptimized: false)
!597 = !DISubprogram(name: "rfind", linkageName: "_ZNKSt3__117basic_string_viewIcNS_11char_traitsIcEEE5rfindEPKcmm", scope: !483, file: !484, line: 431, type: !590, isLocal: false, isDefinition: false, scopeLine: 431, flags: DIFlagPublic | DIFlagPrototyped, isOptimized: false)
!598 = !DISubprogram(name: "rfind", linkageName: "_ZNKSt3__117basic_string_viewIcNS_11char_traitsIcEEE5rfindEPKcm", scope: !483, file: !484, line: 439, type: !593, isLocal: false, isDefinition: false, scopeLine: 439, flags: DIFlagPublic | DIFlagPrototyped, isOptimized: false)
!599 = !DISubprogram(name: "find_first_of", linkageName: "_ZNKSt3__117basic_string_viewIcNS_11char_traitsIcEEE13find_first_ofES3_m", scope: !483, file: !484, line: 448, type: !584, isLocal: false, isDefinition: false, scopeLine: 448, flags: DIFlagPublic | DIFlagPrototyped, isOptimized: false)
!600 = !DISubprogram(name: "find_first_of", linkageName: "_ZNKSt3__117basic_string_viewIcNS_11char_traitsIcEEE13find_first_ofEcm", scope: !483, file: !484, line: 456, type: !587, isLocal: false, isDefinition: false, scopeLine: 456, flags: DIFlagPublic | DIFlagPrototyped, isOptimized: false)
!601 = !DISubprogram(name: "find_first_of", linkageName: "_ZNKSt3__117basic_string_viewIcNS_11char_traitsIcEEE13find_first_ofEPKcmm", scope: !483, file: !484, line: 460, type: !590, isLocal: false, isDefinition: false, scopeLine: 460, flags: DIFlagPublic | DIFlagPrototyped, isOptimized: false)
!602 = !DISubprogram(name: "find_first_of", linkageName: "_ZNKSt3__117basic_string_viewIcNS_11char_traitsIcEEE13find_first_ofEPKcm", scope: !483, file: !484, line: 468, type: !593, isLocal: false, isDefinition: false, scopeLine: 468, flags: DIFlagPublic | DIFlagPrototyped, isOptimized: false)
!603 = !DISubprogram(name: "find_last_of", linkageName: "_ZNKSt3__117basic_string_viewIcNS_11char_traitsIcEEE12find_last_ofES3_m", scope: !483, file: !484, line: 477, type: !584, isLocal: false, isDefinition: false, scopeLine: 477, flags: DIFlagPublic | DIFlagPrototyped, isOptimized: false)
!604 = !DISubprogram(name: "find_last_of", linkageName: "_ZNKSt3__117basic_string_viewIcNS_11char_traitsIcEEE12find_last_ofEcm", scope: !483, file: !484, line: 485, type: !587, isLocal: false, isDefinition: false, scopeLine: 485, flags: DIFlagPublic | DIFlagPrototyped, isOptimized: false)
!605 = !DISubprogram(name: "find_last_of", linkageName: "_ZNKSt3__117basic_string_viewIcNS_11char_traitsIcEEE12find_last_ofEPKcmm", scope: !483, file: !484, line: 489, type: !590, isLocal: false, isDefinition: false, scopeLine: 489, flags: DIFlagPublic | DIFlagPrototyped, isOptimized: false)
!606 = !DISubprogram(name: "find_last_of", linkageName: "_ZNKSt3__117basic_string_viewIcNS_11char_traitsIcEEE12find_last_ofEPKcm", scope: !483, file: !484, line: 497, type: !593, isLocal: false, isDefinition: false, scopeLine: 497, flags: DIFlagPublic | DIFlagPrototyped, isOptimized: false)
!607 = !DISubprogram(name: "find_first_not_of", linkageName: "_ZNKSt3__117basic_string_viewIcNS_11char_traitsIcEEE17find_first_not_ofES3_m", scope: !483, file: !484, line: 506, type: !584, isLocal: false, isDefinition: false, scopeLine: 506, flags: DIFlagPublic | DIFlagPrototyped, isOptimized: false)
!608 = !DISubprogram(name: "find_first_not_of", linkageName: "_ZNKSt3__117basic_string_viewIcNS_11char_traitsIcEEE17find_first_not_ofEcm", scope: !483, file: !484, line: 514, type: !587, isLocal: false, isDefinition: false, scopeLine: 514, flags: DIFlagPublic | DIFlagPrototyped, isOptimized: false)
!609 = !DISubprogram(name: "find_first_not_of", linkageName: "_ZNKSt3__117basic_string_viewIcNS_11char_traitsIcEEE17find_first_not_ofEPKcmm", scope: !483, file: !484, line: 521, type: !590, isLocal: false, isDefinition: false, scopeLine: 521, flags: DIFlagPublic | DIFlagPrototyped, isOptimized: false)
!610 = !DISubprogram(name: "find_first_not_of", linkageName: "_ZNKSt3__117basic_string_viewIcNS_11char_traitsIcEEE17find_first_not_ofEPKcm", scope: !483, file: !484, line: 529, type: !593, isLocal: false, isDefinition: false, scopeLine: 529, flags: DIFlagPublic | DIFlagPrototyped, isOptimized: false)
!611 = !DISubprogram(name: "find_last_not_of", linkageName: "_ZNKSt3__117basic_string_viewIcNS_11char_traitsIcEEE16find_last_not_ofES3_m", scope: !483, file: !484, line: 538, type: !584, isLocal: false, isDefinition: false, scopeLine: 538, flags: DIFlagPublic | DIFlagPrototyped, isOptimized: false)
!612 = !DISubprogram(name: "find_last_not_of", linkageName: "_ZNKSt3__117basic_string_viewIcNS_11char_traitsIcEEE16find_last_not_ofEcm", scope: !483, file: !484, line: 546, type: !587, isLocal: false, isDefinition: false, scopeLine: 546, flags: DIFlagPublic | DIFlagPrototyped, isOptimized: false)
!613 = !DISubprogram(name: "find_last_not_of", linkageName: "_ZNKSt3__117basic_string_viewIcNS_11char_traitsIcEEE16find_last_not_ofEPKcmm", scope: !483, file: !484, line: 553, type: !590, isLocal: false, isDefinition: false, scopeLine: 553, flags: DIFlagPublic | DIFlagPrototyped, isOptimized: false)
!614 = !DISubprogram(name: "find_last_not_of", linkageName: "_ZNKSt3__117basic_string_viewIcNS_11char_traitsIcEEE16find_last_not_ofEPKcm", scope: !483, file: !484, line: 561, type: !593, isLocal: false, isDefinition: false, scopeLine: 561, flags: DIFlagPublic | DIFlagPrototyped, isOptimized: false)
!615 = !{!616, !617}
!616 = !DITemplateTypeParameter(name: "_CharT", type: !146)
!617 = !DITemplateTypeParameter(name: "_Traits", type: !618)
!618 = distinct !DICompositeType(tag: DW_TAG_structure_type, name: "char_traits<char>", scope: !6, file: !619, line: 199, size: 8, elements: !620, templateParams: !666, identifier: "_ZTSNSt3__111char_traitsIcEE")
!619 = !DIFile(filename: "/Applications/Xcode.app/Contents/Developer/Toolchains/XcodeDefault.xctoolchain/usr/include/c++/v1/__string", directory: "/Users/ejiang/Projects/lls/ac/llfiles")
!620 = !{!621, !628, !631, !632, !636, !639, !642, !646, !647, !650, !654, !657, !660, !663}
!621 = !DISubprogram(name: "assign", linkageName: "_ZNSt3__111char_traitsIcE6assignERcRKc", scope: !618, file: !619, line: 208, type: !622, isLocal: false, isDefinition: false, scopeLine: 208, flags: DIFlagPrototyped, isOptimized: false)
!622 = !DISubroutineType(types: !623)
!623 = !{null, !624, !626}
!624 = !DIDerivedType(tag: DW_TAG_reference_type, baseType: !625, size: 64)
!625 = !DIDerivedType(tag: DW_TAG_typedef, name: "char_type", scope: !618, file: !619, line: 201, baseType: !146)
!626 = !DIDerivedType(tag: DW_TAG_reference_type, baseType: !627, size: 64)
!627 = !DIDerivedType(tag: DW_TAG_const_type, baseType: !625)
!628 = !DISubprogram(name: "eq", linkageName: "_ZNSt3__111char_traitsIcE2eqEcc", scope: !618, file: !619, line: 209, type: !629, isLocal: false, isDefinition: false, scopeLine: 209, flags: DIFlagPrototyped, isOptimized: false)
!629 = !DISubroutineType(types: !630)
!630 = !{!168, !625, !625}
!631 = !DISubprogram(name: "lt", linkageName: "_ZNSt3__111char_traitsIcE2ltEcc", scope: !618, file: !619, line: 211, type: !629, isLocal: false, isDefinition: false, scopeLine: 211, flags: DIFlagPrototyped, isOptimized: false)
!632 = !DISubprogram(name: "compare", linkageName: "_ZNSt3__111char_traitsIcE7compareEPKcS3_m", scope: !618, file: !619, line: 215, type: !633, isLocal: false, isDefinition: false, scopeLine: 215, flags: DIFlagPrototyped, isOptimized: false)
!633 = !DISubroutineType(types: !634)
!634 = !{!14, !635, !635, !72}
!635 = !DIDerivedType(tag: DW_TAG_pointer_type, baseType: !627, size: 64)
!636 = !DISubprogram(name: "length", linkageName: "_ZNSt3__111char_traitsIcE6lengthEPKc", scope: !618, file: !619, line: 217, type: !637, isLocal: false, isDefinition: false, scopeLine: 217, flags: DIFlagPrototyped, isOptimized: false)
!637 = !DISubroutineType(types: !638)
!638 = !{!72, !635}
!639 = !DISubprogram(name: "find", linkageName: "_ZNSt3__111char_traitsIcE4findEPKcmRS2_", scope: !618, file: !619, line: 219, type: !640, isLocal: false, isDefinition: false, scopeLine: 219, flags: DIFlagPrototyped, isOptimized: false)
!640 = !DISubroutineType(types: !641)
!641 = !{!635, !635, !72, !626}
!642 = !DISubprogram(name: "move", linkageName: "_ZNSt3__111char_traitsIcE4moveEPcPKcm", scope: !618, file: !619, line: 220, type: !643, isLocal: false, isDefinition: false, scopeLine: 220, flags: DIFlagPrototyped, isOptimized: false)
!643 = !DISubroutineType(types: !644)
!644 = !{!645, !645, !635, !72}
!645 = !DIDerivedType(tag: DW_TAG_pointer_type, baseType: !625, size: 64)
!646 = !DISubprogram(name: "copy", linkageName: "_ZNSt3__111char_traitsIcE4copyEPcPKcm", scope: !618, file: !619, line: 222, type: !643, isLocal: false, isDefinition: false, scopeLine: 222, flags: DIFlagPrototyped, isOptimized: false)
!647 = !DISubprogram(name: "assign", linkageName: "_ZNSt3__111char_traitsIcE6assignEPcmc", scope: !618, file: !619, line: 227, type: !648, isLocal: false, isDefinition: false, scopeLine: 227, flags: DIFlagPrototyped, isOptimized: false)
!648 = !DISubroutineType(types: !649)
!649 = !{!645, !645, !72, !625}
!650 = !DISubprogram(name: "not_eof", linkageName: "_ZNSt3__111char_traitsIcE7not_eofEi", scope: !618, file: !619, line: 230, type: !651, isLocal: false, isDefinition: false, scopeLine: 230, flags: DIFlagPrototyped, isOptimized: false)
!651 = !DISubroutineType(types: !652)
!652 = !{!653, !653}
!653 = !DIDerivedType(tag: DW_TAG_typedef, name: "int_type", scope: !618, file: !619, line: 202, baseType: !14)
!654 = !DISubprogram(name: "to_char_type", linkageName: "_ZNSt3__111char_traitsIcE12to_char_typeEi", scope: !618, file: !619, line: 232, type: !655, isLocal: false, isDefinition: false, scopeLine: 232, flags: DIFlagPrototyped, isOptimized: false)
!655 = !DISubroutineType(types: !656)
!656 = !{!625, !653}
!657 = !DISubprogram(name: "to_int_type", linkageName: "_ZNSt3__111char_traitsIcE11to_int_typeEc", scope: !618, file: !619, line: 234, type: !658, isLocal: false, isDefinition: false, scopeLine: 234, flags: DIFlagPrototyped, isOptimized: false)
!658 = !DISubroutineType(types: !659)
!659 = !{!653, !625}
!660 = !DISubprogram(name: "eq_int_type", linkageName: "_ZNSt3__111char_traitsIcE11eq_int_typeEii", scope: !618, file: !619, line: 236, type: !661, isLocal: false, isDefinition: false, scopeLine: 236, flags: DIFlagPrototyped, isOptimized: false)
!661 = !DISubroutineType(types: !662)
!662 = !{!168, !653, !653}
!663 = !DISubprogram(name: "eof", linkageName: "_ZNSt3__111char_traitsIcE3eofEv", scope: !618, file: !619, line: 238, type: !664, isLocal: false, isDefinition: false, scopeLine: 238, flags: DIFlagPrototyped, isOptimized: false)
!664 = !DISubroutineType(types: !665)
!665 = !{!653}
!666 = !{!616}
!667 = !DISubprogram(name: "basic_string", scope: !154, file: !155, line: 799, type: !668, isLocal: false, isDefinition: false, scopeLine: 799, flags: DIFlagPublic | DIFlagPrototyped, isOptimized: false)
!668 = !DISubroutineType(types: !669)
!669 = !{null, !433, !482, !400}
!670 = !DISubprogram(name: "basic_string", scope: !154, file: !155, line: 808, type: !671, isLocal: false, isDefinition: false, scopeLine: 808, flags: DIFlagPublic | DIFlagPrototyped, isOptimized: false)
!671 = !DISubroutineType(types: !672)
!672 = !{null, !433, !673}
!673 = distinct !DICompositeType(tag: DW_TAG_class_type, name: "initializer_list<char>", scope: !7, file: !674, line: 59, size: 128, elements: !675, templateParams: !694, identifier: "_ZTSSt16initializer_listIcE")
!674 = !DIFile(filename: "/Applications/Xcode.app/Contents/Developer/Toolchains/XcodeDefault.xctoolchain/usr/include/c++/v1/initializer_list", directory: "/Users/ejiang/Projects/lls/ac/llfiles")
!675 = !{!676, !677, !678, !682, !685, !690, !693}
!676 = !DIDerivedType(tag: DW_TAG_member, name: "__begin_", scope: !673, file: !674, line: 61, baseType: !144, size: 64)
!677 = !DIDerivedType(tag: DW_TAG_member, name: "__size_", scope: !673, file: !674, line: 62, baseType: !72, size: 64, offset: 64)
!678 = !DISubprogram(name: "initializer_list", scope: !673, file: !674, line: 66, type: !679, isLocal: false, isDefinition: false, scopeLine: 66, flags: DIFlagPrototyped, isOptimized: false)
