; ModuleID = 'temp.bc'
source_filename = "../ac_logger.cc"
target datalayout = "e-m:o-i64:64-f80:128-n8:16:32:64-S128"
target triple = "x86_64-apple-macosx10.13.0"

%"class.altered_carbon::js::NullStream" = type { %"class.altered_carbon::js::NullStreamBuf", %"class.std::__1::basic_ostream.base", %"class.std::__1::basic_ios.base" }
%"class.altered_carbon::js::NullStreamBuf" = type { %"class.std::__1::basic_streambuf", [256 x i8] }
%"class.std::__1::basic_streambuf" = type { i32 (...)**, %"class.std::__1::locale", i8*, i8*, i8*, i8*, i8*, i8* }
%"class.std::__1::locale" = type { %"class.std::__1::locale::__imp"* }
%"class.std::__1::locale::__imp" = type opaque
%"class.std::__1::basic_ostream.base" = type { i32 (...)** }
%"class.std::__1::basic_ios.base" = type <{ %"class.std::__1::ios_base", %"class.std::__1::basic_ostream"*, i32 }>
%"class.std::__1::ios_base" = type { i32 (...)**, i32, i64, i64, i32, i32, i8*, i8*, void (i32, %"class.std::__1::ios_base"*, i32)**, i32*, i64, i64, i64*, i64, i64, i8**, i64, i64 }
%"class.std::__1::basic_ostream" = type { i32 (...)**, %"class.std::__1::basic_ios.base" }
%"class.std::__1::locale::id" = type <{ %"struct.std::__1::once_flag", i32, [4 x i8] }>
%"struct.std::__1::once_flag" = type { i64 }
%"class.std::__1::basic_ios" = type <{ %"class.std::__1::ios_base", %"class.std::__1::basic_ostream"*, i32, [4 x i8] }>
%"class.altered_carbon::js::ACJsParser" = type { i32 (...)**, i8*, %"class.std::__1::basic_string", i8*, i8, i32, i8, i8, i32, i32, %"class.altered_carbon::js::ACLexState", %"struct.altered_carbon::js::ACLexPosition", %"struct.altered_carbon::js::ACLexPosition", %"struct.altered_carbon::js::ACLexPosition", %"class.std::__1::unique_ptr" }
%"class.std::__1::basic_string" = type { %"class.std::__1::__compressed_pair" }
%"class.std::__1::__compressed_pair" = type { %"struct.std::__1::__compressed_pair_elem" }
%"struct.std::__1::__compressed_pair_elem" = type { %"struct.std::__1::basic_string<char, std::__1::char_traits<char>, std::__1::allocator<char> >::__rep" }
%"struct.std::__1::basic_string<char, std::__1::char_traits<char>, std::__1::allocator<char> >::__rep" = type { %union.anon }
%union.anon = type { %"struct.std::__1::basic_string<char, std::__1::char_traits<char>, std::__1::allocator<char> >::__long" }
%"struct.std::__1::basic_string<char, std::__1::char_traits<char>, std::__1::allocator<char> >::__long" = type { i64, i64, i8* }
%"class.altered_carbon::js::ACLexState" = type { i32 (...)**, i32, %"struct.altered_carbon::js::BlockLevelState", i8, i8, %"class.std::__1::map", %"class.std::__1::vector" }
%"struct.altered_carbon::js::BlockLevelState" = type { i8, i8, i8 }
%"class.std::__1::map" = type { %"class.std::__1::__tree" }
%"class.std::__1::__tree" = type { %"class.std::__1::__tree_end_node"*, %"class.std::__1::__compressed_pair.2", %"class.std::__1::__compressed_pair.7" }
%"class.std::__1::__tree_end_node" = type { %"class.std::__1::__tree_node_base"* }
%"class.std::__1::__tree_node_base" = type <{ %"class.std::__1::__tree_end_node", %"class.std::__1::__tree_node_base"*, %"class.std::__1::__tree_end_node"*, i8, [7 x i8] }>
%"class.std::__1::__compressed_pair.2" = type { %"struct.std::__1::__compressed_pair_elem.3" }
%"struct.std::__1::__compressed_pair_elem.3" = type { %"class.std::__1::__tree_end_node" }
%"class.std::__1::__compressed_pair.7" = type { %"struct.std::__1::__compressed_pair_elem.8" }
%"struct.std::__1::__compressed_pair_elem.8" = type { i64 }
%"class.std::__1::vector" = type { %"class.std::__1::__vector_base" }
%"class.std::__1::__vector_base" = type { i32*, i32*, %"class.std::__1::__compressed_pair.10" }
%"class.std::__1::__compressed_pair.10" = type { %"struct.std::__1::__compressed_pair_elem.11" }
%"struct.std::__1::__compressed_pair_elem.11" = type { i32* }
%"struct.altered_carbon::js::ACLexPosition" = type { i32 (...)**, i64, i32, i64 }
%"class.std::__1::unique_ptr" = type { %"class.std::__1::__compressed_pair.15" }
%"class.std::__1::__compressed_pair.15" = type { %"struct.std::__1::__compressed_pair_elem.16" }
%"struct.std::__1::__compressed_pair_elem.16" = type { %"class.altered_carbon::js::ACLexToken"* }
%"class.altered_carbon::js::ACLexToken" = type { i32 (...)**, i32, i64, %"class.std::__1::basic_string_view", %"struct.altered_carbon::js::ACLexPosition", %"class.std::__1::basic_string.17" }
%"class.std::__1::basic_string_view" = type { i8*, i64 }
%"class.std::__1::basic_string.17" = type { %"class.std::__1::__compressed_pair.18" }
%"class.std::__1::__compressed_pair.18" = type { %"struct.std::__1::__compressed_pair_elem.19" }
%"struct.std::__1::__compressed_pair_elem.19" = type { %"struct.std::__1::basic_string<wchar_t, std::__1::char_traits<wchar_t>, std::__1::allocator<wchar_t> >::__rep" }
%"struct.std::__1::basic_string<wchar_t, std::__1::char_traits<wchar_t>, std::__1::allocator<wchar_t> >::__rep" = type { %union.anon.20 }
%union.anon.20 = type { %"struct.std::__1::basic_string<wchar_t, std::__1::char_traits<wchar_t>, std::__1::allocator<wchar_t> >::__long" }
%"struct.std::__1::basic_string<wchar_t, std::__1::char_traits<wchar_t>, std::__1::allocator<wchar_t> >::__long" = type { i64, i64, i32* }
%"struct.std::__1::__compressed_pair_elem.1" = type { i8 }
%"class.std::__1::allocator" = type { i8 }
%"struct.std::__1::basic_string<char, std::__1::char_traits<char>, std::__1::allocator<char> >::__short" = type { %union.anon.0, [23 x i8] }
%union.anon.0 = type { i8 }
%"class.std::__1::unique_ptr.29" = type { %"class.std::__1::__compressed_pair.30" }
%"class.std::__1::__compressed_pair.30" = type { %"struct.std::__1::__compressed_pair_elem.31" }
%"struct.std::__1::__compressed_pair_elem.31" = type { %"class.altered_carbon::js::ACAstBaseNode"* }
%"class.altered_carbon::js::ACAstBaseNode" = type { i32 (...)**, %"class.std::__1::unique_ptr.32", i32, i32, %"class.std::__1::vector.38" }
%"class.std::__1::unique_ptr.32" = type { %"class.std::__1::__compressed_pair.33" }
%"class.std::__1::__compressed_pair.33" = type { %"struct.std::__1::__compressed_pair_elem.34" }
%"struct.std::__1::__compressed_pair_elem.34" = type { %"struct.altered_carbon::js::ACLexPosition"* }
%"class.std::__1::vector.38" = type { %"class.std::__1::__vector_base.39" }
%"class.std::__1::__vector_base.39" = type { %"class.std::__1::unique_ptr.29"*, %"class.std::__1::unique_ptr.29"*, %"class.std::__1::__compressed_pair.40" }
%"class.std::__1::__compressed_pair.40" = type { %"struct.std::__1::__compressed_pair_elem.41" }
%"struct.std::__1::__compressed_pair_elem.41" = type { %"class.std::__1::unique_ptr.29"* }
%"class.altered_carbon::js::ACAstBuilder" = type { %"class.altered_carbon::js::ACJsParser", %"class.std::__1::unique_ptr.26" }
%"class.std::__1::unique_ptr.26" = type { %"class.std::__1::__compressed_pair.27" }
%"class.std::__1::__compressed_pair.27" = type { %"struct.std::__1::__compressed_pair_elem.28" }
%"struct.std::__1::__compressed_pair_elem.28" = type { %"class.altered_carbon::js::ACJsState"* }
%"class.altered_carbon::js::ACJsState" = type { i32 (...)**, i8, i8, %"class.std::__1::unique_ptr.29" }
%"struct.std::__1::__compressed_pair_elem.54" = type { i8 }
%"class.std::__1::__compressed_pair.52" = type { %"struct.std::__1::__compressed_pair_elem.53" }
%"struct.std::__1::__compressed_pair_elem.53" = type { %"class.altered_carbon::js::ACAstTokenError"* }
%"class.altered_carbon::js::ACAstTokenError" = type { %"class.altered_carbon::js::ACAstBaseError" }
%"class.altered_carbon::js::ACAstBaseError" = type { %"class.altered_carbon::js::ACAstBaseNode", i32, %"class.std::__1::unique_ptr.29" }
%"class.std::__1::unique_ptr.51" = type { %"class.std::__1::__compressed_pair.52" }
%"struct.std::__1::default_delete.55" = type { i8 }
%"struct.std::__1::default_delete.46" = type { i8 }
%"struct.std::__1::__compressed_pair_elem.45" = type { i8 }
%"struct.std::__1::__compressed_pair_elem.35" = type { i8 }
%"struct.std::__1::default_delete.36" = type { i8 }
%"struct.std::__1::__compressed_pair_elem.60" = type { i8 }
%"class.std::__1::__compressed_pair.58" = type { %"struct.std::__1::__compressed_pair_elem.59" }
%"struct.std::__1::__compressed_pair_elem.59" = type { %"class.altered_carbon::js::ACAstSyntaxError"* }
%"class.altered_carbon::js::ACAstSyntaxError" = type { %"class.altered_carbon::js::ACAstBaseError" }
%"class.std::__1::unique_ptr.57" = type { %"class.std::__1::__compressed_pair.58" }
%"struct.std::__1::default_delete.61" = type { i8 }
%"class.std::__1::ctype" = type <{ %"class.std::__1::locale::facet", i32*, i8, [7 x i8] }>
%"class.std::__1::locale::facet" = type { %"class.std::__1::__shared_count" }
%"class.std::__1::__shared_count" = type { i32 (...)**, i64 }
%"class.std::__1::ostreambuf_iterator" = type { %"class.std::__1::basic_streambuf"* }
%"class.std::__1::basic_ostream<char, std::__1::char_traits<char> >::sentry" = type { i8, %"class.std::__1::basic_ostream"* }
%"struct.std::__1::iterator" = type { i8 }
%"class.std::__1::__basic_string_common" = type { i8 }

@_ZN14altered_carbon2jsL9BlackHoleE = internal global %"class.altered_carbon::js::NullStream" zeroinitializer, align 8, !dbg !0
@__dso_handle = external hidden global i8
@_ZNSt3__14coutE = external global %"class.std::__1::basic_ostream", align 8
@.str = private unnamed_addr constant [5 x i8] c"...\0A\00", align 1
@.str.1 = private unnamed_addr constant [6 x i8] c"\1B[35m\00", align 1
@.str.2 = private unnamed_addr constant [2 x i8] c"-\00", align 1
@.str.3 = private unnamed_addr constant [3 x i8] c"^\0A\00", align 1
@.str.4 = private unnamed_addr constant [5 x i8] c"\1B[0m\00", align 1
@_ZTVN14altered_carbon2js13NullStreamBufE = unnamed_addr constant { [16 x i8*] } { [16 x i8*] [i8* null, i8* bitcast ({ i8*, i8*, i8* }* @_ZTIN14altered_carbon2js13NullStreamBufE to i8*), i8* bitcast (void (%"class.altered_carbon::js::NullStreamBuf"*)* @_ZN14altered_carbon2js13NullStreamBufD1Ev to i8*), i8* bitcast (void (%"class.altered_carbon::js::NullStreamBuf"*)* @_ZN14altered_carbon2js13NullStreamBufD0Ev to i8*), i8* bitcast (void (%"class.std::__1::basic_streambuf"*, %"class.std::__1::locale"*)* @_ZNSt3__115basic_streambufIcNS_11char_traitsIcEEE5imbueERKNS_6localeE to i8*), i8* bitcast (%"class.std::__1::basic_streambuf"* (%"class.std::__1::basic_streambuf"*, i8*, i64)* @_ZNSt3__115basic_streambufIcNS_11char_traitsIcEEE6setbufEPcl to i8*), i8* bitcast (void ()* @_ZNSt3__115basic_streambufIcNS_11char_traitsIcEEE7seekoffExNS_8ios_base7seekdirEj to i8*), i8* bitcast (void ()* @_ZNSt3__115basic_streambufIcNS_11char_traitsIcEEE7seekposENS_4fposI11__mbstate_tEEj to i8*), i8* bitcast (i32 (%"class.std::__1::basic_streambuf"*)* @_ZNSt3__115basic_streambufIcNS_11char_traitsIcEEE4syncEv to i8*), i8* bitcast (i64 (%"class.std::__1::basic_streambuf"*)* @_ZNSt3__115basic_streambufIcNS_11char_traitsIcEEE9showmanycEv to i8*), i8* bitcast (i64 (%"class.std::__1::basic_streambuf"*, i8*, i64)* @_ZNSt3__115basic_streambufIcNS_11char_traitsIcEEE6xsgetnEPcl to i8*), i8* bitcast (i32 (%"class.std::__1::basic_streambuf"*)* @_ZNSt3__115basic_streambufIcNS_11char_traitsIcEEE9underflowEv to i8*), i8* bitcast (i32 (%"class.std::__1::basic_streambuf"*)* @_ZNSt3__115basic_streambufIcNS_11char_traitsIcEEE5uflowEv to i8*), i8* bitcast (i32 (%"class.std::__1::basic_streambuf"*, i32)* @_ZNSt3__115basic_streambufIcNS_11char_traitsIcEEE9pbackfailEi to i8*), i8* bitcast (i64 (%"class.std::__1::basic_streambuf"*, i8*, i64)* @_ZNSt3__115basic_streambufIcNS_11char_traitsIcEEE6xsputnEPKcl to i8*), i8* bitcast (i32 (%"class.altered_carbon::js::NullStreamBuf"*, i32)* @_ZN14altered_carbon2js13NullStreamBuf8overflowEi to i8*)] }, align 8
@_ZTVN10__cxxabiv120__si_class_type_infoE = external global i8*
@_ZTSN14altered_carbon2js13NullStreamBufE = constant [37 x i8] c"N14altered_carbon2js13NullStreamBufE\00"
@_ZTINSt3__115basic_streambufIcNS_11char_traitsIcEEEE = external constant i8*
@_ZTIN14altered_carbon2js13NullStreamBufE = constant { i8*, i8*, i8* } { i8* bitcast (i8** getelementptr inbounds (i8*, i8** @_ZTVN10__cxxabiv120__si_class_type_infoE, i64 2) to i8*), i8* getelementptr inbounds ([37 x i8], [37 x i8]* @_ZTSN14altered_carbon2js13NullStreamBufE, i32 0, i32 0), i8* bitcast (i8** @_ZTINSt3__115basic_streambufIcNS_11char_traitsIcEEEE to i8*) }
@_ZTVN14altered_carbon2js10NullStreamE = linkonce_odr unnamed_addr constant { [17 x i8*], [5 x i8*], [5 x i8*] } { [17 x i8*] [i8* inttoptr (i64 328 to i8*), i8* null, i8* bitcast ({ i8*, i8*, i32, i32, i8*, i64, i8*, i64 }* @_ZTIN14altered_carbon2js10NullStreamE to i8*), i8* bitcast (void (%"class.altered_carbon::js::NullStream"*)* @_ZN14altered_carbon2js10NullStreamD1Ev to i8*), i8* bitcast (void (%"class.altered_carbon::js::NullStream"*)* @_ZN14altered_carbon2js10NullStreamD0Ev to i8*), i8* bitcast (void (%"class.std::__1::basic_streambuf"*, %"class.std::__1::locale"*)* @_ZNSt3__115basic_streambufIcNS_11char_traitsIcEEE5imbueERKNS_6localeE to i8*), i8* bitcast (%"class.std::__1::basic_streambuf"* (%"class.std::__1::basic_streambuf"*, i8*, i64)* @_ZNSt3__115basic_streambufIcNS_11char_traitsIcEEE6setbufEPcl to i8*), i8* bitcast (void ()* @_ZNSt3__115basic_streambufIcNS_11char_traitsIcEEE7seekoffExNS_8ios_base7seekdirEj to i8*), i8* bitcast (void ()* @_ZNSt3__115basic_streambufIcNS_11char_traitsIcEEE7seekposENS_4fposI11__mbstate_tEEj to i8*), i8* bitcast (i32 (%"class.std::__1::basic_streambuf"*)* @_ZNSt3__115basic_streambufIcNS_11char_traitsIcEEE4syncEv to i8*), i8* bitcast (i64 (%"class.std::__1::basic_streambuf"*)* @_ZNSt3__115basic_streambufIcNS_11char_traitsIcEEE9showmanycEv to i8*), i8* bitcast (i64 (%"class.std::__1::basic_streambuf"*, i8*, i64)* @_ZNSt3__115basic_streambufIcNS_11char_traitsIcEEE6xsgetnEPcl to i8*), i8* bitcast (i32 (%"class.std::__1::basic_streambuf"*)* @_ZNSt3__115basic_streambufIcNS_11char_traitsIcEEE9underflowEv to i8*), i8* bitcast (i32 (%"class.std::__1::basic_streambuf"*)* @_ZNSt3__115basic_streambufIcNS_11char_traitsIcEEE5uflowEv to i8*), i8* bitcast (i32 (%"class.std::__1::basic_streambuf"*, i32)* @_ZNSt3__115basic_streambufIcNS_11char_traitsIcEEE9pbackfailEi to i8*), i8* bitcast (i64 (%"class.std::__1::basic_streambuf"*, i8*, i64)* @_ZNSt3__115basic_streambufIcNS_11char_traitsIcEEE6xsputnEPKcl to i8*), i8* bitcast (i32 (%"class.altered_carbon::js::NullStreamBuf"*, i32)* @_ZN14altered_carbon2js13NullStreamBuf8overflowEi to i8*)], [5 x i8*] [i8* inttoptr (i64 8 to i8*), i8* inttoptr (i64 -320 to i8*), i8* bitcast ({ i8*, i8*, i32, i32, i8*, i64, i8*, i64 }* @_ZTIN14altered_carbon2js10NullStreamE to i8*), i8* bitcast (void (%"class.altered_carbon::js::NullStream"*)* @_ZThn320_N14altered_carbon2js10NullStreamD1Ev to i8*), i8* bitcast (void (%"class.altered_carbon::js::NullStream"*)* @_ZThn320_N14altered_carbon2js10NullStreamD0Ev to i8*)], [5 x i8*] [i8* inttoptr (i64 -328 to i8*), i8* inttoptr (i64 -328 to i8*), i8* bitcast ({ i8*, i8*, i32, i32, i8*, i64, i8*, i64 }* @_ZTIN14altered_carbon2js10NullStreamE to i8*), i8* bitcast (void (%"class.altered_carbon::js::NullStream"*)* @_ZTv0_n24_N14altered_carbon2js10NullStreamD1Ev to i8*), i8* bitcast (void (%"class.altered_carbon::js::NullStream"*)* @_ZTv0_n24_N14altered_carbon2js10NullStreamD0Ev to i8*)] }, align 8
@_ZTTN14altered_carbon2js10NullStreamE = linkonce_odr unnamed_addr constant [5 x i8*] [i8* bitcast (i8** getelementptr inbounds ({ [17 x i8*], [5 x i8*], [5 x i8*] }, { [17 x i8*], [5 x i8*], [5 x i8*] }* @_ZTVN14altered_carbon2js10NullStreamE, i32 0, inrange i32 0, i32 3) to i8*), i8* bitcast (i8** getelementptr inbounds ({ [5 x i8*], [5 x i8*] }, { [5 x i8*], [5 x i8*] }* @_ZTCN14altered_carbon2js10NullStreamE320_NSt3__113basic_ostreamIcNS1_11char_traitsIcEEEE, i32 0, inrange i32 0, i32 3) to i8*), i8* bitcast (i8** getelementptr inbounds ({ [5 x i8*], [5 x i8*] }, { [5 x i8*], [5 x i8*] }* @_ZTCN14altered_carbon2js10NullStreamE320_NSt3__113basic_ostreamIcNS1_11char_traitsIcEEEE, i32 0, inrange i32 1, i32 3) to i8*), i8* bitcast (i8** getelementptr inbounds ({ [17 x i8*], [5 x i8*], [5 x i8*] }, { [17 x i8*], [5 x i8*], [5 x i8*] }* @_ZTVN14altered_carbon2js10NullStreamE, i32 0, inrange i32 1, i32 3) to i8*), i8* bitcast (i8** getelementptr inbounds ({ [17 x i8*], [5 x i8*], [5 x i8*] }, { [17 x i8*], [5 x i8*], [5 x i8*] }* @_ZTVN14altered_carbon2js10NullStreamE, i32 0, inrange i32 2, i32 3) to i8*)]
@_ZTCN14altered_carbon2js10NullStreamE320_NSt3__113basic_ostreamIcNS1_11char_traitsIcEEEE = linkonce_odr unnamed_addr constant { [5 x i8*], [5 x i8*] } { [5 x i8*] [i8* inttoptr (i64 8 to i8*), i8* null, i8* bitcast (i8** @_ZTINSt3__113basic_ostreamIcNS_11char_traitsIcEEEE to i8*), i8* bitcast (void (%"class.std::__1::basic_ostream"*)* @_ZNSt3__113basic_ostreamIcNS_11char_traitsIcEEED1Ev to i8*), i8* bitcast (void (%"class.std::__1::basic_ostream"*)* @_ZNSt3__113basic_ostreamIcNS_11char_traitsIcEEED0Ev to i8*)], [5 x i8*] [i8* inttoptr (i64 -8 to i8*), i8* inttoptr (i64 -8 to i8*), i8* bitcast (i8** @_ZTINSt3__113basic_ostreamIcNS_11char_traitsIcEEEE to i8*), i8* bitcast (void (%"class.std::__1::basic_ostream"*)* @_ZTv0_n24_NSt3__113basic_ostreamIcNS_11char_traitsIcEEED1Ev to i8*), i8* bitcast (void (%"class.std::__1::basic_ostream"*)* @_ZTv0_n24_NSt3__113basic_ostreamIcNS_11char_traitsIcEEED0Ev to i8*)] }
@_ZTINSt3__113basic_ostreamIcNS_11char_traitsIcEEEE = external constant i8*
@_ZTVN10__cxxabiv121__vmi_class_type_infoE = external global i8*
@_ZTSN14altered_carbon2js10NullStreamE = linkonce_odr constant [34 x i8] c"N14altered_carbon2js10NullStreamE\00"
@_ZTIN14altered_carbon2js10NullStreamE = linkonce_odr constant { i8*, i8*, i32, i32, i8*, i64, i8*, i64 } { i8* bitcast (i8** getelementptr inbounds (i8*, i8** @_ZTVN10__cxxabiv121__vmi_class_type_infoE, i64 2) to i8*), i8* getelementptr inbounds ([34 x i8], [34 x i8]* @_ZTSN14altered_carbon2js10NullStreamE, i32 0, i32 0), i32 0, i32 2, i8* bitcast ({ i8*, i8*, i8* }* @_ZTIN14altered_carbon2js13NullStreamBufE to i8*), i64 0, i8* bitcast (i8** @_ZTINSt3__113basic_ostreamIcNS_11char_traitsIcEEEE to i8*), i64 81922 }
@_ZTVNSt3__19basic_iosIcNS_11char_traitsIcEEEE = external unnamed_addr constant { [4 x i8*] }
@_ZTVNSt3__18ios_baseE = external unnamed_addr constant { [4 x i8*] }
@_ZNSt3__15ctypeIcE2idE = external global %"class.std::__1::locale::id", align 8
@llvm.global_ctors = appending global [1 x { i32, void ()*, i8* }] [{ i32, void ()*, i8* } { i32 65535, void ()* @_GLOBAL__sub_I_ac_logger.cc, i8* null }]

; Function Attrs: noinline nounwind ssp uwtable
define internal void @__cxx_global_var_init() #0 section "__TEXT,__StaticInit,regular,pure_instructions" !dbg !7345 {
  call void @_ZN14altered_carbon2js10NullStreamC1Ev(%"class.altered_carbon::js::NullStream"* @_ZN14altered_carbon2jsL9BlackHoleE), !dbg !7346
  %1 = call i32 @__cxa_atexit(void (i8*)* bitcast (void (%"class.altered_carbon::js::NullStream"*)* @_ZN14altered_carbon2js10NullStreamD1Ev to void (i8*)*), i8* bitcast (%"class.altered_carbon::js::NullStream"* @_ZN14altered_carbon2jsL9BlackHoleE to i8*), i8* @__dso_handle) #2, !dbg !7346
  ret void, !dbg !7346
}

; Function Attrs: noinline nounwind optnone ssp uwtable
define linkonce_odr hidden void @_ZN14altered_carbon2js10NullStreamC1Ev(%"class.altered_carbon::js::NullStream"*) unnamed_addr #1 align 2 !dbg !7347 {
  %2 = alloca %"class.std::__1::basic_ios"*, align 8
  call void @llvm.dbg.declare(metadata %"class.std::__1::basic_ios"** %2, metadata !7348, metadata !DIExpression()), !dbg !7351
  %3 = alloca %"class.std::__1::basic_streambuf"*, align 8
  call void @llvm.dbg.declare(metadata %"class.std::__1::basic_streambuf"** %3, metadata !7356, metadata !DIExpression()), !dbg !7357
  %4 = alloca %"class.std::__1::basic_ostream"*, align 8
  call void @llvm.dbg.declare(metadata %"class.std::__1::basic_ostream"** %4, metadata !7358, metadata !DIExpression()), !dbg !7359
  %5 = alloca i8**, align 8
  call void @llvm.dbg.declare(metadata i8*** %5, metadata !7360, metadata !DIExpression()), !dbg !7359
  %6 = alloca %"class.std::__1::basic_streambuf"*, align 8
  call void @llvm.dbg.declare(metadata %"class.std::__1::basic_streambuf"** %6, metadata !7361, metadata !DIExpression()), !dbg !7362
  %7 = alloca %"class.std::__1::ios_base"*, align 8
  call void @llvm.dbg.declare(metadata %"class.std::__1::ios_base"** %7, metadata !7363, metadata !DIExpression()), !dbg !7366
  %8 = alloca %"class.std::__1::basic_ios"*, align 8
  call void @llvm.dbg.declare(metadata %"class.std::__1::basic_ios"** %8, metadata !7370, metadata !DIExpression()), !dbg !7371
  %9 = alloca %"class.altered_carbon::js::NullStream"*, align 8
  store %"class.altered_carbon::js::NullStream"* %0, %"class.altered_carbon::js::NullStream"** %9, align 8
  call void @llvm.dbg.declare(metadata %"class.altered_carbon::js::NullStream"** %9, metadata !7372, metadata !DIExpression()), !dbg !7373
  %10 = load %"class.altered_carbon::js::NullStream"*, %"class.altered_carbon::js::NullStream"** %9, align 8
  %11 = bitcast %"class.altered_carbon::js::NullStream"* %10 to i8*, !dbg !7374
  %12 = getelementptr inbounds i8, i8* %11, i64 328, !dbg !7374
  %13 = bitcast i8* %12 to %"class.std::__1::basic_ios"*, !dbg !7374
  store %"class.std::__1::basic_ios"* %13, %"class.std::__1::basic_ios"** %8, align 8
  %14 = load %"class.std::__1::basic_ios"*, %"class.std::__1::basic_ios"** %8, align 8
  %15 = bitcast %"class.std::__1::basic_ios"* %14 to %"class.std::__1::ios_base"*, !dbg !7375
  store %"class.std::__1::ios_base"* %15, %"class.std::__1::ios_base"** %7, align 8
  %16 = load %"class.std::__1::ios_base"*, %"class.std::__1::ios_base"** %7, align 8
  %17 = bitcast %"class.std::__1::ios_base"* %16 to i32 (...)***, !dbg !7376
  store i32 (...)** bitcast (i8** getelementptr inbounds ({ [4 x i8*] }, { [4 x i8*] }* @_ZTVNSt3__18ios_baseE, i32 0, inrange i32 0, i32 2) to i32 (...)**), i32 (...)*** %17, align 8, !dbg !7376
  %18 = bitcast %"class.std::__1::basic_ios"* %14 to i32 (...)***, !dbg !7375
  store i32 (...)** bitcast (i8** getelementptr inbounds ({ [4 x i8*] }, { [4 x i8*] }* @_ZTVNSt3__19basic_iosIcNS_11char_traitsIcEEEE, i32 0, inrange i32 0, i32 2) to i32 (...)**), i32 (...)*** %18, align 8, !dbg !7375
  %19 = bitcast %"class.altered_carbon::js::NullStream"* %10 to %"class.altered_carbon::js::NullStreamBuf"*, !dbg !7374
  call void @_ZN14altered_carbon2js13NullStreamBufC2Ev(%"class.altered_carbon::js::NullStreamBuf"* %19), !dbg !7377
  %20 = bitcast %"class.altered_carbon::js::NullStream"* %10 to i32 (...)***, !dbg !7374
  store i32 (...)** bitcast (i8** getelementptr inbounds ({ [17 x i8*], [5 x i8*], [5 x i8*] }, { [17 x i8*], [5 x i8*], [5 x i8*] }* @_ZTVN14altered_carbon2js10NullStreamE, i32 0, inrange i32 0, i32 3) to i32 (...)**), i32 (...)*** %20, align 8, !dbg !7374
  %21 = bitcast %"class.altered_carbon::js::NullStream"* %10 to i8*, !dbg !7374
  %22 = getelementptr inbounds i8, i8* %21, i64 320, !dbg !7374
  %23 = bitcast i8* %22 to i32 (...)***, !dbg !7374
  store i32 (...)** bitcast (i8** getelementptr inbounds ({ [17 x i8*], [5 x i8*], [5 x i8*] }, { [17 x i8*], [5 x i8*], [5 x i8*] }* @_ZTVN14altered_carbon2js10NullStreamE, i32 0, inrange i32 1, i32 3) to i32 (...)**), i32 (...)*** %23, align 8, !dbg !7374
  %24 = bitcast %"class.altered_carbon::js::NullStream"* %10 to i8*, !dbg !7374
  %25 = getelementptr inbounds i8, i8* %24, i64 328, !dbg !7374
  %26 = bitcast i8* %25 to i32 (...)***, !dbg !7374
  store i32 (...)** bitcast (i8** getelementptr inbounds ({ [17 x i8*], [5 x i8*], [5 x i8*] }, { [17 x i8*], [5 x i8*], [5 x i8*] }* @_ZTVN14altered_carbon2js10NullStreamE, i32 0, inrange i32 2, i32 3) to i32 (...)**), i32 (...)*** %26, align 8, !dbg !7374
  %27 = bitcast %"class.altered_carbon::js::NullStream"* %10 to i8*, !dbg !7374
  %28 = getelementptr inbounds i8, i8* %27, i64 320, !dbg !7374
  %29 = bitcast i8* %28 to %"class.std::__1::basic_ostream"*, !dbg !7374
  %30 = bitcast %"class.altered_carbon::js::NullStream"* %10 to %"class.std::__1::basic_streambuf"*, !dbg !7378
  store %"class.std::__1::basic_ostream"* %29, %"class.std::__1::basic_ostream"** %4, align 8
  store i8** getelementptr inbounds ([5 x i8*], [5 x i8*]* @_ZTTN14altered_carbon2js10NullStreamE, i64 0, i64 1), i8*** %5, align 8
  store %"class.std::__1::basic_streambuf"* %30, %"class.std::__1::basic_streambuf"** %6, align 8
  %31 = load %"class.std::__1::basic_ostream"*, %"class.std::__1::basic_ostream"** %4, align 8
  %32 = load i8**, i8*** %5, align 8
  %33 = load i8*, i8** %32, align 8, !dbg !7379
  %34 = bitcast %"class.std::__1::basic_ostream"* %31 to i32 (...)***, !dbg !7379
  %35 = bitcast i8* %33 to i32 (...)**, !dbg !7379
  store i32 (...)** %35, i32 (...)*** %34, align 8, !dbg !7379
  %36 = getelementptr inbounds i8*, i8** %32, i64 1, !dbg !7379
  %37 = load i8*, i8** %36, align 8, !dbg !7379
  %38 = bitcast %"class.std::__1::basic_ostream"* %31 to i8**, !dbg !7379
  %39 = load i8*, i8** %38, align 8, !dbg !7379
  %40 = getelementptr i8, i8* %39, i64 -24, !dbg !7379
  %41 = bitcast i8* %40 to i64*, !dbg !7379
  %42 = load i64, i64* %41, align 8, !dbg !7379
  %43 = bitcast %"class.std::__1::basic_ostream"* %31 to i8*, !dbg !7379
  %44 = getelementptr inbounds i8, i8* %43, i64 %42, !dbg !7379
  %45 = bitcast i8* %44 to i32 (...)***, !dbg !7379
  %46 = bitcast i8* %37 to i32 (...)**, !dbg !7379
  store i32 (...)** %46, i32 (...)*** %45, align 8, !dbg !7379
  %47 = bitcast %"class.std::__1::basic_ostream"* %31 to i8**, !dbg !7380
  %48 = load i8*, i8** %47, align 8, !dbg !7380
  %49 = getelementptr i8, i8* %48, i64 -24, !dbg !7380
  %50 = bitcast i8* %49 to i64*, !dbg !7380
  %51 = load i64, i64* %50, align 8, !dbg !7380
  %52 = bitcast %"class.std::__1::basic_ostream"* %31 to i8*, !dbg !7380
  %53 = getelementptr inbounds i8, i8* %52, i64 %51, !dbg !7380
  %54 = bitcast i8* %53 to %"class.std::__1::basic_ios"*, !dbg !7380
  %55 = load %"class.std::__1::basic_streambuf"*, %"class.std::__1::basic_streambuf"** %6, align 8, !dbg !7381
  store %"class.std::__1::basic_ios"* %54, %"class.std::__1::basic_ios"** %2, align 8
  store %"class.std::__1::basic_streambuf"* %55, %"class.std::__1::basic_streambuf"** %3, align 8
  %56 = load %"class.std::__1::basic_ios"*, %"class.std::__1::basic_ios"** %2, align 8
  %57 = bitcast %"class.std::__1::basic_ios"* %56 to %"class.std::__1::ios_base"*, !dbg !7382
  %58 = load %"class.std::__1::basic_streambuf"*, %"class.std::__1::basic_streambuf"** %3, align 8, !dbg !7383
  %59 = bitcast %"class.std::__1::basic_streambuf"* %58 to i8*, !dbg !7383
  call void @_ZNSt3__18ios_base4initEPv(%"class.std::__1::ios_base"* %57, i8* %59) #2, !dbg !7382
  %60 = getelementptr inbounds %"class.std::__1::basic_ios", %"class.std::__1::basic_ios"* %56, i32 0, i32 1, !dbg !7384
  store %"class.std::__1::basic_ostream"* null, %"class.std::__1::basic_ostream"** %60, align 8, !dbg !7385
  %61 = call i32 @_ZNSt3__111char_traitsIcE3eofEv() #2, !dbg !7386
  %62 = getelementptr inbounds %"class.std::__1::basic_ios", %"class.std::__1::basic_ios"* %56, i32 0, i32 2, !dbg !7387
  store i32 %61, i32* %62, align 8, !dbg !7388
  %63 = bitcast %"class.altered_carbon::js::NullStream"* %10 to i32 (...)***, !dbg !7374
  store i32 (...)** bitcast (i8** getelementptr inbounds ({ [17 x i8*], [5 x i8*], [5 x i8*] }, { [17 x i8*], [5 x i8*], [5 x i8*] }* @_ZTVN14altered_carbon2js10NullStreamE, i32 0, inrange i32 0, i32 3) to i32 (...)**), i32 (...)*** %63, align 8, !dbg !7374
  %64 = bitcast %"class.altered_carbon::js::NullStream"* %10 to i8*, !dbg !7374
  %65 = getelementptr inbounds i8, i8* %64, i64 320, !dbg !7374
  %66 = bitcast i8* %65 to i32 (...)***, !dbg !7374
  store i32 (...)** bitcast (i8** getelementptr inbounds ({ [17 x i8*], [5 x i8*], [5 x i8*] }, { [17 x i8*], [5 x i8*], [5 x i8*] }* @_ZTVN14altered_carbon2js10NullStreamE, i32 0, inrange i32 1, i32 3) to i32 (...)**), i32 (...)*** %66, align 8, !dbg !7374
  %67 = bitcast %"class.altered_carbon::js::NullStream"* %10 to i8*, !dbg !7374
  %68 = getelementptr inbounds i8, i8* %67, i64 328, !dbg !7374
  %69 = bitcast i8* %68 to i32 (...)***, !dbg !7374
  store i32 (...)** bitcast (i8** getelementptr inbounds ({ [17 x i8*], [5 x i8*], [5 x i8*] }, { [17 x i8*], [5 x i8*], [5 x i8*] }* @_ZTVN14altered_carbon2js10NullStreamE, i32 0, inrange i32 2, i32 3) to i32 (...)**), i32 (...)*** %69, align 8, !dbg !7374
  ret void, !dbg !7389
}

; Function Attrs: noinline nounwind optnone ssp uwtable
define linkonce_odr hidden void @_ZN14altered_carbon2js10NullStreamD1Ev(%"class.altered_carbon::js::NullStream"*) unnamed_addr #1 align 2 !dbg !7390 {
  %2 = alloca %"class.altered_carbon::js::NullStream"*, align 8
  store %"class.altered_carbon::js::NullStream"* %0, %"class.altered_carbon::js::NullStream"** %2, align 8
  call void @llvm.dbg.declare(metadata %"class.altered_carbon::js::NullStream"** %2, metadata !7392, metadata !DIExpression()), !dbg !7393
  %3 = load %"class.altered_carbon::js::NullStream"*, %"class.altered_carbon::js::NullStream"** %2, align 8
  call void @_ZN14altered_carbon2js10NullStreamD2Ev(%"class.altered_carbon::js::NullStream"* %3, i8** getelementptr inbounds ([5 x i8*], [5 x i8*]* @_ZTTN14altered_carbon2js10NullStreamE, i64 0, i64 0)) #2, !dbg !7394
  %4 = bitcast %"class.altered_carbon::js::NullStream"* %3 to i8*, !dbg !7394
  %5 = getelementptr inbounds i8, i8* %4, i64 328, !dbg !7394
  %6 = bitcast i8* %5 to %"class.std::__1::basic_ios"*, !dbg !7394
  call void @_ZNSt3__19basic_iosIcNS_11char_traitsIcEEED2Ev(%"class.std::__1::basic_ios"* %6) #2, !dbg !7394
  ret void, !dbg !7394
}

; Function Attrs: nounwind
declare i32 @__cxa_atexit(void (i8*)*, i8*, i8*) #2

; Function Attrs: noinline nounwind optnone ssp uwtable
define i32 @_ZN14altered_carbon2js13NullStreamBuf8overflowEi(%"class.altered_carbon::js::NullStreamBuf"*, i32) unnamed_addr #1 align 2 !dbg !7395 {
  %3 = alloca %"class.std::__1::basic_streambuf"*, align 8
  call void @llvm.dbg.declare(metadata %"class.std::__1::basic_streambuf"** %3, metadata !7396, metadata !DIExpression()), !dbg !7398
  %4 = alloca i8*, align 8
  call void @llvm.dbg.declare(metadata i8** %4, metadata !7400, metadata !DIExpression()), !dbg !7401
  %5 = alloca i8*, align 8
  call void @llvm.dbg.declare(metadata i8** %5, metadata !7402, metadata !DIExpression()), !dbg !7403
  %6 = alloca %"class.altered_carbon::js::NullStreamBuf"*, align 8
  %7 = alloca i32, align 4
  store %"class.altered_carbon::js::NullStreamBuf"* %0, %"class.altered_carbon::js::NullStreamBuf"** %6, align 8
  call void @llvm.dbg.declare(metadata %"class.altered_carbon::js::NullStreamBuf"** %6, metadata !7404, metadata !DIExpression()), !dbg !7406
  store i32 %1, i32* %7, align 4
  call void @llvm.dbg.declare(metadata i32* %7, metadata !7407, metadata !DIExpression()), !dbg !7408
  %8 = load %"class.altered_carbon::js::NullStreamBuf"*, %"class.altered_carbon::js::NullStreamBuf"** %6, align 8
  %9 = bitcast %"class.altered_carbon::js::NullStreamBuf"* %8 to %"class.std::__1::basic_streambuf"*, !dbg !7409
  %10 = getelementptr inbounds %"class.altered_carbon::js::NullStreamBuf", %"class.altered_carbon::js::NullStreamBuf"* %8, i32 0, i32 1, !dbg !7410
  %11 = getelementptr inbounds [256 x i8], [256 x i8]* %10, i32 0, i32 0, !dbg !7410
  %12 = getelementptr inbounds %"class.altered_carbon::js::NullStreamBuf", %"class.altered_carbon::js::NullStreamBuf"* %8, i32 0, i32 1, !dbg !7411
  %13 = getelementptr inbounds [256 x i8], [256 x i8]* %12, i32 0, i32 0, !dbg !7411
  %14 = getelementptr inbounds i8, i8* %13, i64 256, !dbg !7412
  store %"class.std::__1::basic_streambuf"* %9, %"class.std::__1::basic_streambuf"** %3, align 8
  store i8* %11, i8** %4, align 8
  store i8* %14, i8** %5, align 8
  %15 = load %"class.std::__1::basic_streambuf"*, %"class.std::__1::basic_streambuf"** %3, align 8
  %16 = load i8*, i8** %4, align 8, !dbg !7413
  %17 = getelementptr inbounds %"class.std::__1::basic_streambuf", %"class.std::__1::basic_streambuf"* %15, i32 0, i32 6, !dbg !7414
  store i8* %16, i8** %17, align 8, !dbg !7415
  %18 = getelementptr inbounds %"class.std::__1::basic_streambuf", %"class.std::__1::basic_streambuf"* %15, i32 0, i32 5, !dbg !7416
  store i8* %16, i8** %18, align 8, !dbg !7417
  %19 = load i8*, i8** %5, align 8, !dbg !7418
  %20 = getelementptr inbounds %"class.std::__1::basic_streambuf", %"class.std::__1::basic_streambuf"* %15, i32 0, i32 7, !dbg !7419
  store i8* %19, i8** %20, align 8, !dbg !7420
  %21 = load i32, i32* %7, align 4, !dbg !7421
  %22 = call i32 @_ZNSt3__111char_traitsIcE3eofEv() #2, !dbg !7422
  %23 = icmp eq i32 %21, %22, !dbg !7423
  br i1 %23, label %24, label %25, !dbg !7424

; <label>:24:                                     ; preds = %2
  br label %27, !dbg !7424

; <label>:25:                                     ; preds = %2
  %26 = load i32, i32* %7, align 4, !dbg !7425
  br label %27, !dbg !7424

; <label>:27:                                     ; preds = %25, %24
  %28 = phi i32 [ 0, %24 ], [ %26, %25 ], !dbg !7424
  ret i32 %28, !dbg !7426
}

; Function Attrs: nounwind readnone speculatable
declare void @llvm.dbg.declare(metadata, metadata, metadata) #3

; Function Attrs: noinline nounwind optnone ssp uwtable
define linkonce_odr hidden i32 @_ZNSt3__111char_traitsIcE3eofEv() #1 align 2 !dbg !7427 {
  ret i32 -1, !dbg !7428
}

; Function Attrs: noinline nounwind optnone ssp uwtable
define void @_ZN14altered_carbon2js10ACJsParser16showErrorContextEv(%"class.altered_carbon::js::ACJsParser"*) #1 align 2 !dbg !7429 {
  %2 = alloca %"struct.std::__1::__compressed_pair_elem.1"*, align 8
  call void @llvm.dbg.declare(metadata %"struct.std::__1::__compressed_pair_elem.1"** %2, metadata !7430, metadata !DIExpression()), !dbg !7433
  %3 = alloca %"class.std::__1::__compressed_pair"*, align 8
  call void @llvm.dbg.declare(metadata %"class.std::__1::__compressed_pair"** %3, metadata !7441, metadata !DIExpression()), !dbg !7443
  %4 = alloca %"class.std::__1::basic_string"*, align 8
  call void @llvm.dbg.declare(metadata %"class.std::__1::basic_string"** %4, metadata !7444, metadata !DIExpression()), !dbg !7446
  %5 = alloca %"class.std::__1::basic_string"*, align 8
  call void @llvm.dbg.declare(metadata %"class.std::__1::basic_string"** %5, metadata !7447, metadata !DIExpression()), !dbg !7448
  %6 = alloca i64, align 8
  call void @llvm.dbg.declare(metadata i64* %6, metadata !7449, metadata !DIExpression()), !dbg !7450
  %7 = alloca i64, align 8
  call void @llvm.dbg.declare(metadata i64* %7, metadata !7451, metadata !DIExpression()), !dbg !7452
  %8 = alloca %"class.altered_carbon::js::ACJsParser"*, align 8
  %9 = alloca i32, align 4
  %10 = alloca %"class.std::__1::basic_string", align 8
  %11 = alloca i32, align 4
  store %"class.altered_carbon::js::ACJsParser"* %0, %"class.altered_carbon::js::ACJsParser"** %8, align 8
  call void @llvm.dbg.declare(metadata %"class.altered_carbon::js::ACJsParser"** %8, metadata !7453, metadata !DIExpression()), !dbg !7455
  %12 = load %"class.altered_carbon::js::ACJsParser"*, %"class.altered_carbon::js::ACJsParser"** %8, align 8
  call void @llvm.dbg.declare(metadata i32* %9, metadata !7456, metadata !DIExpression()), !dbg !7457
  %13 = getelementptr inbounds %"class.altered_carbon::js::ACJsParser", %"class.altered_carbon::js::ACJsParser"* %12, i32 0, i32 11, !dbg !7458
  %14 = getelementptr inbounds %"struct.altered_carbon::js::ACLexPosition", %"struct.altered_carbon::js::ACLexPosition"* %13, i32 0, i32 1, !dbg !7459
  %15 = load i64, i64* %14, align 8, !dbg !7459
  %16 = getelementptr inbounds %"class.altered_carbon::js::ACJsParser", %"class.altered_carbon::js::ACJsParser"* %12, i32 0, i32 11, !dbg !7460
  %17 = getelementptr inbounds %"struct.altered_carbon::js::ACLexPosition", %"struct.altered_carbon::js::ACLexPosition"* %16, i32 0, i32 3, !dbg !7461
  %18 = load i64, i64* %17, align 8, !dbg !7461
  %19 = sub i64 %15, %18, !dbg !7462
  %20 = trunc i64 %19 to i32, !dbg !7458
  store i32 %20, i32* %9, align 4, !dbg !7457
  %21 = getelementptr inbounds %"class.altered_carbon::js::ACJsParser", %"class.altered_carbon::js::ACJsParser"* %12, i32 0, i32 2, !dbg !7463
  %22 = getelementptr inbounds %"class.altered_carbon::js::ACJsParser", %"class.altered_carbon::js::ACJsParser"* %12, i32 0, i32 11, !dbg !7464
  %23 = getelementptr inbounds %"struct.altered_carbon::js::ACLexPosition", %"struct.altered_carbon::js::ACLexPosition"* %22, i32 0, i32 3, !dbg !7465
  %24 = load i64, i64* %23, align 8, !dbg !7465
  %25 = load i32, i32* %9, align 4, !dbg !7466
  %26 = add nsw i32 %25, 3, !dbg !7467
  %27 = sext i32 %26 to i64, !dbg !7466
  store %"class.std::__1::basic_string"* %21, %"class.std::__1::basic_string"** %5, align 8, !noalias !7468
  store i64 %24, i64* %6, align 8, !noalias !7468
  store i64 %27, i64* %7, align 8, !noalias !7468
  %28 = load %"class.std::__1::basic_string"*, %"class.std::__1::basic_string"** %5, align 8, !noalias !7468
  %29 = load i64, i64* %6, align 8, !dbg !7471, !noalias !7468
  %30 = load i64, i64* %7, align 8, !dbg !7472, !noalias !7468
  store %"class.std::__1::basic_string"* %28, %"class.std::__1::basic_string"** %4, align 8, !noalias !7468
  %31 = load %"class.std::__1::basic_string"*, %"class.std::__1::basic_string"** %4, align 8, !noalias !7468
  %32 = getelementptr inbounds %"class.std::__1::basic_string", %"class.std::__1::basic_string"* %31, i32 0, i32 0, !dbg !7473
  store %"class.std::__1::__compressed_pair"* %32, %"class.std::__1::__compressed_pair"** %3, align 8, !noalias !7468
  %33 = load %"class.std::__1::__compressed_pair"*, %"class.std::__1::__compressed_pair"** %3, align 8, !noalias !7468
  %34 = bitcast %"class.std::__1::__compressed_pair"* %33 to %"struct.std::__1::__compressed_pair_elem.1"*, !dbg !7474
  store %"struct.std::__1::__compressed_pair_elem.1"* %34, %"struct.std::__1::__compressed_pair_elem.1"** %2, align 8, !noalias !7468
  %35 = load %"struct.std::__1::__compressed_pair_elem.1"*, %"struct.std::__1::__compressed_pair_elem.1"** %2, align 8, !noalias !7468
  %36 = bitcast %"struct.std::__1::__compressed_pair_elem.1"* %35 to %"class.std::__1::allocator"*, !dbg !7475
  call void @_ZNSt3__112basic_stringIcNS_11char_traitsIcEENS_9allocatorIcEEEC1ERKS5_mmRKS4_(%"class.std::__1::basic_string"* %10, %"class.std::__1::basic_string"* dereferenceable(24) %28, i64 %29, i64 %30, %"class.std::__1::allocator"* dereferenceable(1) %36) #2, !dbg !7476
  %37 = call dereferenceable(160) %"class.std::__1::basic_ostream"* @_ZNSt3__1lsIcNS_11char_traitsIcEENS_9allocatorIcEEEERNS_13basic_ostreamIT_T0_EES9_RKNS_12basic_stringIS6_S7_T1_EE(%"class.std::__1::basic_ostream"* dereferenceable(160) @_ZNSt3__14coutE, %"class.std::__1::basic_string"* dereferenceable(24) %10), !dbg !7477
  %38 = call dereferenceable(160) %"class.std::__1::basic_ostream"* @_ZNSt3__1lsINS_11char_traitsIcEEEERNS_13basic_ostreamIcT_EES6_PKc(%"class.std::__1::basic_ostream"* dereferenceable(160) %37, i8* getelementptr inbounds ([5 x i8], [5 x i8]* @.str, i32 0, i32 0)), !dbg !7478
  call void @_ZNSt3__112basic_stringIcNS_11char_traitsIcEENS_9allocatorIcEEED1Ev(%"class.std::__1::basic_string"* %10) #2, !dbg !7479
  %39 = call dereferenceable(160) %"class.std::__1::basic_ostream"* @_ZNSt3__1lsINS_11char_traitsIcEEEERNS_13basic_ostreamIcT_EES6_PKc(%"class.std::__1::basic_ostream"* dereferenceable(160) @_ZNSt3__14coutE, i8* getelementptr inbounds ([6 x i8], [6 x i8]* @.str.1, i32 0, i32 0)), !dbg !7480
  call void @llvm.dbg.declare(metadata i32* %11, metadata !7481, metadata !DIExpression()), !dbg !7483
  store i32 0, i32* %11, align 4, !dbg !7483
  br label %40, !dbg !7484

; <label>:40:                                     ; preds = %47, %1
  %41 = load i32, i32* %11, align 4, !dbg !7485
  %42 = load i32, i32* %9, align 4, !dbg !7487
  %43 = sub nsw i32 %42, 1, !dbg !7488
  %44 = icmp slt i32 %41, %43, !dbg !7489
  br i1 %44, label %45, label %50, !dbg !7490

; <label>:45:                                     ; preds = %40
  %46 = call dereferenceable(160) %"class.std::__1::basic_ostream"* @_ZNSt3__1lsINS_11char_traitsIcEEEERNS_13basic_ostreamIcT_EES6_PKc(%"class.std::__1::basic_ostream"* dereferenceable(160) @_ZNSt3__14coutE, i8* getelementptr inbounds ([2 x i8], [2 x i8]* @.str.2, i32 0, i32 0)), !dbg !7491
  br label %47, !dbg !7493

; <label>:47:                                     ; preds = %45
  %48 = load i32, i32* %11, align 4, !dbg !7494
  %49 = add nsw i32 %48, 1, !dbg !7494
  store i32 %49, i32* %11, align 4, !dbg !7494
  br label %40, !dbg !7495, !llvm.loop !7496

; <label>:50:                                     ; preds = %40
  %51 = call dereferenceable(160) %"class.std::__1::basic_ostream"* @_ZNSt3__1lsINS_11char_traitsIcEEEERNS_13basic_ostreamIcT_EES6_PKc(%"class.std::__1::basic_ostream"* dereferenceable(160) @_ZNSt3__14coutE, i8* getelementptr inbounds ([3 x i8], [3 x i8]* @.str.3, i32 0, i32 0)), !dbg !7498
  %52 = call dereferenceable(160) %"class.std::__1::basic_ostream"* @_ZNSt3__1lsINS_11char_traitsIcEEEERNS_13basic_ostreamIcT_EES6_PKc(%"class.std::__1::basic_ostream"* dereferenceable(160) %51, i8* getelementptr inbounds ([5 x i8], [5 x i8]* @.str.4, i32 0, i32 0)), !dbg !7499
  ret void, !dbg !7500
}

; Function Attrs: noinline nounwind optnone ssp uwtable
define linkonce_odr dereferenceable(160) %"class.std::__1::basic_ostream"* @_ZNSt3__1lsINS_11char_traitsIcEEEERNS_13basic_ostreamIcT_EES6_PKc(%"class.std::__1::basic_ostream"* dereferenceable(160), i8*) #1 !dbg !7501 {
  %3 = alloca %"class.std::__1::basic_ostream"*, align 8
  %4 = alloca i8*, align 8
  store %"class.std::__1::basic_ostream"* %0, %"class.std::__1::basic_ostream"** %3, align 8
  call void @llvm.dbg.declare(metadata %"class.std::__1::basic_ostream"** %3, metadata !7505, metadata !DIExpression()), !dbg !7506
  store i8* %1, i8** %4, align 8
  call void @llvm.dbg.declare(metadata i8** %4, metadata !7507, metadata !DIExpression()), !dbg !7508
  %5 = load %"class.std::__1::basic_ostream"*, %"class.std::__1::basic_ostream"** %3, align 8, !dbg !7509
  %6 = load i8*, i8** %4, align 8, !dbg !7510
  %7 = load i8*, i8** %4, align 8, !dbg !7511
  %8 = call i64 @_ZNSt3__111char_traitsIcE6lengthEPKc(i8* %7) #2, !dbg !7512
  %9 = call dereferenceable(160) %"class.std::__1::basic_ostream"* @_ZNSt3__124__put_character_sequenceIcNS_11char_traitsIcEEEERNS_13basic_ostreamIT_T0_EES7_PKS4_m(%"class.std::__1::basic_ostream"* dereferenceable(160) %5, i8* %6, i64 %8), !dbg !7513
  ret %"class.std::__1::basic_ostream"* %9, !dbg !7514
}

; Function Attrs: noinline nounwind optnone ssp uwtable
define linkonce_odr dereferenceable(160) %"class.std::__1::basic_ostream"* @_ZNSt3__1lsIcNS_11char_traitsIcEENS_9allocatorIcEEEERNS_13basic_ostreamIT_T0_EES9_RKNS_12basic_stringIS6_S7_T1_EE(%"class.std::__1::basic_ostream"* dereferenceable(160), %"class.std::__1::basic_string"* dereferenceable(24)) #1 !dbg !7515 {
  %3 = alloca %"struct.std::__1::__compressed_pair_elem"*, align 8
  call void @llvm.dbg.declare(metadata %"struct.std::__1::__compressed_pair_elem"** %3, metadata !7518, metadata !DIExpression()), !dbg !7521
  %4 = alloca %"class.std::__1::__compressed_pair"*, align 8
  call void @llvm.dbg.declare(metadata %"class.std::__1::__compressed_pair"** %4, metadata !7529, metadata !DIExpression()), !dbg !7530
  %5 = alloca %"class.std::__1::basic_string"*, align 8
  call void @llvm.dbg.declare(metadata %"class.std::__1::basic_string"** %5, metadata !7531, metadata !DIExpression()), !dbg !7532
  %6 = alloca %"struct.std::__1::__compressed_pair_elem"*, align 8
  call void @llvm.dbg.declare(metadata %"struct.std::__1::__compressed_pair_elem"** %6, metadata !7518, metadata !DIExpression()), !dbg !7533
  %7 = alloca %"class.std::__1::__compressed_pair"*, align 8
  call void @llvm.dbg.declare(metadata %"class.std::__1::__compressed_pair"** %7, metadata !7529, metadata !DIExpression()), !dbg !7538
  %8 = alloca %"class.std::__1::basic_string"*, align 8
  call void @llvm.dbg.declare(metadata %"class.std::__1::basic_string"** %8, metadata !7539, metadata !DIExpression()), !dbg !7540
  %9 = alloca %"struct.std::__1::__compressed_pair_elem"*, align 8
  call void @llvm.dbg.declare(metadata %"struct.std::__1::__compressed_pair_elem"** %9, metadata !7518, metadata !DIExpression()), !dbg !7541
  %10 = alloca %"class.std::__1::__compressed_pair"*, align 8
  call void @llvm.dbg.declare(metadata %"class.std::__1::__compressed_pair"** %10, metadata !7529, metadata !DIExpression()), !dbg !7546
  %11 = alloca %"class.std::__1::basic_string"*, align 8
  call void @llvm.dbg.declare(metadata %"class.std::__1::basic_string"** %11, metadata !7547, metadata !DIExpression()), !dbg !7548
  %12 = alloca %"class.std::__1::basic_string"*, align 8
  call void @llvm.dbg.declare(metadata %"class.std::__1::basic_string"** %12, metadata !7549, metadata !DIExpression()), !dbg !7550
  %13 = alloca i8*, align 8
  call void @llvm.dbg.declare(metadata i8** %13, metadata !7551, metadata !DIExpression()), !dbg !7557
  %14 = alloca %"struct.std::__1::__compressed_pair_elem"*, align 8
  call void @llvm.dbg.declare(metadata %"struct.std::__1::__compressed_pair_elem"** %14, metadata !7518, metadata !DIExpression()), !dbg !7561
  %15 = alloca %"class.std::__1::__compressed_pair"*, align 8
  call void @llvm.dbg.declare(metadata %"class.std::__1::__compressed_pair"** %15, metadata !7529, metadata !DIExpression()), !dbg !7568
  %16 = alloca %"class.std::__1::basic_string"*, align 8
  call void @llvm.dbg.declare(metadata %"class.std::__1::basic_string"** %16, metadata !7569, metadata !DIExpression()), !dbg !7570
  %17 = alloca i8*, align 8
  call void @llvm.dbg.declare(metadata i8** %17, metadata !7571, metadata !DIExpression()), !dbg !7575
  %18 = alloca i8*, align 8
  call void @llvm.dbg.declare(metadata i8** %18, metadata !7596, metadata !DIExpression()), !dbg !7597
  %19 = alloca %"struct.std::__1::__compressed_pair_elem"*, align 8
  call void @llvm.dbg.declare(metadata %"struct.std::__1::__compressed_pair_elem"** %19, metadata !7518, metadata !DIExpression()), !dbg !7598
  %20 = alloca %"class.std::__1::__compressed_pair"*, align 8
  call void @llvm.dbg.declare(metadata %"class.std::__1::__compressed_pair"** %20, metadata !7529, metadata !DIExpression()), !dbg !7601
  %21 = alloca %"class.std::__1::basic_string"*, align 8
  call void @llvm.dbg.declare(metadata %"class.std::__1::basic_string"** %21, metadata !7602, metadata !DIExpression()), !dbg !7603
  %22 = alloca %"struct.std::__1::__compressed_pair_elem"*, align 8
  call void @llvm.dbg.declare(metadata %"struct.std::__1::__compressed_pair_elem"** %22, metadata !7518, metadata !DIExpression()), !dbg !7604
  %23 = alloca %"class.std::__1::__compressed_pair"*, align 8
  call void @llvm.dbg.declare(metadata %"class.std::__1::__compressed_pair"** %23, metadata !7529, metadata !DIExpression()), !dbg !7608
  %24 = alloca %"class.std::__1::basic_string"*, align 8
  call void @llvm.dbg.declare(metadata %"class.std::__1::basic_string"** %24, metadata !7547, metadata !DIExpression()), !dbg !7609
  %25 = alloca %"class.std::__1::basic_string"*, align 8
  call void @llvm.dbg.declare(metadata %"class.std::__1::basic_string"** %25, metadata !7610, metadata !DIExpression()), !dbg !7611
  %26 = alloca %"class.std::__1::basic_string"*, align 8
  call void @llvm.dbg.declare(metadata %"class.std::__1::basic_string"** %26, metadata !7612, metadata !DIExpression()), !dbg !7613
  %27 = alloca %"class.std::__1::basic_ostream"*, align 8
  %28 = alloca %"class.std::__1::basic_string"*, align 8
  store %"class.std::__1::basic_ostream"* %0, %"class.std::__1::basic_ostream"** %27, align 8
  call void @llvm.dbg.declare(metadata %"class.std::__1::basic_ostream"** %27, metadata !7614, metadata !DIExpression()), !dbg !7615
  store %"class.std::__1::basic_string"* %1, %"class.std::__1::basic_string"** %28, align 8
  call void @llvm.dbg.declare(metadata %"class.std::__1::basic_string"** %28, metadata !7616, metadata !DIExpression()), !dbg !7617
  %29 = load %"class.std::__1::basic_ostream"*, %"class.std::__1::basic_ostream"** %27, align 8, !dbg !7618
  %30 = load %"class.std::__1::basic_string"*, %"class.std::__1::basic_string"** %28, align 8, !dbg !7619
  store %"class.std::__1::basic_string"* %30, %"class.std::__1::basic_string"** %26, align 8
  %31 = load %"class.std::__1::basic_string"*, %"class.std::__1::basic_string"** %26, align 8
  store %"class.std::__1::basic_string"* %31, %"class.std::__1::basic_string"** %25, align 8
  %32 = load %"class.std::__1::basic_string"*, %"class.std::__1::basic_string"** %25, align 8
  store %"class.std::__1::basic_string"* %32, %"class.std::__1::basic_string"** %24, align 8
  %33 = load %"class.std::__1::basic_string"*, %"class.std::__1::basic_string"** %24, align 8
  %34 = getelementptr inbounds %"class.std::__1::basic_string", %"class.std::__1::basic_string"* %33, i32 0, i32 0, !dbg !7620
  store %"class.std::__1::__compressed_pair"* %34, %"class.std::__1::__compressed_pair"** %23, align 8
  %35 = load %"class.std::__1::__compressed_pair"*, %"class.std::__1::__compressed_pair"** %23, align 8
  %36 = bitcast %"class.std::__1::__compressed_pair"* %35 to %"struct.std::__1::__compressed_pair_elem"*, !dbg !7621
  store %"struct.std::__1::__compressed_pair_elem"* %36, %"struct.std::__1::__compressed_pair_elem"** %22, align 8
  %37 = load %"struct.std::__1::__compressed_pair_elem"*, %"struct.std::__1::__compressed_pair_elem"** %22, align 8
  %38 = getelementptr inbounds %"struct.std::__1::__compressed_pair_elem", %"struct.std::__1::__compressed_pair_elem"* %37, i32 0, i32 0, !dbg !7622
  %39 = getelementptr inbounds %"struct.std::__1::basic_string<char, std::__1::char_traits<char>, std::__1::allocator<char> >::__rep", %"struct.std::__1::basic_string<char, std::__1::char_traits<char>, std::__1::allocator<char> >::__rep"* %38, i32 0, i32 0, !dbg !7623
  %40 = bitcast %union.anon* %39 to %"struct.std::__1::basic_string<char, std::__1::char_traits<char>, std::__1::allocator<char> >::__short"*, !dbg !7623
  %41 = getelementptr inbounds %"struct.std::__1::basic_string<char, std::__1::char_traits<char>, std::__1::allocator<char> >::__short", %"struct.std::__1::basic_string<char, std::__1::char_traits<char>, std::__1::allocator<char> >::__short"* %40, i32 0, i32 0, !dbg !7624
  %42 = bitcast %union.anon.0* %41 to i8*, !dbg !7624
  %43 = load i8, i8* %42, align 8, !dbg !7624
  %44 = zext i8 %43 to i64, !dbg !7620
  %45 = and i64 %44, 1, !dbg !7625
  %46 = icmp ne i64 %45, 0, !dbg !7620
  br i1 %46, label %47, label %58, !dbg !7626

; <label>:47:                                     ; preds = %2
  store %"class.std::__1::basic_string"* %32, %"class.std::__1::basic_string"** %16, align 8
  %48 = load %"class.std::__1::basic_string"*, %"class.std::__1::basic_string"** %16, align 8
  %49 = getelementptr inbounds %"class.std::__1::basic_string", %"class.std::__1::basic_string"* %48, i32 0, i32 0, !dbg !7627
  store %"class.std::__1::__compressed_pair"* %49, %"class.std::__1::__compressed_pair"** %15, align 8
  %50 = load %"class.std::__1::__compressed_pair"*, %"class.std::__1::__compressed_pair"** %15, align 8
  %51 = bitcast %"class.std::__1::__compressed_pair"* %50 to %"struct.std::__1::__compressed_pair_elem"*, !dbg !7628
  store %"struct.std::__1::__compressed_pair_elem"* %51, %"struct.std::__1::__compressed_pair_elem"** %14, align 8
  %52 = load %"struct.std::__1::__compressed_pair_elem"*, %"struct.std::__1::__compressed_pair_elem"** %14, align 8
  %53 = getelementptr inbounds %"struct.std::__1::__compressed_pair_elem", %"struct.std::__1::__compressed_pair_elem"* %52, i32 0, i32 0, !dbg !7629
  %54 = getelementptr inbounds %"struct.std::__1::basic_string<char, std::__1::char_traits<char>, std::__1::allocator<char> >::__rep", %"struct.std::__1::basic_string<char, std::__1::char_traits<char>, std::__1::allocator<char> >::__rep"* %53, i32 0, i32 0, !dbg !7630
  %55 = bitcast %union.anon* %54 to %"struct.std::__1::basic_string<char, std::__1::char_traits<char>, std::__1::allocator<char> >::__long"*, !dbg !7630
  %56 = getelementptr inbounds %"struct.std::__1::basic_string<char, std::__1::char_traits<char>, std::__1::allocator<char> >::__long", %"struct.std::__1::basic_string<char, std::__1::char_traits<char>, std::__1::allocator<char> >::__long"* %55, i32 0, i32 2, !dbg !7631
  %57 = load i8*, i8** %56, align 8, !dbg !7631
  br label %71, !dbg !7626

; <label>:58:                                     ; preds = %2
  store %"class.std::__1::basic_string"* %32, %"class.std::__1::basic_string"** %21, align 8
  %59 = load %"class.std::__1::basic_string"*, %"class.std::__1::basic_string"** %21, align 8
  %60 = getelementptr inbounds %"class.std::__1::basic_string", %"class.std::__1::basic_string"* %59, i32 0, i32 0, !dbg !7632
  store %"class.std::__1::__compressed_pair"* %60, %"class.std::__1::__compressed_pair"** %20, align 8
  %61 = load %"class.std::__1::__compressed_pair"*, %"class.std::__1::__compressed_pair"** %20, align 8
  %62 = bitcast %"class.std::__1::__compressed_pair"* %61 to %"struct.std::__1::__compressed_pair_elem"*, !dbg !7633
  store %"struct.std::__1::__compressed_pair_elem"* %62, %"struct.std::__1::__compressed_pair_elem"** %19, align 8
  %63 = load %"struct.std::__1::__compressed_pair_elem"*, %"struct.std::__1::__compressed_pair_elem"** %19, align 8
  %64 = getelementptr inbounds %"struct.std::__1::__compressed_pair_elem", %"struct.std::__1::__compressed_pair_elem"* %63, i32 0, i32 0, !dbg !7634
  %65 = getelementptr inbounds %"struct.std::__1::basic_string<char, std::__1::char_traits<char>, std::__1::allocator<char> >::__rep", %"struct.std::__1::basic_string<char, std::__1::char_traits<char>, std::__1::allocator<char> >::__rep"* %64, i32 0, i32 0, !dbg !7635
  %66 = bitcast %union.anon* %65 to %"struct.std::__1::basic_string<char, std::__1::char_traits<char>, std::__1::allocator<char> >::__short"*, !dbg !7635
  %67 = getelementptr inbounds %"struct.std::__1::basic_string<char, std::__1::char_traits<char>, std::__1::allocator<char> >::__short", %"struct.std::__1::basic_string<char, std::__1::char_traits<char>, std::__1::allocator<char> >::__short"* %66, i32 0, i32 1, !dbg !7636
  %68 = getelementptr inbounds [23 x i8], [23 x i8]* %67, i64 0, i64 0, !dbg !7632
  store i8* %68, i8** %18, align 8
  %69 = load i8*, i8** %18, align 8, !dbg !7637
  store i8* %69, i8** %17, align 8
  %70 = load i8*, i8** %17, align 8, !dbg !7638
  br label %71, !dbg !7626

; <label>:71:                                     ; preds = %47, %58
  %72 = phi i8* [ %57, %47 ], [ %70, %58 ], !dbg !7626
  store i8* %72, i8** %13, align 8
  %73 = load i8*, i8** %13, align 8, !dbg !7639
  %74 = load %"class.std::__1::basic_string"*, %"class.std::__1::basic_string"** %28, align 8, !dbg !7640
  store %"class.std::__1::basic_string"* %74, %"class.std::__1::basic_string"** %12, align 8
  %75 = load %"class.std::__1::basic_string"*, %"class.std::__1::basic_string"** %12, align 8
  store %"class.std::__1::basic_string"* %75, %"class.std::__1::basic_string"** %11, align 8
  %76 = load %"class.std::__1::basic_string"*, %"class.std::__1::basic_string"** %11, align 8
  %77 = getelementptr inbounds %"class.std::__1::basic_string", %"class.std::__1::basic_string"* %76, i32 0, i32 0, !dbg !7641
  store %"class.std::__1::__compressed_pair"* %77, %"class.std::__1::__compressed_pair"** %10, align 8
  %78 = load %"class.std::__1::__compressed_pair"*, %"class.std::__1::__compressed_pair"** %10, align 8
  %79 = bitcast %"class.std::__1::__compressed_pair"* %78 to %"struct.std::__1::__compressed_pair_elem"*, !dbg !7642
  store %"struct.std::__1::__compressed_pair_elem"* %79, %"struct.std::__1::__compressed_pair_elem"** %9, align 8
  %80 = load %"struct.std::__1::__compressed_pair_elem"*, %"struct.std::__1::__compressed_pair_elem"** %9, align 8
  %81 = getelementptr inbounds %"struct.std::__1::__compressed_pair_elem", %"struct.std::__1::__compressed_pair_elem"* %80, i32 0, i32 0, !dbg !7643
  %82 = getelementptr inbounds %"struct.std::__1::basic_string<char, std::__1::char_traits<char>, std::__1::allocator<char> >::__rep", %"struct.std::__1::basic_string<char, std::__1::char_traits<char>, std::__1::allocator<char> >::__rep"* %81, i32 0, i32 0, !dbg !7644
  %83 = bitcast %union.anon* %82 to %"struct.std::__1::basic_string<char, std::__1::char_traits<char>, std::__1::allocator<char> >::__short"*, !dbg !7644
  %84 = getelementptr inbounds %"struct.std::__1::basic_string<char, std::__1::char_traits<char>, std::__1::allocator<char> >::__short", %"struct.std::__1::basic_string<char, std::__1::char_traits<char>, std::__1::allocator<char> >::__short"* %83, i32 0, i32 0, !dbg !7645
  %85 = bitcast %union.anon.0* %84 to i8*, !dbg !7645
  %86 = load i8, i8* %85, align 8, !dbg !7645
  %87 = zext i8 %86 to i64, !dbg !7641
  %88 = and i64 %87, 1, !dbg !7646
  %89 = icmp ne i64 %88, 0, !dbg !7641
  br i1 %89, label %90, label %101, !dbg !7647

; <label>:90:                                     ; preds = %71
  store %"class.std::__1::basic_string"* %75, %"class.std::__1::basic_string"** %5, align 8
  %91 = load %"class.std::__1::basic_string"*, %"class.std::__1::basic_string"** %5, align 8
  %92 = getelementptr inbounds %"class.std::__1::basic_string", %"class.std::__1::basic_string"* %91, i32 0, i32 0, !dbg !7648
  store %"class.std::__1::__compressed_pair"* %92, %"class.std::__1::__compressed_pair"** %4, align 8
  %93 = load %"class.std::__1::__compressed_pair"*, %"class.std::__1::__compressed_pair"** %4, align 8
  %94 = bitcast %"class.std::__1::__compressed_pair"* %93 to %"struct.std::__1::__compressed_pair_elem"*, !dbg !7649
  store %"struct.std::__1::__compressed_pair_elem"* %94, %"struct.std::__1::__compressed_pair_elem"** %3, align 8
  %95 = load %"struct.std::__1::__compressed_pair_elem"*, %"struct.std::__1::__compressed_pair_elem"** %3, align 8
  %96 = getelementptr inbounds %"struct.std::__1::__compressed_pair_elem", %"struct.std::__1::__compressed_pair_elem"* %95, i32 0, i32 0, !dbg !7650
  %97 = getelementptr inbounds %"struct.std::__1::basic_string<char, std::__1::char_traits<char>, std::__1::allocator<char> >::__rep", %"struct.std::__1::basic_string<char, std::__1::char_traits<char>, std::__1::allocator<char> >::__rep"* %96, i32 0, i32 0, !dbg !7651
  %98 = bitcast %union.anon* %97 to %"struct.std::__1::basic_string<char, std::__1::char_traits<char>, std::__1::allocator<char> >::__long"*, !dbg !7651
  %99 = getelementptr inbounds %"struct.std::__1::basic_string<char, std::__1::char_traits<char>, std::__1::allocator<char> >::__long", %"struct.std::__1::basic_string<char, std::__1::char_traits<char>, std::__1::allocator<char> >::__long"* %98, i32 0, i32 1, !dbg !7652
  %100 = load i64, i64* %99, align 8, !dbg !7652
  br label %116, !dbg !7647

; <label>:101:                                    ; preds = %71
  store %"class.std::__1::basic_string"* %75, %"class.std::__1::basic_string"** %8, align 8
  %102 = load %"class.std::__1::basic_string"*, %"class.std::__1::basic_string"** %8, align 8
  %103 = getelementptr inbounds %"class.std::__1::basic_string", %"class.std::__1::basic_string"* %102, i32 0, i32 0, !dbg !7653
  store %"class.std::__1::__compressed_pair"* %103, %"class.std::__1::__compressed_pair"** %7, align 8
  %104 = load %"class.std::__1::__compressed_pair"*, %"class.std::__1::__compressed_pair"** %7, align 8
  %105 = bitcast %"class.std::__1::__compressed_pair"* %104 to %"struct.std::__1::__compressed_pair_elem"*, !dbg !7654
  store %"struct.std::__1::__compressed_pair_elem"* %105, %"struct.std::__1::__compressed_pair_elem"** %6, align 8
  %106 = load %"struct.std::__1::__compressed_pair_elem"*, %"struct.std::__1::__compressed_pair_elem"** %6, align 8
  %107 = getelementptr inbounds %"struct.std::__1::__compressed_pair_elem", %"struct.std::__1::__compressed_pair_elem"* %106, i32 0, i32 0, !dbg !7655
  %108 = getelementptr inbounds %"struct.std::__1::basic_string<char, std::__1::char_traits<char>, std::__1::allocator<char> >::__rep", %"struct.std::__1::basic_string<char, std::__1::char_traits<char>, std::__1::allocator<char> >::__rep"* %107, i32 0, i32 0, !dbg !7656
  %109 = bitcast %union.anon* %108 to %"struct.std::__1::basic_string<char, std::__1::char_traits<char>, std::__1::allocator<char> >::__short"*, !dbg !7656
  %110 = getelementptr inbounds %"struct.std::__1::basic_string<char, std::__1::char_traits<char>, std::__1::allocator<char> >::__short", %"struct.std::__1::basic_string<char, std::__1::char_traits<char>, std::__1::allocator<char> >::__short"* %109, i32 0, i32 0, !dbg !7657
  %111 = bitcast %union.anon.0* %110 to i8*, !dbg !7657
  %112 = load i8, i8* %111, align 8, !dbg !7657
  %113 = zext i8 %112 to i32, !dbg !7653
  %114 = ashr i32 %113, 1, !dbg !7658
  %115 = sext i32 %114 to i64, !dbg !7653
  br label %116, !dbg !7647

; <label>:116:                                    ; preds = %90, %101
  %117 = phi i64 [ %100, %90 ], [ %115, %101 ], !dbg !7647
  %118 = call dereferenceable(160) %"class.std::__1::basic_ostream"* @_ZNSt3__124__put_character_sequenceIcNS_11char_traitsIcEEEERNS_13basic_ostreamIT_T0_EES7_PKS4_m(%"class.std::__1::basic_ostream"* dereferenceable(160) %29, i8* %73, i64 %117), !dbg !7659
  ret %"class.std::__1::basic_ostream"* %118, !dbg !7660
}

; Function Attrs: nounwind
declare void @_ZNSt3__112basic_stringIcNS_11char_traitsIcEENS_9allocatorIcEEED1Ev(%"class.std::__1::basic_string"*) unnamed_addr #4

; Function Attrs: noinline nounwind optnone ssp uwtable
define void @_ZN14altered_carbon2js12ACAstBuilder16recoverFromErrorERKNSt3__110unique_ptrINS0_10ACLexTokenENS2_14default_deleteIS4_EEEE(%"class.std::__1::unique_ptr.29"* noalias sret, %"class.altered_carbon::js::ACAstBuilder"*, %"class.std::__1::unique_ptr"* dereferenceable(8)) #1 align 2 !dbg !7661 {
  %4 = alloca %"struct.std::__1::__compressed_pair_elem.34"*, align 8
  call void @llvm.dbg.declare(metadata %"struct.std::__1::__compressed_pair_elem.34"** %4, metadata !7937, metadata !DIExpression()), !dbg !7940
  %5 = alloca %"class.std::__1::__compressed_pair.33"*, align 8
  call void @llvm.dbg.declare(metadata %"class.std::__1::__compressed_pair.33"** %5, metadata !7948, metadata !DIExpression()), !dbg !7950
  %6 = alloca %"class.std::__1::unique_ptr.32"*, align 8
  call void @llvm.dbg.declare(metadata %"class.std::__1::unique_ptr.32"** %6, metadata !7951, metadata !DIExpression()), !dbg !7953
  %7 = alloca %"class.std::__1::unique_ptr.32"*, align 8
  call void @llvm.dbg.declare(metadata %"class.std::__1::unique_ptr.32"** %7, metadata !7954, metadata !DIExpression()), !dbg !7963
  %8 = alloca %"struct.std::__1::__compressed_pair_elem.16"*, align 8
  call void @llvm.dbg.declare(metadata %"struct.std::__1::__compressed_pair_elem.16"** %8, metadata !7965, metadata !DIExpression()), !dbg !7968
  %9 = alloca %"class.std::__1::__compressed_pair.15"*, align 8
  call void @llvm.dbg.declare(metadata %"class.std::__1::__compressed_pair.15"** %9, metadata !7974, metadata !DIExpression()), !dbg !7976
  %10 = alloca %"class.std::__1::unique_ptr"*, align 8
  call void @llvm.dbg.declare(metadata %"class.std::__1::unique_ptr"** %10, metadata !7977, metadata !DIExpression()), !dbg !7979
  %11 = alloca %"struct.std::__1::__compressed_pair_elem.16"*, align 8
  call void @llvm.dbg.declare(metadata %"struct.std::__1::__compressed_pair_elem.16"** %11, metadata !7965, metadata !DIExpression()), !dbg !7980
  %12 = alloca %"class.std::__1::__compressed_pair.15"*, align 8
  call void @llvm.dbg.declare(metadata %"class.std::__1::__compressed_pair.15"** %12, metadata !7974, metadata !DIExpression()), !dbg !7985
  %13 = alloca %"class.std::__1::unique_ptr"*, align 8
  call void @llvm.dbg.declare(metadata %"class.std::__1::unique_ptr"** %13, metadata !7986, metadata !DIExpression()), !dbg !7987
  %14 = alloca %"struct.std::__1::__compressed_pair_elem.16"*, align 8
  call void @llvm.dbg.declare(metadata %"struct.std::__1::__compressed_pair_elem.16"** %14, metadata !7965, metadata !DIExpression()), !dbg !7988
  %15 = alloca %"class.std::__1::__compressed_pair.15"*, align 8
  call void @llvm.dbg.declare(metadata %"class.std::__1::__compressed_pair.15"** %15, metadata !7974, metadata !DIExpression()), !dbg !7992
  %16 = alloca %"class.std::__1::unique_ptr"*, align 8
  call void @llvm.dbg.declare(metadata %"class.std::__1::unique_ptr"** %16, metadata !7986, metadata !DIExpression()), !dbg !7993
  %17 = alloca %"struct.std::__1::__compressed_pair_elem.54"*, align 8
  call void @llvm.dbg.declare(metadata %"struct.std::__1::__compressed_pair_elem.54"** %17, metadata !7994, metadata !DIExpression()), !dbg !7997
  %18 = alloca %"class.std::__1::__compressed_pair.52"*, align 8
  call void @llvm.dbg.declare(metadata %"class.std::__1::__compressed_pair.52"** %18, metadata !8014, metadata !DIExpression()), !dbg !8016
  %19 = alloca %"class.std::__1::unique_ptr.51"*, align 8
  call void @llvm.dbg.declare(metadata %"class.std::__1::unique_ptr.51"** %19, metadata !8017, metadata !DIExpression()), !dbg !8019
  %20 = alloca %"struct.std::__1::default_delete.55"*, align 8
  call void @llvm.dbg.declare(metadata %"struct.std::__1::default_delete.55"** %20, metadata !8020, metadata !DIExpression()), !dbg !8029
  %21 = alloca %"class.altered_carbon::js::ACAstTokenError"**, align 8
  call void @llvm.dbg.declare(metadata %"class.altered_carbon::js::ACAstTokenError"*** %21, metadata !8031, metadata !DIExpression()), !dbg !8040
  %22 = alloca %"struct.std::__1::__compressed_pair_elem.31"*, align 8
  call void @llvm.dbg.declare(metadata %"struct.std::__1::__compressed_pair_elem.31"** %22, metadata !8059, metadata !DIExpression()), !dbg !8061
  %23 = alloca %"class.altered_carbon::js::ACAstTokenError"**, align 8
  call void @llvm.dbg.declare(metadata %"class.altered_carbon::js::ACAstTokenError"*** %23, metadata !8062, metadata !DIExpression()), !dbg !8063
  %24 = alloca %"struct.std::__1::default_delete.55"*, align 8
  call void @llvm.dbg.declare(metadata %"struct.std::__1::default_delete.55"** %24, metadata !8020, metadata !DIExpression()), !dbg !8064
  %25 = alloca %"struct.std::__1::default_delete.46"*, align 8
  call void @llvm.dbg.declare(metadata %"struct.std::__1::default_delete.46"** %25, metadata !8066, metadata !DIExpression()), !dbg !8077
  %26 = alloca %"struct.std::__1::default_delete.55"*, align 8
  call void @llvm.dbg.declare(metadata %"struct.std::__1::default_delete.55"** %26, metadata !8086, metadata !DIExpression()), !dbg !8087
  %27 = alloca i8*, align 8
  call void @llvm.dbg.declare(metadata i8** %27, metadata !8088, metadata !DIExpression()), !dbg !8089
  %28 = alloca %"struct.std::__1::default_delete.55"*, align 8
  call void @llvm.dbg.declare(metadata %"struct.std::__1::default_delete.55"** %28, metadata !8020, metadata !DIExpression()), !dbg !8090
  %29 = alloca %"struct.std::__1::__compressed_pair_elem.45"*, align 8
  call void @llvm.dbg.declare(metadata %"struct.std::__1::__compressed_pair_elem.45"** %29, metadata !8092, metadata !DIExpression()), !dbg !8094
  %30 = alloca %"struct.std::__1::default_delete.55"*, align 8
  call void @llvm.dbg.declare(metadata %"struct.std::__1::default_delete.55"** %30, metadata !8095, metadata !DIExpression()), !dbg !8096
  %31 = alloca %"class.altered_carbon::js::ACAstTokenError"**, align 8
  call void @llvm.dbg.declare(metadata %"class.altered_carbon::js::ACAstTokenError"*** %31, metadata !8031, metadata !DIExpression()), !dbg !8097
  %32 = alloca %"class.std::__1::__compressed_pair.30"*, align 8
  call void @llvm.dbg.declare(metadata %"class.std::__1::__compressed_pair.30"** %32, metadata !8099, metadata !DIExpression()), !dbg !8101
  %33 = alloca %"class.altered_carbon::js::ACAstTokenError"**, align 8
  call void @llvm.dbg.declare(metadata %"class.altered_carbon::js::ACAstTokenError"*** %33, metadata !8102, metadata !DIExpression()), !dbg !8103
  %34 = alloca %"struct.std::__1::default_delete.55"*, align 8
  call void @llvm.dbg.declare(metadata %"struct.std::__1::default_delete.55"** %34, metadata !8104, metadata !DIExpression()), !dbg !8105
  %35 = alloca %"class.std::__1::__compressed_pair.30"*, align 8
  call void @llvm.dbg.declare(metadata %"class.std::__1::__compressed_pair.30"** %35, metadata !8106, metadata !DIExpression()), !dbg !8107
  %36 = alloca %"class.altered_carbon::js::ACAstTokenError"**, align 8
  call void @llvm.dbg.declare(metadata %"class.altered_carbon::js::ACAstTokenError"*** %36, metadata !8108, metadata !DIExpression()), !dbg !8109
  %37 = alloca %"struct.std::__1::default_delete.55"*, align 8
  call void @llvm.dbg.declare(metadata %"struct.std::__1::default_delete.55"** %37, metadata !8110, metadata !DIExpression()), !dbg !8111
  %38 = alloca %"struct.std::__1::__compressed_pair_elem.53"*, align 8
  call void @llvm.dbg.declare(metadata %"struct.std::__1::__compressed_pair_elem.53"** %38, metadata !8112, metadata !DIExpression()), !dbg !8115
  %39 = alloca %"class.std::__1::__compressed_pair.52"*, align 8
  call void @llvm.dbg.declare(metadata %"class.std::__1::__compressed_pair.52"** %39, metadata !8121, metadata !DIExpression()), !dbg !8122
  %40 = alloca %"struct.std::__1::__compressed_pair_elem.53"*, align 8
  call void @llvm.dbg.declare(metadata %"struct.std::__1::__compressed_pair_elem.53"** %40, metadata !8112, metadata !DIExpression()), !dbg !8123
  %41 = alloca %"class.std::__1::__compressed_pair.52"*, align 8
  call void @llvm.dbg.declare(metadata %"class.std::__1::__compressed_pair.52"** %41, metadata !8121, metadata !DIExpression()), !dbg !8126
  %42 = alloca %"class.std::__1::unique_ptr.51"*, align 8
  call void @llvm.dbg.declare(metadata %"class.std::__1::unique_ptr.51"** %42, metadata !8127, metadata !DIExpression()), !dbg !8128
  %43 = alloca %"class.altered_carbon::js::ACAstTokenError"*, align 8
  call void @llvm.dbg.declare(metadata %"class.altered_carbon::js::ACAstTokenError"** %43, metadata !8129, metadata !DIExpression()), !dbg !8130
  %44 = alloca %"class.std::__1::unique_ptr.29"*, align 8
  call void @llvm.dbg.declare(metadata %"class.std::__1::unique_ptr.29"** %44, metadata !8131, metadata !DIExpression()), !dbg !8132
  %45 = alloca %"class.std::__1::unique_ptr.51"*, align 8
  call void @llvm.dbg.declare(metadata %"class.std::__1::unique_ptr.51"** %45, metadata !8133, metadata !DIExpression()), !dbg !8134
  %46 = alloca %"class.altered_carbon::js::ACAstTokenError"*, align 8
  %47 = alloca %"class.std::__1::unique_ptr.29"*, align 8
  call void @llvm.dbg.declare(metadata %"class.std::__1::unique_ptr.29"** %47, metadata !8135, metadata !DIExpression()), !dbg !8136
  %48 = alloca %"class.std::__1::unique_ptr.51"*, align 8
  call void @llvm.dbg.declare(metadata %"class.std::__1::unique_ptr.51"** %48, metadata !8137, metadata !DIExpression()), !dbg !8138
  %49 = alloca %"struct.std::__1::__compressed_pair_elem.16"*, align 8
  call void @llvm.dbg.declare(metadata %"struct.std::__1::__compressed_pair_elem.16"** %49, metadata !7965, metadata !DIExpression()), !dbg !8139
  %50 = alloca %"class.std::__1::__compressed_pair.15"*, align 8
  call void @llvm.dbg.declare(metadata %"class.std::__1::__compressed_pair.15"** %50, metadata !7974, metadata !DIExpression()), !dbg !8143
  %51 = alloca %"class.std::__1::unique_ptr"*, align 8
  call void @llvm.dbg.declare(metadata %"class.std::__1::unique_ptr"** %51, metadata !7977, metadata !DIExpression()), !dbg !8144
  %52 = alloca %"struct.std::__1::__compressed_pair_elem.35"*, align 8
  call void @llvm.dbg.declare(metadata %"struct.std::__1::__compressed_pair_elem.35"** %52, metadata !8145, metadata !DIExpression()), !dbg !8148
  %53 = alloca %"class.std::__1::__compressed_pair.33"*, align 8
  call void @llvm.dbg.declare(metadata %"class.std::__1::__compressed_pair.33"** %53, metadata !8160, metadata !DIExpression()), !dbg !8162
  %54 = alloca %"struct.std::__1::__compressed_pair_elem.34"*, align 8
  call void @llvm.dbg.declare(metadata %"struct.std::__1::__compressed_pair_elem.34"** %54, metadata !8163, metadata !DIExpression()), !dbg !8166
  %55 = alloca %"class.std::__1::__compressed_pair.33"*, align 8
  call void @llvm.dbg.declare(metadata %"class.std::__1::__compressed_pair.33"** %55, metadata !8170, metadata !DIExpression()), !dbg !8171
  %56 = alloca %"struct.std::__1::default_delete.36"*, align 8
  call void @llvm.dbg.declare(metadata %"struct.std::__1::default_delete.36"** %56, metadata !8172, metadata !DIExpression()), !dbg !8175
  %57 = alloca %"struct.altered_carbon::js::ACLexPosition"*, align 8
  call void @llvm.dbg.declare(metadata %"struct.altered_carbon::js::ACLexPosition"** %57, metadata !8177, metadata !DIExpression()), !dbg !8178
  %58 = alloca %"struct.std::__1::__compressed_pair_elem.34"*, align 8
  call void @llvm.dbg.declare(metadata %"struct.std::__1::__compressed_pair_elem.34"** %58, metadata !8163, metadata !DIExpression()), !dbg !8179
  %59 = alloca %"class.std::__1::__compressed_pair.33"*, align 8
  call void @llvm.dbg.declare(metadata %"class.std::__1::__compressed_pair.33"** %59, metadata !8170, metadata !DIExpression()), !dbg !8182
  %60 = alloca %"class.std::__1::unique_ptr.32"*, align 8
  call void @llvm.dbg.declare(metadata %"class.std::__1::unique_ptr.32"** %60, metadata !8183, metadata !DIExpression()), !dbg !8185
  %61 = alloca %"struct.altered_carbon::js::ACLexPosition"*, align 8
  call void @llvm.dbg.declare(metadata %"struct.altered_carbon::js::ACLexPosition"** %61, metadata !8186, metadata !DIExpression()), !dbg !8187
  %62 = alloca %"struct.altered_carbon::js::ACLexPosition"*, align 8
  call void @llvm.dbg.declare(metadata %"struct.altered_carbon::js::ACLexPosition"** %62, metadata !8188, metadata !DIExpression()), !dbg !8189
  %63 = alloca %"class.std::__1::unique_ptr.32"*, align 8
  call void @llvm.dbg.declare(metadata %"class.std::__1::unique_ptr.32"** %63, metadata !8190, metadata !DIExpression()), !dbg !8191
  %64 = alloca %"class.std::__1::unique_ptr.32"*, align 8
  call void @llvm.dbg.declare(metadata %"class.std::__1::unique_ptr.32"** %64, metadata !8192, metadata !DIExpression()), !dbg !8193
  %65 = alloca %"struct.std::__1::__compressed_pair_elem.54"*, align 8
  call void @llvm.dbg.declare(metadata %"struct.std::__1::__compressed_pair_elem.54"** %65, metadata !7994, metadata !DIExpression()), !dbg !8194
  %66 = alloca %"class.std::__1::__compressed_pair.52"*, align 8
  call void @llvm.dbg.declare(metadata %"class.std::__1::__compressed_pair.52"** %66, metadata !8014, metadata !DIExpression()), !dbg !8205
  %67 = alloca %"struct.std::__1::__compressed_pair_elem.53"*, align 8
  call void @llvm.dbg.declare(metadata %"struct.std::__1::__compressed_pair_elem.53"** %67, metadata !8112, metadata !DIExpression()), !dbg !8206
  %68 = alloca %"class.std::__1::__compressed_pair.52"*, align 8
  call void @llvm.dbg.declare(metadata %"class.std::__1::__compressed_pair.52"** %68, metadata !8121, metadata !DIExpression()), !dbg !8209
  %69 = alloca %"struct.std::__1::default_delete.55"*, align 8
  call void @llvm.dbg.declare(metadata %"struct.std::__1::default_delete.55"** %69, metadata !8210, metadata !DIExpression()), !dbg !8213
  %70 = alloca %"class.altered_carbon::js::ACAstTokenError"*, align 8
  call void @llvm.dbg.declare(metadata %"class.altered_carbon::js::ACAstTokenError"** %70, metadata !8215, metadata !DIExpression()), !dbg !8216
  %71 = alloca %"struct.std::__1::__compressed_pair_elem.53"*, align 8
  call void @llvm.dbg.declare(metadata %"struct.std::__1::__compressed_pair_elem.53"** %71, metadata !8112, metadata !DIExpression()), !dbg !8217
  %72 = alloca %"class.std::__1::__compressed_pair.52"*, align 8
  call void @llvm.dbg.declare(metadata %"class.std::__1::__compressed_pair.52"** %72, metadata !8121, metadata !DIExpression()), !dbg !8220
  %73 = alloca %"class.std::__1::unique_ptr.51"*, align 8
  call void @llvm.dbg.declare(metadata %"class.std::__1::unique_ptr.51"** %73, metadata !8221, metadata !DIExpression()), !dbg !8222
  %74 = alloca %"class.altered_carbon::js::ACAstTokenError"*, align 8
  call void @llvm.dbg.declare(metadata %"class.altered_carbon::js::ACAstTokenError"** %74, metadata !8223, metadata !DIExpression()), !dbg !8224
  %75 = alloca %"class.altered_carbon::js::ACAstTokenError"*, align 8
  call void @llvm.dbg.declare(metadata %"class.altered_carbon::js::ACAstTokenError"** %75, metadata !8225, metadata !DIExpression()), !dbg !8226
  %76 = alloca %"class.std::__1::unique_ptr.51"*, align 8
  call void @llvm.dbg.declare(metadata %"class.std::__1::unique_ptr.51"** %76, metadata !8227, metadata !DIExpression()), !dbg !8228
  %77 = alloca %"class.std::__1::unique_ptr.51"*, align 8
  call void @llvm.dbg.declare(metadata %"class.std::__1::unique_ptr.51"** %77, metadata !8229, metadata !DIExpression()), !dbg !8230
  %78 = alloca %"struct.altered_carbon::js::ACLexPosition"**, align 8
  call void @llvm.dbg.declare(metadata %"struct.altered_carbon::js::ACLexPosition"*** %78, metadata !8231, metadata !DIExpression()), !dbg !8240
  %79 = alloca %"struct.std::__1::__compressed_pair_elem.34"*, align 8
  call void @llvm.dbg.declare(metadata %"struct.std::__1::__compressed_pair_elem.34"** %79, metadata !8264, metadata !DIExpression()), !dbg !8265
  %80 = alloca %"struct.altered_carbon::js::ACLexPosition"**, align 8
  call void @llvm.dbg.declare(metadata %"struct.altered_carbon::js::ACLexPosition"*** %80, metadata !8266, metadata !DIExpression()), !dbg !8267
  %81 = alloca %"struct.altered_carbon::js::ACLexPosition"**, align 8
  call void @llvm.dbg.declare(metadata %"struct.altered_carbon::js::ACLexPosition"*** %81, metadata !8231, metadata !DIExpression()), !dbg !8268
  %82 = alloca %"class.std::__1::__compressed_pair.33"*, align 8
  call void @llvm.dbg.declare(metadata %"class.std::__1::__compressed_pair.33"** %82, metadata !8270, metadata !DIExpression()), !dbg !8271
  %83 = alloca %"struct.altered_carbon::js::ACLexPosition"**, align 8
  call void @llvm.dbg.declare(metadata %"struct.altered_carbon::js::ACLexPosition"*** %83, metadata !8272, metadata !DIExpression()), !dbg !8273
  %84 = alloca %"class.std::__1::__compressed_pair.33"*, align 8
  call void @llvm.dbg.declare(metadata %"class.std::__1::__compressed_pair.33"** %84, metadata !8274, metadata !DIExpression()), !dbg !8275
  %85 = alloca %"struct.altered_carbon::js::ACLexPosition"**, align 8
  call void @llvm.dbg.declare(metadata %"struct.altered_carbon::js::ACLexPosition"*** %85, metadata !8276, metadata !DIExpression()), !dbg !8277
  %86 = alloca %"class.std::__1::unique_ptr.32"*, align 8
  call void @llvm.dbg.declare(metadata %"class.std::__1::unique_ptr.32"** %86, metadata !8278, metadata !DIExpression()), !dbg !8279
  %87 = alloca %"struct.altered_carbon::js::ACLexPosition"*, align 8
  call void @llvm.dbg.declare(metadata %"struct.altered_carbon::js::ACLexPosition"** %87, metadata !8280, metadata !DIExpression()), !dbg !8281
  %88 = alloca %"class.std::__1::unique_ptr.32"*, align 8
  call void @llvm.dbg.declare(metadata %"class.std::__1::unique_ptr.32"** %88, metadata !8282, metadata !DIExpression()), !dbg !8283
  %89 = alloca %"struct.altered_carbon::js::ACLexPosition"*, align 8
  call void @llvm.dbg.declare(metadata %"struct.altered_carbon::js::ACLexPosition"** %89, metadata !8284, metadata !DIExpression()), !dbg !8285
  %90 = alloca %"struct.std::__1::__compressed_pair_elem.35"*, align 8
  call void @llvm.dbg.declare(metadata %"struct.std::__1::__compressed_pair_elem.35"** %90, metadata !8145, metadata !DIExpression()), !dbg !8286
  %91 = alloca %"class.std::__1::__compressed_pair.33"*, align 8
  call void @llvm.dbg.declare(metadata %"class.std::__1::__compressed_pair.33"** %91, metadata !8160, metadata !DIExpression()), !dbg !8292
  %92 = alloca %"struct.std::__1::__compressed_pair_elem.34"*, align 8
  call void @llvm.dbg.declare(metadata %"struct.std::__1::__compressed_pair_elem.34"** %92, metadata !8163, metadata !DIExpression()), !dbg !8293
  %93 = alloca %"class.std::__1::__compressed_pair.33"*, align 8
  call void @llvm.dbg.declare(metadata %"class.std::__1::__compressed_pair.33"** %93, metadata !8170, metadata !DIExpression()), !dbg !8296
  %94 = alloca %"struct.std::__1::default_delete.36"*, align 8
  call void @llvm.dbg.declare(metadata %"struct.std::__1::default_delete.36"** %94, metadata !8172, metadata !DIExpression()), !dbg !8297
  %95 = alloca %"struct.altered_carbon::js::ACLexPosition"*, align 8
  call void @llvm.dbg.declare(metadata %"struct.altered_carbon::js::ACLexPosition"** %95, metadata !8177, metadata !DIExpression()), !dbg !8299
  %96 = alloca %"struct.std::__1::__compressed_pair_elem.34"*, align 8
  call void @llvm.dbg.declare(metadata %"struct.std::__1::__compressed_pair_elem.34"** %96, metadata !8163, metadata !DIExpression()), !dbg !8300
  %97 = alloca %"class.std::__1::__compressed_pair.33"*, align 8
  call void @llvm.dbg.declare(metadata %"class.std::__1::__compressed_pair.33"** %97, metadata !8170, metadata !DIExpression()), !dbg !8303
  %98 = alloca %"class.std::__1::unique_ptr.32"*, align 8
  call void @llvm.dbg.declare(metadata %"class.std::__1::unique_ptr.32"** %98, metadata !8183, metadata !DIExpression()), !dbg !8304
  %99 = alloca %"struct.altered_carbon::js::ACLexPosition"*, align 8
  call void @llvm.dbg.declare(metadata %"struct.altered_carbon::js::ACLexPosition"** %99, metadata !8186, metadata !DIExpression()), !dbg !8305
  %100 = alloca %"struct.altered_carbon::js::ACLexPosition"*, align 8
  call void @llvm.dbg.declare(metadata %"struct.altered_carbon::js::ACLexPosition"** %100, metadata !8188, metadata !DIExpression()), !dbg !8306
  %101 = alloca %"class.std::__1::unique_ptr.32"*, align 8
  call void @llvm.dbg.declare(metadata %"class.std::__1::unique_ptr.32"** %101, metadata !8190, metadata !DIExpression()), !dbg !8307
  %102 = alloca %"class.std::__1::unique_ptr.32"*, align 8
  call void @llvm.dbg.declare(metadata %"class.std::__1::unique_ptr.32"** %102, metadata !8192, metadata !DIExpression()), !dbg !8308
  %103 = alloca %"struct.std::__1::__compressed_pair_elem.34"*, align 8
  call void @llvm.dbg.declare(metadata %"struct.std::__1::__compressed_pair_elem.34"** %103, metadata !8163, metadata !DIExpression()), !dbg !8309
  %104 = alloca %"class.std::__1::__compressed_pair.33"*, align 8
  call void @llvm.dbg.declare(metadata %"class.std::__1::__compressed_pair.33"** %104, metadata !8170, metadata !DIExpression()), !dbg !8314
  %105 = alloca %"struct.std::__1::__compressed_pair_elem.34"*, align 8
  call void @llvm.dbg.declare(metadata %"struct.std::__1::__compressed_pair_elem.34"** %105, metadata !8163, metadata !DIExpression()), !dbg !8315
  %106 = alloca %"class.std::__1::__compressed_pair.33"*, align 8
  call void @llvm.dbg.declare(metadata %"class.std::__1::__compressed_pair.33"** %106, metadata !8170, metadata !DIExpression()), !dbg !8318
  %107 = alloca %"class.std::__1::unique_ptr.32"*, align 8
  call void @llvm.dbg.declare(metadata %"class.std::__1::unique_ptr.32"** %107, metadata !8319, metadata !DIExpression()), !dbg !8320
  %108 = alloca %"struct.altered_carbon::js::ACLexPosition"*, align 8
  call void @llvm.dbg.declare(metadata %"struct.altered_carbon::js::ACLexPosition"** %108, metadata !8321, metadata !DIExpression()), !dbg !8322
  %109 = alloca %"class.altered_carbon::js::ACAstBuilder"*, align 8
  %110 = alloca %"class.std::__1::unique_ptr"*, align 8
  %111 = alloca %"class.std::__1::unique_ptr.32", align 8
  %112 = alloca %"class.std::__1::unique_ptr.32", align 8
  %113 = alloca %"class.std::__1::unique_ptr.51", align 8
  %114 = alloca i32, align 4
  store %"class.altered_carbon::js::ACAstBuilder"* %1, %"class.altered_carbon::js::ACAstBuilder"** %109, align 8
  call void @llvm.dbg.declare(metadata %"class.altered_carbon::js::ACAstBuilder"** %109, metadata !8323, metadata !DIExpression()), !dbg !8325
  store %"class.std::__1::unique_ptr"* %2, %"class.std::__1::unique_ptr"** %110, align 8
  call void @llvm.dbg.declare(metadata %"class.std::__1::unique_ptr"** %110, metadata !8326, metadata !DIExpression()), !dbg !8327
  %115 = load %"class.altered_carbon::js::ACAstBuilder"*, %"class.altered_carbon::js::ACAstBuilder"** %109, align 8
  call void @llvm.dbg.declare(metadata %"class.std::__1::unique_ptr.32"* %111, metadata !8328, metadata !DIExpression()), !dbg !8329
  call void @_ZN4llvm11make_uniqueIN14altered_carbon2js13ACLexPositionEJEEENSt3__19enable_ifIXntsr3std8is_arrayIT_EE5valueENS4_10unique_ptrIS6_NS4_14default_deleteIS6_EEEEE4typeEDpOT0_(%"class.std::__1::unique_ptr.32"* sret %112), !dbg !8330
  store %"class.std::__1::unique_ptr.32"* %112, %"class.std::__1::unique_ptr.32"** %107, align 8
  %116 = load %"class.std::__1::unique_ptr.32"*, %"class.std::__1::unique_ptr.32"** %107, align 8
  %117 = getelementptr inbounds %"class.std::__1::unique_ptr.32", %"class.std::__1::unique_ptr.32"* %116, i32 0, i32 0, !dbg !8331
  store %"class.std::__1::__compressed_pair.33"* %117, %"class.std::__1::__compressed_pair.33"** %106, align 8
  %118 = load %"class.std::__1::__compressed_pair.33"*, %"class.std::__1::__compressed_pair.33"** %106, align 8
  %119 = bitcast %"class.std::__1::__compressed_pair.33"* %118 to %"struct.std::__1::__compressed_pair_elem.34"*, !dbg !8332
  store %"struct.std::__1::__compressed_pair_elem.34"* %119, %"struct.std::__1::__compressed_pair_elem.34"** %105, align 8
  %120 = load %"struct.std::__1::__compressed_pair_elem.34"*, %"struct.std::__1::__compressed_pair_elem.34"** %105, align 8
  %121 = getelementptr inbounds %"struct.std::__1::__compressed_pair_elem.34", %"struct.std::__1::__compressed_pair_elem.34"* %120, i32 0, i32 0, !dbg !8333
  %122 = load %"struct.altered_carbon::js::ACLexPosition"*, %"struct.altered_carbon::js::ACLexPosition"** %121, align 8, !dbg !8334
  store %"struct.altered_carbon::js::ACLexPosition"* %122, %"struct.altered_carbon::js::ACLexPosition"** %108, align 8, !dbg !8322
  %123 = getelementptr inbounds %"class.std::__1::unique_ptr.32", %"class.std::__1::unique_ptr.32"* %116, i32 0, i32 0, !dbg !8335
  store %"class.std::__1::__compressed_pair.33"* %123, %"class.std::__1::__compressed_pair.33"** %104, align 8
  %124 = load %"class.std::__1::__compressed_pair.33"*, %"class.std::__1::__compressed_pair.33"** %104, align 8
  %125 = bitcast %"class.std::__1::__compressed_pair.33"* %124 to %"struct.std::__1::__compressed_pair_elem.34"*, !dbg !8336
  store %"struct.std::__1::__compressed_pair_elem.34"* %125, %"struct.std::__1::__compressed_pair_elem.34"** %103, align 8
  %126 = load %"struct.std::__1::__compressed_pair_elem.34"*, %"struct.std::__1::__compressed_pair_elem.34"** %103, align 8
  %127 = getelementptr inbounds %"struct.std::__1::__compressed_pair_elem.34", %"struct.std::__1::__compressed_pair_elem.34"* %126, i32 0, i32 0, !dbg !8337
  store %"struct.altered_carbon::js::ACLexPosition"* null, %"struct.altered_carbon::js::ACLexPosition"** %127, align 8, !dbg !8338
  %128 = load %"struct.altered_carbon::js::ACLexPosition"*, %"struct.altered_carbon::js::ACLexPosition"** %108, align 8, !dbg !8339
  store %"class.std::__1::unique_ptr.32"* %111, %"class.std::__1::unique_ptr.32"** %88, align 8
  store %"struct.altered_carbon::js::ACLexPosition"* %128, %"struct.altered_carbon::js::ACLexPosition"** %89, align 8
  %129 = load %"class.std::__1::unique_ptr.32"*, %"class.std::__1::unique_ptr.32"** %88, align 8
  %130 = load %"struct.altered_carbon::js::ACLexPosition"*, %"struct.altered_carbon::js::ACLexPosition"** %89, align 8, !dbg !8340
  store %"class.std::__1::unique_ptr.32"* %129, %"class.std::__1::unique_ptr.32"** %86, align 8
  store %"struct.altered_carbon::js::ACLexPosition"* %130, %"struct.altered_carbon::js::ACLexPosition"** %87, align 8
  %131 = load %"class.std::__1::unique_ptr.32"*, %"class.std::__1::unique_ptr.32"** %86, align 8
  %132 = getelementptr inbounds %"class.std::__1::unique_ptr.32", %"class.std::__1::unique_ptr.32"* %131, i32 0, i32 0, !dbg !8341
  store %"class.std::__1::__compressed_pair.33"* %132, %"class.std::__1::__compressed_pair.33"** %84, align 8
  store %"struct.altered_carbon::js::ACLexPosition"** %87, %"struct.altered_carbon::js::ACLexPosition"*** %85, align 8
  %133 = load %"class.std::__1::__compressed_pair.33"*, %"class.std::__1::__compressed_pair.33"** %84, align 8
  %134 = load %"struct.altered_carbon::js::ACLexPosition"**, %"struct.altered_carbon::js::ACLexPosition"*** %85, align 8, !dbg !8342
  store %"class.std::__1::__compressed_pair.33"* %133, %"class.std::__1::__compressed_pair.33"** %82, align 8
  store %"struct.altered_carbon::js::ACLexPosition"** %134, %"struct.altered_carbon::js::ACLexPosition"*** %83, align 8
  %135 = load %"class.std::__1::__compressed_pair.33"*, %"class.std::__1::__compressed_pair.33"** %82, align 8
  %136 = bitcast %"class.std::__1::__compressed_pair.33"* %135 to %"struct.std::__1::__compressed_pair_elem.34"*, !dbg !8343
  %137 = load %"struct.altered_carbon::js::ACLexPosition"**, %"struct.altered_carbon::js::ACLexPosition"*** %83, align 8, !dbg !8344
  store %"struct.altered_carbon::js::ACLexPosition"** %137, %"struct.altered_carbon::js::ACLexPosition"*** %81, align 8
  %138 = load %"struct.altered_carbon::js::ACLexPosition"**, %"struct.altered_carbon::js::ACLexPosition"*** %81, align 8, !dbg !8345
  store %"struct.std::__1::__compressed_pair_elem.34"* %136, %"struct.std::__1::__compressed_pair_elem.34"** %79, align 8
  store %"struct.altered_carbon::js::ACLexPosition"** %138, %"struct.altered_carbon::js::ACLexPosition"*** %80, align 8
  %139 = load %"struct.std::__1::__compressed_pair_elem.34"*, %"struct.std::__1::__compressed_pair_elem.34"** %79, align 8
  %140 = getelementptr inbounds %"struct.std::__1::__compressed_pair_elem.34", %"struct.std::__1::__compressed_pair_elem.34"* %139, i32 0, i32 0, !dbg !8346
  %141 = load %"struct.altered_carbon::js::ACLexPosition"**, %"struct.altered_carbon::js::ACLexPosition"*** %80, align 8, !dbg !8347
  store %"struct.altered_carbon::js::ACLexPosition"** %141, %"struct.altered_carbon::js::ACLexPosition"*** %78, align 8
  %142 = load %"struct.altered_carbon::js::ACLexPosition"**, %"struct.altered_carbon::js::ACLexPosition"*** %78, align 8, !dbg !8348
  %143 = load %"struct.altered_carbon::js::ACLexPosition"*, %"struct.altered_carbon::js::ACLexPosition"** %142, align 8, !dbg !8349
  store %"struct.altered_carbon::js::ACLexPosition"* %143, %"struct.altered_carbon::js::ACLexPosition"** %140, align 8, !dbg !8346
  %144 = bitcast %"class.std::__1::__compressed_pair.33"* %135 to %"struct.std::__1::__compressed_pair_elem.35"*, !dbg !8343
  store %"class.std::__1::unique_ptr.32"* %112, %"class.std::__1::unique_ptr.32"** %64, align 8
  %145 = load %"class.std::__1::unique_ptr.32"*, %"class.std::__1::unique_ptr.32"** %64, align 8
  store %"class.std::__1::unique_ptr.32"* %145, %"class.std::__1::unique_ptr.32"** %63, align 8
  %146 = load %"class.std::__1::unique_ptr.32"*, %"class.std::__1::unique_ptr.32"** %63, align 8
  store %"class.std::__1::unique_ptr.32"* %146, %"class.std::__1::unique_ptr.32"** %60, align 8
  store %"struct.altered_carbon::js::ACLexPosition"* null, %"struct.altered_carbon::js::ACLexPosition"** %61, align 8
  %147 = load %"class.std::__1::unique_ptr.32"*, %"class.std::__1::unique_ptr.32"** %60, align 8
  %148 = getelementptr inbounds %"class.std::__1::unique_ptr.32", %"class.std::__1::unique_ptr.32"* %147, i32 0, i32 0, !dbg !8350
  store %"class.std::__1::__compressed_pair.33"* %148, %"class.std::__1::__compressed_pair.33"** %59, align 8
  %149 = load %"class.std::__1::__compressed_pair.33"*, %"class.std::__1::__compressed_pair.33"** %59, align 8
  %150 = bitcast %"class.std::__1::__compressed_pair.33"* %149 to %"struct.std::__1::__compressed_pair_elem.34"*, !dbg !8351
  store %"struct.std::__1::__compressed_pair_elem.34"* %150, %"struct.std::__1::__compressed_pair_elem.34"** %58, align 8
  %151 = load %"struct.std::__1::__compressed_pair_elem.34"*, %"struct.std::__1::__compressed_pair_elem.34"** %58, align 8
  %152 = getelementptr inbounds %"struct.std::__1::__compressed_pair_elem.34", %"struct.std::__1::__compressed_pair_elem.34"* %151, i32 0, i32 0, !dbg !8352
  %153 = load %"struct.altered_carbon::js::ACLexPosition"*, %"struct.altered_carbon::js::ACLexPosition"** %152, align 8, !dbg !8353
  store %"struct.altered_carbon::js::ACLexPosition"* %153, %"struct.altered_carbon::js::ACLexPosition"** %62, align 8, !dbg !8189
  %154 = load %"struct.altered_carbon::js::ACLexPosition"*, %"struct.altered_carbon::js::ACLexPosition"** %61, align 8, !dbg !8354
  %155 = getelementptr inbounds %"class.std::__1::unique_ptr.32", %"class.std::__1::unique_ptr.32"* %147, i32 0, i32 0, !dbg !8355
  store %"class.std::__1::__compressed_pair.33"* %155, %"class.std::__1::__compressed_pair.33"** %55, align 8
  %156 = load %"class.std::__1::__compressed_pair.33"*, %"class.std::__1::__compressed_pair.33"** %55, align 8
  %157 = bitcast %"class.std::__1::__compressed_pair.33"* %156 to %"struct.std::__1::__compressed_pair_elem.34"*, !dbg !8356
  store %"struct.std::__1::__compressed_pair_elem.34"* %157, %"struct.std::__1::__compressed_pair_elem.34"** %54, align 8
  %158 = load %"struct.std::__1::__compressed_pair_elem.34"*, %"struct.std::__1::__compressed_pair_elem.34"** %54, align 8
  %159 = getelementptr inbounds %"struct.std::__1::__compressed_pair_elem.34", %"struct.std::__1::__compressed_pair_elem.34"* %158, i32 0, i32 0, !dbg !8357
  store %"struct.altered_carbon::js::ACLexPosition"* %154, %"struct.altered_carbon::js::ACLexPosition"** %159, align 8, !dbg !8358
  %160 = load %"struct.altered_carbon::js::ACLexPosition"*, %"struct.altered_carbon::js::ACLexPosition"** %62, align 8, !dbg !8359
  %161 = icmp ne %"struct.altered_carbon::js::ACLexPosition"* %160, null, !dbg !8359
  br i1 %161, label %162, label %178, !dbg !8360

; <label>:162:                                    ; preds = %3
  %163 = getelementptr inbounds %"class.std::__1::unique_ptr.32", %"class.std::__1::unique_ptr.32"* %147, i32 0, i32 0, !dbg !8361
  store %"class.std::__1::__compressed_pair.33"* %163, %"class.std::__1::__compressed_pair.33"** %53, align 8
  %164 = load %"class.std::__1::__compressed_pair.33"*, %"class.std::__1::__compressed_pair.33"** %53, align 8
  %165 = bitcast %"class.std::__1::__compressed_pair.33"* %164 to %"struct.std::__1::__compressed_pair_elem.35"*, !dbg !8362
  store %"struct.std::__1::__compressed_pair_elem.35"* %165, %"struct.std::__1::__compressed_pair_elem.35"** %52, align 8
  %166 = load %"struct.std::__1::__compressed_pair_elem.35"*, %"struct.std::__1::__compressed_pair_elem.35"** %52, align 8
  %167 = bitcast %"struct.std::__1::__compressed_pair_elem.35"* %166 to %"struct.std::__1::default_delete.36"*, !dbg !8363
  %168 = load %"struct.altered_carbon::js::ACLexPosition"*, %"struct.altered_carbon::js::ACLexPosition"** %62, align 8, !dbg !8364
  store %"struct.std::__1::default_delete.36"* %167, %"struct.std::__1::default_delete.36"** %56, align 8
  store %"struct.altered_carbon::js::ACLexPosition"* %168, %"struct.altered_carbon::js::ACLexPosition"** %57, align 8
  %169 = load %"struct.std::__1::default_delete.36"*, %"struct.std::__1::default_delete.36"** %56, align 8
  %170 = load %"struct.altered_carbon::js::ACLexPosition"*, %"struct.altered_carbon::js::ACLexPosition"** %57, align 8, !dbg !8365
  %171 = icmp eq %"struct.altered_carbon::js::ACLexPosition"* %170, null, !dbg !8366
  br i1 %171, label %177, label %172, !dbg !8366

; <label>:172:                                    ; preds = %162
  %173 = bitcast %"struct.altered_carbon::js::ACLexPosition"* %170 to void (%"struct.altered_carbon::js::ACLexPosition"*)***, !dbg !8366
  %174 = load void (%"struct.altered_carbon::js::ACLexPosition"*)**, void (%"struct.altered_carbon::js::ACLexPosition"*)*** %173, align 8, !dbg !8366
  %175 = getelementptr inbounds void (%"struct.altered_carbon::js::ACLexPosition"*)*, void (%"struct.altered_carbon::js::ACLexPosition"*)** %174, i64 1, !dbg !8366
  %176 = load void (%"struct.altered_carbon::js::ACLexPosition"*)*, void (%"struct.altered_carbon::js::ACLexPosition"*)** %175, align 8, !dbg !8366
  call void %176(%"struct.altered_carbon::js::ACLexPosition"* %170) #2, !dbg !8366
  br label %177, !dbg !8366

; <label>:177:                                    ; preds = %172, %162
  br label %178, !dbg !8361

; <label>:178:                                    ; preds = %3, %177
  %179 = load %"class.std::__1::unique_ptr"*, %"class.std::__1::unique_ptr"** %110, align 8, !dbg !8367
  store %"class.std::__1::unique_ptr"* %179, %"class.std::__1::unique_ptr"** %51, align 8
  %180 = load %"class.std::__1::unique_ptr"*, %"class.std::__1::unique_ptr"** %51, align 8
  %181 = getelementptr inbounds %"class.std::__1::unique_ptr", %"class.std::__1::unique_ptr"* %180, i32 0, i32 0, !dbg !8368
  store %"class.std::__1::__compressed_pair.15"* %181, %"class.std::__1::__compressed_pair.15"** %50, align 8
  %182 = load %"class.std::__1::__compressed_pair.15"*, %"class.std::__1::__compressed_pair.15"** %50, align 8
  %183 = bitcast %"class.std::__1::__compressed_pair.15"* %182 to %"struct.std::__1::__compressed_pair_elem.16"*, !dbg !8369
  store %"struct.std::__1::__compressed_pair_elem.16"* %183, %"struct.std::__1::__compressed_pair_elem.16"** %49, align 8
  %184 = load %"struct.std::__1::__compressed_pair_elem.16"*, %"struct.std::__1::__compressed_pair_elem.16"** %49, align 8
  %185 = getelementptr inbounds %"struct.std::__1::__compressed_pair_elem.16", %"struct.std::__1::__compressed_pair_elem.16"* %184, i32 0, i32 0, !dbg !8370
  %186 = load %"class.altered_carbon::js::ACLexToken"*, %"class.altered_carbon::js::ACLexToken"** %185, align 8, !dbg !8371
  %187 = icmp ne %"class.altered_carbon::js::ACLexToken"* %186, null, !dbg !8372
  br i1 %187, label %188, label %206, !dbg !8373

; <label>:188:                                    ; preds = %178
  %189 = load %"class.std::__1::unique_ptr"*, %"class.std::__1::unique_ptr"** %110, align 8, !dbg !8374
  store %"class.std::__1::unique_ptr"* %189, %"class.std::__1::unique_ptr"** %16, align 8
  %190 = load %"class.std::__1::unique_ptr"*, %"class.std::__1::unique_ptr"** %16, align 8
  %191 = getelementptr inbounds %"class.std::__1::unique_ptr", %"class.std::__1::unique_ptr"* %190, i32 0, i32 0, !dbg !8375
  store %"class.std::__1::__compressed_pair.15"* %191, %"class.std::__1::__compressed_pair.15"** %15, align 8
  %192 = load %"class.std::__1::__compressed_pair.15"*, %"class.std::__1::__compressed_pair.15"** %15, align 8
  %193 = bitcast %"class.std::__1::__compressed_pair.15"* %192 to %"struct.std::__1::__compressed_pair_elem.16"*, !dbg !8376
  store %"struct.std::__1::__compressed_pair_elem.16"* %193, %"struct.std::__1::__compressed_pair_elem.16"** %14, align 8
  %194 = load %"struct.std::__1::__compressed_pair_elem.16"*, %"struct.std::__1::__compressed_pair_elem.16"** %14, align 8
  %195 = getelementptr inbounds %"struct.std::__1::__compressed_pair_elem.16", %"struct.std::__1::__compressed_pair_elem.16"* %194, i32 0, i32 0, !dbg !8377
  %196 = load %"class.altered_carbon::js::ACLexToken"*, %"class.altered_carbon::js::ACLexToken"** %195, align 8, !dbg !8378
  %197 = getelementptr inbounds %"class.altered_carbon::js::ACLexToken", %"class.altered_carbon::js::ACLexToken"* %196, i32 0, i32 4, !dbg !8379
  store %"class.std::__1::unique_ptr.32"* %111, %"class.std::__1::unique_ptr.32"** %6, align 8
  %198 = load %"class.std::__1::unique_ptr.32"*, %"class.std::__1::unique_ptr.32"** %6, align 8
  %199 = getelementptr inbounds %"class.std::__1::unique_ptr.32", %"class.std::__1::unique_ptr.32"* %198, i32 0, i32 0, !dbg !8380
  store %"class.std::__1::__compressed_pair.33"* %199, %"class.std::__1::__compressed_pair.33"** %5, align 8
  %200 = load %"class.std::__1::__compressed_pair.33"*, %"class.std::__1::__compressed_pair.33"** %5, align 8
  %201 = bitcast %"class.std::__1::__compressed_pair.33"* %200 to %"struct.std::__1::__compressed_pair_elem.34"*, !dbg !8381
  store %"struct.std::__1::__compressed_pair_elem.34"* %201, %"struct.std::__1::__compressed_pair_elem.34"** %4, align 8
  %202 = load %"struct.std::__1::__compressed_pair_elem.34"*, %"struct.std::__1::__compressed_pair_elem.34"** %4, align 8
  %203 = getelementptr inbounds %"struct.std::__1::__compressed_pair_elem.34", %"struct.std::__1::__compressed_pair_elem.34"* %202, i32 0, i32 0, !dbg !8382
  %204 = load %"struct.altered_carbon::js::ACLexPosition"*, %"struct.altered_carbon::js::ACLexPosition"** %203, align 8, !dbg !8383
  %205 = call dereferenceable(32) %"struct.altered_carbon::js::ACLexPosition"* @_ZN14altered_carbon2js13ACLexPositionaSERKS1_(%"struct.altered_carbon::js::ACLexPosition"* %204, %"struct.altered_carbon::js::ACLexPosition"* dereferenceable(32) %197) #2, !dbg !8384
  br label %206, !dbg !8385

; <label>:206:                                    ; preds = %188, %178
  store %"class.std::__1::unique_ptr.32"* %111, %"class.std::__1::unique_ptr.32"** %7, align 8
  %207 = load %"class.std::__1::unique_ptr.32"*, %"class.std::__1::unique_ptr.32"** %7, align 8, !dbg !8386
  %208 = load %"class.std::__1::unique_ptr"*, %"class.std::__1::unique_ptr"** %110, align 8, !dbg !8387
  store %"class.std::__1::unique_ptr"* %208, %"class.std::__1::unique_ptr"** %10, align 8
  %209 = load %"class.std::__1::unique_ptr"*, %"class.std::__1::unique_ptr"** %10, align 8
  %210 = getelementptr inbounds %"class.std::__1::unique_ptr", %"class.std::__1::unique_ptr"* %209, i32 0, i32 0, !dbg !8388
  store %"class.std::__1::__compressed_pair.15"* %210, %"class.std::__1::__compressed_pair.15"** %9, align 8
  %211 = load %"class.std::__1::__compressed_pair.15"*, %"class.std::__1::__compressed_pair.15"** %9, align 8
  %212 = bitcast %"class.std::__1::__compressed_pair.15"* %211 to %"struct.std::__1::__compressed_pair_elem.16"*, !dbg !8389
  store %"struct.std::__1::__compressed_pair_elem.16"* %212, %"struct.std::__1::__compressed_pair_elem.16"** %8, align 8
  %213 = load %"struct.std::__1::__compressed_pair_elem.16"*, %"struct.std::__1::__compressed_pair_elem.16"** %8, align 8
  %214 = getelementptr inbounds %"struct.std::__1::__compressed_pair_elem.16", %"struct.std::__1::__compressed_pair_elem.16"* %213, i32 0, i32 0, !dbg !8390
  %215 = load %"class.altered_carbon::js::ACLexToken"*, %"class.altered_carbon::js::ACLexToken"** %214, align 8, !dbg !8391
  %216 = icmp ne %"class.altered_carbon::js::ACLexToken"* %215, null, !dbg !8392
  br i1 %216, label %217, label %228, !dbg !8393

; <label>:217:                                    ; preds = %206
  %218 = load %"class.std::__1::unique_ptr"*, %"class.std::__1::unique_ptr"** %110, align 8, !dbg !8394
  store %"class.std::__1::unique_ptr"* %218, %"class.std::__1::unique_ptr"** %13, align 8
  %219 = load %"class.std::__1::unique_ptr"*, %"class.std::__1::unique_ptr"** %13, align 8
  %220 = getelementptr inbounds %"class.std::__1::unique_ptr", %"class.std::__1::unique_ptr"* %219, i32 0, i32 0, !dbg !8395
  store %"class.std::__1::__compressed_pair.15"* %220, %"class.std::__1::__compressed_pair.15"** %12, align 8
  %221 = load %"class.std::__1::__compressed_pair.15"*, %"class.std::__1::__compressed_pair.15"** %12, align 8
  %222 = bitcast %"class.std::__1::__compressed_pair.15"* %221 to %"struct.std::__1::__compressed_pair_elem.16"*, !dbg !8396
  store %"struct.std::__1::__compressed_pair_elem.16"* %222, %"struct.std::__1::__compressed_pair_elem.16"** %11, align 8
  %223 = load %"struct.std::__1::__compressed_pair_elem.16"*, %"struct.std::__1::__compressed_pair_elem.16"** %11, align 8
  %224 = getelementptr inbounds %"struct.std::__1::__compressed_pair_elem.16", %"struct.std::__1::__compressed_pair_elem.16"* %223, i32 0, i32 0, !dbg !8397
  %225 = load %"class.altered_carbon::js::ACLexToken"*, %"class.altered_carbon::js::ACLexToken"** %224, align 8, !dbg !8398
  %226 = getelementptr inbounds %"class.altered_carbon::js::ACLexToken", %"class.altered_carbon::js::ACLexToken"* %225, i32 0, i32 1, !dbg !8399
  %227 = load i32, i32* %226, align 8, !dbg !8399
  br label %229, !dbg !8393

; <label>:228:                                    ; preds = %206
  br label %229, !dbg !8393

; <label>:229:                                    ; preds = %228, %217
  %230 = phi i32 [ %227, %217 ], [ 0, %228 ], !dbg !8393
  store i32 %230, i32* %114, align 4, !dbg !8400
  call void @_ZN4llvm11make_uniqueIN14altered_carbon2js15ACAstTokenErrorEJNSt3__110unique_ptrINS2_13ACLexPositionENS4_14default_deleteIS6_EEEENS2_14ACLexTokenTypeEEEENS4_9enable_ifIXntsr3std8is_arrayIT_EE5valueENS5_ISC_NS7_ISC_EEEEE4typeEDpOT0_(%"class.std::__1::unique_ptr.51"* sret %113, %"class.std::__1::unique_ptr.32"* dereferenceable(8) %207, i32* dereferenceable(4) %114), !dbg !8401
  store %"class.std::__1::unique_ptr.29"* %0, %"class.std::__1::unique_ptr.29"** %47, align 8
  store %"class.std::__1::unique_ptr.51"* %113, %"class.std::__1::unique_ptr.51"** %48, align 8
  %231 = load %"class.std::__1::unique_ptr.29"*, %"class.std::__1::unique_ptr.29"** %47, align 8
  %232 = load %"class.std::__1::unique_ptr.51"*, %"class.std::__1::unique_ptr.51"** %48, align 8, !dbg !8402
  store %"class.std::__1::unique_ptr.29"* %231, %"class.std::__1::unique_ptr.29"** %44, align 8
  store %"class.std::__1::unique_ptr.51"* %232, %"class.std::__1::unique_ptr.51"** %45, align 8
  %233 = load %"class.std::__1::unique_ptr.29"*, %"class.std::__1::unique_ptr.29"** %44, align 8
  %234 = getelementptr inbounds %"class.std::__1::unique_ptr.29", %"class.std::__1::unique_ptr.29"* %233, i32 0, i32 0, !dbg !8403
  %235 = load %"class.std::__1::unique_ptr.51"*, %"class.std::__1::unique_ptr.51"** %45, align 8, !dbg !8404
  store %"class.std::__1::unique_ptr.51"* %235, %"class.std::__1::unique_ptr.51"** %42, align 8
  %236 = load %"class.std::__1::unique_ptr.51"*, %"class.std::__1::unique_ptr.51"** %42, align 8
  %237 = getelementptr inbounds %"class.std::__1::unique_ptr.51", %"class.std::__1::unique_ptr.51"* %236, i32 0, i32 0, !dbg !8405
  store %"class.std::__1::__compressed_pair.52"* %237, %"class.std::__1::__compressed_pair.52"** %41, align 8
  %238 = load %"class.std::__1::__compressed_pair.52"*, %"class.std::__1::__compressed_pair.52"** %41, align 8
  %239 = bitcast %"class.std::__1::__compressed_pair.52"* %238 to %"struct.std::__1::__compressed_pair_elem.53"*, !dbg !8406
  store %"struct.std::__1::__compressed_pair_elem.53"* %239, %"struct.std::__1::__compressed_pair_elem.53"** %40, align 8
  %240 = load %"struct.std::__1::__compressed_pair_elem.53"*, %"struct.std::__1::__compressed_pair_elem.53"** %40, align 8
  %241 = getelementptr inbounds %"struct.std::__1::__compressed_pair_elem.53", %"struct.std::__1::__compressed_pair_elem.53"* %240, i32 0, i32 0, !dbg !8407
  %242 = load %"class.altered_carbon::js::ACAstTokenError"*, %"class.altered_carbon::js::ACAstTokenError"** %241, align 8, !dbg !8408
  store %"class.altered_carbon::js::ACAstTokenError"* %242, %"class.altered_carbon::js::ACAstTokenError"** %43, align 8, !dbg !8130
  %243 = getelementptr inbounds %"class.std::__1::unique_ptr.51", %"class.std::__1::unique_ptr.51"* %236, i32 0, i32 0, !dbg !8409
  store %"class.std::__1::__compressed_pair.52"* %243, %"class.std::__1::__compressed_pair.52"** %39, align 8
  %244 = load %"class.std::__1::__compressed_pair.52"*, %"class.std::__1::__compressed_pair.52"** %39, align 8
  %245 = bitcast %"class.std::__1::__compressed_pair.52"* %244 to %"struct.std::__1::__compressed_pair_elem.53"*, !dbg !8410
  store %"struct.std::__1::__compressed_pair_elem.53"* %245, %"struct.std::__1::__compressed_pair_elem.53"** %38, align 8
  %246 = load %"struct.std::__1::__compressed_pair_elem.53"*, %"struct.std::__1::__compressed_pair_elem.53"** %38, align 8
  %247 = getelementptr inbounds %"struct.std::__1::__compressed_pair_elem.53", %"struct.std::__1::__compressed_pair_elem.53"* %246, i32 0, i32 0, !dbg !8411
  store %"class.altered_carbon::js::ACAstTokenError"* null, %"class.altered_carbon::js::ACAstTokenError"** %247, align 8, !dbg !8412
  %248 = load %"class.altered_carbon::js::ACAstTokenError"*, %"class.altered_carbon::js::ACAstTokenError"** %43, align 8, !dbg !8413
  store %"class.altered_carbon::js::ACAstTokenError"* %248, %"class.altered_carbon::js::ACAstTokenError"** %46, align 8, !dbg !8404
  %249 = load %"class.std::__1::unique_ptr.51"*, %"class.std::__1::unique_ptr.51"** %45, align 8, !dbg !8414
  store %"class.std::__1::unique_ptr.51"* %249, %"class.std::__1::unique_ptr.51"** %19, align 8
  %250 = load %"class.std::__1::unique_ptr.51"*, %"class.std::__1::unique_ptr.51"** %19, align 8
  %251 = getelementptr inbounds %"class.std::__1::unique_ptr.51", %"class.std::__1::unique_ptr.51"* %250, i32 0, i32 0, !dbg !8415
  store %"class.std::__1::__compressed_pair.52"* %251, %"class.std::__1::__compressed_pair.52"** %18, align 8
  %252 = load %"class.std::__1::__compressed_pair.52"*, %"class.std::__1::__compressed_pair.52"** %18, align 8
  %253 = bitcast %"class.std::__1::__compressed_pair.52"* %252 to %"struct.std::__1::__compressed_pair_elem.54"*, !dbg !8416
  store %"struct.std::__1::__compressed_pair_elem.54"* %253, %"struct.std::__1::__compressed_pair_elem.54"** %17, align 8
  %254 = load %"struct.std::__1::__compressed_pair_elem.54"*, %"struct.std::__1::__compressed_pair_elem.54"** %17, align 8
  %255 = bitcast %"struct.std::__1::__compressed_pair_elem.54"* %254 to %"struct.std::__1::default_delete.55"*, !dbg !8417
  store %"struct.std::__1::default_delete.55"* %255, %"struct.std::__1::default_delete.55"** %20, align 8
  %256 = load %"struct.std::__1::default_delete.55"*, %"struct.std::__1::default_delete.55"** %20, align 8, !dbg !8418
  store %"class.std::__1::__compressed_pair.30"* %234, %"class.std::__1::__compressed_pair.30"** %35, align 8
  store %"class.altered_carbon::js::ACAstTokenError"** %46, %"class.altered_carbon::js::ACAstTokenError"*** %36, align 8
  store %"struct.std::__1::default_delete.55"* %256, %"struct.std::__1::default_delete.55"** %37, align 8
  %257 = load %"class.std::__1::__compressed_pair.30"*, %"class.std::__1::__compressed_pair.30"** %35, align 8
  %258 = load %"class.altered_carbon::js::ACAstTokenError"**, %"class.altered_carbon::js::ACAstTokenError"*** %36, align 8, !dbg !8419
  %259 = load %"struct.std::__1::default_delete.55"*, %"struct.std::__1::default_delete.55"** %37, align 8, !dbg !8419
  store %"class.std::__1::__compressed_pair.30"* %257, %"class.std::__1::__compressed_pair.30"** %32, align 8
  store %"class.altered_carbon::js::ACAstTokenError"** %258, %"class.altered_carbon::js::ACAstTokenError"*** %33, align 8
  store %"struct.std::__1::default_delete.55"* %259, %"struct.std::__1::default_delete.55"** %34, align 8
  %260 = load %"class.std::__1::__compressed_pair.30"*, %"class.std::__1::__compressed_pair.30"** %32, align 8
  %261 = bitcast %"class.std::__1::__compressed_pair.30"* %260 to %"struct.std::__1::__compressed_pair_elem.31"*, !dbg !8420
  %262 = load %"class.altered_carbon::js::ACAstTokenError"**, %"class.altered_carbon::js::ACAstTokenError"*** %33, align 8, !dbg !8421
  store %"class.altered_carbon::js::ACAstTokenError"** %262, %"class.altered_carbon::js::ACAstTokenError"*** %31, align 8
  %263 = load %"class.altered_carbon::js::ACAstTokenError"**, %"class.altered_carbon::js::ACAstTokenError"*** %31, align 8, !dbg !8422
  store %"struct.std::__1::__compressed_pair_elem.31"* %261, %"struct.std::__1::__compressed_pair_elem.31"** %22, align 8
  store %"class.altered_carbon::js::ACAstTokenError"** %263, %"class.altered_carbon::js::ACAstTokenError"*** %23, align 8
  %264 = load %"struct.std::__1::__compressed_pair_elem.31"*, %"struct.std::__1::__compressed_pair_elem.31"** %22, align 8
  %265 = getelementptr inbounds %"struct.std::__1::__compressed_pair_elem.31", %"struct.std::__1::__compressed_pair_elem.31"* %264, i32 0, i32 0, !dbg !8423
  %266 = load %"class.altered_carbon::js::ACAstTokenError"**, %"class.altered_carbon::js::ACAstTokenError"*** %23, align 8, !dbg !8424
  store %"class.altered_carbon::js::ACAstTokenError"** %266, %"class.altered_carbon::js::ACAstTokenError"*** %21, align 8
  %267 = load %"class.altered_carbon::js::ACAstTokenError"**, %"class.altered_carbon::js::ACAstTokenError"*** %21, align 8, !dbg !8425
  %268 = load %"class.altered_carbon::js::ACAstTokenError"*, %"class.altered_carbon::js::ACAstTokenError"** %267, align 8, !dbg !8426
  %269 = bitcast %"class.altered_carbon::js::ACAstTokenError"* %268 to %"class.altered_carbon::js::ACAstBaseNode"*, !dbg !8426
  store %"class.altered_carbon::js::ACAstBaseNode"* %269, %"class.altered_carbon::js::ACAstBaseNode"** %265, align 8, !dbg !8423
  %270 = bitcast %"class.std::__1::__compressed_pair.30"* %260 to %"struct.std::__1::__compressed_pair_elem.45"*, !dbg !8420
  %271 = load %"struct.std::__1::default_delete.55"*, %"struct.std::__1::default_delete.55"** %34, align 8, !dbg !8427
  store %"struct.std::__1::default_delete.55"* %271, %"struct.std::__1::default_delete.55"** %24, align 8
  %272 = load %"struct.std::__1::default_delete.55"*, %"struct.std::__1::default_delete.55"** %24, align 8, !dbg !8428
  store %"struct.std::__1::__compressed_pair_elem.45"* %270, %"struct.std::__1::__compressed_pair_elem.45"** %29, align 8
  store %"struct.std::__1::default_delete.55"* %272, %"struct.std::__1::default_delete.55"** %30, align 8
  %273 = load %"struct.std::__1::__compressed_pair_elem.45"*, %"struct.std::__1::__compressed_pair_elem.45"** %29, align 8
  %274 = bitcast %"struct.std::__1::__compressed_pair_elem.45"* %273 to %"struct.std::__1::default_delete.46"*, !dbg !8429
  %275 = load %"struct.std::__1::default_delete.55"*, %"struct.std::__1::default_delete.55"** %30, align 8, !dbg !8430
  store %"struct.std::__1::default_delete.55"* %275, %"struct.std::__1::default_delete.55"** %28, align 8
  %276 = load %"struct.std::__1::default_delete.55"*, %"struct.std::__1::default_delete.55"** %28, align 8, !dbg !8431
  store %"struct.std::__1::default_delete.46"* %274, %"struct.std::__1::default_delete.46"** %25, align 8
  store %"struct.std::__1::default_delete.55"* %276, %"struct.std::__1::default_delete.55"** %26, align 8
  store i8* null, i8** %27, align 8
  %277 = load %"struct.std::__1::default_delete.46"*, %"struct.std::__1::default_delete.46"** %25, align 8
  store %"class.std::__1::unique_ptr.51"* %113, %"class.std::__1::unique_ptr.51"** %77, align 8
  %278 = load %"class.std::__1::unique_ptr.51"*, %"class.std::__1::unique_ptr.51"** %77, align 8
  store %"class.std::__1::unique_ptr.51"* %278, %"class.std::__1::unique_ptr.51"** %76, align 8
  %279 = load %"class.std::__1::unique_ptr.51"*, %"class.std::__1::unique_ptr.51"** %76, align 8
  store %"class.std::__1::unique_ptr.51"* %279, %"class.std::__1::unique_ptr.51"** %73, align 8
  store %"class.altered_carbon::js::ACAstTokenError"* null, %"class.altered_carbon::js::ACAstTokenError"** %74, align 8
  %280 = load %"class.std::__1::unique_ptr.51"*, %"class.std::__1::unique_ptr.51"** %73, align 8
  %281 = getelementptr inbounds %"class.std::__1::unique_ptr.51", %"class.std::__1::unique_ptr.51"* %280, i32 0, i32 0, !dbg !8432
  store %"class.std::__1::__compressed_pair.52"* %281, %"class.std::__1::__compressed_pair.52"** %72, align 8
  %282 = load %"class.std::__1::__compressed_pair.52"*, %"class.std::__1::__compressed_pair.52"** %72, align 8
  %283 = bitcast %"class.std::__1::__compressed_pair.52"* %282 to %"struct.std::__1::__compressed_pair_elem.53"*, !dbg !8433
  store %"struct.std::__1::__compressed_pair_elem.53"* %283, %"struct.std::__1::__compressed_pair_elem.53"** %71, align 8
  %284 = load %"struct.std::__1::__compressed_pair_elem.53"*, %"struct.std::__1::__compressed_pair_elem.53"** %71, align 8
  %285 = getelementptr inbounds %"struct.std::__1::__compressed_pair_elem.53", %"struct.std::__1::__compressed_pair_elem.53"* %284, i32 0, i32 0, !dbg !8434
  %286 = load %"class.altered_carbon::js::ACAstTokenError"*, %"class.altered_carbon::js::ACAstTokenError"** %285, align 8, !dbg !8435
  store %"class.altered_carbon::js::ACAstTokenError"* %286, %"class.altered_carbon::js::ACAstTokenError"** %75, align 8, !dbg !8226
  %287 = load %"class.altered_carbon::js::ACAstTokenError"*, %"class.altered_carbon::js::ACAstTokenError"** %74, align 8, !dbg !8436
  %288 = getelementptr inbounds %"class.std::__1::unique_ptr.51", %"class.std::__1::unique_ptr.51"* %280, i32 0, i32 0, !dbg !8437
  store %"class.std::__1::__compressed_pair.52"* %288, %"class.std::__1::__compressed_pair.52"** %68, align 8
  %289 = load %"class.std::__1::__compressed_pair.52"*, %"class.std::__1::__compressed_pair.52"** %68, align 8
  %290 = bitcast %"class.std::__1::__compressed_pair.52"* %289 to %"struct.std::__1::__compressed_pair_elem.53"*, !dbg !8438
  store %"struct.std::__1::__compressed_pair_elem.53"* %290, %"struct.std::__1::__compressed_pair_elem.53"** %67, align 8
  %291 = load %"struct.std::__1::__compressed_pair_elem.53"*, %"struct.std::__1::__compressed_pair_elem.53"** %67, align 8
  %292 = getelementptr inbounds %"struct.std::__1::__compressed_pair_elem.53", %"struct.std::__1::__compressed_pair_elem.53"* %291, i32 0, i32 0, !dbg !8439
  store %"class.altered_carbon::js::ACAstTokenError"* %287, %"class.altered_carbon::js::ACAstTokenError"** %292, align 8, !dbg !8440
  %293 = load %"class.altered_carbon::js::ACAstTokenError"*, %"class.altered_carbon::js::ACAstTokenError"** %75, align 8, !dbg !8441
  %294 = icmp ne %"class.altered_carbon::js::ACAstTokenError"* %293, null, !dbg !8441
  br i1 %294, label %295, label %311, !dbg !8442

; <label>:295:                                    ; preds = %229
  %296 = getelementptr inbounds %"class.std::__1::unique_ptr.51", %"class.std::__1::unique_ptr.51"* %280, i32 0, i32 0, !dbg !8443
  store %"class.std::__1::__compressed_pair.52"* %296, %"class.std::__1::__compressed_pair.52"** %66, align 8
  %297 = load %"class.std::__1::__compressed_pair.52"*, %"class.std::__1::__compressed_pair.52"** %66, align 8
  %298 = bitcast %"class.std::__1::__compressed_pair.52"* %297 to %"struct.std::__1::__compressed_pair_elem.54"*, !dbg !8444
  store %"struct.std::__1::__compressed_pair_elem.54"* %298, %"struct.std::__1::__compressed_pair_elem.54"** %65, align 8
  %299 = load %"struct.std::__1::__compressed_pair_elem.54"*, %"struct.std::__1::__compressed_pair_elem.54"** %65, align 8
  %300 = bitcast %"struct.std::__1::__compressed_pair_elem.54"* %299 to %"struct.std::__1::default_delete.55"*, !dbg !8445
  %301 = load %"class.altered_carbon::js::ACAstTokenError"*, %"class.altered_carbon::js::ACAstTokenError"** %75, align 8, !dbg !8446
  store %"struct.std::__1::default_delete.55"* %300, %"struct.std::__1::default_delete.55"** %69, align 8
  store %"class.altered_carbon::js::ACAstTokenError"* %301, %"class.altered_carbon::js::ACAstTokenError"** %70, align 8
  %302 = load %"struct.std::__1::default_delete.55"*, %"struct.std::__1::default_delete.55"** %69, align 8
  %303 = load %"class.altered_carbon::js::ACAstTokenError"*, %"class.altered_carbon::js::ACAstTokenError"** %70, align 8, !dbg !8447
  %304 = icmp eq %"class.altered_carbon::js::ACAstTokenError"* %303, null, !dbg !8448
  br i1 %304, label %310, label %305, !dbg !8448

; <label>:305:                                    ; preds = %295
  %306 = bitcast %"class.altered_carbon::js::ACAstTokenError"* %303 to void (%"class.altered_carbon::js::ACAstTokenError"*)***, !dbg !8448
  %307 = load void (%"class.altered_carbon::js::ACAstTokenError"*)**, void (%"class.altered_carbon::js::ACAstTokenError"*)*** %306, align 8, !dbg !8448
  %308 = getelementptr inbounds void (%"class.altered_carbon::js::ACAstTokenError"*)*, void (%"class.altered_carbon::js::ACAstTokenError"*)** %307, i64 1, !dbg !8448
  %309 = load void (%"class.altered_carbon::js::ACAstTokenError"*)*, void (%"class.altered_carbon::js::ACAstTokenError"*)** %308, align 8, !dbg !8448
  call void %309(%"class.altered_carbon::js::ACAstTokenError"* %303) #2, !dbg !8448
  br label %310, !dbg !8448

; <label>:310:                                    ; preds = %305, %295
  br label %311, !dbg !8443

; <label>:311:                                    ; preds = %229, %310
  store %"class.std::__1::unique_ptr.32"* %111, %"class.std::__1::unique_ptr.32"** %102, align 8
  %312 = load %"class.std::__1::unique_ptr.32"*, %"class.std::__1::unique_ptr.32"** %102, align 8
  store %"class.std::__1::unique_ptr.32"* %312, %"class.std::__1::unique_ptr.32"** %101, align 8
  %313 = load %"class.std::__1::unique_ptr.32"*, %"class.std::__1::unique_ptr.32"** %101, align 8
  store %"class.std::__1::unique_ptr.32"* %313, %"class.std::__1::unique_ptr.32"** %98, align 8
  store %"struct.altered_carbon::js::ACLexPosition"* null, %"struct.altered_carbon::js::ACLexPosition"** %99, align 8
  %314 = load %"class.std::__1::unique_ptr.32"*, %"class.std::__1::unique_ptr.32"** %98, align 8
  %315 = getelementptr inbounds %"class.std::__1::unique_ptr.32", %"class.std::__1::unique_ptr.32"* %314, i32 0, i32 0, !dbg !8449
  store %"class.std::__1::__compressed_pair.33"* %315, %"class.std::__1::__compressed_pair.33"** %97, align 8
  %316 = load %"class.std::__1::__compressed_pair.33"*, %"class.std::__1::__compressed_pair.33"** %97, align 8
  %317 = bitcast %"class.std::__1::__compressed_pair.33"* %316 to %"struct.std::__1::__compressed_pair_elem.34"*, !dbg !8450
  store %"struct.std::__1::__compressed_pair_elem.34"* %317, %"struct.std::__1::__compressed_pair_elem.34"** %96, align 8
  %318 = load %"struct.std::__1::__compressed_pair_elem.34"*, %"struct.std::__1::__compressed_pair_elem.34"** %96, align 8
  %319 = getelementptr inbounds %"struct.std::__1::__compressed_pair_elem.34", %"struct.std::__1::__compressed_pair_elem.34"* %318, i32 0, i32 0, !dbg !8451
  %320 = load %"struct.altered_carbon::js::ACLexPosition"*, %"struct.altered_carbon::js::ACLexPosition"** %319, align 8, !dbg !8452
  store %"struct.altered_carbon::js::ACLexPosition"* %320, %"struct.altered_carbon::js::ACLexPosition"** %100, align 8, !dbg !8306
  %321 = load %"struct.altered_carbon::js::ACLexPosition"*, %"struct.altered_carbon::js::ACLexPosition"** %99, align 8, !dbg !8453
  %322 = getelementptr inbounds %"class.std::__1::unique_ptr.32", %"class.std::__1::unique_ptr.32"* %314, i32 0, i32 0, !dbg !8454
  store %"class.std::__1::__compressed_pair.33"* %322, %"class.std::__1::__compressed_pair.33"** %93, align 8
  %323 = load %"class.std::__1::__compressed_pair.33"*, %"class.std::__1::__compressed_pair.33"** %93, align 8
  %324 = bitcast %"class.std::__1::__compressed_pair.33"* %323 to %"struct.std::__1::__compressed_pair_elem.34"*, !dbg !8455
  store %"struct.std::__1::__compressed_pair_elem.34"* %324, %"struct.std::__1::__compressed_pair_elem.34"** %92, align 8
  %325 = load %"struct.std::__1::__compressed_pair_elem.34"*, %"struct.std::__1::__compressed_pair_elem.34"** %92, align 8
  %326 = getelementptr inbounds %"struct.std::__1::__compressed_pair_elem.34", %"struct.std::__1::__compressed_pair_elem.34"* %325, i32 0, i32 0, !dbg !8456
  store %"struct.altered_carbon::js::ACLexPosition"* %321, %"struct.altered_carbon::js::ACLexPosition"** %326, align 8, !dbg !8457
  %327 = load %"struct.altered_carbon::js::ACLexPosition"*, %"struct.altered_carbon::js::ACLexPosition"** %100, align 8, !dbg !8458
  %328 = icmp ne %"struct.altered_carbon::js::ACLexPosition"* %327, null, !dbg !8458
  br i1 %328, label %329, label %345, !dbg !8459

; <label>:329:                                    ; preds = %311
  %330 = getelementptr inbounds %"class.std::__1::unique_ptr.32", %"class.std::__1::unique_ptr.32"* %314, i32 0, i32 0, !dbg !8460
  store %"class.std::__1::__compressed_pair.33"* %330, %"class.std::__1::__compressed_pair.33"** %91, align 8
  %331 = load %"class.std::__1::__compressed_pair.33"*, %"class.std::__1::__compressed_pair.33"** %91, align 8
  %332 = bitcast %"class.std::__1::__compressed_pair.33"* %331 to %"struct.std::__1::__compressed_pair_elem.35"*, !dbg !8461
  store %"struct.std::__1::__compressed_pair_elem.35"* %332, %"struct.std::__1::__compressed_pair_elem.35"** %90, align 8
  %333 = load %"struct.std::__1::__compressed_pair_elem.35"*, %"struct.std::__1::__compressed_pair_elem.35"** %90, align 8
  %334 = bitcast %"struct.std::__1::__compressed_pair_elem.35"* %333 to %"struct.std::__1::default_delete.36"*, !dbg !8462
  %335 = load %"struct.altered_carbon::js::ACLexPosition"*, %"struct.altered_carbon::js::ACLexPosition"** %100, align 8, !dbg !8463
  store %"struct.std::__1::default_delete.36"* %334, %"struct.std::__1::default_delete.36"** %94, align 8
  store %"struct.altered_carbon::js::ACLexPosition"* %335, %"struct.altered_carbon::js::ACLexPosition"** %95, align 8
  %336 = load %"struct.std::__1::default_delete.36"*, %"struct.std::__1::default_delete.36"** %94, align 8
  %337 = load %"struct.altered_carbon::js::ACLexPosition"*, %"struct.altered_carbon::js::ACLexPosition"** %95, align 8, !dbg !8464
  %338 = icmp eq %"struct.altered_carbon::js::ACLexPosition"* %337, null, !dbg !8465
  br i1 %338, label %344, label %339, !dbg !8465

; <label>:339:                                    ; preds = %329
  %340 = bitcast %"struct.altered_carbon::js::ACLexPosition"* %337 to void (%"struct.altered_carbon::js::ACLexPosition"*)***, !dbg !8465
  %341 = load void (%"struct.altered_carbon::js::ACLexPosition"*)**, void (%"struct.altered_carbon::js::ACLexPosition"*)*** %340, align 8, !dbg !8465
  %342 = getelementptr inbounds void (%"struct.altered_carbon::js::ACLexPosition"*)*, void (%"struct.altered_carbon::js::ACLexPosition"*)** %341, i64 1, !dbg !8465
  %343 = load void (%"struct.altered_carbon::js::ACLexPosition"*)*, void (%"struct.altered_carbon::js::ACLexPosition"*)** %342, align 8, !dbg !8465
  call void %343(%"struct.altered_carbon::js::ACLexPosition"* %337) #2, !dbg !8465
  br label %344, !dbg !8465

; <label>:344:                                    ; preds = %339, %329
  br label %345, !dbg !8460

; <label>:345:                                    ; preds = %311, %344
  ret void, !dbg !8466
}

; Function Attrs: noinline nounwind optnone ssp uwtable
define linkonce_odr void @_ZN4llvm11make_uniqueIN14altered_carbon2js13ACLexPositionEJEEENSt3__19enable_ifIXntsr3std8is_arrayIT_EE5valueENS4_10unique_ptrIS6_NS4_14default_deleteIS6_EEEEE4typeEDpOT0_(%"class.std::__1::unique_ptr.32"* noalias sret) #1 !dbg !8467 {
  %2 = alloca %"struct.altered_carbon::js::ACLexPosition"**, align 8
  call void @llvm.dbg.declare(metadata %"struct.altered_carbon::js::ACLexPosition"*** %2, metadata !8231, metadata !DIExpression()), !dbg !8478
  %3 = alloca %"struct.std::__1::__compressed_pair_elem.34"*, align 8
  call void @llvm.dbg.declare(metadata %"struct.std::__1::__compressed_pair_elem.34"** %3, metadata !8264, metadata !DIExpression()), !dbg !8485
  %4 = alloca %"struct.altered_carbon::js::ACLexPosition"**, align 8
  call void @llvm.dbg.declare(metadata %"struct.altered_carbon::js::ACLexPosition"*** %4, metadata !8266, metadata !DIExpression()), !dbg !8486
  %5 = alloca %"struct.altered_carbon::js::ACLexPosition"**, align 8
  call void @llvm.dbg.declare(metadata %"struct.altered_carbon::js::ACLexPosition"*** %5, metadata !8231, metadata !DIExpression()), !dbg !8487
  %6 = alloca %"class.std::__1::__compressed_pair.33"*, align 8
  call void @llvm.dbg.declare(metadata %"class.std::__1::__compressed_pair.33"** %6, metadata !8270, metadata !DIExpression()), !dbg !8489
  %7 = alloca %"struct.altered_carbon::js::ACLexPosition"**, align 8
  call void @llvm.dbg.declare(metadata %"struct.altered_carbon::js::ACLexPosition"*** %7, metadata !8272, metadata !DIExpression()), !dbg !8490
  %8 = alloca %"class.std::__1::__compressed_pair.33"*, align 8
  call void @llvm.dbg.declare(metadata %"class.std::__1::__compressed_pair.33"** %8, metadata !8274, metadata !DIExpression()), !dbg !8491
  %9 = alloca %"struct.altered_carbon::js::ACLexPosition"**, align 8
  call void @llvm.dbg.declare(metadata %"struct.altered_carbon::js::ACLexPosition"*** %9, metadata !8276, metadata !DIExpression()), !dbg !8492
  %10 = alloca %"class.std::__1::unique_ptr.32"*, align 8
  call void @llvm.dbg.declare(metadata %"class.std::__1::unique_ptr.32"** %10, metadata !8278, metadata !DIExpression()), !dbg !8493
  %11 = alloca %"struct.altered_carbon::js::ACLexPosition"*, align 8
  call void @llvm.dbg.declare(metadata %"struct.altered_carbon::js::ACLexPosition"** %11, metadata !8280, metadata !DIExpression()), !dbg !8494
  %12 = alloca %"class.std::__1::unique_ptr.32"*, align 8
  call void @llvm.dbg.declare(metadata %"class.std::__1::unique_ptr.32"** %12, metadata !8282, metadata !DIExpression()), !dbg !8495
  %13 = alloca %"struct.altered_carbon::js::ACLexPosition"*, align 8
  call void @llvm.dbg.declare(metadata %"struct.altered_carbon::js::ACLexPosition"** %13, metadata !8284, metadata !DIExpression()), !dbg !8496
  %14 = call i8* @_Znwm(i64 32) #9, !dbg !8497
  %15 = bitcast i8* %14 to %"struct.altered_carbon::js::ACLexPosition"*, !dbg !8497
  call void @_ZN14altered_carbon2js13ACLexPositionC1Ev(%"struct.altered_carbon::js::ACLexPosition"* %15), !dbg !8498
  store %"class.std::__1::unique_ptr.32"* %0, %"class.std::__1::unique_ptr.32"** %12, align 8
  store %"struct.altered_carbon::js::ACLexPosition"* %15, %"struct.altered_carbon::js::ACLexPosition"** %13, align 8
  %16 = load %"class.std::__1::unique_ptr.32"*, %"class.std::__1::unique_ptr.32"** %12, align 8
  %17 = load %"struct.altered_carbon::js::ACLexPosition"*, %"struct.altered_carbon::js::ACLexPosition"** %13, align 8, !dbg !8499
  store %"class.std::__1::unique_ptr.32"* %16, %"class.std::__1::unique_ptr.32"** %10, align 8
  store %"struct.altered_carbon::js::ACLexPosition"* %17, %"struct.altered_carbon::js::ACLexPosition"** %11, align 8
  %18 = load %"class.std::__1::unique_ptr.32"*, %"class.std::__1::unique_ptr.32"** %10, align 8
  %19 = getelementptr inbounds %"class.std::__1::unique_ptr.32", %"class.std::__1::unique_ptr.32"* %18, i32 0, i32 0, !dbg !8500
  store %"class.std::__1::__compressed_pair.33"* %19, %"class.std::__1::__compressed_pair.33"** %8, align 8
  store %"struct.altered_carbon::js::ACLexPosition"** %11, %"struct.altered_carbon::js::ACLexPosition"*** %9, align 8
  %20 = load %"class.std::__1::__compressed_pair.33"*, %"class.std::__1::__compressed_pair.33"** %8, align 8
  %21 = load %"struct.altered_carbon::js::ACLexPosition"**, %"struct.altered_carbon::js::ACLexPosition"*** %9, align 8, !dbg !8501
  store %"class.std::__1::__compressed_pair.33"* %20, %"class.std::__1::__compressed_pair.33"** %6, align 8
  store %"struct.altered_carbon::js::ACLexPosition"** %21, %"struct.altered_carbon::js::ACLexPosition"*** %7, align 8
  %22 = load %"class.std::__1::__compressed_pair.33"*, %"class.std::__1::__compressed_pair.33"** %6, align 8
  %23 = bitcast %"class.std::__1::__compressed_pair.33"* %22 to %"struct.std::__1::__compressed_pair_elem.34"*, !dbg !8502
  %24 = load %"struct.altered_carbon::js::ACLexPosition"**, %"struct.altered_carbon::js::ACLexPosition"*** %7, align 8, !dbg !8503
  store %"struct.altered_carbon::js::ACLexPosition"** %24, %"struct.altered_carbon::js::ACLexPosition"*** %5, align 8
  %25 = load %"struct.altered_carbon::js::ACLexPosition"**, %"struct.altered_carbon::js::ACLexPosition"*** %5, align 8, !dbg !8504
  store %"struct.std::__1::__compressed_pair_elem.34"* %23, %"struct.std::__1::__compressed_pair_elem.34"** %3, align 8
  store %"struct.altered_carbon::js::ACLexPosition"** %25, %"struct.altered_carbon::js::ACLexPosition"*** %4, align 8
  %26 = load %"struct.std::__1::__compressed_pair_elem.34"*, %"struct.std::__1::__compressed_pair_elem.34"** %3, align 8
  %27 = getelementptr inbounds %"struct.std::__1::__compressed_pair_elem.34", %"struct.std::__1::__compressed_pair_elem.34"* %26, i32 0, i32 0, !dbg !8505
  %28 = load %"struct.altered_carbon::js::ACLexPosition"**, %"struct.altered_carbon::js::ACLexPosition"*** %4, align 8, !dbg !8506
  store %"struct.altered_carbon::js::ACLexPosition"** %28, %"struct.altered_carbon::js::ACLexPosition"*** %2, align 8
  %29 = load %"struct.altered_carbon::js::ACLexPosition"**, %"struct.altered_carbon::js::ACLexPosition"*** %2, align 8, !dbg !8507
  %30 = load %"struct.altered_carbon::js::ACLexPosition"*, %"struct.altered_carbon::js::ACLexPosition"** %29, align 8, !dbg !8508
  store %"struct.altered_carbon::js::ACLexPosition"* %30, %"struct.altered_carbon::js::ACLexPosition"** %27, align 8, !dbg !8505
  %31 = bitcast %"class.std::__1::__compressed_pair.33"* %22 to %"struct.std::__1::__compressed_pair_elem.35"*, !dbg !8502
  ret void, !dbg !8509
}

; Function Attrs: noinline nounwind optnone ssp uwtable
define linkonce_odr hidden dereferenceable(32) %"struct.altered_carbon::js::ACLexPosition"* @_ZN14altered_carbon2js13ACLexPositionaSERKS1_(%"struct.altered_carbon::js::ACLexPosition"*, %"struct.altered_carbon::js::ACLexPosition"* dereferenceable(32)) #1 align 2 !dbg !8510 {
  %3 = alloca %"struct.altered_carbon::js::ACLexPosition"*, align 8
  %4 = alloca %"struct.altered_carbon::js::ACLexPosition"*, align 8
  store %"struct.altered_carbon::js::ACLexPosition"* %0, %"struct.altered_carbon::js::ACLexPosition"** %3, align 8
  call void @llvm.dbg.declare(metadata %"struct.altered_carbon::js::ACLexPosition"** %3, metadata !8514, metadata !DIExpression()), !dbg !8515
  store %"struct.altered_carbon::js::ACLexPosition"* %1, %"struct.altered_carbon::js::ACLexPosition"** %4, align 8
  call void @llvm.dbg.declare(metadata %"struct.altered_carbon::js::ACLexPosition"** %4, metadata !8516, metadata !DIExpression()), !dbg !8515
  %5 = load %"struct.altered_carbon::js::ACLexPosition"*, %"struct.altered_carbon::js::ACLexPosition"** %3, align 8
  %6 = getelementptr inbounds %"struct.altered_carbon::js::ACLexPosition", %"struct.altered_carbon::js::ACLexPosition"* %5, i32 0, i32 1, !dbg !8517
  %7 = load %"struct.altered_carbon::js::ACLexPosition"*, %"struct.altered_carbon::js::ACLexPosition"** %4, align 8, !dbg !8517
  %8 = getelementptr inbounds %"struct.altered_carbon::js::ACLexPosition", %"struct.altered_carbon::js::ACLexPosition"* %7, i32 0, i32 1, !dbg !8517
  %9 = bitcast i64* %6 to i8*, !dbg !8517
  %10 = bitcast i64* %8 to i8*, !dbg !8517
  call void @llvm.memcpy.p0i8.p0i8.i64(i8* align 8 %9, i8* align 8 %10, i64 24, i1 false), !dbg !8517
  ret %"struct.altered_carbon::js::ACLexPosition"* %5, !dbg !8518
}

; Function Attrs: noinline nounwind optnone ssp uwtable
define linkonce_odr void @_ZN4llvm11make_uniqueIN14altered_carbon2js15ACAstTokenErrorEJNSt3__110unique_ptrINS2_13ACLexPositionENS4_14default_deleteIS6_EEEENS2_14ACLexTokenTypeEEEENS4_9enable_ifIXntsr3std8is_arrayIT_EE5valueENS5_ISC_NS7_ISC_EEEEE4typeEDpOT0_(%"class.std::__1::unique_ptr.51"* noalias sret, %"class.std::__1::unique_ptr.32"* dereferenceable(8), i32* dereferenceable(4)) #1 !dbg !8520 {
  %4 = alloca i32*, align 8
  call void @llvm.dbg.declare(metadata i32** %4, metadata !8534, metadata !DIExpression()), !dbg !8541
  %5 = alloca %"class.altered_carbon::js::ACAstTokenError"**, align 8
  call void @llvm.dbg.declare(metadata %"class.altered_carbon::js::ACAstTokenError"*** %5, metadata !8543, metadata !DIExpression()), !dbg !8552
  %6 = alloca %"struct.std::__1::__compressed_pair_elem.53"*, align 8
  call void @llvm.dbg.declare(metadata %"struct.std::__1::__compressed_pair_elem.53"** %6, metadata !8574, metadata !DIExpression()), !dbg !8575
  %7 = alloca %"class.altered_carbon::js::ACAstTokenError"**, align 8
  call void @llvm.dbg.declare(metadata %"class.altered_carbon::js::ACAstTokenError"*** %7, metadata !8576, metadata !DIExpression()), !dbg !8577
  %8 = alloca %"class.altered_carbon::js::ACAstTokenError"**, align 8
  call void @llvm.dbg.declare(metadata %"class.altered_carbon::js::ACAstTokenError"*** %8, metadata !8543, metadata !DIExpression()), !dbg !8578
  %9 = alloca %"class.std::__1::__compressed_pair.52"*, align 8
  call void @llvm.dbg.declare(metadata %"class.std::__1::__compressed_pair.52"** %9, metadata !8580, metadata !DIExpression()), !dbg !8581
  %10 = alloca %"class.altered_carbon::js::ACAstTokenError"**, align 8
  call void @llvm.dbg.declare(metadata %"class.altered_carbon::js::ACAstTokenError"*** %10, metadata !8582, metadata !DIExpression()), !dbg !8583
  %11 = alloca %"class.std::__1::__compressed_pair.52"*, align 8
  call void @llvm.dbg.declare(metadata %"class.std::__1::__compressed_pair.52"** %11, metadata !8584, metadata !DIExpression()), !dbg !8585
  %12 = alloca %"class.altered_carbon::js::ACAstTokenError"**, align 8
  call void @llvm.dbg.declare(metadata %"class.altered_carbon::js::ACAstTokenError"*** %12, metadata !8586, metadata !DIExpression()), !dbg !8587
  %13 = alloca %"class.std::__1::unique_ptr.51"*, align 8
  call void @llvm.dbg.declare(metadata %"class.std::__1::unique_ptr.51"** %13, metadata !8588, metadata !DIExpression()), !dbg !8589
  %14 = alloca %"class.altered_carbon::js::ACAstTokenError"*, align 8
  call void @llvm.dbg.declare(metadata %"class.altered_carbon::js::ACAstTokenError"** %14, metadata !8590, metadata !DIExpression()), !dbg !8591
  %15 = alloca %"class.std::__1::unique_ptr.51"*, align 8
  call void @llvm.dbg.declare(metadata %"class.std::__1::unique_ptr.51"** %15, metadata !8592, metadata !DIExpression()), !dbg !8593
  %16 = alloca %"class.altered_carbon::js::ACAstTokenError"*, align 8
  call void @llvm.dbg.declare(metadata %"class.altered_carbon::js::ACAstTokenError"** %16, metadata !8594, metadata !DIExpression()), !dbg !8595
  %17 = alloca %"struct.std::__1::__compressed_pair_elem.35"*, align 8
  call void @llvm.dbg.declare(metadata %"struct.std::__1::__compressed_pair_elem.35"** %17, metadata !8145, metadata !DIExpression()), !dbg !8596
  %18 = alloca %"class.std::__1::__compressed_pair.33"*, align 8
  call void @llvm.dbg.declare(metadata %"class.std::__1::__compressed_pair.33"** %18, metadata !8160, metadata !DIExpression()), !dbg !8605
  %19 = alloca %"class.std::__1::unique_ptr.32"*, align 8
  call void @llvm.dbg.declare(metadata %"class.std::__1::unique_ptr.32"** %19, metadata !8606, metadata !DIExpression()), !dbg !8607
  %20 = alloca %"struct.std::__1::default_delete.36"*, align 8
  call void @llvm.dbg.declare(metadata %"struct.std::__1::default_delete.36"** %20, metadata !8608, metadata !DIExpression()), !dbg !8617
  %21 = alloca %"struct.altered_carbon::js::ACLexPosition"**, align 8
  call void @llvm.dbg.declare(metadata %"struct.altered_carbon::js::ACLexPosition"*** %21, metadata !8619, metadata !DIExpression()), !dbg !8628
  %22 = alloca %"struct.std::__1::__compressed_pair_elem.34"*, align 8
  call void @llvm.dbg.declare(metadata %"struct.std::__1::__compressed_pair_elem.34"** %22, metadata !8647, metadata !DIExpression()), !dbg !8648
  %23 = alloca %"struct.altered_carbon::js::ACLexPosition"**, align 8
  call void @llvm.dbg.declare(metadata %"struct.altered_carbon::js::ACLexPosition"*** %23, metadata !8649, metadata !DIExpression()), !dbg !8650
  %24 = alloca %"struct.std::__1::default_delete.36"*, align 8
  call void @llvm.dbg.declare(metadata %"struct.std::__1::default_delete.36"** %24, metadata !8608, metadata !DIExpression()), !dbg !8651
  %25 = alloca %"struct.std::__1::default_delete.36"*, align 8
  call void @llvm.dbg.declare(metadata %"struct.std::__1::default_delete.36"** %25, metadata !8608, metadata !DIExpression()), !dbg !8653
  %26 = alloca %"struct.std::__1::__compressed_pair_elem.35"*, align 8
  call void @llvm.dbg.declare(metadata %"struct.std::__1::__compressed_pair_elem.35"** %26, metadata !8662, metadata !DIExpression()), !dbg !8663
  %27 = alloca %"struct.std::__1::default_delete.36"*, align 8
  call void @llvm.dbg.declare(metadata %"struct.std::__1::default_delete.36"** %27, metadata !8664, metadata !DIExpression()), !dbg !8665
  %28 = alloca %"struct.altered_carbon::js::ACLexPosition"**, align 8
  call void @llvm.dbg.declare(metadata %"struct.altered_carbon::js::ACLexPosition"*** %28, metadata !8619, metadata !DIExpression()), !dbg !8666
  %29 = alloca %"class.std::__1::__compressed_pair.33"*, align 8
  call void @llvm.dbg.declare(metadata %"class.std::__1::__compressed_pair.33"** %29, metadata !8668, metadata !DIExpression()), !dbg !8669
  %30 = alloca %"struct.altered_carbon::js::ACLexPosition"**, align 8
  call void @llvm.dbg.declare(metadata %"struct.altered_carbon::js::ACLexPosition"*** %30, metadata !8670, metadata !DIExpression()), !dbg !8671
  %31 = alloca %"struct.std::__1::default_delete.36"*, align 8
  call void @llvm.dbg.declare(metadata %"struct.std::__1::default_delete.36"** %31, metadata !8672, metadata !DIExpression()), !dbg !8673
  %32 = alloca %"class.std::__1::__compressed_pair.33"*, align 8
  call void @llvm.dbg.declare(metadata %"class.std::__1::__compressed_pair.33"** %32, metadata !8674, metadata !DIExpression()), !dbg !8675
  %33 = alloca %"struct.altered_carbon::js::ACLexPosition"**, align 8
  call void @llvm.dbg.declare(metadata %"struct.altered_carbon::js::ACLexPosition"*** %33, metadata !8676, metadata !DIExpression()), !dbg !8677
  %34 = alloca %"struct.std::__1::default_delete.36"*, align 8
  call void @llvm.dbg.declare(metadata %"struct.std::__1::default_delete.36"** %34, metadata !8678, metadata !DIExpression()), !dbg !8679
  %35 = alloca %"struct.std::__1::__compressed_pair_elem.34"*, align 8
  call void @llvm.dbg.declare(metadata %"struct.std::__1::__compressed_pair_elem.34"** %35, metadata !8163, metadata !DIExpression()), !dbg !8680
  %36 = alloca %"class.std::__1::__compressed_pair.33"*, align 8
  call void @llvm.dbg.declare(metadata %"class.std::__1::__compressed_pair.33"** %36, metadata !8170, metadata !DIExpression()), !dbg !8684
  %37 = alloca %"struct.std::__1::__compressed_pair_elem.34"*, align 8
  call void @llvm.dbg.declare(metadata %"struct.std::__1::__compressed_pair_elem.34"** %37, metadata !8163, metadata !DIExpression()), !dbg !8685
  %38 = alloca %"class.std::__1::__compressed_pair.33"*, align 8
  call void @llvm.dbg.declare(metadata %"class.std::__1::__compressed_pair.33"** %38, metadata !8170, metadata !DIExpression()), !dbg !8688
  %39 = alloca %"class.std::__1::unique_ptr.32"*, align 8
  call void @llvm.dbg.declare(metadata %"class.std::__1::unique_ptr.32"** %39, metadata !8319, metadata !DIExpression()), !dbg !8689
  %40 = alloca %"struct.altered_carbon::js::ACLexPosition"*, align 8
  call void @llvm.dbg.declare(metadata %"struct.altered_carbon::js::ACLexPosition"** %40, metadata !8321, metadata !DIExpression()), !dbg !8690
  %41 = alloca %"class.std::__1::unique_ptr.32"*, align 8
  call void @llvm.dbg.declare(metadata %"class.std::__1::unique_ptr.32"** %41, metadata !8691, metadata !DIExpression()), !dbg !8692
  %42 = alloca %"class.std::__1::unique_ptr.32"*, align 8
  call void @llvm.dbg.declare(metadata %"class.std::__1::unique_ptr.32"** %42, metadata !8693, metadata !DIExpression()), !dbg !8694
  %43 = alloca %"struct.altered_carbon::js::ACLexPosition"*, align 8
  %44 = alloca %"class.std::__1::unique_ptr.32"*, align 8
  call void @llvm.dbg.declare(metadata %"class.std::__1::unique_ptr.32"** %44, metadata !8695, metadata !DIExpression()), !dbg !8696
  %45 = alloca %"class.std::__1::unique_ptr.32"*, align 8
  call void @llvm.dbg.declare(metadata %"class.std::__1::unique_ptr.32"** %45, metadata !8697, metadata !DIExpression()), !dbg !8698
  %46 = alloca %"struct.std::__1::__compressed_pair_elem.35"*, align 8
  call void @llvm.dbg.declare(metadata %"struct.std::__1::__compressed_pair_elem.35"** %46, metadata !8145, metadata !DIExpression()), !dbg !8699
  %47 = alloca %"class.std::__1::__compressed_pair.33"*, align 8
  call void @llvm.dbg.declare(metadata %"class.std::__1::__compressed_pair.33"** %47, metadata !8160, metadata !DIExpression()), !dbg !8705
  %48 = alloca %"struct.std::__1::__compressed_pair_elem.34"*, align 8
  call void @llvm.dbg.declare(metadata %"struct.std::__1::__compressed_pair_elem.34"** %48, metadata !8163, metadata !DIExpression()), !dbg !8706
  %49 = alloca %"class.std::__1::__compressed_pair.33"*, align 8
  call void @llvm.dbg.declare(metadata %"class.std::__1::__compressed_pair.33"** %49, metadata !8170, metadata !DIExpression()), !dbg !8709
  %50 = alloca %"struct.std::__1::default_delete.36"*, align 8
  call void @llvm.dbg.declare(metadata %"struct.std::__1::default_delete.36"** %50, metadata !8172, metadata !DIExpression()), !dbg !8710
  %51 = alloca %"struct.altered_carbon::js::ACLexPosition"*, align 8
  call void @llvm.dbg.declare(metadata %"struct.altered_carbon::js::ACLexPosition"** %51, metadata !8177, metadata !DIExpression()), !dbg !8712
  %52 = alloca %"struct.std::__1::__compressed_pair_elem.34"*, align 8
  call void @llvm.dbg.declare(metadata %"struct.std::__1::__compressed_pair_elem.34"** %52, metadata !8163, metadata !DIExpression()), !dbg !8713
  %53 = alloca %"class.std::__1::__compressed_pair.33"*, align 8
  call void @llvm.dbg.declare(metadata %"class.std::__1::__compressed_pair.33"** %53, metadata !8170, metadata !DIExpression()), !dbg !8716
  %54 = alloca %"class.std::__1::unique_ptr.32"*, align 8
  call void @llvm.dbg.declare(metadata %"class.std::__1::unique_ptr.32"** %54, metadata !8183, metadata !DIExpression()), !dbg !8717
  %55 = alloca %"struct.altered_carbon::js::ACLexPosition"*, align 8
  call void @llvm.dbg.declare(metadata %"struct.altered_carbon::js::ACLexPosition"** %55, metadata !8186, metadata !DIExpression()), !dbg !8718
  %56 = alloca %"struct.altered_carbon::js::ACLexPosition"*, align 8
  call void @llvm.dbg.declare(metadata %"struct.altered_carbon::js::ACLexPosition"** %56, metadata !8188, metadata !DIExpression()), !dbg !8719
  %57 = alloca %"class.std::__1::unique_ptr.32"*, align 8
  call void @llvm.dbg.declare(metadata %"class.std::__1::unique_ptr.32"** %57, metadata !8190, metadata !DIExpression()), !dbg !8720
  %58 = alloca %"class.std::__1::unique_ptr.32"*, align 8
  call void @llvm.dbg.declare(metadata %"class.std::__1::unique_ptr.32"** %58, metadata !8192, metadata !DIExpression()), !dbg !8721
  %59 = alloca %"class.std::__1::unique_ptr.32"*, align 8
  call void @llvm.dbg.declare(metadata %"class.std::__1::unique_ptr.32"** %59, metadata !8722, metadata !DIExpression()), !dbg !8730
  %60 = alloca %"class.std::__1::unique_ptr.32"*, align 8
  %61 = alloca i32*, align 8
  %62 = alloca %"class.std::__1::unique_ptr.32", align 8
  store %"class.std::__1::unique_ptr.32"* %1, %"class.std::__1::unique_ptr.32"** %60, align 8
  call void @llvm.dbg.declare(metadata %"class.std::__1::unique_ptr.32"** %60, metadata !8732, metadata !DIExpression()), !dbg !8733
  store i32* %2, i32** %61, align 8
  call void @llvm.dbg.declare(metadata i32** %61, metadata !8734, metadata !DIExpression()), !dbg !8733
  %63 = call i8* @_Znwm(i64 64) #9, !dbg !8735
  %64 = bitcast i8* %63 to %"class.altered_carbon::js::ACAstTokenError"*, !dbg !8735
  %65 = load %"class.std::__1::unique_ptr.32"*, %"class.std::__1::unique_ptr.32"** %60, align 8, !dbg !8736
  store %"class.std::__1::unique_ptr.32"* %65, %"class.std::__1::unique_ptr.32"** %59, align 8
  %66 = load %"class.std::__1::unique_ptr.32"*, %"class.std::__1::unique_ptr.32"** %59, align 8, !dbg !8737
  store %"class.std::__1::unique_ptr.32"* %62, %"class.std::__1::unique_ptr.32"** %44, align 8
  store %"class.std::__1::unique_ptr.32"* %66, %"class.std::__1::unique_ptr.32"** %45, align 8
  %67 = load %"class.std::__1::unique_ptr.32"*, %"class.std::__1::unique_ptr.32"** %44, align 8
  %68 = load %"class.std::__1::unique_ptr.32"*, %"class.std::__1::unique_ptr.32"** %45, align 8, !dbg !8738
  store %"class.std::__1::unique_ptr.32"* %67, %"class.std::__1::unique_ptr.32"** %41, align 8
  store %"class.std::__1::unique_ptr.32"* %68, %"class.std::__1::unique_ptr.32"** %42, align 8
  %69 = load %"class.std::__1::unique_ptr.32"*, %"class.std::__1::unique_ptr.32"** %41, align 8
  %70 = getelementptr inbounds %"class.std::__1::unique_ptr.32", %"class.std::__1::unique_ptr.32"* %69, i32 0, i32 0, !dbg !8739
  %71 = load %"class.std::__1::unique_ptr.32"*, %"class.std::__1::unique_ptr.32"** %42, align 8, !dbg !8740
  store %"class.std::__1::unique_ptr.32"* %71, %"class.std::__1::unique_ptr.32"** %39, align 8
  %72 = load %"class.std::__1::unique_ptr.32"*, %"class.std::__1::unique_ptr.32"** %39, align 8
  %73 = getelementptr inbounds %"class.std::__1::unique_ptr.32", %"class.std::__1::unique_ptr.32"* %72, i32 0, i32 0, !dbg !8741
  store %"class.std::__1::__compressed_pair.33"* %73, %"class.std::__1::__compressed_pair.33"** %38, align 8
  %74 = load %"class.std::__1::__compressed_pair.33"*, %"class.std::__1::__compressed_pair.33"** %38, align 8
  %75 = bitcast %"class.std::__1::__compressed_pair.33"* %74 to %"struct.std::__1::__compressed_pair_elem.34"*, !dbg !8742
  store %"struct.std::__1::__compressed_pair_elem.34"* %75, %"struct.std::__1::__compressed_pair_elem.34"** %37, align 8
  %76 = load %"struct.std::__1::__compressed_pair_elem.34"*, %"struct.std::__1::__compressed_pair_elem.34"** %37, align 8
  %77 = getelementptr inbounds %"struct.std::__1::__compressed_pair_elem.34", %"struct.std::__1::__compressed_pair_elem.34"* %76, i32 0, i32 0, !dbg !8743
  %78 = load %"struct.altered_carbon::js::ACLexPosition"*, %"struct.altered_carbon::js::ACLexPosition"** %77, align 8, !dbg !8744
  store %"struct.altered_carbon::js::ACLexPosition"* %78, %"struct.altered_carbon::js::ACLexPosition"** %40, align 8, !dbg !8690
  %79 = getelementptr inbounds %"class.std::__1::unique_ptr.32", %"class.std::__1::unique_ptr.32"* %72, i32 0, i32 0, !dbg !8745
  store %"class.std::__1::__compressed_pair.33"* %79, %"class.std::__1::__compressed_pair.33"** %36, align 8
  %80 = load %"class.std::__1::__compressed_pair.33"*, %"class.std::__1::__compressed_pair.33"** %36, align 8
  %81 = bitcast %"class.std::__1::__compressed_pair.33"* %80 to %"struct.std::__1::__compressed_pair_elem.34"*, !dbg !8746
  store %"struct.std::__1::__compressed_pair_elem.34"* %81, %"struct.std::__1::__compressed_pair_elem.34"** %35, align 8
  %82 = load %"struct.std::__1::__compressed_pair_elem.34"*, %"struct.std::__1::__compressed_pair_elem.34"** %35, align 8
  %83 = getelementptr inbounds %"struct.std::__1::__compressed_pair_elem.34", %"struct.std::__1::__compressed_pair_elem.34"* %82, i32 0, i32 0, !dbg !8747
  store %"struct.altered_carbon::js::ACLexPosition"* null, %"struct.altered_carbon::js::ACLexPosition"** %83, align 8, !dbg !8748
  %84 = load %"struct.altered_carbon::js::ACLexPosition"*, %"struct.altered_carbon::js::ACLexPosition"** %40, align 8, !dbg !8749
  store %"struct.altered_carbon::js::ACLexPosition"* %84, %"struct.altered_carbon::js::ACLexPosition"** %43, align 8, !dbg !8740
  %85 = load %"class.std::__1::unique_ptr.32"*, %"class.std::__1::unique_ptr.32"** %42, align 8, !dbg !8750
  store %"class.std::__1::unique_ptr.32"* %85, %"class.std::__1::unique_ptr.32"** %19, align 8
  %86 = load %"class.std::__1::unique_ptr.32"*, %"class.std::__1::unique_ptr.32"** %19, align 8
  %87 = getelementptr inbounds %"class.std::__1::unique_ptr.32", %"class.std::__1::unique_ptr.32"* %86, i32 0, i32 0, !dbg !8751
  store %"class.std::__1::__compressed_pair.33"* %87, %"class.std::__1::__compressed_pair.33"** %18, align 8
  %88 = load %"class.std::__1::__compressed_pair.33"*, %"class.std::__1::__compressed_pair.33"** %18, align 8
  %89 = bitcast %"class.std::__1::__compressed_pair.33"* %88 to %"struct.std::__1::__compressed_pair_elem.35"*, !dbg !8752
  store %"struct.std::__1::__compressed_pair_elem.35"* %89, %"struct.std::__1::__compressed_pair_elem.35"** %17, align 8
  %90 = load %"struct.std::__1::__compressed_pair_elem.35"*, %"struct.std::__1::__compressed_pair_elem.35"** %17, align 8
  %91 = bitcast %"struct.std::__1::__compressed_pair_elem.35"* %90 to %"struct.std::__1::default_delete.36"*, !dbg !8753
  store %"struct.std::__1::default_delete.36"* %91, %"struct.std::__1::default_delete.36"** %20, align 8
  %92 = load %"struct.std::__1::default_delete.36"*, %"struct.std::__1::default_delete.36"** %20, align 8, !dbg !8754
  store %"class.std::__1::__compressed_pair.33"* %70, %"class.std::__1::__compressed_pair.33"** %32, align 8
  store %"struct.altered_carbon::js::ACLexPosition"** %43, %"struct.altered_carbon::js::ACLexPosition"*** %33, align 8
  store %"struct.std::__1::default_delete.36"* %92, %"struct.std::__1::default_delete.36"** %34, align 8
  %93 = load %"class.std::__1::__compressed_pair.33"*, %"class.std::__1::__compressed_pair.33"** %32, align 8
  %94 = load %"struct.altered_carbon::js::ACLexPosition"**, %"struct.altered_carbon::js::ACLexPosition"*** %33, align 8, !dbg !8755
  %95 = load %"struct.std::__1::default_delete.36"*, %"struct.std::__1::default_delete.36"** %34, align 8, !dbg !8755
  store %"class.std::__1::__compressed_pair.33"* %93, %"class.std::__1::__compressed_pair.33"** %29, align 8
  store %"struct.altered_carbon::js::ACLexPosition"** %94, %"struct.altered_carbon::js::ACLexPosition"*** %30, align 8
  store %"struct.std::__1::default_delete.36"* %95, %"struct.std::__1::default_delete.36"** %31, align 8
  %96 = load %"class.std::__1::__compressed_pair.33"*, %"class.std::__1::__compressed_pair.33"** %29, align 8
  %97 = bitcast %"class.std::__1::__compressed_pair.33"* %96 to %"struct.std::__1::__compressed_pair_elem.34"*, !dbg !8756
  %98 = load %"struct.altered_carbon::js::ACLexPosition"**, %"struct.altered_carbon::js::ACLexPosition"*** %30, align 8, !dbg !8757
  store %"struct.altered_carbon::js::ACLexPosition"** %98, %"struct.altered_carbon::js::ACLexPosition"*** %28, align 8
  %99 = load %"struct.altered_carbon::js::ACLexPosition"**, %"struct.altered_carbon::js::ACLexPosition"*** %28, align 8, !dbg !8758
  store %"struct.std::__1::__compressed_pair_elem.34"* %97, %"struct.std::__1::__compressed_pair_elem.34"** %22, align 8
  store %"struct.altered_carbon::js::ACLexPosition"** %99, %"struct.altered_carbon::js::ACLexPosition"*** %23, align 8
  %100 = load %"struct.std::__1::__compressed_pair_elem.34"*, %"struct.std::__1::__compressed_pair_elem.34"** %22, align 8
  %101 = getelementptr inbounds %"struct.std::__1::__compressed_pair_elem.34", %"struct.std::__1::__compressed_pair_elem.34"* %100, i32 0, i32 0, !dbg !8759
  %102 = load %"struct.altered_carbon::js::ACLexPosition"**, %"struct.altered_carbon::js::ACLexPosition"*** %23, align 8, !dbg !8760
  store %"struct.altered_carbon::js::ACLexPosition"** %102, %"struct.altered_carbon::js::ACLexPosition"*** %21, align 8
  %103 = load %"struct.altered_carbon::js::ACLexPosition"**, %"struct.altered_carbon::js::ACLexPosition"*** %21, align 8, !dbg !8761
  %104 = load %"struct.altered_carbon::js::ACLexPosition"*, %"struct.altered_carbon::js::ACLexPosition"** %103, align 8, !dbg !8762
  store %"struct.altered_carbon::js::ACLexPosition"* %104, %"struct.altered_carbon::js::ACLexPosition"** %101, align 8, !dbg !8759
  %105 = bitcast %"class.std::__1::__compressed_pair.33"* %96 to %"struct.std::__1::__compressed_pair_elem.35"*, !dbg !8756
  %106 = load %"struct.std::__1::default_delete.36"*, %"struct.std::__1::default_delete.36"** %31, align 8, !dbg !8763
  store %"struct.std::__1::default_delete.36"* %106, %"struct.std::__1::default_delete.36"** %24, align 8
  %107 = load %"struct.std::__1::default_delete.36"*, %"struct.std::__1::default_delete.36"** %24, align 8, !dbg !8764
  store %"struct.std::__1::__compressed_pair_elem.35"* %105, %"struct.std::__1::__compressed_pair_elem.35"** %26, align 8
  store %"struct.std::__1::default_delete.36"* %107, %"struct.std::__1::default_delete.36"** %27, align 8
  %108 = load %"struct.std::__1::__compressed_pair_elem.35"*, %"struct.std::__1::__compressed_pair_elem.35"** %26, align 8
  %109 = bitcast %"struct.std::__1::__compressed_pair_elem.35"* %108 to %"struct.std::__1::default_delete.36"*, !dbg !8765
  %110 = load %"struct.std::__1::default_delete.36"*, %"struct.std::__1::default_delete.36"** %27, align 8, !dbg !8766
  store %"struct.std::__1::default_delete.36"* %110, %"struct.std::__1::default_delete.36"** %25, align 8
  %111 = load %"struct.std::__1::default_delete.36"*, %"struct.std::__1::default_delete.36"** %25, align 8, !dbg !8767
  %112 = load i32*, i32** %61, align 8, !dbg !8736
  store i32* %112, i32** %4, align 8
  %113 = load i32*, i32** %4, align 8, !dbg !8768
  %114 = load i32, i32* %113, align 4, !dbg !8769
  call void @_ZN14altered_carbon2js15ACAstTokenErrorC1ENSt3__110unique_ptrINS0_13ACLexPositionENS2_14default_deleteIS4_EEEENS0_14ACLexTokenTypeE(%"class.altered_carbon::js::ACAstTokenError"* %64, %"class.std::__1::unique_ptr.32"* %62, i32 %114), !dbg !8770
  store %"class.std::__1::unique_ptr.51"* %0, %"class.std::__1::unique_ptr.51"** %15, align 8
  store %"class.altered_carbon::js::ACAstTokenError"* %64, %"class.altered_carbon::js::ACAstTokenError"** %16, align 8
  %115 = load %"class.std::__1::unique_ptr.51"*, %"class.std::__1::unique_ptr.51"** %15, align 8
  %116 = load %"class.altered_carbon::js::ACAstTokenError"*, %"class.altered_carbon::js::ACAstTokenError"** %16, align 8, !dbg !8771
  store %"class.std::__1::unique_ptr.51"* %115, %"class.std::__1::unique_ptr.51"** %13, align 8
  store %"class.altered_carbon::js::ACAstTokenError"* %116, %"class.altered_carbon::js::ACAstTokenError"** %14, align 8
  %117 = load %"class.std::__1::unique_ptr.51"*, %"class.std::__1::unique_ptr.51"** %13, align 8
  %118 = getelementptr inbounds %"class.std::__1::unique_ptr.51", %"class.std::__1::unique_ptr.51"* %117, i32 0, i32 0, !dbg !8772
  store %"class.std::__1::__compressed_pair.52"* %118, %"class.std::__1::__compressed_pair.52"** %11, align 8
  store %"class.altered_carbon::js::ACAstTokenError"** %14, %"class.altered_carbon::js::ACAstTokenError"*** %12, align 8
  %119 = load %"class.std::__1::__compressed_pair.52"*, %"class.std::__1::__compressed_pair.52"** %11, align 8
  %120 = load %"class.altered_carbon::js::ACAstTokenError"**, %"class.altered_carbon::js::ACAstTokenError"*** %12, align 8, !dbg !8773
  store %"class.std::__1::__compressed_pair.52"* %119, %"class.std::__1::__compressed_pair.52"** %9, align 8
  store %"class.altered_carbon::js::ACAstTokenError"** %120, %"class.altered_carbon::js::ACAstTokenError"*** %10, align 8
  %121 = load %"class.std::__1::__compressed_pair.52"*, %"class.std::__1::__compressed_pair.52"** %9, align 8
  %122 = bitcast %"class.std::__1::__compressed_pair.52"* %121 to %"struct.std::__1::__compressed_pair_elem.53"*, !dbg !8774
  %123 = load %"class.altered_carbon::js::ACAstTokenError"**, %"class.altered_carbon::js::ACAstTokenError"*** %10, align 8, !dbg !8775
  store %"class.altered_carbon::js::ACAstTokenError"** %123, %"class.altered_carbon::js::ACAstTokenError"*** %8, align 8
  %124 = load %"class.altered_carbon::js::ACAstTokenError"**, %"class.altered_carbon::js::ACAstTokenError"*** %8, align 8, !dbg !8776
  store %"struct.std::__1::__compressed_pair_elem.53"* %122, %"struct.std::__1::__compressed_pair_elem.53"** %6, align 8
  store %"class.altered_carbon::js::ACAstTokenError"** %124, %"class.altered_carbon::js::ACAstTokenError"*** %7, align 8
  %125 = load %"struct.std::__1::__compressed_pair_elem.53"*, %"struct.std::__1::__compressed_pair_elem.53"** %6, align 8
  %126 = getelementptr inbounds %"struct.std::__1::__compressed_pair_elem.53", %"struct.std::__1::__compressed_pair_elem.53"* %125, i32 0, i32 0, !dbg !8777
  %127 = load %"class.altered_carbon::js::ACAstTokenError"**, %"class.altered_carbon::js::ACAstTokenError"*** %7, align 8, !dbg !8778
  store %"class.altered_carbon::js::ACAstTokenError"** %127, %"class.altered_carbon::js::ACAstTokenError"*** %5, align 8
  %128 = load %"class.altered_carbon::js::ACAstTokenError"**, %"class.altered_carbon::js::ACAstTokenError"*** %5, align 8, !dbg !8779
  %129 = load %"class.altered_carbon::js::ACAstTokenError"*, %"class.altered_carbon::js::ACAstTokenError"** %128, align 8, !dbg !8780
  store %"class.altered_carbon::js::ACAstTokenError"* %129, %"class.altered_carbon::js::ACAstTokenError"** %126, align 8, !dbg !8777
  %130 = bitcast %"class.std::__1::__compressed_pair.52"* %121 to %"struct.std::__1::__compressed_pair_elem.54"*, !dbg !8774
  store %"class.std::__1::unique_ptr.32"* %62, %"class.std::__1::unique_ptr.32"** %58, align 8
  %131 = load %"class.std::__1::unique_ptr.32"*, %"class.std::__1::unique_ptr.32"** %58, align 8
  store %"class.std::__1::unique_ptr.32"* %131, %"class.std::__1::unique_ptr.32"** %57, align 8
  %132 = load %"class.std::__1::unique_ptr.32"*, %"class.std::__1::unique_ptr.32"** %57, align 8
  store %"class.std::__1::unique_ptr.32"* %132, %"class.std::__1::unique_ptr.32"** %54, align 8
  store %"struct.altered_carbon::js::ACLexPosition"* null, %"struct.altered_carbon::js::ACLexPosition"** %55, align 8
  %133 = load %"class.std::__1::unique_ptr.32"*, %"class.std::__1::unique_ptr.32"** %54, align 8
  %134 = getelementptr inbounds %"class.std::__1::unique_ptr.32", %"class.std::__1::unique_ptr.32"* %133, i32 0, i32 0, !dbg !8781
  store %"class.std::__1::__compressed_pair.33"* %134, %"class.std::__1::__compressed_pair.33"** %53, align 8
  %135 = load %"class.std::__1::__compressed_pair.33"*, %"class.std::__1::__compressed_pair.33"** %53, align 8
  %136 = bitcast %"class.std::__1::__compressed_pair.33"* %135 to %"struct.std::__1::__compressed_pair_elem.34"*, !dbg !8782
  store %"struct.std::__1::__compressed_pair_elem.34"* %136, %"struct.std::__1::__compressed_pair_elem.34"** %52, align 8
  %137 = load %"struct.std::__1::__compressed_pair_elem.34"*, %"struct.std::__1::__compressed_pair_elem.34"** %52, align 8
  %138 = getelementptr inbounds %"struct.std::__1::__compressed_pair_elem.34", %"struct.std::__1::__compressed_pair_elem.34"* %137, i32 0, i32 0, !dbg !8783
  %139 = load %"struct.altered_carbon::js::ACLexPosition"*, %"struct.altered_carbon::js::ACLexPosition"** %138, align 8, !dbg !8784
  store %"struct.altered_carbon::js::ACLexPosition"* %139, %"struct.altered_carbon::js::ACLexPosition"** %56, align 8, !dbg !8719
  %140 = load %"struct.altered_carbon::js::ACLexPosition"*, %"struct.altered_carbon::js::ACLexPosition"** %55, align 8, !dbg !8785
  %141 = getelementptr inbounds %"class.std::__1::unique_ptr.32", %"class.std::__1::unique_ptr.32"* %133, i32 0, i32 0, !dbg !8786
  store %"class.std::__1::__compressed_pair.33"* %141, %"class.std::__1::__compressed_pair.33"** %49, align 8
  %142 = load %"class.std::__1::__compressed_pair.33"*, %"class.std::__1::__compressed_pair.33"** %49, align 8
  %143 = bitcast %"class.std::__1::__compressed_pair.33"* %142 to %"struct.std::__1::__compressed_pair_elem.34"*, !dbg !8787
  store %"struct.std::__1::__compressed_pair_elem.34"* %143, %"struct.std::__1::__compressed_pair_elem.34"** %48, align 8
  %144 = load %"struct.std::__1::__compressed_pair_elem.34"*, %"struct.std::__1::__compressed_pair_elem.34"** %48, align 8
  %145 = getelementptr inbounds %"struct.std::__1::__compressed_pair_elem.34", %"struct.std::__1::__compressed_pair_elem.34"* %144, i32 0, i32 0, !dbg !8788
  store %"struct.altered_carbon::js::ACLexPosition"* %140, %"struct.altered_carbon::js::ACLexPosition"** %145, align 8, !dbg !8789
  %146 = load %"struct.altered_carbon::js::ACLexPosition"*, %"struct.altered_carbon::js::ACLexPosition"** %56, align 8, !dbg !8790
  %147 = icmp ne %"struct.altered_carbon::js::ACLexPosition"* %146, null, !dbg !8790
  br i1 %147, label %148, label %164, !dbg !8791

; <label>:148:                                    ; preds = %3
  %149 = getelementptr inbounds %"class.std::__1::unique_ptr.32", %"class.std::__1::unique_ptr.32"* %133, i32 0, i32 0, !dbg !8792
  store %"class.std::__1::__compressed_pair.33"* %149, %"class.std::__1::__compressed_pair.33"** %47, align 8
  %150 = load %"class.std::__1::__compressed_pair.33"*, %"class.std::__1::__compressed_pair.33"** %47, align 8
  %151 = bitcast %"class.std::__1::__compressed_pair.33"* %150 to %"struct.std::__1::__compressed_pair_elem.35"*, !dbg !8793
  store %"struct.std::__1::__compressed_pair_elem.35"* %151, %"struct.std::__1::__compressed_pair_elem.35"** %46, align 8
  %152 = load %"struct.std::__1::__compressed_pair_elem.35"*, %"struct.std::__1::__compressed_pair_elem.35"** %46, align 8
  %153 = bitcast %"struct.std::__1::__compressed_pair_elem.35"* %152 to %"struct.std::__1::default_delete.36"*, !dbg !8794
  %154 = load %"struct.altered_carbon::js::ACLexPosition"*, %"struct.altered_carbon::js::ACLexPosition"** %56, align 8, !dbg !8795
  store %"struct.std::__1::default_delete.36"* %153, %"struct.std::__1::default_delete.36"** %50, align 8
  store %"struct.altered_carbon::js::ACLexPosition"* %154, %"struct.altered_carbon::js::ACLexPosition"** %51, align 8
  %155 = load %"struct.std::__1::default_delete.36"*, %"struct.std::__1::default_delete.36"** %50, align 8
  %156 = load %"struct.altered_carbon::js::ACLexPosition"*, %"struct.altered_carbon::js::ACLexPosition"** %51, align 8, !dbg !8796
  %157 = icmp eq %"struct.altered_carbon::js::ACLexPosition"* %156, null, !dbg !8797
  br i1 %157, label %163, label %158, !dbg !8797

; <label>:158:                                    ; preds = %148
  %159 = bitcast %"struct.altered_carbon::js::ACLexPosition"* %156 to void (%"struct.altered_carbon::js::ACLexPosition"*)***, !dbg !8797
  %160 = load void (%"struct.altered_carbon::js::ACLexPosition"*)**, void (%"struct.altered_carbon::js::ACLexPosition"*)*** %159, align 8, !dbg !8797
  %161 = getelementptr inbounds void (%"struct.altered_carbon::js::ACLexPosition"*)*, void (%"struct.altered_carbon::js::ACLexPosition"*)** %160, i64 1, !dbg !8797
  %162 = load void (%"struct.altered_carbon::js::ACLexPosition"*)*, void (%"struct.altered_carbon::js::ACLexPosition"*)** %161, align 8, !dbg !8797
  call void %162(%"struct.altered_carbon::js::ACLexPosition"* %156) #2, !dbg !8797
  br label %163, !dbg !8797

; <label>:163:                                    ; preds = %158, %148
  br label %164, !dbg !8792

; <label>:164:                                    ; preds = %3, %163
  ret void, !dbg !8798
}

; Function Attrs: noinline nounwind optnone ssp uwtable
define void @_ZN14altered_carbon2js12ACAstBuilder16recoverFromErrorENSt3__110unique_ptrINS0_13ACAstBaseNodeENS2_14default_deleteIS4_EEEE(%"class.std::__1::unique_ptr.29"* noalias sret, %"class.altered_carbon::js::ACAstBuilder"*, %"class.std::__1::unique_ptr.29"*) #1 align 2 !dbg !8799 {
  %4 = alloca %"struct.std::__1::__compressed_pair_elem.60"*, align 8
  call void @llvm.dbg.declare(metadata %"struct.std::__1::__compressed_pair_elem.60"** %4, metadata !8800, metadata !DIExpression()), !dbg !8803
  %5 = alloca %"class.std::__1::__compressed_pair.58"*, align 8
  call void @llvm.dbg.declare(metadata %"class.std::__1::__compressed_pair.58"** %5, metadata !8821, metadata !DIExpression()), !dbg !8823
  %6 = alloca %"class.std::__1::unique_ptr.57"*, align 8
  call void @llvm.dbg.declare(metadata %"class.std::__1::unique_ptr.57"** %6, metadata !8824, metadata !DIExpression()), !dbg !8826
  %7 = alloca %"struct.std::__1::default_delete.61"*, align 8
  call void @llvm.dbg.declare(metadata %"struct.std::__1::default_delete.61"** %7, metadata !8827, metadata !DIExpression()), !dbg !8836
  %8 = alloca %"class.altered_carbon::js::ACAstSyntaxError"**, align 8
  call void @llvm.dbg.declare(metadata %"class.altered_carbon::js::ACAstSyntaxError"*** %8, metadata !8838, metadata !DIExpression()), !dbg !8847
  %9 = alloca %"struct.std::__1::__compressed_pair_elem.31"*, align 8
  call void @llvm.dbg.declare(metadata %"struct.std::__1::__compressed_pair_elem.31"** %9, metadata !8866, metadata !DIExpression()), !dbg !8867
  %10 = alloca %"class.altered_carbon::js::ACAstSyntaxError"**, align 8
  call void @llvm.dbg.declare(metadata %"class.altered_carbon::js::ACAstSyntaxError"*** %10, metadata !8868, metadata !DIExpression()), !dbg !8869
  %11 = alloca %"struct.std::__1::default_delete.61"*, align 8
  call void @llvm.dbg.declare(metadata %"struct.std::__1::default_delete.61"** %11, metadata !8827, metadata !DIExpression()), !dbg !8870
  %12 = alloca %"struct.std::__1::default_delete.46"*, align 8
  call void @llvm.dbg.declare(metadata %"struct.std::__1::default_delete.46"** %12, metadata !8872, metadata !DIExpression()), !dbg !8878
  %13 = alloca %"struct.std::__1::default_delete.61"*, align 8
  call void @llvm.dbg.declare(metadata %"struct.std::__1::default_delete.61"** %13, metadata !8887, metadata !DIExpression()), !dbg !8888
  %14 = alloca i8*, align 8
  call void @llvm.dbg.declare(metadata i8** %14, metadata !8889, metadata !DIExpression()), !dbg !8890
  %15 = alloca %"struct.std::__1::default_delete.61"*, align 8
  call void @llvm.dbg.declare(metadata %"struct.std::__1::default_delete.61"** %15, metadata !8827, metadata !DIExpression()), !dbg !8891
  %16 = alloca %"struct.std::__1::__compressed_pair_elem.45"*, align 8
  call void @llvm.dbg.declare(metadata %"struct.std::__1::__compressed_pair_elem.45"** %16, metadata !8893, metadata !DIExpression()), !dbg !8894
  %17 = alloca %"struct.std::__1::default_delete.61"*, align 8
  call void @llvm.dbg.declare(metadata %"struct.std::__1::default_delete.61"** %17, metadata !8895, metadata !DIExpression()), !dbg !8896
  %18 = alloca %"class.altered_carbon::js::ACAstSyntaxError"**, align 8
  call void @llvm.dbg.declare(metadata %"class.altered_carbon::js::ACAstSyntaxError"*** %18, metadata !8838, metadata !DIExpression()), !dbg !8897
  %19 = alloca %"class.std::__1::__compressed_pair.30"*, align 8
  call void @llvm.dbg.declare(metadata %"class.std::__1::__compressed_pair.30"** %19, metadata !8899, metadata !DIExpression()), !dbg !8900
  %20 = alloca %"class.altered_carbon::js::ACAstSyntaxError"**, align 8
  call void @llvm.dbg.declare(metadata %"class.altered_carbon::js::ACAstSyntaxError"*** %20, metadata !8901, metadata !DIExpression()), !dbg !8902
  %21 = alloca %"struct.std::__1::default_delete.61"*, align 8
  call void @llvm.dbg.declare(metadata %"struct.std::__1::default_delete.61"** %21, metadata !8903, metadata !DIExpression()), !dbg !8904
  %22 = alloca %"class.std::__1::__compressed_pair.30"*, align 8
  call void @llvm.dbg.declare(metadata %"class.std::__1::__compressed_pair.30"** %22, metadata !8905, metadata !DIExpression()), !dbg !8906
  %23 = alloca %"class.altered_carbon::js::ACAstSyntaxError"**, align 8
  call void @llvm.dbg.declare(metadata %"class.altered_carbon::js::ACAstSyntaxError"*** %23, metadata !8907, metadata !DIExpression()), !dbg !8908
  %24 = alloca %"struct.std::__1::default_delete.61"*, align 8
  call void @llvm.dbg.declare(metadata %"struct.std::__1::default_delete.61"** %24, metadata !8909, metadata !DIExpression()), !dbg !8910
  %25 = alloca %"struct.std::__1::__compressed_pair_elem.59"*, align 8
  call void @llvm.dbg.declare(metadata %"struct.std::__1::__compressed_pair_elem.59"** %25, metadata !8911, metadata !DIExpression()), !dbg !8914
  %26 = alloca %"class.std::__1::__compressed_pair.58"*, align 8
  call void @llvm.dbg.declare(metadata %"class.std::__1::__compressed_pair.58"** %26, metadata !8920, metadata !DIExpression()), !dbg !8921
  %27 = alloca %"struct.std::__1::__compressed_pair_elem.59"*, align 8
  call void @llvm.dbg.declare(metadata %"struct.std::__1::__compressed_pair_elem.59"** %27, metadata !8911, metadata !DIExpression()), !dbg !8922
  %28 = alloca %"class.std::__1::__compressed_pair.58"*, align 8
  call void @llvm.dbg.declare(metadata %"class.std::__1::__compressed_pair.58"** %28, metadata !8920, metadata !DIExpression()), !dbg !8925
  %29 = alloca %"class.std::__1::unique_ptr.57"*, align 8
  call void @llvm.dbg.declare(metadata %"class.std::__1::unique_ptr.57"** %29, metadata !8926, metadata !DIExpression()), !dbg !8927
  %30 = alloca %"class.altered_carbon::js::ACAstSyntaxError"*, align 8
  call void @llvm.dbg.declare(metadata %"class.altered_carbon::js::ACAstSyntaxError"** %30, metadata !8928, metadata !DIExpression()), !dbg !8929
  %31 = alloca %"class.std::__1::unique_ptr.29"*, align 8
  call void @llvm.dbg.declare(metadata %"class.std::__1::unique_ptr.29"** %31, metadata !8930, metadata !DIExpression()), !dbg !8931
  %32 = alloca %"class.std::__1::unique_ptr.57"*, align 8
  call void @llvm.dbg.declare(metadata %"class.std::__1::unique_ptr.57"** %32, metadata !8932, metadata !DIExpression()), !dbg !8933
  %33 = alloca %"class.altered_carbon::js::ACAstSyntaxError"*, align 8
  %34 = alloca %"class.std::__1::unique_ptr.29"*, align 8
  call void @llvm.dbg.declare(metadata %"class.std::__1::unique_ptr.29"** %34, metadata !8934, metadata !DIExpression()), !dbg !8935
  %35 = alloca %"class.std::__1::unique_ptr.57"*, align 8
  call void @llvm.dbg.declare(metadata %"class.std::__1::unique_ptr.57"** %35, metadata !8936, metadata !DIExpression()), !dbg !8937
  %36 = alloca %"class.std::__1::unique_ptr.29"*, align 8
  call void @llvm.dbg.declare(metadata %"class.std::__1::unique_ptr.29"** %36, metadata !8938, metadata !DIExpression()), !dbg !8947
  %37 = alloca %"struct.std::__1::__compressed_pair_elem.60"*, align 8
  call void @llvm.dbg.declare(metadata %"struct.std::__1::__compressed_pair_elem.60"** %37, metadata !8800, metadata !DIExpression()), !dbg !8949
  %38 = alloca %"class.std::__1::__compressed_pair.58"*, align 8
  call void @llvm.dbg.declare(metadata %"class.std::__1::__compressed_pair.58"** %38, metadata !8821, metadata !DIExpression()), !dbg !8960
  %39 = alloca %"struct.std::__1::__compressed_pair_elem.59"*, align 8
  call void @llvm.dbg.declare(metadata %"struct.std::__1::__compressed_pair_elem.59"** %39, metadata !8911, metadata !DIExpression()), !dbg !8961
  %40 = alloca %"class.std::__1::__compressed_pair.58"*, align 8
  call void @llvm.dbg.declare(metadata %"class.std::__1::__compressed_pair.58"** %40, metadata !8920, metadata !DIExpression()), !dbg !8964
  %41 = alloca %"struct.std::__1::default_delete.61"*, align 8
  call void @llvm.dbg.declare(metadata %"struct.std::__1::default_delete.61"** %41, metadata !8965, metadata !DIExpression()), !dbg !8968
  %42 = alloca %"class.altered_carbon::js::ACAstSyntaxError"*, align 8
  call void @llvm.dbg.declare(metadata %"class.altered_carbon::js::ACAstSyntaxError"** %42, metadata !8970, metadata !DIExpression()), !dbg !8971
  %43 = alloca %"struct.std::__1::__compressed_pair_elem.59"*, align 8
  call void @llvm.dbg.declare(metadata %"struct.std::__1::__compressed_pair_elem.59"** %43, metadata !8911, metadata !DIExpression()), !dbg !8972
  %44 = alloca %"class.std::__1::__compressed_pair.58"*, align 8
  call void @llvm.dbg.declare(metadata %"class.std::__1::__compressed_pair.58"** %44, metadata !8920, metadata !DIExpression()), !dbg !8975
  %45 = alloca %"class.std::__1::unique_ptr.57"*, align 8
  call void @llvm.dbg.declare(metadata %"class.std::__1::unique_ptr.57"** %45, metadata !8976, metadata !DIExpression()), !dbg !8977
  %46 = alloca %"class.altered_carbon::js::ACAstSyntaxError"*, align 8
  call void @llvm.dbg.declare(metadata %"class.altered_carbon::js::ACAstSyntaxError"** %46, metadata !8978, metadata !DIExpression()), !dbg !8979
  %47 = alloca %"class.altered_carbon::js::ACAstSyntaxError"*, align 8
  call void @llvm.dbg.declare(metadata %"class.altered_carbon::js::ACAstSyntaxError"** %47, metadata !8980, metadata !DIExpression()), !dbg !8981
  %48 = alloca %"class.std::__1::unique_ptr.57"*, align 8
  call void @llvm.dbg.declare(metadata %"class.std::__1::unique_ptr.57"** %48, metadata !8982, metadata !DIExpression()), !dbg !8983
  %49 = alloca %"class.std::__1::unique_ptr.57"*, align 8
  call void @llvm.dbg.declare(metadata %"class.std::__1::unique_ptr.57"** %49, metadata !8984, metadata !DIExpression()), !dbg !8985
  %50 = alloca %"class.std::__1::unique_ptr.32"*, align 8
  call void @llvm.dbg.declare(metadata %"class.std::__1::unique_ptr.32"** %50, metadata !7954, metadata !DIExpression()), !dbg !8986
  %51 = alloca %"struct.std::__1::__compressed_pair_elem.31"*, align 8
  call void @llvm.dbg.declare(metadata %"struct.std::__1::__compressed_pair_elem.31"** %51, metadata !8989, metadata !DIExpression()), !dbg !8992
  %52 = alloca %"class.std::__1::__compressed_pair.30"*, align 8
  call void @llvm.dbg.declare(metadata %"class.std::__1::__compressed_pair.30"** %52, metadata !8998, metadata !DIExpression()), !dbg !9000
  %53 = alloca %"class.std::__1::unique_ptr.29"*, align 8
  call void @llvm.dbg.declare(metadata %"class.std::__1::unique_ptr.29"** %53, metadata !9001, metadata !DIExpression()), !dbg !9002
  %54 = alloca %"class.std::__1::unique_ptr.29"*, align 8
  call void @llvm.dbg.declare(metadata %"class.std::__1::unique_ptr.29"** %54, metadata !8938, metadata !DIExpression()), !dbg !9003
  %55 = alloca %"class.std::__1::unique_ptr.29"*, align 8
  call void @llvm.dbg.declare(metadata %"class.std::__1::unique_ptr.29"** %55, metadata !8938, metadata !DIExpression()), !dbg !9005
  %56 = alloca %"class.std::__1::unique_ptr.32"*, align 8
  call void @llvm.dbg.declare(metadata %"class.std::__1::unique_ptr.32"** %56, metadata !7954, metadata !DIExpression()), !dbg !9007
  %57 = alloca %"struct.std::__1::__compressed_pair_elem.60"*, align 8
  call void @llvm.dbg.declare(metadata %"struct.std::__1::__compressed_pair_elem.60"** %57, metadata !8800, metadata !DIExpression()), !dbg !9009
  %58 = alloca %"class.std::__1::__compressed_pair.58"*, align 8
  call void @llvm.dbg.declare(metadata %"class.std::__1::__compressed_pair.58"** %58, metadata !8821, metadata !DIExpression()), !dbg !9015
  %59 = alloca %"class.std::__1::unique_ptr.57"*, align 8
  call void @llvm.dbg.declare(metadata %"class.std::__1::unique_ptr.57"** %59, metadata !8824, metadata !DIExpression()), !dbg !9016
  %60 = alloca %"struct.std::__1::default_delete.61"*, align 8
  call void @llvm.dbg.declare(metadata %"struct.std::__1::default_delete.61"** %60, metadata !8827, metadata !DIExpression()), !dbg !9017
  %61 = alloca %"class.altered_carbon::js::ACAstSyntaxError"**, align 8
  call void @llvm.dbg.declare(metadata %"class.altered_carbon::js::ACAstSyntaxError"*** %61, metadata !8838, metadata !DIExpression()), !dbg !9019
  %62 = alloca %"struct.std::__1::__compressed_pair_elem.31"*, align 8
  call void @llvm.dbg.declare(metadata %"struct.std::__1::__compressed_pair_elem.31"** %62, metadata !8866, metadata !DIExpression()), !dbg !9024
  %63 = alloca %"class.altered_carbon::js::ACAstSyntaxError"**, align 8
  call void @llvm.dbg.declare(metadata %"class.altered_carbon::js::ACAstSyntaxError"*** %63, metadata !8868, metadata !DIExpression()), !dbg !9025
  %64 = alloca %"struct.std::__1::default_delete.61"*, align 8
  call void @llvm.dbg.declare(metadata %"struct.std::__1::default_delete.61"** %64, metadata !8827, metadata !DIExpression()), !dbg !9026
  %65 = alloca %"struct.std::__1::default_delete.46"*, align 8
  call void @llvm.dbg.declare(metadata %"struct.std::__1::default_delete.46"** %65, metadata !8872, metadata !DIExpression()), !dbg !9028
  %66 = alloca %"struct.std::__1::default_delete.61"*, align 8
  call void @llvm.dbg.declare(metadata %"struct.std::__1::default_delete.61"** %66, metadata !8887, metadata !DIExpression()), !dbg !9031
  %67 = alloca i8*, align 8
  call void @llvm.dbg.declare(metadata i8** %67, metadata !8889, metadata !DIExpression()), !dbg !9032
  %68 = alloca %"struct.std::__1::default_delete.61"*, align 8
  call void @llvm.dbg.declare(metadata %"struct.std::__1::default_delete.61"** %68, metadata !8827, metadata !DIExpression()), !dbg !9033
  %69 = alloca %"struct.std::__1::__compressed_pair_elem.45"*, align 8
  call void @llvm.dbg.declare(metadata %"struct.std::__1::__compressed_pair_elem.45"** %69, metadata !8893, metadata !DIExpression()), !dbg !9035
  %70 = alloca %"struct.std::__1::default_delete.61"*, align 8
  call void @llvm.dbg.declare(metadata %"struct.std::__1::default_delete.61"** %70, metadata !8895, metadata !DIExpression()), !dbg !9036
  %71 = alloca %"class.altered_carbon::js::ACAstSyntaxError"**, align 8
  call void @llvm.dbg.declare(metadata %"class.altered_carbon::js::ACAstSyntaxError"*** %71, metadata !8838, metadata !DIExpression()), !dbg !9037
  %72 = alloca %"class.std::__1::__compressed_pair.30"*, align 8
  call void @llvm.dbg.declare(metadata %"class.std::__1::__compressed_pair.30"** %72, metadata !8899, metadata !DIExpression()), !dbg !9039
  %73 = alloca %"class.altered_carbon::js::ACAstSyntaxError"**, align 8
  call void @llvm.dbg.declare(metadata %"class.altered_carbon::js::ACAstSyntaxError"*** %73, metadata !8901, metadata !DIExpression()), !dbg !9040
  %74 = alloca %"struct.std::__1::default_delete.61"*, align 8
  call void @llvm.dbg.declare(metadata %"struct.std::__1::default_delete.61"** %74, metadata !8903, metadata !DIExpression()), !dbg !9041
  %75 = alloca %"class.std::__1::__compressed_pair.30"*, align 8
  call void @llvm.dbg.declare(metadata %"class.std::__1::__compressed_pair.30"** %75, metadata !8905, metadata !DIExpression()), !dbg !9042
  %76 = alloca %"class.altered_carbon::js::ACAstSyntaxError"**, align 8
  call void @llvm.dbg.declare(metadata %"class.altered_carbon::js::ACAstSyntaxError"*** %76, metadata !8907, metadata !DIExpression()), !dbg !9043
  %77 = alloca %"struct.std::__1::default_delete.61"*, align 8
  call void @llvm.dbg.declare(metadata %"struct.std::__1::default_delete.61"** %77, metadata !8909, metadata !DIExpression()), !dbg !9044
  %78 = alloca %"struct.std::__1::__compressed_pair_elem.59"*, align 8
  call void @llvm.dbg.declare(metadata %"struct.std::__1::__compressed_pair_elem.59"** %78, metadata !8911, metadata !DIExpression()), !dbg !9045
  %79 = alloca %"class.std::__1::__compressed_pair.58"*, align 8
  call void @llvm.dbg.declare(metadata %"class.std::__1::__compressed_pair.58"** %79, metadata !8920, metadata !DIExpression()), !dbg !9049
  %80 = alloca %"struct.std::__1::__compressed_pair_elem.59"*, align 8
  call void @llvm.dbg.declare(metadata %"struct.std::__1::__compressed_pair_elem.59"** %80, metadata !8911, metadata !DIExpression()), !dbg !9050
  %81 = alloca %"class.std::__1::__compressed_pair.58"*, align 8
  call void @llvm.dbg.declare(metadata %"class.std::__1::__compressed_pair.58"** %81, metadata !8920, metadata !DIExpression()), !dbg !9053
  %82 = alloca %"class.std::__1::unique_ptr.57"*, align 8
  call void @llvm.dbg.declare(metadata %"class.std::__1::unique_ptr.57"** %82, metadata !8926, metadata !DIExpression()), !dbg !9054
  %83 = alloca %"class.altered_carbon::js::ACAstSyntaxError"*, align 8
  call void @llvm.dbg.declare(metadata %"class.altered_carbon::js::ACAstSyntaxError"** %83, metadata !8928, metadata !DIExpression()), !dbg !9055
  %84 = alloca %"class.std::__1::unique_ptr.29"*, align 8
  call void @llvm.dbg.declare(metadata %"class.std::__1::unique_ptr.29"** %84, metadata !8930, metadata !DIExpression()), !dbg !9056
  %85 = alloca %"class.std::__1::unique_ptr.57"*, align 8
  call void @llvm.dbg.declare(metadata %"class.std::__1::unique_ptr.57"** %85, metadata !8932, metadata !DIExpression()), !dbg !9057
  %86 = alloca %"class.altered_carbon::js::ACAstSyntaxError"*, align 8
  %87 = alloca %"class.std::__1::unique_ptr.29"*, align 8
  call void @llvm.dbg.declare(metadata %"class.std::__1::unique_ptr.29"** %87, metadata !8934, metadata !DIExpression()), !dbg !9058
  %88 = alloca %"class.std::__1::unique_ptr.57"*, align 8
  call void @llvm.dbg.declare(metadata %"class.std::__1::unique_ptr.57"** %88, metadata !8936, metadata !DIExpression()), !dbg !9059
  %89 = alloca %"struct.std::__1::__compressed_pair_elem.31"*, align 8
  call void @llvm.dbg.declare(metadata %"struct.std::__1::__compressed_pair_elem.31"** %89, metadata !8989, metadata !DIExpression()), !dbg !9060
  %90 = alloca %"class.std::__1::__compressed_pair.30"*, align 8
  call void @llvm.dbg.declare(metadata %"class.std::__1::__compressed_pair.30"** %90, metadata !8998, metadata !DIExpression()), !dbg !9064
  %91 = alloca %"class.std::__1::unique_ptr.29"*, align 8
  call void @llvm.dbg.declare(metadata %"class.std::__1::unique_ptr.29"** %91, metadata !9001, metadata !DIExpression()), !dbg !9065
  %92 = alloca %"struct.std::__1::__compressed_pair_elem.35"*, align 8
  call void @llvm.dbg.declare(metadata %"struct.std::__1::__compressed_pair_elem.35"** %92, metadata !8145, metadata !DIExpression()), !dbg !9066
  %93 = alloca %"class.std::__1::__compressed_pair.33"*, align 8
  call void @llvm.dbg.declare(metadata %"class.std::__1::__compressed_pair.33"** %93, metadata !8160, metadata !DIExpression()), !dbg !9072
  %94 = alloca %"struct.std::__1::__compressed_pair_elem.34"*, align 8
  call void @llvm.dbg.declare(metadata %"struct.std::__1::__compressed_pair_elem.34"** %94, metadata !8163, metadata !DIExpression()), !dbg !9073
  %95 = alloca %"class.std::__1::__compressed_pair.33"*, align 8
  call void @llvm.dbg.declare(metadata %"class.std::__1::__compressed_pair.33"** %95, metadata !8170, metadata !DIExpression()), !dbg !9076
  %96 = alloca %"struct.std::__1::default_delete.36"*, align 8
  call void @llvm.dbg.declare(metadata %"struct.std::__1::default_delete.36"** %96, metadata !8172, metadata !DIExpression()), !dbg !9077
  %97 = alloca %"struct.altered_carbon::js::ACLexPosition"*, align 8
  call void @llvm.dbg.declare(metadata %"struct.altered_carbon::js::ACLexPosition"** %97, metadata !8177, metadata !DIExpression()), !dbg !9079
  %98 = alloca %"struct.std::__1::__compressed_pair_elem.34"*, align 8
  call void @llvm.dbg.declare(metadata %"struct.std::__1::__compressed_pair_elem.34"** %98, metadata !8163, metadata !DIExpression()), !dbg !9080
  %99 = alloca %"class.std::__1::__compressed_pair.33"*, align 8
  call void @llvm.dbg.declare(metadata %"class.std::__1::__compressed_pair.33"** %99, metadata !8170, metadata !DIExpression()), !dbg !9083
  %100 = alloca %"class.std::__1::unique_ptr.32"*, align 8
  call void @llvm.dbg.declare(metadata %"class.std::__1::unique_ptr.32"** %100, metadata !8183, metadata !DIExpression()), !dbg !9084
  %101 = alloca %"struct.altered_carbon::js::ACLexPosition"*, align 8
  call void @llvm.dbg.declare(metadata %"struct.altered_carbon::js::ACLexPosition"** %101, metadata !8186, metadata !DIExpression()), !dbg !9085
  %102 = alloca %"struct.altered_carbon::js::ACLexPosition"*, align 8
  call void @llvm.dbg.declare(metadata %"struct.altered_carbon::js::ACLexPosition"** %102, metadata !8188, metadata !DIExpression()), !dbg !9086
  %103 = alloca %"class.std::__1::unique_ptr.32"*, align 8
  call void @llvm.dbg.declare(metadata %"class.std::__1::unique_ptr.32"** %103, metadata !8190, metadata !DIExpression()), !dbg !9087
  %104 = alloca %"class.std::__1::unique_ptr.32"*, align 8
  call void @llvm.dbg.declare(metadata %"class.std::__1::unique_ptr.32"** %104, metadata !8192, metadata !DIExpression()), !dbg !9088
  %105 = alloca %"struct.std::__1::__compressed_pair_elem.60"*, align 8
  call void @llvm.dbg.declare(metadata %"struct.std::__1::__compressed_pair_elem.60"** %105, metadata !8800, metadata !DIExpression()), !dbg !9089
  %106 = alloca %"class.std::__1::__compressed_pair.58"*, align 8
  call void @llvm.dbg.declare(metadata %"class.std::__1::__compressed_pair.58"** %106, metadata !8821, metadata !DIExpression()), !dbg !9095
  %107 = alloca %"struct.std::__1::__compressed_pair_elem.59"*, align 8
  call void @llvm.dbg.declare(metadata %"struct.std::__1::__compressed_pair_elem.59"** %107, metadata !8911, metadata !DIExpression()), !dbg !9096
  %108 = alloca %"class.std::__1::__compressed_pair.58"*, align 8
  call void @llvm.dbg.declare(metadata %"class.std::__1::__compressed_pair.58"** %108, metadata !8920, metadata !DIExpression()), !dbg !9099
  %109 = alloca %"struct.std::__1::default_delete.61"*, align 8
  call void @llvm.dbg.declare(metadata %"struct.std::__1::default_delete.61"** %109, metadata !8965, metadata !DIExpression()), !dbg !9100
  %110 = alloca %"class.altered_carbon::js::ACAstSyntaxError"*, align 8
  call void @llvm.dbg.declare(metadata %"class.altered_carbon::js::ACAstSyntaxError"** %110, metadata !8970, metadata !DIExpression()), !dbg !9102
  %111 = alloca %"struct.std::__1::__compressed_pair_elem.59"*, align 8
  call void @llvm.dbg.declare(metadata %"struct.std::__1::__compressed_pair_elem.59"** %111, metadata !8911, metadata !DIExpression()), !dbg !9103
  %112 = alloca %"class.std::__1::__compressed_pair.58"*, align 8
  call void @llvm.dbg.declare(metadata %"class.std::__1::__compressed_pair.58"** %112, metadata !8920, metadata !DIExpression()), !dbg !9106
  %113 = alloca %"class.std::__1::unique_ptr.57"*, align 8
  call void @llvm.dbg.declare(metadata %"class.std::__1::unique_ptr.57"** %113, metadata !8976, metadata !DIExpression()), !dbg !9107
  %114 = alloca %"class.altered_carbon::js::ACAstSyntaxError"*, align 8
  call void @llvm.dbg.declare(metadata %"class.altered_carbon::js::ACAstSyntaxError"** %114, metadata !8978, metadata !DIExpression()), !dbg !9108
  %115 = alloca %"class.altered_carbon::js::ACAstSyntaxError"*, align 8
  call void @llvm.dbg.declare(metadata %"class.altered_carbon::js::ACAstSyntaxError"** %115, metadata !8980, metadata !DIExpression()), !dbg !9109
  %116 = alloca %"class.std::__1::unique_ptr.57"*, align 8
  call void @llvm.dbg.declare(metadata %"class.std::__1::unique_ptr.57"** %116, metadata !8982, metadata !DIExpression()), !dbg !9110
  %117 = alloca %"class.std::__1::unique_ptr.57"*, align 8
  call void @llvm.dbg.declare(metadata %"class.std::__1::unique_ptr.57"** %117, metadata !8984, metadata !DIExpression()), !dbg !9111
  %118 = alloca %"struct.altered_carbon::js::ACLexPosition"**, align 8
  call void @llvm.dbg.declare(metadata %"struct.altered_carbon::js::ACLexPosition"*** %118, metadata !8231, metadata !DIExpression()), !dbg !9112
  %119 = alloca %"struct.std::__1::__compressed_pair_elem.34"*, align 8
  call void @llvm.dbg.declare(metadata %"struct.std::__1::__compressed_pair_elem.34"** %119, metadata !8264, metadata !DIExpression()), !dbg !9119
  %120 = alloca %"struct.altered_carbon::js::ACLexPosition"**, align 8
  call void @llvm.dbg.declare(metadata %"struct.altered_carbon::js::ACLexPosition"*** %120, metadata !8266, metadata !DIExpression()), !dbg !9120
  %121 = alloca %"struct.altered_carbon::js::ACLexPosition"**, align 8
  call void @llvm.dbg.declare(metadata %"struct.altered_carbon::js::ACLexPosition"*** %121, metadata !8231, metadata !DIExpression()), !dbg !9121
  %122 = alloca %"class.std::__1::__compressed_pair.33"*, align 8
  call void @llvm.dbg.declare(metadata %"class.std::__1::__compressed_pair.33"** %122, metadata !8270, metadata !DIExpression()), !dbg !9123
  %123 = alloca %"struct.altered_carbon::js::ACLexPosition"**, align 8
  call void @llvm.dbg.declare(metadata %"struct.altered_carbon::js::ACLexPosition"*** %123, metadata !8272, metadata !DIExpression()), !dbg !9124
  %124 = alloca %"class.std::__1::__compressed_pair.33"*, align 8
  call void @llvm.dbg.declare(metadata %"class.std::__1::__compressed_pair.33"** %124, metadata !8274, metadata !DIExpression()), !dbg !9125
  %125 = alloca %"struct.altered_carbon::js::ACLexPosition"**, align 8
  call void @llvm.dbg.declare(metadata %"struct.altered_carbon::js::ACLexPosition"*** %125, metadata !8276, metadata !DIExpression()), !dbg !9126
  %126 = alloca %"class.std::__1::unique_ptr.32"*, align 8
  call void @llvm.dbg.declare(metadata %"class.std::__1::unique_ptr.32"** %126, metadata !8278, metadata !DIExpression()), !dbg !9127
  %127 = alloca %"struct.altered_carbon::js::ACLexPosition"*, align 8
  call void @llvm.dbg.declare(metadata %"struct.altered_carbon::js::ACLexPosition"** %127, metadata !8280, metadata !DIExpression()), !dbg !9128
  %128 = alloca %"class.std::__1::unique_ptr.32"*, align 8
  call void @llvm.dbg.declare(metadata %"class.std::__1::unique_ptr.32"** %128, metadata !8282, metadata !DIExpression()), !dbg !9129
  %129 = alloca %"struct.altered_carbon::js::ACLexPosition"*, align 8
  call void @llvm.dbg.declare(metadata %"struct.altered_carbon::js::ACLexPosition"** %129, metadata !8284, metadata !DIExpression()), !dbg !9130
  %130 = alloca %"struct.std::__1::__compressed_pair_elem.35"*, align 8
  call void @llvm.dbg.declare(metadata %"struct.std::__1::__compressed_pair_elem.35"** %130, metadata !8145, metadata !DIExpression()), !dbg !9131
  %131 = alloca %"class.std::__1::__compressed_pair.33"*, align 8
  call void @llvm.dbg.declare(metadata %"class.std::__1::__compressed_pair.33"** %131, metadata !8160, metadata !DIExpression()), !dbg !9137
  %132 = alloca %"struct.std::__1::__compressed_pair_elem.34"*, align 8
  call void @llvm.dbg.declare(metadata %"struct.std::__1::__compressed_pair_elem.34"** %132, metadata !8163, metadata !DIExpression()), !dbg !9138
  %133 = alloca %"class.std::__1::__compressed_pair.33"*, align 8
  call void @llvm.dbg.declare(metadata %"class.std::__1::__compressed_pair.33"** %133, metadata !8170, metadata !DIExpression()), !dbg !9141
  %134 = alloca %"struct.std::__1::default_delete.36"*, align 8
  call void @llvm.dbg.declare(metadata %"struct.std::__1::default_delete.36"** %134, metadata !8172, metadata !DIExpression()), !dbg !9142
  %135 = alloca %"struct.altered_carbon::js::ACLexPosition"*, align 8
  call void @llvm.dbg.declare(metadata %"struct.altered_carbon::js::ACLexPosition"** %135, metadata !8177, metadata !DIExpression()), !dbg !9144
  %136 = alloca %"struct.std::__1::__compressed_pair_elem.34"*, align 8
  call void @llvm.dbg.declare(metadata %"struct.std::__1::__compressed_pair_elem.34"** %136, metadata !8163, metadata !DIExpression()), !dbg !9145
  %137 = alloca %"class.std::__1::__compressed_pair.33"*, align 8
  call void @llvm.dbg.declare(metadata %"class.std::__1::__compressed_pair.33"** %137, metadata !8170, metadata !DIExpression()), !dbg !9148
  %138 = alloca %"class.std::__1::unique_ptr.32"*, align 8
  call void @llvm.dbg.declare(metadata %"class.std::__1::unique_ptr.32"** %138, metadata !8183, metadata !DIExpression()), !dbg !9149
  %139 = alloca %"struct.altered_carbon::js::ACLexPosition"*, align 8
  call void @llvm.dbg.declare(metadata %"struct.altered_carbon::js::ACLexPosition"** %139, metadata !8186, metadata !DIExpression()), !dbg !9150
  %140 = alloca %"struct.altered_carbon::js::ACLexPosition"*, align 8
  call void @llvm.dbg.declare(metadata %"struct.altered_carbon::js::ACLexPosition"** %140, metadata !8188, metadata !DIExpression()), !dbg !9151
  %141 = alloca %"class.std::__1::unique_ptr.32"*, align 8
  call void @llvm.dbg.declare(metadata %"class.std::__1::unique_ptr.32"** %141, metadata !8190, metadata !DIExpression()), !dbg !9152
  %142 = alloca %"class.std::__1::unique_ptr.32"*, align 8
  call void @llvm.dbg.declare(metadata %"class.std::__1::unique_ptr.32"** %142, metadata !8192, metadata !DIExpression()), !dbg !9153
  %143 = alloca %"struct.std::__1::__compressed_pair_elem.34"*, align 8
  call void @llvm.dbg.declare(metadata %"struct.std::__1::__compressed_pair_elem.34"** %143, metadata !8163, metadata !DIExpression()), !dbg !9154
  %144 = alloca %"class.std::__1::__compressed_pair.33"*, align 8
  call void @llvm.dbg.declare(metadata %"class.std::__1::__compressed_pair.33"** %144, metadata !8170, metadata !DIExpression()), !dbg !9158
  %145 = alloca %"struct.std::__1::__compressed_pair_elem.34"*, align 8
  call void @llvm.dbg.declare(metadata %"struct.std::__1::__compressed_pair_elem.34"** %145, metadata !8163, metadata !DIExpression()), !dbg !9159
  %146 = alloca %"class.std::__1::__compressed_pair.33"*, align 8
  call void @llvm.dbg.declare(metadata %"class.std::__1::__compressed_pair.33"** %146, metadata !8170, metadata !DIExpression()), !dbg !9162
  %147 = alloca %"class.std::__1::unique_ptr.32"*, align 8
  call void @llvm.dbg.declare(metadata %"class.std::__1::unique_ptr.32"** %147, metadata !8319, metadata !DIExpression()), !dbg !9163
  %148 = alloca %"struct.altered_carbon::js::ACLexPosition"*, align 8
  call void @llvm.dbg.declare(metadata %"struct.altered_carbon::js::ACLexPosition"** %148, metadata !8321, metadata !DIExpression()), !dbg !9164
  %149 = alloca %"struct.std::__1::__compressed_pair_elem.45"*, align 8
  call void @llvm.dbg.declare(metadata %"struct.std::__1::__compressed_pair_elem.45"** %149, metadata !9165, metadata !DIExpression()), !dbg !9167
  %150 = alloca %"class.std::__1::__compressed_pair.30"*, align 8
  call void @llvm.dbg.declare(metadata %"class.std::__1::__compressed_pair.30"** %150, metadata !9179, metadata !DIExpression()), !dbg !9180
  %151 = alloca %"struct.std::__1::__compressed_pair_elem.31"*, align 8
  call void @llvm.dbg.declare(metadata %"struct.std::__1::__compressed_pair_elem.31"** %151, metadata !9181, metadata !DIExpression()), !dbg !9183
  %152 = alloca %"class.std::__1::__compressed_pair.30"*, align 8
  call void @llvm.dbg.declare(metadata %"class.std::__1::__compressed_pair.30"** %152, metadata !9187, metadata !DIExpression()), !dbg !9188
  %153 = alloca %"struct.std::__1::default_delete.46"*, align 8
  call void @llvm.dbg.declare(metadata %"struct.std::__1::default_delete.46"** %153, metadata !9189, metadata !DIExpression()), !dbg !9192
  %154 = alloca %"class.altered_carbon::js::ACAstBaseNode"*, align 8
  call void @llvm.dbg.declare(metadata %"class.altered_carbon::js::ACAstBaseNode"** %154, metadata !9194, metadata !DIExpression()), !dbg !9195
  %155 = alloca %"struct.std::__1::__compressed_pair_elem.31"*, align 8
  call void @llvm.dbg.declare(metadata %"struct.std::__1::__compressed_pair_elem.31"** %155, metadata !9181, metadata !DIExpression()), !dbg !9196
  %156 = alloca %"class.std::__1::__compressed_pair.30"*, align 8
  call void @llvm.dbg.declare(metadata %"class.std::__1::__compressed_pair.30"** %156, metadata !9187, metadata !DIExpression()), !dbg !9199
  %157 = alloca %"class.std::__1::unique_ptr.29"*, align 8
  call void @llvm.dbg.declare(metadata %"class.std::__1::unique_ptr.29"** %157, metadata !9200, metadata !DIExpression()), !dbg !9201
  %158 = alloca %"class.altered_carbon::js::ACAstBaseNode"*, align 8
  call void @llvm.dbg.declare(metadata %"class.altered_carbon::js::ACAstBaseNode"** %158, metadata !9202, metadata !DIExpression()), !dbg !9203
  %159 = alloca %"class.altered_carbon::js::ACAstBaseNode"*, align 8
  call void @llvm.dbg.declare(metadata %"class.altered_carbon::js::ACAstBaseNode"** %159, metadata !9204, metadata !DIExpression()), !dbg !9205
  %160 = alloca %"class.std::__1::unique_ptr.29"*, align 8
  call void @llvm.dbg.declare(metadata %"class.std::__1::unique_ptr.29"** %160, metadata !9206, metadata !DIExpression()), !dbg !9207
  %161 = alloca %"class.std::__1::unique_ptr.29"*, align 8
  call void @llvm.dbg.declare(metadata %"class.std::__1::unique_ptr.29"** %161, metadata !9208, metadata !DIExpression()), !dbg !9209
  %162 = alloca %"class.altered_carbon::js::ACAstBaseNode"**, align 8
  call void @llvm.dbg.declare(metadata %"class.altered_carbon::js::ACAstBaseNode"*** %162, metadata !9210, metadata !DIExpression()), !dbg !9219
  %163 = alloca %"struct.std::__1::__compressed_pair_elem.31"*, align 8
  call void @llvm.dbg.declare(metadata %"struct.std::__1::__compressed_pair_elem.31"** %163, metadata !9241, metadata !DIExpression()), !dbg !9242
  %164 = alloca %"class.altered_carbon::js::ACAstBaseNode"**, align 8
  call void @llvm.dbg.declare(metadata %"class.altered_carbon::js::ACAstBaseNode"*** %164, metadata !9243, metadata !DIExpression()), !dbg !9244
  %165 = alloca %"class.altered_carbon::js::ACAstBaseNode"**, align 8
  call void @llvm.dbg.declare(metadata %"class.altered_carbon::js::ACAstBaseNode"*** %165, metadata !9210, metadata !DIExpression()), !dbg !9245
  %166 = alloca %"class.std::__1::__compressed_pair.30"*, align 8
  call void @llvm.dbg.declare(metadata %"class.std::__1::__compressed_pair.30"** %166, metadata !9247, metadata !DIExpression()), !dbg !9248
  %167 = alloca %"class.altered_carbon::js::ACAstBaseNode"**, align 8
  call void @llvm.dbg.declare(metadata %"class.altered_carbon::js::ACAstBaseNode"*** %167, metadata !9249, metadata !DIExpression()), !dbg !9250
  %168 = alloca %"class.std::__1::__compressed_pair.30"*, align 8
  call void @llvm.dbg.declare(metadata %"class.std::__1::__compressed_pair.30"** %168, metadata !9251, metadata !DIExpression()), !dbg !9252
  %169 = alloca %"class.altered_carbon::js::ACAstBaseNode"**, align 8
  call void @llvm.dbg.declare(metadata %"class.altered_carbon::js::ACAstBaseNode"*** %169, metadata !9253, metadata !DIExpression()), !dbg !9254
  %170 = alloca %"class.std::__1::unique_ptr.29"*, align 8
  call void @llvm.dbg.declare(metadata %"class.std::__1::unique_ptr.29"** %170, metadata !9255, metadata !DIExpression()), !dbg !9256
  %171 = alloca %"class.altered_carbon::js::ACAstBaseNode"*, align 8
  %172 = alloca %"class.std::__1::unique_ptr.29"*, align 8
  call void @llvm.dbg.declare(metadata %"class.std::__1::unique_ptr.29"** %172, metadata !9257, metadata !DIExpression()), !dbg !9258
  %173 = alloca %"class.altered_carbon::js::ACAstBuilder"*, align 8
  %174 = alloca %"class.std::__1::unique_ptr.29", align 8
  %175 = alloca %"class.std::__1::unique_ptr.32", align 8
  %176 = alloca %"class.std::__1::unique_ptr.32", align 8
  %177 = alloca %"class.std::__1::unique_ptr.57", align 8
  %178 = alloca i32
  %179 = alloca %"class.std::__1::unique_ptr.57", align 8
  store %"class.altered_carbon::js::ACAstBuilder"* %1, %"class.altered_carbon::js::ACAstBuilder"** %173, align 8
  call void @llvm.dbg.declare(metadata %"class.altered_carbon::js::ACAstBuilder"** %173, metadata !9259, metadata !DIExpression()), !dbg !9260
  call void @llvm.dbg.declare(metadata %"class.std::__1::unique_ptr.29"* %2, metadata !9261, metadata !DIExpression()), !dbg !9262
  %180 = load %"class.altered_carbon::js::ACAstBuilder"*, %"class.altered_carbon::js::ACAstBuilder"** %173, align 8
  call void @llvm.dbg.declare(metadata %"class.std::__1::unique_ptr.29"* %174, metadata !9263, metadata !DIExpression()), !dbg !9264
  store %"class.std::__1::unique_ptr.29"* %174, %"class.std::__1::unique_ptr.29"** %172, align 8
  %181 = load %"class.std::__1::unique_ptr.29"*, %"class.std::__1::unique_ptr.29"** %172, align 8
  store %"class.std::__1::unique_ptr.29"* %181, %"class.std::__1::unique_ptr.29"** %170, align 8
  %182 = load %"class.std::__1::unique_ptr.29"*, %"class.std::__1::unique_ptr.29"** %170, align 8
  %183 = getelementptr inbounds %"class.std::__1::unique_ptr.29", %"class.std::__1::unique_ptr.29"* %182, i32 0, i32 0, !dbg !9265
  store %"class.altered_carbon::js::ACAstBaseNode"* null, %"class.altered_carbon::js::ACAstBaseNode"** %171, align 8, !dbg !9266
  store %"class.std::__1::__compressed_pair.30"* %183, %"class.std::__1::__compressed_pair.30"** %168, align 8
  store %"class.altered_carbon::js::ACAstBaseNode"** %171, %"class.altered_carbon::js::ACAstBaseNode"*** %169, align 8
  %184 = load %"class.std::__1::__compressed_pair.30"*, %"class.std::__1::__compressed_pair.30"** %168, align 8
  %185 = load %"class.altered_carbon::js::ACAstBaseNode"**, %"class.altered_carbon::js::ACAstBaseNode"*** %169, align 8, !dbg !9267
  store %"class.std::__1::__compressed_pair.30"* %184, %"class.std::__1::__compressed_pair.30"** %166, align 8
  store %"class.altered_carbon::js::ACAstBaseNode"** %185, %"class.altered_carbon::js::ACAstBaseNode"*** %167, align 8
  %186 = load %"class.std::__1::__compressed_pair.30"*, %"class.std::__1::__compressed_pair.30"** %166, align 8
  %187 = bitcast %"class.std::__1::__compressed_pair.30"* %186 to %"struct.std::__1::__compressed_pair_elem.31"*, !dbg !9268
  %188 = load %"class.altered_carbon::js::ACAstBaseNode"**, %"class.altered_carbon::js::ACAstBaseNode"*** %167, align 8, !dbg !9269
  store %"class.altered_carbon::js::ACAstBaseNode"** %188, %"class.altered_carbon::js::ACAstBaseNode"*** %165, align 8
  %189 = load %"class.altered_carbon::js::ACAstBaseNode"**, %"class.altered_carbon::js::ACAstBaseNode"*** %165, align 8, !dbg !9270
  store %"struct.std::__1::__compressed_pair_elem.31"* %187, %"struct.std::__1::__compressed_pair_elem.31"** %163, align 8
  store %"class.altered_carbon::js::ACAstBaseNode"** %189, %"class.altered_carbon::js::ACAstBaseNode"*** %164, align 8
  %190 = load %"struct.std::__1::__compressed_pair_elem.31"*, %"struct.std::__1::__compressed_pair_elem.31"** %163, align 8
  %191 = getelementptr inbounds %"struct.std::__1::__compressed_pair_elem.31", %"struct.std::__1::__compressed_pair_elem.31"* %190, i32 0, i32 0, !dbg !9271
  %192 = load %"class.altered_carbon::js::ACAstBaseNode"**, %"class.altered_carbon::js::ACAstBaseNode"*** %164, align 8, !dbg !9272
  store %"class.altered_carbon::js::ACAstBaseNode"** %192, %"class.altered_carbon::js::ACAstBaseNode"*** %162, align 8
  %193 = load %"class.altered_carbon::js::ACAstBaseNode"**, %"class.altered_carbon::js::ACAstBaseNode"*** %162, align 8, !dbg !9273
  %194 = load %"class.altered_carbon::js::ACAstBaseNode"*, %"class.altered_carbon::js::ACAstBaseNode"** %193, align 8, !dbg !9274
  store %"class.altered_carbon::js::ACAstBaseNode"* %194, %"class.altered_carbon::js::ACAstBaseNode"** %191, align 8, !dbg !9271
  %195 = bitcast %"class.std::__1::__compressed_pair.30"* %186 to %"struct.std::__1::__compressed_pair_elem.45"*, !dbg !9268
  call void @llvm.dbg.declare(metadata %"class.std::__1::unique_ptr.32"* %175, metadata !9275, metadata !DIExpression()), !dbg !9276
  call void @_ZN4llvm11make_uniqueIN14altered_carbon2js13ACLexPositionEJEEENSt3__19enable_ifIXntsr3std8is_arrayIT_EE5valueENS4_10unique_ptrIS6_NS4_14default_deleteIS6_EEEEE4typeEDpOT0_(%"class.std::__1::unique_ptr.32"* sret %176), !dbg !9277
  store %"class.std::__1::unique_ptr.32"* %176, %"class.std::__1::unique_ptr.32"** %147, align 8
  %196 = load %"class.std::__1::unique_ptr.32"*, %"class.std::__1::unique_ptr.32"** %147, align 8
  %197 = getelementptr inbounds %"class.std::__1::unique_ptr.32", %"class.std::__1::unique_ptr.32"* %196, i32 0, i32 0, !dbg !9278
  store %"class.std::__1::__compressed_pair.33"* %197, %"class.std::__1::__compressed_pair.33"** %146, align 8
  %198 = load %"class.std::__1::__compressed_pair.33"*, %"class.std::__1::__compressed_pair.33"** %146, align 8
  %199 = bitcast %"class.std::__1::__compressed_pair.33"* %198 to %"struct.std::__1::__compressed_pair_elem.34"*, !dbg !9279
  store %"struct.std::__1::__compressed_pair_elem.34"* %199, %"struct.std::__1::__compressed_pair_elem.34"** %145, align 8
  %200 = load %"struct.std::__1::__compressed_pair_elem.34"*, %"struct.std::__1::__compressed_pair_elem.34"** %145, align 8
  %201 = getelementptr inbounds %"struct.std::__1::__compressed_pair_elem.34", %"struct.std::__1::__compressed_pair_elem.34"* %200, i32 0, i32 0, !dbg !9280
  %202 = load %"struct.altered_carbon::js::ACLexPosition"*, %"struct.altered_carbon::js::ACLexPosition"** %201, align 8, !dbg !9281
  store %"struct.altered_carbon::js::ACLexPosition"* %202, %"struct.altered_carbon::js::ACLexPosition"** %148, align 8, !dbg !9164
  %203 = getelementptr inbounds %"class.std::__1::unique_ptr.32", %"class.std::__1::unique_ptr.32"* %196, i32 0, i32 0, !dbg !9282
  store %"class.std::__1::__compressed_pair.33"* %203, %"class.std::__1::__compressed_pair.33"** %144, align 8
  %204 = load %"class.std::__1::__compressed_pair.33"*, %"class.std::__1::__compressed_pair.33"** %144, align 8
  %205 = bitcast %"class.std::__1::__compressed_pair.33"* %204 to %"struct.std::__1::__compressed_pair_elem.34"*, !dbg !9283
  store %"struct.std::__1::__compressed_pair_elem.34"* %205, %"struct.std::__1::__compressed_pair_elem.34"** %143, align 8
  %206 = load %"struct.std::__1::__compressed_pair_elem.34"*, %"struct.std::__1::__compressed_pair_elem.34"** %143, align 8
  %207 = getelementptr inbounds %"struct.std::__1::__compressed_pair_elem.34", %"struct.std::__1::__compressed_pair_elem.34"* %206, i32 0, i32 0, !dbg !9284
  store %"struct.altered_carbon::js::ACLexPosition"* null, %"struct.altered_carbon::js::ACLexPosition"** %207, align 8, !dbg !9285
  %208 = load %"struct.altered_carbon::js::ACLexPosition"*, %"struct.altered_carbon::js::ACLexPosition"** %148, align 8, !dbg !9286
  store %"class.std::__1::unique_ptr.32"* %175, %"class.std::__1::unique_ptr.32"** %128, align 8
  store %"struct.altered_carbon::js::ACLexPosition"* %208, %"struct.altered_carbon::js::ACLexPosition"** %129, align 8
  %209 = load %"class.std::__1::unique_ptr.32"*, %"class.std::__1::unique_ptr.32"** %128, align 8
  %210 = load %"struct.altered_carbon::js::ACLexPosition"*, %"struct.altered_carbon::js::ACLexPosition"** %129, align 8, !dbg !9287
  store %"class.std::__1::unique_ptr.32"* %209, %"class.std::__1::unique_ptr.32"** %126, align 8
  store %"struct.altered_carbon::js::ACLexPosition"* %210, %"struct.altered_carbon::js::ACLexPosition"** %127, align 8
  %211 = load %"class.std::__1::unique_ptr.32"*, %"class.std::__1::unique_ptr.32"** %126, align 8
  %212 = getelementptr inbounds %"class.std::__1::unique_ptr.32", %"class.std::__1::unique_ptr.32"* %211, i32 0, i32 0, !dbg !9288
  store %"class.std::__1::__compressed_pair.33"* %212, %"class.std::__1::__compressed_pair.33"** %124, align 8
  store %"struct.altered_carbon::js::ACLexPosition"** %127, %"struct.altered_carbon::js::ACLexPosition"*** %125, align 8
  %213 = load %"class.std::__1::__compressed_pair.33"*, %"class.std::__1::__compressed_pair.33"** %124, align 8
  %214 = load %"struct.altered_carbon::js::ACLexPosition"**, %"struct.altered_carbon::js::ACLexPosition"*** %125, align 8, !dbg !9289
  store %"class.std::__1::__compressed_pair.33"* %213, %"class.std::__1::__compressed_pair.33"** %122, align 8
  store %"struct.altered_carbon::js::ACLexPosition"** %214, %"struct.altered_carbon::js::ACLexPosition"*** %123, align 8
  %215 = load %"class.std::__1::__compressed_pair.33"*, %"class.std::__1::__compressed_pair.33"** %122, align 8
  %216 = bitcast %"class.std::__1::__compressed_pair.33"* %215 to %"struct.std::__1::__compressed_pair_elem.34"*, !dbg !9290
  %217 = load %"struct.altered_carbon::js::ACLexPosition"**, %"struct.altered_carbon::js::ACLexPosition"*** %123, align 8, !dbg !9291
  store %"struct.altered_carbon::js::ACLexPosition"** %217, %"struct.altered_carbon::js::ACLexPosition"*** %121, align 8
  %218 = load %"struct.altered_carbon::js::ACLexPosition"**, %"struct.altered_carbon::js::ACLexPosition"*** %121, align 8, !dbg !9292
  store %"struct.std::__1::__compressed_pair_elem.34"* %216, %"struct.std::__1::__compressed_pair_elem.34"** %119, align 8
  store %"struct.altered_carbon::js::ACLexPosition"** %218, %"struct.altered_carbon::js::ACLexPosition"*** %120, align 8
  %219 = load %"struct.std::__1::__compressed_pair_elem.34"*, %"struct.std::__1::__compressed_pair_elem.34"** %119, align 8
  %220 = getelementptr inbounds %"struct.std::__1::__compressed_pair_elem.34", %"struct.std::__1::__compressed_pair_elem.34"* %219, i32 0, i32 0, !dbg !9293
  %221 = load %"struct.altered_carbon::js::ACLexPosition"**, %"struct.altered_carbon::js::ACLexPosition"*** %120, align 8, !dbg !9294
  store %"struct.altered_carbon::js::ACLexPosition"** %221, %"struct.altered_carbon::js::ACLexPosition"*** %118, align 8
  %222 = load %"struct.altered_carbon::js::ACLexPosition"**, %"struct.altered_carbon::js::ACLexPosition"*** %118, align 8, !dbg !9295
  %223 = load %"struct.altered_carbon::js::ACLexPosition"*, %"struct.altered_carbon::js::ACLexPosition"** %222, align 8, !dbg !9296
  store %"struct.altered_carbon::js::ACLexPosition"* %223, %"struct.altered_carbon::js::ACLexPosition"** %220, align 8, !dbg !9293
  %224 = bitcast %"class.std::__1::__compressed_pair.33"* %215 to %"struct.std::__1::__compressed_pair_elem.35"*, !dbg !9290
  store %"class.std::__1::unique_ptr.32"* %176, %"class.std::__1::unique_ptr.32"** %104, align 8
  %225 = load %"class.std::__1::unique_ptr.32"*, %"class.std::__1::unique_ptr.32"** %104, align 8
  store %"class.std::__1::unique_ptr.32"* %225, %"class.std::__1::unique_ptr.32"** %103, align 8
  %226 = load %"class.std::__1::unique_ptr.32"*, %"class.std::__1::unique_ptr.32"** %103, align 8
  store %"class.std::__1::unique_ptr.32"* %226, %"class.std::__1::unique_ptr.32"** %100, align 8
  store %"struct.altered_carbon::js::ACLexPosition"* null, %"struct.altered_carbon::js::ACLexPosition"** %101, align 8
  %227 = load %"class.std::__1::unique_ptr.32"*, %"class.std::__1::unique_ptr.32"** %100, align 8
  %228 = getelementptr inbounds %"class.std::__1::unique_ptr.32", %"class.std::__1::unique_ptr.32"* %227, i32 0, i32 0, !dbg !9297
  store %"class.std::__1::__compressed_pair.33"* %228, %"class.std::__1::__compressed_pair.33"** %99, align 8
  %229 = load %"class.std::__1::__compressed_pair.33"*, %"class.std::__1::__compressed_pair.33"** %99, align 8
  %230 = bitcast %"class.std::__1::__compressed_pair.33"* %229 to %"struct.std::__1::__compressed_pair_elem.34"*, !dbg !9298
  store %"struct.std::__1::__compressed_pair_elem.34"* %230, %"struct.std::__1::__compressed_pair_elem.34"** %98, align 8
  %231 = load %"struct.std::__1::__compressed_pair_elem.34"*, %"struct.std::__1::__compressed_pair_elem.34"** %98, align 8
  %232 = getelementptr inbounds %"struct.std::__1::__compressed_pair_elem.34", %"struct.std::__1::__compressed_pair_elem.34"* %231, i32 0, i32 0, !dbg !9299
  %233 = load %"struct.altered_carbon::js::ACLexPosition"*, %"struct.altered_carbon::js::ACLexPosition"** %232, align 8, !dbg !9300
  store %"struct.altered_carbon::js::ACLexPosition"* %233, %"struct.altered_carbon::js::ACLexPosition"** %102, align 8, !dbg !9086
  %234 = load %"struct.altered_carbon::js::ACLexPosition"*, %"struct.altered_carbon::js::ACLexPosition"** %101, align 8, !dbg !9301
  %235 = getelementptr inbounds %"class.std::__1::unique_ptr.32", %"class.std::__1::unique_ptr.32"* %227, i32 0, i32 0, !dbg !9302
  store %"class.std::__1::__compressed_pair.33"* %235, %"class.std::__1::__compressed_pair.33"** %95, align 8
  %236 = load %"class.std::__1::__compressed_pair.33"*, %"class.std::__1::__compressed_pair.33"** %95, align 8
  %237 = bitcast %"class.std::__1::__compressed_pair.33"* %236 to %"struct.std::__1::__compressed_pair_elem.34"*, !dbg !9303
  store %"struct.std::__1::__compressed_pair_elem.34"* %237, %"struct.std::__1::__compressed_pair_elem.34"** %94, align 8
  %238 = load %"struct.std::__1::__compressed_pair_elem.34"*, %"struct.std::__1::__compressed_pair_elem.34"** %94, align 8
  %239 = getelementptr inbounds %"struct.std::__1::__compressed_pair_elem.34", %"struct.std::__1::__compressed_pair_elem.34"* %238, i32 0, i32 0, !dbg !9304
  store %"struct.altered_carbon::js::ACLexPosition"* %234, %"struct.altered_carbon::js::ACLexPosition"** %239, align 8, !dbg !9305
  %240 = load %"struct.altered_carbon::js::ACLexPosition"*, %"struct.altered_carbon::js::ACLexPosition"** %102, align 8, !dbg !9306
  %241 = icmp ne %"struct.altered_carbon::js::ACLexPosition"* %240, null, !dbg !9306
  br i1 %241, label %242, label %258, !dbg !9307

; <label>:242:                                    ; preds = %3
  %243 = getelementptr inbounds %"class.std::__1::unique_ptr.32", %"class.std::__1::unique_ptr.32"* %227, i32 0, i32 0, !dbg !9308
  store %"class.std::__1::__compressed_pair.33"* %243, %"class.std::__1::__compressed_pair.33"** %93, align 8
  %244 = load %"class.std::__1::__compressed_pair.33"*, %"class.std::__1::__compressed_pair.33"** %93, align 8
  %245 = bitcast %"class.std::__1::__compressed_pair.33"* %244 to %"struct.std::__1::__compressed_pair_elem.35"*, !dbg !9309
  store %"struct.std::__1::__compressed_pair_elem.35"* %245, %"struct.std::__1::__compressed_pair_elem.35"** %92, align 8
  %246 = load %"struct.std::__1::__compressed_pair_elem.35"*, %"struct.std::__1::__compressed_pair_elem.35"** %92, align 8
  %247 = bitcast %"struct.std::__1::__compressed_pair_elem.35"* %246 to %"struct.std::__1::default_delete.36"*, !dbg !9310
  %248 = load %"struct.altered_carbon::js::ACLexPosition"*, %"struct.altered_carbon::js::ACLexPosition"** %102, align 8, !dbg !9311
  store %"struct.std::__1::default_delete.36"* %247, %"struct.std::__1::default_delete.36"** %96, align 8
  store %"struct.altered_carbon::js::ACLexPosition"* %248, %"struct.altered_carbon::js::ACLexPosition"** %97, align 8
  %249 = load %"struct.std::__1::default_delete.36"*, %"struct.std::__1::default_delete.36"** %96, align 8
  %250 = load %"struct.altered_carbon::js::ACLexPosition"*, %"struct.altered_carbon::js::ACLexPosition"** %97, align 8, !dbg !9312
  %251 = icmp eq %"struct.altered_carbon::js::ACLexPosition"* %250, null, !dbg !9313
  br i1 %251, label %257, label %252, !dbg !9313

; <label>:252:                                    ; preds = %242
  %253 = bitcast %"struct.altered_carbon::js::ACLexPosition"* %250 to void (%"struct.altered_carbon::js::ACLexPosition"*)***, !dbg !9313
  %254 = load void (%"struct.altered_carbon::js::ACLexPosition"*)**, void (%"struct.altered_carbon::js::ACLexPosition"*)*** %253, align 8, !dbg !9313
  %255 = getelementptr inbounds void (%"struct.altered_carbon::js::ACLexPosition"*)*, void (%"struct.altered_carbon::js::ACLexPosition"*)** %254, i64 1, !dbg !9313
  %256 = load void (%"struct.altered_carbon::js::ACLexPosition"*)*, void (%"struct.altered_carbon::js::ACLexPosition"*)** %255, align 8, !dbg !9313
  call void %256(%"struct.altered_carbon::js::ACLexPosition"* %250) #2, !dbg !9313
  br label %257, !dbg !9313

; <label>:257:                                    ; preds = %252, %242
  br label %258, !dbg !9308

; <label>:258:                                    ; preds = %3, %257
  store %"class.std::__1::unique_ptr.29"* %2, %"class.std::__1::unique_ptr.29"** %91, align 8
  %259 = load %"class.std::__1::unique_ptr.29"*, %"class.std::__1::unique_ptr.29"** %91, align 8
  %260 = getelementptr inbounds %"class.std::__1::unique_ptr.29", %"class.std::__1::unique_ptr.29"* %259, i32 0, i32 0, !dbg !9314
  store %"class.std::__1::__compressed_pair.30"* %260, %"class.std::__1::__compressed_pair.30"** %90, align 8
  %261 = load %"class.std::__1::__compressed_pair.30"*, %"class.std::__1::__compressed_pair.30"** %90, align 8
  %262 = bitcast %"class.std::__1::__compressed_pair.30"* %261 to %"struct.std::__1::__compressed_pair_elem.31"*, !dbg !9315
  store %"struct.std::__1::__compressed_pair_elem.31"* %262, %"struct.std::__1::__compressed_pair_elem.31"** %89, align 8
  %263 = load %"struct.std::__1::__compressed_pair_elem.31"*, %"struct.std::__1::__compressed_pair_elem.31"** %89, align 8
  %264 = getelementptr inbounds %"struct.std::__1::__compressed_pair_elem.31", %"struct.std::__1::__compressed_pair_elem.31"* %263, i32 0, i32 0, !dbg !9316
  %265 = load %"class.altered_carbon::js::ACAstBaseNode"*, %"class.altered_carbon::js::ACAstBaseNode"** %264, align 8, !dbg !9317
  %266 = icmp ne %"class.altered_carbon::js::ACAstBaseNode"* %265, null, !dbg !9318
  br i1 %266, label %267, label %351, !dbg !9319

; <label>:267:                                    ; preds = %258
  store %"class.std::__1::unique_ptr.32"* %175, %"class.std::__1::unique_ptr.32"** %56, align 8
  %268 = load %"class.std::__1::unique_ptr.32"*, %"class.std::__1::unique_ptr.32"** %56, align 8, !dbg !9320
  store %"class.std::__1::unique_ptr.29"* %2, %"class.std::__1::unique_ptr.29"** %36, align 8
  %269 = load %"class.std::__1::unique_ptr.29"*, %"class.std::__1::unique_ptr.29"** %36, align 8, !dbg !9321
  call void @_ZN4llvm11make_uniqueIN14altered_carbon2js16ACAstSyntaxErrorEJNSt3__110unique_ptrINS2_13ACLexPositionENS4_14default_deleteIS6_EEEENS5_INS2_13ACAstBaseNodeENS7_ISA_EEEEEEENS4_9enable_ifIXntsr3std8is_arrayIT_EE5valueENS5_ISE_NS7_ISE_EEEEE4typeEDpOT0_(%"class.std::__1::unique_ptr.57"* sret %177, %"class.std::__1::unique_ptr.32"* dereferenceable(8) %268, %"class.std::__1::unique_ptr.29"* dereferenceable(8) %269), !dbg !9322
  store %"class.std::__1::unique_ptr.29"* %0, %"class.std::__1::unique_ptr.29"** %34, align 8
  store %"class.std::__1::unique_ptr.57"* %177, %"class.std::__1::unique_ptr.57"** %35, align 8
  %270 = load %"class.std::__1::unique_ptr.29"*, %"class.std::__1::unique_ptr.29"** %34, align 8
  %271 = load %"class.std::__1::unique_ptr.57"*, %"class.std::__1::unique_ptr.57"** %35, align 8, !dbg !9323
  store %"class.std::__1::unique_ptr.29"* %270, %"class.std::__1::unique_ptr.29"** %31, align 8
  store %"class.std::__1::unique_ptr.57"* %271, %"class.std::__1::unique_ptr.57"** %32, align 8
  %272 = load %"class.std::__1::unique_ptr.29"*, %"class.std::__1::unique_ptr.29"** %31, align 8
  %273 = getelementptr inbounds %"class.std::__1::unique_ptr.29", %"class.std::__1::unique_ptr.29"* %272, i32 0, i32 0, !dbg !9324
  %274 = load %"class.std::__1::unique_ptr.57"*, %"class.std::__1::unique_ptr.57"** %32, align 8, !dbg !9325
  store %"class.std::__1::unique_ptr.57"* %274, %"class.std::__1::unique_ptr.57"** %29, align 8
  %275 = load %"class.std::__1::unique_ptr.57"*, %"class.std::__1::unique_ptr.57"** %29, align 8
  %276 = getelementptr inbounds %"class.std::__1::unique_ptr.57", %"class.std::__1::unique_ptr.57"* %275, i32 0, i32 0, !dbg !9326
  store %"class.std::__1::__compressed_pair.58"* %276, %"class.std::__1::__compressed_pair.58"** %28, align 8
  %277 = load %"class.std::__1::__compressed_pair.58"*, %"class.std::__1::__compressed_pair.58"** %28, align 8
  %278 = bitcast %"class.std::__1::__compressed_pair.58"* %277 to %"struct.std::__1::__compressed_pair_elem.59"*, !dbg !9327
  store %"struct.std::__1::__compressed_pair_elem.59"* %278, %"struct.std::__1::__compressed_pair_elem.59"** %27, align 8
  %279 = load %"struct.std::__1::__compressed_pair_elem.59"*, %"struct.std::__1::__compressed_pair_elem.59"** %27, align 8
  %280 = getelementptr inbounds %"struct.std::__1::__compressed_pair_elem.59", %"struct.std::__1::__compressed_pair_elem.59"* %279, i32 0, i32 0, !dbg !9328
  %281 = load %"class.altered_carbon::js::ACAstSyntaxError"*, %"class.altered_carbon::js::ACAstSyntaxError"** %280, align 8, !dbg !9329
  store %"class.altered_carbon::js::ACAstSyntaxError"* %281, %"class.altered_carbon::js::ACAstSyntaxError"** %30, align 8, !dbg !8929
  %282 = getelementptr inbounds %"class.std::__1::unique_ptr.57", %"class.std::__1::unique_ptr.57"* %275, i32 0, i32 0, !dbg !9330
  store %"class.std::__1::__compressed_pair.58"* %282, %"class.std::__1::__compressed_pair.58"** %26, align 8
  %283 = load %"class.std::__1::__compressed_pair.58"*, %"class.std::__1::__compressed_pair.58"** %26, align 8
  %284 = bitcast %"class.std::__1::__compressed_pair.58"* %283 to %"struct.std::__1::__compressed_pair_elem.59"*, !dbg !9331
  store %"struct.std::__1::__compressed_pair_elem.59"* %284, %"struct.std::__1::__compressed_pair_elem.59"** %25, align 8
  %285 = load %"struct.std::__1::__compressed_pair_elem.59"*, %"struct.std::__1::__compressed_pair_elem.59"** %25, align 8
  %286 = getelementptr inbounds %"struct.std::__1::__compressed_pair_elem.59", %"struct.std::__1::__compressed_pair_elem.59"* %285, i32 0, i32 0, !dbg !9332
  store %"class.altered_carbon::js::ACAstSyntaxError"* null, %"class.altered_carbon::js::ACAstSyntaxError"** %286, align 8, !dbg !9333
  %287 = load %"class.altered_carbon::js::ACAstSyntaxError"*, %"class.altered_carbon::js::ACAstSyntaxError"** %30, align 8, !dbg !9334
  store %"class.altered_carbon::js::ACAstSyntaxError"* %287, %"class.altered_carbon::js::ACAstSyntaxError"** %33, align 8, !dbg !9325
  %288 = load %"class.std::__1::unique_ptr.57"*, %"class.std::__1::unique_ptr.57"** %32, align 8, !dbg !9335
  store %"class.std::__1::unique_ptr.57"* %288, %"class.std::__1::unique_ptr.57"** %6, align 8
  %289 = load %"class.std::__1::unique_ptr.57"*, %"class.std::__1::unique_ptr.57"** %6, align 8
  %290 = getelementptr inbounds %"class.std::__1::unique_ptr.57", %"class.std::__1::unique_ptr.57"* %289, i32 0, i32 0, !dbg !9336
  store %"class.std::__1::__compressed_pair.58"* %290, %"class.std::__1::__compressed_pair.58"** %5, align 8
  %291 = load %"class.std::__1::__compressed_pair.58"*, %"class.std::__1::__compressed_pair.58"** %5, align 8
  %292 = bitcast %"class.std::__1::__compressed_pair.58"* %291 to %"struct.std::__1::__compressed_pair_elem.60"*, !dbg !9337
  store %"struct.std::__1::__compressed_pair_elem.60"* %292, %"struct.std::__1::__compressed_pair_elem.60"** %4, align 8
  %293 = load %"struct.std::__1::__compressed_pair_elem.60"*, %"struct.std::__1::__compressed_pair_elem.60"** %4, align 8
  %294 = bitcast %"struct.std::__1::__compressed_pair_elem.60"* %293 to %"struct.std::__1::default_delete.61"*, !dbg !9338
  store %"struct.std::__1::default_delete.61"* %294, %"struct.std::__1::default_delete.61"** %7, align 8
  %295 = load %"struct.std::__1::default_delete.61"*, %"struct.std::__1::default_delete.61"** %7, align 8, !dbg !9339
  store %"class.std::__1::__compressed_pair.30"* %273, %"class.std::__1::__compressed_pair.30"** %22, align 8
  store %"class.altered_carbon::js::ACAstSyntaxError"** %33, %"class.altered_carbon::js::ACAstSyntaxError"*** %23, align 8
  store %"struct.std::__1::default_delete.61"* %295, %"struct.std::__1::default_delete.61"** %24, align 8
  %296 = load %"class.std::__1::__compressed_pair.30"*, %"class.std::__1::__compressed_pair.30"** %22, align 8
  %297 = load %"class.altered_carbon::js::ACAstSyntaxError"**, %"class.altered_carbon::js::ACAstSyntaxError"*** %23, align 8, !dbg !9340
  %298 = load %"struct.std::__1::default_delete.61"*, %"struct.std::__1::default_delete.61"** %24, align 8, !dbg !9340
  store %"class.std::__1::__compressed_pair.30"* %296, %"class.std::__1::__compressed_pair.30"** %19, align 8
  store %"class.altered_carbon::js::ACAstSyntaxError"** %297, %"class.altered_carbon::js::ACAstSyntaxError"*** %20, align 8
  store %"struct.std::__1::default_delete.61"* %298, %"struct.std::__1::default_delete.61"** %21, align 8
  %299 = load %"class.std::__1::__compressed_pair.30"*, %"class.std::__1::__compressed_pair.30"** %19, align 8
  %300 = bitcast %"class.std::__1::__compressed_pair.30"* %299 to %"struct.std::__1::__compressed_pair_elem.31"*, !dbg !9341
  %301 = load %"class.altered_carbon::js::ACAstSyntaxError"**, %"class.altered_carbon::js::ACAstSyntaxError"*** %20, align 8, !dbg !9342
  store %"class.altered_carbon::js::ACAstSyntaxError"** %301, %"class.altered_carbon::js::ACAstSyntaxError"*** %18, align 8
  %302 = load %"class.altered_carbon::js::ACAstSyntaxError"**, %"class.altered_carbon::js::ACAstSyntaxError"*** %18, align 8, !dbg !9343
  store %"struct.std::__1::__compressed_pair_elem.31"* %300, %"struct.std::__1::__compressed_pair_elem.31"** %9, align 8
  store %"class.altered_carbon::js::ACAstSyntaxError"** %302, %"class.altered_carbon::js::ACAstSyntaxError"*** %10, align 8
  %303 = load %"struct.std::__1::__compressed_pair_elem.31"*, %"struct.std::__1::__compressed_pair_elem.31"** %9, align 8
  %304 = getelementptr inbounds %"struct.std::__1::__compressed_pair_elem.31", %"struct.std::__1::__compressed_pair_elem.31"* %303, i32 0, i32 0, !dbg !9344
  %305 = load %"class.altered_carbon::js::ACAstSyntaxError"**, %"class.altered_carbon::js::ACAstSyntaxError"*** %10, align 8, !dbg !9345
  store %"class.altered_carbon::js::ACAstSyntaxError"** %305, %"class.altered_carbon::js::ACAstSyntaxError"*** %8, align 8
  %306 = load %"class.altered_carbon::js::ACAstSyntaxError"**, %"class.altered_carbon::js::ACAstSyntaxError"*** %8, align 8, !dbg !9346
  %307 = load %"class.altered_carbon::js::ACAstSyntaxError"*, %"class.altered_carbon::js::ACAstSyntaxError"** %306, align 8, !dbg !9347
  %308 = bitcast %"class.altered_carbon::js::ACAstSyntaxError"* %307 to %"class.altered_carbon::js::ACAstBaseNode"*, !dbg !9347
  store %"class.altered_carbon::js::ACAstBaseNode"* %308, %"class.altered_carbon::js::ACAstBaseNode"** %304, align 8, !dbg !9344
  %309 = bitcast %"class.std::__1::__compressed_pair.30"* %299 to %"struct.std::__1::__compressed_pair_elem.45"*, !dbg !9341
  %310 = load %"struct.std::__1::default_delete.61"*, %"struct.std::__1::default_delete.61"** %21, align 8, !dbg !9348
  store %"struct.std::__1::default_delete.61"* %310, %"struct.std::__1::default_delete.61"** %11, align 8
  %311 = load %"struct.std::__1::default_delete.61"*, %"struct.std::__1::default_delete.61"** %11, align 8, !dbg !9349
  store %"struct.std::__1::__compressed_pair_elem.45"* %309, %"struct.std::__1::__compressed_pair_elem.45"** %16, align 8
  store %"struct.std::__1::default_delete.61"* %311, %"struct.std::__1::default_delete.61"** %17, align 8
  %312 = load %"struct.std::__1::__compressed_pair_elem.45"*, %"struct.std::__1::__compressed_pair_elem.45"** %16, align 8
  %313 = bitcast %"struct.std::__1::__compressed_pair_elem.45"* %312 to %"struct.std::__1::default_delete.46"*, !dbg !9350
  %314 = load %"struct.std::__1::default_delete.61"*, %"struct.std::__1::default_delete.61"** %17, align 8, !dbg !9351
  store %"struct.std::__1::default_delete.61"* %314, %"struct.std::__1::default_delete.61"** %15, align 8
  %315 = load %"struct.std::__1::default_delete.61"*, %"struct.std::__1::default_delete.61"** %15, align 8, !dbg !9352
  store %"struct.std::__1::default_delete.46"* %313, %"struct.std::__1::default_delete.46"** %12, align 8
  store %"struct.std::__1::default_delete.61"* %315, %"struct.std::__1::default_delete.61"** %13, align 8
  store i8* null, i8** %14, align 8
  %316 = load %"struct.std::__1::default_delete.46"*, %"struct.std::__1::default_delete.46"** %12, align 8
  store %"class.std::__1::unique_ptr.57"* %177, %"class.std::__1::unique_ptr.57"** %49, align 8
  %317 = load %"class.std::__1::unique_ptr.57"*, %"class.std::__1::unique_ptr.57"** %49, align 8
  store %"class.std::__1::unique_ptr.57"* %317, %"class.std::__1::unique_ptr.57"** %48, align 8
  %318 = load %"class.std::__1::unique_ptr.57"*, %"class.std::__1::unique_ptr.57"** %48, align 8
  store %"class.std::__1::unique_ptr.57"* %318, %"class.std::__1::unique_ptr.57"** %45, align 8
  store %"class.altered_carbon::js::ACAstSyntaxError"* null, %"class.altered_carbon::js::ACAstSyntaxError"** %46, align 8
  %319 = load %"class.std::__1::unique_ptr.57"*, %"class.std::__1::unique_ptr.57"** %45, align 8
  %320 = getelementptr inbounds %"class.std::__1::unique_ptr.57", %"class.std::__1::unique_ptr.57"* %319, i32 0, i32 0, !dbg !9353
  store %"class.std::__1::__compressed_pair.58"* %320, %"class.std::__1::__compressed_pair.58"** %44, align 8
  %321 = load %"class.std::__1::__compressed_pair.58"*, %"class.std::__1::__compressed_pair.58"** %44, align 8
  %322 = bitcast %"class.std::__1::__compressed_pair.58"* %321 to %"struct.std::__1::__compressed_pair_elem.59"*, !dbg !9354
  store %"struct.std::__1::__compressed_pair_elem.59"* %322, %"struct.std::__1::__compressed_pair_elem.59"** %43, align 8
  %323 = load %"struct.std::__1::__compressed_pair_elem.59"*, %"struct.std::__1::__compressed_pair_elem.59"** %43, align 8
  %324 = getelementptr inbounds %"struct.std::__1::__compressed_pair_elem.59", %"struct.std::__1::__compressed_pair_elem.59"* %323, i32 0, i32 0, !dbg !9355
  %325 = load %"class.altered_carbon::js::ACAstSyntaxError"*, %"class.altered_carbon::js::ACAstSyntaxError"** %324, align 8, !dbg !9356
  store %"class.altered_carbon::js::ACAstSyntaxError"* %325, %"class.altered_carbon::js::ACAstSyntaxError"** %47, align 8, !dbg !8981
  %326 = load %"class.altered_carbon::js::ACAstSyntaxError"*, %"class.altered_carbon::js::ACAstSyntaxError"** %46, align 8, !dbg !9357
  %327 = getelementptr inbounds %"class.std::__1::unique_ptr.57", %"class.std::__1::unique_ptr.57"* %319, i32 0, i32 0, !dbg !9358
  store %"class.std::__1::__compressed_pair.58"* %327, %"class.std::__1::__compressed_pair.58"** %40, align 8
  %328 = load %"class.std::__1::__compressed_pair.58"*, %"class.std::__1::__compressed_pair.58"** %40, align 8
  %329 = bitcast %"class.std::__1::__compressed_pair.58"* %328 to %"struct.std::__1::__compressed_pair_elem.59"*, !dbg !9359
  store %"struct.std::__1::__compressed_pair_elem.59"* %329, %"struct.std::__1::__compressed_pair_elem.59"** %39, align 8
  %330 = load %"struct.std::__1::__compressed_pair_elem.59"*, %"struct.std::__1::__compressed_pair_elem.59"** %39, align 8
  %331 = getelementptr inbounds %"struct.std::__1::__compressed_pair_elem.59", %"struct.std::__1::__compressed_pair_elem.59"* %330, i32 0, i32 0, !dbg !9360
  store %"class.altered_carbon::js::ACAstSyntaxError"* %326, %"class.altered_carbon::js::ACAstSyntaxError"** %331, align 8, !dbg !9361
  %332 = load %"class.altered_carbon::js::ACAstSyntaxError"*, %"class.altered_carbon::js::ACAstSyntaxError"** %47, align 8, !dbg !9362
  %333 = icmp ne %"class.altered_carbon::js::ACAstSyntaxError"* %332, null, !dbg !9362
  br i1 %333, label %334, label %350, !dbg !9363

; <label>:334:                                    ; preds = %267
  %335 = getelementptr inbounds %"class.std::__1::unique_ptr.57", %"class.std::__1::unique_ptr.57"* %319, i32 0, i32 0, !dbg !9364
  store %"class.std::__1::__compressed_pair.58"* %335, %"class.std::__1::__compressed_pair.58"** %38, align 8
  %336 = load %"class.std::__1::__compressed_pair.58"*, %"class.std::__1::__compressed_pair.58"** %38, align 8
  %337 = bitcast %"class.std::__1::__compressed_pair.58"* %336 to %"struct.std::__1::__compressed_pair_elem.60"*, !dbg !9365
  store %"struct.std::__1::__compressed_pair_elem.60"* %337, %"struct.std::__1::__compressed_pair_elem.60"** %37, align 8
  %338 = load %"struct.std::__1::__compressed_pair_elem.60"*, %"struct.std::__1::__compressed_pair_elem.60"** %37, align 8
  %339 = bitcast %"struct.std::__1::__compressed_pair_elem.60"* %338 to %"struct.std::__1::default_delete.61"*, !dbg !9366
  %340 = load %"class.altered_carbon::js::ACAstSyntaxError"*, %"class.altered_carbon::js::ACAstSyntaxError"** %47, align 8, !dbg !9367
  store %"struct.std::__1::default_delete.61"* %339, %"struct.std::__1::default_delete.61"** %41, align 8
  store %"class.altered_carbon::js::ACAstSyntaxError"* %340, %"class.altered_carbon::js::ACAstSyntaxError"** %42, align 8
  %341 = load %"struct.std::__1::default_delete.61"*, %"struct.std::__1::default_delete.61"** %41, align 8
  %342 = load %"class.altered_carbon::js::ACAstSyntaxError"*, %"class.altered_carbon::js::ACAstSyntaxError"** %42, align 8, !dbg !9368
  %343 = icmp eq %"class.altered_carbon::js::ACAstSyntaxError"* %342, null, !dbg !9369
  br i1 %343, label %349, label %344, !dbg !9369

; <label>:344:                                    ; preds = %334
  %345 = bitcast %"class.altered_carbon::js::ACAstSyntaxError"* %342 to void (%"class.altered_carbon::js::ACAstSyntaxError"*)***, !dbg !9369
  %346 = load void (%"class.altered_carbon::js::ACAstSyntaxError"*)**, void (%"class.altered_carbon::js::ACAstSyntaxError"*)*** %345, align 8, !dbg !9369
  %347 = getelementptr inbounds void (%"class.altered_carbon::js::ACAstSyntaxError"*)*, void (%"class.altered_carbon::js::ACAstSyntaxError"*)** %346, i64 1, !dbg !9369
  %348 = load void (%"class.altered_carbon::js::ACAstSyntaxError"*)*, void (%"class.altered_carbon::js::ACAstSyntaxError"*)** %347, align 8, !dbg !9369
  call void %348(%"class.altered_carbon::js::ACAstSyntaxError"* %342) #2, !dbg !9369
  br label %349, !dbg !9369

; <label>:349:                                    ; preds = %344, %334
  br label %350, !dbg !9364

; <label>:350:                                    ; preds = %267, %349
  store i32 1, i32* %178, align 4
  br label %448, !dbg !9370

; <label>:351:                                    ; preds = %258
  store %"class.std::__1::unique_ptr.32"* %175, %"class.std::__1::unique_ptr.32"** %50, align 8
  %352 = load %"class.std::__1::unique_ptr.32"*, %"class.std::__1::unique_ptr.32"** %50, align 8, !dbg !9371
  store %"class.std::__1::unique_ptr.29"* %2, %"class.std::__1::unique_ptr.29"** %53, align 8
  %353 = load %"class.std::__1::unique_ptr.29"*, %"class.std::__1::unique_ptr.29"** %53, align 8
  %354 = getelementptr inbounds %"class.std::__1::unique_ptr.29", %"class.std::__1::unique_ptr.29"* %353, i32 0, i32 0, !dbg !9372
  store %"class.std::__1::__compressed_pair.30"* %354, %"class.std::__1::__compressed_pair.30"** %52, align 8
  %355 = load %"class.std::__1::__compressed_pair.30"*, %"class.std::__1::__compressed_pair.30"** %52, align 8
  %356 = bitcast %"class.std::__1::__compressed_pair.30"* %355 to %"struct.std::__1::__compressed_pair_elem.31"*, !dbg !9373
  store %"struct.std::__1::__compressed_pair_elem.31"* %356, %"struct.std::__1::__compressed_pair_elem.31"** %51, align 8
  %357 = load %"struct.std::__1::__compressed_pair_elem.31"*, %"struct.std::__1::__compressed_pair_elem.31"** %51, align 8
  %358 = getelementptr inbounds %"struct.std::__1::__compressed_pair_elem.31", %"struct.std::__1::__compressed_pair_elem.31"* %357, i32 0, i32 0, !dbg !9374
  %359 = load %"class.altered_carbon::js::ACAstBaseNode"*, %"class.altered_carbon::js::ACAstBaseNode"** %358, align 8, !dbg !9375
  %360 = icmp ne %"class.altered_carbon::js::ACAstBaseNode"* %359, null, !dbg !9376
  br i1 %360, label %361, label %363, !dbg !9377

; <label>:361:                                    ; preds = %351
  store %"class.std::__1::unique_ptr.29"* %2, %"class.std::__1::unique_ptr.29"** %54, align 8
  %362 = load %"class.std::__1::unique_ptr.29"*, %"class.std::__1::unique_ptr.29"** %54, align 8, !dbg !9378
  br label %365, !dbg !9377

; <label>:363:                                    ; preds = %351
  store %"class.std::__1::unique_ptr.29"* %174, %"class.std::__1::unique_ptr.29"** %55, align 8
  %364 = load %"class.std::__1::unique_ptr.29"*, %"class.std::__1::unique_ptr.29"** %55, align 8, !dbg !9379
  br label %365, !dbg !9377

; <label>:365:                                    ; preds = %363, %361
  %366 = phi %"class.std::__1::unique_ptr.29"* [ %362, %361 ], [ %364, %363 ], !dbg !9377
  call void @_ZN4llvm11make_uniqueIN14altered_carbon2js16ACAstSyntaxErrorEJNSt3__110unique_ptrINS2_13ACLexPositionENS4_14default_deleteIS6_EEEENS5_INS2_13ACAstBaseNodeENS7_ISA_EEEEEEENS4_9enable_ifIXntsr3std8is_arrayIT_EE5valueENS5_ISE_NS7_ISE_EEEEE4typeEDpOT0_(%"class.std::__1::unique_ptr.57"* sret %179, %"class.std::__1::unique_ptr.32"* dereferenceable(8) %352, %"class.std::__1::unique_ptr.29"* dereferenceable(8) %366), !dbg !9380
  store %"class.std::__1::unique_ptr.29"* %0, %"class.std::__1::unique_ptr.29"** %87, align 8
  store %"class.std::__1::unique_ptr.57"* %179, %"class.std::__1::unique_ptr.57"** %88, align 8
  %367 = load %"class.std::__1::unique_ptr.29"*, %"class.std::__1::unique_ptr.29"** %87, align 8
  %368 = load %"class.std::__1::unique_ptr.57"*, %"class.std::__1::unique_ptr.57"** %88, align 8, !dbg !9381
  store %"class.std::__1::unique_ptr.29"* %367, %"class.std::__1::unique_ptr.29"** %84, align 8
  store %"class.std::__1::unique_ptr.57"* %368, %"class.std::__1::unique_ptr.57"** %85, align 8
  %369 = load %"class.std::__1::unique_ptr.29"*, %"class.std::__1::unique_ptr.29"** %84, align 8
  %370 = getelementptr inbounds %"class.std::__1::unique_ptr.29", %"class.std::__1::unique_ptr.29"* %369, i32 0, i32 0, !dbg !9382
  %371 = load %"class.std::__1::unique_ptr.57"*, %"class.std::__1::unique_ptr.57"** %85, align 8, !dbg !9383
  store %"class.std::__1::unique_ptr.57"* %371, %"class.std::__1::unique_ptr.57"** %82, align 8
  %372 = load %"class.std::__1::unique_ptr.57"*, %"class.std::__1::unique_ptr.57"** %82, align 8
  %373 = getelementptr inbounds %"class.std::__1::unique_ptr.57", %"class.std::__1::unique_ptr.57"* %372, i32 0, i32 0, !dbg !9384
  store %"class.std::__1::__compressed_pair.58"* %373, %"class.std::__1::__compressed_pair.58"** %81, align 8
  %374 = load %"class.std::__1::__compressed_pair.58"*, %"class.std::__1::__compressed_pair.58"** %81, align 8
  %375 = bitcast %"class.std::__1::__compressed_pair.58"* %374 to %"struct.std::__1::__compressed_pair_elem.59"*, !dbg !9385
  store %"struct.std::__1::__compressed_pair_elem.59"* %375, %"struct.std::__1::__compressed_pair_elem.59"** %80, align 8
  %376 = load %"struct.std::__1::__compressed_pair_elem.59"*, %"struct.std::__1::__compressed_pair_elem.59"** %80, align 8
  %377 = getelementptr inbounds %"struct.std::__1::__compressed_pair_elem.59", %"struct.std::__1::__compressed_pair_elem.59"* %376, i32 0, i32 0, !dbg !9386
  %378 = load %"class.altered_carbon::js::ACAstSyntaxError"*, %"class.altered_carbon::js::ACAstSyntaxError"** %377, align 8, !dbg !9387
  store %"class.altered_carbon::js::ACAstSyntaxError"* %378, %"class.altered_carbon::js::ACAstSyntaxError"** %83, align 8, !dbg !9055
  %379 = getelementptr inbounds %"class.std::__1::unique_ptr.57", %"class.std::__1::unique_ptr.57"* %372, i32 0, i32 0, !dbg !9388
  store %"class.std::__1::__compressed_pair.58"* %379, %"class.std::__1::__compressed_pair.58"** %79, align 8
  %380 = load %"class.std::__1::__compressed_pair.58"*, %"class.std::__1::__compressed_pair.58"** %79, align 8
  %381 = bitcast %"class.std::__1::__compressed_pair.58"* %380 to %"struct.std::__1::__compressed_pair_elem.59"*, !dbg !9389
  store %"struct.std::__1::__compressed_pair_elem.59"* %381, %"struct.std::__1::__compressed_pair_elem.59"** %78, align 8
  %382 = load %"struct.std::__1::__compressed_pair_elem.59"*, %"struct.std::__1::__compressed_pair_elem.59"** %78, align 8
  %383 = getelementptr inbounds %"struct.std::__1::__compressed_pair_elem.59", %"struct.std::__1::__compressed_pair_elem.59"* %382, i32 0, i32 0, !dbg !9390
  store %"class.altered_carbon::js::ACAstSyntaxError"* null, %"class.altered_carbon::js::ACAstSyntaxError"** %383, align 8, !dbg !9391
  %384 = load %"class.altered_carbon::js::ACAstSyntaxError"*, %"class.altered_carbon::js::ACAstSyntaxError"** %83, align 8, !dbg !9392
  store %"class.altered_carbon::js::ACAstSyntaxError"* %384, %"class.altered_carbon::js::ACAstSyntaxError"** %86, align 8, !dbg !9383
  %385 = load %"class.std::__1::unique_ptr.57"*, %"class.std::__1::unique_ptr.57"** %85, align 8, !dbg !9393
  store %"class.std::__1::unique_ptr.57"* %385, %"class.std::__1::unique_ptr.57"** %59, align 8
  %386 = load %"class.std::__1::unique_ptr.57"*, %"class.std::__1::unique_ptr.57"** %59, align 8
  %387 = getelementptr inbounds %"class.std::__1::unique_ptr.57", %"class.std::__1::unique_ptr.57"* %386, i32 0, i32 0, !dbg !9394
  store %"class.std::__1::__compressed_pair.58"* %387, %"class.std::__1::__compressed_pair.58"** %58, align 8
  %388 = load %"class.std::__1::__compressed_pair.58"*, %"class.std::__1::__compressed_pair.58"** %58, align 8
  %389 = bitcast %"class.std::__1::__compressed_pair.58"* %388 to %"struct.std::__1::__compressed_pair_elem.60"*, !dbg !9395
  store %"struct.std::__1::__compressed_pair_elem.60"* %389, %"struct.std::__1::__compressed_pair_elem.60"** %57, align 8
  %390 = load %"struct.std::__1::__compressed_pair_elem.60"*, %"struct.std::__1::__compressed_pair_elem.60"** %57, align 8
  %391 = bitcast %"struct.std::__1::__compressed_pair_elem.60"* %390 to %"struct.std::__1::default_delete.61"*, !dbg !9396
  store %"struct.std::__1::default_delete.61"* %391, %"struct.std::__1::default_delete.61"** %60, align 8
  %392 = load %"struct.std::__1::default_delete.61"*, %"struct.std::__1::default_delete.61"** %60, align 8, !dbg !9397
  store %"class.std::__1::__compressed_pair.30"* %370, %"class.std::__1::__compressed_pair.30"** %75, align 8
  store %"class.altered_carbon::js::ACAstSyntaxError"** %86, %"class.altered_carbon::js::ACAstSyntaxError"*** %76, align 8
  store %"struct.std::__1::default_delete.61"* %392, %"struct.std::__1::default_delete.61"** %77, align 8
  %393 = load %"class.std::__1::__compressed_pair.30"*, %"class.std::__1::__compressed_pair.30"** %75, align 8
  %394 = load %"class.altered_carbon::js::ACAstSyntaxError"**, %"class.altered_carbon::js::ACAstSyntaxError"*** %76, align 8, !dbg !9398
  %395 = load %"struct.std::__1::default_delete.61"*, %"struct.std::__1::default_delete.61"** %77, align 8, !dbg !9398
  store %"class.std::__1::__compressed_pair.30"* %393, %"class.std::__1::__compressed_pair.30"** %72, align 8
  store %"class.altered_carbon::js::ACAstSyntaxError"** %394, %"class.altered_carbon::js::ACAstSyntaxError"*** %73, align 8
  store %"struct.std::__1::default_delete.61"* %395, %"struct.std::__1::default_delete.61"** %74, align 8
  %396 = load %"class.std::__1::__compressed_pair.30"*, %"class.std::__1::__compressed_pair.30"** %72, align 8
  %397 = bitcast %"class.std::__1::__compressed_pair.30"* %396 to %"struct.std::__1::__compressed_pair_elem.31"*, !dbg !9399
  %398 = load %"class.altered_carbon::js::ACAstSyntaxError"**, %"class.altered_carbon::js::ACAstSyntaxError"*** %73, align 8, !dbg !9400
  store %"class.altered_carbon::js::ACAstSyntaxError"** %398, %"class.altered_carbon::js::ACAstSyntaxError"*** %71, align 8
  %399 = load %"class.altered_carbon::js::ACAstSyntaxError"**, %"class.altered_carbon::js::ACAstSyntaxError"*** %71, align 8, !dbg !9401
  store %"struct.std::__1::__compressed_pair_elem.31"* %397, %"struct.std::__1::__compressed_pair_elem.31"** %62, align 8
  store %"class.altered_carbon::js::ACAstSyntaxError"** %399, %"class.altered_carbon::js::ACAstSyntaxError"*** %63, align 8
  %400 = load %"struct.std::__1::__compressed_pair_elem.31"*, %"struct.std::__1::__compressed_pair_elem.31"** %62, align 8
  %401 = getelementptr inbounds %"struct.std::__1::__compressed_pair_elem.31", %"struct.std::__1::__compressed_pair_elem.31"* %400, i32 0, i32 0, !dbg !9402
  %402 = load %"class.altered_carbon::js::ACAstSyntaxError"**, %"class.altered_carbon::js::ACAstSyntaxError"*** %63, align 8, !dbg !9403
  store %"class.altered_carbon::js::ACAstSyntaxError"** %402, %"class.altered_carbon::js::ACAstSyntaxError"*** %61, align 8
  %403 = load %"class.altered_carbon::js::ACAstSyntaxError"**, %"class.altered_carbon::js::ACAstSyntaxError"*** %61, align 8, !dbg !9404
  %404 = load %"class.altered_carbon::js::ACAstSyntaxError"*, %"class.altered_carbon::js::ACAstSyntaxError"** %403, align 8, !dbg !9405
  %405 = bitcast %"class.altered_carbon::js::ACAstSyntaxError"* %404 to %"class.altered_carbon::js::ACAstBaseNode"*, !dbg !9405
  store %"class.altered_carbon::js::ACAstBaseNode"* %405, %"class.altered_carbon::js::ACAstBaseNode"** %401, align 8, !dbg !9402
  %406 = bitcast %"class.std::__1::__compressed_pair.30"* %396 to %"struct.std::__1::__compressed_pair_elem.45"*, !dbg !9399
  %407 = load %"struct.std::__1::default_delete.61"*, %"struct.std::__1::default_delete.61"** %74, align 8, !dbg !9406
  store %"struct.std::__1::default_delete.61"* %407, %"struct.std::__1::default_delete.61"** %64, align 8
  %408 = load %"struct.std::__1::default_delete.61"*, %"struct.std::__1::default_delete.61"** %64, align 8, !dbg !9407
  store %"struct.std::__1::__compressed_pair_elem.45"* %406, %"struct.std::__1::__compressed_pair_elem.45"** %69, align 8
  store %"struct.std::__1::default_delete.61"* %408, %"struct.std::__1::default_delete.61"** %70, align 8
  %409 = load %"struct.std::__1::__compressed_pair_elem.45"*, %"struct.std::__1::__compressed_pair_elem.45"** %69, align 8
  %410 = bitcast %"struct.std::__1::__compressed_pair_elem.45"* %409 to %"struct.std::__1::default_delete.46"*, !dbg !9408
  %411 = load %"struct.std::__1::default_delete.61"*, %"struct.std::__1::default_delete.61"** %70, align 8, !dbg !9409
  store %"struct.std::__1::default_delete.61"* %411, %"struct.std::__1::default_delete.61"** %68, align 8
  %412 = load %"struct.std::__1::default_delete.61"*, %"struct.std::__1::default_delete.61"** %68, align 8, !dbg !9410
  store %"struct.std::__1::default_delete.46"* %410, %"struct.std::__1::default_delete.46"** %65, align 8
  store %"struct.std::__1::default_delete.61"* %412, %"struct.std::__1::default_delete.61"** %66, align 8
  store i8* null, i8** %67, align 8
  %413 = load %"struct.std::__1::default_delete.46"*, %"struct.std::__1::default_delete.46"** %65, align 8
  store %"class.std::__1::unique_ptr.57"* %179, %"class.std::__1::unique_ptr.57"** %117, align 8
  %414 = load %"class.std::__1::unique_ptr.57"*, %"class.std::__1::unique_ptr.57"** %117, align 8
  store %"class.std::__1::unique_ptr.57"* %414, %"class.std::__1::unique_ptr.57"** %116, align 8
  %415 = load %"class.std::__1::unique_ptr.57"*, %"class.std::__1::unique_ptr.57"** %116, align 8
  store %"class.std::__1::unique_ptr.57"* %415, %"class.std::__1::unique_ptr.57"** %113, align 8
  store %"class.altered_carbon::js::ACAstSyntaxError"* null, %"class.altered_carbon::js::ACAstSyntaxError"** %114, align 8
  %416 = load %"class.std::__1::unique_ptr.57"*, %"class.std::__1::unique_ptr.57"** %113, align 8
  %417 = getelementptr inbounds %"class.std::__1::unique_ptr.57", %"class.std::__1::unique_ptr.57"* %416, i32 0, i32 0, !dbg !9411
  store %"class.std::__1::__compressed_pair.58"* %417, %"class.std::__1::__compressed_pair.58"** %112, align 8
  %418 = load %"class.std::__1::__compressed_pair.58"*, %"class.std::__1::__compressed_pair.58"** %112, align 8
  %419 = bitcast %"class.std::__1::__compressed_pair.58"* %418 to %"struct.std::__1::__compressed_pair_elem.59"*, !dbg !9412
  store %"struct.std::__1::__compressed_pair_elem.59"* %419, %"struct.std::__1::__compressed_pair_elem.59"** %111, align 8
  %420 = load %"struct.std::__1::__compressed_pair_elem.59"*, %"struct.std::__1::__compressed_pair_elem.59"** %111, align 8
  %421 = getelementptr inbounds %"struct.std::__1::__compressed_pair_elem.59", %"struct.std::__1::__compressed_pair_elem.59"* %420, i32 0, i32 0, !dbg !9413
  %422 = load %"class.altered_carbon::js::ACAstSyntaxError"*, %"class.altered_carbon::js::ACAstSyntaxError"** %421, align 8, !dbg !9414
  store %"class.altered_carbon::js::ACAstSyntaxError"* %422, %"class.altered_carbon::js::ACAstSyntaxError"** %115, align 8, !dbg !9109
  %423 = load %"class.altered_carbon::js::ACAstSyntaxError"*, %"class.altered_carbon::js::ACAstSyntaxError"** %114, align 8, !dbg !9415
  %424 = getelementptr inbounds %"class.std::__1::unique_ptr.57", %"class.std::__1::unique_ptr.57"* %416, i32 0, i32 0, !dbg !9416
  store %"class.std::__1::__compressed_pair.58"* %424, %"class.std::__1::__compressed_pair.58"** %108, align 8
  %425 = load %"class.std::__1::__compressed_pair.58"*, %"class.std::__1::__compressed_pair.58"** %108, align 8
  %426 = bitcast %"class.std::__1::__compressed_pair.58"* %425 to %"struct.std::__1::__compressed_pair_elem.59"*, !dbg !9417
  store %"struct.std::__1::__compressed_pair_elem.59"* %426, %"struct.std::__1::__compressed_pair_elem.59"** %107, align 8
  %427 = load %"struct.std::__1::__compressed_pair_elem.59"*, %"struct.std::__1::__compressed_pair_elem.59"** %107, align 8
  %428 = getelementptr inbounds %"struct.std::__1::__compressed_pair_elem.59", %"struct.std::__1::__compressed_pair_elem.59"* %427, i32 0, i32 0, !dbg !9418
  store %"class.altered_carbon::js::ACAstSyntaxError"* %423, %"class.altered_carbon::js::ACAstSyntaxError"** %428, align 8, !dbg !9419
