	.section	__TEXT,__text,regular,pure_instructions
	.macosx_version_min 10, 13
	.file	1 "/Applications/Xcode.app/Contents/Developer/Toolchains/XcodeDefault.xctoolchain/usr/include/c++/v1/ios"
	.file	2 "/Applications/Xcode.app/Contents/Developer/Toolchains/XcodeDefault.xctoolchain/usr/lib/clang/9.1.0/include/stddef.h"
	.file	3 "/Applications/Xcode.app/Contents/Developer/Platforms/MacOSX.platform/Developer/SDKs/MacOSX10.13.sdk/usr/include/i386/_types.h"
	.file	4 "/Applications/Xcode.app/Contents/Developer/Platforms/MacOSX.platform/Developer/SDKs/MacOSX10.13.sdk/usr/include/sys/_types/_size_t.h"
	.file	5 "/Applications/Xcode.app/Contents/Developer/Toolchains/XcodeDefault.xctoolchain/usr/include/c++/v1/__locale"
	.file	6 "/Applications/Xcode.app/Contents/Developer/Toolchains/XcodeDefault.xctoolchain/usr/include/c++/v1/string"
	.file	7 "/Applications/Xcode.app/Contents/Developer/Toolchains/XcodeDefault.xctoolchain/usr/include/c++/v1/memory"
	.file	8 "/Applications/Xcode.app/Contents/Developer/Toolchains/XcodeDefault.xctoolchain/usr/include/c++/v1/type_traits"
	.file	9 "/Applications/Xcode.app/Contents/Developer/Toolchains/XcodeDefault.xctoolchain/usr/include/c++/v1/string_view"
	.file	10 "/Applications/Xcode.app/Contents/Developer/Toolchains/XcodeDefault.xctoolchain/usr/include/c++/v1/__string"
	.file	11 "/Applications/Xcode.app/Contents/Developer/Toolchains/XcodeDefault.xctoolchain/usr/include/c++/v1/initializer_list"
	.file	12 "/Applications/Xcode.app/Contents/Developer/Toolchains/XcodeDefault.xctoolchain/usr/include/c++/v1/iosfwd"
	.file	13 "/Applications/Xcode.app/Contents/Developer/Toolchains/XcodeDefault.xctoolchain/usr/include/c++/v1/mutex"
	.file	14 "/Applications/Xcode.app/Contents/Developer/Platforms/MacOSX.platform/Developer/SDKs/MacOSX10.13.sdk/usr/include/sys/_types/_int32_t.h"
	.file	15 "/Applications/Xcode.app/Contents/Developer/Toolchains/XcodeDefault.xctoolchain/usr/include/c++/v1/iterator"
	.file	16 "/Applications/Xcode.app/Contents/Developer/Toolchains/XcodeDefault.xctoolchain/usr/include/c++/v1/streambuf"
	.file	17 "/Applications/Xcode.app/Contents/Developer/Toolchains/XcodeDefault.xctoolchain/usr/include/c++/v1/ostream"
	.file	18 "/Applications/Xcode.app/Contents/Developer/Toolchains/XcodeDefault.xctoolchain/usr/include/c++/v1/cstddef"
	.file	19 "/Applications/Xcode.app/Contents/Developer/Toolchains/XcodeDefault.xctoolchain/usr/lib/clang/9.1.0/include/__stddef_max_align_t.h"
	.file	20 "/Applications/Xcode.app/Contents/Developer/Toolchains/XcodeDefault.xctoolchain/usr/include/c++/v1/cstring"
	.file	21 "/Applications/Xcode.app/Contents/Developer/Platforms/MacOSX.platform/Developer/SDKs/MacOSX10.13.sdk/usr/include/string.h"
	.file	22 "/Applications/Xcode.app/Contents/Developer/Toolchains/XcodeDefault.xctoolchain/usr/include/c++/v1/string.h"
	.file	23 "/Applications/Xcode.app/Contents/Developer/Platforms/MacOSX.platform/Developer/SDKs/MacOSX10.13.sdk/usr/include/sys/_types/_int8_t.h"
	.file	24 "/Applications/Xcode.app/Contents/Developer/Toolchains/XcodeDefault.xctoolchain/usr/include/c++/v1/cstdint"
	.file	25 "/Applications/Xcode.app/Contents/Developer/Platforms/MacOSX.platform/Developer/SDKs/MacOSX10.13.sdk/usr/include/sys/_types/_int16_t.h"
	.file	26 "/Applications/Xcode.app/Contents/Developer/Platforms/MacOSX.platform/Developer/SDKs/MacOSX10.13.sdk/usr/include/sys/_types/_int64_t.h"
	.file	27 "/Applications/Xcode.app/Contents/Developer/Platforms/MacOSX.platform/Developer/SDKs/MacOSX10.13.sdk/usr/include/_types/_uint8_t.h"
	.file	28 "/Applications/Xcode.app/Contents/Developer/Platforms/MacOSX.platform/Developer/SDKs/MacOSX10.13.sdk/usr/include/_types/_uint16_t.h"
	.file	29 "/Applications/Xcode.app/Contents/Developer/Platforms/MacOSX.platform/Developer/SDKs/MacOSX10.13.sdk/usr/include/_types/_uint32_t.h"
	.file	30 "/Applications/Xcode.app/Contents/Developer/Platforms/MacOSX.platform/Developer/SDKs/MacOSX10.13.sdk/usr/include/_types/_uint64_t.h"
	.file	31 "/Applications/Xcode.app/Contents/Developer/Platforms/MacOSX.platform/Developer/SDKs/MacOSX10.13.sdk/usr/include/stdint.h"
	.file	32 "/Applications/Xcode.app/Contents/Developer/Platforms/MacOSX.platform/Developer/SDKs/MacOSX10.13.sdk/usr/include/sys/_types/_intptr_t.h"
	.file	33 "/Applications/Xcode.app/Contents/Developer/Platforms/MacOSX.platform/Developer/SDKs/MacOSX10.13.sdk/usr/include/sys/_types/_uintptr_t.h"
	.file	34 "/Applications/Xcode.app/Contents/Developer/Platforms/MacOSX.platform/Developer/SDKs/MacOSX10.13.sdk/usr/include/_types/_intmax_t.h"
	.file	35 "/Applications/Xcode.app/Contents/Developer/Platforms/MacOSX.platform/Developer/SDKs/MacOSX10.13.sdk/usr/include/_types/_uintmax_t.h"
	.file	36 "/Applications/Xcode.app/Contents/Developer/Toolchains/XcodeDefault.xctoolchain/usr/include/c++/v1/cstdlib"
	.file	37 "/Applications/Xcode.app/Contents/Developer/Platforms/MacOSX.platform/Developer/SDKs/MacOSX10.13.sdk/usr/include/stdlib.h"
	.file	38 "/Applications/Xcode.app/Contents/Developer/Toolchains/XcodeDefault.xctoolchain/usr/include/c++/v1/stdlib.h"
	.file	39 "/Applications/Xcode.app/Contents/Developer/Platforms/MacOSX.platform/Developer/SDKs/MacOSX10.13.sdk/usr/include/_stdio.h"
	.file	40 "/Applications/Xcode.app/Contents/Developer/Platforms/MacOSX.platform/Developer/SDKs/MacOSX10.13.sdk/usr/include/sys/_types.h"
	.file	41 "/Applications/Xcode.app/Contents/Developer/Toolchains/XcodeDefault.xctoolchain/usr/include/c++/v1/cstdio"
	.file	42 "/Applications/Xcode.app/Contents/Developer/Platforms/MacOSX.platform/Developer/SDKs/MacOSX10.13.sdk/usr/include/stdio.h"
	.file	43 "/Applications/Xcode.app/Contents/Developer/Platforms/MacOSX.platform/Developer/SDKs/MacOSX10.13.sdk/usr/include/_ctype.h"
	.file	44 "/Applications/Xcode.app/Contents/Developer/Toolchains/XcodeDefault.xctoolchain/usr/include/c++/v1/cctype"
	.file	45 "/Applications/Xcode.app/Contents/Developer/Platforms/MacOSX.platform/Developer/SDKs/MacOSX10.13.sdk/usr/include/sys/_types/_wint_t.h"
	.file	46 "/Applications/Xcode.app/Contents/Developer/Toolchains/XcodeDefault.xctoolchain/usr/include/c++/v1/cwctype"
	.file	47 "/Applications/Xcode.app/Contents/Developer/Platforms/MacOSX.platform/Developer/SDKs/MacOSX10.13.sdk/usr/include/_types.h"
	.file	48 "/Applications/Xcode.app/Contents/Developer/Platforms/MacOSX.platform/Developer/SDKs/MacOSX10.13.sdk/usr/include/_types/_wctrans_t.h"
	.file	49 "/Applications/Xcode.app/Contents/Developer/Platforms/MacOSX.platform/Developer/SDKs/MacOSX10.13.sdk/usr/include/_types/_wctype_t.h"
	.file	50 "/Applications/Xcode.app/Contents/Developer/Platforms/MacOSX.platform/Developer/SDKs/MacOSX10.13.sdk/usr/include/_wctype.h"
	.file	51 "/Applications/Xcode.app/Contents/Developer/Platforms/MacOSX.platform/Developer/SDKs/MacOSX10.13.sdk/usr/include/wctype.h"
	.file	52 "/Applications/Xcode.app/Contents/Developer/Platforms/MacOSX.platform/Developer/SDKs/MacOSX10.13.sdk/usr/include/sys/_types/_mbstate_t.h"
	.file	53 "/Applications/Xcode.app/Contents/Developer/Toolchains/XcodeDefault.xctoolchain/usr/include/c++/v1/cwchar"
	.file	54 "/Applications/Xcode.app/Contents/Developer/Platforms/MacOSX.platform/Developer/SDKs/MacOSX10.13.sdk/usr/include/time.h"
	.file	55 "/Applications/Xcode.app/Contents/Developer/Platforms/MacOSX.platform/Developer/SDKs/MacOSX10.13.sdk/usr/include/wchar.h"
	.file	56 "/Applications/Xcode.app/Contents/Developer/Toolchains/XcodeDefault.xctoolchain/usr/include/c++/v1/wchar.h"
	.file	57 "/Applications/Xcode.app/Contents/Developer/Platforms/MacOSX.platform/Developer/SDKs/MacOSX10.13.sdk/usr/include/sys/_types/_clock_t.h"
	.file	58 "/Applications/Xcode.app/Contents/Developer/Toolchains/XcodeDefault.xctoolchain/usr/include/c++/v1/ctime"
	.file	59 "/Applications/Xcode.app/Contents/Developer/Platforms/MacOSX.platform/Developer/SDKs/MacOSX10.13.sdk/usr/include/sys/_types/_time_t.h"
	.globl	__ZN14altered_carbon2js11ACLexNumberC2Ev ## -- Begin function _ZN14altered_carbon2js11ACLexNumberC2Ev
	.p2align	4, 0x90
__ZN14altered_carbon2js11ACLexNumberC2Ev: ## @_ZN14altered_carbon2js11ACLexNumberC2Ev
Lfunc_begin0:
	.file	60 "/Users/ejiang/Projects/lls/ac/llfiles/../ac_lex_datatypes.cc"
	.loc	60 7 0                  ## ../ac_lex_datatypes.cc:7:0
	.cfi_startproc
## %bb.0:
	pushq	%rbp
	.cfi_def_cfa_offset 16
	.cfi_offset %rbp, -16
	movq	%rsp, %rbp
	.cfi_def_cfa_register %rbp
	movq	__ZTVN14altered_carbon2js11ACLexNumberE@GOTPCREL(%rip), %rax
	addq	$16, %rax
	movq	%rdi, -8(%rbp)
	movq	-8(%rbp), %rcx
Ltmp0:
	.loc	60 7 67 prologue_end    ## ../ac_lex_datatypes.cc:7:67
	movq	%rax, (%rcx)
	.loc	60 7 30 is_stmt 0       ## ../ac_lex_datatypes.cc:7:30
	movb	$1, 8(%rcx)
	.loc	60 7 49                 ## ../ac_lex_datatypes.cc:7:49
	movq	$0, 16(%rcx)
	.loc	60 7 68                 ## ../ac_lex_datatypes.cc:7:68
	popq	%rbp
	retq
Ltmp1:
Lfunc_end0:
	.cfi_endproc
	.file	61 "/Users/ejiang/Projects/lls/ac/llfiles/../ac_lex_datatypes.h"
                                        ## -- End function
	.globl	__ZN14altered_carbon2js11ACLexNumberC1Ev ## -- Begin function _ZN14altered_carbon2js11ACLexNumberC1Ev
	.p2align	4, 0x90
__ZN14altered_carbon2js11ACLexNumberC1Ev: ## @_ZN14altered_carbon2js11ACLexNumberC1Ev
Lfunc_begin1:
	.loc	60 7 0 is_stmt 1        ## ../ac_lex_datatypes.cc:7:0
	.cfi_startproc
## %bb.0:
	pushq	%rbp
	.cfi_def_cfa_offset 16
	.cfi_offset %rbp, -16
	movq	%rsp, %rbp
	.cfi_def_cfa_register %rbp
	subq	$16, %rsp
	movq	%rdi, -8(%rbp)
	movq	-8(%rbp), %rdi
Ltmp2:
	.loc	60 7 67 prologue_end    ## ../ac_lex_datatypes.cc:7:67
	callq	__ZN14altered_carbon2js11ACLexNumberC2Ev
	.loc	60 7 68 is_stmt 0       ## ../ac_lex_datatypes.cc:7:68
	addq	$16, %rsp
	popq	%rbp
	retq
Ltmp3:
Lfunc_end1:
	.cfi_endproc
                                        ## -- End function
	.globl	__ZN14altered_carbon2js11ACLexNumberC2Ex ## -- Begin function _ZN14altered_carbon2js11ACLexNumberC2Ex
	.p2align	4, 0x90
__ZN14altered_carbon2js11ACLexNumberC2Ex: ## @_ZN14altered_carbon2js11ACLexNumberC2Ex
Lfunc_begin2:
	.loc	60 8 0 is_stmt 1        ## ../ac_lex_datatypes.cc:8:0
	.cfi_startproc
## %bb.0:
	pushq	%rbp
	.cfi_def_cfa_offset 16
	.cfi_offset %rbp, -16
	movq	%rsp, %rbp
	.cfi_def_cfa_register %rbp
	movq	__ZTVN14altered_carbon2js11ACLexNumberE@GOTPCREL(%rip), %rax
	addq	$16, %rax
	movq	%rdi, -16(%rbp)
	movq	%rsi, -8(%rbp)
	movq	-16(%rbp), %rcx
Ltmp4:
	.loc	60 8 82 prologue_end    ## ../ac_lex_datatypes.cc:8:82
	movq	%rax, (%rcx)
	.loc	60 8 45 is_stmt 0       ## ../ac_lex_datatypes.cc:8:45
	movb	$1, 8(%rcx)
	.loc	60 8 79                 ## ../ac_lex_datatypes.cc:8:79
	movq	-8(%rbp), %rax
	.loc	60 8 64                 ## ../ac_lex_datatypes.cc:8:64
	movq	%rax, 16(%rcx)
	.loc	60 8 83                 ## ../ac_lex_datatypes.cc:8:83
	popq	%rbp
	retq
Ltmp5:
Lfunc_end2:
	.cfi_endproc
                                        ## -- End function
	.globl	__ZN14altered_carbon2js11ACLexNumberC1Ex ## -- Begin function _ZN14altered_carbon2js11ACLexNumberC1Ex
	.p2align	4, 0x90
__ZN14altered_carbon2js11ACLexNumberC1Ex: ## @_ZN14altered_carbon2js11ACLexNumberC1Ex
Lfunc_begin3:
	.loc	60 8 0 is_stmt 1        ## ../ac_lex_datatypes.cc:8:0
	.cfi_startproc
## %bb.0:
	pushq	%rbp
	.cfi_def_cfa_offset 16
	.cfi_offset %rbp, -16
	movq	%rsp, %rbp
	.cfi_def_cfa_register %rbp
	subq	$16, %rsp
	movq	%rdi, -16(%rbp)
	movq	%rsi, -8(%rbp)
	movq	-16(%rbp), %rdi
Ltmp6:
	.loc	60 8 82 prologue_end    ## ../ac_lex_datatypes.cc:8:82
	movq	-8(%rbp), %rsi
	callq	__ZN14altered_carbon2js11ACLexNumberC2Ex
	.loc	60 8 83 is_stmt 0       ## ../ac_lex_datatypes.cc:8:83
	addq	$16, %rsp
	popq	%rbp
	retq
Ltmp7:
Lfunc_end3:
	.cfi_endproc
                                        ## -- End function
	.globl	__ZN14altered_carbon2js11ACLexNumberC2Ed ## -- Begin function _ZN14altered_carbon2js11ACLexNumberC2Ed
	.p2align	4, 0x90
__ZN14altered_carbon2js11ACLexNumberC2Ed: ## @_ZN14altered_carbon2js11ACLexNumberC2Ed
Lfunc_begin4:
	.loc	60 9 0 is_stmt 1        ## ../ac_lex_datatypes.cc:9:0
	.cfi_startproc
## %bb.0:
	pushq	%rbp
	.cfi_def_cfa_offset 16
	.cfi_offset %rbp, -16
	movq	%rsp, %rbp
	.cfi_def_cfa_register %rbp
	movq	__ZTVN14altered_carbon2js11ACLexNumberE@GOTPCREL(%rip), %rax
	addq	$16, %rax
	movq	%rdi, -16(%rbp)
	movsd	%xmm0, -8(%rbp)
	movq	-16(%rbp), %rcx
Ltmp8:
	.loc	60 9 83 prologue_end    ## ../ac_lex_datatypes.cc:9:83
	movq	%rax, (%rcx)
	.loc	60 9 44 is_stmt 0       ## ../ac_lex_datatypes.cc:9:44
	movb	$0, 8(%rcx)
	.loc	60 9 80                 ## ../ac_lex_datatypes.cc:9:80
	movsd	-8(%rbp), %xmm0         ## xmm0 = mem[0],zero
	.loc	60 9 64                 ## ../ac_lex_datatypes.cc:9:64
	movsd	%xmm0, 16(%rcx)
	.loc	60 9 84                 ## ../ac_lex_datatypes.cc:9:84
	popq	%rbp
	retq
Ltmp9:
Lfunc_end4:
	.cfi_endproc
                                        ## -- End function
	.globl	__ZN14altered_carbon2js11ACLexNumberC1Ed ## -- Begin function _ZN14altered_carbon2js11ACLexNumberC1Ed
	.p2align	4, 0x90
__ZN14altered_carbon2js11ACLexNumberC1Ed: ## @_ZN14altered_carbon2js11ACLexNumberC1Ed
Lfunc_begin5:
	.loc	60 9 0 is_stmt 1        ## ../ac_lex_datatypes.cc:9:0
	.cfi_startproc
## %bb.0:
	pushq	%rbp
	.cfi_def_cfa_offset 16
	.cfi_offset %rbp, -16
	movq	%rsp, %rbp
	.cfi_def_cfa_register %rbp
	subq	$16, %rsp
	movq	%rdi, -16(%rbp)
	movsd	%xmm0, -8(%rbp)
	movq	-16(%rbp), %rdi
Ltmp10:
	.loc	60 9 83 prologue_end    ## ../ac_lex_datatypes.cc:9:83
	movsd	-8(%rbp), %xmm0         ## xmm0 = mem[0],zero
	callq	__ZN14altered_carbon2js11ACLexNumberC2Ed
	.loc	60 9 84 is_stmt 0       ## ../ac_lex_datatypes.cc:9:84
	addq	$16, %rsp
	popq	%rbp
	retq
Ltmp11:
Lfunc_end5:
	.cfi_endproc
                                        ## -- End function
	.globl	__ZN14altered_carbon2js11ACLexNumberC2ERKS1_ ## -- Begin function _ZN14altered_carbon2js11ACLexNumberC2ERKS1_
	.p2align	4, 0x90
__ZN14altered_carbon2js11ACLexNumberC2ERKS1_: ## @_ZN14altered_carbon2js11ACLexNumberC2ERKS1_
Lfunc_begin6:
	.loc	60 10 0 is_stmt 1       ## ../ac_lex_datatypes.cc:10:0
	.cfi_startproc
## %bb.0:
	pushq	%rbp
	.cfi_def_cfa_offset 16
	.cfi_offset %rbp, -16
	movq	%rsp, %rbp
	.cfi_def_cfa_register %rbp
	subq	$16, %rsp
	movq	__ZTVN14altered_carbon2js11ACLexNumberE@GOTPCREL(%rip), %rax
	addq	$16, %rax
	movq	%rdi, -16(%rbp)
	movq	%rsi, -8(%rbp)
	movq	-16(%rbp), %rdi
Ltmp12:
	.loc	60 10 48 prologue_end   ## ../ac_lex_datatypes.cc:10:48
	movq	%rax, (%rdi)
Ltmp13:
	.loc	60 11 11                ## ../ac_lex_datatypes.cc:11:11
	movq	-8(%rbp), %rsi
	.loc	60 11 9 is_stmt 0       ## ../ac_lex_datatypes.cc:11:9
	callq	__ZN14altered_carbon2js11ACLexNumberaSERKS1_
Ltmp14:
	.loc	60 12 1 is_stmt 1       ## ../ac_lex_datatypes.cc:12:1
	addq	$16, %rsp
	popq	%rbp
	retq
Ltmp15:
Lfunc_end6:
	.cfi_endproc
                                        ## -- End function
	.globl	__ZN14altered_carbon2js11ACLexNumberaSERKS1_ ## -- Begin function _ZN14altered_carbon2js11ACLexNumberaSERKS1_
	.p2align	4, 0x90
__ZN14altered_carbon2js11ACLexNumberaSERKS1_: ## @_ZN14altered_carbon2js11ACLexNumberaSERKS1_
Lfunc_begin7:
	.loc	60 45 0                 ## ../ac_lex_datatypes.cc:45:0
	.cfi_startproc
## %bb.0:
	pushq	%rbp
	.cfi_def_cfa_offset 16
	.cfi_offset %rbp, -16
	movq	%rsp, %rbp
	.cfi_def_cfa_register %rbp
	movq	%rdi, -16(%rbp)
	movq	%rsi, -8(%rbp)
	movq	-16(%rbp), %rax
Ltmp16:
	.loc	60 46 7 prologue_end    ## ../ac_lex_datatypes.cc:46:7
	movq	-8(%rbp), %rcx
Ltmp17:
	.loc	60 46 7 is_stmt 0       ## ../ac_lex_datatypes.cc:46:7
	testb	$1, 8(%rcx)
	je	LBB7_2
## %bb.1:
Ltmp18:
	.loc	60 47 17 is_stmt 1      ## ../ac_lex_datatypes.cc:47:17
	movb	$1, 8(%rax)
	.loc	60 48 22                ## ../ac_lex_datatypes.cc:48:22
	movq	-8(%rbp), %rcx
	.loc	60 48 24 is_stmt 0      ## ../ac_lex_datatypes.cc:48:24
	movq	16(%rcx), %rcx
	.loc	60 48 20                ## ../ac_lex_datatypes.cc:48:20
	movq	%rcx, 16(%rax)
	.loc	60 49 3 is_stmt 1       ## ../ac_lex_datatypes.cc:49:3
	jmp	LBB7_3
Ltmp19:
LBB7_2:
	.loc	60 50 17                ## ../ac_lex_datatypes.cc:50:17
	movb	$0, 8(%rax)
	.loc	60 51 23                ## ../ac_lex_datatypes.cc:51:23
	movq	-8(%rbp), %rcx
	.loc	60 51 25 is_stmt 0      ## ../ac_lex_datatypes.cc:51:25
	movsd	16(%rcx), %xmm0         ## xmm0 = mem[0],zero
	.loc	60 51 21                ## ../ac_lex_datatypes.cc:51:21
	movsd	%xmm0, 16(%rax)
Ltmp20:
LBB7_3:
	.loc	60 53 3 is_stmt 1       ## ../ac_lex_datatypes.cc:53:3
	popq	%rbp
	retq
Ltmp21:
Lfunc_end7:
	.cfi_endproc
                                        ## -- End function
	.globl	__ZN14altered_carbon2js11ACLexNumberC1ERKS1_ ## -- Begin function _ZN14altered_carbon2js11ACLexNumberC1ERKS1_
	.p2align	4, 0x90
__ZN14altered_carbon2js11ACLexNumberC1ERKS1_: ## @_ZN14altered_carbon2js11ACLexNumberC1ERKS1_
Lfunc_begin8:
	.loc	60 10 0                 ## ../ac_lex_datatypes.cc:10:0
	.cfi_startproc
## %bb.0:
	pushq	%rbp
	.cfi_def_cfa_offset 16
	.cfi_offset %rbp, -16
	movq	%rsp, %rbp
	.cfi_def_cfa_register %rbp
	subq	$16, %rsp
	movq	%rdi, -16(%rbp)
	movq	%rsi, -8(%rbp)
	movq	-16(%rbp), %rdi
Ltmp22:
	.loc	60 10 48 prologue_end   ## ../ac_lex_datatypes.cc:10:48
	movq	-8(%rbp), %rsi
	callq	__ZN14altered_carbon2js11ACLexNumberC2ERKS1_
	.loc	60 12 1                 ## ../ac_lex_datatypes.cc:12:1
	addq	$16, %rsp
	popq	%rbp
	retq
Ltmp23:
Lfunc_end8:
	.cfi_endproc
                                        ## -- End function
	.globl	__ZNK14altered_carbon2js11ACLexNumbereqEx ## -- Begin function _ZNK14altered_carbon2js11ACLexNumbereqEx
	.p2align	4, 0x90
__ZNK14altered_carbon2js11ACLexNumbereqEx: ## @_ZNK14altered_carbon2js11ACLexNumbereqEx
Lfunc_begin9:
	.loc	60 14 0                 ## ../ac_lex_datatypes.cc:14:0
	.cfi_startproc
## %bb.0:
	pushq	%rbp
	.cfi_def_cfa_offset 16
	.cfi_offset %rbp, -16
	movq	%rsp, %rbp
	.cfi_def_cfa_register %rbp
	movq	%rdi, -24(%rbp)
	movq	%rsi, -16(%rbp)
	movq	-24(%rbp), %rax
Ltmp24:
	.loc	60 15 7 prologue_end    ## ../ac_lex_datatypes.cc:15:7
	testb	$1, 8(%rax)
	je	LBB9_2
## %bb.1:
Ltmp25:
	.loc	60 16 12                ## ../ac_lex_datatypes.cc:16:12
	movq	16(%rax), %rax
	.loc	60 16 27 is_stmt 0      ## ../ac_lex_datatypes.cc:16:27
	cmpq	-16(%rbp), %rax
	sete	%al
	.loc	60 16 5                 ## ../ac_lex_datatypes.cc:16:5
	andb	$1, %al
	movb	%al, -1(%rbp)
	jmp	LBB9_3
Ltmp26:
LBB9_2:
	.loc	60 18 29 is_stmt 1      ## ../ac_lex_datatypes.cc:18:29
	cvttsd2si	16(%rax), %rax
	.loc	60 18 46 is_stmt 0      ## ../ac_lex_datatypes.cc:18:46
	cmpq	-16(%rbp), %rax
	sete	%al
	.loc	60 18 5                 ## ../ac_lex_datatypes.cc:18:5
	andb	$1, %al
	movb	%al, -1(%rbp)
Ltmp27:
LBB9_3:
	.loc	60 20 1 is_stmt 1       ## ../ac_lex_datatypes.cc:20:1
	movb	-1(%rbp), %al
	andb	$1, %al
	movzbl	%al, %eax
	popq	%rbp
	retq
Ltmp28:
Lfunc_end9:
	.cfi_endproc
                                        ## -- End function
	.globl	__ZNK14altered_carbon2js11ACLexNumbereqEd ## -- Begin function _ZNK14altered_carbon2js11ACLexNumbereqEd
	.p2align	4, 0x90
__ZNK14altered_carbon2js11ACLexNumbereqEd: ## @_ZNK14altered_carbon2js11ACLexNumbereqEd
Lfunc_begin10:
	.loc	60 22 0                 ## ../ac_lex_datatypes.cc:22:0
	.cfi_startproc
## %bb.0:
	pushq	%rbp
	.cfi_def_cfa_offset 16
	.cfi_offset %rbp, -16
	movq	%rsp, %rbp
	.cfi_def_cfa_register %rbp
	movq	%rdi, -24(%rbp)
	movsd	%xmm0, -16(%rbp)
	movq	-24(%rbp), %rax
Ltmp29:
	.loc	60 23 7 prologue_end    ## ../ac_lex_datatypes.cc:23:7
	testb	$1, 8(%rax)
	je	LBB10_2
## %bb.1:
Ltmp30:
	.loc	60 24 28                ## ../ac_lex_datatypes.cc:24:28
	movq	16(%rax), %rax
	cvtsi2sdq	%rax, %xmm0
	.loc	60 24 44 is_stmt 0      ## ../ac_lex_datatypes.cc:24:44
	ucomisd	-16(%rbp), %xmm0
	sete	%al
	setnp	%cl
	andb	%cl, %al
	.loc	60 24 5                 ## ../ac_lex_datatypes.cc:24:5
	andb	$1, %al
	movb	%al, -1(%rbp)
	jmp	LBB10_3
Ltmp31:
LBB10_2:
	.loc	60 26 12 is_stmt 1      ## ../ac_lex_datatypes.cc:26:12
	movsd	16(%rax), %xmm0         ## xmm0 = mem[0],zero
	.loc	60 26 28 is_stmt 0      ## ../ac_lex_datatypes.cc:26:28
	ucomisd	-16(%rbp), %xmm0
	sete	%al
	setnp	%cl
	andb	%cl, %al
	.loc	60 26 5                 ## ../ac_lex_datatypes.cc:26:5
	andb	$1, %al
	movb	%al, -1(%rbp)
Ltmp32:
LBB10_3:
	.loc	60 28 1 is_stmt 1       ## ../ac_lex_datatypes.cc:28:1
	movb	-1(%rbp), %al
	andb	$1, %al
	movzbl	%al, %eax
	popq	%rbp
	retq
Ltmp33:
Lfunc_end10:
	.cfi_endproc
                                        ## -- End function
	.globl	__ZN14altered_carbon2js11ACLexNumberpLERKS1_ ## -- Begin function _ZN14altered_carbon2js11ACLexNumberpLERKS1_
	.p2align	4, 0x90
__ZN14altered_carbon2js11ACLexNumberpLERKS1_: ## @_ZN14altered_carbon2js11ACLexNumberpLERKS1_
Lfunc_begin11:
	.loc	60 71 0                 ## ../ac_lex_datatypes.cc:71:0
	.cfi_startproc
## %bb.0:
	pushq	%rbp
	.cfi_def_cfa_offset 16
	.cfi_offset %rbp, -16
	movq	%rsp, %rbp
	.cfi_def_cfa_register %rbp
	pushq	%rbx
	subq	$24, %rsp
	.cfi_offset %rbx, -24
	movq	%rdi, -24(%rbp)
	movq	%rsi, -16(%rbp)
	movq	-24(%rbp), %rbx
Ltmp34:
	.loc	60 71 1 prologue_end    ## ../ac_lex_datatypes.cc:71:1
	movb	8(%rbx), %al
	andb	$1, %al
	movzbl	%al, %eax
	movq	-16(%rbp), %rcx
	movb	8(%rcx), %cl
	andb	$1, %cl
	movzbl	%cl, %ecx
	cmpl	%ecx, %eax
Ltmp35:
	.loc	60 71 1 is_stmt 0       ## ../ac_lex_datatypes.cc:71:1
	je	LBB11_2
## %bb.1:
Ltmp36:
	.loc	60 71 1                 ## ../ac_lex_datatypes.cc:71:1
	movq	%rbx, %rdi
	callq	__ZN14altered_carbon2js11ACLexNumber14convertToFloatEv
	movq	-16(%rbp), %rdi
	callq	__ZNK14altered_carbon2js11ACLexNumber8getFloatEv
	addsd	16(%rbx), %xmm0
	movsd	%xmm0, 16(%rbx)
	jmp	LBB11_6
Ltmp37:
LBB11_2:
	.loc	60 71 1                 ## ../ac_lex_datatypes.cc:71:1
	testb	$1, 8(%rbx)
	je	LBB11_4
## %bb.3:
Ltmp38:
	.loc	60 71 1                 ## ../ac_lex_datatypes.cc:71:1
	movq	-16(%rbp), %rdi
	callq	__ZNK14altered_carbon2js11ACLexNumber6getIntEv
	addq	16(%rbx), %rax
	movq	%rax, 16(%rbx)
	jmp	LBB11_5
Ltmp39:
LBB11_4:
	.loc	60 71 1                 ## ../ac_lex_datatypes.cc:71:1
	movq	-16(%rbp), %rdi
	callq	__ZNK14altered_carbon2js11ACLexNumber8getFloatEv
	addsd	16(%rbx), %xmm0
	movsd	%xmm0, 16(%rbx)
Ltmp40:
LBB11_5:
	.loc	60 0 1                  ## ../ac_lex_datatypes.cc:0:1
	jmp	LBB11_6
LBB11_6:
	.loc	60 71 1                 ## ../ac_lex_datatypes.cc:71:1
	movq	%rbx, %rax
	addq	$24, %rsp
	popq	%rbx
	popq	%rbp
	retq
Ltmp41:
Lfunc_end11:
	.cfi_endproc
                                        ## -- End function
	.private_extern	__ZN14altered_carbon2js11ACLexNumber14convertToFloatEv ## -- Begin function _ZN14altered_carbon2js11ACLexNumber14convertToFloatEv
	.globl	__ZN14altered_carbon2js11ACLexNumber14convertToFloatEv
	.weak_definition	__ZN14altered_carbon2js11ACLexNumber14convertToFloatEv
	.p2align	4, 0x90
__ZN14altered_carbon2js11ACLexNumber14convertToFloatEv: ## @_ZN14altered_carbon2js11ACLexNumber14convertToFloatEv
Lfunc_begin12:
	.loc	60 37 0 is_stmt 1       ## ../ac_lex_datatypes.cc:37:0
	.cfi_startproc
## %bb.0:
	pushq	%rbp
	.cfi_def_cfa_offset 16
	.cfi_offset %rbp, -16
	movq	%rsp, %rbp
	.cfi_def_cfa_register %rbp
	pushq	%rbx
	pushq	%rax
	.cfi_offset %rbx, -24
	movq	%rdi, -16(%rbp)
	movq	-16(%rbp), %rbx
Ltmp42:
	.loc	60 38 7 prologue_end    ## ../ac_lex_datatypes.cc:38:7
	testb	$1, 8(%rbx)
	je	LBB12_2
## %bb.1:
Ltmp43:
	.loc	60 39 23                ## ../ac_lex_datatypes.cc:39:23
	movq	%rbx, %rdi
	callq	__ZNK14altered_carbon2js11ACLexNumber8getFloatEv
	.loc	60 39 21 is_stmt 0      ## ../ac_lex_datatypes.cc:39:21
	movsd	%xmm0, 16(%rbx)
	.loc	60 40 17 is_stmt 1      ## ../ac_lex_datatypes.cc:40:17
	movb	$0, 8(%rbx)
Ltmp44:
LBB12_2:
	.loc	60 42 1                 ## ../ac_lex_datatypes.cc:42:1
	addq	$8, %rsp
	popq	%rbx
	popq	%rbp
	retq
Ltmp45:
Lfunc_end12:
	.cfi_endproc
                                        ## -- End function
	.private_extern	__ZNK14altered_carbon2js11ACLexNumber8getFloatEv ## -- Begin function _ZNK14altered_carbon2js11ACLexNumber8getFloatEv
	.globl	__ZNK14altered_carbon2js11ACLexNumber8getFloatEv
	.weak_definition	__ZNK14altered_carbon2js11ACLexNumber8getFloatEv
	.p2align	4, 0x90
__ZNK14altered_carbon2js11ACLexNumber8getFloatEv: ## @_ZNK14altered_carbon2js11ACLexNumber8getFloatEv
Lfunc_begin13:
	.loc	61 32 0                 ## ../ac_lex_datatypes.h:32:0
	.cfi_startproc
## %bb.0:
	pushq	%rbp
	.cfi_def_cfa_offset 16
	.cfi_offset %rbp, -16
	movq	%rsp, %rbp
	.cfi_def_cfa_register %rbp
	movq	%rdi, -8(%rbp)
	movq	-8(%rbp), %rax
Ltmp46:
	.loc	61 33 13 prologue_end   ## ../ac_lex_datatypes.h:33:13
	testb	$1, 8(%rax)
	je	LBB13_2
## %bb.1:
	.loc	61 33 42 is_stmt 0      ## ../ac_lex_datatypes.h:33:42
	movq	16(%rax), %rax
	cvtsi2sdq	%rax, %xmm0
	.loc	61 33 13                ## ../ac_lex_datatypes.h:33:13
	jmp	LBB13_3
LBB13_2:
	.loc	61 33 59                ## ../ac_lex_datatypes.h:33:59
	movsd	16(%rax), %xmm0         ## xmm0 = mem[0],zero
LBB13_3:
	.loc	61 33 5                 ## ../ac_lex_datatypes.h:33:5
	popq	%rbp
	retq
Ltmp47:
Lfunc_end13:
	.cfi_endproc
                                        ## -- End function
	.private_extern	__ZNK14altered_carbon2js11ACLexNumber6getIntEv ## -- Begin function _ZNK14altered_carbon2js11ACLexNumber6getIntEv
	.globl	__ZNK14altered_carbon2js11ACLexNumber6getIntEv
	.weak_definition	__ZNK14altered_carbon2js11ACLexNumber6getIntEv
	.p2align	4, 0x90
__ZNK14altered_carbon2js11ACLexNumber6getIntEv: ## @_ZNK14altered_carbon2js11ACLexNumber6getIntEv
Lfunc_begin14:
	.loc	61 29 0 is_stmt 1       ## ../ac_lex_datatypes.h:29:0
	.cfi_startproc
## %bb.0:
	pushq	%rbp
	.cfi_def_cfa_offset 16
	.cfi_offset %rbp, -16
	movq	%rsp, %rbp
	.cfi_def_cfa_register %rbp
	movq	%rdi, -8(%rbp)
	movq	-8(%rbp), %rax
Ltmp48:
	.loc	61 30 13 prologue_end   ## ../ac_lex_datatypes.h:30:13
	testb	$1, 8(%rax)
	je	LBB14_2
## %bb.1:
	.loc	61 30 28 is_stmt 0      ## ../ac_lex_datatypes.h:30:28
	movq	16(%rax), %rax
	.loc	61 30 13                ## ../ac_lex_datatypes.h:30:13
	jmp	LBB14_3
LBB14_2:
	.loc	61 30 61                ## ../ac_lex_datatypes.h:30:61
	cvttsd2si	16(%rax), %rax
LBB14_3:
	.loc	61 30 5                 ## ../ac_lex_datatypes.h:30:5
	popq	%rbp
	retq
Ltmp49:
Lfunc_end14:
	.cfi_endproc
                                        ## -- End function
	.globl	__ZN14altered_carbon2js11ACLexNumbermIERKS1_ ## -- Begin function _ZN14altered_carbon2js11ACLexNumbermIERKS1_
	.p2align	4, 0x90
__ZN14altered_carbon2js11ACLexNumbermIERKS1_: ## @_ZN14altered_carbon2js11ACLexNumbermIERKS1_
Lfunc_begin15:
	.loc	60 72 0 is_stmt 1       ## ../ac_lex_datatypes.cc:72:0
	.cfi_startproc
## %bb.0:
	pushq	%rbp
	.cfi_def_cfa_offset 16
	.cfi_offset %rbp, -16
	movq	%rsp, %rbp
	.cfi_def_cfa_register %rbp
	pushq	%rbx
	subq	$24, %rsp
	.cfi_offset %rbx, -24
	movq	%rdi, -24(%rbp)
	movq	%rsi, -16(%rbp)
	movq	-24(%rbp), %rbx
Ltmp50:
	.loc	60 72 1 prologue_end    ## ../ac_lex_datatypes.cc:72:1
	movb	8(%rbx), %al
	andb	$1, %al
	movzbl	%al, %eax
	movq	-16(%rbp), %rcx
	movb	8(%rcx), %cl
	andb	$1, %cl
	movzbl	%cl, %ecx
	cmpl	%ecx, %eax
Ltmp51:
	.loc	60 72 1 is_stmt 0       ## ../ac_lex_datatypes.cc:72:1
	je	LBB15_2
## %bb.1:
Ltmp52:
	.loc	60 72 1                 ## ../ac_lex_datatypes.cc:72:1
	movq	%rbx, %rdi
	callq	__ZN14altered_carbon2js11ACLexNumber14convertToFloatEv
	movq	-16(%rbp), %rdi
	callq	__ZNK14altered_carbon2js11ACLexNumber8getFloatEv
	movsd	16(%rbx), %xmm1         ## xmm1 = mem[0],zero
	subsd	%xmm0, %xmm1
	movsd	%xmm1, 16(%rbx)
	jmp	LBB15_6
Ltmp53:
LBB15_2:
	.loc	60 72 1                 ## ../ac_lex_datatypes.cc:72:1
	testb	$1, 8(%rbx)
	je	LBB15_4
## %bb.3:
Ltmp54:
	.loc	60 72 1                 ## ../ac_lex_datatypes.cc:72:1
	movq	-16(%rbp), %rdi
	callq	__ZNK14altered_carbon2js11ACLexNumber6getIntEv
	movq	16(%rbx), %rcx
	subq	%rax, %rcx
	movq	%rcx, 16(%rbx)
	jmp	LBB15_5
Ltmp55:
LBB15_4:
	.loc	60 72 1                 ## ../ac_lex_datatypes.cc:72:1
	movq	-16(%rbp), %rdi
	callq	__ZNK14altered_carbon2js11ACLexNumber8getFloatEv
	movsd	16(%rbx), %xmm1         ## xmm1 = mem[0],zero
	subsd	%xmm0, %xmm1
	movsd	%xmm1, 16(%rbx)
Ltmp56:
LBB15_5:
	.loc	60 0 1                  ## ../ac_lex_datatypes.cc:0:1
	jmp	LBB15_6
LBB15_6:
	.loc	60 72 1                 ## ../ac_lex_datatypes.cc:72:1
	movq	%rbx, %rax
	addq	$24, %rsp
	popq	%rbx
	popq	%rbp
	retq
Ltmp57:
Lfunc_end15:
	.cfi_endproc
                                        ## -- End function
	.globl	__ZN14altered_carbon2js11ACLexNumbermLERKS1_ ## -- Begin function _ZN14altered_carbon2js11ACLexNumbermLERKS1_
	.p2align	4, 0x90
__ZN14altered_carbon2js11ACLexNumbermLERKS1_: ## @_ZN14altered_carbon2js11ACLexNumbermLERKS1_
Lfunc_begin16:
	.loc	60 73 0 is_stmt 1       ## ../ac_lex_datatypes.cc:73:0
	.cfi_startproc
## %bb.0:
	pushq	%rbp
	.cfi_def_cfa_offset 16
	.cfi_offset %rbp, -16
	movq	%rsp, %rbp
	.cfi_def_cfa_register %rbp
	pushq	%rbx
	subq	$24, %rsp
	.cfi_offset %rbx, -24
	movq	%rdi, -24(%rbp)
	movq	%rsi, -16(%rbp)
	movq	-24(%rbp), %rbx
Ltmp58:
	.loc	60 73 1 prologue_end    ## ../ac_lex_datatypes.cc:73:1
	movb	8(%rbx), %al
	andb	$1, %al
	movzbl	%al, %eax
	movq	-16(%rbp), %rcx
	movb	8(%rcx), %cl
	andb	$1, %cl
	movzbl	%cl, %ecx
	cmpl	%ecx, %eax
Ltmp59:
	.loc	60 73 1 is_stmt 0       ## ../ac_lex_datatypes.cc:73:1
	je	LBB16_2
## %bb.1:
Ltmp60:
	.loc	60 73 1                 ## ../ac_lex_datatypes.cc:73:1
	movq	%rbx, %rdi
	callq	__ZN14altered_carbon2js11ACLexNumber14convertToFloatEv
	movq	-16(%rbp), %rdi
	callq	__ZNK14altered_carbon2js11ACLexNumber8getFloatEv
	mulsd	16(%rbx), %xmm0
	movsd	%xmm0, 16(%rbx)
	jmp	LBB16_6
Ltmp61:
LBB16_2:
	.loc	60 73 1                 ## ../ac_lex_datatypes.cc:73:1
	testb	$1, 8(%rbx)
	je	LBB16_4
## %bb.3:
Ltmp62:
	.loc	60 73 1                 ## ../ac_lex_datatypes.cc:73:1
	movq	-16(%rbp), %rdi
	callq	__ZNK14altered_carbon2js11ACLexNumber6getIntEv
	imulq	16(%rbx), %rax
	movq	%rax, 16(%rbx)
	jmp	LBB16_5
Ltmp63:
LBB16_4:
	.loc	60 73 1                 ## ../ac_lex_datatypes.cc:73:1
	movq	-16(%rbp), %rdi
	callq	__ZNK14altered_carbon2js11ACLexNumber8getFloatEv
	mulsd	16(%rbx), %xmm0
	movsd	%xmm0, 16(%rbx)
Ltmp64:
LBB16_5:
	.loc	60 0 1                  ## ../ac_lex_datatypes.cc:0:1
	jmp	LBB16_6
LBB16_6:
	.loc	60 73 1                 ## ../ac_lex_datatypes.cc:73:1
	movq	%rbx, %rax
	addq	$24, %rsp
	popq	%rbx
	popq	%rbp
	retq
Ltmp65:
Lfunc_end16:
	.cfi_endproc
                                        ## -- End function
	.globl	__ZN14altered_carbon2js11ACLexNumberdVERKS1_ ## -- Begin function _ZN14altered_carbon2js11ACLexNumberdVERKS1_
	.p2align	4, 0x90
__ZN14altered_carbon2js11ACLexNumberdVERKS1_: ## @_ZN14altered_carbon2js11ACLexNumberdVERKS1_
Lfunc_begin17:
	.loc	60 76 0 is_stmt 1       ## ../ac_lex_datatypes.cc:76:0
	.cfi_startproc
## %bb.0:
	pushq	%rbp
	.cfi_def_cfa_offset 16
	.cfi_offset %rbp, -16
	movq	%rsp, %rbp
	.cfi_def_cfa_register %rbp
	pushq	%rbx
	subq	$24, %rsp
	.cfi_offset %rbx, -24
	movq	%rdi, -24(%rbp)
	movq	%rsi, -16(%rbp)
	movq	-24(%rbp), %rbx
Ltmp66:
	.loc	60 77 20 prologue_end   ## ../ac_lex_datatypes.cc:77:20
	testb	$1, 8(%rbx)
	je	LBB17_2
## %bb.1:
	.loc	60 77 24 is_stmt 0      ## ../ac_lex_datatypes.cc:77:24
	movq	-16(%rbp), %rax
Ltmp67:
	.loc	60 77 7                 ## ../ac_lex_datatypes.cc:77:7
	testb	$1, 8(%rax)
	jne	LBB17_3
LBB17_2:
Ltmp68:
	.loc	60 78 5 is_stmt 1       ## ../ac_lex_datatypes.cc:78:5
	movq	%rbx, %rdi
	callq	__ZN14altered_carbon2js11ACLexNumber14convertToFloatEv
	.loc	60 79 24                ## ../ac_lex_datatypes.cc:79:24
	movq	-16(%rbp), %rdi
	.loc	60 79 26 is_stmt 0      ## ../ac_lex_datatypes.cc:79:26
	callq	__ZNK14altered_carbon2js11ACLexNumber8getFloatEv
	.loc	60 79 21                ## ../ac_lex_datatypes.cc:79:21
	movsd	16(%rbx), %xmm1         ## xmm1 = mem[0],zero
	divsd	%xmm0, %xmm1
	movsd	%xmm1, 16(%rbx)
	.loc	60 80 3 is_stmt 1       ## ../ac_lex_datatypes.cc:80:3
	jmp	LBB17_7
Ltmp69:
LBB17_3:
	.loc	60 81 9                 ## ../ac_lex_datatypes.cc:81:9
	movq	16(%rbx), %rax
	.loc	60 81 26 is_stmt 0      ## ../ac_lex_datatypes.cc:81:26
	movq	-16(%rbp), %rcx
	.loc	60 81 24                ## ../ac_lex_datatypes.cc:81:24
	cqto
	idivq	16(%rcx)
	.loc	60 81 43                ## ../ac_lex_datatypes.cc:81:43
	cmpq	$0, %rdx
Ltmp70:
	.loc	60 81 9                 ## ../ac_lex_datatypes.cc:81:9
	jle	LBB17_5
## %bb.4:
Ltmp71:
	.loc	60 82 7 is_stmt 1       ## ../ac_lex_datatypes.cc:82:7
	movq	%rbx, %rdi
	callq	__ZN14altered_carbon2js11ACLexNumber14convertToFloatEv
	.loc	60 83 26                ## ../ac_lex_datatypes.cc:83:26
	movq	-16(%rbp), %rdi
	.loc	60 83 28 is_stmt 0      ## ../ac_lex_datatypes.cc:83:28
	callq	__ZNK14altered_carbon2js11ACLexNumber8getFloatEv
	.loc	60 83 23                ## ../ac_lex_datatypes.cc:83:23
	movsd	16(%rbx), %xmm1         ## xmm1 = mem[0],zero
	divsd	%xmm0, %xmm1
	movsd	%xmm1, 16(%rbx)
	.loc	60 84 5 is_stmt 1       ## ../ac_lex_datatypes.cc:84:5
	jmp	LBB17_6
Ltmp72:
LBB17_5:
	.loc	60 85 25                ## ../ac_lex_datatypes.cc:85:25
	movq	-16(%rbp), %rdi
	.loc	60 85 27 is_stmt 0      ## ../ac_lex_datatypes.cc:85:27
	callq	__ZNK14altered_carbon2js11ACLexNumber6getIntEv
	movq	%rax, %rcx
	.loc	60 85 22                ## ../ac_lex_datatypes.cc:85:22
	movq	16(%rbx), %rax
	cqto
	idivq	%rcx
	movq	%rax, 16(%rbx)
Ltmp73:
LBB17_6:
	.loc	60 0 22                 ## ../ac_lex_datatypes.cc:0:22
	jmp	LBB17_7
LBB17_7:
	.loc	60 88 3 is_stmt 1       ## ../ac_lex_datatypes.cc:88:3
	movq	%rbx, %rax
	addq	$24, %rsp
	popq	%rbx
	popq	%rbp
	retq
Ltmp74:
Lfunc_end17:
	.cfi_endproc
                                        ## -- End function
	.globl	__ZN14altered_carbon2js11ACLexNumberrMERKS1_ ## -- Begin function _ZN14altered_carbon2js11ACLexNumberrMERKS1_
	.p2align	4, 0x90
__ZN14altered_carbon2js11ACLexNumberrMERKS1_: ## @_ZN14altered_carbon2js11ACLexNumberrMERKS1_
Lfunc_begin18:
	.loc	60 92 0                 ## ../ac_lex_datatypes.cc:92:0
	.cfi_startproc
## %bb.0:
	pushq	%rbp
	.cfi_def_cfa_offset 16
	.cfi_offset %rbp, -16
	movq	%rsp, %rbp
	.cfi_def_cfa_register %rbp
	pushq	%rbx
	subq	$24, %rsp
	.cfi_offset %rbx, -24
	movq	%rdi, -32(%rbp)
	movq	%rsi, -16(%rbp)
	movq	-32(%rbp), %rbx
Ltmp75:
	.loc	60 93 19 prologue_end   ## ../ac_lex_datatypes.cc:93:19
	testb	$1, 8(%rbx)
	je	LBB18_3
## %bb.1:
	.loc	60 93 22 is_stmt 0      ## ../ac_lex_datatypes.cc:93:22
	movq	-16(%rbp), %rax
Ltmp76:
	.loc	60 93 7                 ## ../ac_lex_datatypes.cc:93:7
	testb	$1, 8(%rax)
	je	LBB18_3
## %bb.2:
Ltmp77:
	.loc	60 94 23 is_stmt 1      ## ../ac_lex_datatypes.cc:94:23
	movq	-16(%rbp), %rdi
	.loc	60 94 25 is_stmt 0      ## ../ac_lex_datatypes.cc:94:25
	callq	__ZNK14altered_carbon2js11ACLexNumber6getIntEv
	movq	%rax, %rcx
	.loc	60 94 20                ## ../ac_lex_datatypes.cc:94:20
	movq	16(%rbx), %rax
	cqto
	idivq	%rcx
	movq	%rdx, 16(%rbx)
	.loc	60 95 3 is_stmt 1       ## ../ac_lex_datatypes.cc:95:3
	jmp	LBB18_4
Ltmp78:
LBB18_3:
	.loc	60 96 5                 ## ../ac_lex_datatypes.cc:96:5
	movq	%rbx, %rdi
	callq	__ZN14altered_carbon2js11ACLexNumber14convertToFloatEv
	.loc	60 97 24                ## ../ac_lex_datatypes.cc:97:24
	movq	-16(%rbp), %rdi
	.loc	60 97 26 is_stmt 0      ## ../ac_lex_datatypes.cc:97:26
	callq	__ZNK14altered_carbon2js11ACLexNumber8getFloatEv
	.loc	60 97 18                ## ../ac_lex_datatypes.cc:97:18
	movsd	%xmm0, -24(%rbp)
	.loc	60 98 24 is_stmt 1      ## ../ac_lex_datatypes.cc:98:24
	movsd	-24(%rbp), %xmm0        ## xmm0 = mem[0],zero
	.loc	60 98 48 is_stmt 0      ## ../ac_lex_datatypes.cc:98:48
	movsd	16(%rbx), %xmm1         ## xmm1 = mem[0],zero
	.loc	60 98 64                ## ../ac_lex_datatypes.cc:98:64
	divsd	-24(%rbp), %xmm1
	.loc	60 98 47                ## ../ac_lex_datatypes.cc:98:47
	cvttsd2si	%xmm1, %rax
	.loc	60 98 30                ## ../ac_lex_datatypes.cc:98:30
	cvtsi2sdq	%rax, %xmm1
	.loc	60 98 28                ## ../ac_lex_datatypes.cc:98:28
	mulsd	%xmm1, %xmm0
	.loc	60 98 21                ## ../ac_lex_datatypes.cc:98:21
	movsd	16(%rbx), %xmm1         ## xmm1 = mem[0],zero
	subsd	%xmm0, %xmm1
	movsd	%xmm1, 16(%rbx)
Ltmp79:
LBB18_4:
	.loc	60 100 3 is_stmt 1      ## ../ac_lex_datatypes.cc:100:3
	movq	%rbx, %rax
	addq	$24, %rsp
	popq	%rbx
	popq	%rbp
	retq
Ltmp80:
Lfunc_end18:
	.cfi_endproc
                                        ## -- End function
	.globl	__ZN14altered_carbon2js11ACLexNumbereOERKS1_ ## -- Begin function _ZN14altered_carbon2js11ACLexNumbereOERKS1_
	.p2align	4, 0x90
__ZN14altered_carbon2js11ACLexNumbereOERKS1_: ## @_ZN14altered_carbon2js11ACLexNumbereOERKS1_
Lfunc_begin19:
	.loc	60 110 0                ## ../ac_lex_datatypes.cc:110:0
	.cfi_startproc
## %bb.0:
	pushq	%rbp
	.cfi_def_cfa_offset 16
	.cfi_offset %rbp, -16
	movq	%rsp, %rbp
	.cfi_def_cfa_register %rbp
	pushq	%rbx
	subq	$24, %rsp
	.cfi_offset %rbx, -24
	movq	%rdi, -24(%rbp)
	movq	%rsi, -16(%rbp)
	movq	-24(%rbp), %rbx
Ltmp81:
	.loc	60 110 1 prologue_end   ## ../ac_lex_datatypes.cc:110:1
	movq	%rbx, %rdi
	callq	__ZN14altered_carbon2js11ACLexNumber12convertToIntEv
	movq	-16(%rbp), %rdi
	callq	__ZNK14altered_carbon2js11ACLexNumber6getIntEv
	xorq	16(%rbx), %rax
	movq	%rax, 16(%rbx)
	movq	%rbx, %rax
	addq	$24, %rsp
	popq	%rbx
	popq	%rbp
	retq
Ltmp82:
Lfunc_end19:
	.cfi_endproc
                                        ## -- End function
	.private_extern	__ZN14altered_carbon2js11ACLexNumber12convertToIntEv ## -- Begin function _ZN14altered_carbon2js11ACLexNumber12convertToIntEv
	.globl	__ZN14altered_carbon2js11ACLexNumber12convertToIntEv
	.weak_definition	__ZN14altered_carbon2js11ACLexNumber12convertToIntEv
	.p2align	4, 0x90
__ZN14altered_carbon2js11ACLexNumber12convertToIntEv: ## @_ZN14altered_carbon2js11ACLexNumber12convertToIntEv
Lfunc_begin20:
	.loc	60 30 0                 ## ../ac_lex_datatypes.cc:30:0
	.cfi_startproc
## %bb.0:
	pushq	%rbp
	.cfi_def_cfa_offset 16
	.cfi_offset %rbp, -16
	movq	%rsp, %rbp
	.cfi_def_cfa_register %rbp
	pushq	%rbx
	pushq	%rax
	.cfi_offset %rbx, -24
	movq	%rdi, -16(%rbp)
	movq	-16(%rbp), %rbx
Ltmp83:
	.loc	60 31 7 prologue_end    ## ../ac_lex_datatypes.cc:31:7
	testb	$1, 8(%rbx)
	jne	LBB20_2
## %bb.1:
Ltmp84:
	.loc	60 32 22                ## ../ac_lex_datatypes.cc:32:22
	movq	%rbx, %rdi
	callq	__ZNK14altered_carbon2js11ACLexNumber6getIntEv
	.loc	60 32 20 is_stmt 0      ## ../ac_lex_datatypes.cc:32:20
	movq	%rax, 16(%rbx)
	.loc	60 33 17 is_stmt 1      ## ../ac_lex_datatypes.cc:33:17
	movb	$1, 8(%rbx)
Ltmp85:
LBB20_2:
	.loc	60 35 1                 ## ../ac_lex_datatypes.cc:35:1
	addq	$8, %rsp
	popq	%rbx
	popq	%rbp
	retq
Ltmp86:
Lfunc_end20:
	.cfi_endproc
                                        ## -- End function
	.globl	__ZN14altered_carbon2js11ACLexNumberoRERKS1_ ## -- Begin function _ZN14altered_carbon2js11ACLexNumberoRERKS1_
	.p2align	4, 0x90
__ZN14altered_carbon2js11ACLexNumberoRERKS1_: ## @_ZN14altered_carbon2js11ACLexNumberoRERKS1_
Lfunc_begin21:
	.loc	60 111 0                ## ../ac_lex_datatypes.cc:111:0
	.cfi_startproc
## %bb.0:
	pushq	%rbp
	.cfi_def_cfa_offset 16
	.cfi_offset %rbp, -16
	movq	%rsp, %rbp
	.cfi_def_cfa_register %rbp
	pushq	%rbx
	subq	$24, %rsp
	.cfi_offset %rbx, -24
	movq	%rdi, -24(%rbp)
	movq	%rsi, -16(%rbp)
	movq	-24(%rbp), %rbx
Ltmp87:
	.loc	60 111 1 prologue_end   ## ../ac_lex_datatypes.cc:111:1
	movq	%rbx, %rdi
	callq	__ZN14altered_carbon2js11ACLexNumber12convertToIntEv
	movq	-16(%rbp), %rdi
	callq	__ZNK14altered_carbon2js11ACLexNumber6getIntEv
	orq	16(%rbx), %rax
	movq	%rax, 16(%rbx)
	movq	%rbx, %rax
	addq	$24, %rsp
	popq	%rbx
	popq	%rbp
	retq
Ltmp88:
Lfunc_end21:
	.cfi_endproc
                                        ## -- End function
	.globl	__ZN14altered_carbon2js11ACLexNumberaNERKS1_ ## -- Begin function _ZN14altered_carbon2js11ACLexNumberaNERKS1_
	.p2align	4, 0x90
__ZN14altered_carbon2js11ACLexNumberaNERKS1_: ## @_ZN14altered_carbon2js11ACLexNumberaNERKS1_
Lfunc_begin22:
	.loc	60 112 0                ## ../ac_lex_datatypes.cc:112:0
	.cfi_startproc
## %bb.0:
	pushq	%rbp
	.cfi_def_cfa_offset 16
	.cfi_offset %rbp, -16
	movq	%rsp, %rbp
	.cfi_def_cfa_register %rbp
	pushq	%rbx
	subq	$24, %rsp
	.cfi_offset %rbx, -24
	movq	%rdi, -24(%rbp)
	movq	%rsi, -16(%rbp)
	movq	-24(%rbp), %rbx
Ltmp89:
	.loc	60 112 1 prologue_end   ## ../ac_lex_datatypes.cc:112:1
	movq	%rbx, %rdi
	callq	__ZN14altered_carbon2js11ACLexNumber12convertToIntEv
	movq	-16(%rbp), %rdi
	callq	__ZNK14altered_carbon2js11ACLexNumber6getIntEv
	andq	16(%rbx), %rax
	movq	%rax, 16(%rbx)
	movq	%rbx, %rax
	addq	$24, %rsp
	popq	%rbx
	popq	%rbp
	retq
Ltmp90:
Lfunc_end22:
	.cfi_endproc
                                        ## -- End function
	.globl	__ZN14altered_carbon2js11ACLexNumberrSERKS1_ ## -- Begin function _ZN14altered_carbon2js11ACLexNumberrSERKS1_
	.p2align	4, 0x90
__ZN14altered_carbon2js11ACLexNumberrSERKS1_: ## @_ZN14altered_carbon2js11ACLexNumberrSERKS1_
Lfunc_begin23:
	.loc	60 113 0                ## ../ac_lex_datatypes.cc:113:0
	.cfi_startproc
## %bb.0:
	pushq	%rbp
	.cfi_def_cfa_offset 16
	.cfi_offset %rbp, -16
	movq	%rsp, %rbp
	.cfi_def_cfa_register %rbp
	pushq	%rbx
	subq	$24, %rsp
	.cfi_offset %rbx, -24
	movq	%rdi, -24(%rbp)
	movq	%rsi, -16(%rbp)
	movq	-24(%rbp), %rbx
Ltmp91:
	.loc	60 113 1 prologue_end   ## ../ac_lex_datatypes.cc:113:1
	movq	%rbx, %rdi
	callq	__ZN14altered_carbon2js11ACLexNumber12convertToIntEv
	movq	-16(%rbp), %rdi
	callq	__ZNK14altered_carbon2js11ACLexNumber6getIntEv
	movq	16(%rbx), %rdx
	movq	%rax, %rcx
                                        ## kill: def $cl killed $rcx
	sarq	%cl, %rdx
	movq	%rdx, 16(%rbx)
	movq	%rbx, %rax
	addq	$24, %rsp
	popq	%rbx
	popq	%rbp
	retq
Ltmp92:
Lfunc_end23:
	.cfi_endproc
                                        ## -- End function
	.globl	__ZN14altered_carbon2js11ACLexNumberlSERKS1_ ## -- Begin function _ZN14altered_carbon2js11ACLexNumberlSERKS1_
	.p2align	4, 0x90
__ZN14altered_carbon2js11ACLexNumberlSERKS1_: ## @_ZN14altered_carbon2js11ACLexNumberlSERKS1_
Lfunc_begin24:
	.loc	60 114 0                ## ../ac_lex_datatypes.cc:114:0
	.cfi_startproc
## %bb.0:
	pushq	%rbp
	.cfi_def_cfa_offset 16
	.cfi_offset %rbp, -16
	movq	%rsp, %rbp
	.cfi_def_cfa_register %rbp
	pushq	%rbx
	subq	$24, %rsp
	.cfi_offset %rbx, -24
	movq	%rdi, -24(%rbp)
	movq	%rsi, -16(%rbp)
	movq	-24(%rbp), %rbx
Ltmp93:
	.loc	60 114 1 prologue_end   ## ../ac_lex_datatypes.cc:114:1
	movq	%rbx, %rdi
	callq	__ZN14altered_carbon2js11ACLexNumber12convertToIntEv
	movq	-16(%rbp), %rdi
	callq	__ZNK14altered_carbon2js11ACLexNumber6getIntEv
	movq	16(%rbx), %rdx
	movq	%rax, %rcx
                                        ## kill: def $cl killed $rcx
	shlq	%cl, %rdx
	movq	%rdx, 16(%rbx)
	movq	%rbx, %rax
	addq	$24, %rsp
	popq	%rbx
	popq	%rbp
	retq
Ltmp94:
Lfunc_end24:
	.cfi_endproc
                                        ## -- End function
	.globl	__ZN14altered_carbon2jslsERNSt3__113basic_ostreamIcNS1_11char_traitsIcEEEERKNS0_11ACLexNumberE ## -- Begin function _ZN14altered_carbon2jslsERNSt3__113basic_ostreamIcNS1_11char_traitsIcEEEERKNS0_11ACLexNumberE
	.p2align	4, 0x90
__ZN14altered_carbon2jslsERNSt3__113basic_ostreamIcNS1_11char_traitsIcEEEERKNS0_11ACLexNumberE: ## @_ZN14altered_carbon2jslsERNSt3__113basic_ostreamIcNS1_11char_traitsIcEEEERKNS0_11ACLexNumberE
Lfunc_begin25:
	.loc	60 116 0                ## ../ac_lex_datatypes.cc:116:0
	.cfi_startproc
## %bb.0:
	pushq	%rbp
	.cfi_def_cfa_offset 16
	.cfi_offset %rbp, -16
	movq	%rsp, %rbp
	.cfi_def_cfa_register %rbp
	subq	$16, %rsp
	movq	%rdi, -16(%rbp)
	movq	%rsi, -8(%rbp)
Ltmp95:
	.loc	60 117 7 prologue_end   ## ../ac_lex_datatypes.cc:117:7
	movq	-8(%rbp), %rax
Ltmp96:
	.loc	60 117 7 is_stmt 0      ## ../ac_lex_datatypes.cc:117:7
	testb	$1, 8(%rax)
	je	LBB25_2
## %bb.1:
Ltmp97:
	.loc	60 118 5 is_stmt 1      ## ../ac_lex_datatypes.cc:118:5
	movq	-16(%rbp), %rdi
	.loc	60 118 8 is_stmt 0      ## ../ac_lex_datatypes.cc:118:8
	leaq	L_.str(%rip), %rsi
	callq	__ZNSt3__1lsINS_11char_traitsIcEEEERNS_13basic_ostreamIcT_EES6_PKc
	.loc	60 118 20               ## ../ac_lex_datatypes.cc:118:20
	movq	-8(%rbp), %rcx
	.loc	60 118 27               ## ../ac_lex_datatypes.cc:118:27
	movq	16(%rcx), %rsi
	.loc	60 118 17               ## ../ac_lex_datatypes.cc:118:17
	movq	%rax, %rdi
	callq	__ZNSt3__113basic_ostreamIcNS_11char_traitsIcEEElsEx
	.loc	60 119 3 is_stmt 1      ## ../ac_lex_datatypes.cc:119:3
	jmp	LBB25_3
Ltmp98:
LBB25_2:
	.loc	60 120 5                ## ../ac_lex_datatypes.cc:120:5
	movq	-16(%rbp), %rdi
	.loc	60 120 8 is_stmt 0      ## ../ac_lex_datatypes.cc:120:8
	leaq	L_.str.1(%rip), %rsi
	callq	__ZNSt3__1lsINS_11char_traitsIcEEEERNS_13basic_ostreamIcT_EES6_PKc
	.loc	60 120 20               ## ../ac_lex_datatypes.cc:120:20
	movq	-8(%rbp), %rcx
	.loc	60 120 27               ## ../ac_lex_datatypes.cc:120:27
	movsd	16(%rcx), %xmm0         ## xmm0 = mem[0],zero
	.loc	60 120 17               ## ../ac_lex_datatypes.cc:120:17
	movq	%rax, %rdi
	callq	__ZNSt3__113basic_ostreamIcNS_11char_traitsIcEEElsEd
Ltmp99:
LBB25_3:
	.loc	60 122 10 is_stmt 1     ## ../ac_lex_datatypes.cc:122:10
	movq	-16(%rbp), %rax
	.loc	60 122 3 is_stmt 0      ## ../ac_lex_datatypes.cc:122:3
	addq	$16, %rsp
	popq	%rbp
	retq
Ltmp100:
Lfunc_end25:
	.cfi_endproc
                                        ## -- End function
	.globl	__ZNSt3__1lsINS_11char_traitsIcEEEERNS_13basic_ostreamIcT_EES6_PKc ## -- Begin function _ZNSt3__1lsINS_11char_traitsIcEEEERNS_13basic_ostreamIcT_EES6_PKc
	.weak_definition	__ZNSt3__1lsINS_11char_traitsIcEEEERNS_13basic_ostreamIcT_EES6_PKc
	.p2align	4, 0x90
__ZNSt3__1lsINS_11char_traitsIcEEEERNS_13basic_ostreamIcT_EES6_PKc: ## @_ZNSt3__1lsINS_11char_traitsIcEEEERNS_13basic_ostreamIcT_EES6_PKc
Lfunc_begin26:
	.loc	17 863 0 is_stmt 1      ## /Applications/Xcode.app/Contents/Developer/Toolchains/XcodeDefault.xctoolchain/usr/include/c++/v1/ostream:863:0
	.cfi_startproc
## %bb.0:
	pushq	%rbp
	.cfi_def_cfa_offset 16
	.cfi_offset %rbp, -16
	movq	%rsp, %rbp
	.cfi_def_cfa_register %rbp
	pushq	%r14
	pushq	%rbx
	subq	$16, %rsp
	.cfi_offset %rbx, -32
	.cfi_offset %r14, -24
	movq	%rdi, -32(%rbp)
	movq	%rsi, -24(%rbp)
Ltmp101:
	.loc	17 864 44 prologue_end  ## /Applications/Xcode.app/Contents/Developer/Toolchains/XcodeDefault.xctoolchain/usr/include/c++/v1/ostream:864:44
	movq	-32(%rbp), %rbx
	.loc	17 864 50 is_stmt 0     ## /Applications/Xcode.app/Contents/Developer/Toolchains/XcodeDefault.xctoolchain/usr/include/c++/v1/ostream:864:50
	movq	-24(%rbp), %r14
	.loc	17 864 73               ## /Applications/Xcode.app/Contents/Developer/Toolchains/XcodeDefault.xctoolchain/usr/include/c++/v1/ostream:864:73
	movq	-24(%rbp), %rdi
	.loc	17 864 57               ## /Applications/Xcode.app/Contents/Developer/Toolchains/XcodeDefault.xctoolchain/usr/include/c++/v1/ostream:864:57
	callq	__ZNSt3__111char_traitsIcE6lengthEPKc
	.loc	17 864 12               ## /Applications/Xcode.app/Contents/Developer/Toolchains/XcodeDefault.xctoolchain/usr/include/c++/v1/ostream:864:12
	movq	%rbx, %rdi
	movq	%r14, %rsi
	movq	%rax, %rdx
	callq	__ZNSt3__124__put_character_sequenceIcNS_11char_traitsIcEEEERNS_13basic_ostreamIT_T0_EES7_PKS4_m
	.loc	17 864 5                ## /Applications/Xcode.app/Contents/Developer/Toolchains/XcodeDefault.xctoolchain/usr/include/c++/v1/ostream:864:5
	addq	$16, %rsp
	popq	%rbx
	popq	%r14
	popq	%rbp
	retq
Ltmp102:
Lfunc_end26:
	.cfi_endproc
                                        ## -- End function
	.globl	__ZN14altered_carbon2js10ACLexRegexC2ENSt3__112basic_stringIcNS2_11char_traitsIcEENS2_9allocatorIcEEEEbbb ## -- Begin function _ZN14altered_carbon2js10ACLexRegexC2ENSt3__112basic_stringIcNS2_11char_traitsIcEENS2_9allocatorIcEEEEbbb
	.p2align	4, 0x90
__ZN14altered_carbon2js10ACLexRegexC2ENSt3__112basic_stringIcNS2_11char_traitsIcEENS2_9allocatorIcEEEEbbb: ## @_ZN14altered_carbon2js10ACLexRegexC2ENSt3__112basic_stringIcNS2_11char_traitsIcEENS2_9allocatorIcEEEEbbb
Lfunc_begin27:
	.loc	60 129 0 is_stmt 1      ## ../ac_lex_datatypes.cc:129:0
	.cfi_startproc
## %bb.0:
	pushq	%rbp
	.cfi_def_cfa_offset 16
	.cfi_offset %rbp, -16
	movq	%rsp, %rbp
	.cfi_def_cfa_register %rbp
	pushq	%rbx
	subq	$24, %rsp
	.cfi_offset %rbx, -24
	movq	__ZTVN14altered_carbon2js10ACLexRegexE@GOTPCREL(%rip), %rax
	addq	$16, %rax
	movq	%rdi, -24(%rbp)
	andb	$1, %dl
	movb	%dl, -11(%rbp)
	andb	$1, %cl
	movb	%cl, -10(%rbp)
	andb	$1, %r8b
	movb	%r8b, -9(%rbp)
	movq	-24(%rbp), %rbx
	##DEBUG_VALUE: ACLexRegex:pattern <- [$rsi+0]
Ltmp103:
	.loc	60 129 53 prologue_end  ## ../ac_lex_datatypes.cc:129:53
	movq	%rax, (%rbx)
	.loc	60 128 3                ## ../ac_lex_datatypes.cc:128:3
	movq	%rbx, %rdi
	addq	$8, %rdi
	callq	__ZNSt3__112basic_stringIcNS_11char_traitsIcEENS_9allocatorIcEEEC1ERKS5_
Ltmp104:
	.loc	60 129 11               ## ../ac_lex_datatypes.cc:129:11
	movb	-11(%rbp), %al
	.loc	60 129 3 is_stmt 0      ## ../ac_lex_datatypes.cc:129:3
	andb	$1, %al
	movb	%al, 32(%rbx)
	.loc	60 129 28               ## ../ac_lex_datatypes.cc:129:28
	movb	-10(%rbp), %al
	.loc	60 129 20               ## ../ac_lex_datatypes.cc:129:20
	andb	$1, %al
	movb	%al, 33(%rbx)
	.loc	60 129 45               ## ../ac_lex_datatypes.cc:129:45
	movb	-9(%rbp), %al
	.loc	60 129 37               ## ../ac_lex_datatypes.cc:129:37
	andb	$1, %al
	movb	%al, 34(%rbx)
	.loc	60 129 54               ## ../ac_lex_datatypes.cc:129:54
	addq	$24, %rsp
	popq	%rbx
	popq	%rbp
	retq
Ltmp105:
Lfunc_end27:
	.cfi_endproc
                                        ## -- End function
	.globl	__ZN14altered_carbon2js10ACLexRegexC1ENSt3__112basic_stringIcNS2_11char_traitsIcEENS2_9allocatorIcEEEEbbb ## -- Begin function _ZN14altered_carbon2js10ACLexRegexC1ENSt3__112basic_stringIcNS2_11char_traitsIcEENS2_9allocatorIcEEEEbbb
	.p2align	4, 0x90
__ZN14altered_carbon2js10ACLexRegexC1ENSt3__112basic_stringIcNS2_11char_traitsIcEENS2_9allocatorIcEEEEbbb: ## @_ZN14altered_carbon2js10ACLexRegexC1ENSt3__112basic_stringIcNS2_11char_traitsIcEENS2_9allocatorIcEEEEbbb
Lfunc_begin28:
	.loc	60 129 0 is_stmt 1      ## ../ac_lex_datatypes.cc:129:0
	.cfi_startproc
## %bb.0:
	pushq	%rbp
	.cfi_def_cfa_offset 16
	.cfi_offset %rbp, -16
	movq	%rsp, %rbp
	.cfi_def_cfa_register %rbp
	subq	$16, %rsp
	movq	%rdi, -16(%rbp)
	andb	$1, %dl
	movb	%dl, -3(%rbp)
	andb	$1, %cl
	movb	%cl, -2(%rbp)
	andb	$1, %r8b
	movb	%r8b, -1(%rbp)
	movq	-16(%rbp), %rdi
	##DEBUG_VALUE: ACLexRegex:pattern <- [$rsi+0]
Ltmp106:
	.loc	60 129 53 prologue_end  ## ../ac_lex_datatypes.cc:129:53
	movb	-3(%rbp), %al
	movb	-2(%rbp), %cl
	movb	-1(%rbp), %r8b
	andb	$1, %al
	andb	$1, %cl
	andb	$1, %r8b
	movzbl	%al, %edx
	movzbl	%cl, %ecx
	movzbl	%r8b, %r8d
	callq	__ZN14altered_carbon2js10ACLexRegexC2ENSt3__112basic_stringIcNS2_11char_traitsIcEENS2_9allocatorIcEEEEbbb
Ltmp107:
	.loc	60 129 54 is_stmt 0     ## ../ac_lex_datatypes.cc:129:54
	addq	$16, %rsp
	popq	%rbp
	retq
Ltmp108:
Lfunc_end28:
	.cfi_endproc
                                        ## -- End function
	.globl	__ZN14altered_carbon2js10ACLexRegexC2ERKS1_ ## -- Begin function _ZN14altered_carbon2js10ACLexRegexC2ERKS1_
	.p2align	4, 0x90
__ZN14altered_carbon2js10ACLexRegexC2ERKS1_: ## @_ZN14altered_carbon2js10ACLexRegexC2ERKS1_
Lfunc_begin29:
	.loc	60 133 0 is_stmt 1      ## ../ac_lex_datatypes.cc:133:0
	.cfi_startproc
## %bb.0:
	pushq	%rbp
	.cfi_def_cfa_offset 16
	.cfi_offset %rbp, -16
	movq	%rsp, %rbp
	.cfi_def_cfa_register %rbp
	pushq	%rbx
	subq	$24, %rsp
	.cfi_offset %rbx, -24
	movq	__ZTVN14altered_carbon2js10ACLexRegexE@GOTPCREL(%rip), %rax
	addq	$16, %rax
	movq	%rdi, -24(%rbp)
	movq	%rsi, -16(%rbp)
	movq	-24(%rbp), %rbx
Ltmp109:
	.loc	60 133 62 prologue_end  ## ../ac_lex_datatypes.cc:133:62
	movq	%rax, (%rbx)
	.loc	60 132 3                ## ../ac_lex_datatypes.cc:132:3
	movq	%rbx, %rdi
	addq	$8, %rdi
	.loc	60 132 12 is_stmt 0     ## ../ac_lex_datatypes.cc:132:12
	movq	-16(%rbp), %rsi
	.loc	60 132 14               ## ../ac_lex_datatypes.cc:132:14
	addq	$8, %rsi
	.loc	60 132 3                ## ../ac_lex_datatypes.cc:132:3
	callq	__ZNSt3__112basic_stringIcNS_11char_traitsIcEENS_9allocatorIcEEEC1ERKS5_
	.loc	60 133 11 is_stmt 1     ## ../ac_lex_datatypes.cc:133:11
	movq	-16(%rbp), %rax
	.loc	60 133 13 is_stmt 0     ## ../ac_lex_datatypes.cc:133:13
	movb	32(%rax), %al
	.loc	60 133 3                ## ../ac_lex_datatypes.cc:133:3
	andb	$1, %al
	movb	%al, 32(%rbx)
	.loc	60 133 31               ## ../ac_lex_datatypes.cc:133:31
	movq	-16(%rbp), %rax
	.loc	60 133 33               ## ../ac_lex_datatypes.cc:133:33
	movb	33(%rax), %al
	.loc	60 133 23               ## ../ac_lex_datatypes.cc:133:23
	andb	$1, %al
	movb	%al, 33(%rbx)
	.loc	60 133 51               ## ../ac_lex_datatypes.cc:133:51
	movq	-16(%rbp), %rax
	.loc	60 133 53               ## ../ac_lex_datatypes.cc:133:53
	movb	34(%rax), %al
	.loc	60 133 43               ## ../ac_lex_datatypes.cc:133:43
	andb	$1, %al
	movb	%al, 34(%rbx)
	.loc	60 133 63               ## ../ac_lex_datatypes.cc:133:63
	addq	$24, %rsp
	popq	%rbx
	popq	%rbp
	retq
Ltmp110:
Lfunc_end29:
	.cfi_endproc
                                        ## -- End function
	.globl	__ZN14altered_carbon2js10ACLexRegexC1ERKS1_ ## -- Begin function _ZN14altered_carbon2js10ACLexRegexC1ERKS1_
	.p2align	4, 0x90
__ZN14altered_carbon2js10ACLexRegexC1ERKS1_: ## @_ZN14altered_carbon2js10ACLexRegexC1ERKS1_
Lfunc_begin30:
	.loc	60 133 0 is_stmt 1      ## ../ac_lex_datatypes.cc:133:0
	.cfi_startproc
## %bb.0:
	pushq	%rbp
	.cfi_def_cfa_offset 16
	.cfi_offset %rbp, -16
	movq	%rsp, %rbp
	.cfi_def_cfa_register %rbp
	subq	$16, %rsp
	movq	%rdi, -16(%rbp)
	movq	%rsi, -8(%rbp)
	movq	-16(%rbp), %rdi
Ltmp111:
	.loc	60 133 62 prologue_end  ## ../ac_lex_datatypes.cc:133:62
	movq	-8(%rbp), %rsi
	callq	__ZN14altered_carbon2js10ACLexRegexC2ERKS1_
	.loc	60 133 63 is_stmt 0     ## ../ac_lex_datatypes.cc:133:63
	addq	$16, %rsp
	popq	%rbp
	retq
Ltmp112:
Lfunc_end30:
	.cfi_endproc
                                        ## -- End function
	.globl	__ZN14altered_carbon2js10ACLexRegexC2Ev ## -- Begin function _ZN14altered_carbon2js10ACLexRegexC2Ev
	.p2align	4, 0x90
__ZN14altered_carbon2js10ACLexRegexC2Ev: ## @_ZN14altered_carbon2js10ACLexRegexC2Ev
Lfunc_begin31:
	.loc	60 136 0 is_stmt 1      ## ../ac_lex_datatypes.cc:136:0
	.cfi_startproc
## %bb.0:
	pushq	%rbp
	.cfi_def_cfa_offset 16
	.cfi_offset %rbp, -16
	movq	%rsp, %rbp
	.cfi_def_cfa_register %rbp
	pushq	%r15
	pushq	%r14
	pushq	%rbx
	subq	$88, %rsp
	.cfi_offset %rbx, -40
	.cfi_offset %r14, -32
	.cfi_offset %r15, -24
	movq	__ZTVN14altered_carbon2js10ACLexRegexE@GOTPCREL(%rip), %rax
	addq	$16, %rax
	movq	%rdi, -40(%rbp)
	movq	-40(%rbp), %rbx
Ltmp113:
	.loc	60 136 64 prologue_end  ## ../ac_lex_datatypes.cc:136:64
	movq	%rax, (%rbx)
	.loc	60 136 3 is_stmt 0      ## ../ac_lex_datatypes.cc:136:3
	movq	%rbx, %rax
	addq	$8, %rax
	movq	%rax, -56(%rbp)
	leaq	L_.str.2(%rip), %rax
	movq	%rax, -48(%rbp)
	movq	-56(%rbp), %rax
Ltmp114:
	.loc	6 1569 1 is_stmt 1      ## /Applications/Xcode.app/Contents/Developer/Toolchains/XcodeDefault.xctoolchain/usr/include/c++/v1/string:1569:1
	movq	-48(%rbp), %rcx
	movq	%rax, -64(%rbp)
	movq	%rcx, -32(%rbp)
	movq	-64(%rbp), %r14
	movq	%r14, -72(%rbp)
	movq	-72(%rbp), %rax
	movq	%rax, -80(%rbp)
	movq	-80(%rbp), %r15
	movq	%r15, -88(%rbp)
	movq	-88(%rbp), %rdi
Ltmp115:
	.loc	7 2043 66               ## /Applications/Xcode.app/Contents/Developer/Toolchains/XcodeDefault.xctoolchain/usr/include/c++/v1/memory:2043:66
	xorl	%esi, %esi
	movl	$24, %edx
	callq	_memset
	movq	%r15, -96(%rbp)
	movq	-96(%rbp), %rax
	movq	%rax, -104(%rbp)
Ltmp116:
	.loc	6 1571 12               ## /Applications/Xcode.app/Contents/Developer/Toolchains/XcodeDefault.xctoolchain/usr/include/c++/v1/string:1571:12
	movq	-32(%rbp), %r15
	.loc	6 1571 37 is_stmt 0     ## /Applications/Xcode.app/Contents/Developer/Toolchains/XcodeDefault.xctoolchain/usr/include/c++/v1/string:1571:37
	movq	-32(%rbp), %rdi
	.loc	6 1571 17               ## /Applications/Xcode.app/Contents/Developer/Toolchains/XcodeDefault.xctoolchain/usr/include/c++/v1/string:1571:17
	callq	__ZNSt3__111char_traitsIcE6lengthEPKc
	.loc	6 1571 5                ## /Applications/Xcode.app/Contents/Developer/Toolchains/XcodeDefault.xctoolchain/usr/include/c++/v1/string:1571:5
	movq	%r14, %rdi
	movq	%r15, %rsi
	movq	%rax, %rdx
	callq	__ZNSt3__112basic_stringIcNS_11char_traitsIcEENS_9allocatorIcEEE6__initEPKcm
Ltmp117:
	.loc	60 136 17 is_stmt 1     ## ../ac_lex_datatypes.cc:136:17
	movb	$0, 32(%rbx)
	.loc	60 136 33 is_stmt 0     ## ../ac_lex_datatypes.cc:136:33
	movb	$0, 33(%rbx)
	.loc	60 136 49               ## ../ac_lex_datatypes.cc:136:49
	movb	$0, 34(%rbx)
	.loc	60 136 65               ## ../ac_lex_datatypes.cc:136:65
	addq	$88, %rsp
	popq	%rbx
	popq	%r14
	popq	%r15
	popq	%rbp
	retq
Ltmp118:
Lfunc_end31:
	.cfi_endproc
                                        ## -- End function
	.globl	__ZN14altered_carbon2js10ACLexRegexC1Ev ## -- Begin function _ZN14altered_carbon2js10ACLexRegexC1Ev
	.p2align	4, 0x90
__ZN14altered_carbon2js10ACLexRegexC1Ev: ## @_ZN14altered_carbon2js10ACLexRegexC1Ev
Lfunc_begin32:
	.loc	60 136 0 is_stmt 1      ## ../ac_lex_datatypes.cc:136:0
	.cfi_startproc
## %bb.0:
	pushq	%rbp
	.cfi_def_cfa_offset 16
	.cfi_offset %rbp, -16
	movq	%rsp, %rbp
	.cfi_def_cfa_register %rbp
	subq	$16, %rsp
	movq	%rdi, -8(%rbp)
	movq	-8(%rbp), %rdi
Ltmp119:
	.loc	60 136 64 prologue_end  ## ../ac_lex_datatypes.cc:136:64
	callq	__ZN14altered_carbon2js10ACLexRegexC2Ev
	.loc	60 136 65 is_stmt 0     ## ../ac_lex_datatypes.cc:136:65
	addq	$16, %rsp
	popq	%rbp
	retq
Ltmp120:
Lfunc_end32:
	.cfi_endproc
                                        ## -- End function
	.globl	__ZN14altered_carbon2jslsERNSt3__113basic_ostreamIcNS1_11char_traitsIcEEEERKNS0_10ACLexRegexE ## -- Begin function _ZN14altered_carbon2jslsERNSt3__113basic_ostreamIcNS1_11char_traitsIcEEEERKNS0_10ACLexRegexE
	.p2align	4, 0x90
__ZN14altered_carbon2jslsERNSt3__113basic_ostreamIcNS1_11char_traitsIcEEEERKNS0_10ACLexRegexE: ## @_ZN14altered_carbon2jslsERNSt3__113basic_ostreamIcNS1_11char_traitsIcEEEERKNS0_10ACLexRegexE
Lfunc_begin33:
	.loc	60 138 0 is_stmt 1      ## ../ac_lex_datatypes.cc:138:0
	.cfi_startproc
## %bb.0:
	pushq	%rbp
	.cfi_def_cfa_offset 16
	.cfi_offset %rbp, -16
	movq	%rsp, %rbp
	.cfi_def_cfa_register %rbp
	subq	$16, %rsp
	movq	%rdi, -8(%rbp)
	movq	%rsi, -16(%rbp)
Ltmp121:
	.loc	60 139 3 prologue_end   ## ../ac_lex_datatypes.cc:139:3
	movq	-8(%rbp), %rdi
	.loc	60 139 6 is_stmt 0      ## ../ac_lex_datatypes.cc:139:6
	leaq	L_.str.3(%rip), %rsi
	callq	__ZNSt3__1lsINS_11char_traitsIcEEEERNS_13basic_ostreamIcT_EES6_PKc
	.loc	60 139 16               ## ../ac_lex_datatypes.cc:139:16
	movq	-16(%rbp), %rsi
	.loc	60 139 22               ## ../ac_lex_datatypes.cc:139:22
	addq	$8, %rsi
	.loc	60 139 13               ## ../ac_lex_datatypes.cc:139:13
	movq	%rax, %rdi
	callq	__ZNSt3__1lsIcNS_11char_traitsIcEENS_9allocatorIcEEEERNS_13basic_ostreamIT_T0_EES9_RKNS_12basic_stringIS6_S7_T1_EE
	.loc	60 139 31               ## ../ac_lex_datatypes.cc:139:31
	movq	%rax, %rdi
	leaq	L_.str.3(%rip), %rsi
	callq	__ZNSt3__1lsINS_11char_traitsIcEEEERNS_13basic_ostreamIcT_EES6_PKc
Ltmp122:
	.loc	60 140 7 is_stmt 1      ## ../ac_lex_datatypes.cc:140:7
	movq	-16(%rbp), %rax
Ltmp123:
	.loc	60 140 7 is_stmt 0      ## ../ac_lex_datatypes.cc:140:7
	testb	$1, 32(%rax)
	je	LBB33_2
## %bb.1:
Ltmp124:
	.loc	60 140 22               ## ../ac_lex_datatypes.cc:140:22
	movq	-8(%rbp), %rdi
	.loc	60 140 25               ## ../ac_lex_datatypes.cc:140:25
	leaq	L_.str.4(%rip), %rsi
	callq	__ZNSt3__1lsINS_11char_traitsIcEEEERNS_13basic_ostreamIcT_EES6_PKc
Ltmp125:
LBB33_2:
	.loc	60 141 7 is_stmt 1      ## ../ac_lex_datatypes.cc:141:7
	movq	-16(%rbp), %rax
Ltmp126:
	.loc	60 141 7 is_stmt 0      ## ../ac_lex_datatypes.cc:141:7
	testb	$1, 33(%rax)
	je	LBB33_4
## %bb.3:
Ltmp127:
	.loc	60 141 22               ## ../ac_lex_datatypes.cc:141:22
	movq	-8(%rbp), %rdi
	.loc	60 141 25               ## ../ac_lex_datatypes.cc:141:25
	leaq	L_.str.5(%rip), %rsi
	callq	__ZNSt3__1lsINS_11char_traitsIcEEEERNS_13basic_ostreamIcT_EES6_PKc
Ltmp128:
LBB33_4:
	.loc	60 142 7 is_stmt 1      ## ../ac_lex_datatypes.cc:142:7
	movq	-16(%rbp), %rax
Ltmp129:
	.loc	60 142 7 is_stmt 0      ## ../ac_lex_datatypes.cc:142:7
	testb	$1, 34(%rax)
	je	LBB33_6
## %bb.5:
Ltmp130:
	.loc	60 142 22               ## ../ac_lex_datatypes.cc:142:22
	movq	-8(%rbp), %rdi
	.loc	60 142 25               ## ../ac_lex_datatypes.cc:142:25
	leaq	L_.str.6(%rip), %rsi
	callq	__ZNSt3__1lsINS_11char_traitsIcEEEERNS_13basic_ostreamIcT_EES6_PKc
Ltmp131:
LBB33_6:
	.loc	60 143 10 is_stmt 1     ## ../ac_lex_datatypes.cc:143:10
	movq	-8(%rbp), %rax
	.loc	60 143 3 is_stmt 0      ## ../ac_lex_datatypes.cc:143:3
	addq	$16, %rsp
	popq	%rbp
	retq
Ltmp132:
Lfunc_end33:
	.cfi_endproc
                                        ## -- End function
	.globl	__ZNSt3__1lsIcNS_11char_traitsIcEENS_9allocatorIcEEEERNS_13basic_ostreamIT_T0_EES9_RKNS_12basic_stringIS6_S7_T1_EE ## -- Begin function _ZNSt3__1lsIcNS_11char_traitsIcEENS_9allocatorIcEEEERNS_13basic_ostreamIT_T0_EES9_RKNS_12basic_stringIS6_S7_T1_EE
	.weak_definition	__ZNSt3__1lsIcNS_11char_traitsIcEENS_9allocatorIcEEEERNS_13basic_ostreamIT_T0_EES9_RKNS_12basic_stringIS6_S7_T1_EE
	.p2align	4, 0x90
__ZNSt3__1lsIcNS_11char_traitsIcEENS_9allocatorIcEEEERNS_13basic_ostreamIT_T0_EES9_RKNS_12basic_stringIS6_S7_T1_EE: ## @_ZNSt3__1lsIcNS_11char_traitsIcEENS_9allocatorIcEEEERNS_13basic_ostreamIT_T0_EES9_RKNS_12basic_stringIS6_S7_T1_EE
Lfunc_begin34:
	.loc	17 1046 0 is_stmt 1     ## /Applications/Xcode.app/Contents/Developer/Toolchains/XcodeDefault.xctoolchain/usr/include/c++/v1/ostream:1046:0
	.cfi_startproc
## %bb.0:
	pushq	%rbp
	.cfi_def_cfa_offset 16
	.cfi_offset %rbp, -16
	movq	%rsp, %rbp
	.cfi_def_cfa_register %rbp
	subq	$208, %rsp
	movq	%rdi, -16(%rbp)
	movq	%rsi, -8(%rbp)
Ltmp133:
	.loc	17 1047 44 prologue_end ## /Applications/Xcode.app/Contents/Developer/Toolchains/XcodeDefault.xctoolchain/usr/include/c++/v1/ostream:1047:44
	movq	-16(%rbp), %rdi
	.loc	17 1047 50 is_stmt 0    ## /Applications/Xcode.app/Contents/Developer/Toolchains/XcodeDefault.xctoolchain/usr/include/c++/v1/ostream:1047:50
	movq	-8(%rbp), %rax
	movq	%rax, -24(%rbp)
	movq	-24(%rbp), %rax
	movq	%rax, -32(%rbp)
	movq	-32(%rbp), %rax
	movq	%rax, -40(%rbp)
	movq	-40(%rbp), %rcx
	movq	%rcx, -48(%rbp)
	movq	-48(%rbp), %rcx
	movq	%rcx, -56(%rbp)
	movq	-56(%rbp), %rcx
Ltmp134:
	.loc	6 1221 22 is_stmt 1     ## /Applications/Xcode.app/Contents/Developer/Toolchains/XcodeDefault.xctoolchain/usr/include/c++/v1/string:1221:22
	movzbl	(%rcx), %ecx
	.loc	6 1221 47 is_stmt 0     ## /Applications/Xcode.app/Contents/Developer/Toolchains/XcodeDefault.xctoolchain/usr/include/c++/v1/string:1221:47
	andq	$1, %rcx
	.loc	6 1221 22               ## /Applications/Xcode.app/Contents/Developer/Toolchains/XcodeDefault.xctoolchain/usr/include/c++/v1/string:1221:22
	cmpq	$0, %rcx
Ltmp135:
	.loc	6 1315 17 is_stmt 1     ## /Applications/Xcode.app/Contents/Developer/Toolchains/XcodeDefault.xctoolchain/usr/include/c++/v1/string:1315:17
	je	LBB34_2
## %bb.1:
	.loc	6 0 17 is_stmt 0        ## /Applications/Xcode.app/Contents/Developer/Toolchains/XcodeDefault.xctoolchain/usr/include/c++/v1/string:0:17
	movq	%rax, -104(%rbp)
	movq	-104(%rbp), %rax
	movq	%rax, -112(%rbp)
	movq	-112(%rbp), %rax
	movq	%rax, -120(%rbp)
	movq	-120(%rbp), %rax
Ltmp136:
	.loc	6 1303 34 is_stmt 1     ## /Applications/Xcode.app/Contents/Developer/Toolchains/XcodeDefault.xctoolchain/usr/include/c++/v1/string:1303:34
	movq	16(%rax), %rax
Ltmp137:
	.loc	6 1315 17               ## /Applications/Xcode.app/Contents/Developer/Toolchains/XcodeDefault.xctoolchain/usr/include/c++/v1/string:1315:17
	jmp	LBB34_3
LBB34_2:
	.loc	6 0 17 is_stmt 0        ## /Applications/Xcode.app/Contents/Developer/Toolchains/XcodeDefault.xctoolchain/usr/include/c++/v1/string:0:17
	movq	%rax, -64(%rbp)
	movq	-64(%rbp), %rax
	movq	%rax, -72(%rbp)
	movq	-72(%rbp), %rax
	movq	%rax, -80(%rbp)
	movq	-80(%rbp), %rax
Ltmp138:
	.loc	6 1309 76 is_stmt 1     ## /Applications/Xcode.app/Contents/Developer/Toolchains/XcodeDefault.xctoolchain/usr/include/c++/v1/string:1309:76
	addq	$1, %rax
	movq	%rax, -88(%rbp)
Ltmp139:
	.loc	7 979 34                ## /Applications/Xcode.app/Contents/Developer/Toolchains/XcodeDefault.xctoolchain/usr/include/c++/v1/memory:979:34
	movq	-88(%rbp), %rax
	movq	%rax, -96(%rbp)
Ltmp140:
	.loc	8 439 32                ## /Applications/Xcode.app/Contents/Developer/Toolchains/XcodeDefault.xctoolchain/usr/include/c++/v1/type_traits:439:32
	movq	-96(%rbp), %rax
Ltmp141:
LBB34_3:
	.loc	8 0 32 is_stmt 0        ## /Applications/Xcode.app/Contents/Developer/Toolchains/XcodeDefault.xctoolchain/usr/include/c++/v1/type_traits:0:32
	movq	%rax, -128(%rbp)
Ltmp142:
	.loc	7 1097 12 is_stmt 1     ## /Applications/Xcode.app/Contents/Developer/Toolchains/XcodeDefault.xctoolchain/usr/include/c++/v1/memory:1097:12
	movq	-128(%rbp), %rsi
Ltmp143:
	.loc	17 1047 64              ## /Applications/Xcode.app/Contents/Developer/Toolchains/XcodeDefault.xctoolchain/usr/include/c++/v1/ostream:1047:64
	movq	-8(%rbp), %rax
	movq	%rax, -136(%rbp)
	movq	-136(%rbp), %rax
	movq	%rax, -144(%rbp)
	movq	-144(%rbp), %rcx
	movq	%rcx, -152(%rbp)
	movq	-152(%rbp), %rcx
	movq	%rcx, -160(%rbp)
	movq	-160(%rbp), %rcx
Ltmp144:
	.loc	6 1221 22               ## /Applications/Xcode.app/Contents/Developer/Toolchains/XcodeDefault.xctoolchain/usr/include/c++/v1/string:1221:22
	movzbl	(%rcx), %ecx
	.loc	6 1221 47 is_stmt 0     ## /Applications/Xcode.app/Contents/Developer/Toolchains/XcodeDefault.xctoolchain/usr/include/c++/v1/string:1221:47
	andq	$1, %rcx
	.loc	6 1221 22               ## /Applications/Xcode.app/Contents/Developer/Toolchains/XcodeDefault.xctoolchain/usr/include/c++/v1/string:1221:22
	cmpq	$0, %rcx
Ltmp145:
	.loc	6 889 17 is_stmt 1      ## /Applications/Xcode.app/Contents/Developer/Toolchains/XcodeDefault.xctoolchain/usr/include/c++/v1/string:889:17
	je	LBB34_5
## %bb.4:
	.loc	6 0 17 is_stmt 0        ## /Applications/Xcode.app/Contents/Developer/Toolchains/XcodeDefault.xctoolchain/usr/include/c++/v1/string:0:17
	movq	%rax, -192(%rbp)
	movq	-192(%rbp), %rax
	movq	%rax, -200(%rbp)
	movq	-200(%rbp), %rax
	movq	%rax, -208(%rbp)
	movq	-208(%rbp), %rax
Ltmp146:
	.loc	6 1283 34 is_stmt 1     ## /Applications/Xcode.app/Contents/Developer/Toolchains/XcodeDefault.xctoolchain/usr/include/c++/v1/string:1283:34
	movq	8(%rax), %rdx
Ltmp147:
	.loc	6 889 17                ## /Applications/Xcode.app/Contents/Developer/Toolchains/XcodeDefault.xctoolchain/usr/include/c++/v1/string:889:17
	jmp	LBB34_6
LBB34_5:
	.loc	6 0 17 is_stmt 0        ## /Applications/Xcode.app/Contents/Developer/Toolchains/XcodeDefault.xctoolchain/usr/include/c++/v1/string:0:17
	movq	%rax, -168(%rbp)
	movq	-168(%rbp), %rax
	movq	%rax, -176(%rbp)
	movq	-176(%rbp), %rax
	movq	%rax, -184(%rbp)
	movq	-184(%rbp), %rax
Ltmp148:
	.loc	6 1273 17 is_stmt 1     ## /Applications/Xcode.app/Contents/Developer/Toolchains/XcodeDefault.xctoolchain/usr/include/c++/v1/string:1273:17
	movzbl	(%rax), %eax
	.loc	6 1273 42 is_stmt 0     ## /Applications/Xcode.app/Contents/Developer/Toolchains/XcodeDefault.xctoolchain/usr/include/c++/v1/string:1273:42
	sarl	$1, %eax
	.loc	6 1273 17               ## /Applications/Xcode.app/Contents/Developer/Toolchains/XcodeDefault.xctoolchain/usr/include/c++/v1/string:1273:17
	movslq	%eax, %rdx
Ltmp149:
LBB34_6:
	.loc	17 1047 12 is_stmt 1    ## /Applications/Xcode.app/Contents/Developer/Toolchains/XcodeDefault.xctoolchain/usr/include/c++/v1/ostream:1047:12
	callq	__ZNSt3__124__put_character_sequenceIcNS_11char_traitsIcEEEERNS_13basic_ostreamIT_T0_EES7_PKS4_m
	.loc	17 1047 5 is_stmt 0     ## /Applications/Xcode.app/Contents/Developer/Toolchains/XcodeDefault.xctoolchain/usr/include/c++/v1/ostream:1047:5
	addq	$208, %rsp
	popq	%rbp
	retq
Ltmp150:
Lfunc_end34:
	.cfi_endproc
                                        ## -- End function
	.private_extern	__ZN14altered_carbon2js11ACLexNumberD1Ev ## -- Begin function _ZN14altered_carbon2js11ACLexNumberD1Ev
	.globl	__ZN14altered_carbon2js11ACLexNumberD1Ev
	.weak_def_can_be_hidden	__ZN14altered_carbon2js11ACLexNumberD1Ev
	.p2align	4, 0x90
__ZN14altered_carbon2js11ACLexNumberD1Ev: ## @_ZN14altered_carbon2js11ACLexNumberD1Ev
Lfunc_begin35:
	.loc	61 27 0 is_stmt 1       ## ../ac_lex_datatypes.h:27:0
	.cfi_startproc
## %bb.0:
	pushq	%rbp
	.cfi_def_cfa_offset 16
	.cfi_offset %rbp, -16
	movq	%rsp, %rbp
	.cfi_def_cfa_register %rbp
	subq	$16, %rsp
	movq	%rdi, -8(%rbp)
	movq	-8(%rbp), %rdi
Ltmp151:
	.loc	61 27 26 prologue_end   ## ../ac_lex_datatypes.h:27:26
	callq	__ZN14altered_carbon2js11ACLexNumberD2Ev
	.loc	61 27 27 is_stmt 0      ## ../ac_lex_datatypes.h:27:27
	addq	$16, %rsp
	popq	%rbp
	retq
Ltmp152:
Lfunc_end35:
	.cfi_endproc
                                        ## -- End function
	.private_extern	__ZN14altered_carbon2js11ACLexNumberD0Ev ## -- Begin function _ZN14altered_carbon2js11ACLexNumberD0Ev
	.globl	__ZN14altered_carbon2js11ACLexNumberD0Ev
	.weak_def_can_be_hidden	__ZN14altered_carbon2js11ACLexNumberD0Ev
	.p2align	4, 0x90
__ZN14altered_carbon2js11ACLexNumberD0Ev: ## @_ZN14altered_carbon2js11ACLexNumberD0Ev
Lfunc_begin36:
	.loc	61 27 0 is_stmt 1       ## ../ac_lex_datatypes.h:27:0
	.cfi_startproc
## %bb.0:
	pushq	%rbp
	.cfi_def_cfa_offset 16
	.cfi_offset %rbp, -16
	movq	%rsp, %rbp
	.cfi_def_cfa_register %rbp
	pushq	%rbx
	pushq	%rax
	.cfi_offset %rbx, -24
	movq	%rdi, -16(%rbp)
	movq	-16(%rbp), %rbx
Ltmp153:
	.loc	61 27 26 prologue_end   ## ../ac_lex_datatypes.h:27:26
	movq	%rbx, %rdi
	callq	__ZN14altered_carbon2js11ACLexNumberD1Ev
	movq	%rbx, %rdi
	callq	__ZdlPv
	.loc	61 27 27 is_stmt 0      ## ../ac_lex_datatypes.h:27:27
	addq	$8, %rsp
	popq	%rbx
	popq	%rbp
	retq
Ltmp154:
Lfunc_end36:
	.cfi_endproc
                                        ## -- End function
	.private_extern	__ZN14altered_carbon2js10ACLexRegexD1Ev ## -- Begin function _ZN14altered_carbon2js10ACLexRegexD1Ev
	.globl	__ZN14altered_carbon2js10ACLexRegexD1Ev
	.weak_def_can_be_hidden	__ZN14altered_carbon2js10ACLexRegexD1Ev
	.p2align	4, 0x90
__ZN14altered_carbon2js10ACLexRegexD1Ev: ## @_ZN14altered_carbon2js10ACLexRegexD1Ev
Lfunc_begin37:
	.loc	61 76 0 is_stmt 1       ## ../ac_lex_datatypes.h:76:0
	.cfi_startproc
## %bb.0:
	pushq	%rbp
	.cfi_def_cfa_offset 16
	.cfi_offset %rbp, -16
	movq	%rsp, %rbp
	.cfi_def_cfa_register %rbp
	subq	$16, %rsp
	movq	%rdi, -8(%rbp)
	movq	-8(%rbp), %rdi
Ltmp155:
	.loc	61 76 25 prologue_end   ## ../ac_lex_datatypes.h:76:25
	callq	__ZN14altered_carbon2js10ACLexRegexD2Ev
	.loc	61 76 26 is_stmt 0      ## ../ac_lex_datatypes.h:76:26
	addq	$16, %rsp
	popq	%rbp
	retq
Ltmp156:
Lfunc_end37:
	.cfi_endproc
                                        ## -- End function
	.private_extern	__ZN14altered_carbon2js10ACLexRegexD0Ev ## -- Begin function _ZN14altered_carbon2js10ACLexRegexD0Ev
	.globl	__ZN14altered_carbon2js10ACLexRegexD0Ev
	.weak_def_can_be_hidden	__ZN14altered_carbon2js10ACLexRegexD0Ev
	.p2align	4, 0x90
__ZN14altered_carbon2js10ACLexRegexD0Ev: ## @_ZN14altered_carbon2js10ACLexRegexD0Ev
Lfunc_begin38:
	.loc	61 76 0 is_stmt 1       ## ../ac_lex_datatypes.h:76:0
	.cfi_startproc
## %bb.0:
	pushq	%rbp
	.cfi_def_cfa_offset 16
	.cfi_offset %rbp, -16
	movq	%rsp, %rbp
	.cfi_def_cfa_register %rbp
	pushq	%rbx
	pushq	%rax
	.cfi_offset %rbx, -24
	movq	%rdi, -16(%rbp)
	movq	-16(%rbp), %rbx
Ltmp157:
	.loc	61 76 25 prologue_end   ## ../ac_lex_datatypes.h:76:25
	movq	%rbx, %rdi
	callq	__ZN14altered_carbon2js10ACLexRegexD1Ev
	movq	%rbx, %rdi
	callq	__ZdlPv
	.loc	61 76 26 is_stmt 0      ## ../ac_lex_datatypes.h:76:26
	addq	$8, %rsp
	popq	%rbx
	popq	%rbp
	retq
Ltmp158:
Lfunc_end38:
	.cfi_endproc
                                        ## -- End function
	.globl	__ZNSt3__124__put_character_sequenceIcNS_11char_traitsIcEEEERNS_13basic_ostreamIT_T0_EES7_PKS4_m ## -- Begin function _ZNSt3__124__put_character_sequenceIcNS_11char_traitsIcEEEERNS_13basic_ostreamIT_T0_EES7_PKS4_m
	.weak_definition	__ZNSt3__124__put_character_sequenceIcNS_11char_traitsIcEEEERNS_13basic_ostreamIT_T0_EES7_PKS4_m
	.p2align	4, 0x90
__ZNSt3__124__put_character_sequenceIcNS_11char_traitsIcEEEERNS_13basic_ostreamIT_T0_EES7_PKS4_m: ## @_ZNSt3__124__put_character_sequenceIcNS_11char_traitsIcEEEERNS_13basic_ostreamIT_T0_EES7_PKS4_m
Lfunc_begin39:
	.loc	17 716 0 is_stmt 1      ## /Applications/Xcode.app/Contents/Developer/Toolchains/XcodeDefault.xctoolchain/usr/include/c++/v1/ostream:716:0
	.cfi_startproc
## %bb.0:
	pushq	%rbp
	.cfi_def_cfa_offset 16
	.cfi_offset %rbp, -16
	movq	%rsp, %rbp
	.cfi_def_cfa_register %rbp
	pushq	%r15
	pushq	%r14
	pushq	%r13
	pushq	%r12
	pushq	%rbx
	subq	$216, %rsp
	.cfi_offset %rbx, -56
	.cfi_offset %r12, -48
	.cfi_offset %r13, -40
	.cfi_offset %r14, -32
	.cfi_offset %r15, -24
	movq	%rdi, -56(%rbp)
	movq	%rsi, -64(%rbp)
	movq	%rdx, -80(%rbp)
Ltmp159:
	.loc	17 721 61 prologue_end  ## /Applications/Xcode.app/Contents/Developer/Toolchains/XcodeDefault.xctoolchain/usr/include/c++/v1/ostream:721:61
	movq	-56(%rbp), %rsi
	.loc	17 721 57 is_stmt 0     ## /Applications/Xcode.app/Contents/Developer/Toolchains/XcodeDefault.xctoolchain/usr/include/c++/v1/ostream:721:57
	leaq	-248(%rbp), %rdi
Ltmp160:
	##DEBUG_VALUE: __put_character_sequence<char, std::__1::char_traits<char> >:__s <- [$rdi+0]
	callq	__ZNSt3__113basic_ostreamIcNS_11char_traitsIcEEE6sentryC1ERS3_
Ltmp161:
	.loc	17 0 57                 ## /Applications/Xcode.app/Contents/Developer/Toolchains/XcodeDefault.xctoolchain/usr/include/c++/v1/ostream:0:57
	leaq	-248(%rbp), %rax
	movq	%rax, -120(%rbp)
	movq	-120(%rbp), %rax
	.loc	17 722 13 is_stmt 1     ## /Applications/Xcode.app/Contents/Developer/Toolchains/XcodeDefault.xctoolchain/usr/include/c++/v1/ostream:722:13
	testb	$1, (%rax)
	je	LBB39_9
## %bb.1:
Ltmp162:
	.loc	17 725 38               ## /Applications/Xcode.app/Contents/Developer/Toolchains/XcodeDefault.xctoolchain/usr/include/c++/v1/ostream:725:38
	movq	-56(%rbp), %rax
	leaq	-104(%rbp), %rcx
	movq	%rcx, -152(%rbp)
	movq	%rax, -144(%rbp)
	movq	-152(%rbp), %rax
Ltmp163:
	.loc	15 1032 32              ## /Applications/Xcode.app/Contents/Developer/Toolchains/XcodeDefault.xctoolchain/usr/include/c++/v1/iterator:1032:32
	movq	-144(%rbp), %rcx
	movq	%rax, -168(%rbp)
	movq	%rcx, -160(%rbp)
	movq	-168(%rbp), %rax
Ltmp164:
	.loc	15 1032 19 is_stmt 0    ## /Applications/Xcode.app/Contents/Developer/Toolchains/XcodeDefault.xctoolchain/usr/include/c++/v1/iterator:1032:19
	movq	-160(%rbp), %rcx
	movq	(%rcx), %rdx
	movq	-24(%rdx), %rdx
	addq	%rdx, %rcx
	movq	%rcx, -176(%rbp)
	movq	-176(%rbp), %rcx
	movq	%rcx, -184(%rbp)
	movq	-184(%rbp), %rcx
Ltmp165:
	.loc	1 340 55 is_stmt 1      ## /Applications/Xcode.app/Contents/Developer/Toolchains/XcodeDefault.xctoolchain/usr/include/c++/v1/ios:340:55
	movq	40(%rcx), %rcx
Ltmp166:
	.loc	15 1032 11              ## /Applications/Xcode.app/Contents/Developer/Toolchains/XcodeDefault.xctoolchain/usr/include/c++/v1/iterator:1032:11
	movq	%rcx, (%rax)
Ltmp167:
	.loc	17 726 34               ## /Applications/Xcode.app/Contents/Developer/Toolchains/XcodeDefault.xctoolchain/usr/include/c++/v1/ostream:726:34
	movq	-64(%rbp), %r13
	.loc	17 727 35               ## /Applications/Xcode.app/Contents/Developer/Toolchains/XcodeDefault.xctoolchain/usr/include/c++/v1/ostream:727:35
	movq	-56(%rbp), %rax
	movq	(%rax), %rcx
	movq	-24(%rcx), %rcx
	addq	%rcx, %rax
	movq	%rax, -200(%rbp)
	movq	-200(%rbp), %rax
Ltmp168:
	.loc	1 442 12                ## /Applications/Xcode.app/Contents/Developer/Toolchains/XcodeDefault.xctoolchain/usr/include/c++/v1/ios:442:12
	movl	8(%rax), %eax
Ltmp169:
	.loc	17 727 48               ## /Applications/Xcode.app/Contents/Developer/Toolchains/XcodeDefault.xctoolchain/usr/include/c++/v1/ostream:727:48
	andl	$176, %eax
	.loc	17 727 73 is_stmt 0     ## /Applications/Xcode.app/Contents/Developer/Toolchains/XcodeDefault.xctoolchain/usr/include/c++/v1/ostream:727:73
	cmpl	$32, %eax
	.loc	17 727 34               ## /Applications/Xcode.app/Contents/Developer/Toolchains/XcodeDefault.xctoolchain/usr/include/c++/v1/ostream:727:34
	jne	LBB39_3
## %bb.2:
	.loc	17 728 38 is_stmt 1     ## /Applications/Xcode.app/Contents/Developer/Toolchains/XcodeDefault.xctoolchain/usr/include/c++/v1/ostream:728:38
	movq	-64(%rbp), %r15
	.loc	17 728 44 is_stmt 0     ## /Applications/Xcode.app/Contents/Developer/Toolchains/XcodeDefault.xctoolchain/usr/include/c++/v1/ostream:728:44
	addq	-80(%rbp), %r15
	.loc	17 727 34 is_stmt 1     ## /Applications/Xcode.app/Contents/Developer/Toolchains/XcodeDefault.xctoolchain/usr/include/c++/v1/ostream:727:34
	jmp	LBB39_4
LBB39_3:
	.loc	17 729 38               ## /Applications/Xcode.app/Contents/Developer/Toolchains/XcodeDefault.xctoolchain/usr/include/c++/v1/ostream:729:38
	movq	-64(%rbp), %r15
LBB39_4:
	.loc	17 730 34               ## /Applications/Xcode.app/Contents/Developer/Toolchains/XcodeDefault.xctoolchain/usr/include/c++/v1/ostream:730:34
	movq	-64(%rbp), %r12
	.loc	17 730 40 is_stmt 0     ## /Applications/Xcode.app/Contents/Developer/Toolchains/XcodeDefault.xctoolchain/usr/include/c++/v1/ostream:730:40
	addq	-80(%rbp), %r12
	.loc	17 731 34 is_stmt 1     ## /Applications/Xcode.app/Contents/Developer/Toolchains/XcodeDefault.xctoolchain/usr/include/c++/v1/ostream:731:34
	movq	-56(%rbp), %rbx
	movq	(%rbx), %rax
	movq	-24(%rax), %rax
	addq	%rax, %rbx
	.loc	17 732 34               ## /Applications/Xcode.app/Contents/Developer/Toolchains/XcodeDefault.xctoolchain/usr/include/c++/v1/ostream:732:34
	movq	-56(%rbp), %rax
	movq	(%rax), %rcx
	movq	-24(%rcx), %rcx
	addq	%rcx, %rax
	movq	%rax, -208(%rbp)
	movq	-208(%rbp), %r14
Ltmp170:
	.loc	1 764 34                ## /Applications/Xcode.app/Contents/Developer/Toolchains/XcodeDefault.xctoolchain/usr/include/c++/v1/ios:764:34
	callq	__ZNSt3__111char_traitsIcE3eofEv
	.loc	1 764 54 is_stmt 0      ## /Applications/Xcode.app/Contents/Developer/Toolchains/XcodeDefault.xctoolchain/usr/include/c++/v1/ios:764:54
	movl	144(%r14), %esi
	.loc	1 764 9                 ## /Applications/Xcode.app/Contents/Developer/Toolchains/XcodeDefault.xctoolchain/usr/include/c++/v1/ios:764:9
	movl	%eax, %edi
	callq	__ZNSt3__111char_traitsIcE11eq_int_typeEii
Ltmp171:
	.loc	1 764 9                 ## /Applications/Xcode.app/Contents/Developer/Toolchains/XcodeDefault.xctoolchain/usr/include/c++/v1/ios:764:9
	testb	$1, %al
	jne	LBB39_5
	jmp	LBB39_6
LBB39_5:
	.loc	1 0 9                   ## /Applications/Xcode.app/Contents/Developer/Toolchains/XcodeDefault.xctoolchain/usr/include/c++/v1/ios:0:9
	movq	%r14, -216(%rbp)
	movb	$32, -41(%rbp)
	movq	-216(%rbp), %rsi
Ltmp172:
	.loc	1 756 41 is_stmt 1      ## /Applications/Xcode.app/Contents/Developer/Toolchains/XcodeDefault.xctoolchain/usr/include/c++/v1/ios:756:41
	leaq	-88(%rbp), %rdi
	callq	__ZNKSt3__18ios_base6getlocEv
	movq	__ZNSt3__15ctypeIcE2idE@GOTPCREL(%rip), %rsi
	leaq	-88(%rbp), %rax
	movq	%rax, -224(%rbp)
Ltmp173:
	.loc	5 212 40                ## /Applications/Xcode.app/Contents/Developer/Toolchains/XcodeDefault.xctoolchain/usr/include/c++/v1/__locale:212:40
	movq	-224(%rbp), %rdi
	.loc	5 212 44 is_stmt 0      ## /Applications/Xcode.app/Contents/Developer/Toolchains/XcodeDefault.xctoolchain/usr/include/c++/v1/__locale:212:44
	callq	__ZNKSt3__16locale9use_facetERNS0_2idE
Ltmp174:
	.loc	1 756 57 is_stmt 1      ## /Applications/Xcode.app/Contents/Developer/Toolchains/XcodeDefault.xctoolchain/usr/include/c++/v1/ios:756:57
	movb	-41(%rbp), %cl
	movq	%rax, -232(%rbp)
	movb	%cl, -42(%rbp)
	movq	-232(%rbp), %rdi
Ltmp175:
	.loc	5 627 16                ## /Applications/Xcode.app/Contents/Developer/Toolchains/XcodeDefault.xctoolchain/usr/include/c++/v1/__locale:627:16
	movq	(%rdi), %rax
	movq	56(%rax), %rax
	movsbl	-42(%rbp), %esi
	callq	*%rax
	movq	%r15, -96(%rbp)         ## 8-byte Spill
	movq	%r13, %r15
	movb	%al, %r13b
Ltmp176:
	.loc	1 756 5                 ## /Applications/Xcode.app/Contents/Developer/Toolchains/XcodeDefault.xctoolchain/usr/include/c++/v1/ios:756:5
	leaq	-88(%rbp), %rdi
	callq	__ZNSt3__16localeD1Ev
Ltmp177:
	.loc	1 765 19                ## /Applications/Xcode.app/Contents/Developer/Toolchains/XcodeDefault.xctoolchain/usr/include/c++/v1/ios:765:19
	movsbl	%r13b, %eax
	movq	%r15, %r13
	movq	-96(%rbp), %r15         ## 8-byte Reload
	.loc	1 765 17 is_stmt 0      ## /Applications/Xcode.app/Contents/Developer/Toolchains/XcodeDefault.xctoolchain/usr/include/c++/v1/ios:765:17
	movl	%eax, 144(%r14)
Ltmp178:
LBB39_6:
	.loc	1 766 12 is_stmt 1      ## /Applications/Xcode.app/Contents/Developer/Toolchains/XcodeDefault.xctoolchain/usr/include/c++/v1/ios:766:12
	movl	144(%r14), %eax
Ltmp179:
	.loc	17 725 17               ## /Applications/Xcode.app/Contents/Developer/Toolchains/XcodeDefault.xctoolchain/usr/include/c++/v1/ostream:725:17
	movq	-104(%rbp), %rdi
	movq	%r13, %rsi
	movq	%r15, %rdx
	movq	%r12, %rcx
	movq	%rbx, %r8
	movsbl	%al, %r9d
	callq	__ZNSt3__116__pad_and_outputIcNS_11char_traitsIcEEEENS_19ostreambuf_iteratorIT_T0_EES6_PKS4_S8_S8_RNS_8ios_baseES4_
	movq	%rax, -112(%rbp)
	leaq	-112(%rbp), %rax
	movq	%rax, -192(%rbp)
	movq	-192(%rbp), %rax
Ltmp180:
	.loc	15 1044 77              ## /Applications/Xcode.app/Contents/Developer/Toolchains/XcodeDefault.xctoolchain/usr/include/c++/v1/iterator:1044:77
	cmpq	$0, (%rax)
Ltmp181:
	.loc	17 725 17               ## /Applications/Xcode.app/Contents/Developer/Toolchains/XcodeDefault.xctoolchain/usr/include/c++/v1/ostream:725:17
	jne	LBB39_8
## %bb.7:
Ltmp182:
	.loc	17 733 17               ## /Applications/Xcode.app/Contents/Developer/Toolchains/XcodeDefault.xctoolchain/usr/include/c++/v1/ostream:733:17
	movq	-56(%rbp), %rax
	movq	(%rax), %rcx
	movq	-24(%rcx), %rcx
	addq	%rcx, %rax
	movq	%rax, -128(%rbp)
	movl	$5, -68(%rbp)
	movq	-128(%rbp), %rax
Ltmp183:
	.loc	1 611 78                ## /Applications/Xcode.app/Contents/Developer/Toolchains/XcodeDefault.xctoolchain/usr/include/c++/v1/ios:611:78
	movl	-68(%rbp), %ecx
	movq	%rax, -136(%rbp)
	movl	%ecx, -72(%rbp)
	movq	-136(%rbp), %rdi
Ltmp184:
	.loc	1 529 11                ## /Applications/Xcode.app/Contents/Developer/Toolchains/XcodeDefault.xctoolchain/usr/include/c++/v1/ios:529:11
	movl	32(%rdi), %esi
	.loc	1 529 22 is_stmt 0      ## /Applications/Xcode.app/Contents/Developer/Toolchains/XcodeDefault.xctoolchain/usr/include/c++/v1/ios:529:22
	orl	-72(%rbp), %esi
	.loc	1 529 5                 ## /Applications/Xcode.app/Contents/Developer/Toolchains/XcodeDefault.xctoolchain/usr/include/c++/v1/ios:529:5
	callq	__ZNSt3__18ios_base5clearEj
Ltmp185:
LBB39_8:
	.loc	17 734 9 is_stmt 1      ## /Applications/Xcode.app/Contents/Developer/Toolchains/XcodeDefault.xctoolchain/usr/include/c++/v1/ostream:734:9
	jmp	LBB39_9
Ltmp186:
LBB39_9:
	.loc	17 742 12               ## /Applications/Xcode.app/Contents/Developer/Toolchains/XcodeDefault.xctoolchain/usr/include/c++/v1/ostream:742:12
	movq	-56(%rbp), %rbx
	.loc	17 743 1                ## /Applications/Xcode.app/Contents/Developer/Toolchains/XcodeDefault.xctoolchain/usr/include/c++/v1/ostream:743:1
	leaq	-248(%rbp), %rdi
	callq	__ZNSt3__113basic_ostreamIcNS_11char_traitsIcEEE6sentryD1Ev
	movq	%rbx, %rax
	addq	$216, %rsp
	popq	%rbx
	popq	%r12
	popq	%r13
	popq	%r14
	popq	%r15
	popq	%rbp
	retq
Ltmp187:
Lfunc_end39:
	.cfi_endproc
                                        ## -- End function
	.private_extern	__ZNSt3__111char_traitsIcE6lengthEPKc ## -- Begin function _ZNSt3__111char_traitsIcE6lengthEPKc
	.globl	__ZNSt3__111char_traitsIcE6lengthEPKc
	.weak_definition	__ZNSt3__111char_traitsIcE6lengthEPKc
	.p2align	4, 0x90
__ZNSt3__111char_traitsIcE6lengthEPKc:  ## @_ZNSt3__111char_traitsIcE6lengthEPKc
Lfunc_begin40:
	.loc	10 217 0                ## /Applications/Xcode.app/Contents/Developer/Toolchains/XcodeDefault.xctoolchain/usr/include/c++/v1/__string:217:0
	.cfi_startproc
## %bb.0:
	pushq	%rbp
	.cfi_def_cfa_offset 16
	.cfi_offset %rbp, -16
	movq	%rsp, %rbp
	.cfi_def_cfa_register %rbp
	subq	$16, %rsp
	movq	%rdi, -8(%rbp)
Ltmp188:
	.loc	10 217 70 prologue_end  ## /Applications/Xcode.app/Contents/Developer/Toolchains/XcodeDefault.xctoolchain/usr/include/c++/v1/__string:217:70
	movq	-8(%rbp), %rdi
	.loc	10 217 53 is_stmt 0     ## /Applications/Xcode.app/Contents/Developer/Toolchains/XcodeDefault.xctoolchain/usr/include/c++/v1/__string:217:53
	callq	_strlen
	.loc	10 217 46               ## /Applications/Xcode.app/Contents/Developer/Toolchains/XcodeDefault.xctoolchain/usr/include/c++/v1/__string:217:46
	addq	$16, %rsp
	popq	%rbp
	retq
Ltmp189:
Lfunc_end40:
	.cfi_endproc
                                        ## -- End function
	.private_extern	__ZNSt3__116__pad_and_outputIcNS_11char_traitsIcEEEENS_19ostreambuf_iteratorIT_T0_EES6_PKS4_S8_S8_RNS_8ios_baseES4_ ## -- Begin function _ZNSt3__116__pad_and_outputIcNS_11char_traitsIcEEEENS_19ostreambuf_iteratorIT_T0_EES6_PKS4_S8_S8_RNS_8ios_baseES4_
	.globl	__ZNSt3__116__pad_and_outputIcNS_11char_traitsIcEEEENS_19ostreambuf_iteratorIT_T0_EES6_PKS4_S8_S8_RNS_8ios_baseES4_
	.weak_definition	__ZNSt3__116__pad_and_outputIcNS_11char_traitsIcEEEENS_19ostreambuf_iteratorIT_T0_EES6_PKS4_S8_S8_RNS_8ios_baseES4_
	.p2align	4, 0x90
__ZNSt3__116__pad_and_outputIcNS_11char_traitsIcEEEENS_19ostreambuf_iteratorIT_T0_EES6_PKS4_S8_S8_RNS_8ios_baseES4_: ## @_ZNSt3__116__pad_and_outputIcNS_11char_traitsIcEEEENS_19ostreambuf_iteratorIT_T0_EES6_PKS4_S8_S8_RNS_8ios_baseES4_
Lfunc_begin41:
	.file	62 "/Applications/Xcode.app/Contents/Developer/Toolchains/XcodeDefault.xctoolchain/usr/include/c++/v1/locale"
	.loc	62 1384 0 is_stmt 1     ## /Applications/Xcode.app/Contents/Developer/Toolchains/XcodeDefault.xctoolchain/usr/include/c++/v1/locale:1384:0
	.cfi_startproc
## %bb.0:
	pushq	%rbp
	.cfi_def_cfa_offset 16
	.cfi_offset %rbp, -16
	movq	%rsp, %rbp
	.cfi_def_cfa_register %rbp
	pushq	%r14
	pushq	%rbx
	subq	$400, %rsp              ## imm = 0x190
	.cfi_offset %rbx, -32
	.cfi_offset %r14, -24
	movq	%rdi, -32(%rbp)
	movq	%rsi, -80(%rbp)
	movq	%rdx, -72(%rbp)
	movq	%rcx, -104(%rbp)
	movq	%r8, -96(%rbp)
	movb	%r9b, -17(%rbp)
Ltmp190:
	.loc	62 1385 21 prologue_end ## /Applications/Xcode.app/Contents/Developer/Toolchains/XcodeDefault.xctoolchain/usr/include/c++/v1/locale:1385:21
	cmpq	$0, -32(%rbp)
Ltmp191:
	.loc	62 1385 9 is_stmt 0     ## /Applications/Xcode.app/Contents/Developer/Toolchains/XcodeDefault.xctoolchain/usr/include/c++/v1/locale:1385:9
	jne	LBB41_2
## %bb.1:
Ltmp192:
	.loc	62 1386 16 is_stmt 1    ## /Applications/Xcode.app/Contents/Developer/Toolchains/XcodeDefault.xctoolchain/usr/include/c++/v1/locale:1386:16
	movq	-32(%rbp), %rax
	movq	%rax, -56(%rbp)
	.loc	62 1386 9 is_stmt 0     ## /Applications/Xcode.app/Contents/Developer/Toolchains/XcodeDefault.xctoolchain/usr/include/c++/v1/locale:1386:9
	jmp	LBB41_24
Ltmp193:
LBB41_2:
	.loc	62 1387 23 is_stmt 1    ## /Applications/Xcode.app/Contents/Developer/Toolchains/XcodeDefault.xctoolchain/usr/include/c++/v1/locale:1387:23
	movq	-104(%rbp), %rax
	.loc	62 1387 30 is_stmt 0    ## /Applications/Xcode.app/Contents/Developer/Toolchains/XcodeDefault.xctoolchain/usr/include/c++/v1/locale:1387:30
	movq	-80(%rbp), %rcx
	.loc	62 1387 28              ## /Applications/Xcode.app/Contents/Developer/Toolchains/XcodeDefault.xctoolchain/usr/include/c++/v1/locale:1387:28
	subq	%rcx, %rax
	.loc	62 1387 16              ## /Applications/Xcode.app/Contents/Developer/Toolchains/XcodeDefault.xctoolchain/usr/include/c++/v1/locale:1387:16
	movq	%rax, -88(%rbp)
	.loc	62 1388 23 is_stmt 1    ## /Applications/Xcode.app/Contents/Developer/Toolchains/XcodeDefault.xctoolchain/usr/include/c++/v1/locale:1388:23
	movq	-96(%rbp), %rax
	movq	%rax, -112(%rbp)
	movq	-112(%rbp), %rax
Ltmp194:
	.loc	1 504 12                ## /Applications/Xcode.app/Contents/Developer/Toolchains/XcodeDefault.xctoolchain/usr/include/c++/v1/ios:504:12
	movq	24(%rax), %rax
Ltmp195:
	.loc	62 1388 16              ## /Applications/Xcode.app/Contents/Developer/Toolchains/XcodeDefault.xctoolchain/usr/include/c++/v1/locale:1388:16
	movq	%rax, -40(%rbp)
Ltmp196:
	.loc	62 1389 9               ## /Applications/Xcode.app/Contents/Developer/Toolchains/XcodeDefault.xctoolchain/usr/include/c++/v1/locale:1389:9
	movq	-40(%rbp), %rax
	.loc	62 1389 14 is_stmt 0    ## /Applications/Xcode.app/Contents/Developer/Toolchains/XcodeDefault.xctoolchain/usr/include/c++/v1/locale:1389:14
	cmpq	-88(%rbp), %rax
Ltmp197:
	.loc	62 1389 9               ## /Applications/Xcode.app/Contents/Developer/Toolchains/XcodeDefault.xctoolchain/usr/include/c++/v1/locale:1389:9
	jle	LBB41_4
## %bb.3:
Ltmp198:
	.loc	62 1390 17 is_stmt 1    ## /Applications/Xcode.app/Contents/Developer/Toolchains/XcodeDefault.xctoolchain/usr/include/c++/v1/locale:1390:17
	movq	-88(%rbp), %rax
	.loc	62 1390 14 is_stmt 0    ## /Applications/Xcode.app/Contents/Developer/Toolchains/XcodeDefault.xctoolchain/usr/include/c++/v1/locale:1390:14
	movq	-40(%rbp), %rcx
	subq	%rax, %rcx
	movq	%rcx, -40(%rbp)
	.loc	62 1390 9               ## /Applications/Xcode.app/Contents/Developer/Toolchains/XcodeDefault.xctoolchain/usr/include/c++/v1/locale:1390:9
	jmp	LBB41_5
LBB41_4:
	.loc	62 1392 14 is_stmt 1    ## /Applications/Xcode.app/Contents/Developer/Toolchains/XcodeDefault.xctoolchain/usr/include/c++/v1/locale:1392:14
	movq	$0, -40(%rbp)
Ltmp199:
LBB41_5:
	.loc	62 1393 23              ## /Applications/Xcode.app/Contents/Developer/Toolchains/XcodeDefault.xctoolchain/usr/include/c++/v1/locale:1393:23
	movq	-72(%rbp), %rax
	.loc	62 1393 30 is_stmt 0    ## /Applications/Xcode.app/Contents/Developer/Toolchains/XcodeDefault.xctoolchain/usr/include/c++/v1/locale:1393:30
	movq	-80(%rbp), %rcx
	.loc	62 1393 28              ## /Applications/Xcode.app/Contents/Developer/Toolchains/XcodeDefault.xctoolchain/usr/include/c++/v1/locale:1393:28
	subq	%rcx, %rax
	.loc	62 1393 16              ## /Applications/Xcode.app/Contents/Developer/Toolchains/XcodeDefault.xctoolchain/usr/include/c++/v1/locale:1393:16
	movq	%rax, -48(%rbp)
Ltmp200:
	.loc	62 1394 14 is_stmt 1    ## /Applications/Xcode.app/Contents/Developer/Toolchains/XcodeDefault.xctoolchain/usr/include/c++/v1/locale:1394:14
	cmpq	$0, -48(%rbp)
Ltmp201:
	.loc	62 1394 9 is_stmt 0     ## /Applications/Xcode.app/Contents/Developer/Toolchains/XcodeDefault.xctoolchain/usr/include/c++/v1/locale:1394:9
	jle	LBB41_9
## %bb.6:
Ltmp202:
	.loc	62 1396 17 is_stmt 1    ## /Applications/Xcode.app/Contents/Developer/Toolchains/XcodeDefault.xctoolchain/usr/include/c++/v1/locale:1396:17
	movq	-32(%rbp), %rax
	.loc	62 1396 32 is_stmt 0    ## /Applications/Xcode.app/Contents/Developer/Toolchains/XcodeDefault.xctoolchain/usr/include/c++/v1/locale:1396:32
	movq	-80(%rbp), %rcx
	.loc	62 1396 38              ## /Applications/Xcode.app/Contents/Developer/Toolchains/XcodeDefault.xctoolchain/usr/include/c++/v1/locale:1396:38
	movq	-48(%rbp), %rdx
	movq	%rax, -176(%rbp)
	movq	%rcx, -168(%rbp)
	movq	%rdx, -160(%rbp)
	movq	-176(%rbp), %rdi
Ltmp203:
	.loc	16 227 14 is_stmt 1     ## /Applications/Xcode.app/Contents/Developer/Toolchains/XcodeDefault.xctoolchain/usr/include/c++/v1/streambuf:227:14
	movq	(%rdi), %rax
	movq	96(%rax), %rax
	.loc	16 227 21 is_stmt 0     ## /Applications/Xcode.app/Contents/Developer/Toolchains/XcodeDefault.xctoolchain/usr/include/c++/v1/streambuf:227:21
	movq	-168(%rbp), %rsi
	.loc	16 227 26               ## /Applications/Xcode.app/Contents/Developer/Toolchains/XcodeDefault.xctoolchain/usr/include/c++/v1/streambuf:227:26
	movq	-160(%rbp), %rdx
	.loc	16 227 14               ## /Applications/Xcode.app/Contents/Developer/Toolchains/XcodeDefault.xctoolchain/usr/include/c++/v1/streambuf:227:14
	callq	*%rax
Ltmp204:
	.loc	62 1396 44 is_stmt 1    ## /Applications/Xcode.app/Contents/Developer/Toolchains/XcodeDefault.xctoolchain/usr/include/c++/v1/locale:1396:44
	cmpq	-48(%rbp), %rax
Ltmp205:
	.loc	62 1396 13 is_stmt 0    ## /Applications/Xcode.app/Contents/Developer/Toolchains/XcodeDefault.xctoolchain/usr/include/c++/v1/locale:1396:13
	je	LBB41_8
## %bb.7:
Ltmp206:
	.loc	62 1398 25 is_stmt 1    ## /Applications/Xcode.app/Contents/Developer/Toolchains/XcodeDefault.xctoolchain/usr/include/c++/v1/locale:1398:25
	movq	$0, -32(%rbp)
	.loc	62 1399 20              ## /Applications/Xcode.app/Contents/Developer/Toolchains/XcodeDefault.xctoolchain/usr/include/c++/v1/locale:1399:20
	movq	-32(%rbp), %rax
	movq	%rax, -56(%rbp)
	.loc	62 1399 13 is_stmt 0    ## /Applications/Xcode.app/Contents/Developer/Toolchains/XcodeDefault.xctoolchain/usr/include/c++/v1/locale:1399:13
	jmp	LBB41_24
Ltmp207:
LBB41_8:
	.loc	62 1401 5 is_stmt 1     ## /Applications/Xcode.app/Contents/Developer/Toolchains/XcodeDefault.xctoolchain/usr/include/c++/v1/locale:1401:5
	jmp	LBB41_9
Ltmp208:
LBB41_9:
	.loc	62 1402 14              ## /Applications/Xcode.app/Contents/Developer/Toolchains/XcodeDefault.xctoolchain/usr/include/c++/v1/locale:1402:14
	cmpq	$0, -40(%rbp)
Ltmp209:
	.loc	62 1402 9 is_stmt 0     ## /Applications/Xcode.app/Contents/Developer/Toolchains/XcodeDefault.xctoolchain/usr/include/c++/v1/locale:1402:9
	jle	LBB41_19
## %bb.10:
Ltmp210:
	.loc	62 1404 44 is_stmt 1    ## /Applications/Xcode.app/Contents/Developer/Toolchains/XcodeDefault.xctoolchain/usr/include/c++/v1/locale:1404:44
	movq	-40(%rbp), %rax
	.loc	62 1404 50 is_stmt 0    ## /Applications/Xcode.app/Contents/Developer/Toolchains/XcodeDefault.xctoolchain/usr/include/c++/v1/locale:1404:50
	movb	-17(%rbp), %cl
	leaq	-400(%rbp), %rdx
Ltmp211:
	##DEBUG_VALUE: __sp <- [$rdx+0]
	.loc	62 0 50                 ## /Applications/Xcode.app/Contents/Developer/Toolchains/XcodeDefault.xctoolchain/usr/include/c++/v1/locale:0:50
	movq	%rdx, -192(%rbp)
	movq	%rax, -184(%rbp)
	movb	%cl, -18(%rbp)
	movq	-192(%rbp), %rax
Ltmp212:
	.loc	6 1707 1 is_stmt 1      ## /Applications/Xcode.app/Contents/Developer/Toolchains/XcodeDefault.xctoolchain/usr/include/c++/v1/string:1707:1
	movq	-184(%rbp), %rcx
	movb	-18(%rbp), %dl
Ltmp213:
	.loc	6 0 1 is_stmt 0         ## /Applications/Xcode.app/Contents/Developer/Toolchains/XcodeDefault.xctoolchain/usr/include/c++/v1/string:0:1
	movq	%rax, -208(%rbp)
	movq	%rcx, -200(%rbp)
	movb	%dl, -19(%rbp)
	movq	-208(%rbp), %r14
	movq	%r14, -216(%rbp)
	movq	-216(%rbp), %rax
	movq	%rax, -224(%rbp)
	movq	-224(%rbp), %rbx
	movq	%rbx, -232(%rbp)
	movq	-232(%rbp), %rdi
Ltmp214:
	.loc	7 2043 66 is_stmt 1     ## /Applications/Xcode.app/Contents/Developer/Toolchains/XcodeDefault.xctoolchain/usr/include/c++/v1/memory:2043:66
	xorl	%esi, %esi
	movl	$24, %edx
	callq	_memset
	movq	%rbx, -240(%rbp)
	movq	-240(%rbp), %rax
	movq	%rax, -416(%rbp)
Ltmp215:
	.loc	6 1708 12               ## /Applications/Xcode.app/Contents/Developer/Toolchains/XcodeDefault.xctoolchain/usr/include/c++/v1/string:1708:12
	movq	-200(%rbp), %rsi
	.loc	6 1708 5 is_stmt 0      ## /Applications/Xcode.app/Contents/Developer/Toolchains/XcodeDefault.xctoolchain/usr/include/c++/v1/string:1708:5
	movq	%r14, %rdi
	movsbl	-19(%rbp), %edx
	callq	__ZNSt3__112basic_stringIcNS_11char_traitsIcEENS_9allocatorIcEEE6__initEmc
Ltmp216:
	.loc	62 1405 17 is_stmt 1    ## /Applications/Xcode.app/Contents/Developer/Toolchains/XcodeDefault.xctoolchain/usr/include/c++/v1/locale:1405:17
	movq	-32(%rbp), %rax
	leaq	-400(%rbp), %rcx
	movq	%rcx, -248(%rbp)
	movq	-248(%rbp), %rcx
	movq	%rcx, -256(%rbp)
	movq	-256(%rbp), %rcx
	movq	%rcx, -264(%rbp)
	movq	-264(%rbp), %rdx
	movq	%rdx, -272(%rbp)
	movq	-272(%rbp), %rdx
	movq	%rdx, -280(%rbp)
	movq	-280(%rbp), %rdx
Ltmp217:
	.loc	6 1221 22               ## /Applications/Xcode.app/Contents/Developer/Toolchains/XcodeDefault.xctoolchain/usr/include/c++/v1/string:1221:22
	movzbl	(%rdx), %edx
	.loc	6 1221 47 is_stmt 0     ## /Applications/Xcode.app/Contents/Developer/Toolchains/XcodeDefault.xctoolchain/usr/include/c++/v1/string:1221:47
	andq	$1, %rdx
	.loc	6 1221 22               ## /Applications/Xcode.app/Contents/Developer/Toolchains/XcodeDefault.xctoolchain/usr/include/c++/v1/string:1221:22
	cmpq	$0, %rdx
Ltmp218:
	.loc	6 1315 17 is_stmt 1     ## /Applications/Xcode.app/Contents/Developer/Toolchains/XcodeDefault.xctoolchain/usr/include/c++/v1/string:1315:17
	je	LBB41_12
## %bb.11:
	.loc	6 0 17 is_stmt 0        ## /Applications/Xcode.app/Contents/Developer/Toolchains/XcodeDefault.xctoolchain/usr/include/c++/v1/string:0:17
	movq	%rcx, -328(%rbp)
	movq	-328(%rbp), %rcx
	movq	%rcx, -336(%rbp)
	movq	-336(%rbp), %rcx
	movq	%rcx, -344(%rbp)
	movq	-344(%rbp), %rcx
Ltmp219:
	.loc	6 1303 34 is_stmt 1     ## /Applications/Xcode.app/Contents/Developer/Toolchains/XcodeDefault.xctoolchain/usr/include/c++/v1/string:1303:34
	movq	16(%rcx), %rcx
Ltmp220:
	.loc	6 1315 17               ## /Applications/Xcode.app/Contents/Developer/Toolchains/XcodeDefault.xctoolchain/usr/include/c++/v1/string:1315:17
	jmp	LBB41_13
LBB41_12:
	.loc	6 0 17 is_stmt 0        ## /Applications/Xcode.app/Contents/Developer/Toolchains/XcodeDefault.xctoolchain/usr/include/c++/v1/string:0:17
	movq	%rcx, -288(%rbp)
	movq	-288(%rbp), %rcx
	movq	%rcx, -296(%rbp)
	movq	-296(%rbp), %rcx
	movq	%rcx, -304(%rbp)
	movq	-304(%rbp), %rcx
Ltmp221:
	.loc	6 1309 76 is_stmt 1     ## /Applications/Xcode.app/Contents/Developer/Toolchains/XcodeDefault.xctoolchain/usr/include/c++/v1/string:1309:76
	addq	$1, %rcx
	movq	%rcx, -312(%rbp)
Ltmp222:
	.loc	7 979 34                ## /Applications/Xcode.app/Contents/Developer/Toolchains/XcodeDefault.xctoolchain/usr/include/c++/v1/memory:979:34
	movq	-312(%rbp), %rcx
	movq	%rcx, -320(%rbp)
Ltmp223:
	.loc	8 439 32                ## /Applications/Xcode.app/Contents/Developer/Toolchains/XcodeDefault.xctoolchain/usr/include/c++/v1/type_traits:439:32
	movq	-320(%rbp), %rcx
Ltmp224:
LBB41_13:
	.loc	8 0 32 is_stmt 0        ## /Applications/Xcode.app/Contents/Developer/Toolchains/XcodeDefault.xctoolchain/usr/include/c++/v1/type_traits:0:32
	movq	%rcx, -352(%rbp)
Ltmp225:
	.loc	7 1097 12 is_stmt 1     ## /Applications/Xcode.app/Contents/Developer/Toolchains/XcodeDefault.xctoolchain/usr/include/c++/v1/memory:1097:12
	movq	-352(%rbp), %rcx
Ltmp226:
	.loc	62 1405 45              ## /Applications/Xcode.app/Contents/Developer/Toolchains/XcodeDefault.xctoolchain/usr/include/c++/v1/locale:1405:45
	movq	-40(%rbp), %rdx
	movq	%rax, -376(%rbp)
	movq	%rcx, -368(%rbp)
	movq	%rdx, -360(%rbp)
	movq	-376(%rbp), %rdi
Ltmp227:
	.loc	16 227 14               ## /Applications/Xcode.app/Contents/Developer/Toolchains/XcodeDefault.xctoolchain/usr/include/c++/v1/streambuf:227:14
	movq	(%rdi), %rax
	movq	96(%rax), %rax
	.loc	16 227 21 is_stmt 0     ## /Applications/Xcode.app/Contents/Developer/Toolchains/XcodeDefault.xctoolchain/usr/include/c++/v1/streambuf:227:21
	movq	-368(%rbp), %rsi
	.loc	16 227 26               ## /Applications/Xcode.app/Contents/Developer/Toolchains/XcodeDefault.xctoolchain/usr/include/c++/v1/streambuf:227:26
	movq	-360(%rbp), %rdx
	.loc	16 227 14               ## /Applications/Xcode.app/Contents/Developer/Toolchains/XcodeDefault.xctoolchain/usr/include/c++/v1/streambuf:227:14
	callq	*%rax
Ltmp228:
	.loc	62 1405 51 is_stmt 1    ## /Applications/Xcode.app/Contents/Developer/Toolchains/XcodeDefault.xctoolchain/usr/include/c++/v1/locale:1405:51
	cmpq	-40(%rbp), %rax
Ltmp229:
	.loc	62 1405 13 is_stmt 0    ## /Applications/Xcode.app/Contents/Developer/Toolchains/XcodeDefault.xctoolchain/usr/include/c++/v1/locale:1405:13
	je	LBB41_15
## %bb.14:
Ltmp230:
	.loc	62 1407 25 is_stmt 1    ## /Applications/Xcode.app/Contents/Developer/Toolchains/XcodeDefault.xctoolchain/usr/include/c++/v1/locale:1407:25
	movq	$0, -32(%rbp)
	.loc	62 1408 20              ## /Applications/Xcode.app/Contents/Developer/Toolchains/XcodeDefault.xctoolchain/usr/include/c++/v1/locale:1408:20
	movq	-32(%rbp), %rax
	movq	%rax, -56(%rbp)
	movl	$1, -60(%rbp)
	.loc	62 1408 13 is_stmt 0    ## /Applications/Xcode.app/Contents/Developer/Toolchains/XcodeDefault.xctoolchain/usr/include/c++/v1/locale:1408:13
	jmp	LBB41_16
Ltmp231:
LBB41_15:
	.loc	62 1410 5 is_stmt 1     ## /Applications/Xcode.app/Contents/Developer/Toolchains/XcodeDefault.xctoolchain/usr/include/c++/v1/locale:1410:5
	movl	$0, -60(%rbp)
LBB41_16:
	.loc	62 0 5 is_stmt 0        ## /Applications/Xcode.app/Contents/Developer/Toolchains/XcodeDefault.xctoolchain/usr/include/c++/v1/locale:0:5
	leaq	-400(%rbp), %rdi
	.loc	62 1410 5               ## /Applications/Xcode.app/Contents/Developer/Toolchains/XcodeDefault.xctoolchain/usr/include/c++/v1/locale:1410:5
	callq	__ZNSt3__112basic_stringIcNS_11char_traitsIcEENS_9allocatorIcEEED1Ev
	movl	-60(%rbp), %eax
	testl	%eax, %eax
	je	LBB41_18
	jmp	LBB41_17
LBB41_17:
	.loc	62 0 5                  ## /Applications/Xcode.app/Contents/Developer/Toolchains/XcodeDefault.xctoolchain/usr/include/c++/v1/locale:0:5
	subl	$1, %eax
	je	LBB41_24
	jmp	LBB41_25
LBB41_18:
Ltmp232:
	.loc	62 1410 5               ## /Applications/Xcode.app/Contents/Developer/Toolchains/XcodeDefault.xctoolchain/usr/include/c++/v1/locale:1410:5
	jmp	LBB41_19
Ltmp233:
LBB41_19:
	.loc	62 1411 12 is_stmt 1    ## /Applications/Xcode.app/Contents/Developer/Toolchains/XcodeDefault.xctoolchain/usr/include/c++/v1/locale:1411:12
	movq	-104(%rbp), %rax
	.loc	62 1411 19 is_stmt 0    ## /Applications/Xcode.app/Contents/Developer/Toolchains/XcodeDefault.xctoolchain/usr/include/c++/v1/locale:1411:19
	movq	-72(%rbp), %rcx
	.loc	62 1411 17              ## /Applications/Xcode.app/Contents/Developer/Toolchains/XcodeDefault.xctoolchain/usr/include/c++/v1/locale:1411:17
	subq	%rcx, %rax
	.loc	62 1411 10              ## /Applications/Xcode.app/Contents/Developer/Toolchains/XcodeDefault.xctoolchain/usr/include/c++/v1/locale:1411:10
	movq	%rax, -48(%rbp)
Ltmp234:
	.loc	62 1412 14 is_stmt 1    ## /Applications/Xcode.app/Contents/Developer/Toolchains/XcodeDefault.xctoolchain/usr/include/c++/v1/locale:1412:14
	cmpq	$0, -48(%rbp)
Ltmp235:
	.loc	62 1412 9 is_stmt 0     ## /Applications/Xcode.app/Contents/Developer/Toolchains/XcodeDefault.xctoolchain/usr/include/c++/v1/locale:1412:9
	jle	LBB41_23
## %bb.20:
Ltmp236:
	.loc	62 1414 17 is_stmt 1    ## /Applications/Xcode.app/Contents/Developer/Toolchains/XcodeDefault.xctoolchain/usr/include/c++/v1/locale:1414:17
	movq	-32(%rbp), %rax
	.loc	62 1414 32 is_stmt 0    ## /Applications/Xcode.app/Contents/Developer/Toolchains/XcodeDefault.xctoolchain/usr/include/c++/v1/locale:1414:32
	movq	-72(%rbp), %rcx
	.loc	62 1414 38              ## /Applications/Xcode.app/Contents/Developer/Toolchains/XcodeDefault.xctoolchain/usr/include/c++/v1/locale:1414:38
	movq	-48(%rbp), %rdx
	movq	%rax, -152(%rbp)
	movq	%rcx, -144(%rbp)
	movq	%rdx, -136(%rbp)
	movq	-152(%rbp), %rdi
Ltmp237:
	.loc	16 227 14 is_stmt 1     ## /Applications/Xcode.app/Contents/Developer/Toolchains/XcodeDefault.xctoolchain/usr/include/c++/v1/streambuf:227:14
	movq	(%rdi), %rax
	movq	96(%rax), %rax
	.loc	16 227 21 is_stmt 0     ## /Applications/Xcode.app/Contents/Developer/Toolchains/XcodeDefault.xctoolchain/usr/include/c++/v1/streambuf:227:21
	movq	-144(%rbp), %rsi
	.loc	16 227 26               ## /Applications/Xcode.app/Contents/Developer/Toolchains/XcodeDefault.xctoolchain/usr/include/c++/v1/streambuf:227:26
	movq	-136(%rbp), %rdx
	.loc	16 227 14               ## /Applications/Xcode.app/Contents/Developer/Toolchains/XcodeDefault.xctoolchain/usr/include/c++/v1/streambuf:227:14
	callq	*%rax
Ltmp238:
	.loc	62 1414 44 is_stmt 1    ## /Applications/Xcode.app/Contents/Developer/Toolchains/XcodeDefault.xctoolchain/usr/include/c++/v1/locale:1414:44
	cmpq	-48(%rbp), %rax
Ltmp239:
	.loc	62 1414 13 is_stmt 0    ## /Applications/Xcode.app/Contents/Developer/Toolchains/XcodeDefault.xctoolchain/usr/include/c++/v1/locale:1414:13
	je	LBB41_22
## %bb.21:
Ltmp240:
	.loc	62 1416 25 is_stmt 1    ## /Applications/Xcode.app/Contents/Developer/Toolchains/XcodeDefault.xctoolchain/usr/include/c++/v1/locale:1416:25
	movq	$0, -32(%rbp)
	.loc	62 1417 20              ## /Applications/Xcode.app/Contents/Developer/Toolchains/XcodeDefault.xctoolchain/usr/include/c++/v1/locale:1417:20
	movq	-32(%rbp), %rax
	movq	%rax, -56(%rbp)
	.loc	62 1417 13 is_stmt 0    ## /Applications/Xcode.app/Contents/Developer/Toolchains/XcodeDefault.xctoolchain/usr/include/c++/v1/locale:1417:13
	jmp	LBB41_24
Ltmp241:
LBB41_22:
	.loc	62 1419 5 is_stmt 1     ## /Applications/Xcode.app/Contents/Developer/Toolchains/XcodeDefault.xctoolchain/usr/include/c++/v1/locale:1419:5
	jmp	LBB41_23
Ltmp242:
LBB41_23:
	.loc	62 1420 5               ## /Applications/Xcode.app/Contents/Developer/Toolchains/XcodeDefault.xctoolchain/usr/include/c++/v1/locale:1420:5
	movq	-96(%rbp), %rax
	movq	%rax, -128(%rbp)
	movq	$0, -120(%rbp)
	movq	-128(%rbp), %rax
Ltmp243:
	.loc	1 511 22                ## /Applications/Xcode.app/Contents/Developer/Toolchains/XcodeDefault.xctoolchain/usr/include/c++/v1/ios:511:22
	movq	24(%rax), %rcx
	.loc	1 511 16 is_stmt 0      ## /Applications/Xcode.app/Contents/Developer/Toolchains/XcodeDefault.xctoolchain/usr/include/c++/v1/ios:511:16
	movq	%rcx, -408(%rbp)
	.loc	1 512 16 is_stmt 1      ## /Applications/Xcode.app/Contents/Developer/Toolchains/XcodeDefault.xctoolchain/usr/include/c++/v1/ios:512:16
	movq	-120(%rbp), %rcx
	.loc	1 512 14 is_stmt 0      ## /Applications/Xcode.app/Contents/Developer/Toolchains/XcodeDefault.xctoolchain/usr/include/c++/v1/ios:512:14
	movq	%rcx, 24(%rax)
Ltmp244:
	.loc	62 1421 12 is_stmt 1    ## /Applications/Xcode.app/Contents/Developer/Toolchains/XcodeDefault.xctoolchain/usr/include/c++/v1/locale:1421:12
	movq	-32(%rbp), %rax
	movq	%rax, -56(%rbp)
LBB41_24:
	.loc	62 1422 1               ## /Applications/Xcode.app/Contents/Developer/Toolchains/XcodeDefault.xctoolchain/usr/include/c++/v1/locale:1422:1
	movq	-56(%rbp), %rax
	addq	$400, %rsp              ## imm = 0x190
	popq	%rbx
	popq	%r14
	popq	%rbp
	retq
Ltmp245:
LBB41_25:
	.loc	62 0 1 is_stmt 0        ## /Applications/Xcode.app/Contents/Developer/Toolchains/XcodeDefault.xctoolchain/usr/include/c++/v1/locale:0:1
	ud2
Lfunc_end41:
	.cfi_endproc
                                        ## -- End function
	.private_extern	__ZNSt3__111char_traitsIcE11eq_int_typeEii ## -- Begin function _ZNSt3__111char_traitsIcE11eq_int_typeEii
	.globl	__ZNSt3__111char_traitsIcE11eq_int_typeEii
	.weak_definition	__ZNSt3__111char_traitsIcE11eq_int_typeEii
	.p2align	4, 0x90
__ZNSt3__111char_traitsIcE11eq_int_typeEii: ## @_ZNSt3__111char_traitsIcE11eq_int_typeEii
Lfunc_begin42:
	.loc	10 237 0 is_stmt 1      ## /Applications/Xcode.app/Contents/Developer/Toolchains/XcodeDefault.xctoolchain/usr/include/c++/v1/__string:237:0
	.cfi_startproc
## %bb.0:
	pushq	%rbp
	.cfi_def_cfa_offset 16
	.cfi_offset %rbp, -16
	movq	%rsp, %rbp
	.cfi_def_cfa_register %rbp
	movl	%edi, -8(%rbp)
	movl	%esi, -4(%rbp)
Ltmp246:
	.loc	10 237 17 prologue_end  ## /Applications/Xcode.app/Contents/Developer/Toolchains/XcodeDefault.xctoolchain/usr/include/c++/v1/__string:237:17
	movl	-8(%rbp), %eax
	.loc	10 237 22 is_stmt 0     ## /Applications/Xcode.app/Contents/Developer/Toolchains/XcodeDefault.xctoolchain/usr/include/c++/v1/__string:237:22
	cmpl	-4(%rbp), %eax
	sete	%al
	.loc	10 237 10               ## /Applications/Xcode.app/Contents/Developer/Toolchains/XcodeDefault.xctoolchain/usr/include/c++/v1/__string:237:10
	andb	$1, %al
	movzbl	%al, %eax
	popq	%rbp
	retq
Ltmp247:
Lfunc_end42:
	.cfi_endproc
                                        ## -- End function
	.private_extern	__ZNSt3__111char_traitsIcE3eofEv ## -- Begin function _ZNSt3__111char_traitsIcE3eofEv
	.globl	__ZNSt3__111char_traitsIcE3eofEv
	.weak_definition	__ZNSt3__111char_traitsIcE3eofEv
	.p2align	4, 0x90
__ZNSt3__111char_traitsIcE3eofEv:       ## @_ZNSt3__111char_traitsIcE3eofEv
Lfunc_begin43:
	.loc	10 239 0 is_stmt 1      ## /Applications/Xcode.app/Contents/Developer/Toolchains/XcodeDefault.xctoolchain/usr/include/c++/v1/__string:239:0
	.cfi_startproc
## %bb.0:
	pushq	%rbp
	.cfi_def_cfa_offset 16
	.cfi_offset %rbp, -16
	movq	%rsp, %rbp
	.cfi_def_cfa_register %rbp
Ltmp248:
	.loc	10 239 10 prologue_end  ## /Applications/Xcode.app/Contents/Developer/Toolchains/XcodeDefault.xctoolchain/usr/include/c++/v1/__string:239:10
	movl	$4294967295, %eax       ## imm = 0xFFFFFFFF
	popq	%rbp
	retq
Ltmp249:
Lfunc_end43:
	.cfi_endproc
                                        ## -- End function
	.private_extern	__ZN14altered_carbon2js11ACLexNumberD2Ev ## -- Begin function _ZN14altered_carbon2js11ACLexNumberD2Ev
	.globl	__ZN14altered_carbon2js11ACLexNumberD2Ev
	.weak_def_can_be_hidden	__ZN14altered_carbon2js11ACLexNumberD2Ev
	.p2align	4, 0x90
__ZN14altered_carbon2js11ACLexNumberD2Ev: ## @_ZN14altered_carbon2js11ACLexNumberD2Ev
Lfunc_begin44:
	.loc	61 27 0                 ## ../ac_lex_datatypes.h:27:0
	.cfi_startproc
## %bb.0:
	pushq	%rbp
	.cfi_def_cfa_offset 16
	.cfi_offset %rbp, -16
	movq	%rsp, %rbp
	.cfi_def_cfa_register %rbp
	movq	__ZTVN14altered_carbon2js11ACLexNumberE@GOTPCREL(%rip), %rax
	addq	$16, %rax
	movq	%rdi, -8(%rbp)
	movq	-8(%rbp), %rcx
Ltmp250:
	.loc	61 27 26 prologue_end   ## ../ac_lex_datatypes.h:27:26
	movq	%rax, (%rcx)
	.loc	61 27 27 is_stmt 0      ## ../ac_lex_datatypes.h:27:27
	popq	%rbp
	retq
Ltmp251:
Lfunc_end44:
	.cfi_endproc
                                        ## -- End function
	.private_extern	__ZN14altered_carbon2js10ACLexRegexD2Ev ## -- Begin function _ZN14altered_carbon2js10ACLexRegexD2Ev
	.globl	__ZN14altered_carbon2js10ACLexRegexD2Ev
	.weak_def_can_be_hidden	__ZN14altered_carbon2js10ACLexRegexD2Ev
	.p2align	4, 0x90
__ZN14altered_carbon2js10ACLexRegexD2Ev: ## @_ZN14altered_carbon2js10ACLexRegexD2Ev
Lfunc_begin45:
	.loc	61 76 0 is_stmt 1       ## ../ac_lex_datatypes.h:76:0
	.cfi_startproc
## %bb.0:
	pushq	%rbp
	.cfi_def_cfa_offset 16
	.cfi_offset %rbp, -16
	movq	%rsp, %rbp
	.cfi_def_cfa_register %rbp
	subq	$16, %rsp
	movq	__ZTVN14altered_carbon2js10ACLexRegexE@GOTPCREL(%rip), %rax
	addq	$16, %rax
	movq	%rdi, -8(%rbp)
	movq	-8(%rbp), %rdi
Ltmp252:
	.loc	61 76 25 prologue_end   ## ../ac_lex_datatypes.h:76:25
	movq	%rax, (%rdi)
Ltmp253:
	.loc	61 76 26 is_stmt 0      ## ../ac_lex_datatypes.h:76:26
	addq	$8, %rdi
	callq	__ZNSt3__112basic_stringIcNS_11char_traitsIcEENS_9allocatorIcEEED1Ev
Ltmp254:
	.loc	61 76 26                ## ../ac_lex_datatypes.h:76:26
	addq	$16, %rsp
	popq	%rbp
	retq
Ltmp255:
Lfunc_end45:
	.cfi_endproc
                                        ## -- End function
	.section	__DATA,__const
	.globl	__ZTVN14altered_carbon2js11ACLexNumberE ## @_ZTVN14altered_carbon2js11ACLexNumberE
	.weak_def_can_be_hidden	__ZTVN14altered_carbon2js11ACLexNumberE
	.p2align	3
__ZTVN14altered_carbon2js11ACLexNumberE:
	.quad	0
	.quad	__ZTIN14altered_carbon2js11ACLexNumberE
	.quad	__ZN14altered_carbon2js11ACLexNumberD1Ev
	.quad	__ZN14altered_carbon2js11ACLexNumberD0Ev

	.section	__TEXT,__cstring,cstring_literals
L_.str:                                 ## @.str
	.asciz	"(I)"

L_.str.1:                               ## @.str.1
	.asciz	"(R)"

	.section	__DATA,__const
	.globl	__ZTVN14altered_carbon2js10ACLexRegexE ## @_ZTVN14altered_carbon2js10ACLexRegexE
	.weak_def_can_be_hidden	__ZTVN14altered_carbon2js10ACLexRegexE
	.p2align	3
__ZTVN14altered_carbon2js10ACLexRegexE:
	.quad	0
	.quad	__ZTIN14altered_carbon2js10ACLexRegexE
	.quad	__ZN14altered_carbon2js10ACLexRegexD1Ev
	.quad	__ZN14altered_carbon2js10ACLexRegexD0Ev

	.section	__TEXT,__cstring,cstring_literals
L_.str.2:                               ## @.str.2
	.space	1

L_.str.3:                               ## @.str.3
	.asciz	"/"

L_.str.4:                               ## @.str.4
	.asciz	"i"

L_.str.5:                               ## @.str.5
	.asciz	"g"

L_.str.6:                               ## @.str.6
	.asciz	"m"

	.section	__TEXT,__const
	.globl	__ZTSN14altered_carbon2js11ACLexNumberE ## @_ZTSN14altered_carbon2js11ACLexNumberE
	.weak_definition	__ZTSN14altered_carbon2js11ACLexNumberE
	.p2align	4
__ZTSN14altered_carbon2js11ACLexNumberE:
	.asciz	"N14altered_carbon2js11ACLexNumberE"

	.section	__DATA,__const
	.globl	__ZTIN14altered_carbon2js11ACLexNumberE ## @_ZTIN14altered_carbon2js11ACLexNumberE
	.weak_definition	__ZTIN14altered_carbon2js11ACLexNumberE
	.p2align	3
__ZTIN14altered_carbon2js11ACLexNumberE:
	.quad	__ZTVN10__cxxabiv117__class_type_infoE+16
	.quad	__ZTSN14altered_carbon2js11ACLexNumberE

	.section	__TEXT,__const
	.globl	__ZTSN14altered_carbon2js10ACLexRegexE ## @_ZTSN14altered_carbon2js10ACLexRegexE
	.weak_definition	__ZTSN14altered_carbon2js10ACLexRegexE
	.p2align	4
__ZTSN14altered_carbon2js10ACLexRegexE:
	.asciz	"N14altered_carbon2js10ACLexRegexE"

	.section	__DATA,__const
	.globl	__ZTIN14altered_carbon2js10ACLexRegexE ## @_ZTIN14altered_carbon2js10ACLexRegexE
	.weak_definition	__ZTIN14altered_carbon2js10ACLexRegexE
	.p2align	3
__ZTIN14altered_carbon2js10ACLexRegexE:
	.quad	__ZTVN10__cxxabiv117__class_type_infoE+16
	.quad	__ZTSN14altered_carbon2js10ACLexRegexE
