; ModuleID = 'temp.bc'
source_filename = "lexnumber1.cc"
target datalayout = "e-m:o-i64:64-f80:128-n8:16:32:64-S128"
target triple = "x86_64-apple-macosx10.13.0"

%"class.std::__1::basic_ostream" = type { i32 (...)**, %"class.std::__1::basic_ios.base" }
%"class.std::__1::basic_ios.base" = type <{ %"class.std::__1::ios_base", %"class.std::__1::basic_ostream"*, i32 }>
%"class.std::__1::ios_base" = type { i32 (...)**, i32, i64, i64, i32, i32, i8*, i8*, void (i32, %"class.std::__1::ios_base"*, i32)**, i32*, i64, i64, i64*, i64, i64, i8**, i64, i64 }
%"class.std::__1::locale::id" = type <{ %"struct.std::__1::once_flag", i32, [4 x i8] }>
%"struct.std::__1::once_flag" = type { i64 }
%"class.altered_carbon::js::ACLexNumber" = type { i32 (...)**, i8, %union.anon }
%union.anon = type { double }
%"class.std::__1::ctype" = type <{ %"class.std::__1::locale::facet", i32*, i8, [7 x i8] }>
%"class.std::__1::locale::facet" = type { %"class.std::__1::__shared_count" }
%"class.std::__1::__shared_count" = type { i32 (...)**, i64 }
%"class.std::__1::locale" = type { %"class.std::__1::locale::__imp"* }
%"class.std::__1::locale::__imp" = type opaque
%"class.std::__1::basic_ios" = type <{ %"class.std::__1::ios_base", %"class.std::__1::basic_ostream"*, i32, [4 x i8] }>
%"class.std::__1::ostreambuf_iterator" = type { %"class.std::__1::basic_streambuf"* }
%"class.std::__1::basic_streambuf" = type { i32 (...)**, %"class.std::__1::locale", i8*, i8*, i8*, i8*, i8*, i8* }
%"class.std::__1::basic_ostream<char, std::__1::char_traits<char> >::sentry" = type { i8, %"class.std::__1::basic_ostream"* }
%"struct.std::__1::iterator" = type { i8 }
%"struct.std::__1::__compressed_pair_elem" = type { %"struct.std::__1::basic_string<char, std::__1::char_traits<char>, std::__1::allocator<char> >::__rep" }
%"struct.std::__1::basic_string<char, std::__1::char_traits<char>, std::__1::allocator<char> >::__rep" = type { %union.anon.0 }
%union.anon.0 = type { %"struct.std::__1::basic_string<char, std::__1::char_traits<char>, std::__1::allocator<char> >::__long" }
%"struct.std::__1::basic_string<char, std::__1::char_traits<char>, std::__1::allocator<char> >::__long" = type { i64, i64, i8* }
%"class.std::__1::__compressed_pair" = type { %"struct.std::__1::__compressed_pair_elem" }
%"class.std::__1::basic_string" = type { %"class.std::__1::__compressed_pair" }
%"class.std::__1::allocator" = type { i8 }
%"struct.std::__1::__compressed_pair_elem.2" = type { i8 }
%"class.std::__1::__basic_string_common" = type { i8 }
%"struct.std::__1::basic_string<char, std::__1::char_traits<char>, std::__1::allocator<char> >::__short" = type { %union.anon.1, [23 x i8] }
%union.anon.1 = type { i8 }

@_ZNSt3__14coutE = external global %"class.std::__1::basic_ostream", align 8
@.str = private unnamed_addr constant [10 x i8] c"integer? \00", align 1
@.str.1 = private unnamed_addr constant [2 x i8] c"\0A\00", align 1
@_ZNSt3__15ctypeIcE2idE = external global %"class.std::__1::locale::id", align 8

; Function Attrs: noinline norecurse nounwind optnone ssp uwtable
define i32 @main(i32, i8**) #0 !dbg !2517 {
  %3 = alloca i32, align 4
  %4 = alloca i32, align 4
  %5 = alloca i8**, align 8
  %6 = alloca %"class.altered_carbon::js::ACLexNumber"*, align 8
  store i32 0, i32* %3, align 4
  store i32 %0, i32* %4, align 4
  call void @llvm.dbg.declare(metadata i32* %4, metadata !2520, metadata !DIExpression()), !dbg !2521
  store i8** %1, i8*** %5, align 8
  call void @llvm.dbg.declare(metadata i8*** %5, metadata !2522, metadata !DIExpression()), !dbg !2523
  call void @llvm.dbg.declare(metadata %"class.altered_carbon::js::ACLexNumber"** %6, metadata !2524, metadata !DIExpression()), !dbg !2586
  %7 = call i8* @_Znwm(i64 24) #7, !dbg !2587
  %8 = bitcast i8* %7 to %"class.altered_carbon::js::ACLexNumber"*, !dbg !2587
  call void @_ZN14altered_carbon2js11ACLexNumberC1Ex(%"class.altered_carbon::js::ACLexNumber"* %8, i64 1), !dbg !2588
  store %"class.altered_carbon::js::ACLexNumber"* %8, %"class.altered_carbon::js::ACLexNumber"** %6, align 8, !dbg !2586
  %9 = call dereferenceable(160) %"class.std::__1::basic_ostream"* @_ZNSt3__1lsINS_11char_traitsIcEEEERNS_13basic_ostreamIcT_EES6_PKc(%"class.std::__1::basic_ostream"* dereferenceable(160) @_ZNSt3__14coutE, i8* getelementptr inbounds ([10 x i8], [10 x i8]* @.str, i32 0, i32 0)), !dbg !2589
  %10 = load %"class.altered_carbon::js::ACLexNumber"*, %"class.altered_carbon::js::ACLexNumber"** %6, align 8, !dbg !2590
  %11 = call zeroext i1 @_ZNK14altered_carbon2js11ACLexNumber9isIntegerEv(%"class.altered_carbon::js::ACLexNumber"* %10), !dbg !2591
  %12 = call dereferenceable(160) %"class.std::__1::basic_ostream"* @_ZNSt3__113basic_ostreamIcNS_11char_traitsIcEEElsEb(%"class.std::__1::basic_ostream"* %9, i1 zeroext %11), !dbg !2592
  %13 = call dereferenceable(160) %"class.std::__1::basic_ostream"* @_ZNSt3__1lsINS_11char_traitsIcEEEERNS_13basic_ostreamIcT_EES6_PKc(%"class.std::__1::basic_ostream"* dereferenceable(160) %12, i8* getelementptr inbounds ([2 x i8], [2 x i8]* @.str.1, i32 0, i32 0)), !dbg !2593
  %14 = load %"class.altered_carbon::js::ACLexNumber"*, %"class.altered_carbon::js::ACLexNumber"** %6, align 8, !dbg !2594
  %15 = icmp eq %"class.altered_carbon::js::ACLexNumber"* %14, null, !dbg !2595
  br i1 %15, label %21, label %16, !dbg !2595

; <label>:16:                                     ; preds = %2
  %17 = bitcast %"class.altered_carbon::js::ACLexNumber"* %14 to void (%"class.altered_carbon::js::ACLexNumber"*)***, !dbg !2595
  %18 = load void (%"class.altered_carbon::js::ACLexNumber"*)**, void (%"class.altered_carbon::js::ACLexNumber"*)*** %17, align 8, !dbg !2595
  %19 = getelementptr inbounds void (%"class.altered_carbon::js::ACLexNumber"*)*, void (%"class.altered_carbon::js::ACLexNumber"*)** %18, i64 1, !dbg !2595
  %20 = load void (%"class.altered_carbon::js::ACLexNumber"*)*, void (%"class.altered_carbon::js::ACLexNumber"*)** %19, align 8, !dbg !2595
  call void %20(%"class.altered_carbon::js::ACLexNumber"* %14) #8, !dbg !2595
  br label %21, !dbg !2595

; <label>:21:                                     ; preds = %16, %2
  ret i32 0, !dbg !2596
}

; Function Attrs: nounwind readnone speculatable
declare void @llvm.dbg.declare(metadata, metadata, metadata) #1

; Function Attrs: nobuiltin
declare noalias i8* @_Znwm(i64) #2

declare void @_ZN14altered_carbon2js11ACLexNumberC1Ex(%"class.altered_carbon::js::ACLexNumber"*, i64) unnamed_addr #3

; Function Attrs: noinline nounwind optnone ssp uwtable
define linkonce_odr dereferenceable(160) %"class.std::__1::basic_ostream"* @_ZNSt3__1lsINS_11char_traitsIcEEEERNS_13basic_ostreamIcT_EES6_PKc(%"class.std::__1::basic_ostream"* dereferenceable(160), i8*) #4 !dbg !2597 {
  %3 = alloca %"class.std::__1::basic_ostream"*, align 8
  %4 = alloca i8*, align 8
  store %"class.std::__1::basic_ostream"* %0, %"class.std::__1::basic_ostream"** %3, align 8
  call void @llvm.dbg.declare(metadata %"class.std::__1::basic_ostream"** %3, metadata !2601, metadata !DIExpression()), !dbg !2602
  store i8* %1, i8** %4, align 8
  call void @llvm.dbg.declare(metadata i8** %4, metadata !2603, metadata !DIExpression()), !dbg !2604
  %5 = load %"class.std::__1::basic_ostream"*, %"class.std::__1::basic_ostream"** %3, align 8, !dbg !2605
  %6 = load i8*, i8** %4, align 8, !dbg !2606
  %7 = load i8*, i8** %4, align 8, !dbg !2607
  %8 = call i64 @_ZNSt3__111char_traitsIcE6lengthEPKc(i8* %7) #8, !dbg !2608
  %9 = call dereferenceable(160) %"class.std::__1::basic_ostream"* @_ZNSt3__124__put_character_sequenceIcNS_11char_traitsIcEEEERNS_13basic_ostreamIT_T0_EES7_PKS4_m(%"class.std::__1::basic_ostream"* dereferenceable(160) %5, i8* %6, i64 %8), !dbg !2609
  ret %"class.std::__1::basic_ostream"* %9, !dbg !2610
}

declare dereferenceable(160) %"class.std::__1::basic_ostream"* @_ZNSt3__113basic_ostreamIcNS_11char_traitsIcEEElsEb(%"class.std::__1::basic_ostream"*, i1 zeroext) #3

; Function Attrs: noinline nounwind optnone ssp uwtable
define linkonce_odr hidden zeroext i1 @_ZNK14altered_carbon2js11ACLexNumber9isIntegerEv(%"class.altered_carbon::js::ACLexNumber"*) #4 align 2 !dbg !2611 {
  %2 = alloca %"class.altered_carbon::js::ACLexNumber"*, align 8
  store %"class.altered_carbon::js::ACLexNumber"* %0, %"class.altered_carbon::js::ACLexNumber"** %2, align 8
  call void @llvm.dbg.declare(metadata %"class.altered_carbon::js::ACLexNumber"** %2, metadata !2612, metadata !DIExpression()), !dbg !2614
  %3 = load %"class.altered_carbon::js::ACLexNumber"*, %"class.altered_carbon::js::ACLexNumber"** %2, align 8
  %4 = getelementptr inbounds %"class.altered_carbon::js::ACLexNumber", %"class.altered_carbon::js::ACLexNumber"* %3, i32 0, i32 1, !dbg !2615
  %5 = load i8, i8* %4, align 8, !dbg !2615
  %6 = trunc i8 %5 to i1, !dbg !2615
  ret i1 %6, !dbg !2616
}

; Function Attrs: noinline nounwind optnone ssp uwtable
define linkonce_odr dereferenceable(160) %"class.std::__1::basic_ostream"* @_ZNSt3__124__put_character_sequenceIcNS_11char_traitsIcEEEERNS_13basic_ostreamIT_T0_EES7_PKS4_m(%"class.std::__1::basic_ostream"* dereferenceable(160), i8*, i64) #4 !dbg !1242 {
  %4 = alloca %"class.std::__1::ctype"*, align 8
  call void @llvm.dbg.declare(metadata %"class.std::__1::ctype"** %4, metadata !2617, metadata !DIExpression()), !dbg !2708
  %5 = alloca i8, align 1
  call void @llvm.dbg.declare(metadata i8* %5, metadata !2718, metadata !DIExpression()), !dbg !2719
  %6 = alloca %"class.std::__1::locale"*, align 8
  call void @llvm.dbg.declare(metadata %"class.std::__1::locale"** %6, metadata !2720, metadata !DIExpression()), !dbg !2727
  %7 = alloca %"class.std::__1::basic_ios"*, align 8
  call void @llvm.dbg.declare(metadata %"class.std::__1::basic_ios"** %7, metadata !2729, metadata !DIExpression()), !dbg !2731
  %8 = alloca i8, align 1
  call void @llvm.dbg.declare(metadata i8* %8, metadata !2732, metadata !DIExpression()), !dbg !2733
  %9 = alloca %"class.std::__1::locale", align 8
  %10 = alloca %"class.std::__1::basic_ios"*, align 8
  call void @llvm.dbg.declare(metadata %"class.std::__1::basic_ios"** %10, metadata !2734, metadata !DIExpression()), !dbg !2735
  %11 = alloca %"class.std::__1::ios_base"*, align 8
  call void @llvm.dbg.declare(metadata %"class.std::__1::ios_base"** %11, metadata !2736, metadata !DIExpression()), !dbg !2739
  %12 = alloca %"class.std::__1::ostreambuf_iterator"*, align 8
  call void @llvm.dbg.declare(metadata %"class.std::__1::ostreambuf_iterator"** %12, metadata !2741, metadata !DIExpression()), !dbg !2744
  %13 = alloca %"class.std::__1::ios_base"*, align 8
  call void @llvm.dbg.declare(metadata %"class.std::__1::ios_base"** %13, metadata !2746, metadata !DIExpression()), !dbg !2748
  %14 = alloca %"class.std::__1::basic_ios"*, align 8
  call void @llvm.dbg.declare(metadata %"class.std::__1::basic_ios"** %14, metadata !2756, metadata !DIExpression()), !dbg !2757
  %15 = alloca %"class.std::__1::ostreambuf_iterator"*, align 8
  call void @llvm.dbg.declare(metadata %"class.std::__1::ostreambuf_iterator"** %15, metadata !2758, metadata !DIExpression()), !dbg !2760
  %16 = alloca %"class.std::__1::basic_ostream"*, align 8
  call void @llvm.dbg.declare(metadata %"class.std::__1::basic_ostream"** %16, metadata !2761, metadata !DIExpression()), !dbg !2762
  %17 = alloca %"class.std::__1::ostreambuf_iterator"*, align 8
  call void @llvm.dbg.declare(metadata %"class.std::__1::ostreambuf_iterator"** %17, metadata !2763, metadata !DIExpression()), !dbg !2764
  %18 = alloca %"class.std::__1::basic_ostream"*, align 8
  call void @llvm.dbg.declare(metadata %"class.std::__1::basic_ostream"** %18, metadata !2765, metadata !DIExpression()), !dbg !2766
  %19 = alloca %"class.std::__1::ios_base"*, align 8
  call void @llvm.dbg.declare(metadata %"class.std::__1::ios_base"** %19, metadata !2767, metadata !DIExpression()), !dbg !2770
  %20 = alloca i32, align 4
  call void @llvm.dbg.declare(metadata i32* %20, metadata !2774, metadata !DIExpression()), !dbg !2775
  %21 = alloca %"class.std::__1::basic_ios"*, align 8
  call void @llvm.dbg.declare(metadata %"class.std::__1::basic_ios"** %21, metadata !2776, metadata !DIExpression()), !dbg !2778
  %22 = alloca i32, align 4
  call void @llvm.dbg.declare(metadata i32* %22, metadata !2779, metadata !DIExpression()), !dbg !2780
  %23 = alloca %"class.std::__1::basic_ostream<char, std::__1::char_traits<char> >::sentry"*, align 8
  call void @llvm.dbg.declare(metadata %"class.std::__1::basic_ostream<char, std::__1::char_traits<char> >::sentry"** %23, metadata !2781, metadata !DIExpression()), !dbg !2808
  %24 = alloca %"class.std::__1::basic_ostream"*, align 8
  %25 = alloca i8*, align 8
  %26 = alloca i64, align 8
  %27 = alloca %"class.std::__1::basic_ostream<char, std::__1::char_traits<char> >::sentry", align 8
  %28 = alloca %"class.std::__1::ostreambuf_iterator", align 8
  %29 = alloca %"class.std::__1::ostreambuf_iterator", align 8
  store %"class.std::__1::basic_ostream"* %0, %"class.std::__1::basic_ostream"** %24, align 8
  call void @llvm.dbg.declare(metadata %"class.std::__1::basic_ostream"** %24, metadata !2810, metadata !DIExpression()), !dbg !2811
  store i8* %1, i8** %25, align 8
  call void @llvm.dbg.declare(metadata i8** %25, metadata !2812, metadata !DIExpression()), !dbg !2813
  store i64 %2, i64* %26, align 8
  call void @llvm.dbg.declare(metadata i64* %26, metadata !2814, metadata !DIExpression()), !dbg !2815
  call void @llvm.dbg.declare(metadata %"class.std::__1::basic_ostream<char, std::__1::char_traits<char> >::sentry"* %27, metadata !2816, metadata !DIExpression()), !dbg !2817
  %30 = load %"class.std::__1::basic_ostream"*, %"class.std::__1::basic_ostream"** %24, align 8, !dbg !2818
  call void @_ZNSt3__113basic_ostreamIcNS_11char_traitsIcEEE6sentryC1ERS3_(%"class.std::__1::basic_ostream<char, std::__1::char_traits<char> >::sentry"* %27, %"class.std::__1::basic_ostream"* dereferenceable(160) %30), !dbg !2817
  store %"class.std::__1::basic_ostream<char, std::__1::char_traits<char> >::sentry"* %27, %"class.std::__1::basic_ostream<char, std::__1::char_traits<char> >::sentry"** %23, align 8
  %31 = load %"class.std::__1::basic_ostream<char, std::__1::char_traits<char> >::sentry"*, %"class.std::__1::basic_ostream<char, std::__1::char_traits<char> >::sentry"** %23, align 8
  %32 = getelementptr inbounds %"class.std::__1::basic_ostream<char, std::__1::char_traits<char> >::sentry", %"class.std::__1::basic_ostream<char, std::__1::char_traits<char> >::sentry"* %31, i32 0, i32 0, !dbg !2819
  %33 = load i8, i8* %32, align 8, !dbg !2819
  %34 = trunc i8 %33 to i1, !dbg !2819
  br i1 %34, label %35, label %153, !dbg !2820

; <label>:35:                                     ; preds = %3
  %36 = load %"class.std::__1::basic_ostream"*, %"class.std::__1::basic_ostream"** %24, align 8, !dbg !2821
  store %"class.std::__1::ostreambuf_iterator"* %29, %"class.std::__1::ostreambuf_iterator"** %17, align 8
  store %"class.std::__1::basic_ostream"* %36, %"class.std::__1::basic_ostream"** %18, align 8
  %37 = load %"class.std::__1::ostreambuf_iterator"*, %"class.std::__1::ostreambuf_iterator"** %17, align 8
  %38 = load %"class.std::__1::basic_ostream"*, %"class.std::__1::basic_ostream"** %18, align 8, !dbg !2822
  store %"class.std::__1::ostreambuf_iterator"* %37, %"class.std::__1::ostreambuf_iterator"** %15, align 8
  store %"class.std::__1::basic_ostream"* %38, %"class.std::__1::basic_ostream"** %16, align 8
  %39 = load %"class.std::__1::ostreambuf_iterator"*, %"class.std::__1::ostreambuf_iterator"** %15, align 8
  %40 = bitcast %"class.std::__1::ostreambuf_iterator"* %39 to %"struct.std::__1::iterator"*, !dbg !2823
  %41 = getelementptr inbounds %"class.std::__1::ostreambuf_iterator", %"class.std::__1::ostreambuf_iterator"* %39, i32 0, i32 0, !dbg !2824
  %42 = load %"class.std::__1::basic_ostream"*, %"class.std::__1::basic_ostream"** %16, align 8, !dbg !2825
  %43 = bitcast %"class.std::__1::basic_ostream"* %42 to i8**, !dbg !2825
  %44 = load i8*, i8** %43, align 8, !dbg !2825
  %45 = getelementptr i8, i8* %44, i64 -24, !dbg !2825
  %46 = bitcast i8* %45 to i64*, !dbg !2825
  %47 = load i64, i64* %46, align 8, !dbg !2825
  %48 = bitcast %"class.std::__1::basic_ostream"* %42 to i8*, !dbg !2825
  %49 = getelementptr inbounds i8, i8* %48, i64 %47, !dbg !2825
  %50 = bitcast i8* %49 to %"class.std::__1::basic_ios"*, !dbg !2825
  store %"class.std::__1::basic_ios"* %50, %"class.std::__1::basic_ios"** %14, align 8
  %51 = load %"class.std::__1::basic_ios"*, %"class.std::__1::basic_ios"** %14, align 8
  %52 = bitcast %"class.std::__1::basic_ios"* %51 to %"class.std::__1::ios_base"*, !dbg !2826
  store %"class.std::__1::ios_base"* %52, %"class.std::__1::ios_base"** %13, align 8
  %53 = load %"class.std::__1::ios_base"*, %"class.std::__1::ios_base"** %13, align 8
  %54 = getelementptr inbounds %"class.std::__1::ios_base", %"class.std::__1::ios_base"* %53, i32 0, i32 6, !dbg !2827
  %55 = load i8*, i8** %54, align 8, !dbg !2827
  %56 = bitcast i8* %55 to %"class.std::__1::basic_streambuf"*, !dbg !2828
  store %"class.std::__1::basic_streambuf"* %56, %"class.std::__1::basic_streambuf"** %41, align 8, !dbg !2824
  %57 = load i8*, i8** %25, align 8, !dbg !2829
  %58 = load %"class.std::__1::basic_ostream"*, %"class.std::__1::basic_ostream"** %24, align 8, !dbg !2830
  %59 = bitcast %"class.std::__1::basic_ostream"* %58 to i8**, !dbg !2830
  %60 = load i8*, i8** %59, align 8, !dbg !2830
  %61 = getelementptr i8, i8* %60, i64 -24, !dbg !2830
  %62 = bitcast i8* %61 to i64*, !dbg !2830
  %63 = load i64, i64* %62, align 8, !dbg !2830
  %64 = bitcast %"class.std::__1::basic_ostream"* %58 to i8*, !dbg !2830
  %65 = getelementptr inbounds i8, i8* %64, i64 %63, !dbg !2830
  %66 = bitcast i8* %65 to %"class.std::__1::ios_base"*, !dbg !2830
  store %"class.std::__1::ios_base"* %66, %"class.std::__1::ios_base"** %11, align 8
  %67 = load %"class.std::__1::ios_base"*, %"class.std::__1::ios_base"** %11, align 8
  %68 = getelementptr inbounds %"class.std::__1::ios_base", %"class.std::__1::ios_base"* %67, i32 0, i32 1, !dbg !2831
  %69 = load i32, i32* %68, align 8, !dbg !2831
  %70 = and i32 %69, 176, !dbg !2832
  %71 = icmp eq i32 %70, 32, !dbg !2833
  br i1 %71, label %72, label %76, !dbg !2834

; <label>:72:                                     ; preds = %35
  %73 = load i8*, i8** %25, align 8, !dbg !2835
  %74 = load i64, i64* %26, align 8, !dbg !2836
  %75 = getelementptr inbounds i8, i8* %73, i64 %74, !dbg !2837
  br label %78, !dbg !2834

; <label>:76:                                     ; preds = %35
  %77 = load i8*, i8** %25, align 8, !dbg !2838
  br label %78, !dbg !2834

; <label>:78:                                     ; preds = %76, %72
  %79 = phi i8* [ %75, %72 ], [ %77, %76 ], !dbg !2834
  %80 = load i8*, i8** %25, align 8, !dbg !2839
  %81 = load i64, i64* %26, align 8, !dbg !2840
  %82 = getelementptr inbounds i8, i8* %80, i64 %81, !dbg !2841
  %83 = load %"class.std::__1::basic_ostream"*, %"class.std::__1::basic_ostream"** %24, align 8, !dbg !2842
  %84 = bitcast %"class.std::__1::basic_ostream"* %83 to i8**, !dbg !2842
  %85 = load i8*, i8** %84, align 8, !dbg !2842
  %86 = getelementptr i8, i8* %85, i64 -24, !dbg !2842
  %87 = bitcast i8* %86 to i64*, !dbg !2842
  %88 = load i64, i64* %87, align 8, !dbg !2842
  %89 = bitcast %"class.std::__1::basic_ostream"* %83 to i8*, !dbg !2842
  %90 = getelementptr inbounds i8, i8* %89, i64 %88, !dbg !2842
  %91 = bitcast i8* %90 to %"class.std::__1::ios_base"*, !dbg !2842
  %92 = load %"class.std::__1::basic_ostream"*, %"class.std::__1::basic_ostream"** %24, align 8, !dbg !2843
  %93 = bitcast %"class.std::__1::basic_ostream"* %92 to i8**, !dbg !2843
  %94 = load i8*, i8** %93, align 8, !dbg !2843
  %95 = getelementptr i8, i8* %94, i64 -24, !dbg !2843
  %96 = bitcast i8* %95 to i64*, !dbg !2843
  %97 = load i64, i64* %96, align 8, !dbg !2843
  %98 = bitcast %"class.std::__1::basic_ostream"* %92 to i8*, !dbg !2843
  %99 = getelementptr inbounds i8, i8* %98, i64 %97, !dbg !2843
  %100 = bitcast i8* %99 to %"class.std::__1::basic_ios"*, !dbg !2843
  store %"class.std::__1::basic_ios"* %100, %"class.std::__1::basic_ios"** %10, align 8
  %101 = load %"class.std::__1::basic_ios"*, %"class.std::__1::basic_ios"** %10, align 8
  %102 = call i32 @_ZNSt3__111char_traitsIcE3eofEv() #8, !dbg !2844
  %103 = getelementptr inbounds %"class.std::__1::basic_ios", %"class.std::__1::basic_ios"* %101, i32 0, i32 2, !dbg !2845
  %104 = load i32, i32* %103, align 8, !dbg !2845
  %105 = call zeroext i1 @_ZNSt3__111char_traitsIcE11eq_int_typeEii(i32 %102, i32 %104) #8, !dbg !2846
  br i1 %105, label %106, label %122, !dbg !2847

; <label>:106:                                    ; preds = %78
  store %"class.std::__1::basic_ios"* %101, %"class.std::__1::basic_ios"** %7, align 8
  store i8 32, i8* %8, align 1
  %107 = load %"class.std::__1::basic_ios"*, %"class.std::__1::basic_ios"** %7, align 8
  %108 = bitcast %"class.std::__1::basic_ios"* %107 to %"class.std::__1::ios_base"*, !dbg !2848
  call void @_ZNKSt3__18ios_base6getlocEv(%"class.std::__1::locale"* sret %9, %"class.std::__1::ios_base"* %108) #8, !dbg !2848
  store %"class.std::__1::locale"* %9, %"class.std::__1::locale"** %6, align 8
  %109 = load %"class.std::__1::locale"*, %"class.std::__1::locale"** %6, align 8, !dbg !2849
  %110 = call %"class.std::__1::locale::facet"* @_ZNKSt3__16locale9use_facetERNS0_2idE(%"class.std::__1::locale"* %109, %"class.std::__1::locale::id"* dereferenceable(16) @_ZNSt3__15ctypeIcE2idE) #8, !dbg !2850
  %111 = bitcast %"class.std::__1::locale::facet"* %110 to %"class.std::__1::ctype"*, !dbg !2851
  %112 = load i8, i8* %8, align 1, !dbg !2852
  store %"class.std::__1::ctype"* %111, %"class.std::__1::ctype"** %4, align 8
  store i8 %112, i8* %5, align 1
  %113 = load %"class.std::__1::ctype"*, %"class.std::__1::ctype"** %4, align 8
  %114 = bitcast %"class.std::__1::ctype"* %113 to i8 (%"class.std::__1::ctype"*, i8)***, !dbg !2853
  %115 = load i8 (%"class.std::__1::ctype"*, i8)**, i8 (%"class.std::__1::ctype"*, i8)*** %114, align 8, !dbg !2853
  %116 = getelementptr inbounds i8 (%"class.std::__1::ctype"*, i8)*, i8 (%"class.std::__1::ctype"*, i8)** %115, i64 7, !dbg !2853
  %117 = load i8 (%"class.std::__1::ctype"*, i8)*, i8 (%"class.std::__1::ctype"*, i8)** %116, align 8, !dbg !2853
  %118 = load i8, i8* %5, align 1, !dbg !2854
  %119 = call signext i8 %117(%"class.std::__1::ctype"* %113, i8 signext %118) #8, !dbg !2853
  call void @_ZNSt3__16localeD1Ev(%"class.std::__1::locale"* %9) #8, !dbg !2855
  %120 = sext i8 %119 to i32, !dbg !2856
  %121 = getelementptr inbounds %"class.std::__1::basic_ios", %"class.std::__1::basic_ios"* %101, i32 0, i32 2, !dbg !2857
  store i32 %120, i32* %121, align 8, !dbg !2858
  br label %122, !dbg !2857

; <label>:122:                                    ; preds = %78, %106
  %123 = getelementptr inbounds %"class.std::__1::basic_ios", %"class.std::__1::basic_ios"* %101, i32 0, i32 2, !dbg !2859
  %124 = load i32, i32* %123, align 8, !dbg !2859
  %125 = trunc i32 %124 to i8, !dbg !2859
  %126 = getelementptr inbounds %"class.std::__1::ostreambuf_iterator", %"class.std::__1::ostreambuf_iterator"* %29, i32 0, i32 0, !dbg !2860
  %127 = load %"class.std::__1::basic_streambuf"*, %"class.std::__1::basic_streambuf"** %126, align 8, !dbg !2860
  %128 = call %"class.std::__1::basic_streambuf"* @_ZNSt3__116__pad_and_outputIcNS_11char_traitsIcEEEENS_19ostreambuf_iteratorIT_T0_EES6_PKS4_S8_S8_RNS_8ios_baseES4_(%"class.std::__1::basic_streambuf"* %127, i8* %57, i8* %79, i8* %82, %"class.std::__1::ios_base"* dereferenceable(136) %91, i8 signext %125), !dbg !2860
  %129 = getelementptr inbounds %"class.std::__1::ostreambuf_iterator", %"class.std::__1::ostreambuf_iterator"* %28, i32 0, i32 0, !dbg !2860
  store %"class.std::__1::basic_streambuf"* %128, %"class.std::__1::basic_streambuf"** %129, align 8, !dbg !2860
  store %"class.std::__1::ostreambuf_iterator"* %28, %"class.std::__1::ostreambuf_iterator"** %12, align 8
  %130 = load %"class.std::__1::ostreambuf_iterator"*, %"class.std::__1::ostreambuf_iterator"** %12, align 8
  %131 = getelementptr inbounds %"class.std::__1::ostreambuf_iterator", %"class.std::__1::ostreambuf_iterator"* %130, i32 0, i32 0, !dbg !2861
  %132 = load %"class.std::__1::basic_streambuf"*, %"class.std::__1::basic_streambuf"** %131, align 8, !dbg !2861
  %133 = icmp eq %"class.std::__1::basic_streambuf"* %132, null, !dbg !2862
  br i1 %133, label %134, label %152, !dbg !2863

; <label>:134:                                    ; preds = %122
  %135 = load %"class.std::__1::basic_ostream"*, %"class.std::__1::basic_ostream"** %24, align 8, !dbg !2864
  %136 = bitcast %"class.std::__1::basic_ostream"* %135 to i8**, !dbg !2864
  %137 = load i8*, i8** %136, align 8, !dbg !2864
  %138 = getelementptr i8, i8* %137, i64 -24, !dbg !2864
  %139 = bitcast i8* %138 to i64*, !dbg !2864
  %140 = load i64, i64* %139, align 8, !dbg !2864
  %141 = bitcast %"class.std::__1::basic_ostream"* %135 to i8*, !dbg !2864
  %142 = getelementptr inbounds i8, i8* %141, i64 %140, !dbg !2864
  %143 = bitcast i8* %142 to %"class.std::__1::basic_ios"*, !dbg !2864
  store %"class.std::__1::basic_ios"* %143, %"class.std::__1::basic_ios"** %21, align 8
  store i32 5, i32* %22, align 4
  %144 = load %"class.std::__1::basic_ios"*, %"class.std::__1::basic_ios"** %21, align 8
  %145 = bitcast %"class.std::__1::basic_ios"* %144 to %"class.std::__1::ios_base"*, !dbg !2865
  %146 = load i32, i32* %22, align 4, !dbg !2866
  store %"class.std::__1::ios_base"* %145, %"class.std::__1::ios_base"** %19, align 8
  store i32 %146, i32* %20, align 4
  %147 = load %"class.std::__1::ios_base"*, %"class.std::__1::ios_base"** %19, align 8
  %148 = getelementptr inbounds %"class.std::__1::ios_base", %"class.std::__1::ios_base"* %147, i32 0, i32 4, !dbg !2867
  %149 = load i32, i32* %148, align 8, !dbg !2867
  %150 = load i32, i32* %20, align 4, !dbg !2868
  %151 = or i32 %149, %150, !dbg !2869
  call void @_ZNSt3__18ios_base5clearEj(%"class.std::__1::ios_base"* %147, i32 %151) #8, !dbg !2870
  br label %152, !dbg !2864

; <label>:152:                                    ; preds = %134, %122
  br label %153, !dbg !2871

; <label>:153:                                    ; preds = %152, %3
  %154 = load %"class.std::__1::basic_ostream"*, %"class.std::__1::basic_ostream"** %24, align 8, !dbg !2872
  call void @_ZNSt3__113basic_ostreamIcNS_11char_traitsIcEEE6sentryD1Ev(%"class.std::__1::basic_ostream<char, std::__1::char_traits<char> >::sentry"* %27) #8, !dbg !2873
  ret %"class.std::__1::basic_ostream"* %154, !dbg !2873
}

; Function Attrs: noinline nounwind optnone ssp uwtable
define linkonce_odr hidden i64 @_ZNSt3__111char_traitsIcE6lengthEPKc(i8*) #4 align 2 !dbg !2874 {
  %2 = alloca i8*, align 8
  store i8* %0, i8** %2, align 8
  call void @llvm.dbg.declare(metadata i8** %2, metadata !2875, metadata !DIExpression()), !dbg !2876
  %3 = load i8*, i8** %2, align 8, !dbg !2877
  %4 = call i64 @strlen(i8* %3) #8, !dbg !2878
  ret i64 %4, !dbg !2879
}

declare void @_ZNSt3__113basic_ostreamIcNS_11char_traitsIcEEE6sentryC1ERS3_(%"class.std::__1::basic_ostream<char, std::__1::char_traits<char> >::sentry"*, %"class.std::__1::basic_ostream"* dereferenceable(160)) unnamed_addr #3

; Function Attrs: noinline nounwind optnone ssp uwtable
define linkonce_odr hidden %"class.std::__1::basic_streambuf"* @_ZNSt3__116__pad_and_outputIcNS_11char_traitsIcEEEENS_19ostreambuf_iteratorIT_T0_EES6_PKS4_S8_S8_RNS_8ios_baseES4_(%"class.std::__1::basic_streambuf"*, i8*, i8*, i8*, %"class.std::__1::ios_base"* dereferenceable(136), i8 signext) #4 !dbg !2880 {
  %7 = alloca %"class.std::__1::basic_streambuf"*, align 8
  call void @llvm.dbg.declare(metadata %"class.std::__1::basic_streambuf"** %7, metadata !2884, metadata !DIExpression()), !dbg !2886
  %8 = alloca i8*, align 8
  call void @llvm.dbg.declare(metadata i8** %8, metadata !2891, metadata !DIExpression()), !dbg !2892
  %9 = alloca i64, align 8
  call void @llvm.dbg.declare(metadata i64* %9, metadata !2893, metadata !DIExpression()), !dbg !2894
  %10 = alloca i8*, align 8
  call void @llvm.dbg.declare(metadata i8** %10, metadata !2895, metadata !DIExpression()), !dbg !2901
  %11 = alloca %"struct.std::__1::__compressed_pair_elem"*, align 8
  call void @llvm.dbg.declare(metadata %"struct.std::__1::__compressed_pair_elem"** %11, metadata !2905, metadata !DIExpression()), !dbg !2908
  %12 = alloca %"class.std::__1::__compressed_pair"*, align 8
  call void @llvm.dbg.declare(metadata %"class.std::__1::__compressed_pair"** %12, metadata !2916, metadata !DIExpression()), !dbg !2918
  %13 = alloca %"class.std::__1::basic_string"*, align 8
  call void @llvm.dbg.declare(metadata %"class.std::__1::basic_string"** %13, metadata !2919, metadata !DIExpression()), !dbg !2921
  %14 = alloca i8*, align 8
  call void @llvm.dbg.declare(metadata i8** %14, metadata !2922, metadata !DIExpression()), !dbg !2926
  %15 = alloca i8*, align 8
  call void @llvm.dbg.declare(metadata i8** %15, metadata !2947, metadata !DIExpression()), !dbg !2948
  %16 = alloca %"struct.std::__1::__compressed_pair_elem"*, align 8
  call void @llvm.dbg.declare(metadata %"struct.std::__1::__compressed_pair_elem"** %16, metadata !2905, metadata !DIExpression()), !dbg !2949
  %17 = alloca %"class.std::__1::__compressed_pair"*, align 8
  call void @llvm.dbg.declare(metadata %"class.std::__1::__compressed_pair"** %17, metadata !2916, metadata !DIExpression()), !dbg !2952
  %18 = alloca %"class.std::__1::basic_string"*, align 8
  call void @llvm.dbg.declare(metadata %"class.std::__1::basic_string"** %18, metadata !2953, metadata !DIExpression()), !dbg !2954
  %19 = alloca %"struct.std::__1::__compressed_pair_elem"*, align 8
  call void @llvm.dbg.declare(metadata %"struct.std::__1::__compressed_pair_elem"** %19, metadata !2905, metadata !DIExpression()), !dbg !2955
  %20 = alloca %"class.std::__1::__compressed_pair"*, align 8
  call void @llvm.dbg.declare(metadata %"class.std::__1::__compressed_pair"** %20, metadata !2916, metadata !DIExpression()), !dbg !2960
  %21 = alloca %"class.std::__1::basic_string"*, align 8
  call void @llvm.dbg.declare(metadata %"class.std::__1::basic_string"** %21, metadata !2961, metadata !DIExpression()), !dbg !2962
  %22 = alloca %"class.std::__1::basic_string"*, align 8
  call void @llvm.dbg.declare(metadata %"class.std::__1::basic_string"** %22, metadata !2963, metadata !DIExpression()), !dbg !2964
  %23 = alloca %"class.std::__1::basic_string"*, align 8
  call void @llvm.dbg.declare(metadata %"class.std::__1::basic_string"** %23, metadata !2965, metadata !DIExpression()), !dbg !2966
  %24 = alloca %"class.std::__1::allocator"*, align 8
  call void @llvm.dbg.declare(metadata %"class.std::__1::allocator"** %24, metadata !2967, metadata !DIExpression()), !dbg !2970
  %25 = alloca %"struct.std::__1::__compressed_pair_elem.2"*, align 8
  call void @llvm.dbg.declare(metadata %"struct.std::__1::__compressed_pair_elem.2"** %25, metadata !2988, metadata !DIExpression()), !dbg !2990
  %26 = alloca %"struct.std::__1::__compressed_pair_elem"*, align 8
  call void @llvm.dbg.declare(metadata %"struct.std::__1::__compressed_pair_elem"** %26, metadata !2991, metadata !DIExpression()), !dbg !2994
  %27 = alloca %"class.std::__1::__compressed_pair"*, align 8
  call void @llvm.dbg.declare(metadata %"class.std::__1::__compressed_pair"** %27, metadata !2996, metadata !DIExpression()), !dbg !2998
  %28 = alloca %"class.std::__1::__compressed_pair"*, align 8
  call void @llvm.dbg.declare(metadata %"class.std::__1::__compressed_pair"** %28, metadata !2999, metadata !DIExpression()), !dbg !3000
  %29 = alloca %"class.std::__1::basic_string"*, align 8
  call void @llvm.dbg.declare(metadata %"class.std::__1::basic_string"** %29, metadata !3001, metadata !DIExpression()), !dbg !3003
  %30 = alloca i64, align 8
  call void @llvm.dbg.declare(metadata i64* %30, metadata !3004, metadata !DIExpression()), !dbg !3005
  %31 = alloca i8, align 1
  call void @llvm.dbg.declare(metadata i8* %31, metadata !3006, metadata !DIExpression()), !dbg !3007
  %32 = alloca %"class.std::__1::basic_string"*, align 8
  call void @llvm.dbg.declare(metadata %"class.std::__1::basic_string"** %32, metadata !3008, metadata !DIExpression()), !dbg !3009
  %33 = alloca i64, align 8
  call void @llvm.dbg.declare(metadata i64* %33, metadata !3010, metadata !DIExpression()), !dbg !3011
  %34 = alloca i8, align 1
  call void @llvm.dbg.declare(metadata i8* %34, metadata !3012, metadata !DIExpression()), !dbg !3013
  %35 = alloca %"class.std::__1::basic_streambuf"*, align 8
  call void @llvm.dbg.declare(metadata %"class.std::__1::basic_streambuf"** %35, metadata !2884, metadata !DIExpression()), !dbg !3014
  %36 = alloca i8*, align 8
  call void @llvm.dbg.declare(metadata i8** %36, metadata !2891, metadata !DIExpression()), !dbg !3019
  %37 = alloca i64, align 8
  call void @llvm.dbg.declare(metadata i64* %37, metadata !2893, metadata !DIExpression()), !dbg !3020
  %38 = alloca %"class.std::__1::basic_streambuf"*, align 8
  call void @llvm.dbg.declare(metadata %"class.std::__1::basic_streambuf"** %38, metadata !2884, metadata !DIExpression()), !dbg !3021
  %39 = alloca i8*, align 8
  call void @llvm.dbg.declare(metadata i8** %39, metadata !2891, metadata !DIExpression()), !dbg !3026
  %40 = alloca i64, align 8
  call void @llvm.dbg.declare(metadata i64* %40, metadata !2893, metadata !DIExpression()), !dbg !3027
  %41 = alloca %"class.std::__1::ios_base"*, align 8
  call void @llvm.dbg.declare(metadata %"class.std::__1::ios_base"** %41, metadata !3028, metadata !DIExpression()), !dbg !3030
  %42 = alloca i64, align 8
  call void @llvm.dbg.declare(metadata i64* %42, metadata !3032, metadata !DIExpression()), !dbg !3033
  %43 = alloca i64, align 8
  call void @llvm.dbg.declare(metadata i64* %43, metadata !3034, metadata !DIExpression()), !dbg !3035
  %44 = alloca %"class.std::__1::ios_base"*, align 8
  call void @llvm.dbg.declare(metadata %"class.std::__1::ios_base"** %44, metadata !3036, metadata !DIExpression()), !dbg !3038
  %45 = alloca %"class.std::__1::ostreambuf_iterator", align 8
  %46 = alloca %"class.std::__1::ostreambuf_iterator", align 8
  %47 = alloca i8*, align 8
  %48 = alloca i8*, align 8
  %49 = alloca i8*, align 8
  %50 = alloca %"class.std::__1::ios_base"*, align 8
  %51 = alloca i8, align 1
  %52 = alloca i64, align 8
  %53 = alloca i64, align 8
  %54 = alloca i64, align 8
  %55 = alloca %"class.std::__1::basic_string", align 8
  %56 = alloca i32
  %57 = getelementptr inbounds %"class.std::__1::ostreambuf_iterator", %"class.std::__1::ostreambuf_iterator"* %46, i32 0, i32 0
  store %"class.std::__1::basic_streambuf"* %0, %"class.std::__1::basic_streambuf"** %57, align 8
  call void @llvm.dbg.declare(metadata %"class.std::__1::ostreambuf_iterator"* %46, metadata !3040, metadata !DIExpression()), !dbg !3041
  store i8* %1, i8** %47, align 8
  call void @llvm.dbg.declare(metadata i8** %47, metadata !3042, metadata !DIExpression()), !dbg !3043
  store i8* %2, i8** %48, align 8
  call void @llvm.dbg.declare(metadata i8** %48, metadata !3044, metadata !DIExpression()), !dbg !3045
  store i8* %3, i8** %49, align 8
  call void @llvm.dbg.declare(metadata i8** %49, metadata !3046, metadata !DIExpression()), !dbg !3047
  store %"class.std::__1::ios_base"* %4, %"class.std::__1::ios_base"** %50, align 8
  call void @llvm.dbg.declare(metadata %"class.std::__1::ios_base"** %50, metadata !3048, metadata !DIExpression()), !dbg !3049
  store i8 %5, i8* %51, align 1
  call void @llvm.dbg.declare(metadata i8* %51, metadata !3050, metadata !DIExpression()), !dbg !3051
  %58 = getelementptr inbounds %"class.std::__1::ostreambuf_iterator", %"class.std::__1::ostreambuf_iterator"* %46, i32 0, i32 0, !dbg !3052
  %59 = load %"class.std::__1::basic_streambuf"*, %"class.std::__1::basic_streambuf"** %58, align 8, !dbg !3052
  %60 = icmp eq %"class.std::__1::basic_streambuf"* %59, null, !dbg !3054
  br i1 %60, label %61, label %64, !dbg !3055

; <label>:61:                                     ; preds = %6
  %62 = bitcast %"class.std::__1::ostreambuf_iterator"* %45 to i8*, !dbg !3056
  %63 = bitcast %"class.std::__1::ostreambuf_iterator"* %46 to i8*, !dbg !3056
  call void @llvm.memcpy.p0i8.p0i8.i64(i8* align 8 %62, i8* align 8 %63, i64 8, i1 false), !dbg !3056
  br label %236, !dbg !3057

; <label>:64:                                     ; preds = %6
  call void @llvm.dbg.declare(metadata i64* %52, metadata !3058, metadata !DIExpression()), !dbg !3059
  %65 = load i8*, i8** %49, align 8, !dbg !3060
  %66 = load i8*, i8** %47, align 8, !dbg !3061
  %67 = ptrtoint i8* %65 to i64, !dbg !3062
  %68 = ptrtoint i8* %66 to i64, !dbg !3062
  %69 = sub i64 %67, %68, !dbg !3062
  store i64 %69, i64* %52, align 8, !dbg !3059
  call void @llvm.dbg.declare(metadata i64* %53, metadata !3063, metadata !DIExpression()), !dbg !3064
  %70 = load %"class.std::__1::ios_base"*, %"class.std::__1::ios_base"** %50, align 8, !dbg !3065
  store %"class.std::__1::ios_base"* %70, %"class.std::__1::ios_base"** %44, align 8
  %71 = load %"class.std::__1::ios_base"*, %"class.std::__1::ios_base"** %44, align 8
  %72 = getelementptr inbounds %"class.std::__1::ios_base", %"class.std::__1::ios_base"* %71, i32 0, i32 3, !dbg !3066
  %73 = load i64, i64* %72, align 8, !dbg !3066
  store i64 %73, i64* %53, align 8, !dbg !3064
  %74 = load i64, i64* %53, align 8, !dbg !3067
  %75 = load i64, i64* %52, align 8, !dbg !3069
  %76 = icmp sgt i64 %74, %75, !dbg !3070
  br i1 %76, label %77, label %81, !dbg !3071

; <label>:77:                                     ; preds = %64
  %78 = load i64, i64* %52, align 8, !dbg !3072
  %79 = load i64, i64* %53, align 8, !dbg !3073
  %80 = sub nsw i64 %79, %78, !dbg !3073
  store i64 %80, i64* %53, align 8, !dbg !3073
  br label %82, !dbg !3074

; <label>:81:                                     ; preds = %64
  store i64 0, i64* %53, align 8, !dbg !3075
  br label %82

; <label>:82:                                     ; preds = %81, %77
  call void @llvm.dbg.declare(metadata i64* %54, metadata !3076, metadata !DIExpression()), !dbg !3077
  %83 = load i8*, i8** %48, align 8, !dbg !3078
  %84 = load i8*, i8** %47, align 8, !dbg !3079
  %85 = ptrtoint i8* %83 to i64, !dbg !3080
  %86 = ptrtoint i8* %84 to i64, !dbg !3080
  %87 = sub i64 %85, %86, !dbg !3080
  store i64 %87, i64* %54, align 8, !dbg !3077
  %88 = load i64, i64* %54, align 8, !dbg !3081
  %89 = icmp sgt i64 %88, 0, !dbg !3082
  br i1 %89, label %90, label %110, !dbg !3083

; <label>:90:                                     ; preds = %82
  %91 = getelementptr inbounds %"class.std::__1::ostreambuf_iterator", %"class.std::__1::ostreambuf_iterator"* %46, i32 0, i32 0, !dbg !3084
  %92 = load %"class.std::__1::basic_streambuf"*, %"class.std::__1::basic_streambuf"** %91, align 8, !dbg !3084
  %93 = load i8*, i8** %47, align 8, !dbg !3085
  %94 = load i64, i64* %54, align 8, !dbg !3086
  store %"class.std::__1::basic_streambuf"* %92, %"class.std::__1::basic_streambuf"** %35, align 8
  store i8* %93, i8** %36, align 8
  store i64 %94, i64* %37, align 8
  %95 = load %"class.std::__1::basic_streambuf"*, %"class.std::__1::basic_streambuf"** %35, align 8
  %96 = bitcast %"class.std::__1::basic_streambuf"* %95 to i64 (%"class.std::__1::basic_streambuf"*, i8*, i64)***, !dbg !3087
  %97 = load i64 (%"class.std::__1::basic_streambuf"*, i8*, i64)**, i64 (%"class.std::__1::basic_streambuf"*, i8*, i64)*** %96, align 8, !dbg !3087
  %98 = getelementptr inbounds i64 (%"class.std::__1::basic_streambuf"*, i8*, i64)*, i64 (%"class.std::__1::basic_streambuf"*, i8*, i64)** %97, i64 12, !dbg !3087
  %99 = load i64 (%"class.std::__1::basic_streambuf"*, i8*, i64)*, i64 (%"class.std::__1::basic_streambuf"*, i8*, i64)** %98, align 8, !dbg !3087
  %100 = load i8*, i8** %36, align 8, !dbg !3088
  %101 = load i64, i64* %37, align 8, !dbg !3089
  %102 = call i64 %99(%"class.std::__1::basic_streambuf"* %95, i8* %100, i64 %101) #8, !dbg !3087
  %103 = load i64, i64* %54, align 8, !dbg !3090
  %104 = icmp ne i64 %102, %103, !dbg !3091
  br i1 %104, label %105, label %109, !dbg !3092

; <label>:105:                                    ; preds = %90
  %106 = getelementptr inbounds %"class.std::__1::ostreambuf_iterator", %"class.std::__1::ostreambuf_iterator"* %46, i32 0, i32 0, !dbg !3093
  store %"class.std::__1::basic_streambuf"* null, %"class.std::__1::basic_streambuf"** %106, align 8, !dbg !3095
  %107 = bitcast %"class.std::__1::ostreambuf_iterator"* %45 to i8*, !dbg !3096
  %108 = bitcast %"class.std::__1::ostreambuf_iterator"* %46 to i8*, !dbg !3096
  call void @llvm.memcpy.p0i8.p0i8.i64(i8* align 8 %107, i8* align 8 %108, i64 8, i1 false), !dbg !3096
  br label %236, !dbg !3097

; <label>:109:                                    ; preds = %90
  br label %110, !dbg !3098

; <label>:110:                                    ; preds = %109, %82
  %111 = load i64, i64* %53, align 8, !dbg !3099
  %112 = icmp sgt i64 %111, 0, !dbg !3100
  br i1 %112, label %113, label %198, !dbg !3101

; <label>:113:                                    ; preds = %110
  call void @llvm.dbg.declare(metadata %"class.std::__1::basic_string"* %55, metadata !3102, metadata !DIExpression()), !dbg !3103
  %114 = load i64, i64* %53, align 8, !dbg !3104
  %115 = load i8, i8* %51, align 1, !dbg !3105
  store %"class.std::__1::basic_string"* %55, %"class.std::__1::basic_string"** %32, align 8
  store i64 %114, i64* %33, align 8
  store i8 %115, i8* %34, align 1
  %116 = load %"class.std::__1::basic_string"*, %"class.std::__1::basic_string"** %32, align 8
  %117 = load i64, i64* %33, align 8, !dbg !3106
  %118 = load i8, i8* %34, align 1, !dbg !3106
  store %"class.std::__1::basic_string"* %116, %"class.std::__1::basic_string"** %29, align 8
  store i64 %117, i64* %30, align 8
  store i8 %118, i8* %31, align 1
  %119 = load %"class.std::__1::basic_string"*, %"class.std::__1::basic_string"** %29, align 8
  %120 = bitcast %"class.std::__1::basic_string"* %119 to %"class.std::__1::__basic_string_common"*, !dbg !3107
  %121 = getelementptr inbounds %"class.std::__1::basic_string", %"class.std::__1::basic_string"* %119, i32 0, i32 0, !dbg !3108
  store %"class.std::__1::__compressed_pair"* %121, %"class.std::__1::__compressed_pair"** %28, align 8
  %122 = load %"class.std::__1::__compressed_pair"*, %"class.std::__1::__compressed_pair"** %28, align 8
  store %"class.std::__1::__compressed_pair"* %122, %"class.std::__1::__compressed_pair"** %27, align 8
  %123 = load %"class.std::__1::__compressed_pair"*, %"class.std::__1::__compressed_pair"** %27, align 8
  %124 = bitcast %"class.std::__1::__compressed_pair"* %123 to %"struct.std::__1::__compressed_pair_elem"*, !dbg !3109
  store %"struct.std::__1::__compressed_pair_elem"* %124, %"struct.std::__1::__compressed_pair_elem"** %26, align 8
  %125 = load %"struct.std::__1::__compressed_pair_elem"*, %"struct.std::__1::__compressed_pair_elem"** %26, align 8
  %126 = getelementptr inbounds %"struct.std::__1::__compressed_pair_elem", %"struct.std::__1::__compressed_pair_elem"* %125, i32 0, i32 0, !dbg !3110
  %127 = bitcast %"struct.std::__1::basic_string<char, std::__1::char_traits<char>, std::__1::allocator<char> >::__rep"* %126 to i8*, !dbg !3110
  call void @llvm.memset.p0i8.i64(i8* align 8 %127, i8 0, i64 24, i1 false), !dbg !3110
  %128 = bitcast %"class.std::__1::__compressed_pair"* %123 to %"struct.std::__1::__compressed_pair_elem.2"*, !dbg !3109
  store %"struct.std::__1::__compressed_pair_elem.2"* %128, %"struct.std::__1::__compressed_pair_elem.2"** %25, align 8
  %129 = load %"struct.std::__1::__compressed_pair_elem.2"*, %"struct.std::__1::__compressed_pair_elem.2"** %25, align 8
  %130 = bitcast %"struct.std::__1::__compressed_pair_elem.2"* %129 to %"class.std::__1::allocator"*, !dbg !3111
  store %"class.std::__1::allocator"* %130, %"class.std::__1::allocator"** %24, align 8
  %131 = load %"class.std::__1::allocator"*, %"class.std::__1::allocator"** %24, align 8
  %132 = load i64, i64* %30, align 8, !dbg !3112
  %133 = load i8, i8* %31, align 1, !dbg !3114
  call void @_ZNSt3__112basic_stringIcNS_11char_traitsIcEENS_9allocatorIcEEE6__initEmc(%"class.std::__1::basic_string"* %119, i64 %132, i8 signext %133) #8, !dbg !3115
  %134 = getelementptr inbounds %"class.std::__1::ostreambuf_iterator", %"class.std::__1::ostreambuf_iterator"* %46, i32 0, i32 0, !dbg !3116
  %135 = load %"class.std::__1::basic_streambuf"*, %"class.std::__1::basic_streambuf"** %134, align 8, !dbg !3116
  store %"class.std::__1::basic_string"* %55, %"class.std::__1::basic_string"** %23, align 8
  %136 = load %"class.std::__1::basic_string"*, %"class.std::__1::basic_string"** %23, align 8
  store %"class.std::__1::basic_string"* %136, %"class.std::__1::basic_string"** %22, align 8
  %137 = load %"class.std::__1::basic_string"*, %"class.std::__1::basic_string"** %22, align 8
  store %"class.std::__1::basic_string"* %137, %"class.std::__1::basic_string"** %21, align 8
  %138 = load %"class.std::__1::basic_string"*, %"class.std::__1::basic_string"** %21, align 8
  %139 = getelementptr inbounds %"class.std::__1::basic_string", %"class.std::__1::basic_string"* %138, i32 0, i32 0, !dbg !3117
  store %"class.std::__1::__compressed_pair"* %139, %"class.std::__1::__compressed_pair"** %20, align 8
  %140 = load %"class.std::__1::__compressed_pair"*, %"class.std::__1::__compressed_pair"** %20, align 8
  %141 = bitcast %"class.std::__1::__compressed_pair"* %140 to %"struct.std::__1::__compressed_pair_elem"*, !dbg !3118
  store %"struct.std::__1::__compressed_pair_elem"* %141, %"struct.std::__1::__compressed_pair_elem"** %19, align 8
  %142 = load %"struct.std::__1::__compressed_pair_elem"*, %"struct.std::__1::__compressed_pair_elem"** %19, align 8
  %143 = getelementptr inbounds %"struct.std::__1::__compressed_pair_elem", %"struct.std::__1::__compressed_pair_elem"* %142, i32 0, i32 0, !dbg !3119
  %144 = getelementptr inbounds %"struct.std::__1::basic_string<char, std::__1::char_traits<char>, std::__1::allocator<char> >::__rep", %"struct.std::__1::basic_string<char, std::__1::char_traits<char>, std::__1::allocator<char> >::__rep"* %143, i32 0, i32 0, !dbg !3120
  %145 = bitcast %union.anon.0* %144 to %"struct.std::__1::basic_string<char, std::__1::char_traits<char>, std::__1::allocator<char> >::__short"*, !dbg !3120
  %146 = getelementptr inbounds %"struct.std::__1::basic_string<char, std::__1::char_traits<char>, std::__1::allocator<char> >::__short", %"struct.std::__1::basic_string<char, std::__1::char_traits<char>, std::__1::allocator<char> >::__short"* %145, i32 0, i32 0, !dbg !3121
  %147 = bitcast %union.anon.1* %146 to i8*, !dbg !3121
  %148 = load i8, i8* %147, align 8, !dbg !3121
  %149 = zext i8 %148 to i64, !dbg !3117
  %150 = and i64 %149, 1, !dbg !3122
  %151 = icmp ne i64 %150, 0, !dbg !3117
  br i1 %151, label %152, label %163, !dbg !3123

; <label>:152:                                    ; preds = %113
  store %"class.std::__1::basic_string"* %137, %"class.std::__1::basic_string"** %13, align 8
  %153 = load %"class.std::__1::basic_string"*, %"class.std::__1::basic_string"** %13, align 8
  %154 = getelementptr inbounds %"class.std::__1::basic_string", %"class.std::__1::basic_string"* %153, i32 0, i32 0, !dbg !3124
  store %"class.std::__1::__compressed_pair"* %154, %"class.std::__1::__compressed_pair"** %12, align 8
  %155 = load %"class.std::__1::__compressed_pair"*, %"class.std::__1::__compressed_pair"** %12, align 8
  %156 = bitcast %"class.std::__1::__compressed_pair"* %155 to %"struct.std::__1::__compressed_pair_elem"*, !dbg !3125
  store %"struct.std::__1::__compressed_pair_elem"* %156, %"struct.std::__1::__compressed_pair_elem"** %11, align 8
  %157 = load %"struct.std::__1::__compressed_pair_elem"*, %"struct.std::__1::__compressed_pair_elem"** %11, align 8
  %158 = getelementptr inbounds %"struct.std::__1::__compressed_pair_elem", %"struct.std::__1::__compressed_pair_elem"* %157, i32 0, i32 0, !dbg !3126
  %159 = getelementptr inbounds %"struct.std::__1::basic_string<char, std::__1::char_traits<char>, std::__1::allocator<char> >::__rep", %"struct.std::__1::basic_string<char, std::__1::char_traits<char>, std::__1::allocator<char> >::__rep"* %158, i32 0, i32 0, !dbg !3127
  %160 = bitcast %union.anon.0* %159 to %"struct.std::__1::basic_string<char, std::__1::char_traits<char>, std::__1::allocator<char> >::__long"*, !dbg !3127
  %161 = getelementptr inbounds %"struct.std::__1::basic_string<char, std::__1::char_traits<char>, std::__1::allocator<char> >::__long", %"struct.std::__1::basic_string<char, std::__1::char_traits<char>, std::__1::allocator<char> >::__long"* %160, i32 0, i32 2, !dbg !3128
  %162 = load i8*, i8** %161, align 8, !dbg !3128
  br label %176, !dbg !3123

; <label>:163:                                    ; preds = %113
  store %"class.std::__1::basic_string"* %137, %"class.std::__1::basic_string"** %18, align 8
  %164 = load %"class.std::__1::basic_string"*, %"class.std::__1::basic_string"** %18, align 8
  %165 = getelementptr inbounds %"class.std::__1::basic_string", %"class.std::__1::basic_string"* %164, i32 0, i32 0, !dbg !3129
  store %"class.std::__1::__compressed_pair"* %165, %"class.std::__1::__compressed_pair"** %17, align 8
  %166 = load %"class.std::__1::__compressed_pair"*, %"class.std::__1::__compressed_pair"** %17, align 8
  %167 = bitcast %"class.std::__1::__compressed_pair"* %166 to %"struct.std::__1::__compressed_pair_elem"*, !dbg !3130
  store %"struct.std::__1::__compressed_pair_elem"* %167, %"struct.std::__1::__compressed_pair_elem"** %16, align 8
  %168 = load %"struct.std::__1::__compressed_pair_elem"*, %"struct.std::__1::__compressed_pair_elem"** %16, align 8
  %169 = getelementptr inbounds %"struct.std::__1::__compressed_pair_elem", %"struct.std::__1::__compressed_pair_elem"* %168, i32 0, i32 0, !dbg !3131
  %170 = getelementptr inbounds %"struct.std::__1::basic_string<char, std::__1::char_traits<char>, std::__1::allocator<char> >::__rep", %"struct.std::__1::basic_string<char, std::__1::char_traits<char>, std::__1::allocator<char> >::__rep"* %169, i32 0, i32 0, !dbg !3132
  %171 = bitcast %union.anon.0* %170 to %"struct.std::__1::basic_string<char, std::__1::char_traits<char>, std::__1::allocator<char> >::__short"*, !dbg !3132
  %172 = getelementptr inbounds %"struct.std::__1::basic_string<char, std::__1::char_traits<char>, std::__1::allocator<char> >::__short", %"struct.std::__1::basic_string<char, std::__1::char_traits<char>, std::__1::allocator<char> >::__short"* %171, i32 0, i32 1, !dbg !3133
  %173 = getelementptr inbounds [23 x i8], [23 x i8]* %172, i64 0, i64 0, !dbg !3129
  store i8* %173, i8** %15, align 8
  %174 = load i8*, i8** %15, align 8, !dbg !3134
  store i8* %174, i8** %14, align 8
  %175 = load i8*, i8** %14, align 8, !dbg !3135
  br label %176, !dbg !3123

; <label>:176:                                    ; preds = %152, %163
  %177 = phi i8* [ %162, %152 ], [ %175, %163 ], !dbg !3123
  store i8* %177, i8** %10, align 8
  %178 = load i8*, i8** %10, align 8, !dbg !3136
  %179 = load i64, i64* %53, align 8, !dbg !3137
  store %"class.std::__1::basic_streambuf"* %135, %"class.std::__1::basic_streambuf"** %7, align 8
  store i8* %178, i8** %8, align 8
  store i64 %179, i64* %9, align 8
  %180 = load %"class.std::__1::basic_streambuf"*, %"class.std::__1::basic_streambuf"** %7, align 8
  %181 = bitcast %"class.std::__1::basic_streambuf"* %180 to i64 (%"class.std::__1::basic_streambuf"*, i8*, i64)***, !dbg !3138
  %182 = load i64 (%"class.std::__1::basic_streambuf"*, i8*, i64)**, i64 (%"class.std::__1::basic_streambuf"*, i8*, i64)*** %181, align 8, !dbg !3138
  %183 = getelementptr inbounds i64 (%"class.std::__1::basic_streambuf"*, i8*, i64)*, i64 (%"class.std::__1::basic_streambuf"*, i8*, i64)** %182, i64 12, !dbg !3138
  %184 = load i64 (%"class.std::__1::basic_streambuf"*, i8*, i64)*, i64 (%"class.std::__1::basic_streambuf"*, i8*, i64)** %183, align 8, !dbg !3138
  %185 = load i8*, i8** %8, align 8, !dbg !3139
  %186 = load i64, i64* %9, align 8, !dbg !3140
  %187 = call i64 %184(%"class.std::__1::basic_streambuf"* %180, i8* %185, i64 %186) #8, !dbg !3138
  %188 = load i64, i64* %53, align 8, !dbg !3141
  %189 = icmp ne i64 %187, %188, !dbg !3142
  br i1 %189, label %190, label %194, !dbg !3143

; <label>:190:                                    ; preds = %176
  %191 = getelementptr inbounds %"class.std::__1::ostreambuf_iterator", %"class.std::__1::ostreambuf_iterator"* %46, i32 0, i32 0, !dbg !3144
  store %"class.std::__1::basic_streambuf"* null, %"class.std::__1::basic_streambuf"** %191, align 8, !dbg !3146
  %192 = bitcast %"class.std::__1::ostreambuf_iterator"* %45 to i8*, !dbg !3147
  %193 = bitcast %"class.std::__1::ostreambuf_iterator"* %46 to i8*, !dbg !3147
  call void @llvm.memcpy.p0i8.p0i8.i64(i8* align 8 %192, i8* align 8 %193, i64 8, i1 false), !dbg !3147
  store i32 1, i32* %56, align 4
  br label %195, !dbg !3148

; <label>:194:                                    ; preds = %176
  store i32 0, i32* %56, align 4, !dbg !3149
  br label %195, !dbg !3149

; <label>:195:                                    ; preds = %194, %190
  call void @_ZNSt3__112basic_stringIcNS_11char_traitsIcEENS_9allocatorIcEEED1Ev(%"class.std::__1::basic_string"* %55) #8, !dbg !3149
  %196 = load i32, i32* %56, align 4
  switch i32 %196, label %239 [
    i32 0, label %197
    i32 1, label %236
  ]

; <label>:197:                                    ; preds = %195
  br label %198, !dbg !3150

; <label>:198:                                    ; preds = %197, %110
  %199 = load i8*, i8** %49, align 8, !dbg !3151
  %200 = load i8*, i8** %48, align 8, !dbg !3152
  %201 = ptrtoint i8* %199 to i64, !dbg !3153
  %202 = ptrtoint i8* %200 to i64, !dbg !3153
  %203 = sub i64 %201, %202, !dbg !3153
  store i64 %203, i64* %54, align 8, !dbg !3154
  %204 = load i64, i64* %54, align 8, !dbg !3155
  %205 = icmp sgt i64 %204, 0, !dbg !3156
  br i1 %205, label %206, label %226, !dbg !3157

; <label>:206:                                    ; preds = %198
  %207 = getelementptr inbounds %"class.std::__1::ostreambuf_iterator", %"class.std::__1::ostreambuf_iterator"* %46, i32 0, i32 0, !dbg !3158
  %208 = load %"class.std::__1::basic_streambuf"*, %"class.std::__1::basic_streambuf"** %207, align 8, !dbg !3158
  %209 = load i8*, i8** %48, align 8, !dbg !3159
  %210 = load i64, i64* %54, align 8, !dbg !3160
  store %"class.std::__1::basic_streambuf"* %208, %"class.std::__1::basic_streambuf"** %38, align 8
  store i8* %209, i8** %39, align 8
  store i64 %210, i64* %40, align 8
  %211 = load %"class.std::__1::basic_streambuf"*, %"class.std::__1::basic_streambuf"** %38, align 8
  %212 = bitcast %"class.std::__1::basic_streambuf"* %211 to i64 (%"class.std::__1::basic_streambuf"*, i8*, i64)***, !dbg !3161
  %213 = load i64 (%"class.std::__1::basic_streambuf"*, i8*, i64)**, i64 (%"class.std::__1::basic_streambuf"*, i8*, i64)*** %212, align 8, !dbg !3161
  %214 = getelementptr inbounds i64 (%"class.std::__1::basic_streambuf"*, i8*, i64)*, i64 (%"class.std::__1::basic_streambuf"*, i8*, i64)** %213, i64 12, !dbg !3161
  %215 = load i64 (%"class.std::__1::basic_streambuf"*, i8*, i64)*, i64 (%"class.std::__1::basic_streambuf"*, i8*, i64)** %214, align 8, !dbg !3161
  %216 = load i8*, i8** %39, align 8, !dbg !3162
  %217 = load i64, i64* %40, align 8, !dbg !3163
  %218 = call i64 %215(%"class.std::__1::basic_streambuf"* %211, i8* %216, i64 %217) #8, !dbg !3161
  %219 = load i64, i64* %54, align 8, !dbg !3164
  %220 = icmp ne i64 %218, %219, !dbg !3165
  br i1 %220, label %221, label %225, !dbg !3166

; <label>:221:                                    ; preds = %206
  %222 = getelementptr inbounds %"class.std::__1::ostreambuf_iterator", %"class.std::__1::ostreambuf_iterator"* %46, i32 0, i32 0, !dbg !3167
  store %"class.std::__1::basic_streambuf"* null, %"class.std::__1::basic_streambuf"** %222, align 8, !dbg !3169
  %223 = bitcast %"class.std::__1::ostreambuf_iterator"* %45 to i8*, !dbg !3170
  %224 = bitcast %"class.std::__1::ostreambuf_iterator"* %46 to i8*, !dbg !3170
  call void @llvm.memcpy.p0i8.p0i8.i64(i8* align 8 %223, i8* align 8 %224, i64 8, i1 false), !dbg !3170
  br label %236, !dbg !3171

; <label>:225:                                    ; preds = %206
  br label %226, !dbg !3172

; <label>:226:                                    ; preds = %225, %198
  %227 = load %"class.std::__1::ios_base"*, %"class.std::__1::ios_base"** %50, align 8, !dbg !3173
  store %"class.std::__1::ios_base"* %227, %"class.std::__1::ios_base"** %41, align 8
  store i64 0, i64* %42, align 8
  %228 = load %"class.std::__1::ios_base"*, %"class.std::__1::ios_base"** %41, align 8
  %229 = getelementptr inbounds %"class.std::__1::ios_base", %"class.std::__1::ios_base"* %228, i32 0, i32 3, !dbg !3174
  %230 = load i64, i64* %229, align 8, !dbg !3174
  store i64 %230, i64* %43, align 8, !dbg !3035
  %231 = load i64, i64* %42, align 8, !dbg !3175
  %232 = getelementptr inbounds %"class.std::__1::ios_base", %"class.std::__1::ios_base"* %228, i32 0, i32 3, !dbg !3176
  store i64 %231, i64* %232, align 8, !dbg !3177
  %233 = load i64, i64* %43, align 8, !dbg !3178
  %234 = bitcast %"class.std::__1::ostreambuf_iterator"* %45 to i8*, !dbg !3179
  %235 = bitcast %"class.std::__1::ostreambuf_iterator"* %46 to i8*, !dbg !3179
  call void @llvm.memcpy.p0i8.p0i8.i64(i8* align 8 %234, i8* align 8 %235, i64 8, i1 false), !dbg !3179
  br label %236, !dbg !3180

; <label>:236:                                    ; preds = %226, %221, %195, %105, %61
  %237 = getelementptr inbounds %"class.std::__1::ostreambuf_iterator", %"class.std::__1::ostreambuf_iterator"* %45, i32 0, i32 0, !dbg !3181
  %238 = load %"class.std::__1::basic_streambuf"*, %"class.std::__1::basic_streambuf"** %237, align 8, !dbg !3181
  ret %"class.std::__1::basic_streambuf"* %238, !dbg !3181

; <label>:239:                                    ; preds = %195
  unreachable
}

; Function Attrs: nounwind
declare void @_ZNSt3__113basic_ostreamIcNS_11char_traitsIcEEE6sentryD1Ev(%"class.std::__1::basic_ostream<char, std::__1::char_traits<char> >::sentry"*) unnamed_addr #5

; Function Attrs: nounwind
declare void @_ZNSt3__112basic_stringIcNS_11char_traitsIcEENS_9allocatorIcEEED1Ev(%"class.std::__1::basic_string"*) unnamed_addr #5

declare void @_ZNSt3__112basic_stringIcNS_11char_traitsIcEENS_9allocatorIcEEE6__initEmc(%"class.std::__1::basic_string"*, i64, i8 signext) #3

; Function Attrs: noinline nounwind optnone ssp uwtable
define linkonce_odr hidden zeroext i1 @_ZNSt3__111char_traitsIcE11eq_int_typeEii(i32, i32) #4 align 2 !dbg !3182 {
  %3 = alloca i32, align 4
  %4 = alloca i32, align 4
  store i32 %0, i32* %3, align 4
  call void @llvm.dbg.declare(metadata i32* %3, metadata !3183, metadata !DIExpression()), !dbg !3184
  store i32 %1, i32* %4, align 4
  call void @llvm.dbg.declare(metadata i32* %4, metadata !3185, metadata !DIExpression()), !dbg !3186
  %5 = load i32, i32* %3, align 4, !dbg !3187
  %6 = load i32, i32* %4, align 4, !dbg !3188
  %7 = icmp eq i32 %5, %6, !dbg !3189
  ret i1 %7, !dbg !3190
}

; Function Attrs: noinline nounwind optnone ssp uwtable
define linkonce_odr hidden i32 @_ZNSt3__111char_traitsIcE3eofEv() #4 align 2 !dbg !3191 {
  ret i32 -1, !dbg !3192
}

declare void @_ZNKSt3__18ios_base6getlocEv(%"class.std::__1::locale"* sret, %"class.std::__1::ios_base"*) #3

; Function Attrs: nounwind
declare void @_ZNSt3__16localeD1Ev(%"class.std::__1::locale"*) unnamed_addr #5

declare %"class.std::__1::locale::facet"* @_ZNKSt3__16locale9use_facetERNS0_2idE(%"class.std::__1::locale"*, %"class.std::__1::locale::id"* dereferenceable(16)) #3

declare void @_ZNSt3__18ios_base5clearEj(%"class.std::__1::ios_base"*, i32) #3

; Function Attrs: nounwind
declare i64 @strlen(i8*) #5

; Function Attrs: argmemonly nounwind
declare void @llvm.memcpy.p0i8.p0i8.i64(i8* nocapture writeonly, i8* nocapture readonly, i64, i1) #6

; Function Attrs: argmemonly nounwind
declare void @llvm.memset.p0i8.i64(i8* nocapture writeonly, i8, i64, i1) #6

attributes #0 = { noinline norecurse nounwind optnone ssp uwtable "correctly-rounded-divide-sqrt-fp-math"="false" "disable-tail-calls"="false" "less-precise-fpmad"="false" "no-frame-pointer-elim"="true" "no-frame-pointer-elim-non-leaf" "no-infs-fp-math"="false" "no-jump-tables"="false" "no-nans-fp-math"="false" "no-signed-zeros-fp-math"="false" "no-trapping-math"="false" "stack-protector-buffer-size"="8" "target-cpu"="penryn" "target-features"="+cx16,+fxsr,+mmx,+sse,+sse2,+sse3,+sse4.1,+ssse3,+x87" "unsafe-fp-math"="false" "use-soft-float"="false" }
attributes #1 = { nounwind readnone speculatable }
attributes #2 = { nobuiltin "correctly-rounded-divide-sqrt-fp-math"="false" "disable-tail-calls"="false" "less-precise-fpmad"="false" "no-frame-pointer-elim"="true" "no-frame-pointer-elim-non-leaf" "no-infs-fp-math"="false" "no-nans-fp-math"="false" "no-signed-zeros-fp-math"="false" "no-trapping-math"="false" "stack-protector-buffer-size"="8" "target-cpu"="penryn" "target-features"="+cx16,+fxsr,+mmx,+sse,+sse2,+sse3,+sse4.1,+ssse3,+x87" "unsafe-fp-math"="false" "use-soft-float"="false" }
attributes #3 = { "correctly-rounded-divide-sqrt-fp-math"="false" "disable-tail-calls"="false" "less-precise-fpmad"="false" "no-frame-pointer-elim"="true" "no-frame-pointer-elim-non-leaf" "no-infs-fp-math"="false" "no-nans-fp-math"="false" "no-signed-zeros-fp-math"="false" "no-trapping-math"="false" "stack-protector-buffer-size"="8" "target-cpu"="penryn" "target-features"="+cx16,+fxsr,+mmx,+sse,+sse2,+sse3,+sse4.1,+ssse3,+x87" "unsafe-fp-math"="false" "use-soft-float"="false" }
attributes #4 = { noinline nounwind optnone ssp uwtable "correctly-rounded-divide-sqrt-fp-math"="false" "disable-tail-calls"="false" "less-precise-fpmad"="false" "no-frame-pointer-elim"="true" "no-frame-pointer-elim-non-leaf" "no-infs-fp-math"="false" "no-jump-tables"="false" "no-nans-fp-math"="false" "no-signed-zeros-fp-math"="false" "no-trapping-math"="false" "stack-protector-buffer-size"="8" "target-cpu"="penryn" "target-features"="+cx16,+fxsr,+mmx,+sse,+sse2,+sse3,+sse4.1,+ssse3,+x87" "unsafe-fp-math"="false" "use-soft-float"="false" }
attributes #5 = { nounwind "correctly-rounded-divide-sqrt-fp-math"="false" "disable-tail-calls"="false" "less-precise-fpmad"="false" "no-frame-pointer-elim"="true" "no-frame-pointer-elim-non-leaf" "no-infs-fp-math"="false" "no-nans-fp-math"="false" "no-signed-zeros-fp-math"="false" "no-trapping-math"="false" "stack-protector-buffer-size"="8" "target-cpu"="penryn" "target-features"="+cx16,+fxsr,+mmx,+sse,+sse2,+sse3,+sse4.1,+ssse3,+x87" "unsafe-fp-math"="false" "use-soft-float"="false" }
attributes #6 = { argmemonly nounwind }
attributes #7 = { builtin }
attributes #8 = { nounwind }

!llvm.dbg.cu = !{!0}
!llvm.module.flags = !{!2512, !2513, !2514, !2515}
!llvm.ident = !{!2516}

!0 = distinct !DICompileUnit(language: DW_LANG_C_plus_plus, file: !1, producer: "Apple LLVM version 9.1.0 (clang-902.0.39.2)", isOptimized: false, runtimeVersion: 0, emissionKind: FullDebug, enums: !2, retainedTypes: !1238, imports: !1593)
!1 = !DIFile(filename: "lexnumber1.cc", directory: "/Users/ejiang/Projects/lls/ac/llfiles")
!2 = !{!3, !1233}
!3 = !DICompositeType(tag: DW_TAG_enumeration_type, name: "event", scope: !5, file: !4, line: 308, size: 32, elements: !1229, identifier: "_ZTSNSt3__18ios_base5eventE")
!4 = !DIFile(filename: "/Applications/Xcode.app/Contents/Developer/Toolchains/XcodeDefault.xctoolchain/usr/include/c++/v1/ios", directory: "/Users/ejiang/Projects/lls/ac/llfiles")
!5 = distinct !DICompositeType(tag: DW_TAG_class_type, name: "ios_base", scope: !6, file: !4, line: 231, size: 1088, elements: !8, vtableHolder: !5, identifier: "_ZTSNSt3__18ios_baseE")
!6 = !DINamespace(name: "__1", scope: !7, exportSymbols: true)
!7 = !DINamespace(name: "std", scope: null)
!8 = !{!9, !15, !19, !20, !21, !22, !23, !24, !25, !26, !27, !28, !29, !30, !31, !32, !33, !34, !35, !36, !39, !40, !41, !42, !45, !46, !47, !48, !49, !50, !51, !56, !57, !58, !59, !61, !62, !69, !71, !77, !78, !81, !83, !84, !85, !87, !88, !89, !94, !98, !99, !102, !105, !108, !111, !112, !113, !1167, !1170, !1171, !1175, !1179, !1182, !1185, !1189, !1192, !1195, !1198, !1201, !1202, !1205, !1206, !1207, !1208, !1209, !1210, !1211, !1212, !1213, !1216, !1219, !1220, !1223, !1224, !1227, !1228}
!9 = !DIDerivedType(tag: DW_TAG_member, name: "_vptr$ios_base", scope: !4, file: !4, baseType: !10, size: 64, flags: DIFlagArtificial)
!10 = !DIDerivedType(tag: DW_TAG_pointer_type, baseType: !11, size: 64)
!11 = !DIDerivedType(tag: DW_TAG_pointer_type, name: "__vtbl_ptr_type", baseType: !12, size: 64)
!12 = !DISubroutineType(types: !13)
!13 = !{!14}
!14 = !DIBasicType(name: "int", size: 32, encoding: DW_ATE_signed)
!15 = !DIDerivedType(tag: DW_TAG_member, name: "boolalpha", scope: !5, file: !4, line: 237, baseType: !16, flags: DIFlagPublic | DIFlagStaticMember, extraData: i32 1)
!16 = !DIDerivedType(tag: DW_TAG_const_type, baseType: !17)
!17 = !DIDerivedType(tag: DW_TAG_typedef, name: "fmtflags", scope: !5, file: !4, line: 236, baseType: !18)
!18 = !DIBasicType(name: "unsigned int", size: 32, encoding: DW_ATE_unsigned)
!19 = !DIDerivedType(tag: DW_TAG_member, name: "dec", scope: !5, file: !4, line: 238, baseType: !16, flags: DIFlagPublic | DIFlagStaticMember, extraData: i32 2)
!20 = !DIDerivedType(tag: DW_TAG_member, name: "fixed", scope: !5, file: !4, line: 239, baseType: !16, flags: DIFlagPublic | DIFlagStaticMember, extraData: i32 4)
!21 = !DIDerivedType(tag: DW_TAG_member, name: "hex", scope: !5, file: !4, line: 240, baseType: !16, flags: DIFlagPublic | DIFlagStaticMember, extraData: i32 8)
!22 = !DIDerivedType(tag: DW_TAG_member, name: "internal", scope: !5, file: !4, line: 241, baseType: !16, flags: DIFlagPublic | DIFlagStaticMember, extraData: i32 16)
!23 = !DIDerivedType(tag: DW_TAG_member, name: "left", scope: !5, file: !4, line: 242, baseType: !16, flags: DIFlagPublic | DIFlagStaticMember, extraData: i32 32)
!24 = !DIDerivedType(tag: DW_TAG_member, name: "oct", scope: !5, file: !4, line: 243, baseType: !16, flags: DIFlagPublic | DIFlagStaticMember, extraData: i32 64)
!25 = !DIDerivedType(tag: DW_TAG_member, name: "right", scope: !5, file: !4, line: 244, baseType: !16, flags: DIFlagPublic | DIFlagStaticMember, extraData: i32 128)
!26 = !DIDerivedType(tag: DW_TAG_member, name: "scientific", scope: !5, file: !4, line: 245, baseType: !16, flags: DIFlagPublic | DIFlagStaticMember, extraData: i32 256)
!27 = !DIDerivedType(tag: DW_TAG_member, name: "showbase", scope: !5, file: !4, line: 246, baseType: !16, flags: DIFlagPublic | DIFlagStaticMember, extraData: i32 512)
!28 = !DIDerivedType(tag: DW_TAG_member, name: "showpoint", scope: !5, file: !4, line: 247, baseType: !16, flags: DIFlagPublic | DIFlagStaticMember, extraData: i32 1024)
!29 = !DIDerivedType(tag: DW_TAG_member, name: "showpos", scope: !5, file: !4, line: 248, baseType: !16, flags: DIFlagPublic | DIFlagStaticMember, extraData: i32 2048)
!30 = !DIDerivedType(tag: DW_TAG_member, name: "skipws", scope: !5, file: !4, line: 249, baseType: !16, flags: DIFlagPublic | DIFlagStaticMember, extraData: i32 4096)
!31 = !DIDerivedType(tag: DW_TAG_member, name: "unitbuf", scope: !5, file: !4, line: 250, baseType: !16, flags: DIFlagPublic | DIFlagStaticMember, extraData: i32 8192)
!32 = !DIDerivedType(tag: DW_TAG_member, name: "uppercase", scope: !5, file: !4, line: 251, baseType: !16, flags: DIFlagPublic | DIFlagStaticMember, extraData: i32 16384)
!33 = !DIDerivedType(tag: DW_TAG_member, name: "adjustfield", scope: !5, file: !4, line: 252, baseType: !16, flags: DIFlagPublic | DIFlagStaticMember, extraData: i32 176)
!34 = !DIDerivedType(tag: DW_TAG_member, name: "basefield", scope: !5, file: !4, line: 253, baseType: !16, flags: DIFlagPublic | DIFlagStaticMember, extraData: i32 74)
!35 = !DIDerivedType(tag: DW_TAG_member, name: "floatfield", scope: !5, file: !4, line: 254, baseType: !16, flags: DIFlagPublic | DIFlagStaticMember, extraData: i32 260)
!36 = !DIDerivedType(tag: DW_TAG_member, name: "badbit", scope: !5, file: !4, line: 257, baseType: !37, flags: DIFlagPublic | DIFlagStaticMember, extraData: i32 1)
!37 = !DIDerivedType(tag: DW_TAG_const_type, baseType: !38)
!38 = !DIDerivedType(tag: DW_TAG_typedef, name: "iostate", scope: !5, file: !4, line: 256, baseType: !18)
!39 = !DIDerivedType(tag: DW_TAG_member, name: "eofbit", scope: !5, file: !4, line: 258, baseType: !37, flags: DIFlagPublic | DIFlagStaticMember, extraData: i32 2)
!40 = !DIDerivedType(tag: DW_TAG_member, name: "failbit", scope: !5, file: !4, line: 259, baseType: !37, flags: DIFlagPublic | DIFlagStaticMember, extraData: i32 4)
!41 = !DIDerivedType(tag: DW_TAG_member, name: "goodbit", scope: !5, file: !4, line: 260, baseType: !37, flags: DIFlagPublic | DIFlagStaticMember, extraData: i32 0)
!42 = !DIDerivedType(tag: DW_TAG_member, name: "app", scope: !5, file: !4, line: 263, baseType: !43, flags: DIFlagPublic | DIFlagStaticMember, extraData: i32 1)
!43 = !DIDerivedType(tag: DW_TAG_const_type, baseType: !44)
!44 = !DIDerivedType(tag: DW_TAG_typedef, name: "openmode", scope: !5, file: !4, line: 262, baseType: !18)
!45 = !DIDerivedType(tag: DW_TAG_member, name: "ate", scope: !5, file: !4, line: 264, baseType: !43, flags: DIFlagPublic | DIFlagStaticMember, extraData: i32 2)
!46 = !DIDerivedType(tag: DW_TAG_member, name: "binary", scope: !5, file: !4, line: 265, baseType: !43, flags: DIFlagPublic | DIFlagStaticMember, extraData: i32 4)
!47 = !DIDerivedType(tag: DW_TAG_member, name: "in", scope: !5, file: !4, line: 266, baseType: !43, flags: DIFlagPublic | DIFlagStaticMember, extraData: i32 8)
!48 = !DIDerivedType(tag: DW_TAG_member, name: "out", scope: !5, file: !4, line: 267, baseType: !43, flags: DIFlagPublic | DIFlagStaticMember, extraData: i32 16)
!49 = !DIDerivedType(tag: DW_TAG_member, name: "trunc", scope: !5, file: !4, line: 268, baseType: !43, flags: DIFlagPublic | DIFlagStaticMember, extraData: i32 32)
!50 = !DIDerivedType(tag: DW_TAG_member, name: "__fmtflags_", scope: !5, file: !4, line: 362, baseType: !17, size: 32, offset: 64)
!51 = !DIDerivedType(tag: DW_TAG_member, name: "__precision_", scope: !5, file: !4, line: 363, baseType: !52, size: 64, offset: 128)
!52 = !DIDerivedType(tag: DW_TAG_typedef, name: "streamsize", scope: !6, file: !4, line: 229, baseType: !53)
!53 = !DIDerivedType(tag: DW_TAG_typedef, name: "ptrdiff_t", file: !54, line: 51, baseType: !55)
!54 = !DIFile(filename: "/Applications/Xcode.app/Contents/Developer/Toolchains/XcodeDefault.xctoolchain/usr/lib/clang/9.1.0/include/stddef.h", directory: "/Users/ejiang/Projects/lls/ac/llfiles")
!55 = !DIBasicType(name: "long int", size: 64, encoding: DW_ATE_signed)
!56 = !DIDerivedType(tag: DW_TAG_member, name: "__width_", scope: !5, file: !4, line: 364, baseType: !52, size: 64, offset: 192)
!57 = !DIDerivedType(tag: DW_TAG_member, name: "__rdstate_", scope: !5, file: !4, line: 365, baseType: !38, size: 32, offset: 256)
!58 = !DIDerivedType(tag: DW_TAG_member, name: "__exceptions_", scope: !5, file: !4, line: 366, baseType: !38, size: 32, offset: 288)
!59 = !DIDerivedType(tag: DW_TAG_member, name: "__rdbuf_", scope: !5, file: !4, line: 367, baseType: !60, size: 64, offset: 320)
!60 = !DIDerivedType(tag: DW_TAG_pointer_type, baseType: null, size: 64)
!61 = !DIDerivedType(tag: DW_TAG_member, name: "__loc_", scope: !5, file: !4, line: 368, baseType: !60, size: 64, offset: 384)
!62 = !DIDerivedType(tag: DW_TAG_member, name: "__fn_", scope: !5, file: !4, line: 369, baseType: !63, size: 64, offset: 448)
!63 = !DIDerivedType(tag: DW_TAG_pointer_type, baseType: !64, size: 64)
!64 = !DIDerivedType(tag: DW_TAG_typedef, name: "event_callback", scope: !5, file: !4, line: 309, baseType: !65)
!65 = !DIDerivedType(tag: DW_TAG_pointer_type, baseType: !66, size: 64)
!66 = !DISubroutineType(types: !67)
!67 = !{null, !3, !68, !14}
!68 = !DIDerivedType(tag: DW_TAG_reference_type, baseType: !5, size: 64)
!69 = !DIDerivedType(tag: DW_TAG_member, name: "__index_", scope: !5, file: !4, line: 370, baseType: !70, size: 64, offset: 512)
!70 = !DIDerivedType(tag: DW_TAG_pointer_type, baseType: !14, size: 64)
!71 = !DIDerivedType(tag: DW_TAG_member, name: "__event_size_", scope: !5, file: !4, line: 371, baseType: !72, size: 64, offset: 576)
!72 = !DIDerivedType(tag: DW_TAG_typedef, name: "size_t", file: !73, line: 31, baseType: !74)
!73 = !DIFile(filename: "/Applications/Xcode.app/Contents/Developer/Platforms/MacOSX.platform/Developer/SDKs/MacOSX10.13.sdk/usr/include/sys/_types/_size_t.h", directory: "/Users/ejiang/Projects/lls/ac/llfiles")
!74 = !DIDerivedType(tag: DW_TAG_typedef, name: "__darwin_size_t", file: !75, line: 92, baseType: !76)
!75 = !DIFile(filename: "/Applications/Xcode.app/Contents/Developer/Platforms/MacOSX.platform/Developer/SDKs/MacOSX10.13.sdk/usr/include/i386/_types.h", directory: "/Users/ejiang/Projects/lls/ac/llfiles")
!76 = !DIBasicType(name: "long unsigned int", size: 64, encoding: DW_ATE_unsigned)
!77 = !DIDerivedType(tag: DW_TAG_member, name: "__event_cap_", scope: !5, file: !4, line: 372, baseType: !72, size: 64, offset: 640)
!78 = !DIDerivedType(tag: DW_TAG_member, name: "__xindex_", scope: !5, file: !4, line: 376, baseType: !79, flags: DIFlagStaticMember)
!79 = !DICompositeType(tag: DW_TAG_structure_type, name: "atomic<int>", scope: !6, file: !80, line: 1084, flags: DIFlagFwdDecl, identifier: "_ZTSNSt3__16atomicIiEE")
!80 = !DIFile(filename: "/Applications/Xcode.app/Contents/Developer/Toolchains/XcodeDefault.xctoolchain/usr/include/c++/v1/atomic", directory: "/Users/ejiang/Projects/lls/ac/llfiles")
!81 = !DIDerivedType(tag: DW_TAG_member, name: "__iarray_", scope: !5, file: !4, line: 380, baseType: !82, size: 64, offset: 704)
!82 = !DIDerivedType(tag: DW_TAG_pointer_type, baseType: !55, size: 64)
!83 = !DIDerivedType(tag: DW_TAG_member, name: "__iarray_size_", scope: !5, file: !4, line: 381, baseType: !72, size: 64, offset: 768)
!84 = !DIDerivedType(tag: DW_TAG_member, name: "__iarray_cap_", scope: !5, file: !4, line: 382, baseType: !72, size: 64, offset: 832)
!85 = !DIDerivedType(tag: DW_TAG_member, name: "__parray_", scope: !5, file: !4, line: 383, baseType: !86, size: 64, offset: 896)
!86 = !DIDerivedType(tag: DW_TAG_pointer_type, baseType: !60, size: 64)
!87 = !DIDerivedType(tag: DW_TAG_member, name: "__parray_size_", scope: !5, file: !4, line: 384, baseType: !72, size: 64, offset: 960)
!88 = !DIDerivedType(tag: DW_TAG_member, name: "__parray_cap_", scope: !5, file: !4, line: 385, baseType: !72, size: 64, offset: 1024)
!89 = !DISubprogram(name: "flags", linkageName: "_ZNKSt3__18ios_base5flagsEv", scope: !5, file: !4, line: 284, type: !90, isLocal: false, isDefinition: false, scopeLine: 284, flags: DIFlagPublic | DIFlagPrototyped, isOptimized: false)
!90 = !DISubroutineType(types: !91)
!91 = !{!17, !92}
!92 = !DIDerivedType(tag: DW_TAG_pointer_type, baseType: !93, size: 64, flags: DIFlagArtificial | DIFlagObjectPointer)
!93 = !DIDerivedType(tag: DW_TAG_const_type, baseType: !5)
!94 = !DISubprogram(name: "flags", linkageName: "_ZNSt3__18ios_base5flagsEj", scope: !5, file: !4, line: 285, type: !95, isLocal: false, isDefinition: false, scopeLine: 285, flags: DIFlagPublic | DIFlagPrototyped, isOptimized: false)
!95 = !DISubroutineType(types: !96)
!96 = !{!17, !97, !17}
!97 = !DIDerivedType(tag: DW_TAG_pointer_type, baseType: !5, size: 64, flags: DIFlagArtificial | DIFlagObjectPointer)
!98 = !DISubprogram(name: "setf", linkageName: "_ZNSt3__18ios_base4setfEj", scope: !5, file: !4, line: 286, type: !95, isLocal: false, isDefinition: false, scopeLine: 286, flags: DIFlagPublic | DIFlagPrototyped, isOptimized: false)
!99 = !DISubprogram(name: "setf", linkageName: "_ZNSt3__18ios_base4setfEjj", scope: !5, file: !4, line: 287, type: !100, isLocal: false, isDefinition: false, scopeLine: 287, flags: DIFlagPublic | DIFlagPrototyped, isOptimized: false)
!100 = !DISubroutineType(types: !101)
!101 = !{!17, !97, !17, !17}
!102 = !DISubprogram(name: "unsetf", linkageName: "_ZNSt3__18ios_base6unsetfEj", scope: !5, file: !4, line: 288, type: !103, isLocal: false, isDefinition: false, scopeLine: 288, flags: DIFlagPublic | DIFlagPrototyped, isOptimized: false)
!103 = !DISubroutineType(types: !104)
!104 = !{null, !97, !17}
!105 = !DISubprogram(name: "precision", linkageName: "_ZNKSt3__18ios_base9precisionEv", scope: !5, file: !4, line: 290, type: !106, isLocal: false, isDefinition: false, scopeLine: 290, flags: DIFlagPublic | DIFlagPrototyped, isOptimized: false)
!106 = !DISubroutineType(types: !107)
!107 = !{!52, !92}
!108 = !DISubprogram(name: "precision", linkageName: "_ZNSt3__18ios_base9precisionEl", scope: !5, file: !4, line: 291, type: !109, isLocal: false, isDefinition: false, scopeLine: 291, flags: DIFlagPublic | DIFlagPrototyped, isOptimized: false)
!109 = !DISubroutineType(types: !110)
!110 = !{!52, !97, !52}
!111 = !DISubprogram(name: "width", linkageName: "_ZNKSt3__18ios_base5widthEv", scope: !5, file: !4, line: 292, type: !106, isLocal: false, isDefinition: false, scopeLine: 292, flags: DIFlagPublic | DIFlagPrototyped, isOptimized: false)
!112 = !DISubprogram(name: "width", linkageName: "_ZNSt3__18ios_base5widthEl", scope: !5, file: !4, line: 293, type: !109, isLocal: false, isDefinition: false, scopeLine: 293, flags: DIFlagPublic | DIFlagPrototyped, isOptimized: false)
!113 = !DISubprogram(name: "imbue", linkageName: "_ZNSt3__18ios_base5imbueERKNS_6localeE", scope: !5, file: !4, line: 296, type: !114, isLocal: false, isDefinition: false, scopeLine: 296, flags: DIFlagPublic | DIFlagPrototyped, isOptimized: false)
!114 = !DISubroutineType(types: !115)
!115 = !{!116, !97, !139}
!116 = distinct !DICompositeType(tag: DW_TAG_class_type, name: "locale", scope: !6, file: !117, line: 83, size: 64, elements: !118, identifier: "_ZTSNSt3__16localeE")
!117 = !DIFile(filename: "/Applications/Xcode.app/Contents/Developer/Toolchains/XcodeDefault.xctoolchain/usr/include/c++/v1/__locale", directory: "/Users/ejiang/Projects/lls/ac/llfiles")
!118 = !{!119, !122, !123, !124, !125, !126, !127, !128, !129, !132, !136, !141, !147, !1045, !1048, !1051, !1054, !1055, !1058, !1062, !1065, !1066, !1069, !1072, !1116, !1120, !1162}
!119 = !DIDerivedType(tag: DW_TAG_member, name: "none", scope: !116, file: !117, line: 93, baseType: !120, flags: DIFlagPublic | DIFlagStaticMember, extraData: i32 0)
!120 = !DIDerivedType(tag: DW_TAG_const_type, baseType: !121)
!121 = !DIDerivedType(tag: DW_TAG_typedef, name: "category", scope: !116, file: !117, line: 90, baseType: !14)
!122 = !DIDerivedType(tag: DW_TAG_member, name: "collate", scope: !116, file: !117, line: 94, baseType: !120, flags: DIFlagPublic | DIFlagStaticMember, extraData: i32 1)
!123 = !DIDerivedType(tag: DW_TAG_member, name: "ctype", scope: !116, file: !117, line: 95, baseType: !120, flags: DIFlagPublic | DIFlagStaticMember, extraData: i32 2)
!124 = !DIDerivedType(tag: DW_TAG_member, name: "monetary", scope: !116, file: !117, line: 96, baseType: !120, flags: DIFlagPublic | DIFlagStaticMember, extraData: i32 8)
!125 = !DIDerivedType(tag: DW_TAG_member, name: "numeric", scope: !116, file: !117, line: 97, baseType: !120, flags: DIFlagPublic | DIFlagStaticMember, extraData: i32 16)
!126 = !DIDerivedType(tag: DW_TAG_member, name: "time", scope: !116, file: !117, line: 98, baseType: !120, flags: DIFlagPublic | DIFlagStaticMember, extraData: i32 32)
!127 = !DIDerivedType(tag: DW_TAG_member, name: "messages", scope: !116, file: !117, line: 99, baseType: !120, flags: DIFlagPublic | DIFlagStaticMember, extraData: i32 4)
!128 = !DIDerivedType(tag: DW_TAG_member, name: "all", scope: !116, file: !117, line: 100, baseType: !120, flags: DIFlagPublic | DIFlagStaticMember, extraData: i32 63)
!129 = !DIDerivedType(tag: DW_TAG_member, name: "__locale_", scope: !116, file: !117, line: 136, baseType: !130, size: 64)
!130 = !DIDerivedType(tag: DW_TAG_pointer_type, baseType: !131, size: 64)
!131 = !DICompositeType(tag: DW_TAG_class_type, name: "__imp", scope: !116, file: !117, line: 135, flags: DIFlagFwdDecl, identifier: "_ZTSNSt3__16locale5__impE")
!132 = !DISubprogram(name: "locale", scope: !116, file: !117, line: 103, type: !133, isLocal: false, isDefinition: false, scopeLine: 103, flags: DIFlagPublic | DIFlagPrototyped, isOptimized: false)
!133 = !DISubroutineType(types: !134)
!134 = !{null, !135}
!135 = !DIDerivedType(tag: DW_TAG_pointer_type, baseType: !116, size: 64, flags: DIFlagArtificial | DIFlagObjectPointer)
!136 = !DISubprogram(name: "locale", scope: !116, file: !117, line: 104, type: !137, isLocal: false, isDefinition: false, scopeLine: 104, flags: DIFlagPublic | DIFlagPrototyped, isOptimized: false)
!137 = !DISubroutineType(types: !138)
!138 = !{null, !135, !139}
!139 = !DIDerivedType(tag: DW_TAG_reference_type, baseType: !140, size: 64)
!140 = !DIDerivedType(tag: DW_TAG_const_type, baseType: !116)
!141 = !DISubprogram(name: "locale", scope: !116, file: !117, line: 105, type: !142, isLocal: false, isDefinition: false, scopeLine: 105, flags: DIFlagPublic | DIFlagExplicit | DIFlagPrototyped, isOptimized: false)
!142 = !DISubroutineType(types: !143)
!143 = !{null, !135, !144}
!144 = !DIDerivedType(tag: DW_TAG_pointer_type, baseType: !145, size: 64)
!145 = !DIDerivedType(tag: DW_TAG_const_type, baseType: !146)
!146 = !DIBasicType(name: "char", size: 8, encoding: DW_ATE_signed_char)
!147 = !DISubprogram(name: "locale", scope: !116, file: !117, line: 106, type: !148, isLocal: false, isDefinition: false, scopeLine: 106, flags: DIFlagPublic | DIFlagExplicit | DIFlagPrototyped, isOptimized: false)
!148 = !DISubroutineType(types: !149)
!149 = !{null, !135, !150}
!150 = !DIDerivedType(tag: DW_TAG_reference_type, baseType: !151, size: 64)
!151 = !DIDerivedType(tag: DW_TAG_const_type, baseType: !152)
!152 = !DIDerivedType(tag: DW_TAG_typedef, name: "string", scope: !6, file: !153, line: 194, baseType: !154)
!153 = !DIFile(filename: "/Applications/Xcode.app/Contents/Developer/Toolchains/XcodeDefault.xctoolchain/usr/include/c++/v1/iosfwd", directory: "/Users/ejiang/Projects/lls/ac/llfiles")
!154 = distinct !DICompositeType(tag: DW_TAG_class_type, name: "basic_string<char, std::__1::char_traits<char>, std::__1::allocator<char> >", scope: !6, file: !155, line: 4002, size: 192, elements: !156, templateParams: !1043, identifier: "_ZTSNSt3__112basic_stringIcNS_11char_traitsIcEENS_9allocatorIcEEEE")
!155 = !DIFile(filename: "/Applications/Xcode.app/Contents/Developer/Toolchains/XcodeDefault.xctoolchain/usr/include/c++/v1/string", directory: "/Users/ejiang/Projects/lls/ac/llfiles")
!156 = !{!157, !169, !321, !322, !429, !430, !434, !440, !445, !448, !452, !455, !458, !461, !464, !467, !470, !473, !476, !479, !667, !670, !696, !699, !700, !704, !708, !711, !714, !719, !722, !727, !732, !733, !734, !739, !744, !745, !746, !747, !748, !749, !750, !753, !754, !755, !756, !759, !762, !763, !764, !765, !768, !773, !778, !779, !780, !781, !784, !785, !786, !787, !788, !789, !792, !795, !796, !799, !800, !803, !804, !807, !810, !811, !812, !813, !814, !815, !816, !817, !818, !819, !820, !823, !826, !829, !832, !835, !838, !841, !844, !847, !850, !853, !856, !859, !862, !865, !868, !871, !874, !877, !880, !883, !886, !889, !892, !896, !899, !902, !905, !906, !909, !912, !915, !918, !921, !924, !925, !926, !927, !928, !929, !930, !931, !932, !933, !934, !935, !936, !937, !938, !939, !940, !941, !942, !943, !944, !945, !946, !947, !948, !949, !952, !955, !958, !961, !964, !967, !970, !973, !974, !975, !979, !982, !983, !984, !985, !986, !987, !988, !989, !992, !995, !1003, !1004, !1005, !1006, !1007, !1008, !1011, !1014, !1017, !1018, !1021, !1024, !1025, !1026, !1029, !1032, !1035, !1038, !1039, !1040, !1041, !1042}
!157 = !DIDerivedType(tag: DW_TAG_inheritance, scope: !154, baseType: !158)
!158 = distinct !DICompositeType(tag: DW_TAG_class_type, name: "__basic_string_common<true>", scope: !6, file: !155, line: 583, size: 8, elements: !159, templateParams: !166, identifier: "_ZTSNSt3__121__basic_string_commonILb1EEE")
!159 = !{!160, !165}
!160 = !DISubprogram(name: "__throw_length_error", linkageName: "_ZNKSt3__121__basic_string_commonILb1EE20__throw_length_errorEv", scope: !158, file: !155, line: 565, type: !161, isLocal: false, isDefinition: false, scopeLine: 565, flags: DIFlagProtected | DIFlagPrototyped, isOptimized: false)
!161 = !DISubroutineType(types: !162)
!162 = !{null, !163}
!163 = !DIDerivedType(tag: DW_TAG_pointer_type, baseType: !164, size: 64, flags: DIFlagArtificial | DIFlagObjectPointer)
!164 = !DIDerivedType(tag: DW_TAG_const_type, baseType: !158)
!165 = !DISubprogram(name: "__throw_out_of_range", linkageName: "_ZNKSt3__121__basic_string_commonILb1EE20__throw_out_of_rangeEv", scope: !158, file: !155, line: 566, type: !161, isLocal: false, isDefinition: false, scopeLine: 566, flags: DIFlagProtected | DIFlagPrototyped, isOptimized: false)
!166 = !{!167}
!167 = !DITemplateValueParameter(type: !168, value: i8 1)
!168 = !DIBasicType(name: "bool", size: 8, encoding: DW_ATE_boolean)
!169 = !DIDerivedType(tag: DW_TAG_member, name: "__short_mask", scope: !154, file: !155, line: 707, baseType: !170, flags: DIFlagStaticMember, extraData: i64 1)
!170 = !DIDerivedType(tag: DW_TAG_const_type, baseType: !171)
!171 = !DIDerivedType(tag: DW_TAG_typedef, name: "size_type", scope: !154, file: !155, line: 640, baseType: !172)
!172 = !DIDerivedType(tag: DW_TAG_typedef, name: "size_type", scope: !174, file: !173, line: 1478, baseType: !316)
!173 = !DIFile(filename: "/Applications/Xcode.app/Contents/Developer/Toolchains/XcodeDefault.xctoolchain/usr/include/c++/v1/memory", directory: "/Users/ejiang/Projects/lls/ac/llfiles")
!174 = distinct !DICompositeType(tag: DW_TAG_structure_type, name: "allocator_traits<std::__1::allocator<char> >", scope: !6, file: !173, line: 1467, size: 8, elements: !175, templateParams: !315, identifier: "_ZTSNSt3__116allocator_traitsINS_9allocatorIcEEEE")
!175 = !{!176, !233, !260, !263, !268, !271, !288, !303, !306, !309, !312}
!176 = !DISubprogram(name: "allocate", linkageName: "_ZNSt3__116allocator_traitsINS_9allocatorIcEEE8allocateERS2_m", scope: !174, file: !173, line: 1501, type: !177, isLocal: false, isDefinition: false, scopeLine: 1501, flags: DIFlagPrototyped, isOptimized: false)
!177 = !DISubroutineType(types: !178)
!178 = !{!179, !231, !172}
!179 = !DIDerivedType(tag: DW_TAG_typedef, name: "pointer", scope: !174, file: !173, line: 1472, baseType: !180)
!180 = !DIDerivedType(tag: DW_TAG_typedef, name: "type", scope: !181, file: !173, line: 1020, baseType: !227)
!181 = distinct !DICompositeType(tag: DW_TAG_structure_type, name: "__pointer_type<char, std::__1::allocator<char> >", scope: !6, file: !173, line: 1018, size: 8, elements: !182, templateParams: !183, identifier: "_ZTSNSt3__114__pointer_typeIcNS_9allocatorIcEEEE")
!182 = !{}
!183 = !{!184, !185}
!184 = !DITemplateTypeParameter(name: "_Tp", type: !146)
!185 = !DITemplateTypeParameter(name: "_Dp", type: !186)
!186 = distinct !DICompositeType(tag: DW_TAG_class_type, name: "allocator<char>", scope: !6, file: !173, line: 1720, size: 8, elements: !187, templateParams: !226, identifier: "_ZTSNSt3__19allocatorIcEE")
!187 = !{!188, !192, !201, !207, !217, !220, !223}
!188 = !DISubprogram(name: "allocator", scope: !186, file: !173, line: 1736, type: !189, isLocal: false, isDefinition: false, scopeLine: 1736, flags: DIFlagPublic | DIFlagPrototyped, isOptimized: false)
!189 = !DISubroutineType(types: !190)
!190 = !{null, !191}
!191 = !DIDerivedType(tag: DW_TAG_pointer_type, baseType: !186, size: 64, flags: DIFlagArtificial | DIFlagObjectPointer)
!192 = !DISubprogram(name: "address", linkageName: "_ZNKSt3__19allocatorIcE7addressERc", scope: !186, file: !173, line: 1738, type: !193, isLocal: false, isDefinition: false, scopeLine: 1738, flags: DIFlagPublic | DIFlagPrototyped, isOptimized: false)
!193 = !DISubroutineType(types: !194)
!194 = !{!195, !197, !199}
!195 = !DIDerivedType(tag: DW_TAG_typedef, name: "pointer", scope: !186, file: !173, line: 1725, baseType: !196)
!196 = !DIDerivedType(tag: DW_TAG_pointer_type, baseType: !146, size: 64)
!197 = !DIDerivedType(tag: DW_TAG_pointer_type, baseType: !198, size: 64, flags: DIFlagArtificial | DIFlagObjectPointer)
!198 = !DIDerivedType(tag: DW_TAG_const_type, baseType: !186)
!199 = !DIDerivedType(tag: DW_TAG_typedef, name: "reference", scope: !186, file: !173, line: 1727, baseType: !200)
!200 = !DIDerivedType(tag: DW_TAG_reference_type, baseType: !146, size: 64)
!201 = !DISubprogram(name: "address", linkageName: "_ZNKSt3__19allocatorIcE7addressERKc", scope: !186, file: !173, line: 1740, type: !202, isLocal: false, isDefinition: false, scopeLine: 1740, flags: DIFlagPublic | DIFlagPrototyped, isOptimized: false)
!202 = !DISubroutineType(types: !203)
!203 = !{!204, !197, !205}
!204 = !DIDerivedType(tag: DW_TAG_typedef, name: "const_pointer", scope: !186, file: !173, line: 1726, baseType: !144)
!205 = !DIDerivedType(tag: DW_TAG_typedef, name: "const_reference", scope: !186, file: !173, line: 1728, baseType: !206)
!206 = !DIDerivedType(tag: DW_TAG_reference_type, baseType: !145, size: 64)
!207 = !DISubprogram(name: "allocate", linkageName: "_ZNSt3__19allocatorIcE8allocateEmPKv", scope: !186, file: !173, line: 1742, type: !208, isLocal: false, isDefinition: false, scopeLine: 1742, flags: DIFlagPublic | DIFlagPrototyped, isOptimized: false)
!208 = !DISubroutineType(types: !209)
!209 = !{!195, !191, !210, !211}
!210 = !DIDerivedType(tag: DW_TAG_typedef, name: "size_type", file: !173, line: 1723, baseType: !72)
!211 = !DIDerivedType(tag: DW_TAG_typedef, name: "const_pointer", scope: !212, file: !173, line: 704, baseType: !215)
!212 = distinct !DICompositeType(tag: DW_TAG_class_type, name: "allocator<void>", scope: !6, file: !173, line: 700, size: 8, elements: !182, templateParams: !213, identifier: "_ZTSNSt3__19allocatorIvEE")
!213 = !{!214}
!214 = !DITemplateTypeParameter(name: "_Tp", type: null)
!215 = !DIDerivedType(tag: DW_TAG_pointer_type, baseType: !216, size: 64)
!216 = !DIDerivedType(tag: DW_TAG_const_type, baseType: null)
!217 = !DISubprogram(name: "deallocate", linkageName: "_ZNSt3__19allocatorIcE10deallocateEPcm", scope: !186, file: !173, line: 1749, type: !218, isLocal: false, isDefinition: false, scopeLine: 1749, flags: DIFlagPublic | DIFlagPrototyped, isOptimized: false)
!218 = !DISubroutineType(types: !219)
!219 = !{null, !191, !195, !210}
!220 = !DISubprogram(name: "max_size", linkageName: "_ZNKSt3__19allocatorIcE8max_sizeEv", scope: !186, file: !173, line: 1751, type: !221, isLocal: false, isDefinition: false, scopeLine: 1751, flags: DIFlagPublic | DIFlagPrototyped, isOptimized: false)
!221 = !DISubroutineType(types: !222)
!222 = !{!210, !197}
!223 = !DISubprogram(name: "destroy", linkageName: "_ZNSt3__19allocatorIcE7destroyEPc", scope: !186, file: !173, line: 1814, type: !224, isLocal: false, isDefinition: false, scopeLine: 1814, flags: DIFlagPublic | DIFlagPrototyped, isOptimized: false)
!224 = !DISubroutineType(types: !225)
!225 = !{null, !191, !195}
!226 = !{!184}
!227 = !DIDerivedType(tag: DW_TAG_typedef, name: "type", scope: !228, file: !173, line: 1006, baseType: !195)
!228 = distinct !DICompositeType(tag: DW_TAG_structure_type, name: "__pointer_type<char, std::__1::allocator<char>, true>", scope: !229, file: !173, line: 1004, size: 8, elements: !182, templateParams: !230, identifier: "_ZTSNSt3__118__pointer_type_imp14__pointer_typeIcNS_9allocatorIcEELb1EEE")
!229 = !DINamespace(name: "__pointer_type_imp", scope: !6)
!230 = !{!184, !185, !167}
!231 = !DIDerivedType(tag: DW_TAG_reference_type, baseType: !232, size: 64)
!232 = !DIDerivedType(tag: DW_TAG_typedef, name: "allocator_type", scope: !174, file: !173, line: 1469, baseType: !186)
!233 = !DISubprogram(name: "allocate", linkageName: "_ZNSt3__116allocator_traitsINS_9allocatorIcEEE8allocateERS2_mPKv", scope: !174, file: !173, line: 1504, type: !234, isLocal: false, isDefinition: false, scopeLine: 1504, flags: DIFlagPrototyped, isOptimized: false)
!234 = !DISubroutineType(types: !235)
!235 = !{!179, !231, !172, !236}
!236 = !DIDerivedType(tag: DW_TAG_typedef, name: "const_void_pointer", scope: !174, file: !173, line: 1475, baseType: !237)
!237 = !DIDerivedType(tag: DW_TAG_typedef, name: "type", scope: !238, file: !173, line: 1086, baseType: !243)
!238 = distinct !DICompositeType(tag: DW_TAG_structure_type, name: "__const_void_pointer<char *, std::__1::allocator<char>, false>", scope: !6, file: !173, line: 1083, size: 8, elements: !182, templateParams: !239, identifier: "_ZTSNSt3__120__const_void_pointerIPcNS_9allocatorIcEELb0EEE")
!239 = !{!240, !241, !242}
!240 = !DITemplateTypeParameter(name: "_Ptr", type: !196)
!241 = !DITemplateTypeParameter(name: "_Alloc", type: !186)
!242 = !DITemplateValueParameter(type: !168, value: i8 0)
!243 = !DIDerivedType(tag: DW_TAG_typedef, name: "rebind<const void>", scope: !244, file: !173, line: 968, baseType: !215)
!244 = distinct !DICompositeType(tag: DW_TAG_structure_type, name: "pointer_traits<char *>", scope: !6, file: !173, line: 961, size: 8, elements: !245, templateParams: !259, identifier: "_ZTSNSt3__114pointer_traitsIPcEE")
!245 = !{!246}
!246 = !DISubprogram(name: "pointer_to", linkageName: "_ZNSt3__114pointer_traitsIPcE10pointer_toERc", scope: !244, file: !173, line: 977, type: !247, isLocal: false, isDefinition: false, scopeLine: 977, flags: DIFlagPrototyped, isOptimized: false)
!247 = !DISubroutineType(types: !248)
!248 = !{!249, !250}
!249 = !DIDerivedType(tag: DW_TAG_typedef, name: "pointer", scope: !244, file: !173, line: 963, baseType: !196)
!250 = !DIDerivedType(tag: DW_TAG_reference_type, baseType: !251, size: 64)
!251 = !DIDerivedType(tag: DW_TAG_typedef, name: "type", scope: !253, file: !252, line: 414, baseType: !146)
!252 = !DIFile(filename: "/Applications/Xcode.app/Contents/Developer/Toolchains/XcodeDefault.xctoolchain/usr/include/c++/v1/type_traits", directory: "/Users/ejiang/Projects/lls/ac/llfiles")
!253 = distinct !DICompositeType(tag: DW_TAG_structure_type, name: "conditional<false, std::__1::pointer_traits<char *>::__nat, char>", scope: !6, file: !252, line: 414, size: 8, elements: !182, templateParams: !254, identifier: "_ZTSNSt3__111conditionalILb0ENS_14pointer_traitsIPcE5__natEcEE")
!254 = !{!255, !256, !258}
!255 = !DITemplateValueParameter(name: "_Bp", type: !168, value: i8 0)
!256 = !DITemplateTypeParameter(name: "_If", type: !257)
!257 = !DICompositeType(tag: DW_TAG_structure_type, name: "__nat", scope: !244, file: !173, line: 974, flags: DIFlagFwdDecl, identifier: "_ZTSNSt3__114pointer_traitsIPcE5__natE")
!258 = !DITemplateTypeParameter(name: "_Then", type: !146)
!259 = !{!240}
!260 = !DISubprogram(name: "deallocate", linkageName: "_ZNSt3__116allocator_traitsINS_9allocatorIcEEE10deallocateERS2_Pcm", scope: !174, file: !173, line: 1509, type: !261, isLocal: false, isDefinition: false, scopeLine: 1509, flags: DIFlagPrototyped, isOptimized: false)
!261 = !DISubroutineType(types: !262)
!262 = !{null, !231, !179, !172}
!263 = !DISubprogram(name: "max_size", linkageName: "_ZNSt3__116allocator_traitsINS_9allocatorIcEEE8max_sizeERKS2_", scope: !174, file: !173, line: 1553, type: !264, isLocal: false, isDefinition: false, scopeLine: 1553, flags: DIFlagPrototyped, isOptimized: false)
!264 = !DISubroutineType(types: !265)
!265 = !{!172, !266}
!266 = !DIDerivedType(tag: DW_TAG_reference_type, baseType: !267, size: 64)
!267 = !DIDerivedType(tag: DW_TAG_const_type, baseType: !232)
!268 = !DISubprogram(name: "select_on_container_copy_construction", linkageName: "_ZNSt3__116allocator_traitsINS_9allocatorIcEEE37select_on_container_copy_constructionERKS2_", scope: !174, file: !173, line: 1558, type: !269, isLocal: false, isDefinition: false, scopeLine: 1558, flags: DIFlagPrototyped, isOptimized: false)
!269 = !DISubroutineType(types: !270)
!270 = !{!232, !266}
!271 = !DISubprogram(name: "__allocate", linkageName: "_ZNSt3__116allocator_traitsINS_9allocatorIcEEE10__allocateERS2_mPKvNS_17integral_constantIbLb1EEE", scope: !174, file: !173, line: 1658, type: !272, isLocal: false, isDefinition: false, scopeLine: 1658, flags: DIFlagPrivate | DIFlagPrototyped, isOptimized: false)
!272 = !DISubroutineType(types: !273)
!273 = !{!179, !231, !172, !236, !274}
!274 = !DIDerivedType(tag: DW_TAG_typedef, name: "true_type", scope: !6, file: !252, line: 528, baseType: !275)
!275 = distinct !DICompositeType(tag: DW_TAG_structure_type, name: "integral_constant<bool, true>", scope: !6, file: !252, line: 504, size: 8, elements: !276, templateParams: !285, identifier: "_ZTSNSt3__117integral_constantIbLb1EEE")
!276 = !{!277, !279}
!277 = !DIDerivedType(tag: DW_TAG_member, name: "value", scope: !275, file: !252, line: 506, baseType: !278, flags: DIFlagStaticMember, extraData: i1 true)
!278 = !DIDerivedType(tag: DW_TAG_const_type, baseType: !168)
!279 = !DISubprogram(name: "operator bool", linkageName: "_ZNKSt3__117integral_constantIbLb1EEcvbEv", scope: !275, file: !252, line: 510, type: !280, isLocal: false, isDefinition: false, scopeLine: 510, flags: DIFlagPrototyped, isOptimized: false)
!280 = !DISubroutineType(types: !281)
!281 = !{!282, !283}
!282 = !DIDerivedType(tag: DW_TAG_typedef, name: "value_type", scope: !275, file: !252, line: 507, baseType: !168)
!283 = !DIDerivedType(tag: DW_TAG_pointer_type, baseType: !284, size: 64, flags: DIFlagArtificial | DIFlagObjectPointer)
!284 = !DIDerivedType(tag: DW_TAG_const_type, baseType: !275)
!285 = !{!286, !287}
!286 = !DITemplateTypeParameter(name: "_Tp", type: !168)
!287 = !DITemplateValueParameter(name: "__v", type: !168, value: i8 1)
!288 = !DISubprogram(name: "__allocate", linkageName: "_ZNSt3__116allocator_traitsINS_9allocatorIcEEE10__allocateERS2_mPKvNS_17integral_constantIbLb0EEE", scope: !174, file: !173, line: 1662, type: !289, isLocal: false, isDefinition: false, scopeLine: 1662, flags: DIFlagPrivate | DIFlagPrototyped, isOptimized: false)
!289 = !DISubroutineType(types: !290)
!290 = !{!179, !231, !172, !236, !291}
!291 = !DIDerivedType(tag: DW_TAG_typedef, name: "false_type", scope: !6, file: !252, line: 529, baseType: !292)
!292 = distinct !DICompositeType(tag: DW_TAG_structure_type, name: "integral_constant<bool, false>", scope: !6, file: !252, line: 504, size: 8, elements: !293, templateParams: !301, identifier: "_ZTSNSt3__117integral_constantIbLb0EEE")
!293 = !{!294, !295}
!294 = !DIDerivedType(tag: DW_TAG_member, name: "value", scope: !292, file: !252, line: 506, baseType: !278, flags: DIFlagStaticMember, extraData: i1 false)
!295 = !DISubprogram(name: "operator bool", linkageName: "_ZNKSt3__117integral_constantIbLb0EEcvbEv", scope: !292, file: !252, line: 510, type: !296, isLocal: false, isDefinition: false, scopeLine: 510, flags: DIFlagPrototyped, isOptimized: false)
!296 = !DISubroutineType(types: !297)
!297 = !{!298, !299}
!298 = !DIDerivedType(tag: DW_TAG_typedef, name: "value_type", scope: !292, file: !252, line: 507, baseType: !168)
!299 = !DIDerivedType(tag: DW_TAG_pointer_type, baseType: !300, size: 64, flags: DIFlagArtificial | DIFlagObjectPointer)
!300 = !DIDerivedType(tag: DW_TAG_const_type, baseType: !292)
!301 = !{!286, !302}
!302 = !DITemplateValueParameter(name: "__v", type: !168, value: i8 0)
!303 = !DISubprogram(name: "__max_size", linkageName: "_ZNSt3__116allocator_traitsINS_9allocatorIcEEE10__max_sizeENS_17integral_constantIbLb1EEERKS2_", scope: !174, file: !173, line: 1691, type: !304, isLocal: false, isDefinition: false, scopeLine: 1691, flags: DIFlagPrivate | DIFlagPrototyped, isOptimized: false)
!304 = !DISubroutineType(types: !305)
!305 = !{!172, !274, !266}
!306 = !DISubprogram(name: "__max_size", linkageName: "_ZNSt3__116allocator_traitsINS_9allocatorIcEEE10__max_sizeENS_17integral_constantIbLb0EEERKS2_", scope: !174, file: !173, line: 1694, type: !307, isLocal: false, isDefinition: false, scopeLine: 1694, flags: DIFlagPrivate | DIFlagPrototyped, isOptimized: false)
!307 = !DISubroutineType(types: !308)
!308 = !{!172, !291, !266}
!309 = !DISubprogram(name: "__select_on_container_copy_construction", linkageName: "_ZNSt3__116allocator_traitsINS_9allocatorIcEEE39__select_on_container_copy_constructionENS_17integral_constantIbLb1EEERKS2_", scope: !174, file: !173, line: 1699, type: !310, isLocal: false, isDefinition: false, scopeLine: 1699, flags: DIFlagPrivate | DIFlagPrototyped, isOptimized: false)
!310 = !DISubroutineType(types: !311)
!311 = !{!232, !274, !266}
!312 = !DISubprogram(name: "__select_on_container_copy_construction", linkageName: "_ZNSt3__116allocator_traitsINS_9allocatorIcEEE39__select_on_container_copy_constructionENS_17integral_constantIbLb0EEERKS2_", scope: !174, file: !173, line: 1703, type: !313, isLocal: false, isDefinition: false, scopeLine: 1703, flags: DIFlagPrivate | DIFlagPrototyped, isOptimized: false)
!313 = !DISubroutineType(types: !314)
!314 = !{!232, !291, !266}
!315 = !{!241}
!316 = !DIDerivedType(tag: DW_TAG_typedef, name: "type", scope: !317, file: !173, line: 1124, baseType: !320)
!317 = distinct !DICompositeType(tag: DW_TAG_structure_type, name: "__size_type<std::__1::allocator<char>, long, true>", scope: !6, file: !173, line: 1122, size: 8, elements: !182, templateParams: !318, identifier: "_ZTSNSt3__111__size_typeINS_9allocatorIcEElLb1EEE")
!318 = !{!241, !319, !167}
!319 = !DITemplateTypeParameter(name: "_DiffType", type: !55)
!320 = !DIDerivedType(tag: DW_TAG_typedef, name: "size_type", scope: !186, file: !173, line: 1723, baseType: !72)
!321 = !DIDerivedType(tag: DW_TAG_member, name: "__long_mask", scope: !154, file: !155, line: 708, baseType: !170, flags: DIFlagStaticMember, extraData: i64 1)
!322 = !DIDerivedType(tag: DW_TAG_member, name: "__r_", scope: !154, file: !155, line: 745, baseType: !323, size: 192)
!323 = distinct !DICompositeType(tag: DW_TAG_class_type, name: "__compressed_pair<std::__1::basic_string<char, std::__1::char_traits<char>, std::__1::allocator<char> >::__rep, std::__1::allocator<char> >", scope: !6, file: !173, line: 2111, size: 192, elements: !324, templateParams: !426, identifier: "_ZTSNSt3__117__compressed_pairINS_12basic_stringIcNS_11char_traitsIcEENS_9allocatorIcEEE5__repES5_EE")
!324 = !{!325, !383, !407, !411, !416, !419, !422}
!325 = !DIDerivedType(tag: DW_TAG_inheritance, scope: !323, baseType: !326)
!326 = distinct !DICompositeType(tag: DW_TAG_structure_type, name: "__compressed_pair_elem<std::__1::basic_string<char, std::__1::char_traits<char>, std::__1::allocator<char> >::__rep, 0, false>", scope: !6, file: !173, line: 2037, size: 192, elements: !327, templateParams: !379, identifier: "_ZTSNSt3__122__compressed_pair_elemINS_12basic_stringIcNS_11char_traitsIcEENS_9allocatorIcEEE5__repELi0ELb0EEE")
!327 = !{!328, !362, !366, !371}
!328 = !DIDerivedType(tag: DW_TAG_member, name: "__value_", scope: !326, file: !173, line: 2069, baseType: !329, size: 192, flags: DIFlagPrivate)
!329 = distinct !DICompositeType(tag: DW_TAG_structure_type, name: "__rep", scope: !154, file: !155, line: 735, size: 192, elements: !330, identifier: "_ZTSNSt3__112basic_stringIcNS_11char_traitsIcEENS_9allocatorIcEEE5__repE")
!330 = !{!331}
!331 = !DIDerivedType(tag: DW_TAG_member, scope: !329, file: !155, line: 737, baseType: !332, size: 192)
!332 = distinct !DICompositeType(tag: DW_TAG_union_type, scope: !329, file: !155, line: 737, size: 192, elements: !333, identifier: "_ZTSNSt3__112basic_stringIcNS_11char_traitsIcEENS_9allocatorIcEEE5__repUt_E")
!333 = !{!334, !341, !355}
!334 = !DIDerivedType(tag: DW_TAG_member, name: "__l", scope: !332, file: !155, line: 739, baseType: !335, size: 192)
!335 = distinct !DICompositeType(tag: DW_TAG_structure_type, name: "__long", scope: !154, file: !155, line: 696, size: 192, elements: !336, identifier: "_ZTSNSt3__112basic_stringIcNS_11char_traitsIcEENS_9allocatorIcEEE6__longE")
!336 = !{!337, !338, !339}
!337 = !DIDerivedType(tag: DW_TAG_member, name: "__cap_", scope: !335, file: !155, line: 698, baseType: !171, size: 64)
!338 = !DIDerivedType(tag: DW_TAG_member, name: "__size_", scope: !335, file: !155, line: 699, baseType: !171, size: 64, offset: 64)
!339 = !DIDerivedType(tag: DW_TAG_member, name: "__data_", scope: !335, file: !155, line: 700, baseType: !340, size: 64, offset: 128)
!340 = !DIDerivedType(tag: DW_TAG_typedef, name: "pointer", scope: !154, file: !155, line: 644, baseType: !179)
!341 = !DIDerivedType(tag: DW_TAG_member, name: "__s", scope: !332, file: !155, line: 740, baseType: !342, size: 192)
!342 = distinct !DICompositeType(tag: DW_TAG_structure_type, name: "__short", scope: !154, file: !155, line: 714, size: 192, elements: !343, identifier: "_ZTSNSt3__112basic_stringIcNS_11char_traitsIcEENS_9allocatorIcEEE7__shortE")
!343 = !{!344, !351}
!344 = !DIDerivedType(tag: DW_TAG_member, scope: !342, file: !155, line: 716, baseType: !345, size: 8)
!345 = distinct !DICompositeType(tag: DW_TAG_union_type, scope: !342, file: !155, line: 716, size: 8, elements: !346, identifier: "_ZTSNSt3__112basic_stringIcNS_11char_traitsIcEENS_9allocatorIcEEE7__shortUt_E")
!346 = !{!347, !349}
!347 = !DIDerivedType(tag: DW_TAG_member, name: "__size_", scope: !345, file: !155, line: 718, baseType: !348, size: 8)
!348 = !DIBasicType(name: "unsigned char", size: 8, encoding: DW_ATE_unsigned_char)
!349 = !DIDerivedType(tag: DW_TAG_member, name: "__lx", scope: !345, file: !155, line: 719, baseType: !350, size: 8)
!350 = !DIDerivedType(tag: DW_TAG_typedef, name: "value_type", scope: !154, file: !155, line: 637, baseType: !146)
!351 = !DIDerivedType(tag: DW_TAG_member, name: "__data_", scope: !342, file: !155, line: 721, baseType: !352, size: 184, offset: 8)
!352 = !DICompositeType(tag: DW_TAG_array_type, baseType: !350, size: 184, elements: !353)
!353 = !{!354}
!354 = !DISubrange(count: 23)
!355 = !DIDerivedType(tag: DW_TAG_member, name: "__r", scope: !332, file: !155, line: 741, baseType: !356, size: 192)
!356 = distinct !DICompositeType(tag: DW_TAG_structure_type, name: "__raw", scope: !154, file: !155, line: 730, size: 192, elements: !357, identifier: "_ZTSNSt3__112basic_stringIcNS_11char_traitsIcEENS_9allocatorIcEEE5__rawE")
!357 = !{!358}
!358 = !DIDerivedType(tag: DW_TAG_member, name: "__words", scope: !356, file: !155, line: 732, baseType: !359, size: 192)
!359 = !DICompositeType(tag: DW_TAG_array_type, baseType: !171, size: 192, elements: !360)
!360 = !{!361}
!361 = !DISubrange(count: 3)
!362 = !DISubprogram(name: "__compressed_pair_elem", scope: !326, file: !173, line: 2043, type: !363, isLocal: false, isDefinition: false, scopeLine: 2043, flags: DIFlagPrototyped, isOptimized: false)
!363 = !DISubroutineType(types: !364)
!364 = !{null, !365}
!365 = !DIDerivedType(tag: DW_TAG_pointer_type, baseType: !326, size: 64, flags: DIFlagArtificial | DIFlagObjectPointer)
!366 = !DISubprogram(name: "__get", linkageName: "_ZNSt3__122__compressed_pair_elemINS_12basic_stringIcNS_11char_traitsIcEENS_9allocatorIcEEE5__repELi0ELb0EE5__getEv", scope: !326, file: !173, line: 2064, type: !367, isLocal: false, isDefinition: false, scopeLine: 2064, flags: DIFlagPrototyped, isOptimized: false)
!367 = !DISubroutineType(types: !368)
!368 = !{!369, !365}
!369 = !DIDerivedType(tag: DW_TAG_typedef, name: "reference", scope: !326, file: !173, line: 2039, baseType: !370)
!370 = !DIDerivedType(tag: DW_TAG_reference_type, baseType: !329, size: 64)
!371 = !DISubprogram(name: "__get", linkageName: "_ZNKSt3__122__compressed_pair_elemINS_12basic_stringIcNS_11char_traitsIcEENS_9allocatorIcEEE5__repELi0ELb0EE5__getEv", scope: !326, file: !173, line: 2066, type: !372, isLocal: false, isDefinition: false, scopeLine: 2066, flags: DIFlagPrototyped, isOptimized: false)
!372 = !DISubroutineType(types: !373)
!373 = !{!374, !377}
!374 = !DIDerivedType(tag: DW_TAG_typedef, name: "const_reference", scope: !326, file: !173, line: 2040, baseType: !375)
!375 = !DIDerivedType(tag: DW_TAG_reference_type, baseType: !376, size: 64)
!376 = !DIDerivedType(tag: DW_TAG_const_type, baseType: !329)
!377 = !DIDerivedType(tag: DW_TAG_pointer_type, baseType: !378, size: 64, flags: DIFlagArtificial | DIFlagObjectPointer)
!378 = !DIDerivedType(tag: DW_TAG_const_type, baseType: !326)
!379 = !{!380, !381, !382}
!380 = !DITemplateTypeParameter(name: "_Tp", type: !329)
!381 = !DITemplateValueParameter(name: "_Idx", type: !14, value: i32 0)
!382 = !DITemplateValueParameter(name: "_CanBeEmptyBase", type: !168, value: i8 0)
!383 = !DIDerivedType(tag: DW_TAG_inheritance, scope: !323, baseType: !384)
!384 = distinct !DICompositeType(tag: DW_TAG_structure_type, name: "__compressed_pair_elem<std::__1::allocator<char>, 1, true>", scope: !6, file: !173, line: 2073, size: 8, elements: !385, templateParams: !403, identifier: "_ZTSNSt3__122__compressed_pair_elemINS_9allocatorIcEELi1ELb1EEE")
!385 = !{!386, !387, !391, !396}
!386 = !DIDerivedType(tag: DW_TAG_inheritance, scope: !384, baseType: !186, flags: DIFlagPrivate)
!387 = !DISubprogram(name: "__compressed_pair_elem", scope: !384, file: !173, line: 2080, type: !388, isLocal: false, isDefinition: false, scopeLine: 2080, flags: DIFlagPrototyped, isOptimized: false)
!388 = !DISubroutineType(types: !389)
!389 = !{null, !390}
!390 = !DIDerivedType(tag: DW_TAG_pointer_type, baseType: !384, size: 64, flags: DIFlagArtificial | DIFlagObjectPointer)
!391 = !DISubprogram(name: "__get", linkageName: "_ZNSt3__122__compressed_pair_elemINS_9allocatorIcEELi1ELb1EE5__getEv", scope: !384, file: !173, line: 2102, type: !392, isLocal: false, isDefinition: false, scopeLine: 2102, flags: DIFlagPrototyped, isOptimized: false)
!392 = !DISubroutineType(types: !393)
!393 = !{!394, !390}
!394 = !DIDerivedType(tag: DW_TAG_typedef, name: "reference", scope: !384, file: !173, line: 2075, baseType: !395)
!395 = !DIDerivedType(tag: DW_TAG_reference_type, baseType: !186, size: 64)
!396 = !DISubprogram(name: "__get", linkageName: "_ZNKSt3__122__compressed_pair_elemINS_9allocatorIcEELi1ELb1EE5__getEv", scope: !384, file: !173, line: 2104, type: !397, isLocal: false, isDefinition: false, scopeLine: 2104, flags: DIFlagPrototyped, isOptimized: false)
!397 = !DISubroutineType(types: !398)
!398 = !{!399, !401}
!399 = !DIDerivedType(tag: DW_TAG_typedef, name: "const_reference", scope: !384, file: !173, line: 2076, baseType: !400)
!400 = !DIDerivedType(tag: DW_TAG_reference_type, baseType: !198, size: 64)
!401 = !DIDerivedType(tag: DW_TAG_pointer_type, baseType: !402, size: 64, flags: DIFlagArtificial | DIFlagObjectPointer)
!402 = !DIDerivedType(tag: DW_TAG_const_type, baseType: !384)
!403 = !{!404, !405, !406}
!404 = !DITemplateTypeParameter(name: "_Tp", type: !186)
!405 = !DITemplateValueParameter(name: "_Idx", type: !14, value: i32 1)
!406 = !DITemplateValueParameter(name: "_CanBeEmptyBase", type: !168, value: i8 1)
!407 = !DISubprogram(name: "first", linkageName: "_ZNSt3__117__compressed_pairINS_12basic_stringIcNS_11char_traitsIcEENS_9allocatorIcEEE5__repES5_E5firstEv", scope: !323, file: !173, line: 2179, type: !408, isLocal: false, isDefinition: false, scopeLine: 2179, flags: DIFlagPublic | DIFlagPrototyped, isOptimized: false)
!408 = !DISubroutineType(types: !409)
!409 = !{!369, !410}
!410 = !DIDerivedType(tag: DW_TAG_pointer_type, baseType: !323, size: 64, flags: DIFlagArtificial | DIFlagObjectPointer)
!411 = !DISubprogram(name: "first", linkageName: "_ZNKSt3__117__compressed_pairINS_12basic_stringIcNS_11char_traitsIcEENS_9allocatorIcEEE5__repES5_E5firstEv", scope: !323, file: !173, line: 2184, type: !412, isLocal: false, isDefinition: false, scopeLine: 2184, flags: DIFlagPublic | DIFlagPrototyped, isOptimized: false)
!412 = !DISubroutineType(types: !413)
!413 = !{!374, !414}
!414 = !DIDerivedType(tag: DW_TAG_pointer_type, baseType: !415, size: 64, flags: DIFlagArtificial | DIFlagObjectPointer)
!415 = !DIDerivedType(tag: DW_TAG_const_type, baseType: !323)
!416 = !DISubprogram(name: "second", linkageName: "_ZNSt3__117__compressed_pairINS_12basic_stringIcNS_11char_traitsIcEENS_9allocatorIcEEE5__repES5_E6secondEv", scope: !323, file: !173, line: 2189, type: !417, isLocal: false, isDefinition: false, scopeLine: 2189, flags: DIFlagPublic | DIFlagPrototyped, isOptimized: false)
!417 = !DISubroutineType(types: !418)
!418 = !{!394, !410}
!419 = !DISubprogram(name: "second", linkageName: "_ZNKSt3__117__compressed_pairINS_12basic_stringIcNS_11char_traitsIcEENS_9allocatorIcEEE5__repES5_E6secondEv", scope: !323, file: !173, line: 2194, type: !420, isLocal: false, isDefinition: false, scopeLine: 2194, flags: DIFlagPublic | DIFlagPrototyped, isOptimized: false)
!420 = !DISubroutineType(types: !421)
!421 = !{!399, !414}
!422 = !DISubprogram(name: "swap", linkageName: "_ZNSt3__117__compressed_pairINS_12basic_stringIcNS_11char_traitsIcEENS_9allocatorIcEEE5__repES5_E4swapERS8_", scope: !323, file: !173, line: 2199, type: !423, isLocal: false, isDefinition: false, scopeLine: 2199, flags: DIFlagPublic | DIFlagPrototyped, isOptimized: false)
!423 = !DISubroutineType(types: !424)
!424 = !{null, !410, !425}
!425 = !DIDerivedType(tag: DW_TAG_reference_type, baseType: !323, size: 64)
!426 = !{!427, !428}
!427 = !DITemplateTypeParameter(name: "_T1", type: !329)
!428 = !DITemplateTypeParameter(name: "_T2", type: !186)
!429 = !DIDerivedType(tag: DW_TAG_member, name: "npos", scope: !154, file: !155, line: 748, baseType: !170, flags: DIFlagPublic | DIFlagStaticMember, extraData: i64 -1)
!430 = !DISubprogram(name: "basic_string", scope: !154, file: !155, line: 750, type: !431, isLocal: false, isDefinition: false, scopeLine: 750, flags: DIFlagPublic | DIFlagPrototyped, isOptimized: false)
!431 = !DISubroutineType(types: !432)
!432 = !{null, !433}
!433 = !DIDerivedType(tag: DW_TAG_pointer_type, baseType: !154, size: 64, flags: DIFlagArtificial | DIFlagObjectPointer)
!434 = !DISubprogram(name: "basic_string", scope: !154, file: !155, line: 753, type: !435, isLocal: false, isDefinition: false, scopeLine: 753, flags: DIFlagPublic | DIFlagExplicit | DIFlagPrototyped, isOptimized: false)
!435 = !DISubroutineType(types: !436)
!436 = !{null, !433, !437}
!437 = !DIDerivedType(tag: DW_TAG_reference_type, baseType: !438, size: 64)
!438 = !DIDerivedType(tag: DW_TAG_const_type, baseType: !439)
!439 = !DIDerivedType(tag: DW_TAG_typedef, name: "allocator_type", scope: !154, file: !155, line: 638, baseType: !186)
!440 = !DISubprogram(name: "basic_string", scope: !154, file: !155, line: 760, type: !441, isLocal: false, isDefinition: false, scopeLine: 760, flags: DIFlagPublic | DIFlagPrototyped, isOptimized: false)
!441 = !DISubroutineType(types: !442)
!442 = !{null, !433, !443}
!443 = !DIDerivedType(tag: DW_TAG_reference_type, baseType: !444, size: 64)
!444 = !DIDerivedType(tag: DW_TAG_const_type, baseType: !154)
!445 = !DISubprogram(name: "basic_string", scope: !154, file: !155, line: 761, type: !446, isLocal: false, isDefinition: false, scopeLine: 761, flags: DIFlagPublic | DIFlagPrototyped, isOptimized: false)
!446 = !DISubroutineType(types: !447)
!447 = !{null, !433, !443, !437}
!448 = !DISubprogram(name: "basic_string", scope: !154, file: !155, line: 765, type: !449, isLocal: false, isDefinition: false, scopeLine: 765, flags: DIFlagPublic | DIFlagPrototyped, isOptimized: false)
!449 = !DISubroutineType(types: !450)
!450 = !{null, !433, !451}
!451 = !DIDerivedType(tag: DW_TAG_rvalue_reference_type, baseType: !154, size: 64)
!452 = !DISubprogram(name: "basic_string", scope: !154, file: !155, line: 773, type: !453, isLocal: false, isDefinition: false, scopeLine: 773, flags: DIFlagPublic | DIFlagPrototyped, isOptimized: false)
!453 = !DISubroutineType(types: !454)
!454 = !{null, !433, !451, !437}
!455 = !DISubprogram(name: "basic_string", scope: !154, file: !155, line: 775, type: !456, isLocal: false, isDefinition: false, scopeLine: 775, flags: DIFlagPublic | DIFlagPrototyped, isOptimized: false)
!456 = !DISubroutineType(types: !457)
!457 = !{null, !433, !144}
!458 = !DISubprogram(name: "basic_string", scope: !154, file: !155, line: 777, type: !459, isLocal: false, isDefinition: false, scopeLine: 777, flags: DIFlagPublic | DIFlagPrototyped, isOptimized: false)
!459 = !DISubroutineType(types: !460)
!460 = !{null, !433, !144, !400}
!461 = !DISubprogram(name: "basic_string", scope: !154, file: !155, line: 779, type: !462, isLocal: false, isDefinition: false, scopeLine: 779, flags: DIFlagPublic | DIFlagPrototyped, isOptimized: false)
!462 = !DISubroutineType(types: !463)
!463 = !{null, !433, !144, !171}
!464 = !DISubprogram(name: "basic_string", scope: !154, file: !155, line: 781, type: !465, isLocal: false, isDefinition: false, scopeLine: 781, flags: DIFlagPublic | DIFlagPrototyped, isOptimized: false)
!465 = !DISubroutineType(types: !466)
!466 = !{null, !433, !144, !171, !400}
!467 = !DISubprogram(name: "basic_string", scope: !154, file: !155, line: 783, type: !468, isLocal: false, isDefinition: false, scopeLine: 783, flags: DIFlagPublic | DIFlagPrototyped, isOptimized: false)
!468 = !DISubroutineType(types: !469)
!469 = !{null, !433, !171, !146}
!470 = !DISubprogram(name: "basic_string", scope: !154, file: !155, line: 785, type: !471, isLocal: false, isDefinition: false, scopeLine: 785, flags: DIFlagPublic | DIFlagPrototyped, isOptimized: false)
!471 = !DISubroutineType(types: !472)
!472 = !{null, !433, !171, !146, !400}
!473 = !DISubprogram(name: "basic_string", scope: !154, file: !155, line: 786, type: !474, isLocal: false, isDefinition: false, scopeLine: 786, flags: DIFlagPublic | DIFlagPrototyped, isOptimized: false)
!474 = !DISubroutineType(types: !475)
!475 = !{null, !433, !443, !171, !171, !400}
!476 = !DISubprogram(name: "basic_string", scope: !154, file: !155, line: 789, type: !477, isLocal: false, isDefinition: false, scopeLine: 789, flags: DIFlagPublic | DIFlagPrototyped, isOptimized: false)
!477 = !DISubroutineType(types: !478)
!478 = !{null, !433, !443, !171, !400}
!479 = !DISubprogram(name: "basic_string", scope: !154, file: !155, line: 797, type: !480, isLocal: false, isDefinition: false, scopeLine: 797, flags: DIFlagPublic | DIFlagExplicit | DIFlagPrototyped, isOptimized: false)
!480 = !DISubroutineType(types: !481)
!481 = !{null, !433, !482}
!482 = !DIDerivedType(tag: DW_TAG_typedef, name: "__self_view", scope: !154, file: !155, line: 635, baseType: !483)
!483 = distinct !DICompositeType(tag: DW_TAG_class_type, name: "basic_string_view<char, std::__1::char_traits<char> >", scope: !6, file: !484, line: 187, size: 128, elements: !485, templateParams: !615, identifier: "_ZTSNSt3__117basic_string_viewIcNS_11char_traitsIcEEEE")
!484 = !DIFile(filename: "/Applications/Xcode.app/Contents/Developer/Toolchains/XcodeDefault.xctoolchain/usr/include/c++/v1/string_view", directory: "/Users/ejiang/Projects/lls/ac/llfiles")
!485 = !{!486, !489, !493, !494, !498, !503, !507, !510, !513, !519, !520, !521, !522, !528, !529, !530, !531, !534, !535, !536, !539, !543, !544, !547, !548, !551, !554, !555, !558, !562, !565, !568, !571, !574, !577, !580, !583, !586, !589, !592, !595, !596, !597, !598, !599, !600, !601, !602, !603, !604, !605, !606, !607, !608, !609, !610, !611, !612, !613, !614}
!486 = !DIDerivedType(tag: DW_TAG_member, name: "npos", scope: !483, file: !484, line: 202, baseType: !487, flags: DIFlagPublic | DIFlagStaticMember, extraData: i64 -1)
!487 = !DIDerivedType(tag: DW_TAG_const_type, baseType: !488)
!488 = !DIDerivedType(tag: DW_TAG_typedef, name: "size_type", file: !484, line: 200, baseType: !72)
!489 = !DIDerivedType(tag: DW_TAG_member, name: "__data", scope: !483, file: !484, line: 569, baseType: !490, size: 64)
!490 = !DIDerivedType(tag: DW_TAG_pointer_type, baseType: !491, size: 64)
!491 = !DIDerivedType(tag: DW_TAG_const_type, baseType: !492)
!492 = !DIDerivedType(tag: DW_TAG_typedef, name: "value_type", scope: !483, file: !484, line: 191, baseType: !146)
!493 = !DIDerivedType(tag: DW_TAG_member, name: "__size", scope: !483, file: !484, line: 570, baseType: !488, size: 64, offset: 64)
!494 = !DISubprogram(name: "basic_string_view", scope: !483, file: !484, line: 210, type: !495, isLocal: false, isDefinition: false, scopeLine: 210, flags: DIFlagPublic | DIFlagPrototyped, isOptimized: false)
!495 = !DISubroutineType(types: !496)
!496 = !{null, !497}
!497 = !DIDerivedType(tag: DW_TAG_pointer_type, baseType: !483, size: 64, flags: DIFlagArtificial | DIFlagObjectPointer)
!498 = !DISubprogram(name: "basic_string_view", scope: !483, file: !484, line: 213, type: !499, isLocal: false, isDefinition: false, scopeLine: 213, flags: DIFlagPublic | DIFlagPrototyped, isOptimized: false)
!499 = !DISubroutineType(types: !500)
!500 = !{null, !497, !501}
!501 = !DIDerivedType(tag: DW_TAG_reference_type, baseType: !502, size: 64)
!502 = !DIDerivedType(tag: DW_TAG_const_type, baseType: !483)
!503 = !DISubprogram(name: "operator=", linkageName: "_ZNSt3__117basic_string_viewIcNS_11char_traitsIcEEEaSERKS3_", scope: !483, file: !484, line: 216, type: !504, isLocal: false, isDefinition: false, scopeLine: 216, flags: DIFlagPublic | DIFlagPrototyped, isOptimized: false)
!504 = !DISubroutineType(types: !505)
!505 = !{!506, !497, !501}
!506 = !DIDerivedType(tag: DW_TAG_reference_type, baseType: !483, size: 64)
!507 = !DISubprogram(name: "basic_string_view", scope: !483, file: !484, line: 219, type: !508, isLocal: false, isDefinition: false, scopeLine: 219, flags: DIFlagPublic | DIFlagPrototyped, isOptimized: false)
!508 = !DISubroutineType(types: !509)
!509 = !{null, !497, !144, !488}
!510 = !DISubprogram(name: "basic_string_view", scope: !483, file: !484, line: 228, type: !511, isLocal: false, isDefinition: false, scopeLine: 228, flags: DIFlagPublic | DIFlagPrototyped, isOptimized: false)
!511 = !DISubroutineType(types: !512)
!512 = !{null, !497, !144}
!513 = !DISubprogram(name: "begin", linkageName: "_ZNKSt3__117basic_string_viewIcNS_11char_traitsIcEEE5beginEv", scope: !483, file: !484, line: 233, type: !514, isLocal: false, isDefinition: false, scopeLine: 233, flags: DIFlagPublic | DIFlagPrototyped, isOptimized: false)
!514 = !DISubroutineType(types: !515)
!515 = !{!516, !518}
!516 = !DIDerivedType(tag: DW_TAG_typedef, name: "const_iterator", scope: !483, file: !484, line: 196, baseType: !517)
!517 = !DIDerivedType(tag: DW_TAG_typedef, name: "const_pointer", scope: !483, file: !484, line: 193, baseType: !144)
!518 = !DIDerivedType(tag: DW_TAG_pointer_type, baseType: !502, size: 64, flags: DIFlagArtificial | DIFlagObjectPointer)
!519 = !DISubprogram(name: "end", linkageName: "_ZNKSt3__117basic_string_viewIcNS_11char_traitsIcEEE3endEv", scope: !483, file: !484, line: 236, type: !514, isLocal: false, isDefinition: false, scopeLine: 236, flags: DIFlagPublic | DIFlagPrototyped, isOptimized: false)
!520 = !DISubprogram(name: "cbegin", linkageName: "_ZNKSt3__117basic_string_viewIcNS_11char_traitsIcEEE6cbeginEv", scope: !483, file: !484, line: 239, type: !514, isLocal: false, isDefinition: false, scopeLine: 239, flags: DIFlagPublic | DIFlagPrototyped, isOptimized: false)
!521 = !DISubprogram(name: "cend", linkageName: "_ZNKSt3__117basic_string_viewIcNS_11char_traitsIcEEE4cendEv", scope: !483, file: !484, line: 242, type: !514, isLocal: false, isDefinition: false, scopeLine: 242, flags: DIFlagPublic | DIFlagPrototyped, isOptimized: false)
!522 = !DISubprogram(name: "rbegin", linkageName: "_ZNKSt3__117basic_string_viewIcNS_11char_traitsIcEEE6rbeginEv", scope: !483, file: !484, line: 245, type: !523, isLocal: false, isDefinition: false, scopeLine: 245, flags: DIFlagPublic | DIFlagPrototyped, isOptimized: false)
!523 = !DISubroutineType(types: !524)
!524 = !{!525, !518}
!525 = !DIDerivedType(tag: DW_TAG_typedef, name: "const_reverse_iterator", scope: !483, file: !484, line: 198, baseType: !526)
!526 = !DICompositeType(tag: DW_TAG_class_type, name: "reverse_iterator<const char *>", scope: !6, file: !527, line: 636, flags: DIFlagFwdDecl, identifier: "_ZTSNSt3__116reverse_iteratorIPKcEE")
!527 = !DIFile(filename: "/Applications/Xcode.app/Contents/Developer/Toolchains/XcodeDefault.xctoolchain/usr/include/c++/v1/iterator", directory: "/Users/ejiang/Projects/lls/ac/llfiles")
!528 = !DISubprogram(name: "rend", linkageName: "_ZNKSt3__117basic_string_viewIcNS_11char_traitsIcEEE4rendEv", scope: !483, file: !484, line: 248, type: !523, isLocal: false, isDefinition: false, scopeLine: 248, flags: DIFlagPublic | DIFlagPrototyped, isOptimized: false)
!529 = !DISubprogram(name: "crbegin", linkageName: "_ZNKSt3__117basic_string_viewIcNS_11char_traitsIcEEE7crbeginEv", scope: !483, file: !484, line: 251, type: !523, isLocal: false, isDefinition: false, scopeLine: 251, flags: DIFlagPublic | DIFlagPrototyped, isOptimized: false)
!530 = !DISubprogram(name: "crend", linkageName: "_ZNKSt3__117basic_string_viewIcNS_11char_traitsIcEEE5crendEv", scope: !483, file: !484, line: 254, type: !523, isLocal: false, isDefinition: false, scopeLine: 254, flags: DIFlagPublic | DIFlagPrototyped, isOptimized: false)
!531 = !DISubprogram(name: "size", linkageName: "_ZNKSt3__117basic_string_viewIcNS_11char_traitsIcEEE4sizeEv", scope: !483, file: !484, line: 258, type: !532, isLocal: false, isDefinition: false, scopeLine: 258, flags: DIFlagPublic | DIFlagPrototyped, isOptimized: false)
!532 = !DISubroutineType(types: !533)
!533 = !{!488, !518}
!534 = !DISubprogram(name: "length", linkageName: "_ZNKSt3__117basic_string_viewIcNS_11char_traitsIcEEE6lengthEv", scope: !483, file: !484, line: 261, type: !532, isLocal: false, isDefinition: false, scopeLine: 261, flags: DIFlagPublic | DIFlagPrototyped, isOptimized: false)
!535 = !DISubprogram(name: "max_size", linkageName: "_ZNKSt3__117basic_string_viewIcNS_11char_traitsIcEEE8max_sizeEv", scope: !483, file: !484, line: 264, type: !532, isLocal: false, isDefinition: false, scopeLine: 264, flags: DIFlagPublic | DIFlagPrototyped, isOptimized: false)
!536 = !DISubprogram(name: "empty", linkageName: "_ZNKSt3__117basic_string_viewIcNS_11char_traitsIcEEE5emptyEv", scope: !483, file: !484, line: 267, type: !537, isLocal: false, isDefinition: false, scopeLine: 267, flags: DIFlagPublic | DIFlagPrototyped, isOptimized: false)
!537 = !DISubroutineType(types: !538)
!538 = !{!168, !518}
!539 = !DISubprogram(name: "operator[]", linkageName: "_ZNKSt3__117basic_string_viewIcNS_11char_traitsIcEEEixEm", scope: !483, file: !484, line: 271, type: !540, isLocal: false, isDefinition: false, scopeLine: 271, flags: DIFlagPublic | DIFlagPrototyped, isOptimized: false)
!540 = !DISubroutineType(types: !541)
!541 = !{!542, !518, !488}
!542 = !DIDerivedType(tag: DW_TAG_typedef, name: "const_reference", scope: !483, file: !484, line: 195, baseType: !206)
!543 = !DISubprogram(name: "at", linkageName: "_ZNKSt3__117basic_string_viewIcNS_11char_traitsIcEEE2atEm", scope: !483, file: !484, line: 274, type: !540, isLocal: false, isDefinition: false, scopeLine: 274, flags: DIFlagPublic | DIFlagPrototyped, isOptimized: false)
!544 = !DISubprogram(name: "front", linkageName: "_ZNKSt3__117basic_string_viewIcNS_11char_traitsIcEEE5frontEv", scope: !483, file: !484, line: 282, type: !545, isLocal: false, isDefinition: false, scopeLine: 282, flags: DIFlagPublic | DIFlagPrototyped, isOptimized: false)
!545 = !DISubroutineType(types: !546)
!546 = !{!542, !518}
!547 = !DISubprogram(name: "back", linkageName: "_ZNKSt3__117basic_string_viewIcNS_11char_traitsIcEEE4backEv", scope: !483, file: !484, line: 288, type: !545, isLocal: false, isDefinition: false, scopeLine: 288, flags: DIFlagPublic | DIFlagPrototyped, isOptimized: false)
!548 = !DISubprogram(name: "data", linkageName: "_ZNKSt3__117basic_string_viewIcNS_11char_traitsIcEEE4dataEv", scope: !483, file: !484, line: 294, type: !549, isLocal: false, isDefinition: false, scopeLine: 294, flags: DIFlagPublic | DIFlagPrototyped, isOptimized: false)
!549 = !DISubroutineType(types: !550)
!550 = !{!517, !518}
!551 = !DISubprogram(name: "remove_prefix", linkageName: "_ZNSt3__117basic_string_viewIcNS_11char_traitsIcEEE13remove_prefixEm", scope: !483, file: !484, line: 298, type: !552, isLocal: false, isDefinition: false, scopeLine: 298, flags: DIFlagPublic | DIFlagPrototyped, isOptimized: false)
!552 = !DISubroutineType(types: !553)
!553 = !{null, !497, !488}
!554 = !DISubprogram(name: "remove_suffix", linkageName: "_ZNSt3__117basic_string_viewIcNS_11char_traitsIcEEE13remove_suffixEm", scope: !483, file: !484, line: 306, type: !552, isLocal: false, isDefinition: false, scopeLine: 306, flags: DIFlagPublic | DIFlagPrototyped, isOptimized: false)
!555 = !DISubprogram(name: "swap", linkageName: "_ZNSt3__117basic_string_viewIcNS_11char_traitsIcEEE4swapERS3_", scope: !483, file: !484, line: 313, type: !556, isLocal: false, isDefinition: false, scopeLine: 313, flags: DIFlagPublic | DIFlagPrototyped, isOptimized: false)
!556 = !DISubroutineType(types: !557)
!557 = !{null, !497, !506}
!558 = !DISubprogram(name: "copy", linkageName: "_ZNKSt3__117basic_string_viewIcNS_11char_traitsIcEEE4copyEPcmm", scope: !483, file: !484, line: 325, type: !559, isLocal: false, isDefinition: false, scopeLine: 325, flags: DIFlagPublic | DIFlagPrototyped, isOptimized: false)
!559 = !DISubroutineType(types: !560)
!560 = !{!561, !518, !196, !488, !488}
!561 = !DIDerivedType(tag: DW_TAG_typedef, name: "size_type", scope: !483, file: !484, line: 200, baseType: !72)
!562 = !DISubprogram(name: "substr", linkageName: "_ZNKSt3__117basic_string_viewIcNS_11char_traitsIcEEE6substrEmm", scope: !483, file: !484, line: 335, type: !563, isLocal: false, isDefinition: false, scopeLine: 335, flags: DIFlagPublic | DIFlagPrototyped, isOptimized: false)
!563 = !DISubroutineType(types: !564)
!564 = !{!483, !518, !488, !488}
!565 = !DISubprogram(name: "compare", linkageName: "_ZNKSt3__117basic_string_viewIcNS_11char_traitsIcEEE7compareES3_", scope: !483, file: !484, line: 342, type: !566, isLocal: false, isDefinition: false, scopeLine: 342, flags: DIFlagPublic | DIFlagPrototyped, isOptimized: false)
!566 = !DISubroutineType(types: !567)
!567 = !{!14, !518, !483}
!568 = !DISubprogram(name: "compare", linkageName: "_ZNKSt3__117basic_string_viewIcNS_11char_traitsIcEEE7compareEmmS3_", scope: !483, file: !484, line: 352, type: !569, isLocal: false, isDefinition: false, scopeLine: 352, flags: DIFlagPublic | DIFlagPrototyped, isOptimized: false)
!569 = !DISubroutineType(types: !570)
!570 = !{!14, !518, !488, !488, !483}
!571 = !DISubprogram(name: "compare", linkageName: "_ZNKSt3__117basic_string_viewIcNS_11char_traitsIcEEE7compareEmmS3_mm", scope: !483, file: !484, line: 358, type: !572, isLocal: false, isDefinition: false, scopeLine: 358, flags: DIFlagPublic | DIFlagPrototyped, isOptimized: false)
!572 = !DISubroutineType(types: !573)
!573 = !{!14, !518, !488, !488, !483, !488, !488}
!574 = !DISubprogram(name: "compare", linkageName: "_ZNKSt3__117basic_string_viewIcNS_11char_traitsIcEEE7compareEPKc", scope: !483, file: !484, line: 365, type: !575, isLocal: false, isDefinition: false, scopeLine: 365, flags: DIFlagPublic | DIFlagPrototyped, isOptimized: false)
!575 = !DISubroutineType(types: !576)
!576 = !{!14, !518, !144}
!577 = !DISubprogram(name: "compare", linkageName: "_ZNKSt3__117basic_string_viewIcNS_11char_traitsIcEEE7compareEmmPKc", scope: !483, file: !484, line: 371, type: !578, isLocal: false, isDefinition: false, scopeLine: 371, flags: DIFlagPublic | DIFlagPrototyped, isOptimized: false)
!578 = !DISubroutineType(types: !579)
!579 = !{!14, !518, !488, !488, !144}
!580 = !DISubprogram(name: "compare", linkageName: "_ZNKSt3__117basic_string_viewIcNS_11char_traitsIcEEE7compareEmmPKcm", scope: !483, file: !484, line: 377, type: !581, isLocal: false, isDefinition: false, scopeLine: 377, flags: DIFlagPublic | DIFlagPrototyped, isOptimized: false)
!581 = !DISubroutineType(types: !582)
!582 = !{!14, !518, !488, !488, !144, !488}
!583 = !DISubprogram(name: "find", linkageName: "_ZNKSt3__117basic_string_viewIcNS_11char_traitsIcEEE4findES3_m", scope: !483, file: !484, line: 384, type: !584, isLocal: false, isDefinition: false, scopeLine: 384, flags: DIFlagPublic | DIFlagPrototyped, isOptimized: false)
!584 = !DISubroutineType(types: !585)
!585 = !{!561, !518, !483, !488}
!586 = !DISubprogram(name: "find", linkageName: "_ZNKSt3__117basic_string_viewIcNS_11char_traitsIcEEE4findEcm", scope: !483, file: !484, line: 392, type: !587, isLocal: false, isDefinition: false, scopeLine: 392, flags: DIFlagPublic | DIFlagPrototyped, isOptimized: false)
!587 = !DISubroutineType(types: !588)
!588 = !{!561, !518, !146, !488}
!589 = !DISubprogram(name: "find", linkageName: "_ZNKSt3__117basic_string_viewIcNS_11char_traitsIcEEE4findEPKcmm", scope: !483, file: !484, line: 399, type: !590, isLocal: false, isDefinition: false, scopeLine: 399, flags: DIFlagPublic | DIFlagPrototyped, isOptimized: false)
!590 = !DISubroutineType(types: !591)
!591 = !{!561, !518, !144, !488, !488}
!592 = !DISubprogram(name: "find", linkageName: "_ZNKSt3__117basic_string_viewIcNS_11char_traitsIcEEE4findEPKcm", scope: !483, file: !484, line: 407, type: !593, isLocal: false, isDefinition: false, scopeLine: 407, flags: DIFlagPublic | DIFlagPrototyped, isOptimized: false)
!593 = !DISubroutineType(types: !594)
!594 = !{!561, !518, !144, !488}
!595 = !DISubprogram(name: "rfind", linkageName: "_ZNKSt3__117basic_string_viewIcNS_11char_traitsIcEEE5rfindES3_m", scope: !483, file: !484, line: 416, type: !584, isLocal: false, isDefinition: false, scopeLine: 416, flags: DIFlagPublic | DIFlagPrototyped, isOptimized: false)
!596 = !DISubprogram(name: "rfind", linkageName: "_ZNKSt3__117basic_string_viewIcNS_11char_traitsIcEEE5rfindEcm", scope: !483, file: !484, line: 424, type: !587, isLocal: false, isDefinition: false, scopeLine: 424, flags: DIFlagPublic | DIFlagPrototyped, isOptimized: false)
!597 = !DISubprogram(name: "rfind", linkageName: "_ZNKSt3__117basic_string_viewIcNS_11char_traitsIcEEE5rfindEPKcmm", scope: !483, file: !484, line: 431, type: !590, isLocal: false, isDefinition: false, scopeLine: 431, flags: DIFlagPublic | DIFlagPrototyped, isOptimized: false)
!598 = !DISubprogram(name: "rfind", linkageName: "_ZNKSt3__117basic_string_viewIcNS_11char_traitsIcEEE5rfindEPKcm", scope: !483, file: !484, line: 439, type: !593, isLocal: false, isDefinition: false, scopeLine: 439, flags: DIFlagPublic | DIFlagPrototyped, isOptimized: false)
!599 = !DISubprogram(name: "find_first_of", linkageName: "_ZNKSt3__117basic_string_viewIcNS_11char_traitsIcEEE13find_first_ofES3_m", scope: !483, file: !484, line: 448, type: !584, isLocal: false, isDefinition: false, scopeLine: 448, flags: DIFlagPublic | DIFlagPrototyped, isOptimized: false)
!600 = !DISubprogram(name: "find_first_of", linkageName: "_ZNKSt3__117basic_string_viewIcNS_11char_traitsIcEEE13find_first_ofEcm", scope: !483, file: !484, line: 456, type: !587, isLocal: false, isDefinition: false, scopeLine: 456, flags: DIFlagPublic | DIFlagPrototyped, isOptimized: false)
!601 = !DISubprogram(name: "find_first_of", linkageName: "_ZNKSt3__117basic_string_viewIcNS_11char_traitsIcEEE13find_first_ofEPKcmm", scope: !483, file: !484, line: 460, type: !590, isLocal: false, isDefinition: false, scopeLine: 460, flags: DIFlagPublic | DIFlagPrototyped, isOptimized: false)
!602 = !DISubprogram(name: "find_first_of", linkageName: "_ZNKSt3__117basic_string_viewIcNS_11char_traitsIcEEE13find_first_ofEPKcm", scope: !483, file: !484, line: 468, type: !593, isLocal: false, isDefinition: false, scopeLine: 468, flags: DIFlagPublic | DIFlagPrototyped, isOptimized: false)
!603 = !DISubprogram(name: "find_last_of", linkageName: "_ZNKSt3__117basic_string_viewIcNS_11char_traitsIcEEE12find_last_ofES3_m", scope: !483, file: !484, line: 477, type: !584, isLocal: false, isDefinition: false, scopeLine: 477, flags: DIFlagPublic | DIFlagPrototyped, isOptimized: false)
!604 = !DISubprogram(name: "find_last_of", linkageName: "_ZNKSt3__117basic_string_viewIcNS_11char_traitsIcEEE12find_last_ofEcm", scope: !483, file: !484, line: 485, type: !587, isLocal: false, isDefinition: false, scopeLine: 485, flags: DIFlagPublic | DIFlagPrototyped, isOptimized: false)
!605 = !DISubprogram(name: "find_last_of", linkageName: "_ZNKSt3__117basic_string_viewIcNS_11char_traitsIcEEE12find_last_ofEPKcmm", scope: !483, file: !484, line: 489, type: !590, isLocal: false, isDefinition: false, scopeLine: 489, flags: DIFlagPublic | DIFlagPrototyped, isOptimized: false)
!606 = !DISubprogram(name: "find_last_of", linkageName: "_ZNKSt3__117basic_string_viewIcNS_11char_traitsIcEEE12find_last_ofEPKcm", scope: !483, file: !484, line: 497, type: !593, isLocal: false, isDefinition: false, scopeLine: 497, flags: DIFlagPublic | DIFlagPrototyped, isOptimized: false)
!607 = !DISubprogram(name: "find_first_not_of", linkageName: "_ZNKSt3__117basic_string_viewIcNS_11char_traitsIcEEE17find_first_not_ofES3_m", scope: !483, file: !484, line: 506, type: !584, isLocal: false, isDefinition: false, scopeLine: 506, flags: DIFlagPublic | DIFlagPrototyped, isOptimized: false)
!608 = !DISubprogram(name: "find_first_not_of", linkageName: "_ZNKSt3__117basic_string_viewIcNS_11char_traitsIcEEE17find_first_not_ofEcm", scope: !483, file: !484, line: 514, type: !587, isLocal: false, isDefinition: false, scopeLine: 514, flags: DIFlagPublic | DIFlagPrototyped, isOptimized: false)
!609 = !DISubprogram(name: "find_first_not_of", linkageName: "_ZNKSt3__117basic_string_viewIcNS_11char_traitsIcEEE17find_first_not_ofEPKcmm", scope: !483, file: !484, line: 521, type: !590, isLocal: false, isDefinition: false, scopeLine: 521, flags: DIFlagPublic | DIFlagPrototyped, isOptimized: false)
!610 = !DISubprogram(name: "find_first_not_of", linkageName: "_ZNKSt3__117basic_string_viewIcNS_11char_traitsIcEEE17find_first_not_ofEPKcm", scope: !483, file: !484, line: 529, type: !593, isLocal: false, isDefinition: false, scopeLine: 529, flags: DIFlagPublic | DIFlagPrototyped, isOptimized: false)
!611 = !DISubprogram(name: "find_last_not_of", linkageName: "_ZNKSt3__117basic_string_viewIcNS_11char_traitsIcEEE16find_last_not_ofES3_m", scope: !483, file: !484, line: 538, type: !584, isLocal: false, isDefinition: false, scopeLine: 538, flags: DIFlagPublic | DIFlagPrototyped, isOptimized: false)
!612 = !DISubprogram(name: "find_last_not_of", linkageName: "_ZNKSt3__117basic_string_viewIcNS_11char_traitsIcEEE16find_last_not_ofEcm", scope: !483, file: !484, line: 546, type: !587, isLocal: false, isDefinition: false, scopeLine: 546, flags: DIFlagPublic | DIFlagPrototyped, isOptimized: false)
!613 = !DISubprogram(name: "find_last_not_of", linkageName: "_ZNKSt3__117basic_string_viewIcNS_11char_traitsIcEEE16find_last_not_ofEPKcmm", scope: !483, file: !484, line: 553, type: !590, isLocal: false, isDefinition: false, scopeLine: 553, flags: DIFlagPublic | DIFlagPrototyped, isOptimized: false)
!614 = !DISubprogram(name: "find_last_not_of", linkageName: "_ZNKSt3__117basic_string_viewIcNS_11char_traitsIcEEE16find_last_not_ofEPKcm", scope: !483, file: !484, line: 561, type: !593, isLocal: false, isDefinition: false, scopeLine: 561, flags: DIFlagPublic | DIFlagPrototyped, isOptimized: false)
!615 = !{!616, !617}
!616 = !DITemplateTypeParameter(name: "_CharT", type: !146)
!617 = !DITemplateTypeParameter(name: "_Traits", type: !618)
!618 = distinct !DICompositeType(tag: DW_TAG_structure_type, name: "char_traits<char>", scope: !6, file: !619, line: 199, size: 8, elements: !620, templateParams: !666, identifier: "_ZTSNSt3__111char_traitsIcEE")
!619 = !DIFile(filename: "/Applications/Xcode.app/Contents/Developer/Toolchains/XcodeDefault.xctoolchain/usr/include/c++/v1/__string", directory: "/Users/ejiang/Projects/lls/ac/llfiles")
!620 = !{!621, !628, !631, !632, !636, !639, !642, !646, !647, !650, !654, !657, !660, !663}
!621 = !DISubprogram(name: "assign", linkageName: "_ZNSt3__111char_traitsIcE6assignERcRKc", scope: !618, file: !619, line: 208, type: !622, isLocal: false, isDefinition: false, scopeLine: 208, flags: DIFlagPrototyped, isOptimized: false)
!622 = !DISubroutineType(types: !623)
!623 = !{null, !624, !626}
!624 = !DIDerivedType(tag: DW_TAG_reference_type, baseType: !625, size: 64)
!625 = !DIDerivedType(tag: DW_TAG_typedef, name: "char_type", scope: !618, file: !619, line: 201, baseType: !146)
!626 = !DIDerivedType(tag: DW_TAG_reference_type, baseType: !627, size: 64)
!627 = !DIDerivedType(tag: DW_TAG_const_type, baseType: !625)
!628 = !DISubprogram(name: "eq", linkageName: "_ZNSt3__111char_traitsIcE2eqEcc", scope: !618, file: !619, line: 209, type: !629, isLocal: false, isDefinition: false, scopeLine: 209, flags: DIFlagPrototyped, isOptimized: false)
!629 = !DISubroutineType(types: !630)
!630 = !{!168, !625, !625}
!631 = !DISubprogram(name: "lt", linkageName: "_ZNSt3__111char_traitsIcE2ltEcc", scope: !618, file: !619, line: 211, type: !629, isLocal: false, isDefinition: false, scopeLine: 211, flags: DIFlagPrototyped, isOptimized: false)
!632 = !DISubprogram(name: "compare", linkageName: "_ZNSt3__111char_traitsIcE7compareEPKcS3_m", scope: !618, file: !619, line: 215, type: !633, isLocal: false, isDefinition: false, scopeLine: 215, flags: DIFlagPrototyped, isOptimized: false)
!633 = !DISubroutineType(types: !634)
!634 = !{!14, !635, !635, !72}
!635 = !DIDerivedType(tag: DW_TAG_pointer_type, baseType: !627, size: 64)
!636 = !DISubprogram(name: "length", linkageName: "_ZNSt3__111char_traitsIcE6lengthEPKc", scope: !618, file: !619, line: 217, type: !637, isLocal: false, isDefinition: false, scopeLine: 217, flags: DIFlagPrototyped, isOptimized: false)
!637 = !DISubroutineType(types: !638)
!638 = !{!72, !635}
!639 = !DISubprogram(name: "find", linkageName: "_ZNSt3__111char_traitsIcE4findEPKcmRS2_", scope: !618, file: !619, line: 219, type: !640, isLocal: false, isDefinition: false, scopeLine: 219, flags: DIFlagPrototyped, isOptimized: false)
!640 = !DISubroutineType(types: !641)
!641 = !{!635, !635, !72, !626}
!642 = !DISubprogram(name: "move", linkageName: "_ZNSt3__111char_traitsIcE4moveEPcPKcm", scope: !618, file: !619, line: 220, type: !643, isLocal: false, isDefinition: false, scopeLine: 220, flags: DIFlagPrototyped, isOptimized: false)
!643 = !DISubroutineType(types: !644)
!644 = !{!645, !645, !635, !72}
!645 = !DIDerivedType(tag: DW_TAG_pointer_type, baseType: !625, size: 64)
!646 = !DISubprogram(name: "copy", linkageName: "_ZNSt3__111char_traitsIcE4copyEPcPKcm", scope: !618, file: !619, line: 222, type: !643, isLocal: false, isDefinition: false, scopeLine: 222, flags: DIFlagPrototyped, isOptimized: false)
!647 = !DISubprogram(name: "assign", linkageName: "_ZNSt3__111char_traitsIcE6assignEPcmc", scope: !618, file: !619, line: 227, type: !648, isLocal: false, isDefinition: false, scopeLine: 227, flags: DIFlagPrototyped, isOptimized: false)
!648 = !DISubroutineType(types: !649)
!649 = !{!645, !645, !72, !625}
!650 = !DISubprogram(name: "not_eof", linkageName: "_ZNSt3__111char_traitsIcE7not_eofEi", scope: !618, file: !619, line: 230, type: !651, isLocal: false, isDefinition: false, scopeLine: 230, flags: DIFlagPrototyped, isOptimized: false)
!651 = !DISubroutineType(types: !652)
!652 = !{!653, !653}
!653 = !DIDerivedType(tag: DW_TAG_typedef, name: "int_type", scope: !618, file: !619, line: 202, baseType: !14)
!654 = !DISubprogram(name: "to_char_type", linkageName: "_ZNSt3__111char_traitsIcE12to_char_typeEi", scope: !618, file: !619, line: 232, type: !655, isLocal: false, isDefinition: false, scopeLine: 232, flags: DIFlagPrototyped, isOptimized: false)
!655 = !DISubroutineType(types: !656)
!656 = !{!625, !653}
!657 = !DISubprogram(name: "to_int_type", linkageName: "_ZNSt3__111char_traitsIcE11to_int_typeEc", scope: !618, file: !619, line: 234, type: !658, isLocal: false, isDefinition: false, scopeLine: 234, flags: DIFlagPrototyped, isOptimized: false)
!658 = !DISubroutineType(types: !659)
!659 = !{!653, !625}
!660 = !DISubprogram(name: "eq_int_type", linkageName: "_ZNSt3__111char_traitsIcE11eq_int_typeEii", scope: !618, file: !619, line: 236, type: !661, isLocal: false, isDefinition: false, scopeLine: 236, flags: DIFlagPrototyped, isOptimized: false)
!661 = !DISubroutineType(types: !662)
!662 = !{!168, !653, !653}
!663 = !DISubprogram(name: "eof", linkageName: "_ZNSt3__111char_traitsIcE3eofEv", scope: !618, file: !619, line: 238, type: !664, isLocal: false, isDefinition: false, scopeLine: 238, flags: DIFlagPrototyped, isOptimized: false)
!664 = !DISubroutineType(types: !665)
!665 = !{!653}
!666 = !{!616}
!667 = !DISubprogram(name: "basic_string", scope: !154, file: !155, line: 799, type: !668, isLocal: false, isDefinition: false, scopeLine: 799, flags: DIFlagPublic | DIFlagPrototyped, isOptimized: false)
!668 = !DISubroutineType(types: !669)
!669 = !{null, !433, !482, !400}
!670 = !DISubprogram(name: "basic_string", scope: !154, file: !155, line: 808, type: !671, isLocal: false, isDefinition: false, scopeLine: 808, flags: DIFlagPublic | DIFlagPrototyped, isOptimized: false)
!671 = !DISubroutineType(types: !672)
!672 = !{null, !433, !673}
!673 = distinct !DICompositeType(tag: DW_TAG_class_type, name: "initializer_list<char>", scope: !7, file: !674, line: 59, size: 128, elements: !675, templateParams: !694, identifier: "_ZTSSt16initializer_listIcE")
!674 = !DIFile(filename: "/Applications/Xcode.app/Contents/Developer/Toolchains/XcodeDefault.xctoolchain/usr/include/c++/v1/initializer_list", directory: "/Users/ejiang/Projects/lls/ac/llfiles")
!675 = !{!676, !677, !678, !682, !685, !690, !693}
!676 = !DIDerivedType(tag: DW_TAG_member, name: "__begin_", scope: !673, file: !674, line: 61, baseType: !144, size: 64)
!677 = !DIDerivedType(tag: DW_TAG_member, name: "__size_", scope: !673, file: !674, line: 62, baseType: !72, size: 64, offset: 64)
!678 = !DISubprogram(name: "initializer_list", scope: !673, file: !674, line: 66, type: !679, isLocal: false, isDefinition: false, scopeLine: 66, flags: DIFlagPrototyped, isOptimized: false)
!679 = !DISubroutineType(types: !680)
!680 = !{null, !681, !144, !72}
!681 = !DIDerivedType(tag: DW_TAG_pointer_type, baseType: !673, size: 64, flags: DIFlagArtificial | DIFlagObjectPointer)
!682 = !DISubprogram(name: "initializer_list", scope: !673, file: !674, line: 81, type: !683, isLocal: false, isDefinition: false, scopeLine: 81, flags: DIFlagPublic | DIFlagPrototyped, isOptimized: false)
!683 = !DISubroutineType(types: !684)
!684 = !{null, !681}
!685 = !DISubprogram(name: "size", linkageName: "_ZNKSt16initializer_listIcE4sizeEv", scope: !673, file: !674, line: 85, type: !686, isLocal: false, isDefinition: false, scopeLine: 85, flags: DIFlagPublic | DIFlagPrototyped, isOptimized: false)
!686 = !DISubroutineType(types: !687)
!687 = !{!72, !688}
!688 = !DIDerivedType(tag: DW_TAG_pointer_type, baseType: !689, size: 64, flags: DIFlagArtificial | DIFlagObjectPointer)
!689 = !DIDerivedType(tag: DW_TAG_const_type, baseType: !673)
!690 = !DISubprogram(name: "begin", linkageName: "_ZNKSt16initializer_listIcE5beginEv", scope: !673, file: !674, line: 89, type: !691, isLocal: false, isDefinition: false, scopeLine: 89, flags: DIFlagPublic | DIFlagPrototyped, isOptimized: false)
!691 = !DISubroutineType(types: !692)
!692 = !{!144, !688}
!693 = !DISubprogram(name: "end", linkageName: "_ZNKSt16initializer_listIcE3endEv", scope: !673, file: !674, line: 93, type: !691, isLocal: false, isDefinition: false, scopeLine: 93, flags: DIFlagPublic | DIFlagPrototyped, isOptimized: false)
!694 = !{!695}
!695 = !DITemplateTypeParameter(name: "_Ep", type: !146)
!696 = !DISubprogram(name: "basic_string", scope: !154, file: !155, line: 810, type: !697, isLocal: false, isDefinition: false, scopeLine: 810, flags: DIFlagPublic | DIFlagPrototyped, isOptimized: false)
!697 = !DISubroutineType(types: !698)
!698 = !{null, !433, !673, !400}
!699 = !DISubprogram(name: "~basic_string", scope: !154, file: !155, line: 813, type: !431, isLocal: false, isDefinition: false, scopeLine: 813, flags: DIFlagPublic | DIFlagPrototyped, isOptimized: false)
!700 = !DISubprogram(name: "operator basic_string_view", linkageName: "_ZNKSt3__112basic_stringIcNS_11char_traitsIcEENS_9allocatorIcEEEcvNS_17basic_string_viewIcS2_EEEv", scope: !154, file: !155, line: 816, type: !701, isLocal: false, isDefinition: false, scopeLine: 816, flags: DIFlagPublic | DIFlagPrototyped, isOptimized: false)
!701 = !DISubroutineType(types: !702)
!702 = !{!482, !703}
!703 = !DIDerivedType(tag: DW_TAG_pointer_type, baseType: !444, size: 64, flags: DIFlagArtificial | DIFlagObjectPointer)
!704 = !DISubprogram(name: "operator=", linkageName: "_ZNSt3__112basic_stringIcNS_11char_traitsIcEENS_9allocatorIcEEEaSERKS5_", scope: !154, file: !155, line: 818, type: !705, isLocal: false, isDefinition: false, scopeLine: 818, flags: DIFlagPublic | DIFlagPrototyped, isOptimized: false)
!705 = !DISubroutineType(types: !706)
!706 = !{!707, !433, !443}
!707 = !DIDerivedType(tag: DW_TAG_reference_type, baseType: !154, size: 64)
!708 = !DISubprogram(name: "operator=", linkageName: "_ZNSt3__112basic_stringIcNS_11char_traitsIcEENS_9allocatorIcEEEaSEOS5_", scope: !154, file: !155, line: 827, type: !709, isLocal: false, isDefinition: false, scopeLine: 827, flags: DIFlagPublic | DIFlagPrototyped, isOptimized: false)
!709 = !DISubroutineType(types: !710)
!710 = !{!707, !433, !451}
!711 = !DISubprogram(name: "operator=", linkageName: "_ZNSt3__112basic_stringIcNS_11char_traitsIcEENS_9allocatorIcEEEaSESt16initializer_listIcE", scope: !154, file: !155, line: 830, type: !712, isLocal: false, isDefinition: false, scopeLine: 830, flags: DIFlagPublic | DIFlagPrototyped, isOptimized: false)
!712 = !DISubroutineType(types: !713)
!713 = !{!707, !433, !673}
!714 = !DISubprogram(name: "operator=", linkageName: "_ZNSt3__112basic_stringIcNS_11char_traitsIcEENS_9allocatorIcEEEaSEPKc", scope: !154, file: !155, line: 832, type: !715, isLocal: false, isDefinition: false, scopeLine: 832, flags: DIFlagPublic | DIFlagPrototyped, isOptimized: false)
!715 = !DISubroutineType(types: !716)
!716 = !{!707, !433, !717}
!717 = !DIDerivedType(tag: DW_TAG_pointer_type, baseType: !718, size: 64)
!718 = !DIDerivedType(tag: DW_TAG_const_type, baseType: !350)
!719 = !DISubprogram(name: "operator=", linkageName: "_ZNSt3__112basic_stringIcNS_11char_traitsIcEENS_9allocatorIcEEEaSEc", scope: !154, file: !155, line: 833, type: !720, isLocal: false, isDefinition: false, scopeLine: 833, flags: DIFlagPublic | DIFlagPrototyped, isOptimized: false)
!720 = !DISubroutineType(types: !721)
!721 = !{!707, !433, !350}
!722 = !DISubprogram(name: "begin", linkageName: "_ZNSt3__112basic_stringIcNS_11char_traitsIcEENS_9allocatorIcEEE5beginEv", scope: !154, file: !155, line: 850, type: !723, isLocal: false, isDefinition: false, scopeLine: 850, flags: DIFlagPublic | DIFlagPrototyped, isOptimized: false)
!723 = !DISubroutineType(types: !724)
!724 = !{!725, !433}
!725 = !DIDerivedType(tag: DW_TAG_typedef, name: "iterator", scope: !154, file: !155, line: 656, baseType: !726)
!726 = !DICompositeType(tag: DW_TAG_class_type, name: "__wrap_iter<char *>", scope: !6, file: !527, line: 1279, flags: DIFlagFwdDecl, identifier: "_ZTSNSt3__111__wrap_iterIPcEE")
!727 = !DISubprogram(name: "begin", linkageName: "_ZNKSt3__112basic_stringIcNS_11char_traitsIcEENS_9allocatorIcEEE5beginEv", scope: !154, file: !155, line: 853, type: !728, isLocal: false, isDefinition: false, scopeLine: 853, flags: DIFlagPublic | DIFlagPrototyped, isOptimized: false)
!728 = !DISubroutineType(types: !729)
!729 = !{!730, !703}
!730 = !DIDerivedType(tag: DW_TAG_typedef, name: "const_iterator", scope: !154, file: !155, line: 657, baseType: !731)
!731 = !DICompositeType(tag: DW_TAG_class_type, name: "__wrap_iter<const char *>", scope: !6, file: !527, line: 1279, flags: DIFlagFwdDecl, identifier: "_ZTSNSt3__111__wrap_iterIPKcEE")
!732 = !DISubprogram(name: "end", linkageName: "_ZNSt3__112basic_stringIcNS_11char_traitsIcEENS_9allocatorIcEEE3endEv", scope: !154, file: !155, line: 856, type: !723, isLocal: false, isDefinition: false, scopeLine: 856, flags: DIFlagPublic | DIFlagPrototyped, isOptimized: false)
!733 = !DISubprogram(name: "end", linkageName: "_ZNKSt3__112basic_stringIcNS_11char_traitsIcEENS_9allocatorIcEEE3endEv", scope: !154, file: !155, line: 859, type: !728, isLocal: false, isDefinition: false, scopeLine: 859, flags: DIFlagPublic | DIFlagPrototyped, isOptimized: false)
!734 = !DISubprogram(name: "rbegin", linkageName: "_ZNSt3__112basic_stringIcNS_11char_traitsIcEENS_9allocatorIcEEE6rbeginEv", scope: !154, file: !155, line: 863, type: !735, isLocal: false, isDefinition: false, scopeLine: 863, flags: DIFlagPublic | DIFlagPrototyped, isOptimized: false)
!735 = !DISubroutineType(types: !736)
!736 = !{!737, !433}
!737 = !DIDerivedType(tag: DW_TAG_typedef, name: "reverse_iterator", scope: !154, file: !155, line: 659, baseType: !738)
!738 = !DICompositeType(tag: DW_TAG_class_type, name: "reverse_iterator<std::__1::__wrap_iter<char *> >", scope: !6, file: !527, line: 636, flags: DIFlagFwdDecl, identifier: "_ZTSNSt3__116reverse_iteratorINS_11__wrap_iterIPcEEEE")
!739 = !DISubprogram(name: "rbegin", linkageName: "_ZNKSt3__112basic_stringIcNS_11char_traitsIcEENS_9allocatorIcEEE6rbeginEv", scope: !154, file: !155, line: 866, type: !740, isLocal: false, isDefinition: false, scopeLine: 866, flags: DIFlagPublic | DIFlagPrototyped, isOptimized: false)
!740 = !DISubroutineType(types: !741)
!741 = !{!742, !703}
!742 = !DIDerivedType(tag: DW_TAG_typedef, name: "const_reverse_iterator", scope: !154, file: !155, line: 660, baseType: !743)
!743 = !DICompositeType(tag: DW_TAG_class_type, name: "reverse_iterator<std::__1::__wrap_iter<const char *> >", scope: !6, file: !527, line: 636, flags: DIFlagFwdDecl, identifier: "_ZTSNSt3__116reverse_iteratorINS_11__wrap_iterIPKcEEEE")
!744 = !DISubprogram(name: "rend", linkageName: "_ZNSt3__112basic_stringIcNS_11char_traitsIcEENS_9allocatorIcEEE4rendEv", scope: !154, file: !155, line: 869, type: !735, isLocal: false, isDefinition: false, scopeLine: 869, flags: DIFlagPublic | DIFlagPrototyped, isOptimized: false)
!745 = !DISubprogram(name: "rend", linkageName: "_ZNKSt3__112basic_stringIcNS_11char_traitsIcEENS_9allocatorIcEEE4rendEv", scope: !154, file: !155, line: 872, type: !740, isLocal: false, isDefinition: false, scopeLine: 872, flags: DIFlagPublic | DIFlagPrototyped, isOptimized: false)
!746 = !DISubprogram(name: "cbegin", linkageName: "_ZNKSt3__112basic_stringIcNS_11char_traitsIcEENS_9allocatorIcEEE6cbeginEv", scope: !154, file: !155, line: 876, type: !728, isLocal: false, isDefinition: false, scopeLine: 876, flags: DIFlagPublic | DIFlagPrototyped, isOptimized: false)
!747 = !DISubprogram(name: "cend", linkageName: "_ZNKSt3__112basic_stringIcNS_11char_traitsIcEENS_9allocatorIcEEE4cendEv", scope: !154, file: !155, line: 879, type: !728, isLocal: false, isDefinition: false, scopeLine: 879, flags: DIFlagPublic | DIFlagPrototyped, isOptimized: false)
!748 = !DISubprogram(name: "crbegin", linkageName: "_ZNKSt3__112basic_stringIcNS_11char_traitsIcEENS_9allocatorIcEEE7crbeginEv", scope: !154, file: !155, line: 882, type: !740, isLocal: false, isDefinition: false, scopeLine: 882, flags: DIFlagPublic | DIFlagPrototyped, isOptimized: false)
!749 = !DISubprogram(name: "crend", linkageName: "_ZNKSt3__112basic_stringIcNS_11char_traitsIcEENS_9allocatorIcEEE5crendEv", scope: !154, file: !155, line: 885, type: !740, isLocal: false, isDefinition: false, scopeLine: 885, flags: DIFlagPublic | DIFlagPrototyped, isOptimized: false)
!750 = !DISubprogram(name: "size", linkageName: "_ZNKSt3__112basic_stringIcNS_11char_traitsIcEENS_9allocatorIcEEE4sizeEv", scope: !154, file: !155, line: 888, type: !751, isLocal: false, isDefinition: false, scopeLine: 888, flags: DIFlagPublic | DIFlagPrototyped, isOptimized: false)
!751 = !DISubroutineType(types: !752)
!752 = !{!171, !703}
!753 = !DISubprogram(name: "length", linkageName: "_ZNKSt3__112basic_stringIcNS_11char_traitsIcEENS_9allocatorIcEEE6lengthEv", scope: !154, file: !155, line: 890, type: !751, isLocal: false, isDefinition: false, scopeLine: 890, flags: DIFlagPublic | DIFlagPrototyped, isOptimized: false)
!754 = !DISubprogram(name: "max_size", linkageName: "_ZNKSt3__112basic_stringIcNS_11char_traitsIcEENS_9allocatorIcEEE8max_sizeEv", scope: !154, file: !155, line: 891, type: !751, isLocal: false, isDefinition: false, scopeLine: 891, flags: DIFlagPublic | DIFlagPrototyped, isOptimized: false)
!755 = !DISubprogram(name: "capacity", linkageName: "_ZNKSt3__112basic_stringIcNS_11char_traitsIcEENS_9allocatorIcEEE8capacityEv", scope: !154, file: !155, line: 892, type: !751, isLocal: false, isDefinition: false, scopeLine: 892, flags: DIFlagPublic | DIFlagPrototyped, isOptimized: false)
!756 = !DISubprogram(name: "resize", linkageName: "_ZNSt3__112basic_stringIcNS_11char_traitsIcEENS_9allocatorIcEEE6resizeEmc", scope: !154, file: !155, line: 896, type: !757, isLocal: false, isDefinition: false, scopeLine: 896, flags: DIFlagPublic | DIFlagPrototyped, isOptimized: false)
!757 = !DISubroutineType(types: !758)
!758 = !{null, !433, !171, !350}
!759 = !DISubprogram(name: "resize", linkageName: "_ZNSt3__112basic_stringIcNS_11char_traitsIcEENS_9allocatorIcEEE6resizeEm", scope: !154, file: !155, line: 897, type: !760, isLocal: false, isDefinition: false, scopeLine: 897, flags: DIFlagPublic | DIFlagPrototyped, isOptimized: false)
!760 = !DISubroutineType(types: !761)
!761 = !{null, !433, !171}
!762 = !DISubprogram(name: "reserve", linkageName: "_ZNSt3__112basic_stringIcNS_11char_traitsIcEENS_9allocatorIcEEE7reserveEm", scope: !154, file: !155, line: 899, type: !760, isLocal: false, isDefinition: false, scopeLine: 899, flags: DIFlagPublic | DIFlagPrototyped, isOptimized: false)
!763 = !DISubprogram(name: "shrink_to_fit", linkageName: "_ZNSt3__112basic_stringIcNS_11char_traitsIcEENS_9allocatorIcEEE13shrink_to_fitEv", scope: !154, file: !155, line: 901, type: !431, isLocal: false, isDefinition: false, scopeLine: 901, flags: DIFlagPublic | DIFlagPrototyped, isOptimized: false)
!764 = !DISubprogram(name: "clear", linkageName: "_ZNSt3__112basic_stringIcNS_11char_traitsIcEENS_9allocatorIcEEE5clearEv", scope: !154, file: !155, line: 903, type: !431, isLocal: false, isDefinition: false, scopeLine: 903, flags: DIFlagPublic | DIFlagPrototyped, isOptimized: false)
!765 = !DISubprogram(name: "empty", linkageName: "_ZNKSt3__112basic_stringIcNS_11char_traitsIcEENS_9allocatorIcEEE5emptyEv", scope: !154, file: !155, line: 904, type: !766, isLocal: false, isDefinition: false, scopeLine: 904, flags: DIFlagPublic | DIFlagPrototyped, isOptimized: false)
!766 = !DISubroutineType(types: !767)
!767 = !{!168, !703}
!768 = !DISubprogram(name: "operator[]", linkageName: "_ZNKSt3__112basic_stringIcNS_11char_traitsIcEENS_9allocatorIcEEEixEm", scope: !154, file: !155, line: 906, type: !769, isLocal: false, isDefinition: false, scopeLine: 906, flags: DIFlagPublic | DIFlagPrototyped, isOptimized: false)
!769 = !DISubroutineType(types: !770)
!770 = !{!771, !703, !171}
!771 = !DIDerivedType(tag: DW_TAG_typedef, name: "const_reference", scope: !154, file: !155, line: 643, baseType: !772)
!772 = !DIDerivedType(tag: DW_TAG_reference_type, baseType: !718, size: 64)
!773 = !DISubprogram(name: "operator[]", linkageName: "_ZNSt3__112basic_stringIcNS_11char_traitsIcEENS_9allocatorIcEEEixEm", scope: !154, file: !155, line: 907, type: !774, isLocal: false, isDefinition: false, scopeLine: 907, flags: DIFlagPublic | DIFlagPrototyped, isOptimized: false)
!774 = !DISubroutineType(types: !775)
!775 = !{!776, !433, !171}
!776 = !DIDerivedType(tag: DW_TAG_typedef, name: "reference", scope: !154, file: !155, line: 642, baseType: !777)
!777 = !DIDerivedType(tag: DW_TAG_reference_type, baseType: !350, size: 64)
!778 = !DISubprogram(name: "at", linkageName: "_ZNKSt3__112basic_stringIcNS_11char_traitsIcEENS_9allocatorIcEEE2atEm", scope: !154, file: !155, line: 909, type: !769, isLocal: false, isDefinition: false, scopeLine: 909, flags: DIFlagPublic | DIFlagPrototyped, isOptimized: false)
!779 = !DISubprogram(name: "at", linkageName: "_ZNSt3__112basic_stringIcNS_11char_traitsIcEENS_9allocatorIcEEE2atEm", scope: !154, file: !155, line: 910, type: !774, isLocal: false, isDefinition: false, scopeLine: 910, flags: DIFlagPublic | DIFlagPrototyped, isOptimized: false)
!780 = !DISubprogram(name: "operator+=", linkageName: "_ZNSt3__112basic_stringIcNS_11char_traitsIcEENS_9allocatorIcEEEpLERKS5_", scope: !154, file: !155, line: 912, type: !705, isLocal: false, isDefinition: false, scopeLine: 912, flags: DIFlagPublic | DIFlagPrototyped, isOptimized: false)
!781 = !DISubprogram(name: "operator+=", linkageName: "_ZNSt3__112basic_stringIcNS_11char_traitsIcEENS_9allocatorIcEEEpLENS_17basic_string_viewIcS2_EE", scope: !154, file: !155, line: 913, type: !782, isLocal: false, isDefinition: false, scopeLine: 913, flags: DIFlagPublic | DIFlagPrototyped, isOptimized: false)
!782 = !DISubroutineType(types: !783)
!783 = !{!707, !433, !482}
!784 = !DISubprogram(name: "operator+=", linkageName: "_ZNSt3__112basic_stringIcNS_11char_traitsIcEENS_9allocatorIcEEEpLEPKc", scope: !154, file: !155, line: 914, type: !715, isLocal: false, isDefinition: false, scopeLine: 914, flags: DIFlagPublic | DIFlagPrototyped, isOptimized: false)
!785 = !DISubprogram(name: "operator+=", linkageName: "_ZNSt3__112basic_stringIcNS_11char_traitsIcEENS_9allocatorIcEEEpLEc", scope: !154, file: !155, line: 915, type: !720, isLocal: false, isDefinition: false, scopeLine: 915, flags: DIFlagPublic | DIFlagPrototyped, isOptimized: false)
!786 = !DISubprogram(name: "operator+=", linkageName: "_ZNSt3__112basic_stringIcNS_11char_traitsIcEENS_9allocatorIcEEEpLESt16initializer_listIcE", scope: !154, file: !155, line: 917, type: !712, isLocal: false, isDefinition: false, scopeLine: 917, flags: DIFlagPublic | DIFlagPrototyped, isOptimized: false)
!787 = !DISubprogram(name: "append", linkageName: "_ZNSt3__112basic_stringIcNS_11char_traitsIcEENS_9allocatorIcEEE6appendERKS5_", scope: !154, file: !155, line: 921, type: !705, isLocal: false, isDefinition: false, scopeLine: 921, flags: DIFlagPublic | DIFlagPrototyped, isOptimized: false)
!788 = !DISubprogram(name: "append", linkageName: "_ZNSt3__112basic_stringIcNS_11char_traitsIcEENS_9allocatorIcEEE6appendENS_17basic_string_viewIcS2_EE", scope: !154, file: !155, line: 923, type: !782, isLocal: false, isDefinition: false, scopeLine: 923, flags: DIFlagPublic | DIFlagPrototyped, isOptimized: false)
!789 = !DISubprogram(name: "append", linkageName: "_ZNSt3__112basic_stringIcNS_11char_traitsIcEENS_9allocatorIcEEE6appendERKS5_mm", scope: !154, file: !155, line: 924, type: !790, isLocal: false, isDefinition: false, scopeLine: 924, flags: DIFlagPublic | DIFlagPrototyped, isOptimized: false)
!790 = !DISubroutineType(types: !791)
!791 = !{!707, !433, !443, !171, !171}
!792 = !DISubprogram(name: "append", linkageName: "_ZNSt3__112basic_stringIcNS_11char_traitsIcEENS_9allocatorIcEEE6appendEPKcm", scope: !154, file: !155, line: 933, type: !793, isLocal: false, isDefinition: false, scopeLine: 933, flags: DIFlagPublic | DIFlagPrototyped, isOptimized: false)
!793 = !DISubroutineType(types: !794)
!794 = !{!707, !433, !717, !171}
!795 = !DISubprogram(name: "append", linkageName: "_ZNSt3__112basic_stringIcNS_11char_traitsIcEENS_9allocatorIcEEE6appendEPKc", scope: !154, file: !155, line: 934, type: !715, isLocal: false, isDefinition: false, scopeLine: 934, flags: DIFlagPublic | DIFlagPrototyped, isOptimized: false)
!796 = !DISubprogram(name: "append", linkageName: "_ZNSt3__112basic_stringIcNS_11char_traitsIcEENS_9allocatorIcEEE6appendEmc", scope: !154, file: !155, line: 935, type: !797, isLocal: false, isDefinition: false, scopeLine: 935, flags: DIFlagPublic | DIFlagPrototyped, isOptimized: false)
!797 = !DISubroutineType(types: !798)
!798 = !{!707, !433, !171, !350}
!799 = !DISubprogram(name: "append", linkageName: "_ZNSt3__112basic_stringIcNS_11char_traitsIcEENS_9allocatorIcEEE6appendESt16initializer_listIcE", scope: !154, file: !155, line: 968, type: !712, isLocal: false, isDefinition: false, scopeLine: 968, flags: DIFlagPublic | DIFlagPrototyped, isOptimized: false)
!800 = !DISubprogram(name: "push_back", linkageName: "_ZNSt3__112basic_stringIcNS_11char_traitsIcEENS_9allocatorIcEEE9push_backEc", scope: !154, file: !155, line: 971, type: !801, isLocal: false, isDefinition: false, scopeLine: 971, flags: DIFlagPublic | DIFlagPrototyped, isOptimized: false)
!801 = !DISubroutineType(types: !802)
!802 = !{null, !433, !350}
!803 = !DISubprogram(name: "pop_back", linkageName: "_ZNSt3__112basic_stringIcNS_11char_traitsIcEENS_9allocatorIcEEE8pop_backEv", scope: !154, file: !155, line: 973, type: !431, isLocal: false, isDefinition: false, scopeLine: 973, flags: DIFlagPublic | DIFlagPrototyped, isOptimized: false)
!804 = !DISubprogram(name: "front", linkageName: "_ZNSt3__112basic_stringIcNS_11char_traitsIcEENS_9allocatorIcEEE5frontEv", scope: !154, file: !155, line: 974, type: !805, isLocal: false, isDefinition: false, scopeLine: 974, flags: DIFlagPublic | DIFlagPrototyped, isOptimized: false)
!805 = !DISubroutineType(types: !806)
!806 = !{!776, !433}
!807 = !DISubprogram(name: "front", linkageName: "_ZNKSt3__112basic_stringIcNS_11char_traitsIcEENS_9allocatorIcEEE5frontEv", scope: !154, file: !155, line: 975, type: !808, isLocal: false, isDefinition: false, scopeLine: 975, flags: DIFlagPublic | DIFlagPrototyped, isOptimized: false)
!808 = !DISubroutineType(types: !809)
!809 = !{!771, !703}
!810 = !DISubprogram(name: "back", linkageName: "_ZNSt3__112basic_stringIcNS_11char_traitsIcEENS_9allocatorIcEEE4backEv", scope: !154, file: !155, line: 976, type: !805, isLocal: false, isDefinition: false, scopeLine: 976, flags: DIFlagPublic | DIFlagPrototyped, isOptimized: false)
!811 = !DISubprogram(name: "back", linkageName: "_ZNKSt3__112basic_stringIcNS_11char_traitsIcEENS_9allocatorIcEEE4backEv", scope: !154, file: !155, line: 977, type: !808, isLocal: false, isDefinition: false, scopeLine: 977, flags: DIFlagPublic | DIFlagPrototyped, isOptimized: false)
!812 = !DISubprogram(name: "assign", linkageName: "_ZNSt3__112basic_stringIcNS_11char_traitsIcEENS_9allocatorIcEEE6assignENS_17basic_string_viewIcS2_EE", scope: !154, file: !155, line: 980, type: !782, isLocal: false, isDefinition: false, scopeLine: 980, flags: DIFlagPublic | DIFlagPrototyped, isOptimized: false)
!813 = !DISubprogram(name: "assign", linkageName: "_ZNSt3__112basic_stringIcNS_11char_traitsIcEENS_9allocatorIcEEE6assignERKS5_", scope: !154, file: !155, line: 982, type: !705, isLocal: false, isDefinition: false, scopeLine: 982, flags: DIFlagPublic | DIFlagPrototyped, isOptimized: false)
!814 = !DISubprogram(name: "assign", linkageName: "_ZNSt3__112basic_stringIcNS_11char_traitsIcEENS_9allocatorIcEEE6assignEOS5_", scope: !154, file: !155, line: 985, type: !709, isLocal: false, isDefinition: false, scopeLine: 985, flags: DIFlagPublic | DIFlagPrototyped, isOptimized: false)
!815 = !DISubprogram(name: "assign", linkageName: "_ZNSt3__112basic_stringIcNS_11char_traitsIcEENS_9allocatorIcEEE6assignERKS5_mm", scope: !154, file: !155, line: 989, type: !790, isLocal: false, isDefinition: false, scopeLine: 989, flags: DIFlagPublic | DIFlagPrototyped, isOptimized: false)
!816 = !DISubprogram(name: "assign", linkageName: "_ZNSt3__112basic_stringIcNS_11char_traitsIcEENS_9allocatorIcEEE6assignEPKcm", scope: !154, file: !155, line: 998, type: !793, isLocal: false, isDefinition: false, scopeLine: 998, flags: DIFlagPublic | DIFlagPrototyped, isOptimized: false)
!817 = !DISubprogram(name: "assign", linkageName: "_ZNSt3__112basic_stringIcNS_11char_traitsIcEENS_9allocatorIcEEE6assignEPKc", scope: !154, file: !155, line: 999, type: !715, isLocal: false, isDefinition: false, scopeLine: 999, flags: DIFlagPublic | DIFlagPrototyped, isOptimized: false)
!818 = !DISubprogram(name: "assign", linkageName: "_ZNSt3__112basic_stringIcNS_11char_traitsIcEENS_9allocatorIcEEE6assignEmc", scope: !154, file: !155, line: 1000, type: !797, isLocal: false, isDefinition: false, scopeLine: 1000, flags: DIFlagPublic | DIFlagPrototyped, isOptimized: false)
!819 = !DISubprogram(name: "assign", linkageName: "_ZNSt3__112basic_stringIcNS_11char_traitsIcEENS_9allocatorIcEEE6assignESt16initializer_listIcE", scope: !154, file: !155, line: 1021, type: !712, isLocal: false, isDefinition: false, scopeLine: 1021, flags: DIFlagPublic | DIFlagPrototyped, isOptimized: false)
!820 = !DISubprogram(name: "insert", linkageName: "_ZNSt3__112basic_stringIcNS_11char_traitsIcEENS_9allocatorIcEEE6insertEmRKS5_", scope: !154, file: !155, line: 1025, type: !821, isLocal: false, isDefinition: false, scopeLine: 1025, flags: DIFlagPublic | DIFlagPrototyped, isOptimized: false)
!821 = !DISubroutineType(types: !822)
!822 = !{!707, !433, !171, !443}
!823 = !DISubprogram(name: "insert", linkageName: "_ZNSt3__112basic_stringIcNS_11char_traitsIcEENS_9allocatorIcEEE6insertEmNS_17basic_string_viewIcS2_EE", scope: !154, file: !155, line: 1027, type: !824, isLocal: false, isDefinition: false, scopeLine: 1027, flags: DIFlagPublic | DIFlagPrototyped, isOptimized: false)
!824 = !DISubroutineType(types: !825)
!825 = !{!707, !433, !171, !482}
!826 = !DISubprogram(name: "insert", linkageName: "_ZNSt3__112basic_stringIcNS_11char_traitsIcEENS_9allocatorIcEEE6insertEmRKS5_mm", scope: !154, file: !155, line: 1036, type: !827, isLocal: false, isDefinition: false, scopeLine: 1036, flags: DIFlagPublic | DIFlagPrototyped, isOptimized: false)
!827 = !DISubroutineType(types: !828)
!828 = !{!707, !433, !171, !443, !171, !171}
!829 = !DISubprogram(name: "insert", linkageName: "_ZNSt3__112basic_stringIcNS_11char_traitsIcEENS_9allocatorIcEEE6insertEmPKcm", scope: !154, file: !155, line: 1037, type: !830, isLocal: false, isDefinition: false, scopeLine: 1037, flags: DIFlagPublic | DIFlagPrototyped, isOptimized: false)
!830 = !DISubroutineType(types: !831)
!831 = !{!707, !433, !171, !717, !171}
!832 = !DISubprogram(name: "insert", linkageName: "_ZNSt3__112basic_stringIcNS_11char_traitsIcEENS_9allocatorIcEEE6insertEmPKc", scope: !154, file: !155, line: 1038, type: !833, isLocal: false, isDefinition: false, scopeLine: 1038, flags: DIFlagPublic | DIFlagPrototyped, isOptimized: false)
!833 = !DISubroutineType(types: !834)
!834 = !{!707, !433, !171, !717}
!835 = !DISubprogram(name: "insert", linkageName: "_ZNSt3__112basic_stringIcNS_11char_traitsIcEENS_9allocatorIcEEE6insertEmmc", scope: !154, file: !155, line: 1039, type: !836, isLocal: false, isDefinition: false, scopeLine: 1039, flags: DIFlagPublic | DIFlagPrototyped, isOptimized: false)
!836 = !DISubroutineType(types: !837)
!837 = !{!707, !433, !171, !171, !350}
!838 = !DISubprogram(name: "insert", linkageName: "_ZNSt3__112basic_stringIcNS_11char_traitsIcEENS_9allocatorIcEEE6insertENS_11__wrap_iterIPKcEEc", scope: !154, file: !155, line: 1040, type: !839, isLocal: false, isDefinition: false, scopeLine: 1040, flags: DIFlagPublic | DIFlagPrototyped, isOptimized: false)
!839 = !DISubroutineType(types: !840)
!840 = !{!725, !433, !730, !350}
!841 = !DISubprogram(name: "insert", linkageName: "_ZNSt3__112basic_stringIcNS_11char_traitsIcEENS_9allocatorIcEEE6insertENS_11__wrap_iterIPKcEEmc", scope: !154, file: !155, line: 1042, type: !842, isLocal: false, isDefinition: false, scopeLine: 1042, flags: DIFlagPublic | DIFlagPrototyped, isOptimized: false)
!842 = !DISubroutineType(types: !843)
!843 = !{!725, !433, !730, !171, !350}
!844 = !DISubprogram(name: "insert", linkageName: "_ZNSt3__112basic_stringIcNS_11char_traitsIcEENS_9allocatorIcEEE6insertENS_11__wrap_iterIPKcEESt16initializer_listIcE", scope: !154, file: !155, line: 1063, type: !845, isLocal: false, isDefinition: false, scopeLine: 1063, flags: DIFlagPublic | DIFlagPrototyped, isOptimized: false)
!845 = !DISubroutineType(types: !846)
!846 = !{!725, !433, !730, !673}
!847 = !DISubprogram(name: "erase", linkageName: "_ZNSt3__112basic_stringIcNS_11char_traitsIcEENS_9allocatorIcEEE5eraseEmm", scope: !154, file: !155, line: 1067, type: !848, isLocal: false, isDefinition: false, scopeLine: 1067, flags: DIFlagPublic | DIFlagPrototyped, isOptimized: false)
!848 = !DISubroutineType(types: !849)
!849 = !{!707, !433, !171, !171}
!850 = !DISubprogram(name: "erase", linkageName: "_ZNSt3__112basic_stringIcNS_11char_traitsIcEENS_9allocatorIcEEE5eraseENS_11__wrap_iterIPKcEE", scope: !154, file: !155, line: 1069, type: !851, isLocal: false, isDefinition: false, scopeLine: 1069, flags: DIFlagPublic | DIFlagPrototyped, isOptimized: false)
!851 = !DISubroutineType(types: !852)
!852 = !{!725, !433, !730}
!853 = !DISubprogram(name: "erase", linkageName: "_ZNSt3__112basic_stringIcNS_11char_traitsIcEENS_9allocatorIcEEE5eraseENS_11__wrap_iterIPKcEES9_", scope: !154, file: !155, line: 1071, type: !854, isLocal: false, isDefinition: false, scopeLine: 1071, flags: DIFlagPublic | DIFlagPrototyped, isOptimized: false)
!854 = !DISubroutineType(types: !855)
!855 = !{!725, !433, !730, !730}
!856 = !DISubprogram(name: "replace", linkageName: "_ZNSt3__112basic_stringIcNS_11char_traitsIcEENS_9allocatorIcEEE7replaceEmmRKS5_", scope: !154, file: !155, line: 1074, type: !857, isLocal: false, isDefinition: false, scopeLine: 1074, flags: DIFlagPublic | DIFlagPrototyped, isOptimized: false)
!857 = !DISubroutineType(types: !858)
!858 = !{!707, !433, !171, !171, !443}
!859 = !DISubprogram(name: "replace", linkageName: "_ZNSt3__112basic_stringIcNS_11char_traitsIcEENS_9allocatorIcEEE7replaceEmmNS_17basic_string_viewIcS2_EE", scope: !154, file: !155, line: 1076, type: !860, isLocal: false, isDefinition: false, scopeLine: 1076, flags: DIFlagPublic | DIFlagPrototyped, isOptimized: false)
!860 = !DISubroutineType(types: !861)
!861 = !{!707, !433, !171, !171, !482}
!862 = !DISubprogram(name: "replace", linkageName: "_ZNSt3__112basic_stringIcNS_11char_traitsIcEENS_9allocatorIcEEE7replaceEmmRKS5_mm", scope: !154, file: !155, line: 1077, type: !863, isLocal: false, isDefinition: false, scopeLine: 1077, flags: DIFlagPublic | DIFlagPrototyped, isOptimized: false)
!863 = !DISubroutineType(types: !864)
!864 = !{!707, !433, !171, !171, !443, !171, !171}
!865 = !DISubprogram(name: "replace", linkageName: "_ZNSt3__112basic_stringIcNS_11char_traitsIcEENS_9allocatorIcEEE7replaceEmmPKcm", scope: !154, file: !155, line: 1086, type: !866, isLocal: false, isDefinition: false, scopeLine: 1086, flags: DIFlagPublic | DIFlagPrototyped, isOptimized: false)
!866 = !DISubroutineType(types: !867)
!867 = !{!707, !433, !171, !171, !717, !171}
!868 = !DISubprogram(name: "replace", linkageName: "_ZNSt3__112basic_stringIcNS_11char_traitsIcEENS_9allocatorIcEEE7replaceEmmPKc", scope: !154, file: !155, line: 1087, type: !869, isLocal: false, isDefinition: false, scopeLine: 1087, flags: DIFlagPublic | DIFlagPrototyped, isOptimized: false)
!869 = !DISubroutineType(types: !870)
!870 = !{!707, !433, !171, !171, !717}
!871 = !DISubprogram(name: "replace", linkageName: "_ZNSt3__112basic_stringIcNS_11char_traitsIcEENS_9allocatorIcEEE7replaceEmmmc", scope: !154, file: !155, line: 1088, type: !872, isLocal: false, isDefinition: false, scopeLine: 1088, flags: DIFlagPublic | DIFlagPrototyped, isOptimized: false)
!872 = !DISubroutineType(types: !873)
!873 = !{!707, !433, !171, !171, !171, !350}
!874 = !DISubprogram(name: "replace", linkageName: "_ZNSt3__112basic_stringIcNS_11char_traitsIcEENS_9allocatorIcEEE7replaceENS_11__wrap_iterIPKcEES9_RKS5_", scope: !154, file: !155, line: 1090, type: !875, isLocal: false, isDefinition: false, scopeLine: 1090, flags: DIFlagPublic | DIFlagPrototyped, isOptimized: false)
!875 = !DISubroutineType(types: !876)
!876 = !{!707, !433, !730, !730, !443}
!877 = !DISubprogram(name: "replace", linkageName: "_ZNSt3__112basic_stringIcNS_11char_traitsIcEENS_9allocatorIcEEE7replaceENS_11__wrap_iterIPKcEES9_NS_17basic_string_viewIcS2_EE", scope: !154, file: !155, line: 1092, type: !878, isLocal: false, isDefinition: false, scopeLine: 1092, flags: DIFlagPublic | DIFlagPrototyped, isOptimized: false)
!878 = !DISubroutineType(types: !879)
!879 = !{!707, !433, !730, !730, !482}
!880 = !DISubprogram(name: "replace", linkageName: "_ZNSt3__112basic_stringIcNS_11char_traitsIcEENS_9allocatorIcEEE7replaceENS_11__wrap_iterIPKcEES9_S8_m", scope: !154, file: !155, line: 1094, type: !881, isLocal: false, isDefinition: false, scopeLine: 1094, flags: DIFlagPublic | DIFlagPrototyped, isOptimized: false)
!881 = !DISubroutineType(types: !882)
!882 = !{!707, !433, !730, !730, !717, !171}
!883 = !DISubprogram(name: "replace", linkageName: "_ZNSt3__112basic_stringIcNS_11char_traitsIcEENS_9allocatorIcEEE7replaceENS_11__wrap_iterIPKcEES9_S8_", scope: !154, file: !155, line: 1096, type: !884, isLocal: false, isDefinition: false, scopeLine: 1096, flags: DIFlagPublic | DIFlagPrototyped, isOptimized: false)
!884 = !DISubroutineType(types: !885)
!885 = !{!707, !433, !730, !730, !717}
!886 = !DISubprogram(name: "replace", linkageName: "_ZNSt3__112basic_stringIcNS_11char_traitsIcEENS_9allocatorIcEEE7replaceENS_11__wrap_iterIPKcEES9_mc", scope: !154, file: !155, line: 1098, type: !887, isLocal: false, isDefinition: false, scopeLine: 1098, flags: DIFlagPublic | DIFlagPrototyped, isOptimized: false)
!887 = !DISubroutineType(types: !888)
!888 = !{!707, !433, !730, !730, !171, !350}
!889 = !DISubprogram(name: "replace", linkageName: "_ZNSt3__112basic_stringIcNS_11char_traitsIcEENS_9allocatorIcEEE7replaceENS_11__wrap_iterIPKcEES9_St16initializer_listIcE", scope: !154, file: !155, line: 1109, type: !890, isLocal: false, isDefinition: false, scopeLine: 1109, flags: DIFlagPublic | DIFlagPrototyped, isOptimized: false)
!890 = !DISubroutineType(types: !891)
!891 = !{!707, !433, !730, !730, !673}
!892 = !DISubprogram(name: "copy", linkageName: "_ZNKSt3__112basic_stringIcNS_11char_traitsIcEENS_9allocatorIcEEE4copyEPcmm", scope: !154, file: !155, line: 1113, type: !893, isLocal: false, isDefinition: false, scopeLine: 1113, flags: DIFlagPublic | DIFlagPrototyped, isOptimized: false)
!893 = !DISubroutineType(types: !894)
!894 = !{!171, !703, !895, !171, !171}
!895 = !DIDerivedType(tag: DW_TAG_pointer_type, baseType: !350, size: 64)
!896 = !DISubprogram(name: "substr", linkageName: "_ZNKSt3__112basic_stringIcNS_11char_traitsIcEENS_9allocatorIcEEE6substrEmm", scope: !154, file: !155, line: 1115, type: !897, isLocal: false, isDefinition: false, scopeLine: 1115, flags: DIFlagPublic | DIFlagPrototyped, isOptimized: false)
!897 = !DISubroutineType(types: !898)
!898 = !{!154, !703, !171, !171}
!899 = !DISubprogram(name: "swap", linkageName: "_ZNSt3__112basic_stringIcNS_11char_traitsIcEENS_9allocatorIcEEE4swapERS5_", scope: !154, file: !155, line: 1118, type: !900, isLocal: false, isDefinition: false, scopeLine: 1118, flags: DIFlagPublic | DIFlagPrototyped, isOptimized: false)
!900 = !DISubroutineType(types: !901)
!901 = !{null, !433, !707}
!902 = !DISubprogram(name: "c_str", linkageName: "_ZNKSt3__112basic_stringIcNS_11char_traitsIcEENS_9allocatorIcEEE5c_strEv", scope: !154, file: !155, line: 1127, type: !903, isLocal: false, isDefinition: false, scopeLine: 1127, flags: DIFlagPublic | DIFlagPrototyped, isOptimized: false)
!903 = !DISubroutineType(types: !904)
!904 = !{!717, !703}
!905 = !DISubprogram(name: "data", linkageName: "_ZNKSt3__112basic_stringIcNS_11char_traitsIcEENS_9allocatorIcEEE4dataEv", scope: !154, file: !155, line: 1129, type: !903, isLocal: false, isDefinition: false, scopeLine: 1129, flags: DIFlagPublic | DIFlagPrototyped, isOptimized: false)
!906 = !DISubprogram(name: "get_allocator", linkageName: "_ZNKSt3__112basic_stringIcNS_11char_traitsIcEENS_9allocatorIcEEE13get_allocatorEv", scope: !154, file: !155, line: 1136, type: !907, isLocal: false, isDefinition: false, scopeLine: 1136, flags: DIFlagPublic | DIFlagPrototyped, isOptimized: false)
!907 = !DISubroutineType(types: !908)
!908 = !{!439, !703}
!909 = !DISubprogram(name: "find", linkageName: "_ZNKSt3__112basic_stringIcNS_11char_traitsIcEENS_9allocatorIcEEE4findERKS5_m", scope: !154, file: !155, line: 1139, type: !910, isLocal: false, isDefinition: false, scopeLine: 1139, flags: DIFlagPublic | DIFlagPrototyped, isOptimized: false)
!910 = !DISubroutineType(types: !911)
!911 = !{!171, !703, !443, !171}
!912 = !DISubprogram(name: "find", linkageName: "_ZNKSt3__112basic_stringIcNS_11char_traitsIcEENS_9allocatorIcEEE4findENS_17basic_string_viewIcS2_EEm", scope: !154, file: !155, line: 1141, type: !913, isLocal: false, isDefinition: false, scopeLine: 1141, flags: DIFlagPublic | DIFlagPrototyped, isOptimized: false)
!913 = !DISubroutineType(types: !914)
!914 = !{!171, !703, !482, !171}
!915 = !DISubprogram(name: "find", linkageName: "_ZNKSt3__112basic_stringIcNS_11char_traitsIcEENS_9allocatorIcEEE4findEPKcmm", scope: !154, file: !155, line: 1142, type: !916, isLocal: false, isDefinition: false, scopeLine: 1142, flags: DIFlagPublic | DIFlagPrototyped, isOptimized: false)
!916 = !DISubroutineType(types: !917)
!917 = !{!171, !703, !717, !171, !171}
!918 = !DISubprogram(name: "find", linkageName: "_ZNKSt3__112basic_stringIcNS_11char_traitsIcEENS_9allocatorIcEEE4findEPKcm", scope: !154, file: !155, line: 1144, type: !919, isLocal: false, isDefinition: false, scopeLine: 1144, flags: DIFlagPublic | DIFlagPrototyped, isOptimized: false)
!919 = !DISubroutineType(types: !920)
!920 = !{!171, !703, !717, !171}
!921 = !DISubprogram(name: "find", linkageName: "_ZNKSt3__112basic_stringIcNS_11char_traitsIcEENS_9allocatorIcEEE4findEcm", scope: !154, file: !155, line: 1145, type: !922, isLocal: false, isDefinition: false, scopeLine: 1145, flags: DIFlagPublic | DIFlagPrototyped, isOptimized: false)
!922 = !DISubroutineType(types: !923)
!923 = !{!171, !703, !350, !171}
!924 = !DISubprogram(name: "rfind", linkageName: "_ZNKSt3__112basic_stringIcNS_11char_traitsIcEENS_9allocatorIcEEE5rfindERKS5_m", scope: !154, file: !155, line: 1148, type: !910, isLocal: false, isDefinition: false, scopeLine: 1148, flags: DIFlagPublic | DIFlagPrototyped, isOptimized: false)
!925 = !DISubprogram(name: "rfind", linkageName: "_ZNKSt3__112basic_stringIcNS_11char_traitsIcEENS_9allocatorIcEEE5rfindENS_17basic_string_viewIcS2_EEm", scope: !154, file: !155, line: 1150, type: !913, isLocal: false, isDefinition: false, scopeLine: 1150, flags: DIFlagPublic | DIFlagPrototyped, isOptimized: false)
!926 = !DISubprogram(name: "rfind", linkageName: "_ZNKSt3__112basic_stringIcNS_11char_traitsIcEENS_9allocatorIcEEE5rfindEPKcmm", scope: !154, file: !155, line: 1151, type: !916, isLocal: false, isDefinition: false, scopeLine: 1151, flags: DIFlagPublic | DIFlagPrototyped, isOptimized: false)
!927 = !DISubprogram(name: "rfind", linkageName: "_ZNKSt3__112basic_stringIcNS_11char_traitsIcEENS_9allocatorIcEEE5rfindEPKcm", scope: !154, file: !155, line: 1153, type: !919, isLocal: false, isDefinition: false, scopeLine: 1153, flags: DIFlagPublic | DIFlagPrototyped, isOptimized: false)
!928 = !DISubprogram(name: "rfind", linkageName: "_ZNKSt3__112basic_stringIcNS_11char_traitsIcEENS_9allocatorIcEEE5rfindEcm", scope: !154, file: !155, line: 1154, type: !922, isLocal: false, isDefinition: false, scopeLine: 1154, flags: DIFlagPublic | DIFlagPrototyped, isOptimized: false)
!929 = !DISubprogram(name: "find_first_of", linkageName: "_ZNKSt3__112basic_stringIcNS_11char_traitsIcEENS_9allocatorIcEEE13find_first_ofERKS5_m", scope: !154, file: !155, line: 1157, type: !910, isLocal: false, isDefinition: false, scopeLine: 1157, flags: DIFlagPublic | DIFlagPrototyped, isOptimized: false)
!930 = !DISubprogram(name: "find_first_of", linkageName: "_ZNKSt3__112basic_stringIcNS_11char_traitsIcEENS_9allocatorIcEEE13find_first_ofENS_17basic_string_viewIcS2_EEm", scope: !154, file: !155, line: 1159, type: !913, isLocal: false, isDefinition: false, scopeLine: 1159, flags: DIFlagPublic | DIFlagPrototyped, isOptimized: false)
!931 = !DISubprogram(name: "find_first_of", linkageName: "_ZNKSt3__112basic_stringIcNS_11char_traitsIcEENS_9allocatorIcEEE13find_first_ofEPKcmm", scope: !154, file: !155, line: 1160, type: !916, isLocal: false, isDefinition: false, scopeLine: 1160, flags: DIFlagPublic | DIFlagPrototyped, isOptimized: false)
!932 = !DISubprogram(name: "find_first_of", linkageName: "_ZNKSt3__112basic_stringIcNS_11char_traitsIcEENS_9allocatorIcEEE13find_first_ofEPKcm", scope: !154, file: !155, line: 1162, type: !919, isLocal: false, isDefinition: false, scopeLine: 1162, flags: DIFlagPublic | DIFlagPrototyped, isOptimized: false)
!933 = !DISubprogram(name: "find_first_of", linkageName: "_ZNKSt3__112basic_stringIcNS_11char_traitsIcEENS_9allocatorIcEEE13find_first_ofEcm", scope: !154, file: !155, line: 1164, type: !922, isLocal: false, isDefinition: false, scopeLine: 1164, flags: DIFlagPublic | DIFlagPrototyped, isOptimized: false)
!934 = !DISubprogram(name: "find_last_of", linkageName: "_ZNKSt3__112basic_stringIcNS_11char_traitsIcEENS_9allocatorIcEEE12find_last_ofERKS5_m", scope: !154, file: !155, line: 1167, type: !910, isLocal: false, isDefinition: false, scopeLine: 1167, flags: DIFlagPublic | DIFlagPrototyped, isOptimized: false)
!935 = !DISubprogram(name: "find_last_of", linkageName: "_ZNKSt3__112basic_stringIcNS_11char_traitsIcEENS_9allocatorIcEEE12find_last_ofENS_17basic_string_viewIcS2_EEm", scope: !154, file: !155, line: 1169, type: !913, isLocal: false, isDefinition: false, scopeLine: 1169, flags: DIFlagPublic | DIFlagPrototyped, isOptimized: false)
!936 = !DISubprogram(name: "find_last_of", linkageName: "_ZNKSt3__112basic_stringIcNS_11char_traitsIcEENS_9allocatorIcEEE12find_last_ofEPKcmm", scope: !154, file: !155, line: 1170, type: !916, isLocal: false, isDefinition: false, scopeLine: 1170, flags: DIFlagPublic | DIFlagPrototyped, isOptimized: false)
!937 = !DISubprogram(name: "find_last_of", linkageName: "_ZNKSt3__112basic_stringIcNS_11char_traitsIcEENS_9allocatorIcEEE12find_last_ofEPKcm", scope: !154, file: !155, line: 1172, type: !919, isLocal: false, isDefinition: false, scopeLine: 1172, flags: DIFlagPublic | DIFlagPrototyped, isOptimized: false)
!938 = !DISubprogram(name: "find_last_of", linkageName: "_ZNKSt3__112basic_stringIcNS_11char_traitsIcEENS_9allocatorIcEEE12find_last_ofEcm", scope: !154, file: !155, line: 1174, type: !922, isLocal: false, isDefinition: false, scopeLine: 1174, flags: DIFlagPublic | DIFlagPrototyped, isOptimized: false)
!939 = !DISubprogram(name: "find_first_not_of", linkageName: "_ZNKSt3__112basic_stringIcNS_11char_traitsIcEENS_9allocatorIcEEE17find_first_not_ofERKS5_m", scope: !154, file: !155, line: 1177, type: !910, isLocal: false, isDefinition: false, scopeLine: 1177, flags: DIFlagPublic | DIFlagPrototyped, isOptimized: false)
!940 = !DISubprogram(name: "find_first_not_of", linkageName: "_ZNKSt3__112basic_stringIcNS_11char_traitsIcEENS_9allocatorIcEEE17find_first_not_ofENS_17basic_string_viewIcS2_EEm", scope: !154, file: !155, line: 1179, type: !913, isLocal: false, isDefinition: false, scopeLine: 1179, flags: DIFlagPublic | DIFlagPrototyped, isOptimized: false)
!941 = !DISubprogram(name: "find_first_not_of", linkageName: "_ZNKSt3__112basic_stringIcNS_11char_traitsIcEENS_9allocatorIcEEE17find_first_not_ofEPKcmm", scope: !154, file: !155, line: 1180, type: !916, isLocal: false, isDefinition: false, scopeLine: 1180, flags: DIFlagPublic | DIFlagPrototyped, isOptimized: false)
!942 = !DISubprogram(name: "find_first_not_of", linkageName: "_ZNKSt3__112basic_stringIcNS_11char_traitsIcEENS_9allocatorIcEEE17find_first_not_ofEPKcm", scope: !154, file: !155, line: 1182, type: !919, isLocal: false, isDefinition: false, scopeLine: 1182, flags: DIFlagPublic | DIFlagPrototyped, isOptimized: false)
!943 = !DISubprogram(name: "find_first_not_of", linkageName: "_ZNKSt3__112basic_stringIcNS_11char_traitsIcEENS_9allocatorIcEEE17find_first_not_ofEcm", scope: !154, file: !155, line: 1184, type: !922, isLocal: false, isDefinition: false, scopeLine: 1184, flags: DIFlagPublic | DIFlagPrototyped, isOptimized: false)
!944 = !DISubprogram(name: "find_last_not_of", linkageName: "_ZNKSt3__112basic_stringIcNS_11char_traitsIcEENS_9allocatorIcEEE16find_last_not_ofERKS5_m", scope: !154, file: !155, line: 1187, type: !910, isLocal: false, isDefinition: false, scopeLine: 1187, flags: DIFlagPublic | DIFlagPrototyped, isOptimized: false)
!945 = !DISubprogram(name: "find_last_not_of", linkageName: "_ZNKSt3__112basic_stringIcNS_11char_traitsIcEENS_9allocatorIcEEE16find_last_not_ofENS_17basic_string_viewIcS2_EEm", scope: !154, file: !155, line: 1189, type: !913, isLocal: false, isDefinition: false, scopeLine: 1189, flags: DIFlagPublic | DIFlagPrototyped, isOptimized: false)
!946 = !DISubprogram(name: "find_last_not_of", linkageName: "_ZNKSt3__112basic_stringIcNS_11char_traitsIcEENS_9allocatorIcEEE16find_last_not_ofEPKcmm", scope: !154, file: !155, line: 1190, type: !916, isLocal: false, isDefinition: false, scopeLine: 1190, flags: DIFlagPublic | DIFlagPrototyped, isOptimized: false)
!947 = !DISubprogram(name: "find_last_not_of", linkageName: "_ZNKSt3__112basic_stringIcNS_11char_traitsIcEENS_9allocatorIcEEE16find_last_not_ofEPKcm", scope: !154, file: !155, line: 1192, type: !919, isLocal: false, isDefinition: false, scopeLine: 1192, flags: DIFlagPublic | DIFlagPrototyped, isOptimized: false)
!948 = !DISubprogram(name: "find_last_not_of", linkageName: "_ZNKSt3__112basic_stringIcNS_11char_traitsIcEENS_9allocatorIcEEE16find_last_not_ofEcm", scope: !154, file: !155, line: 1194, type: !922, isLocal: false, isDefinition: false, scopeLine: 1194, flags: DIFlagPublic | DIFlagPrototyped, isOptimized: false)
!949 = !DISubprogram(name: "compare", linkageName: "_ZNKSt3__112basic_stringIcNS_11char_traitsIcEENS_9allocatorIcEEE7compareERKS5_", scope: !154, file: !155, line: 1197, type: !950, isLocal: false, isDefinition: false, scopeLine: 1197, flags: DIFlagPublic | DIFlagPrototyped, isOptimized: false)
!950 = !DISubroutineType(types: !951)
!951 = !{!14, !703, !443}
!952 = !DISubprogram(name: "compare", linkageName: "_ZNKSt3__112basic_stringIcNS_11char_traitsIcEENS_9allocatorIcEEE7compareENS_17basic_string_viewIcS2_EE", scope: !154, file: !155, line: 1199, type: !953, isLocal: false, isDefinition: false, scopeLine: 1199, flags: DIFlagPublic | DIFlagPrototyped, isOptimized: false)
!953 = !DISubroutineType(types: !954)
!954 = !{!14, !703, !482}
!955 = !DISubprogram(name: "compare", linkageName: "_ZNKSt3__112basic_stringIcNS_11char_traitsIcEENS_9allocatorIcEEE7compareEmmNS_17basic_string_viewIcS2_EE", scope: !154, file: !155, line: 1201, type: !956, isLocal: false, isDefinition: false, scopeLine: 1201, flags: DIFlagPublic | DIFlagPrototyped, isOptimized: false)
!956 = !DISubroutineType(types: !957)
!957 = !{!14, !703, !171, !171, !482}
!958 = !DISubprogram(name: "compare", linkageName: "_ZNKSt3__112basic_stringIcNS_11char_traitsIcEENS_9allocatorIcEEE7compareEmmRKS5_", scope: !154, file: !155, line: 1203, type: !959, isLocal: false, isDefinition: false, scopeLine: 1203, flags: DIFlagPublic | DIFlagPrototyped, isOptimized: false)
!959 = !DISubroutineType(types: !960)
!960 = !{!14, !703, !171, !171, !443}
!961 = !DISubprogram(name: "compare", linkageName: "_ZNKSt3__112basic_stringIcNS_11char_traitsIcEENS_9allocatorIcEEE7compareEmmRKS5_mm", scope: !154, file: !155, line: 1204, type: !962, isLocal: false, isDefinition: false, scopeLine: 1204, flags: DIFlagPublic | DIFlagPrototyped, isOptimized: false)
!962 = !DISubroutineType(types: !963)
!963 = !{!14, !703, !171, !171, !443, !171, !171}
!964 = !DISubprogram(name: "compare", linkageName: "_ZNKSt3__112basic_stringIcNS_11char_traitsIcEENS_9allocatorIcEEE7compareEPKc", scope: !154, file: !155, line: 1213, type: !965, isLocal: false, isDefinition: false, scopeLine: 1213, flags: DIFlagPublic | DIFlagPrototyped, isOptimized: false)
!965 = !DISubroutineType(types: !966)
!966 = !{!14, !703, !717}
!967 = !DISubprogram(name: "compare", linkageName: "_ZNKSt3__112basic_stringIcNS_11char_traitsIcEENS_9allocatorIcEEE7compareEmmPKc", scope: !154, file: !155, line: 1214, type: !968, isLocal: false, isDefinition: false, scopeLine: 1214, flags: DIFlagPublic | DIFlagPrototyped, isOptimized: false)
!968 = !DISubroutineType(types: !969)
!969 = !{!14, !703, !171, !171, !717}
!970 = !DISubprogram(name: "compare", linkageName: "_ZNKSt3__112basic_stringIcNS_11char_traitsIcEENS_9allocatorIcEEE7compareEmmPKcm", scope: !154, file: !155, line: 1215, type: !971, isLocal: false, isDefinition: false, scopeLine: 1215, flags: DIFlagPublic | DIFlagPrototyped, isOptimized: false)
!971 = !DISubroutineType(types: !972)
!972 = !{!14, !703, !171, !171, !717, !171}
!973 = !DISubprogram(name: "__invariants", linkageName: "_ZNKSt3__112basic_stringIcNS_11char_traitsIcEENS_9allocatorIcEEE12__invariantsEv", scope: !154, file: !155, line: 1217, type: !766, isLocal: false, isDefinition: false, scopeLine: 1217, flags: DIFlagPublic | DIFlagPrototyped, isOptimized: false)
!974 = !DISubprogram(name: "__is_long", linkageName: "_ZNKSt3__112basic_stringIcNS_11char_traitsIcEENS_9allocatorIcEEE9__is_longEv", scope: !154, file: !155, line: 1220, type: !766, isLocal: false, isDefinition: false, scopeLine: 1220, flags: DIFlagPublic | DIFlagPrototyped, isOptimized: false)
!975 = !DISubprogram(name: "__alloc", linkageName: "_ZNSt3__112basic_stringIcNS_11char_traitsIcEENS_9allocatorIcEEE7__allocEv", scope: !154, file: !155, line: 1234, type: !976, isLocal: false, isDefinition: false, scopeLine: 1234, flags: DIFlagPrototyped, isOptimized: false)
!976 = !DISubroutineType(types: !977)
!977 = !{!978, !433}
!978 = !DIDerivedType(tag: DW_TAG_reference_type, baseType: !439, size: 64)
!979 = !DISubprogram(name: "__alloc", linkageName: "_ZNKSt3__112basic_stringIcNS_11char_traitsIcEENS_9allocatorIcEEE7__allocEv", scope: !154, file: !155, line: 1237, type: !980, isLocal: false, isDefinition: false, scopeLine: 1237, flags: DIFlagPrototyped, isOptimized: false)
!980 = !DISubroutineType(types: !981)
!981 = !{!437, !703}
!982 = !DISubprogram(name: "__set_short_size", linkageName: "_ZNSt3__112basic_stringIcNS_11char_traitsIcEENS_9allocatorIcEEE16__set_short_sizeEm", scope: !154, file: !155, line: 1261, type: !760, isLocal: false, isDefinition: false, scopeLine: 1261, flags: DIFlagPrototyped, isOptimized: false)
!983 = !DISubprogram(name: "__get_short_size", linkageName: "_ZNKSt3__112basic_stringIcNS_11char_traitsIcEENS_9allocatorIcEEE16__get_short_sizeEv", scope: !154, file: !155, line: 1269, type: !751, isLocal: false, isDefinition: false, scopeLine: 1269, flags: DIFlagPrototyped, isOptimized: false)
!984 = !DISubprogram(name: "__set_long_size", linkageName: "_ZNSt3__112basic_stringIcNS_11char_traitsIcEENS_9allocatorIcEEE15__set_long_sizeEm", scope: !154, file: !155, line: 1279, type: !760, isLocal: false, isDefinition: false, scopeLine: 1279, flags: DIFlagPrototyped, isOptimized: false)
!985 = !DISubprogram(name: "__get_long_size", linkageName: "_ZNKSt3__112basic_stringIcNS_11char_traitsIcEENS_9allocatorIcEEE15__get_long_sizeEv", scope: !154, file: !155, line: 1282, type: !751, isLocal: false, isDefinition: false, scopeLine: 1282, flags: DIFlagPrototyped, isOptimized: false)
!986 = !DISubprogram(name: "__set_size", linkageName: "_ZNSt3__112basic_stringIcNS_11char_traitsIcEENS_9allocatorIcEEE10__set_sizeEm", scope: !154, file: !155, line: 1285, type: !760, isLocal: false, isDefinition: false, scopeLine: 1285, flags: DIFlagPrototyped, isOptimized: false)
!987 = !DISubprogram(name: "__set_long_cap", linkageName: "_ZNSt3__112basic_stringIcNS_11char_traitsIcEENS_9allocatorIcEEE14__set_long_capEm", scope: !154, file: !155, line: 1289, type: !760, isLocal: false, isDefinition: false, scopeLine: 1289, flags: DIFlagPrototyped, isOptimized: false)
!988 = !DISubprogram(name: "__get_long_cap", linkageName: "_ZNKSt3__112basic_stringIcNS_11char_traitsIcEENS_9allocatorIcEEE14__get_long_capEv", scope: !154, file: !155, line: 1292, type: !751, isLocal: false, isDefinition: false, scopeLine: 1292, flags: DIFlagPrototyped, isOptimized: false)
!989 = !DISubprogram(name: "__set_long_pointer", linkageName: "_ZNSt3__112basic_stringIcNS_11char_traitsIcEENS_9allocatorIcEEE18__set_long_pointerEPc", scope: !154, file: !155, line: 1296, type: !990, isLocal: false, isDefinition: false, scopeLine: 1296, flags: DIFlagPrototyped, isOptimized: false)
!990 = !DISubroutineType(types: !991)
!991 = !{null, !433, !340}
!992 = !DISubprogram(name: "__get_long_pointer", linkageName: "_ZNSt3__112basic_stringIcNS_11char_traitsIcEENS_9allocatorIcEEE18__get_long_pointerEv", scope: !154, file: !155, line: 1299, type: !993, isLocal: false, isDefinition: false, scopeLine: 1299, flags: DIFlagPrototyped, isOptimized: false)
!993 = !DISubroutineType(types: !994)
!994 = !{!340, !433}
!995 = !DISubprogram(name: "__get_long_pointer", linkageName: "_ZNKSt3__112basic_stringIcNS_11char_traitsIcEENS_9allocatorIcEEE18__get_long_pointerEv", scope: !154, file: !155, line: 1302, type: !996, isLocal: false, isDefinition: false, scopeLine: 1302, flags: DIFlagPrototyped, isOptimized: false)
!996 = !DISubroutineType(types: !997)
!997 = !{!998, !703}
!998 = !DIDerivedType(tag: DW_TAG_typedef, name: "const_pointer", scope: !154, file: !155, line: 645, baseType: !999)
!999 = !DIDerivedType(tag: DW_TAG_typedef, name: "const_pointer", scope: !174, file: !173, line: 1473, baseType: !1000)
!1000 = !DIDerivedType(tag: DW_TAG_typedef, name: "type", scope: !1001, file: !173, line: 1033, baseType: !204)
!1001 = distinct !DICompositeType(tag: DW_TAG_structure_type, name: "__const_pointer<char, char *, std::__1::allocator<char>, true>", scope: !6, file: !173, line: 1031, size: 8, elements: !182, templateParams: !1002, identifier: "_ZTSNSt3__115__const_pointerIcPcNS_9allocatorIcEELb1EEE")
!1002 = !{!184, !240, !241, !167}
!1003 = !DISubprogram(name: "__get_short_pointer", linkageName: "_ZNSt3__112basic_stringIcNS_11char_traitsIcEENS_9allocatorIcEEE19__get_short_pointerEv", scope: !154, file: !155, line: 1305, type: !993, isLocal: false, isDefinition: false, scopeLine: 1305, flags: DIFlagPrototyped, isOptimized: false)
!1004 = !DISubprogram(name: "__get_short_pointer", linkageName: "_ZNKSt3__112basic_stringIcNS_11char_traitsIcEENS_9allocatorIcEEE19__get_short_pointerEv", scope: !154, file: !155, line: 1308, type: !996, isLocal: false, isDefinition: false, scopeLine: 1308, flags: DIFlagPrototyped, isOptimized: false)
!1005 = !DISubprogram(name: "__get_pointer", linkageName: "_ZNSt3__112basic_stringIcNS_11char_traitsIcEENS_9allocatorIcEEE13__get_pointerEv", scope: !154, file: !155, line: 1311, type: !993, isLocal: false, isDefinition: false, scopeLine: 1311, flags: DIFlagPrototyped, isOptimized: false)
!1006 = !DISubprogram(name: "__get_pointer", linkageName: "_ZNKSt3__112basic_stringIcNS_11char_traitsIcEENS_9allocatorIcEEE13__get_pointerEv", scope: !154, file: !155, line: 1314, type: !996, isLocal: false, isDefinition: false, scopeLine: 1314, flags: DIFlagPrototyped, isOptimized: false)
!1007 = !DISubprogram(name: "__zero", linkageName: "_ZNSt3__112basic_stringIcNS_11char_traitsIcEENS_9allocatorIcEEE6__zeroEv", scope: !154, file: !155, line: 1318, type: !431, isLocal: false, isDefinition: false, scopeLine: 1318, flags: DIFlagPrototyped, isOptimized: false)
!1008 = !DISubprogram(name: "__recommend", linkageName: "_ZNSt3__112basic_stringIcNS_11char_traitsIcEENS_9allocatorIcEEE11__recommendEm", scope: !154, file: !155, line: 1331, type: !1009, isLocal: false, isDefinition: false, scopeLine: 1331, flags: DIFlagPrototyped, isOptimized: false)
!1009 = !DISubroutineType(types: !1010)
!1010 = !{!171, !171}
!1011 = !DISubprogram(name: "__init", linkageName: "_ZNSt3__112basic_stringIcNS_11char_traitsIcEENS_9allocatorIcEEE6__initEPKcmm", scope: !154, file: !155, line: 1337, type: !1012, isLocal: false, isDefinition: false, scopeLine: 1337, flags: DIFlagPrototyped, isOptimized: false)
!1012 = !DISubroutineType(types: !1013)
!1013 = !{null, !433, !717, !171, !171}
!1014 = !DISubprogram(name: "__init", linkageName: "_ZNSt3__112basic_stringIcNS_11char_traitsIcEENS_9allocatorIcEEE6__initEPKcm", scope: !154, file: !155, line: 1339, type: !1015, isLocal: false, isDefinition: false, scopeLine: 1339, flags: DIFlagPrototyped, isOptimized: false)
!1015 = !DISubroutineType(types: !1016)
!1016 = !{null, !433, !717, !171}
!1017 = !DISubprogram(name: "__init", linkageName: "_ZNSt3__112basic_stringIcNS_11char_traitsIcEENS_9allocatorIcEEE6__initEmc", scope: !154, file: !155, line: 1341, type: !757, isLocal: false, isDefinition: false, scopeLine: 1341, flags: DIFlagPrototyped, isOptimized: false)
!1018 = !DISubprogram(name: "__grow_by", linkageName: "_ZNSt3__112basic_stringIcNS_11char_traitsIcEENS_9allocatorIcEEE9__grow_byEmmmmmm", scope: !154, file: !155, line: 1361, type: !1019, isLocal: false, isDefinition: false, scopeLine: 1361, flags: DIFlagPrototyped, isOptimized: false)
!1019 = !DISubroutineType(types: !1020)
!1020 = !{null, !433, !171, !171, !171, !171, !171, !171}
!1021 = !DISubprogram(name: "__grow_by_and_replace", linkageName: "_ZNSt3__112basic_stringIcNS_11char_traitsIcEENS_9allocatorIcEEE21__grow_by_and_replaceEmmmmmmPKc", scope: !154, file: !155, line: 1363, type: !1022, isLocal: false, isDefinition: false, scopeLine: 1363, flags: DIFlagPrototyped, isOptimized: false)
!1022 = !DISubroutineType(types: !1023)
!1023 = !{null, !433, !171, !171, !171, !171, !171, !171, !717}
!1024 = !DISubprogram(name: "__erase_to_end", linkageName: "_ZNSt3__112basic_stringIcNS_11char_traitsIcEENS_9allocatorIcEEE14__erase_to_endEm", scope: !154, file: !155, line: 1368, type: !760, isLocal: false, isDefinition: false, scopeLine: 1368, flags: DIFlagPrototyped, isOptimized: false)
!1025 = !DISubprogram(name: "__copy_assign_alloc", linkageName: "_ZNSt3__112basic_stringIcNS_11char_traitsIcEENS_9allocatorIcEEE19__copy_assign_allocERKS5_", scope: !154, file: !155, line: 1371, type: !441, isLocal: false, isDefinition: false, scopeLine: 1371, flags: DIFlagPrototyped, isOptimized: false)
!1026 = !DISubprogram(name: "__copy_assign_alloc", linkageName: "_ZNSt3__112basic_stringIcNS_11char_traitsIcEENS_9allocatorIcEEE19__copy_assign_allocERKS5_NS_17integral_constantIbLb1EEE", scope: !154, file: !155, line: 1376, type: !1027, isLocal: false, isDefinition: false, scopeLine: 1376, flags: DIFlagPrototyped, isOptimized: false)
!1027 = !DISubroutineType(types: !1028)
!1028 = !{null, !433, !443, !274}
!1029 = !DISubprogram(name: "__copy_assign_alloc", linkageName: "_ZNSt3__112basic_stringIcNS_11char_traitsIcEENS_9allocatorIcEEE19__copy_assign_allocERKS5_NS_17integral_constantIbLb0EEE", scope: !154, file: !155, line: 1403, type: !1030, isLocal: false, isDefinition: false, scopeLine: 1403, flags: DIFlagPrototyped, isOptimized: false)
!1030 = !DISubroutineType(types: !1031)
!1031 = !{null, !433, !443, !291}
!1032 = !DISubprogram(name: "__move_assign", linkageName: "_ZNSt3__112basic_stringIcNS_11char_traitsIcEENS_9allocatorIcEEE13__move_assignERS5_NS_17integral_constantIbLb0EEE", scope: !154, file: !155, line: 1408, type: !1033, isLocal: false, isDefinition: false, scopeLine: 1408, flags: DIFlagPrototyped, isOptimized: false)
!1033 = !DISubroutineType(types: !1034)
!1034 = !{null, !433, !707, !291}
!1035 = !DISubprogram(name: "__move_assign", linkageName: "_ZNSt3__112basic_stringIcNS_11char_traitsIcEENS_9allocatorIcEEE13__move_assignERS5_NS_17integral_constantIbLb1EEE", scope: !154, file: !155, line: 1411, type: !1036, isLocal: false, isDefinition: false, scopeLine: 1411, flags: DIFlagPrototyped, isOptimized: false)
!1036 = !DISubroutineType(types: !1037)
!1037 = !{null, !433, !707, !274}
!1038 = !DISubprogram(name: "__move_assign_alloc", linkageName: "_ZNSt3__112basic_stringIcNS_11char_traitsIcEENS_9allocatorIcEEE19__move_assign_allocERS5_", scope: !154, file: !155, line: 1421, type: !900, isLocal: false, isDefinition: false, scopeLine: 1421, flags: DIFlagPrototyped, isOptimized: false)
!1039 = !DISubprogram(name: "__move_assign_alloc", linkageName: "_ZNSt3__112basic_stringIcNS_11char_traitsIcEENS_9allocatorIcEEE19__move_assign_allocERS5_NS_17integral_constantIbLb1EEE", scope: !154, file: !155, line: 1429, type: !1036, isLocal: false, isDefinition: false, scopeLine: 1429, flags: DIFlagPrototyped, isOptimized: false)
!1040 = !DISubprogram(name: "__move_assign_alloc", linkageName: "_ZNSt3__112basic_stringIcNS_11char_traitsIcEENS_9allocatorIcEEE19__move_assign_allocERS5_NS_17integral_constantIbLb0EEE", scope: !154, file: !155, line: 1436, type: !1033, isLocal: false, isDefinition: false, scopeLine: 1436, flags: DIFlagPrototyped, isOptimized: false)
!1041 = !DISubprogram(name: "__invalidate_all_iterators", linkageName: "_ZNSt3__112basic_stringIcNS_11char_traitsIcEENS_9allocatorIcEEE26__invalidate_all_iteratorsEv", scope: !154, file: !155, line: 1440, type: !431, isLocal: false, isDefinition: false, scopeLine: 1440, flags: DIFlagPrototyped, isOptimized: false)
!1042 = !DISubprogram(name: "__invalidate_iterators_past", linkageName: "_ZNSt3__112basic_stringIcNS_11char_traitsIcEENS_9allocatorIcEEE27__invalidate_iterators_pastEm", scope: !154, file: !155, line: 1441, type: !760, isLocal: false, isDefinition: false, scopeLine: 1441, flags: DIFlagPrototyped, isOptimized: false)
!1043 = !{!616, !617, !1044}
!1044 = !DITemplateTypeParameter(name: "_Allocator", type: !186)
!1045 = !DISubprogram(name: "locale", scope: !116, file: !117, line: 107, type: !1046, isLocal: false, isDefinition: false, scopeLine: 107, flags: DIFlagPublic | DIFlagPrototyped, isOptimized: false)
!1046 = !DISubroutineType(types: !1047)
!1047 = !{null, !135, !139, !144, !121}
!1048 = !DISubprogram(name: "locale", scope: !116, file: !117, line: 108, type: !1049, isLocal: false, isDefinition: false, scopeLine: 108, flags: DIFlagPublic | DIFlagPrototyped, isOptimized: false)
!1049 = !DISubroutineType(types: !1050)
!1050 = !{null, !135, !139, !150, !121}
!1051 = !DISubprogram(name: "locale", scope: !116, file: !117, line: 111, type: !1052, isLocal: false, isDefinition: false, scopeLine: 111, flags: DIFlagPublic | DIFlagPrototyped, isOptimized: false)
!1052 = !DISubroutineType(types: !1053)
!1053 = !{null, !135, !139, !139, !121}
!1054 = !DISubprogram(name: "~locale", scope: !116, file: !117, line: 113, type: !133, isLocal: false, isDefinition: false, scopeLine: 113, flags: DIFlagPublic | DIFlagPrototyped, isOptimized: false)
!1055 = !DISubprogram(name: "operator=", linkageName: "_ZNSt3__16localeaSERKS0_", scope: !116, file: !117, line: 115, type: !1056, isLocal: false, isDefinition: false, scopeLine: 115, flags: DIFlagPublic | DIFlagPrototyped, isOptimized: false)
!1056 = !DISubroutineType(types: !1057)
!1057 = !{!139, !135, !139}
!1058 = !DISubprogram(name: "name", linkageName: "_ZNKSt3__16locale4nameEv", scope: !116, file: !117, line: 122, type: !1059, isLocal: false, isDefinition: false, scopeLine: 122, flags: DIFlagPublic | DIFlagPrototyped, isOptimized: false)
!1059 = !DISubroutineType(types: !1060)
!1060 = !{!152, !1061}
!1061 = !DIDerivedType(tag: DW_TAG_pointer_type, baseType: !140, size: 64, flags: DIFlagArtificial | DIFlagObjectPointer)
!1062 = !DISubprogram(name: "operator==", linkageName: "_ZNKSt3__16localeeqERKS0_", scope: !116, file: !117, line: 123, type: !1063, isLocal: false, isDefinition: false, scopeLine: 123, flags: DIFlagPublic | DIFlagPrototyped, isOptimized: false)
!1063 = !DISubroutineType(types: !1064)
!1064 = !{!168, !1061, !139}
!1065 = !DISubprogram(name: "operator!=", linkageName: "_ZNKSt3__16localeneERKS0_", scope: !116, file: !117, line: 124, type: !1063, isLocal: false, isDefinition: false, scopeLine: 124, flags: DIFlagPublic | DIFlagPrototyped, isOptimized: false)
!1066 = !DISubprogram(name: "global", linkageName: "_ZNSt3__16locale6globalERKS0_", scope: !116, file: !117, line: 131, type: !1067, isLocal: false, isDefinition: false, scopeLine: 131, flags: DIFlagPublic | DIFlagPrototyped, isOptimized: false)
!1067 = !DISubroutineType(types: !1068)
!1068 = !{!116, !139}
!1069 = !DISubprogram(name: "classic", linkageName: "_ZNSt3__16locale7classicEv", scope: !116, file: !117, line: 132, type: !1070, isLocal: false, isDefinition: false, scopeLine: 132, flags: DIFlagPublic | DIFlagPrototyped, isOptimized: false)
!1070 = !DISubroutineType(types: !1071)
!1071 = !{!139}
!1072 = !DISubprogram(name: "__install_ctor", linkageName: "_ZNSt3__16locale14__install_ctorERKS0_PNS0_5facetEl", scope: !116, file: !117, line: 138, type: !1073, isLocal: false, isDefinition: false, scopeLine: 138, flags: DIFlagPrototyped, isOptimized: false)
!1073 = !DISubroutineType(types: !1074)
!1074 = !{null, !135, !139, !1075, !55}
!1075 = !DIDerivedType(tag: DW_TAG_pointer_type, baseType: !1076, size: 64)
!1076 = distinct !DICompositeType(tag: DW_TAG_class_type, name: "facet", scope: !116, file: !117, line: 147, size: 128, elements: !1077, vtableHolder: !1079, identifier: "_ZTSNSt3__16locale5facetE")
!1077 = !{!1078, !1108, !1112, !1115}
!1078 = !DIDerivedType(tag: DW_TAG_inheritance, scope: !1076, baseType: !1079, flags: DIFlagPublic)
!1079 = distinct !DICompositeType(tag: DW_TAG_class_type, name: "__shared_count", scope: !6, file: !173, line: 3416, size: 128, elements: !1080, vtableHolder: !1079, identifier: "_ZTSNSt3__114__shared_countE")
!1080 = !{!1081, !1082, !1083, !1089, !1093, !1096, !1097, !1100, !1101, !1104}
!1081 = !DIDerivedType(tag: DW_TAG_member, name: "_vptr$__shared_count", scope: !173, file: !173, baseType: !10, size: 64, flags: DIFlagArtificial)
!1082 = !DIDerivedType(tag: DW_TAG_member, name: "__shared_owners_", scope: !1079, file: !173, line: 3422, baseType: !55, size: 64, offset: 64, flags: DIFlagProtected)
!1083 = !DISubprogram(name: "__shared_count", scope: !1079, file: !173, line: 3418, type: !1084, isLocal: false, isDefinition: false, scopeLine: 3418, flags: DIFlagPrototyped, isOptimized: false)
!1084 = !DISubroutineType(types: !1085)
!1085 = !{null, !1086, !1087}
!1086 = !DIDerivedType(tag: DW_TAG_pointer_type, baseType: !1079, size: 64, flags: DIFlagArtificial | DIFlagObjectPointer)
!1087 = !DIDerivedType(tag: DW_TAG_reference_type, baseType: !1088, size: 64)
!1088 = !DIDerivedType(tag: DW_TAG_const_type, baseType: !1079)
!1089 = !DISubprogram(name: "operator=", linkageName: "_ZNSt3__114__shared_countaSERKS0_", scope: !1079, file: !173, line: 3419, type: !1090, isLocal: false, isDefinition: false, scopeLine: 3419, flags: DIFlagPrototyped, isOptimized: false)
!1090 = !DISubroutineType(types: !1091)
!1091 = !{!1092, !1086, !1087}
!1092 = !DIDerivedType(tag: DW_TAG_reference_type, baseType: !1079, size: 64)
!1093 = !DISubprogram(name: "~__shared_count", scope: !1079, file: !173, line: 3423, type: !1094, isLocal: false, isDefinition: false, scopeLine: 3423, containingType: !1079, virtuality: DW_VIRTUALITY_virtual, virtualIndex: 0, flags: DIFlagProtected | DIFlagPrototyped, isOptimized: false)
!1094 = !DISubroutineType(types: !1095)
!1095 = !{null, !1086}
!1096 = !DISubprogram(name: "__on_zero_shared", linkageName: "_ZNSt3__114__shared_count16__on_zero_sharedEv", scope: !1079, file: !173, line: 3425, type: !1094, isLocal: false, isDefinition: false, scopeLine: 3425, containingType: !1079, virtuality: DW_VIRTUALITY_pure_virtual, virtualIndex: 2, flags: DIFlagPrototyped, isOptimized: false)
!1097 = !DISubprogram(name: "__shared_count", scope: !1079, file: !173, line: 3429, type: !1098, isLocal: false, isDefinition: false, scopeLine: 3429, flags: DIFlagPublic | DIFlagExplicit | DIFlagPrototyped, isOptimized: false)
!1098 = !DISubroutineType(types: !1099)
!1099 = !{null, !1086, !55}
!1100 = !DISubprogram(name: "__add_shared", linkageName: "_ZNSt3__114__shared_count12__add_sharedEv", scope: !1079, file: !173, line: 3438, type: !1094, isLocal: false, isDefinition: false, scopeLine: 3438, flags: DIFlagPublic | DIFlagPrototyped, isOptimized: false)
!1101 = !DISubprogram(name: "__release_shared", linkageName: "_ZNSt3__114__shared_count16__release_sharedEv", scope: !1079, file: !173, line: 3442, type: !1102, isLocal: false, isDefinition: false, scopeLine: 3442, flags: DIFlagPublic | DIFlagPrototyped, isOptimized: false)
!1102 = !DISubroutineType(types: !1103)
!1103 = !{!168, !1086}
!1104 = !DISubprogram(name: "use_count", linkageName: "_ZNKSt3__114__shared_count9use_countEv", scope: !1079, file: !173, line: 3451, type: !1105, isLocal: false, isDefinition: false, scopeLine: 3451, flags: DIFlagPublic | DIFlagPrototyped, isOptimized: false)
!1105 = !DISubroutineType(types: !1106)
!1106 = !{!55, !1107}
!1107 = !DIDerivedType(tag: DW_TAG_pointer_type, baseType: !1088, size: 64, flags: DIFlagArtificial | DIFlagObjectPointer)
!1108 = !DISubprogram(name: "facet", scope: !1076, file: !117, line: 152, type: !1109, isLocal: false, isDefinition: false, scopeLine: 152, flags: DIFlagProtected | DIFlagExplicit | DIFlagPrototyped, isOptimized: false)
!1109 = !DISubroutineType(types: !1110)
!1110 = !{null, !1111, !72}
!1111 = !DIDerivedType(tag: DW_TAG_pointer_type, baseType: !1076, size: 64, flags: DIFlagArtificial | DIFlagObjectPointer)
!1112 = !DISubprogram(name: "~facet", scope: !1076, file: !117, line: 155, type: !1113, isLocal: false, isDefinition: false, scopeLine: 155, containingType: !1076, virtuality: DW_VIRTUALITY_virtual, virtualIndex: 0, flags: DIFlagProtected | DIFlagPrototyped, isOptimized: false)
!1113 = !DISubroutineType(types: !1114)
!1114 = !{null, !1111}
!1115 = !DISubprogram(name: "__on_zero_shared", linkageName: "_ZNSt3__16locale5facet16__on_zero_sharedEv", scope: !1076, file: !117, line: 160, type: !1113, isLocal: false, isDefinition: false, scopeLine: 160, containingType: !1076, virtuality: DW_VIRTUALITY_virtual, virtualIndex: 2, flags: DIFlagPrototyped, isOptimized: false)
!1116 = !DISubprogram(name: "__global", linkageName: "_ZNSt3__16locale8__globalEv", scope: !116, file: !117, line: 139, type: !1117, isLocal: false, isDefinition: false, scopeLine: 139, flags: DIFlagPrototyped, isOptimized: false)
!1117 = !DISubroutineType(types: !1118)
!1118 = !{!1119}
!1119 = !DIDerivedType(tag: DW_TAG_reference_type, baseType: !116, size: 64)
!1120 = !DISubprogram(name: "has_facet", linkageName: "_ZNKSt3__16locale9has_facetERNS0_2idE", scope: !116, file: !117, line: 140, type: !1121, isLocal: false, isDefinition: false, scopeLine: 140, flags: DIFlagPrototyped, isOptimized: false)
!1121 = !DISubroutineType(types: !1122)
!1122 = !{!168, !1061, !1123}
!1123 = !DIDerivedType(tag: DW_TAG_reference_type, baseType: !1124, size: 64)
!1124 = distinct !DICompositeType(tag: DW_TAG_class_type, name: "id", scope: !116, file: !117, line: 163, size: 128, elements: !1125, identifier: "_ZTSNSt3__16locale2idE")
!1125 = !{!1126, !1144, !1147, !1148, !1152, !1153, !1158, !1159}
!1126 = !DIDerivedType(tag: DW_TAG_member, name: "__flag_", scope: !1124, file: !117, line: 165, baseType: !1127, size: 64)
!1127 = distinct !DICompositeType(tag: DW_TAG_structure_type, name: "once_flag", scope: !6, file: !1128, line: 572, size: 64, elements: !1129, identifier: "_ZTSNSt3__19once_flagE")
!1128 = !DIFile(filename: "/Applications/Xcode.app/Contents/Developer/Toolchains/XcodeDefault.xctoolchain/usr/include/c++/v1/mutex", directory: "/Users/ejiang/Projects/lls/ac/llfiles")
!1129 = !{!1130, !1131, !1135, !1140}
!1130 = !DIDerivedType(tag: DW_TAG_member, name: "__state_", scope: !1127, file: !1128, line: 582, baseType: !76, size: 64, flags: DIFlagPrivate)
!1131 = !DISubprogram(name: "once_flag", scope: !1127, file: !1128, line: 576, type: !1132, isLocal: false, isDefinition: false, scopeLine: 576, flags: DIFlagPrototyped, isOptimized: false)
!1132 = !DISubroutineType(types: !1133)
!1133 = !{null, !1134}
!1134 = !DIDerivedType(tag: DW_TAG_pointer_type, baseType: !1127, size: 64, flags: DIFlagArtificial | DIFlagObjectPointer)
!1135 = !DISubprogram(name: "once_flag", scope: !1127, file: !1128, line: 579, type: !1136, isLocal: false, isDefinition: false, scopeLine: 579, flags: DIFlagPrivate | DIFlagPrototyped, isOptimized: false)
!1136 = !DISubroutineType(types: !1137)
!1137 = !{null, !1134, !1138}
!1138 = !DIDerivedType(tag: DW_TAG_reference_type, baseType: !1139, size: 64)
!1139 = !DIDerivedType(tag: DW_TAG_const_type, baseType: !1127)
!1140 = !DISubprogram(name: "operator=", linkageName: "_ZNSt3__19once_flagaSERKS0_", scope: !1127, file: !1128, line: 580, type: !1141, isLocal: false, isDefinition: false, scopeLine: 580, flags: DIFlagPrivate | DIFlagPrototyped, isOptimized: false)
!1141 = !DISubroutineType(types: !1142)
!1142 = !{!1143, !1134, !1138}
!1143 = !DIDerivedType(tag: DW_TAG_reference_type, baseType: !1127, size: 64)
!1144 = !DIDerivedType(tag: DW_TAG_member, name: "__id_", scope: !1124, file: !117, line: 166, baseType: !1145, size: 32, offset: 64)
!1145 = !DIDerivedType(tag: DW_TAG_typedef, name: "int32_t", file: !1146, line: 30, baseType: !14)
!1146 = !DIFile(filename: "/Applications/Xcode.app/Contents/Developer/Platforms/MacOSX.platform/Developer/SDKs/MacOSX10.13.sdk/usr/include/sys/_types/_int32_t.h", directory: "/Users/ejiang/Projects/lls/ac/llfiles")
!1147 = !DIDerivedType(tag: DW_TAG_member, name: "__next_id", scope: !1124, file: !117, line: 168, baseType: !1145, flags: DIFlagStaticMember)
!1148 = !DISubprogram(name: "id", scope: !1124, file: !117, line: 170, type: !1149, isLocal: false, isDefinition: false, scopeLine: 170, flags: DIFlagPublic | DIFlagPrototyped, isOptimized: false)
!1149 = !DISubroutineType(types: !1150)
!1150 = !{null, !1151}
!1151 = !DIDerivedType(tag: DW_TAG_pointer_type, baseType: !1124, size: 64, flags: DIFlagArtificial | DIFlagObjectPointer)
!1152 = !DISubprogram(name: "__init", linkageName: "_ZNSt3__16locale2id6__initEv", scope: !1124, file: !117, line: 172, type: !1149, isLocal: false, isDefinition: false, scopeLine: 172, flags: DIFlagPrototyped, isOptimized: false)
!1153 = !DISubprogram(name: "operator=", linkageName: "_ZNSt3__16locale2idaSERKS1_", scope: !1124, file: !117, line: 173, type: !1154, isLocal: false, isDefinition: false, scopeLine: 173, flags: DIFlagPrototyped, isOptimized: false)
!1154 = !DISubroutineType(types: !1155)
!1155 = !{null, !1151, !1156}
!1156 = !DIDerivedType(tag: DW_TAG_reference_type, baseType: !1157, size: 64)
!1157 = !DIDerivedType(tag: DW_TAG_const_type, baseType: !1124)
!1158 = !DISubprogram(name: "id", scope: !1124, file: !117, line: 174, type: !1154, isLocal: false, isDefinition: false, scopeLine: 174, flags: DIFlagPrototyped, isOptimized: false)
!1159 = !DISubprogram(name: "__get", linkageName: "_ZNSt3__16locale2id5__getEv", scope: !1124, file: !117, line: 176, type: !1160, isLocal: false, isDefinition: false, scopeLine: 176, flags: DIFlagPublic | DIFlagPrototyped, isOptimized: false)
!1160 = !DISubroutineType(types: !1161)
!1161 = !{!55, !1151}
!1162 = !DISubprogram(name: "use_facet", linkageName: "_ZNKSt3__16locale9use_facetERNS0_2idE", scope: !116, file: !117, line: 141, type: !1163, isLocal: false, isDefinition: false, scopeLine: 141, flags: DIFlagPrototyped, isOptimized: false)
!1163 = !DISubroutineType(types: !1164)
!1164 = !{!1165, !1061, !1123}
!1165 = !DIDerivedType(tag: DW_TAG_pointer_type, baseType: !1166, size: 64)
!1166 = !DIDerivedType(tag: DW_TAG_const_type, baseType: !1076)
!1167 = !DISubprogram(name: "getloc", linkageName: "_ZNKSt3__18ios_base6getlocEv", scope: !5, file: !4, line: 297, type: !1168, isLocal: false, isDefinition: false, scopeLine: 297, flags: DIFlagPublic | DIFlagPrototyped, isOptimized: false)
!1168 = !DISubroutineType(types: !1169)
!1169 = !{!116, !92}
!1170 = !DISubprogram(name: "xalloc", linkageName: "_ZNSt3__18ios_base6xallocEv", scope: !5, file: !4, line: 300, type: !12, isLocal: false, isDefinition: false, scopeLine: 300, flags: DIFlagPublic | DIFlagPrototyped, isOptimized: false)
!1171 = !DISubprogram(name: "iword", linkageName: "_ZNSt3__18ios_base5iwordEi", scope: !5, file: !4, line: 301, type: !1172, isLocal: false, isDefinition: false, scopeLine: 301, flags: DIFlagPublic | DIFlagPrototyped, isOptimized: false)
!1172 = !DISubroutineType(types: !1173)
!1173 = !{!1174, !97, !14}
!1174 = !DIDerivedType(tag: DW_TAG_reference_type, baseType: !55, size: 64)
!1175 = !DISubprogram(name: "pword", linkageName: "_ZNSt3__18ios_base5pwordEi", scope: !5, file: !4, line: 302, type: !1176, isLocal: false, isDefinition: false, scopeLine: 302, flags: DIFlagPublic | DIFlagPrototyped, isOptimized: false)
!1176 = !DISubroutineType(types: !1177)
!1177 = !{!1178, !97, !14}
!1178 = !DIDerivedType(tag: DW_TAG_reference_type, baseType: !60, size: 64)
!1179 = !DISubprogram(name: "~ios_base", scope: !5, file: !4, line: 305, type: !1180, isLocal: false, isDefinition: false, scopeLine: 305, containingType: !5, virtuality: DW_VIRTUALITY_virtual, virtualIndex: 0, flags: DIFlagPublic | DIFlagPrototyped, isOptimized: false)
!1180 = !DISubroutineType(types: !1181)
!1181 = !{null, !97}
!1182 = !DISubprogram(name: "register_callback", linkageName: "_ZNSt3__18ios_base17register_callbackEPFvNS0_5eventERS0_iEi", scope: !5, file: !4, line: 310, type: !1183, isLocal: false, isDefinition: false, scopeLine: 310, flags: DIFlagPublic | DIFlagPrototyped, isOptimized: false)
!1183 = !DISubroutineType(types: !1184)
!1184 = !{null, !97, !64, !14}
!1185 = !DISubprogram(name: "ios_base", scope: !5, file: !4, line: 313, type: !1186, isLocal: false, isDefinition: false, scopeLine: 313, flags: DIFlagPrototyped, isOptimized: false)
!1186 = !DISubroutineType(types: !1187)
!1187 = !{null, !97, !1188}
!1188 = !DIDerivedType(tag: DW_TAG_reference_type, baseType: !93, size: 64)
!1189 = !DISubprogram(name: "operator=", linkageName: "_ZNSt3__18ios_baseaSERKS0_", scope: !5, file: !4, line: 314, type: !1190, isLocal: false, isDefinition: false, scopeLine: 314, flags: DIFlagPrototyped, isOptimized: false)
!1190 = !DISubroutineType(types: !1191)
!1191 = !{!68, !97, !1188}
!1192 = !DISubprogram(name: "sync_with_stdio", linkageName: "_ZNSt3__18ios_base15sync_with_stdioEb", scope: !5, file: !4, line: 317, type: !1193, isLocal: false, isDefinition: false, scopeLine: 317, flags: DIFlagPublic | DIFlagPrototyped, isOptimized: false)
!1193 = !DISubroutineType(types: !1194)
!1194 = !{!168, !168}
!1195 = !DISubprogram(name: "rdstate", linkageName: "_ZNKSt3__18ios_base7rdstateEv", scope: !5, file: !4, line: 319, type: !1196, isLocal: false, isDefinition: false, scopeLine: 319, flags: DIFlagPublic | DIFlagPrototyped, isOptimized: false)
!1196 = !DISubroutineType(types: !1197)
!1197 = !{!38, !92}
!1198 = !DISubprogram(name: "clear", linkageName: "_ZNSt3__18ios_base5clearEj", scope: !5, file: !4, line: 320, type: !1199, isLocal: false, isDefinition: false, scopeLine: 320, flags: DIFlagPublic | DIFlagPrototyped, isOptimized: false)
!1199 = !DISubroutineType(types: !1200)
!1200 = !{null, !97, !38}
!1201 = !DISubprogram(name: "setstate", linkageName: "_ZNSt3__18ios_base8setstateEj", scope: !5, file: !4, line: 321, type: !1199, isLocal: false, isDefinition: false, scopeLine: 321, flags: DIFlagPublic | DIFlagPrototyped, isOptimized: false)
!1202 = !DISubprogram(name: "good", linkageName: "_ZNKSt3__18ios_base4goodEv", scope: !5, file: !4, line: 323, type: !1203, isLocal: false, isDefinition: false, scopeLine: 323, flags: DIFlagPublic | DIFlagPrototyped, isOptimized: false)
!1203 = !DISubroutineType(types: !1204)
!1204 = !{!168, !92}
!1205 = !DISubprogram(name: "eof", linkageName: "_ZNKSt3__18ios_base3eofEv", scope: !5, file: !4, line: 324, type: !1203, isLocal: false, isDefinition: false, scopeLine: 324, flags: DIFlagPublic | DIFlagPrototyped, isOptimized: false)
!1206 = !DISubprogram(name: "fail", linkageName: "_ZNKSt3__18ios_base4failEv", scope: !5, file: !4, line: 325, type: !1203, isLocal: false, isDefinition: false, scopeLine: 325, flags: DIFlagPublic | DIFlagPrototyped, isOptimized: false)
!1207 = !DISubprogram(name: "bad", linkageName: "_ZNKSt3__18ios_base3badEv", scope: !5, file: !4, line: 326, type: !1203, isLocal: false, isDefinition: false, scopeLine: 326, flags: DIFlagPublic | DIFlagPrototyped, isOptimized: false)
!1208 = !DISubprogram(name: "exceptions", linkageName: "_ZNKSt3__18ios_base10exceptionsEv", scope: !5, file: !4, line: 328, type: !1196, isLocal: false, isDefinition: false, scopeLine: 328, flags: DIFlagPublic | DIFlagPrototyped, isOptimized: false)
!1209 = !DISubprogram(name: "exceptions", linkageName: "_ZNSt3__18ios_base10exceptionsEj", scope: !5, file: !4, line: 329, type: !1199, isLocal: false, isDefinition: false, scopeLine: 329, flags: DIFlagPublic | DIFlagPrototyped, isOptimized: false)
!1210 = !DISubprogram(name: "__set_badbit_and_consider_rethrow", linkageName: "_ZNSt3__18ios_base33__set_badbit_and_consider_rethrowEv", scope: !5, file: !4, line: 331, type: !1180, isLocal: false, isDefinition: false, scopeLine: 331, flags: DIFlagPublic | DIFlagPrototyped, isOptimized: false)
!1211 = !DISubprogram(name: "__set_failbit_and_consider_rethrow", linkageName: "_ZNSt3__18ios_base34__set_failbit_and_consider_rethrowEv", scope: !5, file: !4, line: 332, type: !1180, isLocal: false, isDefinition: false, scopeLine: 332, flags: DIFlagPublic | DIFlagPrototyped, isOptimized: false)
!1212 = !DISubprogram(name: "ios_base", scope: !5, file: !4, line: 336, type: !1180, isLocal: false, isDefinition: false, scopeLine: 336, flags: DIFlagProtected | DIFlagPrototyped, isOptimized: false)
!1213 = !DISubprogram(name: "init", linkageName: "_ZNSt3__18ios_base4initEPv", scope: !5, file: !4, line: 339, type: !1214, isLocal: false, isDefinition: false, scopeLine: 339, flags: DIFlagProtected | DIFlagPrototyped, isOptimized: false)
!1214 = !DISubroutineType(types: !1215)
!1215 = !{null, !97, !60}
!1216 = !DISubprogram(name: "rdbuf", linkageName: "_ZNKSt3__18ios_base5rdbufEv", scope: !5, file: !4, line: 340, type: !1217, isLocal: false, isDefinition: false, scopeLine: 340, flags: DIFlagProtected | DIFlagPrototyped, isOptimized: false)
!1217 = !DISubroutineType(types: !1218)
!1218 = !{!60, !92}
!1219 = !DISubprogram(name: "rdbuf", linkageName: "_ZNSt3__18ios_base5rdbufEPv", scope: !5, file: !4, line: 343, type: !1214, isLocal: false, isDefinition: false, scopeLine: 343, flags: DIFlagProtected | DIFlagPrototyped, isOptimized: false)
!1220 = !DISubprogram(name: "__call_callbacks", linkageName: "_ZNSt3__18ios_base16__call_callbacksENS0_5eventE", scope: !5, file: !4, line: 349, type: !1221, isLocal: false, isDefinition: false, scopeLine: 349, flags: DIFlagProtected | DIFlagPrototyped, isOptimized: false)
!1221 = !DISubroutineType(types: !1222)
!1222 = !{null, !97, !3}
!1223 = !DISubprogram(name: "copyfmt", linkageName: "_ZNSt3__18ios_base7copyfmtERKS0_", scope: !5, file: !4, line: 350, type: !1186, isLocal: false, isDefinition: false, scopeLine: 350, flags: DIFlagProtected | DIFlagPrototyped, isOptimized: false)
!1224 = !DISubprogram(name: "move", linkageName: "_ZNSt3__18ios_base4moveERS0_", scope: !5, file: !4, line: 351, type: !1225, isLocal: false, isDefinition: false, scopeLine: 351, flags: DIFlagProtected | DIFlagPrototyped, isOptimized: false)
!1225 = !DISubroutineType(types: !1226)
!1226 = !{null, !97, !68}
!1227 = !DISubprogram(name: "swap", linkageName: "_ZNSt3__18ios_base4swapERS0_", scope: !5, file: !4, line: 352, type: !1225, isLocal: false, isDefinition: false, scopeLine: 352, flags: DIFlagProtected | DIFlagPrototyped, isOptimized: false)
!1228 = !DISubprogram(name: "set_rdbuf", linkageName: "_ZNSt3__18ios_base9set_rdbufEPv", scope: !5, file: !4, line: 355, type: !1214, isLocal: false, isDefinition: false, scopeLine: 355, flags: DIFlagProtected | DIFlagPrototyped, isOptimized: false)
!1229 = !{!1230, !1231, !1232}
!1230 = !DIEnumerator(name: "erase_event", value: 0)
!1231 = !DIEnumerator(name: "imbue_event", value: 1)
!1232 = !DIEnumerator(name: "copyfmt_event", value: 2)
!1233 = !DICompositeType(tag: DW_TAG_enumeration_type, name: "seekdir", scope: !5, file: !4, line: 270, size: 32, elements: !1234, identifier: "_ZTSNSt3__18ios_base7seekdirE")
!1234 = !{!1235, !1236, !1237}
!1235 = !DIEnumerator(name: "beg", value: 0)
!1236 = !DIEnumerator(name: "cur", value: 1)
!1237 = !DIEnumerator(name: "end", value: 2)
!1238 = !{!1239, !1240, !168, !1280, !653, !5, !154}
!1239 = !DIBasicType(name: "long long int", size: 64, encoding: DW_ATE_signed)
!1240 = !DIDerivedType(tag: DW_TAG_typedef, name: "_Ip", scope: !1242, file: !1241, line: 724, baseType: !1555)
!1241 = !DIFile(filename: "/Applications/Xcode.app/Contents/Developer/Toolchains/XcodeDefault.xctoolchain/usr/include/c++/v1/ostream", directory: "/Users/ejiang/Projects/lls/ac/llfiles")
!1242 = distinct !DISubprogram(name: "__put_character_sequence<char, std::__1::char_traits<char> >", linkageName: "_ZNSt3__124__put_character_sequenceIcNS_11char_traitsIcEEEERNS_13basic_ostreamIT_T0_EES7_PKS4_m", scope: !6, file: !1241, line: 714, type: !1243, isLocal: false, isDefinition: true, scopeLine: 716, flags: DIFlagPrototyped, isOptimized: false, unit: !0, templateParams: !615, retainedNodes: !182)
!1243 = !DISubroutineType(types: !1244)
!1244 = !{!1245, !1245, !144, !72}
!1245 = !DIDerivedType(tag: DW_TAG_reference_type, baseType: !1246, size: 64)
!1246 = distinct !DICompositeType(tag: DW_TAG_class_type, name: "basic_ostream<char, std::__1::char_traits<char> >", scope: !6, file: !1241, line: 1084, size: 1280, elements: !1247, vtableHolder: !1246, templateParams: !615, identifier: "_ZTSNSt3__113basic_ostreamIcNS_11char_traitsIcEEEE")
!1247 = !{!1248, !1439, !1440, !1444, !1447, !1451, !1454, !1457, !1462, !1465, !1471, !1477, !1483, !1486, !1490, !1494, !1497, !1500, !1503, !1506, !1509, !1513, !1517, !1521, !1525, !1528, !1531, !1535, !1540, !1543, !1547, !1550, !1554}
!1248 = !DIDerivedType(tag: DW_TAG_inheritance, scope: !1246, baseType: !1249, offset: 24, flags: DIFlagPublic | DIFlagVirtual)
!1249 = distinct !DICompositeType(tag: DW_TAG_class_type, name: "basic_ios<char, std::__1::char_traits<char> >", scope: !6, file: !1250, line: 486, size: 1216, elements: !1251, vtableHolder: !5, templateParams: !615, identifier: "_ZTSNSt3__19basic_iosIcNS_11char_traitsIcEEEE")
!1250 = !DIFile(filename: "/Applications/Xcode.app/Contents/Developer/Toolchains/XcodeDefault.xctoolchain/usr/include/c++/v1/streambuf", directory: "/Users/ejiang/Projects/lls/ac/llfiles")
!1251 = !{!1252, !1253, !1255, !1257, !1262, !1263, !1266, !1270, !1271, !1272, !1273, !1274, !1275, !1276, !1277, !1392, !1395, !1398, !1401, !1404, !1407, !1412, !1416, !1419, !1422, !1425, !1428, !1429, !1430, !1433, !1437, !1438}
!1252 = !DIDerivedType(tag: DW_TAG_inheritance, scope: !1249, baseType: !5, flags: DIFlagPublic)
!1253 = !DIDerivedType(tag: DW_TAG_member, name: "__tie_", scope: !1249, file: !4, line: 669, baseType: !1254, size: 64, offset: 1088)
!1254 = !DIDerivedType(tag: DW_TAG_pointer_type, baseType: !1246, size: 64)
!1255 = !DIDerivedType(tag: DW_TAG_member, name: "__fill_", scope: !1249, file: !4, line: 670, baseType: !1256, size: 32, offset: 1152)
!1256 = !DIDerivedType(tag: DW_TAG_typedef, name: "int_type", scope: !1249, file: !4, line: 591, baseType: !653)
!1257 = !DISubprogram(name: "operator bool", linkageName: "_ZNKSt3__19basic_iosIcNS_11char_traitsIcEEEcvbEv", scope: !1249, file: !4, line: 605, type: !1258, isLocal: false, isDefinition: false, scopeLine: 605, flags: DIFlagPublic | DIFlagExplicit | DIFlagPrototyped, isOptimized: false)
!1258 = !DISubroutineType(types: !1259)
!1259 = !{!168, !1260}
!1260 = !DIDerivedType(tag: DW_TAG_pointer_type, baseType: !1261, size: 64, flags: DIFlagArtificial | DIFlagObjectPointer)
!1261 = !DIDerivedType(tag: DW_TAG_const_type, baseType: !1249)
!1262 = !DISubprogram(name: "operator!", linkageName: "_ZNKSt3__19basic_iosIcNS_11char_traitsIcEEEntEv", scope: !1249, file: !4, line: 608, type: !1258, isLocal: false, isDefinition: false, scopeLine: 608, flags: DIFlagPublic | DIFlagPrototyped, isOptimized: false)
!1263 = !DISubprogram(name: "rdstate", linkageName: "_ZNKSt3__19basic_iosIcNS_11char_traitsIcEEE7rdstateEv", scope: !1249, file: !4, line: 609, type: !1264, isLocal: false, isDefinition: false, scopeLine: 609, flags: DIFlagPublic | DIFlagPrototyped, isOptimized: false)
!1264 = !DISubroutineType(types: !1265)
!1265 = !{!38, !1260}
!1266 = !DISubprogram(name: "clear", linkageName: "_ZNSt3__19basic_iosIcNS_11char_traitsIcEEE5clearEj", scope: !1249, file: !4, line: 610, type: !1267, isLocal: false, isDefinition: false, scopeLine: 610, flags: DIFlagPublic | DIFlagPrototyped, isOptimized: false)
!1267 = !DISubroutineType(types: !1268)
!1268 = !{null, !1269, !38}
!1269 = !DIDerivedType(tag: DW_TAG_pointer_type, baseType: !1249, size: 64, flags: DIFlagArtificial | DIFlagObjectPointer)
!1270 = !DISubprogram(name: "setstate", linkageName: "_ZNSt3__19basic_iosIcNS_11char_traitsIcEEE8setstateEj", scope: !1249, file: !4, line: 611, type: !1267, isLocal: false, isDefinition: false, scopeLine: 611, flags: DIFlagPublic | DIFlagPrototyped, isOptimized: false)
!1271 = !DISubprogram(name: "good", linkageName: "_ZNKSt3__19basic_iosIcNS_11char_traitsIcEEE4goodEv", scope: !1249, file: !4, line: 612, type: !1258, isLocal: false, isDefinition: false, scopeLine: 612, flags: DIFlagPublic | DIFlagPrototyped, isOptimized: false)
!1272 = !DISubprogram(name: "eof", linkageName: "_ZNKSt3__19basic_iosIcNS_11char_traitsIcEEE3eofEv", scope: !1249, file: !4, line: 613, type: !1258, isLocal: false, isDefinition: false, scopeLine: 613, flags: DIFlagPublic | DIFlagPrototyped, isOptimized: false)
!1273 = !DISubprogram(name: "fail", linkageName: "_ZNKSt3__19basic_iosIcNS_11char_traitsIcEEE4failEv", scope: !1249, file: !4, line: 614, type: !1258, isLocal: false, isDefinition: false, scopeLine: 614, flags: DIFlagPublic | DIFlagPrototyped, isOptimized: false)
!1274 = !DISubprogram(name: "bad", linkageName: "_ZNKSt3__19basic_iosIcNS_11char_traitsIcEEE3badEv", scope: !1249, file: !4, line: 615, type: !1258, isLocal: false, isDefinition: false, scopeLine: 615, flags: DIFlagPublic | DIFlagPrototyped, isOptimized: false)
!1275 = !DISubprogram(name: "exceptions", linkageName: "_ZNKSt3__19basic_iosIcNS_11char_traitsIcEEE10exceptionsEv", scope: !1249, file: !4, line: 617, type: !1264, isLocal: false, isDefinition: false, scopeLine: 617, flags: DIFlagPublic | DIFlagPrototyped, isOptimized: false)
!1276 = !DISubprogram(name: "exceptions", linkageName: "_ZNSt3__19basic_iosIcNS_11char_traitsIcEEE10exceptionsEj", scope: !1249, file: !4, line: 618, type: !1267, isLocal: false, isDefinition: false, scopeLine: 618, flags: DIFlagPublic | DIFlagPrototyped, isOptimized: false)
!1277 = !DISubprogram(name: "basic_ios", scope: !1249, file: !4, line: 622, type: !1278, isLocal: false, isDefinition: false, scopeLine: 622, flags: DIFlagPublic | DIFlagExplicit | DIFlagPrototyped, isOptimized: false)
!1278 = !DISubroutineType(types: !1279)
!1279 = !{null, !1269, !1280}
!1280 = !DIDerivedType(tag: DW_TAG_pointer_type, baseType: !1281, size: 64)
!1281 = distinct !DICompositeType(tag: DW_TAG_class_type, name: "basic_streambuf<char, std::__1::char_traits<char> >", scope: !6, file: !1250, line: 483, size: 512, elements: !1282, vtableHolder: !1281, templateParams: !615, identifier: "_ZTSNSt3__115basic_streambufIcNS_11char_traitsIcEEEE")
!1282 = !{!1283, !1284, !1285, !1288, !1289, !1290, !1291, !1292, !1293, !1297, !1300, !1305, !1308, !1318, !1321, !1324, !1327, !1331, !1332, !1333, !1336, !1339, !1340, !1341, !1346, !1347, !1351, !1355, !1358, !1361, !1362, !1363, !1366, !1369, !1370, !1371, !1372, !1373, !1376, !1379, !1380, !1381, !1382, !1383, !1384, !1385, !1386, !1387, !1390, !1391}
!1283 = !DIDerivedType(tag: DW_TAG_member, name: "_vptr$basic_streambuf", scope: !1250, file: !1250, baseType: !10, size: 64, flags: DIFlagArtificial)
!1284 = !DIDerivedType(tag: DW_TAG_member, name: "__loc_", scope: !1281, file: !1250, line: 290, baseType: !116, size: 64, offset: 64)
!1285 = !DIDerivedType(tag: DW_TAG_member, name: "__binp_", scope: !1281, file: !1250, line: 291, baseType: !1286, size: 64, offset: 128)
!1286 = !DIDerivedType(tag: DW_TAG_pointer_type, baseType: !1287, size: 64)
!1287 = !DIDerivedType(tag: DW_TAG_typedef, name: "char_type", scope: !1281, file: !1250, line: 129, baseType: !146)
!1288 = !DIDerivedType(tag: DW_TAG_member, name: "__ninp_", scope: !1281, file: !1250, line: 292, baseType: !1286, size: 64, offset: 192)
!1289 = !DIDerivedType(tag: DW_TAG_member, name: "__einp_", scope: !1281, file: !1250, line: 293, baseType: !1286, size: 64, offset: 256)
!1290 = !DIDerivedType(tag: DW_TAG_member, name: "__bout_", scope: !1281, file: !1250, line: 294, baseType: !1286, size: 64, offset: 320)
!1291 = !DIDerivedType(tag: DW_TAG_member, name: "__nout_", scope: !1281, file: !1250, line: 295, baseType: !1286, size: 64, offset: 384)
!1292 = !DIDerivedType(tag: DW_TAG_member, name: "__eout_", scope: !1281, file: !1250, line: 296, baseType: !1286, size: 64, offset: 448)
!1293 = !DISubprogram(name: "~basic_streambuf", scope: !1281, file: !1250, line: 135, type: !1294, isLocal: false, isDefinition: false, scopeLine: 135, containingType: !1281, virtuality: DW_VIRTUALITY_virtual, virtualIndex: 0, flags: DIFlagPublic | DIFlagPrototyped, isOptimized: false)
!1294 = !DISubroutineType(types: !1295)
!1295 = !{null, !1296}
!1296 = !DIDerivedType(tag: DW_TAG_pointer_type, baseType: !1281, size: 64, flags: DIFlagArtificial | DIFlagObjectPointer)
!1297 = !DISubprogram(name: "pubimbue", linkageName: "_ZNSt3__115basic_streambufIcNS_11char_traitsIcEEE8pubimbueERKNS_6localeE", scope: !1281, file: !1250, line: 139, type: !1298, isLocal: false, isDefinition: false, scopeLine: 139, flags: DIFlagPublic | DIFlagPrototyped, isOptimized: false)
!1298 = !DISubroutineType(types: !1299)
!1299 = !{!116, !1296, !139}
!1300 = !DISubprogram(name: "getloc", linkageName: "_ZNKSt3__115basic_streambufIcNS_11char_traitsIcEEE6getlocEv", scope: !1281, file: !1250, line: 147, type: !1301, isLocal: false, isDefinition: false, scopeLine: 147, flags: DIFlagPublic | DIFlagPrototyped, isOptimized: false)
!1301 = !DISubroutineType(types: !1302)
!1302 = !{!116, !1303}
!1303 = !DIDerivedType(tag: DW_TAG_pointer_type, baseType: !1304, size: 64, flags: DIFlagArtificial | DIFlagObjectPointer)
!1304 = !DIDerivedType(tag: DW_TAG_const_type, baseType: !1281)
!1305 = !DISubprogram(name: "pubsetbuf", linkageName: "_ZNSt3__115basic_streambufIcNS_11char_traitsIcEEE9pubsetbufEPcl", scope: !1281, file: !1250, line: 151, type: !1306, isLocal: false, isDefinition: false, scopeLine: 151, flags: DIFlagPublic | DIFlagPrototyped, isOptimized: false)
!1306 = !DISubroutineType(types: !1307)
!1307 = !{!1280, !1296, !1286, !52}
!1308 = !DISubprogram(name: "pubseekoff", linkageName: "_ZNSt3__115basic_streambufIcNS_11char_traitsIcEEE10pubseekoffExNS_8ios_base7seekdirEj", scope: !1281, file: !1250, line: 155, type: !1309, isLocal: false, isDefinition: false, scopeLine: 155, flags: DIFlagPublic | DIFlagPrototyped, isOptimized: false)
!1309 = !DISubroutineType(types: !1310)
!1310 = !{!1311, !1296, !1315, !1233, !44}
!1311 = !DIDerivedType(tag: DW_TAG_typedef, name: "pos_type", scope: !1281, file: !1250, line: 132, baseType: !1312)
!1312 = !DIDerivedType(tag: DW_TAG_typedef, name: "pos_type", scope: !618, file: !619, line: 204, baseType: !1313)
!1313 = !DIDerivedType(tag: DW_TAG_typedef, name: "streampos", scope: !6, file: !153, line: 176, baseType: !1314)
!1314 = !DICompositeType(tag: DW_TAG_class_type, name: "fpos<__mbstate_t>", scope: !6, file: !153, line: 175, flags: DIFlagFwdDecl, identifier: "_ZTSNSt3__14fposI11__mbstate_tEE")
!1315 = !DIDerivedType(tag: DW_TAG_typedef, name: "off_type", scope: !1281, file: !1250, line: 133, baseType: !1316)
!1316 = !DIDerivedType(tag: DW_TAG_typedef, name: "off_type", scope: !618, file: !619, line: 203, baseType: !1317)
!1317 = !DIDerivedType(tag: DW_TAG_typedef, name: "streamoff", scope: !6, file: !153, line: 187, baseType: !1239)
!1318 = !DISubprogram(name: "pubseekpos", linkageName: "_ZNSt3__115basic_streambufIcNS_11char_traitsIcEEE10pubseekposENS_4fposI11__mbstate_tEEj", scope: !1281, file: !1250, line: 160, type: !1319, isLocal: false, isDefinition: false, scopeLine: 160, flags: DIFlagPublic | DIFlagPrototyped, isOptimized: false)
!1319 = !DISubroutineType(types: !1320)
!1320 = !{!1311, !1296, !1311, !44}
!1321 = !DISubprogram(name: "pubsync", linkageName: "_ZNSt3__115basic_streambufIcNS_11char_traitsIcEEE7pubsyncEv", scope: !1281, file: !1250, line: 165, type: !1322, isLocal: false, isDefinition: false, scopeLine: 165, flags: DIFlagPublic | DIFlagPrototyped, isOptimized: false)
!1322 = !DISubroutineType(types: !1323)
!1323 = !{!14, !1296}
!1324 = !DISubprogram(name: "in_avail", linkageName: "_ZNSt3__115basic_streambufIcNS_11char_traitsIcEEE8in_availEv", scope: !1281, file: !1250, line: 170, type: !1325, isLocal: false, isDefinition: false, scopeLine: 170, flags: DIFlagPublic | DIFlagPrototyped, isOptimized: false)
!1325 = !DISubroutineType(types: !1326)
!1326 = !{!52, !1296}
!1327 = !DISubprogram(name: "snextc", linkageName: "_ZNSt3__115basic_streambufIcNS_11char_traitsIcEEE6snextcEv", scope: !1281, file: !1250, line: 177, type: !1328, isLocal: false, isDefinition: false, scopeLine: 177, flags: DIFlagPublic | DIFlagPrototyped, isOptimized: false)
!1328 = !DISubroutineType(types: !1329)
!1329 = !{!1330, !1296}
!1330 = !DIDerivedType(tag: DW_TAG_typedef, name: "int_type", scope: !1281, file: !1250, line: 131, baseType: !653)
!1331 = !DISubprogram(name: "sbumpc", linkageName: "_ZNSt3__115basic_streambufIcNS_11char_traitsIcEEE6sbumpcEv", scope: !1281, file: !1250, line: 184, type: !1328, isLocal: false, isDefinition: false, scopeLine: 184, flags: DIFlagPublic | DIFlagPrototyped, isOptimized: false)
!1332 = !DISubprogram(name: "sgetc", linkageName: "_ZNSt3__115basic_streambufIcNS_11char_traitsIcEEE5sgetcEv", scope: !1281, file: !1250, line: 191, type: !1328, isLocal: false, isDefinition: false, scopeLine: 191, flags: DIFlagPublic | DIFlagPrototyped, isOptimized: false)
!1333 = !DISubprogram(name: "sgetn", linkageName: "_ZNSt3__115basic_streambufIcNS_11char_traitsIcEEE5sgetnEPcl", scope: !1281, file: !1250, line: 198, type: !1334, isLocal: false, isDefinition: false, scopeLine: 198, flags: DIFlagPublic | DIFlagPrototyped, isOptimized: false)
!1334 = !DISubroutineType(types: !1335)
!1335 = !{!52, !1296, !1286, !52}
!1336 = !DISubprogram(name: "sputbackc", linkageName: "_ZNSt3__115basic_streambufIcNS_11char_traitsIcEEE9sputbackcEc", scope: !1281, file: !1250, line: 203, type: !1337, isLocal: false, isDefinition: false, scopeLine: 203, flags: DIFlagPublic | DIFlagPrototyped, isOptimized: false)
!1337 = !DISubroutineType(types: !1338)
!1338 = !{!1330, !1296, !1287}
!1339 = !DISubprogram(name: "sungetc", linkageName: "_ZNSt3__115basic_streambufIcNS_11char_traitsIcEEE7sungetcEv", scope: !1281, file: !1250, line: 210, type: !1328, isLocal: false, isDefinition: false, scopeLine: 210, flags: DIFlagPublic | DIFlagPrototyped, isOptimized: false)
!1340 = !DISubprogram(name: "sputc", linkageName: "_ZNSt3__115basic_streambufIcNS_11char_traitsIcEEE5sputcEc", scope: !1281, file: !1250, line: 218, type: !1337, isLocal: false, isDefinition: false, scopeLine: 218, flags: DIFlagPublic | DIFlagPrototyped, isOptimized: false)
!1341 = !DISubprogram(name: "sputn", linkageName: "_ZNSt3__115basic_streambufIcNS_11char_traitsIcEEE5sputnEPKcl", scope: !1281, file: !1250, line: 226, type: !1342, isLocal: false, isDefinition: false, scopeLine: 226, flags: DIFlagPublic | DIFlagPrototyped, isOptimized: false)
!1342 = !DISubroutineType(types: !1343)
!1343 = !{!52, !1296, !1344, !52}
!1344 = !DIDerivedType(tag: DW_TAG_pointer_type, baseType: !1345, size: 64)
!1345 = !DIDerivedType(tag: DW_TAG_const_type, baseType: !1287)
!1346 = !DISubprogram(name: "basic_streambuf", scope: !1281, file: !1250, line: 230, type: !1294, isLocal: false, isDefinition: false, scopeLine: 230, flags: DIFlagProtected | DIFlagPrototyped, isOptimized: false)
!1347 = !DISubprogram(name: "basic_streambuf", scope: !1281, file: !1250, line: 231, type: !1348, isLocal: false, isDefinition: false, scopeLine: 231, flags: DIFlagProtected | DIFlagPrototyped, isOptimized: false)
!1348 = !DISubroutineType(types: !1349)
!1349 = !{null, !1296, !1350}
!1350 = !DIDerivedType(tag: DW_TAG_reference_type, baseType: !1304, size: 64)
!1351 = !DISubprogram(name: "operator=", linkageName: "_ZNSt3__115basic_streambufIcNS_11char_traitsIcEEEaSERKS3_", scope: !1281, file: !1250, line: 232, type: !1352, isLocal: false, isDefinition: false, scopeLine: 232, flags: DIFlagProtected | DIFlagPrototyped, isOptimized: false)
!1352 = !DISubroutineType(types: !1353)
!1353 = !{!1354, !1296, !1350}
!1354 = !DIDerivedType(tag: DW_TAG_reference_type, baseType: !1281, size: 64)
!1355 = !DISubprogram(name: "swap", linkageName: "_ZNSt3__115basic_streambufIcNS_11char_traitsIcEEE4swapERS3_", scope: !1281, file: !1250, line: 233, type: !1356, isLocal: false, isDefinition: false, scopeLine: 233, flags: DIFlagProtected | DIFlagPrototyped, isOptimized: false)
!1356 = !DISubroutineType(types: !1357)
!1357 = !{null, !1296, !1354}
!1358 = !DISubprogram(name: "eback", linkageName: "_ZNKSt3__115basic_streambufIcNS_11char_traitsIcEEE5ebackEv", scope: !1281, file: !1250, line: 236, type: !1359, isLocal: false, isDefinition: false, scopeLine: 236, flags: DIFlagProtected | DIFlagPrototyped, isOptimized: false)
!1359 = !DISubroutineType(types: !1360)
!1360 = !{!1286, !1303}
!1361 = !DISubprogram(name: "gptr", linkageName: "_ZNKSt3__115basic_streambufIcNS_11char_traitsIcEEE4gptrEv", scope: !1281, file: !1250, line: 237, type: !1359, isLocal: false, isDefinition: false, scopeLine: 237, flags: DIFlagProtected | DIFlagPrototyped, isOptimized: false)
!1362 = !DISubprogram(name: "egptr", linkageName: "_ZNKSt3__115basic_streambufIcNS_11char_traitsIcEEE5egptrEv", scope: !1281, file: !1250, line: 238, type: !1359, isLocal: false, isDefinition: false, scopeLine: 238, flags: DIFlagProtected | DIFlagPrototyped, isOptimized: false)
!1363 = !DISubprogram(name: "gbump", linkageName: "_ZNSt3__115basic_streambufIcNS_11char_traitsIcEEE5gbumpEi", scope: !1281, file: !1250, line: 241, type: !1364, isLocal: false, isDefinition: false, scopeLine: 241, flags: DIFlagProtected | DIFlagPrototyped, isOptimized: false)
!1364 = !DISubroutineType(types: !1365)
!1365 = !{null, !1296, !14}
!1366 = !DISubprogram(name: "setg", linkageName: "_ZNSt3__115basic_streambufIcNS_11char_traitsIcEEE4setgEPcS4_S4_", scope: !1281, file: !1250, line: 244, type: !1367, isLocal: false, isDefinition: false, scopeLine: 244, flags: DIFlagProtected | DIFlagPrototyped, isOptimized: false)
!1367 = !DISubroutineType(types: !1368)
!1368 = !{null, !1296, !1286, !1286, !1286}
!1369 = !DISubprogram(name: "pbase", linkageName: "_ZNKSt3__115basic_streambufIcNS_11char_traitsIcEEE5pbaseEv", scope: !1281, file: !1250, line: 251, type: !1359, isLocal: false, isDefinition: false, scopeLine: 251, flags: DIFlagProtected | DIFlagPrototyped, isOptimized: false)
!1370 = !DISubprogram(name: "pptr", linkageName: "_ZNKSt3__115basic_streambufIcNS_11char_traitsIcEEE4pptrEv", scope: !1281, file: !1250, line: 252, type: !1359, isLocal: false, isDefinition: false, scopeLine: 252, flags: DIFlagProtected | DIFlagPrototyped, isOptimized: false)
!1371 = !DISubprogram(name: "epptr", linkageName: "_ZNKSt3__115basic_streambufIcNS_11char_traitsIcEEE5epptrEv", scope: !1281, file: !1250, line: 253, type: !1359, isLocal: false, isDefinition: false, scopeLine: 253, flags: DIFlagProtected | DIFlagPrototyped, isOptimized: false)
!1372 = !DISubprogram(name: "pbump", linkageName: "_ZNSt3__115basic_streambufIcNS_11char_traitsIcEEE5pbumpEi", scope: !1281, file: !1250, line: 256, type: !1364, isLocal: false, isDefinition: false, scopeLine: 256, flags: DIFlagProtected | DIFlagPrototyped, isOptimized: false)
!1373 = !DISubprogram(name: "setp", linkageName: "_ZNSt3__115basic_streambufIcNS_11char_traitsIcEEE4setpEPcS4_", scope: !1281, file: !1250, line: 259, type: !1374, isLocal: false, isDefinition: false, scopeLine: 259, flags: DIFlagProtected | DIFlagPrototyped, isOptimized: false)
!1374 = !DISubroutineType(types: !1375)
!1375 = !{null, !1296, !1286, !1286}
!1376 = !DISubprogram(name: "imbue", linkageName: "_ZNSt3__115basic_streambufIcNS_11char_traitsIcEEE5imbueERKNS_6localeE", scope: !1281, file: !1250, line: 266, type: !1377, isLocal: false, isDefinition: false, scopeLine: 266, containingType: !1281, virtuality: DW_VIRTUALITY_virtual, virtualIndex: 2, flags: DIFlagProtected | DIFlagPrototyped, isOptimized: false)
!1377 = !DISubroutineType(types: !1378)
!1378 = !{null, !1296, !139}
!1379 = !DISubprogram(name: "setbuf", linkageName: "_ZNSt3__115basic_streambufIcNS_11char_traitsIcEEE6setbufEPcl", scope: !1281, file: !1250, line: 269, type: !1306, isLocal: false, isDefinition: false, scopeLine: 269, containingType: !1281, virtuality: DW_VIRTUALITY_virtual, virtualIndex: 3, flags: DIFlagProtected | DIFlagPrototyped, isOptimized: false)
!1380 = !DISubprogram(name: "seekoff", linkageName: "_ZNSt3__115basic_streambufIcNS_11char_traitsIcEEE7seekoffExNS_8ios_base7seekdirEj", scope: !1281, file: !1250, line: 270, type: !1309, isLocal: false, isDefinition: false, scopeLine: 270, containingType: !1281, virtuality: DW_VIRTUALITY_virtual, virtualIndex: 4, flags: DIFlagProtected | DIFlagPrototyped, isOptimized: false)
!1381 = !DISubprogram(name: "seekpos", linkageName: "_ZNSt3__115basic_streambufIcNS_11char_traitsIcEEE7seekposENS_4fposI11__mbstate_tEEj", scope: !1281, file: !1250, line: 272, type: !1319, isLocal: false, isDefinition: false, scopeLine: 272, containingType: !1281, virtuality: DW_VIRTUALITY_virtual, virtualIndex: 5, flags: DIFlagProtected | DIFlagPrototyped, isOptimized: false)
!1382 = !DISubprogram(name: "sync", linkageName: "_ZNSt3__115basic_streambufIcNS_11char_traitsIcEEE4syncEv", scope: !1281, file: !1250, line: 274, type: !1322, isLocal: false, isDefinition: false, scopeLine: 274, containingType: !1281, virtuality: DW_VIRTUALITY_virtual, virtualIndex: 6, flags: DIFlagProtected | DIFlagPrototyped, isOptimized: false)
!1383 = !DISubprogram(name: "showmanyc", linkageName: "_ZNSt3__115basic_streambufIcNS_11char_traitsIcEEE9showmanycEv", scope: !1281, file: !1250, line: 277, type: !1325, isLocal: false, isDefinition: false, scopeLine: 277, containingType: !1281, virtuality: DW_VIRTUALITY_virtual, virtualIndex: 7, flags: DIFlagProtected | DIFlagPrototyped, isOptimized: false)
