; ModuleID = 'temp.bc'
source_filename = "jsvariant_test.cc"
target datalayout = "e-m:o-i64:64-f80:128-n8:16:32:64-S128"
target triple = "x86_64-apple-macosx10.13.0"

%"class.altered_carbon::js::JsVariant" = type { i32 (...)**, i32, %union.anon }
%union.anon = type { %"class.std::__1::basic_string", [16 x i8] }
%"class.std::__1::basic_string" = type { %"class.std::__1::__compressed_pair" }
%"class.std::__1::__compressed_pair" = type { %"struct.std::__1::__compressed_pair_elem" }
%"struct.std::__1::__compressed_pair_elem" = type { %"struct.std::__1::basic_string<wchar_t, std::__1::char_traits<wchar_t>, std::__1::allocator<wchar_t> >::__rep" }
%"struct.std::__1::basic_string<wchar_t, std::__1::char_traits<wchar_t>, std::__1::allocator<wchar_t> >::__rep" = type { %union.anon.0 }
%union.anon.0 = type { %"struct.std::__1::basic_string<wchar_t, std::__1::char_traits<wchar_t>, std::__1::allocator<wchar_t> >::__long" }
%"struct.std::__1::basic_string<wchar_t, std::__1::char_traits<wchar_t>, std::__1::allocator<wchar_t> >::__long" = type { i64, i64, i32* }
%"class.std::__1::basic_ostream" = type { i32 (...)**, %"class.std::__1::basic_ios.base" }
%"class.std::__1::basic_ios.base" = type <{ %"class.std::__1::ios_base", %"class.std::__1::basic_ostream"*, i32 }>
%"class.std::__1::ios_base" = type { i32 (...)**, i32, i64, i64, i32, i32, i8*, i8*, void (i32, %"class.std::__1::ios_base"*, i32)**, i32*, i64, i64, i64*, i64, i64, i8**, i64, i64 }
%"class.std::__1::locale::id" = type <{ %"struct.std::__1::once_flag", i32, [4 x i8] }>
%"struct.std::__1::once_flag" = type { i64 }
%"class.altered_carbon::js::TestSuite" = type { i8 }
%"class.std::__1::ctype" = type <{ %"class.std::__1::locale::facet", i32*, i8, [7 x i8] }>
%"class.std::__1::locale::facet" = type { %"class.std::__1::__shared_count" }
%"class.std::__1::__shared_count" = type { i32 (...)**, i64 }
%"class.std::__1::locale" = type { %"class.std::__1::locale::__imp"* }
%"class.std::__1::locale::__imp" = type opaque
%"class.std::__1::basic_ios" = type <{ %"class.std::__1::ios_base", %"class.std::__1::basic_ostream"*, i32, [4 x i8] }>
%"class.std::__1::ostreambuf_iterator" = type { %"class.std::__1::basic_streambuf"* }
%"class.std::__1::basic_streambuf" = type { i32 (...)**, %"class.std::__1::locale", i8*, i8*, i8*, i8*, i8*, i8* }
%"class.std::__1::basic_ostream<char, std::__1::char_traits<char> >::sentry" = type { i8, %"class.std::__1::basic_ostream"* }
%"struct.std::__1::iterator" = type { i8 }
%"struct.std::__1::__compressed_pair_elem.5" = type { %"struct.std::__1::basic_string<char, std::__1::char_traits<char>, std::__1::allocator<char> >::__rep" }
%"struct.std::__1::basic_string<char, std::__1::char_traits<char>, std::__1::allocator<char> >::__rep" = type { %union.anon.6 }
%union.anon.6 = type { %"struct.std::__1::basic_string<char, std::__1::char_traits<char>, std::__1::allocator<char> >::__long" }
%"struct.std::__1::basic_string<char, std::__1::char_traits<char>, std::__1::allocator<char> >::__long" = type { i64, i64, i8* }
%"class.std::__1::__compressed_pair.4" = type { %"struct.std::__1::__compressed_pair_elem.5" }
%"class.std::__1::basic_string.3" = type { %"class.std::__1::__compressed_pair.4" }
%"class.std::__1::allocator.9" = type { i8 }
%"struct.std::__1::__compressed_pair_elem.8" = type { i8 }
%"class.std::__1::__basic_string_common" = type { i8 }
%"struct.std::__1::basic_string<char, std::__1::char_traits<char>, std::__1::allocator<char> >::__short" = type { %union.anon.7, [23 x i8] }
%union.anon.7 = type { i8 }

@__func__._ZN14altered_carbon2js9TestSuite6test01Ev = private unnamed_addr constant [7 x i8] c"test01\00", align 1
@.str = private unnamed_addr constant [18 x i8] c"jsvariant_test.cc\00", align 1
@.str.1 = private unnamed_addr constant [14 x i8] c"IS_NUMBER(&c)\00", align 1
@.str.2 = private unnamed_addr constant [15 x i8] c"IS_INTEGER(&c)\00", align 1
@.str.3 = private unnamed_addr constant [16 x i8] c"c.int_v() == 30\00", align 1
@.str.4 = private unnamed_addr constant [17 x i8] c"c.int_v() == -10\00", align 1
@.str.5 = private unnamed_addr constant [17 x i8] c"c.int_v() == 200\00", align 1
@.str.6 = private unnamed_addr constant [14 x i8] c"IS_DOUBLE(&c)\00", align 1
@.str.7 = private unnamed_addr constant [17 x i8] c"c.flt_v() == 0.5\00", align 1
@.str.8 = private unnamed_addr constant [16 x i8] c"c.int_v() == 10\00", align 1
@__func__._ZN14altered_carbon2js9TestSuite6test02Ev = private unnamed_addr constant [7 x i8] c"test02\00", align 1
@.str.9 = private unnamed_addr constant [14 x i8] c"IS_NUMBER(&a)\00", align 1
@.str.10 = private unnamed_addr constant [15 x i8] c"IS_INTEGER(&a)\00", align 1
@.str.11 = private unnamed_addr constant [16 x i8] c"a.int_v() == 30\00", align 1
@.str.12 = private unnamed_addr constant [16 x i8] c"a.int_v() == 10\00", align 1
@.str.13 = private unnamed_addr constant [17 x i8] c"a.int_v() == 200\00", align 1
@.str.14 = private unnamed_addr constant [14 x i8] c"IS_DOUBLE(&a)\00", align 1
@.str.15 = private unnamed_addr constant [17 x i8] c"a.flt_v() == 0.5\00", align 1
@.str.16 = private unnamed_addr constant [14 x i8] c"IS_NUMBER(&b)\00", align 1
@.str.17 = private unnamed_addr constant [14 x i8] c"IS_DOUBLE(&b)\00", align 1
@.str.18 = private unnamed_addr constant [17 x i8] c"b.flt_v() == 0.0\00", align 1
@__func__._ZN14altered_carbon2js9TestSuite6test03Ev = private unnamed_addr constant [7 x i8] c"test03\00", align 1
@.str.19 = private unnamed_addr constant [14 x i8] c"IS_NUMBER(&e)\00", align 1
@.str.20 = private unnamed_addr constant [14 x i8] c"IS_DOUBLE(&e)\00", align 1
@.str.21 = private unnamed_addr constant [15 x i8] c"e.isInfinite()\00", align 1
@.str.22 = private unnamed_addr constant [10 x i8] c"e.isNaN()\00", align 1
@__func__._ZN14altered_carbon2js9TestSuite6test04Ev = private unnamed_addr constant [7 x i8] c"test04\00", align 1
@.str.23 = private unnamed_addr constant [15 x i8] c"IS_INTEGER(&b)\00", align 1
@.str.24 = private unnamed_addr constant [15 x i8] c"b.int_v() == 1\00", align 1
@.str.25 = private unnamed_addr constant [15 x i8] c"a.int_v() == 1\00", align 1
@__func__._ZN14altered_carbon2js9TestSuite6test05Ev = private unnamed_addr constant [7 x i8] c"test05\00", align 1
@.str.26 = private unnamed_addr constant [17 x i8] c"IS_UNDEFINED(&a)\00", align 1
@.str.27 = private unnamed_addr constant [10 x i8] c"a.isNaN()\00", align 1
@.str.28 = private unnamed_addr constant [15 x i8] c"c.int_v() == 0\00", align 1
@.str.29 = private unnamed_addr constant [15 x i8] c"c.int_v() == 1\00", align 1
@_ZN14altered_carbon2js11JsConstants3NaNE = external global %"class.altered_carbon::js::JsVariant", align 8
@__func__._ZN14altered_carbon2js9TestSuite6test06Ev = private unnamed_addr constant [7 x i8] c"test06\00", align 1
@.str.30 = private unnamed_addr constant [10 x i8] c"b.isNaN()\00", align 1
@.str.31 = private unnamed_addr constant [14 x i8] c"IS_NUMBER(&d)\00", align 1
@.str.32 = private unnamed_addr constant [15 x i8] c"IS_INTEGER(&d)\00", align 1
@.str.33 = private unnamed_addr constant [15 x i8] c"d.int_v() == 1\00", align 1
@.str.34 = private unnamed_addr constant [15 x i8] c"b.int_v() == 0\00", align 1
@.str.35 = private unnamed_addr constant [15 x i8] c"d.int_v() == 2\00", align 1
@__func__._ZN14altered_carbon2js9TestSuite6test07Ev = private unnamed_addr constant [7 x i8] c"test07\00", align 1
@.str.36 = private unnamed_addr constant [7 x i8] c"a != b\00", align 1
@.str.37 = private unnamed_addr constant [58 x i8] c"a.valueOf(&d, JsVariant::JS_NUMBER) == JsVariant((int) 1)\00", align 1
@.str.38 = private unnamed_addr constant [58 x i8] c"b.valueOf(&d, JsVariant::JS_NUMBER) == JsVariant((int) 0)\00", align 1
@.str.39 = private unnamed_addr constant [59 x i8] c"b.valueOf(&d, JsVariant::JS_NUMBER) == JsVariant((int) -0)\00", align 1
@.str.40 = private unnamed_addr constant [15 x i8] c"IS_BOOLEAN(&a)\00", align 1
@.str.41 = private unnamed_addr constant [10 x i8] c"a.bln_v()\00", align 1
@.str.42 = private unnamed_addr constant [15 x i8] c"IS_BOOLEAN(&b)\00", align 1
@.str.43 = private unnamed_addr constant [11 x i8] c"!b.bln_v()\00", align 1
@.str.44 = private unnamed_addr constant [6 x i32] [i32 104, i32 101, i32 108, i32 108, i32 111, i32 0], align 4
@.str.45 = private unnamed_addr constant [6 x i32] [i32 119, i32 111, i32 114, i32 108, i32 100, i32 0], align 4
@__func__._ZN14altered_carbon2js9TestSuite6test08Ev = private unnamed_addr constant [7 x i8] c"test08\00", align 1
@.str.46 = private unnamed_addr constant [14 x i8] c"IS_STRING(&a)\00", align 1
@.str.47 = private unnamed_addr constant [14 x i8] c"IS_STRING(&b)\00", align 1
@.str.48 = private unnamed_addr constant [14 x i8] c"a == L\22hello\22\00", align 1
@.str.49 = private unnamed_addr constant [14 x i8] c"b == L\22world\22\00", align 1
@.str.50 = private unnamed_addr constant [11 x i32] [i32 104, i32 101, i32 108, i32 108, i32 111, i32 119, i32 111, i32 114, i32 108, i32 100, i32 0], align 4
@.str.51 = private unnamed_addr constant [19 x i8] c"a == L\22helloworld\22\00", align 1
@__func__._ZN14altered_carbon2js9TestSuite6test09Ev = private unnamed_addr constant [7 x i8] c"test09\00", align 1
@.str.52 = private unnamed_addr constant [15 x i8] c"IS_BOOLEAN(&c)\00", align 1
@.str.53 = private unnamed_addr constant [7 x i8] c"a == 2\00", align 1
@__func__._ZN14altered_carbon2js9TestSuite6test10Ev = private unnamed_addr constant [7 x i8] c"test10\00", align 1
@.str.54 = private unnamed_addr constant [9 x i8] c"a == 2.0\00", align 1
@.str.55 = private unnamed_addr constant [7 x i8] c"b == 2\00", align 1
@.str.56 = private unnamed_addr constant [9 x i8] c"c == 1.0\00", align 1
@.str.57 = private unnamed_addr constant [7 x i8] c"d == 1\00", align 1
@.str.58 = private unnamed_addr constant [9 x i8] c"a == 3.0\00", align 1
@.str.59 = private unnamed_addr constant [7 x i8] c"b == 3\00", align 1
@.str.60 = private unnamed_addr constant [9 x i8] c"c == 3.0\00", align 1
@.str.61 = private unnamed_addr constant [7 x i8] c"d == 3\00", align 1
@.str.62 = private unnamed_addr constant [10 x i8] c"f.isNaN()\00", align 1
@.str.63 = private unnamed_addr constant [10 x i8] c"g.isNaN()\00", align 1
@_ZNSt3__14cerrE = external global %"class.std::__1::basic_ostream", align 8
@.str.64 = private unnamed_addr constant [15 x i8] c"Test01 PASSED\0A\00", align 1
@.str.65 = private unnamed_addr constant [15 x i8] c"Test02 PASSED\0A\00", align 1
@.str.66 = private unnamed_addr constant [15 x i8] c"Test03 PASSED\0A\00", align 1
@.str.67 = private unnamed_addr constant [15 x i8] c"Test04 PASSED\0A\00", align 1
@.str.68 = private unnamed_addr constant [15 x i8] c"Test05 PASSED\0A\00", align 1
@.str.69 = private unnamed_addr constant [15 x i8] c"Test06 PASSED\0A\00", align 1
@.str.70 = private unnamed_addr constant [15 x i8] c"Test07 PASSED\0A\00", align 1
@.str.71 = private unnamed_addr constant [15 x i8] c"Test08 PASSED\0A\00", align 1
@.str.72 = private unnamed_addr constant [15 x i8] c"Test09 PASSED\0A\00", align 1
@.str.73 = private unnamed_addr constant [15 x i8] c"Test10 PASSED\0A\00", align 1
@_ZNSt3__15ctypeIcE2idE = external global %"class.std::__1::locale::id", align 8

; Function Attrs: noinline nounwind optnone ssp uwtable
define void @_ZN14altered_carbon2js9TestSuite6test01Ev(%"class.altered_carbon::js::TestSuite"*) #0 align 2 !dbg !4169 {
  %2 = alloca %"class.altered_carbon::js::TestSuite"*, align 8
  %3 = alloca %"class.altered_carbon::js::JsVariant", align 8
  %4 = alloca %"class.altered_carbon::js::JsVariant", align 8
  %5 = alloca %"class.altered_carbon::js::JsVariant", align 8
  store %"class.altered_carbon::js::TestSuite"* %0, %"class.altered_carbon::js::TestSuite"** %2, align 8
  call void @llvm.dbg.declare(metadata %"class.altered_carbon::js::TestSuite"** %2, metadata !4186, metadata !DIExpression()), !dbg !4188
  %6 = load %"class.altered_carbon::js::TestSuite"*, %"class.altered_carbon::js::TestSuite"** %2, align 8
  call void @llvm.dbg.declare(metadata %"class.altered_carbon::js::JsVariant"* %3, metadata !4189, metadata !DIExpression()), !dbg !4190
  call void @_ZN14altered_carbon2js9JsVariantC1Ei(%"class.altered_carbon::js::JsVariant"* %3, i32 10), !dbg !4190
  call void @llvm.dbg.declare(metadata %"class.altered_carbon::js::JsVariant"* %4, metadata !4191, metadata !DIExpression()), !dbg !4192
  call void @_ZN14altered_carbon2js9JsVariantC1Ei(%"class.altered_carbon::js::JsVariant"* %4, i32 20), !dbg !4192
  call void @llvm.dbg.declare(metadata %"class.altered_carbon::js::JsVariant"* %5, metadata !4193, metadata !DIExpression()), !dbg !4194
  call void @_ZN14altered_carbon2js9JsVariantC1ENS1_13JsVariantTypeE(%"class.altered_carbon::js::JsVariant"* %5, i32 1), !dbg !4194
  %7 = call dereferenceable(56) %"class.altered_carbon::js::JsVariant"* @_ZNK14altered_carbon2js9JsVariant3addEPS1_RKS1_(%"class.altered_carbon::js::JsVariant"* %3, %"class.altered_carbon::js::JsVariant"* %5, %"class.altered_carbon::js::JsVariant"* dereferenceable(56) %4), !dbg !4195
  %8 = getelementptr inbounds %"class.altered_carbon::js::JsVariant", %"class.altered_carbon::js::JsVariant"* %5, i32 0, i32 1, !dbg !4196
  %9 = load i32, i32* %8, align 8, !dbg !4196
  %10 = icmp eq i32 %9, 7, !dbg !4196
  br i1 %10, label %11, label %27, !dbg !4196

; <label>:11:                                     ; preds = %1
  %12 = getelementptr inbounds %"class.altered_carbon::js::JsVariant", %"class.altered_carbon::js::JsVariant"* %5, i32 0, i32 2, !dbg !4196
  %13 = bitcast %union.anon* %12 to %"class.altered_carbon::js::JsVariant"**, !dbg !4196
  %14 = load %"class.altered_carbon::js::JsVariant"*, %"class.altered_carbon::js::JsVariant"** %13, align 8, !dbg !4196
  %15 = getelementptr inbounds %"class.altered_carbon::js::JsVariant", %"class.altered_carbon::js::JsVariant"* %14, i32 0, i32 1, !dbg !4196
  %16 = load i32, i32* %15, align 8, !dbg !4196
  %17 = icmp eq i32 %16, 3, !dbg !4196
  br i1 %17, label %25, label %18, !dbg !4196

; <label>:18:                                     ; preds = %11
  %19 = getelementptr inbounds %"class.altered_carbon::js::JsVariant", %"class.altered_carbon::js::JsVariant"* %5, i32 0, i32 2, !dbg !4196
  %20 = bitcast %union.anon* %19 to %"class.altered_carbon::js::JsVariant"**, !dbg !4196
  %21 = load %"class.altered_carbon::js::JsVariant"*, %"class.altered_carbon::js::JsVariant"** %20, align 8, !dbg !4196
  %22 = getelementptr inbounds %"class.altered_carbon::js::JsVariant", %"class.altered_carbon::js::JsVariant"* %21, i32 0, i32 1, !dbg !4196
  %23 = load i32, i32* %22, align 8, !dbg !4196
  %24 = icmp eq i32 %23, 4, !dbg !4196
  br label %25, !dbg !4196

; <label>:25:                                     ; preds = %18, %11
  %26 = phi i1 [ true, %11 ], [ %24, %18 ]
  br label %37, !dbg !4196

; <label>:27:                                     ; preds = %1
  %28 = getelementptr inbounds %"class.altered_carbon::js::JsVariant", %"class.altered_carbon::js::JsVariant"* %5, i32 0, i32 1, !dbg !4196
  %29 = load i32, i32* %28, align 8, !dbg !4196
  %30 = icmp eq i32 %29, 3, !dbg !4196
  br i1 %30, label %35, label %31, !dbg !4196

; <label>:31:                                     ; preds = %27
  %32 = getelementptr inbounds %"class.altered_carbon::js::JsVariant", %"class.altered_carbon::js::JsVariant"* %5, i32 0, i32 1, !dbg !4196
  %33 = load i32, i32* %32, align 8, !dbg !4196
  %34 = icmp eq i32 %33, 4, !dbg !4196
  br label %35, !dbg !4196

; <label>:35:                                     ; preds = %31, %27
  %36 = phi i1 [ true, %27 ], [ %34, %31 ]
  br label %37, !dbg !4196

; <label>:37:                                     ; preds = %35, %25
  %38 = phi i1 [ %26, %25 ], [ %36, %35 ], !dbg !4196
  %39 = xor i1 %38, true, !dbg !4196
  br i1 %39, label %40, label %42, !dbg !4196

; <label>:40:                                     ; preds = %37
  call void @__assert_rtn(i8* getelementptr inbounds ([7 x i8], [7 x i8]* @__func__._ZN14altered_carbon2js9TestSuite6test01Ev, i32 0, i32 0), i8* getelementptr inbounds ([18 x i8], [18 x i8]* @.str, i32 0, i32 0), i32 40, i8* getelementptr inbounds ([14 x i8], [14 x i8]* @.str.1, i32 0, i32 0)) #7, !dbg !4196
  unreachable, !dbg !4196
                                                  ; No predecessors!
  br label %43, !dbg !4196

; <label>:42:                                     ; preds = %37
  br label %43, !dbg !4196

; <label>:43:                                     ; preds = %42, %41
  %44 = getelementptr inbounds %"class.altered_carbon::js::JsVariant", %"class.altered_carbon::js::JsVariant"* %5, i32 0, i32 1, !dbg !4197
  %45 = load i32, i32* %44, align 8, !dbg !4197
  %46 = icmp eq i32 %45, 7, !dbg !4197
  br i1 %46, label %47, label %54, !dbg !4197

; <label>:47:                                     ; preds = %43
  %48 = getelementptr inbounds %"class.altered_carbon::js::JsVariant", %"class.altered_carbon::js::JsVariant"* %5, i32 0, i32 2, !dbg !4197
  %49 = bitcast %union.anon* %48 to %"class.altered_carbon::js::JsVariant"**, !dbg !4197
  %50 = load %"class.altered_carbon::js::JsVariant"*, %"class.altered_carbon::js::JsVariant"** %49, align 8, !dbg !4197
  %51 = getelementptr inbounds %"class.altered_carbon::js::JsVariant", %"class.altered_carbon::js::JsVariant"* %50, i32 0, i32 1, !dbg !4197
  %52 = load i32, i32* %51, align 8, !dbg !4197
  %53 = icmp eq i32 %52, 3, !dbg !4197
  br label %58, !dbg !4197

; <label>:54:                                     ; preds = %43
  %55 = getelementptr inbounds %"class.altered_carbon::js::JsVariant", %"class.altered_carbon::js::JsVariant"* %5, i32 0, i32 1, !dbg !4197
  %56 = load i32, i32* %55, align 8, !dbg !4197
  %57 = icmp eq i32 %56, 3, !dbg !4197
  br label %58, !dbg !4197

; <label>:58:                                     ; preds = %54, %47
  %59 = phi i1 [ %53, %47 ], [ %57, %54 ], !dbg !4197
  %60 = xor i1 %59, true, !dbg !4197
  br i1 %60, label %61, label %63, !dbg !4197

; <label>:61:                                     ; preds = %58
  call void @__assert_rtn(i8* getelementptr inbounds ([7 x i8], [7 x i8]* @__func__._ZN14altered_carbon2js9TestSuite6test01Ev, i32 0, i32 0), i8* getelementptr inbounds ([18 x i8], [18 x i8]* @.str, i32 0, i32 0), i32 41, i8* getelementptr inbounds ([15 x i8], [15 x i8]* @.str.2, i32 0, i32 0)) #7, !dbg !4197
  unreachable, !dbg !4197
                                                  ; No predecessors!
  br label %64, !dbg !4197

; <label>:63:                                     ; preds = %58
  br label %64, !dbg !4197

; <label>:64:                                     ; preds = %63, %62
  %65 = call i64 @_ZNK14altered_carbon2js9JsVariant5int_vEv(%"class.altered_carbon::js::JsVariant"* %5), !dbg !4198
  %66 = icmp eq i64 %65, 30, !dbg !4198
  %67 = xor i1 %66, true, !dbg !4198
  br i1 %67, label %68, label %70, !dbg !4198

; <label>:68:                                     ; preds = %64
  call void @__assert_rtn(i8* getelementptr inbounds ([7 x i8], [7 x i8]* @__func__._ZN14altered_carbon2js9TestSuite6test01Ev, i32 0, i32 0), i8* getelementptr inbounds ([18 x i8], [18 x i8]* @.str, i32 0, i32 0), i32 42, i8* getelementptr inbounds ([16 x i8], [16 x i8]* @.str.3, i32 0, i32 0)) #7, !dbg !4198
  unreachable, !dbg !4198
                                                  ; No predecessors!
  br label %71, !dbg !4198

; <label>:70:                                     ; preds = %64
  br label %71, !dbg !4198

; <label>:71:                                     ; preds = %70, %69
  %72 = call dereferenceable(56) %"class.altered_carbon::js::JsVariant"* @_ZNK14altered_carbon2js9JsVariant3subEPS1_RKS1_(%"class.altered_carbon::js::JsVariant"* %3, %"class.altered_carbon::js::JsVariant"* %5, %"class.altered_carbon::js::JsVariant"* dereferenceable(56) %4), !dbg !4199
  %73 = getelementptr inbounds %"class.altered_carbon::js::JsVariant", %"class.altered_carbon::js::JsVariant"* %5, i32 0, i32 1, !dbg !4200
  %74 = load i32, i32* %73, align 8, !dbg !4200
  %75 = icmp eq i32 %74, 7, !dbg !4200
  br i1 %75, label %76, label %92, !dbg !4200

; <label>:76:                                     ; preds = %71
  %77 = getelementptr inbounds %"class.altered_carbon::js::JsVariant", %"class.altered_carbon::js::JsVariant"* %5, i32 0, i32 2, !dbg !4200
  %78 = bitcast %union.anon* %77 to %"class.altered_carbon::js::JsVariant"**, !dbg !4200
  %79 = load %"class.altered_carbon::js::JsVariant"*, %"class.altered_carbon::js::JsVariant"** %78, align 8, !dbg !4200
  %80 = getelementptr inbounds %"class.altered_carbon::js::JsVariant", %"class.altered_carbon::js::JsVariant"* %79, i32 0, i32 1, !dbg !4200
  %81 = load i32, i32* %80, align 8, !dbg !4200
  %82 = icmp eq i32 %81, 3, !dbg !4200
  br i1 %82, label %90, label %83, !dbg !4200

; <label>:83:                                     ; preds = %76
  %84 = getelementptr inbounds %"class.altered_carbon::js::JsVariant", %"class.altered_carbon::js::JsVariant"* %5, i32 0, i32 2, !dbg !4200
  %85 = bitcast %union.anon* %84 to %"class.altered_carbon::js::JsVariant"**, !dbg !4200
  %86 = load %"class.altered_carbon::js::JsVariant"*, %"class.altered_carbon::js::JsVariant"** %85, align 8, !dbg !4200
  %87 = getelementptr inbounds %"class.altered_carbon::js::JsVariant", %"class.altered_carbon::js::JsVariant"* %86, i32 0, i32 1, !dbg !4200
  %88 = load i32, i32* %87, align 8, !dbg !4200
  %89 = icmp eq i32 %88, 4, !dbg !4200
  br label %90, !dbg !4200

; <label>:90:                                     ; preds = %83, %76
  %91 = phi i1 [ true, %76 ], [ %89, %83 ]
  br label %102, !dbg !4200

; <label>:92:                                     ; preds = %71
  %93 = getelementptr inbounds %"class.altered_carbon::js::JsVariant", %"class.altered_carbon::js::JsVariant"* %5, i32 0, i32 1, !dbg !4200
  %94 = load i32, i32* %93, align 8, !dbg !4200
  %95 = icmp eq i32 %94, 3, !dbg !4200
  br i1 %95, label %100, label %96, !dbg !4200

; <label>:96:                                     ; preds = %92
  %97 = getelementptr inbounds %"class.altered_carbon::js::JsVariant", %"class.altered_carbon::js::JsVariant"* %5, i32 0, i32 1, !dbg !4200
  %98 = load i32, i32* %97, align 8, !dbg !4200
  %99 = icmp eq i32 %98, 4, !dbg !4200
  br label %100, !dbg !4200

; <label>:100:                                    ; preds = %96, %92
  %101 = phi i1 [ true, %92 ], [ %99, %96 ]
  br label %102, !dbg !4200

; <label>:102:                                    ; preds = %100, %90
  %103 = phi i1 [ %91, %90 ], [ %101, %100 ], !dbg !4200
  %104 = xor i1 %103, true, !dbg !4200
  br i1 %104, label %105, label %107, !dbg !4200

; <label>:105:                                    ; preds = %102
  call void @__assert_rtn(i8* getelementptr inbounds ([7 x i8], [7 x i8]* @__func__._ZN14altered_carbon2js9TestSuite6test01Ev, i32 0, i32 0), i8* getelementptr inbounds ([18 x i8], [18 x i8]* @.str, i32 0, i32 0), i32 45, i8* getelementptr inbounds ([14 x i8], [14 x i8]* @.str.1, i32 0, i32 0)) #7, !dbg !4200
  unreachable, !dbg !4200
                                                  ; No predecessors!
  br label %108, !dbg !4200

; <label>:107:                                    ; preds = %102
  br label %108, !dbg !4200

; <label>:108:                                    ; preds = %107, %106
  %109 = getelementptr inbounds %"class.altered_carbon::js::JsVariant", %"class.altered_carbon::js::JsVariant"* %5, i32 0, i32 1, !dbg !4201
  %110 = load i32, i32* %109, align 8, !dbg !4201
  %111 = icmp eq i32 %110, 7, !dbg !4201
  br i1 %111, label %112, label %119, !dbg !4201

; <label>:112:                                    ; preds = %108
  %113 = getelementptr inbounds %"class.altered_carbon::js::JsVariant", %"class.altered_carbon::js::JsVariant"* %5, i32 0, i32 2, !dbg !4201
  %114 = bitcast %union.anon* %113 to %"class.altered_carbon::js::JsVariant"**, !dbg !4201
  %115 = load %"class.altered_carbon::js::JsVariant"*, %"class.altered_carbon::js::JsVariant"** %114, align 8, !dbg !4201
  %116 = getelementptr inbounds %"class.altered_carbon::js::JsVariant", %"class.altered_carbon::js::JsVariant"* %115, i32 0, i32 1, !dbg !4201
  %117 = load i32, i32* %116, align 8, !dbg !4201
  %118 = icmp eq i32 %117, 3, !dbg !4201
  br label %123, !dbg !4201

; <label>:119:                                    ; preds = %108
  %120 = getelementptr inbounds %"class.altered_carbon::js::JsVariant", %"class.altered_carbon::js::JsVariant"* %5, i32 0, i32 1, !dbg !4201
  %121 = load i32, i32* %120, align 8, !dbg !4201
  %122 = icmp eq i32 %121, 3, !dbg !4201
  br label %123, !dbg !4201

; <label>:123:                                    ; preds = %119, %112
  %124 = phi i1 [ %118, %112 ], [ %122, %119 ], !dbg !4201
  %125 = xor i1 %124, true, !dbg !4201
  br i1 %125, label %126, label %128, !dbg !4201

; <label>:126:                                    ; preds = %123
  call void @__assert_rtn(i8* getelementptr inbounds ([7 x i8], [7 x i8]* @__func__._ZN14altered_carbon2js9TestSuite6test01Ev, i32 0, i32 0), i8* getelementptr inbounds ([18 x i8], [18 x i8]* @.str, i32 0, i32 0), i32 46, i8* getelementptr inbounds ([15 x i8], [15 x i8]* @.str.2, i32 0, i32 0)) #7, !dbg !4201
  unreachable, !dbg !4201
                                                  ; No predecessors!
  br label %129, !dbg !4201

; <label>:128:                                    ; preds = %123
  br label %129, !dbg !4201

; <label>:129:                                    ; preds = %128, %127
  %130 = call i64 @_ZNK14altered_carbon2js9JsVariant5int_vEv(%"class.altered_carbon::js::JsVariant"* %5), !dbg !4202
  %131 = icmp eq i64 %130, -10, !dbg !4202
  %132 = xor i1 %131, true, !dbg !4202
  br i1 %132, label %133, label %135, !dbg !4202

; <label>:133:                                    ; preds = %129
  call void @__assert_rtn(i8* getelementptr inbounds ([7 x i8], [7 x i8]* @__func__._ZN14altered_carbon2js9TestSuite6test01Ev, i32 0, i32 0), i8* getelementptr inbounds ([18 x i8], [18 x i8]* @.str, i32 0, i32 0), i32 47, i8* getelementptr inbounds ([17 x i8], [17 x i8]* @.str.4, i32 0, i32 0)) #7, !dbg !4202
  unreachable, !dbg !4202
                                                  ; No predecessors!
  br label %136, !dbg !4202

; <label>:135:                                    ; preds = %129
  br label %136, !dbg !4202

; <label>:136:                                    ; preds = %135, %134
  %137 = call dereferenceable(56) %"class.altered_carbon::js::JsVariant"* @_ZNK14altered_carbon2js9JsVariant3mulEPS1_RKS1_(%"class.altered_carbon::js::JsVariant"* %3, %"class.altered_carbon::js::JsVariant"* %5, %"class.altered_carbon::js::JsVariant"* dereferenceable(56) %4), !dbg !4203
  %138 = getelementptr inbounds %"class.altered_carbon::js::JsVariant", %"class.altered_carbon::js::JsVariant"* %5, i32 0, i32 1, !dbg !4204
  %139 = load i32, i32* %138, align 8, !dbg !4204
  %140 = icmp eq i32 %139, 7, !dbg !4204
  br i1 %140, label %141, label %157, !dbg !4204

; <label>:141:                                    ; preds = %136
  %142 = getelementptr inbounds %"class.altered_carbon::js::JsVariant", %"class.altered_carbon::js::JsVariant"* %5, i32 0, i32 2, !dbg !4204
  %143 = bitcast %union.anon* %142 to %"class.altered_carbon::js::JsVariant"**, !dbg !4204
  %144 = load %"class.altered_carbon::js::JsVariant"*, %"class.altered_carbon::js::JsVariant"** %143, align 8, !dbg !4204
  %145 = getelementptr inbounds %"class.altered_carbon::js::JsVariant", %"class.altered_carbon::js::JsVariant"* %144, i32 0, i32 1, !dbg !4204
  %146 = load i32, i32* %145, align 8, !dbg !4204
  %147 = icmp eq i32 %146, 3, !dbg !4204
  br i1 %147, label %155, label %148, !dbg !4204

; <label>:148:                                    ; preds = %141
  %149 = getelementptr inbounds %"class.altered_carbon::js::JsVariant", %"class.altered_carbon::js::JsVariant"* %5, i32 0, i32 2, !dbg !4204
  %150 = bitcast %union.anon* %149 to %"class.altered_carbon::js::JsVariant"**, !dbg !4204
  %151 = load %"class.altered_carbon::js::JsVariant"*, %"class.altered_carbon::js::JsVariant"** %150, align 8, !dbg !4204
  %152 = getelementptr inbounds %"class.altered_carbon::js::JsVariant", %"class.altered_carbon::js::JsVariant"* %151, i32 0, i32 1, !dbg !4204
  %153 = load i32, i32* %152, align 8, !dbg !4204
  %154 = icmp eq i32 %153, 4, !dbg !4204
  br label %155, !dbg !4204

; <label>:155:                                    ; preds = %148, %141
  %156 = phi i1 [ true, %141 ], [ %154, %148 ]
  br label %167, !dbg !4204

; <label>:157:                                    ; preds = %136
  %158 = getelementptr inbounds %"class.altered_carbon::js::JsVariant", %"class.altered_carbon::js::JsVariant"* %5, i32 0, i32 1, !dbg !4204
  %159 = load i32, i32* %158, align 8, !dbg !4204
  %160 = icmp eq i32 %159, 3, !dbg !4204
  br i1 %160, label %165, label %161, !dbg !4204

; <label>:161:                                    ; preds = %157
  %162 = getelementptr inbounds %"class.altered_carbon::js::JsVariant", %"class.altered_carbon::js::JsVariant"* %5, i32 0, i32 1, !dbg !4204
  %163 = load i32, i32* %162, align 8, !dbg !4204
  %164 = icmp eq i32 %163, 4, !dbg !4204
  br label %165, !dbg !4204

; <label>:165:                                    ; preds = %161, %157
  %166 = phi i1 [ true, %157 ], [ %164, %161 ]
  br label %167, !dbg !4204

; <label>:167:                                    ; preds = %165, %155
  %168 = phi i1 [ %156, %155 ], [ %166, %165 ], !dbg !4204
  %169 = xor i1 %168, true, !dbg !4204
  br i1 %169, label %170, label %172, !dbg !4204

; <label>:170:                                    ; preds = %167
  call void @__assert_rtn(i8* getelementptr inbounds ([7 x i8], [7 x i8]* @__func__._ZN14altered_carbon2js9TestSuite6test01Ev, i32 0, i32 0), i8* getelementptr inbounds ([18 x i8], [18 x i8]* @.str, i32 0, i32 0), i32 50, i8* getelementptr inbounds ([14 x i8], [14 x i8]* @.str.1, i32 0, i32 0)) #7, !dbg !4204
  unreachable, !dbg !4204
                                                  ; No predecessors!
  br label %173, !dbg !4204

; <label>:172:                                    ; preds = %167
  br label %173, !dbg !4204

; <label>:173:                                    ; preds = %172, %171
  %174 = getelementptr inbounds %"class.altered_carbon::js::JsVariant", %"class.altered_carbon::js::JsVariant"* %5, i32 0, i32 1, !dbg !4205
  %175 = load i32, i32* %174, align 8, !dbg !4205
  %176 = icmp eq i32 %175, 7, !dbg !4205
  br i1 %176, label %177, label %184, !dbg !4205

; <label>:177:                                    ; preds = %173
  %178 = getelementptr inbounds %"class.altered_carbon::js::JsVariant", %"class.altered_carbon::js::JsVariant"* %5, i32 0, i32 2, !dbg !4205
  %179 = bitcast %union.anon* %178 to %"class.altered_carbon::js::JsVariant"**, !dbg !4205
  %180 = load %"class.altered_carbon::js::JsVariant"*, %"class.altered_carbon::js::JsVariant"** %179, align 8, !dbg !4205
  %181 = getelementptr inbounds %"class.altered_carbon::js::JsVariant", %"class.altered_carbon::js::JsVariant"* %180, i32 0, i32 1, !dbg !4205
  %182 = load i32, i32* %181, align 8, !dbg !4205
  %183 = icmp eq i32 %182, 3, !dbg !4205
  br label %188, !dbg !4205

; <label>:184:                                    ; preds = %173
  %185 = getelementptr inbounds %"class.altered_carbon::js::JsVariant", %"class.altered_carbon::js::JsVariant"* %5, i32 0, i32 1, !dbg !4205
  %186 = load i32, i32* %185, align 8, !dbg !4205
  %187 = icmp eq i32 %186, 3, !dbg !4205
  br label %188, !dbg !4205

; <label>:188:                                    ; preds = %184, %177
  %189 = phi i1 [ %183, %177 ], [ %187, %184 ], !dbg !4205
  %190 = xor i1 %189, true, !dbg !4205
  br i1 %190, label %191, label %193, !dbg !4205

; <label>:191:                                    ; preds = %188
  call void @__assert_rtn(i8* getelementptr inbounds ([7 x i8], [7 x i8]* @__func__._ZN14altered_carbon2js9TestSuite6test01Ev, i32 0, i32 0), i8* getelementptr inbounds ([18 x i8], [18 x i8]* @.str, i32 0, i32 0), i32 51, i8* getelementptr inbounds ([15 x i8], [15 x i8]* @.str.2, i32 0, i32 0)) #7, !dbg !4205
  unreachable, !dbg !4205
                                                  ; No predecessors!
  br label %194, !dbg !4205

; <label>:193:                                    ; preds = %188
  br label %194, !dbg !4205

; <label>:194:                                    ; preds = %193, %192
  %195 = call i64 @_ZNK14altered_carbon2js9JsVariant5int_vEv(%"class.altered_carbon::js::JsVariant"* %5), !dbg !4206
  %196 = icmp eq i64 %195, 200, !dbg !4206
  %197 = xor i1 %196, true, !dbg !4206
  br i1 %197, label %198, label %200, !dbg !4206

; <label>:198:                                    ; preds = %194
  call void @__assert_rtn(i8* getelementptr inbounds ([7 x i8], [7 x i8]* @__func__._ZN14altered_carbon2js9TestSuite6test01Ev, i32 0, i32 0), i8* getelementptr inbounds ([18 x i8], [18 x i8]* @.str, i32 0, i32 0), i32 52, i8* getelementptr inbounds ([17 x i8], [17 x i8]* @.str.5, i32 0, i32 0)) #7, !dbg !4206
  unreachable, !dbg !4206
                                                  ; No predecessors!
  br label %201, !dbg !4206

; <label>:200:                                    ; preds = %194
  br label %201, !dbg !4206

; <label>:201:                                    ; preds = %200, %199
  %202 = call dereferenceable(56) %"class.altered_carbon::js::JsVariant"* @_ZNK14altered_carbon2js9JsVariant3divEPS1_RKS1_(%"class.altered_carbon::js::JsVariant"* %3, %"class.altered_carbon::js::JsVariant"* %5, %"class.altered_carbon::js::JsVariant"* dereferenceable(56) %4), !dbg !4207
  %203 = getelementptr inbounds %"class.altered_carbon::js::JsVariant", %"class.altered_carbon::js::JsVariant"* %5, i32 0, i32 1, !dbg !4208
  %204 = load i32, i32* %203, align 8, !dbg !4208
  %205 = icmp eq i32 %204, 7, !dbg !4208
  br i1 %205, label %206, label %222, !dbg !4208

; <label>:206:                                    ; preds = %201
  %207 = getelementptr inbounds %"class.altered_carbon::js::JsVariant", %"class.altered_carbon::js::JsVariant"* %5, i32 0, i32 2, !dbg !4208
  %208 = bitcast %union.anon* %207 to %"class.altered_carbon::js::JsVariant"**, !dbg !4208
  %209 = load %"class.altered_carbon::js::JsVariant"*, %"class.altered_carbon::js::JsVariant"** %208, align 8, !dbg !4208
  %210 = getelementptr inbounds %"class.altered_carbon::js::JsVariant", %"class.altered_carbon::js::JsVariant"* %209, i32 0, i32 1, !dbg !4208
  %211 = load i32, i32* %210, align 8, !dbg !4208
  %212 = icmp eq i32 %211, 3, !dbg !4208
  br i1 %212, label %220, label %213, !dbg !4208

; <label>:213:                                    ; preds = %206
  %214 = getelementptr inbounds %"class.altered_carbon::js::JsVariant", %"class.altered_carbon::js::JsVariant"* %5, i32 0, i32 2, !dbg !4208
  %215 = bitcast %union.anon* %214 to %"class.altered_carbon::js::JsVariant"**, !dbg !4208
  %216 = load %"class.altered_carbon::js::JsVariant"*, %"class.altered_carbon::js::JsVariant"** %215, align 8, !dbg !4208
  %217 = getelementptr inbounds %"class.altered_carbon::js::JsVariant", %"class.altered_carbon::js::JsVariant"* %216, i32 0, i32 1, !dbg !4208
  %218 = load i32, i32* %217, align 8, !dbg !4208
  %219 = icmp eq i32 %218, 4, !dbg !4208
  br label %220, !dbg !4208

; <label>:220:                                    ; preds = %213, %206
  %221 = phi i1 [ true, %206 ], [ %219, %213 ]
  br label %232, !dbg !4208

; <label>:222:                                    ; preds = %201
  %223 = getelementptr inbounds %"class.altered_carbon::js::JsVariant", %"class.altered_carbon::js::JsVariant"* %5, i32 0, i32 1, !dbg !4208
  %224 = load i32, i32* %223, align 8, !dbg !4208
  %225 = icmp eq i32 %224, 3, !dbg !4208
  br i1 %225, label %230, label %226, !dbg !4208

; <label>:226:                                    ; preds = %222
  %227 = getelementptr inbounds %"class.altered_carbon::js::JsVariant", %"class.altered_carbon::js::JsVariant"* %5, i32 0, i32 1, !dbg !4208
  %228 = load i32, i32* %227, align 8, !dbg !4208
  %229 = icmp eq i32 %228, 4, !dbg !4208
  br label %230, !dbg !4208

; <label>:230:                                    ; preds = %226, %222
  %231 = phi i1 [ true, %222 ], [ %229, %226 ]
  br label %232, !dbg !4208

; <label>:232:                                    ; preds = %230, %220
  %233 = phi i1 [ %221, %220 ], [ %231, %230 ], !dbg !4208
  %234 = xor i1 %233, true, !dbg !4208
  br i1 %234, label %235, label %237, !dbg !4208

; <label>:235:                                    ; preds = %232
  call void @__assert_rtn(i8* getelementptr inbounds ([7 x i8], [7 x i8]* @__func__._ZN14altered_carbon2js9TestSuite6test01Ev, i32 0, i32 0), i8* getelementptr inbounds ([18 x i8], [18 x i8]* @.str, i32 0, i32 0), i32 55, i8* getelementptr inbounds ([14 x i8], [14 x i8]* @.str.1, i32 0, i32 0)) #7, !dbg !4208
  unreachable, !dbg !4208
                                                  ; No predecessors!
  br label %238, !dbg !4208

; <label>:237:                                    ; preds = %232
  br label %238, !dbg !4208

; <label>:238:                                    ; preds = %237, %236
  %239 = getelementptr inbounds %"class.altered_carbon::js::JsVariant", %"class.altered_carbon::js::JsVariant"* %5, i32 0, i32 1, !dbg !4209
  %240 = load i32, i32* %239, align 8, !dbg !4209
  %241 = icmp eq i32 %240, 7, !dbg !4209
  br i1 %241, label %242, label %249, !dbg !4209

; <label>:242:                                    ; preds = %238
  %243 = getelementptr inbounds %"class.altered_carbon::js::JsVariant", %"class.altered_carbon::js::JsVariant"* %5, i32 0, i32 2, !dbg !4209
  %244 = bitcast %union.anon* %243 to %"class.altered_carbon::js::JsVariant"**, !dbg !4209
  %245 = load %"class.altered_carbon::js::JsVariant"*, %"class.altered_carbon::js::JsVariant"** %244, align 8, !dbg !4209
  %246 = getelementptr inbounds %"class.altered_carbon::js::JsVariant", %"class.altered_carbon::js::JsVariant"* %245, i32 0, i32 1, !dbg !4209
  %247 = load i32, i32* %246, align 8, !dbg !4209
  %248 = icmp eq i32 %247, 4, !dbg !4209
  br label %253, !dbg !4209

; <label>:249:                                    ; preds = %238
  %250 = getelementptr inbounds %"class.altered_carbon::js::JsVariant", %"class.altered_carbon::js::JsVariant"* %5, i32 0, i32 1, !dbg !4209
  %251 = load i32, i32* %250, align 8, !dbg !4209
  %252 = icmp eq i32 %251, 4, !dbg !4209
  br label %253, !dbg !4209

; <label>:253:                                    ; preds = %249, %242
  %254 = phi i1 [ %248, %242 ], [ %252, %249 ], !dbg !4209
  %255 = xor i1 %254, true, !dbg !4209
  br i1 %255, label %256, label %258, !dbg !4209

; <label>:256:                                    ; preds = %253
  call void @__assert_rtn(i8* getelementptr inbounds ([7 x i8], [7 x i8]* @__func__._ZN14altered_carbon2js9TestSuite6test01Ev, i32 0, i32 0), i8* getelementptr inbounds ([18 x i8], [18 x i8]* @.str, i32 0, i32 0), i32 56, i8* getelementptr inbounds ([14 x i8], [14 x i8]* @.str.6, i32 0, i32 0)) #7, !dbg !4209
  unreachable, !dbg !4209
                                                  ; No predecessors!
  br label %259, !dbg !4209

; <label>:258:                                    ; preds = %253
  br label %259, !dbg !4209

; <label>:259:                                    ; preds = %258, %257
  %260 = call double @_ZNK14altered_carbon2js9JsVariant5flt_vEv(%"class.altered_carbon::js::JsVariant"* %5), !dbg !4210
  %261 = fcmp oeq double %260, 5.000000e-01, !dbg !4210
  %262 = xor i1 %261, true, !dbg !4210
  br i1 %262, label %263, label %265, !dbg !4210

; <label>:263:                                    ; preds = %259
  call void @__assert_rtn(i8* getelementptr inbounds ([7 x i8], [7 x i8]* @__func__._ZN14altered_carbon2js9TestSuite6test01Ev, i32 0, i32 0), i8* getelementptr inbounds ([18 x i8], [18 x i8]* @.str, i32 0, i32 0), i32 57, i8* getelementptr inbounds ([17 x i8], [17 x i8]* @.str.7, i32 0, i32 0)) #7, !dbg !4210
  unreachable, !dbg !4210
                                                  ; No predecessors!
  br label %266, !dbg !4210

; <label>:265:                                    ; preds = %259
  br label %266, !dbg !4210

; <label>:266:                                    ; preds = %265, %264
  %267 = call dereferenceable(56) %"class.altered_carbon::js::JsVariant"* @_ZNK14altered_carbon2js9JsVariant3modEPS1_RKS1_(%"class.altered_carbon::js::JsVariant"* %3, %"class.altered_carbon::js::JsVariant"* %5, %"class.altered_carbon::js::JsVariant"* dereferenceable(56) %4), !dbg !4211
  %268 = getelementptr inbounds %"class.altered_carbon::js::JsVariant", %"class.altered_carbon::js::JsVariant"* %5, i32 0, i32 1, !dbg !4212
  %269 = load i32, i32* %268, align 8, !dbg !4212
  %270 = icmp eq i32 %269, 7, !dbg !4212
  br i1 %270, label %271, label %287, !dbg !4212

; <label>:271:                                    ; preds = %266
  %272 = getelementptr inbounds %"class.altered_carbon::js::JsVariant", %"class.altered_carbon::js::JsVariant"* %5, i32 0, i32 2, !dbg !4212
  %273 = bitcast %union.anon* %272 to %"class.altered_carbon::js::JsVariant"**, !dbg !4212
  %274 = load %"class.altered_carbon::js::JsVariant"*, %"class.altered_carbon::js::JsVariant"** %273, align 8, !dbg !4212
  %275 = getelementptr inbounds %"class.altered_carbon::js::JsVariant", %"class.altered_carbon::js::JsVariant"* %274, i32 0, i32 1, !dbg !4212
  %276 = load i32, i32* %275, align 8, !dbg !4212
  %277 = icmp eq i32 %276, 3, !dbg !4212
  br i1 %277, label %285, label %278, !dbg !4212

; <label>:278:                                    ; preds = %271
  %279 = getelementptr inbounds %"class.altered_carbon::js::JsVariant", %"class.altered_carbon::js::JsVariant"* %5, i32 0, i32 2, !dbg !4212
  %280 = bitcast %union.anon* %279 to %"class.altered_carbon::js::JsVariant"**, !dbg !4212
  %281 = load %"class.altered_carbon::js::JsVariant"*, %"class.altered_carbon::js::JsVariant"** %280, align 8, !dbg !4212
  %282 = getelementptr inbounds %"class.altered_carbon::js::JsVariant", %"class.altered_carbon::js::JsVariant"* %281, i32 0, i32 1, !dbg !4212
  %283 = load i32, i32* %282, align 8, !dbg !4212
  %284 = icmp eq i32 %283, 4, !dbg !4212
  br label %285, !dbg !4212

; <label>:285:                                    ; preds = %278, %271
  %286 = phi i1 [ true, %271 ], [ %284, %278 ]
  br label %297, !dbg !4212

; <label>:287:                                    ; preds = %266
  %288 = getelementptr inbounds %"class.altered_carbon::js::JsVariant", %"class.altered_carbon::js::JsVariant"* %5, i32 0, i32 1, !dbg !4212
  %289 = load i32, i32* %288, align 8, !dbg !4212
  %290 = icmp eq i32 %289, 3, !dbg !4212
  br i1 %290, label %295, label %291, !dbg !4212

; <label>:291:                                    ; preds = %287
  %292 = getelementptr inbounds %"class.altered_carbon::js::JsVariant", %"class.altered_carbon::js::JsVariant"* %5, i32 0, i32 1, !dbg !4212
  %293 = load i32, i32* %292, align 8, !dbg !4212
  %294 = icmp eq i32 %293, 4, !dbg !4212
  br label %295, !dbg !4212

; <label>:295:                                    ; preds = %291, %287
  %296 = phi i1 [ true, %287 ], [ %294, %291 ]
  br label %297, !dbg !4212

; <label>:297:                                    ; preds = %295, %285
  %298 = phi i1 [ %286, %285 ], [ %296, %295 ], !dbg !4212
  %299 = xor i1 %298, true, !dbg !4212
  br i1 %299, label %300, label %302, !dbg !4212

; <label>:300:                                    ; preds = %297
  call void @__assert_rtn(i8* getelementptr inbounds ([7 x i8], [7 x i8]* @__func__._ZN14altered_carbon2js9TestSuite6test01Ev, i32 0, i32 0), i8* getelementptr inbounds ([18 x i8], [18 x i8]* @.str, i32 0, i32 0), i32 60, i8* getelementptr inbounds ([14 x i8], [14 x i8]* @.str.1, i32 0, i32 0)) #7, !dbg !4212
  unreachable, !dbg !4212
                                                  ; No predecessors!
  br label %303, !dbg !4212

; <label>:302:                                    ; preds = %297
  br label %303, !dbg !4212

; <label>:303:                                    ; preds = %302, %301
  %304 = getelementptr inbounds %"class.altered_carbon::js::JsVariant", %"class.altered_carbon::js::JsVariant"* %5, i32 0, i32 1, !dbg !4213
  %305 = load i32, i32* %304, align 8, !dbg !4213
  %306 = icmp eq i32 %305, 7, !dbg !4213
  br i1 %306, label %307, label %314, !dbg !4213

; <label>:307:                                    ; preds = %303
  %308 = getelementptr inbounds %"class.altered_carbon::js::JsVariant", %"class.altered_carbon::js::JsVariant"* %5, i32 0, i32 2, !dbg !4213
  %309 = bitcast %union.anon* %308 to %"class.altered_carbon::js::JsVariant"**, !dbg !4213
  %310 = load %"class.altered_carbon::js::JsVariant"*, %"class.altered_carbon::js::JsVariant"** %309, align 8, !dbg !4213
  %311 = getelementptr inbounds %"class.altered_carbon::js::JsVariant", %"class.altered_carbon::js::JsVariant"* %310, i32 0, i32 1, !dbg !4213
  %312 = load i32, i32* %311, align 8, !dbg !4213
  %313 = icmp eq i32 %312, 3, !dbg !4213
  br label %318, !dbg !4213

; <label>:314:                                    ; preds = %303
  %315 = getelementptr inbounds %"class.altered_carbon::js::JsVariant", %"class.altered_carbon::js::JsVariant"* %5, i32 0, i32 1, !dbg !4213
  %316 = load i32, i32* %315, align 8, !dbg !4213
  %317 = icmp eq i32 %316, 3, !dbg !4213
  br label %318, !dbg !4213

; <label>:318:                                    ; preds = %314, %307
  %319 = phi i1 [ %313, %307 ], [ %317, %314 ], !dbg !4213
  %320 = xor i1 %319, true, !dbg !4213
  br i1 %320, label %321, label %323, !dbg !4213

; <label>:321:                                    ; preds = %318
  call void @__assert_rtn(i8* getelementptr inbounds ([7 x i8], [7 x i8]* @__func__._ZN14altered_carbon2js9TestSuite6test01Ev, i32 0, i32 0), i8* getelementptr inbounds ([18 x i8], [18 x i8]* @.str, i32 0, i32 0), i32 61, i8* getelementptr inbounds ([15 x i8], [15 x i8]* @.str.2, i32 0, i32 0)) #7, !dbg !4213
  unreachable, !dbg !4213
                                                  ; No predecessors!
  br label %324, !dbg !4213

; <label>:323:                                    ; preds = %318
  br label %324, !dbg !4213

; <label>:324:                                    ; preds = %323, %322
  %325 = call i64 @_ZNK14altered_carbon2js9JsVariant5int_vEv(%"class.altered_carbon::js::JsVariant"* %5), !dbg !4214
  %326 = icmp eq i64 %325, 10, !dbg !4214
  %327 = xor i1 %326, true, !dbg !4214
  br i1 %327, label %328, label %330, !dbg !4214

; <label>:328:                                    ; preds = %324
  call void @__assert_rtn(i8* getelementptr inbounds ([7 x i8], [7 x i8]* @__func__._ZN14altered_carbon2js9TestSuite6test01Ev, i32 0, i32 0), i8* getelementptr inbounds ([18 x i8], [18 x i8]* @.str, i32 0, i32 0), i32 62, i8* getelementptr inbounds ([16 x i8], [16 x i8]* @.str.8, i32 0, i32 0)) #7, !dbg !4214
  unreachable, !dbg !4214
                                                  ; No predecessors!
  br label %331, !dbg !4214

; <label>:330:                                    ; preds = %324
  br label %331, !dbg !4214

; <label>:331:                                    ; preds = %330, %329
  call void @_ZN14altered_carbon2js9JsVariantD1Ev(%"class.altered_carbon::js::JsVariant"* %5) #8, !dbg !4215
  call void @_ZN14altered_carbon2js9JsVariantD1Ev(%"class.altered_carbon::js::JsVariant"* %4) #8, !dbg !4215
  call void @_ZN14altered_carbon2js9JsVariantD1Ev(%"class.altered_carbon::js::JsVariant"* %3) #8, !dbg !4215
  ret void, !dbg !4215
}

; Function Attrs: nounwind readnone speculatable
declare void @llvm.dbg.declare(metadata, metadata, metadata) #1

declare void @_ZN14altered_carbon2js9JsVariantC1Ei(%"class.altered_carbon::js::JsVariant"*, i32) unnamed_addr #2

declare void @_ZN14altered_carbon2js9JsVariantC1ENS1_13JsVariantTypeE(%"class.altered_carbon::js::JsVariant"*, i32) unnamed_addr #2

declare dereferenceable(56) %"class.altered_carbon::js::JsVariant"* @_ZNK14altered_carbon2js9JsVariant3addEPS1_RKS1_(%"class.altered_carbon::js::JsVariant"*, %"class.altered_carbon::js::JsVariant"*, %"class.altered_carbon::js::JsVariant"* dereferenceable(56)) #2

; Function Attrs: noreturn
declare void @__assert_rtn(i8*, i8*, i32, i8*) #3

; Function Attrs: noinline nounwind optnone ssp uwtable
define linkonce_odr hidden i64 @_ZNK14altered_carbon2js9JsVariant5int_vEv(%"class.altered_carbon::js::JsVariant"*) #0 align 2 !dbg !4216 {
  %2 = alloca %"class.altered_carbon::js::JsVariant"*, align 8
  store %"class.altered_carbon::js::JsVariant"* %0, %"class.altered_carbon::js::JsVariant"** %2, align 8
  call void @llvm.dbg.declare(metadata %"class.altered_carbon::js::JsVariant"** %2, metadata !4217, metadata !DIExpression()), !dbg !4218
  %3 = load %"class.altered_carbon::js::JsVariant"*, %"class.altered_carbon::js::JsVariant"** %2, align 8
  %4 = getelementptr inbounds %"class.altered_carbon::js::JsVariant", %"class.altered_carbon::js::JsVariant"* %3, i32 0, i32 2, !dbg !4219
  %5 = bitcast %union.anon* %4 to i64*, !dbg !4219
  %6 = load i64, i64* %5, align 8, !dbg !4219
  ret i64 %6, !dbg !4220
}

declare dereferenceable(56) %"class.altered_carbon::js::JsVariant"* @_ZNK14altered_carbon2js9JsVariant3subEPS1_RKS1_(%"class.altered_carbon::js::JsVariant"*, %"class.altered_carbon::js::JsVariant"*, %"class.altered_carbon::js::JsVariant"* dereferenceable(56)) #2

declare dereferenceable(56) %"class.altered_carbon::js::JsVariant"* @_ZNK14altered_carbon2js9JsVariant3mulEPS1_RKS1_(%"class.altered_carbon::js::JsVariant"*, %"class.altered_carbon::js::JsVariant"*, %"class.altered_carbon::js::JsVariant"* dereferenceable(56)) #2

declare dereferenceable(56) %"class.altered_carbon::js::JsVariant"* @_ZNK14altered_carbon2js9JsVariant3divEPS1_RKS1_(%"class.altered_carbon::js::JsVariant"*, %"class.altered_carbon::js::JsVariant"*, %"class.altered_carbon::js::JsVariant"* dereferenceable(56)) #2

; Function Attrs: noinline nounwind optnone ssp uwtable
define linkonce_odr hidden double @_ZNK14altered_carbon2js9JsVariant5flt_vEv(%"class.altered_carbon::js::JsVariant"*) #0 align 2 !dbg !4221 {
  %2 = alloca %"class.altered_carbon::js::JsVariant"*, align 8
  store %"class.altered_carbon::js::JsVariant"* %0, %"class.altered_carbon::js::JsVariant"** %2, align 8
  call void @llvm.dbg.declare(metadata %"class.altered_carbon::js::JsVariant"** %2, metadata !4222, metadata !DIExpression()), !dbg !4223
  %3 = load %"class.altered_carbon::js::JsVariant"*, %"class.altered_carbon::js::JsVariant"** %2, align 8
  %4 = getelementptr inbounds %"class.altered_carbon::js::JsVariant", %"class.altered_carbon::js::JsVariant"* %3, i32 0, i32 2, !dbg !4224
  %5 = bitcast %union.anon* %4 to double*, !dbg !4224
  %6 = load double, double* %5, align 8, !dbg !4224
  ret double %6, !dbg !4225
}

declare dereferenceable(56) %"class.altered_carbon::js::JsVariant"* @_ZNK14altered_carbon2js9JsVariant3modEPS1_RKS1_(%"class.altered_carbon::js::JsVariant"*, %"class.altered_carbon::js::JsVariant"*, %"class.altered_carbon::js::JsVariant"* dereferenceable(56)) #2

; Function Attrs: nounwind
declare void @_ZN14altered_carbon2js9JsVariantD1Ev(%"class.altered_carbon::js::JsVariant"*) unnamed_addr #4

; Function Attrs: noinline nounwind optnone ssp uwtable
define void @_ZN14altered_carbon2js9TestSuite6test02Ev(%"class.altered_carbon::js::TestSuite"*) #0 align 2 !dbg !4226 {
  %2 = alloca %"class.altered_carbon::js::TestSuite"*, align 8
  %3 = alloca %"class.altered_carbon::js::JsVariant", align 8
  %4 = alloca %"class.altered_carbon::js::JsVariant", align 8
  store %"class.altered_carbon::js::TestSuite"* %0, %"class.altered_carbon::js::TestSuite"** %2, align 8
  call void @llvm.dbg.declare(metadata %"class.altered_carbon::js::TestSuite"** %2, metadata !4227, metadata !DIExpression()), !dbg !4228
  %5 = load %"class.altered_carbon::js::TestSuite"*, %"class.altered_carbon::js::TestSuite"** %2, align 8
  call void @llvm.dbg.declare(metadata %"class.altered_carbon::js::JsVariant"* %3, metadata !4229, metadata !DIExpression()), !dbg !4230
  call void @_ZN14altered_carbon2js9JsVariantC1Ei(%"class.altered_carbon::js::JsVariant"* %3, i32 10), !dbg !4230
  call void @llvm.dbg.declare(metadata %"class.altered_carbon::js::JsVariant"* %4, metadata !4231, metadata !DIExpression()), !dbg !4232
  call void @_ZN14altered_carbon2js9JsVariantC1Ei(%"class.altered_carbon::js::JsVariant"* %4, i32 20), !dbg !4232
  %6 = call dereferenceable(56) %"class.altered_carbon::js::JsVariant"* @_ZN14altered_carbon2js9JsVariantpLERKS1_(%"class.altered_carbon::js::JsVariant"* %3, %"class.altered_carbon::js::JsVariant"* dereferenceable(56) %4), !dbg !4233
  %7 = getelementptr inbounds %"class.altered_carbon::js::JsVariant", %"class.altered_carbon::js::JsVariant"* %3, i32 0, i32 1, !dbg !4234
  %8 = load i32, i32* %7, align 8, !dbg !4234
  %9 = icmp eq i32 %8, 7, !dbg !4234
  br i1 %9, label %10, label %26, !dbg !4234

; <label>:10:                                     ; preds = %1
  %11 = getelementptr inbounds %"class.altered_carbon::js::JsVariant", %"class.altered_carbon::js::JsVariant"* %3, i32 0, i32 2, !dbg !4234
  %12 = bitcast %union.anon* %11 to %"class.altered_carbon::js::JsVariant"**, !dbg !4234
  %13 = load %"class.altered_carbon::js::JsVariant"*, %"class.altered_carbon::js::JsVariant"** %12, align 8, !dbg !4234
  %14 = getelementptr inbounds %"class.altered_carbon::js::JsVariant", %"class.altered_carbon::js::JsVariant"* %13, i32 0, i32 1, !dbg !4234
  %15 = load i32, i32* %14, align 8, !dbg !4234
  %16 = icmp eq i32 %15, 3, !dbg !4234
  br i1 %16, label %24, label %17, !dbg !4234

; <label>:17:                                     ; preds = %10
  %18 = getelementptr inbounds %"class.altered_carbon::js::JsVariant", %"class.altered_carbon::js::JsVariant"* %3, i32 0, i32 2, !dbg !4234
  %19 = bitcast %union.anon* %18 to %"class.altered_carbon::js::JsVariant"**, !dbg !4234
  %20 = load %"class.altered_carbon::js::JsVariant"*, %"class.altered_carbon::js::JsVariant"** %19, align 8, !dbg !4234
  %21 = getelementptr inbounds %"class.altered_carbon::js::JsVariant", %"class.altered_carbon::js::JsVariant"* %20, i32 0, i32 1, !dbg !4234
  %22 = load i32, i32* %21, align 8, !dbg !4234
  %23 = icmp eq i32 %22, 4, !dbg !4234
  br label %24, !dbg !4234

; <label>:24:                                     ; preds = %17, %10
  %25 = phi i1 [ true, %10 ], [ %23, %17 ]
  br label %36, !dbg !4234

; <label>:26:                                     ; preds = %1
  %27 = getelementptr inbounds %"class.altered_carbon::js::JsVariant", %"class.altered_carbon::js::JsVariant"* %3, i32 0, i32 1, !dbg !4234
  %28 = load i32, i32* %27, align 8, !dbg !4234
  %29 = icmp eq i32 %28, 3, !dbg !4234
  br i1 %29, label %34, label %30, !dbg !4234

; <label>:30:                                     ; preds = %26
  %31 = getelementptr inbounds %"class.altered_carbon::js::JsVariant", %"class.altered_carbon::js::JsVariant"* %3, i32 0, i32 1, !dbg !4234
  %32 = load i32, i32* %31, align 8, !dbg !4234
  %33 = icmp eq i32 %32, 4, !dbg !4234
  br label %34, !dbg !4234

; <label>:34:                                     ; preds = %30, %26
  %35 = phi i1 [ true, %26 ], [ %33, %30 ]
  br label %36, !dbg !4234

; <label>:36:                                     ; preds = %34, %24
  %37 = phi i1 [ %25, %24 ], [ %35, %34 ], !dbg !4234
  %38 = xor i1 %37, true, !dbg !4234
  br i1 %38, label %39, label %41, !dbg !4234

; <label>:39:                                     ; preds = %36
  call void @__assert_rtn(i8* getelementptr inbounds ([7 x i8], [7 x i8]* @__func__._ZN14altered_carbon2js9TestSuite6test02Ev, i32 0, i32 0), i8* getelementptr inbounds ([18 x i8], [18 x i8]* @.str, i32 0, i32 0), i32 70, i8* getelementptr inbounds ([14 x i8], [14 x i8]* @.str.9, i32 0, i32 0)) #7, !dbg !4234
  unreachable, !dbg !4234
                                                  ; No predecessors!
  br label %42, !dbg !4234

; <label>:41:                                     ; preds = %36
  br label %42, !dbg !4234

; <label>:42:                                     ; preds = %41, %40
  %43 = getelementptr inbounds %"class.altered_carbon::js::JsVariant", %"class.altered_carbon::js::JsVariant"* %3, i32 0, i32 1, !dbg !4235
  %44 = load i32, i32* %43, align 8, !dbg !4235
  %45 = icmp eq i32 %44, 7, !dbg !4235
  br i1 %45, label %46, label %53, !dbg !4235

; <label>:46:                                     ; preds = %42
  %47 = getelementptr inbounds %"class.altered_carbon::js::JsVariant", %"class.altered_carbon::js::JsVariant"* %3, i32 0, i32 2, !dbg !4235
  %48 = bitcast %union.anon* %47 to %"class.altered_carbon::js::JsVariant"**, !dbg !4235
  %49 = load %"class.altered_carbon::js::JsVariant"*, %"class.altered_carbon::js::JsVariant"** %48, align 8, !dbg !4235
  %50 = getelementptr inbounds %"class.altered_carbon::js::JsVariant", %"class.altered_carbon::js::JsVariant"* %49, i32 0, i32 1, !dbg !4235
  %51 = load i32, i32* %50, align 8, !dbg !4235
  %52 = icmp eq i32 %51, 3, !dbg !4235
  br label %57, !dbg !4235

; <label>:53:                                     ; preds = %42
  %54 = getelementptr inbounds %"class.altered_carbon::js::JsVariant", %"class.altered_carbon::js::JsVariant"* %3, i32 0, i32 1, !dbg !4235
  %55 = load i32, i32* %54, align 8, !dbg !4235
  %56 = icmp eq i32 %55, 3, !dbg !4235
  br label %57, !dbg !4235

; <label>:57:                                     ; preds = %53, %46
  %58 = phi i1 [ %52, %46 ], [ %56, %53 ], !dbg !4235
  %59 = xor i1 %58, true, !dbg !4235
  br i1 %59, label %60, label %62, !dbg !4235

; <label>:60:                                     ; preds = %57
  call void @__assert_rtn(i8* getelementptr inbounds ([7 x i8], [7 x i8]* @__func__._ZN14altered_carbon2js9TestSuite6test02Ev, i32 0, i32 0), i8* getelementptr inbounds ([18 x i8], [18 x i8]* @.str, i32 0, i32 0), i32 71, i8* getelementptr inbounds ([15 x i8], [15 x i8]* @.str.10, i32 0, i32 0)) #7, !dbg !4235
  unreachable, !dbg !4235
                                                  ; No predecessors!
  br label %63, !dbg !4235

; <label>:62:                                     ; preds = %57
  br label %63, !dbg !4235

; <label>:63:                                     ; preds = %62, %61
  %64 = call i64 @_ZNK14altered_carbon2js9JsVariant5int_vEv(%"class.altered_carbon::js::JsVariant"* %3), !dbg !4236
  %65 = icmp eq i64 %64, 30, !dbg !4236
  %66 = xor i1 %65, true, !dbg !4236
  br i1 %66, label %67, label %69, !dbg !4236

; <label>:67:                                     ; preds = %63
  call void @__assert_rtn(i8* getelementptr inbounds ([7 x i8], [7 x i8]* @__func__._ZN14altered_carbon2js9TestSuite6test02Ev, i32 0, i32 0), i8* getelementptr inbounds ([18 x i8], [18 x i8]* @.str, i32 0, i32 0), i32 72, i8* getelementptr inbounds ([16 x i8], [16 x i8]* @.str.11, i32 0, i32 0)) #7, !dbg !4236
  unreachable, !dbg !4236
                                                  ; No predecessors!
  br label %70, !dbg !4236

; <label>:69:                                     ; preds = %63
  br label %70, !dbg !4236

; <label>:70:                                     ; preds = %69, %68
  %71 = call dereferenceable(56) %"class.altered_carbon::js::JsVariant"* @_ZN14altered_carbon2js9JsVariantmIERKS1_(%"class.altered_carbon::js::JsVariant"* %3, %"class.altered_carbon::js::JsVariant"* dereferenceable(56) %4), !dbg !4237
  %72 = getelementptr inbounds %"class.altered_carbon::js::JsVariant", %"class.altered_carbon::js::JsVariant"* %3, i32 0, i32 1, !dbg !4238
  %73 = load i32, i32* %72, align 8, !dbg !4238
  %74 = icmp eq i32 %73, 7, !dbg !4238
  br i1 %74, label %75, label %91, !dbg !4238

; <label>:75:                                     ; preds = %70
  %76 = getelementptr inbounds %"class.altered_carbon::js::JsVariant", %"class.altered_carbon::js::JsVariant"* %3, i32 0, i32 2, !dbg !4238
  %77 = bitcast %union.anon* %76 to %"class.altered_carbon::js::JsVariant"**, !dbg !4238
  %78 = load %"class.altered_carbon::js::JsVariant"*, %"class.altered_carbon::js::JsVariant"** %77, align 8, !dbg !4238
  %79 = getelementptr inbounds %"class.altered_carbon::js::JsVariant", %"class.altered_carbon::js::JsVariant"* %78, i32 0, i32 1, !dbg !4238
  %80 = load i32, i32* %79, align 8, !dbg !4238
  %81 = icmp eq i32 %80, 3, !dbg !4238
  br i1 %81, label %89, label %82, !dbg !4238

; <label>:82:                                     ; preds = %75
  %83 = getelementptr inbounds %"class.altered_carbon::js::JsVariant", %"class.altered_carbon::js::JsVariant"* %3, i32 0, i32 2, !dbg !4238
  %84 = bitcast %union.anon* %83 to %"class.altered_carbon::js::JsVariant"**, !dbg !4238
  %85 = load %"class.altered_carbon::js::JsVariant"*, %"class.altered_carbon::js::JsVariant"** %84, align 8, !dbg !4238
  %86 = getelementptr inbounds %"class.altered_carbon::js::JsVariant", %"class.altered_carbon::js::JsVariant"* %85, i32 0, i32 1, !dbg !4238
  %87 = load i32, i32* %86, align 8, !dbg !4238
  %88 = icmp eq i32 %87, 4, !dbg !4238
  br label %89, !dbg !4238

; <label>:89:                                     ; preds = %82, %75
  %90 = phi i1 [ true, %75 ], [ %88, %82 ]
  br label %101, !dbg !4238

; <label>:91:                                     ; preds = %70
  %92 = getelementptr inbounds %"class.altered_carbon::js::JsVariant", %"class.altered_carbon::js::JsVariant"* %3, i32 0, i32 1, !dbg !4238
  %93 = load i32, i32* %92, align 8, !dbg !4238
  %94 = icmp eq i32 %93, 3, !dbg !4238
  br i1 %94, label %99, label %95, !dbg !4238

; <label>:95:                                     ; preds = %91
  %96 = getelementptr inbounds %"class.altered_carbon::js::JsVariant", %"class.altered_carbon::js::JsVariant"* %3, i32 0, i32 1, !dbg !4238
  %97 = load i32, i32* %96, align 8, !dbg !4238
  %98 = icmp eq i32 %97, 4, !dbg !4238
  br label %99, !dbg !4238

; <label>:99:                                     ; preds = %95, %91
  %100 = phi i1 [ true, %91 ], [ %98, %95 ]
  br label %101, !dbg !4238

; <label>:101:                                    ; preds = %99, %89
  %102 = phi i1 [ %90, %89 ], [ %100, %99 ], !dbg !4238
  %103 = xor i1 %102, true, !dbg !4238
  br i1 %103, label %104, label %106, !dbg !4238

; <label>:104:                                    ; preds = %101
  call void @__assert_rtn(i8* getelementptr inbounds ([7 x i8], [7 x i8]* @__func__._ZN14altered_carbon2js9TestSuite6test02Ev, i32 0, i32 0), i8* getelementptr inbounds ([18 x i8], [18 x i8]* @.str, i32 0, i32 0), i32 75, i8* getelementptr inbounds ([14 x i8], [14 x i8]* @.str.9, i32 0, i32 0)) #7, !dbg !4238
  unreachable, !dbg !4238
                                                  ; No predecessors!
  br label %107, !dbg !4238

; <label>:106:                                    ; preds = %101
  br label %107, !dbg !4238

; <label>:107:                                    ; preds = %106, %105
  %108 = getelementptr inbounds %"class.altered_carbon::js::JsVariant", %"class.altered_carbon::js::JsVariant"* %3, i32 0, i32 1, !dbg !4239
  %109 = load i32, i32* %108, align 8, !dbg !4239
  %110 = icmp eq i32 %109, 7, !dbg !4239
  br i1 %110, label %111, label %118, !dbg !4239

; <label>:111:                                    ; preds = %107
  %112 = getelementptr inbounds %"class.altered_carbon::js::JsVariant", %"class.altered_carbon::js::JsVariant"* %3, i32 0, i32 2, !dbg !4239
  %113 = bitcast %union.anon* %112 to %"class.altered_carbon::js::JsVariant"**, !dbg !4239
  %114 = load %"class.altered_carbon::js::JsVariant"*, %"class.altered_carbon::js::JsVariant"** %113, align 8, !dbg !4239
  %115 = getelementptr inbounds %"class.altered_carbon::js::JsVariant", %"class.altered_carbon::js::JsVariant"* %114, i32 0, i32 1, !dbg !4239
  %116 = load i32, i32* %115, align 8, !dbg !4239
  %117 = icmp eq i32 %116, 3, !dbg !4239
  br label %122, !dbg !4239

; <label>:118:                                    ; preds = %107
  %119 = getelementptr inbounds %"class.altered_carbon::js::JsVariant", %"class.altered_carbon::js::JsVariant"* %3, i32 0, i32 1, !dbg !4239
  %120 = load i32, i32* %119, align 8, !dbg !4239
  %121 = icmp eq i32 %120, 3, !dbg !4239
  br label %122, !dbg !4239

; <label>:122:                                    ; preds = %118, %111
  %123 = phi i1 [ %117, %111 ], [ %121, %118 ], !dbg !4239
  %124 = xor i1 %123, true, !dbg !4239
  br i1 %124, label %125, label %127, !dbg !4239

; <label>:125:                                    ; preds = %122
  call void @__assert_rtn(i8* getelementptr inbounds ([7 x i8], [7 x i8]* @__func__._ZN14altered_carbon2js9TestSuite6test02Ev, i32 0, i32 0), i8* getelementptr inbounds ([18 x i8], [18 x i8]* @.str, i32 0, i32 0), i32 76, i8* getelementptr inbounds ([15 x i8], [15 x i8]* @.str.10, i32 0, i32 0)) #7, !dbg !4239
  unreachable, !dbg !4239
                                                  ; No predecessors!
  br label %128, !dbg !4239

; <label>:127:                                    ; preds = %122
  br label %128, !dbg !4239

; <label>:128:                                    ; preds = %127, %126
  %129 = call i64 @_ZNK14altered_carbon2js9JsVariant5int_vEv(%"class.altered_carbon::js::JsVariant"* %3), !dbg !4240
  %130 = icmp eq i64 %129, 10, !dbg !4240
  %131 = xor i1 %130, true, !dbg !4240
  br i1 %131, label %132, label %134, !dbg !4240

; <label>:132:                                    ; preds = %128
  call void @__assert_rtn(i8* getelementptr inbounds ([7 x i8], [7 x i8]* @__func__._ZN14altered_carbon2js9TestSuite6test02Ev, i32 0, i32 0), i8* getelementptr inbounds ([18 x i8], [18 x i8]* @.str, i32 0, i32 0), i32 77, i8* getelementptr inbounds ([16 x i8], [16 x i8]* @.str.12, i32 0, i32 0)) #7, !dbg !4240
  unreachable, !dbg !4240
                                                  ; No predecessors!
  br label %135, !dbg !4240

; <label>:134:                                    ; preds = %128
  br label %135, !dbg !4240

; <label>:135:                                    ; preds = %134, %133
  %136 = call dereferenceable(56) %"class.altered_carbon::js::JsVariant"* @_ZN14altered_carbon2js9JsVariantmLERKS1_(%"class.altered_carbon::js::JsVariant"* %3, %"class.altered_carbon::js::JsVariant"* dereferenceable(56) %4), !dbg !4241
  %137 = getelementptr inbounds %"class.altered_carbon::js::JsVariant", %"class.altered_carbon::js::JsVariant"* %3, i32 0, i32 1, !dbg !4242
  %138 = load i32, i32* %137, align 8, !dbg !4242
  %139 = icmp eq i32 %138, 7, !dbg !4242
  br i1 %139, label %140, label %156, !dbg !4242

; <label>:140:                                    ; preds = %135
  %141 = getelementptr inbounds %"class.altered_carbon::js::JsVariant", %"class.altered_carbon::js::JsVariant"* %3, i32 0, i32 2, !dbg !4242
  %142 = bitcast %union.anon* %141 to %"class.altered_carbon::js::JsVariant"**, !dbg !4242
  %143 = load %"class.altered_carbon::js::JsVariant"*, %"class.altered_carbon::js::JsVariant"** %142, align 8, !dbg !4242
  %144 = getelementptr inbounds %"class.altered_carbon::js::JsVariant", %"class.altered_carbon::js::JsVariant"* %143, i32 0, i32 1, !dbg !4242
  %145 = load i32, i32* %144, align 8, !dbg !4242
  %146 = icmp eq i32 %145, 3, !dbg !4242
  br i1 %146, label %154, label %147, !dbg !4242

; <label>:147:                                    ; preds = %140
  %148 = getelementptr inbounds %"class.altered_carbon::js::JsVariant", %"class.altered_carbon::js::JsVariant"* %3, i32 0, i32 2, !dbg !4242
  %149 = bitcast %union.anon* %148 to %"class.altered_carbon::js::JsVariant"**, !dbg !4242
  %150 = load %"class.altered_carbon::js::JsVariant"*, %"class.altered_carbon::js::JsVariant"** %149, align 8, !dbg !4242
  %151 = getelementptr inbounds %"class.altered_carbon::js::JsVariant", %"class.altered_carbon::js::JsVariant"* %150, i32 0, i32 1, !dbg !4242
  %152 = load i32, i32* %151, align 8, !dbg !4242
  %153 = icmp eq i32 %152, 4, !dbg !4242
  br label %154, !dbg !4242

; <label>:154:                                    ; preds = %147, %140
  %155 = phi i1 [ true, %140 ], [ %153, %147 ]
  br label %166, !dbg !4242

; <label>:156:                                    ; preds = %135
  %157 = getelementptr inbounds %"class.altered_carbon::js::JsVariant", %"class.altered_carbon::js::JsVariant"* %3, i32 0, i32 1, !dbg !4242
  %158 = load i32, i32* %157, align 8, !dbg !4242
  %159 = icmp eq i32 %158, 3, !dbg !4242
  br i1 %159, label %164, label %160, !dbg !4242

; <label>:160:                                    ; preds = %156
  %161 = getelementptr inbounds %"class.altered_carbon::js::JsVariant", %"class.altered_carbon::js::JsVariant"* %3, i32 0, i32 1, !dbg !4242
  %162 = load i32, i32* %161, align 8, !dbg !4242
  %163 = icmp eq i32 %162, 4, !dbg !4242
  br label %164, !dbg !4242

; <label>:164:                                    ; preds = %160, %156
  %165 = phi i1 [ true, %156 ], [ %163, %160 ]
  br label %166, !dbg !4242

; <label>:166:                                    ; preds = %164, %154
  %167 = phi i1 [ %155, %154 ], [ %165, %164 ], !dbg !4242
  %168 = xor i1 %167, true, !dbg !4242
  br i1 %168, label %169, label %171, !dbg !4242

; <label>:169:                                    ; preds = %166
  call void @__assert_rtn(i8* getelementptr inbounds ([7 x i8], [7 x i8]* @__func__._ZN14altered_carbon2js9TestSuite6test02Ev, i32 0, i32 0), i8* getelementptr inbounds ([18 x i8], [18 x i8]* @.str, i32 0, i32 0), i32 80, i8* getelementptr inbounds ([14 x i8], [14 x i8]* @.str.9, i32 0, i32 0)) #7, !dbg !4242
  unreachable, !dbg !4242
                                                  ; No predecessors!
  br label %172, !dbg !4242

; <label>:171:                                    ; preds = %166
  br label %172, !dbg !4242

; <label>:172:                                    ; preds = %171, %170
  %173 = getelementptr inbounds %"class.altered_carbon::js::JsVariant", %"class.altered_carbon::js::JsVariant"* %3, i32 0, i32 1, !dbg !4243
  %174 = load i32, i32* %173, align 8, !dbg !4243
  %175 = icmp eq i32 %174, 7, !dbg !4243
  br i1 %175, label %176, label %183, !dbg !4243

; <label>:176:                                    ; preds = %172
  %177 = getelementptr inbounds %"class.altered_carbon::js::JsVariant", %"class.altered_carbon::js::JsVariant"* %3, i32 0, i32 2, !dbg !4243
  %178 = bitcast %union.anon* %177 to %"class.altered_carbon::js::JsVariant"**, !dbg !4243
  %179 = load %"class.altered_carbon::js::JsVariant"*, %"class.altered_carbon::js::JsVariant"** %178, align 8, !dbg !4243
  %180 = getelementptr inbounds %"class.altered_carbon::js::JsVariant", %"class.altered_carbon::js::JsVariant"* %179, i32 0, i32 1, !dbg !4243
  %181 = load i32, i32* %180, align 8, !dbg !4243
  %182 = icmp eq i32 %181, 3, !dbg !4243
  br label %187, !dbg !4243

; <label>:183:                                    ; preds = %172
  %184 = getelementptr inbounds %"class.altered_carbon::js::JsVariant", %"class.altered_carbon::js::JsVariant"* %3, i32 0, i32 1, !dbg !4243
  %185 = load i32, i32* %184, align 8, !dbg !4243
  %186 = icmp eq i32 %185, 3, !dbg !4243
  br label %187, !dbg !4243

; <label>:187:                                    ; preds = %183, %176
  %188 = phi i1 [ %182, %176 ], [ %186, %183 ], !dbg !4243
  %189 = xor i1 %188, true, !dbg !4243
  br i1 %189, label %190, label %192, !dbg !4243

; <label>:190:                                    ; preds = %187
  call void @__assert_rtn(i8* getelementptr inbounds ([7 x i8], [7 x i8]* @__func__._ZN14altered_carbon2js9TestSuite6test02Ev, i32 0, i32 0), i8* getelementptr inbounds ([18 x i8], [18 x i8]* @.str, i32 0, i32 0), i32 81, i8* getelementptr inbounds ([15 x i8], [15 x i8]* @.str.10, i32 0, i32 0)) #7, !dbg !4243
  unreachable, !dbg !4243
                                                  ; No predecessors!
  br label %193, !dbg !4243

; <label>:192:                                    ; preds = %187
  br label %193, !dbg !4243

; <label>:193:                                    ; preds = %192, %191
  %194 = call i64 @_ZNK14altered_carbon2js9JsVariant5int_vEv(%"class.altered_carbon::js::JsVariant"* %3), !dbg !4244
  %195 = icmp eq i64 %194, 200, !dbg !4244
  %196 = xor i1 %195, true, !dbg !4244
  br i1 %196, label %197, label %199, !dbg !4244

; <label>:197:                                    ; preds = %193
  call void @__assert_rtn(i8* getelementptr inbounds ([7 x i8], [7 x i8]* @__func__._ZN14altered_carbon2js9TestSuite6test02Ev, i32 0, i32 0), i8* getelementptr inbounds ([18 x i8], [18 x i8]* @.str, i32 0, i32 0), i32 82, i8* getelementptr inbounds ([17 x i8], [17 x i8]* @.str.13, i32 0, i32 0)) #7, !dbg !4244
  unreachable, !dbg !4244
                                                  ; No predecessors!
  br label %200, !dbg !4244

; <label>:199:                                    ; preds = %193
  br label %200, !dbg !4244

; <label>:200:                                    ; preds = %199, %198
  %201 = call dereferenceable(56) %"class.altered_carbon::js::JsVariant"* @_ZN14altered_carbon2js9JsVariantdVERKS1_(%"class.altered_carbon::js::JsVariant"* %3, %"class.altered_carbon::js::JsVariant"* dereferenceable(56) %4), !dbg !4245
  %202 = getelementptr inbounds %"class.altered_carbon::js::JsVariant", %"class.altered_carbon::js::JsVariant"* %3, i32 0, i32 1, !dbg !4246
  %203 = load i32, i32* %202, align 8, !dbg !4246
  %204 = icmp eq i32 %203, 7, !dbg !4246
  br i1 %204, label %205, label %221, !dbg !4246

; <label>:205:                                    ; preds = %200
  %206 = getelementptr inbounds %"class.altered_carbon::js::JsVariant", %"class.altered_carbon::js::JsVariant"* %3, i32 0, i32 2, !dbg !4246
  %207 = bitcast %union.anon* %206 to %"class.altered_carbon::js::JsVariant"**, !dbg !4246
  %208 = load %"class.altered_carbon::js::JsVariant"*, %"class.altered_carbon::js::JsVariant"** %207, align 8, !dbg !4246
  %209 = getelementptr inbounds %"class.altered_carbon::js::JsVariant", %"class.altered_carbon::js::JsVariant"* %208, i32 0, i32 1, !dbg !4246
  %210 = load i32, i32* %209, align 8, !dbg !4246
  %211 = icmp eq i32 %210, 3, !dbg !4246
  br i1 %211, label %219, label %212, !dbg !4246

; <label>:212:                                    ; preds = %205
  %213 = getelementptr inbounds %"class.altered_carbon::js::JsVariant", %"class.altered_carbon::js::JsVariant"* %3, i32 0, i32 2, !dbg !4246
  %214 = bitcast %union.anon* %213 to %"class.altered_carbon::js::JsVariant"**, !dbg !4246
  %215 = load %"class.altered_carbon::js::JsVariant"*, %"class.altered_carbon::js::JsVariant"** %214, align 8, !dbg !4246
  %216 = getelementptr inbounds %"class.altered_carbon::js::JsVariant", %"class.altered_carbon::js::JsVariant"* %215, i32 0, i32 1, !dbg !4246
  %217 = load i32, i32* %216, align 8, !dbg !4246
  %218 = icmp eq i32 %217, 4, !dbg !4246
  br label %219, !dbg !4246

; <label>:219:                                    ; preds = %212, %205
  %220 = phi i1 [ true, %205 ], [ %218, %212 ]
  br label %231, !dbg !4246

; <label>:221:                                    ; preds = %200
  %222 = getelementptr inbounds %"class.altered_carbon::js::JsVariant", %"class.altered_carbon::js::JsVariant"* %3, i32 0, i32 1, !dbg !4246
  %223 = load i32, i32* %222, align 8, !dbg !4246
  %224 = icmp eq i32 %223, 3, !dbg !4246
  br i1 %224, label %229, label %225, !dbg !4246

; <label>:225:                                    ; preds = %221
  %226 = getelementptr inbounds %"class.altered_carbon::js::JsVariant", %"class.altered_carbon::js::JsVariant"* %3, i32 0, i32 1, !dbg !4246
  %227 = load i32, i32* %226, align 8, !dbg !4246
  %228 = icmp eq i32 %227, 4, !dbg !4246
  br label %229, !dbg !4246

; <label>:229:                                    ; preds = %225, %221
  %230 = phi i1 [ true, %221 ], [ %228, %225 ]
  br label %231, !dbg !4246

; <label>:231:                                    ; preds = %229, %219
  %232 = phi i1 [ %220, %219 ], [ %230, %229 ], !dbg !4246
  %233 = xor i1 %232, true, !dbg !4246
  br i1 %233, label %234, label %236, !dbg !4246

; <label>:234:                                    ; preds = %231
  call void @__assert_rtn(i8* getelementptr inbounds ([7 x i8], [7 x i8]* @__func__._ZN14altered_carbon2js9TestSuite6test02Ev, i32 0, i32 0), i8* getelementptr inbounds ([18 x i8], [18 x i8]* @.str, i32 0, i32 0), i32 85, i8* getelementptr inbounds ([14 x i8], [14 x i8]* @.str.9, i32 0, i32 0)) #7, !dbg !4246
  unreachable, !dbg !4246
                                                  ; No predecessors!
  br label %237, !dbg !4246

; <label>:236:                                    ; preds = %231
  br label %237, !dbg !4246

; <label>:237:                                    ; preds = %236, %235
  %238 = getelementptr inbounds %"class.altered_carbon::js::JsVariant", %"class.altered_carbon::js::JsVariant"* %3, i32 0, i32 1, !dbg !4247
  %239 = load i32, i32* %238, align 8, !dbg !4247
  %240 = icmp eq i32 %239, 7, !dbg !4247
  br i1 %240, label %241, label %248, !dbg !4247

; <label>:241:                                    ; preds = %237
  %242 = getelementptr inbounds %"class.altered_carbon::js::JsVariant", %"class.altered_carbon::js::JsVariant"* %3, i32 0, i32 2, !dbg !4247
  %243 = bitcast %union.anon* %242 to %"class.altered_carbon::js::JsVariant"**, !dbg !4247
  %244 = load %"class.altered_carbon::js::JsVariant"*, %"class.altered_carbon::js::JsVariant"** %243, align 8, !dbg !4247
  %245 = getelementptr inbounds %"class.altered_carbon::js::JsVariant", %"class.altered_carbon::js::JsVariant"* %244, i32 0, i32 1, !dbg !4247
  %246 = load i32, i32* %245, align 8, !dbg !4247
  %247 = icmp eq i32 %246, 3, !dbg !4247
  br label %252, !dbg !4247

; <label>:248:                                    ; preds = %237
  %249 = getelementptr inbounds %"class.altered_carbon::js::JsVariant", %"class.altered_carbon::js::JsVariant"* %3, i32 0, i32 1, !dbg !4247
  %250 = load i32, i32* %249, align 8, !dbg !4247
  %251 = icmp eq i32 %250, 3, !dbg !4247
  br label %252, !dbg !4247

; <label>:252:                                    ; preds = %248, %241
  %253 = phi i1 [ %247, %241 ], [ %251, %248 ], !dbg !4247
  %254 = xor i1 %253, true, !dbg !4247
  br i1 %254, label %255, label %257, !dbg !4247

; <label>:255:                                    ; preds = %252
  call void @__assert_rtn(i8* getelementptr inbounds ([7 x i8], [7 x i8]* @__func__._ZN14altered_carbon2js9TestSuite6test02Ev, i32 0, i32 0), i8* getelementptr inbounds ([18 x i8], [18 x i8]* @.str, i32 0, i32 0), i32 86, i8* getelementptr inbounds ([15 x i8], [15 x i8]* @.str.10, i32 0, i32 0)) #7, !dbg !4247
  unreachable, !dbg !4247
                                                  ; No predecessors!
  br label %258, !dbg !4247

; <label>:257:                                    ; preds = %252
  br label %258, !dbg !4247

; <label>:258:                                    ; preds = %257, %256
  %259 = call i64 @_ZNK14altered_carbon2js9JsVariant5int_vEv(%"class.altered_carbon::js::JsVariant"* %3), !dbg !4248
  %260 = icmp eq i64 %259, 10, !dbg !4248
  %261 = xor i1 %260, true, !dbg !4248
  br i1 %261, label %262, label %264, !dbg !4248

; <label>:262:                                    ; preds = %258
  call void @__assert_rtn(i8* getelementptr inbounds ([7 x i8], [7 x i8]* @__func__._ZN14altered_carbon2js9TestSuite6test02Ev, i32 0, i32 0), i8* getelementptr inbounds ([18 x i8], [18 x i8]* @.str, i32 0, i32 0), i32 87, i8* getelementptr inbounds ([16 x i8], [16 x i8]* @.str.12, i32 0, i32 0)) #7, !dbg !4248
  unreachable, !dbg !4248
                                                  ; No predecessors!
  br label %265, !dbg !4248

; <label>:264:                                    ; preds = %258
  br label %265, !dbg !4248

; <label>:265:                                    ; preds = %264, %263
  %266 = call dereferenceable(56) %"class.altered_carbon::js::JsVariant"* @_ZN14altered_carbon2js9JsVariantdVERKS1_(%"class.altered_carbon::js::JsVariant"* %3, %"class.altered_carbon::js::JsVariant"* dereferenceable(56) %4), !dbg !4249
  %267 = getelementptr inbounds %"class.altered_carbon::js::JsVariant", %"class.altered_carbon::js::JsVariant"* %3, i32 0, i32 1, !dbg !4250
  %268 = load i32, i32* %267, align 8, !dbg !4250
  %269 = icmp eq i32 %268, 7, !dbg !4250
  br i1 %269, label %270, label %286, !dbg !4250

; <label>:270:                                    ; preds = %265
  %271 = getelementptr inbounds %"class.altered_carbon::js::JsVariant", %"class.altered_carbon::js::JsVariant"* %3, i32 0, i32 2, !dbg !4250
  %272 = bitcast %union.anon* %271 to %"class.altered_carbon::js::JsVariant"**, !dbg !4250
  %273 = load %"class.altered_carbon::js::JsVariant"*, %"class.altered_carbon::js::JsVariant"** %272, align 8, !dbg !4250
  %274 = getelementptr inbounds %"class.altered_carbon::js::JsVariant", %"class.altered_carbon::js::JsVariant"* %273, i32 0, i32 1, !dbg !4250
  %275 = load i32, i32* %274, align 8, !dbg !4250
  %276 = icmp eq i32 %275, 3, !dbg !4250
  br i1 %276, label %284, label %277, !dbg !4250

; <label>:277:                                    ; preds = %270
  %278 = getelementptr inbounds %"class.altered_carbon::js::JsVariant", %"class.altered_carbon::js::JsVariant"* %3, i32 0, i32 2, !dbg !4250
  %279 = bitcast %union.anon* %278 to %"class.altered_carbon::js::JsVariant"**, !dbg !4250
  %280 = load %"class.altered_carbon::js::JsVariant"*, %"class.altered_carbon::js::JsVariant"** %279, align 8, !dbg !4250
  %281 = getelementptr inbounds %"class.altered_carbon::js::JsVariant", %"class.altered_carbon::js::JsVariant"* %280, i32 0, i32 1, !dbg !4250
  %282 = load i32, i32* %281, align 8, !dbg !4250
  %283 = icmp eq i32 %282, 4, !dbg !4250
  br label %284, !dbg !4250

; <label>:284:                                    ; preds = %277, %270
  %285 = phi i1 [ true, %270 ], [ %283, %277 ]
  br label %296, !dbg !4250

; <label>:286:                                    ; preds = %265
  %287 = getelementptr inbounds %"class.altered_carbon::js::JsVariant", %"class.altered_carbon::js::JsVariant"* %3, i32 0, i32 1, !dbg !4250
  %288 = load i32, i32* %287, align 8, !dbg !4250
  %289 = icmp eq i32 %288, 3, !dbg !4250
  br i1 %289, label %294, label %290, !dbg !4250

; <label>:290:                                    ; preds = %286
  %291 = getelementptr inbounds %"class.altered_carbon::js::JsVariant", %"class.altered_carbon::js::JsVariant"* %3, i32 0, i32 1, !dbg !4250
  %292 = load i32, i32* %291, align 8, !dbg !4250
  %293 = icmp eq i32 %292, 4, !dbg !4250
  br label %294, !dbg !4250

; <label>:294:                                    ; preds = %290, %286
  %295 = phi i1 [ true, %286 ], [ %293, %290 ]
  br label %296, !dbg !4250

; <label>:296:                                    ; preds = %294, %284
  %297 = phi i1 [ %285, %284 ], [ %295, %294 ], !dbg !4250
  %298 = xor i1 %297, true, !dbg !4250
  br i1 %298, label %299, label %301, !dbg !4250

; <label>:299:                                    ; preds = %296
  call void @__assert_rtn(i8* getelementptr inbounds ([7 x i8], [7 x i8]* @__func__._ZN14altered_carbon2js9TestSuite6test02Ev, i32 0, i32 0), i8* getelementptr inbounds ([18 x i8], [18 x i8]* @.str, i32 0, i32 0), i32 90, i8* getelementptr inbounds ([14 x i8], [14 x i8]* @.str.9, i32 0, i32 0)) #7, !dbg !4250
  unreachable, !dbg !4250
                                                  ; No predecessors!
  br label %302, !dbg !4250

; <label>:301:                                    ; preds = %296
  br label %302, !dbg !4250

; <label>:302:                                    ; preds = %301, %300
  %303 = getelementptr inbounds %"class.altered_carbon::js::JsVariant", %"class.altered_carbon::js::JsVariant"* %3, i32 0, i32 1, !dbg !4251
  %304 = load i32, i32* %303, align 8, !dbg !4251
  %305 = icmp eq i32 %304, 7, !dbg !4251
  br i1 %305, label %306, label %313, !dbg !4251

; <label>:306:                                    ; preds = %302
  %307 = getelementptr inbounds %"class.altered_carbon::js::JsVariant", %"class.altered_carbon::js::JsVariant"* %3, i32 0, i32 2, !dbg !4251
  %308 = bitcast %union.anon* %307 to %"class.altered_carbon::js::JsVariant"**, !dbg !4251
  %309 = load %"class.altered_carbon::js::JsVariant"*, %"class.altered_carbon::js::JsVariant"** %308, align 8, !dbg !4251
  %310 = getelementptr inbounds %"class.altered_carbon::js::JsVariant", %"class.altered_carbon::js::JsVariant"* %309, i32 0, i32 1, !dbg !4251
  %311 = load i32, i32* %310, align 8, !dbg !4251
  %312 = icmp eq i32 %311, 4, !dbg !4251
  br label %317, !dbg !4251

; <label>:313:                                    ; preds = %302
  %314 = getelementptr inbounds %"class.altered_carbon::js::JsVariant", %"class.altered_carbon::js::JsVariant"* %3, i32 0, i32 1, !dbg !4251
  %315 = load i32, i32* %314, align 8, !dbg !4251
  %316 = icmp eq i32 %315, 4, !dbg !4251
  br label %317, !dbg !4251

; <label>:317:                                    ; preds = %313, %306
  %318 = phi i1 [ %312, %306 ], [ %316, %313 ], !dbg !4251
  %319 = xor i1 %318, true, !dbg !4251
  br i1 %319, label %320, label %322, !dbg !4251

; <label>:320:                                    ; preds = %317
  call void @__assert_rtn(i8* getelementptr inbounds ([7 x i8], [7 x i8]* @__func__._ZN14altered_carbon2js9TestSuite6test02Ev, i32 0, i32 0), i8* getelementptr inbounds ([18 x i8], [18 x i8]* @.str, i32 0, i32 0), i32 91, i8* getelementptr inbounds ([14 x i8], [14 x i8]* @.str.14, i32 0, i32 0)) #7, !dbg !4251
  unreachable, !dbg !4251
                                                  ; No predecessors!
  br label %323, !dbg !4251

; <label>:322:                                    ; preds = %317
  br label %323, !dbg !4251

; <label>:323:                                    ; preds = %322, %321
  %324 = call double @_ZNK14altered_carbon2js9JsVariant5flt_vEv(%"class.altered_carbon::js::JsVariant"* %3), !dbg !4252
  %325 = fcmp oeq double %324, 5.000000e-01, !dbg !4252
  %326 = xor i1 %325, true, !dbg !4252
  br i1 %326, label %327, label %329, !dbg !4252

; <label>:327:                                    ; preds = %323
  call void @__assert_rtn(i8* getelementptr inbounds ([7 x i8], [7 x i8]* @__func__._ZN14altered_carbon2js9TestSuite6test02Ev, i32 0, i32 0), i8* getelementptr inbounds ([18 x i8], [18 x i8]* @.str, i32 0, i32 0), i32 92, i8* getelementptr inbounds ([17 x i8], [17 x i8]* @.str.15, i32 0, i32 0)) #7, !dbg !4252
  unreachable, !dbg !4252
                                                  ; No predecessors!
  br label %330, !dbg !4252

; <label>:329:                                    ; preds = %323
  br label %330, !dbg !4252

; <label>:330:                                    ; preds = %329, %328
  %331 = call dereferenceable(56) %"class.altered_carbon::js::JsVariant"* @_ZN14altered_carbon2js9JsVariantrMERKS1_(%"class.altered_carbon::js::JsVariant"* %4, %"class.altered_carbon::js::JsVariant"* dereferenceable(56) %3), !dbg !4253
  %332 = getelementptr inbounds %"class.altered_carbon::js::JsVariant", %"class.altered_carbon::js::JsVariant"* %4, i32 0, i32 1, !dbg !4254
  %333 = load i32, i32* %332, align 8, !dbg !4254
  %334 = icmp eq i32 %333, 7, !dbg !4254
  br i1 %334, label %335, label %351, !dbg !4254

; <label>:335:                                    ; preds = %330
  %336 = getelementptr inbounds %"class.altered_carbon::js::JsVariant", %"class.altered_carbon::js::JsVariant"* %4, i32 0, i32 2, !dbg !4254
  %337 = bitcast %union.anon* %336 to %"class.altered_carbon::js::JsVariant"**, !dbg !4254
  %338 = load %"class.altered_carbon::js::JsVariant"*, %"class.altered_carbon::js::JsVariant"** %337, align 8, !dbg !4254
  %339 = getelementptr inbounds %"class.altered_carbon::js::JsVariant", %"class.altered_carbon::js::JsVariant"* %338, i32 0, i32 1, !dbg !4254
  %340 = load i32, i32* %339, align 8, !dbg !4254
  %341 = icmp eq i32 %340, 3, !dbg !4254
  br i1 %341, label %349, label %342, !dbg !4254

; <label>:342:                                    ; preds = %335
  %343 = getelementptr inbounds %"class.altered_carbon::js::JsVariant", %"class.altered_carbon::js::JsVariant"* %4, i32 0, i32 2, !dbg !4254
  %344 = bitcast %union.anon* %343 to %"class.altered_carbon::js::JsVariant"**, !dbg !4254
  %345 = load %"class.altered_carbon::js::JsVariant"*, %"class.altered_carbon::js::JsVariant"** %344, align 8, !dbg !4254
  %346 = getelementptr inbounds %"class.altered_carbon::js::JsVariant", %"class.altered_carbon::js::JsVariant"* %345, i32 0, i32 1, !dbg !4254
  %347 = load i32, i32* %346, align 8, !dbg !4254
  %348 = icmp eq i32 %347, 4, !dbg !4254
  br label %349, !dbg !4254

; <label>:349:                                    ; preds = %342, %335
  %350 = phi i1 [ true, %335 ], [ %348, %342 ]
  br label %361, !dbg !4254

; <label>:351:                                    ; preds = %330
  %352 = getelementptr inbounds %"class.altered_carbon::js::JsVariant", %"class.altered_carbon::js::JsVariant"* %4, i32 0, i32 1, !dbg !4254
  %353 = load i32, i32* %352, align 8, !dbg !4254
  %354 = icmp eq i32 %353, 3, !dbg !4254
  br i1 %354, label %359, label %355, !dbg !4254

; <label>:355:                                    ; preds = %351
  %356 = getelementptr inbounds %"class.altered_carbon::js::JsVariant", %"class.altered_carbon::js::JsVariant"* %4, i32 0, i32 1, !dbg !4254
  %357 = load i32, i32* %356, align 8, !dbg !4254
  %358 = icmp eq i32 %357, 4, !dbg !4254
  br label %359, !dbg !4254

; <label>:359:                                    ; preds = %355, %351
  %360 = phi i1 [ true, %351 ], [ %358, %355 ]
  br label %361, !dbg !4254

; <label>:361:                                    ; preds = %359, %349
  %362 = phi i1 [ %350, %349 ], [ %360, %359 ], !dbg !4254
  %363 = xor i1 %362, true, !dbg !4254
  br i1 %363, label %364, label %366, !dbg !4254

; <label>:364:                                    ; preds = %361
  call void @__assert_rtn(i8* getelementptr inbounds ([7 x i8], [7 x i8]* @__func__._ZN14altered_carbon2js9TestSuite6test02Ev, i32 0, i32 0), i8* getelementptr inbounds ([18 x i8], [18 x i8]* @.str, i32 0, i32 0), i32 95, i8* getelementptr inbounds ([14 x i8], [14 x i8]* @.str.16, i32 0, i32 0)) #7, !dbg !4254
  unreachable, !dbg !4254
                                                  ; No predecessors!
  br label %367, !dbg !4254

; <label>:366:                                    ; preds = %361
  br label %367, !dbg !4254

; <label>:367:                                    ; preds = %366, %365
  %368 = getelementptr inbounds %"class.altered_carbon::js::JsVariant", %"class.altered_carbon::js::JsVariant"* %4, i32 0, i32 1, !dbg !4255
  %369 = load i32, i32* %368, align 8, !dbg !4255
  %370 = icmp eq i32 %369, 7, !dbg !4255
  br i1 %370, label %371, label %378, !dbg !4255

; <label>:371:                                    ; preds = %367
  %372 = getelementptr inbounds %"class.altered_carbon::js::JsVariant", %"class.altered_carbon::js::JsVariant"* %4, i32 0, i32 2, !dbg !4255
  %373 = bitcast %union.anon* %372 to %"class.altered_carbon::js::JsVariant"**, !dbg !4255
  %374 = load %"class.altered_carbon::js::JsVariant"*, %"class.altered_carbon::js::JsVariant"** %373, align 8, !dbg !4255
  %375 = getelementptr inbounds %"class.altered_carbon::js::JsVariant", %"class.altered_carbon::js::JsVariant"* %374, i32 0, i32 1, !dbg !4255
  %376 = load i32, i32* %375, align 8, !dbg !4255
  %377 = icmp eq i32 %376, 4, !dbg !4255
  br label %382, !dbg !4255

; <label>:378:                                    ; preds = %367
  %379 = getelementptr inbounds %"class.altered_carbon::js::JsVariant", %"class.altered_carbon::js::JsVariant"* %4, i32 0, i32 1, !dbg !4255
  %380 = load i32, i32* %379, align 8, !dbg !4255
  %381 = icmp eq i32 %380, 4, !dbg !4255
  br label %382, !dbg !4255

; <label>:382:                                    ; preds = %378, %371
  %383 = phi i1 [ %377, %371 ], [ %381, %378 ], !dbg !4255
  %384 = xor i1 %383, true, !dbg !4255
  br i1 %384, label %385, label %387, !dbg !4255

; <label>:385:                                    ; preds = %382
  call void @__assert_rtn(i8* getelementptr inbounds ([7 x i8], [7 x i8]* @__func__._ZN14altered_carbon2js9TestSuite6test02Ev, i32 0, i32 0), i8* getelementptr inbounds ([18 x i8], [18 x i8]* @.str, i32 0, i32 0), i32 96, i8* getelementptr inbounds ([14 x i8], [14 x i8]* @.str.17, i32 0, i32 0)) #7, !dbg !4255
  unreachable, !dbg !4255
                                                  ; No predecessors!
  br label %388, !dbg !4255

; <label>:387:                                    ; preds = %382
  br label %388, !dbg !4255

; <label>:388:                                    ; preds = %387, %386
  %389 = call double @_ZNK14altered_carbon2js9JsVariant5flt_vEv(%"class.altered_carbon::js::JsVariant"* %4), !dbg !4256
  %390 = fcmp oeq double %389, 0.000000e+00, !dbg !4256
  %391 = xor i1 %390, true, !dbg !4256
  br i1 %391, label %392, label %394, !dbg !4256

; <label>:392:                                    ; preds = %388
  call void @__assert_rtn(i8* getelementptr inbounds ([7 x i8], [7 x i8]* @__func__._ZN14altered_carbon2js9TestSuite6test02Ev, i32 0, i32 0), i8* getelementptr inbounds ([18 x i8], [18 x i8]* @.str, i32 0, i32 0), i32 97, i8* getelementptr inbounds ([17 x i8], [17 x i8]* @.str.18, i32 0, i32 0)) #7, !dbg !4256
  unreachable, !dbg !4256
                                                  ; No predecessors!
  br label %395, !dbg !4256

; <label>:394:                                    ; preds = %388
  br label %395, !dbg !4256

; <label>:395:                                    ; preds = %394, %393
  call void @_ZN14altered_carbon2js9JsVariantD1Ev(%"class.altered_carbon::js::JsVariant"* %4) #8, !dbg !4257
  call void @_ZN14altered_carbon2js9JsVariantD1Ev(%"class.altered_carbon::js::JsVariant"* %3) #8, !dbg !4257
  ret void, !dbg !4257
}

declare dereferenceable(56) %"class.altered_carbon::js::JsVariant"* @_ZN14altered_carbon2js9JsVariantpLERKS1_(%"class.altered_carbon::js::JsVariant"*, %"class.altered_carbon::js::JsVariant"* dereferenceable(56)) #2

declare dereferenceable(56) %"class.altered_carbon::js::JsVariant"* @_ZN14altered_carbon2js9JsVariantmIERKS1_(%"class.altered_carbon::js::JsVariant"*, %"class.altered_carbon::js::JsVariant"* dereferenceable(56)) #2

declare dereferenceable(56) %"class.altered_carbon::js::JsVariant"* @_ZN14altered_carbon2js9JsVariantmLERKS1_(%"class.altered_carbon::js::JsVariant"*, %"class.altered_carbon::js::JsVariant"* dereferenceable(56)) #2

declare dereferenceable(56) %"class.altered_carbon::js::JsVariant"* @_ZN14altered_carbon2js9JsVariantdVERKS1_(%"class.altered_carbon::js::JsVariant"*, %"class.altered_carbon::js::JsVariant"* dereferenceable(56)) #2

declare dereferenceable(56) %"class.altered_carbon::js::JsVariant"* @_ZN14altered_carbon2js9JsVariantrMERKS1_(%"class.altered_carbon::js::JsVariant"*, %"class.altered_carbon::js::JsVariant"* dereferenceable(56)) #2

; Function Attrs: noinline nounwind optnone ssp uwtable
define void @_ZN14altered_carbon2js9TestSuite6test03Ev(%"class.altered_carbon::js::TestSuite"*) #0 align 2 !dbg !4258 {
  %2 = alloca %"class.altered_carbon::js::TestSuite"*, align 8
  %3 = alloca %"class.altered_carbon::js::JsVariant", align 8
  %4 = alloca %"class.altered_carbon::js::JsVariant", align 8
  %5 = alloca %"class.altered_carbon::js::JsVariant", align 8
  %6 = alloca %"class.altered_carbon::js::JsVariant", align 8
  %7 = alloca %"class.altered_carbon::js::JsVariant", align 8
  store %"class.altered_carbon::js::TestSuite"* %0, %"class.altered_carbon::js::TestSuite"** %2, align 8
  call void @llvm.dbg.declare(metadata %"class.altered_carbon::js::TestSuite"** %2, metadata !4259, metadata !DIExpression()), !dbg !4260
  %8 = load %"class.altered_carbon::js::TestSuite"*, %"class.altered_carbon::js::TestSuite"** %2, align 8
  call void @llvm.dbg.declare(metadata %"class.altered_carbon::js::JsVariant"* %3, metadata !4261, metadata !DIExpression()), !dbg !4262
  call void @_ZN14altered_carbon2js9JsVariantC1Ei(%"class.altered_carbon::js::JsVariant"* %3, i32 1), !dbg !4262
  call void @llvm.dbg.declare(metadata %"class.altered_carbon::js::JsVariant"* %4, metadata !4263, metadata !DIExpression()), !dbg !4264
  call void @_ZN14altered_carbon2js9JsVariantC1Ei(%"class.altered_carbon::js::JsVariant"* %4, i32 0), !dbg !4264
  call void @llvm.dbg.declare(metadata %"class.altered_carbon::js::JsVariant"* %5, metadata !4265, metadata !DIExpression()), !dbg !4266
  call void @_ZN14altered_carbon2js9JsVariantC1Ed(%"class.altered_carbon::js::JsVariant"* %5, double 1.000000e+00), !dbg !4266
  call void @llvm.dbg.declare(metadata %"class.altered_carbon::js::JsVariant"* %6, metadata !4267, metadata !DIExpression()), !dbg !4268
  call void @_ZN14altered_carbon2js9JsVariantC1Ed(%"class.altered_carbon::js::JsVariant"* %6, double 0.000000e+00), !dbg !4268
  call void @llvm.dbg.declare(metadata %"class.altered_carbon::js::JsVariant"* %7, metadata !4269, metadata !DIExpression()), !dbg !4270
  call void @_ZN14altered_carbon2js9JsVariantC1ENS1_13JsVariantTypeE(%"class.altered_carbon::js::JsVariant"* %7, i32 1), !dbg !4270
  %9 = call dereferenceable(56) %"class.altered_carbon::js::JsVariant"* @_ZNK14altered_carbon2js9JsVariant3divEPS1_RKS1_(%"class.altered_carbon::js::JsVariant"* %3, %"class.altered_carbon::js::JsVariant"* %7, %"class.altered_carbon::js::JsVariant"* dereferenceable(56) %4), !dbg !4271
  %10 = getelementptr inbounds %"class.altered_carbon::js::JsVariant", %"class.altered_carbon::js::JsVariant"* %7, i32 0, i32 1, !dbg !4272
  %11 = load i32, i32* %10, align 8, !dbg !4272
  %12 = icmp eq i32 %11, 7, !dbg !4272
  br i1 %12, label %13, label %29, !dbg !4272

; <label>:13:                                     ; preds = %1
  %14 = getelementptr inbounds %"class.altered_carbon::js::JsVariant", %"class.altered_carbon::js::JsVariant"* %7, i32 0, i32 2, !dbg !4272
  %15 = bitcast %union.anon* %14 to %"class.altered_carbon::js::JsVariant"**, !dbg !4272
  %16 = load %"class.altered_carbon::js::JsVariant"*, %"class.altered_carbon::js::JsVariant"** %15, align 8, !dbg !4272
  %17 = getelementptr inbounds %"class.altered_carbon::js::JsVariant", %"class.altered_carbon::js::JsVariant"* %16, i32 0, i32 1, !dbg !4272
  %18 = load i32, i32* %17, align 8, !dbg !4272
  %19 = icmp eq i32 %18, 3, !dbg !4272
  br i1 %19, label %27, label %20, !dbg !4272

; <label>:20:                                     ; preds = %13
  %21 = getelementptr inbounds %"class.altered_carbon::js::JsVariant", %"class.altered_carbon::js::JsVariant"* %7, i32 0, i32 2, !dbg !4272
  %22 = bitcast %union.anon* %21 to %"class.altered_carbon::js::JsVariant"**, !dbg !4272
  %23 = load %"class.altered_carbon::js::JsVariant"*, %"class.altered_carbon::js::JsVariant"** %22, align 8, !dbg !4272
  %24 = getelementptr inbounds %"class.altered_carbon::js::JsVariant", %"class.altered_carbon::js::JsVariant"* %23, i32 0, i32 1, !dbg !4272
  %25 = load i32, i32* %24, align 8, !dbg !4272
  %26 = icmp eq i32 %25, 4, !dbg !4272
  br label %27, !dbg !4272

; <label>:27:                                     ; preds = %20, %13
  %28 = phi i1 [ true, %13 ], [ %26, %20 ]
  br label %39, !dbg !4272

; <label>:29:                                     ; preds = %1
  %30 = getelementptr inbounds %"class.altered_carbon::js::JsVariant", %"class.altered_carbon::js::JsVariant"* %7, i32 0, i32 1, !dbg !4272
  %31 = load i32, i32* %30, align 8, !dbg !4272
  %32 = icmp eq i32 %31, 3, !dbg !4272
  br i1 %32, label %37, label %33, !dbg !4272

; <label>:33:                                     ; preds = %29
  %34 = getelementptr inbounds %"class.altered_carbon::js::JsVariant", %"class.altered_carbon::js::JsVariant"* %7, i32 0, i32 1, !dbg !4272
  %35 = load i32, i32* %34, align 8, !dbg !4272
  %36 = icmp eq i32 %35, 4, !dbg !4272
  br label %37, !dbg !4272

; <label>:37:                                     ; preds = %33, %29
  %38 = phi i1 [ true, %29 ], [ %36, %33 ]
  br label %39, !dbg !4272

; <label>:39:                                     ; preds = %37, %27
  %40 = phi i1 [ %28, %27 ], [ %38, %37 ], !dbg !4272
  %41 = xor i1 %40, true, !dbg !4272
  br i1 %41, label %42, label %44, !dbg !4272

; <label>:42:                                     ; preds = %39
  call void @__assert_rtn(i8* getelementptr inbounds ([7 x i8], [7 x i8]* @__func__._ZN14altered_carbon2js9TestSuite6test03Ev, i32 0, i32 0), i8* getelementptr inbounds ([18 x i8], [18 x i8]* @.str, i32 0, i32 0), i32 108, i8* getelementptr inbounds ([14 x i8], [14 x i8]* @.str.19, i32 0, i32 0)) #7, !dbg !4272
  unreachable, !dbg !4272
                                                  ; No predecessors!
  br label %45, !dbg !4272

; <label>:44:                                     ; preds = %39
  br label %45, !dbg !4272

; <label>:45:                                     ; preds = %44, %43
  %46 = getelementptr inbounds %"class.altered_carbon::js::JsVariant", %"class.altered_carbon::js::JsVariant"* %7, i32 0, i32 1, !dbg !4273
  %47 = load i32, i32* %46, align 8, !dbg !4273
  %48 = icmp eq i32 %47, 7, !dbg !4273
  br i1 %48, label %49, label %56, !dbg !4273

; <label>:49:                                     ; preds = %45
  %50 = getelementptr inbounds %"class.altered_carbon::js::JsVariant", %"class.altered_carbon::js::JsVariant"* %7, i32 0, i32 2, !dbg !4273
  %51 = bitcast %union.anon* %50 to %"class.altered_carbon::js::JsVariant"**, !dbg !4273
  %52 = load %"class.altered_carbon::js::JsVariant"*, %"class.altered_carbon::js::JsVariant"** %51, align 8, !dbg !4273
  %53 = getelementptr inbounds %"class.altered_carbon::js::JsVariant", %"class.altered_carbon::js::JsVariant"* %52, i32 0, i32 1, !dbg !4273
  %54 = load i32, i32* %53, align 8, !dbg !4273
  %55 = icmp eq i32 %54, 4, !dbg !4273
  br label %60, !dbg !4273

; <label>:56:                                     ; preds = %45
  %57 = getelementptr inbounds %"class.altered_carbon::js::JsVariant", %"class.altered_carbon::js::JsVariant"* %7, i32 0, i32 1, !dbg !4273
  %58 = load i32, i32* %57, align 8, !dbg !4273
  %59 = icmp eq i32 %58, 4, !dbg !4273
  br label %60, !dbg !4273

; <label>:60:                                     ; preds = %56, %49
  %61 = phi i1 [ %55, %49 ], [ %59, %56 ], !dbg !4273
  %62 = xor i1 %61, true, !dbg !4273
  br i1 %62, label %63, label %65, !dbg !4273

; <label>:63:                                     ; preds = %60
  call void @__assert_rtn(i8* getelementptr inbounds ([7 x i8], [7 x i8]* @__func__._ZN14altered_carbon2js9TestSuite6test03Ev, i32 0, i32 0), i8* getelementptr inbounds ([18 x i8], [18 x i8]* @.str, i32 0, i32 0), i32 109, i8* getelementptr inbounds ([14 x i8], [14 x i8]* @.str.20, i32 0, i32 0)) #7, !dbg !4273
  unreachable, !dbg !4273
                                                  ; No predecessors!
  br label %66, !dbg !4273

; <label>:65:                                     ; preds = %60
  br label %66, !dbg !4273

; <label>:66:                                     ; preds = %65, %64
  %67 = call zeroext i1 @_ZNK14altered_carbon2js9JsVariant10isInfiniteEv(%"class.altered_carbon::js::JsVariant"* %7), !dbg !4274
  %68 = xor i1 %67, true, !dbg !4274
  br i1 %68, label %69, label %71, !dbg !4274

; <label>:69:                                     ; preds = %66
  call void @__assert_rtn(i8* getelementptr inbounds ([7 x i8], [7 x i8]* @__func__._ZN14altered_carbon2js9TestSuite6test03Ev, i32 0, i32 0), i8* getelementptr inbounds ([18 x i8], [18 x i8]* @.str, i32 0, i32 0), i32 110, i8* getelementptr inbounds ([15 x i8], [15 x i8]* @.str.21, i32 0, i32 0)) #7, !dbg !4274
  unreachable, !dbg !4274
                                                  ; No predecessors!
  br label %72, !dbg !4274

; <label>:71:                                     ; preds = %66
  br label %72, !dbg !4274

; <label>:72:                                     ; preds = %71, %70
  %73 = call dereferenceable(56) %"class.altered_carbon::js::JsVariant"* @_ZNK14altered_carbon2js9JsVariant3divEPS1_RKS1_(%"class.altered_carbon::js::JsVariant"* %4, %"class.altered_carbon::js::JsVariant"* %7, %"class.altered_carbon::js::JsVariant"* dereferenceable(56) %4), !dbg !4275
  %74 = getelementptr inbounds %"class.altered_carbon::js::JsVariant", %"class.altered_carbon::js::JsVariant"* %7, i32 0, i32 1, !dbg !4276
  %75 = load i32, i32* %74, align 8, !dbg !4276
  %76 = icmp eq i32 %75, 7, !dbg !4276
  br i1 %76, label %77, label %84, !dbg !4276

; <label>:77:                                     ; preds = %72
  %78 = getelementptr inbounds %"class.altered_carbon::js::JsVariant", %"class.altered_carbon::js::JsVariant"* %7, i32 0, i32 2, !dbg !4276
  %79 = bitcast %union.anon* %78 to %"class.altered_carbon::js::JsVariant"**, !dbg !4276
  %80 = load %"class.altered_carbon::js::JsVariant"*, %"class.altered_carbon::js::JsVariant"** %79, align 8, !dbg !4276
  %81 = getelementptr inbounds %"class.altered_carbon::js::JsVariant", %"class.altered_carbon::js::JsVariant"* %80, i32 0, i32 1, !dbg !4276
  %82 = load i32, i32* %81, align 8, !dbg !4276
  %83 = icmp eq i32 %82, 4, !dbg !4276
  br label %88, !dbg !4276

; <label>:84:                                     ; preds = %72
  %85 = getelementptr inbounds %"class.altered_carbon::js::JsVariant", %"class.altered_carbon::js::JsVariant"* %7, i32 0, i32 1, !dbg !4276
  %86 = load i32, i32* %85, align 8, !dbg !4276
  %87 = icmp eq i32 %86, 4, !dbg !4276
  br label %88, !dbg !4276

; <label>:88:                                     ; preds = %84, %77
  %89 = phi i1 [ %83, %77 ], [ %87, %84 ], !dbg !4276
  %90 = xor i1 %89, true, !dbg !4276
  br i1 %90, label %91, label %93, !dbg !4276

; <label>:91:                                     ; preds = %88
  call void @__assert_rtn(i8* getelementptr inbounds ([7 x i8], [7 x i8]* @__func__._ZN14altered_carbon2js9TestSuite6test03Ev, i32 0, i32 0), i8* getelementptr inbounds ([18 x i8], [18 x i8]* @.str, i32 0, i32 0), i32 112, i8* getelementptr inbounds ([14 x i8], [14 x i8]* @.str.20, i32 0, i32 0)) #7, !dbg !4276
  unreachable, !dbg !4276
                                                  ; No predecessors!
  br label %94, !dbg !4276

; <label>:93:                                     ; preds = %88
  br label %94, !dbg !4276

; <label>:94:                                     ; preds = %93, %92
  %95 = call zeroext i1 @_ZNK14altered_carbon2js9JsVariant5isNaNEv(%"class.altered_carbon::js::JsVariant"* %7), !dbg !4277
  %96 = xor i1 %95, true, !dbg !4277
  br i1 %96, label %97, label %99, !dbg !4277

; <label>:97:                                     ; preds = %94
  call void @__assert_rtn(i8* getelementptr inbounds ([7 x i8], [7 x i8]* @__func__._ZN14altered_carbon2js9TestSuite6test03Ev, i32 0, i32 0), i8* getelementptr inbounds ([18 x i8], [18 x i8]* @.str, i32 0, i32 0), i32 113, i8* getelementptr inbounds ([10 x i8], [10 x i8]* @.str.22, i32 0, i32 0)) #7, !dbg !4277
  unreachable, !dbg !4277
                                                  ; No predecessors!
  br label %100, !dbg !4277

; <label>:99:                                     ; preds = %94
  br label %100, !dbg !4277

; <label>:100:                                    ; preds = %99, %98
  %101 = call dereferenceable(56) %"class.altered_carbon::js::JsVariant"* @_ZNK14altered_carbon2js9JsVariant3divEPS1_RKS1_(%"class.altered_carbon::js::JsVariant"* %5, %"class.altered_carbon::js::JsVariant"* %7, %"class.altered_carbon::js::JsVariant"* dereferenceable(56) %6), !dbg !4278
  %102 = getelementptr inbounds %"class.altered_carbon::js::JsVariant", %"class.altered_carbon::js::JsVariant"* %7, i32 0, i32 1, !dbg !4279
  %103 = load i32, i32* %102, align 8, !dbg !4279
  %104 = icmp eq i32 %103, 7, !dbg !4279
  br i1 %104, label %105, label %121, !dbg !4279

; <label>:105:                                    ; preds = %100
  %106 = getelementptr inbounds %"class.altered_carbon::js::JsVariant", %"class.altered_carbon::js::JsVariant"* %7, i32 0, i32 2, !dbg !4279
  %107 = bitcast %union.anon* %106 to %"class.altered_carbon::js::JsVariant"**, !dbg !4279
  %108 = load %"class.altered_carbon::js::JsVariant"*, %"class.altered_carbon::js::JsVariant"** %107, align 8, !dbg !4279
  %109 = getelementptr inbounds %"class.altered_carbon::js::JsVariant", %"class.altered_carbon::js::JsVariant"* %108, i32 0, i32 1, !dbg !4279
  %110 = load i32, i32* %109, align 8, !dbg !4279
  %111 = icmp eq i32 %110, 3, !dbg !4279
  br i1 %111, label %119, label %112, !dbg !4279

; <label>:112:                                    ; preds = %105
  %113 = getelementptr inbounds %"class.altered_carbon::js::JsVariant", %"class.altered_carbon::js::JsVariant"* %7, i32 0, i32 2, !dbg !4279
  %114 = bitcast %union.anon* %113 to %"class.altered_carbon::js::JsVariant"**, !dbg !4279
  %115 = load %"class.altered_carbon::js::JsVariant"*, %"class.altered_carbon::js::JsVariant"** %114, align 8, !dbg !4279
  %116 = getelementptr inbounds %"class.altered_carbon::js::JsVariant", %"class.altered_carbon::js::JsVariant"* %115, i32 0, i32 1, !dbg !4279
  %117 = load i32, i32* %116, align 8, !dbg !4279
  %118 = icmp eq i32 %117, 4, !dbg !4279
  br label %119, !dbg !4279

; <label>:119:                                    ; preds = %112, %105
  %120 = phi i1 [ true, %105 ], [ %118, %112 ]
  br label %131, !dbg !4279

; <label>:121:                                    ; preds = %100
  %122 = getelementptr inbounds %"class.altered_carbon::js::JsVariant", %"class.altered_carbon::js::JsVariant"* %7, i32 0, i32 1, !dbg !4279
  %123 = load i32, i32* %122, align 8, !dbg !4279
  %124 = icmp eq i32 %123, 3, !dbg !4279
  br i1 %124, label %129, label %125, !dbg !4279

; <label>:125:                                    ; preds = %121
  %126 = getelementptr inbounds %"class.altered_carbon::js::JsVariant", %"class.altered_carbon::js::JsVariant"* %7, i32 0, i32 1, !dbg !4279
  %127 = load i32, i32* %126, align 8, !dbg !4279
  %128 = icmp eq i32 %127, 4, !dbg !4279
  br label %129, !dbg !4279

; <label>:129:                                    ; preds = %125, %121
  %130 = phi i1 [ true, %121 ], [ %128, %125 ]
  br label %131, !dbg !4279

; <label>:131:                                    ; preds = %129, %119
  %132 = phi i1 [ %120, %119 ], [ %130, %129 ], !dbg !4279
  %133 = xor i1 %132, true, !dbg !4279
  br i1 %133, label %134, label %136, !dbg !4279

; <label>:134:                                    ; preds = %131
  call void @__assert_rtn(i8* getelementptr inbounds ([7 x i8], [7 x i8]* @__func__._ZN14altered_carbon2js9TestSuite6test03Ev, i32 0, i32 0), i8* getelementptr inbounds ([18 x i8], [18 x i8]* @.str, i32 0, i32 0), i32 116, i8* getelementptr inbounds ([14 x i8], [14 x i8]* @.str.19, i32 0, i32 0)) #7, !dbg !4279
  unreachable, !dbg !4279
                                                  ; No predecessors!
  br label %137, !dbg !4279

; <label>:136:                                    ; preds = %131
  br label %137, !dbg !4279

; <label>:137:                                    ; preds = %136, %135
  %138 = getelementptr inbounds %"class.altered_carbon::js::JsVariant", %"class.altered_carbon::js::JsVariant"* %7, i32 0, i32 1, !dbg !4280
  %139 = load i32, i32* %138, align 8, !dbg !4280
  %140 = icmp eq i32 %139, 7, !dbg !4280
  br i1 %140, label %141, label %148, !dbg !4280

; <label>:141:                                    ; preds = %137
  %142 = getelementptr inbounds %"class.altered_carbon::js::JsVariant", %"class.altered_carbon::js::JsVariant"* %7, i32 0, i32 2, !dbg !4280
  %143 = bitcast %union.anon* %142 to %"class.altered_carbon::js::JsVariant"**, !dbg !4280
  %144 = load %"class.altered_carbon::js::JsVariant"*, %"class.altered_carbon::js::JsVariant"** %143, align 8, !dbg !4280
  %145 = getelementptr inbounds %"class.altered_carbon::js::JsVariant", %"class.altered_carbon::js::JsVariant"* %144, i32 0, i32 1, !dbg !4280
  %146 = load i32, i32* %145, align 8, !dbg !4280
  %147 = icmp eq i32 %146, 4, !dbg !4280
  br label %152, !dbg !4280

; <label>:148:                                    ; preds = %137
  %149 = getelementptr inbounds %"class.altered_carbon::js::JsVariant", %"class.altered_carbon::js::JsVariant"* %7, i32 0, i32 1, !dbg !4280
  %150 = load i32, i32* %149, align 8, !dbg !4280
  %151 = icmp eq i32 %150, 4, !dbg !4280
  br label %152, !dbg !4280

; <label>:152:                                    ; preds = %148, %141
  %153 = phi i1 [ %147, %141 ], [ %151, %148 ], !dbg !4280
  %154 = xor i1 %153, true, !dbg !4280
  br i1 %154, label %155, label %157, !dbg !4280

; <label>:155:                                    ; preds = %152
  call void @__assert_rtn(i8* getelementptr inbounds ([7 x i8], [7 x i8]* @__func__._ZN14altered_carbon2js9TestSuite6test03Ev, i32 0, i32 0), i8* getelementptr inbounds ([18 x i8], [18 x i8]* @.str, i32 0, i32 0), i32 117, i8* getelementptr inbounds ([14 x i8], [14 x i8]* @.str.20, i32 0, i32 0)) #7, !dbg !4280
  unreachable, !dbg !4280
                                                  ; No predecessors!
  br label %158, !dbg !4280

; <label>:157:                                    ; preds = %152
  br label %158, !dbg !4280

; <label>:158:                                    ; preds = %157, %156
  %159 = call zeroext i1 @_ZNK14altered_carbon2js9JsVariant10isInfiniteEv(%"class.altered_carbon::js::JsVariant"* %7), !dbg !4281
  %160 = xor i1 %159, true, !dbg !4281
  br i1 %160, label %161, label %163, !dbg !4281

; <label>:161:                                    ; preds = %158
  call void @__assert_rtn(i8* getelementptr inbounds ([7 x i8], [7 x i8]* @__func__._ZN14altered_carbon2js9TestSuite6test03Ev, i32 0, i32 0), i8* getelementptr inbounds ([18 x i8], [18 x i8]* @.str, i32 0, i32 0), i32 118, i8* getelementptr inbounds ([15 x i8], [15 x i8]* @.str.21, i32 0, i32 0)) #7, !dbg !4281
  unreachable, !dbg !4281
                                                  ; No predecessors!
  br label %164, !dbg !4281

; <label>:163:                                    ; preds = %158
  br label %164, !dbg !4281

; <label>:164:                                    ; preds = %163, %162
  %165 = call dereferenceable(56) %"class.altered_carbon::js::JsVariant"* @_ZNK14altered_carbon2js9JsVariant3divEPS1_RKS1_(%"class.altered_carbon::js::JsVariant"* %6, %"class.altered_carbon::js::JsVariant"* %7, %"class.altered_carbon::js::JsVariant"* dereferenceable(56) %6), !dbg !4282
  %166 = getelementptr inbounds %"class.altered_carbon::js::JsVariant", %"class.altered_carbon::js::JsVariant"* %7, i32 0, i32 1, !dbg !4283
  %167 = load i32, i32* %166, align 8, !dbg !4283
  %168 = icmp eq i32 %167, 7, !dbg !4283
  br i1 %168, label %169, label %185, !dbg !4283

; <label>:169:                                    ; preds = %164
  %170 = getelementptr inbounds %"class.altered_carbon::js::JsVariant", %"class.altered_carbon::js::JsVariant"* %7, i32 0, i32 2, !dbg !4283
  %171 = bitcast %union.anon* %170 to %"class.altered_carbon::js::JsVariant"**, !dbg !4283
  %172 = load %"class.altered_carbon::js::JsVariant"*, %"class.altered_carbon::js::JsVariant"** %171, align 8, !dbg !4283
  %173 = getelementptr inbounds %"class.altered_carbon::js::JsVariant", %"class.altered_carbon::js::JsVariant"* %172, i32 0, i32 1, !dbg !4283
  %174 = load i32, i32* %173, align 8, !dbg !4283
  %175 = icmp eq i32 %174, 3, !dbg !4283
  br i1 %175, label %183, label %176, !dbg !4283

; <label>:176:                                    ; preds = %169
  %177 = getelementptr inbounds %"class.altered_carbon::js::JsVariant", %"class.altered_carbon::js::JsVariant"* %7, i32 0, i32 2, !dbg !4283
  %178 = bitcast %union.anon* %177 to %"class.altered_carbon::js::JsVariant"**, !dbg !4283
  %179 = load %"class.altered_carbon::js::JsVariant"*, %"class.altered_carbon::js::JsVariant"** %178, align 8, !dbg !4283
  %180 = getelementptr inbounds %"class.altered_carbon::js::JsVariant", %"class.altered_carbon::js::JsVariant"* %179, i32 0, i32 1, !dbg !4283
  %181 = load i32, i32* %180, align 8, !dbg !4283
  %182 = icmp eq i32 %181, 4, !dbg !4283
  br label %183, !dbg !4283

; <label>:183:                                    ; preds = %176, %169
  %184 = phi i1 [ true, %169 ], [ %182, %176 ]
  br label %195, !dbg !4283

; <label>:185:                                    ; preds = %164
  %186 = getelementptr inbounds %"class.altered_carbon::js::JsVariant", %"class.altered_carbon::js::JsVariant"* %7, i32 0, i32 1, !dbg !4283
  %187 = load i32, i32* %186, align 8, !dbg !4283
  %188 = icmp eq i32 %187, 3, !dbg !4283
  br i1 %188, label %193, label %189, !dbg !4283

; <label>:189:                                    ; preds = %185
  %190 = getelementptr inbounds %"class.altered_carbon::js::JsVariant", %"class.altered_carbon::js::JsVariant"* %7, i32 0, i32 1, !dbg !4283
  %191 = load i32, i32* %190, align 8, !dbg !4283
  %192 = icmp eq i32 %191, 4, !dbg !4283
  br label %193, !dbg !4283

; <label>:193:                                    ; preds = %189, %185
  %194 = phi i1 [ true, %185 ], [ %192, %189 ]
  br label %195, !dbg !4283

; <label>:195:                                    ; preds = %193, %183
  %196 = phi i1 [ %184, %183 ], [ %194, %193 ], !dbg !4283
  %197 = xor i1 %196, true, !dbg !4283
  br i1 %197, label %198, label %200, !dbg !4283

; <label>:198:                                    ; preds = %195
  call void @__assert_rtn(i8* getelementptr inbounds ([7 x i8], [7 x i8]* @__func__._ZN14altered_carbon2js9TestSuite6test03Ev, i32 0, i32 0), i8* getelementptr inbounds ([18 x i8], [18 x i8]* @.str, i32 0, i32 0), i32 120, i8* getelementptr inbounds ([14 x i8], [14 x i8]* @.str.19, i32 0, i32 0)) #7, !dbg !4283
  unreachable, !dbg !4283
                                                  ; No predecessors!
  br label %201, !dbg !4283

; <label>:200:                                    ; preds = %195
  br label %201, !dbg !4283

; <label>:201:                                    ; preds = %200, %199
  %202 = getelementptr inbounds %"class.altered_carbon::js::JsVariant", %"class.altered_carbon::js::JsVariant"* %7, i32 0, i32 1, !dbg !4284
  %203 = load i32, i32* %202, align 8, !dbg !4284
  %204 = icmp eq i32 %203, 7, !dbg !4284
  br i1 %204, label %205, label %212, !dbg !4284

; <label>:205:                                    ; preds = %201
  %206 = getelementptr inbounds %"class.altered_carbon::js::JsVariant", %"class.altered_carbon::js::JsVariant"* %7, i32 0, i32 2, !dbg !4284
  %207 = bitcast %union.anon* %206 to %"class.altered_carbon::js::JsVariant"**, !dbg !4284
  %208 = load %"class.altered_carbon::js::JsVariant"*, %"class.altered_carbon::js::JsVariant"** %207, align 8, !dbg !4284
  %209 = getelementptr inbounds %"class.altered_carbon::js::JsVariant", %"class.altered_carbon::js::JsVariant"* %208, i32 0, i32 1, !dbg !4284
  %210 = load i32, i32* %209, align 8, !dbg !4284
  %211 = icmp eq i32 %210, 4, !dbg !4284
  br label %216, !dbg !4284

; <label>:212:                                    ; preds = %201
  %213 = getelementptr inbounds %"class.altered_carbon::js::JsVariant", %"class.altered_carbon::js::JsVariant"* %7, i32 0, i32 1, !dbg !4284
  %214 = load i32, i32* %213, align 8, !dbg !4284
  %215 = icmp eq i32 %214, 4, !dbg !4284
  br label %216, !dbg !4284

; <label>:216:                                    ; preds = %212, %205
  %217 = phi i1 [ %211, %205 ], [ %215, %212 ], !dbg !4284
  %218 = xor i1 %217, true, !dbg !4284
  br i1 %218, label %219, label %221, !dbg !4284

; <label>:219:                                    ; preds = %216
  call void @__assert_rtn(i8* getelementptr inbounds ([7 x i8], [7 x i8]* @__func__._ZN14altered_carbon2js9TestSuite6test03Ev, i32 0, i32 0), i8* getelementptr inbounds ([18 x i8], [18 x i8]* @.str, i32 0, i32 0), i32 121, i8* getelementptr inbounds ([14 x i8], [14 x i8]* @.str.20, i32 0, i32 0)) #7, !dbg !4284
  unreachable, !dbg !4284
                                                  ; No predecessors!
  br label %222, !dbg !4284

; <label>:221:                                    ; preds = %216
  br label %222, !dbg !4284

; <label>:222:                                    ; preds = %221, %220
  %223 = call zeroext i1 @_ZNK14altered_carbon2js9JsVariant5isNaNEv(%"class.altered_carbon::js::JsVariant"* %7), !dbg !4285
  %224 = xor i1 %223, true, !dbg !4285
  br i1 %224, label %225, label %227, !dbg !4285

; <label>:225:                                    ; preds = %222
  call void @__assert_rtn(i8* getelementptr inbounds ([7 x i8], [7 x i8]* @__func__._ZN14altered_carbon2js9TestSuite6test03Ev, i32 0, i32 0), i8* getelementptr inbounds ([18 x i8], [18 x i8]* @.str, i32 0, i32 0), i32 122, i8* getelementptr inbounds ([10 x i8], [10 x i8]* @.str.22, i32 0, i32 0)) #7, !dbg !4285
  unreachable, !dbg !4285
                                                  ; No predecessors!
  br label %228, !dbg !4285

; <label>:227:                                    ; preds = %222
  br label %228, !dbg !4285

; <label>:228:                                    ; preds = %227, %226
  call void @_ZN14altered_carbon2js9JsVariantD1Ev(%"class.altered_carbon::js::JsVariant"* %7) #8, !dbg !4286
  call void @_ZN14altered_carbon2js9JsVariantD1Ev(%"class.altered_carbon::js::JsVariant"* %6) #8, !dbg !4286
  call void @_ZN14altered_carbon2js9JsVariantD1Ev(%"class.altered_carbon::js::JsVariant"* %5) #8, !dbg !4286
  call void @_ZN14altered_carbon2js9JsVariantD1Ev(%"class.altered_carbon::js::JsVariant"* %4) #8, !dbg !4286
  call void @_ZN14altered_carbon2js9JsVariantD1Ev(%"class.altered_carbon::js::JsVariant"* %3) #8, !dbg !4286
  ret void, !dbg !4286
}

declare void @_ZN14altered_carbon2js9JsVariantC1Ed(%"class.altered_carbon::js::JsVariant"*, double) unnamed_addr #2

; Function Attrs: noinline nounwind optnone ssp uwtable
define linkonce_odr hidden zeroext i1 @_ZNK14altered_carbon2js9JsVariant10isInfiniteEv(%"class.altered_carbon::js::JsVariant"*) #0 align 2 !dbg !4287 {
  %2 = alloca double, align 8
  call void @llvm.dbg.declare(metadata double* %2, metadata !4288, metadata !DIExpression()), !dbg !4292
  %3 = alloca double, align 8
  call void @llvm.dbg.declare(metadata double* %3, metadata !4306, metadata !DIExpression()), !dbg !4307
  %4 = alloca double, align 8
  call void @llvm.dbg.declare(metadata double* %4, metadata !4308, metadata !DIExpression()), !dbg !4309
  %5 = alloca %"class.altered_carbon::js::JsVariant"*, align 8
  store %"class.altered_carbon::js::JsVariant"* %0, %"class.altered_carbon::js::JsVariant"** %5, align 8
  call void @llvm.dbg.declare(metadata %"class.altered_carbon::js::JsVariant"** %5, metadata !4310, metadata !DIExpression()), !dbg !4311
  %6 = load %"class.altered_carbon::js::JsVariant"*, %"class.altered_carbon::js::JsVariant"** %5, align 8
  %7 = getelementptr inbounds %"class.altered_carbon::js::JsVariant", %"class.altered_carbon::js::JsVariant"* %6, i32 0, i32 1, !dbg !4312
  %8 = load i32, i32* %7, align 8, !dbg !4312
  %9 = icmp eq i32 %8, 7, !dbg !4312
  br i1 %9, label %10, label %15, !dbg !4312

; <label>:10:                                     ; preds = %1
  %11 = getelementptr inbounds %"class.altered_carbon::js::JsVariant", %"class.altered_carbon::js::JsVariant"* %6, i32 0, i32 2, !dbg !4313
  %12 = bitcast %union.anon* %11 to %"class.altered_carbon::js::JsVariant"**, !dbg !4313
  %13 = load %"class.altered_carbon::js::JsVariant"*, %"class.altered_carbon::js::JsVariant"** %12, align 8, !dbg !4313
  %14 = call zeroext i1 @_ZNK14altered_carbon2js9JsVariant10isInfiniteEv(%"class.altered_carbon::js::JsVariant"* %13), !dbg !4314
  br label %31, !dbg !4312

; <label>:15:                                     ; preds = %1
  %16 = getelementptr inbounds %"class.altered_carbon::js::JsVariant", %"class.altered_carbon::js::JsVariant"* %6, i32 0, i32 1, !dbg !4315
  %17 = load i32, i32* %16, align 8, !dbg !4315
  %18 = icmp eq i32 %17, 4, !dbg !4316
  br i1 %18, label %19, label %29, !dbg !4317

; <label>:19:                                     ; preds = %15
  %20 = getelementptr inbounds %"class.altered_carbon::js::JsVariant", %"class.altered_carbon::js::JsVariant"* %6, i32 0, i32 2, !dbg !4318
  %21 = bitcast %union.anon* %20 to double*, !dbg !4318
  %22 = load double, double* %21, align 8, !dbg !4318
  store double %22, double* %4, align 8
  %23 = load double, double* %4, align 8, !dbg !4319
  store double %23, double* %3, align 8
  %24 = load double, double* %3, align 8, !dbg !4320
  store double %24, double* %2, align 8
  %25 = load double, double* %2, align 8, !dbg !4321
  %26 = call double @llvm.fabs.f64(double %25) #8, !dbg !4322
  %27 = fcmp oeq double %26, 0x7FF0000000000000, !dbg !4323
  %28 = zext i1 %27 to i32, !dbg !4322
  br label %29

; <label>:29:                                     ; preds = %19, %15
  %30 = phi i1 [ false, %15 ], [ %27, %19 ]
  br label %31, !dbg !4312

; <label>:31:                                     ; preds = %29, %10
  %32 = phi i1 [ %14, %10 ], [ %30, %29 ], !dbg !4312
  ret i1 %32, !dbg !4324
}

; Function Attrs: noinline nounwind optnone ssp uwtable
define linkonce_odr hidden zeroext i1 @_ZNK14altered_carbon2js9JsVariant5isNaNEv(%"class.altered_carbon::js::JsVariant"*) #0 align 2 !dbg !4325 {
  %2 = alloca double, align 8
  call void @llvm.dbg.declare(metadata double* %2, metadata !4326, metadata !DIExpression()), !dbg !4328
  %3 = alloca double, align 8
  call void @llvm.dbg.declare(metadata double* %3, metadata !4334, metadata !DIExpression()), !dbg !4335
  %4 = alloca double, align 8
  call void @llvm.dbg.declare(metadata double* %4, metadata !4336, metadata !DIExpression()), !dbg !4337
  %5 = alloca %"class.altered_carbon::js::JsVariant"*, align 8
  store %"class.altered_carbon::js::JsVariant"* %0, %"class.altered_carbon::js::JsVariant"** %5, align 8
  call void @llvm.dbg.declare(metadata %"class.altered_carbon::js::JsVariant"** %5, metadata !4338, metadata !DIExpression()), !dbg !4339
  %6 = load %"class.altered_carbon::js::JsVariant"*, %"class.altered_carbon::js::JsVariant"** %5, align 8
  %7 = getelementptr inbounds %"class.altered_carbon::js::JsVariant", %"class.altered_carbon::js::JsVariant"* %6, i32 0, i32 1, !dbg !4340
  %8 = load i32, i32* %7, align 8, !dbg !4340
  %9 = icmp eq i32 %8, 7, !dbg !4340
  br i1 %9, label %10, label %15, !dbg !4340

; <label>:10:                                     ; preds = %1
  %11 = getelementptr inbounds %"class.altered_carbon::js::JsVariant", %"class.altered_carbon::js::JsVariant"* %6, i32 0, i32 2, !dbg !4341
  %12 = bitcast %union.anon* %11 to %"class.altered_carbon::js::JsVariant"**, !dbg !4341
  %13 = load %"class.altered_carbon::js::JsVariant"*, %"class.altered_carbon::js::JsVariant"** %12, align 8, !dbg !4341
  %14 = call zeroext i1 @_ZNK14altered_carbon2js9JsVariant5isNaNEv(%"class.altered_carbon::js::JsVariant"* %13), !dbg !4342
  br label %31, !dbg !4340

; <label>:15:                                     ; preds = %1
  %16 = getelementptr inbounds %"class.altered_carbon::js::JsVariant", %"class.altered_carbon::js::JsVariant"* %6, i32 0, i32 1, !dbg !4343
  %17 = load i32, i32* %16, align 8, !dbg !4343
  %18 = icmp eq i32 %17, 4, !dbg !4344
  br i1 %18, label %19, label %29, !dbg !4345

; <label>:19:                                     ; preds = %15
  %20 = getelementptr inbounds %"class.altered_carbon::js::JsVariant", %"class.altered_carbon::js::JsVariant"* %6, i32 0, i32 2, !dbg !4346
  %21 = bitcast %union.anon* %20 to double*, !dbg !4346
  %22 = load double, double* %21, align 8, !dbg !4346
  store double %22, double* %4, align 8
  %23 = load double, double* %4, align 8, !dbg !4347
  store double %23, double* %3, align 8
  %24 = load double, double* %3, align 8, !dbg !4348
  store double %24, double* %2, align 8
  %25 = load double, double* %2, align 8, !dbg !4349
  %26 = load double, double* %2, align 8, !dbg !4350
  %27 = fcmp une double %25, %26, !dbg !4351
  %28 = zext i1 %27 to i32, !dbg !4349
  br label %29

; <label>:29:                                     ; preds = %19, %15
  %30 = phi i1 [ false, %15 ], [ %27, %19 ]
  br label %31, !dbg !4340

; <label>:31:                                     ; preds = %29, %10
  %32 = phi i1 [ %14, %10 ], [ %30, %29 ], !dbg !4340
  ret i1 %32, !dbg !4352
}

; Function Attrs: noinline nounwind optnone ssp uwtable
define void @_ZN14altered_carbon2js9TestSuite6test04Ev(%"class.altered_carbon::js::TestSuite"*) #0 align 2 !dbg !4353 {
  %2 = alloca %"class.altered_carbon::js::TestSuite"*, align 8
  %3 = alloca %"class.altered_carbon::js::JsVariant", align 8
  %4 = alloca %"class.altered_carbon::js::JsVariant", align 8
  store %"class.altered_carbon::js::TestSuite"* %0, %"class.altered_carbon::js::TestSuite"** %2, align 8
  call void @llvm.dbg.declare(metadata %"class.altered_carbon::js::TestSuite"** %2, metadata !4354, metadata !DIExpression()), !dbg !4355
  %5 = load %"class.altered_carbon::js::TestSuite"*, %"class.altered_carbon::js::TestSuite"** %2, align 8
  call void @llvm.dbg.declare(metadata %"class.altered_carbon::js::JsVariant"* %3, metadata !4356, metadata !DIExpression()), !dbg !4357
  call void @_ZN14altered_carbon2js9JsVariantC1Eb(%"class.altered_carbon::js::JsVariant"* %3, i1 zeroext true), !dbg !4357
  call void @llvm.dbg.declare(metadata %"class.altered_carbon::js::JsVariant"* %4, metadata !4358, metadata !DIExpression()), !dbg !4359
  call void @_ZN14altered_carbon2js9JsVariantC1ENS1_13JsVariantTypeE(%"class.altered_carbon::js::JsVariant"* %4, i32 1), !dbg !4359
  %6 = call dereferenceable(56) %"class.altered_carbon::js::JsVariant"* @_ZNK14altered_carbon2js9JsVariant7valueOfEPS1_i(%"class.altered_carbon::js::JsVariant"* %3, %"class.altered_carbon::js::JsVariant"* %4, i32 2), !dbg !4360
  %7 = call dereferenceable(56) %"class.altered_carbon::js::JsVariant"* @_ZN14altered_carbon2js9JsVariant4convEi(%"class.altered_carbon::js::JsVariant"* %3, i32 2), !dbg !4361
  %8 = getelementptr inbounds %"class.altered_carbon::js::JsVariant", %"class.altered_carbon::js::JsVariant"* %4, i32 0, i32 1, !dbg !4362
  %9 = load i32, i32* %8, align 8, !dbg !4362
  %10 = icmp eq i32 %9, 7, !dbg !4362
  br i1 %10, label %11, label %18, !dbg !4362

; <label>:11:                                     ; preds = %1
  %12 = getelementptr inbounds %"class.altered_carbon::js::JsVariant", %"class.altered_carbon::js::JsVariant"* %4, i32 0, i32 2, !dbg !4362
  %13 = bitcast %union.anon* %12 to %"class.altered_carbon::js::JsVariant"**, !dbg !4362
  %14 = load %"class.altered_carbon::js::JsVariant"*, %"class.altered_carbon::js::JsVariant"** %13, align 8, !dbg !4362
  %15 = getelementptr inbounds %"class.altered_carbon::js::JsVariant", %"class.altered_carbon::js::JsVariant"* %14, i32 0, i32 1, !dbg !4362
  %16 = load i32, i32* %15, align 8, !dbg !4362
  %17 = icmp eq i32 %16, 3, !dbg !4362
  br label %22, !dbg !4362

; <label>:18:                                     ; preds = %1
  %19 = getelementptr inbounds %"class.altered_carbon::js::JsVariant", %"class.altered_carbon::js::JsVariant"* %4, i32 0, i32 1, !dbg !4362
  %20 = load i32, i32* %19, align 8, !dbg !4362
  %21 = icmp eq i32 %20, 3, !dbg !4362
  br label %22, !dbg !4362

; <label>:22:                                     ; preds = %18, %11
  %23 = phi i1 [ %17, %11 ], [ %21, %18 ], !dbg !4362
  %24 = xor i1 %23, true, !dbg !4362
  br i1 %24, label %25, label %27, !dbg !4362

; <label>:25:                                     ; preds = %22
  call void @__assert_rtn(i8* getelementptr inbounds ([7 x i8], [7 x i8]* @__func__._ZN14altered_carbon2js9TestSuite6test04Ev, i32 0, i32 0), i8* getelementptr inbounds ([18 x i8], [18 x i8]* @.str, i32 0, i32 0), i32 130, i8* getelementptr inbounds ([15 x i8], [15 x i8]* @.str.23, i32 0, i32 0)) #7, !dbg !4362
  unreachable, !dbg !4362
                                                  ; No predecessors!
  br label %28, !dbg !4362

; <label>:27:                                     ; preds = %22
  br label %28, !dbg !4362

; <label>:28:                                     ; preds = %27, %26
  %29 = call i64 @_ZNK14altered_carbon2js9JsVariant5int_vEv(%"class.altered_carbon::js::JsVariant"* %4), !dbg !4363
  %30 = icmp eq i64 %29, 1, !dbg !4363
  %31 = xor i1 %30, true, !dbg !4363
  br i1 %31, label %32, label %34, !dbg !4363

; <label>:32:                                     ; preds = %28
  call void @__assert_rtn(i8* getelementptr inbounds ([7 x i8], [7 x i8]* @__func__._ZN14altered_carbon2js9TestSuite6test04Ev, i32 0, i32 0), i8* getelementptr inbounds ([18 x i8], [18 x i8]* @.str, i32 0, i32 0), i32 131, i8* getelementptr inbounds ([15 x i8], [15 x i8]* @.str.24, i32 0, i32 0)) #7, !dbg !4363
  unreachable, !dbg !4363
                                                  ; No predecessors!
  br label %35, !dbg !4363

; <label>:34:                                     ; preds = %28
  br label %35, !dbg !4363

; <label>:35:                                     ; preds = %34, %33
  %36 = getelementptr inbounds %"class.altered_carbon::js::JsVariant", %"class.altered_carbon::js::JsVariant"* %3, i32 0, i32 1, !dbg !4364
  %37 = load i32, i32* %36, align 8, !dbg !4364
  %38 = icmp eq i32 %37, 7, !dbg !4364
  br i1 %38, label %39, label %46, !dbg !4364

; <label>:39:                                     ; preds = %35
  %40 = getelementptr inbounds %"class.altered_carbon::js::JsVariant", %"class.altered_carbon::js::JsVariant"* %3, i32 0, i32 2, !dbg !4364
  %41 = bitcast %union.anon* %40 to %"class.altered_carbon::js::JsVariant"**, !dbg !4364
  %42 = load %"class.altered_carbon::js::JsVariant"*, %"class.altered_carbon::js::JsVariant"** %41, align 8, !dbg !4364
  %43 = getelementptr inbounds %"class.altered_carbon::js::JsVariant", %"class.altered_carbon::js::JsVariant"* %42, i32 0, i32 1, !dbg !4364
  %44 = load i32, i32* %43, align 8, !dbg !4364
  %45 = icmp eq i32 %44, 3, !dbg !4364
  br label %50, !dbg !4364

; <label>:46:                                     ; preds = %35
  %47 = getelementptr inbounds %"class.altered_carbon::js::JsVariant", %"class.altered_carbon::js::JsVariant"* %3, i32 0, i32 1, !dbg !4364
  %48 = load i32, i32* %47, align 8, !dbg !4364
  %49 = icmp eq i32 %48, 3, !dbg !4364
  br label %50, !dbg !4364

; <label>:50:                                     ; preds = %46, %39
  %51 = phi i1 [ %45, %39 ], [ %49, %46 ], !dbg !4364
  %52 = xor i1 %51, true, !dbg !4364
  br i1 %52, label %53, label %55, !dbg !4364

; <label>:53:                                     ; preds = %50
  call void @__assert_rtn(i8* getelementptr inbounds ([7 x i8], [7 x i8]* @__func__._ZN14altered_carbon2js9TestSuite6test04Ev, i32 0, i32 0), i8* getelementptr inbounds ([18 x i8], [18 x i8]* @.str, i32 0, i32 0), i32 132, i8* getelementptr inbounds ([15 x i8], [15 x i8]* @.str.10, i32 0, i32 0)) #7, !dbg !4364
  unreachable, !dbg !4364
                                                  ; No predecessors!
  br label %56, !dbg !4364

; <label>:55:                                     ; preds = %50
  br label %56, !dbg !4364

; <label>:56:                                     ; preds = %55, %54
  %57 = call i64 @_ZNK14altered_carbon2js9JsVariant5int_vEv(%"class.altered_carbon::js::JsVariant"* %3), !dbg !4365
  %58 = icmp eq i64 %57, 1, !dbg !4365
  %59 = xor i1 %58, true, !dbg !4365
  br i1 %59, label %60, label %62, !dbg !4365

; <label>:60:                                     ; preds = %56
  call void @__assert_rtn(i8* getelementptr inbounds ([7 x i8], [7 x i8]* @__func__._ZN14altered_carbon2js9TestSuite6test04Ev, i32 0, i32 0), i8* getelementptr inbounds ([18 x i8], [18 x i8]* @.str, i32 0, i32 0), i32 133, i8* getelementptr inbounds ([15 x i8], [15 x i8]* @.str.25, i32 0, i32 0)) #7, !dbg !4365
  unreachable, !dbg !4365
                                                  ; No predecessors!
  br label %63, !dbg !4365

; <label>:62:                                     ; preds = %56
  br label %63, !dbg !4365

; <label>:63:                                     ; preds = %62, %61
  call void @_ZN14altered_carbon2js9JsVariantD1Ev(%"class.altered_carbon::js::JsVariant"* %4) #8, !dbg !4366
  call void @_ZN14altered_carbon2js9JsVariantD1Ev(%"class.altered_carbon::js::JsVariant"* %3) #8, !dbg !4366
  ret void, !dbg !4366
}

declare void @_ZN14altered_carbon2js9JsVariantC1Eb(%"class.altered_carbon::js::JsVariant"*, i1 zeroext) unnamed_addr #2

; Function Attrs: noinline nounwind optnone ssp uwtable
define linkonce_odr hidden dereferenceable(56) %"class.altered_carbon::js::JsVariant"* @_ZNK14altered_carbon2js9JsVariant7valueOfEPS1_i(%"class.altered_carbon::js::JsVariant"*, %"class.altered_carbon::js::JsVariant"*, i32) #0 align 2 !dbg !4367 {
  %4 = alloca %"class.altered_carbon::js::JsVariant"*, align 8
  %5 = alloca %"class.altered_carbon::js::JsVariant"*, align 8
  %6 = alloca i32, align 4
  store %"class.altered_carbon::js::JsVariant"* %0, %"class.altered_carbon::js::JsVariant"** %4, align 8
  call void @llvm.dbg.declare(metadata %"class.altered_carbon::js::JsVariant"** %4, metadata !4368, metadata !DIExpression()), !dbg !4369
  store %"class.altered_carbon::js::JsVariant"* %1, %"class.altered_carbon::js::JsVariant"** %5, align 8
  call void @llvm.dbg.declare(metadata %"class.altered_carbon::js::JsVariant"** %5, metadata !4370, metadata !DIExpression()), !dbg !4371
  store i32 %2, i32* %6, align 4
  call void @llvm.dbg.declare(metadata i32* %6, metadata !4372, metadata !DIExpression()), !dbg !4373
  %7 = load %"class.altered_carbon::js::JsVariant"*, %"class.altered_carbon::js::JsVariant"** %4, align 8
  %8 = load %"class.altered_carbon::js::JsVariant"*, %"class.altered_carbon::js::JsVariant"** %5, align 8, !dbg !4374
  %9 = call dereferenceable(56) %"class.altered_carbon::js::JsVariant"* @_ZN14altered_carbon2js9JsVariantaSERKS1_(%"class.altered_carbon::js::JsVariant"* %8, %"class.altered_carbon::js::JsVariant"* dereferenceable(56) %7), !dbg !4375
  %10 = load %"class.altered_carbon::js::JsVariant"*, %"class.altered_carbon::js::JsVariant"** %5, align 8, !dbg !4376
  %11 = load i32, i32* %6, align 4, !dbg !4377
  %12 = call dereferenceable(56) %"class.altered_carbon::js::JsVariant"* @_ZN14altered_carbon2js9JsVariant4convEi(%"class.altered_carbon::js::JsVariant"* %10, i32 %11), !dbg !4378
  %13 = load %"class.altered_carbon::js::JsVariant"*, %"class.altered_carbon::js::JsVariant"** %5, align 8, !dbg !4379
  ret %"class.altered_carbon::js::JsVariant"* %13, !dbg !4380
}

declare dereferenceable(56) %"class.altered_carbon::js::JsVariant"* @_ZN14altered_carbon2js9JsVariant4convEi(%"class.altered_carbon::js::JsVariant"*, i32) #2

; Function Attrs: noinline nounwind optnone ssp uwtable
define void @_ZN14altered_carbon2js9TestSuite6test05Ev(%"class.altered_carbon::js::TestSuite"*) #0 align 2 !dbg !4381 {
  %2 = alloca %"class.altered_carbon::js::TestSuite"*, align 8
  %3 = alloca %"class.altered_carbon::js::JsVariant", align 8
  %4 = alloca %"class.altered_carbon::js::JsVariant", align 8
  %5 = alloca %"class.altered_carbon::js::JsVariant", align 8
  store %"class.altered_carbon::js::TestSuite"* %0, %"class.altered_carbon::js::TestSuite"** %2, align 8
  call void @llvm.dbg.declare(metadata %"class.altered_carbon::js::TestSuite"** %2, metadata !4382, metadata !DIExpression()), !dbg !4383
  %6 = load %"class.altered_carbon::js::TestSuite"*, %"class.altered_carbon::js::TestSuite"** %2, align 8
  call void @llvm.dbg.declare(metadata %"class.altered_carbon::js::JsVariant"* %3, metadata !4384, metadata !DIExpression()), !dbg !4385
  call void @_ZN14altered_carbon2js9JsVariantC1ENS1_13JsVariantTypeE(%"class.altered_carbon::js::JsVariant"* %3, i32 1), !dbg !4385
  %7 = getelementptr inbounds %"class.altered_carbon::js::JsVariant", %"class.altered_carbon::js::JsVariant"* %3, i32 0, i32 1, !dbg !4386
  %8 = load i32, i32* %7, align 8, !dbg !4386
  %9 = icmp eq i32 %8, 7, !dbg !4386
  br i1 %9, label %10, label %17, !dbg !4386

; <label>:10:                                     ; preds = %1
  %11 = getelementptr inbounds %"class.altered_carbon::js::JsVariant", %"class.altered_carbon::js::JsVariant"* %3, i32 0, i32 2, !dbg !4386
  %12 = bitcast %union.anon* %11 to %"class.altered_carbon::js::JsVariant"**, !dbg !4386
  %13 = load %"class.altered_carbon::js::JsVariant"*, %"class.altered_carbon::js::JsVariant"** %12, align 8, !dbg !4386
  %14 = getelementptr inbounds %"class.altered_carbon::js::JsVariant", %"class.altered_carbon::js::JsVariant"* %13, i32 0, i32 1, !dbg !4386
  %15 = load i32, i32* %14, align 8, !dbg !4386
  %16 = icmp eq i32 %15, 1, !dbg !4386
  br label %21, !dbg !4386

; <label>:17:                                     ; preds = %1
  %18 = getelementptr inbounds %"class.altered_carbon::js::JsVariant", %"class.altered_carbon::js::JsVariant"* %3, i32 0, i32 1, !dbg !4386
  %19 = load i32, i32* %18, align 8, !dbg !4386
  %20 = icmp eq i32 %19, 1, !dbg !4386
  br label %21, !dbg !4386

; <label>:21:                                     ; preds = %17, %10
  %22 = phi i1 [ %16, %10 ], [ %20, %17 ], !dbg !4386
  %23 = xor i1 %22, true, !dbg !4386
  br i1 %23, label %24, label %26, !dbg !4386

; <label>:24:                                     ; preds = %21
  call void @__assert_rtn(i8* getelementptr inbounds ([7 x i8], [7 x i8]* @__func__._ZN14altered_carbon2js9TestSuite6test05Ev, i32 0, i32 0), i8* getelementptr inbounds ([18 x i8], [18 x i8]* @.str, i32 0, i32 0), i32 138, i8* getelementptr inbounds ([17 x i8], [17 x i8]* @.str.26, i32 0, i32 0)) #7, !dbg !4386
  unreachable, !dbg !4386
                                                  ; No predecessors!
  br label %27, !dbg !4386

; <label>:26:                                     ; preds = %21
  br label %27, !dbg !4386

; <label>:27:                                     ; preds = %26, %25
  call void @llvm.dbg.declare(metadata %"class.altered_carbon::js::JsVariant"* %4, metadata !4387, metadata !DIExpression()), !dbg !4388
  call void @_ZN14altered_carbon2js9JsVariantC1Ei(%"class.altered_carbon::js::JsVariant"* %4, i32 1), !dbg !4388
  %28 = call dereferenceable(56) %"class.altered_carbon::js::JsVariant"* @_ZN14altered_carbon2js9JsVariantpLERKS1_(%"class.altered_carbon::js::JsVariant"* %3, %"class.altered_carbon::js::JsVariant"* dereferenceable(56) %4), !dbg !4389
  %29 = call zeroext i1 @_ZNK14altered_carbon2js9JsVariant5isNaNEv(%"class.altered_carbon::js::JsVariant"* %3), !dbg !4390
  %30 = xor i1 %29, true, !dbg !4390
  br i1 %30, label %31, label %33, !dbg !4390

; <label>:31:                                     ; preds = %27
  call void @__assert_rtn(i8* getelementptr inbounds ([7 x i8], [7 x i8]* @__func__._ZN14altered_carbon2js9TestSuite6test05Ev, i32 0, i32 0), i8* getelementptr inbounds ([18 x i8], [18 x i8]* @.str, i32 0, i32 0), i32 141, i8* getelementptr inbounds ([10 x i8], [10 x i8]* @.str.27, i32 0, i32 0)) #7, !dbg !4390
  unreachable, !dbg !4390
                                                  ; No predecessors!
  br label %34, !dbg !4390

; <label>:33:                                     ; preds = %27
  br label %34, !dbg !4390

; <label>:34:                                     ; preds = %33, %32
  call void @llvm.dbg.declare(metadata %"class.altered_carbon::js::JsVariant"* %5, metadata !4391, metadata !DIExpression()), !dbg !4392
  call void @_ZN14altered_carbon2js9JsVariantC1ENS1_13JsVariantTypeE(%"class.altered_carbon::js::JsVariant"* %5, i32 1), !dbg !4392
  %35 = call dereferenceable(56) %"class.altered_carbon::js::JsVariant"* @_ZN14altered_carbon2js9JsVariantlSERKS1_(%"class.altered_carbon::js::JsVariant"* %5, %"class.altered_carbon::js::JsVariant"* dereferenceable(56) %4), !dbg !4393
  %36 = getelementptr inbounds %"class.altered_carbon::js::JsVariant", %"class.altered_carbon::js::JsVariant"* %5, i32 0, i32 1, !dbg !4394
  %37 = load i32, i32* %36, align 8, !dbg !4394
  %38 = icmp eq i32 %37, 7, !dbg !4394
  br i1 %38, label %39, label %46, !dbg !4394

; <label>:39:                                     ; preds = %34
  %40 = getelementptr inbounds %"class.altered_carbon::js::JsVariant", %"class.altered_carbon::js::JsVariant"* %5, i32 0, i32 2, !dbg !4394
  %41 = bitcast %union.anon* %40 to %"class.altered_carbon::js::JsVariant"**, !dbg !4394
  %42 = load %"class.altered_carbon::js::JsVariant"*, %"class.altered_carbon::js::JsVariant"** %41, align 8, !dbg !4394
  %43 = getelementptr inbounds %"class.altered_carbon::js::JsVariant", %"class.altered_carbon::js::JsVariant"* %42, i32 0, i32 1, !dbg !4394
  %44 = load i32, i32* %43, align 8, !dbg !4394
  %45 = icmp eq i32 %44, 3, !dbg !4394
  br label %50, !dbg !4394

; <label>:46:                                     ; preds = %34
  %47 = getelementptr inbounds %"class.altered_carbon::js::JsVariant", %"class.altered_carbon::js::JsVariant"* %5, i32 0, i32 1, !dbg !4394
  %48 = load i32, i32* %47, align 8, !dbg !4394
  %49 = icmp eq i32 %48, 3, !dbg !4394
  br label %50, !dbg !4394

; <label>:50:                                     ; preds = %46, %39
  %51 = phi i1 [ %45, %39 ], [ %49, %46 ], !dbg !4394
  %52 = xor i1 %51, true, !dbg !4394
  br i1 %52, label %53, label %55, !dbg !4394

; <label>:53:                                     ; preds = %50
  call void @__assert_rtn(i8* getelementptr inbounds ([7 x i8], [7 x i8]* @__func__._ZN14altered_carbon2js9TestSuite6test05Ev, i32 0, i32 0), i8* getelementptr inbounds ([18 x i8], [18 x i8]* @.str, i32 0, i32 0), i32 144, i8* getelementptr inbounds ([15 x i8], [15 x i8]* @.str.2, i32 0, i32 0)) #7, !dbg !4394
  unreachable, !dbg !4394
                                                  ; No predecessors!
  br label %56, !dbg !4394

; <label>:55:                                     ; preds = %50
  br label %56, !dbg !4394

; <label>:56:                                     ; preds = %55, %54
  %57 = call i64 @_ZNK14altered_carbon2js9JsVariant5int_vEv(%"class.altered_carbon::js::JsVariant"* %5), !dbg !4395
  %58 = icmp eq i64 %57, 0, !dbg !4395
  %59 = xor i1 %58, true, !dbg !4395
  br i1 %59, label %60, label %62, !dbg !4395

; <label>:60:                                     ; preds = %56
  call void @__assert_rtn(i8* getelementptr inbounds ([7 x i8], [7 x i8]* @__func__._ZN14altered_carbon2js9TestSuite6test05Ev, i32 0, i32 0), i8* getelementptr inbounds ([18 x i8], [18 x i8]* @.str, i32 0, i32 0), i32 145, i8* getelementptr inbounds ([15 x i8], [15 x i8]* @.str.28, i32 0, i32 0)) #7, !dbg !4395
  unreachable, !dbg !4395
                                                  ; No predecessors!
  br label %63, !dbg !4395

; <label>:62:                                     ; preds = %56
  br label %63, !dbg !4395

; <label>:63:                                     ; preds = %62, %61
  %64 = call dereferenceable(56) %"class.altered_carbon::js::JsVariant"* @_ZN14altered_carbon2js9JsVarianteOERKS1_(%"class.altered_carbon::js::JsVariant"* %5, %"class.altered_carbon::js::JsVariant"* dereferenceable(56) %4), !dbg !4396
  %65 = getelementptr inbounds %"class.altered_carbon::js::JsVariant", %"class.altered_carbon::js::JsVariant"* %5, i32 0, i32 1, !dbg !4397
  %66 = load i32, i32* %65, align 8, !dbg !4397
  %67 = icmp eq i32 %66, 7, !dbg !4397
  br i1 %67, label %68, label %75, !dbg !4397

; <label>:68:                                     ; preds = %63
  %69 = getelementptr inbounds %"class.altered_carbon::js::JsVariant", %"class.altered_carbon::js::JsVariant"* %5, i32 0, i32 2, !dbg !4397
  %70 = bitcast %union.anon* %69 to %"class.altered_carbon::js::JsVariant"**, !dbg !4397
  %71 = load %"class.altered_carbon::js::JsVariant"*, %"class.altered_carbon::js::JsVariant"** %70, align 8, !dbg !4397
  %72 = getelementptr inbounds %"class.altered_carbon::js::JsVariant", %"class.altered_carbon::js::JsVariant"* %71, i32 0, i32 1, !dbg !4397
  %73 = load i32, i32* %72, align 8, !dbg !4397
  %74 = icmp eq i32 %73, 3, !dbg !4397
  br label %79, !dbg !4397

; <label>:75:                                     ; preds = %63
  %76 = getelementptr inbounds %"class.altered_carbon::js::JsVariant", %"class.altered_carbon::js::JsVariant"* %5, i32 0, i32 1, !dbg !4397
  %77 = load i32, i32* %76, align 8, !dbg !4397
  %78 = icmp eq i32 %77, 3, !dbg !4397
  br label %79, !dbg !4397

; <label>:79:                                     ; preds = %75, %68
  %80 = phi i1 [ %74, %68 ], [ %78, %75 ], !dbg !4397
  %81 = xor i1 %80, true, !dbg !4397
  br i1 %81, label %82, label %84, !dbg !4397

; <label>:82:                                     ; preds = %79
  call void @__assert_rtn(i8* getelementptr inbounds ([7 x i8], [7 x i8]* @__func__._ZN14altered_carbon2js9TestSuite6test05Ev, i32 0, i32 0), i8* getelementptr inbounds ([18 x i8], [18 x i8]* @.str, i32 0, i32 0), i32 147, i8* getelementptr inbounds ([15 x i8], [15 x i8]* @.str.2, i32 0, i32 0)) #7, !dbg !4397
  unreachable, !dbg !4397
                                                  ; No predecessors!
  br label %85, !dbg !4397

; <label>:84:                                     ; preds = %79
  br label %85, !dbg !4397

; <label>:85:                                     ; preds = %84, %83
  %86 = call i64 @_ZNK14altered_carbon2js9JsVariant5int_vEv(%"class.altered_carbon::js::JsVariant"* %5), !dbg !4398
  %87 = icmp eq i64 %86, 1, !dbg !4398
  %88 = xor i1 %87, true, !dbg !4398
  br i1 %88, label %89, label %91, !dbg !4398

; <label>:89:                                     ; preds = %85
  call void @__assert_rtn(i8* getelementptr inbounds ([7 x i8], [7 x i8]* @__func__._ZN14altered_carbon2js9TestSuite6test05Ev, i32 0, i32 0), i8* getelementptr inbounds ([18 x i8], [18 x i8]* @.str, i32 0, i32 0), i32 148, i8* getelementptr inbounds ([15 x i8], [15 x i8]* @.str.29, i32 0, i32 0)) #7, !dbg !4398
  unreachable, !dbg !4398
                                                  ; No predecessors!
  br label %92, !dbg !4398

; <label>:91:                                     ; preds = %85
  br label %92, !dbg !4398

; <label>:92:                                     ; preds = %91, %90
  call void @_ZN14altered_carbon2js9JsVariantD1Ev(%"class.altered_carbon::js::JsVariant"* %5) #8, !dbg !4399
  call void @_ZN14altered_carbon2js9JsVariantD1Ev(%"class.altered_carbon::js::JsVariant"* %4) #8, !dbg !4399
  call void @_ZN14altered_carbon2js9JsVariantD1Ev(%"class.altered_carbon::js::JsVariant"* %3) #8, !dbg !4399
  ret void, !dbg !4399
}

declare dereferenceable(56) %"class.altered_carbon::js::JsVariant"* @_ZN14altered_carbon2js9JsVariantlSERKS1_(%"class.altered_carbon::js::JsVariant"*, %"class.altered_carbon::js::JsVariant"* dereferenceable(56)) #2

declare dereferenceable(56) %"class.altered_carbon::js::JsVariant"* @_ZN14altered_carbon2js9JsVarianteOERKS1_(%"class.altered_carbon::js::JsVariant"*, %"class.altered_carbon::js::JsVariant"* dereferenceable(56)) #2

; Function Attrs: noinline nounwind optnone ssp uwtable
define void @_ZN14altered_carbon2js9TestSuite6test06Ev(%"class.altered_carbon::js::TestSuite"*) #0 align 2 !dbg !4400 {
  %2 = alloca %"class.altered_carbon::js::TestSuite"*, align 8
  %3 = alloca %"class.altered_carbon::js::JsVariant", align 8
  %4 = alloca %"class.altered_carbon::js::JsVariant", align 8
  %5 = alloca %"class.altered_carbon::js::JsVariant", align 8
  %6 = alloca %"class.altered_carbon::js::JsVariant", align 8
  store %"class.altered_carbon::js::TestSuite"* %0, %"class.altered_carbon::js::TestSuite"** %2, align 8
  call void @llvm.dbg.declare(metadata %"class.altered_carbon::js::TestSuite"** %2, metadata !4401, metadata !DIExpression()), !dbg !4402
  %7 = load %"class.altered_carbon::js::TestSuite"*, %"class.altered_carbon::js::TestSuite"** %2, align 8
  call void @llvm.dbg.declare(metadata %"class.altered_carbon::js::JsVariant"* %3, metadata !4403, metadata !DIExpression()), !dbg !4404
  call void @_ZN14altered_carbon2js9JsVariantC1ENS1_13JsVariantTypeE(%"class.altered_carbon::js::JsVariant"* %3, i32 1), !dbg !4404
  call void @llvm.dbg.declare(metadata %"class.altered_carbon::js::JsVariant"* %4, metadata !4405, metadata !DIExpression()), !dbg !4406
  call void @_ZN14altered_carbon2js9JsVariantC1ERKS1_(%"class.altered_carbon::js::JsVariant"* %4, %"class.altered_carbon::js::JsVariant"* dereferenceable(56) @_ZN14altered_carbon2js11JsConstants3NaNE), !dbg !4407
  call void @llvm.dbg.declare(metadata %"class.altered_carbon::js::JsVariant"* %5, metadata !4408, metadata !DIExpression()), !dbg !4409
  call void @_ZN14altered_carbon2js9JsVariantC1Ex(%"class.altered_carbon::js::JsVariant"* %5, i64 1), !dbg !4410
  call void @llvm.dbg.declare(metadata %"class.altered_carbon::js::JsVariant"* %6, metadata !4411, metadata !DIExpression()), !dbg !4412
  call void @_ZN14altered_carbon2js9JsVariantC1ENS1_13JsVariantTypeE(%"class.altered_carbon::js::JsVariant"* %6, i32 1), !dbg !4412
  %8 = getelementptr inbounds %"class.altered_carbon::js::JsVariant", %"class.altered_carbon::js::JsVariant"* %3, i32 0, i32 1, !dbg !4413
  %9 = load i32, i32* %8, align 8, !dbg !4413
  %10 = icmp eq i32 %9, 7, !dbg !4413
  br i1 %10, label %11, label %18, !dbg !4413

; <label>:11:                                     ; preds = %1
  %12 = getelementptr inbounds %"class.altered_carbon::js::JsVariant", %"class.altered_carbon::js::JsVariant"* %3, i32 0, i32 2, !dbg !4413
  %13 = bitcast %union.anon* %12 to %"class.altered_carbon::js::JsVariant"**, !dbg !4413
  %14 = load %"class.altered_carbon::js::JsVariant"*, %"class.altered_carbon::js::JsVariant"** %13, align 8, !dbg !4413
  %15 = getelementptr inbounds %"class.altered_carbon::js::JsVariant", %"class.altered_carbon::js::JsVariant"* %14, i32 0, i32 1, !dbg !4413
  %16 = load i32, i32* %15, align 8, !dbg !4413
  %17 = icmp eq i32 %16, 1, !dbg !4413
  br label %22, !dbg !4413

; <label>:18:                                     ; preds = %1
  %19 = getelementptr inbounds %"class.altered_carbon::js::JsVariant", %"class.altered_carbon::js::JsVariant"* %3, i32 0, i32 1, !dbg !4413
  %20 = load i32, i32* %19, align 8, !dbg !4413
  %21 = icmp eq i32 %20, 1, !dbg !4413
  br label %22, !dbg !4413

; <label>:22:                                     ; preds = %18, %11
  %23 = phi i1 [ %17, %11 ], [ %21, %18 ], !dbg !4413
  %24 = xor i1 %23, true, !dbg !4413
  br i1 %24, label %25, label %27, !dbg !4413

; <label>:25:                                     ; preds = %22
  call void @__assert_rtn(i8* getelementptr inbounds ([7 x i8], [7 x i8]* @__func__._ZN14altered_carbon2js9TestSuite6test06Ev, i32 0, i32 0), i8* getelementptr inbounds ([18 x i8], [18 x i8]* @.str, i32 0, i32 0), i32 156, i8* getelementptr inbounds ([17 x i8], [17 x i8]* @.str.26, i32 0, i32 0)) #7, !dbg !4413
  unreachable, !dbg !4413
                                                  ; No predecessors!
  br label %28, !dbg !4413

; <label>:27:                                     ; preds = %22
  br label %28, !dbg !4413

; <label>:28:                                     ; preds = %27, %26
  %29 = getelementptr inbounds %"class.altered_carbon::js::JsVariant", %"class.altered_carbon::js::JsVariant"* %4, i32 0, i32 1, !dbg !4414
  %30 = load i32, i32* %29, align 8, !dbg !4414
  %31 = icmp eq i32 %30, 7, !dbg !4414
  br i1 %31, label %32, label %39, !dbg !4414

; <label>:32:                                     ; preds = %28
  %33 = getelementptr inbounds %"class.altered_carbon::js::JsVariant", %"class.altered_carbon::js::JsVariant"* %4, i32 0, i32 2, !dbg !4414
  %34 = bitcast %union.anon* %33 to %"class.altered_carbon::js::JsVariant"**, !dbg !4414
  %35 = load %"class.altered_carbon::js::JsVariant"*, %"class.altered_carbon::js::JsVariant"** %34, align 8, !dbg !4414
  %36 = getelementptr inbounds %"class.altered_carbon::js::JsVariant", %"class.altered_carbon::js::JsVariant"* %35, i32 0, i32 1, !dbg !4414
  %37 = load i32, i32* %36, align 8, !dbg !4414
  %38 = icmp eq i32 %37, 4, !dbg !4414
  br label %43, !dbg !4414

; <label>:39:                                     ; preds = %28
  %40 = getelementptr inbounds %"class.altered_carbon::js::JsVariant", %"class.altered_carbon::js::JsVariant"* %4, i32 0, i32 1, !dbg !4414
  %41 = load i32, i32* %40, align 8, !dbg !4414
  %42 = icmp eq i32 %41, 4, !dbg !4414
  br label %43, !dbg !4414

; <label>:43:                                     ; preds = %39, %32
  %44 = phi i1 [ %38, %32 ], [ %42, %39 ], !dbg !4414
  %45 = xor i1 %44, true, !dbg !4414
  br i1 %45, label %46, label %48, !dbg !4414

; <label>:46:                                     ; preds = %43
  call void @__assert_rtn(i8* getelementptr inbounds ([7 x i8], [7 x i8]* @__func__._ZN14altered_carbon2js9TestSuite6test06Ev, i32 0, i32 0), i8* getelementptr inbounds ([18 x i8], [18 x i8]* @.str, i32 0, i32 0), i32 157, i8* getelementptr inbounds ([14 x i8], [14 x i8]* @.str.17, i32 0, i32 0)) #7, !dbg !4414
  unreachable, !dbg !4414
                                                  ; No predecessors!
  br label %49, !dbg !4414

; <label>:48:                                     ; preds = %43
  br label %49, !dbg !4414

; <label>:49:                                     ; preds = %48, %47
  %50 = call zeroext i1 @_ZNK14altered_carbon2js9JsVariant5isNaNEv(%"class.altered_carbon::js::JsVariant"* %4), !dbg !4415
  %51 = xor i1 %50, true, !dbg !4415
  br i1 %51, label %52, label %54, !dbg !4415

; <label>:52:                                     ; preds = %49
  call void @__assert_rtn(i8* getelementptr inbounds ([7 x i8], [7 x i8]* @__func__._ZN14altered_carbon2js9TestSuite6test06Ev, i32 0, i32 0), i8* getelementptr inbounds ([18 x i8], [18 x i8]* @.str, i32 0, i32 0), i32 158, i8* getelementptr inbounds ([10 x i8], [10 x i8]* @.str.30, i32 0, i32 0)) #7, !dbg !4415
  unreachable, !dbg !4415
                                                  ; No predecessors!
  br label %55, !dbg !4415

; <label>:54:                                     ; preds = %49
  br label %55, !dbg !4415

; <label>:55:                                     ; preds = %54, %53
  %56 = call dereferenceable(56) %"class.altered_carbon::js::JsVariant"* @_ZNK14altered_carbon2js9JsVariant3bwxEPS1_RKS1_(%"class.altered_carbon::js::JsVariant"* %4, %"class.altered_carbon::js::JsVariant"* %6, %"class.altered_carbon::js::JsVariant"* dereferenceable(56) %5), !dbg !4416
  %57 = call dereferenceable(56) %"class.altered_carbon::js::JsVariant"* @_ZN14altered_carbon2js9JsVarianteOERKS1_(%"class.altered_carbon::js::JsVariant"* %4, %"class.altered_carbon::js::JsVariant"* dereferenceable(56) %5), !dbg !4417
  %58 = getelementptr inbounds %"class.altered_carbon::js::JsVariant", %"class.altered_carbon::js::JsVariant"* %4, i32 0, i32 1, !dbg !4418
  %59 = load i32, i32* %58, align 8, !dbg !4418
  %60 = icmp eq i32 %59, 7, !dbg !4418
  br i1 %60, label %61, label %77, !dbg !4418

; <label>:61:                                     ; preds = %55
  %62 = getelementptr inbounds %"class.altered_carbon::js::JsVariant", %"class.altered_carbon::js::JsVariant"* %4, i32 0, i32 2, !dbg !4418
  %63 = bitcast %union.anon* %62 to %"class.altered_carbon::js::JsVariant"**, !dbg !4418
  %64 = load %"class.altered_carbon::js::JsVariant"*, %"class.altered_carbon::js::JsVariant"** %63, align 8, !dbg !4418
  %65 = getelementptr inbounds %"class.altered_carbon::js::JsVariant", %"class.altered_carbon::js::JsVariant"* %64, i32 0, i32 1, !dbg !4418
  %66 = load i32, i32* %65, align 8, !dbg !4418
  %67 = icmp eq i32 %66, 3, !dbg !4418
  br i1 %67, label %75, label %68, !dbg !4418

; <label>:68:                                     ; preds = %61
  %69 = getelementptr inbounds %"class.altered_carbon::js::JsVariant", %"class.altered_carbon::js::JsVariant"* %4, i32 0, i32 2, !dbg !4418
  %70 = bitcast %union.anon* %69 to %"class.altered_carbon::js::JsVariant"**, !dbg !4418
  %71 = load %"class.altered_carbon::js::JsVariant"*, %"class.altered_carbon::js::JsVariant"** %70, align 8, !dbg !4418
  %72 = getelementptr inbounds %"class.altered_carbon::js::JsVariant", %"class.altered_carbon::js::JsVariant"* %71, i32 0, i32 1, !dbg !4418
  %73 = load i32, i32* %72, align 8, !dbg !4418
  %74 = icmp eq i32 %73, 4, !dbg !4418
  br label %75, !dbg !4418

; <label>:75:                                     ; preds = %68, %61
  %76 = phi i1 [ true, %61 ], [ %74, %68 ]
  br label %87, !dbg !4418

; <label>:77:                                     ; preds = %55
  %78 = getelementptr inbounds %"class.altered_carbon::js::JsVariant", %"class.altered_carbon::js::JsVariant"* %4, i32 0, i32 1, !dbg !4418
  %79 = load i32, i32* %78, align 8, !dbg !4418
  %80 = icmp eq i32 %79, 3, !dbg !4418
  br i1 %80, label %85, label %81, !dbg !4418

; <label>:81:                                     ; preds = %77
  %82 = getelementptr inbounds %"class.altered_carbon::js::JsVariant", %"class.altered_carbon::js::JsVariant"* %4, i32 0, i32 1, !dbg !4418
  %83 = load i32, i32* %82, align 8, !dbg !4418
  %84 = icmp eq i32 %83, 4, !dbg !4418
  br label %85, !dbg !4418

; <label>:85:                                     ; preds = %81, %77
  %86 = phi i1 [ true, %77 ], [ %84, %81 ]
  br label %87, !dbg !4418

; <label>:87:                                     ; preds = %85, %75
  %88 = phi i1 [ %76, %75 ], [ %86, %85 ], !dbg !4418
  %89 = xor i1 %88, true, !dbg !4418
  br i1 %89, label %90, label %92, !dbg !4418

; <label>:90:                                     ; preds = %87
  call void @__assert_rtn(i8* getelementptr inbounds ([7 x i8], [7 x i8]* @__func__._ZN14altered_carbon2js9TestSuite6test06Ev, i32 0, i32 0), i8* getelementptr inbounds ([18 x i8], [18 x i8]* @.str, i32 0, i32 0), i32 162, i8* getelementptr inbounds ([14 x i8], [14 x i8]* @.str.16, i32 0, i32 0)) #7, !dbg !4418
  unreachable, !dbg !4418
                                                  ; No predecessors!
  br label %93, !dbg !4418

; <label>:92:                                     ; preds = %87
  br label %93, !dbg !4418

; <label>:93:                                     ; preds = %92, %91
  %94 = getelementptr inbounds %"class.altered_carbon::js::JsVariant", %"class.altered_carbon::js::JsVariant"* %4, i32 0, i32 1, !dbg !4419
  %95 = load i32, i32* %94, align 8, !dbg !4419
  %96 = icmp eq i32 %95, 7, !dbg !4419
  br i1 %96, label %97, label %104, !dbg !4419

; <label>:97:                                     ; preds = %93
  %98 = getelementptr inbounds %"class.altered_carbon::js::JsVariant", %"class.altered_carbon::js::JsVariant"* %4, i32 0, i32 2, !dbg !4419
  %99 = bitcast %union.anon* %98 to %"class.altered_carbon::js::JsVariant"**, !dbg !4419
  %100 = load %"class.altered_carbon::js::JsVariant"*, %"class.altered_carbon::js::JsVariant"** %99, align 8, !dbg !4419
  %101 = getelementptr inbounds %"class.altered_carbon::js::JsVariant", %"class.altered_carbon::js::JsVariant"* %100, i32 0, i32 1, !dbg !4419
  %102 = load i32, i32* %101, align 8, !dbg !4419
  %103 = icmp eq i32 %102, 3, !dbg !4419
  br label %108, !dbg !4419

; <label>:104:                                    ; preds = %93
  %105 = getelementptr inbounds %"class.altered_carbon::js::JsVariant", %"class.altered_carbon::js::JsVariant"* %4, i32 0, i32 1, !dbg !4419
  %106 = load i32, i32* %105, align 8, !dbg !4419
  %107 = icmp eq i32 %106, 3, !dbg !4419
  br label %108, !dbg !4419

; <label>:108:                                    ; preds = %104, %97
  %109 = phi i1 [ %103, %97 ], [ %107, %104 ], !dbg !4419
  %110 = xor i1 %109, true, !dbg !4419
  br i1 %110, label %111, label %113, !dbg !4419

; <label>:111:                                    ; preds = %108
  call void @__assert_rtn(i8* getelementptr inbounds ([7 x i8], [7 x i8]* @__func__._ZN14altered_carbon2js9TestSuite6test06Ev, i32 0, i32 0), i8* getelementptr inbounds ([18 x i8], [18 x i8]* @.str, i32 0, i32 0), i32 163, i8* getelementptr inbounds ([15 x i8], [15 x i8]* @.str.23, i32 0, i32 0)) #7, !dbg !4419
  unreachable, !dbg !4419
                                                  ; No predecessors!
  br label %114, !dbg !4419

; <label>:113:                                    ; preds = %108
  br label %114, !dbg !4419

; <label>:114:                                    ; preds = %113, %112
  %115 = call i64 @_ZNK14altered_carbon2js9JsVariant5int_vEv(%"class.altered_carbon::js::JsVariant"* %4), !dbg !4420
  %116 = icmp eq i64 %115, 1, !dbg !4420
  %117 = xor i1 %116, true, !dbg !4420
  br i1 %117, label %118, label %120, !dbg !4420

; <label>:118:                                    ; preds = %114
  call void @__assert_rtn(i8* getelementptr inbounds ([7 x i8], [7 x i8]* @__func__._ZN14altered_carbon2js9TestSuite6test06Ev, i32 0, i32 0), i8* getelementptr inbounds ([18 x i8], [18 x i8]* @.str, i32 0, i32 0), i32 164, i8* getelementptr inbounds ([15 x i8], [15 x i8]* @.str.24, i32 0, i32 0)) #7, !dbg !4420
  unreachable, !dbg !4420
                                                  ; No predecessors!
  br label %121, !dbg !4420

; <label>:120:                                    ; preds = %114
  br label %121, !dbg !4420

; <label>:121:                                    ; preds = %120, %119
  %122 = getelementptr inbounds %"class.altered_carbon::js::JsVariant", %"class.altered_carbon::js::JsVariant"* %6, i32 0, i32 1, !dbg !4421
  %123 = load i32, i32* %122, align 8, !dbg !4421
  %124 = icmp eq i32 %123, 7, !dbg !4421
  br i1 %124, label %125, label %141, !dbg !4421

; <label>:125:                                    ; preds = %121
  %126 = getelementptr inbounds %"class.altered_carbon::js::JsVariant", %"class.altered_carbon::js::JsVariant"* %6, i32 0, i32 2, !dbg !4421
  %127 = bitcast %union.anon* %126 to %"class.altered_carbon::js::JsVariant"**, !dbg !4421
  %128 = load %"class.altered_carbon::js::JsVariant"*, %"class.altered_carbon::js::JsVariant"** %127, align 8, !dbg !4421
  %129 = getelementptr inbounds %"class.altered_carbon::js::JsVariant", %"class.altered_carbon::js::JsVariant"* %128, i32 0, i32 1, !dbg !4421
  %130 = load i32, i32* %129, align 8, !dbg !4421
  %131 = icmp eq i32 %130, 3, !dbg !4421
  br i1 %131, label %139, label %132, !dbg !4421

; <label>:132:                                    ; preds = %125
  %133 = getelementptr inbounds %"class.altered_carbon::js::JsVariant", %"class.altered_carbon::js::JsVariant"* %6, i32 0, i32 2, !dbg !4421
  %134 = bitcast %union.anon* %133 to %"class.altered_carbon::js::JsVariant"**, !dbg !4421
  %135 = load %"class.altered_carbon::js::JsVariant"*, %"class.altered_carbon::js::JsVariant"** %134, align 8, !dbg !4421
  %136 = getelementptr inbounds %"class.altered_carbon::js::JsVariant", %"class.altered_carbon::js::JsVariant"* %135, i32 0, i32 1, !dbg !4421
  %137 = load i32, i32* %136, align 8, !dbg !4421
  %138 = icmp eq i32 %137, 4, !dbg !4421
  br label %139, !dbg !4421

; <label>:139:                                    ; preds = %132, %125
  %140 = phi i1 [ true, %125 ], [ %138, %132 ]
  br label %151, !dbg !4421

; <label>:141:                                    ; preds = %121
  %142 = getelementptr inbounds %"class.altered_carbon::js::JsVariant", %"class.altered_carbon::js::JsVariant"* %6, i32 0, i32 1, !dbg !4421
  %143 = load i32, i32* %142, align 8, !dbg !4421
  %144 = icmp eq i32 %143, 3, !dbg !4421
  br i1 %144, label %149, label %145, !dbg !4421

; <label>:145:                                    ; preds = %141
  %146 = getelementptr inbounds %"class.altered_carbon::js::JsVariant", %"class.altered_carbon::js::JsVariant"* %6, i32 0, i32 1, !dbg !4421
  %147 = load i32, i32* %146, align 8, !dbg !4421
  %148 = icmp eq i32 %147, 4, !dbg !4421
  br label %149, !dbg !4421

; <label>:149:                                    ; preds = %145, %141
  %150 = phi i1 [ true, %141 ], [ %148, %145 ]
  br label %151, !dbg !4421

; <label>:151:                                    ; preds = %149, %139
  %152 = phi i1 [ %140, %139 ], [ %150, %149 ], !dbg !4421
  %153 = xor i1 %152, true, !dbg !4421
  br i1 %153, label %154, label %156, !dbg !4421

; <label>:154:                                    ; preds = %151
  call void @__assert_rtn(i8* getelementptr inbounds ([7 x i8], [7 x i8]* @__func__._ZN14altered_carbon2js9TestSuite6test06Ev, i32 0, i32 0), i8* getelementptr inbounds ([18 x i8], [18 x i8]* @.str, i32 0, i32 0), i32 165, i8* getelementptr inbounds ([14 x i8], [14 x i8]* @.str.31, i32 0, i32 0)) #7, !dbg !4421
  unreachable, !dbg !4421
                                                  ; No predecessors!
  br label %157, !dbg !4421

; <label>:156:                                    ; preds = %151
  br label %157, !dbg !4421

; <label>:157:                                    ; preds = %156, %155
  %158 = getelementptr inbounds %"class.altered_carbon::js::JsVariant", %"class.altered_carbon::js::JsVariant"* %6, i32 0, i32 1, !dbg !4422
  %159 = load i32, i32* %158, align 8, !dbg !4422
  %160 = icmp eq i32 %159, 7, !dbg !4422
  br i1 %160, label %161, label %168, !dbg !4422

; <label>:161:                                    ; preds = %157
  %162 = getelementptr inbounds %"class.altered_carbon::js::JsVariant", %"class.altered_carbon::js::JsVariant"* %6, i32 0, i32 2, !dbg !4422
  %163 = bitcast %union.anon* %162 to %"class.altered_carbon::js::JsVariant"**, !dbg !4422
  %164 = load %"class.altered_carbon::js::JsVariant"*, %"class.altered_carbon::js::JsVariant"** %163, align 8, !dbg !4422
  %165 = getelementptr inbounds %"class.altered_carbon::js::JsVariant", %"class.altered_carbon::js::JsVariant"* %164, i32 0, i32 1, !dbg !4422
  %166 = load i32, i32* %165, align 8, !dbg !4422
  %167 = icmp eq i32 %166, 3, !dbg !4422
  br label %172, !dbg !4422

; <label>:168:                                    ; preds = %157
  %169 = getelementptr inbounds %"class.altered_carbon::js::JsVariant", %"class.altered_carbon::js::JsVariant"* %6, i32 0, i32 1, !dbg !4422
  %170 = load i32, i32* %169, align 8, !dbg !4422
  %171 = icmp eq i32 %170, 3, !dbg !4422
  br label %172, !dbg !4422

; <label>:172:                                    ; preds = %168, %161
  %173 = phi i1 [ %167, %161 ], [ %171, %168 ], !dbg !4422
  %174 = xor i1 %173, true, !dbg !4422
  br i1 %174, label %175, label %177, !dbg !4422

; <label>:175:                                    ; preds = %172
  call void @__assert_rtn(i8* getelementptr inbounds ([7 x i8], [7 x i8]* @__func__._ZN14altered_carbon2js9TestSuite6test06Ev, i32 0, i32 0), i8* getelementptr inbounds ([18 x i8], [18 x i8]* @.str, i32 0, i32 0), i32 166, i8* getelementptr inbounds ([15 x i8], [15 x i8]* @.str.32, i32 0, i32 0)) #7, !dbg !4422
  unreachable, !dbg !4422
                                                  ; No predecessors!
  br label %178, !dbg !4422

; <label>:177:                                    ; preds = %172
  br label %178, !dbg !4422

; <label>:178:                                    ; preds = %177, %176
  %179 = call i64 @_ZNK14altered_carbon2js9JsVariant5int_vEv(%"class.altered_carbon::js::JsVariant"* %6), !dbg !4423
  %180 = icmp eq i64 %179, 1, !dbg !4423
  %181 = xor i1 %180, true, !dbg !4423
  br i1 %181, label %182, label %184, !dbg !4423

; <label>:182:                                    ; preds = %178
  call void @__assert_rtn(i8* getelementptr inbounds ([7 x i8], [7 x i8]* @__func__._ZN14altered_carbon2js9TestSuite6test06Ev, i32 0, i32 0), i8* getelementptr inbounds ([18 x i8], [18 x i8]* @.str, i32 0, i32 0), i32 167, i8* getelementptr inbounds ([15 x i8], [15 x i8]* @.str.33, i32 0, i32 0)) #7, !dbg !4423
  unreachable, !dbg !4423
                                                  ; No predecessors!
  br label %185, !dbg !4423

; <label>:184:                                    ; preds = %178
  br label %185, !dbg !4423

; <label>:185:                                    ; preds = %184, %183
  %186 = call dereferenceable(56) %"class.altered_carbon::js::JsVariant"* @_ZNK14altered_carbon2js9JsVariant3ltsEPS1_RKS1_(%"class.altered_carbon::js::JsVariant"* %4, %"class.altered_carbon::js::JsVariant"* %6, %"class.altered_carbon::js::JsVariant"* dereferenceable(56) %5), !dbg !4424
  %187 = call dereferenceable(56) %"class.altered_carbon::js::JsVariant"* @_ZN14altered_carbon2js9JsVariantrSERKS1_(%"class.altered_carbon::js::JsVariant"* %4, %"class.altered_carbon::js::JsVariant"* dereferenceable(56) %5), !dbg !4425
  %188 = getelementptr inbounds %"class.altered_carbon::js::JsVariant", %"class.altered_carbon::js::JsVariant"* %4, i32 0, i32 1, !dbg !4426
  %189 = load i32, i32* %188, align 8, !dbg !4426
  %190 = icmp eq i32 %189, 7, !dbg !4426
  br i1 %190, label %191, label %207, !dbg !4426

; <label>:191:                                    ; preds = %185
  %192 = getelementptr inbounds %"class.altered_carbon::js::JsVariant", %"class.altered_carbon::js::JsVariant"* %4, i32 0, i32 2, !dbg !4426
  %193 = bitcast %union.anon* %192 to %"class.altered_carbon::js::JsVariant"**, !dbg !4426
  %194 = load %"class.altered_carbon::js::JsVariant"*, %"class.altered_carbon::js::JsVariant"** %193, align 8, !dbg !4426
  %195 = getelementptr inbounds %"class.altered_carbon::js::JsVariant", %"class.altered_carbon::js::JsVariant"* %194, i32 0, i32 1, !dbg !4426
  %196 = load i32, i32* %195, align 8, !dbg !4426
  %197 = icmp eq i32 %196, 3, !dbg !4426
  br i1 %197, label %205, label %198, !dbg !4426

; <label>:198:                                    ; preds = %191
  %199 = getelementptr inbounds %"class.altered_carbon::js::JsVariant", %"class.altered_carbon::js::JsVariant"* %4, i32 0, i32 2, !dbg !4426
  %200 = bitcast %union.anon* %199 to %"class.altered_carbon::js::JsVariant"**, !dbg !4426
  %201 = load %"class.altered_carbon::js::JsVariant"*, %"class.altered_carbon::js::JsVariant"** %200, align 8, !dbg !4426
  %202 = getelementptr inbounds %"class.altered_carbon::js::JsVariant", %"class.altered_carbon::js::JsVariant"* %201, i32 0, i32 1, !dbg !4426
  %203 = load i32, i32* %202, align 8, !dbg !4426
  %204 = icmp eq i32 %203, 4, !dbg !4426
  br label %205, !dbg !4426

; <label>:205:                                    ; preds = %198, %191
  %206 = phi i1 [ true, %191 ], [ %204, %198 ]
  br label %217, !dbg !4426

; <label>:207:                                    ; preds = %185
  %208 = getelementptr inbounds %"class.altered_carbon::js::JsVariant", %"class.altered_carbon::js::JsVariant"* %4, i32 0, i32 1, !dbg !4426
  %209 = load i32, i32* %208, align 8, !dbg !4426
  %210 = icmp eq i32 %209, 3, !dbg !4426
  br i1 %210, label %215, label %211, !dbg !4426

; <label>:211:                                    ; preds = %207
  %212 = getelementptr inbounds %"class.altered_carbon::js::JsVariant", %"class.altered_carbon::js::JsVariant"* %4, i32 0, i32 1, !dbg !4426
  %213 = load i32, i32* %212, align 8, !dbg !4426
  %214 = icmp eq i32 %213, 4, !dbg !4426
  br label %215, !dbg !4426

; <label>:215:                                    ; preds = %211, %207
  %216 = phi i1 [ true, %207 ], [ %214, %211 ]
  br label %217, !dbg !4426

; <label>:217:                                    ; preds = %215, %205
  %218 = phi i1 [ %206, %205 ], [ %216, %215 ], !dbg !4426
  %219 = xor i1 %218, true, !dbg !4426
  br i1 %219, label %220, label %222, !dbg !4426

; <label>:220:                                    ; preds = %217
  call void @__assert_rtn(i8* getelementptr inbounds ([7 x i8], [7 x i8]* @__func__._ZN14altered_carbon2js9TestSuite6test06Ev, i32 0, i32 0), i8* getelementptr inbounds ([18 x i8], [18 x i8]* @.str, i32 0, i32 0), i32 170, i8* getelementptr inbounds ([14 x i8], [14 x i8]* @.str.16, i32 0, i32 0)) #7, !dbg !4426
  unreachable, !dbg !4426
                                                  ; No predecessors!
  br label %223, !dbg !4426

; <label>:222:                                    ; preds = %217
  br label %223, !dbg !4426

; <label>:223:                                    ; preds = %222, %221
  %224 = getelementptr inbounds %"class.altered_carbon::js::JsVariant", %"class.altered_carbon::js::JsVariant"* %4, i32 0, i32 1, !dbg !4427
  %225 = load i32, i32* %224, align 8, !dbg !4427
  %226 = icmp eq i32 %225, 7, !dbg !4427
  br i1 %226, label %227, label %234, !dbg !4427

; <label>:227:                                    ; preds = %223
  %228 = getelementptr inbounds %"class.altered_carbon::js::JsVariant", %"class.altered_carbon::js::JsVariant"* %4, i32 0, i32 2, !dbg !4427
  %229 = bitcast %union.anon* %228 to %"class.altered_carbon::js::JsVariant"**, !dbg !4427
  %230 = load %"class.altered_carbon::js::JsVariant"*, %"class.altered_carbon::js::JsVariant"** %229, align 8, !dbg !4427
  %231 = getelementptr inbounds %"class.altered_carbon::js::JsVariant", %"class.altered_carbon::js::JsVariant"* %230, i32 0, i32 1, !dbg !4427
  %232 = load i32, i32* %231, align 8, !dbg !4427
  %233 = icmp eq i32 %232, 3, !dbg !4427
  br label %238, !dbg !4427

; <label>:234:                                    ; preds = %223
  %235 = getelementptr inbounds %"class.altered_carbon::js::JsVariant", %"class.altered_carbon::js::JsVariant"* %4, i32 0, i32 1, !dbg !4427
  %236 = load i32, i32* %235, align 8, !dbg !4427
  %237 = icmp eq i32 %236, 3, !dbg !4427
  br label %238, !dbg !4427

; <label>:238:                                    ; preds = %234, %227
  %239 = phi i1 [ %233, %227 ], [ %237, %234 ], !dbg !4427
  %240 = xor i1 %239, true, !dbg !4427
  br i1 %240, label %241, label %243, !dbg !4427

; <label>:241:                                    ; preds = %238
  call void @__assert_rtn(i8* getelementptr inbounds ([7 x i8], [7 x i8]* @__func__._ZN14altered_carbon2js9TestSuite6test06Ev, i32 0, i32 0), i8* getelementptr inbounds ([18 x i8], [18 x i8]* @.str, i32 0, i32 0), i32 171, i8* getelementptr inbounds ([15 x i8], [15 x i8]* @.str.23, i32 0, i32 0)) #7, !dbg !4427
  unreachable, !dbg !4427
                                                  ; No predecessors!
  br label %244, !dbg !4427

; <label>:243:                                    ; preds = %238
  br label %244, !dbg !4427

; <label>:244:                                    ; preds = %243, %242
  %245 = call i64 @_ZNK14altered_carbon2js9JsVariant5int_vEv(%"class.altered_carbon::js::JsVariant"* %4), !dbg !4428
  %246 = icmp eq i64 %245, 0, !dbg !4428
  %247 = xor i1 %246, true, !dbg !4428
  br i1 %247, label %248, label %250, !dbg !4428

; <label>:248:                                    ; preds = %244
  call void @__assert_rtn(i8* getelementptr inbounds ([7 x i8], [7 x i8]* @__func__._ZN14altered_carbon2js9TestSuite6test06Ev, i32 0, i32 0), i8* getelementptr inbounds ([18 x i8], [18 x i8]* @.str, i32 0, i32 0), i32 172, i8* getelementptr inbounds ([15 x i8], [15 x i8]* @.str.34, i32 0, i32 0)) #7, !dbg !4428
  unreachable, !dbg !4428
                                                  ; No predecessors!
  br label %251, !dbg !4428

; <label>:250:                                    ; preds = %244
  br label %251, !dbg !4428

; <label>:251:                                    ; preds = %250, %249
  %252 = getelementptr inbounds %"class.altered_carbon::js::JsVariant", %"class.altered_carbon::js::JsVariant"* %6, i32 0, i32 1, !dbg !4429
  %253 = load i32, i32* %252, align 8, !dbg !4429
  %254 = icmp eq i32 %253, 7, !dbg !4429
  br i1 %254, label %255, label %271, !dbg !4429

; <label>:255:                                    ; preds = %251
  %256 = getelementptr inbounds %"class.altered_carbon::js::JsVariant", %"class.altered_carbon::js::JsVariant"* %6, i32 0, i32 2, !dbg !4429
  %257 = bitcast %union.anon* %256 to %"class.altered_carbon::js::JsVariant"**, !dbg !4429
  %258 = load %"class.altered_carbon::js::JsVariant"*, %"class.altered_carbon::js::JsVariant"** %257, align 8, !dbg !4429
  %259 = getelementptr inbounds %"class.altered_carbon::js::JsVariant", %"class.altered_carbon::js::JsVariant"* %258, i32 0, i32 1, !dbg !4429
  %260 = load i32, i32* %259, align 8, !dbg !4429
  %261 = icmp eq i32 %260, 3, !dbg !4429
  br i1 %261, label %269, label %262, !dbg !4429

; <label>:262:                                    ; preds = %255
  %263 = getelementptr inbounds %"class.altered_carbon::js::JsVariant", %"class.altered_carbon::js::JsVariant"* %6, i32 0, i32 2, !dbg !4429
  %264 = bitcast %union.anon* %263 to %"class.altered_carbon::js::JsVariant"**, !dbg !4429
  %265 = load %"class.altered_carbon::js::JsVariant"*, %"class.altered_carbon::js::JsVariant"** %264, align 8, !dbg !4429
  %266 = getelementptr inbounds %"class.altered_carbon::js::JsVariant", %"class.altered_carbon::js::JsVariant"* %265, i32 0, i32 1, !dbg !4429
  %267 = load i32, i32* %266, align 8, !dbg !4429
  %268 = icmp eq i32 %267, 4, !dbg !4429
  br label %269, !dbg !4429

; <label>:269:                                    ; preds = %262, %255
  %270 = phi i1 [ true, %255 ], [ %268, %262 ]
  br label %281, !dbg !4429

; <label>:271:                                    ; preds = %251
  %272 = getelementptr inbounds %"class.altered_carbon::js::JsVariant", %"class.altered_carbon::js::JsVariant"* %6, i32 0, i32 1, !dbg !4429
  %273 = load i32, i32* %272, align 8, !dbg !4429
  %274 = icmp eq i32 %273, 3, !dbg !4429
  br i1 %274, label %279, label %275, !dbg !4429

; <label>:275:                                    ; preds = %271
  %276 = getelementptr inbounds %"class.altered_carbon::js::JsVariant", %"class.altered_carbon::js::JsVariant"* %6, i32 0, i32 1, !dbg !4429
  %277 = load i32, i32* %276, align 8, !dbg !4429
  %278 = icmp eq i32 %277, 4, !dbg !4429
  br label %279, !dbg !4429

; <label>:279:                                    ; preds = %275, %271
  %280 = phi i1 [ true, %271 ], [ %278, %275 ]
  br label %281, !dbg !4429

; <label>:281:                                    ; preds = %279, %269
  %282 = phi i1 [ %270, %269 ], [ %280, %279 ], !dbg !4429
  %283 = xor i1 %282, true, !dbg !4429
  br i1 %283, label %284, label %286, !dbg !4429

; <label>:284:                                    ; preds = %281
  call void @__assert_rtn(i8* getelementptr inbounds ([7 x i8], [7 x i8]* @__func__._ZN14altered_carbon2js9TestSuite6test06Ev, i32 0, i32 0), i8* getelementptr inbounds ([18 x i8], [18 x i8]* @.str, i32 0, i32 0), i32 173, i8* getelementptr inbounds ([14 x i8], [14 x i8]* @.str.31, i32 0, i32 0)) #7, !dbg !4429
  unreachable, !dbg !4429
                                                  ; No predecessors!
  br label %287, !dbg !4429

; <label>:286:                                    ; preds = %281
  br label %287, !dbg !4429

; <label>:287:                                    ; preds = %286, %285
  %288 = getelementptr inbounds %"class.altered_carbon::js::JsVariant", %"class.altered_carbon::js::JsVariant"* %6, i32 0, i32 1, !dbg !4430
  %289 = load i32, i32* %288, align 8, !dbg !4430
  %290 = icmp eq i32 %289, 7, !dbg !4430
  br i1 %290, label %291, label %298, !dbg !4430

; <label>:291:                                    ; preds = %287
  %292 = getelementptr inbounds %"class.altered_carbon::js::JsVariant", %"class.altered_carbon::js::JsVariant"* %6, i32 0, i32 2, !dbg !4430
  %293 = bitcast %union.anon* %292 to %"class.altered_carbon::js::JsVariant"**, !dbg !4430
  %294 = load %"class.altered_carbon::js::JsVariant"*, %"class.altered_carbon::js::JsVariant"** %293, align 8, !dbg !4430
  %295 = getelementptr inbounds %"class.altered_carbon::js::JsVariant", %"class.altered_carbon::js::JsVariant"* %294, i32 0, i32 1, !dbg !4430
  %296 = load i32, i32* %295, align 8, !dbg !4430
  %297 = icmp eq i32 %296, 3, !dbg !4430
  br label %302, !dbg !4430

; <label>:298:                                    ; preds = %287
  %299 = getelementptr inbounds %"class.altered_carbon::js::JsVariant", %"class.altered_carbon::js::JsVariant"* %6, i32 0, i32 1, !dbg !4430
  %300 = load i32, i32* %299, align 8, !dbg !4430
  %301 = icmp eq i32 %300, 3, !dbg !4430
  br label %302, !dbg !4430

; <label>:302:                                    ; preds = %298, %291
  %303 = phi i1 [ %297, %291 ], [ %301, %298 ], !dbg !4430
  %304 = xor i1 %303, true, !dbg !4430
  br i1 %304, label %305, label %307, !dbg !4430

; <label>:305:                                    ; preds = %302
  call void @__assert_rtn(i8* getelementptr inbounds ([7 x i8], [7 x i8]* @__func__._ZN14altered_carbon2js9TestSuite6test06Ev, i32 0, i32 0), i8* getelementptr inbounds ([18 x i8], [18 x i8]* @.str, i32 0, i32 0), i32 174, i8* getelementptr inbounds ([15 x i8], [15 x i8]* @.str.32, i32 0, i32 0)) #7, !dbg !4430
  unreachable, !dbg !4430
                                                  ; No predecessors!
  br label %308, !dbg !4430

; <label>:307:                                    ; preds = %302
  br label %308, !dbg !4430

; <label>:308:                                    ; preds = %307, %306
  %309 = call i64 @_ZNK14altered_carbon2js9JsVariant5int_vEv(%"class.altered_carbon::js::JsVariant"* %6), !dbg !4431
  %310 = icmp eq i64 %309, 2, !dbg !4431
  %311 = xor i1 %310, true, !dbg !4431
  br i1 %311, label %312, label %314, !dbg !4431

; <label>:312:                                    ; preds = %308
  call void @__assert_rtn(i8* getelementptr inbounds ([7 x i8], [7 x i8]* @__func__._ZN14altered_carbon2js9TestSuite6test06Ev, i32 0, i32 0), i8* getelementptr inbounds ([18 x i8], [18 x i8]* @.str, i32 0, i32 0), i32 175, i8* getelementptr inbounds ([15 x i8], [15 x i8]* @.str.35, i32 0, i32 0)) #7, !dbg !4431
  unreachable, !dbg !4431
                                                  ; No predecessors!
  br label %315, !dbg !4431

; <label>:314:                                    ; preds = %308
  br label %315, !dbg !4431

; <label>:315:                                    ; preds = %314, %313
  call void @_ZN14altered_carbon2js9JsVariantD1Ev(%"class.altered_carbon::js::JsVariant"* %6) #8, !dbg !4432
  call void @_ZN14altered_carbon2js9JsVariantD1Ev(%"class.altered_carbon::js::JsVariant"* %5) #8, !dbg !4432
  call void @_ZN14altered_carbon2js9JsVariantD1Ev(%"class.altered_carbon::js::JsVariant"* %4) #8, !dbg !4432
  call void @_ZN14altered_carbon2js9JsVariantD1Ev(%"class.altered_carbon::js::JsVariant"* %3) #8, !dbg !4432
  ret void, !dbg !4432
}

declare void @_ZN14altered_carbon2js9JsVariantC1ERKS1_(%"class.altered_carbon::js::JsVariant"*, %"class.altered_carbon::js::JsVariant"* dereferenceable(56)) unnamed_addr #2

declare void @_ZN14altered_carbon2js9JsVariantC1Ex(%"class.altered_carbon::js::JsVariant"*, i64) unnamed_addr #2

declare dereferenceable(56) %"class.altered_carbon::js::JsVariant"* @_ZNK14altered_carbon2js9JsVariant3bwxEPS1_RKS1_(%"class.altered_carbon::js::JsVariant"*, %"class.altered_carbon::js::JsVariant"*, %"class.altered_carbon::js::JsVariant"* dereferenceable(56)) #2

declare dereferenceable(56) %"class.altered_carbon::js::JsVariant"* @_ZNK14altered_carbon2js9JsVariant3ltsEPS1_RKS1_(%"class.altered_carbon::js::JsVariant"*, %"class.altered_carbon::js::JsVariant"*, %"class.altered_carbon::js::JsVariant"* dereferenceable(56)) #2

declare dereferenceable(56) %"class.altered_carbon::js::JsVariant"* @_ZN14altered_carbon2js9JsVariantrSERKS1_(%"class.altered_carbon::js::JsVariant"*, %"class.altered_carbon::js::JsVariant"* dereferenceable(56)) #2

; Function Attrs: noinline nounwind optnone ssp uwtable
define void @_ZN14altered_carbon2js9TestSuite6test07Ev(%"class.altered_carbon::js::TestSuite"*) #0 align 2 !dbg !4433 {
  %2 = alloca %"class.altered_carbon::js::TestSuite"*, align 8
  %3 = alloca %"class.altered_carbon::js::JsVariant", align 8
  %4 = alloca %"class.altered_carbon::js::JsVariant", align 8
  %5 = alloca %"class.altered_carbon::js::JsVariant", align 8
  %6 = alloca %"class.altered_carbon::js::JsVariant", align 8
  %7 = alloca %"class.altered_carbon::js::JsVariant", align 8
  %8 = alloca %"class.altered_carbon::js::JsVariant", align 8
  store %"class.altered_carbon::js::TestSuite"* %0, %"class.altered_carbon::js::TestSuite"** %2, align 8
  call void @llvm.dbg.declare(metadata %"class.altered_carbon::js::TestSuite"** %2, metadata !4434, metadata !DIExpression()), !dbg !4435
  %9 = load %"class.altered_carbon::js::TestSuite"*, %"class.altered_carbon::js::TestSuite"** %2, align 8
  call void @llvm.dbg.declare(metadata %"class.altered_carbon::js::JsVariant"* %3, metadata !4436, metadata !DIExpression()), !dbg !4437
  call void @_ZN14altered_carbon2js9JsVariantC1Eb(%"class.altered_carbon::js::JsVariant"* %3, i1 zeroext true), !dbg !4438
  call void @llvm.dbg.declare(metadata %"class.altered_carbon::js::JsVariant"* %4, metadata !4439, metadata !DIExpression()), !dbg !4440
  call void @_ZN14altered_carbon2js9JsVariantC1Eb(%"class.altered_carbon::js::JsVariant"* %4, i1 zeroext false), !dbg !4441
  call void @llvm.dbg.declare(metadata %"class.altered_carbon::js::JsVariant"* %5, metadata !4442, metadata !DIExpression()), !dbg !4443
  call void @_ZN14altered_carbon2js9JsVariantC1ENS1_13JsVariantTypeE(%"class.altered_carbon::js::JsVariant"* %5, i32 1), !dbg !4443
  %10 = call zeroext i1 @_ZNK14altered_carbon2js9JsVariantneERKS1_(%"class.altered_carbon::js::JsVariant"* %3, %"class.altered_carbon::js::JsVariant"* dereferenceable(56) %4), !dbg !4444
  %11 = xor i1 %10, true, !dbg !4444
  br i1 %11, label %12, label %14, !dbg !4444

; <label>:12:                                     ; preds = %1
  call void @__assert_rtn(i8* getelementptr inbounds ([7 x i8], [7 x i8]* @__func__._ZN14altered_carbon2js9TestSuite6test07Ev, i32 0, i32 0), i8* getelementptr inbounds ([18 x i8], [18 x i8]* @.str, i32 0, i32 0), i32 182, i8* getelementptr inbounds ([7 x i8], [7 x i8]* @.str.36, i32 0, i32 0)) #7, !dbg !4444
  unreachable, !dbg !4444
                                                  ; No predecessors!
  br label %15, !dbg !4444

; <label>:14:                                     ; preds = %1
  br label %15, !dbg !4444

; <label>:15:                                     ; preds = %14, %13
  %16 = call dereferenceable(56) %"class.altered_carbon::js::JsVariant"* @_ZNK14altered_carbon2js9JsVariant7valueOfEPS1_i(%"class.altered_carbon::js::JsVariant"* %3, %"class.altered_carbon::js::JsVariant"* %5, i32 2), !dbg !4445
  call void @_ZN14altered_carbon2js9JsVariantC1Ei(%"class.altered_carbon::js::JsVariant"* %6, i32 1), !dbg !4445
  %17 = call zeroext i1 @_ZNK14altered_carbon2js9JsVarianteqERKS1_(%"class.altered_carbon::js::JsVariant"* %16, %"class.altered_carbon::js::JsVariant"* dereferenceable(56) %6), !dbg !4445
  %18 = xor i1 %17, true, !dbg !4445
  br i1 %18, label %19, label %21, !dbg !4445

; <label>:19:                                     ; preds = %15
  call void @__assert_rtn(i8* getelementptr inbounds ([7 x i8], [7 x i8]* @__func__._ZN14altered_carbon2js9TestSuite6test07Ev, i32 0, i32 0), i8* getelementptr inbounds ([18 x i8], [18 x i8]* @.str, i32 0, i32 0), i32 183, i8* getelementptr inbounds ([58 x i8], [58 x i8]* @.str.37, i32 0, i32 0)) #7, !dbg !4445
  unreachable, !dbg !4445
                                                  ; No predecessors!
  br label %22, !dbg !4445

; <label>:21:                                     ; preds = %15
  br label %22, !dbg !4445

; <label>:22:                                     ; preds = %21, %20
  call void @_ZN14altered_carbon2js9JsVariantD1Ev(%"class.altered_carbon::js::JsVariant"* %6) #8, !dbg !4445
  %23 = call dereferenceable(56) %"class.altered_carbon::js::JsVariant"* @_ZNK14altered_carbon2js9JsVariant7valueOfEPS1_i(%"class.altered_carbon::js::JsVariant"* %4, %"class.altered_carbon::js::JsVariant"* %5, i32 2), !dbg !4446
  call void @_ZN14altered_carbon2js9JsVariantC1Ei(%"class.altered_carbon::js::JsVariant"* %7, i32 0), !dbg !4446
  %24 = call zeroext i1 @_ZNK14altered_carbon2js9JsVarianteqERKS1_(%"class.altered_carbon::js::JsVariant"* %23, %"class.altered_carbon::js::JsVariant"* dereferenceable(56) %7), !dbg !4446
  %25 = xor i1 %24, true, !dbg !4446
  br i1 %25, label %26, label %28, !dbg !4446

; <label>:26:                                     ; preds = %22
  call void @__assert_rtn(i8* getelementptr inbounds ([7 x i8], [7 x i8]* @__func__._ZN14altered_carbon2js9TestSuite6test07Ev, i32 0, i32 0), i8* getelementptr inbounds ([18 x i8], [18 x i8]* @.str, i32 0, i32 0), i32 184, i8* getelementptr inbounds ([58 x i8], [58 x i8]* @.str.38, i32 0, i32 0)) #7, !dbg !4446
  unreachable, !dbg !4446
                                                  ; No predecessors!
  br label %29, !dbg !4446

; <label>:28:                                     ; preds = %22
  br label %29, !dbg !4446

; <label>:29:                                     ; preds = %28, %27
  call void @_ZN14altered_carbon2js9JsVariantD1Ev(%"class.altered_carbon::js::JsVariant"* %7) #8, !dbg !4446
  %30 = call dereferenceable(56) %"class.altered_carbon::js::JsVariant"* @_ZNK14altered_carbon2js9JsVariant7valueOfEPS1_i(%"class.altered_carbon::js::JsVariant"* %4, %"class.altered_carbon::js::JsVariant"* %5, i32 2), !dbg !4447
  call void @_ZN14altered_carbon2js9JsVariantC1Ei(%"class.altered_carbon::js::JsVariant"* %8, i32 0), !dbg !4447
  %31 = call zeroext i1 @_ZNK14altered_carbon2js9JsVarianteqERKS1_(%"class.altered_carbon::js::JsVariant"* %30, %"class.altered_carbon::js::JsVariant"* dereferenceable(56) %8), !dbg !4447
  %32 = xor i1 %31, true, !dbg !4447
  br i1 %32, label %33, label %35, !dbg !4447

; <label>:33:                                     ; preds = %29
  call void @__assert_rtn(i8* getelementptr inbounds ([7 x i8], [7 x i8]* @__func__._ZN14altered_carbon2js9TestSuite6test07Ev, i32 0, i32 0), i8* getelementptr inbounds ([18 x i8], [18 x i8]* @.str, i32 0, i32 0), i32 185, i8* getelementptr inbounds ([59 x i8], [59 x i8]* @.str.39, i32 0, i32 0)) #7, !dbg !4447
  unreachable, !dbg !4447
                                                  ; No predecessors!
  br label %36, !dbg !4447

; <label>:35:                                     ; preds = %29
  br label %36, !dbg !4447

; <label>:36:                                     ; preds = %35, %34
  call void @_ZN14altered_carbon2js9JsVariantD1Ev(%"class.altered_carbon::js::JsVariant"* %8) #8, !dbg !4447
  %37 = getelementptr inbounds %"class.altered_carbon::js::JsVariant", %"class.altered_carbon::js::JsVariant"* %3, i32 0, i32 1, !dbg !4448
  %38 = load i32, i32* %37, align 8, !dbg !4448
  %39 = icmp eq i32 %38, 7, !dbg !4448
  br i1 %39, label %40, label %47, !dbg !4448

; <label>:40:                                     ; preds = %36
  %41 = getelementptr inbounds %"class.altered_carbon::js::JsVariant", %"class.altered_carbon::js::JsVariant"* %3, i32 0, i32 2, !dbg !4448
  %42 = bitcast %union.anon* %41 to %"class.altered_carbon::js::JsVariant"**, !dbg !4448
  %43 = load %"class.altered_carbon::js::JsVariant"*, %"class.altered_carbon::js::JsVariant"** %42, align 8, !dbg !4448
  %44 = getelementptr inbounds %"class.altered_carbon::js::JsVariant", %"class.altered_carbon::js::JsVariant"* %43, i32 0, i32 1, !dbg !4448
  %45 = load i32, i32* %44, align 8, !dbg !4448
  %46 = icmp eq i32 %45, 6, !dbg !4448
  br label %51, !dbg !4448

; <label>:47:                                     ; preds = %36
  %48 = getelementptr inbounds %"class.altered_carbon::js::JsVariant", %"class.altered_carbon::js::JsVariant"* %3, i32 0, i32 1, !dbg !4448
  %49 = load i32, i32* %48, align 8, !dbg !4448
  %50 = icmp eq i32 %49, 6, !dbg !4448
  br label %51, !dbg !4448

; <label>:51:                                     ; preds = %47, %40
  %52 = phi i1 [ %46, %40 ], [ %50, %47 ], !dbg !4448
  %53 = xor i1 %52, true, !dbg !4448
  br i1 %53, label %54, label %56, !dbg !4448

; <label>:54:                                     ; preds = %51
  call void @__assert_rtn(i8* getelementptr inbounds ([7 x i8], [7 x i8]* @__func__._ZN14altered_carbon2js9TestSuite6test07Ev, i32 0, i32 0), i8* getelementptr inbounds ([18 x i8], [18 x i8]* @.str, i32 0, i32 0), i32 186, i8* getelementptr inbounds ([15 x i8], [15 x i8]* @.str.40, i32 0, i32 0)) #7, !dbg !4448
  unreachable, !dbg !4448
                                                  ; No predecessors!
  br label %57, !dbg !4448

; <label>:56:                                     ; preds = %51
  br label %57, !dbg !4448

; <label>:57:                                     ; preds = %56, %55
  %58 = call zeroext i1 @_ZNK14altered_carbon2js9JsVariant5bln_vEv(%"class.altered_carbon::js::JsVariant"* %3), !dbg !4449
  %59 = xor i1 %58, true, !dbg !4449
  br i1 %59, label %60, label %62, !dbg !4449

; <label>:60:                                     ; preds = %57
  call void @__assert_rtn(i8* getelementptr inbounds ([7 x i8], [7 x i8]* @__func__._ZN14altered_carbon2js9TestSuite6test07Ev, i32 0, i32 0), i8* getelementptr inbounds ([18 x i8], [18 x i8]* @.str, i32 0, i32 0), i32 187, i8* getelementptr inbounds ([10 x i8], [10 x i8]* @.str.41, i32 0, i32 0)) #7, !dbg !4449
  unreachable, !dbg !4449
                                                  ; No predecessors!
  br label %63, !dbg !4449

; <label>:62:                                     ; preds = %57
  br label %63, !dbg !4449

; <label>:63:                                     ; preds = %62, %61
  %64 = getelementptr inbounds %"class.altered_carbon::js::JsVariant", %"class.altered_carbon::js::JsVariant"* %4, i32 0, i32 1, !dbg !4450
  %65 = load i32, i32* %64, align 8, !dbg !4450
  %66 = icmp eq i32 %65, 7, !dbg !4450
  br i1 %66, label %67, label %74, !dbg !4450

; <label>:67:                                     ; preds = %63
  %68 = getelementptr inbounds %"class.altered_carbon::js::JsVariant", %"class.altered_carbon::js::JsVariant"* %4, i32 0, i32 2, !dbg !4450
  %69 = bitcast %union.anon* %68 to %"class.altered_carbon::js::JsVariant"**, !dbg !4450
  %70 = load %"class.altered_carbon::js::JsVariant"*, %"class.altered_carbon::js::JsVariant"** %69, align 8, !dbg !4450
  %71 = getelementptr inbounds %"class.altered_carbon::js::JsVariant", %"class.altered_carbon::js::JsVariant"* %70, i32 0, i32 1, !dbg !4450
  %72 = load i32, i32* %71, align 8, !dbg !4450
  %73 = icmp eq i32 %72, 6, !dbg !4450
  br label %78, !dbg !4450

; <label>:74:                                     ; preds = %63
  %75 = getelementptr inbounds %"class.altered_carbon::js::JsVariant", %"class.altered_carbon::js::JsVariant"* %4, i32 0, i32 1, !dbg !4450
  %76 = load i32, i32* %75, align 8, !dbg !4450
  %77 = icmp eq i32 %76, 6, !dbg !4450
  br label %78, !dbg !4450

; <label>:78:                                     ; preds = %74, %67
  %79 = phi i1 [ %73, %67 ], [ %77, %74 ], !dbg !4450
  %80 = xor i1 %79, true, !dbg !4450
  br i1 %80, label %81, label %83, !dbg !4450

; <label>:81:                                     ; preds = %78
  call void @__assert_rtn(i8* getelementptr inbounds ([7 x i8], [7 x i8]* @__func__._ZN14altered_carbon2js9TestSuite6test07Ev, i32 0, i32 0), i8* getelementptr inbounds ([18 x i8], [18 x i8]* @.str, i32 0, i32 0), i32 188, i8* getelementptr inbounds ([15 x i8], [15 x i8]* @.str.42, i32 0, i32 0)) #7, !dbg !4450
  unreachable, !dbg !4450
                                                  ; No predecessors!
  br label %84, !dbg !4450

; <label>:83:                                     ; preds = %78
  br label %84, !dbg !4450

; <label>:84:                                     ; preds = %83, %82
  %85 = call zeroext i1 @_ZNK14altered_carbon2js9JsVariant5bln_vEv(%"class.altered_carbon::js::JsVariant"* %4), !dbg !4451
  %86 = xor i1 %85, true, !dbg !4451
  %87 = xor i1 %86, true, !dbg !4451
  br i1 %87, label %88, label %90, !dbg !4451

; <label>:88:                                     ; preds = %84
  call void @__assert_rtn(i8* getelementptr inbounds ([7 x i8], [7 x i8]* @__func__._ZN14altered_carbon2js9TestSuite6test07Ev, i32 0, i32 0), i8* getelementptr inbounds ([18 x i8], [18 x i8]* @.str, i32 0, i32 0), i32 189, i8* getelementptr inbounds ([11 x i8], [11 x i8]* @.str.43, i32 0, i32 0)) #7, !dbg !4451
  unreachable, !dbg !4451
                                                  ; No predecessors!
  br label %91, !dbg !4451

; <label>:90:                                     ; preds = %84
  br label %91, !dbg !4451

; <label>:91:                                     ; preds = %90, %89
  call void @_ZN14altered_carbon2js9JsVariantD1Ev(%"class.altered_carbon::js::JsVariant"* %5) #8, !dbg !4452
  call void @_ZN14altered_carbon2js9JsVariantD1Ev(%"class.altered_carbon::js::JsVariant"* %4) #8, !dbg !4452
  call void @_ZN14altered_carbon2js9JsVariantD1Ev(%"class.altered_carbon::js::JsVariant"* %3) #8, !dbg !4452
  ret void, !dbg !4452
}

declare zeroext i1 @_ZNK14altered_carbon2js9JsVariantneERKS1_(%"class.altered_carbon::js::JsVariant"*, %"class.altered_carbon::js::JsVariant"* dereferenceable(56)) #2

declare zeroext i1 @_ZNK14altered_carbon2js9JsVarianteqERKS1_(%"class.altered_carbon::js::JsVariant"*, %"class.altered_carbon::js::JsVariant"* dereferenceable(56)) #2

; Function Attrs: noinline nounwind optnone ssp uwtable
define linkonce_odr hidden zeroext i1 @_ZNK14altered_carbon2js9JsVariant5bln_vEv(%"class.altered_carbon::js::JsVariant"*) #0 align 2 !dbg !4453 {
  %2 = alloca %"class.altered_carbon::js::JsVariant"*, align 8
  store %"class.altered_carbon::js::JsVariant"* %0, %"class.altered_carbon::js::JsVariant"** %2, align 8
  call void @llvm.dbg.declare(metadata %"class.altered_carbon::js::JsVariant"** %2, metadata !4454, metadata !DIExpression()), !dbg !4455
  %3 = load %"class.altered_carbon::js::JsVariant"*, %"class.altered_carbon::js::JsVariant"** %2, align 8
  %4 = getelementptr inbounds %"class.altered_carbon::js::JsVariant", %"class.altered_carbon::js::JsVariant"* %3, i32 0, i32 2, !dbg !4456
  %5 = bitcast %union.anon* %4 to i8*, !dbg !4456
  %6 = load i8, i8* %5, align 8, !dbg !4456
  %7 = trunc i8 %6 to i1, !dbg !4456
  ret i1 %7, !dbg !4457
}

; Function Attrs: noinline nounwind optnone ssp uwtable
define void @_ZN14altered_carbon2js9TestSuite6test08Ev(%"class.altered_carbon::js::TestSuite"*) #0 align 2 !dbg !4458 {
  %2 = alloca %"class.altered_carbon::js::TestSuite"*, align 8
  %3 = alloca %"class.altered_carbon::js::JsVariant", align 8
  %4 = alloca %"class.altered_carbon::js::JsVariant", align 8
  %5 = alloca %"class.altered_carbon::js::JsVariant", align 8
  %6 = alloca %"class.altered_carbon::js::JsVariant", align 8
  %7 = alloca %"class.altered_carbon::js::JsVariant", align 8
  %8 = alloca %"class.altered_carbon::js::JsVariant", align 8
  store %"class.altered_carbon::js::TestSuite"* %0, %"class.altered_carbon::js::TestSuite"** %2, align 8
  call void @llvm.dbg.declare(metadata %"class.altered_carbon::js::TestSuite"** %2, metadata !4459, metadata !DIExpression()), !dbg !4460
  %9 = load %"class.altered_carbon::js::TestSuite"*, %"class.altered_carbon::js::TestSuite"** %2, align 8
  call void @llvm.dbg.declare(metadata %"class.altered_carbon::js::JsVariant"* %3, metadata !4461, metadata !DIExpression()), !dbg !4462
  call void @_ZN14altered_carbon2js9JsVariantC1EPKw(%"class.altered_carbon::js::JsVariant"* %3, i32* getelementptr inbounds ([6 x i32], [6 x i32]* @.str.44, i32 0, i32 0)), !dbg !4463
  call void @llvm.dbg.declare(metadata %"class.altered_carbon::js::JsVariant"* %4, metadata !4464, metadata !DIExpression()), !dbg !4465
  call void @_ZN14altered_carbon2js9JsVariantC1EPKw(%"class.altered_carbon::js::JsVariant"* %4, i32* getelementptr inbounds ([6 x i32], [6 x i32]* @.str.45, i32 0, i32 0)), !dbg !4466
  %10 = getelementptr inbounds %"class.altered_carbon::js::JsVariant", %"class.altered_carbon::js::JsVariant"* %3, i32 0, i32 1, !dbg !4467
  %11 = load i32, i32* %10, align 8, !dbg !4467
  %12 = icmp eq i32 %11, 7, !dbg !4467
  br i1 %12, label %13, label %20, !dbg !4467

; <label>:13:                                     ; preds = %1
  %14 = getelementptr inbounds %"class.altered_carbon::js::JsVariant", %"class.altered_carbon::js::JsVariant"* %3, i32 0, i32 2, !dbg !4467
  %15 = bitcast %union.anon* %14 to %"class.altered_carbon::js::JsVariant"**, !dbg !4467
  %16 = load %"class.altered_carbon::js::JsVariant"*, %"class.altered_carbon::js::JsVariant"** %15, align 8, !dbg !4467
  %17 = getelementptr inbounds %"class.altered_carbon::js::JsVariant", %"class.altered_carbon::js::JsVariant"* %16, i32 0, i32 1, !dbg !4467
  %18 = load i32, i32* %17, align 8, !dbg !4467
  %19 = icmp eq i32 %18, 10, !dbg !4467
  br label %24, !dbg !4467

; <label>:20:                                     ; preds = %1
  %21 = getelementptr inbounds %"class.altered_carbon::js::JsVariant", %"class.altered_carbon::js::JsVariant"* %3, i32 0, i32 1, !dbg !4467
  %22 = load i32, i32* %21, align 8, !dbg !4467
  %23 = icmp eq i32 %22, 10, !dbg !4467
  br label %24, !dbg !4467

; <label>:24:                                     ; preds = %20, %13
  %25 = phi i1 [ %19, %13 ], [ %23, %20 ], !dbg !4467
  %26 = xor i1 %25, true, !dbg !4467
  br i1 %26, label %27, label %29, !dbg !4467

; <label>:27:                                     ; preds = %24
  call void @__assert_rtn(i8* getelementptr inbounds ([7 x i8], [7 x i8]* @__func__._ZN14altered_carbon2js9TestSuite6test08Ev, i32 0, i32 0), i8* getelementptr inbounds ([18 x i8], [18 x i8]* @.str, i32 0, i32 0), i32 195, i8* getelementptr inbounds ([14 x i8], [14 x i8]* @.str.46, i32 0, i32 0)) #7, !dbg !4467
  unreachable, !dbg !4467
                                                  ; No predecessors!
  br label %30, !dbg !4467

; <label>:29:                                     ; preds = %24
  br label %30, !dbg !4467

; <label>:30:                                     ; preds = %29, %28
  %31 = getelementptr inbounds %"class.altered_carbon::js::JsVariant", %"class.altered_carbon::js::JsVariant"* %4, i32 0, i32 1, !dbg !4468
  %32 = load i32, i32* %31, align 8, !dbg !4468
  %33 = icmp eq i32 %32, 7, !dbg !4468
  br i1 %33, label %34, label %41, !dbg !4468

; <label>:34:                                     ; preds = %30
  %35 = getelementptr inbounds %"class.altered_carbon::js::JsVariant", %"class.altered_carbon::js::JsVariant"* %4, i32 0, i32 2, !dbg !4468
  %36 = bitcast %union.anon* %35 to %"class.altered_carbon::js::JsVariant"**, !dbg !4468
  %37 = load %"class.altered_carbon::js::JsVariant"*, %"class.altered_carbon::js::JsVariant"** %36, align 8, !dbg !4468
  %38 = getelementptr inbounds %"class.altered_carbon::js::JsVariant", %"class.altered_carbon::js::JsVariant"* %37, i32 0, i32 1, !dbg !4468
  %39 = load i32, i32* %38, align 8, !dbg !4468
  %40 = icmp eq i32 %39, 10, !dbg !4468
  br label %45, !dbg !4468

; <label>:41:                                     ; preds = %30
  %42 = getelementptr inbounds %"class.altered_carbon::js::JsVariant", %"class.altered_carbon::js::JsVariant"* %4, i32 0, i32 1, !dbg !4468
  %43 = load i32, i32* %42, align 8, !dbg !4468
  %44 = icmp eq i32 %43, 10, !dbg !4468
  br label %45, !dbg !4468

; <label>:45:                                     ; preds = %41, %34
  %46 = phi i1 [ %40, %34 ], [ %44, %41 ], !dbg !4468
  %47 = xor i1 %46, true, !dbg !4468
  br i1 %47, label %48, label %50, !dbg !4468

; <label>:48:                                     ; preds = %45
  call void @__assert_rtn(i8* getelementptr inbounds ([7 x i8], [7 x i8]* @__func__._ZN14altered_carbon2js9TestSuite6test08Ev, i32 0, i32 0), i8* getelementptr inbounds ([18 x i8], [18 x i8]* @.str, i32 0, i32 0), i32 196, i8* getelementptr inbounds ([14 x i8], [14 x i8]* @.str.47, i32 0, i32 0)) #7, !dbg !4468
  unreachable, !dbg !4468
                                                  ; No predecessors!
  br label %51, !dbg !4468

; <label>:50:                                     ; preds = %45
  br label %51, !dbg !4468

; <label>:51:                                     ; preds = %50, %49
  call void @_ZN14altered_carbon2js9JsVariantC1EPKw(%"class.altered_carbon::js::JsVariant"* %5, i32* getelementptr inbounds ([6 x i32], [6 x i32]* @.str.44, i32 0, i32 0)), !dbg !4469
  %52 = call zeroext i1 @_ZNK14altered_carbon2js9JsVarianteqERKS1_(%"class.altered_carbon::js::JsVariant"* %3, %"class.altered_carbon::js::JsVariant"* dereferenceable(56) %5), !dbg !4469
  %53 = xor i1 %52, true, !dbg !4469
  br i1 %53, label %54, label %56, !dbg !4469

; <label>:54:                                     ; preds = %51
  call void @__assert_rtn(i8* getelementptr inbounds ([7 x i8], [7 x i8]* @__func__._ZN14altered_carbon2js9TestSuite6test08Ev, i32 0, i32 0), i8* getelementptr inbounds ([18 x i8], [18 x i8]* @.str, i32 0, i32 0), i32 197, i8* getelementptr inbounds ([14 x i8], [14 x i8]* @.str.48, i32 0, i32 0)) #7, !dbg !4469
  unreachable, !dbg !4469
                                                  ; No predecessors!
  br label %57, !dbg !4469

; <label>:56:                                     ; preds = %51
  br label %57, !dbg !4469

; <label>:57:                                     ; preds = %56, %55
  call void @_ZN14altered_carbon2js9JsVariantD1Ev(%"class.altered_carbon::js::JsVariant"* %5) #8, !dbg !4469
  call void @_ZN14altered_carbon2js9JsVariantC1EPKw(%"class.altered_carbon::js::JsVariant"* %6, i32* getelementptr inbounds ([6 x i32], [6 x i32]* @.str.45, i32 0, i32 0)), !dbg !4470
  %58 = call zeroext i1 @_ZNK14altered_carbon2js9JsVarianteqERKS1_(%"class.altered_carbon::js::JsVariant"* %4, %"class.altered_carbon::js::JsVariant"* dereferenceable(56) %6), !dbg !4470
  %59 = xor i1 %58, true, !dbg !4470
  br i1 %59, label %60, label %62, !dbg !4470

; <label>:60:                                     ; preds = %57
  call void @__assert_rtn(i8* getelementptr inbounds ([7 x i8], [7 x i8]* @__func__._ZN14altered_carbon2js9TestSuite6test08Ev, i32 0, i32 0), i8* getelementptr inbounds ([18 x i8], [18 x i8]* @.str, i32 0, i32 0), i32 198, i8* getelementptr inbounds ([14 x i8], [14 x i8]* @.str.49, i32 0, i32 0)) #7, !dbg !4470
  unreachable, !dbg !4470
                                                  ; No predecessors!
  br label %63, !dbg !4470

; <label>:62:                                     ; preds = %57
  br label %63, !dbg !4470

; <label>:63:                                     ; preds = %62, %61
  call void @_ZN14altered_carbon2js9JsVariantD1Ev(%"class.altered_carbon::js::JsVariant"* %6) #8, !dbg !4470
  %64 = call dereferenceable(56) %"class.altered_carbon::js::JsVariant"* @_ZN14altered_carbon2js9JsVariantpLERKS1_(%"class.altered_carbon::js::JsVariant"* %3, %"class.altered_carbon::js::JsVariant"* dereferenceable(56) %4), !dbg !4471
  call void @_ZN14altered_carbon2js9JsVariantC1EPKw(%"class.altered_carbon::js::JsVariant"* %7, i32* getelementptr inbounds ([11 x i32], [11 x i32]* @.str.50, i32 0, i32 0)), !dbg !4472
  %65 = call zeroext i1 @_ZNK14altered_carbon2js9JsVarianteqERKS1_(%"class.altered_carbon::js::JsVariant"* %3, %"class.altered_carbon::js::JsVariant"* dereferenceable(56) %7), !dbg !4472
  %66 = xor i1 %65, true, !dbg !4472
  br i1 %66, label %67, label %69, !dbg !4472

; <label>:67:                                     ; preds = %63
  call void @__assert_rtn(i8* getelementptr inbounds ([7 x i8], [7 x i8]* @__func__._ZN14altered_carbon2js9TestSuite6test08Ev, i32 0, i32 0), i8* getelementptr inbounds ([18 x i8], [18 x i8]* @.str, i32 0, i32 0), i32 200, i8* getelementptr inbounds ([19 x i8], [19 x i8]* @.str.51, i32 0, i32 0)) #7, !dbg !4472
  unreachable, !dbg !4472
                                                  ; No predecessors!
  br label %70, !dbg !4472

; <label>:69:                                     ; preds = %63
  br label %70, !dbg !4472

; <label>:70:                                     ; preds = %69, %68
  call void @_ZN14altered_carbon2js9JsVariantD1Ev(%"class.altered_carbon::js::JsVariant"* %7) #8, !dbg !4472
  call void @_ZN14altered_carbon2js9JsVariantC1EPKw(%"class.altered_carbon::js::JsVariant"* %8, i32* getelementptr inbounds ([6 x i32], [6 x i32]* @.str.45, i32 0, i32 0)), !dbg !4473
  %71 = call zeroext i1 @_ZNK14altered_carbon2js9JsVarianteqERKS1_(%"class.altered_carbon::js::JsVariant"* %4, %"class.altered_carbon::js::JsVariant"* dereferenceable(56) %8), !dbg !4473
  %72 = xor i1 %71, true, !dbg !4473
  br i1 %72, label %73, label %75, !dbg !4473

; <label>:73:                                     ; preds = %70
  call void @__assert_rtn(i8* getelementptr inbounds ([7 x i8], [7 x i8]* @__func__._ZN14altered_carbon2js9TestSuite6test08Ev, i32 0, i32 0), i8* getelementptr inbounds ([18 x i8], [18 x i8]* @.str, i32 0, i32 0), i32 201, i8* getelementptr inbounds ([14 x i8], [14 x i8]* @.str.49, i32 0, i32 0)) #7, !dbg !4473
  unreachable, !dbg !4473
                                                  ; No predecessors!
  br label %76, !dbg !4473

; <label>:75:                                     ; preds = %70
  br label %76, !dbg !4473

; <label>:76:                                     ; preds = %75, %74
  call void @_ZN14altered_carbon2js9JsVariantD1Ev(%"class.altered_carbon::js::JsVariant"* %8) #8, !dbg !4473
  call void @_ZN14altered_carbon2js9JsVariantD1Ev(%"class.altered_carbon::js::JsVariant"* %4) #8, !dbg !4474
  call void @_ZN14altered_carbon2js9JsVariantD1Ev(%"class.altered_carbon::js::JsVariant"* %3) #8, !dbg !4474
  ret void, !dbg !4474
}

declare void @_ZN14altered_carbon2js9JsVariantC1EPKw(%"class.altered_carbon::js::JsVariant"*, i32*) unnamed_addr #2

; Function Attrs: noinline nounwind optnone ssp uwtable
define void @_ZN14altered_carbon2js9TestSuite6test09Ev(%"class.altered_carbon::js::TestSuite"*) #0 align 2 !dbg !4475 {
  %2 = alloca %"class.altered_carbon::js::TestSuite"*, align 8
  %3 = alloca %"class.altered_carbon::js::JsVariant", align 8
  %4 = alloca %"class.altered_carbon::js::JsVariant", align 8
  %5 = alloca %"class.altered_carbon::js::JsVariant", align 8
  %6 = alloca %"class.altered_carbon::js::JsVariant", align 8
  %7 = alloca %"class.altered_carbon::js::JsVariant", align 8
  store %"class.altered_carbon::js::TestSuite"* %0, %"class.altered_carbon::js::TestSuite"** %2, align 8
  call void @llvm.dbg.declare(metadata %"class.altered_carbon::js::TestSuite"** %2, metadata !4476, metadata !DIExpression()), !dbg !4477
  %8 = load %"class.altered_carbon::js::TestSuite"*, %"class.altered_carbon::js::TestSuite"** %2, align 8
  call void @llvm.dbg.declare(metadata %"class.altered_carbon::js::JsVariant"* %3, metadata !4478, metadata !DIExpression()), !dbg !4479
  call void @_ZN14altered_carbon2js9JsVariantC1Ei(%"class.altered_carbon::js::JsVariant"* %3, i32 1), !dbg !4480
  call void @llvm.dbg.declare(metadata %"class.altered_carbon::js::JsVariant"* %4, metadata !4481, metadata !DIExpression()), !dbg !4482
  call void @_ZN14altered_carbon2js9JsVariantC1Eb(%"class.altered_carbon::js::JsVariant"* %4, i1 zeroext true), !dbg !4483
  call void @llvm.dbg.declare(metadata %"class.altered_carbon::js::JsVariant"* %5, metadata !4484, metadata !DIExpression()), !dbg !4485
  call void @_ZN14altered_carbon2js9JsVariantC1Eb(%"class.altered_carbon::js::JsVariant"* %5, i1 zeroext false), !dbg !4486
  %9 = getelementptr inbounds %"class.altered_carbon::js::JsVariant", %"class.altered_carbon::js::JsVariant"* %3, i32 0, i32 1, !dbg !4487
  %10 = load i32, i32* %9, align 8, !dbg !4487
  %11 = icmp eq i32 %10, 7, !dbg !4487
  br i1 %11, label %12, label %28, !dbg !4487

; <label>:12:                                     ; preds = %1
  %13 = getelementptr inbounds %"class.altered_carbon::js::JsVariant", %"class.altered_carbon::js::JsVariant"* %3, i32 0, i32 2, !dbg !4487
  %14 = bitcast %union.anon* %13 to %"class.altered_carbon::js::JsVariant"**, !dbg !4487
  %15 = load %"class.altered_carbon::js::JsVariant"*, %"class.altered_carbon::js::JsVariant"** %14, align 8, !dbg !4487
  %16 = getelementptr inbounds %"class.altered_carbon::js::JsVariant", %"class.altered_carbon::js::JsVariant"* %15, i32 0, i32 1, !dbg !4487
  %17 = load i32, i32* %16, align 8, !dbg !4487
  %18 = icmp eq i32 %17, 3, !dbg !4487
  br i1 %18, label %26, label %19, !dbg !4487

; <label>:19:                                     ; preds = %12
  %20 = getelementptr inbounds %"class.altered_carbon::js::JsVariant", %"class.altered_carbon::js::JsVariant"* %3, i32 0, i32 2, !dbg !4487
  %21 = bitcast %union.anon* %20 to %"class.altered_carbon::js::JsVariant"**, !dbg !4487
  %22 = load %"class.altered_carbon::js::JsVariant"*, %"class.altered_carbon::js::JsVariant"** %21, align 8, !dbg !4487
  %23 = getelementptr inbounds %"class.altered_carbon::js::JsVariant", %"class.altered_carbon::js::JsVariant"* %22, i32 0, i32 1, !dbg !4487
  %24 = load i32, i32* %23, align 8, !dbg !4487
  %25 = icmp eq i32 %24, 4, !dbg !4487
  br label %26, !dbg !4487

; <label>:26:                                     ; preds = %19, %12
  %27 = phi i1 [ true, %12 ], [ %25, %19 ]
  br label %38, !dbg !4487

; <label>:28:                                     ; preds = %1
  %29 = getelementptr inbounds %"class.altered_carbon::js::JsVariant", %"class.altered_carbon::js::JsVariant"* %3, i32 0, i32 1, !dbg !4487
  %30 = load i32, i32* %29, align 8, !dbg !4487
  %31 = icmp eq i32 %30, 3, !dbg !4487
  br i1 %31, label %36, label %32, !dbg !4487

; <label>:32:                                     ; preds = %28
  %33 = getelementptr inbounds %"class.altered_carbon::js::JsVariant", %"class.altered_carbon::js::JsVariant"* %3, i32 0, i32 1, !dbg !4487
  %34 = load i32, i32* %33, align 8, !dbg !4487
  %35 = icmp eq i32 %34, 4, !dbg !4487
  br label %36, !dbg !4487

; <label>:36:                                     ; preds = %32, %28
  %37 = phi i1 [ true, %28 ], [ %35, %32 ]
  br label %38, !dbg !4487

; <label>:38:                                     ; preds = %36, %26
  %39 = phi i1 [ %27, %26 ], [ %37, %36 ], !dbg !4487
  %40 = xor i1 %39, true, !dbg !4487
  br i1 %40, label %41, label %43, !dbg !4487

; <label>:41:                                     ; preds = %38
  call void @__assert_rtn(i8* getelementptr inbounds ([7 x i8], [7 x i8]* @__func__._ZN14altered_carbon2js9TestSuite6test09Ev, i32 0, i32 0), i8* getelementptr inbounds ([18 x i8], [18 x i8]* @.str, i32 0, i32 0), i32 208, i8* getelementptr inbounds ([14 x i8], [14 x i8]* @.str.9, i32 0, i32 0)) #7, !dbg !4487
  unreachable, !dbg !4487
                                                  ; No predecessors!
  br label %44, !dbg !4487

; <label>:43:                                     ; preds = %38
  br label %44, !dbg !4487

; <label>:44:                                     ; preds = %43, %42
  %45 = getelementptr inbounds %"class.altered_carbon::js::JsVariant", %"class.altered_carbon::js::JsVariant"* %4, i32 0, i32 1, !dbg !4488
  %46 = load i32, i32* %45, align 8, !dbg !4488
  %47 = icmp eq i32 %46, 7, !dbg !4488
  br i1 %47, label %48, label %55, !dbg !4488

; <label>:48:                                     ; preds = %44
  %49 = getelementptr inbounds %"class.altered_carbon::js::JsVariant", %"class.altered_carbon::js::JsVariant"* %4, i32 0, i32 2, !dbg !4488
  %50 = bitcast %union.anon* %49 to %"class.altered_carbon::js::JsVariant"**, !dbg !4488
  %51 = load %"class.altered_carbon::js::JsVariant"*, %"class.altered_carbon::js::JsVariant"** %50, align 8, !dbg !4488
  %52 = getelementptr inbounds %"class.altered_carbon::js::JsVariant", %"class.altered_carbon::js::JsVariant"* %51, i32 0, i32 1, !dbg !4488
  %53 = load i32, i32* %52, align 8, !dbg !4488
  %54 = icmp eq i32 %53, 6, !dbg !4488
  br label %59, !dbg !4488

; <label>:55:                                     ; preds = %44
  %56 = getelementptr inbounds %"class.altered_carbon::js::JsVariant", %"class.altered_carbon::js::JsVariant"* %4, i32 0, i32 1, !dbg !4488
  %57 = load i32, i32* %56, align 8, !dbg !4488
  %58 = icmp eq i32 %57, 6, !dbg !4488
  br label %59, !dbg !4488

; <label>:59:                                     ; preds = %55, %48
  %60 = phi i1 [ %54, %48 ], [ %58, %55 ], !dbg !4488
  %61 = xor i1 %60, true, !dbg !4488
  br i1 %61, label %62, label %64, !dbg !4488

; <label>:62:                                     ; preds = %59
  call void @__assert_rtn(i8* getelementptr inbounds ([7 x i8], [7 x i8]* @__func__._ZN14altered_carbon2js9TestSuite6test09Ev, i32 0, i32 0), i8* getelementptr inbounds ([18 x i8], [18 x i8]* @.str, i32 0, i32 0), i32 209, i8* getelementptr inbounds ([15 x i8], [15 x i8]* @.str.42, i32 0, i32 0)) #7, !dbg !4488
  unreachable, !dbg !4488
                                                  ; No predecessors!
  br label %65, !dbg !4488

; <label>:64:                                     ; preds = %59
  br label %65, !dbg !4488

; <label>:65:                                     ; preds = %64, %63
  %66 = getelementptr inbounds %"class.altered_carbon::js::JsVariant", %"class.altered_carbon::js::JsVariant"* %5, i32 0, i32 1, !dbg !4489
  %67 = load i32, i32* %66, align 8, !dbg !4489
  %68 = icmp eq i32 %67, 7, !dbg !4489
  br i1 %68, label %69, label %76, !dbg !4489

; <label>:69:                                     ; preds = %65
  %70 = getelementptr inbounds %"class.altered_carbon::js::JsVariant", %"class.altered_carbon::js::JsVariant"* %5, i32 0, i32 2, !dbg !4489
  %71 = bitcast %union.anon* %70 to %"class.altered_carbon::js::JsVariant"**, !dbg !4489
  %72 = load %"class.altered_carbon::js::JsVariant"*, %"class.altered_carbon::js::JsVariant"** %71, align 8, !dbg !4489
  %73 = getelementptr inbounds %"class.altered_carbon::js::JsVariant", %"class.altered_carbon::js::JsVariant"* %72, i32 0, i32 1, !dbg !4489
  %74 = load i32, i32* %73, align 8, !dbg !4489
  %75 = icmp eq i32 %74, 6, !dbg !4489
  br label %80, !dbg !4489

; <label>:76:                                     ; preds = %65
  %77 = getelementptr inbounds %"class.altered_carbon::js::JsVariant", %"class.altered_carbon::js::JsVariant"* %5, i32 0, i32 1, !dbg !4489
  %78 = load i32, i32* %77, align 8, !dbg !4489
  %79 = icmp eq i32 %78, 6, !dbg !4489
  br label %80, !dbg !4489

; <label>:80:                                     ; preds = %76, %69
  %81 = phi i1 [ %75, %69 ], [ %79, %76 ], !dbg !4489
  %82 = xor i1 %81, true, !dbg !4489
  br i1 %82, label %83, label %85, !dbg !4489

; <label>:83:                                     ; preds = %80
  call void @__assert_rtn(i8* getelementptr inbounds ([7 x i8], [7 x i8]* @__func__._ZN14altered_carbon2js9TestSuite6test09Ev, i32 0, i32 0), i8* getelementptr inbounds ([18 x i8], [18 x i8]* @.str, i32 0, i32 0), i32 210, i8* getelementptr inbounds ([15 x i8], [15 x i8]* @.str.52, i32 0, i32 0)) #7, !dbg !4489
  unreachable, !dbg !4489
                                                  ; No predecessors!
  br label %86, !dbg !4489

; <label>:85:                                     ; preds = %80
  br label %86, !dbg !4489

; <label>:86:                                     ; preds = %85, %84
  %87 = call dereferenceable(56) %"class.altered_carbon::js::JsVariant"* @_ZN14altered_carbon2js9JsVariantpLERKS1_(%"class.altered_carbon::js::JsVariant"* %3, %"class.altered_carbon::js::JsVariant"* dereferenceable(56) %4), !dbg !4490
  call void @_ZN14altered_carbon2js9JsVariantC1Ei(%"class.altered_carbon::js::JsVariant"* %6, i32 2), !dbg !4491
  %88 = call zeroext i1 @_ZNK14altered_carbon2js9JsVarianteqERKS1_(%"class.altered_carbon::js::JsVariant"* %3, %"class.altered_carbon::js::JsVariant"* dereferenceable(56) %6), !dbg !4491
  %89 = xor i1 %88, true, !dbg !4491
  br i1 %89, label %90, label %92, !dbg !4491

; <label>:90:                                     ; preds = %86
  call void @__assert_rtn(i8* getelementptr inbounds ([7 x i8], [7 x i8]* @__func__._ZN14altered_carbon2js9TestSuite6test09Ev, i32 0, i32 0), i8* getelementptr inbounds ([18 x i8], [18 x i8]* @.str, i32 0, i32 0), i32 212, i8* getelementptr inbounds ([7 x i8], [7 x i8]* @.str.53, i32 0, i32 0)) #7, !dbg !4491
  unreachable, !dbg !4491
                                                  ; No predecessors!
  br label %93, !dbg !4491

; <label>:92:                                     ; preds = %86
  br label %93, !dbg !4491

; <label>:93:                                     ; preds = %92, %91
  call void @_ZN14altered_carbon2js9JsVariantD1Ev(%"class.altered_carbon::js::JsVariant"* %6) #8, !dbg !4491
  %94 = call dereferenceable(56) %"class.altered_carbon::js::JsVariant"* @_ZN14altered_carbon2js9JsVariantpLERKS1_(%"class.altered_carbon::js::JsVariant"* %3, %"class.altered_carbon::js::JsVariant"* dereferenceable(56) %5), !dbg !4492
  call void @_ZN14altered_carbon2js9JsVariantC1Ei(%"class.altered_carbon::js::JsVariant"* %7, i32 2), !dbg !4493
  %95 = call zeroext i1 @_ZNK14altered_carbon2js9JsVarianteqERKS1_(%"class.altered_carbon::js::JsVariant"* %3, %"class.altered_carbon::js::JsVariant"* dereferenceable(56) %7), !dbg !4493
  %96 = xor i1 %95, true, !dbg !4493
  br i1 %96, label %97, label %99, !dbg !4493

; <label>:97:                                     ; preds = %93
  call void @__assert_rtn(i8* getelementptr inbounds ([7 x i8], [7 x i8]* @__func__._ZN14altered_carbon2js9TestSuite6test09Ev, i32 0, i32 0), i8* getelementptr inbounds ([18 x i8], [18 x i8]* @.str, i32 0, i32 0), i32 214, i8* getelementptr inbounds ([7 x i8], [7 x i8]* @.str.53, i32 0, i32 0)) #7, !dbg !4493
  unreachable, !dbg !4493
                                                  ; No predecessors!
  br label %100, !dbg !4493

; <label>:99:                                     ; preds = %93
  br label %100, !dbg !4493

; <label>:100:                                    ; preds = %99, %98
  call void @_ZN14altered_carbon2js9JsVariantD1Ev(%"class.altered_carbon::js::JsVariant"* %7) #8, !dbg !4493
  call void @_ZN14altered_carbon2js9JsVariantD1Ev(%"class.altered_carbon::js::JsVariant"* %5) #8, !dbg !4494
  call void @_ZN14altered_carbon2js9JsVariantD1Ev(%"class.altered_carbon::js::JsVariant"* %4) #8, !dbg !4494
  call void @_ZN14altered_carbon2js9JsVariantD1Ev(%"class.altered_carbon::js::JsVariant"* %3) #8, !dbg !4494
  ret void, !dbg !4494
}

; Function Attrs: noinline nounwind optnone ssp uwtable
define void @_ZN14altered_carbon2js9TestSuite6test10Ev(%"class.altered_carbon::js::TestSuite"*) #0 align 2 !dbg !4495 {
  %2 = alloca %"class.altered_carbon::js::TestSuite"*, align 8
  %3 = alloca %"class.altered_carbon::js::JsVariant", align 8
  %4 = alloca %"class.altered_carbon::js::JsVariant", align 8
  %5 = alloca %"class.altered_carbon::js::JsVariant", align 8
  %6 = alloca %"class.altered_carbon::js::JsVariant", align 8
  %7 = alloca %"class.altered_carbon::js::JsVariant", align 8
  %8 = alloca %"class.altered_carbon::js::JsVariant", align 8
  %9 = alloca %"class.altered_carbon::js::JsVariant", align 8
  %10 = alloca %"class.altered_carbon::js::JsVariant", align 8
  %11 = alloca %"class.altered_carbon::js::JsVariant", align 8
  %12 = alloca %"class.altered_carbon::js::JsVariant", align 8
  %13 = alloca %"class.altered_carbon::js::JsVariant", align 8
  %14 = alloca %"class.altered_carbon::js::JsVariant", align 8
  %15 = alloca %"class.altered_carbon::js::JsVariant", align 8
  %16 = alloca %"class.altered_carbon::js::JsVariant", align 8
  %17 = alloca %"class.altered_carbon::js::JsVariant", align 8
  store %"class.altered_carbon::js::TestSuite"* %0, %"class.altered_carbon::js::TestSuite"** %2, align 8
  call void @llvm.dbg.declare(metadata %"class.altered_carbon::js::TestSuite"** %2, metadata !4496, metadata !DIExpression()), !dbg !4497
  %18 = load %"class.altered_carbon::js::TestSuite"*, %"class.altered_carbon::js::TestSuite"** %2, align 8
  call void @llvm.dbg.declare(metadata %"class.altered_carbon::js::JsVariant"* %3, metadata !4498, metadata !DIExpression()), !dbg !4499
  call void @_ZN14altered_carbon2js9JsVariantC1Ed(%"class.altered_carbon::js::JsVariant"* %3, double 1.000000e+00), !dbg !4500
  call void @llvm.dbg.declare(metadata %"class.altered_carbon::js::JsVariant"* %4, metadata !4501, metadata !DIExpression()), !dbg !4502
  call void @_ZN14altered_carbon2js9JsVariantC1Ei(%"class.altered_carbon::js::JsVariant"* %4, i32 1), !dbg !4503
  call void @llvm.dbg.declare(metadata %"class.altered_carbon::js::JsVariant"* %5, metadata !4504, metadata !DIExpression()), !dbg !4505
  call void @_ZN14altered_carbon2js9JsVariantppEi(%"class.altered_carbon::js::JsVariant"* sret %5, %"class.altered_carbon::js::JsVariant"* %3, i32 0), !dbg !4506
  call void @llvm.dbg.declare(metadata %"class.altered_carbon::js::JsVariant"* %6, metadata !4507, metadata !DIExpression()), !dbg !4508
  call void @_ZN14altered_carbon2js9JsVariantppEi(%"class.altered_carbon::js::JsVariant"* sret %6, %"class.altered_carbon::js::JsVariant"* %4, i32 0), !dbg !4509
  %19 = getelementptr inbounds %"class.altered_carbon::js::JsVariant", %"class.altered_carbon::js::JsVariant"* %3, i32 0, i32 1, !dbg !4510
  %20 = load i32, i32* %19, align 8, !dbg !4510
  %21 = icmp eq i32 %20, 7, !dbg !4510
  br i1 %21, label %22, label %29, !dbg !4510

; <label>:22:                                     ; preds = %1
  %23 = getelementptr inbounds %"class.altered_carbon::js::JsVariant", %"class.altered_carbon::js::JsVariant"* %3, i32 0, i32 2, !dbg !4510
  %24 = bitcast %union.anon* %23 to %"class.altered_carbon::js::JsVariant"**, !dbg !4510
  %25 = load %"class.altered_carbon::js::JsVariant"*, %"class.altered_carbon::js::JsVariant"** %24, align 8, !dbg !4510
  %26 = getelementptr inbounds %"class.altered_carbon::js::JsVariant", %"class.altered_carbon::js::JsVariant"* %25, i32 0, i32 1, !dbg !4510
  %27 = load i32, i32* %26, align 8, !dbg !4510
  %28 = icmp eq i32 %27, 4, !dbg !4510
  br label %33, !dbg !4510

; <label>:29:                                     ; preds = %1
  %30 = getelementptr inbounds %"class.altered_carbon::js::JsVariant", %"class.altered_carbon::js::JsVariant"* %3, i32 0, i32 1, !dbg !4510
  %31 = load i32, i32* %30, align 8, !dbg !4510
  %32 = icmp eq i32 %31, 4, !dbg !4510
  br label %33, !dbg !4510

; <label>:33:                                     ; preds = %29, %22
  %34 = phi i1 [ %28, %22 ], [ %32, %29 ], !dbg !4510
  %35 = xor i1 %34, true, !dbg !4510
  br i1 %35, label %36, label %38, !dbg !4510

; <label>:36:                                     ; preds = %33
  call void @__assert_rtn(i8* getelementptr inbounds ([7 x i8], [7 x i8]* @__func__._ZN14altered_carbon2js9TestSuite6test10Ev, i32 0, i32 0), i8* getelementptr inbounds ([18 x i8], [18 x i8]* @.str, i32 0, i32 0), i32 222, i8* getelementptr inbounds ([14 x i8], [14 x i8]* @.str.14, i32 0, i32 0)) #7, !dbg !4510
  unreachable, !dbg !4510
                                                  ; No predecessors!
  br label %39, !dbg !4510

; <label>:38:                                     ; preds = %33
  br label %39, !dbg !4510

; <label>:39:                                     ; preds = %38, %37
  %40 = getelementptr inbounds %"class.altered_carbon::js::JsVariant", %"class.altered_carbon::js::JsVariant"* %4, i32 0, i32 1, !dbg !4511
  %41 = load i32, i32* %40, align 8, !dbg !4511
  %42 = icmp eq i32 %41, 7, !dbg !4511
  br i1 %42, label %43, label %50, !dbg !4511

; <label>:43:                                     ; preds = %39
  %44 = getelementptr inbounds %"class.altered_carbon::js::JsVariant", %"class.altered_carbon::js::JsVariant"* %4, i32 0, i32 2, !dbg !4511
  %45 = bitcast %union.anon* %44 to %"class.altered_carbon::js::JsVariant"**, !dbg !4511
  %46 = load %"class.altered_carbon::js::JsVariant"*, %"class.altered_carbon::js::JsVariant"** %45, align 8, !dbg !4511
  %47 = getelementptr inbounds %"class.altered_carbon::js::JsVariant", %"class.altered_carbon::js::JsVariant"* %46, i32 0, i32 1, !dbg !4511
  %48 = load i32, i32* %47, align 8, !dbg !4511
  %49 = icmp eq i32 %48, 3, !dbg !4511
  br label %54, !dbg !4511

; <label>:50:                                     ; preds = %39
  %51 = getelementptr inbounds %"class.altered_carbon::js::JsVariant", %"class.altered_carbon::js::JsVariant"* %4, i32 0, i32 1, !dbg !4511
  %52 = load i32, i32* %51, align 8, !dbg !4511
  %53 = icmp eq i32 %52, 3, !dbg !4511
  br label %54, !dbg !4511

; <label>:54:                                     ; preds = %50, %43
  %55 = phi i1 [ %49, %43 ], [ %53, %50 ], !dbg !4511
  %56 = xor i1 %55, true, !dbg !4511
  br i1 %56, label %57, label %59, !dbg !4511

; <label>:57:                                     ; preds = %54
  call void @__assert_rtn(i8* getelementptr inbounds ([7 x i8], [7 x i8]* @__func__._ZN14altered_carbon2js9TestSuite6test10Ev, i32 0, i32 0), i8* getelementptr inbounds ([18 x i8], [18 x i8]* @.str, i32 0, i32 0), i32 223, i8* getelementptr inbounds ([15 x i8], [15 x i8]* @.str.23, i32 0, i32 0)) #7, !dbg !4511
  unreachable, !dbg !4511
                                                  ; No predecessors!
  br label %60, !dbg !4511

; <label>:59:                                     ; preds = %54
  br label %60, !dbg !4511

; <label>:60:                                     ; preds = %59, %58
  %61 = getelementptr inbounds %"class.altered_carbon::js::JsVariant", %"class.altered_carbon::js::JsVariant"* %5, i32 0, i32 1, !dbg !4512
  %62 = load i32, i32* %61, align 8, !dbg !4512
  %63 = icmp eq i32 %62, 7, !dbg !4512
  br i1 %63, label %64, label %71, !dbg !4512

; <label>:64:                                     ; preds = %60
  %65 = getelementptr inbounds %"class.altered_carbon::js::JsVariant", %"class.altered_carbon::js::JsVariant"* %5, i32 0, i32 2, !dbg !4512
  %66 = bitcast %union.anon* %65 to %"class.altered_carbon::js::JsVariant"**, !dbg !4512
  %67 = load %"class.altered_carbon::js::JsVariant"*, %"class.altered_carbon::js::JsVariant"** %66, align 8, !dbg !4512
  %68 = getelementptr inbounds %"class.altered_carbon::js::JsVariant", %"class.altered_carbon::js::JsVariant"* %67, i32 0, i32 1, !dbg !4512
  %69 = load i32, i32* %68, align 8, !dbg !4512
  %70 = icmp eq i32 %69, 4, !dbg !4512
  br label %75, !dbg !4512

; <label>:71:                                     ; preds = %60
  %72 = getelementptr inbounds %"class.altered_carbon::js::JsVariant", %"class.altered_carbon::js::JsVariant"* %5, i32 0, i32 1, !dbg !4512
  %73 = load i32, i32* %72, align 8, !dbg !4512
  %74 = icmp eq i32 %73, 4, !dbg !4512
  br label %75, !dbg !4512

; <label>:75:                                     ; preds = %71, %64
  %76 = phi i1 [ %70, %64 ], [ %74, %71 ], !dbg !4512
  %77 = xor i1 %76, true, !dbg !4512
  br i1 %77, label %78, label %80, !dbg !4512

; <label>:78:                                     ; preds = %75
  call void @__assert_rtn(i8* getelementptr inbounds ([7 x i8], [7 x i8]* @__func__._ZN14altered_carbon2js9TestSuite6test10Ev, i32 0, i32 0), i8* getelementptr inbounds ([18 x i8], [18 x i8]* @.str, i32 0, i32 0), i32 224, i8* getelementptr inbounds ([14 x i8], [14 x i8]* @.str.6, i32 0, i32 0)) #7, !dbg !4512
  unreachable, !dbg !4512
                                                  ; No predecessors!
  br label %81, !dbg !4512

; <label>:80:                                     ; preds = %75
  br label %81, !dbg !4512

; <label>:81:                                     ; preds = %80, %79
  %82 = getelementptr inbounds %"class.altered_carbon::js::JsVariant", %"class.altered_carbon::js::JsVariant"* %6, i32 0, i32 1, !dbg !4513
  %83 = load i32, i32* %82, align 8, !dbg !4513
  %84 = icmp eq i32 %83, 7, !dbg !4513
  br i1 %84, label %85, label %92, !dbg !4513

; <label>:85:                                     ; preds = %81
  %86 = getelementptr inbounds %"class.altered_carbon::js::JsVariant", %"class.altered_carbon::js::JsVariant"* %6, i32 0, i32 2, !dbg !4513
  %87 = bitcast %union.anon* %86 to %"class.altered_carbon::js::JsVariant"**, !dbg !4513
  %88 = load %"class.altered_carbon::js::JsVariant"*, %"class.altered_carbon::js::JsVariant"** %87, align 8, !dbg !4513
  %89 = getelementptr inbounds %"class.altered_carbon::js::JsVariant", %"class.altered_carbon::js::JsVariant"* %88, i32 0, i32 1, !dbg !4513
  %90 = load i32, i32* %89, align 8, !dbg !4513
  %91 = icmp eq i32 %90, 3, !dbg !4513
  br label %96, !dbg !4513

; <label>:92:                                     ; preds = %81
  %93 = getelementptr inbounds %"class.altered_carbon::js::JsVariant", %"class.altered_carbon::js::JsVariant"* %6, i32 0, i32 1, !dbg !4513
  %94 = load i32, i32* %93, align 8, !dbg !4513
  %95 = icmp eq i32 %94, 3, !dbg !4513
  br label %96, !dbg !4513

; <label>:96:                                     ; preds = %92, %85
  %97 = phi i1 [ %91, %85 ], [ %95, %92 ], !dbg !4513
  %98 = xor i1 %97, true, !dbg !4513
  br i1 %98, label %99, label %101, !dbg !4513

; <label>:99:                                     ; preds = %96
  call void @__assert_rtn(i8* getelementptr inbounds ([7 x i8], [7 x i8]* @__func__._ZN14altered_carbon2js9TestSuite6test10Ev, i32 0, i32 0), i8* getelementptr inbounds ([18 x i8], [18 x i8]* @.str, i32 0, i32 0), i32 225, i8* getelementptr inbounds ([15 x i8], [15 x i8]* @.str.32, i32 0, i32 0)) #7, !dbg !4513
  unreachable, !dbg !4513
                                                  ; No predecessors!
  br label %102, !dbg !4513

; <label>:101:                                    ; preds = %96
  br label %102, !dbg !4513

; <label>:102:                                    ; preds = %101, %100
  call void @_ZN14altered_carbon2js9JsVariantC1Ed(%"class.altered_carbon::js::JsVariant"* %7, double 2.000000e+00), !dbg !4514
  %103 = call zeroext i1 @_ZNK14altered_carbon2js9JsVarianteqERKS1_(%"class.altered_carbon::js::JsVariant"* %3, %"class.altered_carbon::js::JsVariant"* dereferenceable(56) %7), !dbg !4514
  %104 = xor i1 %103, true, !dbg !4514
  br i1 %104, label %105, label %107, !dbg !4514

; <label>:105:                                    ; preds = %102
  call void @__assert_rtn(i8* getelementptr inbounds ([7 x i8], [7 x i8]* @__func__._ZN14altered_carbon2js9TestSuite6test10Ev, i32 0, i32 0), i8* getelementptr inbounds ([18 x i8], [18 x i8]* @.str, i32 0, i32 0), i32 226, i8* getelementptr inbounds ([9 x i8], [9 x i8]* @.str.54, i32 0, i32 0)) #7, !dbg !4514
  unreachable, !dbg !4514
                                                  ; No predecessors!
  br label %108, !dbg !4514

; <label>:107:                                    ; preds = %102
  br label %108, !dbg !4514

; <label>:108:                                    ; preds = %107, %106
  call void @_ZN14altered_carbon2js9JsVariantD1Ev(%"class.altered_carbon::js::JsVariant"* %7) #8, !dbg !4514
  call void @_ZN14altered_carbon2js9JsVariantC1Ei(%"class.altered_carbon::js::JsVariant"* %8, i32 2), !dbg !4515
  %109 = call zeroext i1 @_ZNK14altered_carbon2js9JsVarianteqERKS1_(%"class.altered_carbon::js::JsVariant"* %4, %"class.altered_carbon::js::JsVariant"* dereferenceable(56) %8), !dbg !4515
  %110 = xor i1 %109, true, !dbg !4515
  br i1 %110, label %111, label %113, !dbg !4515

; <label>:111:                                    ; preds = %108
  call void @__assert_rtn(i8* getelementptr inbounds ([7 x i8], [7 x i8]* @__func__._ZN14altered_carbon2js9TestSuite6test10Ev, i32 0, i32 0), i8* getelementptr inbounds ([18 x i8], [18 x i8]* @.str, i32 0, i32 0), i32 227, i8* getelementptr inbounds ([7 x i8], [7 x i8]* @.str.55, i32 0, i32 0)) #7, !dbg !4515
  unreachable, !dbg !4515
                                                  ; No predecessors!
  br label %114, !dbg !4515

; <label>:113:                                    ; preds = %108
  br label %114, !dbg !4515

; <label>:114:                                    ; preds = %113, %112
  call void @_ZN14altered_carbon2js9JsVariantD1Ev(%"class.altered_carbon::js::JsVariant"* %8) #8, !dbg !4515
  call void @_ZN14altered_carbon2js9JsVariantC1Ed(%"class.altered_carbon::js::JsVariant"* %9, double 1.000000e+00), !dbg !4516
  %115 = call zeroext i1 @_ZNK14altered_carbon2js9JsVarianteqERKS1_(%"class.altered_carbon::js::JsVariant"* %5, %"class.altered_carbon::js::JsVariant"* dereferenceable(56) %9), !dbg !4516
  %116 = xor i1 %115, true, !dbg !4516
  br i1 %116, label %117, label %119, !dbg !4516

; <label>:117:                                    ; preds = %114
  call void @__assert_rtn(i8* getelementptr inbounds ([7 x i8], [7 x i8]* @__func__._ZN14altered_carbon2js9TestSuite6test10Ev, i32 0, i32 0), i8* getelementptr inbounds ([18 x i8], [18 x i8]* @.str, i32 0, i32 0), i32 228, i8* getelementptr inbounds ([9 x i8], [9 x i8]* @.str.56, i32 0, i32 0)) #7, !dbg !4516
  unreachable, !dbg !4516
                                                  ; No predecessors!
  br label %120, !dbg !4516

; <label>:119:                                    ; preds = %114
  br label %120, !dbg !4516

; <label>:120:                                    ; preds = %119, %118
  call void @_ZN14altered_carbon2js9JsVariantD1Ev(%"class.altered_carbon::js::JsVariant"* %9) #8, !dbg !4516
  call void @_ZN14altered_carbon2js9JsVariantC1Ei(%"class.altered_carbon::js::JsVariant"* %10, i32 1), !dbg !4517
  %121 = call zeroext i1 @_ZNK14altered_carbon2js9JsVarianteqERKS1_(%"class.altered_carbon::js::JsVariant"* %6, %"class.altered_carbon::js::JsVariant"* dereferenceable(56) %10), !dbg !4517
  %122 = xor i1 %121, true, !dbg !4517
  br i1 %122, label %123, label %125, !dbg !4517

; <label>:123:                                    ; preds = %120
  call void @__assert_rtn(i8* getelementptr inbounds ([7 x i8], [7 x i8]* @__func__._ZN14altered_carbon2js9TestSuite6test10Ev, i32 0, i32 0), i8* getelementptr inbounds ([18 x i8], [18 x i8]* @.str, i32 0, i32 0), i32 229, i8* getelementptr inbounds ([7 x i8], [7 x i8]* @.str.57, i32 0, i32 0)) #7, !dbg !4517
  unreachable, !dbg !4517
                                                  ; No predecessors!
  br label %126, !dbg !4517

; <label>:125:                                    ; preds = %120
  br label %126, !dbg !4517

; <label>:126:                                    ; preds = %125, %124
  call void @_ZN14altered_carbon2js9JsVariantD1Ev(%"class.altered_carbon::js::JsVariant"* %10) #8, !dbg !4517
  %127 = call dereferenceable(56) %"class.altered_carbon::js::JsVariant"* @_ZN14altered_carbon2js9JsVariantppEv(%"class.altered_carbon::js::JsVariant"* %3), !dbg !4518
  %128 = call dereferenceable(56) %"class.altered_carbon::js::JsVariant"* @_ZN14altered_carbon2js9JsVariantaSERKS1_(%"class.altered_carbon::js::JsVariant"* %5, %"class.altered_carbon::js::JsVariant"* dereferenceable(56) %127), !dbg !4519
  %129 = call dereferenceable(56) %"class.altered_carbon::js::JsVariant"* @_ZN14altered_carbon2js9JsVariantppEv(%"class.altered_carbon::js::JsVariant"* %4), !dbg !4520
  %130 = call dereferenceable(56) %"class.altered_carbon::js::JsVariant"* @_ZN14altered_carbon2js9JsVariantaSERKS1_(%"class.altered_carbon::js::JsVariant"* %6, %"class.altered_carbon::js::JsVariant"* dereferenceable(56) %129), !dbg !4521
  call void @_ZN14altered_carbon2js9JsVariantC1Ed(%"class.altered_carbon::js::JsVariant"* %11, double 3.000000e+00), !dbg !4522
  %131 = call zeroext i1 @_ZNK14altered_carbon2js9JsVarianteqERKS1_(%"class.altered_carbon::js::JsVariant"* %3, %"class.altered_carbon::js::JsVariant"* dereferenceable(56) %11), !dbg !4522
  %132 = xor i1 %131, true, !dbg !4522
  br i1 %132, label %133, label %135, !dbg !4522

; <label>:133:                                    ; preds = %126
  call void @__assert_rtn(i8* getelementptr inbounds ([7 x i8], [7 x i8]* @__func__._ZN14altered_carbon2js9TestSuite6test10Ev, i32 0, i32 0), i8* getelementptr inbounds ([18 x i8], [18 x i8]* @.str, i32 0, i32 0), i32 232, i8* getelementptr inbounds ([9 x i8], [9 x i8]* @.str.58, i32 0, i32 0)) #7, !dbg !4522
  unreachable, !dbg !4522
                                                  ; No predecessors!
  br label %136, !dbg !4522

; <label>:135:                                    ; preds = %126
  br label %136, !dbg !4522

; <label>:136:                                    ; preds = %135, %134
  call void @_ZN14altered_carbon2js9JsVariantD1Ev(%"class.altered_carbon::js::JsVariant"* %11) #8, !dbg !4522
  call void @_ZN14altered_carbon2js9JsVariantC1Ei(%"class.altered_carbon::js::JsVariant"* %12, i32 3), !dbg !4523
  %137 = call zeroext i1 @_ZNK14altered_carbon2js9JsVarianteqERKS1_(%"class.altered_carbon::js::JsVariant"* %4, %"class.altered_carbon::js::JsVariant"* dereferenceable(56) %12), !dbg !4523
  %138 = xor i1 %137, true, !dbg !4523
  br i1 %138, label %139, label %141, !dbg !4523

; <label>:139:                                    ; preds = %136
  call void @__assert_rtn(i8* getelementptr inbounds ([7 x i8], [7 x i8]* @__func__._ZN14altered_carbon2js9TestSuite6test10Ev, i32 0, i32 0), i8* getelementptr inbounds ([18 x i8], [18 x i8]* @.str, i32 0, i32 0), i32 233, i8* getelementptr inbounds ([7 x i8], [7 x i8]* @.str.59, i32 0, i32 0)) #7, !dbg !4523
  unreachable, !dbg !4523
                                                  ; No predecessors!
  br label %142, !dbg !4523

; <label>:141:                                    ; preds = %136
  br label %142, !dbg !4523

; <label>:142:                                    ; preds = %141, %140
  call void @_ZN14altered_carbon2js9JsVariantD1Ev(%"class.altered_carbon::js::JsVariant"* %12) #8, !dbg !4523
  call void @_ZN14altered_carbon2js9JsVariantC1Ed(%"class.altered_carbon::js::JsVariant"* %13, double 3.000000e+00), !dbg !4524
  %143 = call zeroext i1 @_ZNK14altered_carbon2js9JsVarianteqERKS1_(%"class.altered_carbon::js::JsVariant"* %5, %"class.altered_carbon::js::JsVariant"* dereferenceable(56) %13), !dbg !4524
  %144 = xor i1 %143, true, !dbg !4524
  br i1 %144, label %145, label %147, !dbg !4524

; <label>:145:                                    ; preds = %142
  call void @__assert_rtn(i8* getelementptr inbounds ([7 x i8], [7 x i8]* @__func__._ZN14altered_carbon2js9TestSuite6test10Ev, i32 0, i32 0), i8* getelementptr inbounds ([18 x i8], [18 x i8]* @.str, i32 0, i32 0), i32 234, i8* getelementptr inbounds ([9 x i8], [9 x i8]* @.str.60, i32 0, i32 0)) #7, !dbg !4524
  unreachable, !dbg !4524
                                                  ; No predecessors!
  br label %148, !dbg !4524

; <label>:147:                                    ; preds = %142
  br label %148, !dbg !4524

; <label>:148:                                    ; preds = %147, %146
  call void @_ZN14altered_carbon2js9JsVariantD1Ev(%"class.altered_carbon::js::JsVariant"* %13) #8, !dbg !4524
  call void @_ZN14altered_carbon2js9JsVariantC1Ei(%"class.altered_carbon::js::JsVariant"* %14, i32 3), !dbg !4525
  %149 = call zeroext i1 @_ZNK14altered_carbon2js9JsVarianteqERKS1_(%"class.altered_carbon::js::JsVariant"* %6, %"class.altered_carbon::js::JsVariant"* dereferenceable(56) %14), !dbg !4525
  %150 = xor i1 %149, true, !dbg !4525
  br i1 %150, label %151, label %153, !dbg !4525

; <label>:151:                                    ; preds = %148
  call void @__assert_rtn(i8* getelementptr inbounds ([7 x i8], [7 x i8]* @__func__._ZN14altered_carbon2js9TestSuite6test10Ev, i32 0, i32 0), i8* getelementptr inbounds ([18 x i8], [18 x i8]* @.str, i32 0, i32 0), i32 235, i8* getelementptr inbounds ([7 x i8], [7 x i8]* @.str.61, i32 0, i32 0)) #7, !dbg !4525
  unreachable, !dbg !4525
                                                  ; No predecessors!
  br label %154, !dbg !4525

; <label>:153:                                    ; preds = %148
  br label %154, !dbg !4525

; <label>:154:                                    ; preds = %153, %152
  call void @_ZN14altered_carbon2js9JsVariantD1Ev(%"class.altered_carbon::js::JsVariant"* %14) #8, !dbg !4525
  call void @llvm.dbg.declare(metadata %"class.altered_carbon::js::JsVariant"* %15, metadata !4526, metadata !DIExpression()), !dbg !4527
  call void @_ZN14altered_carbon2js9JsVariantC1ENS1_13JsVariantTypeE(%"class.altered_carbon::js::JsVariant"* %15, i32 1), !dbg !4527
  call void @llvm.dbg.declare(metadata %"class.altered_carbon::js::JsVariant"* %16, metadata !4528, metadata !DIExpression()), !dbg !4529
  %155 = call dereferenceable(56) %"class.altered_carbon::js::JsVariant"* @_ZN14altered_carbon2js9JsVariantppEv(%"class.altered_carbon::js::JsVariant"* %15), !dbg !4530
  call void @_ZN14altered_carbon2js9JsVariantC1ERKS1_(%"class.altered_carbon::js::JsVariant"* %16, %"class.altered_carbon::js::JsVariant"* dereferenceable(56) %155), !dbg !4530
  call void @llvm.dbg.declare(metadata %"class.altered_carbon::js::JsVariant"* %17, metadata !4531, metadata !DIExpression()), !dbg !4532
  call void @_ZN14altered_carbon2js9JsVariantppEi(%"class.altered_carbon::js::JsVariant"* sret %17, %"class.altered_carbon::js::JsVariant"* %15, i32 0), !dbg !4533
  %156 = call zeroext i1 @_ZNK14altered_carbon2js9JsVariant5isNaNEv(%"class.altered_carbon::js::JsVariant"* %15), !dbg !4534
  %157 = xor i1 %156, true, !dbg !4534
  br i1 %157, label %158, label %160, !dbg !4534

; <label>:158:                                    ; preds = %154
  call void @__assert_rtn(i8* getelementptr inbounds ([7 x i8], [7 x i8]* @__func__._ZN14altered_carbon2js9TestSuite6test10Ev, i32 0, i32 0), i8* getelementptr inbounds ([18 x i8], [18 x i8]* @.str, i32 0, i32 0), i32 240, i8* getelementptr inbounds ([10 x i8], [10 x i8]* @.str.22, i32 0, i32 0)) #7, !dbg !4534
  unreachable, !dbg !4534
                                                  ; No predecessors!
  br label %161, !dbg !4534

; <label>:160:                                    ; preds = %154
  br label %161, !dbg !4534

; <label>:161:                                    ; preds = %160, %159
  %162 = call zeroext i1 @_ZNK14altered_carbon2js9JsVariant5isNaNEv(%"class.altered_carbon::js::JsVariant"* %16), !dbg !4535
  %163 = xor i1 %162, true, !dbg !4535
  br i1 %163, label %164, label %166, !dbg !4535

; <label>:164:                                    ; preds = %161
  call void @__assert_rtn(i8* getelementptr inbounds ([7 x i8], [7 x i8]* @__func__._ZN14altered_carbon2js9TestSuite6test10Ev, i32 0, i32 0), i8* getelementptr inbounds ([18 x i8], [18 x i8]* @.str, i32 0, i32 0), i32 241, i8* getelementptr inbounds ([10 x i8], [10 x i8]* @.str.62, i32 0, i32 0)) #7, !dbg !4535
  unreachable, !dbg !4535
                                                  ; No predecessors!
  br label %167, !dbg !4535

; <label>:166:                                    ; preds = %161
  br label %167, !dbg !4535

; <label>:167:                                    ; preds = %166, %165
  %168 = call zeroext i1 @_ZNK14altered_carbon2js9JsVariant5isNaNEv(%"class.altered_carbon::js::JsVariant"* %17), !dbg !4536
  %169 = xor i1 %168, true, !dbg !4536
  br i1 %169, label %170, label %172, !dbg !4536

; <label>:170:                                    ; preds = %167
  call void @__assert_rtn(i8* getelementptr inbounds ([7 x i8], [7 x i8]* @__func__._ZN14altered_carbon2js9TestSuite6test10Ev, i32 0, i32 0), i8* getelementptr inbounds ([18 x i8], [18 x i8]* @.str, i32 0, i32 0), i32 242, i8* getelementptr inbounds ([10 x i8], [10 x i8]* @.str.63, i32 0, i32 0)) #7, !dbg !4536
  unreachable, !dbg !4536
                                                  ; No predecessors!
  br label %173, !dbg !4536

; <label>:172:                                    ; preds = %167
  br label %173, !dbg !4536

; <label>:173:                                    ; preds = %172, %171
  call void @_ZN14altered_carbon2js9JsVariantD1Ev(%"class.altered_carbon::js::JsVariant"* %17) #8, !dbg !4537
  call void @_ZN14altered_carbon2js9JsVariantD1Ev(%"class.altered_carbon::js::JsVariant"* %16) #8, !dbg !4537
  call void @_ZN14altered_carbon2js9JsVariantD1Ev(%"class.altered_carbon::js::JsVariant"* %15) #8, !dbg !4537
  call void @_ZN14altered_carbon2js9JsVariantD1Ev(%"class.altered_carbon::js::JsVariant"* %6) #8, !dbg !4537
  call void @_ZN14altered_carbon2js9JsVariantD1Ev(%"class.altered_carbon::js::JsVariant"* %5) #8, !dbg !4537
  call void @_ZN14altered_carbon2js9JsVariantD1Ev(%"class.altered_carbon::js::JsVariant"* %4) #8, !dbg !4537
  call void @_ZN14altered_carbon2js9JsVariantD1Ev(%"class.altered_carbon::js::JsVariant"* %3) #8, !dbg !4537
  ret void, !dbg !4537
}

