; ModuleID = 'temp.bc'
source_filename = "ac_vm_jsnumber.cc"
target datalayout = "e-m:o-i64:64-f80:128-n8:16:32:64-S128"
target triple = "x86_64-apple-macosx10.13.0"

%"class.altered_carbon::js::ACJsNumber" = type { %"class.altered_carbon::js::ACJsPrimitive" }
%"class.altered_carbon::js::ACJsPrimitive" = type { %"class.altered_carbon::js::ACJsValue.base", %"class.altered_carbon::js::ACLexNumber" }
%"class.altered_carbon::js::ACJsValue.base" = type <{ i32 (...)**, i32 }>
%"class.altered_carbon::js::ACLexNumber" = type { i32 (...)**, i8, %union.anon }
%union.anon = type { double }
%"class.altered_carbon::js::ACJsValue" = type <{ i32 (...)**, i32, [4 x i8] }>
%"class.std::__1::basic_ostream" = type { i32 (...)**, %"class.std::__1::basic_ios.base" }
%"class.std::__1::basic_ios.base" = type <{ %"class.std::__1::ios_base", %"class.std::__1::basic_ostream"*, i32 }>
%"class.std::__1::ios_base" = type { i32 (...)**, i32, i64, i64, i32, i32, i8*, i8*, void (i32, %"class.std::__1::ios_base"*, i32)**, i32*, i64, i64, i64*, i64, i64, i8**, i64, i64 }
%"class.std::__1::auto_ptr" = type { %"class.altered_carbon::js::ACJsValue"* }

@_ZTVN14altered_carbon2js10ACJsNumberE = unnamed_addr constant { [47 x i8*] } { [47 x i8*] [i8* null, i8* bitcast ({ i8*, i8*, i8* }* @_ZTIN14altered_carbon2js10ACJsNumberE to i8*), i8* bitcast (void (%"class.altered_carbon::js::ACJsNumber"*)* @_ZN14altered_carbon2js10ACJsNumberD1Ev to i8*), i8* bitcast (void (%"class.altered_carbon::js::ACJsNumber"*)* @_ZN14altered_carbon2js10ACJsNumberD0Ev to i8*), i8* bitcast (void (%"class.altered_carbon::js::ACJsNumber"*, %"class.std::__1::basic_ostream"*)* @_ZNK14altered_carbon2js10ACJsNumber4dumpERNSt3__113basic_ostreamIcNS2_11char_traitsIcEEEE to i8*), i8* bitcast (i1 (%"class.altered_carbon::js::ACJsNumber"*)* @_ZNK14altered_carbon2js10ACJsNumber5isNaNEv to i8*), i8* bitcast (i1 (%"class.altered_carbon::js::ACJsPrimitive"*)* @_ZNK14altered_carbon2js13ACJsPrimitiveINS0_11ACLexNumberEE10isInfiniteEv to i8*), i8* bitcast (%"class.altered_carbon::js::ACJsValue"* (%"class.altered_carbon::js::ACJsNumber"*, %"class.altered_carbon::js::ACJsValue"*)* @_ZNK14altered_carbon2js10ACJsNumberplERKNS0_9ACJsValueE to i8*), i8* bitcast (%"class.altered_carbon::js::ACJsValue"* (%"class.altered_carbon::js::ACJsNumber"*, %"class.altered_carbon::js::ACJsValue"*)* @_ZNK14altered_carbon2js10ACJsNumbermiERKNS0_9ACJsValueE to i8*), i8* bitcast (%"class.altered_carbon::js::ACJsValue"* (%"class.altered_carbon::js::ACJsNumber"*, %"class.altered_carbon::js::ACJsValue"*)* @_ZNK14altered_carbon2js10ACJsNumbermlERKNS0_9ACJsValueE to i8*), i8* bitcast (%"class.altered_carbon::js::ACJsValue"* (%"class.altered_carbon::js::ACJsNumber"*, %"class.altered_carbon::js::ACJsValue"*)* @_ZNK14altered_carbon2js10ACJsNumberdvERKNS0_9ACJsValueE to i8*), i8* bitcast (%"class.altered_carbon::js::ACJsValue"* (%"class.altered_carbon::js::ACJsNumber"*, %"class.altered_carbon::js::ACJsValue"*)* @_ZNK14altered_carbon2js10ACJsNumberrmERKNS0_9ACJsValueE to i8*), i8* bitcast (%"class.altered_carbon::js::ACJsValue"* (%"class.altered_carbon::js::ACJsNumber"*, %"class.altered_carbon::js::ACJsValue"*)* @_ZNK14altered_carbon2js10ACJsNumbereoERKNS0_9ACJsValueE to i8*), i8* bitcast (%"class.altered_carbon::js::ACJsValue"* (%"class.altered_carbon::js::ACJsNumber"*, %"class.altered_carbon::js::ACJsValue"*)* @_ZNK14altered_carbon2js10ACJsNumberorERKNS0_9ACJsValueE to i8*), i8* bitcast (%"class.altered_carbon::js::ACJsValue"* (%"class.altered_carbon::js::ACJsNumber"*, %"class.altered_carbon::js::ACJsValue"*)* @_ZNK14altered_carbon2js10ACJsNumberanERKNS0_9ACJsValueE to i8*), i8* bitcast (%"class.altered_carbon::js::ACJsValue"* (%"class.altered_carbon::js::ACJsNumber"*, %"class.altered_carbon::js::ACJsValue"*)* @_ZNK14altered_carbon2js10ACJsNumberlsERKNS0_9ACJsValueE to i8*), i8* bitcast (%"class.altered_carbon::js::ACJsValue"* (%"class.altered_carbon::js::ACJsNumber"*, %"class.altered_carbon::js::ACJsValue"*)* @_ZNK14altered_carbon2js10ACJsNumberrsERKNS0_9ACJsValueE to i8*), i8* bitcast (%"class.altered_carbon::js::ACJsValue"* (%"class.altered_carbon::js::ACJsNumber"*, %"class.altered_carbon::js::ACJsValue"*)* @_ZN14altered_carbon2js10ACJsNumberpLERKNS0_9ACJsValueE to i8*), i8* bitcast (%"class.altered_carbon::js::ACJsValue"* (%"class.altered_carbon::js::ACJsNumber"*, %"class.altered_carbon::js::ACJsValue"*)* @_ZN14altered_carbon2js10ACJsNumbermIERKNS0_9ACJsValueE to i8*), i8* bitcast (%"class.altered_carbon::js::ACJsValue"* (%"class.altered_carbon::js::ACJsNumber"*, %"class.altered_carbon::js::ACJsValue"*)* @_ZN14altered_carbon2js10ACJsNumbermLERKNS0_9ACJsValueE to i8*), i8* bitcast (%"class.altered_carbon::js::ACJsValue"* (%"class.altered_carbon::js::ACJsNumber"*, %"class.altered_carbon::js::ACJsValue"*)* @_ZN14altered_carbon2js10ACJsNumberdVERKNS0_9ACJsValueE to i8*), i8* bitcast (%"class.altered_carbon::js::ACJsValue"* (%"class.altered_carbon::js::ACJsNumber"*, %"class.altered_carbon::js::ACJsValue"*)* @_ZN14altered_carbon2js10ACJsNumberrMERKNS0_9ACJsValueE to i8*), i8* bitcast (%"class.altered_carbon::js::ACJsValue"* (%"class.altered_carbon::js::ACJsNumber"*, %"class.altered_carbon::js::ACJsValue"*)* @_ZN14altered_carbon2js10ACJsNumbereOERKNS0_9ACJsValueE to i8*), i8* bitcast (%"class.altered_carbon::js::ACJsValue"* (%"class.altered_carbon::js::ACJsNumber"*, %"class.altered_carbon::js::ACJsValue"*)* @_ZN14altered_carbon2js10ACJsNumberoRERKNS0_9ACJsValueE to i8*), i8* bitcast (%"class.altered_carbon::js::ACJsValue"* (%"class.altered_carbon::js::ACJsNumber"*, %"class.altered_carbon::js::ACJsValue"*)* @_ZN14altered_carbon2js10ACJsNumberaNERKNS0_9ACJsValueE to i8*), i8* bitcast (%"class.altered_carbon::js::ACJsValue"* (%"class.altered_carbon::js::ACJsNumber"*, %"class.altered_carbon::js::ACJsValue"*)* @_ZN14altered_carbon2js10ACJsNumberrSERKNS0_9ACJsValueE to i8*), i8* bitcast (%"class.altered_carbon::js::ACJsValue"* (%"class.altered_carbon::js::ACJsNumber"*, %"class.altered_carbon::js::ACJsValue"*)* @_ZN14altered_carbon2js10ACJsNumberlSERKNS0_9ACJsValueE to i8*), i8* bitcast (i1 (%"class.altered_carbon::js::ACJsNumber"*, %"class.altered_carbon::js::ACJsValue"*)* @_ZNK14altered_carbon2js10ACJsNumbereqERKNS0_9ACJsValueE to i8*), i8* bitcast (i1 (%"class.altered_carbon::js::ACJsNumber"*, %"class.altered_carbon::js::ACJsValue"*)* @_ZNK14altered_carbon2js10ACJsNumberneERKNS0_9ACJsValueE to i8*), i8* bitcast (i1 (%"class.altered_carbon::js::ACJsNumber"*, %"class.altered_carbon::js::ACJsValue"*)* @_ZNK14altered_carbon2js10ACJsNumbergtERKNS0_9ACJsValueE to i8*), i8* bitcast (i1 (%"class.altered_carbon::js::ACJsNumber"*, %"class.altered_carbon::js::ACJsValue"*)* @_ZNK14altered_carbon2js10ACJsNumberltERKNS0_9ACJsValueE to i8*), i8* bitcast (i1 (%"class.altered_carbon::js::ACJsNumber"*, %"class.altered_carbon::js::ACJsValue"*)* @_ZNK14altered_carbon2js10ACJsNumbergeERKNS0_9ACJsValueE to i8*), i8* bitcast (i1 (%"class.altered_carbon::js::ACJsNumber"*, %"class.altered_carbon::js::ACJsValue"*)* @_ZNK14altered_carbon2js10ACJsNumberleERKNS0_9ACJsValueE to i8*), i8* bitcast (%"class.altered_carbon::js::ACJsValue"* (%"class.altered_carbon::js::ACJsNumber"*, %"class.altered_carbon::js::ACJsValue"*)* @_ZNK14altered_carbon2js10ACJsNumber3rszERKNS0_9ACJsValueE to i8*), i8* bitcast (%"class.altered_carbon::js::ACJsValue"* (%"class.altered_carbon::js::ACJsNumber"*, %"class.altered_carbon::js::ACJsValue"*)* @_ZN14altered_carbon2js10ACJsNumber4arszERKNS0_9ACJsValueE to i8*), i8* bitcast (i1 (%"class.altered_carbon::js::ACJsNumber"*, %"class.altered_carbon::js::ACJsValue"*)* @_ZNK14altered_carbon2js10ACJsNumber4eqvtERKNS0_9ACJsValueE to i8*), i8* bitcast (i1 (%"class.altered_carbon::js::ACJsValue"*, %"class.altered_carbon::js::ACJsValue"*)* @_ZNK14altered_carbon2js9ACJsValue5neqvtERKS1_ to i8*), i8* bitcast (%"class.altered_carbon::js::ACJsValue"* (%"class.altered_carbon::js::ACJsValue"*)* @_ZN14altered_carbon2js9ACJsValueppEv to i8*), i8* bitcast (%"class.altered_carbon::js::ACJsValue"* (%"class.altered_carbon::js::ACJsValue"*)* @_ZN14altered_carbon2js9ACJsValuemmEv to i8*), i8* bitcast (void (%"class.altered_carbon::js::ACJsValue"*, %"class.altered_carbon::js::ACJsValue"*, i32)* @_ZN14altered_carbon2js9ACJsValueppEi to i8*), i8* bitcast (void (%"class.altered_carbon::js::ACJsValue"*, %"class.altered_carbon::js::ACJsValue"*, i32)* @_ZN14altered_carbon2js9ACJsValuemmEi to i8*), i8* bitcast (%"class.altered_carbon::js::ACJsValue"* (%"class.altered_carbon::js::ACJsNumber"*, %"class.altered_carbon::js::ACJsValue"*)* @_ZN14altered_carbon2js10ACJsNumberaSERKNS0_9ACJsValueE to i8*), i8* bitcast (%"class.altered_carbon::js::ACJsValue"* (%"class.altered_carbon::js::ACJsNumber"*, i1)* @_ZN14altered_carbon2js10ACJsNumberaSEb to i8*), i8* bitcast (i1 (%"class.altered_carbon::js::ACJsNumber"*)* @_ZNK14altered_carbon2js10ACJsNumber9asBooleanEv to i8*), i8* bitcast (%"class.altered_carbon::js::ACJsValue"* (%"class.altered_carbon::js::ACJsNumber"*)* @_ZNK14altered_carbon2js10ACJsNumber8asNumberEv to i8*), i8* bitcast (%"class.altered_carbon::js::ACJsValue"* (%"class.altered_carbon::js::ACJsPrimitive"*)* @_ZNK14altered_carbon2js13ACJsPrimitiveINS0_11ACLexNumberEE8asRegExpEv to i8*), i8* bitcast (%"class.altered_carbon::js::ACJsValue"* (%"class.altered_carbon::js::ACJsPrimitive"*)* @_ZNK14altered_carbon2js13ACJsPrimitiveINS0_11ACLexNumberEE8asStringEv to i8*)] }, align 8
@.str = private unnamed_addr constant [1 x i8] zeroinitializer, align 1
@_ZTVN10__cxxabiv120__si_class_type_infoE = external global i8*
@_ZTSN14altered_carbon2js10ACJsNumberE = constant [34 x i8] c"N14altered_carbon2js10ACJsNumberE\00"
@_ZTSN14altered_carbon2js13ACJsPrimitiveINS0_11ACLexNumberEEE = linkonce_odr constant [57 x i8] c"N14altered_carbon2js13ACJsPrimitiveINS0_11ACLexNumberEEE\00"
@_ZTIN14altered_carbon2js9ACJsValueE = external constant i8*
@_ZTIN14altered_carbon2js13ACJsPrimitiveINS0_11ACLexNumberEEE = linkonce_odr constant { i8*, i8*, i8* } { i8* bitcast (i8** getelementptr inbounds (i8*, i8** @_ZTVN10__cxxabiv120__si_class_type_infoE, i64 2) to i8*), i8* getelementptr inbounds ([57 x i8], [57 x i8]* @_ZTSN14altered_carbon2js13ACJsPrimitiveINS0_11ACLexNumberEEE, i32 0, i32 0), i8* bitcast (i8** @_ZTIN14altered_carbon2js9ACJsValueE to i8*) }
@_ZTIN14altered_carbon2js10ACJsNumberE = constant { i8*, i8*, i8* } { i8* bitcast (i8** getelementptr inbounds (i8*, i8** @_ZTVN10__cxxabiv120__si_class_type_infoE, i64 2) to i8*), i8* getelementptr inbounds ([34 x i8], [34 x i8]* @_ZTSN14altered_carbon2js10ACJsNumberE, i32 0, i32 0), i8* bitcast ({ i8*, i8*, i8* }* @_ZTIN14altered_carbon2js13ACJsPrimitiveINS0_11ACLexNumberEEE to i8*) }
@_ZTVN14altered_carbon2js11ACLexNumberE = linkonce_odr unnamed_addr constant { [4 x i8*] } { [4 x i8*] [i8* null, i8* bitcast ({ i8*, i8* }* @_ZTIN14altered_carbon2js11ACLexNumberE to i8*), i8* bitcast (void (%"class.altered_carbon::js::ACLexNumber"*)* @_ZN14altered_carbon2js11ACLexNumberD1Ev to i8*), i8* bitcast (void (%"class.altered_carbon::js::ACLexNumber"*)* @_ZN14altered_carbon2js11ACLexNumberD0Ev to i8*)] }, align 8
@_ZTVN10__cxxabiv117__class_type_infoE = external global i8*
@_ZTSN14altered_carbon2js11ACLexNumberE = linkonce_odr constant [35 x i8] c"N14altered_carbon2js11ACLexNumberE\00"
@_ZTIN14altered_carbon2js11ACLexNumberE = linkonce_odr constant { i8*, i8* } { i8* bitcast (i8** getelementptr inbounds (i8*, i8** @_ZTVN10__cxxabiv117__class_type_infoE, i64 2) to i8*), i8* getelementptr inbounds ([35 x i8], [35 x i8]* @_ZTSN14altered_carbon2js11ACLexNumberE, i32 0, i32 0) }
@_ZTVN14altered_carbon2js13ACJsPrimitiveINS0_11ACLexNumberEEE = linkonce_odr unnamed_addr constant { [47 x i8*] } { [47 x i8*] [i8* null, i8* bitcast ({ i8*, i8*, i8* }* @_ZTIN14altered_carbon2js13ACJsPrimitiveINS0_11ACLexNumberEEE to i8*), i8* bitcast (void (%"class.altered_carbon::js::ACJsPrimitive"*)* @_ZN14altered_carbon2js13ACJsPrimitiveINS0_11ACLexNumberEED1Ev to i8*), i8* bitcast (void (%"class.altered_carbon::js::ACJsPrimitive"*)* @_ZN14altered_carbon2js13ACJsPrimitiveINS0_11ACLexNumberEED0Ev to i8*), i8* bitcast (void (%"class.altered_carbon::js::ACJsValue"*, %"class.std::__1::basic_ostream"*)* @_ZNK14altered_carbon2js9ACJsValue4dumpERNSt3__113basic_ostreamIcNS2_11char_traitsIcEEEE to i8*), i8* bitcast (i1 (%"class.altered_carbon::js::ACJsPrimitive"*)* @_ZNK14altered_carbon2js13ACJsPrimitiveINS0_11ACLexNumberEE5isNaNEv to i8*), i8* bitcast (i1 (%"class.altered_carbon::js::ACJsPrimitive"*)* @_ZNK14altered_carbon2js13ACJsPrimitiveINS0_11ACLexNumberEE10isInfiniteEv to i8*), i8* bitcast (%"class.altered_carbon::js::ACJsValue"* (%"class.altered_carbon::js::ACJsValue"*, %"class.altered_carbon::js::ACJsValue"*)* @_ZNK14altered_carbon2js9ACJsValueplERKS1_ to i8*), i8* bitcast (%"class.altered_carbon::js::ACJsValue"* (%"class.altered_carbon::js::ACJsValue"*, %"class.altered_carbon::js::ACJsValue"*)* @_ZNK14altered_carbon2js9ACJsValuemiERKS1_ to i8*), i8* bitcast (%"class.altered_carbon::js::ACJsValue"* (%"class.altered_carbon::js::ACJsValue"*, %"class.altered_carbon::js::ACJsValue"*)* @_ZNK14altered_carbon2js9ACJsValuemlERKS1_ to i8*), i8* bitcast (%"class.altered_carbon::js::ACJsValue"* (%"class.altered_carbon::js::ACJsValue"*, %"class.altered_carbon::js::ACJsValue"*)* @_ZNK14altered_carbon2js9ACJsValuedvERKS1_ to i8*), i8* bitcast (%"class.altered_carbon::js::ACJsValue"* (%"class.altered_carbon::js::ACJsValue"*, %"class.altered_carbon::js::ACJsValue"*)* @_ZNK14altered_carbon2js9ACJsValuermERKS1_ to i8*), i8* bitcast (%"class.altered_carbon::js::ACJsValue"* (%"class.altered_carbon::js::ACJsValue"*, %"class.altered_carbon::js::ACJsValue"*)* @_ZNK14altered_carbon2js9ACJsValueeoERKS1_ to i8*), i8* bitcast (%"class.altered_carbon::js::ACJsValue"* (%"class.altered_carbon::js::ACJsValue"*, %"class.altered_carbon::js::ACJsValue"*)* @_ZNK14altered_carbon2js9ACJsValueorERKS1_ to i8*), i8* bitcast (%"class.altered_carbon::js::ACJsValue"* (%"class.altered_carbon::js::ACJsValue"*, %"class.altered_carbon::js::ACJsValue"*)* @_ZNK14altered_carbon2js9ACJsValueanERKS1_ to i8*), i8* bitcast (%"class.altered_carbon::js::ACJsValue"* (%"class.altered_carbon::js::ACJsValue"*, %"class.altered_carbon::js::ACJsValue"*)* @_ZNK14altered_carbon2js9ACJsValuelsERKS1_ to i8*), i8* bitcast (%"class.altered_carbon::js::ACJsValue"* (%"class.altered_carbon::js::ACJsValue"*, %"class.altered_carbon::js::ACJsValue"*)* @_ZNK14altered_carbon2js9ACJsValuersERKS1_ to i8*), i8* bitcast (%"class.altered_carbon::js::ACJsValue"* (%"class.altered_carbon::js::ACJsValue"*, %"class.altered_carbon::js::ACJsValue"*)* @_ZN14altered_carbon2js9ACJsValuepLERKS1_ to i8*), i8* bitcast (%"class.altered_carbon::js::ACJsValue"* (%"class.altered_carbon::js::ACJsValue"*, %"class.altered_carbon::js::ACJsValue"*)* @_ZN14altered_carbon2js9ACJsValuemIERKS1_ to i8*), i8* bitcast (%"class.altered_carbon::js::ACJsValue"* (%"class.altered_carbon::js::ACJsValue"*, %"class.altered_carbon::js::ACJsValue"*)* @_ZN14altered_carbon2js9ACJsValuemLERKS1_ to i8*), i8* bitcast (%"class.altered_carbon::js::ACJsValue"* (%"class.altered_carbon::js::ACJsValue"*, %"class.altered_carbon::js::ACJsValue"*)* @_ZN14altered_carbon2js9ACJsValuedVERKS1_ to i8*), i8* bitcast (%"class.altered_carbon::js::ACJsValue"* (%"class.altered_carbon::js::ACJsValue"*, %"class.altered_carbon::js::ACJsValue"*)* @_ZN14altered_carbon2js9ACJsValuerMERKS1_ to i8*), i8* bitcast (%"class.altered_carbon::js::ACJsValue"* (%"class.altered_carbon::js::ACJsValue"*, %"class.altered_carbon::js::ACJsValue"*)* @_ZN14altered_carbon2js9ACJsValueeOERKS1_ to i8*), i8* bitcast (%"class.altered_carbon::js::ACJsValue"* (%"class.altered_carbon::js::ACJsValue"*, %"class.altered_carbon::js::ACJsValue"*)* @_ZN14altered_carbon2js9ACJsValueoRERKS1_ to i8*), i8* bitcast (%"class.altered_carbon::js::ACJsValue"* (%"class.altered_carbon::js::ACJsValue"*, %"class.altered_carbon::js::ACJsValue"*)* @_ZN14altered_carbon2js9ACJsValueaNERKS1_ to i8*), i8* bitcast (%"class.altered_carbon::js::ACJsValue"* (%"class.altered_carbon::js::ACJsValue"*, %"class.altered_carbon::js::ACJsValue"*)* @_ZN14altered_carbon2js9ACJsValuerSERKS1_ to i8*), i8* bitcast (%"class.altered_carbon::js::ACJsValue"* (%"class.altered_carbon::js::ACJsValue"*, %"class.altered_carbon::js::ACJsValue"*)* @_ZN14altered_carbon2js9ACJsValuelSERKS1_ to i8*), i8* bitcast (i1 (%"class.altered_carbon::js::ACJsValue"*, %"class.altered_carbon::js::ACJsValue"*)* @_ZNK14altered_carbon2js9ACJsValueeqERKS1_ to i8*), i8* bitcast (i1 (%"class.altered_carbon::js::ACJsValue"*, %"class.altered_carbon::js::ACJsValue"*)* @_ZNK14altered_carbon2js9ACJsValueneERKS1_ to i8*), i8* bitcast (i1 (%"class.altered_carbon::js::ACJsValue"*, %"class.altered_carbon::js::ACJsValue"*)* @_ZNK14altered_carbon2js9ACJsValuegtERKS1_ to i8*), i8* bitcast (i1 (%"class.altered_carbon::js::ACJsValue"*, %"class.altered_carbon::js::ACJsValue"*)* @_ZNK14altered_carbon2js9ACJsValueltERKS1_ to i8*), i8* bitcast (i1 (%"class.altered_carbon::js::ACJsValue"*, %"class.altered_carbon::js::ACJsValue"*)* @_ZNK14altered_carbon2js9ACJsValuegeERKS1_ to i8*), i8* bitcast (i1 (%"class.altered_carbon::js::ACJsValue"*, %"class.altered_carbon::js::ACJsValue"*)* @_ZNK14altered_carbon2js9ACJsValueleERKS1_ to i8*), i8* bitcast (%"class.altered_carbon::js::ACJsValue"* (%"class.altered_carbon::js::ACJsValue"*, %"class.altered_carbon::js::ACJsValue"*)* @_ZNK14altered_carbon2js9ACJsValue3rszERKS1_ to i8*), i8* bitcast (%"class.altered_carbon::js::ACJsValue"* (%"class.altered_carbon::js::ACJsValue"*, %"class.altered_carbon::js::ACJsValue"*)* @_ZN14altered_carbon2js9ACJsValue4arszERKS1_ to i8*), i8* bitcast (i1 (%"class.altered_carbon::js::ACJsValue"*, %"class.altered_carbon::js::ACJsValue"*)* @_ZNK14altered_carbon2js9ACJsValue4eqvtERKS1_ to i8*), i8* bitcast (i1 (%"class.altered_carbon::js::ACJsValue"*, %"class.altered_carbon::js::ACJsValue"*)* @_ZNK14altered_carbon2js9ACJsValue5neqvtERKS1_ to i8*), i8* bitcast (%"class.altered_carbon::js::ACJsValue"* (%"class.altered_carbon::js::ACJsValue"*)* @_ZN14altered_carbon2js9ACJsValueppEv to i8*), i8* bitcast (%"class.altered_carbon::js::ACJsValue"* (%"class.altered_carbon::js::ACJsValue"*)* @_ZN14altered_carbon2js9ACJsValuemmEv to i8*), i8* bitcast (void (%"class.altered_carbon::js::ACJsValue"*, %"class.altered_carbon::js::ACJsValue"*, i32)* @_ZN14altered_carbon2js9ACJsValueppEi to i8*), i8* bitcast (void (%"class.altered_carbon::js::ACJsValue"*, %"class.altered_carbon::js::ACJsValue"*, i32)* @_ZN14altered_carbon2js9ACJsValuemmEi to i8*), i8* bitcast (%"class.altered_carbon::js::ACJsValue"* (%"class.altered_carbon::js::ACJsPrimitive"*, %"class.altered_carbon::js::ACJsValue"*)* @_ZN14altered_carbon2js13ACJsPrimitiveINS0_11ACLexNumberEEaSERKNS0_9ACJsValueE to i8*), i8* bitcast (%"class.altered_carbon::js::ACJsValue"* (%"class.altered_carbon::js::ACJsPrimitive"*, i1)* @_ZN14altered_carbon2js13ACJsPrimitiveINS0_11ACLexNumberEEaSEb to i8*), i8* bitcast (i1 (%"class.altered_carbon::js::ACJsPrimitive"*)* @_ZNK14altered_carbon2js13ACJsPrimitiveINS0_11ACLexNumberEE9asBooleanEv to i8*), i8* bitcast (%"class.altered_carbon::js::ACJsValue"* (%"class.altered_carbon::js::ACJsPrimitive"*)* @_ZNK14altered_carbon2js13ACJsPrimitiveINS0_11ACLexNumberEE8asNumberEv to i8*), i8* bitcast (%"class.altered_carbon::js::ACJsValue"* (%"class.altered_carbon::js::ACJsPrimitive"*)* @_ZNK14altered_carbon2js13ACJsPrimitiveINS0_11ACLexNumberEE8asRegExpEv to i8*), i8* bitcast (%"class.altered_carbon::js::ACJsValue"* (%"class.altered_carbon::js::ACJsPrimitive"*)* @_ZNK14altered_carbon2js13ACJsPrimitiveINS0_11ACLexNumberEE8asStringEv to i8*)] }, align 8
@_ZTVN14altered_carbon2js9ACJsValueE = external unnamed_addr constant { [47 x i8*] }
@__func__._ZN14altered_carbon2js13ACJsPrimitiveINS0_11ACLexNumberEEaSEb = private unnamed_addr constant [10 x i8] c"operator=\00", align 1
@.str.1 = private unnamed_addr constant [22 x i8] c"./ac_vm_jsprimitive.h\00", align 1
@.str.2 = private unnamed_addr constant [6 x i8] c"false\00", align 1

; Function Attrs: noinline nounwind optnone ssp uwtable
define void @_ZN14altered_carbon2js10ACJsNumberC2EPKNS0_11ACLexNumberE(%"class.altered_carbon::js::ACJsNumber"*, %"class.altered_carbon::js::ACLexNumber"*) unnamed_addr #0 align 2 !dbg !3161 {
  %3 = alloca %"class.altered_carbon::js::ACJsNumber"*, align 8
  %4 = alloca %"class.altered_carbon::js::ACLexNumber"*, align 8
  store %"class.altered_carbon::js::ACJsNumber"* %0, %"class.altered_carbon::js::ACJsNumber"** %3, align 8
  call void @llvm.dbg.declare(metadata %"class.altered_carbon::js::ACJsNumber"** %3, metadata !3162, metadata !DIExpression()), !dbg !3164
  store %"class.altered_carbon::js::ACLexNumber"* %1, %"class.altered_carbon::js::ACLexNumber"** %4, align 8
  call void @llvm.dbg.declare(metadata %"class.altered_carbon::js::ACLexNumber"** %4, metadata !3165, metadata !DIExpression()), !dbg !3166
  %5 = load %"class.altered_carbon::js::ACJsNumber"*, %"class.altered_carbon::js::ACJsNumber"** %3, align 8
  %6 = bitcast %"class.altered_carbon::js::ACJsNumber"* %5 to %"class.altered_carbon::js::ACJsPrimitive"*, !dbg !3167
  call void @_ZN14altered_carbon2js13ACJsPrimitiveINS0_11ACLexNumberEEC2ENS0_9ACJsValue11JsValueTypeE(%"class.altered_carbon::js::ACJsPrimitive"* %6, i32 2), !dbg !3168
  %7 = bitcast %"class.altered_carbon::js::ACJsNumber"* %5 to i32 (...)***, !dbg !3167
  store i32 (...)** bitcast (i8** getelementptr inbounds ({ [47 x i8*] }, { [47 x i8*] }* @_ZTVN14altered_carbon2js10ACJsNumberE, i32 0, inrange i32 0, i32 2) to i32 (...)**), i32 (...)*** %7, align 8, !dbg !3167
  %8 = load %"class.altered_carbon::js::ACLexNumber"*, %"class.altered_carbon::js::ACLexNumber"** %4, align 8, !dbg !3169
  %9 = icmp ne %"class.altered_carbon::js::ACLexNumber"* %8, null, !dbg !3169
  br i1 %9, label %10, label %15, !dbg !3172

; <label>:10:                                     ; preds = %2
  %11 = load %"class.altered_carbon::js::ACLexNumber"*, %"class.altered_carbon::js::ACLexNumber"** %4, align 8, !dbg !3173
  %12 = bitcast %"class.altered_carbon::js::ACJsNumber"* %5 to %"class.altered_carbon::js::ACJsPrimitive"*, !dbg !3175
  %13 = getelementptr inbounds %"class.altered_carbon::js::ACJsPrimitive", %"class.altered_carbon::js::ACJsPrimitive"* %12, i32 0, i32 1, !dbg !3175
  %14 = call dereferenceable(24) %"class.altered_carbon::js::ACLexNumber"* @_ZN14altered_carbon2js11ACLexNumberaSERKS1_(%"class.altered_carbon::js::ACLexNumber"* %13, %"class.altered_carbon::js::ACLexNumber"* dereferenceable(24) %11), !dbg !3176
  br label %15, !dbg !3177

; <label>:15:                                     ; preds = %10, %2
  ret void, !dbg !3178
}

; Function Attrs: nounwind readnone speculatable
declare void @llvm.dbg.declare(metadata, metadata, metadata) #1

; Function Attrs: noinline nounwind optnone ssp uwtable
define linkonce_odr hidden void @_ZN14altered_carbon2js13ACJsPrimitiveINS0_11ACLexNumberEEC2ENS0_9ACJsValue11JsValueTypeE(%"class.altered_carbon::js::ACJsPrimitive"*, i32) unnamed_addr #0 align 2 !dbg !3179 {
  %3 = alloca %"class.altered_carbon::js::ACJsPrimitive"*, align 8
  %4 = alloca i32, align 4
  store %"class.altered_carbon::js::ACJsPrimitive"* %0, %"class.altered_carbon::js::ACJsPrimitive"** %3, align 8
  call void @llvm.dbg.declare(metadata %"class.altered_carbon::js::ACJsPrimitive"** %3, metadata !3180, metadata !DIExpression()), !dbg !3182
  store i32 %1, i32* %4, align 4
  call void @llvm.dbg.declare(metadata i32* %4, metadata !3183, metadata !DIExpression()), !dbg !3184
  %5 = load %"class.altered_carbon::js::ACJsPrimitive"*, %"class.altered_carbon::js::ACJsPrimitive"** %3, align 8
  %6 = bitcast %"class.altered_carbon::js::ACJsPrimitive"* %5 to %"class.altered_carbon::js::ACJsValue"*, !dbg !3185
  %7 = load i32, i32* %4, align 4, !dbg !3186
  call void @_ZN14altered_carbon2js9ACJsValueC2ENS1_11JsValueTypeE(%"class.altered_carbon::js::ACJsValue"* %6, i32 %7), !dbg !3187
  %8 = bitcast %"class.altered_carbon::js::ACJsPrimitive"* %5 to i32 (...)***, !dbg !3185
  store i32 (...)** bitcast (i8** getelementptr inbounds ({ [47 x i8*] }, { [47 x i8*] }* @_ZTVN14altered_carbon2js13ACJsPrimitiveINS0_11ACLexNumberEEE, i32 0, inrange i32 0, i32 2) to i32 (...)**), i32 (...)*** %8, align 8, !dbg !3185
  %9 = getelementptr inbounds %"class.altered_carbon::js::ACJsPrimitive", %"class.altered_carbon::js::ACJsPrimitive"* %5, i32 0, i32 1, !dbg !3188
  call void @_ZN14altered_carbon2js11ACLexNumberC1Ev(%"class.altered_carbon::js::ACLexNumber"* %9), !dbg !3188
  ret void, !dbg !3189
}

declare dereferenceable(24) %"class.altered_carbon::js::ACLexNumber"* @_ZN14altered_carbon2js11ACLexNumberaSERKS1_(%"class.altered_carbon::js::ACLexNumber"*, %"class.altered_carbon::js::ACLexNumber"* dereferenceable(24)) #2

; Function Attrs: noinline nounwind optnone ssp uwtable
define void @_ZN14altered_carbon2js10ACJsNumberC1EPKNS0_11ACLexNumberE(%"class.altered_carbon::js::ACJsNumber"*, %"class.altered_carbon::js::ACLexNumber"*) unnamed_addr #0 align 2 !dbg !3190 {
  %3 = alloca %"class.altered_carbon::js::ACJsNumber"*, align 8
  %4 = alloca %"class.altered_carbon::js::ACLexNumber"*, align 8
  store %"class.altered_carbon::js::ACJsNumber"* %0, %"class.altered_carbon::js::ACJsNumber"** %3, align 8
  call void @llvm.dbg.declare(metadata %"class.altered_carbon::js::ACJsNumber"** %3, metadata !3191, metadata !DIExpression()), !dbg !3192
  store %"class.altered_carbon::js::ACLexNumber"* %1, %"class.altered_carbon::js::ACLexNumber"** %4, align 8
  call void @llvm.dbg.declare(metadata %"class.altered_carbon::js::ACLexNumber"** %4, metadata !3193, metadata !DIExpression()), !dbg !3194
  %5 = load %"class.altered_carbon::js::ACJsNumber"*, %"class.altered_carbon::js::ACJsNumber"** %3, align 8
  %6 = load %"class.altered_carbon::js::ACLexNumber"*, %"class.altered_carbon::js::ACLexNumber"** %4, align 8, !dbg !3195
  call void @_ZN14altered_carbon2js10ACJsNumberC2EPKNS0_11ACLexNumberE(%"class.altered_carbon::js::ACJsNumber"* %5, %"class.altered_carbon::js::ACLexNumber"* %6), !dbg !3195
  ret void, !dbg !3196
}

; Function Attrs: noinline nounwind optnone ssp uwtable
define void @_ZN14altered_carbon2js10ACJsNumberC2ERKNS0_11ACLexNumberE(%"class.altered_carbon::js::ACJsNumber"*, %"class.altered_carbon::js::ACLexNumber"* dereferenceable(24)) unnamed_addr #0 align 2 !dbg !3197 {
  %3 = alloca %"class.altered_carbon::js::ACJsNumber"*, align 8
  %4 = alloca %"class.altered_carbon::js::ACLexNumber"*, align 8
  store %"class.altered_carbon::js::ACJsNumber"* %0, %"class.altered_carbon::js::ACJsNumber"** %3, align 8
  call void @llvm.dbg.declare(metadata %"class.altered_carbon::js::ACJsNumber"** %3, metadata !3198, metadata !DIExpression()), !dbg !3199
  store %"class.altered_carbon::js::ACLexNumber"* %1, %"class.altered_carbon::js::ACLexNumber"** %4, align 8
  call void @llvm.dbg.declare(metadata %"class.altered_carbon::js::ACLexNumber"** %4, metadata !3200, metadata !DIExpression()), !dbg !3201
  %5 = load %"class.altered_carbon::js::ACJsNumber"*, %"class.altered_carbon::js::ACJsNumber"** %3, align 8
  %6 = bitcast %"class.altered_carbon::js::ACJsNumber"* %5 to %"class.altered_carbon::js::ACJsPrimitive"*, !dbg !3202
  call void @_ZN14altered_carbon2js13ACJsPrimitiveINS0_11ACLexNumberEEC2ENS0_9ACJsValue11JsValueTypeE(%"class.altered_carbon::js::ACJsPrimitive"* %6, i32 2), !dbg !3203
  %7 = bitcast %"class.altered_carbon::js::ACJsNumber"* %5 to i32 (...)***, !dbg !3202
  store i32 (...)** bitcast (i8** getelementptr inbounds ({ [47 x i8*] }, { [47 x i8*] }* @_ZTVN14altered_carbon2js10ACJsNumberE, i32 0, inrange i32 0, i32 2) to i32 (...)**), i32 (...)*** %7, align 8, !dbg !3202
  %8 = load %"class.altered_carbon::js::ACLexNumber"*, %"class.altered_carbon::js::ACLexNumber"** %4, align 8, !dbg !3204
  %9 = bitcast %"class.altered_carbon::js::ACJsNumber"* %5 to %"class.altered_carbon::js::ACJsPrimitive"*, !dbg !3206
  %10 = getelementptr inbounds %"class.altered_carbon::js::ACJsPrimitive", %"class.altered_carbon::js::ACJsPrimitive"* %9, i32 0, i32 1, !dbg !3206
  %11 = call dereferenceable(24) %"class.altered_carbon::js::ACLexNumber"* @_ZN14altered_carbon2js11ACLexNumberaSERKS1_(%"class.altered_carbon::js::ACLexNumber"* %10, %"class.altered_carbon::js::ACLexNumber"* dereferenceable(24) %8), !dbg !3207
  ret void, !dbg !3208
}

; Function Attrs: noinline nounwind optnone ssp uwtable
define void @_ZN14altered_carbon2js10ACJsNumberC1ERKNS0_11ACLexNumberE(%"class.altered_carbon::js::ACJsNumber"*, %"class.altered_carbon::js::ACLexNumber"* dereferenceable(24)) unnamed_addr #0 align 2 !dbg !3209 {
  %3 = alloca %"class.altered_carbon::js::ACJsNumber"*, align 8
  %4 = alloca %"class.altered_carbon::js::ACLexNumber"*, align 8
  store %"class.altered_carbon::js::ACJsNumber"* %0, %"class.altered_carbon::js::ACJsNumber"** %3, align 8
  call void @llvm.dbg.declare(metadata %"class.altered_carbon::js::ACJsNumber"** %3, metadata !3210, metadata !DIExpression()), !dbg !3211
  store %"class.altered_carbon::js::ACLexNumber"* %1, %"class.altered_carbon::js::ACLexNumber"** %4, align 8
  call void @llvm.dbg.declare(metadata %"class.altered_carbon::js::ACLexNumber"** %4, metadata !3212, metadata !DIExpression()), !dbg !3213
  %5 = load %"class.altered_carbon::js::ACJsNumber"*, %"class.altered_carbon::js::ACJsNumber"** %3, align 8
  %6 = load %"class.altered_carbon::js::ACLexNumber"*, %"class.altered_carbon::js::ACLexNumber"** %4, align 8, !dbg !3214
  call void @_ZN14altered_carbon2js10ACJsNumberC2ERKNS0_11ACLexNumberE(%"class.altered_carbon::js::ACJsNumber"* %5, %"class.altered_carbon::js::ACLexNumber"* dereferenceable(24) %6), !dbg !3214
  ret void, !dbg !3215
}

; Function Attrs: noinline nounwind optnone ssp uwtable
define void @_ZN14altered_carbon2js10ACJsNumberC2Ex(%"class.altered_carbon::js::ACJsNumber"*, i64) unnamed_addr #0 align 2 !dbg !3216 {
  %3 = alloca %"class.altered_carbon::js::ACJsNumber"*, align 8
  %4 = alloca i64, align 8
  store %"class.altered_carbon::js::ACJsNumber"* %0, %"class.altered_carbon::js::ACJsNumber"** %3, align 8
  call void @llvm.dbg.declare(metadata %"class.altered_carbon::js::ACJsNumber"** %3, metadata !3217, metadata !DIExpression()), !dbg !3218
  store i64 %1, i64* %4, align 8
  call void @llvm.dbg.declare(metadata i64* %4, metadata !3219, metadata !DIExpression()), !dbg !3220
  %5 = load %"class.altered_carbon::js::ACJsNumber"*, %"class.altered_carbon::js::ACJsNumber"** %3, align 8
  %6 = bitcast %"class.altered_carbon::js::ACJsNumber"* %5 to %"class.altered_carbon::js::ACJsPrimitive"*, !dbg !3221
  call void @_ZN14altered_carbon2js13ACJsPrimitiveINS0_11ACLexNumberEEC2ENS0_9ACJsValue11JsValueTypeE(%"class.altered_carbon::js::ACJsPrimitive"* %6, i32 2), !dbg !3222
  %7 = bitcast %"class.altered_carbon::js::ACJsNumber"* %5 to i32 (...)***, !dbg !3221
  store i32 (...)** bitcast (i8** getelementptr inbounds ({ [47 x i8*] }, { [47 x i8*] }* @_ZTVN14altered_carbon2js10ACJsNumberE, i32 0, inrange i32 0, i32 2) to i32 (...)**), i32 (...)*** %7, align 8, !dbg !3221
  %8 = load i64, i64* %4, align 8, !dbg !3223
  %9 = bitcast %"class.altered_carbon::js::ACJsNumber"* %5 to %"class.altered_carbon::js::ACJsPrimitive"*, !dbg !3225
  %10 = getelementptr inbounds %"class.altered_carbon::js::ACJsPrimitive", %"class.altered_carbon::js::ACJsPrimitive"* %9, i32 0, i32 1, !dbg !3225
  %11 = call dereferenceable(24) %"class.altered_carbon::js::ACLexNumber"* @_ZN14altered_carbon2js11ACLexNumberaSEx(%"class.altered_carbon::js::ACLexNumber"* %10, i64 %8), !dbg !3226
  ret void, !dbg !3227
}

declare dereferenceable(24) %"class.altered_carbon::js::ACLexNumber"* @_ZN14altered_carbon2js11ACLexNumberaSEx(%"class.altered_carbon::js::ACLexNumber"*, i64) #2

; Function Attrs: noinline nounwind optnone ssp uwtable
define void @_ZN14altered_carbon2js10ACJsNumberC1Ex(%"class.altered_carbon::js::ACJsNumber"*, i64) unnamed_addr #0 align 2 !dbg !3228 {
  %3 = alloca %"class.altered_carbon::js::ACJsNumber"*, align 8
  %4 = alloca i64, align 8
  store %"class.altered_carbon::js::ACJsNumber"* %0, %"class.altered_carbon::js::ACJsNumber"** %3, align 8
  call void @llvm.dbg.declare(metadata %"class.altered_carbon::js::ACJsNumber"** %3, metadata !3229, metadata !DIExpression()), !dbg !3230
  store i64 %1, i64* %4, align 8
  call void @llvm.dbg.declare(metadata i64* %4, metadata !3231, metadata !DIExpression()), !dbg !3232
  %5 = load %"class.altered_carbon::js::ACJsNumber"*, %"class.altered_carbon::js::ACJsNumber"** %3, align 8
  %6 = load i64, i64* %4, align 8, !dbg !3233
  call void @_ZN14altered_carbon2js10ACJsNumberC2Ex(%"class.altered_carbon::js::ACJsNumber"* %5, i64 %6), !dbg !3233
  ret void, !dbg !3234
}

; Function Attrs: noinline nounwind optnone ssp uwtable
define void @_ZN14altered_carbon2js10ACJsNumberC2Ed(%"class.altered_carbon::js::ACJsNumber"*, double) unnamed_addr #0 align 2 !dbg !3235 {
  %3 = alloca %"class.altered_carbon::js::ACJsNumber"*, align 8
  %4 = alloca double, align 8
  store %"class.altered_carbon::js::ACJsNumber"* %0, %"class.altered_carbon::js::ACJsNumber"** %3, align 8
  call void @llvm.dbg.declare(metadata %"class.altered_carbon::js::ACJsNumber"** %3, metadata !3236, metadata !DIExpression()), !dbg !3237
  store double %1, double* %4, align 8
  call void @llvm.dbg.declare(metadata double* %4, metadata !3238, metadata !DIExpression()), !dbg !3239
  %5 = load %"class.altered_carbon::js::ACJsNumber"*, %"class.altered_carbon::js::ACJsNumber"** %3, align 8
  %6 = bitcast %"class.altered_carbon::js::ACJsNumber"* %5 to %"class.altered_carbon::js::ACJsPrimitive"*, !dbg !3240
  call void @_ZN14altered_carbon2js13ACJsPrimitiveINS0_11ACLexNumberEEC2ENS0_9ACJsValue11JsValueTypeE(%"class.altered_carbon::js::ACJsPrimitive"* %6, i32 2), !dbg !3241
  %7 = bitcast %"class.altered_carbon::js::ACJsNumber"* %5 to i32 (...)***, !dbg !3240
  store i32 (...)** bitcast (i8** getelementptr inbounds ({ [47 x i8*] }, { [47 x i8*] }* @_ZTVN14altered_carbon2js10ACJsNumberE, i32 0, inrange i32 0, i32 2) to i32 (...)**), i32 (...)*** %7, align 8, !dbg !3240
  %8 = load double, double* %4, align 8, !dbg !3242
  %9 = bitcast %"class.altered_carbon::js::ACJsNumber"* %5 to %"class.altered_carbon::js::ACJsPrimitive"*, !dbg !3244
  %10 = getelementptr inbounds %"class.altered_carbon::js::ACJsPrimitive", %"class.altered_carbon::js::ACJsPrimitive"* %9, i32 0, i32 1, !dbg !3244
  %11 = call dereferenceable(24) %"class.altered_carbon::js::ACLexNumber"* @_ZN14altered_carbon2js11ACLexNumberaSEd(%"class.altered_carbon::js::ACLexNumber"* %10, double %8), !dbg !3245
  ret void, !dbg !3246
}

declare dereferenceable(24) %"class.altered_carbon::js::ACLexNumber"* @_ZN14altered_carbon2js11ACLexNumberaSEd(%"class.altered_carbon::js::ACLexNumber"*, double) #2

; Function Attrs: noinline nounwind optnone ssp uwtable
define void @_ZN14altered_carbon2js10ACJsNumberC1Ed(%"class.altered_carbon::js::ACJsNumber"*, double) unnamed_addr #0 align 2 !dbg !3247 {
  %3 = alloca %"class.altered_carbon::js::ACJsNumber"*, align 8
  %4 = alloca double, align 8
  store %"class.altered_carbon::js::ACJsNumber"* %0, %"class.altered_carbon::js::ACJsNumber"** %3, align 8
  call void @llvm.dbg.declare(metadata %"class.altered_carbon::js::ACJsNumber"** %3, metadata !3248, metadata !DIExpression()), !dbg !3249
  store double %1, double* %4, align 8
  call void @llvm.dbg.declare(metadata double* %4, metadata !3250, metadata !DIExpression()), !dbg !3251
  %5 = load %"class.altered_carbon::js::ACJsNumber"*, %"class.altered_carbon::js::ACJsNumber"** %3, align 8
  %6 = load double, double* %4, align 8, !dbg !3252
  call void @_ZN14altered_carbon2js10ACJsNumberC2Ed(%"class.altered_carbon::js::ACJsNumber"* %5, double %6), !dbg !3252
  ret void, !dbg !3253
}

; Function Attrs: noinline nounwind optnone ssp uwtable
define void @_ZNK14altered_carbon2js10ACJsNumber4dumpERNSt3__113basic_ostreamIcNS2_11char_traitsIcEEEE(%"class.altered_carbon::js::ACJsNumber"*, %"class.std::__1::basic_ostream"* dereferenceable(160)) unnamed_addr #0 align 2 !dbg !3254 {
  %3 = alloca %"class.altered_carbon::js::ACJsNumber"*, align 8
  %4 = alloca %"class.std::__1::basic_ostream"*, align 8
  store %"class.altered_carbon::js::ACJsNumber"* %0, %"class.altered_carbon::js::ACJsNumber"** %3, align 8
  call void @llvm.dbg.declare(metadata %"class.altered_carbon::js::ACJsNumber"** %3, metadata !3255, metadata !DIExpression()), !dbg !3256
  store %"class.std::__1::basic_ostream"* %1, %"class.std::__1::basic_ostream"** %4, align 8
  call void @llvm.dbg.declare(metadata %"class.std::__1::basic_ostream"** %4, metadata !3257, metadata !DIExpression()), !dbg !3258
  %5 = load %"class.altered_carbon::js::ACJsNumber"*, %"class.altered_carbon::js::ACJsNumber"** %3, align 8
  %6 = bitcast %"class.altered_carbon::js::ACJsNumber"* %5 to %"class.altered_carbon::js::ACJsValue"*, !dbg !3259
  %7 = load %"class.std::__1::basic_ostream"*, %"class.std::__1::basic_ostream"** %4, align 8, !dbg !3260
  call void @_ZNK14altered_carbon2js9ACJsValue4dumpERNSt3__113basic_ostreamIcNS2_11char_traitsIcEEEE(%"class.altered_carbon::js::ACJsValue"* %6, %"class.std::__1::basic_ostream"* dereferenceable(160) %7), !dbg !3259
  %8 = load %"class.std::__1::basic_ostream"*, %"class.std::__1::basic_ostream"** %4, align 8, !dbg !3261
  %9 = bitcast %"class.altered_carbon::js::ACJsNumber"* %5 to %"class.altered_carbon::js::ACJsPrimitive"*, !dbg !3262
  %10 = getelementptr inbounds %"class.altered_carbon::js::ACJsPrimitive", %"class.altered_carbon::js::ACJsPrimitive"* %9, i32 0, i32 1, !dbg !3262
  %11 = call dereferenceable(160) %"class.std::__1::basic_ostream"* @_ZN14altered_carbon2jslsERNSt3__113basic_ostreamIcNS1_11char_traitsIcEEEERKNS0_11ACLexNumberE(%"class.std::__1::basic_ostream"* dereferenceable(160) %8, %"class.altered_carbon::js::ACLexNumber"* dereferenceable(24) %10), !dbg !3263
  ret void, !dbg !3264
}

declare void @_ZNK14altered_carbon2js9ACJsValue4dumpERNSt3__113basic_ostreamIcNS2_11char_traitsIcEEEE(%"class.altered_carbon::js::ACJsValue"*, %"class.std::__1::basic_ostream"* dereferenceable(160)) unnamed_addr #2

declare dereferenceable(160) %"class.std::__1::basic_ostream"* @_ZN14altered_carbon2jslsERNSt3__113basic_ostreamIcNS1_11char_traitsIcEEEERKNS0_11ACLexNumberE(%"class.std::__1::basic_ostream"* dereferenceable(160), %"class.altered_carbon::js::ACLexNumber"* dereferenceable(24)) #2

; Function Attrs: noinline nounwind optnone ssp uwtable
define dereferenceable(16) %"class.altered_carbon::js::ACJsValue"* @_ZNK14altered_carbon2js10ACJsNumberplERKNS0_9ACJsValueE(%"class.altered_carbon::js::ACJsNumber"*, %"class.altered_carbon::js::ACJsValue"* dereferenceable(16)) unnamed_addr #0 align 2 !dbg !3265 {
  %3 = alloca %"class.std::__1::auto_ptr"*, align 8
  call void @llvm.dbg.declare(metadata %"class.std::__1::auto_ptr"** %3, metadata !3266, metadata !DIExpression()), !dbg !3269
  %4 = alloca %"class.altered_carbon::js::ACJsValue"*, align 8
  call void @llvm.dbg.declare(metadata %"class.altered_carbon::js::ACJsValue"** %4, metadata !3271, metadata !DIExpression()), !dbg !3272
  %5 = alloca %"class.std::__1::auto_ptr"*, align 8
  call void @llvm.dbg.declare(metadata %"class.std::__1::auto_ptr"** %5, metadata !3273, metadata !DIExpression()), !dbg !3275
  %6 = alloca %"class.std::__1::auto_ptr"*, align 8
  call void @llvm.dbg.declare(metadata %"class.std::__1::auto_ptr"** %6, metadata !3279, metadata !DIExpression()), !dbg !3280
  %7 = alloca %"class.std::__1::auto_ptr"*, align 8
  call void @llvm.dbg.declare(metadata %"class.std::__1::auto_ptr"** %7, metadata !3281, metadata !DIExpression()), !dbg !3283
  %8 = alloca %"class.altered_carbon::js::ACJsValue"*, align 8
  call void @llvm.dbg.declare(metadata %"class.altered_carbon::js::ACJsValue"** %8, metadata !3287, metadata !DIExpression()), !dbg !3288
  %9 = alloca %"class.std::__1::auto_ptr"*, align 8
  call void @llvm.dbg.declare(metadata %"class.std::__1::auto_ptr"** %9, metadata !3289, metadata !DIExpression()), !dbg !3290
  %10 = alloca %"class.altered_carbon::js::ACJsValue"*, align 8
  call void @llvm.dbg.declare(metadata %"class.altered_carbon::js::ACJsValue"** %10, metadata !3291, metadata !DIExpression()), !dbg !3292
  %11 = alloca %"class.altered_carbon::js::ACJsNumber"*, align 8
  %12 = alloca %"class.altered_carbon::js::ACJsValue"*, align 8
  %13 = alloca %"class.std::__1::auto_ptr", align 8
  store %"class.altered_carbon::js::ACJsNumber"* %0, %"class.altered_carbon::js::ACJsNumber"** %11, align 8
  call void @llvm.dbg.declare(metadata %"class.altered_carbon::js::ACJsNumber"** %11, metadata !3293, metadata !DIExpression()), !dbg !3294
  store %"class.altered_carbon::js::ACJsValue"* %1, %"class.altered_carbon::js::ACJsValue"** %12, align 8
  call void @llvm.dbg.declare(metadata %"class.altered_carbon::js::ACJsValue"** %12, metadata !3295, metadata !DIExpression()), !dbg !3296
  %14 = load %"class.altered_carbon::js::ACJsNumber"*, %"class.altered_carbon::js::ACJsNumber"** %11, align 8
  %15 = load %"class.altered_carbon::js::ACJsValue"*, %"class.altered_carbon::js::ACJsValue"** %12, align 8, !dbg !3296
  %16 = call i8* @_Znwm(i64 40) #7, !dbg !3296
  %17 = bitcast i8* %16 to %"class.altered_carbon::js::ACJsNumber"*, !dbg !3296
  %18 = bitcast %"class.altered_carbon::js::ACJsNumber"* %14 to %"class.altered_carbon::js::ACJsPrimitive"*, !dbg !3296
  %19 = getelementptr inbounds %"class.altered_carbon::js::ACJsPrimitive", %"class.altered_carbon::js::ACJsPrimitive"* %18, i32 0, i32 1, !dbg !3296
  call void @_ZN14altered_carbon2js10ACJsNumberC1ERKNS0_11ACLexNumberE(%"class.altered_carbon::js::ACJsNumber"* %17, %"class.altered_carbon::js::ACLexNumber"* dereferenceable(24) %19), !dbg !3296
  %20 = bitcast %"class.altered_carbon::js::ACJsNumber"* %17 to %"class.altered_carbon::js::ACJsValue"*, !dbg !3296
  store %"class.std::__1::auto_ptr"* %13, %"class.std::__1::auto_ptr"** %9, align 8
  store %"class.altered_carbon::js::ACJsValue"* %20, %"class.altered_carbon::js::ACJsValue"** %10, align 8
  %21 = load %"class.std::__1::auto_ptr"*, %"class.std::__1::auto_ptr"** %9, align 8
  %22 = load %"class.altered_carbon::js::ACJsValue"*, %"class.altered_carbon::js::ACJsValue"** %10, align 8, !dbg !3297
  store %"class.std::__1::auto_ptr"* %21, %"class.std::__1::auto_ptr"** %7, align 8
  store %"class.altered_carbon::js::ACJsValue"* %22, %"class.altered_carbon::js::ACJsValue"** %8, align 8
  %23 = load %"class.std::__1::auto_ptr"*, %"class.std::__1::auto_ptr"** %7, align 8
  %24 = getelementptr inbounds %"class.std::__1::auto_ptr", %"class.std::__1::auto_ptr"* %23, i32 0, i32 0, !dbg !3298
  %25 = load %"class.altered_carbon::js::ACJsValue"*, %"class.altered_carbon::js::ACJsValue"** %8, align 8, !dbg !3299
  store %"class.altered_carbon::js::ACJsValue"* %25, %"class.altered_carbon::js::ACJsValue"** %24, align 8, !dbg !3298
  store %"class.std::__1::auto_ptr"* %13, %"class.std::__1::auto_ptr"** %3, align 8
  %26 = load %"class.std::__1::auto_ptr"*, %"class.std::__1::auto_ptr"** %3, align 8
  %27 = getelementptr inbounds %"class.std::__1::auto_ptr", %"class.std::__1::auto_ptr"* %26, i32 0, i32 0, !dbg !3300
  %28 = load %"class.altered_carbon::js::ACJsValue"*, %"class.altered_carbon::js::ACJsValue"** %27, align 8, !dbg !3300
  store %"class.altered_carbon::js::ACJsValue"* %28, %"class.altered_carbon::js::ACJsValue"** %4, align 8, !dbg !3272
  %29 = getelementptr inbounds %"class.std::__1::auto_ptr", %"class.std::__1::auto_ptr"* %26, i32 0, i32 0, !dbg !3301
  store %"class.altered_carbon::js::ACJsValue"* null, %"class.altered_carbon::js::ACJsValue"** %29, align 8, !dbg !3302
  %30 = load %"class.altered_carbon::js::ACJsValue"*, %"class.altered_carbon::js::ACJsValue"** %4, align 8, !dbg !3303
  %31 = bitcast %"class.altered_carbon::js::ACJsValue"* %30 to %"class.altered_carbon::js::ACJsValue"* (%"class.altered_carbon::js::ACJsValue"*, %"class.altered_carbon::js::ACJsValue"*)***, !dbg !3296
  %32 = load %"class.altered_carbon::js::ACJsValue"* (%"class.altered_carbon::js::ACJsValue"*, %"class.altered_carbon::js::ACJsValue"*)**, %"class.altered_carbon::js::ACJsValue"* (%"class.altered_carbon::js::ACJsValue"*, %"class.altered_carbon::js::ACJsValue"*)*** %31, align 8, !dbg !3296
  %33 = getelementptr inbounds %"class.altered_carbon::js::ACJsValue"* (%"class.altered_carbon::js::ACJsValue"*, %"class.altered_carbon::js::ACJsValue"*)*, %"class.altered_carbon::js::ACJsValue"* (%"class.altered_carbon::js::ACJsValue"*, %"class.altered_carbon::js::ACJsValue"*)** %32, i64 15, !dbg !3296
  %34 = load %"class.altered_carbon::js::ACJsValue"* (%"class.altered_carbon::js::ACJsValue"*, %"class.altered_carbon::js::ACJsValue"*)*, %"class.altered_carbon::js::ACJsValue"* (%"class.altered_carbon::js::ACJsValue"*, %"class.altered_carbon::js::ACJsValue"*)** %33, align 8, !dbg !3296
  %35 = call dereferenceable(16) %"class.altered_carbon::js::ACJsValue"* %34(%"class.altered_carbon::js::ACJsValue"* %30, %"class.altered_carbon::js::ACJsValue"* dereferenceable(16) %15), !dbg !3296
  store %"class.std::__1::auto_ptr"* %13, %"class.std::__1::auto_ptr"** %6, align 8
  %36 = load %"class.std::__1::auto_ptr"*, %"class.std::__1::auto_ptr"** %6, align 8
  store %"class.std::__1::auto_ptr"* %36, %"class.std::__1::auto_ptr"** %5, align 8
  %37 = load %"class.std::__1::auto_ptr"*, %"class.std::__1::auto_ptr"** %5, align 8
  %38 = getelementptr inbounds %"class.std::__1::auto_ptr", %"class.std::__1::auto_ptr"* %37, i32 0, i32 0, !dbg !3304
  %39 = load %"class.altered_carbon::js::ACJsValue"*, %"class.altered_carbon::js::ACJsValue"** %38, align 8, !dbg !3304
  %40 = icmp eq %"class.altered_carbon::js::ACJsValue"* %39, null, !dbg !3306
  br i1 %40, label %46, label %41, !dbg !3306

; <label>:41:                                     ; preds = %2
  %42 = bitcast %"class.altered_carbon::js::ACJsValue"* %39 to void (%"class.altered_carbon::js::ACJsValue"*)***, !dbg !3306
  %43 = load void (%"class.altered_carbon::js::ACJsValue"*)**, void (%"class.altered_carbon::js::ACJsValue"*)*** %42, align 8, !dbg !3306
  %44 = getelementptr inbounds void (%"class.altered_carbon::js::ACJsValue"*)*, void (%"class.altered_carbon::js::ACJsValue"*)** %43, i64 1, !dbg !3306
  %45 = load void (%"class.altered_carbon::js::ACJsValue"*)*, void (%"class.altered_carbon::js::ACJsValue"*)** %44, align 8, !dbg !3306
  call void %45(%"class.altered_carbon::js::ACJsValue"* %39) #8, !dbg !3306
  br label %46, !dbg !3306

; <label>:46:                                     ; preds = %2, %41
  ret %"class.altered_carbon::js::ACJsValue"* %35, !dbg !3296
}

; Function Attrs: nobuiltin
declare noalias i8* @_Znwm(i64) #3

; Function Attrs: noinline nounwind optnone ssp uwtable
define dereferenceable(16) %"class.altered_carbon::js::ACJsValue"* @_ZNK14altered_carbon2js10ACJsNumbermiERKNS0_9ACJsValueE(%"class.altered_carbon::js::ACJsNumber"*, %"class.altered_carbon::js::ACJsValue"* dereferenceable(16)) unnamed_addr #0 align 2 !dbg !3307 {
  %3 = alloca %"class.std::__1::auto_ptr"*, align 8
  call void @llvm.dbg.declare(metadata %"class.std::__1::auto_ptr"** %3, metadata !3266, metadata !DIExpression()), !dbg !3308
  %4 = alloca %"class.altered_carbon::js::ACJsValue"*, align 8
  call void @llvm.dbg.declare(metadata %"class.altered_carbon::js::ACJsValue"** %4, metadata !3271, metadata !DIExpression()), !dbg !3310
  %5 = alloca %"class.std::__1::auto_ptr"*, align 8
  call void @llvm.dbg.declare(metadata %"class.std::__1::auto_ptr"** %5, metadata !3273, metadata !DIExpression()), !dbg !3311
  %6 = alloca %"class.std::__1::auto_ptr"*, align 8
  call void @llvm.dbg.declare(metadata %"class.std::__1::auto_ptr"** %6, metadata !3279, metadata !DIExpression()), !dbg !3314
  %7 = alloca %"class.std::__1::auto_ptr"*, align 8
  call void @llvm.dbg.declare(metadata %"class.std::__1::auto_ptr"** %7, metadata !3281, metadata !DIExpression()), !dbg !3315
  %8 = alloca %"class.altered_carbon::js::ACJsValue"*, align 8
  call void @llvm.dbg.declare(metadata %"class.altered_carbon::js::ACJsValue"** %8, metadata !3287, metadata !DIExpression()), !dbg !3318
  %9 = alloca %"class.std::__1::auto_ptr"*, align 8
  call void @llvm.dbg.declare(metadata %"class.std::__1::auto_ptr"** %9, metadata !3289, metadata !DIExpression()), !dbg !3319
  %10 = alloca %"class.altered_carbon::js::ACJsValue"*, align 8
  call void @llvm.dbg.declare(metadata %"class.altered_carbon::js::ACJsValue"** %10, metadata !3291, metadata !DIExpression()), !dbg !3320
  %11 = alloca %"class.altered_carbon::js::ACJsNumber"*, align 8
  %12 = alloca %"class.altered_carbon::js::ACJsValue"*, align 8
  %13 = alloca %"class.std::__1::auto_ptr", align 8
  store %"class.altered_carbon::js::ACJsNumber"* %0, %"class.altered_carbon::js::ACJsNumber"** %11, align 8
  call void @llvm.dbg.declare(metadata %"class.altered_carbon::js::ACJsNumber"** %11, metadata !3321, metadata !DIExpression()), !dbg !3322
  store %"class.altered_carbon::js::ACJsValue"* %1, %"class.altered_carbon::js::ACJsValue"** %12, align 8
  call void @llvm.dbg.declare(metadata %"class.altered_carbon::js::ACJsValue"** %12, metadata !3323, metadata !DIExpression()), !dbg !3324
  %14 = load %"class.altered_carbon::js::ACJsNumber"*, %"class.altered_carbon::js::ACJsNumber"** %11, align 8
  %15 = load %"class.altered_carbon::js::ACJsValue"*, %"class.altered_carbon::js::ACJsValue"** %12, align 8, !dbg !3324
  %16 = call i8* @_Znwm(i64 40) #7, !dbg !3324
  %17 = bitcast i8* %16 to %"class.altered_carbon::js::ACJsNumber"*, !dbg !3324
  %18 = bitcast %"class.altered_carbon::js::ACJsNumber"* %14 to %"class.altered_carbon::js::ACJsPrimitive"*, !dbg !3324
  %19 = getelementptr inbounds %"class.altered_carbon::js::ACJsPrimitive", %"class.altered_carbon::js::ACJsPrimitive"* %18, i32 0, i32 1, !dbg !3324
  call void @_ZN14altered_carbon2js10ACJsNumberC1ERKNS0_11ACLexNumberE(%"class.altered_carbon::js::ACJsNumber"* %17, %"class.altered_carbon::js::ACLexNumber"* dereferenceable(24) %19), !dbg !3324
  %20 = bitcast %"class.altered_carbon::js::ACJsNumber"* %17 to %"class.altered_carbon::js::ACJsValue"*, !dbg !3324
  store %"class.std::__1::auto_ptr"* %13, %"class.std::__1::auto_ptr"** %9, align 8
  store %"class.altered_carbon::js::ACJsValue"* %20, %"class.altered_carbon::js::ACJsValue"** %10, align 8
  %21 = load %"class.std::__1::auto_ptr"*, %"class.std::__1::auto_ptr"** %9, align 8
  %22 = load %"class.altered_carbon::js::ACJsValue"*, %"class.altered_carbon::js::ACJsValue"** %10, align 8, !dbg !3325
  store %"class.std::__1::auto_ptr"* %21, %"class.std::__1::auto_ptr"** %7, align 8
  store %"class.altered_carbon::js::ACJsValue"* %22, %"class.altered_carbon::js::ACJsValue"** %8, align 8
  %23 = load %"class.std::__1::auto_ptr"*, %"class.std::__1::auto_ptr"** %7, align 8
  %24 = getelementptr inbounds %"class.std::__1::auto_ptr", %"class.std::__1::auto_ptr"* %23, i32 0, i32 0, !dbg !3326
  %25 = load %"class.altered_carbon::js::ACJsValue"*, %"class.altered_carbon::js::ACJsValue"** %8, align 8, !dbg !3327
  store %"class.altered_carbon::js::ACJsValue"* %25, %"class.altered_carbon::js::ACJsValue"** %24, align 8, !dbg !3326
  store %"class.std::__1::auto_ptr"* %13, %"class.std::__1::auto_ptr"** %3, align 8
  %26 = load %"class.std::__1::auto_ptr"*, %"class.std::__1::auto_ptr"** %3, align 8
  %27 = getelementptr inbounds %"class.std::__1::auto_ptr", %"class.std::__1::auto_ptr"* %26, i32 0, i32 0, !dbg !3328
  %28 = load %"class.altered_carbon::js::ACJsValue"*, %"class.altered_carbon::js::ACJsValue"** %27, align 8, !dbg !3328
  store %"class.altered_carbon::js::ACJsValue"* %28, %"class.altered_carbon::js::ACJsValue"** %4, align 8, !dbg !3310
  %29 = getelementptr inbounds %"class.std::__1::auto_ptr", %"class.std::__1::auto_ptr"* %26, i32 0, i32 0, !dbg !3329
  store %"class.altered_carbon::js::ACJsValue"* null, %"class.altered_carbon::js::ACJsValue"** %29, align 8, !dbg !3330
  %30 = load %"class.altered_carbon::js::ACJsValue"*, %"class.altered_carbon::js::ACJsValue"** %4, align 8, !dbg !3331
  %31 = bitcast %"class.altered_carbon::js::ACJsValue"* %30 to %"class.altered_carbon::js::ACJsValue"* (%"class.altered_carbon::js::ACJsValue"*, %"class.altered_carbon::js::ACJsValue"*)***, !dbg !3324
  %32 = load %"class.altered_carbon::js::ACJsValue"* (%"class.altered_carbon::js::ACJsValue"*, %"class.altered_carbon::js::ACJsValue"*)**, %"class.altered_carbon::js::ACJsValue"* (%"class.altered_carbon::js::ACJsValue"*, %"class.altered_carbon::js::ACJsValue"*)*** %31, align 8, !dbg !3324
  %33 = getelementptr inbounds %"class.altered_carbon::js::ACJsValue"* (%"class.altered_carbon::js::ACJsValue"*, %"class.altered_carbon::js::ACJsValue"*)*, %"class.altered_carbon::js::ACJsValue"* (%"class.altered_carbon::js::ACJsValue"*, %"class.altered_carbon::js::ACJsValue"*)** %32, i64 16, !dbg !3324
  %34 = load %"class.altered_carbon::js::ACJsValue"* (%"class.altered_carbon::js::ACJsValue"*, %"class.altered_carbon::js::ACJsValue"*)*, %"class.altered_carbon::js::ACJsValue"* (%"class.altered_carbon::js::ACJsValue"*, %"class.altered_carbon::js::ACJsValue"*)** %33, align 8, !dbg !3324
  %35 = call dereferenceable(16) %"class.altered_carbon::js::ACJsValue"* %34(%"class.altered_carbon::js::ACJsValue"* %30, %"class.altered_carbon::js::ACJsValue"* dereferenceable(16) %15), !dbg !3324
  store %"class.std::__1::auto_ptr"* %13, %"class.std::__1::auto_ptr"** %6, align 8
  %36 = load %"class.std::__1::auto_ptr"*, %"class.std::__1::auto_ptr"** %6, align 8
  store %"class.std::__1::auto_ptr"* %36, %"class.std::__1::auto_ptr"** %5, align 8
  %37 = load %"class.std::__1::auto_ptr"*, %"class.std::__1::auto_ptr"** %5, align 8
  %38 = getelementptr inbounds %"class.std::__1::auto_ptr", %"class.std::__1::auto_ptr"* %37, i32 0, i32 0, !dbg !3332
  %39 = load %"class.altered_carbon::js::ACJsValue"*, %"class.altered_carbon::js::ACJsValue"** %38, align 8, !dbg !3332
  %40 = icmp eq %"class.altered_carbon::js::ACJsValue"* %39, null, !dbg !3333
  br i1 %40, label %46, label %41, !dbg !3333

; <label>:41:                                     ; preds = %2
  %42 = bitcast %"class.altered_carbon::js::ACJsValue"* %39 to void (%"class.altered_carbon::js::ACJsValue"*)***, !dbg !3333
  %43 = load void (%"class.altered_carbon::js::ACJsValue"*)**, void (%"class.altered_carbon::js::ACJsValue"*)*** %42, align 8, !dbg !3333
  %44 = getelementptr inbounds void (%"class.altered_carbon::js::ACJsValue"*)*, void (%"class.altered_carbon::js::ACJsValue"*)** %43, i64 1, !dbg !3333
  %45 = load void (%"class.altered_carbon::js::ACJsValue"*)*, void (%"class.altered_carbon::js::ACJsValue"*)** %44, align 8, !dbg !3333
  call void %45(%"class.altered_carbon::js::ACJsValue"* %39) #8, !dbg !3333
  br label %46, !dbg !3333

; <label>:46:                                     ; preds = %2, %41
  ret %"class.altered_carbon::js::ACJsValue"* %35, !dbg !3324
}

; Function Attrs: noinline nounwind optnone ssp uwtable
define dereferenceable(16) %"class.altered_carbon::js::ACJsValue"* @_ZNK14altered_carbon2js10ACJsNumbermlERKNS0_9ACJsValueE(%"class.altered_carbon::js::ACJsNumber"*, %"class.altered_carbon::js::ACJsValue"* dereferenceable(16)) unnamed_addr #0 align 2 !dbg !3334 {
  %3 = alloca %"class.std::__1::auto_ptr"*, align 8
  call void @llvm.dbg.declare(metadata %"class.std::__1::auto_ptr"** %3, metadata !3266, metadata !DIExpression()), !dbg !3335
  %4 = alloca %"class.altered_carbon::js::ACJsValue"*, align 8
  call void @llvm.dbg.declare(metadata %"class.altered_carbon::js::ACJsValue"** %4, metadata !3271, metadata !DIExpression()), !dbg !3337
  %5 = alloca %"class.std::__1::auto_ptr"*, align 8
  call void @llvm.dbg.declare(metadata %"class.std::__1::auto_ptr"** %5, metadata !3273, metadata !DIExpression()), !dbg !3338
  %6 = alloca %"class.std::__1::auto_ptr"*, align 8
  call void @llvm.dbg.declare(metadata %"class.std::__1::auto_ptr"** %6, metadata !3279, metadata !DIExpression()), !dbg !3341
  %7 = alloca %"class.std::__1::auto_ptr"*, align 8
  call void @llvm.dbg.declare(metadata %"class.std::__1::auto_ptr"** %7, metadata !3281, metadata !DIExpression()), !dbg !3342
  %8 = alloca %"class.altered_carbon::js::ACJsValue"*, align 8
  call void @llvm.dbg.declare(metadata %"class.altered_carbon::js::ACJsValue"** %8, metadata !3287, metadata !DIExpression()), !dbg !3345
  %9 = alloca %"class.std::__1::auto_ptr"*, align 8
  call void @llvm.dbg.declare(metadata %"class.std::__1::auto_ptr"** %9, metadata !3289, metadata !DIExpression()), !dbg !3346
  %10 = alloca %"class.altered_carbon::js::ACJsValue"*, align 8
  call void @llvm.dbg.declare(metadata %"class.altered_carbon::js::ACJsValue"** %10, metadata !3291, metadata !DIExpression()), !dbg !3347
  %11 = alloca %"class.altered_carbon::js::ACJsNumber"*, align 8
  %12 = alloca %"class.altered_carbon::js::ACJsValue"*, align 8
  %13 = alloca %"class.std::__1::auto_ptr", align 8
  store %"class.altered_carbon::js::ACJsNumber"* %0, %"class.altered_carbon::js::ACJsNumber"** %11, align 8
  call void @llvm.dbg.declare(metadata %"class.altered_carbon::js::ACJsNumber"** %11, metadata !3348, metadata !DIExpression()), !dbg !3349
  store %"class.altered_carbon::js::ACJsValue"* %1, %"class.altered_carbon::js::ACJsValue"** %12, align 8
  call void @llvm.dbg.declare(metadata %"class.altered_carbon::js::ACJsValue"** %12, metadata !3350, metadata !DIExpression()), !dbg !3351
  %14 = load %"class.altered_carbon::js::ACJsNumber"*, %"class.altered_carbon::js::ACJsNumber"** %11, align 8
  %15 = load %"class.altered_carbon::js::ACJsValue"*, %"class.altered_carbon::js::ACJsValue"** %12, align 8, !dbg !3351
  %16 = call i8* @_Znwm(i64 40) #7, !dbg !3351
  %17 = bitcast i8* %16 to %"class.altered_carbon::js::ACJsNumber"*, !dbg !3351
  %18 = bitcast %"class.altered_carbon::js::ACJsNumber"* %14 to %"class.altered_carbon::js::ACJsPrimitive"*, !dbg !3351
  %19 = getelementptr inbounds %"class.altered_carbon::js::ACJsPrimitive", %"class.altered_carbon::js::ACJsPrimitive"* %18, i32 0, i32 1, !dbg !3351
  call void @_ZN14altered_carbon2js10ACJsNumberC1ERKNS0_11ACLexNumberE(%"class.altered_carbon::js::ACJsNumber"* %17, %"class.altered_carbon::js::ACLexNumber"* dereferenceable(24) %19), !dbg !3351
  %20 = bitcast %"class.altered_carbon::js::ACJsNumber"* %17 to %"class.altered_carbon::js::ACJsValue"*, !dbg !3351
  store %"class.std::__1::auto_ptr"* %13, %"class.std::__1::auto_ptr"** %9, align 8
  store %"class.altered_carbon::js::ACJsValue"* %20, %"class.altered_carbon::js::ACJsValue"** %10, align 8
  %21 = load %"class.std::__1::auto_ptr"*, %"class.std::__1::auto_ptr"** %9, align 8
  %22 = load %"class.altered_carbon::js::ACJsValue"*, %"class.altered_carbon::js::ACJsValue"** %10, align 8, !dbg !3352
  store %"class.std::__1::auto_ptr"* %21, %"class.std::__1::auto_ptr"** %7, align 8
  store %"class.altered_carbon::js::ACJsValue"* %22, %"class.altered_carbon::js::ACJsValue"** %8, align 8
  %23 = load %"class.std::__1::auto_ptr"*, %"class.std::__1::auto_ptr"** %7, align 8
  %24 = getelementptr inbounds %"class.std::__1::auto_ptr", %"class.std::__1::auto_ptr"* %23, i32 0, i32 0, !dbg !3353
  %25 = load %"class.altered_carbon::js::ACJsValue"*, %"class.altered_carbon::js::ACJsValue"** %8, align 8, !dbg !3354
  store %"class.altered_carbon::js::ACJsValue"* %25, %"class.altered_carbon::js::ACJsValue"** %24, align 8, !dbg !3353
  store %"class.std::__1::auto_ptr"* %13, %"class.std::__1::auto_ptr"** %3, align 8
  %26 = load %"class.std::__1::auto_ptr"*, %"class.std::__1::auto_ptr"** %3, align 8
  %27 = getelementptr inbounds %"class.std::__1::auto_ptr", %"class.std::__1::auto_ptr"* %26, i32 0, i32 0, !dbg !3355
  %28 = load %"class.altered_carbon::js::ACJsValue"*, %"class.altered_carbon::js::ACJsValue"** %27, align 8, !dbg !3355
  store %"class.altered_carbon::js::ACJsValue"* %28, %"class.altered_carbon::js::ACJsValue"** %4, align 8, !dbg !3337
  %29 = getelementptr inbounds %"class.std::__1::auto_ptr", %"class.std::__1::auto_ptr"* %26, i32 0, i32 0, !dbg !3356
  store %"class.altered_carbon::js::ACJsValue"* null, %"class.altered_carbon::js::ACJsValue"** %29, align 8, !dbg !3357
  %30 = load %"class.altered_carbon::js::ACJsValue"*, %"class.altered_carbon::js::ACJsValue"** %4, align 8, !dbg !3358
  %31 = bitcast %"class.altered_carbon::js::ACJsValue"* %30 to %"class.altered_carbon::js::ACJsValue"* (%"class.altered_carbon::js::ACJsValue"*, %"class.altered_carbon::js::ACJsValue"*)***, !dbg !3351
  %32 = load %"class.altered_carbon::js::ACJsValue"* (%"class.altered_carbon::js::ACJsValue"*, %"class.altered_carbon::js::ACJsValue"*)**, %"class.altered_carbon::js::ACJsValue"* (%"class.altered_carbon::js::ACJsValue"*, %"class.altered_carbon::js::ACJsValue"*)*** %31, align 8, !dbg !3351
  %33 = getelementptr inbounds %"class.altered_carbon::js::ACJsValue"* (%"class.altered_carbon::js::ACJsValue"*, %"class.altered_carbon::js::ACJsValue"*)*, %"class.altered_carbon::js::ACJsValue"* (%"class.altered_carbon::js::ACJsValue"*, %"class.altered_carbon::js::ACJsValue"*)** %32, i64 17, !dbg !3351
  %34 = load %"class.altered_carbon::js::ACJsValue"* (%"class.altered_carbon::js::ACJsValue"*, %"class.altered_carbon::js::ACJsValue"*)*, %"class.altered_carbon::js::ACJsValue"* (%"class.altered_carbon::js::ACJsValue"*, %"class.altered_carbon::js::ACJsValue"*)** %33, align 8, !dbg !3351
  %35 = call dereferenceable(16) %"class.altered_carbon::js::ACJsValue"* %34(%"class.altered_carbon::js::ACJsValue"* %30, %"class.altered_carbon::js::ACJsValue"* dereferenceable(16) %15), !dbg !3351
  store %"class.std::__1::auto_ptr"* %13, %"class.std::__1::auto_ptr"** %6, align 8
  %36 = load %"class.std::__1::auto_ptr"*, %"class.std::__1::auto_ptr"** %6, align 8
  store %"class.std::__1::auto_ptr"* %36, %"class.std::__1::auto_ptr"** %5, align 8
  %37 = load %"class.std::__1::auto_ptr"*, %"class.std::__1::auto_ptr"** %5, align 8
  %38 = getelementptr inbounds %"class.std::__1::auto_ptr", %"class.std::__1::auto_ptr"* %37, i32 0, i32 0, !dbg !3359
  %39 = load %"class.altered_carbon::js::ACJsValue"*, %"class.altered_carbon::js::ACJsValue"** %38, align 8, !dbg !3359
  %40 = icmp eq %"class.altered_carbon::js::ACJsValue"* %39, null, !dbg !3360
  br i1 %40, label %46, label %41, !dbg !3360

; <label>:41:                                     ; preds = %2
  %42 = bitcast %"class.altered_carbon::js::ACJsValue"* %39 to void (%"class.altered_carbon::js::ACJsValue"*)***, !dbg !3360
  %43 = load void (%"class.altered_carbon::js::ACJsValue"*)**, void (%"class.altered_carbon::js::ACJsValue"*)*** %42, align 8, !dbg !3360
  %44 = getelementptr inbounds void (%"class.altered_carbon::js::ACJsValue"*)*, void (%"class.altered_carbon::js::ACJsValue"*)** %43, i64 1, !dbg !3360
  %45 = load void (%"class.altered_carbon::js::ACJsValue"*)*, void (%"class.altered_carbon::js::ACJsValue"*)** %44, align 8, !dbg !3360
  call void %45(%"class.altered_carbon::js::ACJsValue"* %39) #8, !dbg !3360
  br label %46, !dbg !3360

; <label>:46:                                     ; preds = %2, %41
  ret %"class.altered_carbon::js::ACJsValue"* %35, !dbg !3351
}

; Function Attrs: noinline nounwind optnone ssp uwtable
define dereferenceable(16) %"class.altered_carbon::js::ACJsValue"* @_ZNK14altered_carbon2js10ACJsNumberdvERKNS0_9ACJsValueE(%"class.altered_carbon::js::ACJsNumber"*, %"class.altered_carbon::js::ACJsValue"* dereferenceable(16)) unnamed_addr #0 align 2 !dbg !3361 {
  %3 = alloca %"class.std::__1::auto_ptr"*, align 8
  call void @llvm.dbg.declare(metadata %"class.std::__1::auto_ptr"** %3, metadata !3266, metadata !DIExpression()), !dbg !3362
  %4 = alloca %"class.altered_carbon::js::ACJsValue"*, align 8
  call void @llvm.dbg.declare(metadata %"class.altered_carbon::js::ACJsValue"** %4, metadata !3271, metadata !DIExpression()), !dbg !3364
  %5 = alloca %"class.std::__1::auto_ptr"*, align 8
  call void @llvm.dbg.declare(metadata %"class.std::__1::auto_ptr"** %5, metadata !3273, metadata !DIExpression()), !dbg !3365
  %6 = alloca %"class.std::__1::auto_ptr"*, align 8
  call void @llvm.dbg.declare(metadata %"class.std::__1::auto_ptr"** %6, metadata !3279, metadata !DIExpression()), !dbg !3368
  %7 = alloca %"class.std::__1::auto_ptr"*, align 8
  call void @llvm.dbg.declare(metadata %"class.std::__1::auto_ptr"** %7, metadata !3281, metadata !DIExpression()), !dbg !3369
  %8 = alloca %"class.altered_carbon::js::ACJsValue"*, align 8
  call void @llvm.dbg.declare(metadata %"class.altered_carbon::js::ACJsValue"** %8, metadata !3287, metadata !DIExpression()), !dbg !3372
  %9 = alloca %"class.std::__1::auto_ptr"*, align 8
  call void @llvm.dbg.declare(metadata %"class.std::__1::auto_ptr"** %9, metadata !3289, metadata !DIExpression()), !dbg !3373
  %10 = alloca %"class.altered_carbon::js::ACJsValue"*, align 8
  call void @llvm.dbg.declare(metadata %"class.altered_carbon::js::ACJsValue"** %10, metadata !3291, metadata !DIExpression()), !dbg !3374
  %11 = alloca %"class.altered_carbon::js::ACJsNumber"*, align 8
  %12 = alloca %"class.altered_carbon::js::ACJsValue"*, align 8
  %13 = alloca %"class.std::__1::auto_ptr", align 8
  store %"class.altered_carbon::js::ACJsNumber"* %0, %"class.altered_carbon::js::ACJsNumber"** %11, align 8
  call void @llvm.dbg.declare(metadata %"class.altered_carbon::js::ACJsNumber"** %11, metadata !3375, metadata !DIExpression()), !dbg !3376
  store %"class.altered_carbon::js::ACJsValue"* %1, %"class.altered_carbon::js::ACJsValue"** %12, align 8
  call void @llvm.dbg.declare(metadata %"class.altered_carbon::js::ACJsValue"** %12, metadata !3377, metadata !DIExpression()), !dbg !3378
  %14 = load %"class.altered_carbon::js::ACJsNumber"*, %"class.altered_carbon::js::ACJsNumber"** %11, align 8
  %15 = load %"class.altered_carbon::js::ACJsValue"*, %"class.altered_carbon::js::ACJsValue"** %12, align 8, !dbg !3378
  %16 = call i8* @_Znwm(i64 40) #7, !dbg !3378
  %17 = bitcast i8* %16 to %"class.altered_carbon::js::ACJsNumber"*, !dbg !3378
  %18 = bitcast %"class.altered_carbon::js::ACJsNumber"* %14 to %"class.altered_carbon::js::ACJsPrimitive"*, !dbg !3378
  %19 = getelementptr inbounds %"class.altered_carbon::js::ACJsPrimitive", %"class.altered_carbon::js::ACJsPrimitive"* %18, i32 0, i32 1, !dbg !3378
  call void @_ZN14altered_carbon2js10ACJsNumberC1ERKNS0_11ACLexNumberE(%"class.altered_carbon::js::ACJsNumber"* %17, %"class.altered_carbon::js::ACLexNumber"* dereferenceable(24) %19), !dbg !3378
  %20 = bitcast %"class.altered_carbon::js::ACJsNumber"* %17 to %"class.altered_carbon::js::ACJsValue"*, !dbg !3378
  store %"class.std::__1::auto_ptr"* %13, %"class.std::__1::auto_ptr"** %9, align 8
  store %"class.altered_carbon::js::ACJsValue"* %20, %"class.altered_carbon::js::ACJsValue"** %10, align 8
  %21 = load %"class.std::__1::auto_ptr"*, %"class.std::__1::auto_ptr"** %9, align 8
  %22 = load %"class.altered_carbon::js::ACJsValue"*, %"class.altered_carbon::js::ACJsValue"** %10, align 8, !dbg !3379
  store %"class.std::__1::auto_ptr"* %21, %"class.std::__1::auto_ptr"** %7, align 8
  store %"class.altered_carbon::js::ACJsValue"* %22, %"class.altered_carbon::js::ACJsValue"** %8, align 8
  %23 = load %"class.std::__1::auto_ptr"*, %"class.std::__1::auto_ptr"** %7, align 8
  %24 = getelementptr inbounds %"class.std::__1::auto_ptr", %"class.std::__1::auto_ptr"* %23, i32 0, i32 0, !dbg !3380
  %25 = load %"class.altered_carbon::js::ACJsValue"*, %"class.altered_carbon::js::ACJsValue"** %8, align 8, !dbg !3381
  store %"class.altered_carbon::js::ACJsValue"* %25, %"class.altered_carbon::js::ACJsValue"** %24, align 8, !dbg !3380
  store %"class.std::__1::auto_ptr"* %13, %"class.std::__1::auto_ptr"** %3, align 8
  %26 = load %"class.std::__1::auto_ptr"*, %"class.std::__1::auto_ptr"** %3, align 8
  %27 = getelementptr inbounds %"class.std::__1::auto_ptr", %"class.std::__1::auto_ptr"* %26, i32 0, i32 0, !dbg !3382
  %28 = load %"class.altered_carbon::js::ACJsValue"*, %"class.altered_carbon::js::ACJsValue"** %27, align 8, !dbg !3382
  store %"class.altered_carbon::js::ACJsValue"* %28, %"class.altered_carbon::js::ACJsValue"** %4, align 8, !dbg !3364
  %29 = getelementptr inbounds %"class.std::__1::auto_ptr", %"class.std::__1::auto_ptr"* %26, i32 0, i32 0, !dbg !3383
  store %"class.altered_carbon::js::ACJsValue"* null, %"class.altered_carbon::js::ACJsValue"** %29, align 8, !dbg !3384
  %30 = load %"class.altered_carbon::js::ACJsValue"*, %"class.altered_carbon::js::ACJsValue"** %4, align 8, !dbg !3385
  %31 = bitcast %"class.altered_carbon::js::ACJsValue"* %30 to %"class.altered_carbon::js::ACJsValue"* (%"class.altered_carbon::js::ACJsValue"*, %"class.altered_carbon::js::ACJsValue"*)***, !dbg !3378
  %32 = load %"class.altered_carbon::js::ACJsValue"* (%"class.altered_carbon::js::ACJsValue"*, %"class.altered_carbon::js::ACJsValue"*)**, %"class.altered_carbon::js::ACJsValue"* (%"class.altered_carbon::js::ACJsValue"*, %"class.altered_carbon::js::ACJsValue"*)*** %31, align 8, !dbg !3378
  %33 = getelementptr inbounds %"class.altered_carbon::js::ACJsValue"* (%"class.altered_carbon::js::ACJsValue"*, %"class.altered_carbon::js::ACJsValue"*)*, %"class.altered_carbon::js::ACJsValue"* (%"class.altered_carbon::js::ACJsValue"*, %"class.altered_carbon::js::ACJsValue"*)** %32, i64 18, !dbg !3378
  %34 = load %"class.altered_carbon::js::ACJsValue"* (%"class.altered_carbon::js::ACJsValue"*, %"class.altered_carbon::js::ACJsValue"*)*, %"class.altered_carbon::js::ACJsValue"* (%"class.altered_carbon::js::ACJsValue"*, %"class.altered_carbon::js::ACJsValue"*)** %33, align 8, !dbg !3378
  %35 = call dereferenceable(16) %"class.altered_carbon::js::ACJsValue"* %34(%"class.altered_carbon::js::ACJsValue"* %30, %"class.altered_carbon::js::ACJsValue"* dereferenceable(16) %15), !dbg !3378
  store %"class.std::__1::auto_ptr"* %13, %"class.std::__1::auto_ptr"** %6, align 8
  %36 = load %"class.std::__1::auto_ptr"*, %"class.std::__1::auto_ptr"** %6, align 8
  store %"class.std::__1::auto_ptr"* %36, %"class.std::__1::auto_ptr"** %5, align 8
  %37 = load %"class.std::__1::auto_ptr"*, %"class.std::__1::auto_ptr"** %5, align 8
  %38 = getelementptr inbounds %"class.std::__1::auto_ptr", %"class.std::__1::auto_ptr"* %37, i32 0, i32 0, !dbg !3386
  %39 = load %"class.altered_carbon::js::ACJsValue"*, %"class.altered_carbon::js::ACJsValue"** %38, align 8, !dbg !3386
  %40 = icmp eq %"class.altered_carbon::js::ACJsValue"* %39, null, !dbg !3387
  br i1 %40, label %46, label %41, !dbg !3387

; <label>:41:                                     ; preds = %2
  %42 = bitcast %"class.altered_carbon::js::ACJsValue"* %39 to void (%"class.altered_carbon::js::ACJsValue"*)***, !dbg !3387
  %43 = load void (%"class.altered_carbon::js::ACJsValue"*)**, void (%"class.altered_carbon::js::ACJsValue"*)*** %42, align 8, !dbg !3387
  %44 = getelementptr inbounds void (%"class.altered_carbon::js::ACJsValue"*)*, void (%"class.altered_carbon::js::ACJsValue"*)** %43, i64 1, !dbg !3387
  %45 = load void (%"class.altered_carbon::js::ACJsValue"*)*, void (%"class.altered_carbon::js::ACJsValue"*)** %44, align 8, !dbg !3387
  call void %45(%"class.altered_carbon::js::ACJsValue"* %39) #8, !dbg !3387
  br label %46, !dbg !3387

; <label>:46:                                     ; preds = %2, %41
  ret %"class.altered_carbon::js::ACJsValue"* %35, !dbg !3378
}

; Function Attrs: noinline nounwind optnone ssp uwtable
define dereferenceable(16) %"class.altered_carbon::js::ACJsValue"* @_ZNK14altered_carbon2js10ACJsNumberrmERKNS0_9ACJsValueE(%"class.altered_carbon::js::ACJsNumber"*, %"class.altered_carbon::js::ACJsValue"* dereferenceable(16)) unnamed_addr #0 align 2 !dbg !3388 {
  %3 = alloca %"class.std::__1::auto_ptr"*, align 8
  call void @llvm.dbg.declare(metadata %"class.std::__1::auto_ptr"** %3, metadata !3266, metadata !DIExpression()), !dbg !3389
  %4 = alloca %"class.altered_carbon::js::ACJsValue"*, align 8
  call void @llvm.dbg.declare(metadata %"class.altered_carbon::js::ACJsValue"** %4, metadata !3271, metadata !DIExpression()), !dbg !3391
  %5 = alloca %"class.std::__1::auto_ptr"*, align 8
  call void @llvm.dbg.declare(metadata %"class.std::__1::auto_ptr"** %5, metadata !3273, metadata !DIExpression()), !dbg !3392
  %6 = alloca %"class.std::__1::auto_ptr"*, align 8
  call void @llvm.dbg.declare(metadata %"class.std::__1::auto_ptr"** %6, metadata !3279, metadata !DIExpression()), !dbg !3395
  %7 = alloca %"class.std::__1::auto_ptr"*, align 8
  call void @llvm.dbg.declare(metadata %"class.std::__1::auto_ptr"** %7, metadata !3281, metadata !DIExpression()), !dbg !3396
  %8 = alloca %"class.altered_carbon::js::ACJsValue"*, align 8
  call void @llvm.dbg.declare(metadata %"class.altered_carbon::js::ACJsValue"** %8, metadata !3287, metadata !DIExpression()), !dbg !3399
  %9 = alloca %"class.std::__1::auto_ptr"*, align 8
  call void @llvm.dbg.declare(metadata %"class.std::__1::auto_ptr"** %9, metadata !3289, metadata !DIExpression()), !dbg !3400
  %10 = alloca %"class.altered_carbon::js::ACJsValue"*, align 8
  call void @llvm.dbg.declare(metadata %"class.altered_carbon::js::ACJsValue"** %10, metadata !3291, metadata !DIExpression()), !dbg !3401
  %11 = alloca %"class.altered_carbon::js::ACJsNumber"*, align 8
  %12 = alloca %"class.altered_carbon::js::ACJsValue"*, align 8
  %13 = alloca %"class.std::__1::auto_ptr", align 8
  store %"class.altered_carbon::js::ACJsNumber"* %0, %"class.altered_carbon::js::ACJsNumber"** %11, align 8
  call void @llvm.dbg.declare(metadata %"class.altered_carbon::js::ACJsNumber"** %11, metadata !3402, metadata !DIExpression()), !dbg !3403
  store %"class.altered_carbon::js::ACJsValue"* %1, %"class.altered_carbon::js::ACJsValue"** %12, align 8
  call void @llvm.dbg.declare(metadata %"class.altered_carbon::js::ACJsValue"** %12, metadata !3404, metadata !DIExpression()), !dbg !3405
  %14 = load %"class.altered_carbon::js::ACJsNumber"*, %"class.altered_carbon::js::ACJsNumber"** %11, align 8
  %15 = load %"class.altered_carbon::js::ACJsValue"*, %"class.altered_carbon::js::ACJsValue"** %12, align 8, !dbg !3405
  %16 = call i8* @_Znwm(i64 40) #7, !dbg !3405
  %17 = bitcast i8* %16 to %"class.altered_carbon::js::ACJsNumber"*, !dbg !3405
  %18 = bitcast %"class.altered_carbon::js::ACJsNumber"* %14 to %"class.altered_carbon::js::ACJsPrimitive"*, !dbg !3405
  %19 = getelementptr inbounds %"class.altered_carbon::js::ACJsPrimitive", %"class.altered_carbon::js::ACJsPrimitive"* %18, i32 0, i32 1, !dbg !3405
  call void @_ZN14altered_carbon2js10ACJsNumberC1ERKNS0_11ACLexNumberE(%"class.altered_carbon::js::ACJsNumber"* %17, %"class.altered_carbon::js::ACLexNumber"* dereferenceable(24) %19), !dbg !3405
  %20 = bitcast %"class.altered_carbon::js::ACJsNumber"* %17 to %"class.altered_carbon::js::ACJsValue"*, !dbg !3405
  store %"class.std::__1::auto_ptr"* %13, %"class.std::__1::auto_ptr"** %9, align 8
  store %"class.altered_carbon::js::ACJsValue"* %20, %"class.altered_carbon::js::ACJsValue"** %10, align 8
  %21 = load %"class.std::__1::auto_ptr"*, %"class.std::__1::auto_ptr"** %9, align 8
  %22 = load %"class.altered_carbon::js::ACJsValue"*, %"class.altered_carbon::js::ACJsValue"** %10, align 8, !dbg !3406
  store %"class.std::__1::auto_ptr"* %21, %"class.std::__1::auto_ptr"** %7, align 8
  store %"class.altered_carbon::js::ACJsValue"* %22, %"class.altered_carbon::js::ACJsValue"** %8, align 8
  %23 = load %"class.std::__1::auto_ptr"*, %"class.std::__1::auto_ptr"** %7, align 8
  %24 = getelementptr inbounds %"class.std::__1::auto_ptr", %"class.std::__1::auto_ptr"* %23, i32 0, i32 0, !dbg !3407
  %25 = load %"class.altered_carbon::js::ACJsValue"*, %"class.altered_carbon::js::ACJsValue"** %8, align 8, !dbg !3408
  store %"class.altered_carbon::js::ACJsValue"* %25, %"class.altered_carbon::js::ACJsValue"** %24, align 8, !dbg !3407
  store %"class.std::__1::auto_ptr"* %13, %"class.std::__1::auto_ptr"** %3, align 8
  %26 = load %"class.std::__1::auto_ptr"*, %"class.std::__1::auto_ptr"** %3, align 8
  %27 = getelementptr inbounds %"class.std::__1::auto_ptr", %"class.std::__1::auto_ptr"* %26, i32 0, i32 0, !dbg !3409
  %28 = load %"class.altered_carbon::js::ACJsValue"*, %"class.altered_carbon::js::ACJsValue"** %27, align 8, !dbg !3409
  store %"class.altered_carbon::js::ACJsValue"* %28, %"class.altered_carbon::js::ACJsValue"** %4, align 8, !dbg !3391
  %29 = getelementptr inbounds %"class.std::__1::auto_ptr", %"class.std::__1::auto_ptr"* %26, i32 0, i32 0, !dbg !3410
  store %"class.altered_carbon::js::ACJsValue"* null, %"class.altered_carbon::js::ACJsValue"** %29, align 8, !dbg !3411
  %30 = load %"class.altered_carbon::js::ACJsValue"*, %"class.altered_carbon::js::ACJsValue"** %4, align 8, !dbg !3412
  %31 = bitcast %"class.altered_carbon::js::ACJsValue"* %30 to %"class.altered_carbon::js::ACJsValue"* (%"class.altered_carbon::js::ACJsValue"*, %"class.altered_carbon::js::ACJsValue"*)***, !dbg !3405
  %32 = load %"class.altered_carbon::js::ACJsValue"* (%"class.altered_carbon::js::ACJsValue"*, %"class.altered_carbon::js::ACJsValue"*)**, %"class.altered_carbon::js::ACJsValue"* (%"class.altered_carbon::js::ACJsValue"*, %"class.altered_carbon::js::ACJsValue"*)*** %31, align 8, !dbg !3405
  %33 = getelementptr inbounds %"class.altered_carbon::js::ACJsValue"* (%"class.altered_carbon::js::ACJsValue"*, %"class.altered_carbon::js::ACJsValue"*)*, %"class.altered_carbon::js::ACJsValue"* (%"class.altered_carbon::js::ACJsValue"*, %"class.altered_carbon::js::ACJsValue"*)** %32, i64 19, !dbg !3405
  %34 = load %"class.altered_carbon::js::ACJsValue"* (%"class.altered_carbon::js::ACJsValue"*, %"class.altered_carbon::js::ACJsValue"*)*, %"class.altered_carbon::js::ACJsValue"* (%"class.altered_carbon::js::ACJsValue"*, %"class.altered_carbon::js::ACJsValue"*)** %33, align 8, !dbg !3405
  %35 = call dereferenceable(16) %"class.altered_carbon::js::ACJsValue"* %34(%"class.altered_carbon::js::ACJsValue"* %30, %"class.altered_carbon::js::ACJsValue"* dereferenceable(16) %15), !dbg !3405
  store %"class.std::__1::auto_ptr"* %13, %"class.std::__1::auto_ptr"** %6, align 8
  %36 = load %"class.std::__1::auto_ptr"*, %"class.std::__1::auto_ptr"** %6, align 8
  store %"class.std::__1::auto_ptr"* %36, %"class.std::__1::auto_ptr"** %5, align 8
  %37 = load %"class.std::__1::auto_ptr"*, %"class.std::__1::auto_ptr"** %5, align 8
  %38 = getelementptr inbounds %"class.std::__1::auto_ptr", %"class.std::__1::auto_ptr"* %37, i32 0, i32 0, !dbg !3413
  %39 = load %"class.altered_carbon::js::ACJsValue"*, %"class.altered_carbon::js::ACJsValue"** %38, align 8, !dbg !3413
  %40 = icmp eq %"class.altered_carbon::js::ACJsValue"* %39, null, !dbg !3414
  br i1 %40, label %46, label %41, !dbg !3414

; <label>:41:                                     ; preds = %2
  %42 = bitcast %"class.altered_carbon::js::ACJsValue"* %39 to void (%"class.altered_carbon::js::ACJsValue"*)***, !dbg !3414
  %43 = load void (%"class.altered_carbon::js::ACJsValue"*)**, void (%"class.altered_carbon::js::ACJsValue"*)*** %42, align 8, !dbg !3414
  %44 = getelementptr inbounds void (%"class.altered_carbon::js::ACJsValue"*)*, void (%"class.altered_carbon::js::ACJsValue"*)** %43, i64 1, !dbg !3414
  %45 = load void (%"class.altered_carbon::js::ACJsValue"*)*, void (%"class.altered_carbon::js::ACJsValue"*)** %44, align 8, !dbg !3414
  call void %45(%"class.altered_carbon::js::ACJsValue"* %39) #8, !dbg !3414
  br label %46, !dbg !3414

; <label>:46:                                     ; preds = %2, %41
  ret %"class.altered_carbon::js::ACJsValue"* %35, !dbg !3405
}

; Function Attrs: noinline nounwind optnone ssp uwtable
define dereferenceable(16) %"class.altered_carbon::js::ACJsValue"* @_ZN14altered_carbon2js10ACJsNumberpLERKNS0_9ACJsValueE(%"class.altered_carbon::js::ACJsNumber"*, %"class.altered_carbon::js::ACJsValue"* dereferenceable(16)) unnamed_addr #0 align 2 !dbg !3415 {
  %3 = alloca %"class.altered_carbon::js::ACJsNumber"*, align 8
  %4 = alloca %"class.altered_carbon::js::ACJsValue"*, align 8
  %5 = alloca %"class.altered_carbon::js::ACLexNumber", align 8
  store %"class.altered_carbon::js::ACJsNumber"* %0, %"class.altered_carbon::js::ACJsNumber"** %3, align 8
  call void @llvm.dbg.declare(metadata %"class.altered_carbon::js::ACJsNumber"** %3, metadata !3416, metadata !DIExpression()), !dbg !3417
  store %"class.altered_carbon::js::ACJsValue"* %1, %"class.altered_carbon::js::ACJsValue"** %4, align 8
  call void @llvm.dbg.declare(metadata %"class.altered_carbon::js::ACJsValue"** %4, metadata !3418, metadata !DIExpression()), !dbg !3419
  %6 = load %"class.altered_carbon::js::ACJsNumber"*, %"class.altered_carbon::js::ACJsNumber"** %3, align 8
  %7 = load %"class.altered_carbon::js::ACJsValue"*, %"class.altered_carbon::js::ACJsValue"** %4, align 8, !dbg !3420
  %8 = call zeroext i1 @_ZNK14altered_carbon2js9ACJsValue11isUndefinedEv(%"class.altered_carbon::js::ACJsValue"* %7), !dbg !3420
  br i1 %8, label %9, label %14, !dbg !3419

; <label>:9:                                      ; preds = %2
  %10 = call double @nan(i8* getelementptr inbounds ([1 x i8], [1 x i8]* @.str, i32 0, i32 0)) #9, !dbg !3422
  %11 = bitcast %"class.altered_carbon::js::ACJsNumber"* %6 to %"class.altered_carbon::js::ACJsPrimitive"*, !dbg !3422
  %12 = getelementptr inbounds %"class.altered_carbon::js::ACJsPrimitive", %"class.altered_carbon::js::ACJsPrimitive"* %11, i32 0, i32 1, !dbg !3422
  %13 = call dereferenceable(24) %"class.altered_carbon::js::ACLexNumber"* @_ZN14altered_carbon2js11ACLexNumberaSEd(%"class.altered_carbon::js::ACLexNumber"* %12, double %10), !dbg !3422
  br label %29, !dbg !3422

; <label>:14:                                     ; preds = %2
  %15 = bitcast %"class.altered_carbon::js::ACJsNumber"* %6 to %"class.altered_carbon::js::ACJsPrimitive"*, !dbg !3424
  %16 = getelementptr inbounds %"class.altered_carbon::js::ACJsPrimitive", %"class.altered_carbon::js::ACJsPrimitive"* %15, i32 0, i32 1, !dbg !3424
  %17 = load %"class.altered_carbon::js::ACJsValue"*, %"class.altered_carbon::js::ACJsValue"** %4, align 8, !dbg !3424
  %18 = bitcast %"class.altered_carbon::js::ACJsValue"* %17 to %"class.altered_carbon::js::ACJsValue"* (%"class.altered_carbon::js::ACJsValue"*)***, !dbg !3424
  %19 = load %"class.altered_carbon::js::ACJsValue"* (%"class.altered_carbon::js::ACJsValue"*)**, %"class.altered_carbon::js::ACJsValue"* (%"class.altered_carbon::js::ACJsValue"*)*** %18, align 8, !dbg !3424
  %20 = getelementptr inbounds %"class.altered_carbon::js::ACJsValue"* (%"class.altered_carbon::js::ACJsValue"*)*, %"class.altered_carbon::js::ACJsValue"* (%"class.altered_carbon::js::ACJsValue"*)** %19, i64 42, !dbg !3424
  %21 = load %"class.altered_carbon::js::ACJsValue"* (%"class.altered_carbon::js::ACJsValue"*)*, %"class.altered_carbon::js::ACJsValue"* (%"class.altered_carbon::js::ACJsValue"*)** %20, align 8, !dbg !3424
  %22 = call %"class.altered_carbon::js::ACJsValue"* %21(%"class.altered_carbon::js::ACJsValue"* %17), !dbg !3424
  %23 = bitcast %"class.altered_carbon::js::ACJsValue"* %22 to %"class.altered_carbon::js::ACJsNumber"*, !dbg !3424
  %24 = bitcast %"class.altered_carbon::js::ACJsNumber"* %23 to %"class.altered_carbon::js::ACJsPrimitive"*, !dbg !3424
  %25 = getelementptr inbounds %"class.altered_carbon::js::ACJsPrimitive", %"class.altered_carbon::js::ACJsPrimitive"* %24, i32 0, i32 1, !dbg !3424
  call void @_ZNK14altered_carbon2js11ACLexNumberplERKS1_(%"class.altered_carbon::js::ACLexNumber"* sret %5, %"class.altered_carbon::js::ACLexNumber"* %16, %"class.altered_carbon::js::ACLexNumber"* dereferenceable(24) %25), !dbg !3424
  %26 = bitcast %"class.altered_carbon::js::ACJsNumber"* %6 to %"class.altered_carbon::js::ACJsPrimitive"*, !dbg !3424
  %27 = getelementptr inbounds %"class.altered_carbon::js::ACJsPrimitive", %"class.altered_carbon::js::ACJsPrimitive"* %26, i32 0, i32 1, !dbg !3424
  %28 = call dereferenceable(24) %"class.altered_carbon::js::ACLexNumber"* @_ZN14altered_carbon2js11ACLexNumberaSERKS1_(%"class.altered_carbon::js::ACLexNumber"* %27, %"class.altered_carbon::js::ACLexNumber"* dereferenceable(24) %5), !dbg !3424
  call void @_ZN14altered_carbon2js11ACLexNumberD1Ev(%"class.altered_carbon::js::ACLexNumber"* %5) #8, !dbg !3424
  br label %29

; <label>:29:                                     ; preds = %14, %9
  %30 = bitcast %"class.altered_carbon::js::ACJsNumber"* %6 to %"class.altered_carbon::js::ACJsValue"*, !dbg !3419
  ret %"class.altered_carbon::js::ACJsValue"* %30, !dbg !3419
}

; Function Attrs: noinline nounwind optnone ssp uwtable
define linkonce_odr hidden zeroext i1 @_ZNK14altered_carbon2js9ACJsValue11isUndefinedEv(%"class.altered_carbon::js::ACJsValue"*) #0 align 2 !dbg !3426 {
  %2 = alloca %"class.altered_carbon::js::ACJsValue"*, align 8
  store %"class.altered_carbon::js::ACJsValue"* %0, %"class.altered_carbon::js::ACJsValue"** %2, align 8
  call void @llvm.dbg.declare(metadata %"class.altered_carbon::js::ACJsValue"** %2, metadata !3427, metadata !DIExpression()), !dbg !3428
  %3 = load %"class.altered_carbon::js::ACJsValue"*, %"class.altered_carbon::js::ACJsValue"** %2, align 8
  %4 = getelementptr inbounds %"class.altered_carbon::js::ACJsValue", %"class.altered_carbon::js::ACJsValue"* %3, i32 0, i32 1, !dbg !3429
  %5 = load i32, i32* %4, align 8, !dbg !3429
  %6 = icmp eq i32 %5, -1, !dbg !3430
  ret i1 %6, !dbg !3431
}

; Function Attrs: nounwind readnone
declare double @nan(i8*) #4

declare void @_ZNK14altered_carbon2js11ACLexNumberplERKS1_(%"class.altered_carbon::js::ACLexNumber"* sret, %"class.altered_carbon::js::ACLexNumber"*, %"class.altered_carbon::js::ACLexNumber"* dereferenceable(24)) #2

; Function Attrs: noinline nounwind optnone ssp uwtable
define linkonce_odr hidden void @_ZN14altered_carbon2js11ACLexNumberD1Ev(%"class.altered_carbon::js::ACLexNumber"*) unnamed_addr #0 align 2 !dbg !3432 {
  %2 = alloca %"class.altered_carbon::js::ACLexNumber"*, align 8
  store %"class.altered_carbon::js::ACLexNumber"* %0, %"class.altered_carbon::js::ACLexNumber"** %2, align 8
  call void @llvm.dbg.declare(metadata %"class.altered_carbon::js::ACLexNumber"** %2, metadata !3433, metadata !DIExpression()), !dbg !3435
  %3 = load %"class.altered_carbon::js::ACLexNumber"*, %"class.altered_carbon::js::ACLexNumber"** %2, align 8
  call void @_ZN14altered_carbon2js11ACLexNumberD2Ev(%"class.altered_carbon::js::ACLexNumber"* %3) #8, !dbg !3436
  ret void, !dbg !3437
}

; Function Attrs: noinline nounwind optnone ssp uwtable
define dereferenceable(16) %"class.altered_carbon::js::ACJsValue"* @_ZN14altered_carbon2js10ACJsNumbermIERKNS0_9ACJsValueE(%"class.altered_carbon::js::ACJsNumber"*, %"class.altered_carbon::js::ACJsValue"* dereferenceable(16)) unnamed_addr #0 align 2 !dbg !3438 {
  %3 = alloca %"class.altered_carbon::js::ACJsNumber"*, align 8
  %4 = alloca %"class.altered_carbon::js::ACJsValue"*, align 8
  %5 = alloca %"class.altered_carbon::js::ACLexNumber", align 8
  store %"class.altered_carbon::js::ACJsNumber"* %0, %"class.altered_carbon::js::ACJsNumber"** %3, align 8
  call void @llvm.dbg.declare(metadata %"class.altered_carbon::js::ACJsNumber"** %3, metadata !3439, metadata !DIExpression()), !dbg !3440
  store %"class.altered_carbon::js::ACJsValue"* %1, %"class.altered_carbon::js::ACJsValue"** %4, align 8
  call void @llvm.dbg.declare(metadata %"class.altered_carbon::js::ACJsValue"** %4, metadata !3441, metadata !DIExpression()), !dbg !3442
  %6 = load %"class.altered_carbon::js::ACJsNumber"*, %"class.altered_carbon::js::ACJsNumber"** %3, align 8
  %7 = load %"class.altered_carbon::js::ACJsValue"*, %"class.altered_carbon::js::ACJsValue"** %4, align 8, !dbg !3443
  %8 = call zeroext i1 @_ZNK14altered_carbon2js9ACJsValue11isUndefinedEv(%"class.altered_carbon::js::ACJsValue"* %7), !dbg !3443
  br i1 %8, label %9, label %14, !dbg !3442

; <label>:9:                                      ; preds = %2
  %10 = call double @nan(i8* getelementptr inbounds ([1 x i8], [1 x i8]* @.str, i32 0, i32 0)) #9, !dbg !3445
  %11 = bitcast %"class.altered_carbon::js::ACJsNumber"* %6 to %"class.altered_carbon::js::ACJsPrimitive"*, !dbg !3445
  %12 = getelementptr inbounds %"class.altered_carbon::js::ACJsPrimitive", %"class.altered_carbon::js::ACJsPrimitive"* %11, i32 0, i32 1, !dbg !3445
  %13 = call dereferenceable(24) %"class.altered_carbon::js::ACLexNumber"* @_ZN14altered_carbon2js11ACLexNumberaSEd(%"class.altered_carbon::js::ACLexNumber"* %12, double %10), !dbg !3445
  br label %29, !dbg !3445

; <label>:14:                                     ; preds = %2
  %15 = bitcast %"class.altered_carbon::js::ACJsNumber"* %6 to %"class.altered_carbon::js::ACJsPrimitive"*, !dbg !3447
  %16 = getelementptr inbounds %"class.altered_carbon::js::ACJsPrimitive", %"class.altered_carbon::js::ACJsPrimitive"* %15, i32 0, i32 1, !dbg !3447
  %17 = load %"class.altered_carbon::js::ACJsValue"*, %"class.altered_carbon::js::ACJsValue"** %4, align 8, !dbg !3447
  %18 = bitcast %"class.altered_carbon::js::ACJsValue"* %17 to %"class.altered_carbon::js::ACJsValue"* (%"class.altered_carbon::js::ACJsValue"*)***, !dbg !3447
  %19 = load %"class.altered_carbon::js::ACJsValue"* (%"class.altered_carbon::js::ACJsValue"*)**, %"class.altered_carbon::js::ACJsValue"* (%"class.altered_carbon::js::ACJsValue"*)*** %18, align 8, !dbg !3447
  %20 = getelementptr inbounds %"class.altered_carbon::js::ACJsValue"* (%"class.altered_carbon::js::ACJsValue"*)*, %"class.altered_carbon::js::ACJsValue"* (%"class.altered_carbon::js::ACJsValue"*)** %19, i64 42, !dbg !3447
  %21 = load %"class.altered_carbon::js::ACJsValue"* (%"class.altered_carbon::js::ACJsValue"*)*, %"class.altered_carbon::js::ACJsValue"* (%"class.altered_carbon::js::ACJsValue"*)** %20, align 8, !dbg !3447
  %22 = call %"class.altered_carbon::js::ACJsValue"* %21(%"class.altered_carbon::js::ACJsValue"* %17), !dbg !3447
  %23 = bitcast %"class.altered_carbon::js::ACJsValue"* %22 to %"class.altered_carbon::js::ACJsNumber"*, !dbg !3447
  %24 = bitcast %"class.altered_carbon::js::ACJsNumber"* %23 to %"class.altered_carbon::js::ACJsPrimitive"*, !dbg !3447
  %25 = getelementptr inbounds %"class.altered_carbon::js::ACJsPrimitive", %"class.altered_carbon::js::ACJsPrimitive"* %24, i32 0, i32 1, !dbg !3447
  call void @_ZNK14altered_carbon2js11ACLexNumbermiERKS1_(%"class.altered_carbon::js::ACLexNumber"* sret %5, %"class.altered_carbon::js::ACLexNumber"* %16, %"class.altered_carbon::js::ACLexNumber"* dereferenceable(24) %25), !dbg !3447
  %26 = bitcast %"class.altered_carbon::js::ACJsNumber"* %6 to %"class.altered_carbon::js::ACJsPrimitive"*, !dbg !3447
  %27 = getelementptr inbounds %"class.altered_carbon::js::ACJsPrimitive", %"class.altered_carbon::js::ACJsPrimitive"* %26, i32 0, i32 1, !dbg !3447
  %28 = call dereferenceable(24) %"class.altered_carbon::js::ACLexNumber"* @_ZN14altered_carbon2js11ACLexNumberaSERKS1_(%"class.altered_carbon::js::ACLexNumber"* %27, %"class.altered_carbon::js::ACLexNumber"* dereferenceable(24) %5), !dbg !3447
  call void @_ZN14altered_carbon2js11ACLexNumberD1Ev(%"class.altered_carbon::js::ACLexNumber"* %5) #8, !dbg !3447
  br label %29

; <label>:29:                                     ; preds = %14, %9
  %30 = bitcast %"class.altered_carbon::js::ACJsNumber"* %6 to %"class.altered_carbon::js::ACJsValue"*, !dbg !3442
  ret %"class.altered_carbon::js::ACJsValue"* %30, !dbg !3442
}

declare void @_ZNK14altered_carbon2js11ACLexNumbermiERKS1_(%"class.altered_carbon::js::ACLexNumber"* sret, %"class.altered_carbon::js::ACLexNumber"*, %"class.altered_carbon::js::ACLexNumber"* dereferenceable(24)) #2

; Function Attrs: noinline nounwind optnone ssp uwtable
define dereferenceable(16) %"class.altered_carbon::js::ACJsValue"* @_ZN14altered_carbon2js10ACJsNumbermLERKNS0_9ACJsValueE(%"class.altered_carbon::js::ACJsNumber"*, %"class.altered_carbon::js::ACJsValue"* dereferenceable(16)) unnamed_addr #0 align 2 !dbg !3449 {
  %3 = alloca %"class.altered_carbon::js::ACJsNumber"*, align 8
  %4 = alloca %"class.altered_carbon::js::ACJsValue"*, align 8
  %5 = alloca %"class.altered_carbon::js::ACLexNumber", align 8
  store %"class.altered_carbon::js::ACJsNumber"* %0, %"class.altered_carbon::js::ACJsNumber"** %3, align 8
  call void @llvm.dbg.declare(metadata %"class.altered_carbon::js::ACJsNumber"** %3, metadata !3450, metadata !DIExpression()), !dbg !3451
  store %"class.altered_carbon::js::ACJsValue"* %1, %"class.altered_carbon::js::ACJsValue"** %4, align 8
  call void @llvm.dbg.declare(metadata %"class.altered_carbon::js::ACJsValue"** %4, metadata !3452, metadata !DIExpression()), !dbg !3453
  %6 = load %"class.altered_carbon::js::ACJsNumber"*, %"class.altered_carbon::js::ACJsNumber"** %3, align 8
  %7 = load %"class.altered_carbon::js::ACJsValue"*, %"class.altered_carbon::js::ACJsValue"** %4, align 8, !dbg !3454
  %8 = call zeroext i1 @_ZNK14altered_carbon2js9ACJsValue11isUndefinedEv(%"class.altered_carbon::js::ACJsValue"* %7), !dbg !3454
  br i1 %8, label %9, label %14, !dbg !3453

; <label>:9:                                      ; preds = %2
  %10 = call double @nan(i8* getelementptr inbounds ([1 x i8], [1 x i8]* @.str, i32 0, i32 0)) #9, !dbg !3456
  %11 = bitcast %"class.altered_carbon::js::ACJsNumber"* %6 to %"class.altered_carbon::js::ACJsPrimitive"*, !dbg !3456
  %12 = getelementptr inbounds %"class.altered_carbon::js::ACJsPrimitive", %"class.altered_carbon::js::ACJsPrimitive"* %11, i32 0, i32 1, !dbg !3456
  %13 = call dereferenceable(24) %"class.altered_carbon::js::ACLexNumber"* @_ZN14altered_carbon2js11ACLexNumberaSEd(%"class.altered_carbon::js::ACLexNumber"* %12, double %10), !dbg !3456
  br label %29, !dbg !3456

; <label>:14:                                     ; preds = %2
  %15 = bitcast %"class.altered_carbon::js::ACJsNumber"* %6 to %"class.altered_carbon::js::ACJsPrimitive"*, !dbg !3458
  %16 = getelementptr inbounds %"class.altered_carbon::js::ACJsPrimitive", %"class.altered_carbon::js::ACJsPrimitive"* %15, i32 0, i32 1, !dbg !3458
  %17 = load %"class.altered_carbon::js::ACJsValue"*, %"class.altered_carbon::js::ACJsValue"** %4, align 8, !dbg !3458
  %18 = bitcast %"class.altered_carbon::js::ACJsValue"* %17 to %"class.altered_carbon::js::ACJsValue"* (%"class.altered_carbon::js::ACJsValue"*)***, !dbg !3458
  %19 = load %"class.altered_carbon::js::ACJsValue"* (%"class.altered_carbon::js::ACJsValue"*)**, %"class.altered_carbon::js::ACJsValue"* (%"class.altered_carbon::js::ACJsValue"*)*** %18, align 8, !dbg !3458
  %20 = getelementptr inbounds %"class.altered_carbon::js::ACJsValue"* (%"class.altered_carbon::js::ACJsValue"*)*, %"class.altered_carbon::js::ACJsValue"* (%"class.altered_carbon::js::ACJsValue"*)** %19, i64 42, !dbg !3458
  %21 = load %"class.altered_carbon::js::ACJsValue"* (%"class.altered_carbon::js::ACJsValue"*)*, %"class.altered_carbon::js::ACJsValue"* (%"class.altered_carbon::js::ACJsValue"*)** %20, align 8, !dbg !3458
  %22 = call %"class.altered_carbon::js::ACJsValue"* %21(%"class.altered_carbon::js::ACJsValue"* %17), !dbg !3458
  %23 = bitcast %"class.altered_carbon::js::ACJsValue"* %22 to %"class.altered_carbon::js::ACJsNumber"*, !dbg !3458
  %24 = bitcast %"class.altered_carbon::js::ACJsNumber"* %23 to %"class.altered_carbon::js::ACJsPrimitive"*, !dbg !3458
  %25 = getelementptr inbounds %"class.altered_carbon::js::ACJsPrimitive", %"class.altered_carbon::js::ACJsPrimitive"* %24, i32 0, i32 1, !dbg !3458
  call void @_ZNK14altered_carbon2js11ACLexNumbermlERKS1_(%"class.altered_carbon::js::ACLexNumber"* sret %5, %"class.altered_carbon::js::ACLexNumber"* %16, %"class.altered_carbon::js::ACLexNumber"* dereferenceable(24) %25), !dbg !3458
  %26 = bitcast %"class.altered_carbon::js::ACJsNumber"* %6 to %"class.altered_carbon::js::ACJsPrimitive"*, !dbg !3458
  %27 = getelementptr inbounds %"class.altered_carbon::js::ACJsPrimitive", %"class.altered_carbon::js::ACJsPrimitive"* %26, i32 0, i32 1, !dbg !3458
  %28 = call dereferenceable(24) %"class.altered_carbon::js::ACLexNumber"* @_ZN14altered_carbon2js11ACLexNumberaSERKS1_(%"class.altered_carbon::js::ACLexNumber"* %27, %"class.altered_carbon::js::ACLexNumber"* dereferenceable(24) %5), !dbg !3458
  call void @_ZN14altered_carbon2js11ACLexNumberD1Ev(%"class.altered_carbon::js::ACLexNumber"* %5) #8, !dbg !3458
  br label %29

; <label>:29:                                     ; preds = %14, %9
  %30 = bitcast %"class.altered_carbon::js::ACJsNumber"* %6 to %"class.altered_carbon::js::ACJsValue"*, !dbg !3453
  ret %"class.altered_carbon::js::ACJsValue"* %30, !dbg !3453
}

declare void @_ZNK14altered_carbon2js11ACLexNumbermlERKS1_(%"class.altered_carbon::js::ACLexNumber"* sret, %"class.altered_carbon::js::ACLexNumber"*, %"class.altered_carbon::js::ACLexNumber"* dereferenceable(24)) #2

; Function Attrs: noinline nounwind optnone ssp uwtable
define dereferenceable(16) %"class.altered_carbon::js::ACJsValue"* @_ZN14altered_carbon2js10ACJsNumberdVERKNS0_9ACJsValueE(%"class.altered_carbon::js::ACJsNumber"*, %"class.altered_carbon::js::ACJsValue"* dereferenceable(16)) unnamed_addr #0 align 2 !dbg !3460 {
  %3 = alloca %"class.altered_carbon::js::ACJsNumber"*, align 8
  %4 = alloca %"class.altered_carbon::js::ACJsValue"*, align 8
  %5 = alloca %"class.altered_carbon::js::ACLexNumber", align 8
  store %"class.altered_carbon::js::ACJsNumber"* %0, %"class.altered_carbon::js::ACJsNumber"** %3, align 8
  call void @llvm.dbg.declare(metadata %"class.altered_carbon::js::ACJsNumber"** %3, metadata !3461, metadata !DIExpression()), !dbg !3462
  store %"class.altered_carbon::js::ACJsValue"* %1, %"class.altered_carbon::js::ACJsValue"** %4, align 8
  call void @llvm.dbg.declare(metadata %"class.altered_carbon::js::ACJsValue"** %4, metadata !3463, metadata !DIExpression()), !dbg !3464
  %6 = load %"class.altered_carbon::js::ACJsNumber"*, %"class.altered_carbon::js::ACJsNumber"** %3, align 8
  %7 = load %"class.altered_carbon::js::ACJsValue"*, %"class.altered_carbon::js::ACJsValue"** %4, align 8, !dbg !3465
  %8 = call zeroext i1 @_ZNK14altered_carbon2js9ACJsValue11isUndefinedEv(%"class.altered_carbon::js::ACJsValue"* %7), !dbg !3465
  br i1 %8, label %9, label %14, !dbg !3464

; <label>:9:                                      ; preds = %2
  %10 = call double @nan(i8* getelementptr inbounds ([1 x i8], [1 x i8]* @.str, i32 0, i32 0)) #9, !dbg !3467
  %11 = bitcast %"class.altered_carbon::js::ACJsNumber"* %6 to %"class.altered_carbon::js::ACJsPrimitive"*, !dbg !3467
  %12 = getelementptr inbounds %"class.altered_carbon::js::ACJsPrimitive", %"class.altered_carbon::js::ACJsPrimitive"* %11, i32 0, i32 1, !dbg !3467
  %13 = call dereferenceable(24) %"class.altered_carbon::js::ACLexNumber"* @_ZN14altered_carbon2js11ACLexNumberaSEd(%"class.altered_carbon::js::ACLexNumber"* %12, double %10), !dbg !3467
  br label %29, !dbg !3467

; <label>:14:                                     ; preds = %2
  %15 = bitcast %"class.altered_carbon::js::ACJsNumber"* %6 to %"class.altered_carbon::js::ACJsPrimitive"*, !dbg !3469
  %16 = getelementptr inbounds %"class.altered_carbon::js::ACJsPrimitive", %"class.altered_carbon::js::ACJsPrimitive"* %15, i32 0, i32 1, !dbg !3469
  %17 = load %"class.altered_carbon::js::ACJsValue"*, %"class.altered_carbon::js::ACJsValue"** %4, align 8, !dbg !3469
  %18 = bitcast %"class.altered_carbon::js::ACJsValue"* %17 to %"class.altered_carbon::js::ACJsValue"* (%"class.altered_carbon::js::ACJsValue"*)***, !dbg !3469
  %19 = load %"class.altered_carbon::js::ACJsValue"* (%"class.altered_carbon::js::ACJsValue"*)**, %"class.altered_carbon::js::ACJsValue"* (%"class.altered_carbon::js::ACJsValue"*)*** %18, align 8, !dbg !3469
  %20 = getelementptr inbounds %"class.altered_carbon::js::ACJsValue"* (%"class.altered_carbon::js::ACJsValue"*)*, %"class.altered_carbon::js::ACJsValue"* (%"class.altered_carbon::js::ACJsValue"*)** %19, i64 42, !dbg !3469
  %21 = load %"class.altered_carbon::js::ACJsValue"* (%"class.altered_carbon::js::ACJsValue"*)*, %"class.altered_carbon::js::ACJsValue"* (%"class.altered_carbon::js::ACJsValue"*)** %20, align 8, !dbg !3469
  %22 = call %"class.altered_carbon::js::ACJsValue"* %21(%"class.altered_carbon::js::ACJsValue"* %17), !dbg !3469
  %23 = bitcast %"class.altered_carbon::js::ACJsValue"* %22 to %"class.altered_carbon::js::ACJsNumber"*, !dbg !3469
  %24 = bitcast %"class.altered_carbon::js::ACJsNumber"* %23 to %"class.altered_carbon::js::ACJsPrimitive"*, !dbg !3469
  %25 = getelementptr inbounds %"class.altered_carbon::js::ACJsPrimitive", %"class.altered_carbon::js::ACJsPrimitive"* %24, i32 0, i32 1, !dbg !3469
  call void @_ZNK14altered_carbon2js11ACLexNumberdvERKS1_(%"class.altered_carbon::js::ACLexNumber"* sret %5, %"class.altered_carbon::js::ACLexNumber"* %16, %"class.altered_carbon::js::ACLexNumber"* dereferenceable(24) %25), !dbg !3469
  %26 = bitcast %"class.altered_carbon::js::ACJsNumber"* %6 to %"class.altered_carbon::js::ACJsPrimitive"*, !dbg !3469
  %27 = getelementptr inbounds %"class.altered_carbon::js::ACJsPrimitive", %"class.altered_carbon::js::ACJsPrimitive"* %26, i32 0, i32 1, !dbg !3469
  %28 = call dereferenceable(24) %"class.altered_carbon::js::ACLexNumber"* @_ZN14altered_carbon2js11ACLexNumberaSERKS1_(%"class.altered_carbon::js::ACLexNumber"* %27, %"class.altered_carbon::js::ACLexNumber"* dereferenceable(24) %5), !dbg !3469
  call void @_ZN14altered_carbon2js11ACLexNumberD1Ev(%"class.altered_carbon::js::ACLexNumber"* %5) #8, !dbg !3469
  br label %29

; <label>:29:                                     ; preds = %14, %9
  %30 = bitcast %"class.altered_carbon::js::ACJsNumber"* %6 to %"class.altered_carbon::js::ACJsValue"*, !dbg !3464
  ret %"class.altered_carbon::js::ACJsValue"* %30, !dbg !3464
}

declare void @_ZNK14altered_carbon2js11ACLexNumberdvERKS1_(%"class.altered_carbon::js::ACLexNumber"* sret, %"class.altered_carbon::js::ACLexNumber"*, %"class.altered_carbon::js::ACLexNumber"* dereferenceable(24)) #2

; Function Attrs: noinline nounwind optnone ssp uwtable
define dereferenceable(16) %"class.altered_carbon::js::ACJsValue"* @_ZN14altered_carbon2js10ACJsNumberrMERKNS0_9ACJsValueE(%"class.altered_carbon::js::ACJsNumber"*, %"class.altered_carbon::js::ACJsValue"* dereferenceable(16)) unnamed_addr #0 align 2 !dbg !3471 {
  %3 = alloca %"class.altered_carbon::js::ACJsNumber"*, align 8
  %4 = alloca %"class.altered_carbon::js::ACJsValue"*, align 8
  %5 = alloca %"class.altered_carbon::js::ACLexNumber", align 8
  store %"class.altered_carbon::js::ACJsNumber"* %0, %"class.altered_carbon::js::ACJsNumber"** %3, align 8
  call void @llvm.dbg.declare(metadata %"class.altered_carbon::js::ACJsNumber"** %3, metadata !3472, metadata !DIExpression()), !dbg !3473
  store %"class.altered_carbon::js::ACJsValue"* %1, %"class.altered_carbon::js::ACJsValue"** %4, align 8
  call void @llvm.dbg.declare(metadata %"class.altered_carbon::js::ACJsValue"** %4, metadata !3474, metadata !DIExpression()), !dbg !3475
  %6 = load %"class.altered_carbon::js::ACJsNumber"*, %"class.altered_carbon::js::ACJsNumber"** %3, align 8
  %7 = load %"class.altered_carbon::js::ACJsValue"*, %"class.altered_carbon::js::ACJsValue"** %4, align 8, !dbg !3476
  %8 = call zeroext i1 @_ZNK14altered_carbon2js9ACJsValue11isUndefinedEv(%"class.altered_carbon::js::ACJsValue"* %7), !dbg !3476
  br i1 %8, label %9, label %14, !dbg !3475

; <label>:9:                                      ; preds = %2
  %10 = call double @nan(i8* getelementptr inbounds ([1 x i8], [1 x i8]* @.str, i32 0, i32 0)) #9, !dbg !3478
  %11 = bitcast %"class.altered_carbon::js::ACJsNumber"* %6 to %"class.altered_carbon::js::ACJsPrimitive"*, !dbg !3478
  %12 = getelementptr inbounds %"class.altered_carbon::js::ACJsPrimitive", %"class.altered_carbon::js::ACJsPrimitive"* %11, i32 0, i32 1, !dbg !3478
  %13 = call dereferenceable(24) %"class.altered_carbon::js::ACLexNumber"* @_ZN14altered_carbon2js11ACLexNumberaSEd(%"class.altered_carbon::js::ACLexNumber"* %12, double %10), !dbg !3478
  br label %29, !dbg !3478

; <label>:14:                                     ; preds = %2
  %15 = bitcast %"class.altered_carbon::js::ACJsNumber"* %6 to %"class.altered_carbon::js::ACJsPrimitive"*, !dbg !3480
  %16 = getelementptr inbounds %"class.altered_carbon::js::ACJsPrimitive", %"class.altered_carbon::js::ACJsPrimitive"* %15, i32 0, i32 1, !dbg !3480
  %17 = load %"class.altered_carbon::js::ACJsValue"*, %"class.altered_carbon::js::ACJsValue"** %4, align 8, !dbg !3480
  %18 = bitcast %"class.altered_carbon::js::ACJsValue"* %17 to %"class.altered_carbon::js::ACJsValue"* (%"class.altered_carbon::js::ACJsValue"*)***, !dbg !3480
  %19 = load %"class.altered_carbon::js::ACJsValue"* (%"class.altered_carbon::js::ACJsValue"*)**, %"class.altered_carbon::js::ACJsValue"* (%"class.altered_carbon::js::ACJsValue"*)*** %18, align 8, !dbg !3480
  %20 = getelementptr inbounds %"class.altered_carbon::js::ACJsValue"* (%"class.altered_carbon::js::ACJsValue"*)*, %"class.altered_carbon::js::ACJsValue"* (%"class.altered_carbon::js::ACJsValue"*)** %19, i64 42, !dbg !3480
  %21 = load %"class.altered_carbon::js::ACJsValue"* (%"class.altered_carbon::js::ACJsValue"*)*, %"class.altered_carbon::js::ACJsValue"* (%"class.altered_carbon::js::ACJsValue"*)** %20, align 8, !dbg !3480
  %22 = call %"class.altered_carbon::js::ACJsValue"* %21(%"class.altered_carbon::js::ACJsValue"* %17), !dbg !3480
  %23 = bitcast %"class.altered_carbon::js::ACJsValue"* %22 to %"class.altered_carbon::js::ACJsNumber"*, !dbg !3480
  %24 = bitcast %"class.altered_carbon::js::ACJsNumber"* %23 to %"class.altered_carbon::js::ACJsPrimitive"*, !dbg !3480
  %25 = getelementptr inbounds %"class.altered_carbon::js::ACJsPrimitive", %"class.altered_carbon::js::ACJsPrimitive"* %24, i32 0, i32 1, !dbg !3480
  call void @_ZNK14altered_carbon2js11ACLexNumberrmERKS1_(%"class.altered_carbon::js::ACLexNumber"* sret %5, %"class.altered_carbon::js::ACLexNumber"* %16, %"class.altered_carbon::js::ACLexNumber"* dereferenceable(24) %25), !dbg !3480
  %26 = bitcast %"class.altered_carbon::js::ACJsNumber"* %6 to %"class.altered_carbon::js::ACJsPrimitive"*, !dbg !3480
  %27 = getelementptr inbounds %"class.altered_carbon::js::ACJsPrimitive", %"class.altered_carbon::js::ACJsPrimitive"* %26, i32 0, i32 1, !dbg !3480
  %28 = call dereferenceable(24) %"class.altered_carbon::js::ACLexNumber"* @_ZN14altered_carbon2js11ACLexNumberaSERKS1_(%"class.altered_carbon::js::ACLexNumber"* %27, %"class.altered_carbon::js::ACLexNumber"* dereferenceable(24) %5), !dbg !3480
  call void @_ZN14altered_carbon2js11ACLexNumberD1Ev(%"class.altered_carbon::js::ACLexNumber"* %5) #8, !dbg !3480
  br label %29

; <label>:29:                                     ; preds = %14, %9
  %30 = bitcast %"class.altered_carbon::js::ACJsNumber"* %6 to %"class.altered_carbon::js::ACJsValue"*, !dbg !3475
  ret %"class.altered_carbon::js::ACJsValue"* %30, !dbg !3475
}

declare void @_ZNK14altered_carbon2js11ACLexNumberrmERKS1_(%"class.altered_carbon::js::ACLexNumber"* sret, %"class.altered_carbon::js::ACLexNumber"*, %"class.altered_carbon::js::ACLexNumber"* dereferenceable(24)) #2

; Function Attrs: noinline nounwind optnone ssp uwtable
define dereferenceable(16) %"class.altered_carbon::js::ACJsValue"* @_ZNK14altered_carbon2js10ACJsNumbereoERKNS0_9ACJsValueE(%"class.altered_carbon::js::ACJsNumber"*, %"class.altered_carbon::js::ACJsValue"* dereferenceable(16)) unnamed_addr #0 align 2 !dbg !3482 {
  %3 = alloca %"class.std::__1::auto_ptr"*, align 8
  call void @llvm.dbg.declare(metadata %"class.std::__1::auto_ptr"** %3, metadata !3266, metadata !DIExpression()), !dbg !3483
  %4 = alloca %"class.altered_carbon::js::ACJsValue"*, align 8
  call void @llvm.dbg.declare(metadata %"class.altered_carbon::js::ACJsValue"** %4, metadata !3271, metadata !DIExpression()), !dbg !3485
  %5 = alloca %"class.std::__1::auto_ptr"*, align 8
  call void @llvm.dbg.declare(metadata %"class.std::__1::auto_ptr"** %5, metadata !3273, metadata !DIExpression()), !dbg !3486
  %6 = alloca %"class.std::__1::auto_ptr"*, align 8
  call void @llvm.dbg.declare(metadata %"class.std::__1::auto_ptr"** %6, metadata !3279, metadata !DIExpression()), !dbg !3489
  %7 = alloca %"class.std::__1::auto_ptr"*, align 8
  call void @llvm.dbg.declare(metadata %"class.std::__1::auto_ptr"** %7, metadata !3281, metadata !DIExpression()), !dbg !3490
  %8 = alloca %"class.altered_carbon::js::ACJsValue"*, align 8
  call void @llvm.dbg.declare(metadata %"class.altered_carbon::js::ACJsValue"** %8, metadata !3287, metadata !DIExpression()), !dbg !3493
  %9 = alloca %"class.std::__1::auto_ptr"*, align 8
  call void @llvm.dbg.declare(metadata %"class.std::__1::auto_ptr"** %9, metadata !3289, metadata !DIExpression()), !dbg !3494
  %10 = alloca %"class.altered_carbon::js::ACJsValue"*, align 8
  call void @llvm.dbg.declare(metadata %"class.altered_carbon::js::ACJsValue"** %10, metadata !3291, metadata !DIExpression()), !dbg !3495
  %11 = alloca %"class.altered_carbon::js::ACJsNumber"*, align 8
  %12 = alloca %"class.altered_carbon::js::ACJsValue"*, align 8
  %13 = alloca %"class.std::__1::auto_ptr", align 8
  store %"class.altered_carbon::js::ACJsNumber"* %0, %"class.altered_carbon::js::ACJsNumber"** %11, align 8
  call void @llvm.dbg.declare(metadata %"class.altered_carbon::js::ACJsNumber"** %11, metadata !3496, metadata !DIExpression()), !dbg !3497
  store %"class.altered_carbon::js::ACJsValue"* %1, %"class.altered_carbon::js::ACJsValue"** %12, align 8
  call void @llvm.dbg.declare(metadata %"class.altered_carbon::js::ACJsValue"** %12, metadata !3498, metadata !DIExpression()), !dbg !3499
  %14 = load %"class.altered_carbon::js::ACJsNumber"*, %"class.altered_carbon::js::ACJsNumber"** %11, align 8
  %15 = load %"class.altered_carbon::js::ACJsValue"*, %"class.altered_carbon::js::ACJsValue"** %12, align 8, !dbg !3499
  %16 = call i8* @_Znwm(i64 40) #7, !dbg !3499
  %17 = bitcast i8* %16 to %"class.altered_carbon::js::ACJsNumber"*, !dbg !3499
  %18 = bitcast %"class.altered_carbon::js::ACJsNumber"* %14 to %"class.altered_carbon::js::ACJsPrimitive"*, !dbg !3499
  %19 = getelementptr inbounds %"class.altered_carbon::js::ACJsPrimitive", %"class.altered_carbon::js::ACJsPrimitive"* %18, i32 0, i32 1, !dbg !3499
  call void @_ZN14altered_carbon2js10ACJsNumberC1ERKNS0_11ACLexNumberE(%"class.altered_carbon::js::ACJsNumber"* %17, %"class.altered_carbon::js::ACLexNumber"* dereferenceable(24) %19), !dbg !3499
  %20 = bitcast %"class.altered_carbon::js::ACJsNumber"* %17 to %"class.altered_carbon::js::ACJsValue"*, !dbg !3499
  store %"class.std::__1::auto_ptr"* %13, %"class.std::__1::auto_ptr"** %9, align 8
  store %"class.altered_carbon::js::ACJsValue"* %20, %"class.altered_carbon::js::ACJsValue"** %10, align 8
  %21 = load %"class.std::__1::auto_ptr"*, %"class.std::__1::auto_ptr"** %9, align 8
  %22 = load %"class.altered_carbon::js::ACJsValue"*, %"class.altered_carbon::js::ACJsValue"** %10, align 8, !dbg !3500
  store %"class.std::__1::auto_ptr"* %21, %"class.std::__1::auto_ptr"** %7, align 8
  store %"class.altered_carbon::js::ACJsValue"* %22, %"class.altered_carbon::js::ACJsValue"** %8, align 8
  %23 = load %"class.std::__1::auto_ptr"*, %"class.std::__1::auto_ptr"** %7, align 8
  %24 = getelementptr inbounds %"class.std::__1::auto_ptr", %"class.std::__1::auto_ptr"* %23, i32 0, i32 0, !dbg !3501
  %25 = load %"class.altered_carbon::js::ACJsValue"*, %"class.altered_carbon::js::ACJsValue"** %8, align 8, !dbg !3502
  store %"class.altered_carbon::js::ACJsValue"* %25, %"class.altered_carbon::js::ACJsValue"** %24, align 8, !dbg !3501
  store %"class.std::__1::auto_ptr"* %13, %"class.std::__1::auto_ptr"** %3, align 8
  %26 = load %"class.std::__1::auto_ptr"*, %"class.std::__1::auto_ptr"** %3, align 8
  %27 = getelementptr inbounds %"class.std::__1::auto_ptr", %"class.std::__1::auto_ptr"* %26, i32 0, i32 0, !dbg !3503
  %28 = load %"class.altered_carbon::js::ACJsValue"*, %"class.altered_carbon::js::ACJsValue"** %27, align 8, !dbg !3503
  store %"class.altered_carbon::js::ACJsValue"* %28, %"class.altered_carbon::js::ACJsValue"** %4, align 8, !dbg !3485
  %29 = getelementptr inbounds %"class.std::__1::auto_ptr", %"class.std::__1::auto_ptr"* %26, i32 0, i32 0, !dbg !3504
  store %"class.altered_carbon::js::ACJsValue"* null, %"class.altered_carbon::js::ACJsValue"** %29, align 8, !dbg !3505
  %30 = load %"class.altered_carbon::js::ACJsValue"*, %"class.altered_carbon::js::ACJsValue"** %4, align 8, !dbg !3506
  %31 = bitcast %"class.altered_carbon::js::ACJsValue"* %30 to %"class.altered_carbon::js::ACJsValue"* (%"class.altered_carbon::js::ACJsValue"*, %"class.altered_carbon::js::ACJsValue"*)***, !dbg !3499
  %32 = load %"class.altered_carbon::js::ACJsValue"* (%"class.altered_carbon::js::ACJsValue"*, %"class.altered_carbon::js::ACJsValue"*)**, %"class.altered_carbon::js::ACJsValue"* (%"class.altered_carbon::js::ACJsValue"*, %"class.altered_carbon::js::ACJsValue"*)*** %31, align 8, !dbg !3499
  %33 = getelementptr inbounds %"class.altered_carbon::js::ACJsValue"* (%"class.altered_carbon::js::ACJsValue"*, %"class.altered_carbon::js::ACJsValue"*)*, %"class.altered_carbon::js::ACJsValue"* (%"class.altered_carbon::js::ACJsValue"*, %"class.altered_carbon::js::ACJsValue"*)** %32, i64 20, !dbg !3499
  %34 = load %"class.altered_carbon::js::ACJsValue"* (%"class.altered_carbon::js::ACJsValue"*, %"class.altered_carbon::js::ACJsValue"*)*, %"class.altered_carbon::js::ACJsValue"* (%"class.altered_carbon::js::ACJsValue"*, %"class.altered_carbon::js::ACJsValue"*)** %33, align 8, !dbg !3499
  %35 = call dereferenceable(16) %"class.altered_carbon::js::ACJsValue"* %34(%"class.altered_carbon::js::ACJsValue"* %30, %"class.altered_carbon::js::ACJsValue"* dereferenceable(16) %15), !dbg !3499
  store %"class.std::__1::auto_ptr"* %13, %"class.std::__1::auto_ptr"** %6, align 8
  %36 = load %"class.std::__1::auto_ptr"*, %"class.std::__1::auto_ptr"** %6, align 8
  store %"class.std::__1::auto_ptr"* %36, %"class.std::__1::auto_ptr"** %5, align 8
  %37 = load %"class.std::__1::auto_ptr"*, %"class.std::__1::auto_ptr"** %5, align 8
  %38 = getelementptr inbounds %"class.std::__1::auto_ptr", %"class.std::__1::auto_ptr"* %37, i32 0, i32 0, !dbg !3507
  %39 = load %"class.altered_carbon::js::ACJsValue"*, %"class.altered_carbon::js::ACJsValue"** %38, align 8, !dbg !3507
  %40 = icmp eq %"class.altered_carbon::js::ACJsValue"* %39, null, !dbg !3508
  br i1 %40, label %46, label %41, !dbg !3508

; <label>:41:                                     ; preds = %2
  %42 = bitcast %"class.altered_carbon::js::ACJsValue"* %39 to void (%"class.altered_carbon::js::ACJsValue"*)***, !dbg !3508
  %43 = load void (%"class.altered_carbon::js::ACJsValue"*)**, void (%"class.altered_carbon::js::ACJsValue"*)*** %42, align 8, !dbg !3508
  %44 = getelementptr inbounds void (%"class.altered_carbon::js::ACJsValue"*)*, void (%"class.altered_carbon::js::ACJsValue"*)** %43, i64 1, !dbg !3508
  %45 = load void (%"class.altered_carbon::js::ACJsValue"*)*, void (%"class.altered_carbon::js::ACJsValue"*)** %44, align 8, !dbg !3508
  call void %45(%"class.altered_carbon::js::ACJsValue"* %39) #8, !dbg !3508
  br label %46, !dbg !3508

; <label>:46:                                     ; preds = %2, %41
  ret %"class.altered_carbon::js::ACJsValue"* %35, !dbg !3499
}

; Function Attrs: noinline nounwind optnone ssp uwtable
define dereferenceable(16) %"class.altered_carbon::js::ACJsValue"* @_ZNK14altered_carbon2js10ACJsNumberorERKNS0_9ACJsValueE(%"class.altered_carbon::js::ACJsNumber"*, %"class.altered_carbon::js::ACJsValue"* dereferenceable(16)) unnamed_addr #0 align 2 !dbg !3509 {
  %3 = alloca %"class.std::__1::auto_ptr"*, align 8
  call void @llvm.dbg.declare(metadata %"class.std::__1::auto_ptr"** %3, metadata !3266, metadata !DIExpression()), !dbg !3510
  %4 = alloca %"class.altered_carbon::js::ACJsValue"*, align 8
  call void @llvm.dbg.declare(metadata %"class.altered_carbon::js::ACJsValue"** %4, metadata !3271, metadata !DIExpression()), !dbg !3512
  %5 = alloca %"class.std::__1::auto_ptr"*, align 8
  call void @llvm.dbg.declare(metadata %"class.std::__1::auto_ptr"** %5, metadata !3273, metadata !DIExpression()), !dbg !3513
  %6 = alloca %"class.std::__1::auto_ptr"*, align 8
  call void @llvm.dbg.declare(metadata %"class.std::__1::auto_ptr"** %6, metadata !3279, metadata !DIExpression()), !dbg !3516
  %7 = alloca %"class.std::__1::auto_ptr"*, align 8
  call void @llvm.dbg.declare(metadata %"class.std::__1::auto_ptr"** %7, metadata !3281, metadata !DIExpression()), !dbg !3517
  %8 = alloca %"class.altered_carbon::js::ACJsValue"*, align 8
  call void @llvm.dbg.declare(metadata %"class.altered_carbon::js::ACJsValue"** %8, metadata !3287, metadata !DIExpression()), !dbg !3520
  %9 = alloca %"class.std::__1::auto_ptr"*, align 8
  call void @llvm.dbg.declare(metadata %"class.std::__1::auto_ptr"** %9, metadata !3289, metadata !DIExpression()), !dbg !3521
  %10 = alloca %"class.altered_carbon::js::ACJsValue"*, align 8
  call void @llvm.dbg.declare(metadata %"class.altered_carbon::js::ACJsValue"** %10, metadata !3291, metadata !DIExpression()), !dbg !3522
  %11 = alloca %"class.altered_carbon::js::ACJsNumber"*, align 8
  %12 = alloca %"class.altered_carbon::js::ACJsValue"*, align 8
  %13 = alloca %"class.std::__1::auto_ptr", align 8
  store %"class.altered_carbon::js::ACJsNumber"* %0, %"class.altered_carbon::js::ACJsNumber"** %11, align 8
  call void @llvm.dbg.declare(metadata %"class.altered_carbon::js::ACJsNumber"** %11, metadata !3523, metadata !DIExpression()), !dbg !3524
  store %"class.altered_carbon::js::ACJsValue"* %1, %"class.altered_carbon::js::ACJsValue"** %12, align 8
  call void @llvm.dbg.declare(metadata %"class.altered_carbon::js::ACJsValue"** %12, metadata !3525, metadata !DIExpression()), !dbg !3526
  %14 = load %"class.altered_carbon::js::ACJsNumber"*, %"class.altered_carbon::js::ACJsNumber"** %11, align 8
  %15 = load %"class.altered_carbon::js::ACJsValue"*, %"class.altered_carbon::js::ACJsValue"** %12, align 8, !dbg !3526
  %16 = call i8* @_Znwm(i64 40) #7, !dbg !3526
  %17 = bitcast i8* %16 to %"class.altered_carbon::js::ACJsNumber"*, !dbg !3526
  %18 = bitcast %"class.altered_carbon::js::ACJsNumber"* %14 to %"class.altered_carbon::js::ACJsPrimitive"*, !dbg !3526
  %19 = getelementptr inbounds %"class.altered_carbon::js::ACJsPrimitive", %"class.altered_carbon::js::ACJsPrimitive"* %18, i32 0, i32 1, !dbg !3526
  call void @_ZN14altered_carbon2js10ACJsNumberC1ERKNS0_11ACLexNumberE(%"class.altered_carbon::js::ACJsNumber"* %17, %"class.altered_carbon::js::ACLexNumber"* dereferenceable(24) %19), !dbg !3526
  %20 = bitcast %"class.altered_carbon::js::ACJsNumber"* %17 to %"class.altered_carbon::js::ACJsValue"*, !dbg !3526
  store %"class.std::__1::auto_ptr"* %13, %"class.std::__1::auto_ptr"** %9, align 8
  store %"class.altered_carbon::js::ACJsValue"* %20, %"class.altered_carbon::js::ACJsValue"** %10, align 8
  %21 = load %"class.std::__1::auto_ptr"*, %"class.std::__1::auto_ptr"** %9, align 8
  %22 = load %"class.altered_carbon::js::ACJsValue"*, %"class.altered_carbon::js::ACJsValue"** %10, align 8, !dbg !3527
  store %"class.std::__1::auto_ptr"* %21, %"class.std::__1::auto_ptr"** %7, align 8
  store %"class.altered_carbon::js::ACJsValue"* %22, %"class.altered_carbon::js::ACJsValue"** %8, align 8
  %23 = load %"class.std::__1::auto_ptr"*, %"class.std::__1::auto_ptr"** %7, align 8
  %24 = getelementptr inbounds %"class.std::__1::auto_ptr", %"class.std::__1::auto_ptr"* %23, i32 0, i32 0, !dbg !3528
  %25 = load %"class.altered_carbon::js::ACJsValue"*, %"class.altered_carbon::js::ACJsValue"** %8, align 8, !dbg !3529
  store %"class.altered_carbon::js::ACJsValue"* %25, %"class.altered_carbon::js::ACJsValue"** %24, align 8, !dbg !3528
  store %"class.std::__1::auto_ptr"* %13, %"class.std::__1::auto_ptr"** %3, align 8
  %26 = load %"class.std::__1::auto_ptr"*, %"class.std::__1::auto_ptr"** %3, align 8
  %27 = getelementptr inbounds %"class.std::__1::auto_ptr", %"class.std::__1::auto_ptr"* %26, i32 0, i32 0, !dbg !3530
  %28 = load %"class.altered_carbon::js::ACJsValue"*, %"class.altered_carbon::js::ACJsValue"** %27, align 8, !dbg !3530
  store %"class.altered_carbon::js::ACJsValue"* %28, %"class.altered_carbon::js::ACJsValue"** %4, align 8, !dbg !3512
  %29 = getelementptr inbounds %"class.std::__1::auto_ptr", %"class.std::__1::auto_ptr"* %26, i32 0, i32 0, !dbg !3531
  store %"class.altered_carbon::js::ACJsValue"* null, %"class.altered_carbon::js::ACJsValue"** %29, align 8, !dbg !3532
  %30 = load %"class.altered_carbon::js::ACJsValue"*, %"class.altered_carbon::js::ACJsValue"** %4, align 8, !dbg !3533
  %31 = bitcast %"class.altered_carbon::js::ACJsValue"* %30 to %"class.altered_carbon::js::ACJsValue"* (%"class.altered_carbon::js::ACJsValue"*, %"class.altered_carbon::js::ACJsValue"*)***, !dbg !3526
  %32 = load %"class.altered_carbon::js::ACJsValue"* (%"class.altered_carbon::js::ACJsValue"*, %"class.altered_carbon::js::ACJsValue"*)**, %"class.altered_carbon::js::ACJsValue"* (%"class.altered_carbon::js::ACJsValue"*, %"class.altered_carbon::js::ACJsValue"*)*** %31, align 8, !dbg !3526
  %33 = getelementptr inbounds %"class.altered_carbon::js::ACJsValue"* (%"class.altered_carbon::js::ACJsValue"*, %"class.altered_carbon::js::ACJsValue"*)*, %"class.altered_carbon::js::ACJsValue"* (%"class.altered_carbon::js::ACJsValue"*, %"class.altered_carbon::js::ACJsValue"*)** %32, i64 21, !dbg !3526
  %34 = load %"class.altered_carbon::js::ACJsValue"* (%"class.altered_carbon::js::ACJsValue"*, %"class.altered_carbon::js::ACJsValue"*)*, %"class.altered_carbon::js::ACJsValue"* (%"class.altered_carbon::js::ACJsValue"*, %"class.altered_carbon::js::ACJsValue"*)** %33, align 8, !dbg !3526
  %35 = call dereferenceable(16) %"class.altered_carbon::js::ACJsValue"* %34(%"class.altered_carbon::js::ACJsValue"* %30, %"class.altered_carbon::js::ACJsValue"* dereferenceable(16) %15), !dbg !3526
  store %"class.std::__1::auto_ptr"* %13, %"class.std::__1::auto_ptr"** %6, align 8
  %36 = load %"class.std::__1::auto_ptr"*, %"class.std::__1::auto_ptr"** %6, align 8
  store %"class.std::__1::auto_ptr"* %36, %"class.std::__1::auto_ptr"** %5, align 8
  %37 = load %"class.std::__1::auto_ptr"*, %"class.std::__1::auto_ptr"** %5, align 8
  %38 = getelementptr inbounds %"class.std::__1::auto_ptr", %"class.std::__1::auto_ptr"* %37, i32 0, i32 0, !dbg !3534
  %39 = load %"class.altered_carbon::js::ACJsValue"*, %"class.altered_carbon::js::ACJsValue"** %38, align 8, !dbg !3534
  %40 = icmp eq %"class.altered_carbon::js::ACJsValue"* %39, null, !dbg !3535
  br i1 %40, label %46, label %41, !dbg !3535

; <label>:41:                                     ; preds = %2
  %42 = bitcast %"class.altered_carbon::js::ACJsValue"* %39 to void (%"class.altered_carbon::js::ACJsValue"*)***, !dbg !3535
  %43 = load void (%"class.altered_carbon::js::ACJsValue"*)**, void (%"class.altered_carbon::js::ACJsValue"*)*** %42, align 8, !dbg !3535
  %44 = getelementptr inbounds void (%"class.altered_carbon::js::ACJsValue"*)*, void (%"class.altered_carbon::js::ACJsValue"*)** %43, i64 1, !dbg !3535
  %45 = load void (%"class.altered_carbon::js::ACJsValue"*)*, void (%"class.altered_carbon::js::ACJsValue"*)** %44, align 8, !dbg !3535
  call void %45(%"class.altered_carbon::js::ACJsValue"* %39) #8, !dbg !3535
  br label %46, !dbg !3535

; <label>:46:                                     ; preds = %2, %41
  ret %"class.altered_carbon::js::ACJsValue"* %35, !dbg !3526
}

; Function Attrs: noinline nounwind optnone ssp uwtable
define dereferenceable(16) %"class.altered_carbon::js::ACJsValue"* @_ZNK14altered_carbon2js10ACJsNumberanERKNS0_9ACJsValueE(%"class.altered_carbon::js::ACJsNumber"*, %"class.altered_carbon::js::ACJsValue"* dereferenceable(16)) unnamed_addr #0 align 2 !dbg !3536 {
  %3 = alloca %"class.std::__1::auto_ptr"*, align 8
  call void @llvm.dbg.declare(metadata %"class.std::__1::auto_ptr"** %3, metadata !3266, metadata !DIExpression()), !dbg !3537
  %4 = alloca %"class.altered_carbon::js::ACJsValue"*, align 8
  call void @llvm.dbg.declare(metadata %"class.altered_carbon::js::ACJsValue"** %4, metadata !3271, metadata !DIExpression()), !dbg !3539
  %5 = alloca %"class.std::__1::auto_ptr"*, align 8
  call void @llvm.dbg.declare(metadata %"class.std::__1::auto_ptr"** %5, metadata !3273, metadata !DIExpression()), !dbg !3540
  %6 = alloca %"class.std::__1::auto_ptr"*, align 8
  call void @llvm.dbg.declare(metadata %"class.std::__1::auto_ptr"** %6, metadata !3279, metadata !DIExpression()), !dbg !3543
  %7 = alloca %"class.std::__1::auto_ptr"*, align 8
  call void @llvm.dbg.declare(metadata %"class.std::__1::auto_ptr"** %7, metadata !3281, metadata !DIExpression()), !dbg !3544
  %8 = alloca %"class.altered_carbon::js::ACJsValue"*, align 8
  call void @llvm.dbg.declare(metadata %"class.altered_carbon::js::ACJsValue"** %8, metadata !3287, metadata !DIExpression()), !dbg !3547
  %9 = alloca %"class.std::__1::auto_ptr"*, align 8
  call void @llvm.dbg.declare(metadata %"class.std::__1::auto_ptr"** %9, metadata !3289, metadata !DIExpression()), !dbg !3548
  %10 = alloca %"class.altered_carbon::js::ACJsValue"*, align 8
  call void @llvm.dbg.declare(metadata %"class.altered_carbon::js::ACJsValue"** %10, metadata !3291, metadata !DIExpression()), !dbg !3549
  %11 = alloca %"class.altered_carbon::js::ACJsNumber"*, align 8
  %12 = alloca %"class.altered_carbon::js::ACJsValue"*, align 8
  %13 = alloca %"class.std::__1::auto_ptr", align 8
  store %"class.altered_carbon::js::ACJsNumber"* %0, %"class.altered_carbon::js::ACJsNumber"** %11, align 8
  call void @llvm.dbg.declare(metadata %"class.altered_carbon::js::ACJsNumber"** %11, metadata !3550, metadata !DIExpression()), !dbg !3551
  store %"class.altered_carbon::js::ACJsValue"* %1, %"class.altered_carbon::js::ACJsValue"** %12, align 8
  call void @llvm.dbg.declare(metadata %"class.altered_carbon::js::ACJsValue"** %12, metadata !3552, metadata !DIExpression()), !dbg !3553
  %14 = load %"class.altered_carbon::js::ACJsNumber"*, %"class.altered_carbon::js::ACJsNumber"** %11, align 8
  %15 = load %"class.altered_carbon::js::ACJsValue"*, %"class.altered_carbon::js::ACJsValue"** %12, align 8, !dbg !3553
  %16 = call i8* @_Znwm(i64 40) #7, !dbg !3553
  %17 = bitcast i8* %16 to %"class.altered_carbon::js::ACJsNumber"*, !dbg !3553
  %18 = bitcast %"class.altered_carbon::js::ACJsNumber"* %14 to %"class.altered_carbon::js::ACJsPrimitive"*, !dbg !3553
  %19 = getelementptr inbounds %"class.altered_carbon::js::ACJsPrimitive", %"class.altered_carbon::js::ACJsPrimitive"* %18, i32 0, i32 1, !dbg !3553
  call void @_ZN14altered_carbon2js10ACJsNumberC1ERKNS0_11ACLexNumberE(%"class.altered_carbon::js::ACJsNumber"* %17, %"class.altered_carbon::js::ACLexNumber"* dereferenceable(24) %19), !dbg !3553
  %20 = bitcast %"class.altered_carbon::js::ACJsNumber"* %17 to %"class.altered_carbon::js::ACJsValue"*, !dbg !3553
  store %"class.std::__1::auto_ptr"* %13, %"class.std::__1::auto_ptr"** %9, align 8
  store %"class.altered_carbon::js::ACJsValue"* %20, %"class.altered_carbon::js::ACJsValue"** %10, align 8
  %21 = load %"class.std::__1::auto_ptr"*, %"class.std::__1::auto_ptr"** %9, align 8
  %22 = load %"class.altered_carbon::js::ACJsValue"*, %"class.altered_carbon::js::ACJsValue"** %10, align 8, !dbg !3554
  store %"class.std::__1::auto_ptr"* %21, %"class.std::__1::auto_ptr"** %7, align 8
  store %"class.altered_carbon::js::ACJsValue"* %22, %"class.altered_carbon::js::ACJsValue"** %8, align 8
  %23 = load %"class.std::__1::auto_ptr"*, %"class.std::__1::auto_ptr"** %7, align 8
  %24 = getelementptr inbounds %"class.std::__1::auto_ptr", %"class.std::__1::auto_ptr"* %23, i32 0, i32 0, !dbg !3555
  %25 = load %"class.altered_carbon::js::ACJsValue"*, %"class.altered_carbon::js::ACJsValue"** %8, align 8, !dbg !3556
  store %"class.altered_carbon::js::ACJsValue"* %25, %"class.altered_carbon::js::ACJsValue"** %24, align 8, !dbg !3555
  store %"class.std::__1::auto_ptr"* %13, %"class.std::__1::auto_ptr"** %3, align 8
  %26 = load %"class.std::__1::auto_ptr"*, %"class.std::__1::auto_ptr"** %3, align 8
  %27 = getelementptr inbounds %"class.std::__1::auto_ptr", %"class.std::__1::auto_ptr"* %26, i32 0, i32 0, !dbg !3557
  %28 = load %"class.altered_carbon::js::ACJsValue"*, %"class.altered_carbon::js::ACJsValue"** %27, align 8, !dbg !3557
  store %"class.altered_carbon::js::ACJsValue"* %28, %"class.altered_carbon::js::ACJsValue"** %4, align 8, !dbg !3539
  %29 = getelementptr inbounds %"class.std::__1::auto_ptr", %"class.std::__1::auto_ptr"* %26, i32 0, i32 0, !dbg !3558
  store %"class.altered_carbon::js::ACJsValue"* null, %"class.altered_carbon::js::ACJsValue"** %29, align 8, !dbg !3559
  %30 = load %"class.altered_carbon::js::ACJsValue"*, %"class.altered_carbon::js::ACJsValue"** %4, align 8, !dbg !3560
  %31 = bitcast %"class.altered_carbon::js::ACJsValue"* %30 to %"class.altered_carbon::js::ACJsValue"* (%"class.altered_carbon::js::ACJsValue"*, %"class.altered_carbon::js::ACJsValue"*)***, !dbg !3553
  %32 = load %"class.altered_carbon::js::ACJsValue"* (%"class.altered_carbon::js::ACJsValue"*, %"class.altered_carbon::js::ACJsValue"*)**, %"class.altered_carbon::js::ACJsValue"* (%"class.altered_carbon::js::ACJsValue"*, %"class.altered_carbon::js::ACJsValue"*)*** %31, align 8, !dbg !3553
  %33 = getelementptr inbounds %"class.altered_carbon::js::ACJsValue"* (%"class.altered_carbon::js::ACJsValue"*, %"class.altered_carbon::js::ACJsValue"*)*, %"class.altered_carbon::js::ACJsValue"* (%"class.altered_carbon::js::ACJsValue"*, %"class.altered_carbon::js::ACJsValue"*)** %32, i64 22, !dbg !3553
  %34 = load %"class.altered_carbon::js::ACJsValue"* (%"class.altered_carbon::js::ACJsValue"*, %"class.altered_carbon::js::ACJsValue"*)*, %"class.altered_carbon::js::ACJsValue"* (%"class.altered_carbon::js::ACJsValue"*, %"class.altered_carbon::js::ACJsValue"*)** %33, align 8, !dbg !3553
  %35 = call dereferenceable(16) %"class.altered_carbon::js::ACJsValue"* %34(%"class.altered_carbon::js::ACJsValue"* %30, %"class.altered_carbon::js::ACJsValue"* dereferenceable(16) %15), !dbg !3553
  store %"class.std::__1::auto_ptr"* %13, %"class.std::__1::auto_ptr"** %6, align 8
  %36 = load %"class.std::__1::auto_ptr"*, %"class.std::__1::auto_ptr"** %6, align 8
  store %"class.std::__1::auto_ptr"* %36, %"class.std::__1::auto_ptr"** %5, align 8
  %37 = load %"class.std::__1::auto_ptr"*, %"class.std::__1::auto_ptr"** %5, align 8
  %38 = getelementptr inbounds %"class.std::__1::auto_ptr", %"class.std::__1::auto_ptr"* %37, i32 0, i32 0, !dbg !3561
  %39 = load %"class.altered_carbon::js::ACJsValue"*, %"class.altered_carbon::js::ACJsValue"** %38, align 8, !dbg !3561
  %40 = icmp eq %"class.altered_carbon::js::ACJsValue"* %39, null, !dbg !3562
  br i1 %40, label %46, label %41, !dbg !3562

; <label>:41:                                     ; preds = %2
  %42 = bitcast %"class.altered_carbon::js::ACJsValue"* %39 to void (%"class.altered_carbon::js::ACJsValue"*)***, !dbg !3562
  %43 = load void (%"class.altered_carbon::js::ACJsValue"*)**, void (%"class.altered_carbon::js::ACJsValue"*)*** %42, align 8, !dbg !3562
  %44 = getelementptr inbounds void (%"class.altered_carbon::js::ACJsValue"*)*, void (%"class.altered_carbon::js::ACJsValue"*)** %43, i64 1, !dbg !3562
  %45 = load void (%"class.altered_carbon::js::ACJsValue"*)*, void (%"class.altered_carbon::js::ACJsValue"*)** %44, align 8, !dbg !3562
  call void %45(%"class.altered_carbon::js::ACJsValue"* %39) #8, !dbg !3562
  br label %46, !dbg !3562

; <label>:46:                                     ; preds = %2, %41
  ret %"class.altered_carbon::js::ACJsValue"* %35, !dbg !3553
}

; Function Attrs: noinline nounwind optnone ssp uwtable
define dereferenceable(16) %"class.altered_carbon::js::ACJsValue"* @_ZNK14altered_carbon2js10ACJsNumberlsERKNS0_9ACJsValueE(%"class.altered_carbon::js::ACJsNumber"*, %"class.altered_carbon::js::ACJsValue"* dereferenceable(16)) unnamed_addr #0 align 2 !dbg !3563 {
  %3 = alloca %"class.std::__1::auto_ptr"*, align 8
  call void @llvm.dbg.declare(metadata %"class.std::__1::auto_ptr"** %3, metadata !3266, metadata !DIExpression()), !dbg !3564
  %4 = alloca %"class.altered_carbon::js::ACJsValue"*, align 8
  call void @llvm.dbg.declare(metadata %"class.altered_carbon::js::ACJsValue"** %4, metadata !3271, metadata !DIExpression()), !dbg !3566
  %5 = alloca %"class.std::__1::auto_ptr"*, align 8
  call void @llvm.dbg.declare(metadata %"class.std::__1::auto_ptr"** %5, metadata !3273, metadata !DIExpression()), !dbg !3567
  %6 = alloca %"class.std::__1::auto_ptr"*, align 8
  call void @llvm.dbg.declare(metadata %"class.std::__1::auto_ptr"** %6, metadata !3279, metadata !DIExpression()), !dbg !3570
  %7 = alloca %"class.std::__1::auto_ptr"*, align 8
  call void @llvm.dbg.declare(metadata %"class.std::__1::auto_ptr"** %7, metadata !3281, metadata !DIExpression()), !dbg !3571
  %8 = alloca %"class.altered_carbon::js::ACJsValue"*, align 8
  call void @llvm.dbg.declare(metadata %"class.altered_carbon::js::ACJsValue"** %8, metadata !3287, metadata !DIExpression()), !dbg !3574
  %9 = alloca %"class.std::__1::auto_ptr"*, align 8
  call void @llvm.dbg.declare(metadata %"class.std::__1::auto_ptr"** %9, metadata !3289, metadata !DIExpression()), !dbg !3575
  %10 = alloca %"class.altered_carbon::js::ACJsValue"*, align 8
  call void @llvm.dbg.declare(metadata %"class.altered_carbon::js::ACJsValue"** %10, metadata !3291, metadata !DIExpression()), !dbg !3576
  %11 = alloca %"class.altered_carbon::js::ACJsNumber"*, align 8
  %12 = alloca %"class.altered_carbon::js::ACJsValue"*, align 8
  %13 = alloca %"class.std::__1::auto_ptr", align 8
  store %"class.altered_carbon::js::ACJsNumber"* %0, %"class.altered_carbon::js::ACJsNumber"** %11, align 8
  call void @llvm.dbg.declare(metadata %"class.altered_carbon::js::ACJsNumber"** %11, metadata !3577, metadata !DIExpression()), !dbg !3578
  store %"class.altered_carbon::js::ACJsValue"* %1, %"class.altered_carbon::js::ACJsValue"** %12, align 8
  call void @llvm.dbg.declare(metadata %"class.altered_carbon::js::ACJsValue"** %12, metadata !3579, metadata !DIExpression()), !dbg !3580
  %14 = load %"class.altered_carbon::js::ACJsNumber"*, %"class.altered_carbon::js::ACJsNumber"** %11, align 8
  %15 = load %"class.altered_carbon::js::ACJsValue"*, %"class.altered_carbon::js::ACJsValue"** %12, align 8, !dbg !3580
  %16 = call i8* @_Znwm(i64 40) #7, !dbg !3580
  %17 = bitcast i8* %16 to %"class.altered_carbon::js::ACJsNumber"*, !dbg !3580
  %18 = bitcast %"class.altered_carbon::js::ACJsNumber"* %14 to %"class.altered_carbon::js::ACJsPrimitive"*, !dbg !3580
  %19 = getelementptr inbounds %"class.altered_carbon::js::ACJsPrimitive", %"class.altered_carbon::js::ACJsPrimitive"* %18, i32 0, i32 1, !dbg !3580
  call void @_ZN14altered_carbon2js10ACJsNumberC1ERKNS0_11ACLexNumberE(%"class.altered_carbon::js::ACJsNumber"* %17, %"class.altered_carbon::js::ACLexNumber"* dereferenceable(24) %19), !dbg !3580
  %20 = bitcast %"class.altered_carbon::js::ACJsNumber"* %17 to %"class.altered_carbon::js::ACJsValue"*, !dbg !3580
  store %"class.std::__1::auto_ptr"* %13, %"class.std::__1::auto_ptr"** %9, align 8
  store %"class.altered_carbon::js::ACJsValue"* %20, %"class.altered_carbon::js::ACJsValue"** %10, align 8
  %21 = load %"class.std::__1::auto_ptr"*, %"class.std::__1::auto_ptr"** %9, align 8
  %22 = load %"class.altered_carbon::js::ACJsValue"*, %"class.altered_carbon::js::ACJsValue"** %10, align 8, !dbg !3581
  store %"class.std::__1::auto_ptr"* %21, %"class.std::__1::auto_ptr"** %7, align 8
  store %"class.altered_carbon::js::ACJsValue"* %22, %"class.altered_carbon::js::ACJsValue"** %8, align 8
  %23 = load %"class.std::__1::auto_ptr"*, %"class.std::__1::auto_ptr"** %7, align 8
  %24 = getelementptr inbounds %"class.std::__1::auto_ptr", %"class.std::__1::auto_ptr"* %23, i32 0, i32 0, !dbg !3582
  %25 = load %"class.altered_carbon::js::ACJsValue"*, %"class.altered_carbon::js::ACJsValue"** %8, align 8, !dbg !3583
  store %"class.altered_carbon::js::ACJsValue"* %25, %"class.altered_carbon::js::ACJsValue"** %24, align 8, !dbg !3582
  store %"class.std::__1::auto_ptr"* %13, %"class.std::__1::auto_ptr"** %3, align 8
  %26 = load %"class.std::__1::auto_ptr"*, %"class.std::__1::auto_ptr"** %3, align 8
  %27 = getelementptr inbounds %"class.std::__1::auto_ptr", %"class.std::__1::auto_ptr"* %26, i32 0, i32 0, !dbg !3584
  %28 = load %"class.altered_carbon::js::ACJsValue"*, %"class.altered_carbon::js::ACJsValue"** %27, align 8, !dbg !3584
  store %"class.altered_carbon::js::ACJsValue"* %28, %"class.altered_carbon::js::ACJsValue"** %4, align 8, !dbg !3566
  %29 = getelementptr inbounds %"class.std::__1::auto_ptr", %"class.std::__1::auto_ptr"* %26, i32 0, i32 0, !dbg !3585
  store %"class.altered_carbon::js::ACJsValue"* null, %"class.altered_carbon::js::ACJsValue"** %29, align 8, !dbg !3586
  %30 = load %"class.altered_carbon::js::ACJsValue"*, %"class.altered_carbon::js::ACJsValue"** %4, align 8, !dbg !3587
  %31 = bitcast %"class.altered_carbon::js::ACJsValue"* %30 to %"class.altered_carbon::js::ACJsValue"* (%"class.altered_carbon::js::ACJsValue"*, %"class.altered_carbon::js::ACJsValue"*)***, !dbg !3580
  %32 = load %"class.altered_carbon::js::ACJsValue"* (%"class.altered_carbon::js::ACJsValue"*, %"class.altered_carbon::js::ACJsValue"*)**, %"class.altered_carbon::js::ACJsValue"* (%"class.altered_carbon::js::ACJsValue"*, %"class.altered_carbon::js::ACJsValue"*)*** %31, align 8, !dbg !3580
  %33 = getelementptr inbounds %"class.altered_carbon::js::ACJsValue"* (%"class.altered_carbon::js::ACJsValue"*, %"class.altered_carbon::js::ACJsValue"*)*, %"class.altered_carbon::js::ACJsValue"* (%"class.altered_carbon::js::ACJsValue"*, %"class.altered_carbon::js::ACJsValue"*)** %32, i64 24, !dbg !3580
  %34 = load %"class.altered_carbon::js::ACJsValue"* (%"class.altered_carbon::js::ACJsValue"*, %"class.altered_carbon::js::ACJsValue"*)*, %"class.altered_carbon::js::ACJsValue"* (%"class.altered_carbon::js::ACJsValue"*, %"class.altered_carbon::js::ACJsValue"*)** %33, align 8, !dbg !3580
  %35 = call dereferenceable(16) %"class.altered_carbon::js::ACJsValue"* %34(%"class.altered_carbon::js::ACJsValue"* %30, %"class.altered_carbon::js::ACJsValue"* dereferenceable(16) %15), !dbg !3580
  store %"class.std::__1::auto_ptr"* %13, %"class.std::__1::auto_ptr"** %6, align 8
  %36 = load %"class.std::__1::auto_ptr"*, %"class.std::__1::auto_ptr"** %6, align 8
  store %"class.std::__1::auto_ptr"* %36, %"class.std::__1::auto_ptr"** %5, align 8
  %37 = load %"class.std::__1::auto_ptr"*, %"class.std::__1::auto_ptr"** %5, align 8
  %38 = getelementptr inbounds %"class.std::__1::auto_ptr", %"class.std::__1::auto_ptr"* %37, i32 0, i32 0, !dbg !3588
  %39 = load %"class.altered_carbon::js::ACJsValue"*, %"class.altered_carbon::js::ACJsValue"** %38, align 8, !dbg !3588
  %40 = icmp eq %"class.altered_carbon::js::ACJsValue"* %39, null, !dbg !3589
  br i1 %40, label %46, label %41, !dbg !3589

; <label>:41:                                     ; preds = %2
  %42 = bitcast %"class.altered_carbon::js::ACJsValue"* %39 to void (%"class.altered_carbon::js::ACJsValue"*)***, !dbg !3589
  %43 = load void (%"class.altered_carbon::js::ACJsValue"*)**, void (%"class.altered_carbon::js::ACJsValue"*)*** %42, align 8, !dbg !3589
  %44 = getelementptr inbounds void (%"class.altered_carbon::js::ACJsValue"*)*, void (%"class.altered_carbon::js::ACJsValue"*)** %43, i64 1, !dbg !3589
  %45 = load void (%"class.altered_carbon::js::ACJsValue"*)*, void (%"class.altered_carbon::js::ACJsValue"*)** %44, align 8, !dbg !3589
  call void %45(%"class.altered_carbon::js::ACJsValue"* %39) #8, !dbg !3589
  br label %46, !dbg !3589

; <label>:46:                                     ; preds = %2, %41
  ret %"class.altered_carbon::js::ACJsValue"* %35, !dbg !3580
}

; Function Attrs: noinline nounwind optnone ssp uwtable
define dereferenceable(16) %"class.altered_carbon::js::ACJsValue"* @_ZNK14altered_carbon2js10ACJsNumberrsERKNS0_9ACJsValueE(%"class.altered_carbon::js::ACJsNumber"*, %"class.altered_carbon::js::ACJsValue"* dereferenceable(16)) unnamed_addr #0 align 2 !dbg !3590 {
  %3 = alloca %"class.std::__1::auto_ptr"*, align 8
  call void @llvm.dbg.declare(metadata %"class.std::__1::auto_ptr"** %3, metadata !3266, metadata !DIExpression()), !dbg !3591
  %4 = alloca %"class.altered_carbon::js::ACJsValue"*, align 8
  call void @llvm.dbg.declare(metadata %"class.altered_carbon::js::ACJsValue"** %4, metadata !3271, metadata !DIExpression()), !dbg !3593
  %5 = alloca %"class.std::__1::auto_ptr"*, align 8
  call void @llvm.dbg.declare(metadata %"class.std::__1::auto_ptr"** %5, metadata !3273, metadata !DIExpression()), !dbg !3594
  %6 = alloca %"class.std::__1::auto_ptr"*, align 8
  call void @llvm.dbg.declare(metadata %"class.std::__1::auto_ptr"** %6, metadata !3279, metadata !DIExpression()), !dbg !3597
  %7 = alloca %"class.std::__1::auto_ptr"*, align 8
  call void @llvm.dbg.declare(metadata %"class.std::__1::auto_ptr"** %7, metadata !3281, metadata !DIExpression()), !dbg !3598
  %8 = alloca %"class.altered_carbon::js::ACJsValue"*, align 8
  call void @llvm.dbg.declare(metadata %"class.altered_carbon::js::ACJsValue"** %8, metadata !3287, metadata !DIExpression()), !dbg !3601
  %9 = alloca %"class.std::__1::auto_ptr"*, align 8
  call void @llvm.dbg.declare(metadata %"class.std::__1::auto_ptr"** %9, metadata !3289, metadata !DIExpression()), !dbg !3602
  %10 = alloca %"class.altered_carbon::js::ACJsValue"*, align 8
  call void @llvm.dbg.declare(metadata %"class.altered_carbon::js::ACJsValue"** %10, metadata !3291, metadata !DIExpression()), !dbg !3603
  %11 = alloca %"class.altered_carbon::js::ACJsNumber"*, align 8
  %12 = alloca %"class.altered_carbon::js::ACJsValue"*, align 8
  %13 = alloca %"class.std::__1::auto_ptr", align 8
  store %"class.altered_carbon::js::ACJsNumber"* %0, %"class.altered_carbon::js::ACJsNumber"** %11, align 8
  call void @llvm.dbg.declare(metadata %"class.altered_carbon::js::ACJsNumber"** %11, metadata !3604, metadata !DIExpression()), !dbg !3605
  store %"class.altered_carbon::js::ACJsValue"* %1, %"class.altered_carbon::js::ACJsValue"** %12, align 8
  call void @llvm.dbg.declare(metadata %"class.altered_carbon::js::ACJsValue"** %12, metadata !3606, metadata !DIExpression()), !dbg !3607
  %14 = load %"class.altered_carbon::js::ACJsNumber"*, %"class.altered_carbon::js::ACJsNumber"** %11, align 8
  %15 = load %"class.altered_carbon::js::ACJsValue"*, %"class.altered_carbon::js::ACJsValue"** %12, align 8, !dbg !3607
  %16 = call i8* @_Znwm(i64 40) #7, !dbg !3607
  %17 = bitcast i8* %16 to %"class.altered_carbon::js::ACJsNumber"*, !dbg !3607
  %18 = bitcast %"class.altered_carbon::js::ACJsNumber"* %14 to %"class.altered_carbon::js::ACJsPrimitive"*, !dbg !3607
  %19 = getelementptr inbounds %"class.altered_carbon::js::ACJsPrimitive", %"class.altered_carbon::js::ACJsPrimitive"* %18, i32 0, i32 1, !dbg !3607
  call void @_ZN14altered_carbon2js10ACJsNumberC1ERKNS0_11ACLexNumberE(%"class.altered_carbon::js::ACJsNumber"* %17, %"class.altered_carbon::js::ACLexNumber"* dereferenceable(24) %19), !dbg !3607
  %20 = bitcast %"class.altered_carbon::js::ACJsNumber"* %17 to %"class.altered_carbon::js::ACJsValue"*, !dbg !3607
  store %"class.std::__1::auto_ptr"* %13, %"class.std::__1::auto_ptr"** %9, align 8
  store %"class.altered_carbon::js::ACJsValue"* %20, %"class.altered_carbon::js::ACJsValue"** %10, align 8
  %21 = load %"class.std::__1::auto_ptr"*, %"class.std::__1::auto_ptr"** %9, align 8
  %22 = load %"class.altered_carbon::js::ACJsValue"*, %"class.altered_carbon::js::ACJsValue"** %10, align 8, !dbg !3608
  store %"class.std::__1::auto_ptr"* %21, %"class.std::__1::auto_ptr"** %7, align 8
  store %"class.altered_carbon::js::ACJsValue"* %22, %"class.altered_carbon::js::ACJsValue"** %8, align 8
  %23 = load %"class.std::__1::auto_ptr"*, %"class.std::__1::auto_ptr"** %7, align 8
  %24 = getelementptr inbounds %"class.std::__1::auto_ptr", %"class.std::__1::auto_ptr"* %23, i32 0, i32 0, !dbg !3609
  %25 = load %"class.altered_carbon::js::ACJsValue"*, %"class.altered_carbon::js::ACJsValue"** %8, align 8, !dbg !3610
  store %"class.altered_carbon::js::ACJsValue"* %25, %"class.altered_carbon::js::ACJsValue"** %24, align 8, !dbg !3609
  store %"class.std::__1::auto_ptr"* %13, %"class.std::__1::auto_ptr"** %3, align 8
  %26 = load %"class.std::__1::auto_ptr"*, %"class.std::__1::auto_ptr"** %3, align 8
  %27 = getelementptr inbounds %"class.std::__1::auto_ptr", %"class.std::__1::auto_ptr"* %26, i32 0, i32 0, !dbg !3611
  %28 = load %"class.altered_carbon::js::ACJsValue"*, %"class.altered_carbon::js::ACJsValue"** %27, align 8, !dbg !3611
  store %"class.altered_carbon::js::ACJsValue"* %28, %"class.altered_carbon::js::ACJsValue"** %4, align 8, !dbg !3593
  %29 = getelementptr inbounds %"class.std::__1::auto_ptr", %"class.std::__1::auto_ptr"* %26, i32 0, i32 0, !dbg !3612
  store %"class.altered_carbon::js::ACJsValue"* null, %"class.altered_carbon::js::ACJsValue"** %29, align 8, !dbg !3613
  %30 = load %"class.altered_carbon::js::ACJsValue"*, %"class.altered_carbon::js::ACJsValue"** %4, align 8, !dbg !3614
  %31 = bitcast %"class.altered_carbon::js::ACJsValue"* %30 to %"class.altered_carbon::js::ACJsValue"* (%"class.altered_carbon::js::ACJsValue"*, %"class.altered_carbon::js::ACJsValue"*)***, !dbg !3607
  %32 = load %"class.altered_carbon::js::ACJsValue"* (%"class.altered_carbon::js::ACJsValue"*, %"class.altered_carbon::js::ACJsValue"*)**, %"class.altered_carbon::js::ACJsValue"* (%"class.altered_carbon::js::ACJsValue"*, %"class.altered_carbon::js::ACJsValue"*)*** %31, align 8, !dbg !3607
  %33 = getelementptr inbounds %"class.altered_carbon::js::ACJsValue"* (%"class.altered_carbon::js::ACJsValue"*, %"class.altered_carbon::js::ACJsValue"*)*, %"class.altered_carbon::js::ACJsValue"* (%"class.altered_carbon::js::ACJsValue"*, %"class.altered_carbon::js::ACJsValue"*)** %32, i64 23, !dbg !3607
  %34 = load %"class.altered_carbon::js::ACJsValue"* (%"class.altered_carbon::js::ACJsValue"*, %"class.altered_carbon::js::ACJsValue"*)*, %"class.altered_carbon::js::ACJsValue"* (%"class.altered_carbon::js::ACJsValue"*, %"class.altered_carbon::js::ACJsValue"*)** %33, align 8, !dbg !3607
  %35 = call dereferenceable(16) %"class.altered_carbon::js::ACJsValue"* %34(%"class.altered_carbon::js::ACJsValue"* %30, %"class.altered_carbon::js::ACJsValue"* dereferenceable(16) %15), !dbg !3607
  store %"class.std::__1::auto_ptr"* %13, %"class.std::__1::auto_ptr"** %6, align 8
  %36 = load %"class.std::__1::auto_ptr"*, %"class.std::__1::auto_ptr"** %6, align 8
  store %"class.std::__1::auto_ptr"* %36, %"class.std::__1::auto_ptr"** %5, align 8
  %37 = load %"class.std::__1::auto_ptr"*, %"class.std::__1::auto_ptr"** %5, align 8
  %38 = getelementptr inbounds %"class.std::__1::auto_ptr", %"class.std::__1::auto_ptr"* %37, i32 0, i32 0, !dbg !3615
  %39 = load %"class.altered_carbon::js::ACJsValue"*, %"class.altered_carbon::js::ACJsValue"** %38, align 8, !dbg !3615
  %40 = icmp eq %"class.altered_carbon::js::ACJsValue"* %39, null, !dbg !3616
  br i1 %40, label %46, label %41, !dbg !3616

; <label>:41:                                     ; preds = %2
  %42 = bitcast %"class.altered_carbon::js::ACJsValue"* %39 to void (%"class.altered_carbon::js::ACJsValue"*)***, !dbg !3616
  %43 = load void (%"class.altered_carbon::js::ACJsValue"*)**, void (%"class.altered_carbon::js::ACJsValue"*)*** %42, align 8, !dbg !3616
  %44 = getelementptr inbounds void (%"class.altered_carbon::js::ACJsValue"*)*, void (%"class.altered_carbon::js::ACJsValue"*)** %43, i64 1, !dbg !3616
  %45 = load void (%"class.altered_carbon::js::ACJsValue"*)*, void (%"class.altered_carbon::js::ACJsValue"*)** %44, align 8, !dbg !3616
  call void %45(%"class.altered_carbon::js::ACJsValue"* %39) #8, !dbg !3616
  br label %46, !dbg !3616

; <label>:46:                                     ; preds = %2, %41
  ret %"class.altered_carbon::js::ACJsValue"* %35, !dbg !3607
}

; Function Attrs: noinline nounwind optnone ssp uwtable
define dereferenceable(16) %"class.altered_carbon::js::ACJsValue"* @_ZN14altered_carbon2js10ACJsNumbereOERKNS0_9ACJsValueE(%"class.altered_carbon::js::ACJsNumber"*, %"class.altered_carbon::js::ACJsValue"* dereferenceable(16)) unnamed_addr #0 align 2 !dbg !3617 {
  %3 = alloca %"class.altered_carbon::js::ACJsNumber"*, align 8
  %4 = alloca %"class.altered_carbon::js::ACJsValue"*, align 8
  %5 = alloca %"class.altered_carbon::js::ACLexNumber", align 8
  store %"class.altered_carbon::js::ACJsNumber"* %0, %"class.altered_carbon::js::ACJsNumber"** %3, align 8
  call void @llvm.dbg.declare(metadata %"class.altered_carbon::js::ACJsNumber"** %3, metadata !3618, metadata !DIExpression()), !dbg !3619
  store %"class.altered_carbon::js::ACJsValue"* %1, %"class.altered_carbon::js::ACJsValue"** %4, align 8
  call void @llvm.dbg.declare(metadata %"class.altered_carbon::js::ACJsValue"** %4, metadata !3620, metadata !DIExpression()), !dbg !3621
  %6 = load %"class.altered_carbon::js::ACJsNumber"*, %"class.altered_carbon::js::ACJsNumber"** %3, align 8
  %7 = load %"class.altered_carbon::js::ACJsValue"*, %"class.altered_carbon::js::ACJsValue"** %4, align 8, !dbg !3622
  %8 = call zeroext i1 @_ZNK14altered_carbon2js9ACJsValue11isUndefinedEv(%"class.altered_carbon::js::ACJsValue"* %7), !dbg !3622
  br i1 %8, label %9, label %13, !dbg !3621

; <label>:9:                                      ; preds = %2
  %10 = bitcast %"class.altered_carbon::js::ACJsNumber"* %6 to %"class.altered_carbon::js::ACJsPrimitive"*, !dbg !3624
  %11 = getelementptr inbounds %"class.altered_carbon::js::ACJsPrimitive", %"class.altered_carbon::js::ACJsPrimitive"* %10, i32 0, i32 1, !dbg !3624
  %12 = call dereferenceable(24) %"class.altered_carbon::js::ACLexNumber"* @_ZN14altered_carbon2js11ACLexNumberaSEx(%"class.altered_carbon::js::ACLexNumber"* %11, i64 0), !dbg !3624
  br label %28, !dbg !3624

; <label>:13:                                     ; preds = %2
  %14 = bitcast %"class.altered_carbon::js::ACJsNumber"* %6 to %"class.altered_carbon::js::ACJsPrimitive"*, !dbg !3626
  %15 = getelementptr inbounds %"class.altered_carbon::js::ACJsPrimitive", %"class.altered_carbon::js::ACJsPrimitive"* %14, i32 0, i32 1, !dbg !3626
  %16 = load %"class.altered_carbon::js::ACJsValue"*, %"class.altered_carbon::js::ACJsValue"** %4, align 8, !dbg !3626
  %17 = bitcast %"class.altered_carbon::js::ACJsValue"* %16 to %"class.altered_carbon::js::ACJsValue"* (%"class.altered_carbon::js::ACJsValue"*)***, !dbg !3626
  %18 = load %"class.altered_carbon::js::ACJsValue"* (%"class.altered_carbon::js::ACJsValue"*)**, %"class.altered_carbon::js::ACJsValue"* (%"class.altered_carbon::js::ACJsValue"*)*** %17, align 8, !dbg !3626
  %19 = getelementptr inbounds %"class.altered_carbon::js::ACJsValue"* (%"class.altered_carbon::js::ACJsValue"*)*, %"class.altered_carbon::js::ACJsValue"* (%"class.altered_carbon::js::ACJsValue"*)** %18, i64 42, !dbg !3626
  %20 = load %"class.altered_carbon::js::ACJsValue"* (%"class.altered_carbon::js::ACJsValue"*)*, %"class.altered_carbon::js::ACJsValue"* (%"class.altered_carbon::js::ACJsValue"*)** %19, align 8, !dbg !3626
  %21 = call %"class.altered_carbon::js::ACJsValue"* %20(%"class.altered_carbon::js::ACJsValue"* %16), !dbg !3626
  %22 = bitcast %"class.altered_carbon::js::ACJsValue"* %21 to %"class.altered_carbon::js::ACJsNumber"*, !dbg !3626
  %23 = bitcast %"class.altered_carbon::js::ACJsNumber"* %22 to %"class.altered_carbon::js::ACJsPrimitive"*, !dbg !3626
  %24 = getelementptr inbounds %"class.altered_carbon::js::ACJsPrimitive", %"class.altered_carbon::js::ACJsPrimitive"* %23, i32 0, i32 1, !dbg !3626
  call void @_ZNK14altered_carbon2js11ACLexNumbereoERKS1_(%"class.altered_carbon::js::ACLexNumber"* sret %5, %"class.altered_carbon::js::ACLexNumber"* %15, %"class.altered_carbon::js::ACLexNumber"* dereferenceable(24) %24), !dbg !3626
  %25 = bitcast %"class.altered_carbon::js::ACJsNumber"* %6 to %"class.altered_carbon::js::ACJsPrimitive"*, !dbg !3626
  %26 = getelementptr inbounds %"class.altered_carbon::js::ACJsPrimitive", %"class.altered_carbon::js::ACJsPrimitive"* %25, i32 0, i32 1, !dbg !3626
  %27 = call dereferenceable(24) %"class.altered_carbon::js::ACLexNumber"* @_ZN14altered_carbon2js11ACLexNumberaSERKS1_(%"class.altered_carbon::js::ACLexNumber"* %26, %"class.altered_carbon::js::ACLexNumber"* dereferenceable(24) %5), !dbg !3626
  call void @_ZN14altered_carbon2js11ACLexNumberD1Ev(%"class.altered_carbon::js::ACLexNumber"* %5) #8, !dbg !3626
  br label %28

; <label>:28:                                     ; preds = %13, %9
  %29 = bitcast %"class.altered_carbon::js::ACJsNumber"* %6 to %"class.altered_carbon::js::ACJsValue"*, !dbg !3621
  ret %"class.altered_carbon::js::ACJsValue"* %29, !dbg !3621
}

declare void @_ZNK14altered_carbon2js11ACLexNumbereoERKS1_(%"class.altered_carbon::js::ACLexNumber"* sret, %"class.altered_carbon::js::ACLexNumber"*, %"class.altered_carbon::js::ACLexNumber"* dereferenceable(24)) #2

; Function Attrs: noinline nounwind optnone ssp uwtable
define dereferenceable(16) %"class.altered_carbon::js::ACJsValue"* @_ZN14altered_carbon2js10ACJsNumberoRERKNS0_9ACJsValueE(%"class.altered_carbon::js::ACJsNumber"*, %"class.altered_carbon::js::ACJsValue"* dereferenceable(16)) unnamed_addr #0 align 2 !dbg !3628 {
  %3 = alloca %"class.altered_carbon::js::ACJsNumber"*, align 8
  %4 = alloca %"class.altered_carbon::js::ACJsValue"*, align 8
  %5 = alloca %"class.altered_carbon::js::ACLexNumber", align 8
  store %"class.altered_carbon::js::ACJsNumber"* %0, %"class.altered_carbon::js::ACJsNumber"** %3, align 8
  call void @llvm.dbg.declare(metadata %"class.altered_carbon::js::ACJsNumber"** %3, metadata !3629, metadata !DIExpression()), !dbg !3630
  store %"class.altered_carbon::js::ACJsValue"* %1, %"class.altered_carbon::js::ACJsValue"** %4, align 8
  call void @llvm.dbg.declare(metadata %"class.altered_carbon::js::ACJsValue"** %4, metadata !3631, metadata !DIExpression()), !dbg !3632
  %6 = load %"class.altered_carbon::js::ACJsNumber"*, %"class.altered_carbon::js::ACJsNumber"** %3, align 8
  %7 = load %"class.altered_carbon::js::ACJsValue"*, %"class.altered_carbon::js::ACJsValue"** %4, align 8, !dbg !3633
  %8 = call zeroext i1 @_ZNK14altered_carbon2js9ACJsValue11isUndefinedEv(%"class.altered_carbon::js::ACJsValue"* %7), !dbg !3633
  br i1 %8, label %9, label %13, !dbg !3632

; <label>:9:                                      ; preds = %2
  %10 = bitcast %"class.altered_carbon::js::ACJsNumber"* %6 to %"class.altered_carbon::js::ACJsPrimitive"*, !dbg !3635
  %11 = getelementptr inbounds %"class.altered_carbon::js::ACJsPrimitive", %"class.altered_carbon::js::ACJsPrimitive"* %10, i32 0, i32 1, !dbg !3635
  %12 = call dereferenceable(24) %"class.altered_carbon::js::ACLexNumber"* @_ZN14altered_carbon2js11ACLexNumberaSEx(%"class.altered_carbon::js::ACLexNumber"* %11, i64 0), !dbg !3635
  br label %28, !dbg !3635

; <label>:13:                                     ; preds = %2
  %14 = bitcast %"class.altered_carbon::js::ACJsNumber"* %6 to %"class.altered_carbon::js::ACJsPrimitive"*, !dbg !3637
  %15 = getelementptr inbounds %"class.altered_carbon::js::ACJsPrimitive", %"class.altered_carbon::js::ACJsPrimitive"* %14, i32 0, i32 1, !dbg !3637
  %16 = load %"class.altered_carbon::js::ACJsValue"*, %"class.altered_carbon::js::ACJsValue"** %4, align 8, !dbg !3637
  %17 = bitcast %"class.altered_carbon::js::ACJsValue"* %16 to %"class.altered_carbon::js::ACJsValue"* (%"class.altered_carbon::js::ACJsValue"*)***, !dbg !3637
  %18 = load %"class.altered_carbon::js::ACJsValue"* (%"class.altered_carbon::js::ACJsValue"*)**, %"class.altered_carbon::js::ACJsValue"* (%"class.altered_carbon::js::ACJsValue"*)*** %17, align 8, !dbg !3637
  %19 = getelementptr inbounds %"class.altered_carbon::js::ACJsValue"* (%"class.altered_carbon::js::ACJsValue"*)*, %"class.altered_carbon::js::ACJsValue"* (%"class.altered_carbon::js::ACJsValue"*)** %18, i64 42, !dbg !3637
  %20 = load %"class.altered_carbon::js::ACJsValue"* (%"class.altered_carbon::js::ACJsValue"*)*, %"class.altered_carbon::js::ACJsValue"* (%"class.altered_carbon::js::ACJsValue"*)** %19, align 8, !dbg !3637
  %21 = call %"class.altered_carbon::js::ACJsValue"* %20(%"class.altered_carbon::js::ACJsValue"* %16), !dbg !3637
  %22 = bitcast %"class.altered_carbon::js::ACJsValue"* %21 to %"class.altered_carbon::js::ACJsNumber"*, !dbg !3637
  %23 = bitcast %"class.altered_carbon::js::ACJsNumber"* %22 to %"class.altered_carbon::js::ACJsPrimitive"*, !dbg !3637
  %24 = getelementptr inbounds %"class.altered_carbon::js::ACJsPrimitive", %"class.altered_carbon::js::ACJsPrimitive"* %23, i32 0, i32 1, !dbg !3637
  call void @_ZNK14altered_carbon2js11ACLexNumberorERKS1_(%"class.altered_carbon::js::ACLexNumber"* sret %5, %"class.altered_carbon::js::ACLexNumber"* %15, %"class.altered_carbon::js::ACLexNumber"* dereferenceable(24) %24), !dbg !3637
  %25 = bitcast %"class.altered_carbon::js::ACJsNumber"* %6 to %"class.altered_carbon::js::ACJsPrimitive"*, !dbg !3637
  %26 = getelementptr inbounds %"class.altered_carbon::js::ACJsPrimitive", %"class.altered_carbon::js::ACJsPrimitive"* %25, i32 0, i32 1, !dbg !3637
  %27 = call dereferenceable(24) %"class.altered_carbon::js::ACLexNumber"* @_ZN14altered_carbon2js11ACLexNumberaSERKS1_(%"class.altered_carbon::js::ACLexNumber"* %26, %"class.altered_carbon::js::ACLexNumber"* dereferenceable(24) %5), !dbg !3637
  call void @_ZN14altered_carbon2js11ACLexNumberD1Ev(%"class.altered_carbon::js::ACLexNumber"* %5) #8, !dbg !3637
  br label %28

; <label>:28:                                     ; preds = %13, %9
  %29 = bitcast %"class.altered_carbon::js::ACJsNumber"* %6 to %"class.altered_carbon::js::ACJsValue"*, !dbg !3632
  ret %"class.altered_carbon::js::ACJsValue"* %29, !dbg !3632
}

declare void @_ZNK14altered_carbon2js11ACLexNumberorERKS1_(%"class.altered_carbon::js::ACLexNumber"* sret, %"class.altered_carbon::js::ACLexNumber"*, %"class.altered_carbon::js::ACLexNumber"* dereferenceable(24)) #2

; Function Attrs: noinline nounwind optnone ssp uwtable
define dereferenceable(16) %"class.altered_carbon::js::ACJsValue"* @_ZN14altered_carbon2js10ACJsNumberaNERKNS0_9ACJsValueE(%"class.altered_carbon::js::ACJsNumber"*, %"class.altered_carbon::js::ACJsValue"* dereferenceable(16)) unnamed_addr #0 align 2 !dbg !3639 {
  %3 = alloca %"class.altered_carbon::js::ACJsNumber"*, align 8
  %4 = alloca %"class.altered_carbon::js::ACJsValue"*, align 8
  %5 = alloca %"class.altered_carbon::js::ACLexNumber", align 8
  store %"class.altered_carbon::js::ACJsNumber"* %0, %"class.altered_carbon::js::ACJsNumber"** %3, align 8
  call void @llvm.dbg.declare(metadata %"class.altered_carbon::js::ACJsNumber"** %3, metadata !3640, metadata !DIExpression()), !dbg !3641
  store %"class.altered_carbon::js::ACJsValue"* %1, %"class.altered_carbon::js::ACJsValue"** %4, align 8
  call void @llvm.dbg.declare(metadata %"class.altered_carbon::js::ACJsValue"** %4, metadata !3642, metadata !DIExpression()), !dbg !3643
  %6 = load %"class.altered_carbon::js::ACJsNumber"*, %"class.altered_carbon::js::ACJsNumber"** %3, align 8
  %7 = load %"class.altered_carbon::js::ACJsValue"*, %"class.altered_carbon::js::ACJsValue"** %4, align 8, !dbg !3644
  %8 = call zeroext i1 @_ZNK14altered_carbon2js9ACJsValue11isUndefinedEv(%"class.altered_carbon::js::ACJsValue"* %7), !dbg !3644
  br i1 %8, label %9, label %13, !dbg !3643

; <label>:9:                                      ; preds = %2
  %10 = bitcast %"class.altered_carbon::js::ACJsNumber"* %6 to %"class.altered_carbon::js::ACJsPrimitive"*, !dbg !3646
  %11 = getelementptr inbounds %"class.altered_carbon::js::ACJsPrimitive", %"class.altered_carbon::js::ACJsPrimitive"* %10, i32 0, i32 1, !dbg !3646
  %12 = call dereferenceable(24) %"class.altered_carbon::js::ACLexNumber"* @_ZN14altered_carbon2js11ACLexNumberaSEx(%"class.altered_carbon::js::ACLexNumber"* %11, i64 0), !dbg !3646
  br label %28, !dbg !3646

; <label>:13:                                     ; preds = %2
  %14 = bitcast %"class.altered_carbon::js::ACJsNumber"* %6 to %"class.altered_carbon::js::ACJsPrimitive"*, !dbg !3648
  %15 = getelementptr inbounds %"class.altered_carbon::js::ACJsPrimitive", %"class.altered_carbon::js::ACJsPrimitive"* %14, i32 0, i32 1, !dbg !3648
  %16 = load %"class.altered_carbon::js::ACJsValue"*, %"class.altered_carbon::js::ACJsValue"** %4, align 8, !dbg !3648
  %17 = bitcast %"class.altered_carbon::js::ACJsValue"* %16 to %"class.altered_carbon::js::ACJsValue"* (%"class.altered_carbon::js::ACJsValue"*)***, !dbg !3648
  %18 = load %"class.altered_carbon::js::ACJsValue"* (%"class.altered_carbon::js::ACJsValue"*)**, %"class.altered_carbon::js::ACJsValue"* (%"class.altered_carbon::js::ACJsValue"*)*** %17, align 8, !dbg !3648
  %19 = getelementptr inbounds %"class.altered_carbon::js::ACJsValue"* (%"class.altered_carbon::js::ACJsValue"*)*, %"class.altered_carbon::js::ACJsValue"* (%"class.altered_carbon::js::ACJsValue"*)** %18, i64 42, !dbg !3648
  %20 = load %"class.altered_carbon::js::ACJsValue"* (%"class.altered_carbon::js::ACJsValue"*)*, %"class.altered_carbon::js::ACJsValue"* (%"class.altered_carbon::js::ACJsValue"*)** %19, align 8, !dbg !3648
  %21 = call %"class.altered_carbon::js::ACJsValue"* %20(%"class.altered_carbon::js::ACJsValue"* %16), !dbg !3648
  %22 = bitcast %"class.altered_carbon::js::ACJsValue"* %21 to %"class.altered_carbon::js::ACJsNumber"*, !dbg !3648
  %23 = bitcast %"class.altered_carbon::js::ACJsNumber"* %22 to %"class.altered_carbon::js::ACJsPrimitive"*, !dbg !3648
  %24 = getelementptr inbounds %"class.altered_carbon::js::ACJsPrimitive", %"class.altered_carbon::js::ACJsPrimitive"* %23, i32 0, i32 1, !dbg !3648
  call void @_ZNK14altered_carbon2js11ACLexNumberanERKS1_(%"class.altered_carbon::js::ACLexNumber"* sret %5, %"class.altered_carbon::js::ACLexNumber"* %15, %"class.altered_carbon::js::ACLexNumber"* dereferenceable(24) %24), !dbg !3648
  %25 = bitcast %"class.altered_carbon::js::ACJsNumber"* %6 to %"class.altered_carbon::js::ACJsPrimitive"*, !dbg !3648
  %26 = getelementptr inbounds %"class.altered_carbon::js::ACJsPrimitive", %"class.altered_carbon::js::ACJsPrimitive"* %25, i32 0, i32 1, !dbg !3648
  %27 = call dereferenceable(24) %"class.altered_carbon::js::ACLexNumber"* @_ZN14altered_carbon2js11ACLexNumberaSERKS1_(%"class.altered_carbon::js::ACLexNumber"* %26, %"class.altered_carbon::js::ACLexNumber"* dereferenceable(24) %5), !dbg !3648
  call void @_ZN14altered_carbon2js11ACLexNumberD1Ev(%"class.altered_carbon::js::ACLexNumber"* %5) #8, !dbg !3648
  br label %28

; <label>:28:                                     ; preds = %13, %9
  %29 = bitcast %"class.altered_carbon::js::ACJsNumber"* %6 to %"class.altered_carbon::js::ACJsValue"*, !dbg !3643
  ret %"class.altered_carbon::js::ACJsValue"* %29, !dbg !3643
}

declare void @_ZNK14altered_carbon2js11ACLexNumberanERKS1_(%"class.altered_carbon::js::ACLexNumber"* sret, %"class.altered_carbon::js::ACLexNumber"*, %"class.altered_carbon::js::ACLexNumber"* dereferenceable(24)) #2

; Function Attrs: noinline nounwind optnone ssp uwtable
define dereferenceable(16) %"class.altered_carbon::js::ACJsValue"* @_ZN14altered_carbon2js10ACJsNumberlSERKNS0_9ACJsValueE(%"class.altered_carbon::js::ACJsNumber"*, %"class.altered_carbon::js::ACJsValue"* dereferenceable(16)) unnamed_addr #0 align 2 !dbg !3650 {
  %3 = alloca %"class.altered_carbon::js::ACJsNumber"*, align 8
  %4 = alloca %"class.altered_carbon::js::ACJsValue"*, align 8
  %5 = alloca %"class.altered_carbon::js::ACLexNumber", align 8
  store %"class.altered_carbon::js::ACJsNumber"* %0, %"class.altered_carbon::js::ACJsNumber"** %3, align 8
  call void @llvm.dbg.declare(metadata %"class.altered_carbon::js::ACJsNumber"** %3, metadata !3651, metadata !DIExpression()), !dbg !3652
  store %"class.altered_carbon::js::ACJsValue"* %1, %"class.altered_carbon::js::ACJsValue"** %4, align 8
  call void @llvm.dbg.declare(metadata %"class.altered_carbon::js::ACJsValue"** %4, metadata !3653, metadata !DIExpression()), !dbg !3654
  %6 = load %"class.altered_carbon::js::ACJsNumber"*, %"class.altered_carbon::js::ACJsNumber"** %3, align 8
  %7 = load %"class.altered_carbon::js::ACJsValue"*, %"class.altered_carbon::js::ACJsValue"** %4, align 8, !dbg !3655
  %8 = call zeroext i1 @_ZNK14altered_carbon2js9ACJsValue11isUndefinedEv(%"class.altered_carbon::js::ACJsValue"* %7), !dbg !3655
  br i1 %8, label %9, label %13, !dbg !3654

; <label>:9:                                      ; preds = %2
  %10 = bitcast %"class.altered_carbon::js::ACJsNumber"* %6 to %"class.altered_carbon::js::ACJsPrimitive"*, !dbg !3657
  %11 = getelementptr inbounds %"class.altered_carbon::js::ACJsPrimitive", %"class.altered_carbon::js::ACJsPrimitive"* %10, i32 0, i32 1, !dbg !3657
  %12 = call dereferenceable(24) %"class.altered_carbon::js::ACLexNumber"* @_ZN14altered_carbon2js11ACLexNumberaSEx(%"class.altered_carbon::js::ACLexNumber"* %11, i64 0), !dbg !3657
  br label %28, !dbg !3657

; <label>:13:                                     ; preds = %2
  %14 = bitcast %"class.altered_carbon::js::ACJsNumber"* %6 to %"class.altered_carbon::js::ACJsPrimitive"*, !dbg !3659
  %15 = getelementptr inbounds %"class.altered_carbon::js::ACJsPrimitive", %"class.altered_carbon::js::ACJsPrimitive"* %14, i32 0, i32 1, !dbg !3659
  %16 = load %"class.altered_carbon::js::ACJsValue"*, %"class.altered_carbon::js::ACJsValue"** %4, align 8, !dbg !3659
  %17 = bitcast %"class.altered_carbon::js::ACJsValue"* %16 to %"class.altered_carbon::js::ACJsValue"* (%"class.altered_carbon::js::ACJsValue"*)***, !dbg !3659
  %18 = load %"class.altered_carbon::js::ACJsValue"* (%"class.altered_carbon::js::ACJsValue"*)**, %"class.altered_carbon::js::ACJsValue"* (%"class.altered_carbon::js::ACJsValue"*)*** %17, align 8, !dbg !3659
  %19 = getelementptr inbounds %"class.altered_carbon::js::ACJsValue"* (%"class.altered_carbon::js::ACJsValue"*)*, %"class.altered_carbon::js::ACJsValue"* (%"class.altered_carbon::js::ACJsValue"*)** %18, i64 42, !dbg !3659
  %20 = load %"class.altered_carbon::js::ACJsValue"* (%"class.altered_carbon::js::ACJsValue"*)*, %"class.altered_carbon::js::ACJsValue"* (%"class.altered_carbon::js::ACJsValue"*)** %19, align 8, !dbg !3659
  %21 = call %"class.altered_carbon::js::ACJsValue"* %20(%"class.altered_carbon::js::ACJsValue"* %16), !dbg !3659
  %22 = bitcast %"class.altered_carbon::js::ACJsValue"* %21 to %"class.altered_carbon::js::ACJsNumber"*, !dbg !3659
  %23 = bitcast %"class.altered_carbon::js::ACJsNumber"* %22 to %"class.altered_carbon::js::ACJsPrimitive"*, !dbg !3659
  %24 = getelementptr inbounds %"class.altered_carbon::js::ACJsPrimitive", %"class.altered_carbon::js::ACJsPrimitive"* %23, i32 0, i32 1, !dbg !3659
  call void @_ZNK14altered_carbon2js11ACLexNumberlsERKS1_(%"class.altered_carbon::js::ACLexNumber"* sret %5, %"class.altered_carbon::js::ACLexNumber"* %15, %"class.altered_carbon::js::ACLexNumber"* dereferenceable(24) %24), !dbg !3659
  %25 = bitcast %"class.altered_carbon::js::ACJsNumber"* %6 to %"class.altered_carbon::js::ACJsPrimitive"*, !dbg !3659
  %26 = getelementptr inbounds %"class.altered_carbon::js::ACJsPrimitive", %"class.altered_carbon::js::ACJsPrimitive"* %25, i32 0, i32 1, !dbg !3659
  %27 = call dereferenceable(24) %"class.altered_carbon::js::ACLexNumber"* @_ZN14altered_carbon2js11ACLexNumberaSERKS1_(%"class.altered_carbon::js::ACLexNumber"* %26, %"class.altered_carbon::js::ACLexNumber"* dereferenceable(24) %5), !dbg !3659
  call void @_ZN14altered_carbon2js11ACLexNumberD1Ev(%"class.altered_carbon::js::ACLexNumber"* %5) #8, !dbg !3659
  br label %28

; <label>:28:                                     ; preds = %13, %9
  %29 = bitcast %"class.altered_carbon::js::ACJsNumber"* %6 to %"class.altered_carbon::js::ACJsValue"*, !dbg !3654
  ret %"class.altered_carbon::js::ACJsValue"* %29, !dbg !3654
}

declare void @_ZNK14altered_carbon2js11ACLexNumberlsERKS1_(%"class.altered_carbon::js::ACLexNumber"* sret, %"class.altered_carbon::js::ACLexNumber"*, %"class.altered_carbon::js::ACLexNumber"* dereferenceable(24)) #2

; Function Attrs: noinline nounwind optnone ssp uwtable
define dereferenceable(16) %"class.altered_carbon::js::ACJsValue"* @_ZN14altered_carbon2js10ACJsNumberrSERKNS0_9ACJsValueE(%"class.altered_carbon::js::ACJsNumber"*, %"class.altered_carbon::js::ACJsValue"* dereferenceable(16)) unnamed_addr #0 align 2 !dbg !3661 {
  %3 = alloca %"class.altered_carbon::js::ACJsNumber"*, align 8
  %4 = alloca %"class.altered_carbon::js::ACJsValue"*, align 8
  %5 = alloca %"class.altered_carbon::js::ACLexNumber", align 8
  store %"class.altered_carbon::js::ACJsNumber"* %0, %"class.altered_carbon::js::ACJsNumber"** %3, align 8
  call void @llvm.dbg.declare(metadata %"class.altered_carbon::js::ACJsNumber"** %3, metadata !3662, metadata !DIExpression()), !dbg !3663
  store %"class.altered_carbon::js::ACJsValue"* %1, %"class.altered_carbon::js::ACJsValue"** %4, align 8
  call void @llvm.dbg.declare(metadata %"class.altered_carbon::js::ACJsValue"** %4, metadata !3664, metadata !DIExpression()), !dbg !3665
  %6 = load %"class.altered_carbon::js::ACJsNumber"*, %"class.altered_carbon::js::ACJsNumber"** %3, align 8
  %7 = load %"class.altered_carbon::js::ACJsValue"*, %"class.altered_carbon::js::ACJsValue"** %4, align 8, !dbg !3666
  %8 = call zeroext i1 @_ZNK14altered_carbon2js9ACJsValue11isUndefinedEv(%"class.altered_carbon::js::ACJsValue"* %7), !dbg !3666
  br i1 %8, label %9, label %13, !dbg !3665

; <label>:9:                                      ; preds = %2
  %10 = bitcast %"class.altered_carbon::js::ACJsNumber"* %6 to %"class.altered_carbon::js::ACJsPrimitive"*, !dbg !3668
  %11 = getelementptr inbounds %"class.altered_carbon::js::ACJsPrimitive", %"class.altered_carbon::js::ACJsPrimitive"* %10, i32 0, i32 1, !dbg !3668
  %12 = call dereferenceable(24) %"class.altered_carbon::js::ACLexNumber"* @_ZN14altered_carbon2js11ACLexNumberaSEx(%"class.altered_carbon::js::ACLexNumber"* %11, i64 0), !dbg !3668
  br label %28, !dbg !3668

; <label>:13:                                     ; preds = %2
  %14 = bitcast %"class.altered_carbon::js::ACJsNumber"* %6 to %"class.altered_carbon::js::ACJsPrimitive"*, !dbg !3670
  %15 = getelementptr inbounds %"class.altered_carbon::js::ACJsPrimitive", %"class.altered_carbon::js::ACJsPrimitive"* %14, i32 0, i32 1, !dbg !3670
  %16 = load %"class.altered_carbon::js::ACJsValue"*, %"class.altered_carbon::js::ACJsValue"** %4, align 8, !dbg !3670
  %17 = bitcast %"class.altered_carbon::js::ACJsValue"* %16 to %"class.altered_carbon::js::ACJsValue"* (%"class.altered_carbon::js::ACJsValue"*)***, !dbg !3670
  %18 = load %"class.altered_carbon::js::ACJsValue"* (%"class.altered_carbon::js::ACJsValue"*)**, %"class.altered_carbon::js::ACJsValue"* (%"class.altered_carbon::js::ACJsValue"*)*** %17, align 8, !dbg !3670
  %19 = getelementptr inbounds %"class.altered_carbon::js::ACJsValue"* (%"class.altered_carbon::js::ACJsValue"*)*, %"class.altered_carbon::js::ACJsValue"* (%"class.altered_carbon::js::ACJsValue"*)** %18, i64 42, !dbg !3670
  %20 = load %"class.altered_carbon::js::ACJsValue"* (%"class.altered_carbon::js::ACJsValue"*)*, %"class.altered_carbon::js::ACJsValue"* (%"class.altered_carbon::js::ACJsValue"*)** %19, align 8, !dbg !3670
  %21 = call %"class.altered_carbon::js::ACJsValue"* %20(%"class.altered_carbon::js::ACJsValue"* %16), !dbg !3670
  %22 = bitcast %"class.altered_carbon::js::ACJsValue"* %21 to %"class.altered_carbon::js::ACJsNumber"*, !dbg !3670
  %23 = bitcast %"class.altered_carbon::js::ACJsNumber"* %22 to %"class.altered_carbon::js::ACJsPrimitive"*, !dbg !3670
  %24 = getelementptr inbounds %"class.altered_carbon::js::ACJsPrimitive", %"class.altered_carbon::js::ACJsPrimitive"* %23, i32 0, i32 1, !dbg !3670
  call void @_ZNK14altered_carbon2js11ACLexNumberrsERKS1_(%"class.altered_carbon::js::ACLexNumber"* sret %5, %"class.altered_carbon::js::ACLexNumber"* %15, %"class.altered_carbon::js::ACLexNumber"* dereferenceable(24) %24), !dbg !3670
  %25 = bitcast %"class.altered_carbon::js::ACJsNumber"* %6 to %"class.altered_carbon::js::ACJsPrimitive"*, !dbg !3670
  %26 = getelementptr inbounds %"class.altered_carbon::js::ACJsPrimitive", %"class.altered_carbon::js::ACJsPrimitive"* %25, i32 0, i32 1, !dbg !3670
  %27 = call dereferenceable(24) %"class.altered_carbon::js::ACLexNumber"* @_ZN14altered_carbon2js11ACLexNumberaSERKS1_(%"class.altered_carbon::js::ACLexNumber"* %26, %"class.altered_carbon::js::ACLexNumber"* dereferenceable(24) %5), !dbg !3670
  call void @_ZN14altered_carbon2js11ACLexNumberD1Ev(%"class.altered_carbon::js::ACLexNumber"* %5) #8, !dbg !3670
  br label %28

; <label>:28:                                     ; preds = %13, %9
  %29 = bitcast %"class.altered_carbon::js::ACJsNumber"* %6 to %"class.altered_carbon::js::ACJsValue"*, !dbg !3665
  ret %"class.altered_carbon::js::ACJsValue"* %29, !dbg !3665
}

declare void @_ZNK14altered_carbon2js11ACLexNumberrsERKS1_(%"class.altered_carbon::js::ACLexNumber"* sret, %"class.altered_carbon::js::ACLexNumber"*, %"class.altered_carbon::js::ACLexNumber"* dereferenceable(24)) #2

; Function Attrs: noinline nounwind optnone ssp uwtable
define zeroext i1 @_ZNK14altered_carbon2js10ACJsNumbereqERKNS0_9ACJsValueE(%"class.altered_carbon::js::ACJsNumber"*, %"class.altered_carbon::js::ACJsValue"* dereferenceable(16)) unnamed_addr #0 align 2 !dbg !3672 {
  %3 = alloca i1, align 1
  %4 = alloca %"class.altered_carbon::js::ACJsNumber"*, align 8
  %5 = alloca %"class.altered_carbon::js::ACJsValue"*, align 8
  store %"class.altered_carbon::js::ACJsNumber"* %0, %"class.altered_carbon::js::ACJsNumber"** %4, align 8
  call void @llvm.dbg.declare(metadata %"class.altered_carbon::js::ACJsNumber"** %4, metadata !3673, metadata !DIExpression()), !dbg !3674
  store %"class.altered_carbon::js::ACJsValue"* %1, %"class.altered_carbon::js::ACJsValue"** %5, align 8
  call void @llvm.dbg.declare(metadata %"class.altered_carbon::js::ACJsValue"** %5, metadata !3675, metadata !DIExpression()), !dbg !3676
  %6 = load %"class.altered_carbon::js::ACJsNumber"*, %"class.altered_carbon::js::ACJsNumber"** %4, align 8
  %7 = load %"class.altered_carbon::js::ACJsValue"*, %"class.altered_carbon::js::ACJsValue"** %5, align 8, !dbg !3677
  %8 = call zeroext i1 @_ZNK14altered_carbon2js9ACJsValue11isUndefinedEv(%"class.altered_carbon::js::ACJsValue"* %7), !dbg !3677
  br i1 %8, label %9, label %10, !dbg !3676

; <label>:9:                                      ; preds = %2
  store i1 false, i1* %3, align 1, !dbg !3679
  br label %23, !dbg !3679

; <label>:10:                                     ; preds = %2
  %11 = bitcast %"class.altered_carbon::js::ACJsNumber"* %6 to %"class.altered_carbon::js::ACJsPrimitive"*, !dbg !3676
  %12 = getelementptr inbounds %"class.altered_carbon::js::ACJsPrimitive", %"class.altered_carbon::js::ACJsPrimitive"* %11, i32 0, i32 1, !dbg !3676
  %13 = load %"class.altered_carbon::js::ACJsValue"*, %"class.altered_carbon::js::ACJsValue"** %5, align 8, !dbg !3676
  %14 = bitcast %"class.altered_carbon::js::ACJsValue"* %13 to %"class.altered_carbon::js::ACJsValue"* (%"class.altered_carbon::js::ACJsValue"*)***, !dbg !3676
  %15 = load %"class.altered_carbon::js::ACJsValue"* (%"class.altered_carbon::js::ACJsValue"*)**, %"class.altered_carbon::js::ACJsValue"* (%"class.altered_carbon::js::ACJsValue"*)*** %14, align 8, !dbg !3676
  %16 = getelementptr inbounds %"class.altered_carbon::js::ACJsValue"* (%"class.altered_carbon::js::ACJsValue"*)*, %"class.altered_carbon::js::ACJsValue"* (%"class.altered_carbon::js::ACJsValue"*)** %15, i64 42, !dbg !3676
  %17 = load %"class.altered_carbon::js::ACJsValue"* (%"class.altered_carbon::js::ACJsValue"*)*, %"class.altered_carbon::js::ACJsValue"* (%"class.altered_carbon::js::ACJsValue"*)** %16, align 8, !dbg !3676
  %18 = call %"class.altered_carbon::js::ACJsValue"* %17(%"class.altered_carbon::js::ACJsValue"* %13), !dbg !3676
  %19 = bitcast %"class.altered_carbon::js::ACJsValue"* %18 to %"class.altered_carbon::js::ACJsNumber"*, !dbg !3676
  %20 = bitcast %"class.altered_carbon::js::ACJsNumber"* %19 to %"class.altered_carbon::js::ACJsPrimitive"*, !dbg !3676
  %21 = getelementptr inbounds %"class.altered_carbon::js::ACJsPrimitive", %"class.altered_carbon::js::ACJsPrimitive"* %20, i32 0, i32 1, !dbg !3676
  %22 = call zeroext i1 @_ZNK14altered_carbon2js11ACLexNumbereqERKS1_(%"class.altered_carbon::js::ACLexNumber"* %12, %"class.altered_carbon::js::ACLexNumber"* dereferenceable(24) %21), !dbg !3676
  store i1 %22, i1* %3, align 1, !dbg !3676
  br label %23, !dbg !3676

; <label>:23:                                     ; preds = %10, %9
  %24 = load i1, i1* %3, align 1, !dbg !3676
  ret i1 %24, !dbg !3676
}

declare zeroext i1 @_ZNK14altered_carbon2js11ACLexNumbereqERKS1_(%"class.altered_carbon::js::ACLexNumber"*, %"class.altered_carbon::js::ACLexNumber"* dereferenceable(24)) #2

; Function Attrs: noinline nounwind optnone ssp uwtable
define zeroext i1 @_ZNK14altered_carbon2js10ACJsNumberneERKNS0_9ACJsValueE(%"class.altered_carbon::js::ACJsNumber"*, %"class.altered_carbon::js::ACJsValue"* dereferenceable(16)) unnamed_addr #0 align 2 !dbg !3681 {
  %3 = alloca i1, align 1
  %4 = alloca %"class.altered_carbon::js::ACJsNumber"*, align 8
  %5 = alloca %"class.altered_carbon::js::ACJsValue"*, align 8
  store %"class.altered_carbon::js::ACJsNumber"* %0, %"class.altered_carbon::js::ACJsNumber"** %4, align 8
  call void @llvm.dbg.declare(metadata %"class.altered_carbon::js::ACJsNumber"** %4, metadata !3682, metadata !DIExpression()), !dbg !3683
  store %"class.altered_carbon::js::ACJsValue"* %1, %"class.altered_carbon::js::ACJsValue"** %5, align 8
  call void @llvm.dbg.declare(metadata %"class.altered_carbon::js::ACJsValue"** %5, metadata !3684, metadata !DIExpression()), !dbg !3685
  %6 = load %"class.altered_carbon::js::ACJsNumber"*, %"class.altered_carbon::js::ACJsNumber"** %4, align 8
  %7 = load %"class.altered_carbon::js::ACJsValue"*, %"class.altered_carbon::js::ACJsValue"** %5, align 8, !dbg !3686
  %8 = call zeroext i1 @_ZNK14altered_carbon2js9ACJsValue11isUndefinedEv(%"class.altered_carbon::js::ACJsValue"* %7), !dbg !3686
  br i1 %8, label %9, label %10, !dbg !3685

; <label>:9:                                      ; preds = %2
  store i1 false, i1* %3, align 1, !dbg !3688
  br label %23, !dbg !3688

; <label>:10:                                     ; preds = %2
  %11 = bitcast %"class.altered_carbon::js::ACJsNumber"* %6 to %"class.altered_carbon::js::ACJsPrimitive"*, !dbg !3685
  %12 = getelementptr inbounds %"class.altered_carbon::js::ACJsPrimitive", %"class.altered_carbon::js::ACJsPrimitive"* %11, i32 0, i32 1, !dbg !3685
  %13 = load %"class.altered_carbon::js::ACJsValue"*, %"class.altered_carbon::js::ACJsValue"** %5, align 8, !dbg !3685
  %14 = bitcast %"class.altered_carbon::js::ACJsValue"* %13 to %"class.altered_carbon::js::ACJsValue"* (%"class.altered_carbon::js::ACJsValue"*)***, !dbg !3685
  %15 = load %"class.altered_carbon::js::ACJsValue"* (%"class.altered_carbon::js::ACJsValue"*)**, %"class.altered_carbon::js::ACJsValue"* (%"class.altered_carbon::js::ACJsValue"*)*** %14, align 8, !dbg !3685
  %16 = getelementptr inbounds %"class.altered_carbon::js::ACJsValue"* (%"class.altered_carbon::js::ACJsValue"*)*, %"class.altered_carbon::js::ACJsValue"* (%"class.altered_carbon::js::ACJsValue"*)** %15, i64 42, !dbg !3685
  %17 = load %"class.altered_carbon::js::ACJsValue"* (%"class.altered_carbon::js::ACJsValue"*)*, %"class.altered_carbon::js::ACJsValue"* (%"class.altered_carbon::js::ACJsValue"*)** %16, align 8, !dbg !3685
  %18 = call %"class.altered_carbon::js::ACJsValue"* %17(%"class.altered_carbon::js::ACJsValue"* %13), !dbg !3685
  %19 = bitcast %"class.altered_carbon::js::ACJsValue"* %18 to %"class.altered_carbon::js::ACJsNumber"*, !dbg !3685
  %20 = bitcast %"class.altered_carbon::js::ACJsNumber"* %19 to %"class.altered_carbon::js::ACJsPrimitive"*, !dbg !3685
  %21 = getelementptr inbounds %"class.altered_carbon::js::ACJsPrimitive", %"class.altered_carbon::js::ACJsPrimitive"* %20, i32 0, i32 1, !dbg !3685
  %22 = call zeroext i1 @_ZNK14altered_carbon2js11ACLexNumberneERKS1_(%"class.altered_carbon::js::ACLexNumber"* %12, %"class.altered_carbon::js::ACLexNumber"* dereferenceable(24) %21), !dbg !3685
  store i1 %22, i1* %3, align 1, !dbg !3685
  br label %23, !dbg !3685

; <label>:23:                                     ; preds = %10, %9
  %24 = load i1, i1* %3, align 1, !dbg !3685
  ret i1 %24, !dbg !3685
}

declare zeroext i1 @_ZNK14altered_carbon2js11ACLexNumberneERKS1_(%"class.altered_carbon::js::ACLexNumber"*, %"class.altered_carbon::js::ACLexNumber"* dereferenceable(24)) #2

; Function Attrs: noinline nounwind optnone ssp uwtable
define zeroext i1 @_ZNK14altered_carbon2js10ACJsNumbergeERKNS0_9ACJsValueE(%"class.altered_carbon::js::ACJsNumber"*, %"class.altered_carbon::js::ACJsValue"* dereferenceable(16)) unnamed_addr #0 align 2 !dbg !3690 {
  %3 = alloca i1, align 1
  %4 = alloca %"class.altered_carbon::js::ACJsNumber"*, align 8
  %5 = alloca %"class.altered_carbon::js::ACJsValue"*, align 8
  store %"class.altered_carbon::js::ACJsNumber"* %0, %"class.altered_carbon::js::ACJsNumber"** %4, align 8
  call void @llvm.dbg.declare(metadata %"class.altered_carbon::js::ACJsNumber"** %4, metadata !3691, metadata !DIExpression()), !dbg !3692
  store %"class.altered_carbon::js::ACJsValue"* %1, %"class.altered_carbon::js::ACJsValue"** %5, align 8
  call void @llvm.dbg.declare(metadata %"class.altered_carbon::js::ACJsValue"** %5, metadata !3693, metadata !DIExpression()), !dbg !3694
  %6 = load %"class.altered_carbon::js::ACJsNumber"*, %"class.altered_carbon::js::ACJsNumber"** %4, align 8
  %7 = load %"class.altered_carbon::js::ACJsValue"*, %"class.altered_carbon::js::ACJsValue"** %5, align 8, !dbg !3695
  %8 = call zeroext i1 @_ZNK14altered_carbon2js9ACJsValue11isUndefinedEv(%"class.altered_carbon::js::ACJsValue"* %7), !dbg !3695
  br i1 %8, label %9, label %10, !dbg !3694

; <label>:9:                                      ; preds = %2
  store i1 false, i1* %3, align 1, !dbg !3697
  br label %23, !dbg !3697

; <label>:10:                                     ; preds = %2
  %11 = bitcast %"class.altered_carbon::js::ACJsNumber"* %6 to %"class.altered_carbon::js::ACJsPrimitive"*, !dbg !3694
  %12 = getelementptr inbounds %"class.altered_carbon::js::ACJsPrimitive", %"class.altered_carbon::js::ACJsPrimitive"* %11, i32 0, i32 1, !dbg !3694
  %13 = load %"class.altered_carbon::js::ACJsValue"*, %"class.altered_carbon::js::ACJsValue"** %5, align 8, !dbg !3694
  %14 = bitcast %"class.altered_carbon::js::ACJsValue"* %13 to %"class.altered_carbon::js::ACJsValue"* (%"class.altered_carbon::js::ACJsValue"*)***, !dbg !3694
  %15 = load %"class.altered_carbon::js::ACJsValue"* (%"class.altered_carbon::js::ACJsValue"*)**, %"class.altered_carbon::js::ACJsValue"* (%"class.altered_carbon::js::ACJsValue"*)*** %14, align 8, !dbg !3694
  %16 = getelementptr inbounds %"class.altered_carbon::js::ACJsValue"* (%"class.altered_carbon::js::ACJsValue"*)*, %"class.altered_carbon::js::ACJsValue"* (%"class.altered_carbon::js::ACJsValue"*)** %15, i64 42, !dbg !3694
  %17 = load %"class.altered_carbon::js::ACJsValue"* (%"class.altered_carbon::js::ACJsValue"*)*, %"class.altered_carbon::js::ACJsValue"* (%"class.altered_carbon::js::ACJsValue"*)** %16, align 8, !dbg !3694
  %18 = call %"class.altered_carbon::js::ACJsValue"* %17(%"class.altered_carbon::js::ACJsValue"* %13), !dbg !3694
  %19 = bitcast %"class.altered_carbon::js::ACJsValue"* %18 to %"class.altered_carbon::js::ACJsNumber"*, !dbg !3694
  %20 = bitcast %"class.altered_carbon::js::ACJsNumber"* %19 to %"class.altered_carbon::js::ACJsPrimitive"*, !dbg !3694
  %21 = getelementptr inbounds %"class.altered_carbon::js::ACJsPrimitive", %"class.altered_carbon::js::ACJsPrimitive"* %20, i32 0, i32 1, !dbg !3694
  %22 = call zeroext i1 @_ZNK14altered_carbon2js11ACLexNumbergeERKS1_(%"class.altered_carbon::js::ACLexNumber"* %12, %"class.altered_carbon::js::ACLexNumber"* dereferenceable(24) %21), !dbg !3694
  store i1 %22, i1* %3, align 1, !dbg !3694
  br label %23, !dbg !3694

; <label>:23:                                     ; preds = %10, %9
  %24 = load i1, i1* %3, align 1, !dbg !3694
  ret i1 %24, !dbg !3694
}

declare zeroext i1 @_ZNK14altered_carbon2js11ACLexNumbergeERKS1_(%"class.altered_carbon::js::ACLexNumber"*, %"class.altered_carbon::js::ACLexNumber"* dereferenceable(24)) #2

; Function Attrs: noinline nounwind optnone ssp uwtable
define zeroext i1 @_ZNK14altered_carbon2js10ACJsNumberleERKNS0_9ACJsValueE(%"class.altered_carbon::js::ACJsNumber"*, %"class.altered_carbon::js::ACJsValue"* dereferenceable(16)) unnamed_addr #0 align 2 !dbg !3699 {
  %3 = alloca i1, align 1
  %4 = alloca %"class.altered_carbon::js::ACJsNumber"*, align 8
  %5 = alloca %"class.altered_carbon::js::ACJsValue"*, align 8
  store %"class.altered_carbon::js::ACJsNumber"* %0, %"class.altered_carbon::js::ACJsNumber"** %4, align 8
  call void @llvm.dbg.declare(metadata %"class.altered_carbon::js::ACJsNumber"** %4, metadata !3700, metadata !DIExpression()), !dbg !3701
  store %"class.altered_carbon::js::ACJsValue"* %1, %"class.altered_carbon::js::ACJsValue"** %5, align 8
  call void @llvm.dbg.declare(metadata %"class.altered_carbon::js::ACJsValue"** %5, metadata !3702, metadata !DIExpression()), !dbg !3703
  %6 = load %"class.altered_carbon::js::ACJsNumber"*, %"class.altered_carbon::js::ACJsNumber"** %4, align 8
  %7 = load %"class.altered_carbon::js::ACJsValue"*, %"class.altered_carbon::js::ACJsValue"** %5, align 8, !dbg !3704
  %8 = call zeroext i1 @_ZNK14altered_carbon2js9ACJsValue11isUndefinedEv(%"class.altered_carbon::js::ACJsValue"* %7), !dbg !3704
  br i1 %8, label %9, label %10, !dbg !3703

; <label>:9:                                      ; preds = %2
  store i1 false, i1* %3, align 1, !dbg !3706
  br label %23, !dbg !3706

; <label>:10:                                     ; preds = %2
  %11 = bitcast %"class.altered_carbon::js::ACJsNumber"* %6 to %"class.altered_carbon::js::ACJsPrimitive"*, !dbg !3703
  %12 = getelementptr inbounds %"class.altered_carbon::js::ACJsPrimitive", %"class.altered_carbon::js::ACJsPrimitive"* %11, i32 0, i32 1, !dbg !3703
  %13 = load %"class.altered_carbon::js::ACJsValue"*, %"class.altered_carbon::js::ACJsValue"** %5, align 8, !dbg !3703
  %14 = bitcast %"class.altered_carbon::js::ACJsValue"* %13 to %"class.altered_carbon::js::ACJsValue"* (%"class.altered_carbon::js::ACJsValue"*)***, !dbg !3703
  %15 = load %"class.altered_carbon::js::ACJsValue"* (%"class.altered_carbon::js::ACJsValue"*)**, %"class.altered_carbon::js::ACJsValue"* (%"class.altered_carbon::js::ACJsValue"*)*** %14, align 8, !dbg !3703
  %16 = getelementptr inbounds %"class.altered_carbon::js::ACJsValue"* (%"class.altered_carbon::js::ACJsValue"*)*, %"class.altered_carbon::js::ACJsValue"* (%"class.altered_carbon::js::ACJsValue"*)** %15, i64 42, !dbg !3703
  %17 = load %"class.altered_carbon::js::ACJsValue"* (%"class.altered_carbon::js::ACJsValue"*)*, %"class.altered_carbon::js::ACJsValue"* (%"class.altered_carbon::js::ACJsValue"*)** %16, align 8, !dbg !3703
  %18 = call %"class.altered_carbon::js::ACJsValue"* %17(%"class.altered_carbon::js::ACJsValue"* %13), !dbg !3703
  %19 = bitcast %"class.altered_carbon::js::ACJsValue"* %18 to %"class.altered_carbon::js::ACJsNumber"*, !dbg !3703
  %20 = bitcast %"class.altered_carbon::js::ACJsNumber"* %19 to %"class.altered_carbon::js::ACJsPrimitive"*, !dbg !3703
  %21 = getelementptr inbounds %"class.altered_carbon::js::ACJsPrimitive", %"class.altered_carbon::js::ACJsPrimitive"* %20, i32 0, i32 1, !dbg !3703
  %22 = call zeroext i1 @_ZNK14altered_carbon2js11ACLexNumberleERKS1_(%"class.altered_carbon::js::ACLexNumber"* %12, %"class.altered_carbon::js::ACLexNumber"* dereferenceable(24) %21), !dbg !3703
  store i1 %22, i1* %3, align 1, !dbg !3703
  br label %23, !dbg !3703

; <label>:23:                                     ; preds = %10, %9
  %24 = load i1, i1* %3, align 1, !dbg !3703
  ret i1 %24, !dbg !3703
}

declare zeroext i1 @_ZNK14altered_carbon2js11ACLexNumberleERKS1_(%"class.altered_carbon::js::ACLexNumber"*, %"class.altered_carbon::js::ACLexNumber"* dereferenceable(24)) #2

; Function Attrs: noinline nounwind optnone ssp uwtable
define zeroext i1 @_ZNK14altered_carbon2js10ACJsNumbergtERKNS0_9ACJsValueE(%"class.altered_carbon::js::ACJsNumber"*, %"class.altered_carbon::js::ACJsValue"* dereferenceable(16)) unnamed_addr #0 align 2 !dbg !3708 {
  %3 = alloca i1, align 1
  %4 = alloca %"class.altered_carbon::js::ACJsNumber"*, align 8
  %5 = alloca %"class.altered_carbon::js::ACJsValue"*, align 8
  store %"class.altered_carbon::js::ACJsNumber"* %0, %"class.altered_carbon::js::ACJsNumber"** %4, align 8
  call void @llvm.dbg.declare(metadata %"class.altered_carbon::js::ACJsNumber"** %4, metadata !3709, metadata !DIExpression()), !dbg !3710
  store %"class.altered_carbon::js::ACJsValue"* %1, %"class.altered_carbon::js::ACJsValue"** %5, align 8
  call void @llvm.dbg.declare(metadata %"class.altered_carbon::js::ACJsValue"** %5, metadata !3711, metadata !DIExpression()), !dbg !3712
  %6 = load %"class.altered_carbon::js::ACJsNumber"*, %"class.altered_carbon::js::ACJsNumber"** %4, align 8
  %7 = load %"class.altered_carbon::js::ACJsValue"*, %"class.altered_carbon::js::ACJsValue"** %5, align 8, !dbg !3713
  %8 = call zeroext i1 @_ZNK14altered_carbon2js9ACJsValue11isUndefinedEv(%"class.altered_carbon::js::ACJsValue"* %7), !dbg !3713
  br i1 %8, label %9, label %10, !dbg !3712

; <label>:9:                                      ; preds = %2
  store i1 false, i1* %3, align 1, !dbg !3715
  br label %23, !dbg !3715

; <label>:10:                                     ; preds = %2
  %11 = bitcast %"class.altered_carbon::js::ACJsNumber"* %6 to %"class.altered_carbon::js::ACJsPrimitive"*, !dbg !3712
  %12 = getelementptr inbounds %"class.altered_carbon::js::ACJsPrimitive", %"class.altered_carbon::js::ACJsPrimitive"* %11, i32 0, i32 1, !dbg !3712
  %13 = load %"class.altered_carbon::js::ACJsValue"*, %"class.altered_carbon::js::ACJsValue"** %5, align 8, !dbg !3712
  %14 = bitcast %"class.altered_carbon::js::ACJsValue"* %13 to %"class.altered_carbon::js::ACJsValue"* (%"class.altered_carbon::js::ACJsValue"*)***, !dbg !3712
  %15 = load %"class.altered_carbon::js::ACJsValue"* (%"class.altered_carbon::js::ACJsValue"*)**, %"class.altered_carbon::js::ACJsValue"* (%"class.altered_carbon::js::ACJsValue"*)*** %14, align 8, !dbg !3712
  %16 = getelementptr inbounds %"class.altered_carbon::js::ACJsValue"* (%"class.altered_carbon::js::ACJsValue"*)*, %"class.altered_carbon::js::ACJsValue"* (%"class.altered_carbon::js::ACJsValue"*)** %15, i64 42, !dbg !3712
  %17 = load %"class.altered_carbon::js::ACJsValue"* (%"class.altered_carbon::js::ACJsValue"*)*, %"class.altered_carbon::js::ACJsValue"* (%"class.altered_carbon::js::ACJsValue"*)** %16, align 8, !dbg !3712
  %18 = call %"class.altered_carbon::js::ACJsValue"* %17(%"class.altered_carbon::js::ACJsValue"* %13), !dbg !3712
  %19 = bitcast %"class.altered_carbon::js::ACJsValue"* %18 to %"class.altered_carbon::js::ACJsNumber"*, !dbg !3712
  %20 = bitcast %"class.altered_carbon::js::ACJsNumber"* %19 to %"class.altered_carbon::js::ACJsPrimitive"*, !dbg !3712
  %21 = getelementptr inbounds %"class.altered_carbon::js::ACJsPrimitive", %"class.altered_carbon::js::ACJsPrimitive"* %20, i32 0, i32 1, !dbg !3712
  %22 = call zeroext i1 @_ZNK14altered_carbon2js11ACLexNumbergtERKS1_(%"class.altered_carbon::js::ACLexNumber"* %12, %"class.altered_carbon::js::ACLexNumber"* dereferenceable(24) %21), !dbg !3712
  store i1 %22, i1* %3, align 1, !dbg !3712
  br label %23, !dbg !3712

; <label>:23:                                     ; preds = %10, %9
  %24 = load i1, i1* %3, align 1, !dbg !3712
  ret i1 %24, !dbg !3712
}

declare zeroext i1 @_ZNK14altered_carbon2js11ACLexNumbergtERKS1_(%"class.altered_carbon::js::ACLexNumber"*, %"class.altered_carbon::js::ACLexNumber"* dereferenceable(24)) #2

; Function Attrs: noinline nounwind optnone ssp uwtable
define zeroext i1 @_ZNK14altered_carbon2js10ACJsNumberltERKNS0_9ACJsValueE(%"class.altered_carbon::js::ACJsNumber"*, %"class.altered_carbon::js::ACJsValue"* dereferenceable(16)) unnamed_addr #0 align 2 !dbg !3717 {
  %3 = alloca i1, align 1
  %4 = alloca %"class.altered_carbon::js::ACJsNumber"*, align 8
  %5 = alloca %"class.altered_carbon::js::ACJsValue"*, align 8
  store %"class.altered_carbon::js::ACJsNumber"* %0, %"class.altered_carbon::js::ACJsNumber"** %4, align 8
  call void @llvm.dbg.declare(metadata %"class.altered_carbon::js::ACJsNumber"** %4, metadata !3718, metadata !DIExpression()), !dbg !3719
  store %"class.altered_carbon::js::ACJsValue"* %1, %"class.altered_carbon::js::ACJsValue"** %5, align 8
  call void @llvm.dbg.declare(metadata %"class.altered_carbon::js::ACJsValue"** %5, metadata !3720, metadata !DIExpression()), !dbg !3721
  %6 = load %"class.altered_carbon::js::ACJsNumber"*, %"class.altered_carbon::js::ACJsNumber"** %4, align 8
  %7 = load %"class.altered_carbon::js::ACJsValue"*, %"class.altered_carbon::js::ACJsValue"** %5, align 8, !dbg !3722
  %8 = call zeroext i1 @_ZNK14altered_carbon2js9ACJsValue11isUndefinedEv(%"class.altered_carbon::js::ACJsValue"* %7), !dbg !3722
  br i1 %8, label %9, label %10, !dbg !3721

; <label>:9:                                      ; preds = %2
  store i1 false, i1* %3, align 1, !dbg !3724
  br label %23, !dbg !3724

; <label>:10:                                     ; preds = %2
  %11 = bitcast %"class.altered_carbon::js::ACJsNumber"* %6 to %"class.altered_carbon::js::ACJsPrimitive"*, !dbg !3721
  %12 = getelementptr inbounds %"class.altered_carbon::js::ACJsPrimitive", %"class.altered_carbon::js::ACJsPrimitive"* %11, i32 0, i32 1, !dbg !3721
  %13 = load %"class.altered_carbon::js::ACJsValue"*, %"class.altered_carbon::js::ACJsValue"** %5, align 8, !dbg !3721
  %14 = bitcast %"class.altered_carbon::js::ACJsValue"* %13 to %"class.altered_carbon::js::ACJsValue"* (%"class.altered_carbon::js::ACJsValue"*)***, !dbg !3721
  %15 = load %"class.altered_carbon::js::ACJsValue"* (%"class.altered_carbon::js::ACJsValue"*)**, %"class.altered_carbon::js::ACJsValue"* (%"class.altered_carbon::js::ACJsValue"*)*** %14, align 8, !dbg !3721
  %16 = getelementptr inbounds %"class.altered_carbon::js::ACJsValue"* (%"class.altered_carbon::js::ACJsValue"*)*, %"class.altered_carbon::js::ACJsValue"* (%"class.altered_carbon::js::ACJsValue"*)** %15, i64 42, !dbg !3721
  %17 = load %"class.altered_carbon::js::ACJsValue"* (%"class.altered_carbon::js::ACJsValue"*)*, %"class.altered_carbon::js::ACJsValue"* (%"class.altered_carbon::js::ACJsValue"*)** %16, align 8, !dbg !3721
  %18 = call %"class.altered_carbon::js::ACJsValue"* %17(%"class.altered_carbon::js::ACJsValue"* %13), !dbg !3721
  %19 = bitcast %"class.altered_carbon::js::ACJsValue"* %18 to %"class.altered_carbon::js::ACJsNumber"*, !dbg !3721
  %20 = bitcast %"class.altered_carbon::js::ACJsNumber"* %19 to %"class.altered_carbon::js::ACJsPrimitive"*, !dbg !3721
  %21 = getelementptr inbounds %"class.altered_carbon::js::ACJsPrimitive", %"class.altered_carbon::js::ACJsPrimitive"* %20, i32 0, i32 1, !dbg !3721
  %22 = call zeroext i1 @_ZNK14altered_carbon2js11ACLexNumberltERKS1_(%"class.altered_carbon::js::ACLexNumber"* %12, %"class.altered_carbon::js::ACLexNumber"* dereferenceable(24) %21), !dbg !3721
  store i1 %22, i1* %3, align 1, !dbg !3721
  br label %23, !dbg !3721

; <label>:23:                                     ; preds = %10, %9
  %24 = load i1, i1* %3, align 1, !dbg !3721
  ret i1 %24, !dbg !3721
}

declare zeroext i1 @_ZNK14altered_carbon2js11ACLexNumberltERKS1_(%"class.altered_carbon::js::ACLexNumber"*, %"class.altered_carbon::js::ACLexNumber"* dereferenceable(24)) #2

; Function Attrs: noinline nounwind optnone ssp uwtable
define dereferenceable(16) %"class.altered_carbon::js::ACJsValue"* @_ZNK14altered_carbon2js10ACJsNumber3rszERKNS0_9ACJsValueE(%"class.altered_carbon::js::ACJsNumber"*, %"class.altered_carbon::js::ACJsValue"* dereferenceable(16)) unnamed_addr #0 align 2 !dbg !3726 {
  %3 = alloca %"class.std::__1::auto_ptr"*, align 8
  call void @llvm.dbg.declare(metadata %"class.std::__1::auto_ptr"** %3, metadata !3266, metadata !DIExpression()), !dbg !3727
  %4 = alloca %"class.altered_carbon::js::ACJsValue"*, align 8
  call void @llvm.dbg.declare(metadata %"class.altered_carbon::js::ACJsValue"** %4, metadata !3271, metadata !DIExpression()), !dbg !3729
  %5 = alloca %"class.std::__1::auto_ptr"*, align 8
  call void @llvm.dbg.declare(metadata %"class.std::__1::auto_ptr"** %5, metadata !3273, metadata !DIExpression()), !dbg !3730
  %6 = alloca %"class.std::__1::auto_ptr"*, align 8
  call void @llvm.dbg.declare(metadata %"class.std::__1::auto_ptr"** %6, metadata !3279, metadata !DIExpression()), !dbg !3733
  %7 = alloca %"class.std::__1::auto_ptr"*, align 8
  call void @llvm.dbg.declare(metadata %"class.std::__1::auto_ptr"** %7, metadata !3281, metadata !DIExpression()), !dbg !3734
  %8 = alloca %"class.altered_carbon::js::ACJsValue"*, align 8
  call void @llvm.dbg.declare(metadata %"class.altered_carbon::js::ACJsValue"** %8, metadata !3287, metadata !DIExpression()), !dbg !3737
  %9 = alloca %"class.std::__1::auto_ptr"*, align 8
  call void @llvm.dbg.declare(metadata %"class.std::__1::auto_ptr"** %9, metadata !3289, metadata !DIExpression()), !dbg !3738
  %10 = alloca %"class.altered_carbon::js::ACJsValue"*, align 8
  call void @llvm.dbg.declare(metadata %"class.altered_carbon::js::ACJsValue"** %10, metadata !3291, metadata !DIExpression()), !dbg !3739
  %11 = alloca %"class.altered_carbon::js::ACJsNumber"*, align 8
  %12 = alloca %"class.altered_carbon::js::ACJsValue"*, align 8
  %13 = alloca %"class.std::__1::auto_ptr", align 8
  store %"class.altered_carbon::js::ACJsNumber"* %0, %"class.altered_carbon::js::ACJsNumber"** %11, align 8
  call void @llvm.dbg.declare(metadata %"class.altered_carbon::js::ACJsNumber"** %11, metadata !3740, metadata !DIExpression()), !dbg !3741
  store %"class.altered_carbon::js::ACJsValue"* %1, %"class.altered_carbon::js::ACJsValue"** %12, align 8
  call void @llvm.dbg.declare(metadata %"class.altered_carbon::js::ACJsValue"** %12, metadata !3742, metadata !DIExpression()), !dbg !3743
  %14 = load %"class.altered_carbon::js::ACJsNumber"*, %"class.altered_carbon::js::ACJsNumber"** %11, align 8
  %15 = call i8* @_Znwm(i64 40) #7, !dbg !3744
  %16 = bitcast i8* %15 to %"class.altered_carbon::js::ACJsNumber"*, !dbg !3744
  call void @_ZN14altered_carbon2js10ACJsNumberC1ERKS1_(%"class.altered_carbon::js::ACJsNumber"* %16, %"class.altered_carbon::js::ACJsNumber"* dereferenceable(40) %14), !dbg !3744
  %17 = bitcast %"class.altered_carbon::js::ACJsNumber"* %16 to %"class.altered_carbon::js::ACJsValue"*, !dbg !3744
  store %"class.std::__1::auto_ptr"* %13, %"class.std::__1::auto_ptr"** %9, align 8
  store %"class.altered_carbon::js::ACJsValue"* %17, %"class.altered_carbon::js::ACJsValue"** %10, align 8
  %18 = load %"class.std::__1::auto_ptr"*, %"class.std::__1::auto_ptr"** %9, align 8
  %19 = load %"class.altered_carbon::js::ACJsValue"*, %"class.altered_carbon::js::ACJsValue"** %10, align 8, !dbg !3745
  store %"class.std::__1::auto_ptr"* %18, %"class.std::__1::auto_ptr"** %7, align 8
  store %"class.altered_carbon::js::ACJsValue"* %19, %"class.altered_carbon::js::ACJsValue"** %8, align 8
  %20 = load %"class.std::__1::auto_ptr"*, %"class.std::__1::auto_ptr"** %7, align 8
  %21 = getelementptr inbounds %"class.std::__1::auto_ptr", %"class.std::__1::auto_ptr"* %20, i32 0, i32 0, !dbg !3746
  %22 = load %"class.altered_carbon::js::ACJsValue"*, %"class.altered_carbon::js::ACJsValue"** %8, align 8, !dbg !3747
  store %"class.altered_carbon::js::ACJsValue"* %22, %"class.altered_carbon::js::ACJsValue"** %21, align 8, !dbg !3746
  store %"class.std::__1::auto_ptr"* %13, %"class.std::__1::auto_ptr"** %3, align 8
  %23 = load %"class.std::__1::auto_ptr"*, %"class.std::__1::auto_ptr"** %3, align 8
  %24 = getelementptr inbounds %"class.std::__1::auto_ptr", %"class.std::__1::auto_ptr"* %23, i32 0, i32 0, !dbg !3748
  %25 = load %"class.altered_carbon::js::ACJsValue"*, %"class.altered_carbon::js::ACJsValue"** %24, align 8, !dbg !3748
  store %"class.altered_carbon::js::ACJsValue"* %25, %"class.altered_carbon::js::ACJsValue"** %4, align 8, !dbg !3729
  %26 = getelementptr inbounds %"class.std::__1::auto_ptr", %"class.std::__1::auto_ptr"* %23, i32 0, i32 0, !dbg !3749
  store %"class.altered_carbon::js::ACJsValue"* null, %"class.altered_carbon::js::ACJsValue"** %26, align 8, !dbg !3750
  %27 = load %"class.altered_carbon::js::ACJsValue"*, %"class.altered_carbon::js::ACJsValue"** %4, align 8, !dbg !3751
  %28 = bitcast %"class.altered_carbon::js::ACJsValue"* %27 to %"class.altered_carbon::js::ACJsValue"* (%"class.altered_carbon::js::ACJsValue"*, %"class.altered_carbon::js::ACJsValue"*)***, !dbg !3752
  %29 = load %"class.altered_carbon::js::ACJsValue"* (%"class.altered_carbon::js::ACJsValue"*, %"class.altered_carbon::js::ACJsValue"*)**, %"class.altered_carbon::js::ACJsValue"* (%"class.altered_carbon::js::ACJsValue"*, %"class.altered_carbon::js::ACJsValue"*)*** %28, align 8, !dbg !3752
  %30 = getelementptr inbounds %"class.altered_carbon::js::ACJsValue"* (%"class.altered_carbon::js::ACJsValue"*, %"class.altered_carbon::js::ACJsValue"*)*, %"class.altered_carbon::js::ACJsValue"* (%"class.altered_carbon::js::ACJsValue"*, %"class.altered_carbon::js::ACJsValue"*)** %29, i64 32, !dbg !3752
  %31 = load %"class.altered_carbon::js::ACJsValue"* (%"class.altered_carbon::js::ACJsValue"*, %"class.altered_carbon::js::ACJsValue"*)*, %"class.altered_carbon::js::ACJsValue"* (%"class.altered_carbon::js::ACJsValue"*, %"class.altered_carbon::js::ACJsValue"*)** %30, align 8, !dbg !3752
  %32 = load %"class.altered_carbon::js::ACJsValue"*, %"class.altered_carbon::js::ACJsValue"** %12, align 8, !dbg !3753
  %33 = call dereferenceable(16) %"class.altered_carbon::js::ACJsValue"* %31(%"class.altered_carbon::js::ACJsValue"* %27, %"class.altered_carbon::js::ACJsValue"* dereferenceable(16) %32), !dbg !3752
  store %"class.std::__1::auto_ptr"* %13, %"class.std::__1::auto_ptr"** %6, align 8
  %34 = load %"class.std::__1::auto_ptr"*, %"class.std::__1::auto_ptr"** %6, align 8
  store %"class.std::__1::auto_ptr"* %34, %"class.std::__1::auto_ptr"** %5, align 8
  %35 = load %"class.std::__1::auto_ptr"*, %"class.std::__1::auto_ptr"** %5, align 8
  %36 = getelementptr inbounds %"class.std::__1::auto_ptr", %"class.std::__1::auto_ptr"* %35, i32 0, i32 0, !dbg !3754
  %37 = load %"class.altered_carbon::js::ACJsValue"*, %"class.altered_carbon::js::ACJsValue"** %36, align 8, !dbg !3754
  %38 = icmp eq %"class.altered_carbon::js::ACJsValue"* %37, null, !dbg !3755
  br i1 %38, label %44, label %39, !dbg !3755

; <label>:39:                                     ; preds = %2
  %40 = bitcast %"class.altered_carbon::js::ACJsValue"* %37 to void (%"class.altered_carbon::js::ACJsValue"*)***, !dbg !3755
  %41 = load void (%"class.altered_carbon::js::ACJsValue"*)**, void (%"class.altered_carbon::js::ACJsValue"*)*** %40, align 8, !dbg !3755
  %42 = getelementptr inbounds void (%"class.altered_carbon::js::ACJsValue"*)*, void (%"class.altered_carbon::js::ACJsValue"*)** %41, i64 1, !dbg !3755
  %43 = load void (%"class.altered_carbon::js::ACJsValue"*)*, void (%"class.altered_carbon::js::ACJsValue"*)** %42, align 8, !dbg !3755
  call void %43(%"class.altered_carbon::js::ACJsValue"* %37) #8, !dbg !3755
  br label %44, !dbg !3755

; <label>:44:                                     ; preds = %2, %39
  ret %"class.altered_carbon::js::ACJsValue"* %33, !dbg !3756
}

; Function Attrs: noinline nounwind optnone ssp uwtable
define linkonce_odr hidden void @_ZN14altered_carbon2js10ACJsNumberC1ERKS1_(%"class.altered_carbon::js::ACJsNumber"*, %"class.altered_carbon::js::ACJsNumber"* dereferenceable(40)) unnamed_addr #0 align 2 !dbg !3757 {
  %3 = alloca %"class.altered_carbon::js::ACJsNumber"*, align 8
  %4 = alloca %"class.altered_carbon::js::ACJsNumber"*, align 8
  store %"class.altered_carbon::js::ACJsNumber"* %0, %"class.altered_carbon::js::ACJsNumber"** %3, align 8
  call void @llvm.dbg.declare(metadata %"class.altered_carbon::js::ACJsNumber"** %3, metadata !3762, metadata !DIExpression()), !dbg !3763
  store %"class.altered_carbon::js::ACJsNumber"* %1, %"class.altered_carbon::js::ACJsNumber"** %4, align 8
  call void @llvm.dbg.declare(metadata %"class.altered_carbon::js::ACJsNumber"** %4, metadata !3764, metadata !DIExpression()), !dbg !3763
  %5 = load %"class.altered_carbon::js::ACJsNumber"*, %"class.altered_carbon::js::ACJsNumber"** %3, align 8
  %6 = load %"class.altered_carbon::js::ACJsNumber"*, %"class.altered_carbon::js::ACJsNumber"** %4, align 8, !dbg !3765
  call void @_ZN14altered_carbon2js10ACJsNumberC2ERKS1_(%"class.altered_carbon::js::ACJsNumber"* %5, %"class.altered_carbon::js::ACJsNumber"* dereferenceable(40) %6), !dbg !3765
  ret void, !dbg !3765
}

; Function Attrs: noinline nounwind optnone ssp uwtable
define dereferenceable(16) %"class.altered_carbon::js::ACJsValue"* @_ZN14altered_carbon2js10ACJsNumber4arszERKNS0_9ACJsValueE(%"class.altered_carbon::js::ACJsNumber"*, %"class.altered_carbon::js::ACJsValue"* dereferenceable(16)) unnamed_addr #0 align 2 !dbg !3766 {
  %3 = alloca %"class.altered_carbon::js::ACJsNumber"*, align 8
  %4 = alloca %"class.altered_carbon::js::ACJsValue"*, align 8
  %5 = alloca %"class.altered_carbon::js::ACLexNumber", align 8
  store %"class.altered_carbon::js::ACJsNumber"* %0, %"class.altered_carbon::js::ACJsNumber"** %3, align 8
  call void @llvm.dbg.declare(metadata %"class.altered_carbon::js::ACJsNumber"** %3, metadata !3767, metadata !DIExpression()), !dbg !3768
  store %"class.altered_carbon::js::ACJsValue"* %1, %"class.altered_carbon::js::ACJsValue"** %4, align 8
  call void @llvm.dbg.declare(metadata %"class.altered_carbon::js::ACJsValue"** %4, metadata !3769, metadata !DIExpression()), !dbg !3770
  %6 = load %"class.altered_carbon::js::ACJsNumber"*, %"class.altered_carbon::js::ACJsNumber"** %3, align 8
  %7 = bitcast %"class.altered_carbon::js::ACJsNumber"* %6 to %"class.altered_carbon::js::ACJsPrimitive"*, !dbg !3771
  %8 = getelementptr inbounds %"class.altered_carbon::js::ACJsPrimitive", %"class.altered_carbon::js::ACJsPrimitive"* %7, i32 0, i32 1, !dbg !3771
  %9 = load %"class.altered_carbon::js::ACJsValue"*, %"class.altered_carbon::js::ACJsValue"** %4, align 8, !dbg !3772
  %10 = bitcast %"class.altered_carbon::js::ACJsValue"* %9 to %"class.altered_carbon::js::ACJsValue"* (%"class.altered_carbon::js::ACJsValue"*)***, !dbg !3772
  %11 = load %"class.altered_carbon::js::ACJsValue"* (%"class.altered_carbon::js::ACJsValue"*)**, %"class.altered_carbon::js::ACJsValue"* (%"class.altered_carbon::js::ACJsValue"*)*** %10, align 8, !dbg !3772
  %12 = getelementptr inbounds %"class.altered_carbon::js::ACJsValue"* (%"class.altered_carbon::js::ACJsValue"*)*, %"class.altered_carbon::js::ACJsValue"* (%"class.altered_carbon::js::ACJsValue"*)** %11, i64 42, !dbg !3772
  %13 = load %"class.altered_carbon::js::ACJsValue"* (%"class.altered_carbon::js::ACJsValue"*)*, %"class.altered_carbon::js::ACJsValue"* (%"class.altered_carbon::js::ACJsValue"*)** %12, align 8, !dbg !3772
  %14 = call %"class.altered_carbon::js::ACJsValue"* %13(%"class.altered_carbon::js::ACJsValue"* %9), !dbg !3772
  %15 = bitcast %"class.altered_carbon::js::ACJsValue"* %14 to %"class.altered_carbon::js::ACJsNumber"*, !dbg !3772
  %16 = bitcast %"class.altered_carbon::js::ACJsNumber"* %15 to %"class.altered_carbon::js::ACJsPrimitive"*, !dbg !3772
  %17 = getelementptr inbounds %"class.altered_carbon::js::ACJsPrimitive", %"class.altered_carbon::js::ACJsPrimitive"* %16, i32 0, i32 1, !dbg !3772
  call void @_ZNK14altered_carbon2js11ACLexNumber3rszERKS1_(%"class.altered_carbon::js::ACLexNumber"* sret %5, %"class.altered_carbon::js::ACLexNumber"* %8, %"class.altered_carbon::js::ACLexNumber"* dereferenceable(24) %17), !dbg !3773
  call void @_ZN14altered_carbon2js11ACLexNumberD1Ev(%"class.altered_carbon::js::ACLexNumber"* %5) #8, !dbg !3771
  %18 = bitcast %"class.altered_carbon::js::ACJsNumber"* %6 to %"class.altered_carbon::js::ACJsValue"*, !dbg !3774
  ret %"class.altered_carbon::js::ACJsValue"* %18, !dbg !3775
}

declare void @_ZNK14altered_carbon2js11ACLexNumber3rszERKS1_(%"class.altered_carbon::js::ACLexNumber"* sret, %"class.altered_carbon::js::ACLexNumber"*, %"class.altered_carbon::js::ACLexNumber"* dereferenceable(24)) #2

; Function Attrs: noinline nounwind optnone ssp uwtable
define zeroext i1 @_ZNK14altered_carbon2js10ACJsNumber4eqvtERKNS0_9ACJsValueE(%"class.altered_carbon::js::ACJsNumber"*, %"class.altered_carbon::js::ACJsValue"* dereferenceable(16)) unnamed_addr #0 align 2 !dbg !3776 {
  %3 = alloca %"class.altered_carbon::js::ACJsNumber"*, align 8
  %4 = alloca %"class.altered_carbon::js::ACJsValue"*, align 8
  store %"class.altered_carbon::js::ACJsNumber"* %0, %"class.altered_carbon::js::ACJsNumber"** %3, align 8
  call void @llvm.dbg.declare(metadata %"class.altered_carbon::js::ACJsNumber"** %3, metadata !3777, metadata !DIExpression()), !dbg !3778
  store %"class.altered_carbon::js::ACJsValue"* %1, %"class.altered_carbon::js::ACJsValue"** %4, align 8
  call void @llvm.dbg.declare(metadata %"class.altered_carbon::js::ACJsValue"** %4, metadata !3779, metadata !DIExpression()), !dbg !3780
  %5 = load %"class.altered_carbon::js::ACJsNumber"*, %"class.altered_carbon::js::ACJsNumber"** %3, align 8
  %6 = load %"class.altered_carbon::js::ACJsValue"*, %"class.altered_carbon::js::ACJsValue"** %4, align 8, !dbg !3781
  %7 = call zeroext i1 @_ZNK14altered_carbon2js9ACJsValue8isNumberEv(%"class.altered_carbon::js::ACJsValue"* %6), !dbg !3782
  br i1 %7, label %8, label %21, !dbg !3783

; <label>:8:                                      ; preds = %2
  %9 = bitcast %"class.altered_carbon::js::ACJsNumber"* %5 to %"class.altered_carbon::js::ACJsPrimitive"*, !dbg !3784
  %10 = getelementptr inbounds %"class.altered_carbon::js::ACJsPrimitive", %"class.altered_carbon::js::ACJsPrimitive"* %9, i32 0, i32 1, !dbg !3784
  %11 = load %"class.altered_carbon::js::ACJsValue"*, %"class.altered_carbon::js::ACJsValue"** %4, align 8, !dbg !3785
  %12 = bitcast %"class.altered_carbon::js::ACJsValue"* %11 to %"class.altered_carbon::js::ACJsValue"* (%"class.altered_carbon::js::ACJsValue"*)***, !dbg !3785
  %13 = load %"class.altered_carbon::js::ACJsValue"* (%"class.altered_carbon::js::ACJsValue"*)**, %"class.altered_carbon::js::ACJsValue"* (%"class.altered_carbon::js::ACJsValue"*)*** %12, align 8, !dbg !3785
  %14 = getelementptr inbounds %"class.altered_carbon::js::ACJsValue"* (%"class.altered_carbon::js::ACJsValue"*)*, %"class.altered_carbon::js::ACJsValue"* (%"class.altered_carbon::js::ACJsValue"*)** %13, i64 42, !dbg !3785
  %15 = load %"class.altered_carbon::js::ACJsValue"* (%"class.altered_carbon::js::ACJsValue"*)*, %"class.altered_carbon::js::ACJsValue"* (%"class.altered_carbon::js::ACJsValue"*)** %14, align 8, !dbg !3785
  %16 = call %"class.altered_carbon::js::ACJsValue"* %15(%"class.altered_carbon::js::ACJsValue"* %11), !dbg !3785
  %17 = bitcast %"class.altered_carbon::js::ACJsValue"* %16 to %"class.altered_carbon::js::ACJsNumber"*, !dbg !3785
  %18 = bitcast %"class.altered_carbon::js::ACJsNumber"* %17 to %"class.altered_carbon::js::ACJsPrimitive"*, !dbg !3785
  %19 = getelementptr inbounds %"class.altered_carbon::js::ACJsPrimitive", %"class.altered_carbon::js::ACJsPrimitive"* %18, i32 0, i32 1, !dbg !3785
  %20 = call zeroext i1 @_ZNK14altered_carbon2js11ACLexNumbereqERKS1_(%"class.altered_carbon::js::ACLexNumber"* %10, %"class.altered_carbon::js::ACLexNumber"* dereferenceable(24) %19), !dbg !3786
  br label %21

; <label>:21:                                     ; preds = %8, %2
  %22 = phi i1 [ false, %2 ], [ %20, %8 ]
  ret i1 %22, !dbg !3787
}

; Function Attrs: noinline nounwind optnone ssp uwtable
define linkonce_odr hidden zeroext i1 @_ZNK14altered_carbon2js9ACJsValue8isNumberEv(%"class.altered_carbon::js::ACJsValue"*) #0 align 2 !dbg !3788 {
  %2 = alloca %"class.altered_carbon::js::ACJsValue"*, align 8
  store %"class.altered_carbon::js::ACJsValue"* %0, %"class.altered_carbon::js::ACJsValue"** %2, align 8
  call void @llvm.dbg.declare(metadata %"class.altered_carbon::js::ACJsValue"** %2, metadata !3789, metadata !DIExpression()), !dbg !3790
  %3 = load %"class.altered_carbon::js::ACJsValue"*, %"class.altered_carbon::js::ACJsValue"** %2, align 8
  %4 = getelementptr inbounds %"class.altered_carbon::js::ACJsValue", %"class.altered_carbon::js::ACJsValue"* %3, i32 0, i32 1, !dbg !3791
  %5 = load i32, i32* %4, align 8, !dbg !3791
  %6 = icmp eq i32 %5, 2, !dbg !3792
  ret i1 %6, !dbg !3793
}

; Function Attrs: noinline nounwind optnone ssp uwtable
define dereferenceable(16) %"class.altered_carbon::js::ACJsValue"* @_ZN14altered_carbon2js10ACJsNumberaSERKNS0_9ACJsValueE(%"class.altered_carbon::js::ACJsNumber"*, %"class.altered_carbon::js::ACJsValue"* dereferenceable(16)) unnamed_addr #0 align 2 !dbg !3794 {
  %3 = alloca %"class.altered_carbon::js::ACJsNumber"*, align 8
  %4 = alloca %"class.altered_carbon::js::ACJsValue"*, align 8
  store %"class.altered_carbon::js::ACJsNumber"* %0, %"class.altered_carbon::js::ACJsNumber"** %3, align 8
  call void @llvm.dbg.declare(metadata %"class.altered_carbon::js::ACJsNumber"** %3, metadata !3795, metadata !DIExpression()), !dbg !3796
  store %"class.altered_carbon::js::ACJsValue"* %1, %"class.altered_carbon::js::ACJsValue"** %4, align 8
  call void @llvm.dbg.declare(metadata %"class.altered_carbon::js::ACJsValue"** %4, metadata !3797, metadata !DIExpression()), !dbg !3798
  %5 = load %"class.altered_carbon::js::ACJsNumber"*, %"class.altered_carbon::js::ACJsNumber"** %3, align 8
  %6 = load %"class.altered_carbon::js::ACJsValue"*, %"class.altered_carbon::js::ACJsValue"** %4, align 8, !dbg !3799
  %7 = bitcast %"class.altered_carbon::js::ACJsValue"* %6 to %"class.altered_carbon::js::ACJsValue"* (%"class.altered_carbon::js::ACJsValue"*)***, !dbg !3799
  %8 = load %"class.altered_carbon::js::ACJsValue"* (%"class.altered_carbon::js::ACJsValue"*)**, %"class.altered_carbon::js::ACJsValue"* (%"class.altered_carbon::js::ACJsValue"*)*** %7, align 8, !dbg !3799
  %9 = getelementptr inbounds %"class.altered_carbon::js::ACJsValue"* (%"class.altered_carbon::js::ACJsValue"*)*, %"class.altered_carbon::js::ACJsValue"* (%"class.altered_carbon::js::ACJsValue"*)** %8, i64 42, !dbg !3799
  %10 = load %"class.altered_carbon::js::ACJsValue"* (%"class.altered_carbon::js::ACJsValue"*)*, %"class.altered_carbon::js::ACJsValue"* (%"class.altered_carbon::js::ACJsValue"*)** %9, align 8, !dbg !3799
  %11 = call %"class.altered_carbon::js::ACJsValue"* %10(%"class.altered_carbon::js::ACJsValue"* %6), !dbg !3799
  %12 = bitcast %"class.altered_carbon::js::ACJsValue"* %11 to %"class.altered_carbon::js::ACJsNumber"*, !dbg !3799
  %13 = bitcast %"class.altered_carbon::js::ACJsNumber"* %12 to %"class.altered_carbon::js::ACJsPrimitive"*, !dbg !3799
  %14 = getelementptr inbounds %"class.altered_carbon::js::ACJsPrimitive", %"class.altered_carbon::js::ACJsPrimitive"* %13, i32 0, i32 1, !dbg !3799
  %15 = bitcast %"class.altered_carbon::js::ACJsNumber"* %5 to %"class.altered_carbon::js::ACJsPrimitive"*, !dbg !3800
  %16 = getelementptr inbounds %"class.altered_carbon::js::ACJsPrimitive", %"class.altered_carbon::js::ACJsPrimitive"* %15, i32 0, i32 1, !dbg !3800
  %17 = call dereferenceable(24) %"class.altered_carbon::js::ACLexNumber"* @_ZN14altered_carbon2js11ACLexNumberaSERKS1_(%"class.altered_carbon::js::ACLexNumber"* %16, %"class.altered_carbon::js::ACLexNumber"* dereferenceable(24) %14), !dbg !3801
  %18 = bitcast %"class.altered_carbon::js::ACJsNumber"* %5 to %"class.altered_carbon::js::ACJsValue"*, !dbg !3802
  ret %"class.altered_carbon::js::ACJsValue"* %18, !dbg !3803
}

; Function Attrs: noinline nounwind optnone ssp uwtable
define dereferenceable(16) %"class.altered_carbon::js::ACJsValue"* @_ZN14altered_carbon2js10ACJsNumberaSEb(%"class.altered_carbon::js::ACJsNumber"*, i1 zeroext) unnamed_addr #0 align 2 !dbg !3804 {
  %3 = alloca %"class.altered_carbon::js::ACJsNumber"*, align 8
  %4 = alloca i8, align 1
  store %"class.altered_carbon::js::ACJsNumber"* %0, %"class.altered_carbon::js::ACJsNumber"** %3, align 8
  call void @llvm.dbg.declare(metadata %"class.altered_carbon::js::ACJsNumber"** %3, metadata !3805, metadata !DIExpression()), !dbg !3806
  %5 = zext i1 %1 to i8
  store i8 %5, i8* %4, align 1
  call void @llvm.dbg.declare(metadata i8* %4, metadata !3807, metadata !DIExpression()), !dbg !3808
  %6 = load %"class.altered_carbon::js::ACJsNumber"*, %"class.altered_carbon::js::ACJsNumber"** %3, align 8
  %7 = load i8, i8* %4, align 1, !dbg !3809
  %8 = trunc i8 %7 to i1, !dbg !3809
  %9 = zext i1 %8 to i64, !dbg !3809
  %10 = select i1 %8, i32 1, i32 0, !dbg !3809
  %11 = sext i32 %10 to i64, !dbg !3810
  %12 = bitcast %"class.altered_carbon::js::ACJsNumber"* %6 to %"class.altered_carbon::js::ACJsPrimitive"*, !dbg !3811
  %13 = getelementptr inbounds %"class.altered_carbon::js::ACJsPrimitive", %"class.altered_carbon::js::ACJsPrimitive"* %12, i32 0, i32 1, !dbg !3811
  %14 = call dereferenceable(24) %"class.altered_carbon::js::ACLexNumber"* @_ZN14altered_carbon2js11ACLexNumberaSEx(%"class.altered_carbon::js::ACLexNumber"* %13, i64 %11), !dbg !3812
  %15 = bitcast %"class.altered_carbon::js::ACJsNumber"* %6 to %"class.altered_carbon::js::ACJsValue"*, !dbg !3813
  ret %"class.altered_carbon::js::ACJsValue"* %15, !dbg !3814
}

; Function Attrs: noinline nounwind optnone ssp uwtable
define %"class.altered_carbon::js::ACJsValue"* @_ZN14altered_carbon2js9makeJsIntEx(i64) #0 !dbg !3815 {
  %2 = alloca %"class.std::__1::auto_ptr"*, align 8
  call void @llvm.dbg.declare(metadata %"class.std::__1::auto_ptr"** %2, metadata !3273, metadata !DIExpression()), !dbg !3818
  %3 = alloca %"class.std::__1::auto_ptr"*, align 8
  call void @llvm.dbg.declare(metadata %"class.std::__1::auto_ptr"** %3, metadata !3279, metadata !DIExpression()), !dbg !3821
  %4 = alloca %"class.std::__1::auto_ptr"*, align 8
  call void @llvm.dbg.declare(metadata %"class.std::__1::auto_ptr"** %4, metadata !3266, metadata !DIExpression()), !dbg !3822
  %5 = alloca %"class.altered_carbon::js::ACJsValue"*, align 8
  call void @llvm.dbg.declare(metadata %"class.altered_carbon::js::ACJsValue"** %5, metadata !3271, metadata !DIExpression()), !dbg !3824
  %6 = alloca i64, align 8
  %7 = alloca %"class.altered_carbon::js::ACLexNumber", align 8
  %8 = alloca %"class.std::__1::auto_ptr", align 8
  store i64 %0, i64* %6, align 8
  call void @llvm.dbg.declare(metadata i64* %6, metadata !3825, metadata !DIExpression()), !dbg !3826
  call void @llvm.dbg.declare(metadata %"class.altered_carbon::js::ACLexNumber"* %7, metadata !3827, metadata !DIExpression()), !dbg !3828
  %9 = load i64, i64* %6, align 8, !dbg !3829
  call void @_ZN14altered_carbon2js11ACLexNumberC1Ex(%"class.altered_carbon::js::ACLexNumber"* %7, i64 %9), !dbg !3828
  %10 = bitcast %"class.altered_carbon::js::ACLexNumber"* %7 to i8*, !dbg !3830
  call void @_ZN14altered_carbon2js15makeJsPrimitiveEiPKv(%"class.std::__1::auto_ptr"* sret %8, i32 2, i8* %10), !dbg !3831
  store %"class.std::__1::auto_ptr"* %8, %"class.std::__1::auto_ptr"** %4, align 8
  %11 = load %"class.std::__1::auto_ptr"*, %"class.std::__1::auto_ptr"** %4, align 8
  %12 = getelementptr inbounds %"class.std::__1::auto_ptr", %"class.std::__1::auto_ptr"* %11, i32 0, i32 0, !dbg !3832
  %13 = load %"class.altered_carbon::js::ACJsValue"*, %"class.altered_carbon::js::ACJsValue"** %12, align 8, !dbg !3832
  store %"class.altered_carbon::js::ACJsValue"* %13, %"class.altered_carbon::js::ACJsValue"** %5, align 8, !dbg !3824
  %14 = getelementptr inbounds %"class.std::__1::auto_ptr", %"class.std::__1::auto_ptr"* %11, i32 0, i32 0, !dbg !3833
  store %"class.altered_carbon::js::ACJsValue"* null, %"class.altered_carbon::js::ACJsValue"** %14, align 8, !dbg !3834
  %15 = load %"class.altered_carbon::js::ACJsValue"*, %"class.altered_carbon::js::ACJsValue"** %5, align 8, !dbg !3835
  store %"class.std::__1::auto_ptr"* %8, %"class.std::__1::auto_ptr"** %3, align 8
  %16 = load %"class.std::__1::auto_ptr"*, %"class.std::__1::auto_ptr"** %3, align 8
  store %"class.std::__1::auto_ptr"* %16, %"class.std::__1::auto_ptr"** %2, align 8
  %17 = load %"class.std::__1::auto_ptr"*, %"class.std::__1::auto_ptr"** %2, align 8
  %18 = getelementptr inbounds %"class.std::__1::auto_ptr", %"class.std::__1::auto_ptr"* %17, i32 0, i32 0, !dbg !3836
  %19 = load %"class.altered_carbon::js::ACJsValue"*, %"class.altered_carbon::js::ACJsValue"** %18, align 8, !dbg !3836
  %20 = icmp eq %"class.altered_carbon::js::ACJsValue"* %19, null, !dbg !3837
  br i1 %20, label %26, label %21, !dbg !3837

; <label>:21:                                     ; preds = %1
  %22 = bitcast %"class.altered_carbon::js::ACJsValue"* %19 to void (%"class.altered_carbon::js::ACJsValue"*)***, !dbg !3837
  %23 = load void (%"class.altered_carbon::js::ACJsValue"*)**, void (%"class.altered_carbon::js::ACJsValue"*)*** %22, align 8, !dbg !3837
  %24 = getelementptr inbounds void (%"class.altered_carbon::js::ACJsValue"*)*, void (%"class.altered_carbon::js::ACJsValue"*)** %23, i64 1, !dbg !3837
  %25 = load void (%"class.altered_carbon::js::ACJsValue"*)*, void (%"class.altered_carbon::js::ACJsValue"*)** %24, align 8, !dbg !3837
  call void %25(%"class.altered_carbon::js::ACJsValue"* %19) #8, !dbg !3837
  br label %26, !dbg !3837

; <label>:26:                                     ; preds = %1, %21
  call void @_ZN14altered_carbon2js11ACLexNumberD1Ev(%"class.altered_carbon::js::ACLexNumber"* %7) #8, !dbg !3838
  ret %"class.altered_carbon::js::ACJsValue"* %15, !dbg !3838
}

declare void @_ZN14altered_carbon2js11ACLexNumberC1Ex(%"class.altered_carbon::js::ACLexNumber"*, i64) unnamed_addr #2

declare void @_ZN14altered_carbon2js15makeJsPrimitiveEiPKv(%"class.std::__1::auto_ptr"* sret, i32, i8*) #2

; Function Attrs: noinline nounwind optnone ssp uwtable
define %"class.altered_carbon::js::ACJsValue"* @_ZN14altered_carbon2js11makeJsFloatEd(double) #0 !dbg !3839 {
  %2 = alloca %"class.std::__1::auto_ptr"*, align 8
  call void @llvm.dbg.declare(metadata %"class.std::__1::auto_ptr"** %2, metadata !3273, metadata !DIExpression()), !dbg !3842
  %3 = alloca %"class.std::__1::auto_ptr"*, align 8
  call void @llvm.dbg.declare(metadata %"class.std::__1::auto_ptr"** %3, metadata !3279, metadata !DIExpression()), !dbg !3845
  %4 = alloca %"class.std::__1::auto_ptr"*, align 8
  call void @llvm.dbg.declare(metadata %"class.std::__1::auto_ptr"** %4, metadata !3266, metadata !DIExpression()), !dbg !3846
  %5 = alloca %"class.altered_carbon::js::ACJsValue"*, align 8
  call void @llvm.dbg.declare(metadata %"class.altered_carbon::js::ACJsValue"** %5, metadata !3271, metadata !DIExpression()), !dbg !3848
  %6 = alloca double, align 8
  %7 = alloca %"class.altered_carbon::js::ACLexNumber", align 8
  %8 = alloca %"class.std::__1::auto_ptr", align 8
  store double %0, double* %6, align 8
  call void @llvm.dbg.declare(metadata double* %6, metadata !3849, metadata !DIExpression()), !dbg !3850
  call void @llvm.dbg.declare(metadata %"class.altered_carbon::js::ACLexNumber"* %7, metadata !3851, metadata !DIExpression()), !dbg !3852
  %9 = load double, double* %6, align 8, !dbg !3853
  call void @_ZN14altered_carbon2js11ACLexNumberC1Ed(%"class.altered_carbon::js::ACLexNumber"* %7, double %9), !dbg !3852
  %10 = bitcast %"class.altered_carbon::js::ACLexNumber"* %7 to i8*, !dbg !3854
  call void @_ZN14altered_carbon2js15makeJsPrimitiveEiPKv(%"class.std::__1::auto_ptr"* sret %8, i32 2, i8* %10), !dbg !3855
  store %"class.std::__1::auto_ptr"* %8, %"class.std::__1::auto_ptr"** %4, align 8
  %11 = load %"class.std::__1::auto_ptr"*, %"class.std::__1::auto_ptr"** %4, align 8
  %12 = getelementptr inbounds %"class.std::__1::auto_ptr", %"class.std::__1::auto_ptr"* %11, i32 0, i32 0, !dbg !3856
  %13 = load %"class.altered_carbon::js::ACJsValue"*, %"class.altered_carbon::js::ACJsValue"** %12, align 8, !dbg !3856
  store %"class.altered_carbon::js::ACJsValue"* %13, %"class.altered_carbon::js::ACJsValue"** %5, align 8, !dbg !3848
  %14 = getelementptr inbounds %"class.std::__1::auto_ptr", %"class.std::__1::auto_ptr"* %11, i32 0, i32 0, !dbg !3857
  store %"class.altered_carbon::js::ACJsValue"* null, %"class.altered_carbon::js::ACJsValue"** %14, align 8, !dbg !3858
  %15 = load %"class.altered_carbon::js::ACJsValue"*, %"class.altered_carbon::js::ACJsValue"** %5, align 8, !dbg !3859
  store %"class.std::__1::auto_ptr"* %8, %"class.std::__1::auto_ptr"** %3, align 8
  %16 = load %"class.std::__1::auto_ptr"*, %"class.std::__1::auto_ptr"** %3, align 8
  store %"class.std::__1::auto_ptr"* %16, %"class.std::__1::auto_ptr"** %2, align 8
  %17 = load %"class.std::__1::auto_ptr"*, %"class.std::__1::auto_ptr"** %2, align 8
  %18 = getelementptr inbounds %"class.std::__1::auto_ptr", %"class.std::__1::auto_ptr"* %17, i32 0, i32 0, !dbg !3860
  %19 = load %"class.altered_carbon::js::ACJsValue"*, %"class.altered_carbon::js::ACJsValue"** %18, align 8, !dbg !3860
  %20 = icmp eq %"class.altered_carbon::js::ACJsValue"* %19, null, !dbg !3861
  br i1 %20, label %26, label %21, !dbg !3861

; <label>:21:                                     ; preds = %1
  %22 = bitcast %"class.altered_carbon::js::ACJsValue"* %19 to void (%"class.altered_carbon::js::ACJsValue"*)***, !dbg !3861
  %23 = load void (%"class.altered_carbon::js::ACJsValue"*)**, void (%"class.altered_carbon::js::ACJsValue"*)*** %22, align 8, !dbg !3861
  %24 = getelementptr inbounds void (%"class.altered_carbon::js::ACJsValue"*)*, void (%"class.altered_carbon::js::ACJsValue"*)** %23, i64 1, !dbg !3861
  %25 = load void (%"class.altered_carbon::js::ACJsValue"*)*, void (%"class.altered_carbon::js::ACJsValue"*)** %24, align 8, !dbg !3861
  call void %25(%"class.altered_carbon::js::ACJsValue"* %19) #8, !dbg !3861
  br label %26, !dbg !3861

; <label>:26:                                     ; preds = %1, %21
  call void @_ZN14altered_carbon2js11ACLexNumberD1Ev(%"class.altered_carbon::js::ACLexNumber"* %7) #8, !dbg !3862
  ret %"class.altered_carbon::js::ACJsValue"* %15, !dbg !3862
}

declare void @_ZN14altered_carbon2js11ACLexNumberC1Ed(%"class.altered_carbon::js::ACLexNumber"*, double) unnamed_addr #2

; Function Attrs: noinline nounwind optnone ssp uwtable
define linkonce_odr hidden void @_ZN14altered_carbon2js10ACJsNumberD1Ev(%"class.altered_carbon::js::ACJsNumber"*) unnamed_addr #0 align 2 !dbg !3863 {
  %2 = alloca %"class.altered_carbon::js::ACJsNumber"*, align 8
  store %"class.altered_carbon::js::ACJsNumber"* %0, %"class.altered_carbon::js::ACJsNumber"** %2, align 8
  call void @llvm.dbg.declare(metadata %"class.altered_carbon::js::ACJsNumber"** %2, metadata !3864, metadata !DIExpression()), !dbg !3865
  %3 = load %"class.altered_carbon::js::ACJsNumber"*, %"class.altered_carbon::js::ACJsNumber"** %2, align 8
  call void @_ZN14altered_carbon2js10ACJsNumberD2Ev(%"class.altered_carbon::js::ACJsNumber"* %3) #8, !dbg !3866
  ret void, !dbg !3867
}

; Function Attrs: noinline nounwind optnone ssp uwtable
define linkonce_odr hidden void @_ZN14altered_carbon2js10ACJsNumberD0Ev(%"class.altered_carbon::js::ACJsNumber"*) unnamed_addr #0 align 2 !dbg !3868 {
  %2 = alloca %"class.altered_carbon::js::ACJsNumber"*, align 8
  store %"class.altered_carbon::js::ACJsNumber"* %0, %"class.altered_carbon::js::ACJsNumber"** %2, align 8
  call void @llvm.dbg.declare(metadata %"class.altered_carbon::js::ACJsNumber"** %2, metadata !3869, metadata !DIExpression()), !dbg !3870
  %3 = load %"class.altered_carbon::js::ACJsNumber"*, %"class.altered_carbon::js::ACJsNumber"** %2, align 8
  call void @_ZN14altered_carbon2js10ACJsNumberD1Ev(%"class.altered_carbon::js::ACJsNumber"* %3) #8, !dbg !3871
  %4 = bitcast %"class.altered_carbon::js::ACJsNumber"* %3 to i8*, !dbg !3871
  call void @_ZdlPv(i8* %4) #10, !dbg !3871
  ret void, !dbg !3872
}

; Function Attrs: noinline nounwind optnone ssp uwtable
define linkonce_odr hidden zeroext i1 @_ZNK14altered_carbon2js10ACJsNumber5isNaNEv(%"class.altered_carbon::js::ACJsNumber"*) unnamed_addr #0 align 2 !dbg !3873 {
  %2 = alloca %"class.altered_carbon::js::ACJsNumber"*, align 8
  store %"class.altered_carbon::js::ACJsNumber"* %0, %"class.altered_carbon::js::ACJsNumber"** %2, align 8
  call void @llvm.dbg.declare(metadata %"class.altered_carbon::js::ACJsNumber"** %2, metadata !3874, metadata !DIExpression()), !dbg !3875
  %3 = load %"class.altered_carbon::js::ACJsNumber"*, %"class.altered_carbon::js::ACJsNumber"** %2, align 8
  %4 = bitcast %"class.altered_carbon::js::ACJsNumber"* %3 to %"class.altered_carbon::js::ACJsPrimitive"*, !dbg !3876
  %5 = getelementptr inbounds %"class.altered_carbon::js::ACJsPrimitive", %"class.altered_carbon::js::ACJsPrimitive"* %4, i32 0, i32 1, !dbg !3876
  %6 = call zeroext i1 @_ZNK14altered_carbon2js11ACLexNumber5isNaNEv(%"class.altered_carbon::js::ACLexNumber"* %5), !dbg !3877
  ret i1 %6, !dbg !3878
}

; Function Attrs: noinline nounwind optnone ssp uwtable
define linkonce_odr hidden zeroext i1 @_ZNK14altered_carbon2js13ACJsPrimitiveINS0_11ACLexNumberEE10isInfiniteEv(%"class.altered_carbon::js::ACJsPrimitive"*) unnamed_addr #0 align 2 !dbg !3879 {
  %2 = alloca %"class.altered_carbon::js::ACJsPrimitive"*, align 8
  store %"class.altered_carbon::js::ACJsPrimitive"* %0, %"class.altered_carbon::js::ACJsPrimitive"** %2, align 8
  call void @llvm.dbg.declare(metadata %"class.altered_carbon::js::ACJsPrimitive"** %2, metadata !3880, metadata !DIExpression()), !dbg !3882
  %3 = load %"class.altered_carbon::js::ACJsPrimitive"*, %"class.altered_carbon::js::ACJsPrimitive"** %2, align 8
  ret i1 false, !dbg !3883
}

declare zeroext i1 @_ZNK14altered_carbon2js9ACJsValue5neqvtERKS1_(%"class.altered_carbon::js::ACJsValue"*, %"class.altered_carbon::js::ACJsValue"* dereferenceable(16)) unnamed_addr #2

declare dereferenceable(16) %"class.altered_carbon::js::ACJsValue"* @_ZN14altered_carbon2js9ACJsValueppEv(%"class.altered_carbon::js::ACJsValue"*) unnamed_addr #2

declare dereferenceable(16) %"class.altered_carbon::js::ACJsValue"* @_ZN14altered_carbon2js9ACJsValuemmEv(%"class.altered_carbon::js::ACJsValue"*) unnamed_addr #2

declare void @_ZN14altered_carbon2js9ACJsValueppEi(%"class.altered_carbon::js::ACJsValue"* sret, %"class.altered_carbon::js::ACJsValue"*, i32) unnamed_addr #2

declare void @_ZN14altered_carbon2js9ACJsValuemmEi(%"class.altered_carbon::js::ACJsValue"* sret, %"class.altered_carbon::js::ACJsValue"*, i32) unnamed_addr #2

; Function Attrs: noinline nounwind optnone ssp uwtable
define linkonce_odr hidden zeroext i1 @_ZNK14altered_carbon2js10ACJsNumber9asBooleanEv(%"class.altered_carbon::js::ACJsNumber"*) unnamed_addr #0 align 2 !dbg !3884 {
  %2 = alloca double, align 8
  call void @llvm.dbg.declare(metadata double* %2, metadata !3885, metadata !DIExpression()), !dbg !3887
  %3 = alloca %"class.altered_carbon::js::ACJsNumber"*, align 8
  store %"class.altered_carbon::js::ACJsNumber"* %0, %"class.altered_carbon::js::ACJsNumber"** %3, align 8
  call void @llvm.dbg.declare(metadata %"class.altered_carbon::js::ACJsNumber"** %3, metadata !3889, metadata !DIExpression()), !dbg !3890
  %4 = load %"class.altered_carbon::js::ACJsNumber"*, %"class.altered_carbon::js::ACJsNumber"** %3, align 8
  %5 = bitcast %"class.altered_carbon::js::ACJsNumber"* %4 to %"class.altered_carbon::js::ACJsPrimitive"*, !dbg !3891
  %6 = getelementptr inbounds %"class.altered_carbon::js::ACJsPrimitive", %"class.altered_carbon::js::ACJsPrimitive"* %5, i32 0, i32 1, !dbg !3891
  %7 = call zeroext i1 @_ZNK14altered_carbon2js11ACLexNumber5isNaNEv(%"class.altered_carbon::js::ACLexNumber"* %6), !dbg !3892
  br i1 %7, label %15, label %8, !dbg !3893

; <label>:8:                                      ; preds = %1
  %9 = bitcast %"class.altered_carbon::js::ACJsNumber"* %4 to %"class.altered_carbon::js::ACJsPrimitive"*, !dbg !3894
  %10 = getelementptr inbounds %"class.altered_carbon::js::ACJsPrimitive", %"class.altered_carbon::js::ACJsPrimitive"* %9, i32 0, i32 1, !dbg !3894
  %11 = call double @_ZNK14altered_carbon2js11ACLexNumber8getFloatEv(%"class.altered_carbon::js::ACLexNumber"* %10), !dbg !3895
  store double %11, double* %2, align 8
  %12 = load double, double* %2, align 8, !dbg !3896
  %13 = call double @fabs(double %12) #9, !dbg !3897
  %14 = fcmp ogt double %13, 0.000000e+00, !dbg !3898
  br label %15

; <label>:15:                                     ; preds = %8, %1
  %16 = phi i1 [ false, %1 ], [ %14, %8 ]
  ret i1 %16, !dbg !3899
}

; Function Attrs: noinline nounwind optnone ssp uwtable
define linkonce_odr hidden %"class.altered_carbon::js::ACJsValue"* @_ZNK14altered_carbon2js10ACJsNumber8asNumberEv(%"class.altered_carbon::js::ACJsNumber"*) unnamed_addr #0 align 2 !dbg !3900 {
  %2 = alloca %"class.altered_carbon::js::ACJsNumber"*, align 8
  store %"class.altered_carbon::js::ACJsNumber"* %0, %"class.altered_carbon::js::ACJsNumber"** %2, align 8
  call void @llvm.dbg.declare(metadata %"class.altered_carbon::js::ACJsNumber"** %2, metadata !3901, metadata !DIExpression()), !dbg !3902
  %3 = load %"class.altered_carbon::js::ACJsNumber"*, %"class.altered_carbon::js::ACJsNumber"** %2, align 8
  %4 = bitcast %"class.altered_carbon::js::ACJsNumber"* %3 to %"class.altered_carbon::js::ACJsValue"*, !dbg !3903
  ret %"class.altered_carbon::js::ACJsValue"* %4, !dbg !3904
}

; Function Attrs: noinline nounwind optnone ssp uwtable
define linkonce_odr hidden %"class.altered_carbon::js::ACJsValue"* @_ZNK14altered_carbon2js13ACJsPrimitiveINS0_11ACLexNumberEE8asRegExpEv(%"class.altered_carbon::js::ACJsPrimitive"*) unnamed_addr #0 align 2 !dbg !3905 {
  %2 = alloca %"class.std::__1::auto_ptr"*, align 8
  call void @llvm.dbg.declare(metadata %"class.std::__1::auto_ptr"** %2, metadata !3266, metadata !DIExpression()), !dbg !3906
  %3 = alloca %"class.altered_carbon::js::ACJsValue"*, align 8
  call void @llvm.dbg.declare(metadata %"class.altered_carbon::js::ACJsValue"** %3, metadata !3271, metadata !DIExpression()), !dbg !3908
  %4 = alloca %"class.std::__1::auto_ptr"*, align 8
  call void @llvm.dbg.declare(metadata %"class.std::__1::auto_ptr"** %4, metadata !3273, metadata !DIExpression()), !dbg !3909
  %5 = alloca %"class.std::__1::auto_ptr"*, align 8
  call void @llvm.dbg.declare(metadata %"class.std::__1::auto_ptr"** %5, metadata !3279, metadata !DIExpression()), !dbg !3912
  %6 = alloca %"class.std::__1::auto_ptr"*, align 8
  call void @llvm.dbg.declare(metadata %"class.std::__1::auto_ptr"** %6, metadata !3281, metadata !DIExpression()), !dbg !3913
  %7 = alloca %"class.altered_carbon::js::ACJsValue"*, align 8
  call void @llvm.dbg.declare(metadata %"class.altered_carbon::js::ACJsValue"** %7, metadata !3287, metadata !DIExpression()), !dbg !3916
  %8 = alloca %"class.std::__1::auto_ptr"*, align 8
  call void @llvm.dbg.declare(metadata %"class.std::__1::auto_ptr"** %8, metadata !3289, metadata !DIExpression()), !dbg !3917
  %9 = alloca %"class.altered_carbon::js::ACJsValue"*, align 8
  call void @llvm.dbg.declare(metadata %"class.altered_carbon::js::ACJsValue"** %9, metadata !3291, metadata !DIExpression()), !dbg !3918
  %10 = alloca %"class.altered_carbon::js::ACJsPrimitive"*, align 8
  %11 = alloca %"class.std::__1::auto_ptr", align 8
  store %"class.altered_carbon::js::ACJsPrimitive"* %0, %"class.altered_carbon::js::ACJsPrimitive"** %10, align 8
  call void @llvm.dbg.declare(metadata %"class.altered_carbon::js::ACJsPrimitive"** %10, metadata !3919, metadata !DIExpression()), !dbg !3920
  %12 = load %"class.altered_carbon::js::ACJsPrimitive"*, %"class.altered_carbon::js::ACJsPrimitive"** %10, align 8
  %13 = call i8* @_Znwm(i64 16) #7, !dbg !3921
  %14 = bitcast i8* %13 to %"class.altered_carbon::js::ACJsValue"*, !dbg !3921
  call void @_ZN14altered_carbon2js9ACJsValueC1ENS1_11JsValueTypeE(%"class.altered_carbon::js::ACJsValue"* %14, i32 -1), !dbg !3921
  store %"class.std::__1::auto_ptr"* %11, %"class.std::__1::auto_ptr"** %8, align 8
  store %"class.altered_carbon::js::ACJsValue"* %14, %"class.altered_carbon::js::ACJsValue"** %9, align 8
  %15 = load %"class.std::__1::auto_ptr"*, %"class.std::__1::auto_ptr"** %8, align 8
  %16 = load %"class.altered_carbon::js::ACJsValue"*, %"class.altered_carbon::js::ACJsValue"** %9, align 8, !dbg !3922
  store %"class.std::__1::auto_ptr"* %15, %"class.std::__1::auto_ptr"** %6, align 8
  store %"class.altered_carbon::js::ACJsValue"* %16, %"class.altered_carbon::js::ACJsValue"** %7, align 8
  %17 = load %"class.std::__1::auto_ptr"*, %"class.std::__1::auto_ptr"** %6, align 8
  %18 = getelementptr inbounds %"class.std::__1::auto_ptr", %"class.std::__1::auto_ptr"* %17, i32 0, i32 0, !dbg !3923
  %19 = load %"class.altered_carbon::js::ACJsValue"*, %"class.altered_carbon::js::ACJsValue"** %7, align 8, !dbg !3924
  store %"class.altered_carbon::js::ACJsValue"* %19, %"class.altered_carbon::js::ACJsValue"** %18, align 8, !dbg !3923
  store %"class.std::__1::auto_ptr"* %11, %"class.std::__1::auto_ptr"** %2, align 8
  %20 = load %"class.std::__1::auto_ptr"*, %"class.std::__1::auto_ptr"** %2, align 8
  %21 = getelementptr inbounds %"class.std::__1::auto_ptr", %"class.std::__1::auto_ptr"* %20, i32 0, i32 0, !dbg !3925
  %22 = load %"class.altered_carbon::js::ACJsValue"*, %"class.altered_carbon::js::ACJsValue"** %21, align 8, !dbg !3925
  store %"class.altered_carbon::js::ACJsValue"* %22, %"class.altered_carbon::js::ACJsValue"** %3, align 8, !dbg !3908
  %23 = getelementptr inbounds %"class.std::__1::auto_ptr", %"class.std::__1::auto_ptr"* %20, i32 0, i32 0, !dbg !3926
  store %"class.altered_carbon::js::ACJsValue"* null, %"class.altered_carbon::js::ACJsValue"** %23, align 8, !dbg !3927
  %24 = load %"class.altered_carbon::js::ACJsValue"*, %"class.altered_carbon::js::ACJsValue"** %3, align 8, !dbg !3928
  store %"class.std::__1::auto_ptr"* %11, %"class.std::__1::auto_ptr"** %5, align 8
  %25 = load %"class.std::__1::auto_ptr"*, %"class.std::__1::auto_ptr"** %5, align 8
  store %"class.std::__1::auto_ptr"* %25, %"class.std::__1::auto_ptr"** %4, align 8
  %26 = load %"class.std::__1::auto_ptr"*, %"class.std::__1::auto_ptr"** %4, align 8
  %27 = getelementptr inbounds %"class.std::__1::auto_ptr", %"class.std::__1::auto_ptr"* %26, i32 0, i32 0, !dbg !3929
  %28 = load %"class.altered_carbon::js::ACJsValue"*, %"class.altered_carbon::js::ACJsValue"** %27, align 8, !dbg !3929
  %29 = icmp eq %"class.altered_carbon::js::ACJsValue"* %28, null, !dbg !3930
  br i1 %29, label %35, label %30, !dbg !3930

; <label>:30:                                     ; preds = %1
  %31 = bitcast %"class.altered_carbon::js::ACJsValue"* %28 to void (%"class.altered_carbon::js::ACJsValue"*)***, !dbg !3930
  %32 = load void (%"class.altered_carbon::js::ACJsValue"*)**, void (%"class.altered_carbon::js::ACJsValue"*)*** %31, align 8, !dbg !3930
  %33 = getelementptr inbounds void (%"class.altered_carbon::js::ACJsValue"*)*, void (%"class.altered_carbon::js::ACJsValue"*)** %32, i64 1, !dbg !3930
  %34 = load void (%"class.altered_carbon::js::ACJsValue"*)*, void (%"class.altered_carbon::js::ACJsValue"*)** %33, align 8, !dbg !3930
  call void %34(%"class.altered_carbon::js::ACJsValue"* %28) #8, !dbg !3930
  br label %35, !dbg !3930

; <label>:35:                                     ; preds = %1, %30
  ret %"class.altered_carbon::js::ACJsValue"* %24, !dbg !3931
}

; Function Attrs: noinline nounwind optnone ssp uwtable
define linkonce_odr hidden %"class.altered_carbon::js::ACJsValue"* @_ZNK14altered_carbon2js13ACJsPrimitiveINS0_11ACLexNumberEE8asStringEv(%"class.altered_carbon::js::ACJsPrimitive"*) unnamed_addr #0 align 2 !dbg !3932 {
  %2 = alloca %"class.std::__1::auto_ptr"*, align 8
  call void @llvm.dbg.declare(metadata %"class.std::__1::auto_ptr"** %2, metadata !3266, metadata !DIExpression()), !dbg !3933
  %3 = alloca %"class.altered_carbon::js::ACJsValue"*, align 8
  call void @llvm.dbg.declare(metadata %"class.altered_carbon::js::ACJsValue"** %3, metadata !3271, metadata !DIExpression()), !dbg !3935
  %4 = alloca %"class.std::__1::auto_ptr"*, align 8
  call void @llvm.dbg.declare(metadata %"class.std::__1::auto_ptr"** %4, metadata !3273, metadata !DIExpression()), !dbg !3936
  %5 = alloca %"class.std::__1::auto_ptr"*, align 8
  call void @llvm.dbg.declare(metadata %"class.std::__1::auto_ptr"** %5, metadata !3279, metadata !DIExpression()), !dbg !3939
  %6 = alloca %"class.std::__1::auto_ptr"*, align 8
  call void @llvm.dbg.declare(metadata %"class.std::__1::auto_ptr"** %6, metadata !3281, metadata !DIExpression()), !dbg !3940
  %7 = alloca %"class.altered_carbon::js::ACJsValue"*, align 8
  call void @llvm.dbg.declare(metadata %"class.altered_carbon::js::ACJsValue"** %7, metadata !3287, metadata !DIExpression()), !dbg !3943
  %8 = alloca %"class.std::__1::auto_ptr"*, align 8
  call void @llvm.dbg.declare(metadata %"class.std::__1::auto_ptr"** %8, metadata !3289, metadata !DIExpression()), !dbg !3944
  %9 = alloca %"class.altered_carbon::js::ACJsValue"*, align 8
  call void @llvm.dbg.declare(metadata %"class.altered_carbon::js::ACJsValue"** %9, metadata !3291, metadata !DIExpression()), !dbg !3945
  %10 = alloca %"class.altered_carbon::js::ACJsPrimitive"*, align 8
  %11 = alloca %"class.std::__1::auto_ptr", align 8
  store %"class.altered_carbon::js::ACJsPrimitive"* %0, %"class.altered_carbon::js::ACJsPrimitive"** %10, align 8
  call void @llvm.dbg.declare(metadata %"class.altered_carbon::js::ACJsPrimitive"** %10, metadata !3946, metadata !DIExpression()), !dbg !3947
  %12 = load %"class.altered_carbon::js::ACJsPrimitive"*, %"class.altered_carbon::js::ACJsPrimitive"** %10, align 8
  %13 = call i8* @_Znwm(i64 16) #7, !dbg !3948
  %14 = bitcast i8* %13 to %"class.altered_carbon::js::ACJsValue"*, !dbg !3948
  call void @_ZN14altered_carbon2js9ACJsValueC1ENS1_11JsValueTypeE(%"class.altered_carbon::js::ACJsValue"* %14, i32 -1), !dbg !3948
  store %"class.std::__1::auto_ptr"* %11, %"class.std::__1::auto_ptr"** %8, align 8
  store %"class.altered_carbon::js::ACJsValue"* %14, %"class.altered_carbon::js::ACJsValue"** %9, align 8
  %15 = load %"class.std::__1::auto_ptr"*, %"class.std::__1::auto_ptr"** %8, align 8
  %16 = load %"class.altered_carbon::js::ACJsValue"*, %"class.altered_carbon::js::ACJsValue"** %9, align 8, !dbg !3949
  store %"class.std::__1::auto_ptr"* %15, %"class.std::__1::auto_ptr"** %6, align 8
  store %"class.altered_carbon::js::ACJsValue"* %16, %"class.altered_carbon::js::ACJsValue"** %7, align 8
  %17 = load %"class.std::__1::auto_ptr"*, %"class.std::__1::auto_ptr"** %6, align 8
  %18 = getelementptr inbounds %"class.std::__1::auto_ptr", %"class.std::__1::auto_ptr"* %17, i32 0, i32 0, !dbg !3950
  %19 = load %"class.altered_carbon::js::ACJsValue"*, %"class.altered_carbon::js::ACJsValue"** %7, align 8, !dbg !3951
  store %"class.altered_carbon::js::ACJsValue"* %19, %"class.altered_carbon::js::ACJsValue"** %18, align 8, !dbg !3950
  store %"class.std::__1::auto_ptr"* %11, %"class.std::__1::auto_ptr"** %2, align 8
  %20 = load %"class.std::__1::auto_ptr"*, %"class.std::__1::auto_ptr"** %2, align 8
  %21 = getelementptr inbounds %"class.std::__1::auto_ptr", %"class.std::__1::auto_ptr"* %20, i32 0, i32 0, !dbg !3952
  %22 = load %"class.altered_carbon::js::ACJsValue"*, %"class.altered_carbon::js::ACJsValue"** %21, align 8, !dbg !3952
  store %"class.altered_carbon::js::ACJsValue"* %22, %"class.altered_carbon::js::ACJsValue"** %3, align 8, !dbg !3935
  %23 = getelementptr inbounds %"class.std::__1::auto_ptr", %"class.std::__1::auto_ptr"* %20, i32 0, i32 0, !dbg !3953
  store %"class.altered_carbon::js::ACJsValue"* null, %"class.altered_carbon::js::ACJsValue"** %23, align 8, !dbg !3954
  %24 = load %"class.altered_carbon::js::ACJsValue"*, %"class.altered_carbon::js::ACJsValue"** %3, align 8, !dbg !3955
  store %"class.std::__1::auto_ptr"* %11, %"class.std::__1::auto_ptr"** %5, align 8
  %25 = load %"class.std::__1::auto_ptr"*, %"class.std::__1::auto_ptr"** %5, align 8
  store %"class.std::__1::auto_ptr"* %25, %"class.std::__1::auto_ptr"** %4, align 8
  %26 = load %"class.std::__1::auto_ptr"*, %"class.std::__1::auto_ptr"** %4, align 8
  %27 = getelementptr inbounds %"class.std::__1::auto_ptr", %"class.std::__1::auto_ptr"* %26, i32 0, i32 0, !dbg !3956
  %28 = load %"class.altered_carbon::js::ACJsValue"*, %"class.altered_carbon::js::ACJsValue"** %27, align 8, !dbg !3956
  %29 = icmp eq %"class.altered_carbon::js::ACJsValue"* %28, null, !dbg !3957
  br i1 %29, label %35, label %30, !dbg !3957

; <label>:30:                                     ; preds = %1
  %31 = bitcast %"class.altered_carbon::js::ACJsValue"* %28 to void (%"class.altered_carbon::js::ACJsValue"*)***, !dbg !3957
  %32 = load void (%"class.altered_carbon::js::ACJsValue"*)**, void (%"class.altered_carbon::js::ACJsValue"*)*** %31, align 8, !dbg !3957
  %33 = getelementptr inbounds void (%"class.altered_carbon::js::ACJsValue"*)*, void (%"class.altered_carbon::js::ACJsValue"*)** %32, i64 1, !dbg !3957
  %34 = load void (%"class.altered_carbon::js::ACJsValue"*)*, void (%"class.altered_carbon::js::ACJsValue"*)** %33, align 8, !dbg !3957
  call void %34(%"class.altered_carbon::js::ACJsValue"* %28) #8, !dbg !3957
  br label %35, !dbg !3957

; <label>:35:                                     ; preds = %1, %30
  ret %"class.altered_carbon::js::ACJsValue"* %24, !dbg !3958
}

; Function Attrs: noinline nounwind optnone ssp uwtable
define linkonce_odr hidden void @_ZN14altered_carbon2js11ACLexNumberD2Ev(%"class.altered_carbon::js::ACLexNumber"*) unnamed_addr #0 align 2 !dbg !3959 {
  %2 = alloca %"class.altered_carbon::js::ACLexNumber"*, align 8
  store %"class.altered_carbon::js::ACLexNumber"* %0, %"class.altered_carbon::js::ACLexNumber"** %2, align 8
  call void @llvm.dbg.declare(metadata %"class.altered_carbon::js::ACLexNumber"** %2, metadata !3960, metadata !DIExpression()), !dbg !3961
  %3 = load %"class.altered_carbon::js::ACLexNumber"*, %"class.altered_carbon::js::ACLexNumber"** %2, align 8
  %4 = bitcast %"class.altered_carbon::js::ACLexNumber"* %3 to i32 (...)***, !dbg !3962
  store i32 (...)** bitcast (i8** getelementptr inbounds ({ [4 x i8*] }, { [4 x i8*] }* @_ZTVN14altered_carbon2js11ACLexNumberE, i32 0, inrange i32 0, i32 2) to i32 (...)**), i32 (...)*** %4, align 8, !dbg !3962
  ret void, !dbg !3963
}

; Function Attrs: noinline nounwind optnone ssp uwtable
define linkonce_odr hidden void @_ZN14altered_carbon2js11ACLexNumberD0Ev(%"class.altered_carbon::js::ACLexNumber"*) unnamed_addr #0 align 2 !dbg !3964 {
  %2 = alloca %"class.altered_carbon::js::ACLexNumber"*, align 8
  store %"class.altered_carbon::js::ACLexNumber"* %0, %"class.altered_carbon::js::ACLexNumber"** %2, align 8
  call void @llvm.dbg.declare(metadata %"class.altered_carbon::js::ACLexNumber"** %2, metadata !3965, metadata !DIExpression()), !dbg !3966
  %3 = load %"class.altered_carbon::js::ACLexNumber"*, %"class.altered_carbon::js::ACLexNumber"** %2, align 8
  call void @_ZN14altered_carbon2js11ACLexNumberD1Ev(%"class.altered_carbon::js::ACLexNumber"* %3) #8, !dbg !3967
  %4 = bitcast %"class.altered_carbon::js::ACLexNumber"* %3 to i8*, !dbg !3967
  call void @_ZdlPv(i8* %4) #10, !dbg !3967
  ret void, !dbg !3968
}

; Function Attrs: nobuiltin nounwind
declare void @_ZdlPv(i8*) #5

; Function Attrs: noinline nounwind optnone ssp uwtable
define linkonce_odr hidden void @_ZN14altered_carbon2js10ACJsNumberC2ERKS1_(%"class.altered_carbon::js::ACJsNumber"*, %"class.altered_carbon::js::ACJsNumber"* dereferenceable(40)) unnamed_addr #0 align 2 !dbg !3969 {
  %3 = alloca %"class.altered_carbon::js::ACJsNumber"*, align 8
  %4 = alloca %"class.altered_carbon::js::ACJsNumber"*, align 8
  store %"class.altered_carbon::js::ACJsNumber"* %0, %"class.altered_carbon::js::ACJsNumber"** %3, align 8
  call void @llvm.dbg.declare(metadata %"class.altered_carbon::js::ACJsNumber"** %3, metadata !3970, metadata !DIExpression()), !dbg !3971
  store %"class.altered_carbon::js::ACJsNumber"* %1, %"class.altered_carbon::js::ACJsNumber"** %4, align 8
  call void @llvm.dbg.declare(metadata %"class.altered_carbon::js::ACJsNumber"** %4, metadata !3972, metadata !DIExpression()), !dbg !3971
  %5 = load %"class.altered_carbon::js::ACJsNumber"*, %"class.altered_carbon::js::ACJsNumber"** %3, align 8
  %6 = bitcast %"class.altered_carbon::js::ACJsNumber"* %5 to %"class.altered_carbon::js::ACJsPrimitive"*, !dbg !3973
  %7 = load %"class.altered_carbon::js::ACJsNumber"*, %"class.altered_carbon::js::ACJsNumber"** %4, align 8, !dbg !3973
  %8 = bitcast %"class.altered_carbon::js::ACJsNumber"* %7 to %"class.altered_carbon::js::ACJsPrimitive"*, !dbg !3973
  call void @_ZN14altered_carbon2js13ACJsPrimitiveINS0_11ACLexNumberEEC2ERKS3_(%"class.altered_carbon::js::ACJsPrimitive"* %6, %"class.altered_carbon::js::ACJsPrimitive"* dereferenceable(40) %8), !dbg !3973
  %9 = bitcast %"class.altered_carbon::js::ACJsNumber"* %5 to i32 (...)***, !dbg !3973
  store i32 (...)** bitcast (i8** getelementptr inbounds ({ [47 x i8*] }, { [47 x i8*] }* @_ZTVN14altered_carbon2js10ACJsNumberE, i32 0, inrange i32 0, i32 2) to i32 (...)**), i32 (...)*** %9, align 8, !dbg !3973
  ret void, !dbg !3973
}

; Function Attrs: noinline nounwind optnone ssp uwtable
define linkonce_odr hidden void @_ZN14altered_carbon2js13ACJsPrimitiveINS0_11ACLexNumberEEC2ERKS3_(%"class.altered_carbon::js::ACJsPrimitive"*, %"class.altered_carbon::js::ACJsPrimitive"* dereferenceable(40)) unnamed_addr #0 align 2 !dbg !3974 {
  %3 = alloca %"class.altered_carbon::js::ACJsPrimitive"*, align 8
  %4 = alloca %"class.altered_carbon::js::ACJsPrimitive"*, align 8
  store %"class.altered_carbon::js::ACJsPrimitive"* %0, %"class.altered_carbon::js::ACJsPrimitive"** %3, align 8
  call void @llvm.dbg.declare(metadata %"class.altered_carbon::js::ACJsPrimitive"** %3, metadata !3979, metadata !DIExpression()), !dbg !3980
  store %"class.altered_carbon::js::ACJsPrimitive"* %1, %"class.altered_carbon::js::ACJsPrimitive"** %4, align 8
  call void @llvm.dbg.declare(metadata %"class.altered_carbon::js::ACJsPrimitive"** %4, metadata !3981, metadata !DIExpression()), !dbg !3980
