	.section	__TEXT,__text,regular,pure_instructions
	.macosx_version_min 10, 13
	.globl	__ZN14altered_carbon2js9JsVariantC2ENS1_13JsVariantTypeE ## -- Begin function _ZN14altered_carbon2js9JsVariantC2ENS1_13JsVariantTypeE
	.p2align	4, 0x90
__ZN14altered_carbon2js9JsVariantC2ENS1_13JsVariantTypeE: ## @_ZN14altered_carbon2js9JsVariantC2ENS1_13JsVariantTypeE
	.cfi_startproc
## %bb.0:
	pushq	%rbp
	.cfi_def_cfa_offset 16
	.cfi_offset %rbp, -16
	movq	%rsp, %rbp
	.cfi_def_cfa_register %rbp
	pushq	%rbx
	subq	$344, %rsp              ## imm = 0x158
	.cfi_offset %rbx, -24
	movq	%rdi, -56(%rbp)
	movl	%esi, -12(%rbp)
	movq	-56(%rbp), %rbx
	leaq	__ZTVN14altered_carbon2js9JsVariantE+16(%rip), %rax
	movq	%rax, (%rbx)
	movl	-12(%rbp), %eax
	movl	%eax, 8(%rbx)
	movl	8(%rbx), %eax
	addl	$-10, %eax
	movl	%eax, %ecx
	subl	$5, %ecx
	ja	LBB0_15
## %bb.1:
	leaq	LJTI0_0(%rip), %rcx
	movslq	(%rcx,%rax,4), %rax
	addq	%rcx, %rax
	jmpq	*%rax
LBB0_2:
	leaq	-48(%rbp), %rdi
	leaq	l_.str(%rip), %rsi
	callq	__ZN4llvm11make_uniqueINSt3__112basic_stringIwNS1_11char_traitsIwEENS1_9allocatorIwEEEEJRA1_KwEEENS1_9enable_ifIXntsr3std8is_arrayIT_EE5valueENS1_10unique_ptrISC_NS1_14default_deleteISC_EEEEE4typeEDpOT0_
	leaq	-48(%rbp), %rax
	movq	%rax, -72(%rbp)
	movq	-72(%rbp), %rcx
	movq	%rcx, -80(%rbp)
	movq	-80(%rbp), %rdx
	movq	%rdx, -88(%rbp)
	movq	-88(%rbp), %rdx
	movq	(%rdx), %rdx
	movq	%rdx, -64(%rbp)
	movq	%rcx, -96(%rbp)
	movq	-96(%rbp), %rcx
	movq	%rcx, -104(%rbp)
	movq	-104(%rbp), %rcx
	movq	$0, (%rcx)
	movq	-64(%rbp), %rcx
	movq	%rcx, 16(%rbx)
	movq	%rax, -200(%rbp)
	movq	-200(%rbp), %rax
	movq	%rax, -208(%rbp)
	movq	-208(%rbp), %rax
	movq	%rax, -224(%rbp)
	movq	$0, -216(%rbp)
	movq	-224(%rbp), %rax
	movq	%rax, -232(%rbp)
	movq	-232(%rbp), %rcx
	movq	%rcx, -240(%rbp)
	movq	-240(%rbp), %rcx
	movq	(%rcx), %rcx
	movq	%rcx, -40(%rbp)
	movq	-216(%rbp), %rcx
	movq	%rax, -256(%rbp)
	movq	-256(%rbp), %rdx
	movq	%rdx, -264(%rbp)
	movq	-264(%rbp), %rdx
	movq	%rcx, (%rdx)
	cmpq	$0, -40(%rbp)
	je	LBB0_6
## %bb.3:
	movq	%rax, -272(%rbp)
	movq	-272(%rbp), %rax
	movq	%rax, -280(%rbp)
	movq	-280(%rbp), %rax
	movq	-40(%rbp), %rcx
	movq	%rax, -344(%rbp)
	movq	%rcx, -248(%rbp)
	movq	-248(%rbp), %rbx
	cmpq	$0, %rbx
	je	LBB0_5
## %bb.4:
	movq	%rbx, %rdi
	callq	__ZNSt3__112basic_stringIwNS_11char_traitsIwEENS_9allocatorIwEEED1Ev
	movq	%rbx, %rdi
	callq	__ZdlPv
LBB0_5:
	jmp	LBB0_6
LBB0_6:
	jmp	LBB0_16
LBB0_7:
	addq	$16, %rbx
	movq	%rbx, %rdi
	movl	$1, %esi
	callq	__ZN14altered_carbon2js13JsVariantFunc5resetEb
	jmp	LBB0_16
LBB0_8:
	addq	$16, %rbx
	movq	%rbx, %rdi
	movl	$1, %esi
	callq	__ZN14altered_carbon2js13RefCountedPtrINS0_9JsVariantEE5resetEb
	jmp	LBB0_16
LBB0_9:
	addq	$16, %rbx
	movq	%rbx, %rdi
	movl	$1, %esi
	callq	__ZN14altered_carbon2js13RefCountedPtrINS0_14JsVariantArrayEE5resetEb
	jmp	LBB0_16
LBB0_10:
	addq	$16, %rbx
	leaq	-24(%rbp), %rdi
	callq	__ZN4llvm11make_uniqueIN14altered_carbon2js10RefCountedINS2_14JsVariantArrayEEEJEEENSt3__19enable_ifIXntsr3std8is_arrayIT_EE5valueENS6_10unique_ptrIS8_NS6_14default_deleteIS8_EEEEE4typeEDpOT0_
	leaq	-24(%rbp), %rax
	movq	%rax, -296(%rbp)
	movq	-296(%rbp), %rax
	movq	%rax, -304(%rbp)
	movq	-304(%rbp), %rcx
	movq	%rcx, -312(%rbp)
	movq	-312(%rbp), %rcx
	movq	(%rcx), %rcx
	movq	%rcx, -288(%rbp)
	movq	%rax, -320(%rbp)
	movq	-320(%rbp), %rax
	movq	%rax, -328(%rbp)
	movq	-328(%rbp), %rax
	movq	$0, (%rax)
	movq	-288(%rbp), %rsi
	movq	%rbx, %rdi
	movl	$1, %edx
	callq	__ZN14altered_carbon2js13RefCountedPtrINS0_14JsVariantArrayEE5resetEPNS0_10RefCountedIS2_EEb
	leaq	-24(%rbp), %rax
	movq	%rax, -112(%rbp)
	movq	-112(%rbp), %rax
	movq	%rax, -120(%rbp)
	movq	-120(%rbp), %rax
	movq	%rax, -136(%rbp)
	movq	$0, -128(%rbp)
	movq	-136(%rbp), %rax
	movq	%rax, -144(%rbp)
	movq	-144(%rbp), %rcx
	movq	%rcx, -152(%rbp)
	movq	-152(%rbp), %rcx
	movq	(%rcx), %rcx
	movq	%rcx, -32(%rbp)
	movq	-128(%rbp), %rcx
	movq	%rax, -168(%rbp)
	movq	-168(%rbp), %rdx
	movq	%rdx, -176(%rbp)
	movq	-176(%rbp), %rdx
	movq	%rcx, (%rdx)
	cmpq	$0, -32(%rbp)
	je	LBB0_14
## %bb.11:
	movq	%rax, -184(%rbp)
	movq	-184(%rbp), %rax
	movq	%rax, -192(%rbp)
	movq	-192(%rbp), %rax
	movq	-32(%rbp), %rcx
	movq	%rax, -336(%rbp)
	movq	%rcx, -160(%rbp)
	movq	-160(%rbp), %rdi
	cmpq	$0, %rdi
	je	LBB0_13
## %bb.12:
	movq	(%rdi), %rax
	callq	*8(%rax)
LBB0_13:
	jmp	LBB0_14
LBB0_14:
	jmp	LBB0_16
LBB0_15:
	jmp	LBB0_16
LBB0_16:
	addq	$344, %rsp              ## imm = 0x158
	popq	%rbx
	popq	%rbp
	retq
	.cfi_endproc
	.p2align	2, 0x90
	.data_region jt32
.set L0_0_set_2, LBB0_2-LJTI0_0
.set L0_0_set_8, LBB0_8-LJTI0_0
.set L0_0_set_10, LBB0_10-LJTI0_0
.set L0_0_set_9, LBB0_9-LJTI0_0
.set L0_0_set_7, LBB0_7-LJTI0_0
LJTI0_0:
	.long	L0_0_set_2
	.long	L0_0_set_8
	.long	L0_0_set_10
	.long	L0_0_set_8
	.long	L0_0_set_9
	.long	L0_0_set_7
	.end_data_region
                                        ## -- End function
	.globl	__ZN4llvm11make_uniqueINSt3__112basic_stringIwNS1_11char_traitsIwEENS1_9allocatorIwEEEEJRA1_KwEEENS1_9enable_ifIXntsr3std8is_arrayIT_EE5valueENS1_10unique_ptrISC_NS1_14default_deleteISC_EEEEE4typeEDpOT0_ ## -- Begin function _ZN4llvm11make_uniqueINSt3__112basic_stringIwNS1_11char_traitsIwEENS1_9allocatorIwEEEEJRA1_KwEEENS1_9enable_ifIXntsr3std8is_arrayIT_EE5valueENS1_10unique_ptrISC_NS1_14default_deleteISC_EEEEE4typeEDpOT0_
	.weak_definition	__ZN4llvm11make_uniqueINSt3__112basic_stringIwNS1_11char_traitsIwEENS1_9allocatorIwEEEEJRA1_KwEEENS1_9enable_ifIXntsr3std8is_arrayIT_EE5valueENS1_10unique_ptrISC_NS1_14default_deleteISC_EEEEE4typeEDpOT0_
	.p2align	4, 0x90
__ZN4llvm11make_uniqueINSt3__112basic_stringIwNS1_11char_traitsIwEENS1_9allocatorIwEEEEJRA1_KwEEENS1_9enable_ifIXntsr3std8is_arrayIT_EE5valueENS1_10unique_ptrISC_NS1_14default_deleteISC_EEEEE4typeEDpOT0_: ## @_ZN4llvm11make_uniqueINSt3__112basic_stringIwNS1_11char_traitsIwEENS1_9allocatorIwEEEEJRA1_KwEEENS1_9enable_ifIXntsr3std8is_arrayIT_EE5valueENS1_10unique_ptrISC_NS1_14default_deleteISC_EEEEE4typeEDpOT0_
	.cfi_startproc
## %bb.0:
	pushq	%rbp
	.cfi_def_cfa_offset 16
	.cfi_offset %rbp, -16
	movq	%rsp, %rbp
	.cfi_def_cfa_register %rbp
	pushq	%r15
	pushq	%r14
	pushq	%r12
	pushq	%rbx
	subq	$192, %rsp
	.cfi_offset %rbx, -48
	.cfi_offset %r12, -40
	.cfi_offset %r14, -32
	.cfi_offset %r15, -24
	movq	%rdi, %r14
	movq	%rsi, -48(%rbp)
	movl	$24, %edi
	callq	__Znwm
	movq	%rax, %r15
	movq	-48(%rbp), %rax
	movq	%rax, -56(%rbp)
	movq	-56(%rbp), %rax
	movq	%r15, -168(%rbp)
	movq	%rax, -160(%rbp)
	movq	-168(%rbp), %rax
	movq	-160(%rbp), %rcx
	movq	%rax, -176(%rbp)
	movq	%rcx, -40(%rbp)
	movq	-176(%rbp), %r12
	movq	%r12, -184(%rbp)
	movq	-184(%rbp), %rax
	movq	%rax, -192(%rbp)
	movq	-192(%rbp), %rbx
	movq	%rbx, -200(%rbp)
	movq	-200(%rbp), %rdi
	xorl	%esi, %esi
	movl	$24, %edx
	callq	_memset
	movq	%rbx, -208(%rbp)
	movq	-208(%rbp), %rax
	movq	%rax, -216(%rbp)
	movq	-40(%rbp), %rbx
	movq	-40(%rbp), %rdi
	callq	__ZNSt3__111char_traitsIwE6lengthEPKw
	movq	%r12, %rdi
	movq	%rbx, %rsi
	movq	%rax, %rdx
	callq	__ZNSt3__112basic_stringIwNS_11char_traitsIwEENS_9allocatorIwEEE6__initEPKwm
	movq	%r14, -72(%rbp)
	movq	%r15, -64(%rbp)
	movq	-72(%rbp), %rax
	movq	-64(%rbp), %rcx
	movq	%rax, -88(%rbp)
	movq	%rcx, -80(%rbp)
	movq	-88(%rbp), %rax
	movq	%rax, -104(%rbp)
	leaq	-80(%rbp), %rax
	movq	%rax, -96(%rbp)
	movq	-104(%rbp), %rax
	movq	-96(%rbp), %rcx
	movq	%rax, -120(%rbp)
	movq	%rcx, -112(%rbp)
	movq	-120(%rbp), %rax
	movq	-112(%rbp), %rcx
	movq	%rcx, -128(%rbp)
	movq	-128(%rbp), %rcx
	movq	%rax, -144(%rbp)
	movq	%rcx, -136(%rbp)
	movq	-144(%rbp), %rax
	movq	-136(%rbp), %rcx
	movq	%rcx, -152(%rbp)
	movq	-152(%rbp), %rcx
	movq	(%rcx), %rcx
	movq	%rcx, (%rax)
	movq	%r14, %rax
	addq	$192, %rsp
	popq	%rbx
	popq	%r12
	popq	%r14
	popq	%r15
	popq	%rbp
	retq
	.cfi_endproc
                                        ## -- End function
	.private_extern	__ZN14altered_carbon2js13JsVariantFunc5resetEb ## -- Begin function _ZN14altered_carbon2js13JsVariantFunc5resetEb
	.globl	__ZN14altered_carbon2js13JsVariantFunc5resetEb
	.weak_definition	__ZN14altered_carbon2js13JsVariantFunc5resetEb
	.p2align	4, 0x90
__ZN14altered_carbon2js13JsVariantFunc5resetEb: ## @_ZN14altered_carbon2js13JsVariantFunc5resetEb
	.cfi_startproc
## %bb.0:
	pushq	%rbp
	.cfi_def_cfa_offset 16
	.cfi_offset %rbp, -16
	movq	%rsp, %rbp
	.cfi_def_cfa_register %rbp
	movq	%rdi, -16(%rbp)
	andb	$1, %sil
	movb	%sil, -1(%rbp)
	movq	-16(%rbp), %rax
	movq	$0, (%rax)
	leaq	__ZN14altered_carbon2jsL13EMPTY_WSTRINGE(%rip), %rcx
	movq	%rcx, 8(%rax)
	popq	%rbp
	retq
	.cfi_endproc
                                        ## -- End function
	.private_extern	__ZN14altered_carbon2js13RefCountedPtrINS0_9JsVariantEE5resetEb ## -- Begin function _ZN14altered_carbon2js13RefCountedPtrINS0_9JsVariantEE5resetEb
	.globl	__ZN14altered_carbon2js13RefCountedPtrINS0_9JsVariantEE5resetEb
	.weak_definition	__ZN14altered_carbon2js13RefCountedPtrINS0_9JsVariantEE5resetEb
	.p2align	4, 0x90
__ZN14altered_carbon2js13RefCountedPtrINS0_9JsVariantEE5resetEb: ## @_ZN14altered_carbon2js13RefCountedPtrINS0_9JsVariantEE5resetEb
	.cfi_startproc
## %bb.0:
	pushq	%rbp
	.cfi_def_cfa_offset 16
	.cfi_offset %rbp, -16
	movq	%rsp, %rbp
	.cfi_def_cfa_register %rbp
	pushq	%rbx
	subq	$56, %rsp
	.cfi_offset %rbx, -24
	movq	%rdi, -48(%rbp)
	andb	$1, %sil
	movb	%sil, -9(%rbp)
	movq	-48(%rbp), %rbx
	testb	$1, -9(%rbp)
	jne	LBB3_13
## %bb.1:
	cmpq	$0, (%rbx)
	je	LBB3_13
## %bb.2:
	movq	(%rbx), %rax
	addq	$56, %rax
	movq	%rax, -64(%rbp)
	movq	$1, -56(%rbp)
	movl	$5, -36(%rbp)
	movq	-64(%rbp), %rax
	movl	-36(%rbp), %ecx
	movq	-56(%rbp), %rdx
	movq	%rdx, -32(%rbp)
	decl	%ecx
	movl	%ecx, %edx
	subl	$4, %edx
	ja	LBB3_4
## %bb.3:
	leaq	LJTI3_0(%rip), %rdx
	movslq	(%rdx,%rcx,4), %rcx
	addq	%rdx, %rcx
	jmpq	*%rcx
LBB3_4:
	movq	-32(%rbp), %rcx
	negq	%rcx
	lock		xaddq	%rcx, (%rax)
	movq	%rcx, -24(%rbp)
	jmp	LBB3_9
LBB3_5:
	movq	-32(%rbp), %rcx
	negq	%rcx
	lock		xaddq	%rcx, (%rax)
	movq	%rcx, -24(%rbp)
	jmp	LBB3_9
LBB3_6:
	movq	-32(%rbp), %rcx
	negq	%rcx
	lock		xaddq	%rcx, (%rax)
	movq	%rcx, -24(%rbp)
	jmp	LBB3_9
LBB3_7:
	movq	-32(%rbp), %rcx
	negq	%rcx
	lock		xaddq	%rcx, (%rax)
	movq	%rcx, -24(%rbp)
	jmp	LBB3_9
LBB3_8:
	movq	-32(%rbp), %rcx
	negq	%rcx
	lock		xaddq	%rcx, (%rax)
	movq	%rcx, -24(%rbp)
LBB3_9:
	cmpq	$1, -24(%rbp)
	jne	LBB3_13
## %bb.10:
	movq	(%rbx), %rdi
	cmpq	$0, %rdi
	je	LBB3_12
## %bb.11:
	movq	(%rdi), %rax
	callq	*8(%rax)
LBB3_12:
	jmp	LBB3_13
LBB3_13:
	movq	$0, (%rbx)
	addq	$56, %rsp
	popq	%rbx
	popq	%rbp
	retq
	.cfi_endproc
	.p2align	2, 0x90
	.data_region jt32
.set L3_0_set_5, LBB3_5-LJTI3_0
.set L3_0_set_6, LBB3_6-LJTI3_0
.set L3_0_set_7, LBB3_7-LJTI3_0
.set L3_0_set_8, LBB3_8-LJTI3_0
LJTI3_0:
	.long	L3_0_set_5
	.long	L3_0_set_5
	.long	L3_0_set_6
	.long	L3_0_set_7
	.long	L3_0_set_8
	.end_data_region
                                        ## -- End function
	.private_extern	__ZN14altered_carbon2js13RefCountedPtrINS0_14JsVariantArrayEE5resetEb ## -- Begin function _ZN14altered_carbon2js13RefCountedPtrINS0_14JsVariantArrayEE5resetEb
	.globl	__ZN14altered_carbon2js13RefCountedPtrINS0_14JsVariantArrayEE5resetEb
	.weak_definition	__ZN14altered_carbon2js13RefCountedPtrINS0_14JsVariantArrayEE5resetEb
	.p2align	4, 0x90
__ZN14altered_carbon2js13RefCountedPtrINS0_14JsVariantArrayEE5resetEb: ## @_ZN14altered_carbon2js13RefCountedPtrINS0_14JsVariantArrayEE5resetEb
	.cfi_startproc
## %bb.0:
	pushq	%rbp
	.cfi_def_cfa_offset 16
	.cfi_offset %rbp, -16
	movq	%rsp, %rbp
	.cfi_def_cfa_register %rbp
	pushq	%rbx
	subq	$56, %rsp
	.cfi_offset %rbx, -24
	movq	%rdi, -48(%rbp)
	andb	$1, %sil
	movb	%sil, -9(%rbp)
	movq	-48(%rbp), %rbx
	testb	$1, -9(%rbp)
	jne	LBB4_13
## %bb.1:
	cmpq	$0, (%rbx)
	je	LBB4_13
## %bb.2:
	movq	(%rbx), %rax
	addq	$16, %rax
	movq	%rax, -64(%rbp)
	movq	$1, -56(%rbp)
	movl	$5, -36(%rbp)
	movq	-64(%rbp), %rax
	movl	-36(%rbp), %ecx
	movq	-56(%rbp), %rdx
	movq	%rdx, -32(%rbp)
	decl	%ecx
	movl	%ecx, %edx
	subl	$4, %edx
	ja	LBB4_4
## %bb.3:
	leaq	LJTI4_0(%rip), %rdx
	movslq	(%rdx,%rcx,4), %rcx
	addq	%rdx, %rcx
	jmpq	*%rcx
LBB4_4:
	movq	-32(%rbp), %rcx
	negq	%rcx
	lock		xaddq	%rcx, (%rax)
	movq	%rcx, -24(%rbp)
	jmp	LBB4_9
LBB4_5:
	movq	-32(%rbp), %rcx
	negq	%rcx
	lock		xaddq	%rcx, (%rax)
	movq	%rcx, -24(%rbp)
	jmp	LBB4_9
LBB4_6:
	movq	-32(%rbp), %rcx
	negq	%rcx
	lock		xaddq	%rcx, (%rax)
	movq	%rcx, -24(%rbp)
	jmp	LBB4_9
LBB4_7:
	movq	-32(%rbp), %rcx
	negq	%rcx
	lock		xaddq	%rcx, (%rax)
	movq	%rcx, -24(%rbp)
	jmp	LBB4_9
LBB4_8:
	movq	-32(%rbp), %rcx
	negq	%rcx
	lock		xaddq	%rcx, (%rax)
	movq	%rcx, -24(%rbp)
LBB4_9:
	cmpq	$1, -24(%rbp)
	jne	LBB4_13
## %bb.10:
	movq	(%rbx), %rdi
	cmpq	$0, %rdi
	je	LBB4_12
## %bb.11:
	movq	(%rdi), %rax
	callq	*8(%rax)
LBB4_12:
	jmp	LBB4_13
LBB4_13:
	movq	$0, (%rbx)
	addq	$56, %rsp
	popq	%rbx
	popq	%rbp
	retq
	.cfi_endproc
	.p2align	2, 0x90
	.data_region jt32
.set L4_0_set_5, LBB4_5-LJTI4_0
.set L4_0_set_6, LBB4_6-LJTI4_0
.set L4_0_set_7, LBB4_7-LJTI4_0
.set L4_0_set_8, LBB4_8-LJTI4_0
LJTI4_0:
	.long	L4_0_set_5
	.long	L4_0_set_5
	.long	L4_0_set_6
	.long	L4_0_set_7
	.long	L4_0_set_8
	.end_data_region
                                        ## -- End function
	.private_extern	__ZN14altered_carbon2js13RefCountedPtrINS0_14JsVariantArrayEE5resetEPNS0_10RefCountedIS2_EEb ## -- Begin function _ZN14altered_carbon2js13RefCountedPtrINS0_14JsVariantArrayEE5resetEPNS0_10RefCountedIS2_EEb
	.globl	__ZN14altered_carbon2js13RefCountedPtrINS0_14JsVariantArrayEE5resetEPNS0_10RefCountedIS2_EEb
	.weak_definition	__ZN14altered_carbon2js13RefCountedPtrINS0_14JsVariantArrayEE5resetEPNS0_10RefCountedIS2_EEb
	.p2align	4, 0x90
__ZN14altered_carbon2js13RefCountedPtrINS0_14JsVariantArrayEE5resetEPNS0_10RefCountedIS2_EEb: ## @_ZN14altered_carbon2js13RefCountedPtrINS0_14JsVariantArrayEE5resetEPNS0_10RefCountedIS2_EEb
	.cfi_startproc
## %bb.0:
	pushq	%rbp
	.cfi_def_cfa_offset 16
	.cfi_offset %rbp, -16
	movq	%rsp, %rbp
	.cfi_def_cfa_register %rbp
	pushq	%rbx
	subq	$72, %rsp
	.cfi_offset %rbx, -24
	movq	%rdi, -56(%rbp)
	movq	%rsi, -48(%rbp)
	andb	$1, %dl
	movb	%dl, -9(%rbp)
	movq	-56(%rbp), %rbx
	movb	-9(%rbp), %al
	andb	$1, %al
	movq	%rbx, %rdi
	movzbl	%al, %esi
	callq	__ZN14altered_carbon2js13RefCountedPtrINS0_14JsVariantArrayEE5resetEb
	movq	-48(%rbp), %rax
	movq	%rax, (%rbx)
	cmpq	$0, (%rbx)
	je	LBB5_9
## %bb.1:
	movq	(%rbx), %rax
	addq	$16, %rax
	movq	%rax, -72(%rbp)
	movq	$1, -64(%rbp)
	movl	$5, -36(%rbp)
	movq	-72(%rbp), %rax
	movl	-36(%rbp), %ecx
	movq	-64(%rbp), %rdx
	movq	%rdx, -24(%rbp)
	decl	%ecx
	movl	%ecx, %edx
	subl	$4, %edx
	ja	LBB5_3
## %bb.2:
	leaq	LJTI5_0(%rip), %rdx
	movslq	(%rdx,%rcx,4), %rcx
	addq	%rdx, %rcx
	jmpq	*%rcx
LBB5_3:
	movq	-24(%rbp), %rcx
	lock		xaddq	%rcx, (%rax)
	movq	%rcx, -32(%rbp)
	jmp	LBB5_8
LBB5_4:
	movq	-24(%rbp), %rcx
	lock		xaddq	%rcx, (%rax)
	movq	%rcx, -32(%rbp)
	jmp	LBB5_8
LBB5_5:
	movq	-24(%rbp), %rcx
	lock		xaddq	%rcx, (%rax)
	movq	%rcx, -32(%rbp)
	jmp	LBB5_8
LBB5_6:
	movq	-24(%rbp), %rcx
	lock		xaddq	%rcx, (%rax)
	movq	%rcx, -32(%rbp)
	jmp	LBB5_8
LBB5_7:
	movq	-24(%rbp), %rcx
	lock		xaddq	%rcx, (%rax)
	movq	%rcx, -32(%rbp)
LBB5_8:
LBB5_9:
	addq	$72, %rsp
	popq	%rbx
	popq	%rbp
	retq
	.cfi_endproc
	.p2align	2, 0x90
	.data_region jt32
.set L5_0_set_4, LBB5_4-LJTI5_0
.set L5_0_set_5, LBB5_5-LJTI5_0
.set L5_0_set_6, LBB5_6-LJTI5_0
.set L5_0_set_7, LBB5_7-LJTI5_0
LJTI5_0:
	.long	L5_0_set_4
	.long	L5_0_set_4
	.long	L5_0_set_5
	.long	L5_0_set_6
	.long	L5_0_set_7
	.end_data_region
                                        ## -- End function
	.globl	__ZN4llvm11make_uniqueIN14altered_carbon2js10RefCountedINS2_14JsVariantArrayEEEJEEENSt3__19enable_ifIXntsr3std8is_arrayIT_EE5valueENS6_10unique_ptrIS8_NS6_14default_deleteIS8_EEEEE4typeEDpOT0_ ## -- Begin function _ZN4llvm11make_uniqueIN14altered_carbon2js10RefCountedINS2_14JsVariantArrayEEEJEEENSt3__19enable_ifIXntsr3std8is_arrayIT_EE5valueENS6_10unique_ptrIS8_NS6_14default_deleteIS8_EEEEE4typeEDpOT0_
	.weak_definition	__ZN4llvm11make_uniqueIN14altered_carbon2js10RefCountedINS2_14JsVariantArrayEEEJEEENSt3__19enable_ifIXntsr3std8is_arrayIT_EE5valueENS6_10unique_ptrIS8_NS6_14default_deleteIS8_EEEEE4typeEDpOT0_
	.p2align	4, 0x90
__ZN4llvm11make_uniqueIN14altered_carbon2js10RefCountedINS2_14JsVariantArrayEEEJEEENSt3__19enable_ifIXntsr3std8is_arrayIT_EE5valueENS6_10unique_ptrIS8_NS6_14default_deleteIS8_EEEEE4typeEDpOT0_: ## @_ZN4llvm11make_uniqueIN14altered_carbon2js10RefCountedINS2_14JsVariantArrayEEEJEEENSt3__19enable_ifIXntsr3std8is_arrayIT_EE5valueENS6_10unique_ptrIS8_NS6_14default_deleteIS8_EEEEE4typeEDpOT0_
	.cfi_startproc
## %bb.0:
	pushq	%rbp
	.cfi_def_cfa_offset 16
	.cfi_offset %rbp, -16
	movq	%rsp, %rbp
	.cfi_def_cfa_register %rbp
	pushq	%r14
	pushq	%rbx
	subq	$96, %rsp
	.cfi_offset %rbx, -32
	.cfi_offset %r14, -24
	movq	%rdi, %r14
	movl	$24, %edi
	callq	__Znwm
	movq	%rax, %rbx
	movq	%rbx, %rdi
	callq	__ZN14altered_carbon2js10RefCountedINS0_14JsVariantArrayEEC1Ev
	movq	%r14, -32(%rbp)
	movq	%rbx, -24(%rbp)
	movq	-32(%rbp), %rax
	movq	-24(%rbp), %rcx
	movq	%rax, -48(%rbp)
	movq	%rcx, -40(%rbp)
	movq	-48(%rbp), %rax
	movq	%rax, -64(%rbp)
	leaq	-40(%rbp), %rax
	movq	%rax, -56(%rbp)
	movq	-64(%rbp), %rax
	movq	-56(%rbp), %rcx
	movq	%rax, -80(%rbp)
	movq	%rcx, -72(%rbp)
	movq	-80(%rbp), %rax
	movq	-72(%rbp), %rcx
	movq	%rcx, -88(%rbp)
	movq	-88(%rbp), %rcx
	movq	%rax, -104(%rbp)
	movq	%rcx, -96(%rbp)
	movq	-104(%rbp), %rax
	movq	-96(%rbp), %rcx
	movq	%rcx, -112(%rbp)
	movq	-112(%rbp), %rcx
	movq	(%rcx), %rcx
	movq	%rcx, (%rax)
	movq	%r14, %rax
	addq	$96, %rsp
	popq	%rbx
	popq	%r14
	popq	%rbp
	retq
	.cfi_endproc
                                        ## -- End function
	.globl	__ZN14altered_carbon2js9JsVariantC1ENS1_13JsVariantTypeE ## -- Begin function _ZN14altered_carbon2js9JsVariantC1ENS1_13JsVariantTypeE
	.p2align	4, 0x90
__ZN14altered_carbon2js9JsVariantC1ENS1_13JsVariantTypeE: ## @_ZN14altered_carbon2js9JsVariantC1ENS1_13JsVariantTypeE
	.cfi_startproc
## %bb.0:
	pushq	%rbp
	.cfi_def_cfa_offset 16
	.cfi_offset %rbp, -16
	movq	%rsp, %rbp
	.cfi_def_cfa_register %rbp
	subq	$16, %rsp
	movq	%rdi, -16(%rbp)
	movl	%esi, -4(%rbp)
	movq	-16(%rbp), %rdi
	movl	-4(%rbp), %esi
	callq	__ZN14altered_carbon2js9JsVariantC2ENS1_13JsVariantTypeE
	addq	$16, %rsp
	popq	%rbp
	retq
	.cfi_endproc
                                        ## -- End function
	.globl	__ZN14altered_carbon2js9JsVariantC2ENS1_13JsVariantTypeEPS1_ ## -- Begin function _ZN14altered_carbon2js9JsVariantC2ENS1_13JsVariantTypeEPS1_
	.p2align	4, 0x90
__ZN14altered_carbon2js9JsVariantC2ENS1_13JsVariantTypeEPS1_: ## @_ZN14altered_carbon2js9JsVariantC2ENS1_13JsVariantTypeEPS1_
	.cfi_startproc
## %bb.0:
	pushq	%rbp
	.cfi_def_cfa_offset 16
	.cfi_offset %rbp, -16
	movq	%rsp, %rbp
	.cfi_def_cfa_register %rbp
	pushq	%rbx
	subq	$184, %rsp
	.cfi_offset %rbx, -24
	movq	%rdi, -48(%rbp)
	movl	%esi, -20(%rbp)
	movq	%rdx, -16(%rbp)
	movq	-48(%rbp), %rbx
	leaq	__ZTVN14altered_carbon2js9JsVariantE+16(%rip), %rax
	movq	%rax, (%rbx)
	movl	-20(%rbp), %eax
	movl	%eax, 8(%rbx)
	movq	%rbx, %rdi
	addq	$16, %rdi
	xorl	%esi, %esi
	callq	__ZN14altered_carbon2js13RefCountedPtrINS0_9JsVariantEEC1EPNS0_10RefCountedIS2_EE
	movl	8(%rbx), %eax
	movl	%eax, %ecx
	subl	$7, %ecx
	je	LBB8_2
	jmp	LBB8_1
LBB8_1:
	subl	$11, %eax
	je	LBB8_3
	jmp	LBB8_14
LBB8_2:
	movq	-16(%rbp), %rax
	movq	%rax, 16(%rbx)
	jmp	LBB8_15
LBB8_3:
	cmpq	$0, -16(%rbp)
	setne	%al
	xorb	$-1, %al
	xorb	$-1, %al
	xorb	$-1, %al
	testb	$1, %al
	jne	LBB8_4
	jmp	LBB8_5
LBB8_4:
	leaq	L___func__._ZN14altered_carbon2js9JsVariantC2ENS1_13JsVariantTypeEPS1_(%rip), %rdi
	leaq	L_.str.1(%rip), %rsi
	leaq	L_.str.2(%rip), %rcx
	movl	$91, %edx
	callq	___assert_rtn
LBB8_5:
	jmp	LBB8_6
LBB8_6:
	movq	-16(%rbp), %rax
	cmpl	$11, 8(%rax)
	jne	LBB8_8
## %bb.7:
	addq	$16, %rbx
	movq	-16(%rbp), %rsi
	addq	$16, %rsi
	movq	%rbx, %rdi
	xorl	%edx, %edx
	callq	__ZN14altered_carbon2js13RefCountedPtrINS0_9JsVariantEE5resetERKS3_b
	jmp	LBB8_13
LBB8_8:
	addq	$16, %rbx
	movq	-16(%rbp), %rsi
	leaq	-32(%rbp), %rdi
	callq	__ZN4llvm11make_uniqueIN14altered_carbon2js10RefCountedINS2_9JsVariantEEEJRS4_EEENSt3__19enable_ifIXntsr3std8is_arrayIT_EE5valueENS7_10unique_ptrIS9_NS7_14default_deleteIS9_EEEEE4typeEDpOT0_
	leaq	-32(%rbp), %rax
	movq	%rax, -64(%rbp)
	movq	-64(%rbp), %rax
	movq	%rax, -72(%rbp)
	movq	-72(%rbp), %rcx
	movq	%rcx, -80(%rbp)
	movq	-80(%rbp), %rcx
	movq	(%rcx), %rcx
	movq	%rcx, -56(%rbp)
	movq	%rax, -88(%rbp)
	movq	-88(%rbp), %rax
	movq	%rax, -96(%rbp)
	movq	-96(%rbp), %rax
	movq	$0, (%rax)
	movq	-56(%rbp), %rsi
	movq	%rbx, %rdi
	xorl	%edx, %edx
	callq	__ZN14altered_carbon2js13RefCountedPtrINS0_9JsVariantEE5resetEPNS0_10RefCountedIS2_EEb
	leaq	-32(%rbp), %rax
	movq	%rax, -104(%rbp)
	movq	-104(%rbp), %rax
	movq	%rax, -112(%rbp)
	movq	-112(%rbp), %rax
	movq	%rax, -128(%rbp)
	movq	$0, -120(%rbp)
	movq	-128(%rbp), %rax
	movq	%rax, -136(%rbp)
	movq	-136(%rbp), %rcx
	movq	%rcx, -144(%rbp)
	movq	-144(%rbp), %rcx
	movq	(%rcx), %rcx
	movq	%rcx, -40(%rbp)
	movq	-120(%rbp), %rcx
	movq	%rax, -160(%rbp)
	movq	-160(%rbp), %rdx
	movq	%rdx, -168(%rbp)
	movq	-168(%rbp), %rdx
	movq	%rcx, (%rdx)
	cmpq	$0, -40(%rbp)
	je	LBB8_12
## %bb.9:
	movq	%rax, -176(%rbp)
	movq	-176(%rbp), %rax
	movq	%rax, -184(%rbp)
	movq	-184(%rbp), %rax
	movq	-40(%rbp), %rcx
	movq	%rax, -192(%rbp)
	movq	%rcx, -152(%rbp)
	movq	-152(%rbp), %rdi
	cmpq	$0, %rdi
	je	LBB8_11
## %bb.10:
	movq	(%rdi), %rax
	callq	*8(%rax)
LBB8_11:
	jmp	LBB8_12
LBB8_12:
	jmp	LBB8_13
LBB8_13:
	jmp	LBB8_15
LBB8_14:
	leaq	L___func__._ZN14altered_carbon2js9JsVariantC2ENS1_13JsVariantTypeEPS1_(%rip), %rdi
	leaq	L_.str.1(%rip), %rsi
	leaq	L_.str.3(%rip), %rcx
	movl	$99, %edx
	callq	___assert_rtn
LBB8_15:
	addq	$184, %rsp
	popq	%rbx
	popq	%rbp
	retq
	.cfi_endproc
                                        ## -- End function
	.private_extern	__ZN14altered_carbon2js13RefCountedPtrINS0_9JsVariantEEC1EPNS0_10RefCountedIS2_EE ## -- Begin function _ZN14altered_carbon2js13RefCountedPtrINS0_9JsVariantEEC1EPNS0_10RefCountedIS2_EE
	.globl	__ZN14altered_carbon2js13RefCountedPtrINS0_9JsVariantEEC1EPNS0_10RefCountedIS2_EE
	.weak_def_can_be_hidden	__ZN14altered_carbon2js13RefCountedPtrINS0_9JsVariantEEC1EPNS0_10RefCountedIS2_EE
	.p2align	4, 0x90
__ZN14altered_carbon2js13RefCountedPtrINS0_9JsVariantEEC1EPNS0_10RefCountedIS2_EE: ## @_ZN14altered_carbon2js13RefCountedPtrINS0_9JsVariantEEC1EPNS0_10RefCountedIS2_EE
	.cfi_startproc
## %bb.0:
	pushq	%rbp
	.cfi_def_cfa_offset 16
	.cfi_offset %rbp, -16
	movq	%rsp, %rbp
	.cfi_def_cfa_register %rbp
	subq	$16, %rsp
	movq	%rdi, -16(%rbp)
	movq	%rsi, -8(%rbp)
	movq	-16(%rbp), %rdi
	movq	-8(%rbp), %rsi
	callq	__ZN14altered_carbon2js13RefCountedPtrINS0_9JsVariantEEC2EPNS0_10RefCountedIS2_EE
	addq	$16, %rsp
	popq	%rbp
	retq
	.cfi_endproc
                                        ## -- End function
	.private_extern	__ZN14altered_carbon2js13RefCountedPtrINS0_9JsVariantEE5resetERKS3_b ## -- Begin function _ZN14altered_carbon2js13RefCountedPtrINS0_9JsVariantEE5resetERKS3_b
	.globl	__ZN14altered_carbon2js13RefCountedPtrINS0_9JsVariantEE5resetERKS3_b
	.weak_definition	__ZN14altered_carbon2js13RefCountedPtrINS0_9JsVariantEE5resetERKS3_b
	.p2align	4, 0x90
__ZN14altered_carbon2js13RefCountedPtrINS0_9JsVariantEE5resetERKS3_b: ## @_ZN14altered_carbon2js13RefCountedPtrINS0_9JsVariantEE5resetERKS3_b
	.cfi_startproc
## %bb.0:
	pushq	%rbp
	.cfi_def_cfa_offset 16
	.cfi_offset %rbp, -16
	movq	%rsp, %rbp
	.cfi_def_cfa_register %rbp
	pushq	%rbx
	subq	$72, %rsp
	.cfi_offset %rbx, -24
	movq	%rdi, -56(%rbp)
	movq	%rsi, -48(%rbp)
	andb	$1, %dl
	movb	%dl, -9(%rbp)
	movq	-56(%rbp), %rbx
	movb	-9(%rbp), %al
	andb	$1, %al
	movq	%rbx, %rdi
	movzbl	%al, %esi
	callq	__ZN14altered_carbon2js13RefCountedPtrINS0_9JsVariantEE5resetEb
	movq	-48(%rbp), %rax
	movq	(%rax), %rax
	movq	%rax, (%rbx)
	cmpq	$0, (%rbx)
	je	LBB10_9
## %bb.1:
	movq	(%rbx), %rax
	addq	$56, %rax
	movq	%rax, -72(%rbp)
	movq	$1, -64(%rbp)
	movl	$5, -36(%rbp)
	movq	-72(%rbp), %rax
	movl	-36(%rbp), %ecx
	movq	-64(%rbp), %rdx
	movq	%rdx, -24(%rbp)
	decl	%ecx
	movl	%ecx, %edx
	subl	$4, %edx
	ja	LBB10_3
## %bb.2:
	leaq	LJTI10_0(%rip), %rdx
	movslq	(%rdx,%rcx,4), %rcx
	addq	%rdx, %rcx
	jmpq	*%rcx
LBB10_3:
	movq	-24(%rbp), %rcx
	lock		xaddq	%rcx, (%rax)
	movq	%rcx, -32(%rbp)
	jmp	LBB10_8
LBB10_4:
	movq	-24(%rbp), %rcx
	lock		xaddq	%rcx, (%rax)
	movq	%rcx, -32(%rbp)
	jmp	LBB10_8
LBB10_5:
	movq	-24(%rbp), %rcx
	lock		xaddq	%rcx, (%rax)
	movq	%rcx, -32(%rbp)
	jmp	LBB10_8
LBB10_6:
	movq	-24(%rbp), %rcx
	lock		xaddq	%rcx, (%rax)
	movq	%rcx, -32(%rbp)
	jmp	LBB10_8
LBB10_7:
	movq	-24(%rbp), %rcx
	lock		xaddq	%rcx, (%rax)
	movq	%rcx, -32(%rbp)
LBB10_8:
LBB10_9:
	addq	$72, %rsp
	popq	%rbx
	popq	%rbp
	retq
	.cfi_endproc
	.p2align	2, 0x90
	.data_region jt32
.set L10_0_set_4, LBB10_4-LJTI10_0
.set L10_0_set_5, LBB10_5-LJTI10_0
.set L10_0_set_6, LBB10_6-LJTI10_0
.set L10_0_set_7, LBB10_7-LJTI10_0
LJTI10_0:
	.long	L10_0_set_4
	.long	L10_0_set_4
	.long	L10_0_set_5
	.long	L10_0_set_6
	.long	L10_0_set_7
	.end_data_region
                                        ## -- End function
	.private_extern	__ZN14altered_carbon2js13RefCountedPtrINS0_9JsVariantEE5resetEPNS0_10RefCountedIS2_EEb ## -- Begin function _ZN14altered_carbon2js13RefCountedPtrINS0_9JsVariantEE5resetEPNS0_10RefCountedIS2_EEb
	.globl	__ZN14altered_carbon2js13RefCountedPtrINS0_9JsVariantEE5resetEPNS0_10RefCountedIS2_EEb
	.weak_definition	__ZN14altered_carbon2js13RefCountedPtrINS0_9JsVariantEE5resetEPNS0_10RefCountedIS2_EEb
	.p2align	4, 0x90
__ZN14altered_carbon2js13RefCountedPtrINS0_9JsVariantEE5resetEPNS0_10RefCountedIS2_EEb: ## @_ZN14altered_carbon2js13RefCountedPtrINS0_9JsVariantEE5resetEPNS0_10RefCountedIS2_EEb
	.cfi_startproc
## %bb.0:
	pushq	%rbp
	.cfi_def_cfa_offset 16
	.cfi_offset %rbp, -16
	movq	%rsp, %rbp
	.cfi_def_cfa_register %rbp
	pushq	%rbx
	subq	$72, %rsp
	.cfi_offset %rbx, -24
	movq	%rdi, -56(%rbp)
	movq	%rsi, -48(%rbp)
	andb	$1, %dl
	movb	%dl, -9(%rbp)
	movq	-56(%rbp), %rbx
	movb	-9(%rbp), %al
	andb	$1, %al
	movq	%rbx, %rdi
	movzbl	%al, %esi
	callq	__ZN14altered_carbon2js13RefCountedPtrINS0_9JsVariantEE5resetEb
	movq	-48(%rbp), %rax
	movq	%rax, (%rbx)
	cmpq	$0, (%rbx)
	je	LBB11_9
## %bb.1:
	movq	(%rbx), %rax
	addq	$56, %rax
	movq	%rax, -72(%rbp)
	movq	$1, -64(%rbp)
	movl	$5, -36(%rbp)
	movq	-72(%rbp), %rax
	movl	-36(%rbp), %ecx
	movq	-64(%rbp), %rdx
	movq	%rdx, -24(%rbp)
	decl	%ecx
	movl	%ecx, %edx
	subl	$4, %edx
	ja	LBB11_3
## %bb.2:
	leaq	LJTI11_0(%rip), %rdx
	movslq	(%rdx,%rcx,4), %rcx
	addq	%rdx, %rcx
	jmpq	*%rcx
LBB11_3:
	movq	-24(%rbp), %rcx
	lock		xaddq	%rcx, (%rax)
	movq	%rcx, -32(%rbp)
	jmp	LBB11_8
LBB11_4:
	movq	-24(%rbp), %rcx
	lock		xaddq	%rcx, (%rax)
	movq	%rcx, -32(%rbp)
	jmp	LBB11_8
LBB11_5:
	movq	-24(%rbp), %rcx
	lock		xaddq	%rcx, (%rax)
	movq	%rcx, -32(%rbp)
	jmp	LBB11_8
LBB11_6:
	movq	-24(%rbp), %rcx
	lock		xaddq	%rcx, (%rax)
	movq	%rcx, -32(%rbp)
	jmp	LBB11_8
LBB11_7:
	movq	-24(%rbp), %rcx
	lock		xaddq	%rcx, (%rax)
	movq	%rcx, -32(%rbp)
LBB11_8:
LBB11_9:
	addq	$72, %rsp
	popq	%rbx
	popq	%rbp
	retq
	.cfi_endproc
	.p2align	2, 0x90
	.data_region jt32
.set L11_0_set_4, LBB11_4-LJTI11_0
.set L11_0_set_5, LBB11_5-LJTI11_0
.set L11_0_set_6, LBB11_6-LJTI11_0
.set L11_0_set_7, LBB11_7-LJTI11_0
LJTI11_0:
	.long	L11_0_set_4
	.long	L11_0_set_4
	.long	L11_0_set_5
	.long	L11_0_set_6
	.long	L11_0_set_7
	.end_data_region
                                        ## -- End function
	.globl	__ZN4llvm11make_uniqueIN14altered_carbon2js10RefCountedINS2_9JsVariantEEEJRS4_EEENSt3__19enable_ifIXntsr3std8is_arrayIT_EE5valueENS7_10unique_ptrIS9_NS7_14default_deleteIS9_EEEEE4typeEDpOT0_ ## -- Begin function _ZN4llvm11make_uniqueIN14altered_carbon2js10RefCountedINS2_9JsVariantEEEJRS4_EEENSt3__19enable_ifIXntsr3std8is_arrayIT_EE5valueENS7_10unique_ptrIS9_NS7_14default_deleteIS9_EEEEE4typeEDpOT0_
	.weak_definition	__ZN4llvm11make_uniqueIN14altered_carbon2js10RefCountedINS2_9JsVariantEEEJRS4_EEENSt3__19enable_ifIXntsr3std8is_arrayIT_EE5valueENS7_10unique_ptrIS9_NS7_14default_deleteIS9_EEEEE4typeEDpOT0_
	.p2align	4, 0x90
__ZN4llvm11make_uniqueIN14altered_carbon2js10RefCountedINS2_9JsVariantEEEJRS4_EEENSt3__19enable_ifIXntsr3std8is_arrayIT_EE5valueENS7_10unique_ptrIS9_NS7_14default_deleteIS9_EEEEE4typeEDpOT0_: ## @_ZN4llvm11make_uniqueIN14altered_carbon2js10RefCountedINS2_9JsVariantEEEJRS4_EEENSt3__19enable_ifIXntsr3std8is_arrayIT_EE5valueENS7_10unique_ptrIS9_NS7_14default_deleteIS9_EEEEE4typeEDpOT0_
	.cfi_startproc
## %bb.0:
	pushq	%rbp
	.cfi_def_cfa_offset 16
	.cfi_offset %rbp, -16
	movq	%rsp, %rbp
	.cfi_def_cfa_register %rbp
	pushq	%r14
	pushq	%rbx
	subq	$112, %rsp
	.cfi_offset %rbx, -32
	.cfi_offset %r14, -24
	movq	%rdi, %r14
	movq	%rsi, -24(%rbp)
	movl	$64, %edi
	callq	__Znwm
	movq	%rax, %rbx
	movq	-24(%rbp), %rax
	movq	%rax, -32(%rbp)
	movq	-32(%rbp), %rsi
	movq	%rbx, %rdi
	callq	__ZN14altered_carbon2js10RefCountedINS0_9JsVariantEEC1ERS2_
	movq	%r14, -48(%rbp)
	movq	%rbx, -40(%rbp)
	movq	-48(%rbp), %rax
	movq	-40(%rbp), %rcx
	movq	%rax, -64(%rbp)
	movq	%rcx, -56(%rbp)
	movq	-64(%rbp), %rax
	movq	%rax, -80(%rbp)
	leaq	-56(%rbp), %rax
	movq	%rax, -72(%rbp)
	movq	-80(%rbp), %rax
	movq	-72(%rbp), %rcx
	movq	%rax, -96(%rbp)
	movq	%rcx, -88(%rbp)
	movq	-96(%rbp), %rax
	movq	-88(%rbp), %rcx
	movq	%rcx, -104(%rbp)
	movq	-104(%rbp), %rcx
	movq	%rax, -120(%rbp)
	movq	%rcx, -112(%rbp)
	movq	-120(%rbp), %rax
	movq	-112(%rbp), %rcx
	movq	%rcx, -128(%rbp)
	movq	-128(%rbp), %rcx
	movq	(%rcx), %rcx
	movq	%rcx, (%rax)
	movq	%r14, %rax
	addq	$112, %rsp
	popq	%rbx
	popq	%r14
	popq	%rbp
	retq
	.cfi_endproc
                                        ## -- End function
	.globl	__ZN14altered_carbon2js9JsVariantC1ENS1_13JsVariantTypeEPS1_ ## -- Begin function _ZN14altered_carbon2js9JsVariantC1ENS1_13JsVariantTypeEPS1_
	.p2align	4, 0x90
__ZN14altered_carbon2js9JsVariantC1ENS1_13JsVariantTypeEPS1_: ## @_ZN14altered_carbon2js9JsVariantC1ENS1_13JsVariantTypeEPS1_
	.cfi_startproc
## %bb.0:
	pushq	%rbp
	.cfi_def_cfa_offset 16
	.cfi_offset %rbp, -16
	movq	%rsp, %rbp
	.cfi_def_cfa_register %rbp
	subq	$32, %rsp
	movq	%rdi, -24(%rbp)
	movl	%esi, -4(%rbp)
	movq	%rdx, -16(%rbp)
	movq	-24(%rbp), %rdi
	movl	-4(%rbp), %esi
	movq	-16(%rbp), %rdx
	callq	__ZN14altered_carbon2js9JsVariantC2ENS1_13JsVariantTypeEPS1_
	addq	$32, %rsp
	popq	%rbp
	retq
	.cfi_endproc
                                        ## -- End function
	.globl	__ZN14altered_carbon2js9JsVariantC2ERKS1_ ## -- Begin function _ZN14altered_carbon2js9JsVariantC2ERKS1_
	.p2align	4, 0x90
__ZN14altered_carbon2js9JsVariantC2ERKS1_: ## @_ZN14altered_carbon2js9JsVariantC2ERKS1_
	.cfi_startproc
## %bb.0:
	pushq	%rbp
	.cfi_def_cfa_offset 16
	.cfi_offset %rbp, -16
	movq	%rsp, %rbp
	.cfi_def_cfa_register %rbp
	pushq	%r14
	pushq	%rbx
	subq	$192, %rsp
	.cfi_offset %rbx, -32
	.cfi_offset %r14, -24
	leaq	__ZTVN14altered_carbon2js9JsVariantE(%rip), %rax
	addq	$16, %rax
	movq	%rdi, -48(%rbp)
	movq	%rsi, -24(%rbp)
	movq	-48(%rbp), %rbx
	movq	%rax, (%rbx)
	movq	-24(%rbp), %rax
	movl	8(%rax), %eax
	movl	%eax, 8(%rbx)
## %bb.1:
	cmpl	$2, 8(%rbx)
	jne	LBB14_3
## %bb.2:
	movq	-24(%rbp), %rax
	movq	16(%rax), %rcx
	movq	%rcx, 16(%rbx)
	movq	24(%rax), %rcx
	movq	%rcx, 24(%rbx)
	movb	32(%rax), %al
	movb	%al, 32(%rbx)
	jmp	LBB14_22
LBB14_3:
	movl	8(%rbx), %eax
	addl	$2, %eax
	movl	%eax, %ecx
	subl	$17, %ecx
	ja	LBB14_20
## %bb.4:
	leaq	LJTI14_0(%rip), %rcx
	movslq	(%rcx,%rax,4), %rax
	addq	%rcx, %rax
	jmpq	*%rax
LBB14_5:
	movq	-24(%rbp), %rax
	movq	16(%rax), %rax
	movq	%rax, 16(%rbx)
	jmp	LBB14_21
LBB14_6:
	movq	-24(%rbp), %rsi
	addq	$16, %rsi
	addq	$16, %rbx
	movq	%rbx, %rdi
	callq	__ZN14altered_carbon2js10ACLexRegexaSERKS1_
	jmp	LBB14_21
LBB14_7:
	movq	-24(%rbp), %rax
	movb	16(%rax), %al
	andb	$1, %al
	movb	%al, 16(%rbx)
	jmp	LBB14_21
LBB14_8:
	leaq	-40(%rbp), %rdi
	leaq	l_.str(%rip), %rsi
	callq	__ZN4llvm11make_uniqueINSt3__112basic_stringIwNS1_11char_traitsIwEENS1_9allocatorIwEEEEJRA1_KwEEENS1_9enable_ifIXntsr3std8is_arrayIT_EE5valueENS1_10unique_ptrISC_NS1_14default_deleteISC_EEEEE4typeEDpOT0_
	leaq	-40(%rbp), %rax
	movq	%rax, -64(%rbp)
	movq	-64(%rbp), %rcx
	movq	%rcx, -72(%rbp)
	movq	-72(%rbp), %rdx
	movq	%rdx, -80(%rbp)
	movq	-80(%rbp), %rdx
	movq	(%rdx), %rdx
	movq	%rdx, -56(%rbp)
	movq	%rcx, -88(%rbp)
	movq	-88(%rbp), %rcx
	movq	%rcx, -96(%rbp)
	movq	-96(%rbp), %rcx
	movq	$0, (%rcx)
	movq	-56(%rbp), %rcx
	movq	%rcx, 16(%rbx)
	movq	%rax, -104(%rbp)
	movq	-104(%rbp), %rax
	movq	%rax, -112(%rbp)
	movq	-112(%rbp), %rax
	movq	%rax, -128(%rbp)
	movq	$0, -120(%rbp)
	movq	-128(%rbp), %rax
	movq	%rax, -136(%rbp)
	movq	-136(%rbp), %rcx
	movq	%rcx, -144(%rbp)
	movq	-144(%rbp), %rcx
	movq	(%rcx), %rcx
	movq	%rcx, -32(%rbp)
	movq	-120(%rbp), %rcx
	movq	%rax, -160(%rbp)
	movq	-160(%rbp), %rdx
	movq	%rdx, -168(%rbp)
	movq	-168(%rbp), %rdx
	movq	%rcx, (%rdx)
	cmpq	$0, -32(%rbp)
	je	LBB14_12
## %bb.9:
	movq	%rax, -176(%rbp)
	movq	-176(%rbp), %rax
	movq	%rax, -184(%rbp)
	movq	-184(%rbp), %rax
	movq	-32(%rbp), %rcx
	movq	%rax, -208(%rbp)
	movq	%rcx, -152(%rbp)
	movq	-152(%rbp), %r14
	cmpq	$0, %r14
	je	LBB14_11
## %bb.10:
	movq	%r14, %rdi
	callq	__ZNSt3__112basic_stringIwNS_11char_traitsIwEENS_9allocatorIwEEED1Ev
	movq	%r14, %rdi
	callq	__ZdlPv
LBB14_11:
	jmp	LBB14_12
LBB14_12:
	movq	-24(%rbp), %rax
	cmpq	$0, 16(%rax)
	setne	%al
	xorb	$-1, %al
	xorb	$-1, %al
	xorb	$-1, %al
	testb	$1, %al
	jne	LBB14_13
	jmp	LBB14_14
LBB14_13:
	leaq	L___func__._ZN14altered_carbon2js9JsVariantC2ENS1_13JsVariantTypeEPS1_(%rip), %rdi
	leaq	L_.str.1(%rip), %rsi
	leaq	L_.str.4(%rip), %rcx
	movl	$136, %edx
	callq	___assert_rtn
LBB14_14:
	jmp	LBB14_15
LBB14_15:
	movq	16(%rbx), %rax
	movq	-24(%rbp), %rcx
	movq	16(%rcx), %rcx
	movq	%rax, -200(%rbp)
	movq	%rcx, -192(%rbp)
	movq	-200(%rbp), %rdi
	movq	-192(%rbp), %rsi
	callq	__ZNSt3__112basic_stringIwNS_11char_traitsIwEENS_9allocatorIwEEEaSERKS5_
	jmp	LBB14_21
LBB14_16:
	movq	-24(%rbp), %rax
	movq	16(%rax), %rax
	movq	%rax, 16(%rbx)
	jmp	LBB14_21
LBB14_17:
	movq	%rbx, %rdi
	addq	$16, %rdi
	movl	$1, %esi
	callq	__ZN14altered_carbon2js13RefCountedPtrINS0_9JsVariantEE5resetEb
	movq	-24(%rbp), %rsi
	addq	$16, %rsi
	addq	$16, %rbx
	movq	%rbx, %rdi
	callq	__ZN14altered_carbon2js13RefCountedPtrINS0_9JsVariantEEaSERKS3_
	jmp	LBB14_21
LBB14_18:
	movq	%rbx, %rdi
	addq	$16, %rdi
	movl	$1, %esi
	callq	__ZN14altered_carbon2js13RefCountedPtrINS0_14JsVariantArrayEE5resetEb
	movq	-24(%rbp), %rsi
	addq	$16, %rsi
	addq	$16, %rbx
	movq	%rbx, %rdi
	callq	__ZN14altered_carbon2js13RefCountedPtrINS0_14JsVariantArrayEEaSERKS3_
	jmp	LBB14_21
LBB14_19:
	movq	%rbx, %rdi
	addq	$16, %rdi
	movl	$1, %esi
	callq	__ZN14altered_carbon2js13JsVariantFunc5resetEb
	movq	-24(%rbp), %rsi
	addq	$16, %rsi
	addq	$16, %rbx
	movq	%rbx, %rdi
	callq	__ZN14altered_carbon2js13JsVariantFuncaSERKS1_
	jmp	LBB14_21
LBB14_20:
	jmp	LBB14_21
LBB14_21:
	jmp	LBB14_22
LBB14_22:
	addq	$192, %rsp
	popq	%rbx
	popq	%r14
	popq	%rbp
	retq
	.cfi_endproc
	.p2align	2, 0x90
	.data_region jt32
.set L14_0_set_5, LBB14_5-LJTI14_0
.set L14_0_set_20, LBB14_20-LJTI14_0
.set L14_0_set_6, LBB14_6-LJTI14_0
.set L14_0_set_7, LBB14_7-LJTI14_0
.set L14_0_set_16, LBB14_16-LJTI14_0
.set L14_0_set_8, LBB14_8-LJTI14_0
.set L14_0_set_17, LBB14_17-LJTI14_0
.set L14_0_set_18, LBB14_18-LJTI14_0
.set L14_0_set_19, LBB14_19-LJTI14_0
LJTI14_0:
	.long	L14_0_set_5
	.long	L14_0_set_20
	.long	L14_0_set_20
	.long	L14_0_set_20
	.long	L14_0_set_20
	.long	L14_0_set_20
	.long	L14_0_set_20
	.long	L14_0_set_6
	.long	L14_0_set_7
	.long	L14_0_set_16
	.long	L14_0_set_20
	.long	L14_0_set_20
	.long	L14_0_set_8
	.long	L14_0_set_17
	.long	L14_0_set_18
	.long	L14_0_set_17
	.long	L14_0_set_18
	.long	L14_0_set_19
	.end_data_region
                                        ## -- End function
	.private_extern	__ZN14altered_carbon2js10ACLexRegexaSERKS1_ ## -- Begin function _ZN14altered_carbon2js10ACLexRegexaSERKS1_
	.globl	__ZN14altered_carbon2js10ACLexRegexaSERKS1_
	.weak_definition	__ZN14altered_carbon2js10ACLexRegexaSERKS1_
	.p2align	4, 0x90
__ZN14altered_carbon2js10ACLexRegexaSERKS1_: ## @_ZN14altered_carbon2js10ACLexRegexaSERKS1_
	.cfi_startproc
## %bb.0:
	pushq	%rbp
	.cfi_def_cfa_offset 16
	.cfi_offset %rbp, -16
	movq	%rsp, %rbp
	.cfi_def_cfa_register %rbp
	pushq	%rbx
	subq	$24, %rsp
	.cfi_offset %rbx, -24
	movq	%rdi, -24(%rbp)
	movq	%rsi, -16(%rbp)
	movq	-24(%rbp), %rbx
	movq	%rbx, %rdi
	addq	$8, %rdi
	movq	-16(%rbp), %rsi
	addq	$8, %rsi
	callq	__ZNSt3__112basic_stringIcNS_11char_traitsIcEENS_9allocatorIcEEEaSERKS5_
	movq	-16(%rbp), %rax
	movw	32(%rax), %cx
	movw	%cx, 32(%rbx)
	movb	34(%rax), %al
	movb	%al, 34(%rbx)
	movq	%rbx, %rax
	addq	$24, %rsp
	popq	%rbx
	popq	%rbp
	retq
	.cfi_endproc
                                        ## -- End function
	.private_extern	__ZN14altered_carbon2js13RefCountedPtrINS0_9JsVariantEEaSERKS3_ ## -- Begin function _ZN14altered_carbon2js13RefCountedPtrINS0_9JsVariantEEaSERKS3_
	.globl	__ZN14altered_carbon2js13RefCountedPtrINS0_9JsVariantEEaSERKS3_
	.weak_definition	__ZN14altered_carbon2js13RefCountedPtrINS0_9JsVariantEEaSERKS3_
	.p2align	4, 0x90
__ZN14altered_carbon2js13RefCountedPtrINS0_9JsVariantEEaSERKS3_: ## @_ZN14altered_carbon2js13RefCountedPtrINS0_9JsVariantEEaSERKS3_
	.cfi_startproc
## %bb.0:
	pushq	%rbp
	.cfi_def_cfa_offset 16
	.cfi_offset %rbp, -16
	movq	%rsp, %rbp
	.cfi_def_cfa_register %rbp
	pushq	%rbx
	subq	$104, %rsp
	.cfi_offset %rbx, -24
	movq	%rdi, -72(%rbp)
	movq	%rsi, -64(%rbp)
	movq	-72(%rbp), %rbx
	movq	(%rbx), %rax
	movq	%rax, -48(%rbp)
	movq	-64(%rbp), %rax
	movq	(%rax), %rax
	movq	%rax, (%rbx)
	cmpq	$0, (%rbx)
	je	LBB16_9
## %bb.1:
	movq	(%rbx), %rax
	addq	$56, %rax
	movq	%rax, -88(%rbp)
	movq	$1, -80(%rbp)
	movl	$5, -52(%rbp)
	movq	-88(%rbp), %rax
	movl	-52(%rbp), %ecx
	movq	-80(%rbp), %rdx
	movq	%rdx, -16(%rbp)
	decl	%ecx
	movl	%ecx, %edx
	subl	$4, %edx
	ja	LBB16_3
## %bb.2:
	leaq	LJTI16_0(%rip), %rdx
	movslq	(%rdx,%rcx,4), %rcx
	addq	%rdx, %rcx
	jmpq	*%rcx
LBB16_3:
	movq	-16(%rbp), %rcx
	lock		xaddq	%rcx, (%rax)
	movq	%rcx, -40(%rbp)
	jmp	LBB16_8
LBB16_4:
	movq	-16(%rbp), %rcx
	lock		xaddq	%rcx, (%rax)
	movq	%rcx, -40(%rbp)
	jmp	LBB16_8
LBB16_5:
	movq	-16(%rbp), %rcx
	lock		xaddq	%rcx, (%rax)
	movq	%rcx, -40(%rbp)
	jmp	LBB16_8
LBB16_6:
	movq	-16(%rbp), %rcx
	lock		xaddq	%rcx, (%rax)
	movq	%rcx, -40(%rbp)
	jmp	LBB16_8
LBB16_7:
	movq	-16(%rbp), %rcx
	lock		xaddq	%rcx, (%rax)
	movq	%rcx, -40(%rbp)
LBB16_8:
LBB16_9:
	cmpq	$0, -48(%rbp)
	je	LBB16_21
## %bb.10:
	movq	-48(%rbp), %rax
	addq	$56, %rax
	movq	%rax, -104(%rbp)
	movq	$1, -96(%rbp)
	movl	$5, -56(%rbp)
	movq	-104(%rbp), %rax
	movl	-56(%rbp), %ecx
	movq	-96(%rbp), %rdx
	movq	%rdx, -32(%rbp)
	decl	%ecx
	movl	%ecx, %edx
	subl	$4, %edx
	ja	LBB16_12
## %bb.11:
	leaq	LJTI16_1(%rip), %rdx
	movslq	(%rdx,%rcx,4), %rcx
	addq	%rdx, %rcx
	jmpq	*%rcx
LBB16_12:
	movq	-32(%rbp), %rcx
	negq	%rcx
	lock		xaddq	%rcx, (%rax)
	movq	%rcx, -24(%rbp)
	jmp	LBB16_17
LBB16_13:
	movq	-32(%rbp), %rcx
	negq	%rcx
	lock		xaddq	%rcx, (%rax)
	movq	%rcx, -24(%rbp)
	jmp	LBB16_17
LBB16_14:
	movq	-32(%rbp), %rcx
	negq	%rcx
	lock		xaddq	%rcx, (%rax)
	movq	%rcx, -24(%rbp)
	jmp	LBB16_17
LBB16_15:
	movq	-32(%rbp), %rcx
	negq	%rcx
	lock		xaddq	%rcx, (%rax)
	movq	%rcx, -24(%rbp)
	jmp	LBB16_17
LBB16_16:
	movq	-32(%rbp), %rcx
	negq	%rcx
	lock		xaddq	%rcx, (%rax)
	movq	%rcx, -24(%rbp)
LBB16_17:
	cmpq	$1, -24(%rbp)
	jne	LBB16_21
## %bb.18:
	movq	-48(%rbp), %rdi
	cmpq	$0, %rdi
	je	LBB16_20
## %bb.19:
	movq	(%rdi), %rax
	callq	*8(%rax)
LBB16_20:
	jmp	LBB16_21
LBB16_21:
	movq	%rbx, %rax
	addq	$104, %rsp
	popq	%rbx
	popq	%rbp
	retq
	.cfi_endproc
	.p2align	2, 0x90
	.data_region jt32
.set L16_0_set_4, LBB16_4-LJTI16_0
.set L16_0_set_5, LBB16_5-LJTI16_0
.set L16_0_set_6, LBB16_6-LJTI16_0
.set L16_0_set_7, LBB16_7-LJTI16_0
LJTI16_0:
	.long	L16_0_set_4
	.long	L16_0_set_4
	.long	L16_0_set_5
	.long	L16_0_set_6
	.long	L16_0_set_7
.set L16_1_set_13, LBB16_13-LJTI16_1
.set L16_1_set_14, LBB16_14-LJTI16_1
.set L16_1_set_15, LBB16_15-LJTI16_1
.set L16_1_set_16, LBB16_16-LJTI16_1
LJTI16_1:
	.long	L16_1_set_13
	.long	L16_1_set_13
	.long	L16_1_set_14
	.long	L16_1_set_15
	.long	L16_1_set_16
	.end_data_region
                                        ## -- End function
	.private_extern	__ZN14altered_carbon2js13RefCountedPtrINS0_14JsVariantArrayEEaSERKS3_ ## -- Begin function _ZN14altered_carbon2js13RefCountedPtrINS0_14JsVariantArrayEEaSERKS3_
	.globl	__ZN14altered_carbon2js13RefCountedPtrINS0_14JsVariantArrayEEaSERKS3_
	.weak_definition	__ZN14altered_carbon2js13RefCountedPtrINS0_14JsVariantArrayEEaSERKS3_
	.p2align	4, 0x90
__ZN14altered_carbon2js13RefCountedPtrINS0_14JsVariantArrayEEaSERKS3_: ## @_ZN14altered_carbon2js13RefCountedPtrINS0_14JsVariantArrayEEaSERKS3_
	.cfi_startproc
## %bb.0:
	pushq	%rbp
	.cfi_def_cfa_offset 16
	.cfi_offset %rbp, -16
	movq	%rsp, %rbp
	.cfi_def_cfa_register %rbp
	pushq	%rbx
	subq	$104, %rsp
	.cfi_offset %rbx, -24
	movq	%rdi, -72(%rbp)
	movq	%rsi, -64(%rbp)
	movq	-72(%rbp), %rbx
	movq	(%rbx), %rax
	movq	%rax, -48(%rbp)
	movq	-64(%rbp), %rax
	movq	(%rax), %rax
	movq	%rax, (%rbx)
	cmpq	$0, (%rbx)
	je	LBB17_9
## %bb.1:
	movq	(%rbx), %rax
	addq	$16, %rax
	movq	%rax, -88(%rbp)
	movq	$1, -80(%rbp)
	movl	$5, -52(%rbp)
	movq	-88(%rbp), %rax
	movl	-52(%rbp), %ecx
	movq	-80(%rbp), %rdx
	movq	%rdx, -16(%rbp)
	decl	%ecx
	movl	%ecx, %edx
	subl	$4, %edx
	ja	LBB17_3
## %bb.2:
	leaq	LJTI17_0(%rip), %rdx
	movslq	(%rdx,%rcx,4), %rcx
	addq	%rdx, %rcx
	jmpq	*%rcx
LBB17_3:
	movq	-16(%rbp), %rcx
	lock		xaddq	%rcx, (%rax)
	movq	%rcx, -40(%rbp)
	jmp	LBB17_8
LBB17_4:
	movq	-16(%rbp), %rcx
	lock		xaddq	%rcx, (%rax)
	movq	%rcx, -40(%rbp)
	jmp	LBB17_8
LBB17_5:
	movq	-16(%rbp), %rcx
	lock		xaddq	%rcx, (%rax)
	movq	%rcx, -40(%rbp)
	jmp	LBB17_8
LBB17_6:
	movq	-16(%rbp), %rcx
	lock		xaddq	%rcx, (%rax)
	movq	%rcx, -40(%rbp)
	jmp	LBB17_8
LBB17_7:
	movq	-16(%rbp), %rcx
	lock		xaddq	%rcx, (%rax)
	movq	%rcx, -40(%rbp)
LBB17_8:
LBB17_9:
	cmpq	$0, -48(%rbp)
	je	LBB17_21
## %bb.10:
	movq	-48(%rbp), %rax
	addq	$16, %rax
	movq	%rax, -104(%rbp)
	movq	$1, -96(%rbp)
	movl	$5, -56(%rbp)
	movq	-104(%rbp), %rax
	movl	-56(%rbp), %ecx
	movq	-96(%rbp), %rdx
	movq	%rdx, -32(%rbp)
	decl	%ecx
	movl	%ecx, %edx
	subl	$4, %edx
	ja	LBB17_12
## %bb.11:
	leaq	LJTI17_1(%rip), %rdx
	movslq	(%rdx,%rcx,4), %rcx
	addq	%rdx, %rcx
	jmpq	*%rcx
LBB17_12:
	movq	-32(%rbp), %rcx
	negq	%rcx
	lock		xaddq	%rcx, (%rax)
	movq	%rcx, -24(%rbp)
	jmp	LBB17_17
LBB17_13:
	movq	-32(%rbp), %rcx
	negq	%rcx
	lock		xaddq	%rcx, (%rax)
	movq	%rcx, -24(%rbp)
	jmp	LBB17_17
LBB17_14:
	movq	-32(%rbp), %rcx
	negq	%rcx
	lock		xaddq	%rcx, (%rax)
	movq	%rcx, -24(%rbp)
	jmp	LBB17_17
LBB17_15:
	movq	-32(%rbp), %rcx
	negq	%rcx
	lock		xaddq	%rcx, (%rax)
	movq	%rcx, -24(%rbp)
	jmp	LBB17_17
LBB17_16:
	movq	-32(%rbp), %rcx
	negq	%rcx
	lock		xaddq	%rcx, (%rax)
	movq	%rcx, -24(%rbp)
LBB17_17:
	cmpq	$1, -24(%rbp)
	jne	LBB17_21
## %bb.18:
	movq	-48(%rbp), %rdi
	cmpq	$0, %rdi
	je	LBB17_20
## %bb.19:
	movq	(%rdi), %rax
	callq	*8(%rax)
LBB17_20:
	jmp	LBB17_21
LBB17_21:
	movq	%rbx, %rax
	addq	$104, %rsp
	popq	%rbx
	popq	%rbp
	retq
	.cfi_endproc
	.p2align	2, 0x90
	.data_region jt32
.set L17_0_set_4, LBB17_4-LJTI17_0
.set L17_0_set_5, LBB17_5-LJTI17_0
.set L17_0_set_6, LBB17_6-LJTI17_0
.set L17_0_set_7, LBB17_7-LJTI17_0
LJTI17_0:
	.long	L17_0_set_4
	.long	L17_0_set_4
	.long	L17_0_set_5
	.long	L17_0_set_6
	.long	L17_0_set_7
.set L17_1_set_13, LBB17_13-LJTI17_1
.set L17_1_set_14, LBB17_14-LJTI17_1
.set L17_1_set_15, LBB17_15-LJTI17_1
.set L17_1_set_16, LBB17_16-LJTI17_1
LJTI17_1:
	.long	L17_1_set_13
	.long	L17_1_set_13
	.long	L17_1_set_14
	.long	L17_1_set_15
	.long	L17_1_set_16
	.end_data_region
                                        ## -- End function
	.private_extern	__ZN14altered_carbon2js13JsVariantFuncaSERKS1_ ## -- Begin function _ZN14altered_carbon2js13JsVariantFuncaSERKS1_
	.globl	__ZN14altered_carbon2js13JsVariantFuncaSERKS1_
	.weak_definition	__ZN14altered_carbon2js13JsVariantFuncaSERKS1_
	.p2align	4, 0x90
__ZN14altered_carbon2js13JsVariantFuncaSERKS1_: ## @_ZN14altered_carbon2js13JsVariantFuncaSERKS1_
	.cfi_startproc
## %bb.0:
	pushq	%rbp
	.cfi_def_cfa_offset 16
	.cfi_offset %rbp, -16
	movq	%rsp, %rbp
	.cfi_def_cfa_register %rbp
	pushq	%rbx
	subq	$24, %rsp
	.cfi_offset %rbx, -24
	movq	%rdi, -24(%rbp)
	movq	%rsi, -16(%rbp)
	movq	-24(%rbp), %rbx
	movq	-16(%rbp), %rsi
	movq	%rbx, %rdi
	callq	__ZN14altered_carbon2js13JsVariantFunc6assignERKS1_
	movq	%rbx, %rax
	addq	$24, %rsp
	popq	%rbx
	popq	%rbp
	retq
	.cfi_endproc
                                        ## -- End function
	.globl	__ZN14altered_carbon2js9JsVariantC1ERKS1_ ## -- Begin function _ZN14altered_carbon2js9JsVariantC1ERKS1_
	.p2align	4, 0x90
__ZN14altered_carbon2js9JsVariantC1ERKS1_: ## @_ZN14altered_carbon2js9JsVariantC1ERKS1_
	.cfi_startproc
## %bb.0:
	pushq	%rbp
	.cfi_def_cfa_offset 16
	.cfi_offset %rbp, -16
	movq	%rsp, %rbp
	.cfi_def_cfa_register %rbp
	subq	$16, %rsp
	movq	%rdi, -16(%rbp)
	movq	%rsi, -8(%rbp)
	movq	-16(%rbp), %rdi
	movq	-8(%rbp), %rsi
	callq	__ZN14altered_carbon2js9JsVariantC2ERKS1_
	addq	$16, %rsp
	popq	%rbp
	retq
	.cfi_endproc
                                        ## -- End function
	.globl	__ZN14altered_carbon2js9JsVariantC2ERKNS0_15JsVariantNumberE ## -- Begin function _ZN14altered_carbon2js9JsVariantC2ERKNS0_15JsVariantNumberE
	.p2align	4, 0x90
__ZN14altered_carbon2js9JsVariantC2ERKNS0_15JsVariantNumberE: ## @_ZN14altered_carbon2js9JsVariantC2ERKNS0_15JsVariantNumberE
	.cfi_startproc
## %bb.0:
	pushq	%rbp
	.cfi_def_cfa_offset 16
	.cfi_offset %rbp, -16
	movq	%rsp, %rbp
	.cfi_def_cfa_register %rbp
	leaq	__ZTVN14altered_carbon2js9JsVariantE(%rip), %rax
	addq	$16, %rax
	movq	%rdi, -16(%rbp)
	movq	%rsi, -8(%rbp)
	movq	-16(%rbp), %rcx
	movq	%rax, (%rcx)
	movl	$2, 8(%rcx)
	movq	-8(%rbp), %rax
	movq	(%rax), %rdx
	movq	%rdx, 16(%rcx)
	movq	8(%rax), %rdx
	movq	%rdx, 24(%rcx)
	movq	16(%rax), %rax
	movq	%rax, 32(%rcx)
	popq	%rbp
	retq
	.cfi_endproc
                                        ## -- End function
	.globl	__ZN14altered_carbon2js9JsVariantC1ERKNS0_15JsVariantNumberE ## -- Begin function _ZN14altered_carbon2js9JsVariantC1ERKNS0_15JsVariantNumberE
	.p2align	4, 0x90
__ZN14altered_carbon2js9JsVariantC1ERKNS0_15JsVariantNumberE: ## @_ZN14altered_carbon2js9JsVariantC1ERKNS0_15JsVariantNumberE
	.cfi_startproc
## %bb.0:
	pushq	%rbp
	.cfi_def_cfa_offset 16
	.cfi_offset %rbp, -16
	movq	%rsp, %rbp
	.cfi_def_cfa_register %rbp
	subq	$16, %rsp
	movq	%rdi, -16(%rbp)
	movq	%rsi, -8(%rbp)
	movq	-16(%rbp), %rdi
	movq	-8(%rbp), %rsi
	callq	__ZN14altered_carbon2js9JsVariantC2ERKNS0_15JsVariantNumberE
	addq	$16, %rsp
	popq	%rbp
	retq
	.cfi_endproc
                                        ## -- End function
	.globl	__ZN14altered_carbon2js9JsVariantC2ERKS1_NS1_13JsVariantTypeE ## -- Begin function _ZN14altered_carbon2js9JsVariantC2ERKS1_NS1_13JsVariantTypeE
	.p2align	4, 0x90
__ZN14altered_carbon2js9JsVariantC2ERKS1_NS1_13JsVariantTypeE: ## @_ZN14altered_carbon2js9JsVariantC2ERKS1_NS1_13JsVariantTypeE
	.cfi_startproc
## %bb.0:
	pushq	%rbp
	.cfi_def_cfa_offset 16
	.cfi_offset %rbp, -16
	movq	%rsp, %rbp
	.cfi_def_cfa_register %rbp
	pushq	%r14
	pushq	%rbx
	subq	$208, %rsp
	.cfi_offset %rbx, -32
	.cfi_offset %r14, -24
	leaq	__ZTVN14altered_carbon2js9JsVariantE(%rip), %rax
	addq	$16, %rax
	movq	%rdi, -56(%rbp)
	movq	%rsi, -24(%rbp)
	movl	%edx, -28(%rbp)
	movq	-56(%rbp), %rbx
	movq	%rax, (%rbx)
	movq	-24(%rbp), %rax
	movl	8(%rax), %eax
	movl	%eax, 8(%rbx)
## %bb.1:
	cmpl	$2, 8(%rbx)
	jne	LBB22_3
## %bb.2:
	movq	-24(%rbp), %rax
	movq	16(%rax), %rcx
	movq	%rcx, 16(%rbx)
	movq	24(%rax), %rcx
	movq	%rcx, 24(%rbx)
	movb	32(%rax), %al
	movb	%al, 32(%rbx)
	jmp	LBB22_22
LBB22_3:
	movl	8(%rbx), %eax
	addl	$2, %eax
	movl	%eax, %ecx
	subl	$17, %ecx
	ja	LBB22_20
## %bb.4:
	leaq	LJTI22_0(%rip), %rcx
	movslq	(%rcx,%rax,4), %rax
	addq	%rcx, %rax
	jmpq	*%rax
LBB22_5:
	movq	-24(%rbp), %rax
	movq	16(%rax), %rax
	movq	%rax, 16(%rbx)
	jmp	LBB22_21
LBB22_6:
	movq	-24(%rbp), %rsi
	addq	$16, %rsi
	movq	%rbx, %rdi
	addq	$16, %rdi
	callq	__ZN14altered_carbon2js10ACLexRegexaSERKS1_
	jmp	LBB22_21
LBB22_7:
	movq	-24(%rbp), %rax
	movb	16(%rax), %al
	andb	$1, %al
	movb	%al, 16(%rbx)
	jmp	LBB22_21
LBB22_8:
	leaq	-48(%rbp), %rdi
	leaq	l_.str(%rip), %rsi
	callq	__ZN4llvm11make_uniqueINSt3__112basic_stringIwNS1_11char_traitsIwEENS1_9allocatorIwEEEEJRA1_KwEEENS1_9enable_ifIXntsr3std8is_arrayIT_EE5valueENS1_10unique_ptrISC_NS1_14default_deleteISC_EEEEE4typeEDpOT0_
	leaq	-48(%rbp), %rax
	movq	%rax, -72(%rbp)
	movq	-72(%rbp), %rcx
	movq	%rcx, -80(%rbp)
	movq	-80(%rbp), %rdx
	movq	%rdx, -88(%rbp)
	movq	-88(%rbp), %rdx
	movq	(%rdx), %rdx
	movq	%rdx, -64(%rbp)
	movq	%rcx, -96(%rbp)
	movq	-96(%rbp), %rcx
	movq	%rcx, -104(%rbp)
	movq	-104(%rbp), %rcx
	movq	$0, (%rcx)
	movq	-64(%rbp), %rcx
	movq	%rcx, 16(%rbx)
	movq	%rax, -112(%rbp)
	movq	-112(%rbp), %rax
	movq	%rax, -120(%rbp)
	movq	-120(%rbp), %rax
	movq	%rax, -136(%rbp)
	movq	$0, -128(%rbp)
	movq	-136(%rbp), %rax
	movq	%rax, -144(%rbp)
	movq	-144(%rbp), %rcx
	movq	%rcx, -152(%rbp)
	movq	-152(%rbp), %rcx
	movq	(%rcx), %rcx
	movq	%rcx, -40(%rbp)
	movq	-128(%rbp), %rcx
	movq	%rax, -168(%rbp)
	movq	-168(%rbp), %rdx
	movq	%rdx, -176(%rbp)
	movq	-176(%rbp), %rdx
	movq	%rcx, (%rdx)
	cmpq	$0, -40(%rbp)
	je	LBB22_12
## %bb.9:
	movq	%rax, -184(%rbp)
	movq	-184(%rbp), %rax
	movq	%rax, -192(%rbp)
	movq	-192(%rbp), %rax
	movq	-40(%rbp), %rcx
	movq	%rax, -216(%rbp)
	movq	%rcx, -160(%rbp)
	movq	-160(%rbp), %r14
	cmpq	$0, %r14
	je	LBB22_11
## %bb.10:
	movq	%r14, %rdi
	callq	__ZNSt3__112basic_stringIwNS_11char_traitsIwEENS_9allocatorIwEEED1Ev
	movq	%r14, %rdi
	callq	__ZdlPv
LBB22_11:
	jmp	LBB22_12
LBB22_12:
	movq	-24(%rbp), %rax
	cmpq	$0, 16(%rax)
	setne	%al
	xorb	$-1, %al
	xorb	$-1, %al
	xorb	$-1, %al
	testb	$1, %al
	jne	LBB22_13
	jmp	LBB22_14
LBB22_13:
	leaq	L___func__._ZN14altered_carbon2js9JsVariantC2ENS1_13JsVariantTypeEPS1_(%rip), %rdi
	leaq	L_.str.1(%rip), %rsi
	leaq	L_.str.4(%rip), %rcx
	movl	$143, %edx
	callq	___assert_rtn
LBB22_14:
	jmp	LBB22_15
LBB22_15:
	movq	16(%rbx), %rax
	movq	-24(%rbp), %rcx
	movq	16(%rcx), %rcx
	movq	%rax, -208(%rbp)
	movq	%rcx, -200(%rbp)
	movq	-208(%rbp), %rdi
	movq	-200(%rbp), %rsi
	callq	__ZNSt3__112basic_stringIwNS_11char_traitsIwEENS_9allocatorIwEEEaSERKS5_
	jmp	LBB22_21
LBB22_16:
	movq	-24(%rbp), %rax
	movq	16(%rax), %rax
	movq	%rax, 16(%rbx)
	jmp	LBB22_21
LBB22_17:
	movq	%rbx, %rdi
	addq	$16, %rdi
	movl	$1, %esi
	callq	__ZN14altered_carbon2js13RefCountedPtrINS0_9JsVariantEE5resetEb
	movq	-24(%rbp), %rsi
	addq	$16, %rsi
	movq	%rbx, %rdi
	addq	$16, %rdi
	callq	__ZN14altered_carbon2js13RefCountedPtrINS0_9JsVariantEEaSERKS3_
	jmp	LBB22_21
LBB22_18:
	movq	%rbx, %rdi
	addq	$16, %rdi
	movl	$1, %esi
	callq	__ZN14altered_carbon2js13RefCountedPtrINS0_14JsVariantArrayEE5resetEb
	movq	-24(%rbp), %rsi
	addq	$16, %rsi
	movq	%rbx, %rdi
	addq	$16, %rdi
	callq	__ZN14altered_carbon2js13RefCountedPtrINS0_14JsVariantArrayEEaSERKS3_
	jmp	LBB22_21
LBB22_19:
	movq	%rbx, %rdi
	addq	$16, %rdi
	movl	$1, %esi
	callq	__ZN14altered_carbon2js13JsVariantFunc5resetEb
	movq	-24(%rbp), %rsi
	addq	$16, %rsi
	movq	%rbx, %rdi
	addq	$16, %rdi
	callq	__ZN14altered_carbon2js13JsVariantFuncaSERKS1_
	jmp	LBB22_21
LBB22_20:
	jmp	LBB22_21
LBB22_21:
	jmp	LBB22_22
LBB22_22:
	movl	-28(%rbp), %esi
	movq	%rbx, %rdi
	callq	__ZN14altered_carbon2js9JsVariant4convEi
	addq	$208, %rsp
	popq	%rbx
	popq	%r14
	popq	%rbp
	retq
	.cfi_endproc
	.p2align	2, 0x90
	.data_region jt32
.set L22_0_set_5, LBB22_5-LJTI22_0
.set L22_0_set_20, LBB22_20-LJTI22_0
.set L22_0_set_6, LBB22_6-LJTI22_0
.set L22_0_set_7, LBB22_7-LJTI22_0
.set L22_0_set_16, LBB22_16-LJTI22_0
.set L22_0_set_8, LBB22_8-LJTI22_0
.set L22_0_set_17, LBB22_17-LJTI22_0
.set L22_0_set_18, LBB22_18-LJTI22_0
.set L22_0_set_19, LBB22_19-LJTI22_0
LJTI22_0:
	.long	L22_0_set_5
	.long	L22_0_set_20
	.long	L22_0_set_20
	.long	L22_0_set_20
	.long	L22_0_set_20
	.long	L22_0_set_20
	.long	L22_0_set_20
	.long	L22_0_set_6
	.long	L22_0_set_7
	.long	L22_0_set_16
	.long	L22_0_set_20
	.long	L22_0_set_20
	.long	L22_0_set_8
	.long	L22_0_set_17
	.long	L22_0_set_18
	.long	L22_0_set_17
	.long	L22_0_set_18
	.long	L22_0_set_19
	.end_data_region
                                        ## -- End function
	.section	__TEXT,__literal16,16byte_literals
	.p2align	4               ## -- Begin function _ZN14altered_carbon2js9JsVariant4convEi
LCPI23_0:
	.quad	9223372036854775807     ## double NaN
	.quad	9223372036854775807     ## double NaN
	.section	__TEXT,__text,regular,pure_instructions
	.globl	__ZN14altered_carbon2js9JsVariant4convEi
	.p2align	4, 0x90
__ZN14altered_carbon2js9JsVariant4convEi: ## @_ZN14altered_carbon2js9JsVariant4convEi
	.cfi_startproc
## %bb.0:
	pushq	%rbp
	.cfi_def_cfa_offset 16
	.cfi_offset %rbp, -16
	movq	%rsp, %rbp
	.cfi_def_cfa_register %rbp
	pushq	%r14
	pushq	%rbx
	subq	$368, %rsp              ## imm = 0x170
	.cfi_offset %rbx, -32
	.cfi_offset %r14, -24
	movq	%rdi, -56(%rbp)
	movl	%esi, -20(%rbp)
	movq	-56(%rbp), %rbx
	movl	-20(%rbp), %eax
	cmpl	8(%rbx), %eax
	jne	LBB23_2
## %bb.1:
	movq	%rbx, -40(%rbp)
	jmp	LBB23_61
LBB23_2:
	movl	-20(%rbp), %eax
	addl	$-2, %eax
	movl	%eax, %ecx
	subl	$9, %ecx
	ja	LBB23_59
## %bb.3:
	leaq	LJTI23_0(%rip), %rcx
	movslq	(%rcx,%rax,4), %rax
	addq	%rcx, %rax
	jmpq	*%rax
LBB23_4:
	movl	-20(%rbp), %eax
	movl	%eax, 8(%rbx)
	movl	8(%rbx), %eax
	movq	%rax, %rcx
	subq	$11, %rcx
	ja	LBB23_18
## %bb.5:
	leaq	LJTI23_4(%rip), %rcx
	movslq	(%rcx,%rax,4), %rax
	addq	%rcx, %rax
	jmpq	*%rax
LBB23_6:
	movb	$0, 16(%rbx)
	jmp	LBB23_19
LBB23_7:
	testb	$1, 32(%rbx)
	je	LBB23_9
## %bb.8:
	cmpq	$0, 16(%rbx)
	setne	%cl
	jmp	LBB23_12
LBB23_9:
	movq	%rbx, %rdi
	callq	__ZNK14altered_carbon2js9JsVariant5isNaNEv
	xorl	%ecx, %ecx
	testb	$1, %al
	jne	LBB23_11
## %bb.10:
	movsd	24(%rbx), %xmm0         ## xmm0 = mem[0],zero
	movsd	%xmm0, -64(%rbp)
	movsd	-64(%rbp), %xmm0        ## xmm0 = mem[0],zero
	movaps	LCPI23_0(%rip), %xmm1   ## xmm1 = [nan,nan]
	pand	%xmm1, %xmm0
	xorps	%xmm1, %xmm1
	ucomisd	%xmm1, %xmm0
	seta	%cl
LBB23_11:
LBB23_12:
	andb	$1, %cl
	movb	%cl, 16(%rbx)
	jmp	LBB23_19
LBB23_13:
	movq	16(%rbx), %rax
	movq	%rax, -72(%rbp)
	movq	-72(%rbp), %rax
	movq	%rax, -80(%rbp)
	movq	-80(%rbp), %rax
	movq	%rax, -88(%rbp)
	movq	-88(%rbp), %rcx
	movq	%rcx, -96(%rbp)
	movq	-96(%rbp), %rcx
	movq	%rcx, -104(%rbp)
	movq	-104(%rbp), %rcx
	movzbl	(%rcx), %ecx
	andq	$1, %rcx
	cmpq	$0, %rcx
	je	LBB23_15
## %bb.14:
	movq	%rax, -136(%rbp)
	movq	-136(%rbp), %rax
	movq	%rax, -144(%rbp)
	movq	-144(%rbp), %rax
	movq	%rax, -152(%rbp)
	movq	-152(%rbp), %rax
	movq	8(%rax), %rax
	jmp	LBB23_16
LBB23_15:
	movq	%rax, -112(%rbp)
	movq	-112(%rbp), %rax
	movq	%rax, -120(%rbp)
	movq	-120(%rbp), %rax
	movq	%rax, -128(%rbp)
	movq	-128(%rbp), %rax
	movzbl	(%rax), %eax
	sarl	$1, %eax
	cltq
LBB23_16:
	cmpq	$0, %rax
	seta	%al
	andb	$1, %al
	movb	%al, 16(%rbx)
	jmp	LBB23_19
LBB23_17:
	movb	$1, 16(%rbx)
	jmp	LBB23_19
LBB23_18:
	leaq	L___func__._ZN14altered_carbon2js9JsVariant4convEi(%rip), %rdi
	leaq	L_.str.1(%rip), %rsi
	leaq	L_.str.3(%rip), %rcx
	movl	$268, %edx              ## imm = 0x10C
	callq	___assert_rtn
LBB23_19:
	jmp	LBB23_60
LBB23_20:
	movl	8(%rbx), %eax
	movq	%rax, %rcx
	subq	$11, %rcx
	ja	LBB23_31
## %bb.21:
	leaq	LJTI23_3(%rip), %rcx
	movslq	(%rcx,%rax,4), %rax
	addq	%rcx, %rax
	jmpq	*%rax
LBB23_22:
	movl	$2, 8(%rbx)
	movq	__ZN14altered_carbon2js11JsConstants3NaNE+16(%rip), %rax
	movq	%rax, 16(%rbx)
	movq	__ZN14altered_carbon2js11JsConstants3NaNE+24(%rip), %rax
	movq	%rax, 24(%rbx)
	movb	__ZN14altered_carbon2js11JsConstants3NaNE+32(%rip), %al
	movb	%al, 32(%rbx)
	jmp	LBB23_32
LBB23_23:
	movl	$2, 8(%rbx)
	movq	$0, 16(%rbx)
	xorps	%xmm0, %xmm0
	movsd	%xmm0, 24(%rbx)
	movb	$0, 32(%rbx)
	jmp	LBB23_32
LBB23_24:
	xorl	%eax, %eax
	movl	$2, 8(%rbx)
	movb	16(%rbx), %cl
	testb	$1, %cl
	movl	$1, %ecx
	cmovnel	%ecx, %eax
	cltq
	movq	%rax, 16(%rbx)
	cvtsi2sdq	%rax, %xmm0
	movsd	%xmm0, 24(%rbx)
	movb	$1, 32(%rbx)
	jmp	LBB23_32
LBB23_25:
	jmp	LBB23_32
LBB23_26:
	movb	$1, 32(%rbx)
	movq	16(%rbx), %rax
	movq	%rax, -160(%rbp)
	movq	-160(%rbp), %rax
	movq	%rax, -168(%rbp)
	movq	-168(%rbp), %rax
	movq	%rax, -176(%rbp)
	movq	-176(%rbp), %rcx
	movq	%rcx, -184(%rbp)
	movq	-184(%rbp), %rcx
	movq	%rcx, -192(%rbp)
	movq	-192(%rbp), %rcx
	movzbl	(%rcx), %ecx
	andq	$1, %rcx
	cmpq	$0, %rcx
	je	LBB23_28
## %bb.27:
	movq	%rax, -224(%rbp)
	movq	-224(%rbp), %rax
	movq	%rax, -232(%rbp)
	movq	-232(%rbp), %rax
	movq	%rax, -240(%rbp)
	movq	-240(%rbp), %rax
	movq	8(%rax), %rax
	jmp	LBB23_29
LBB23_28:
	movq	%rax, -200(%rbp)
	movq	-200(%rbp), %rax
	movq	%rax, -208(%rbp)
	movq	-208(%rbp), %rax
	movq	%rax, -216(%rbp)
	movq	-216(%rbp), %rax
	movzbl	(%rax), %eax
	sarl	$1, %eax
	cltq
LBB23_29:
	movq	%rax, 16(%rbx)
	cvtsi2sdq	%rax, %xmm0
	movsd	%xmm0, 24(%rbx)
	jmp	LBB23_32
LBB23_30:
	movq	%rbx, %rdi
	addq	$16, %rdi
	callq	__ZNK14altered_carbon2js13RefCountedPtrINS0_9JsVariantEEptEv
	movl	-20(%rbp), %esi
	movq	%rax, %rdi
	callq	__ZN14altered_carbon2js9JsVariant4convEi
	jmp	LBB23_32
LBB23_31:
	leaq	L___func__._ZN14altered_carbon2js9JsVariant4convEi(%rip), %rdi
	leaq	L_.str.1(%rip), %rsi
	leaq	L_.str.26(%rip), %rcx
	movl	$299, %edx              ## imm = 0x12B
	callq	___assert_rtn
LBB23_32:
	jmp	LBB23_60
LBB23_33:
	jmp	LBB23_34
LBB23_34:
	cmpl	$10, 8(%rbx)
	jge	LBB23_36
## %bb.35:
	cmpl	$10, -20(%rbp)
	jl	LBB23_38
LBB23_36:
	movl	8(%rbx), %eax
	cmpl	-20(%rbp), %eax
	je	LBB23_38
## %bb.37:
	movl	-20(%rbp), %esi
	movq	%rbx, %rdi
	callq	__ZN14altered_carbon2js9JsVariant11freePayloadEi
LBB23_38:
	jmp	LBB23_39
LBB23_39:
	movl	-20(%rbp), %eax
	movl	%eax, 8(%rbx)
	movl	8(%rbx), %eax
	movq	%rax, %rcx
	subq	$11, %rcx
	ja	LBB23_46
## %bb.40:
	leaq	LJTI23_2(%rip), %rcx
	movslq	(%rcx,%rax,4), %rax
	addq	%rcx, %rax
	jmpq	*%rax
LBB23_41:
	movq	16(%rbx), %rdi
	leaq	l_.str.27(%rip), %rsi
	callq	__ZNSt3__112basic_stringIwNS_11char_traitsIwEENS_9allocatorIwEEE6assignEPKw
	jmp	LBB23_47
LBB23_42:
	movq	16(%rbx), %rdi
	leaq	l_.str.28(%rip), %rsi
	callq	__ZNSt3__112basic_stringIwNS_11char_traitsIwEENS_9allocatorIwEEE6assignEPKw
	jmp	LBB23_47
LBB23_43:
	movq	16(%rbx), %rdi
	movb	16(%rbx), %al
	testb	$1, %al
	leaq	l_.str.29(%rip), %rax
	leaq	l_.str.30(%rip), %rsi
	cmovneq	%rax, %rsi
	callq	__ZNSt3__112basic_stringIwNS_11char_traitsIwEENS_9allocatorIwEEE6assignEPKw
	jmp	LBB23_47
LBB23_44:
	leaq	L___func__._ZN14altered_carbon2js9JsVariant4convEi(%rip), %rdi
	leaq	L_.str.1(%rip), %rsi
	leaq	L_.str.3(%rip), %rcx
	movl	$310, %edx              ## imm = 0x136
	callq	___assert_rtn
LBB23_45:
	movq	%rbx, %rdi
	addq	$16, %rdi
	callq	__ZNK14altered_carbon2js13RefCountedPtrINS0_9JsVariantEEptEv
	movl	-20(%rbp), %esi
	movq	%rax, %rdi
	callq	__ZN14altered_carbon2js9JsVariant4convEi
	jmp	LBB23_47
LBB23_46:
	leaq	L___func__._ZN14altered_carbon2js9JsVariant4convEi(%rip), %rdi
	leaq	L_.str.1(%rip), %rsi
	leaq	L_.str.3(%rip), %rcx
	movl	$314, %edx              ## imm = 0x13A
	callq	___assert_rtn
LBB23_47:
	jmp	LBB23_60
LBB23_48:
	movl	8(%rbx), %eax
	movq	%rax, %rcx
	subq	$10, %rcx
	ja	LBB23_57
## %bb.49:
	leaq	LJTI23_1(%rip), %rcx
	movslq	(%rcx,%rax,4), %rax
	addq	%rcx, %rax
	jmpq	*%rax
LBB23_50:
	movl	$-2, 8(%rbx)
	leaq	L_.str.31(%rip), %rax
	movq	%rax, 16(%rbx)
	jmp	LBB23_58
LBB23_51:
	movl	$-2, 8(%rbx)
	leaq	L_.str.31(%rip), %rax
	movq	%rax, 16(%rbx)
	jmp	LBB23_58
LBB23_52:
	movl	-20(%rbp), %eax
	movl	%eax, 8(%rbx)
	movq	%rbx, %r14
	addq	$16, %r14
	leaq	-32(%rbp), %rdi
	movq	%rbx, %rsi
	callq	__ZN4llvm11make_uniqueIN14altered_carbon2js10RefCountedINS2_9JsVariantEEEJRS4_EEENSt3__19enable_ifIXntsr3std8is_arrayIT_EE5valueENS7_10unique_ptrIS9_NS7_14default_deleteIS9_EEEEE4typeEDpOT0_
	leaq	-32(%rbp), %rax
	movq	%rax, -344(%rbp)
	movq	-344(%rbp), %rax
	movq	%rax, -352(%rbp)
	movq	-352(%rbp), %rcx
	movq	%rcx, -360(%rbp)
	movq	-360(%rbp), %rcx
	movq	(%rcx), %rcx
	movq	%rcx, -336(%rbp)
	movq	%rax, -368(%rbp)
	movq	-368(%rbp), %rax
	movq	%rax, -376(%rbp)
	movq	-376(%rbp), %rax
	movq	$0, (%rax)
	movq	-336(%rbp), %rsi
	movq	%r14, %rdi
	xorl	%edx, %edx
	callq	__ZN14altered_carbon2js13RefCountedPtrINS0_9JsVariantEE5resetEPNS0_10RefCountedIS2_EEb
	leaq	-32(%rbp), %rax
	movq	%rax, -248(%rbp)
	movq	-248(%rbp), %rax
	movq	%rax, -256(%rbp)
	movq	-256(%rbp), %rax
	movq	%rax, -272(%rbp)
	movq	$0, -264(%rbp)
	movq	-272(%rbp), %rax
	movq	%rax, -280(%rbp)
	movq	-280(%rbp), %rcx
	movq	%rcx, -288(%rbp)
	movq	-288(%rbp), %rcx
	movq	(%rcx), %rcx
	movq	%rcx, -48(%rbp)
	movq	-264(%rbp), %rcx
	movq	%rax, -304(%rbp)
	movq	-304(%rbp), %rdx
	movq	%rdx, -312(%rbp)
	movq	-312(%rbp), %rdx
	movq	%rcx, (%rdx)
	cmpq	$0, -48(%rbp)
	je	LBB23_56
## %bb.53:
	movq	%rax, -320(%rbp)
	movq	-320(%rbp), %rax
	movq	%rax, -328(%rbp)
	movq	-328(%rbp), %rax
	movq	-48(%rbp), %rcx
	movq	%rax, -384(%rbp)
	movq	%rcx, -296(%rbp)
	movq	-296(%rbp), %rdi
	cmpq	$0, %rdi
	je	LBB23_55
## %bb.54:
	movq	(%rdi), %rax
	callq	*8(%rax)
LBB23_55:
	jmp	LBB23_56
LBB23_56:
	jmp	LBB23_58
LBB23_57:
	leaq	L___func__._ZN14altered_carbon2js9JsVariant4convEi(%rip), %rdi
	leaq	L_.str.1(%rip), %rsi
	leaq	L_.str.3(%rip), %rcx
	movl	$329, %edx              ## imm = 0x149
	callq	___assert_rtn
LBB23_58:
	jmp	LBB23_60
LBB23_59:
	leaq	L___func__._ZN14altered_carbon2js9JsVariant4convEi(%rip), %rdi
	leaq	L_.str.1(%rip), %rsi
	leaq	L_.str.3(%rip), %rcx
	movl	$333, %edx              ## imm = 0x14D
	callq	___assert_rtn
LBB23_60:
	movq	%rbx, -40(%rbp)
LBB23_61:
	movq	-40(%rbp), %rax
	addq	$368, %rsp              ## imm = 0x170
	popq	%rbx
	popq	%r14
	popq	%rbp
	retq
	.cfi_endproc
	.p2align	2, 0x90
	.data_region jt32
.set L23_0_set_20, LBB23_20-LJTI23_0
.set L23_0_set_59, LBB23_59-LJTI23_0
.set L23_0_set_4, LBB23_4-LJTI23_0
.set L23_0_set_33, LBB23_33-LJTI23_0
.set L23_0_set_48, LBB23_48-LJTI23_0
LJTI23_0:
	.long	L23_0_set_20
	.long	L23_0_set_59
	.long	L23_0_set_59
	.long	L23_0_set_59
	.long	L23_0_set_4
	.long	L23_0_set_59
	.long	L23_0_set_59
	.long	L23_0_set_59
	.long	L23_0_set_33
	.long	L23_0_set_48
.set L23_1_set_51, LBB23_51-LJTI23_1
.set L23_1_set_50, LBB23_50-LJTI23_1
.set L23_1_set_52, LBB23_52-LJTI23_1
.set L23_1_set_57, LBB23_57-LJTI23_1
LJTI23_1:
	.long	L23_1_set_51
	.long	L23_1_set_50
	.long	L23_1_set_52
	.long	L23_1_set_57
	.long	L23_1_set_57
	.long	L23_1_set_57
	.long	L23_1_set_52
	.long	L23_1_set_57
	.long	L23_1_set_57
	.long	L23_1_set_57
	.long	L23_1_set_52
.set L23_2_set_42, LBB23_42-LJTI23_2
.set L23_2_set_41, LBB23_41-LJTI23_2
.set L23_2_set_44, LBB23_44-LJTI23_2
.set L23_2_set_46, LBB23_46-LJTI23_2
.set L23_2_set_43, LBB23_43-LJTI23_2
.set L23_2_set_45, LBB23_45-LJTI23_2
LJTI23_2:
	.long	L23_2_set_42
	.long	L23_2_set_41
	.long	L23_2_set_44
	.long	L23_2_set_46
	.long	L23_2_set_46
	.long	L23_2_set_46
	.long	L23_2_set_43
	.long	L23_2_set_46
	.long	L23_2_set_46
	.long	L23_2_set_46
	.long	L23_2_set_46
	.long	L23_2_set_45
.set L23_3_set_23, LBB23_23-LJTI23_3
.set L23_3_set_22, LBB23_22-LJTI23_3
.set L23_3_set_25, LBB23_25-LJTI23_3
.set L23_3_set_31, LBB23_31-LJTI23_3
.set L23_3_set_24, LBB23_24-LJTI23_3
.set L23_3_set_26, LBB23_26-LJTI23_3
.set L23_3_set_30, LBB23_30-LJTI23_3
LJTI23_3:
	.long	L23_3_set_23
	.long	L23_3_set_22
	.long	L23_3_set_25
	.long	L23_3_set_31
	.long	L23_3_set_31
	.long	L23_3_set_31
	.long	L23_3_set_24
	.long	L23_3_set_31
	.long	L23_3_set_31
	.long	L23_3_set_31
	.long	L23_3_set_26
	.long	L23_3_set_30
.set L23_4_set_6, LBB23_6-LJTI23_4
.set L23_4_set_7, LBB23_7-LJTI23_4
.set L23_4_set_18, LBB23_18-LJTI23_4
.set L23_4_set_13, LBB23_13-LJTI23_4
.set L23_4_set_17, LBB23_17-LJTI23_4
LJTI23_4:
	.long	L23_4_set_6
	.long	L23_4_set_6
	.long	L23_4_set_7
	.long	L23_4_set_18
	.long	L23_4_set_18
	.long	L23_4_set_18
	.long	L23_4_set_18
	.long	L23_4_set_18
	.long	L23_4_set_18
	.long	L23_4_set_18
	.long	L23_4_set_13
	.long	L23_4_set_17
	.end_data_region
                                        ## -- End function
	.globl	__ZN14altered_carbon2js9JsVariantC1ERKS1_NS1_13JsVariantTypeE ## -- Begin function _ZN14altered_carbon2js9JsVariantC1ERKS1_NS1_13JsVariantTypeE
	.p2align	4, 0x90
__ZN14altered_carbon2js9JsVariantC1ERKS1_NS1_13JsVariantTypeE: ## @_ZN14altered_carbon2js9JsVariantC1ERKS1_NS1_13JsVariantTypeE
	.cfi_startproc
## %bb.0:
	pushq	%rbp
	.cfi_def_cfa_offset 16
	.cfi_offset %rbp, -16
	movq	%rsp, %rbp
	.cfi_def_cfa_register %rbp
	subq	$32, %rsp
	movq	%rdi, -24(%rbp)
	movq	%rsi, -16(%rbp)
	movl	%edx, -4(%rbp)
	movq	-24(%rbp), %rdi
	movq	-16(%rbp), %rsi
	movl	-4(%rbp), %edx
	callq	__ZN14altered_carbon2js9JsVariantC2ERKS1_NS1_13JsVariantTypeE
	addq	$32, %rsp
	popq	%rbp
	retq
	.cfi_endproc
                                        ## -- End function
	.globl	__ZN14altered_carbon2js9JsVariantC2ENS1_13JsVariantTypeEPKc ## -- Begin function _ZN14altered_carbon2js9JsVariantC2ENS1_13JsVariantTypeEPKc
	.p2align	4, 0x90
__ZN14altered_carbon2js9JsVariantC2ENS1_13JsVariantTypeEPKc: ## @_ZN14altered_carbon2js9JsVariantC2ENS1_13JsVariantTypeEPKc
	.cfi_startproc
## %bb.0:
	pushq	%rbp
	.cfi_def_cfa_offset 16
	.cfi_offset %rbp, -16
	movq	%rsp, %rbp
	.cfi_def_cfa_register %rbp
	leaq	__ZTVN14altered_carbon2js9JsVariantE(%rip), %rax
	addq	$16, %rax
	movq	%rdi, -24(%rbp)
	movl	%esi, -4(%rbp)
	movq	%rdx, -16(%rbp)
	movq	-24(%rbp), %rcx
	movq	%rax, (%rcx)
	movl	-4(%rbp), %eax
	movl	%eax, 8(%rcx)
	movq	-16(%rbp), %rax
	movq	%rax, 16(%rcx)
	popq	%rbp
	retq
	.cfi_endproc
                                        ## -- End function
	.globl	__ZN14altered_carbon2js9JsVariantC1ENS1_13JsVariantTypeEPKc ## -- Begin function _ZN14altered_carbon2js9JsVariantC1ENS1_13JsVariantTypeEPKc
	.p2align	4, 0x90
__ZN14altered_carbon2js9JsVariantC1ENS1_13JsVariantTypeEPKc: ## @_ZN14altered_carbon2js9JsVariantC1ENS1_13JsVariantTypeEPKc
	.cfi_startproc
## %bb.0:
	pushq	%rbp
	.cfi_def_cfa_offset 16
	.cfi_offset %rbp, -16
	movq	%rsp, %rbp
	.cfi_def_cfa_register %rbp
	subq	$32, %rsp
	movq	%rdi, -24(%rbp)
	movl	%esi, -4(%rbp)
	movq	%rdx, -16(%rbp)
	movq	-24(%rbp), %rdi
	movl	-4(%rbp), %esi
	movq	-16(%rbp), %rdx
	callq	__ZN14altered_carbon2js9JsVariantC2ENS1_13JsVariantTypeEPKc
	addq	$32, %rsp
	popq	%rbp
	retq
	.cfi_endproc
                                        ## -- End function
	.globl	__ZN14altered_carbon2js9JsVariantD2Ev ## -- Begin function _ZN14altered_carbon2js9JsVariantD2Ev
	.p2align	4, 0x90
__ZN14altered_carbon2js9JsVariantD2Ev:  ## @_ZN14altered_carbon2js9JsVariantD2Ev
	.cfi_startproc
## %bb.0:
	pushq	%rbp
	.cfi_def_cfa_offset 16
	.cfi_offset %rbp, -16
	movq	%rsp, %rbp
	.cfi_def_cfa_register %rbp
	subq	$16, %rsp
	leaq	__ZTVN14altered_carbon2js9JsVariantE(%rip), %rax
	addq	$16, %rax
	movq	%rdi, -8(%rbp)
	movq	-8(%rbp), %rdi
	movq	%rax, (%rdi)
## %bb.1:
	cmpl	$10, 8(%rdi)
	jl	LBB27_4
## %bb.2:
	cmpl	$-2, 8(%rdi)
	je	LBB27_4
## %bb.3:
	movl	$4294967294, %esi       ## imm = 0xFFFFFFFE
	callq	__ZN14altered_carbon2js9JsVariant11freePayloadEi
LBB27_4:
	jmp	LBB27_5
LBB27_5:
	addq	$16, %rsp
	popq	%rbp
	retq
	.cfi_endproc
                                        ## -- End function
	.globl	__ZN14altered_carbon2js9JsVariant11freePayloadEi ## -- Begin function _ZN14altered_carbon2js9JsVariant11freePayloadEi
	.p2align	4, 0x90
__ZN14altered_carbon2js9JsVariant11freePayloadEi: ## @_ZN14altered_carbon2js9JsVariant11freePayloadEi
	.cfi_startproc
## %bb.0:
	pushq	%rbp
	.cfi_def_cfa_offset 16
	.cfi_offset %rbp, -16
	movq	%rsp, %rbp
	.cfi_def_cfa_register %rbp
	pushq	%rbx
	subq	$184, %rsp
	.cfi_offset %rbx, -24
	movq	%rdi, -40(%rbp)
	movl	%esi, -12(%rbp)
	movq	-40(%rbp), %rbx
	movl	8(%rbx), %eax
	addl	$-10, %eax
	movl	%eax, %ecx
	subl	$5, %ecx
	ja	LBB28_9
## %bb.1:
	leaq	LJTI28_0(%rip), %rcx
	movslq	(%rcx,%rax,4), %rax
	addq	%rcx, %rax
	jmpq	*%rax
LBB28_2:
	cmpq	$0, 16(%rbx)
	setne	%al
	xorb	$-1, %al
	xorb	$-1, %al
	xorb	$-1, %al
	testb	$1, %al
	jne	LBB28_3
	jmp	LBB28_4
LBB28_3:
	leaq	L___func__._ZN14altered_carbon2js9JsVariant11freePayloadEi(%rip), %rdi
	leaq	L_.str.1(%rip), %rsi
	leaq	L_.str.36(%rip), %rcx
	movl	$745, %edx              ## imm = 0x2E9
	callq	___assert_rtn
LBB28_4:
	jmp	LBB28_5
LBB28_5:
	movq	16(%rbx), %rdi
	callq	__ZNSt3__112basic_stringIwNS_11char_traitsIwEENS_9allocatorIwEEED1Ev
	jmp	LBB28_10
LBB28_6:
	movq	%rbx, %rdi
	addq	$16, %rdi
	xorl	%esi, %esi
	callq	__ZN14altered_carbon2js13JsVariantFunc5resetEb
	jmp	LBB28_10
LBB28_7:
	movq	%rbx, %rdi
	addq	$16, %rdi
	xorl	%esi, %esi
	callq	__ZN14altered_carbon2js13RefCountedPtrINS0_9JsVariantEE5resetEb
	jmp	LBB28_10
LBB28_8:
	movq	%rbx, %rdi
	addq	$16, %rdi
	xorl	%esi, %esi
	callq	__ZN14altered_carbon2js13RefCountedPtrINS0_14JsVariantArrayEE5resetEb
	jmp	LBB28_10
LBB28_9:
	jmp	LBB28_10
LBB28_10:
	movl	-12(%rbp), %eax
	addl	$-10, %eax
	movl	%eax, %ecx
	subl	$5, %ecx
	ja	LBB28_20
## %bb.11:
	leaq	LJTI28_1(%rip), %rcx
	movslq	(%rcx,%rax,4), %rax
	addq	%rcx, %rax
	jmpq	*%rax
LBB28_12:
	leaq	-32(%rbp), %rdi
	leaq	l_.str(%rip), %rsi
	callq	__ZN4llvm11make_uniqueINSt3__112basic_stringIwNS1_11char_traitsIwEENS1_9allocatorIwEEEEJRA1_KwEEENS1_9enable_ifIXntsr3std8is_arrayIT_EE5valueENS1_10unique_ptrISC_NS1_14default_deleteISC_EEEEE4typeEDpOT0_
	leaq	-32(%rbp), %rax
	movq	%rax, -56(%rbp)
	movq	-56(%rbp), %rcx
	movq	%rcx, -64(%rbp)
	movq	-64(%rbp), %rdx
	movq	%rdx, -72(%rbp)
	movq	-72(%rbp), %rdx
	movq	(%rdx), %rdx
	movq	%rdx, -48(%rbp)
	movq	%rcx, -80(%rbp)
	movq	-80(%rbp), %rcx
	movq	%rcx, -88(%rbp)
	movq	-88(%rbp), %rcx
	movq	$0, (%rcx)
	movq	-48(%rbp), %rcx
	movq	%rcx, 16(%rbx)
	movq	%rax, -96(%rbp)
	movq	-96(%rbp), %rax
	movq	%rax, -104(%rbp)
	movq	-104(%rbp), %rax
	movq	%rax, -120(%rbp)
	movq	$0, -112(%rbp)
	movq	-120(%rbp), %rax
	movq	%rax, -128(%rbp)
	movq	-128(%rbp), %rcx
	movq	%rcx, -136(%rbp)
	movq	-136(%rbp), %rcx
	movq	(%rcx), %rcx
	movq	%rcx, -24(%rbp)
	movq	-112(%rbp), %rcx
	movq	%rax, -152(%rbp)
	movq	-152(%rbp), %rdx
	movq	%rdx, -160(%rbp)
	movq	-160(%rbp), %rdx
	movq	%rcx, (%rdx)
	cmpq	$0, -24(%rbp)
	je	LBB28_16
## %bb.13:
	movq	%rax, -168(%rbp)
	movq	-168(%rbp), %rax
	movq	%rax, -176(%rbp)
	movq	-176(%rbp), %rax
	movq	-24(%rbp), %rcx
	movq	%rax, -184(%rbp)
	movq	%rcx, -144(%rbp)
	movq	-144(%rbp), %rbx
	cmpq	$0, %rbx
	je	LBB28_15
## %bb.14:
	movq	%rbx, %rdi
	callq	__ZNSt3__112basic_stringIwNS_11char_traitsIwEENS_9allocatorIwEEED1Ev
	movq	%rbx, %rdi
	callq	__ZdlPv
LBB28_15:
	jmp	LBB28_16
LBB28_16:
	jmp	LBB28_21
LBB28_17:
	addq	$16, %rbx
	movq	%rbx, %rdi
	movl	$1, %esi
	callq	__ZN14altered_carbon2js13JsVariantFunc5resetEb
	jmp	LBB28_21
LBB28_18:
	addq	$16, %rbx
	movq	%rbx, %rdi
	movl	$1, %esi
	callq	__ZN14altered_carbon2js13RefCountedPtrINS0_9JsVariantEE5resetEb
	jmp	LBB28_21
LBB28_19:
	addq	$16, %rbx
	movq	%rbx, %rdi
	movl	$1, %esi
	callq	__ZN14altered_carbon2js13RefCountedPtrINS0_14JsVariantArrayEE5resetEb
	jmp	LBB28_21
LBB28_20:
	jmp	LBB28_21
LBB28_21:
	movb	$1, %al
	andb	$1, %al
	movzbl	%al, %eax
	addq	$184, %rsp
	popq	%rbx
	popq	%rbp
	retq
	.cfi_endproc
	.p2align	2, 0x90
	.data_region jt32
.set L28_0_set_2, LBB28_2-LJTI28_0
.set L28_0_set_7, LBB28_7-LJTI28_0
.set L28_0_set_8, LBB28_8-LJTI28_0
.set L28_0_set_9, LBB28_9-LJTI28_0
.set L28_0_set_6, LBB28_6-LJTI28_0
LJTI28_0:
	.long	L28_0_set_2
	.long	L28_0_set_7
	.long	L28_0_set_8
	.long	L28_0_set_9
	.long	L28_0_set_9
	.long	L28_0_set_6
.set L28_1_set_12, LBB28_12-LJTI28_1
.set L28_1_set_18, LBB28_18-LJTI28_1
.set L28_1_set_19, LBB28_19-LJTI28_1
.set L28_1_set_17, LBB28_17-LJTI28_1
LJTI28_1:
	.long	L28_1_set_12
	.long	L28_1_set_18
	.long	L28_1_set_19
	.long	L28_1_set_18
	.long	L28_1_set_19
	.long	L28_1_set_17
	.end_data_region
                                        ## -- End function
	.globl	__ZN14altered_carbon2js9JsVariantD1Ev ## -- Begin function _ZN14altered_carbon2js9JsVariantD1Ev
	.p2align	4, 0x90
__ZN14altered_carbon2js9JsVariantD1Ev:  ## @_ZN14altered_carbon2js9JsVariantD1Ev
	.cfi_startproc
## %bb.0:
	pushq	%rbp
	.cfi_def_cfa_offset 16
	.cfi_offset %rbp, -16
	movq	%rsp, %rbp
	.cfi_def_cfa_register %rbp
	subq	$16, %rsp
	movq	%rdi, -8(%rbp)
	movq	-8(%rbp), %rdi
	callq	__ZN14altered_carbon2js9JsVariantD2Ev
	addq	$16, %rsp
	popq	%rbp
	retq
	.cfi_endproc
                                        ## -- End function
	.globl	__ZN14altered_carbon2js9JsVariantD0Ev ## -- Begin function _ZN14altered_carbon2js9JsVariantD0Ev
	.p2align	4, 0x90
__ZN14altered_carbon2js9JsVariantD0Ev:  ## @_ZN14altered_carbon2js9JsVariantD0Ev
	.cfi_startproc
## %bb.0:
	pushq	%rbp
	.cfi_def_cfa_offset 16
	.cfi_offset %rbp, -16
	movq	%rsp, %rbp
	.cfi_def_cfa_register %rbp
	pushq	%rbx
	pushq	%rax
	.cfi_offset %rbx, -24
	movq	%rdi, -16(%rbp)
	movq	-16(%rbp), %rbx
	movq	%rbx, %rdi
	callq	__ZN14altered_carbon2js9JsVariantD1Ev
	movq	%rbx, %rdi
	callq	__ZdlPv
	addq	$8, %rsp
	popq	%rbx
	popq	%rbp
	retq
	.cfi_endproc
                                        ## -- End function
	.globl	__ZNK14altered_carbon2js9JsVariant4dumpERNSt3__113basic_ostreamIcNS2_11char_traitsIcEEEE ## -- Begin function _ZNK14altered_carbon2js9JsVariant4dumpERNSt3__113basic_ostreamIcNS2_11char_traitsIcEEEE
	.p2align	4, 0x90
__ZNK14altered_carbon2js9JsVariant4dumpERNSt3__113basic_ostreamIcNS2_11char_traitsIcEEEE: ## @_ZNK14altered_carbon2js9JsVariant4dumpERNSt3__113basic_ostreamIcNS2_11char_traitsIcEEEE
	.cfi_startproc
## %bb.0:
	pushq	%rbp
	.cfi_def_cfa_offset 16
	.cfi_offset %rbp, -16
	movq	%rsp, %rbp
	.cfi_def_cfa_register %rbp
	pushq	%rbx
	subq	$104, %rsp
	.cfi_offset %rbx, -24
	movq	%rdi, -24(%rbp)
	movq	%rsi, -16(%rbp)
	movq	-24(%rbp), %rbx
	movq	-16(%rbp), %rdi
	leaq	L_.str.5(%rip), %rsi
	callq	__ZNSt3__1lsINS_11char_traitsIcEEEERNS_13basic_ostreamIcT_EES6_PKc
	movl	8(%rbx), %eax
	addl	$2, %eax
	movl	%eax, %ecx
	subl	$17, %ecx
	ja	LBB31_34
## %bb.1:
	leaq	LJTI31_0(%rip), %rcx
	movslq	(%rcx,%rax,4), %rax
	addq	%rcx, %rax
	jmpq	*%rax
LBB31_2:
	movq	-16(%rbp), %rdi
	leaq	L_.str.6(%rip), %rsi
	callq	__ZNSt3__1lsINS_11char_traitsIcEEEERNS_13basic_ostreamIcT_EES6_PKc
	jmp	LBB31_35
LBB31_3:
	movq	-16(%rbp), %rdi
	leaq	L_.str.7(%rip), %rsi
	callq	__ZNSt3__1lsINS_11char_traitsIcEEEERNS_13basic_ostreamIcT_EES6_PKc
	jmp	LBB31_35
LBB31_4:
	movq	-16(%rbp), %rdi
	leaq	L_.str.8(%rip), %rsi
	callq	__ZNSt3__1lsINS_11char_traitsIcEEEERNS_13basic_ostreamIcT_EES6_PKc
	jmp	LBB31_35
LBB31_5:
	movq	-16(%rbp), %rdi
	movb	16(%rbx), %al
	testb	$1, %al
	leaq	L_.str.9(%rip), %rax
	leaq	L_.str.3(%rip), %rsi
	cmovneq	%rax, %rsi
	callq	__ZNSt3__1lsINS_11char_traitsIcEEEERNS_13basic_ostreamIcT_EES6_PKc
	jmp	LBB31_35
LBB31_6:
	testb	$1, 32(%rbx)
	je	LBB31_8
## %bb.7:
	movq	-16(%rbp), %rdi
	leaq	L_.str.10(%rip), %rsi
	callq	__ZNSt3__1lsINS_11char_traitsIcEEEERNS_13basic_ostreamIcT_EES6_PKc
	movq	16(%rbx), %rsi
	movq	%rax, %rdi
	callq	__ZNSt3__113basic_ostreamIcNS_11char_traitsIcEEElsEx
	jmp	LBB31_9
LBB31_8:
	movq	-16(%rbp), %rdi
	leaq	L_.str.11(%rip), %rsi
	callq	__ZNSt3__1lsINS_11char_traitsIcEEEERNS_13basic_ostreamIcT_EES6_PKc
	movsd	24(%rbx), %xmm0         ## xmm0 = mem[0],zero
	movq	%rax, %rdi
	callq	__ZNSt3__113basic_ostreamIcNS_11char_traitsIcEEElsEd
LBB31_9:
	jmp	LBB31_35
LBB31_10:
	movq	-16(%rbp), %rdi
	leaq	L_.str.12(%rip), %rsi
	callq	__ZNSt3__1lsINS_11char_traitsIcEEEERNS_13basic_ostreamIcT_EES6_PKc
	movq	16(%rbx), %rcx
	movq	%rcx, -32(%rbp)
	movq	-32(%rbp), %rcx
	movq	%rcx, -40(%rbp)
	movq	-40(%rbp), %rcx
	movq	%rcx, -48(%rbp)
	movq	-48(%rbp), %rdx
	movq	%rdx, -56(%rbp)
	movq	-56(%rbp), %rdx
	movq	%rdx, -64(%rbp)
	movq	-64(%rbp), %rdx
	movzbl	(%rdx), %edx
	andq	$1, %rdx
	cmpq	$0, %rdx
	je	LBB31_12
## %bb.11:
	movq	%rcx, -96(%rbp)
	movq	-96(%rbp), %rcx
	movq	%rcx, -104(%rbp)
	movq	-104(%rbp), %rcx
	movq	%rcx, -112(%rbp)
	movq	-112(%rbp), %rcx
	movq	8(%rcx), %rsi
	jmp	LBB31_13
LBB31_12:
	movq	%rcx, -72(%rbp)
	movq	-72(%rbp), %rcx
	movq	%rcx, -80(%rbp)
	movq	-80(%rbp), %rcx
	movq	%rcx, -88(%rbp)
	movq	-88(%rbp), %rcx
	movzbl	(%rcx), %ecx
	sarl	$1, %ecx
	movslq	%ecx, %rsi
LBB31_13:
	movq	%rax, %rdi
	callq	__ZNSt3__113basic_ostreamIcNS_11char_traitsIcEEElsEm
	movq	%rax, %rdi
	leaq	L_.str.13(%rip), %rsi
	callq	__ZNSt3__1lsINS_11char_traitsIcEEEERNS_13basic_ostreamIcT_EES6_PKc
	jmp	LBB31_35
LBB31_14:
	movq	-16(%rbp), %rdi
	leaq	L_.str.14(%rip), %rsi
	callq	__ZNSt3__1lsINS_11char_traitsIcEEEERNS_13basic_ostreamIcT_EES6_PKc
	movq	16(%rbx), %rsi
	movq	%rax, %rdi
	callq	__ZNSt3__1lsINS_11char_traitsIcEEEERNS_13basic_ostreamIcT_EES6_PKc
	movq	%rax, %rdi
	leaq	L_.str.13(%rip), %rsi
	callq	__ZNSt3__1lsINS_11char_traitsIcEEEERNS_13basic_ostreamIcT_EES6_PKc
	jmp	LBB31_35
LBB31_15:
	movq	16(%rbx), %rdi
	movq	-16(%rbp), %rsi
	callq	__ZNK14altered_carbon2js9JsVariant4dumpERNSt3__113basic_ostreamIcNS2_11char_traitsIcEEEE
	jmp	LBB31_35
LBB31_16:
	movq	24(%rbx), %rdi
	callq	_wcslen
	cmpq	$0, %rax
	jbe	LBB31_18
## %bb.17:
	movq	-16(%rbp), %rdi
	leaq	L_.str.15(%rip), %rsi
	callq	__ZNSt3__1lsINS_11char_traitsIcEEEERNS_13basic_ostreamIcT_EES6_PKc
	movq	24(%rbx), %rcx
	movl	(%rcx), %esi
	movq	%rax, %rdi
	callq	__ZNSt3__113basic_ostreamIcNS_11char_traitsIcEEElsEi
	movq	%rax, %rdi
	leaq	L_.str.16(%rip), %rsi
	callq	__ZNSt3__1lsINS_11char_traitsIcEEEERNS_13basic_ostreamIcT_EES6_PKc
	jmp	LBB31_19
LBB31_18:
	movq	-16(%rbp), %rdi
	leaq	L_.str.17(%rip), %rsi
	callq	__ZNSt3__1lsINS_11char_traitsIcEEEERNS_13basic_ostreamIcT_EES6_PKc
LBB31_19:
	jmp	LBB31_35
LBB31_20:
	movq	-16(%rbp), %rdi
	leaq	L_.str.18(%rip), %rsi
	callq	__ZNSt3__1lsINS_11char_traitsIcEEEERNS_13basic_ostreamIcT_EES6_PKc
	jmp	LBB31_35
LBB31_21:
	movq	%rbx, %rdi
	addq	$16, %rdi
	callq	__ZNK14altered_carbon2js13RefCountedPtrINS0_9JsVariantEE3getEv
	xorl	%ecx, %ecx
	cmpq	$0, %rax
	je	LBB31_23
## %bb.22:
	movb	$1, %cl
	jmp	LBB31_23
LBB31_23:
	xorb	$-1, %cl
	testb	$1, %cl
	jne	LBB31_24
	jmp	LBB31_25
LBB31_24:
	leaq	L___func__._ZNK14altered_carbon2js9JsVariant4dumpERNSt3__113basic_ostreamIcNS2_11char_traitsIcEEEE(%rip), %rdi
	leaq	L_.str.1(%rip), %rsi
	leaq	L_.str.20(%rip), %rcx
	movl	$188, %edx
	callq	___assert_rtn
LBB31_25:
	jmp	LBB31_26
LBB31_26:
	addq	$16, %rbx
	movq	%rbx, %rdi
	callq	__ZNK14altered_carbon2js13RefCountedPtrINS0_9JsVariantEEptEv
	movq	-16(%rbp), %rsi
	movq	%rax, %rdi
	callq	__ZNK14altered_carbon2js9JsVariant4dumpERNSt3__113basic_ostreamIcNS2_11char_traitsIcEEEE
	jmp	LBB31_35
LBB31_27:
	movq	-16(%rbp), %rdi
	leaq	L_.str.21(%rip), %rsi
	callq	__ZNSt3__1lsINS_11char_traitsIcEEEERNS_13basic_ostreamIcT_EES6_PKc
	jmp	LBB31_35
LBB31_28:
	movq	%rbx, %rdi
	addq	$16, %rdi
	callq	__ZNK14altered_carbon2js13RefCountedPtrINS0_14JsVariantArrayEE3getEv
	xorl	%ecx, %ecx
	cmpq	$0, %rax
	je	LBB31_30
## %bb.29:
	movb	$1, %cl
	jmp	LBB31_30
LBB31_30:
	xorb	$-1, %cl
	testb	$1, %cl
	jne	LBB31_31
	jmp	LBB31_32
LBB31_31:
	leaq	L___func__._ZNK14altered_carbon2js9JsVariant4dumpERNSt3__113basic_ostreamIcNS2_11char_traitsIcEEEE(%rip), %rdi
	leaq	L_.str.1(%rip), %rsi
	leaq	L_.str.23(%rip), %rcx
	movl	$193, %edx
	callq	___assert_rtn
LBB31_32:
	jmp	LBB31_33
LBB31_33:
	addq	$16, %rbx
	movq	%rbx, %rdi
	callq	__ZNK14altered_carbon2js13RefCountedPtrINS0_14JsVariantArrayEEptEv
	movq	-16(%rbp), %rsi
	movq	%rax, %rdi
	callq	__ZNK14altered_carbon2js14JsVariantArray4dumpERNSt3__113basic_ostreamIcNS2_11char_traitsIcEEEE
	jmp	LBB31_35
LBB31_34:
	leaq	L___func__._ZNK14altered_carbon2js9JsVariant4dumpERNSt3__113basic_ostreamIcNS2_11char_traitsIcEEEE(%rip), %rdi
	leaq	L_.str.1(%rip), %rsi
	leaq	L_.str.3(%rip), %rcx
	movl	$196, %edx
	callq	___assert_rtn
LBB31_35:
	addq	$104, %rsp
	popq	%rbx
	popq	%rbp
	retq
	.cfi_endproc
	.p2align	2, 0x90
	.data_region jt32
.set L31_0_set_14, LBB31_14-LJTI31_0
.set L31_0_set_2, LBB31_2-LJTI31_0
.set L31_0_set_4, LBB31_4-LJTI31_0
.set L31_0_set_3, LBB31_3-LJTI31_0
.set L31_0_set_6, LBB31_6-LJTI31_0
.set L31_0_set_34, LBB31_34-LJTI31_0
.set L31_0_set_5, LBB31_5-LJTI31_0
.set L31_0_set_15, LBB31_15-LJTI31_0
.set L31_0_set_10, LBB31_10-LJTI31_0
.set L31_0_set_21, LBB31_21-LJTI31_0
.set L31_0_set_28, LBB31_28-LJTI31_0
.set L31_0_set_20, LBB31_20-LJTI31_0
.set L31_0_set_27, LBB31_27-LJTI31_0
.set L31_0_set_16, LBB31_16-LJTI31_0
LJTI31_0:
	.long	L31_0_set_14
	.long	L31_0_set_2
	.long	L31_0_set_4
	.long	L31_0_set_3
	.long	L31_0_set_6
	.long	L31_0_set_34
	.long	L31_0_set_34
	.long	L31_0_set_34
	.long	L31_0_set_5
	.long	L31_0_set_15
	.long	L31_0_set_34
	.long	L31_0_set_34
	.long	L31_0_set_10
	.long	L31_0_set_21
	.long	L31_0_set_28
	.long	L31_0_set_20
	.long	L31_0_set_27
	.long	L31_0_set_16
	.end_data_region
                                        ## -- End function
	.globl	__ZNSt3__1lsINS_11char_traitsIcEEEERNS_13basic_ostreamIcT_EES6_PKc ## -- Begin function _ZNSt3__1lsINS_11char_traitsIcEEEERNS_13basic_ostreamIcT_EES6_PKc
	.weak_definition	__ZNSt3__1lsINS_11char_traitsIcEEEERNS_13basic_ostreamIcT_EES6_PKc
	.p2align	4, 0x90
__ZNSt3__1lsINS_11char_traitsIcEEEERNS_13basic_ostreamIcT_EES6_PKc: ## @_ZNSt3__1lsINS_11char_traitsIcEEEERNS_13basic_ostreamIcT_EES6_PKc
	.cfi_startproc
## %bb.0:
	pushq	%rbp
	.cfi_def_cfa_offset 16
	.cfi_offset %rbp, -16
	movq	%rsp, %rbp
	.cfi_def_cfa_register %rbp
	pushq	%r14
	pushq	%rbx
	subq	$16, %rsp
	.cfi_offset %rbx, -32
	.cfi_offset %r14, -24
	movq	%rdi, -32(%rbp)
	movq	%rsi, -24(%rbp)
	movq	-32(%rbp), %rbx
	movq	-24(%rbp), %r14
	movq	-24(%rbp), %rdi
	callq	__ZNSt3__111char_traitsIcE6lengthEPKc
	movq	%rbx, %rdi
	movq	%r14, %rsi
	movq	%rax, %rdx
	callq	__ZNSt3__124__put_character_sequenceIcNS_11char_traitsIcEEEERNS_13basic_ostreamIT_T0_EES7_PKS4_m
	addq	$16, %rsp
	popq	%rbx
	popq	%r14
	popq	%rbp
	retq
	.cfi_endproc
                                        ## -- End function
	.private_extern	__ZNK14altered_carbon2js13RefCountedPtrINS0_9JsVariantEE3getEv ## -- Begin function _ZNK14altered_carbon2js13RefCountedPtrINS0_9JsVariantEE3getEv
	.globl	__ZNK14altered_carbon2js13RefCountedPtrINS0_9JsVariantEE3getEv
	.weak_definition	__ZNK14altered_carbon2js13RefCountedPtrINS0_9JsVariantEE3getEv
	.p2align	4, 0x90
__ZNK14altered_carbon2js13RefCountedPtrINS0_9JsVariantEE3getEv: ## @_ZNK14altered_carbon2js13RefCountedPtrINS0_9JsVariantEE3getEv
	.cfi_startproc
## %bb.0:
	pushq	%rbp
	.cfi_def_cfa_offset 16
	.cfi_offset %rbp, -16
	movq	%rsp, %rbp
	.cfi_def_cfa_register %rbp
	movq	%rdi, -8(%rbp)
	movq	-8(%rbp), %rax
	movq	(%rax), %rax
	popq	%rbp
	retq
	.cfi_endproc
                                        ## -- End function
	.private_extern	__ZNK14altered_carbon2js13RefCountedPtrINS0_9JsVariantEEptEv ## -- Begin function _ZNK14altered_carbon2js13RefCountedPtrINS0_9JsVariantEEptEv
	.globl	__ZNK14altered_carbon2js13RefCountedPtrINS0_9JsVariantEEptEv
	.weak_definition	__ZNK14altered_carbon2js13RefCountedPtrINS0_9JsVariantEEptEv
	.p2align	4, 0x90
__ZNK14altered_carbon2js13RefCountedPtrINS0_9JsVariantEEptEv: ## @_ZNK14altered_carbon2js13RefCountedPtrINS0_9JsVariantEEptEv
	.cfi_startproc
## %bb.0:
	pushq	%rbp
	.cfi_def_cfa_offset 16
	.cfi_offset %rbp, -16
	movq	%rsp, %rbp
	.cfi_def_cfa_register %rbp
	movq	%rdi, -8(%rbp)
	movq	-8(%rbp), %rax
	movq	(%rax), %rax
	popq	%rbp
	retq
	.cfi_endproc
                                        ## -- End function
	.private_extern	__ZNK14altered_carbon2js13RefCountedPtrINS0_14JsVariantArrayEE3getEv ## -- Begin function _ZNK14altered_carbon2js13RefCountedPtrINS0_14JsVariantArrayEE3getEv
	.globl	__ZNK14altered_carbon2js13RefCountedPtrINS0_14JsVariantArrayEE3getEv
	.weak_definition	__ZNK14altered_carbon2js13RefCountedPtrINS0_14JsVariantArrayEE3getEv
	.p2align	4, 0x90
__ZNK14altered_carbon2js13RefCountedPtrINS0_14JsVariantArrayEE3getEv: ## @_ZNK14altered_carbon2js13RefCountedPtrINS0_14JsVariantArrayEE3getEv
	.cfi_startproc
## %bb.0:
	pushq	%rbp
	.cfi_def_cfa_offset 16
	.cfi_offset %rbp, -16
	movq	%rsp, %rbp
	.cfi_def_cfa_register %rbp
	movq	%rdi, -8(%rbp)
	movq	-8(%rbp), %rax
	movq	(%rax), %rax
	popq	%rbp
	retq
	.cfi_endproc
                                        ## -- End function
	.private_extern	__ZNK14altered_carbon2js13RefCountedPtrINS0_14JsVariantArrayEEptEv ## -- Begin function _ZNK14altered_carbon2js13RefCountedPtrINS0_14JsVariantArrayEEptEv
	.globl	__ZNK14altered_carbon2js13RefCountedPtrINS0_14JsVariantArrayEEptEv
	.weak_definition	__ZNK14altered_carbon2js13RefCountedPtrINS0_14JsVariantArrayEEptEv
	.p2align	4, 0x90
__ZNK14altered_carbon2js13RefCountedPtrINS0_14JsVariantArrayEEptEv: ## @_ZNK14altered_carbon2js13RefCountedPtrINS0_14JsVariantArrayEEptEv
	.cfi_startproc
## %bb.0:
	pushq	%rbp
	.cfi_def_cfa_offset 16
	.cfi_offset %rbp, -16
	movq	%rsp, %rbp
	.cfi_def_cfa_register %rbp
	movq	%rdi, -8(%rbp)
	movq	-8(%rbp), %rax
	movq	(%rax), %rax
	popq	%rbp
	retq
	.cfi_endproc
                                        ## -- End function
	.private_extern	__ZNK14altered_carbon2js14JsVariantArray4dumpERNSt3__113basic_ostreamIcNS2_11char_traitsIcEEEE ## -- Begin function _ZNK14altered_carbon2js14JsVariantArray4dumpERNSt3__113basic_ostreamIcNS2_11char_traitsIcEEEE
	.globl	__ZNK14altered_carbon2js14JsVariantArray4dumpERNSt3__113basic_ostreamIcNS2_11char_traitsIcEEEE
	.weak_definition	__ZNK14altered_carbon2js14JsVariantArray4dumpERNSt3__113basic_ostreamIcNS2_11char_traitsIcEEEE
	.p2align	4, 0x90
__ZNK14altered_carbon2js14JsVariantArray4dumpERNSt3__113basic_ostreamIcNS2_11char_traitsIcEEEE: ## @_ZNK14altered_carbon2js14JsVariantArray4dumpERNSt3__113basic_ostreamIcNS2_11char_traitsIcEEEE
	.cfi_startproc
## %bb.0:
	pushq	%rbp
	.cfi_def_cfa_offset 16
	.cfi_offset %rbp, -16
	movq	%rsp, %rbp
	.cfi_def_cfa_register %rbp
	subq	$16, %rsp
	movq	%rdi, -16(%rbp)
	movq	%rsi, -8(%rbp)
	movq	-16(%rbp), %rdi
	movq	8(%rdi), %rsi
	movq	-8(%rbp), %rdx
	callq	__ZNK14altered_carbon2js14JsVariantArray11inOrderDumpEPNS0_10RBTreeNodeINS0_9JsVariantEEERNSt3__113basic_ostreamIcNS6_11char_traitsIcEEEE
	addq	$16, %rsp
	popq	%rbp
	retq
	.cfi_endproc
                                        ## -- End function
	.globl	__ZN14altered_carbon2js9JsVariantC2Ex ## -- Begin function _ZN14altered_carbon2js9JsVariantC2Ex
	.p2align	4, 0x90
__ZN14altered_carbon2js9JsVariantC2Ex:  ## @_ZN14altered_carbon2js9JsVariantC2Ex
	.cfi_startproc
## %bb.0:
	pushq	%rbp
	.cfi_def_cfa_offset 16
	.cfi_offset %rbp, -16
	movq	%rsp, %rbp
	.cfi_def_cfa_register %rbp
	subq	$16, %rsp
	leaq	__ZTVN14altered_carbon2js9JsVariantE(%rip), %rax
	addq	$16, %rax
	movq	%rdi, -16(%rbp)
	movq	%rsi, -8(%rbp)
	movq	-16(%rbp), %rdi
	movq	%rax, (%rdi)
	movl	$2, 8(%rdi)
	addq	$16, %rdi
	movq	-8(%rbp), %rsi
	callq	__ZN14altered_carbon2js15JsVariantNumberC1Ex
	addq	$16, %rsp
	popq	%rbp
	retq
	.cfi_endproc
                                        ## -- End function
	.private_extern	__ZN14altered_carbon2js15JsVariantNumberC1Ex ## -- Begin function _ZN14altered_carbon2js15JsVariantNumberC1Ex
	.globl	__ZN14altered_carbon2js15JsVariantNumberC1Ex
	.weak_def_can_be_hidden	__ZN14altered_carbon2js15JsVariantNumberC1Ex
	.p2align	4, 0x90
__ZN14altered_carbon2js15JsVariantNumberC1Ex: ## @_ZN14altered_carbon2js15JsVariantNumberC1Ex
	.cfi_startproc
## %bb.0:
	pushq	%rbp
	.cfi_def_cfa_offset 16
	.cfi_offset %rbp, -16
	movq	%rsp, %rbp
	.cfi_def_cfa_register %rbp
	subq	$16, %rsp
	movq	%rdi, -16(%rbp)
	movq	%rsi, -8(%rbp)
	movq	-16(%rbp), %rdi
	movq	-8(%rbp), %rsi
	callq	__ZN14altered_carbon2js15JsVariantNumberC2Ex
	addq	$16, %rsp
	popq	%rbp
	retq
	.cfi_endproc
                                        ## -- End function
	.globl	__ZN14altered_carbon2js9JsVariantC1Ex ## -- Begin function _ZN14altered_carbon2js9JsVariantC1Ex
	.p2align	4, 0x90
__ZN14altered_carbon2js9JsVariantC1Ex:  ## @_ZN14altered_carbon2js9JsVariantC1Ex
	.cfi_startproc
## %bb.0:
	pushq	%rbp
	.cfi_def_cfa_offset 16
	.cfi_offset %rbp, -16
	movq	%rsp, %rbp
	.cfi_def_cfa_register %rbp
	subq	$16, %rsp
	movq	%rdi, -16(%rbp)
	movq	%rsi, -8(%rbp)
	movq	-16(%rbp), %rdi
	movq	-8(%rbp), %rsi
	callq	__ZN14altered_carbon2js9JsVariantC2Ex
	addq	$16, %rsp
	popq	%rbp
	retq
	.cfi_endproc
                                        ## -- End function
	.globl	__ZN14altered_carbon2js9JsVariantC2Ei ## -- Begin function _ZN14altered_carbon2js9JsVariantC2Ei
	.p2align	4, 0x90
__ZN14altered_carbon2js9JsVariantC2Ei:  ## @_ZN14altered_carbon2js9JsVariantC2Ei
	.cfi_startproc
## %bb.0:
	pushq	%rbp
	.cfi_def_cfa_offset 16
	.cfi_offset %rbp, -16
	movq	%rsp, %rbp
	.cfi_def_cfa_register %rbp
	subq	$16, %rsp
	leaq	__ZTVN14altered_carbon2js9JsVariantE(%rip), %rax
	addq	$16, %rax
	movq	%rdi, -16(%rbp)
	movl	%esi, -4(%rbp)
	movq	-16(%rbp), %rdi
	movq	%rax, (%rdi)
	movl	$2, 8(%rdi)
	addq	$16, %rdi
	movl	-4(%rbp), %esi
	callq	__ZN14altered_carbon2js15JsVariantNumberC1Ei
	addq	$16, %rsp
	popq	%rbp
	retq
	.cfi_endproc
                                        ## -- End function
	.private_extern	__ZN14altered_carbon2js15JsVariantNumberC1Ei ## -- Begin function _ZN14altered_carbon2js15JsVariantNumberC1Ei
	.globl	__ZN14altered_carbon2js15JsVariantNumberC1Ei
	.weak_def_can_be_hidden	__ZN14altered_carbon2js15JsVariantNumberC1Ei
	.p2align	4, 0x90
__ZN14altered_carbon2js15JsVariantNumberC1Ei: ## @_ZN14altered_carbon2js15JsVariantNumberC1Ei
	.cfi_startproc
## %bb.0:
	pushq	%rbp
	.cfi_def_cfa_offset 16
	.cfi_offset %rbp, -16
	movq	%rsp, %rbp
	.cfi_def_cfa_register %rbp
	subq	$16, %rsp
	movq	%rdi, -16(%rbp)
	movl	%esi, -4(%rbp)
	movq	-16(%rbp), %rdi
	movl	-4(%rbp), %esi
	callq	__ZN14altered_carbon2js15JsVariantNumberC2Ei
	addq	$16, %rsp
	popq	%rbp
	retq
	.cfi_endproc
                                        ## -- End function
	.globl	__ZN14altered_carbon2js9JsVariantC1Ei ## -- Begin function _ZN14altered_carbon2js9JsVariantC1Ei
	.p2align	4, 0x90
__ZN14altered_carbon2js9JsVariantC1Ei:  ## @_ZN14altered_carbon2js9JsVariantC1Ei
	.cfi_startproc
## %bb.0:
	pushq	%rbp
	.cfi_def_cfa_offset 16
	.cfi_offset %rbp, -16
	movq	%rsp, %rbp
	.cfi_def_cfa_register %rbp
	subq	$16, %rsp
	movq	%rdi, -16(%rbp)
	movl	%esi, -4(%rbp)
	movq	-16(%rbp), %rdi
	movl	-4(%rbp), %esi
	callq	__ZN14altered_carbon2js9JsVariantC2Ei
	addq	$16, %rsp
	popq	%rbp
	retq
	.cfi_endproc
                                        ## -- End function
	.globl	__ZN14altered_carbon2js9JsVariantC2Ed ## -- Begin function _ZN14altered_carbon2js9JsVariantC2Ed
	.p2align	4, 0x90
__ZN14altered_carbon2js9JsVariantC2Ed:  ## @_ZN14altered_carbon2js9JsVariantC2Ed
	.cfi_startproc
## %bb.0:
	pushq	%rbp
	.cfi_def_cfa_offset 16
	.cfi_offset %rbp, -16
	movq	%rsp, %rbp
	.cfi_def_cfa_register %rbp
	subq	$16, %rsp
	leaq	__ZTVN14altered_carbon2js9JsVariantE(%rip), %rax
	addq	$16, %rax
	movq	%rdi, -16(%rbp)
	movsd	%xmm0, -8(%rbp)
	movq	-16(%rbp), %rdi
	movq	%rax, (%rdi)
	movl	$2, 8(%rdi)
	addq	$16, %rdi
	movsd	-8(%rbp), %xmm0         ## xmm0 = mem[0],zero
	callq	__ZN14altered_carbon2js15JsVariantNumberC1Ed
	addq	$16, %rsp
	popq	%rbp
	retq
	.cfi_endproc
                                        ## -- End function
	.private_extern	__ZN14altered_carbon2js15JsVariantNumberC1Ed ## -- Begin function _ZN14altered_carbon2js15JsVariantNumberC1Ed
	.globl	__ZN14altered_carbon2js15JsVariantNumberC1Ed
	.weak_def_can_be_hidden	__ZN14altered_carbon2js15JsVariantNumberC1Ed
	.p2align	4, 0x90
__ZN14altered_carbon2js15JsVariantNumberC1Ed: ## @_ZN14altered_carbon2js15JsVariantNumberC1Ed
	.cfi_startproc
## %bb.0:
	pushq	%rbp
	.cfi_def_cfa_offset 16
	.cfi_offset %rbp, -16
	movq	%rsp, %rbp
	.cfi_def_cfa_register %rbp
	subq	$16, %rsp
	movq	%rdi, -16(%rbp)
	movsd	%xmm0, -8(%rbp)
	movq	-16(%rbp), %rdi
	movsd	-8(%rbp), %xmm0         ## xmm0 = mem[0],zero
	callq	__ZN14altered_carbon2js15JsVariantNumberC2Ed
	addq	$16, %rsp
	popq	%rbp
	retq
	.cfi_endproc
                                        ## -- End function
	.globl	__ZN14altered_carbon2js9JsVariantC1Ed ## -- Begin function _ZN14altered_carbon2js9JsVariantC1Ed
	.p2align	4, 0x90
__ZN14altered_carbon2js9JsVariantC1Ed:  ## @_ZN14altered_carbon2js9JsVariantC1Ed
	.cfi_startproc
## %bb.0:
	pushq	%rbp
	.cfi_def_cfa_offset 16
	.cfi_offset %rbp, -16
	movq	%rsp, %rbp
	.cfi_def_cfa_register %rbp
	subq	$16, %rsp
	movq	%rdi, -16(%rbp)
	movsd	%xmm0, -8(%rbp)
	movq	-16(%rbp), %rdi
	movsd	-8(%rbp), %xmm0         ## xmm0 = mem[0],zero
	callq	__ZN14altered_carbon2js9JsVariantC2Ed
	addq	$16, %rsp
	popq	%rbp
	retq
	.cfi_endproc
                                        ## -- End function
	.globl	__ZN14altered_carbon2js9JsVariantC2Ef ## -- Begin function _ZN14altered_carbon2js9JsVariantC2Ef
	.p2align	4, 0x90
__ZN14altered_carbon2js9JsVariantC2Ef:  ## @_ZN14altered_carbon2js9JsVariantC2Ef
	.cfi_startproc
## %bb.0:
	pushq	%rbp
	.cfi_def_cfa_offset 16
	.cfi_offset %rbp, -16
	movq	%rsp, %rbp
	.cfi_def_cfa_register %rbp
	subq	$16, %rsp
	leaq	__ZTVN14altered_carbon2js9JsVariantE(%rip), %rax
	addq	$16, %rax
	movq	%rdi, -16(%rbp)
	movss	%xmm0, -4(%rbp)
	movq	-16(%rbp), %rdi
	movq	%rax, (%rdi)
	movl	$2, 8(%rdi)
	addq	$16, %rdi
	movss	-4(%rbp), %xmm0         ## xmm0 = mem[0],zero,zero,zero
	callq	__ZN14altered_carbon2js15JsVariantNumberC1Ef
	addq	$16, %rsp
	popq	%rbp
	retq
	.cfi_endproc
                                        ## -- End function
	.private_extern	__ZN14altered_carbon2js15JsVariantNumberC1Ef ## -- Begin function _ZN14altered_carbon2js15JsVariantNumberC1Ef
	.globl	__ZN14altered_carbon2js15JsVariantNumberC1Ef
	.weak_def_can_be_hidden	__ZN14altered_carbon2js15JsVariantNumberC1Ef
	.p2align	4, 0x90
__ZN14altered_carbon2js15JsVariantNumberC1Ef: ## @_ZN14altered_carbon2js15JsVariantNumberC1Ef
	.cfi_startproc
## %bb.0:
	pushq	%rbp
	.cfi_def_cfa_offset 16
	.cfi_offset %rbp, -16
	movq	%rsp, %rbp
	.cfi_def_cfa_register %rbp
	subq	$16, %rsp
	movq	%rdi, -16(%rbp)
	movss	%xmm0, -4(%rbp)
	movq	-16(%rbp), %rdi
	movss	-4(%rbp), %xmm0         ## xmm0 = mem[0],zero,zero,zero
	callq	__ZN14altered_carbon2js15JsVariantNumberC2Ef
	addq	$16, %rsp
	popq	%rbp
	retq
	.cfi_endproc
                                        ## -- End function
	.globl	__ZN14altered_carbon2js9JsVariantC1Ef ## -- Begin function _ZN14altered_carbon2js9JsVariantC1Ef
	.p2align	4, 0x90
__ZN14altered_carbon2js9JsVariantC1Ef:  ## @_ZN14altered_carbon2js9JsVariantC1Ef
	.cfi_startproc
## %bb.0:
	pushq	%rbp
	.cfi_def_cfa_offset 16
	.cfi_offset %rbp, -16
	movq	%rsp, %rbp
	.cfi_def_cfa_register %rbp
	subq	$16, %rsp
	movq	%rdi, -16(%rbp)
	movss	%xmm0, -4(%rbp)
	movq	-16(%rbp), %rdi
	movss	-4(%rbp), %xmm0         ## xmm0 = mem[0],zero,zero,zero
	callq	__ZN14altered_carbon2js9JsVariantC2Ef
	addq	$16, %rsp
	popq	%rbp
	retq
	.cfi_endproc
                                        ## -- End function
	.globl	__ZN14altered_carbon2js9JsVariantC2Eb ## -- Begin function _ZN14altered_carbon2js9JsVariantC2Eb
	.p2align	4, 0x90
__ZN14altered_carbon2js9JsVariantC2Eb:  ## @_ZN14altered_carbon2js9JsVariantC2Eb
	.cfi_startproc
## %bb.0:
	pushq	%rbp
	.cfi_def_cfa_offset 16
	.cfi_offset %rbp, -16
	movq	%rsp, %rbp
	.cfi_def_cfa_register %rbp
	leaq	__ZTVN14altered_carbon2js9JsVariantE(%rip), %rax
	addq	$16, %rax
	movq	%rdi, -16(%rbp)
	andb	$1, %sil
	movb	%sil, -1(%rbp)
	movq	-16(%rbp), %rcx
	movq	%rax, (%rcx)
	movl	$6, 8(%rcx)
	movb	-1(%rbp), %al
	andb	$1, %al
	movb	%al, 16(%rcx)
	popq	%rbp
	retq
	.cfi_endproc
                                        ## -- End function
	.globl	__ZN14altered_carbon2js9JsVariantC1Eb ## -- Begin function _ZN14altered_carbon2js9JsVariantC1Eb
	.p2align	4, 0x90
__ZN14altered_carbon2js9JsVariantC1Eb:  ## @_ZN14altered_carbon2js9JsVariantC1Eb
	.cfi_startproc
## %bb.0:
	pushq	%rbp
	.cfi_def_cfa_offset 16
	.cfi_offset %rbp, -16
	movq	%rsp, %rbp
	.cfi_def_cfa_register %rbp
	subq	$16, %rsp
	movq	%rdi, -16(%rbp)
	andb	$1, %sil
	movb	%sil, -1(%rbp)
	movq	-16(%rbp), %rdi
	movb	-1(%rbp), %al
	andb	$1, %al
	movzbl	%al, %esi
	callq	__ZN14altered_carbon2js9JsVariantC2Eb
	addq	$16, %rsp
	popq	%rbp
	retq
	.cfi_endproc
                                        ## -- End function
	.globl	__ZN14altered_carbon2js9JsVariantC2ERKNSt3__112basic_stringIwNS2_11char_traitsIwEENS2_9allocatorIwEEEE ## -- Begin function _ZN14altered_carbon2js9JsVariantC2ERKNSt3__112basic_stringIwNS2_11char_traitsIwEENS2_9allocatorIwEEEE
	.p2align	4, 0x90
__ZN14altered_carbon2js9JsVariantC2ERKNSt3__112basic_stringIwNS2_11char_traitsIwEENS2_9allocatorIwEEEE: ## @_ZN14altered_carbon2js9JsVariantC2ERKNSt3__112basic_stringIwNS2_11char_traitsIwEENS2_9allocatorIwEEEE
	.cfi_startproc
## %bb.0:
	pushq	%rbp
	.cfi_def_cfa_offset 16
	.cfi_offset %rbp, -16
	movq	%rsp, %rbp
	.cfi_def_cfa_register %rbp
	pushq	%r15
	pushq	%r14
	pushq	%rbx
	subq	$184, %rsp
	.cfi_offset %rbx, -40
	.cfi_offset %r14, -32
	.cfi_offset %r15, -24
	leaq	__ZTVN14altered_carbon2js9JsVariantE(%rip), %rax
	addq	$16, %rax
	movq	%rdi, -56(%rbp)
	movq	%rsi, -48(%rbp)
	movq	-56(%rbp), %rbx
	movq	%rax, (%rbx)
	movl	$10, 8(%rbx)
	addq	$16, %rbx
	movq	-48(%rbp), %rsi
	leaq	-40(%rbp), %rdi
	callq	__ZN4llvm11make_uniqueINSt3__112basic_stringIwNS1_11char_traitsIwEENS1_9allocatorIwEEEEJRKS7_EEENS1_9enable_ifIXntsr3std8is_arrayIT_EE5valueENS1_10unique_ptrISB_NS1_14default_deleteISB_EEEEE4typeEDpOT0_
	leaq	-40(%rbp), %rax
	movq	%rax, -72(%rbp)
	movq	-72(%rbp), %rcx
	movq	%rcx, -80(%rbp)
	movq	-80(%rbp), %rdx
	movq	%rdx, -88(%rbp)
	movq	-88(%rbp), %rdx
	movq	(%rdx), %rdx
	movq	%rdx, -64(%rbp)
	movq	%rcx, -96(%rbp)
	movq	-96(%rbp), %rcx
	movq	%rcx, -104(%rbp)
	movq	-104(%rbp), %rcx
	movq	$0, (%rcx)
	movq	-64(%rbp), %r15
	movq	%rax, -112(%rbp)
	movq	-112(%rbp), %rax
	movq	%rax, -120(%rbp)
	movq	-120(%rbp), %rax
	movq	%rax, -136(%rbp)
	movq	$0, -128(%rbp)
	movq	-136(%rbp), %rax
	movq	%rax, -144(%rbp)
	movq	-144(%rbp), %rcx
	movq	%rcx, -152(%rbp)
	movq	-152(%rbp), %rcx
	movq	(%rcx), %rcx
	movq	%rcx, -32(%rbp)
	movq	-128(%rbp), %rcx
	movq	%rax, -168(%rbp)
	movq	-168(%rbp), %rdx
	movq	%rdx, -176(%rbp)
	movq	-176(%rbp), %rdx
	movq	%rcx, (%rdx)
	cmpq	$0, -32(%rbp)
	je	LBB52_4
## %bb.1:
	movq	%rax, -184(%rbp)
	movq	-184(%rbp), %rax
	movq	%rax, -192(%rbp)
	movq	-192(%rbp), %rax
	movq	-32(%rbp), %rcx
	movq	%rax, -200(%rbp)
	movq	%rcx, -160(%rbp)
	movq	-160(%rbp), %r14
	cmpq	$0, %r14
	je	LBB52_3
## %bb.2:
	movq	%r14, %rdi
	callq	__ZNSt3__112basic_stringIwNS_11char_traitsIwEENS_9allocatorIwEEED1Ev
	movq	%r14, %rdi
	callq	__ZdlPv
LBB52_3:
	jmp	LBB52_4
LBB52_4:
	movq	%r15, (%rbx)
	addq	$184, %rsp
	popq	%rbx
	popq	%r14
	popq	%r15
	popq	%rbp
	retq
	.cfi_endproc
                                        ## -- End function
	.globl	__ZN4llvm11make_uniqueINSt3__112basic_stringIwNS1_11char_traitsIwEENS1_9allocatorIwEEEEJRKS7_EEENS1_9enable_ifIXntsr3std8is_arrayIT_EE5valueENS1_10unique_ptrISB_NS1_14default_deleteISB_EEEEE4typeEDpOT0_ ## -- Begin function _ZN4llvm11make_uniqueINSt3__112basic_stringIwNS1_11char_traitsIwEENS1_9allocatorIwEEEEJRKS7_EEENS1_9enable_ifIXntsr3std8is_arrayIT_EE5valueENS1_10unique_ptrISB_NS1_14default_deleteISB_EEEEE4typeEDpOT0_
	.weak_definition	__ZN4llvm11make_uniqueINSt3__112basic_stringIwNS1_11char_traitsIwEENS1_9allocatorIwEEEEJRKS7_EEENS1_9enable_ifIXntsr3std8is_arrayIT_EE5valueENS1_10unique_ptrISB_NS1_14default_deleteISB_EEEEE4typeEDpOT0_
	.p2align	4, 0x90
__ZN4llvm11make_uniqueINSt3__112basic_stringIwNS1_11char_traitsIwEENS1_9allocatorIwEEEEJRKS7_EEENS1_9enable_ifIXntsr3std8is_arrayIT_EE5valueENS1_10unique_ptrISB_NS1_14default_deleteISB_EEEEE4typeEDpOT0_: ## @_ZN4llvm11make_uniqueINSt3__112basic_stringIwNS1_11char_traitsIwEENS1_9allocatorIwEEEEJRKS7_EEENS1_9enable_ifIXntsr3std8is_arrayIT_EE5valueENS1_10unique_ptrISB_NS1_14default_deleteISB_EEEEE4typeEDpOT0_
	.cfi_startproc
## %bb.0:
	pushq	%rbp
	.cfi_def_cfa_offset 16
	.cfi_offset %rbp, -16
	movq	%rsp, %rbp
	.cfi_def_cfa_register %rbp
	pushq	%r14
	pushq	%rbx
	subq	$112, %rsp
	.cfi_offset %rbx, -32
	.cfi_offset %r14, -24
	movq	%rdi, %r14
	movq	%rsi, -24(%rbp)
	movl	$24, %edi
	callq	__Znwm
	movq	%rax, %rbx
	movq	-24(%rbp), %rax
	movq	%rax, -32(%rbp)
	movq	-32(%rbp), %rsi
	movq	%rbx, %rdi
	callq	__ZNSt3__112basic_stringIwNS_11char_traitsIwEENS_9allocatorIwEEEC1ERKS5_
	movq	%r14, -48(%rbp)
	movq	%rbx, -40(%rbp)
	movq	-48(%rbp), %rax
	movq	-40(%rbp), %rcx
	movq	%rax, -64(%rbp)
	movq	%rcx, -56(%rbp)
	movq	-64(%rbp), %rax
	movq	%rax, -80(%rbp)
	leaq	-56(%rbp), %rax
	movq	%rax, -72(%rbp)
	movq	-80(%rbp), %rax
	movq	-72(%rbp), %rcx
	movq	%rax, -96(%rbp)
	movq	%rcx, -88(%rbp)
	movq	-96(%rbp), %rax
	movq	-88(%rbp), %rcx
	movq	%rcx, -104(%rbp)
	movq	-104(%rbp), %rcx
	movq	%rax, -120(%rbp)
	movq	%rcx, -112(%rbp)
	movq	-120(%rbp), %rax
	movq	-112(%rbp), %rcx
	movq	%rcx, -128(%rbp)
	movq	-128(%rbp), %rcx
	movq	(%rcx), %rcx
	movq	%rcx, (%rax)
	movq	%r14, %rax
	addq	$112, %rsp
	popq	%rbx
	popq	%r14
	popq	%rbp
	retq
	.cfi_endproc
                                        ## -- End function
	.globl	__ZN14altered_carbon2js9JsVariantC1ERKNSt3__112basic_stringIwNS2_11char_traitsIwEENS2_9allocatorIwEEEE ## -- Begin function _ZN14altered_carbon2js9JsVariantC1ERKNSt3__112basic_stringIwNS2_11char_traitsIwEENS2_9allocatorIwEEEE
	.p2align	4, 0x90
__ZN14altered_carbon2js9JsVariantC1ERKNSt3__112basic_stringIwNS2_11char_traitsIwEENS2_9allocatorIwEEEE: ## @_ZN14altered_carbon2js9JsVariantC1ERKNSt3__112basic_stringIwNS2_11char_traitsIwEENS2_9allocatorIwEEEE
	.cfi_startproc
## %bb.0:
	pushq	%rbp
	.cfi_def_cfa_offset 16
	.cfi_offset %rbp, -16
	movq	%rsp, %rbp
	.cfi_def_cfa_register %rbp
	subq	$16, %rsp
	movq	%rdi, -16(%rbp)
	movq	%rsi, -8(%rbp)
	movq	-16(%rbp), %rdi
	movq	-8(%rbp), %rsi
	callq	__ZN14altered_carbon2js9JsVariantC2ERKNSt3__112basic_stringIwNS2_11char_traitsIwEENS2_9allocatorIwEEEE
	addq	$16, %rsp
	popq	%rbp
	retq
	.cfi_endproc
                                        ## -- End function
	.globl	__ZN14altered_carbon2js9JsVariantC2EPKw ## -- Begin function _ZN14altered_carbon2js9JsVariantC2EPKw
	.p2align	4, 0x90
__ZN14altered_carbon2js9JsVariantC2EPKw: ## @_ZN14altered_carbon2js9JsVariantC2EPKw
	.cfi_startproc
## %bb.0:
	pushq	%rbp
	.cfi_def_cfa_offset 16
	.cfi_offset %rbp, -16
	movq	%rsp, %rbp
	.cfi_def_cfa_register %rbp
	pushq	%r15
	pushq	%r14
	pushq	%rbx
	subq	$184, %rsp
	.cfi_offset %rbx, -40
	.cfi_offset %r14, -32
	.cfi_offset %r15, -24
	leaq	__ZTVN14altered_carbon2js9JsVariantE(%rip), %rax
	addq	$16, %rax
	movq	%rdi, -56(%rbp)
	movq	%rsi, -48(%rbp)
	movq	-56(%rbp), %rbx
	movq	%rax, (%rbx)
	movl	$10, 8(%rbx)
	addq	$16, %rbx
	leaq	-40(%rbp), %rdi
	leaq	-48(%rbp), %rsi
	callq	__ZN4llvm11make_uniqueINSt3__112basic_stringIwNS1_11char_traitsIwEENS1_9allocatorIwEEEEJRPKwEEENS1_9enable_ifIXntsr3std8is_arrayIT_EE5valueENS1_10unique_ptrISC_NS1_14default_deleteISC_EEEEE4typeEDpOT0_
	leaq	-40(%rbp), %rax
	movq	%rax, -72(%rbp)
	movq	-72(%rbp), %rcx
	movq	%rcx, -80(%rbp)
	movq	-80(%rbp), %rdx
	movq	%rdx, -88(%rbp)
	movq	-88(%rbp), %rdx
	movq	(%rdx), %rdx
	movq	%rdx, -64(%rbp)
	movq	%rcx, -96(%rbp)
	movq	-96(%rbp), %rcx
	movq	%rcx, -104(%rbp)
	movq	-104(%rbp), %rcx
	movq	$0, (%rcx)
	movq	-64(%rbp), %r15
	movq	%rax, -112(%rbp)
	movq	-112(%rbp), %rax
	movq	%rax, -120(%rbp)
	movq	-120(%rbp), %rax
	movq	%rax, -136(%rbp)
	movq	$0, -128(%rbp)
	movq	-136(%rbp), %rax
	movq	%rax, -144(%rbp)
	movq	-144(%rbp), %rcx
	movq	%rcx, -152(%rbp)
	movq	-152(%rbp), %rcx
	movq	(%rcx), %rcx
	movq	%rcx, -32(%rbp)
	movq	-128(%rbp), %rcx
	movq	%rax, -168(%rbp)
	movq	-168(%rbp), %rdx
	movq	%rdx, -176(%rbp)
	movq	-176(%rbp), %rdx
	movq	%rcx, (%rdx)
	cmpq	$0, -32(%rbp)
	je	LBB55_4
## %bb.1:
	movq	%rax, -184(%rbp)
	movq	-184(%rbp), %rax
	movq	%rax, -192(%rbp)
	movq	-192(%rbp), %rax
	movq	-32(%rbp), %rcx
	movq	%rax, -200(%rbp)
	movq	%rcx, -160(%rbp)
	movq	-160(%rbp), %r14
	cmpq	$0, %r14
	je	LBB55_3
## %bb.2:
	movq	%r14, %rdi
	callq	__ZNSt3__112basic_stringIwNS_11char_traitsIwEENS_9allocatorIwEEED1Ev
	movq	%r14, %rdi
	callq	__ZdlPv
LBB55_3:
	jmp	LBB55_4
LBB55_4:
	movq	%r15, (%rbx)
	addq	$184, %rsp
	popq	%rbx
	popq	%r14
	popq	%r15
	popq	%rbp
	retq
	.cfi_endproc
                                        ## -- End function
	.globl	__ZN4llvm11make_uniqueINSt3__112basic_stringIwNS1_11char_traitsIwEENS1_9allocatorIwEEEEJRPKwEEENS1_9enable_ifIXntsr3std8is_arrayIT_EE5valueENS1_10unique_ptrISC_NS1_14default_deleteISC_EEEEE4typeEDpOT0_ ## -- Begin function _ZN4llvm11make_uniqueINSt3__112basic_stringIwNS1_11char_traitsIwEENS1_9allocatorIwEEEEJRPKwEEENS1_9enable_ifIXntsr3std8is_arrayIT_EE5valueENS1_10unique_ptrISC_NS1_14default_deleteISC_EEEEE4typeEDpOT0_
	.weak_definition	__ZN4llvm11make_uniqueINSt3__112basic_stringIwNS1_11char_traitsIwEENS1_9allocatorIwEEEEJRPKwEEENS1_9enable_ifIXntsr3std8is_arrayIT_EE5valueENS1_10unique_ptrISC_NS1_14default_deleteISC_EEEEE4typeEDpOT0_
	.p2align	4, 0x90
__ZN4llvm11make_uniqueINSt3__112basic_stringIwNS1_11char_traitsIwEENS1_9allocatorIwEEEEJRPKwEEENS1_9enable_ifIXntsr3std8is_arrayIT_EE5valueENS1_10unique_ptrISC_NS1_14default_deleteISC_EEEEE4typeEDpOT0_: ## @_ZN4llvm11make_uniqueINSt3__112basic_stringIwNS1_11char_traitsIwEENS1_9allocatorIwEEEEJRPKwEEENS1_9enable_ifIXntsr3std8is_arrayIT_EE5valueENS1_10unique_ptrISC_NS1_14default_deleteISC_EEEEE4typeEDpOT0_
	.cfi_startproc
## %bb.0:
	pushq	%rbp
	.cfi_def_cfa_offset 16
	.cfi_offset %rbp, -16
	movq	%rsp, %rbp
	.cfi_def_cfa_register %rbp
	pushq	%r15
	pushq	%r14
	pushq	%r12
	pushq	%rbx
	subq	$192, %rsp
	.cfi_offset %rbx, -48
	.cfi_offset %r12, -40
	.cfi_offset %r14, -32
	.cfi_offset %r15, -24
	movq	%rdi, %r14
	movq	%rsi, -48(%rbp)
	movl	$24, %edi
	callq	__Znwm
	movq	%rax, %r15
	movq	-48(%rbp), %rax
	movq	%rax, -56(%rbp)
	movq	-56(%rbp), %rax
	movq	(%rax), %rax
	movq	%r15, -168(%rbp)
	movq	%rax, -160(%rbp)
	movq	-168(%rbp), %rax
	movq	-160(%rbp), %rcx
	movq	%rax, -176(%rbp)
	movq	%rcx, -40(%rbp)
	movq	-176(%rbp), %r12
	movq	%r12, -184(%rbp)
	movq	-184(%rbp), %rax
	movq	%rax, -192(%rbp)
	movq	-192(%rbp), %rbx
	movq	%rbx, -200(%rbp)
	movq	-200(%rbp), %rdi
	xorl	%esi, %esi
	movl	$24, %edx
	callq	_memset
	movq	%rbx, -208(%rbp)
	movq	-208(%rbp), %rax
	movq	%rax, -216(%rbp)
	movq	-40(%rbp), %rbx
	movq	-40(%rbp), %rdi
	callq	__ZNSt3__111char_traitsIwE6lengthEPKw
	movq	%r12, %rdi
	movq	%rbx, %rsi
	movq	%rax, %rdx
	callq	__ZNSt3__112basic_stringIwNS_11char_traitsIwEENS_9allocatorIwEEE6__initEPKwm
	movq	%r14, -72(%rbp)
	movq	%r15, -64(%rbp)
	movq	-72(%rbp), %rax
	movq	-64(%rbp), %rcx
	movq	%rax, -88(%rbp)
	movq	%rcx, -80(%rbp)
	movq	-88(%rbp), %rax
	movq	%rax, -104(%rbp)
	leaq	-80(%rbp), %rax
	movq	%rax, -96(%rbp)
	movq	-104(%rbp), %rax
	movq	-96(%rbp), %rcx
	movq	%rax, -120(%rbp)
	movq	%rcx, -112(%rbp)
	movq	-120(%rbp), %rax
	movq	-112(%rbp), %rcx
	movq	%rcx, -128(%rbp)
	movq	-128(%rbp), %rcx
	movq	%rax, -144(%rbp)
	movq	%rcx, -136(%rbp)
	movq	-144(%rbp), %rax
	movq	-136(%rbp), %rcx
	movq	%rcx, -152(%rbp)
	movq	-152(%rbp), %rcx
	movq	(%rcx), %rcx
	movq	%rcx, (%rax)
	movq	%r14, %rax
	addq	$192, %rsp
	popq	%rbx
	popq	%r12
	popq	%r14
	popq	%r15
	popq	%rbp
	retq
	.cfi_endproc
                                        ## -- End function
	.globl	__ZN14altered_carbon2js9JsVariantC1EPKw ## -- Begin function _ZN14altered_carbon2js9JsVariantC1EPKw
	.p2align	4, 0x90
__ZN14altered_carbon2js9JsVariantC1EPKw: ## @_ZN14altered_carbon2js9JsVariantC1EPKw
	.cfi_startproc
## %bb.0:
	pushq	%rbp
	.cfi_def_cfa_offset 16
	.cfi_offset %rbp, -16
	movq	%rsp, %rbp
	.cfi_def_cfa_register %rbp
	subq	$16, %rsp
	movq	%rdi, -16(%rbp)
	movq	%rsi, -8(%rbp)
	movq	-16(%rbp), %rdi
	movq	-8(%rbp), %rsi
	callq	__ZN14altered_carbon2js9JsVariantC2EPKw
	addq	$16, %rsp
	popq	%rbp
	retq
	.cfi_endproc
                                        ## -- End function
	.globl	__ZN14altered_carbon2js9JsVariantC2Ew ## -- Begin function _ZN14altered_carbon2js9JsVariantC2Ew
	.p2align	4, 0x90
__ZN14altered_carbon2js9JsVariantC2Ew:  ## @_ZN14altered_carbon2js9JsVariantC2Ew
	.cfi_startproc
## %bb.0:
	pushq	%rbp
	.cfi_def_cfa_offset 16
	.cfi_offset %rbp, -16
	movq	%rsp, %rbp
	.cfi_def_cfa_register %rbp
	pushq	%r15
	pushq	%r14
	pushq	%rbx
	subq	$184, %rsp
	.cfi_offset %rbx, -40
	.cfi_offset %r14, -32
	.cfi_offset %r15, -24
	leaq	__ZTVN14altered_carbon2js9JsVariantE(%rip), %rax
	addq	$16, %rax
	movq	%rdi, -56(%rbp)
	movl	%esi, -32(%rbp)
	movq	-56(%rbp), %rbx
	movq	%rax, (%rbx)
	movl	$10, 8(%rbx)
	addq	$16, %rbx
	movl	$1, -28(%rbp)
	leaq	-48(%rbp), %rdi
	leaq	-28(%rbp), %rsi
	leaq	-32(%rbp), %rdx
	callq	__ZN4llvm11make_uniqueINSt3__112basic_stringIwNS1_11char_traitsIwEENS1_9allocatorIwEEEEJiRKwEEENS1_9enable_ifIXntsr3std8is_arrayIT_EE5valueENS1_10unique_ptrISB_NS1_14default_deleteISB_EEEEE4typeEDpOT0_
	leaq	-48(%rbp), %rax
	movq	%rax, -72(%rbp)
	movq	-72(%rbp), %rcx
	movq	%rcx, -80(%rbp)
	movq	-80(%rbp), %rdx
	movq	%rdx, -88(%rbp)
	movq	-88(%rbp), %rdx
	movq	(%rdx), %rdx
	movq	%rdx, -64(%rbp)
	movq	%rcx, -96(%rbp)
	movq	-96(%rbp), %rcx
	movq	%rcx, -104(%rbp)
	movq	-104(%rbp), %rcx
	movq	$0, (%rcx)
	movq	-64(%rbp), %r15
	movq	%rax, -112(%rbp)
	movq	-112(%rbp), %rax
	movq	%rax, -120(%rbp)
	movq	-120(%rbp), %rax
	movq	%rax, -136(%rbp)
	movq	$0, -128(%rbp)
	movq	-136(%rbp), %rax
	movq	%rax, -144(%rbp)
	movq	-144(%rbp), %rcx
	movq	%rcx, -152(%rbp)
	movq	-152(%rbp), %rcx
	movq	(%rcx), %rcx
	movq	%rcx, -40(%rbp)
	movq	-128(%rbp), %rcx
	movq	%rax, -168(%rbp)
	movq	-168(%rbp), %rdx
	movq	%rdx, -176(%rbp)
	movq	-176(%rbp), %rdx
	movq	%rcx, (%rdx)
	cmpq	$0, -40(%rbp)
	je	LBB58_4
## %bb.1:
	movq	%rax, -184(%rbp)
	movq	-184(%rbp), %rax
	movq	%rax, -192(%rbp)
	movq	-192(%rbp), %rax
	movq	-40(%rbp), %rcx
	movq	%rax, -200(%rbp)
	movq	%rcx, -160(%rbp)
	movq	-160(%rbp), %r14
	cmpq	$0, %r14
	je	LBB58_3
## %bb.2:
	movq	%r14, %rdi
	callq	__ZNSt3__112basic_stringIwNS_11char_traitsIwEENS_9allocatorIwEEED1Ev
	movq	%r14, %rdi
	callq	__ZdlPv
LBB58_3:
	jmp	LBB58_4
LBB58_4:
	movq	%r15, (%rbx)
	addq	$184, %rsp
	popq	%rbx
	popq	%r14
	popq	%r15
	popq	%rbp
	retq
	.cfi_endproc
                                        ## -- End function
	.globl	__ZN4llvm11make_uniqueINSt3__112basic_stringIwNS1_11char_traitsIwEENS1_9allocatorIwEEEEJiRKwEEENS1_9enable_ifIXntsr3std8is_arrayIT_EE5valueENS1_10unique_ptrISB_NS1_14default_deleteISB_EEEEE4typeEDpOT0_ ## -- Begin function _ZN4llvm11make_uniqueINSt3__112basic_stringIwNS1_11char_traitsIwEENS1_9allocatorIwEEEEJiRKwEEENS1_9enable_ifIXntsr3std8is_arrayIT_EE5valueENS1_10unique_ptrISB_NS1_14default_deleteISB_EEEEE4typeEDpOT0_
	.weak_definition	__ZN4llvm11make_uniqueINSt3__112basic_stringIwNS1_11char_traitsIwEENS1_9allocatorIwEEEEJiRKwEEENS1_9enable_ifIXntsr3std8is_arrayIT_EE5valueENS1_10unique_ptrISB_NS1_14default_deleteISB_EEEEE4typeEDpOT0_
	.p2align	4, 0x90
__ZN4llvm11make_uniqueINSt3__112basic_stringIwNS1_11char_traitsIwEENS1_9allocatorIwEEEEJiRKwEEENS1_9enable_ifIXntsr3std8is_arrayIT_EE5valueENS1_10unique_ptrISB_NS1_14default_deleteISB_EEEEE4typeEDpOT0_: ## @_ZN4llvm11make_uniqueINSt3__112basic_stringIwNS1_11char_traitsIwEENS1_9allocatorIwEEEEJiRKwEEENS1_9enable_ifIXntsr3std8is_arrayIT_EE5valueENS1_10unique_ptrISB_NS1_14default_deleteISB_EEEEE4typeEDpOT0_
	.cfi_startproc
## %bb.0:
	pushq	%rbp
	.cfi_def_cfa_offset 16
	.cfi_offset %rbp, -16
	movq	%rsp, %rbp
	.cfi_def_cfa_register %rbp
	pushq	%r15
	pushq	%r14
	pushq	%r12
	pushq	%rbx
	subq	$208, %rsp
	.cfi_offset %rbx, -48
	.cfi_offset %r12, -40
	.cfi_offset %r14, -32
	.cfi_offset %r15, -24
	movq	%rdi, %r14
	movq	%rsi, -56(%rbp)
	movq	%rdx, -48(%rbp)
	movl	$24, %edi
	callq	__Znwm
	movq	%rax, %r15
	movq	-56(%rbp), %rax
	movq	%rax, -64(%rbp)
	movq	-64(%rbp), %rax
	movslq	(%rax), %rax
	movq	-48(%rbp), %rcx
	movq	%rcx, -232(%rbp)
	movq	-232(%rbp), %rcx
	movl	(%rcx), %ecx
	movq	%r15, -176(%rbp)
	movq	%rax, -168(%rbp)
	movl	%ecx, -36(%rbp)
	movq	-176(%rbp), %rax
	movq	-168(%rbp), %rcx
	movl	-36(%rbp), %edx
	movq	%rax, -192(%rbp)
	movq	%rcx, -184(%rbp)
	movl	%edx, -40(%rbp)
	movq	-192(%rbp), %r12
	movq	%r12, -200(%rbp)
	movq	-200(%rbp), %rax
	movq	%rax, -208(%rbp)
	movq	-208(%rbp), %rbx
	movq	%rbx, -216(%rbp)
	movq	-216(%rbp), %rdi
	xorl	%esi, %esi
	movl	$24, %edx
	callq	_memset
	movq	%rbx, -224(%rbp)
	movq	-224(%rbp), %rax
	movq	%rax, -240(%rbp)
	movq	-184(%rbp), %rsi
	movl	-40(%rbp), %edx
	movq	%r12, %rdi
	callq	__ZNSt3__112basic_stringIwNS_11char_traitsIwEENS_9allocatorIwEEE6__initEmw
	movq	%r14, -80(%rbp)
	movq	%r15, -72(%rbp)
	movq	-80(%rbp), %rax
	movq	-72(%rbp), %rcx
	movq	%rax, -96(%rbp)
	movq	%rcx, -88(%rbp)
	movq	-96(%rbp), %rax
	movq	%rax, -112(%rbp)
	leaq	-88(%rbp), %rax
	movq	%rax, -104(%rbp)
	movq	-112(%rbp), %rax
	movq	-104(%rbp), %rcx
	movq	%rax, -128(%rbp)
	movq	%rcx, -120(%rbp)
	movq	-128(%rbp), %rax
	movq	-120(%rbp), %rcx
	movq	%rcx, -136(%rbp)
	movq	-136(%rbp), %rcx
	movq	%rax, -152(%rbp)
	movq	%rcx, -144(%rbp)
	movq	-152(%rbp), %rax
	movq	-144(%rbp), %rcx
	movq	%rcx, -160(%rbp)
	movq	-160(%rbp), %rcx
	movq	(%rcx), %rcx
	movq	%rcx, (%rax)
	movq	%r14, %rax
	addq	$208, %rsp
	popq	%rbx
	popq	%r12
	popq	%r14
	popq	%r15
	popq	%rbp
	retq
	.cfi_endproc
                                        ## -- End function
	.globl	__ZN14altered_carbon2js9JsVariantC1Ew ## -- Begin function _ZN14altered_carbon2js9JsVariantC1Ew
	.p2align	4, 0x90
__ZN14altered_carbon2js9JsVariantC1Ew:  ## @_ZN14altered_carbon2js9JsVariantC1Ew
	.cfi_startproc
## %bb.0:
	pushq	%rbp
	.cfi_def_cfa_offset 16
	.cfi_offset %rbp, -16
	movq	%rsp, %rbp
	.cfi_def_cfa_register %rbp
	subq	$16, %rsp
	movq	%rdi, -16(%rbp)
	movl	%esi, -4(%rbp)
	movq	-16(%rbp), %rdi
	movl	-4(%rbp), %esi
	callq	__ZN14altered_carbon2js9JsVariantC2Ew
	addq	$16, %rsp
	popq	%rbp
	retq
	.cfi_endproc
                                        ## -- End function
	.globl	__ZN14altered_carbon2js9JsVariantC2ERKNS0_10ACLexRegexE ## -- Begin function _ZN14altered_carbon2js9JsVariantC2ERKNS0_10ACLexRegexE
	.p2align	4, 0x90
__ZN14altered_carbon2js9JsVariantC2ERKNS0_10ACLexRegexE: ## @_ZN14altered_carbon2js9JsVariantC2ERKNS0_10ACLexRegexE
	.cfi_startproc
## %bb.0:
	pushq	%rbp
	.cfi_def_cfa_offset 16
	.cfi_offset %rbp, -16
	movq	%rsp, %rbp
	.cfi_def_cfa_register %rbp
	subq	$16, %rsp
	leaq	__ZTVN14altered_carbon2js9JsVariantE(%rip), %rax
	addq	$16, %rax
	movq	%rdi, -16(%rbp)
	movq	%rsi, -8(%rbp)
	movq	-16(%rbp), %rdi
	movq	%rax, (%rdi)
	movl	$5, 8(%rdi)
	addq	$16, %rdi
	movq	-8(%rbp), %rsi
	callq	__ZN14altered_carbon2js10ACLexRegexC1ERKS1_
	addq	$16, %rsp
	popq	%rbp
	retq
	.cfi_endproc
                                        ## -- End function
	.globl	__ZN14altered_carbon2js9JsVariantC1ERKNS0_10ACLexRegexE ## -- Begin function _ZN14altered_carbon2js9JsVariantC1ERKNS0_10ACLexRegexE
	.p2align	4, 0x90
__ZN14altered_carbon2js9JsVariantC1ERKNS0_10ACLexRegexE: ## @_ZN14altered_carbon2js9JsVariantC1ERKNS0_10ACLexRegexE
	.cfi_startproc
## %bb.0:
	pushq	%rbp
	.cfi_def_cfa_offset 16
	.cfi_offset %rbp, -16
	movq	%rsp, %rbp
	.cfi_def_cfa_register %rbp
	subq	$16, %rsp
	movq	%rdi, -16(%rbp)
	movq	%rsi, -8(%rbp)
	movq	-16(%rbp), %rdi
	movq	-8(%rbp), %rsi
	callq	__ZN14altered_carbon2js9JsVariantC2ERKNS0_10ACLexRegexE
	addq	$16, %rsp
	popq	%rbp
	retq
	.cfi_endproc
                                        ## -- End function
	.globl	__ZN14altered_carbon2js9JsVariantC2ERNS0_13RefCountedPtrINS0_14JsVariantArrayEEE ## -- Begin function _ZN14altered_carbon2js9JsVariantC2ERNS0_13RefCountedPtrINS0_14JsVariantArrayEEE
	.p2align	4, 0x90
__ZN14altered_carbon2js9JsVariantC2ERNS0_13RefCountedPtrINS0_14JsVariantArrayEEE: ## @_ZN14altered_carbon2js9JsVariantC2ERNS0_13RefCountedPtrINS0_14JsVariantArrayEEE
	.cfi_startproc
## %bb.0:
	pushq	%rbp
	.cfi_def_cfa_offset 16
	.cfi_offset %rbp, -16
	movq	%rsp, %rbp
	.cfi_def_cfa_register %rbp
	subq	$16, %rsp
	leaq	__ZTVN14altered_carbon2js9JsVariantE(%rip), %rax
	addq	$16, %rax
	movq	%rdi, -16(%rbp)
	movq	%rsi, -8(%rbp)
	movq	-16(%rbp), %rdi
	movq	%rax, (%rdi)
	movl	$12, 8(%rdi)
	addq	$16, %rdi
	movq	-8(%rbp), %rsi
	callq	__ZN14altered_carbon2js13RefCountedPtrINS0_14JsVariantArrayEEC1ERKS3_
	addq	$16, %rsp
	popq	%rbp
	retq
	.cfi_endproc
                                        ## -- End function
	.private_extern	__ZN14altered_carbon2js13RefCountedPtrINS0_14JsVariantArrayEEC1ERKS3_ ## -- Begin function _ZN14altered_carbon2js13RefCountedPtrINS0_14JsVariantArrayEEC1ERKS3_
	.globl	__ZN14altered_carbon2js13RefCountedPtrINS0_14JsVariantArrayEEC1ERKS3_
	.weak_def_can_be_hidden	__ZN14altered_carbon2js13RefCountedPtrINS0_14JsVariantArrayEEC1ERKS3_
	.p2align	4, 0x90
__ZN14altered_carbon2js13RefCountedPtrINS0_14JsVariantArrayEEC1ERKS3_: ## @_ZN14altered_carbon2js13RefCountedPtrINS0_14JsVariantArrayEEC1ERKS3_
	.cfi_startproc
## %bb.0:
	pushq	%rbp
	.cfi_def_cfa_offset 16
	.cfi_offset %rbp, -16
	movq	%rsp, %rbp
	.cfi_def_cfa_register %rbp
	subq	$16, %rsp
	movq	%rdi, -16(%rbp)
	movq	%rsi, -8(%rbp)
	movq	-16(%rbp), %rdi
	movq	-8(%rbp), %rsi
	callq	__ZN14altered_carbon2js13RefCountedPtrINS0_14JsVariantArrayEEC2ERKS3_
	addq	$16, %rsp
	popq	%rbp
	retq
	.cfi_endproc
                                        ## -- End function
	.globl	__ZN14altered_carbon2js9JsVariantC1ERNS0_13RefCountedPtrINS0_14JsVariantArrayEEE ## -- Begin function _ZN14altered_carbon2js9JsVariantC1ERNS0_13RefCountedPtrINS0_14JsVariantArrayEEE
	.p2align	4, 0x90
__ZN14altered_carbon2js9JsVariantC1ERNS0_13RefCountedPtrINS0_14JsVariantArrayEEE: ## @_ZN14altered_carbon2js9JsVariantC1ERNS0_13RefCountedPtrINS0_14JsVariantArrayEEE
	.cfi_startproc
## %bb.0:
	pushq	%rbp
	.cfi_def_cfa_offset 16
	.cfi_offset %rbp, -16
	movq	%rsp, %rbp
	.cfi_def_cfa_register %rbp
	subq	$16, %rsp
	movq	%rdi, -16(%rbp)
	movq	%rsi, -8(%rbp)
	movq	-16(%rbp), %rdi
	movq	-8(%rbp), %rsi
	callq	__ZN14altered_carbon2js9JsVariantC2ERNS0_13RefCountedPtrINS0_14JsVariantArrayEEE
	addq	$16, %rsp
	popq	%rbp
	retq
	.cfi_endproc
                                        ## -- End function
	.globl	__ZN14altered_carbon2js9JsVariantC2ERNS0_13RefCountedPtrIS1_EE ## -- Begin function _ZN14altered_carbon2js9JsVariantC2ERNS0_13RefCountedPtrIS1_EE
	.p2align	4, 0x90
__ZN14altered_carbon2js9JsVariantC2ERNS0_13RefCountedPtrIS1_EE: ## @_ZN14altered_carbon2js9JsVariantC2ERNS0_13RefCountedPtrIS1_EE
	.cfi_startproc
## %bb.0:
	pushq	%rbp
	.cfi_def_cfa_offset 16
	.cfi_offset %rbp, -16
	movq	%rsp, %rbp
	.cfi_def_cfa_register %rbp
	subq	$16, %rsp
	leaq	__ZTVN14altered_carbon2js9JsVariantE(%rip), %rax
	addq	$16, %rax
	movq	%rdi, -16(%rbp)
	movq	%rsi, -8(%rbp)
	movq	-16(%rbp), %rdi
	movq	%rax, (%rdi)
	movl	$11, 8(%rdi)
	addq	$16, %rdi
	movq	-8(%rbp), %rsi
	callq	__ZN14altered_carbon2js13RefCountedPtrINS0_9JsVariantEEC1ERKS3_
	addq	$16, %rsp
	popq	%rbp
	retq
	.cfi_endproc
                                        ## -- End function
	.private_extern	__ZN14altered_carbon2js13RefCountedPtrINS0_9JsVariantEEC1ERKS3_ ## -- Begin function _ZN14altered_carbon2js13RefCountedPtrINS0_9JsVariantEEC1ERKS3_
	.globl	__ZN14altered_carbon2js13RefCountedPtrINS0_9JsVariantEEC1ERKS3_
	.weak_def_can_be_hidden	__ZN14altered_carbon2js13RefCountedPtrINS0_9JsVariantEEC1ERKS3_
	.p2align	4, 0x90
__ZN14altered_carbon2js13RefCountedPtrINS0_9JsVariantEEC1ERKS3_: ## @_ZN14altered_carbon2js13RefCountedPtrINS0_9JsVariantEEC1ERKS3_
	.cfi_startproc
## %bb.0:
	pushq	%rbp
	.cfi_def_cfa_offset 16
	.cfi_offset %rbp, -16
	movq	%rsp, %rbp
	.cfi_def_cfa_register %rbp
	subq	$16, %rsp
	movq	%rdi, -16(%rbp)
	movq	%rsi, -8(%rbp)
	movq	-16(%rbp), %rdi
	movq	-8(%rbp), %rsi
	callq	__ZN14altered_carbon2js13RefCountedPtrINS0_9JsVariantEEC2ERKS3_
	addq	$16, %rsp
	popq	%rbp
	retq
	.cfi_endproc
                                        ## -- End function
	.globl	__ZN14altered_carbon2js9JsVariantC1ERNS0_13RefCountedPtrIS1_EE ## -- Begin function _ZN14altered_carbon2js9JsVariantC1ERNS0_13RefCountedPtrIS1_EE
	.p2align	4, 0x90
__ZN14altered_carbon2js9JsVariantC1ERNS0_13RefCountedPtrIS1_EE: ## @_ZN14altered_carbon2js9JsVariantC1ERNS0_13RefCountedPtrIS1_EE
	.cfi_startproc
## %bb.0:
	pushq	%rbp
	.cfi_def_cfa_offset 16
	.cfi_offset %rbp, -16
	movq	%rsp, %rbp
	.cfi_def_cfa_register %rbp
	subq	$16, %rsp
	movq	%rdi, -16(%rbp)
	movq	%rsi, -8(%rbp)
	movq	-16(%rbp), %rdi
	movq	-8(%rbp), %rsi
	callq	__ZN14altered_carbon2js9JsVariantC2ERNS0_13RefCountedPtrIS1_EE
	addq	$16, %rsp
	popq	%rbp
	retq
	.cfi_endproc
                                        ## -- End function
	.globl	__ZN14altered_carbon2js9JsVariantC2EN4llvm8ArrayRefIPS1_EE ## -- Begin function _ZN14altered_carbon2js9JsVariantC2EN4llvm8ArrayRefIPS1_EE
	.p2align	4, 0x90
__ZN14altered_carbon2js9JsVariantC2EN4llvm8ArrayRefIPS1_EE: ## @_ZN14altered_carbon2js9JsVariantC2EN4llvm8ArrayRefIPS1_EE
	.cfi_startproc
## %bb.0:
	pushq	%rbp
	.cfi_def_cfa_offset 16
	.cfi_offset %rbp, -16
	movq	%rsp, %rbp
	.cfi_def_cfa_register %rbp
	pushq	%rbx
	subq	$216, %rsp
	.cfi_offset %rbx, -24
	movq	__ZNSt3__14cerrE@GOTPCREL(%rip), %rax
	leaq	__ZTVN14altered_carbon2js9JsVariantE(%rip), %rcx
	addq	$16, %rcx
	movq	%rsi, -64(%rbp)
	movq	%rdx, -56(%rbp)
	movq	%rdi, -48(%rbp)
	movq	-48(%rbp), %rbx
	movq	%rcx, (%rbx)
	movl	$12, 8(%rbx)
	movq	%rax, %rdi
	leaq	L_.str.24(%rip), %rsi
	callq	__ZNSt3__1lsINS_11char_traitsIcEEEERNS_13basic_ostreamIcT_EES6_PKc
	movq	-64(%rbp), %rax
	movq	%rax, -40(%rbp)
	movq	-56(%rbp), %rax
	movq	%rax, -32(%rbp)
	movq	-40(%rbp), %rsi
	movq	-32(%rbp), %rdx
	leaq	-216(%rbp), %rdi
	callq	__ZN14altered_carbon2js14JsVariantArrayC1EN4llvm8ArrayRefIPNS0_9JsVariantEEE
	addq	$16, %rbx
	leaq	-16(%rbp), %rdi
	leaq	-216(%rbp), %rsi
	callq	__ZN4llvm11make_uniqueIN14altered_carbon2js10RefCountedINS2_14JsVariantArrayEEEJRS4_EEENSt3__19enable_ifIXntsr3std8is_arrayIT_EE5valueENS7_10unique_ptrIS9_NS7_14default_deleteIS9_EEEEE4typeEDpOT0_
	leaq	-16(%rbp), %rax
	movq	%rax, -80(%rbp)
	movq	-80(%rbp), %rax
	movq	%rax, -88(%rbp)
	movq	-88(%rbp), %rcx
	movq	%rcx, -96(%rbp)
	movq	-96(%rbp), %rcx
	movq	(%rcx), %rcx
	movq	%rcx, -72(%rbp)
	movq	%rax, -104(%rbp)
	movq	-104(%rbp), %rax
	movq	%rax, -112(%rbp)
	movq	-112(%rbp), %rax
	movq	$0, (%rax)
	movq	-72(%rbp), %rsi
	movq	%rbx, %rdi
	movl	$1, %edx
	callq	__ZN14altered_carbon2js13RefCountedPtrINS0_14JsVariantArrayEE5resetEPNS0_10RefCountedIS2_EEb
	leaq	-16(%rbp), %rax
	movq	%rax, -120(%rbp)
	movq	-120(%rbp), %rax
	movq	%rax, -128(%rbp)
	movq	-128(%rbp), %rax
	movq	%rax, -144(%rbp)
	movq	$0, -136(%rbp)
	movq	-144(%rbp), %rax
	movq	%rax, -152(%rbp)
	movq	-152(%rbp), %rcx
	movq	%rcx, -160(%rbp)
	movq	-160(%rbp), %rcx
	movq	(%rcx), %rcx
	movq	%rcx, -24(%rbp)
	movq	-136(%rbp), %rcx
	movq	%rax, -176(%rbp)
	movq	-176(%rbp), %rdx
	movq	%rdx, -184(%rbp)
	movq	-184(%rbp), %rdx
	movq	%rcx, (%rdx)
	cmpq	$0, -24(%rbp)
	je	LBB69_4
## %bb.1:
	movq	%rax, -192(%rbp)
	movq	-192(%rbp), %rax
	movq	%rax, -200(%rbp)
	movq	-200(%rbp), %rax
	movq	-24(%rbp), %rcx
	movq	%rax, -224(%rbp)
	movq	%rcx, -168(%rbp)
	movq	-168(%rbp), %rdi
	cmpq	$0, %rdi
	je	LBB69_3
## %bb.2:
	movq	(%rdi), %rax
	callq	*8(%rax)
LBB69_3:
	jmp	LBB69_4
LBB69_4:
	leaq	-216(%rbp), %rdi
	callq	__ZN14altered_carbon2js14JsVariantArrayD1Ev
	addq	$216, %rsp
	popq	%rbx
	popq	%rbp
	retq
	.cfi_endproc
                                        ## -- End function
	.globl	__ZN14altered_carbon2js14JsVariantArrayC1EN4llvm8ArrayRefIPNS0_9JsVariantEEE ## -- Begin function _ZN14altered_carbon2js14JsVariantArrayC1EN4llvm8ArrayRefIPNS0_9JsVariantEEE
	.p2align	4, 0x90
__ZN14altered_carbon2js14JsVariantArrayC1EN4llvm8ArrayRefIPNS0_9JsVariantEEE: ## @_ZN14altered_carbon2js14JsVariantArrayC1EN4llvm8ArrayRefIPNS0_9JsVariantEEE
	.cfi_startproc
## %bb.0:
	pushq	%rbp
	.cfi_def_cfa_offset 16
	.cfi_offset %rbp, -16
	movq	%rsp, %rbp
	.cfi_def_cfa_register %rbp
	subq	$32, %rsp
	movq	%rsi, -24(%rbp)
	movq	%rdx, -16(%rbp)
	movq	%rdi, -8(%rbp)
	movq	-8(%rbp), %rdi
	movq	-24(%rbp), %rsi
	movq	-16(%rbp), %rdx
	callq	__ZN14altered_carbon2js14JsVariantArrayC2EN4llvm8ArrayRefIPNS0_9JsVariantEEE
	addq	$32, %rsp
	popq	%rbp
	retq
	.cfi_endproc
                                        ## -- End function
	.globl	__ZN4llvm11make_uniqueIN14altered_carbon2js10RefCountedINS2_14JsVariantArrayEEEJRS4_EEENSt3__19enable_ifIXntsr3std8is_arrayIT_EE5valueENS7_10unique_ptrIS9_NS7_14default_deleteIS9_EEEEE4typeEDpOT0_ ## -- Begin function _ZN4llvm11make_uniqueIN14altered_carbon2js10RefCountedINS2_14JsVariantArrayEEEJRS4_EEENSt3__19enable_ifIXntsr3std8is_arrayIT_EE5valueENS7_10unique_ptrIS9_NS7_14default_deleteIS9_EEEEE4typeEDpOT0_
	.weak_definition	__ZN4llvm11make_uniqueIN14altered_carbon2js10RefCountedINS2_14JsVariantArrayEEEJRS4_EEENSt3__19enable_ifIXntsr3std8is_arrayIT_EE5valueENS7_10unique_ptrIS9_NS7_14default_deleteIS9_EEEEE4typeEDpOT0_
	.p2align	4, 0x90
__ZN4llvm11make_uniqueIN14altered_carbon2js10RefCountedINS2_14JsVariantArrayEEEJRS4_EEENSt3__19enable_ifIXntsr3std8is_arrayIT_EE5valueENS7_10unique_ptrIS9_NS7_14default_deleteIS9_EEEEE4typeEDpOT0_: ## @_ZN4llvm11make_uniqueIN14altered_carbon2js10RefCountedINS2_14JsVariantArrayEEEJRS4_EEENSt3__19enable_ifIXntsr3std8is_arrayIT_EE5valueENS7_10unique_ptrIS9_NS7_14default_deleteIS9_EEEEE4typeEDpOT0_
	.cfi_startproc
## %bb.0:
	pushq	%rbp
	.cfi_def_cfa_offset 16
	.cfi_offset %rbp, -16
	movq	%rsp, %rbp
	.cfi_def_cfa_register %rbp
	pushq	%r14
	pushq	%rbx
	subq	$112, %rsp
	.cfi_offset %rbx, -32
	.cfi_offset %r14, -24
	movq	%rdi, %r14
	movq	%rsi, -24(%rbp)
	movl	$24, %edi
	callq	__Znwm
	movq	%rax, %rbx
	movq	-24(%rbp), %rax
	movq	%rax, -32(%rbp)
	movq	-32(%rbp), %rsi
	movq	%rbx, %rdi
	callq	__ZN14altered_carbon2js10RefCountedINS0_14JsVariantArrayEEC1ERS2_
	movq	%r14, -48(%rbp)
	movq	%rbx, -40(%rbp)
	movq	-48(%rbp), %rax
	movq	-40(%rbp), %rcx
	movq	%rax, -64(%rbp)
	movq	%rcx, -56(%rbp)
	movq	-64(%rbp), %rax
	movq	%rax, -80(%rbp)
	leaq	-56(%rbp), %rax
	movq	%rax, -72(%rbp)
	movq	-80(%rbp), %rax
	movq	-72(%rbp), %rcx
	movq	%rax, -96(%rbp)
	movq	%rcx, -88(%rbp)
	movq	-96(%rbp), %rax
	movq	-88(%rbp), %rcx
	movq	%rcx, -104(%rbp)
	movq	-104(%rbp), %rcx
	movq	%rax, -120(%rbp)
	movq	%rcx, -112(%rbp)
	movq	-120(%rbp), %rax
	movq	-112(%rbp), %rcx
	movq	%rcx, -128(%rbp)
	movq	-128(%rbp), %rcx
	movq	(%rcx), %rcx
	movq	%rcx, (%rax)
	movq	%r14, %rax
	addq	$112, %rsp
	popq	%rbx
	popq	%r14
	popq	%rbp
	retq
	.cfi_endproc
                                        ## -- End function
	.private_extern	__ZN14altered_carbon2js14JsVariantArrayD1Ev ## -- Begin function _ZN14altered_carbon2js14JsVariantArrayD1Ev
	.globl	__ZN14altered_carbon2js14JsVariantArrayD1Ev
	.weak_def_can_be_hidden	__ZN14altered_carbon2js14JsVariantArrayD1Ev
	.p2align	4, 0x90
__ZN14altered_carbon2js14JsVariantArrayD1Ev: ## @_ZN14altered_carbon2js14JsVariantArrayD1Ev
	.cfi_startproc
## %bb.0:
	pushq	%rbp
	.cfi_def_cfa_offset 16
	.cfi_offset %rbp, -16
	movq	%rsp, %rbp
	.cfi_def_cfa_register %rbp
	subq	$16, %rsp
	movq	%rdi, -8(%rbp)
	movq	-8(%rbp), %rdi
	callq	__ZN14altered_carbon2js14JsVariantArrayD2Ev
	addq	$16, %rsp
	popq	%rbp
	retq
	.cfi_endproc
                                        ## -- End function
	.globl	__ZN14altered_carbon2js9JsVariantC1EN4llvm8ArrayRefIPS1_EE ## -- Begin function _ZN14altered_carbon2js9JsVariantC1EN4llvm8ArrayRefIPS1_EE
	.p2align	4, 0x90
__ZN14altered_carbon2js9JsVariantC1EN4llvm8ArrayRefIPS1_EE: ## @_ZN14altered_carbon2js9JsVariantC1EN4llvm8ArrayRefIPS1_EE
	.cfi_startproc
## %bb.0:
	pushq	%rbp
	.cfi_def_cfa_offset 16
	.cfi_offset %rbp, -16
	movq	%rsp, %rbp
	.cfi_def_cfa_register %rbp
	subq	$32, %rsp
	movq	%rsi, -24(%rbp)
	movq	%rdx, -16(%rbp)
	movq	%rdi, -8(%rbp)
	movq	-8(%rbp), %rdi
	movq	-24(%rbp), %rsi
	movq	-16(%rbp), %rdx
	callq	__ZN14altered_carbon2js9JsVariantC2EN4llvm8ArrayRefIPS1_EE
	addq	$32, %rsp
	popq	%rbp
	retq
	.cfi_endproc
                                        ## -- End function
	.globl	__ZN14altered_carbon2js9JsVariantaSERKS1_ ## -- Begin function _ZN14altered_carbon2js9JsVariantaSERKS1_
	.p2align	4, 0x90
__ZN14altered_carbon2js9JsVariantaSERKS1_: ## @_ZN14altered_carbon2js9JsVariantaSERKS1_
	.cfi_startproc
## %bb.0:
	pushq	%rbp
	.cfi_def_cfa_offset 16
	.cfi_offset %rbp, -16
	movq	%rsp, %rbp
	.cfi_def_cfa_register %rbp
	pushq	%rbx
	subq	$40, %rsp
	.cfi_offset %rbx, -24
	movq	%rdi, -24(%rbp)
	movq	%rsi, -16(%rbp)
	movq	-24(%rbp), %rbx
## %bb.1:
	cmpl	$10, 8(%rbx)
	jge	LBB74_3
## %bb.2:
	movq	-16(%rbp), %rax
	cmpl	$10, 8(%rax)
	jl	LBB74_5
LBB74_3:
	movl	8(%rbx), %eax
	movq	-16(%rbp), %rcx
	cmpl	8(%rcx), %eax
	je	LBB74_5
## %bb.4:
	movq	-16(%rbp), %rax
	movl	8(%rax), %esi
	movq	%rbx, %rdi
	callq	__ZN14altered_carbon2js9JsVariant11freePayloadEi
LBB74_5:
	jmp	LBB74_6
LBB74_6:
	movq	-16(%rbp), %rax
	movl	8(%rax), %eax
	movl	%eax, 8(%rbx)
## %bb.7:
	cmpl	$2, 8(%rbx)
	jne	LBB74_9
## %bb.8:
	movq	-16(%rbp), %rax
	movq	16(%rax), %rcx
	movq	%rcx, 16(%rbx)
	movq	24(%rax), %rcx
	movq	%rcx, 24(%rbx)
	movb	32(%rax), %al
	movb	%al, 32(%rbx)
	jmp	LBB74_24
LBB74_9:
	movl	8(%rbx), %eax
	addl	$2, %eax
	movl	%eax, %ecx
	subl	$17, %ecx
	ja	LBB74_22
## %bb.10:
	leaq	LJTI74_0(%rip), %rcx
	movslq	(%rcx,%rax,4), %rax
	addq	%rcx, %rax
	jmpq	*%rax
LBB74_11:
	movq	-16(%rbp), %rax
	movq	16(%rax), %rax
	movq	%rax, 16(%rbx)
	jmp	LBB74_23
LBB74_12:
	movq	-16(%rbp), %rsi
	addq	$16, %rsi
	movq	%rbx, %rdi
	addq	$16, %rdi
	callq	__ZN14altered_carbon2js10ACLexRegexaSERKS1_
	jmp	LBB74_23
LBB74_13:
	movq	-16(%rbp), %rax
	movb	16(%rax), %al
	andb	$1, %al
	movb	%al, 16(%rbx)
	jmp	LBB74_23
LBB74_14:
	movq	-16(%rbp), %rax
	cmpq	$0, 16(%rax)
	setne	%al
	xorb	$-1, %al
	xorb	$-1, %al
	xorb	$-1, %al
	testb	$1, %al
	jne	LBB74_15
	jmp	LBB74_16
LBB74_15:
	leaq	L___func__._ZN14altered_carbon2js9JsVariantaSERKS1_(%rip), %rdi
	leaq	L_.str.1(%rip), %rsi
	leaq	L_.str.4(%rip), %rcx
	movl	$223, %edx
	callq	___assert_rtn
LBB74_16:
	jmp	LBB74_17
LBB74_17:
	movq	16(%rbx), %rax
	movq	-16(%rbp), %rcx
	movq	16(%rcx), %rcx
	movq	%rax, -40(%rbp)
	movq	%rcx, -32(%rbp)
	movq	-40(%rbp), %rdi
	movq	-32(%rbp), %rsi
	callq	__ZNSt3__112basic_stringIwNS_11char_traitsIwEENS_9allocatorIwEEEaSERKS5_
	jmp	LBB74_23
LBB74_18:
	movq	-16(%rbp), %rax
	movq	16(%rax), %rax
	movq	%rax, 16(%rbx)
	jmp	LBB74_23
LBB74_19:
	movq	-16(%rbp), %rsi
	addq	$16, %rsi
	movq	%rbx, %rdi
	addq	$16, %rdi
	callq	__ZN14altered_carbon2js13RefCountedPtrINS0_9JsVariantEEaSERKS3_
	jmp	LBB74_23
LBB74_20:
	movq	-16(%rbp), %rsi
	addq	$16, %rsi
	movq	%rbx, %rdi
	addq	$16, %rdi
	callq	__ZN14altered_carbon2js13RefCountedPtrINS0_14JsVariantArrayEEaSERKS3_
	jmp	LBB74_23
LBB74_21:
	movq	-16(%rbp), %rsi
	addq	$16, %rsi
	movq	%rbx, %rdi
	addq	$16, %rdi
	callq	__ZN14altered_carbon2js13JsVariantFuncaSERKS1_
	jmp	LBB74_23
LBB74_22:
	jmp	LBB74_23
LBB74_23:
	jmp	LBB74_24
LBB74_24:
	movq	%rbx, %rax
	addq	$40, %rsp
	popq	%rbx
	popq	%rbp
	retq
	.cfi_endproc
	.p2align	2, 0x90
	.data_region jt32
.set L74_0_set_11, LBB74_11-LJTI74_0
.set L74_0_set_22, LBB74_22-LJTI74_0
.set L74_0_set_12, LBB74_12-LJTI74_0
.set L74_0_set_13, LBB74_13-LJTI74_0
.set L74_0_set_18, LBB74_18-LJTI74_0
.set L74_0_set_14, LBB74_14-LJTI74_0
.set L74_0_set_19, LBB74_19-LJTI74_0
.set L74_0_set_20, LBB74_20-LJTI74_0
.set L74_0_set_21, LBB74_21-LJTI74_0
LJTI74_0:
	.long	L74_0_set_11
	.long	L74_0_set_22
	.long	L74_0_set_22
	.long	L74_0_set_22
	.long	L74_0_set_22
	.long	L74_0_set_22
	.long	L74_0_set_22
	.long	L74_0_set_12
	.long	L74_0_set_13
	.long	L74_0_set_18
	.long	L74_0_set_22
	.long	L74_0_set_22
	.long	L74_0_set_14
	.long	L74_0_set_19
	.long	L74_0_set_20
	.long	L74_0_set_19
	.long	L74_0_set_20
	.long	L74_0_set_21
	.end_data_region
                                        ## -- End function
	.section	__TEXT,__literal16,16byte_literals
	.p2align	4               ## -- Begin function _ZNK14altered_carbon2js9JsVariant9asBooleanEv
LCPI75_0:
	.quad	9223372036854775807     ## double NaN
	.quad	9223372036854775807     ## double NaN
	.section	__TEXT,__text,regular,pure_instructions
	.globl	__ZNK14altered_carbon2js9JsVariant9asBooleanEv
	.p2align	4, 0x90
__ZNK14altered_carbon2js9JsVariant9asBooleanEv: ## @_ZNK14altered_carbon2js9JsVariant9asBooleanEv
	.cfi_startproc
## %bb.0:
	pushq	%rbp
	.cfi_def_cfa_offset 16
	.cfi_offset %rbp, -16
	movq	%rsp, %rbp
	.cfi_def_cfa_register %rbp
	pushq	%rbx
	subq	$120, %rsp
	.cfi_offset %rbx, -24
	movq	%rdi, -24(%rbp)
	movq	-24(%rbp), %rbx
	movl	8(%rbx), %eax
	addl	$2, %eax
	movl	%eax, %ecx
	subl	$13, %ecx
	ja	LBB75_16
## %bb.1:
	leaq	LJTI75_0(%rip), %rcx
	movslq	(%rcx,%rax,4), %rax
	addq	%rcx, %rax
	jmpq	*%rax
LBB75_2:
	movb	16(%rbx), %al
	andb	$1, %al
	movb	%al, -9(%rbp)
	jmp	LBB75_17
LBB75_3:
	movq	%rbx, %rdi
	callq	__ZNK14altered_carbon2js9JsVariant5isNaNEv
	xorl	%ecx, %ecx
	testb	$1, %al
	jne	LBB75_5
## %bb.4:
	movsd	24(%rbx), %xmm0         ## xmm0 = mem[0],zero
	movsd	%xmm0, -32(%rbp)
	movsd	-32(%rbp), %xmm0        ## xmm0 = mem[0],zero
	movaps	LCPI75_0(%rip), %xmm1   ## xmm1 = [nan,nan]
	pand	%xmm1, %xmm0
	xorps	%xmm1, %xmm1
	ucomisd	%xmm1, %xmm0
	seta	%cl
LBB75_5:
	andb	$1, %cl
	movb	%cl, -9(%rbp)
	jmp	LBB75_17
LBB75_6:
	movq	16(%rbx), %rax
	movq	%rax, -40(%rbp)
	movq	-40(%rbp), %rax
	movq	%rax, -48(%rbp)
	movq	-48(%rbp), %rax
	movq	%rax, -56(%rbp)
	movq	-56(%rbp), %rcx
	movq	%rcx, -64(%rbp)
	movq	-64(%rbp), %rcx
	movq	%rcx, -72(%rbp)
	movq	-72(%rbp), %rcx
	movzbl	(%rcx), %ecx
	andq	$1, %rcx
	cmpq	$0, %rcx
	je	LBB75_8
## %bb.7:
	movq	%rax, -104(%rbp)
	movq	-104(%rbp), %rax
	movq	%rax, -112(%rbp)
	movq	-112(%rbp), %rax
	movq	%rax, -120(%rbp)
	movq	-120(%rbp), %rax
	movq	8(%rax), %rax
	jmp	LBB75_9
LBB75_8:
	movq	%rax, -80(%rbp)
	movq	-80(%rbp), %rax
	movq	%rax, -88(%rbp)
	movq	-88(%rbp), %rax
	movq	%rax, -96(%rbp)
	movq	-96(%rbp), %rax
	movzbl	(%rax), %eax
	sarl	$1, %eax
	cltq
LBB75_9:
	cmpq	$0, %rax
	seta	%al
	andb	$1, %al
	movb	%al, -9(%rbp)
	jmp	LBB75_17
LBB75_10:
	movb	$1, -9(%rbp)
	jmp	LBB75_17
LBB75_11:
	movq	16(%rbx), %rdi
	callq	__ZNK14altered_carbon2js9JsVariant9asBooleanEv
	andb	$1, %al
	movb	%al, -9(%rbp)
	jmp	LBB75_17
LBB75_12:
	leaq	L___func__._ZNK14altered_carbon2js9JsVariant9asBooleanEv(%rip), %rdi
	leaq	L_.str.1(%rip), %rsi
	leaq	L_.str.25(%rip), %rcx
	movl	$234, %edx
	callq	___assert_rtn
LBB75_13:
	movb	$0, -9(%rbp)
	jmp	LBB75_17
LBB75_14:
	movb	$0, -9(%rbp)
	jmp	LBB75_17
LBB75_15:
	movb	$0, -9(%rbp)
	jmp	LBB75_17
LBB75_16:
	movb	$0, -9(%rbp)
LBB75_17:
	movb	-9(%rbp), %al
	andb	$1, %al
	movzbl	%al, %eax
	addq	$120, %rsp
	popq	%rbx
	popq	%rbp
	retq
	.cfi_endproc
	.p2align	2, 0x90
	.data_region jt32
.set L75_0_set_15, LBB75_15-LJTI75_0
.set L75_0_set_12, LBB75_12-LJTI75_0
.set L75_0_set_14, LBB75_14-LJTI75_0
.set L75_0_set_13, LBB75_13-LJTI75_0
.set L75_0_set_3, LBB75_3-LJTI75_0
.set L75_0_set_16, LBB75_16-LJTI75_0
.set L75_0_set_2, LBB75_2-LJTI75_0
.set L75_0_set_11, LBB75_11-LJTI75_0
.set L75_0_set_6, LBB75_6-LJTI75_0
.set L75_0_set_10, LBB75_10-LJTI75_0
LJTI75_0:
	.long	L75_0_set_15
	.long	L75_0_set_12
	.long	L75_0_set_14
	.long	L75_0_set_13
	.long	L75_0_set_3
	.long	L75_0_set_16
	.long	L75_0_set_16
	.long	L75_0_set_16
	.long	L75_0_set_2
	.long	L75_0_set_11
	.long	L75_0_set_16
	.long	L75_0_set_16
	.long	L75_0_set_6
	.long	L75_0_set_10
	.end_data_region
                                        ## -- End function
	.private_extern	__ZNK14altered_carbon2js9JsVariant5isNaNEv ## -- Begin function _ZNK14altered_carbon2js9JsVariant5isNaNEv
	.globl	__ZNK14altered_carbon2js9JsVariant5isNaNEv
	.weak_definition	__ZNK14altered_carbon2js9JsVariant5isNaNEv
	.p2align	4, 0x90
__ZNK14altered_carbon2js9JsVariant5isNaNEv: ## @_ZNK14altered_carbon2js9JsVariant5isNaNEv
	.cfi_startproc
## %bb.0:
	pushq	%rbp
	.cfi_def_cfa_offset 16
	.cfi_offset %rbp, -16
	movq	%rsp, %rbp
	.cfi_def_cfa_register %rbp
	subq	$32, %rsp
	movq	%rdi, -16(%rbp)
	movq	-16(%rbp), %rcx
	cmpl	$7, 8(%rcx)
	jne	LBB76_2
## %bb.1:
	movq	16(%rcx), %rdi
	callq	__ZNK14altered_carbon2js9JsVariant5isNaNEv
                                        ## kill: def $al killed $al def $eax
	jmp	LBB76_5
LBB76_2:
	xorl	%eax, %eax
	cmpl	$2, 8(%rcx)
	jne	LBB76_4
## %bb.3:
	movsd	24(%rcx), %xmm0         ## xmm0 = mem[0],zero
	movsd	%xmm0, -24(%rbp)
	movsd	-24(%rbp), %xmm0        ## xmm0 = mem[0],zero
	movsd	%xmm0, -32(%rbp)
	movsd	-32(%rbp), %xmm0        ## xmm0 = mem[0],zero
	movsd	%xmm0, -8(%rbp)
	movsd	-8(%rbp), %xmm0         ## xmm0 = mem[0],zero
	ucomisd	-8(%rbp), %xmm0
	setne	%al
	setp	%cl
	orb	%cl, %al
LBB76_4:
LBB76_5:
	andb	$1, %al
	movzbl	%al, %eax
	addq	$32, %rsp
	popq	%rbp
	retq
	.cfi_endproc
                                        ## -- End function
	.globl	__ZN14altered_carbon2js9JsVariantaSEb ## -- Begin function _ZN14altered_carbon2js9JsVariantaSEb
	.p2align	4, 0x90
__ZN14altered_carbon2js9JsVariantaSEb:  ## @_ZN14altered_carbon2js9JsVariantaSEb
	.cfi_startproc
## %bb.0:
	pushq	%rbp
	.cfi_def_cfa_offset 16
	.cfi_offset %rbp, -16
	movq	%rsp, %rbp
	.cfi_def_cfa_register %rbp
	pushq	%rbx
	subq	$24, %rsp
	.cfi_offset %rbx, -24
	movq	%rdi, -24(%rbp)
	andb	$1, %sil
	movb	%sil, -9(%rbp)
	movq	-24(%rbp), %rbx
## %bb.1:
	cmpl	$10, 8(%rbx)
	jl	LBB77_4
## %bb.2:
	cmpl	$6, 8(%rbx)
	je	LBB77_4
## %bb.3:
	movq	%rbx, %rdi
	movl	$6, %esi
	callq	__ZN14altered_carbon2js9JsVariant11freePayloadEi
LBB77_4:
	jmp	LBB77_5
LBB77_5:
	movl	$6, 8(%rbx)
	movb	-9(%rbp), %al
	andb	$1, %al
	movb	%al, 16(%rbx)
	movq	%rbx, %rax
	addq	$24, %rsp
	popq	%rbx
	popq	%rbp
	retq
	.cfi_endproc
                                        ## -- End function
	.globl	__ZN14altered_carbon2js9JsVariantaSERKNSt3__112basic_stringIwNS2_11char_traitsIwEENS2_9allocatorIwEEEE ## -- Begin function _ZN14altered_carbon2js9JsVariantaSERKNSt3__112basic_stringIwNS2_11char_traitsIwEENS2_9allocatorIwEEEE
	.p2align	4, 0x90
__ZN14altered_carbon2js9JsVariantaSERKNSt3__112basic_stringIwNS2_11char_traitsIwEENS2_9allocatorIwEEEE: ## @_ZN14altered_carbon2js9JsVariantaSERKNSt3__112basic_stringIwNS2_11char_traitsIwEENS2_9allocatorIwEEEE
	.cfi_startproc
## %bb.0:
	pushq	%rbp
	.cfi_def_cfa_offset 16
	.cfi_offset %rbp, -16
	movq	%rsp, %rbp
	.cfi_def_cfa_register %rbp
	pushq	%rbx
	subq	$24, %rsp
	.cfi_offset %rbx, -24
	movq	%rdi, -24(%rbp)
	movq	%rsi, -16(%rbp)
	movq	-24(%rbp), %rbx
## %bb.1:
	cmpl	$10, 8(%rbx)
	jge	LBB78_3
## %bb.2:
	movb	$1, %al
	testb	$1, %al
	jne	LBB78_3
	jmp	LBB78_5
LBB78_3:
	cmpl	$10, 8(%rbx)
	je	LBB78_5
## %bb.4:
	movq	%rbx, %rdi
	movl	$10, %esi
	callq	__ZN14altered_carbon2js9JsVariant11freePayloadEi
LBB78_5:
	jmp	LBB78_6
LBB78_6:
	movl	$10, 8(%rbx)
	movq	-16(%rbp), %rsi
	movq	16(%rbx), %rdi
	callq	__ZNSt3__112basic_stringIwNS_11char_traitsIwEENS_9allocatorIwEEEaSERKS5_
	movq	%rbx, %rax
	addq	$24, %rsp
	popq	%rbx
	popq	%rbp
	retq
	.cfi_endproc
                                        ## -- End function
	.globl	__ZN14altered_carbon2js9JsVariantaSEPKw ## -- Begin function _ZN14altered_carbon2js9JsVariantaSEPKw
	.p2align	4, 0x90
__ZN14altered_carbon2js9JsVariantaSEPKw: ## @_ZN14altered_carbon2js9JsVariantaSEPKw
	.cfi_startproc
## %bb.0:
	pushq	%rbp
	.cfi_def_cfa_offset 16
	.cfi_offset %rbp, -16
	movq	%rsp, %rbp
	.cfi_def_cfa_register %rbp
	pushq	%rbx
	subq	$40, %rsp
	.cfi_offset %rbx, -24
	movq	%rdi, -24(%rbp)
	movq	%rsi, -16(%rbp)
	movq	-24(%rbp), %rbx
## %bb.1:
	cmpl	$10, 8(%rbx)
	jge	LBB79_3
## %bb.2:
	movb	$1, %al
	testb	$1, %al
	jne	LBB79_3
	jmp	LBB79_5
LBB79_3:
	cmpl	$10, 8(%rbx)
	je	LBB79_5
## %bb.4:
	movq	%rbx, %rdi
	movl	$10, %esi
	callq	__ZN14altered_carbon2js9JsVariant11freePayloadEi
LBB79_5:
	jmp	LBB79_6
LBB79_6:
	movl	$10, 8(%rbx)
	movq	-16(%rbp), %rax
	movq	16(%rbx), %rcx
	movq	%rcx, -40(%rbp)
	movq	%rax, -32(%rbp)
	movq	-40(%rbp), %rdi
	movq	-32(%rbp), %rsi
	callq	__ZNSt3__112basic_stringIwNS_11char_traitsIwEENS_9allocatorIwEEE6assignEPKw
	movq	%rbx, %rax
	addq	$40, %rsp
	popq	%rbx
	popq	%rbp
	retq
	.cfi_endproc
                                        ## -- End function
	.globl	__ZN14altered_carbon2js9JsVariantaSERKNS0_10ACLexRegexE ## -- Begin function _ZN14altered_carbon2js9JsVariantaSERKNS0_10ACLexRegexE
	.p2align	4, 0x90
__ZN14altered_carbon2js9JsVariantaSERKNS0_10ACLexRegexE: ## @_ZN14altered_carbon2js9JsVariantaSERKNS0_10ACLexRegexE
	.cfi_startproc
## %bb.0:
	pushq	%rbp
	.cfi_def_cfa_offset 16
	.cfi_offset %rbp, -16
	movq	%rsp, %rbp
	.cfi_def_cfa_register %rbp
	pushq	%rbx
	subq	$24, %rsp
	.cfi_offset %rbx, -24
	movq	%rdi, -24(%rbp)
	movq	%rsi, -16(%rbp)
	movq	-24(%rbp), %rbx
## %bb.1:
	cmpl	$10, 8(%rbx)
	jl	LBB80_4
## %bb.2:
	cmpl	$5, 8(%rbx)
	je	LBB80_4
## %bb.3:
	movq	%rbx, %rdi
	movl	$5, %esi
	callq	__ZN14altered_carbon2js9JsVariant11freePayloadEi
LBB80_4:
	jmp	LBB80_5
LBB80_5:
	movl	$5, 8(%rbx)
	movq	-16(%rbp), %rsi
	movq	%rbx, %rdi
	addq	$16, %rdi
	callq	__ZN14altered_carbon2js10ACLexRegexaSERKS1_
	movq	%rbx, %rax
	addq	$24, %rsp
	popq	%rbx
	popq	%rbp
	retq
	.cfi_endproc
                                        ## -- End function
	.globl	__ZN14altered_carbon2js9JsVariantaSERNS0_13JsVariantFuncE ## -- Begin function _ZN14altered_carbon2js9JsVariantaSERNS0_13JsVariantFuncE
	.p2align	4, 0x90
__ZN14altered_carbon2js9JsVariantaSERNS0_13JsVariantFuncE: ## @_ZN14altered_carbon2js9JsVariantaSERNS0_13JsVariantFuncE
	.cfi_startproc
## %bb.0:
	pushq	%rbp
	.cfi_def_cfa_offset 16
	.cfi_offset %rbp, -16
	movq	%rsp, %rbp
	.cfi_def_cfa_register %rbp
	pushq	%rbx
	subq	$24, %rsp
	.cfi_offset %rbx, -24
	movq	%rdi, -24(%rbp)
	movq	%rsi, -16(%rbp)
	movq	-24(%rbp), %rbx
## %bb.1:
	cmpl	$10, 8(%rbx)
	jge	LBB81_3
## %bb.2:
	movb	$1, %al
	testb	$1, %al
	jne	LBB81_3
	jmp	LBB81_5
LBB81_3:
	cmpl	$15, 8(%rbx)
	je	LBB81_5
## %bb.4:
	movq	%rbx, %rdi
	movl	$15, %esi
	callq	__ZN14altered_carbon2js9JsVariant11freePayloadEi
LBB81_5:
	jmp	LBB81_6
LBB81_6:
	movl	$15, 8(%rbx)
	movq	-16(%rbp), %rsi
	movq	%rbx, %rdi
	addq	$16, %rdi
	callq	__ZN14altered_carbon2js13JsVariantFuncaSERKS1_
	movq	%rbx, %rax
	addq	$24, %rsp
	popq	%rbx
	popq	%rbp
	retq
	.cfi_endproc
                                        ## -- End function
	.globl	__ZN14altered_carbon2js9JsVariantaSEx ## -- Begin function _ZN14altered_carbon2js9JsVariantaSEx
	.p2align	4, 0x90
__ZN14altered_carbon2js9JsVariantaSEx:  ## @_ZN14altered_carbon2js9JsVariantaSEx
	.cfi_startproc
## %bb.0:
	pushq	%rbp
	.cfi_def_cfa_offset 16
	.cfi_offset %rbp, -16
	movq	%rsp, %rbp
	.cfi_def_cfa_register %rbp
	pushq	%rbx
	subq	$24, %rsp
	.cfi_offset %rbx, -24
	movq	%rdi, -24(%rbp)
	movq	%rsi, -16(%rbp)
	movq	-24(%rbp), %rbx
## %bb.1:
	cmpl	$10, 8(%rbx)
	jl	LBB82_4
## %bb.2:
	cmpl	$2, 8(%rbx)
	je	LBB82_4
## %bb.3:
	movq	%rbx, %rdi
	movl	$2, %esi
	callq	__ZN14altered_carbon2js9JsVariant11freePayloadEi
LBB82_4:
	jmp	LBB82_5
LBB82_5:
	movl	$2, 8(%rbx)
	movq	-16(%rbp), %rax
	movq	%rax, 16(%rbx)
	cvtsi2sdq	%rax, %xmm0
	movsd	%xmm0, 24(%rbx)
	movb	$1, 32(%rbx)
	movq	%rbx, %rax
	addq	$24, %rsp
	popq	%rbx
	popq	%rbp
	retq
	.cfi_endproc
                                        ## -- End function
	.globl	__ZN14altered_carbon2js9JsVariantaSEd ## -- Begin function _ZN14altered_carbon2js9JsVariantaSEd
	.p2align	4, 0x90
__ZN14altered_carbon2js9JsVariantaSEd:  ## @_ZN14altered_carbon2js9JsVariantaSEd
	.cfi_startproc
## %bb.0:
	pushq	%rbp
	.cfi_def_cfa_offset 16
	.cfi_offset %rbp, -16
	movq	%rsp, %rbp
	.cfi_def_cfa_register %rbp
	pushq	%rbx
	subq	$24, %rsp
	.cfi_offset %rbx, -24
	movq	%rdi, -24(%rbp)
	movsd	%xmm0, -16(%rbp)
	movq	-24(%rbp), %rbx
## %bb.1:
	cmpl	$10, 8(%rbx)
	jl	LBB83_4
## %bb.2:
	cmpl	$2, 8(%rbx)
	je	LBB83_4
## %bb.3:
	movq	%rbx, %rdi
	movl	$2, %esi
	callq	__ZN14altered_carbon2js9JsVariant11freePayloadEi
LBB83_4:
	jmp	LBB83_5
LBB83_5:
	movl	$2, 8(%rbx)
	movsd	-16(%rbp), %xmm0        ## xmm0 = mem[0],zero
	movsd	%xmm0, 24(%rbx)
	cvttsd2si	%xmm0, %rax
	movq	%rax, 16(%rbx)
	movb	$0, 32(%rbx)
	movq	%rbx, %rax
	addq	$24, %rsp
	popq	%rbx
	popq	%rbp
	retq
	.cfi_endproc
                                        ## -- End function
	.globl	__ZN14altered_carbon2js9JsVariantaSEN4llvm8ArrayRefIPS1_EE ## -- Begin function _ZN14altered_carbon2js9JsVariantaSEN4llvm8ArrayRefIPS1_EE
	.p2align	4, 0x90
__ZN14altered_carbon2js9JsVariantaSEN4llvm8ArrayRefIPS1_EE: ## @_ZN14altered_carbon2js9JsVariantaSEN4llvm8ArrayRefIPS1_EE
	.cfi_startproc
## %bb.0:
	pushq	%rbp
	.cfi_def_cfa_offset 16
	.cfi_offset %rbp, -16
	movq	%rsp, %rbp
	.cfi_def_cfa_register %rbp
	pushq	%r14
	pushq	%rbx
	subq	$224, %rsp
	.cfi_offset %rbx, -32
	.cfi_offset %r14, -24
	movq	%rsi, -72(%rbp)
	movq	%rdx, -64(%rbp)
	movq	%rdi, -56(%rbp)
	movq	-56(%rbp), %r14
## %bb.1:
	cmpl	$10, 8(%r14)
	jge	LBB84_3
## %bb.2:
	movb	$1, %al
	testb	$1, %al
	jne	LBB84_3
	jmp	LBB84_5
LBB84_3:
	cmpl	$12, 8(%r14)
	je	LBB84_5
## %bb.4:
	movq	%r14, %rdi
	movl	$12, %esi
	callq	__ZN14altered_carbon2js9JsVariant11freePayloadEi
LBB84_5:
	jmp	LBB84_6
LBB84_6:
	movl	$12, 8(%r14)
	movq	-72(%rbp), %rax
	movq	%rax, -48(%rbp)
	movq	-64(%rbp), %rax
	movq	%rax, -40(%rbp)
	movq	-48(%rbp), %rsi
	movq	-40(%rbp), %rdx
	leaq	-224(%rbp), %rdi
	callq	__ZN14altered_carbon2js14JsVariantArrayC1EN4llvm8ArrayRefIPNS0_9JsVariantEEE
	movq	%r14, %rbx
	addq	$16, %rbx
	leaq	-24(%rbp), %rdi
	leaq	-224(%rbp), %rsi
	callq	__ZN4llvm11make_uniqueIN14altered_carbon2js10RefCountedINS2_14JsVariantArrayEEEJRS4_EEENSt3__19enable_ifIXntsr3std8is_arrayIT_EE5valueENS7_10unique_ptrIS9_NS7_14default_deleteIS9_EEEEE4typeEDpOT0_
	leaq	-24(%rbp), %rax
	movq	%rax, -88(%rbp)
	movq	-88(%rbp), %rax
	movq	%rax, -96(%rbp)
	movq	-96(%rbp), %rcx
	movq	%rcx, -104(%rbp)
	movq	-104(%rbp), %rcx
	movq	(%rcx), %rcx
	movq	%rcx, -80(%rbp)
	movq	%rax, -112(%rbp)
	movq	-112(%rbp), %rax
	movq	%rax, -120(%rbp)
	movq	-120(%rbp), %rax
	movq	$0, (%rax)
	movq	-80(%rbp), %rsi
	movq	%rbx, %rdi
	xorl	%edx, %edx
	callq	__ZN14altered_carbon2js13RefCountedPtrINS0_14JsVariantArrayEE5resetEPNS0_10RefCountedIS2_EEb
	leaq	-24(%rbp), %rax
	movq	%rax, -128(%rbp)
	movq	-128(%rbp), %rax
	movq	%rax, -136(%rbp)
	movq	-136(%rbp), %rax
	movq	%rax, -152(%rbp)
	movq	$0, -144(%rbp)
	movq	-152(%rbp), %rax
	movq	%rax, -160(%rbp)
	movq	-160(%rbp), %rcx
	movq	%rcx, -168(%rbp)
	movq	-168(%rbp), %rcx
	movq	(%rcx), %rcx
	movq	%rcx, -32(%rbp)
	movq	-144(%rbp), %rcx
	movq	%rax, -184(%rbp)
	movq	-184(%rbp), %rdx
	movq	%rdx, -192(%rbp)
	movq	-192(%rbp), %rdx
	movq	%rcx, (%rdx)
	cmpq	$0, -32(%rbp)
	je	LBB84_10
## %bb.7:
	movq	%rax, -200(%rbp)
	movq	-200(%rbp), %rax
	movq	%rax, -208(%rbp)
	movq	-208(%rbp), %rax
	movq	-32(%rbp), %rcx
	movq	%rax, -232(%rbp)
	movq	%rcx, -176(%rbp)
	movq	-176(%rbp), %rdi
	cmpq	$0, %rdi
	je	LBB84_9
## %bb.8:
	movq	(%rdi), %rax
	callq	*8(%rax)
LBB84_9:
	jmp	LBB84_10
LBB84_10:
	leaq	-224(%rbp), %rdi
	callq	__ZN14altered_carbon2js14JsVariantArrayD1Ev
	movq	%r14, %rax
	addq	$224, %rsp
	popq	%rbx
	popq	%r14
	popq	%rbp
	retq
	.cfi_endproc
                                        ## -- End function
	.globl	__ZNK14altered_carbon2js9JsVariant3addEPS1_RKS1_ ## -- Begin function _ZNK14altered_carbon2js9JsVariant3addEPS1_RKS1_
	.p2align	4, 0x90
__ZNK14altered_carbon2js9JsVariant3addEPS1_RKS1_: ## @_ZNK14altered_carbon2js9JsVariant3addEPS1_RKS1_
	.cfi_startproc
## %bb.0:
	pushq	%rbp
	.cfi_def_cfa_offset 16
	.cfi_offset %rbp, -16
	movq	%rsp, %rbp
	.cfi_def_cfa_register %rbp
	subq	$240, %rsp
	movq	%rdi, -32(%rbp)
	movq	%rsi, -8(%rbp)
	movq	%rdx, -16(%rbp)
	movq	-32(%rbp), %rsi
	movq	-16(%rbp), %rax
	cmpl	$7, 8(%rax)
	jne	LBB85_2
## %bb.1:
	movq	-16(%rbp), %rax
	movq	16(%rax), %rax
	cmpl	$10, 8(%rax)
	je	LBB85_3
	jmp	LBB85_12
LBB85_2:
	movq	-16(%rbp), %rax
	cmpl	$10, 8(%rax)
	jne	LBB85_12
LBB85_3:
	jmp	LBB85_4
LBB85_4:
	movq	-8(%rbp), %rdi
	callq	__ZN14altered_carbon2js9JsVariantaSERKS1_
	movq	-8(%rbp), %rdi
	movl	$10, %esi
	callq	__ZN14altered_carbon2js9JsVariant4convEi
## %bb.5:
	movq	-8(%rbp), %rax
	movq	16(%rax), %rax
	movq	-16(%rbp), %rcx
	movq	16(%rcx), %rcx
	movq	%rax, -40(%rbp)
	movq	%rcx, -24(%rbp)
	movq	-40(%rbp), %rdi
	movq	-24(%rbp), %rax
	movq	%rax, -48(%rbp)
	movq	-48(%rbp), %rax
	movq	%rax, -56(%rbp)
	movq	-56(%rbp), %rax
	movq	%rax, -64(%rbp)
	movq	-64(%rbp), %rcx
	movq	%rcx, -72(%rbp)
	movq	-72(%rbp), %rcx
	movq	%rcx, -80(%rbp)
	movq	-80(%rbp), %rcx
	movzbl	(%rcx), %ecx
	andq	$1, %rcx
	cmpq	$0, %rcx
	je	LBB85_7
## %bb.6:
	movq	%rax, -128(%rbp)
	movq	-128(%rbp), %rax
	movq	%rax, -136(%rbp)
	movq	-136(%rbp), %rax
	movq	%rax, -144(%rbp)
	movq	-144(%rbp), %rax
	movq	16(%rax), %rax
	jmp	LBB85_8
LBB85_7:
	movq	%rax, -88(%rbp)
	movq	-88(%rbp), %rax
	movq	%rax, -96(%rbp)
	movq	-96(%rbp), %rax
	movq	%rax, -104(%rbp)
	movq	-104(%rbp), %rax
	addq	$4, %rax
	movq	%rax, -112(%rbp)
	movq	-112(%rbp), %rax
	movq	%rax, -120(%rbp)
	movq	-120(%rbp), %rax
LBB85_8:
	movq	%rax, -152(%rbp)
	movq	-152(%rbp), %rsi
	movq	-24(%rbp), %rax
	movq	%rax, -160(%rbp)
	movq	-160(%rbp), %rax
	movq	%rax, -168(%rbp)
	movq	-168(%rbp), %rcx
	movq	%rcx, -176(%rbp)
	movq	-176(%rbp), %rcx
	movq	%rcx, -184(%rbp)
	movq	-184(%rbp), %rcx
	movzbl	(%rcx), %ecx
	andq	$1, %rcx
	cmpq	$0, %rcx
	je	LBB85_10
## %bb.9:
	movq	%rax, -216(%rbp)
	movq	-216(%rbp), %rax
	movq	%rax, -224(%rbp)
	movq	-224(%rbp), %rax
	movq	%rax, -232(%rbp)
	movq	-232(%rbp), %rax
	movq	8(%rax), %rdx
	jmp	LBB85_11
LBB85_10:
	movq	%rax, -192(%rbp)
	movq	-192(%rbp), %rax
	movq	%rax, -200(%rbp)
	movq	-200(%rbp), %rax
	movq	%rax, -208(%rbp)
	movq	-208(%rbp), %rax
	movzbl	(%rax), %eax
	sarl	$1, %eax
	movslq	%eax, %rdx
LBB85_11:
	callq	__ZNSt3__112basic_stringIwNS_11char_traitsIwEENS_9allocatorIwEEE6appendEPKwm
	jmp	LBB85_23
LBB85_12:
	cmpl	$7, 8(%rsi)
	jne	LBB85_14
## %bb.13:
	movq	16(%rsi), %rax
	cmpl	$10, 8(%rax)
	je	LBB85_21
	jmp	LBB85_15
LBB85_14:
	cmpl	$10, 8(%rsi)
	je	LBB85_21
LBB85_15:
	cmpl	$7, 8(%rsi)
	jne	LBB85_17
## %bb.16:
	movq	16(%rsi), %rax
	cmpl	$2, 8(%rax)
	je	LBB85_21
	jmp	LBB85_18
LBB85_17:
	cmpl	$2, 8(%rsi)
	je	LBB85_21
LBB85_18:
	jmp	LBB85_19
LBB85_19:
	movq	-8(%rbp), %rdi
	callq	__ZN14altered_carbon2js9JsVariantaSERKS1_
	movq	-8(%rbp), %rdi
	movl	$2, %esi
	callq	__ZN14altered_carbon2js9JsVariant4convEi
## %bb.20:
	jmp	LBB85_22
LBB85_21:
	movq	-8(%rbp), %rdi
	callq	__ZN14altered_carbon2js9JsVariantaSERKS1_
LBB85_22:
	movq	-16(%rbp), %rsi
	movq	-8(%rbp), %rdi
	callq	__ZN14altered_carbon2js9JsVariantpLERKS1_
LBB85_23:
	movq	-8(%rbp), %rax
	addq	$240, %rsp
	popq	%rbp
	retq
	.cfi_endproc
                                        ## -- End function
	.section	__TEXT,__literal8,8byte_literals
	.p2align	3               ## -- Begin function _ZN14altered_carbon2js9JsVariantpLERKS1_
LCPI86_0:
	.quad	4607182418800017408     ## double 1
	.section	__TEXT,__text,regular,pure_instructions
	.globl	__ZN14altered_carbon2js9JsVariantpLERKS1_
	.p2align	4, 0x90
__ZN14altered_carbon2js9JsVariantpLERKS1_: ## @_ZN14altered_carbon2js9JsVariantpLERKS1_
	.cfi_startproc
## %bb.0:
	pushq	%rbp
	.cfi_def_cfa_offset 16
	.cfi_offset %rbp, -16
	movq	%rsp, %rbp
	.cfi_def_cfa_register %rbp
	pushq	%rbx
	subq	$552, %rsp              ## imm = 0x228
	.cfi_offset %rbx, -24
	movq	___stack_chk_guard@GOTPCREL(%rip), %rax
	movq	(%rax), %rax
	movq	%rax, -16(%rbp)
	movq	%rdi, -160(%rbp)
	movq	%rsi, -136(%rbp)
	movq	-160(%rbp), %rbx
	cmpl	$7, 8(%rbx)
	jne	LBB86_2
## %bb.1:
	movq	16(%rbx), %rax
	cmpl	$10, 8(%rax)
	je	LBB86_3
	jmp	LBB86_10
LBB86_2:
	cmpl	$10, 8(%rbx)
	jne	LBB86_10
LBB86_3:
	movq	-136(%rbp), %rsi
	leaq	-72(%rbp), %rdi
	movl	$10, %edx
	callq	__ZN14altered_carbon2js9JsVariantC1ERKS1_NS1_13JsVariantTypeE
	movq	16(%rbx), %rax
	movq	-56(%rbp), %rcx
	movq	%rax, -168(%rbp)
	movq	%rcx, -144(%rbp)
	movq	-168(%rbp), %rdi
	movq	-144(%rbp), %rax
	movq	%rax, -176(%rbp)
	movq	-176(%rbp), %rax
	movq	%rax, -184(%rbp)
	movq	-184(%rbp), %rax
	movq	%rax, -192(%rbp)
	movq	-192(%rbp), %rcx
	movq	%rcx, -200(%rbp)
	movq	-200(%rbp), %rcx
	movq	%rcx, -208(%rbp)
	movq	-208(%rbp), %rcx
	movzbl	(%rcx), %ecx
	andq	$1, %rcx
	cmpq	$0, %rcx
	je	LBB86_5
## %bb.4:
	movq	%rax, -256(%rbp)
	movq	-256(%rbp), %rax
	movq	%rax, -264(%rbp)
	movq	-264(%rbp), %rax
	movq	%rax, -272(%rbp)
	movq	-272(%rbp), %rax
	movq	16(%rax), %rax
	jmp	LBB86_6
LBB86_5:
	movq	%rax, -216(%rbp)
	movq	-216(%rbp), %rax
	movq	%rax, -224(%rbp)
	movq	-224(%rbp), %rax
	movq	%rax, -232(%rbp)
	movq	-232(%rbp), %rax
	addq	$4, %rax
	movq	%rax, -240(%rbp)
	movq	-240(%rbp), %rax
	movq	%rax, -248(%rbp)
	movq	-248(%rbp), %rax
LBB86_6:
	movq	%rax, -280(%rbp)
	movq	-280(%rbp), %rsi
	movq	-144(%rbp), %rax
	movq	%rax, -288(%rbp)
	movq	-288(%rbp), %rax
	movq	%rax, -296(%rbp)
	movq	-296(%rbp), %rcx
	movq	%rcx, -304(%rbp)
	movq	-304(%rbp), %rcx
	movq	%rcx, -312(%rbp)
	movq	-312(%rbp), %rcx
	movzbl	(%rcx), %ecx
	andq	$1, %rcx
	cmpq	$0, %rcx
	je	LBB86_8
## %bb.7:
	movq	%rax, -344(%rbp)
	movq	-344(%rbp), %rax
	movq	%rax, -352(%rbp)
	movq	-352(%rbp), %rax
	movq	%rax, -360(%rbp)
	movq	-360(%rbp), %rax
	movq	8(%rax), %rdx
	jmp	LBB86_9
LBB86_8:
	movq	%rax, -320(%rbp)
	movq	-320(%rbp), %rax
	movq	%rax, -328(%rbp)
	movq	-328(%rbp), %rax
	movq	%rax, -336(%rbp)
	movq	-336(%rbp), %rax
	movzbl	(%rax), %eax
	sarl	$1, %eax
	movslq	%eax, %rdx
LBB86_9:
	callq	__ZNSt3__112basic_stringIwNS_11char_traitsIwEENS_9allocatorIwEEE6appendEPKwm
	leaq	-72(%rbp), %rdi
	callq	__ZN14altered_carbon2js9JsVariantD1Ev
	jmp	LBB86_37
LBB86_10:
	movq	-136(%rbp), %rax
	cmpl	$7, 8(%rax)
	jne	LBB86_12
## %bb.11:
	movq	-136(%rbp), %rax
	movq	16(%rax), %rax
	cmpl	$10, 8(%rax)
	je	LBB86_13
	jmp	LBB86_20
LBB86_12:
	movq	-136(%rbp), %rax
	cmpl	$10, 8(%rax)
	jne	LBB86_20
LBB86_13:
	movq	%rbx, %rdi
	movl	$10, %esi
	callq	__ZN14altered_carbon2js9JsVariant4convEi
	movq	-136(%rbp), %rsi
	leaq	-128(%rbp), %rdi
	movl	$10, %edx
	callq	__ZN14altered_carbon2js9JsVariantC1ERKS1_NS1_13JsVariantTypeE
	movq	16(%rbx), %rax
	movq	-112(%rbp), %rcx
	movq	%rax, -368(%rbp)
	movq	%rcx, -152(%rbp)
	movq	-368(%rbp), %rdi
	movq	-152(%rbp), %rax
	movq	%rax, -376(%rbp)
	movq	-376(%rbp), %rax
	movq	%rax, -384(%rbp)
	movq	-384(%rbp), %rax
	movq	%rax, -392(%rbp)
	movq	-392(%rbp), %rcx
	movq	%rcx, -400(%rbp)
	movq	-400(%rbp), %rcx
	movq	%rcx, -408(%rbp)
	movq	-408(%rbp), %rcx
	movzbl	(%rcx), %ecx
	andq	$1, %rcx
	cmpq	$0, %rcx
	je	LBB86_15
## %bb.14:
	movq	%rax, -456(%rbp)
	movq	-456(%rbp), %rax
	movq	%rax, -464(%rbp)
	movq	-464(%rbp), %rax
	movq	%rax, -472(%rbp)
	movq	-472(%rbp), %rax
	movq	16(%rax), %rax
	jmp	LBB86_16
LBB86_15:
	movq	%rax, -416(%rbp)
	movq	-416(%rbp), %rax
	movq	%rax, -424(%rbp)
	movq	-424(%rbp), %rax
	movq	%rax, -432(%rbp)
	movq	-432(%rbp), %rax
	addq	$4, %rax
	movq	%rax, -440(%rbp)
	movq	-440(%rbp), %rax
	movq	%rax, -448(%rbp)
	movq	-448(%rbp), %rax
LBB86_16:
	movq	%rax, -480(%rbp)
	movq	-480(%rbp), %rsi
	movq	-152(%rbp), %rax
	movq	%rax, -488(%rbp)
	movq	-488(%rbp), %rax
	movq	%rax, -496(%rbp)
	movq	-496(%rbp), %rcx
	movq	%rcx, -504(%rbp)
	movq	-504(%rbp), %rcx
	movq	%rcx, -512(%rbp)
	movq	-512(%rbp), %rcx
	movzbl	(%rcx), %ecx
	andq	$1, %rcx
	cmpq	$0, %rcx
	je	LBB86_18
## %bb.17:
	movq	%rax, -544(%rbp)
	movq	-544(%rbp), %rax
	movq	%rax, -552(%rbp)
	movq	-552(%rbp), %rax
	movq	%rax, -560(%rbp)
	movq	-560(%rbp), %rax
	movq	8(%rax), %rdx
	jmp	LBB86_19
LBB86_18:
	movq	%rax, -520(%rbp)
	movq	-520(%rbp), %rax
	movq	%rax, -528(%rbp)
	movq	-528(%rbp), %rax
	movq	%rax, -536(%rbp)
	movq	-536(%rbp), %rax
	movzbl	(%rax), %eax
	sarl	$1, %eax
	movslq	%eax, %rdx
LBB86_19:
	callq	__ZNSt3__112basic_stringIwNS_11char_traitsIwEENS_9allocatorIwEEE6appendEPKwm
	leaq	-128(%rbp), %rdi
	callq	__ZN14altered_carbon2js9JsVariantD1Ev
	jmp	LBB86_36
LBB86_20:
	cmpl	$7, 8(%rbx)
	jne	LBB86_22
## %bb.21:
	movq	16(%rbx), %rax
	cmpl	$2, 8(%rax)
	je	LBB86_24
	jmp	LBB86_23
LBB86_22:
	cmpl	$2, 8(%rbx)
	je	LBB86_24
LBB86_23:
	movq	%rbx, %rdi
	movl	$2, %esi
	callq	__ZN14altered_carbon2js9JsVariant4convEi
LBB86_24:
	movq	-136(%rbp), %rax
	cmpl	$7, 8(%rax)
	jne	LBB86_26
## %bb.25:
	movq	-136(%rbp), %rax
	movq	16(%rax), %rax
	cmpl	$2, 8(%rax)
	je	LBB86_27
	jmp	LBB86_28
LBB86_26:
	movq	-136(%rbp), %rax
	cmpl	$2, 8(%rax)
	jne	LBB86_28
LBB86_27:
	movq	-136(%rbp), %rax
	movsd	24(%rax), %xmm0         ## xmm0 = mem[0],zero
	addsd	24(%rbx), %xmm0
	movsd	%xmm0, 24(%rbx)
	cvttsd2si	%xmm0, %rax
	movq	%rax, 16(%rbx)
	movq	-136(%rbp), %rax
	movb	32(%rax), %al
	andb	$1, %al
	movzbl	%al, %eax
	movb	32(%rbx), %cl
	andb	$1, %cl
	movzbl	%cl, %ecx
	andl	%eax, %ecx
	cmpl	$0, %ecx
	setne	%al
	andb	$1, %al
	movb	%al, 32(%rbx)
	jmp	LBB86_35
LBB86_28:
	movq	-136(%rbp), %rax
	cmpl	$7, 8(%rax)
	jne	LBB86_30
## %bb.29:
	movq	-136(%rbp), %rax
	movq	16(%rax), %rax
	cmpl	$6, 8(%rax)
	je	LBB86_31
	jmp	LBB86_34
LBB86_30:
	movq	-136(%rbp), %rax
	cmpl	$6, 8(%rax)
	jne	LBB86_34
LBB86_31:
	movsd	LCPI86_0(%rip), %xmm0   ## xmm0 = mem[0],zero
	xorl	%eax, %eax
	movq	-136(%rbp), %rcx
	movb	16(%rcx), %cl
	testb	$1, %cl
	movl	$1, %ecx
	cmovnel	%ecx, %eax
	cltq
	addq	16(%rbx), %rax
	movq	%rax, 16(%rbx)
	movq	-136(%rbp), %rax
	movb	16(%rax), %al
	testb	$1, %al
	jne	LBB86_33
## %bb.32:
	xorps	%xmm0, %xmm0
LBB86_33:
	addsd	24(%rbx), %xmm0
	movsd	%xmm0, 24(%rbx)
LBB86_34:
	jmp	LBB86_35
LBB86_35:
	jmp	LBB86_36
LBB86_36:
	jmp	LBB86_37
LBB86_37:
	movq	-16(%rbp), %rax
	movq	___stack_chk_guard@GOTPCREL(%rip), %rcx
	movq	(%rcx), %rcx
	subq	%rax, %rcx
	jne	LBB86_38
	jmp	LBB86_39
LBB86_38:
	callq	___stack_chk_fail
LBB86_39:
	movq	%rbx, %rax
	addq	$552, %rsp              ## imm = 0x228
	popq	%rbx
	popq	%rbp
	retq
	.cfi_endproc
                                        ## -- End function
	.globl	__ZNK14altered_carbon2js9JsVariant3subEPS1_RKS1_ ## -- Begin function _ZNK14altered_carbon2js9JsVariant3subEPS1_RKS1_
	.p2align	4, 0x90
__ZNK14altered_carbon2js9JsVariant3subEPS1_RKS1_: ## @_ZNK14altered_carbon2js9JsVariant3subEPS1_RKS1_
	.cfi_startproc
## %bb.0:
	pushq	%rbp
	.cfi_def_cfa_offset 16
	.cfi_offset %rbp, -16
	movq	%rsp, %rbp
	.cfi_def_cfa_register %rbp
	subq	$32, %rsp
	movq	%rdi, -24(%rbp)
	movq	%rsi, -8(%rbp)
	movq	%rdx, -16(%rbp)
	movq	-24(%rbp), %rsi
## %bb.1:
	movq	-8(%rbp), %rdi
	callq	__ZN14altered_carbon2js9JsVariantaSERKS1_
	movq	-8(%rbp), %rdi
	movl	$2, %esi
	callq	__ZN14altered_carbon2js9JsVariant4convEi
## %bb.2:
	movq	-16(%rbp), %rsi
	movq	-8(%rbp), %rdi
	callq	__ZN14altered_carbon2js9JsVariantmIERKS1_
	addq	$32, %rsp
	popq	%rbp
	retq
	.cfi_endproc
                                        ## -- End function
	.globl	__ZN14altered_carbon2js9JsVariantmIERKS1_ ## -- Begin function _ZN14altered_carbon2js9JsVariantmIERKS1_
	.p2align	4, 0x90
__ZN14altered_carbon2js9JsVariantmIERKS1_: ## @_ZN14altered_carbon2js9JsVariantmIERKS1_
	.cfi_startproc
## %bb.0:
	pushq	%rbp
	.cfi_def_cfa_offset 16
	.cfi_offset %rbp, -16
	movq	%rsp, %rbp
	.cfi_def_cfa_register %rbp
	pushq	%rbx
	subq	$88, %rsp
	.cfi_offset %rbx, -24
	movq	___stack_chk_guard@GOTPCREL(%rip), %rax
	movq	(%rax), %rax
	movq	%rax, -16(%rbp)
	movq	%rdi, -88(%rbp)
	movq	%rsi, -80(%rbp)
	movq	-88(%rbp), %rbx
	movq	%rbx, %rdi
	movl	$2, %esi
	callq	__ZN14altered_carbon2js9JsVariant4convEi
	movq	-80(%rbp), %rax
	cmpl	$7, 8(%rax)
	jne	LBB88_2
## %bb.1:
	movq	-80(%rbp), %rax
	movq	16(%rax), %rax
	cmpl	$2, 8(%rax)
	je	LBB88_4
	jmp	LBB88_3
LBB88_2:
	movq	-80(%rbp), %rax
	cmpl	$2, 8(%rax)
	je	LBB88_4
LBB88_3:
	leaq	-72(%rbp), %rdi
	movq	%rbx, %rsi
	movl	$2, %edx
	callq	__ZN14altered_carbon2js9JsVariantC1ERKS1_NS1_13JsVariantTypeE
	movsd	-48(%rbp), %xmm0        ## xmm0 = mem[0],zero
	movsd	24(%rbx), %xmm1         ## xmm1 = mem[0],zero
	subsd	%xmm0, %xmm1
	movsd	%xmm1, 24(%rbx)
	movb	-40(%rbp), %al
	andb	$1, %al
	movzbl	%al, %eax
	movb	32(%rbx), %cl
	andb	$1, %cl
	movzbl	%cl, %ecx
	andl	%eax, %ecx
	cmpl	$0, %ecx
	setne	%al
	andb	$1, %al
	movb	%al, 32(%rbx)
	leaq	-72(%rbp), %rdi
	callq	__ZN14altered_carbon2js9JsVariantD1Ev
	jmp	LBB88_5
LBB88_4:
	movq	-80(%rbp), %rax
	movsd	24(%rax), %xmm0         ## xmm0 = mem[0],zero
	movsd	24(%rbx), %xmm1         ## xmm1 = mem[0],zero
	subsd	%xmm0, %xmm1
	movsd	%xmm1, 24(%rbx)
	movq	-80(%rbp), %rax
	movb	32(%rax), %al
	andb	$1, %al
	movzbl	%al, %eax
	movb	32(%rbx), %cl
	andb	$1, %cl
	movzbl	%cl, %ecx
	andl	%eax, %ecx
	cmpl	$0, %ecx
	setne	%al
	andb	$1, %al
	movb	%al, 32(%rbx)
LBB88_5:
	cvttsd2si	24(%rbx), %rax
	movq	%rax, 16(%rbx)
	movq	-16(%rbp), %rax
	movq	___stack_chk_guard@GOTPCREL(%rip), %rcx
	movq	(%rcx), %rcx
	subq	%rax, %rcx
	jne	LBB88_6
	jmp	LBB88_7
LBB88_6:
	callq	___stack_chk_fail
LBB88_7:
	movq	%rbx, %rax
	addq	$88, %rsp
	popq	%rbx
	popq	%rbp
	retq
	.cfi_endproc
                                        ## -- End function
	.globl	__ZNK14altered_carbon2js9JsVariant3mulEPS1_RKS1_ ## -- Begin function _ZNK14altered_carbon2js9JsVariant3mulEPS1_RKS1_
	.p2align	4, 0x90
__ZNK14altered_carbon2js9JsVariant3mulEPS1_RKS1_: ## @_ZNK14altered_carbon2js9JsVariant3mulEPS1_RKS1_
	.cfi_startproc
## %bb.0:
	pushq	%rbp
	.cfi_def_cfa_offset 16
	.cfi_offset %rbp, -16
	movq	%rsp, %rbp
	.cfi_def_cfa_register %rbp
	subq	$32, %rsp
	movq	%rdi, -24(%rbp)
	movq	%rsi, -8(%rbp)
	movq	%rdx, -16(%rbp)
	movq	-24(%rbp), %rsi
## %bb.1:
	movq	-8(%rbp), %rdi
	callq	__ZN14altered_carbon2js9JsVariantaSERKS1_
	movq	-8(%rbp), %rdi
	movl	$2, %esi
	callq	__ZN14altered_carbon2js9JsVariant4convEi
## %bb.2:
	movq	-16(%rbp), %rsi
	movq	-8(%rbp), %rdi
	callq	__ZN14altered_carbon2js9JsVariantmLERKS1_
	addq	$32, %rsp
	popq	%rbp
	retq
	.cfi_endproc
                                        ## -- End function
	.globl	__ZN14altered_carbon2js9JsVariantmLERKS1_ ## -- Begin function _ZN14altered_carbon2js9JsVariantmLERKS1_
	.p2align	4, 0x90
__ZN14altered_carbon2js9JsVariantmLERKS1_: ## @_ZN14altered_carbon2js9JsVariantmLERKS1_
	.cfi_startproc
## %bb.0:
	pushq	%rbp
	.cfi_def_cfa_offset 16
	.cfi_offset %rbp, -16
	movq	%rsp, %rbp
	.cfi_def_cfa_register %rbp
	pushq	%rbx
	subq	$88, %rsp
	.cfi_offset %rbx, -24
	movq	___stack_chk_guard@GOTPCREL(%rip), %rax
	movq	(%rax), %rax
	movq	%rax, -16(%rbp)
	movq	%rdi, -88(%rbp)
	movq	%rsi, -80(%rbp)
	movq	-88(%rbp), %rbx
	movq	%rbx, %rdi
	movl	$2, %esi
	callq	__ZN14altered_carbon2js9JsVariant4convEi
	movq	-80(%rbp), %rax
	cmpl	$7, 8(%rax)
	jne	LBB90_2
## %bb.1:
	movq	-80(%rbp), %rax
	movq	16(%rax), %rax
	cmpl	$2, 8(%rax)
	je	LBB90_4
	jmp	LBB90_3
LBB90_2:
	movq	-80(%rbp), %rax
	cmpl	$2, 8(%rax)
	je	LBB90_4
LBB90_3:
	leaq	-72(%rbp), %rdi
	movq	%rbx, %rsi
	movl	$2, %edx
	callq	__ZN14altered_carbon2js9JsVariantC1ERKS1_NS1_13JsVariantTypeE
	movsd	-48(%rbp), %xmm0        ## xmm0 = mem[0],zero
	mulsd	24(%rbx), %xmm0
	movsd	%xmm0, 24(%rbx)
	movb	-40(%rbp), %al
	andb	$1, %al
	movzbl	%al, %eax
	movb	32(%rbx), %cl
	andb	$1, %cl
	movzbl	%cl, %ecx
	andl	%eax, %ecx
	cmpl	$0, %ecx
	setne	%al
	andb	$1, %al
	movb	%al, 32(%rbx)
	leaq	-72(%rbp), %rdi
	callq	__ZN14altered_carbon2js9JsVariantD1Ev
	jmp	LBB90_5
LBB90_4:
	movq	-80(%rbp), %rax
	movsd	24(%rax), %xmm0         ## xmm0 = mem[0],zero
	mulsd	24(%rbx), %xmm0
	movsd	%xmm0, 24(%rbx)
	movq	-80(%rbp), %rax
	movb	32(%rax), %al
	andb	$1, %al
	movzbl	%al, %eax
	movb	32(%rbx), %cl
	andb	$1, %cl
	movzbl	%cl, %ecx
	andl	%eax, %ecx
	cmpl	$0, %ecx
	setne	%al
	andb	$1, %al
	movb	%al, 32(%rbx)
LBB90_5:
	cvttsd2si	24(%rbx), %rax
	movq	%rax, 16(%rbx)
	movq	-16(%rbp), %rax
	movq	___stack_chk_guard@GOTPCREL(%rip), %rcx
	movq	(%rcx), %rcx
	subq	%rax, %rcx
	jne	LBB90_6
	jmp	LBB90_7
LBB90_6:
	callq	___stack_chk_fail
LBB90_7:
	movq	%rbx, %rax
	addq	$88, %rsp
	popq	%rbx
	popq	%rbp
	retq
	.cfi_endproc
                                        ## -- End function
	.globl	__ZNK14altered_carbon2js9JsVariant3divEPS1_RKS1_ ## -- Begin function _ZNK14altered_carbon2js9JsVariant3divEPS1_RKS1_
	.p2align	4, 0x90
__ZNK14altered_carbon2js9JsVariant3divEPS1_RKS1_: ## @_ZNK14altered_carbon2js9JsVariant3divEPS1_RKS1_
	.cfi_startproc
## %bb.0:
	pushq	%rbp
	.cfi_def_cfa_offset 16
	.cfi_offset %rbp, -16
	movq	%rsp, %rbp
	.cfi_def_cfa_register %rbp
	subq	$32, %rsp
	movq	%rdi, -24(%rbp)
	movq	%rsi, -8(%rbp)
	movq	%rdx, -16(%rbp)
	movq	-24(%rbp), %rsi
## %bb.1:
	movq	-8(%rbp), %rdi
	callq	__ZN14altered_carbon2js9JsVariantaSERKS1_
	movq	-8(%rbp), %rdi
	movl	$2, %esi
	callq	__ZN14altered_carbon2js9JsVariant4convEi
## %bb.2:
	movq	-16(%rbp), %rsi
	movq	-8(%rbp), %rdi
	callq	__ZN14altered_carbon2js9JsVariantdVERKS1_
	addq	$32, %rsp
	popq	%rbp
	retq
	.cfi_endproc
                                        ## -- End function
	.globl	__ZN14altered_carbon2js9JsVariantdVERKS1_ ## -- Begin function _ZN14altered_carbon2js9JsVariantdVERKS1_
	.p2align	4, 0x90
__ZN14altered_carbon2js9JsVariantdVERKS1_: ## @_ZN14altered_carbon2js9JsVariantdVERKS1_
	.cfi_startproc
## %bb.0:
	pushq	%rbp
	.cfi_def_cfa_offset 16
	.cfi_offset %rbp, -16
	movq	%rsp, %rbp
	.cfi_def_cfa_register %rbp
	pushq	%rbx
	subq	$88, %rsp
	.cfi_offset %rbx, -24
	movq	___stack_chk_guard@GOTPCREL(%rip), %rax
	movq	(%rax), %rax
	movq	%rax, -16(%rbp)
	movq	%rdi, -88(%rbp)
	movq	%rsi, -80(%rbp)
	movq	-88(%rbp), %rbx
	movq	%rbx, %rdi
	movl	$2, %esi
	callq	__ZN14altered_carbon2js9JsVariant4convEi
	movq	-80(%rbp), %rax
	cmpl	$7, 8(%rax)
	jne	LBB92_2
## %bb.1:
	movq	-80(%rbp), %rax
	movq	16(%rax), %rax
	cmpl	$2, 8(%rax)
	je	LBB92_12
	jmp	LBB92_3
LBB92_2:
	movq	-80(%rbp), %rax
	cmpl	$2, 8(%rax)
	je	LBB92_12
LBB92_3:
	movq	-80(%rbp), %rsi
	leaq	-72(%rbp), %rdi
	movl	$2, %edx
	callq	__ZN14altered_carbon2js9JsVariantC1ERKS1_NS1_13JsVariantTypeE
	xorl	%eax, %eax
	cmpq	$0, -56(%rbp)
	je	LBB92_5
## %bb.4:
	movq	16(%rbx), %rax
	cqto
	idivq	-56(%rbp)
	cmpq	$0, %rdx
	sete	%al
LBB92_5:
	andb	$1, %al
	movb	%al, 32(%rbx)
	testb	$1, 32(%rbx)
	je	LBB92_7
## %bb.6:
	movq	-56(%rbp), %rcx
	movq	16(%rbx), %rax
	cqto
	idivq	%rcx
	movq	%rax, 16(%rbx)
	cvtsi2sdq	%rax, %xmm0
	movsd	%xmm0, 24(%rbx)
	jmp	LBB92_11
LBB92_7:
	movsd	-48(%rbp), %xmm0        ## xmm0 = mem[0],zero
	movsd	24(%rbx), %xmm1         ## xmm1 = mem[0],zero
	divsd	%xmm0, %xmm1
	movsd	%xmm1, 24(%rbx)
	movsd	-48(%rbp), %xmm0        ## xmm0 = mem[0],zero
	xorps	%xmm1, %xmm1
	ucomisd	%xmm1, %xmm0
	jne	LBB92_8
	jp	LBB92_8
	jmp	LBB92_9
LBB92_8:
	cvttsd2si	24(%rbx), %rax
	movq	%rax, 16(%rbx)
	jmp	LBB92_10
LBB92_9:
	movq	$0, 16(%rbx)
LBB92_10:
	jmp	LBB92_11
LBB92_11:
	leaq	-72(%rbp), %rdi
	callq	__ZN14altered_carbon2js9JsVariantD1Ev
	jmp	LBB92_21
LBB92_12:
	xorl	%eax, %eax
	movq	-80(%rbp), %rcx
	cmpq	$0, 16(%rcx)
	je	LBB92_14
## %bb.13:
	movq	16(%rbx), %rax
	movq	-80(%rbp), %rcx
	cqto
	idivq	16(%rcx)
	cmpq	$0, %rdx
	sete	%al
LBB92_14:
	andb	$1, %al
	movb	%al, 32(%rbx)
	testb	$1, 32(%rbx)
	je	LBB92_16
## %bb.15:
	movq	-80(%rbp), %rax
	movq	16(%rax), %rcx
	movq	16(%rbx), %rax
	cqto
	idivq	%rcx
	movq	%rax, 16(%rbx)
	cvtsi2sdq	%rax, %xmm0
	movsd	%xmm0, 24(%rbx)
	jmp	LBB92_20
LBB92_16:
	movq	-80(%rbp), %rax
	movsd	24(%rax), %xmm0         ## xmm0 = mem[0],zero
	movsd	24(%rbx), %xmm1         ## xmm1 = mem[0],zero
	divsd	%xmm0, %xmm1
	movsd	%xmm1, 24(%rbx)
	movq	-80(%rbp), %rax
	movsd	24(%rax), %xmm0         ## xmm0 = mem[0],zero
	xorps	%xmm1, %xmm1
	ucomisd	%xmm1, %xmm0
	jne	LBB92_17
	jp	LBB92_17
	jmp	LBB92_18
LBB92_17:
	cvttsd2si	24(%rbx), %rax
	movq	%rax, 16(%rbx)
	jmp	LBB92_19
LBB92_18:
	movq	$0, 16(%rbx)
LBB92_19:
	jmp	LBB92_20
LBB92_20:
	jmp	LBB92_21
LBB92_21:
	movq	-16(%rbp), %rax
	movq	___stack_chk_guard@GOTPCREL(%rip), %rcx
	movq	(%rcx), %rcx
	subq	%rax, %rcx
	jne	LBB92_22
	jmp	LBB92_23
LBB92_22:
	callq	___stack_chk_fail
LBB92_23:
	movq	%rbx, %rax
	addq	$88, %rsp
	popq	%rbx
	popq	%rbp
	retq
	.cfi_endproc
                                        ## -- End function
	.globl	__ZNK14altered_carbon2js9JsVariant3modEPS1_RKS1_ ## -- Begin function _ZNK14altered_carbon2js9JsVariant3modEPS1_RKS1_
	.p2align	4, 0x90
__ZNK14altered_carbon2js9JsVariant3modEPS1_RKS1_: ## @_ZNK14altered_carbon2js9JsVariant3modEPS1_RKS1_
	.cfi_startproc
## %bb.0:
	pushq	%rbp
	.cfi_def_cfa_offset 16
	.cfi_offset %rbp, -16
	movq	%rsp, %rbp
	.cfi_def_cfa_register %rbp
	subq	$32, %rsp
	movq	%rdi, -24(%rbp)
	movq	%rsi, -8(%rbp)
	movq	%rdx, -16(%rbp)
	movq	-24(%rbp), %rsi
## %bb.1:
	movq	-8(%rbp), %rdi
	callq	__ZN14altered_carbon2js9JsVariantaSERKS1_
	movq	-8(%rbp), %rdi
	movl	$2, %esi
	callq	__ZN14altered_carbon2js9JsVariant4convEi
## %bb.2:
	movq	-16(%rbp), %rsi
	movq	-8(%rbp), %rdi
	callq	__ZN14altered_carbon2js9JsVariantrMERKS1_
	addq	$32, %rsp
	popq	%rbp
	retq
	.cfi_endproc
                                        ## -- End function
	.globl	__ZN14altered_carbon2js9JsVariantrMERKS1_ ## -- Begin function _ZN14altered_carbon2js9JsVariantrMERKS1_
	.p2align	4, 0x90
__ZN14altered_carbon2js9JsVariantrMERKS1_: ## @_ZN14altered_carbon2js9JsVariantrMERKS1_
	.cfi_startproc
## %bb.0:
	pushq	%rbp
	.cfi_def_cfa_offset 16
	.cfi_offset %rbp, -16
	movq	%rsp, %rbp
	.cfi_def_cfa_register %rbp
	pushq	%rbx
	subq	$88, %rsp
	.cfi_offset %rbx, -24
	movq	___stack_chk_guard@GOTPCREL(%rip), %rax
	movq	(%rax), %rax
	movq	%rax, -16(%rbp)
	movq	%rdi, -88(%rbp)
	movq	%rsi, -80(%rbp)
	movq	-88(%rbp), %rbx
	movq	%rbx, %rdi
	movl	$2, %esi
	callq	__ZN14altered_carbon2js9JsVariant4convEi
	movq	-80(%rbp), %rsi
	leaq	-72(%rbp), %rdi
	movl	$2, %edx
	callq	__ZN14altered_carbon2js9JsVariantC1ERKS1_NS1_13JsVariantTypeE
	testb	$1, 32(%rbx)
	je	LBB94_3
## %bb.1:
	testb	$1, -40(%rbp)
	je	LBB94_3
## %bb.2:
	movq	-80(%rbp), %rax
	movq	16(%rax), %rcx
	movq	16(%rbx), %rax
	cqto
	idivq	%rcx
	movq	%rdx, 16(%rbx)
	cvtsi2sdq	%rdx, %xmm0
	movsd	%xmm0, 24(%rbx)
	jmp	LBB94_7
LBB94_3:
	movb	$0, 32(%rbx)
	movsd	24(%rbx), %xmm0         ## xmm0 = mem[0],zero
	divsd	-48(%rbp), %xmm0
	cvttsd2si	%xmm0, %rax
	cvtsi2sdq	%rax, %xmm0
	mulsd	-48(%rbp), %xmm0
	movsd	24(%rbx), %xmm1         ## xmm1 = mem[0],zero
	subsd	%xmm0, %xmm1
	movsd	%xmm1, 24(%rbx)
	movsd	-48(%rbp), %xmm0        ## xmm0 = mem[0],zero
	xorps	%xmm1, %xmm1
	ucomisd	%xmm1, %xmm0
	jne	LBB94_4
	jp	LBB94_4
	jmp	LBB94_5
LBB94_4:
	cvttsd2si	24(%rbx), %rax
	movq	%rax, 16(%rbx)
	jmp	LBB94_6
LBB94_5:
	movq	$0, 16(%rbx)
LBB94_6:
	jmp	LBB94_7
LBB94_7:
	leaq	-72(%rbp), %rdi
	callq	__ZN14altered_carbon2js9JsVariantD1Ev
	movq	-16(%rbp), %rax
	movq	___stack_chk_guard@GOTPCREL(%rip), %rcx
	movq	(%rcx), %rcx
	subq	%rax, %rcx
	jne	LBB94_8
	jmp	LBB94_9
LBB94_8:
	callq	___stack_chk_fail
LBB94_9:
	movq	%rbx, %rax
	addq	$88, %rsp
	popq	%rbx
	popq	%rbp
	retq
	.cfi_endproc
                                        ## -- End function
	.globl	__ZNK14altered_carbon2js9JsVariant3bwxEPS1_RKS1_ ## -- Begin function _ZNK14altered_carbon2js9JsVariant3bwxEPS1_RKS1_
	.p2align	4, 0x90
__ZNK14altered_carbon2js9JsVariant3bwxEPS1_RKS1_: ## @_ZNK14altered_carbon2js9JsVariant3bwxEPS1_RKS1_
	.cfi_startproc
## %bb.0:
	pushq	%rbp
	.cfi_def_cfa_offset 16
	.cfi_offset %rbp, -16
	movq	%rsp, %rbp
	.cfi_def_cfa_register %rbp
	subq	$32, %rsp
	movq	%rdi, -24(%rbp)
	movq	%rsi, -8(%rbp)
	movq	%rdx, -16(%rbp)
	movq	-24(%rbp), %rsi
## %bb.1:
	movq	-8(%rbp), %rdi
	callq	__ZN14altered_carbon2js9JsVariantaSERKS1_
	movq	-8(%rbp), %rdi
	movl	$2, %esi
	callq	__ZN14altered_carbon2js9JsVariant4convEi
## %bb.2:
	movq	-16(%rbp), %rsi
	movq	-8(%rbp), %rdi
	callq	__ZN14altered_carbon2js9JsVarianteOERKS1_
	addq	$32, %rsp
	popq	%rbp
	retq
	.cfi_endproc
                                        ## -- End function
	.globl	__ZN14altered_carbon2js9JsVarianteOERKS1_ ## -- Begin function _ZN14altered_carbon2js9JsVarianteOERKS1_
	.p2align	4, 0x90
__ZN14altered_carbon2js9JsVarianteOERKS1_: ## @_ZN14altered_carbon2js9JsVarianteOERKS1_
	.cfi_startproc
## %bb.0:
	pushq	%rbp
	.cfi_def_cfa_offset 16
	.cfi_offset %rbp, -16
	movq	%rsp, %rbp
	.cfi_def_cfa_register %rbp
	pushq	%rbx
	subq	$88, %rsp
	.cfi_offset %rbx, -24
	movq	___stack_chk_guard@GOTPCREL(%rip), %rax
	movq	(%rax), %rax
	movq	%rax, -16(%rbp)
	movq	%rdi, -88(%rbp)
	movq	%rsi, -80(%rbp)
	movq	-88(%rbp), %rbx
	movq	%rbx, %rdi
	movl	$2, %esi
	callq	__ZN14altered_carbon2js9JsVariant4convEi
	movq	-80(%rbp), %rsi
	leaq	-72(%rbp), %rdi
	movl	$2, %edx
	callq	__ZN14altered_carbon2js9JsVariantC1ERKS1_NS1_13JsVariantTypeE
	movq	-56(%rbp), %rax
	xorq	16(%rbx), %rax
	movq	%rax, 16(%rbx)
	cvtsi2sdq	%rax, %xmm0
	movsd	%xmm0, 24(%rbx)
	movb	$1, 32(%rbx)
	leaq	-72(%rbp), %rdi
	callq	__ZN14altered_carbon2js9JsVariantD1Ev
	movq	-16(%rbp), %rax
	movq	___stack_chk_guard@GOTPCREL(%rip), %rcx
	movq	(%rcx), %rcx
	subq	%rax, %rcx
	jne	LBB96_1
	jmp	LBB96_2
LBB96_1:
	callq	___stack_chk_fail
LBB96_2:
	movq	%rbx, %rax
	addq	$88, %rsp
	popq	%rbx
	popq	%rbp
	retq
	.cfi_endproc
                                        ## -- End function
	.globl	__ZNK14altered_carbon2js9JsVariant3bwoEPS1_RKS1_ ## -- Begin function _ZNK14altered_carbon2js9JsVariant3bwoEPS1_RKS1_
	.p2align	4, 0x90
__ZNK14altered_carbon2js9JsVariant3bwoEPS1_RKS1_: ## @_ZNK14altered_carbon2js9JsVariant3bwoEPS1_RKS1_
	.cfi_startproc
## %bb.0:
	pushq	%rbp
	.cfi_def_cfa_offset 16
	.cfi_offset %rbp, -16
	movq	%rsp, %rbp
	.cfi_def_cfa_register %rbp
	subq	$32, %rsp
	movq	%rdi, -24(%rbp)
	movq	%rsi, -8(%rbp)
	movq	%rdx, -16(%rbp)
	movq	-24(%rbp), %rsi
## %bb.1:
	movq	-8(%rbp), %rdi
	callq	__ZN14altered_carbon2js9JsVariantaSERKS1_
	movq	-8(%rbp), %rdi
	movl	$2, %esi
	callq	__ZN14altered_carbon2js9JsVariant4convEi
## %bb.2:
	movq	-16(%rbp), %rsi
	movq	-8(%rbp), %rdi
	callq	__ZN14altered_carbon2js9JsVariantoRERKS1_
	addq	$32, %rsp
	popq	%rbp
	retq
	.cfi_endproc
                                        ## -- End function
	.globl	__ZN14altered_carbon2js9JsVariantoRERKS1_ ## -- Begin function _ZN14altered_carbon2js9JsVariantoRERKS1_
	.p2align	4, 0x90
__ZN14altered_carbon2js9JsVariantoRERKS1_: ## @_ZN14altered_carbon2js9JsVariantoRERKS1_
	.cfi_startproc
## %bb.0:
	pushq	%rbp
	.cfi_def_cfa_offset 16
	.cfi_offset %rbp, -16
	movq	%rsp, %rbp
	.cfi_def_cfa_register %rbp
	pushq	%rbx
	subq	$88, %rsp
	.cfi_offset %rbx, -24
	movq	___stack_chk_guard@GOTPCREL(%rip), %rax
	movq	(%rax), %rax
	movq	%rax, -16(%rbp)
	movq	%rdi, -88(%rbp)
	movq	%rsi, -80(%rbp)
	movq	-88(%rbp), %rbx
	movq	%rbx, %rdi
	movl	$2, %esi
	callq	__ZN14altered_carbon2js9JsVariant4convEi
	movq	-80(%rbp), %rsi
	leaq	-72(%rbp), %rdi
	movl	$2, %edx
	callq	__ZN14altered_carbon2js9JsVariantC1ERKS1_NS1_13JsVariantTypeE
	movq	-56(%rbp), %rax
	orq	16(%rbx), %rax
	movq	%rax, 16(%rbx)
	cvtsi2sdq	%rax, %xmm0
	movsd	%xmm0, 24(%rbx)
	movb	$1, 32(%rbx)
	leaq	-72(%rbp), %rdi
	callq	__ZN14altered_carbon2js9JsVariantD1Ev
	movq	-16(%rbp), %rax
	movq	___stack_chk_guard@GOTPCREL(%rip), %rcx
	movq	(%rcx), %rcx
	subq	%rax, %rcx
	jne	LBB98_1
	jmp	LBB98_2
LBB98_1:
	callq	___stack_chk_fail
LBB98_2:
	movq	%rbx, %rax
	addq	$88, %rsp
	popq	%rbx
	popq	%rbp
	retq
	.cfi_endproc
                                        ## -- End function
	.globl	__ZNK14altered_carbon2js9JsVariant3bwaEPS1_RKS1_ ## -- Begin function _ZNK14altered_carbon2js9JsVariant3bwaEPS1_RKS1_
	.p2align	4, 0x90
__ZNK14altered_carbon2js9JsVariant3bwaEPS1_RKS1_: ## @_ZNK14altered_carbon2js9JsVariant3bwaEPS1_RKS1_
	.cfi_startproc
## %bb.0:
	pushq	%rbp
	.cfi_def_cfa_offset 16
	.cfi_offset %rbp, -16
	movq	%rsp, %rbp
	.cfi_def_cfa_register %rbp
	subq	$32, %rsp
	movq	%rdi, -24(%rbp)
	movq	%rsi, -8(%rbp)
	movq	%rdx, -16(%rbp)
	movq	-24(%rbp), %rsi
## %bb.1:
	movq	-8(%rbp), %rdi
	callq	__ZN14altered_carbon2js9JsVariantaSERKS1_
	movq	-8(%rbp), %rdi
	movl	$2, %esi
	callq	__ZN14altered_carbon2js9JsVariant4convEi
## %bb.2:
	movq	-16(%rbp), %rsi
	movq	-8(%rbp), %rdi
	callq	__ZN14altered_carbon2js9JsVariantaNERKS1_
	addq	$32, %rsp
	popq	%rbp
	retq
	.cfi_endproc
                                        ## -- End function
	.globl	__ZN14altered_carbon2js9JsVariantaNERKS1_ ## -- Begin function _ZN14altered_carbon2js9JsVariantaNERKS1_
	.p2align	4, 0x90
__ZN14altered_carbon2js9JsVariantaNERKS1_: ## @_ZN14altered_carbon2js9JsVariantaNERKS1_
	.cfi_startproc
## %bb.0:
	pushq	%rbp
	.cfi_def_cfa_offset 16
	.cfi_offset %rbp, -16
	movq	%rsp, %rbp
	.cfi_def_cfa_register %rbp
	pushq	%rbx
	subq	$88, %rsp
	.cfi_offset %rbx, -24
	movq	___stack_chk_guard@GOTPCREL(%rip), %rax
	movq	(%rax), %rax
	movq	%rax, -16(%rbp)
	movq	%rdi, -88(%rbp)
	movq	%rsi, -80(%rbp)
	movq	-88(%rbp), %rbx
	movq	%rbx, %rdi
	movl	$2, %esi
	callq	__ZN14altered_carbon2js9JsVariant4convEi
	movq	-80(%rbp), %rsi
	leaq	-72(%rbp), %rdi
	movl	$2, %edx
	callq	__ZN14altered_carbon2js9JsVariantC1ERKS1_NS1_13JsVariantTypeE
	movq	-56(%rbp), %rax
	andq	16(%rbx), %rax
	movq	%rax, 16(%rbx)
	cvtsi2sdq	%rax, %xmm0
	movsd	%xmm0, 24(%rbx)
	movb	$1, 32(%rbx)
	leaq	-72(%rbp), %rdi
	callq	__ZN14altered_carbon2js9JsVariantD1Ev
	movq	-16(%rbp), %rax
	movq	___stack_chk_guard@GOTPCREL(%rip), %rcx
	movq	(%rcx), %rcx
	subq	%rax, %rcx
	jne	LBB100_1
	jmp	LBB100_2
LBB100_1:
	callq	___stack_chk_fail
LBB100_2:
	movq	%rbx, %rax
	addq	$88, %rsp
	popq	%rbx
	popq	%rbp
	retq
	.cfi_endproc
                                        ## -- End function
	.globl	__ZNK14altered_carbon2js9JsVariant3ltsEPS1_RKS1_ ## -- Begin function _ZNK14altered_carbon2js9JsVariant3ltsEPS1_RKS1_
	.p2align	4, 0x90
__ZNK14altered_carbon2js9JsVariant3ltsEPS1_RKS1_: ## @_ZNK14altered_carbon2js9JsVariant3ltsEPS1_RKS1_
	.cfi_startproc
## %bb.0:
	pushq	%rbp
	.cfi_def_cfa_offset 16
	.cfi_offset %rbp, -16
	movq	%rsp, %rbp
	.cfi_def_cfa_register %rbp
	subq	$32, %rsp
	movq	%rdi, -24(%rbp)
	movq	%rsi, -8(%rbp)
	movq	%rdx, -16(%rbp)
	movq	-24(%rbp), %rsi
## %bb.1:
	movq	-8(%rbp), %rdi
	callq	__ZN14altered_carbon2js9JsVariantaSERKS1_
	movq	-8(%rbp), %rdi
	movl	$2, %esi
	callq	__ZN14altered_carbon2js9JsVariant4convEi
## %bb.2:
	movq	-16(%rbp), %rsi
	movq	-8(%rbp), %rdi
	callq	__ZN14altered_carbon2js9JsVariantlSERKS1_
	addq	$32, %rsp
	popq	%rbp
	retq
	.cfi_endproc
                                        ## -- End function
	.globl	__ZN14altered_carbon2js9JsVariantlSERKS1_ ## -- Begin function _ZN14altered_carbon2js9JsVariantlSERKS1_
	.p2align	4, 0x90
__ZN14altered_carbon2js9JsVariantlSERKS1_: ## @_ZN14altered_carbon2js9JsVariantlSERKS1_
	.cfi_startproc
## %bb.0:
	pushq	%rbp
	.cfi_def_cfa_offset 16
	.cfi_offset %rbp, -16
	movq	%rsp, %rbp
	.cfi_def_cfa_register %rbp
	pushq	%rbx
	subq	$88, %rsp
	.cfi_offset %rbx, -24
	movq	___stack_chk_guard@GOTPCREL(%rip), %rax
	movq	(%rax), %rax
	movq	%rax, -16(%rbp)
	movq	%rdi, -88(%rbp)
	movq	%rsi, -80(%rbp)
	movq	-88(%rbp), %rbx
	movq	%rbx, %rdi
	movl	$2, %esi
	callq	__ZN14altered_carbon2js9JsVariant4convEi
	movq	-80(%rbp), %rsi
	leaq	-72(%rbp), %rdi
	movl	$2, %edx
	callq	__ZN14altered_carbon2js9JsVariantC1ERKS1_NS1_13JsVariantTypeE
	movq	-56(%rbp), %rcx
	movq	16(%rbx), %rax
                                        ## kill: def $cl killed $rcx
	shlq	%cl, %rax
	movq	%rax, 16(%rbx)
	cvtsi2sdq	%rax, %xmm0
	movsd	%xmm0, 24(%rbx)
	movb	$1, 32(%rbx)
	leaq	-72(%rbp), %rdi
	callq	__ZN14altered_carbon2js9JsVariantD1Ev
	movq	-16(%rbp), %rax
	movq	___stack_chk_guard@GOTPCREL(%rip), %rcx
	movq	(%rcx), %rcx
	subq	%rax, %rcx
	jne	LBB102_1
	jmp	LBB102_2
LBB102_1:
	callq	___stack_chk_fail
LBB102_2:
	movq	%rbx, %rax
	addq	$88, %rsp
	popq	%rbx
	popq	%rbp
	retq
	.cfi_endproc
                                        ## -- End function
	.globl	__ZNK14altered_carbon2js9JsVariant3rtsEPS1_RKS1_ ## -- Begin function _ZNK14altered_carbon2js9JsVariant3rtsEPS1_RKS1_
	.p2align	4, 0x90
__ZNK14altered_carbon2js9JsVariant3rtsEPS1_RKS1_: ## @_ZNK14altered_carbon2js9JsVariant3rtsEPS1_RKS1_
	.cfi_startproc
## %bb.0:
	pushq	%rbp
	.cfi_def_cfa_offset 16
	.cfi_offset %rbp, -16
	movq	%rsp, %rbp
	.cfi_def_cfa_register %rbp
	subq	$32, %rsp
	movq	%rdi, -24(%rbp)
	movq	%rsi, -8(%rbp)
	movq	%rdx, -16(%rbp)
	movq	-24(%rbp), %rsi
## %bb.1:
	movq	-8(%rbp), %rdi
	callq	__ZN14altered_carbon2js9JsVariantaSERKS1_
	movq	-8(%rbp), %rdi
	movl	$2, %esi
	callq	__ZN14altered_carbon2js9JsVariant4convEi
## %bb.2:
	movq	-16(%rbp), %rsi
	movq	-8(%rbp), %rdi
	callq	__ZN14altered_carbon2js9JsVariantrSERKS1_
	addq	$32, %rsp
	popq	%rbp
	retq
	.cfi_endproc
                                        ## -- End function
	.globl	__ZN14altered_carbon2js9JsVariantrSERKS1_ ## -- Begin function _ZN14altered_carbon2js9JsVariantrSERKS1_
	.p2align	4, 0x90
__ZN14altered_carbon2js9JsVariantrSERKS1_: ## @_ZN14altered_carbon2js9JsVariantrSERKS1_
	.cfi_startproc
## %bb.0:
	pushq	%rbp
	.cfi_def_cfa_offset 16
	.cfi_offset %rbp, -16
	movq	%rsp, %rbp
	.cfi_def_cfa_register %rbp
	pushq	%rbx
	subq	$88, %rsp
	.cfi_offset %rbx, -24
	movq	___stack_chk_guard@GOTPCREL(%rip), %rax
	movq	(%rax), %rax
	movq	%rax, -16(%rbp)
	movq	%rdi, -88(%rbp)
	movq	%rsi, -80(%rbp)
	movq	-88(%rbp), %rbx
	movq	%rbx, %rdi
	movl	$2, %esi
	callq	__ZN14altered_carbon2js9JsVariant4convEi
	movq	-80(%rbp), %rsi
	leaq	-72(%rbp), %rdi
	movl	$2, %edx
	callq	__ZN14altered_carbon2js9JsVariantC1ERKS1_NS1_13JsVariantTypeE
	movq	-56(%rbp), %rcx
	movq	16(%rbx), %rax
                                        ## kill: def $cl killed $rcx
	sarq	%cl, %rax
	movq	%rax, 16(%rbx)
	cvtsi2sdq	%rax, %xmm0
	movsd	%xmm0, 24(%rbx)
	movb	$1, 32(%rbx)
	leaq	-72(%rbp), %rdi
	callq	__ZN14altered_carbon2js9JsVariantD1Ev
	movq	-16(%rbp), %rax
	movq	___stack_chk_guard@GOTPCREL(%rip), %rcx
	movq	(%rcx), %rcx
	subq	%rax, %rcx
	jne	LBB104_1
	jmp	LBB104_2
LBB104_1:
	callq	___stack_chk_fail
LBB104_2:
	movq	%rbx, %rax
	addq	$88, %rsp
	popq	%rbx
	popq	%rbp
	retq
	.cfi_endproc
                                        ## -- End function
	.globl	__ZNK14altered_carbon2js9JsVariant3rszEPS1_RKS1_ ## -- Begin function _ZNK14altered_carbon2js9JsVariant3rszEPS1_RKS1_
	.p2align	4, 0x90
__ZNK14altered_carbon2js9JsVariant3rszEPS1_RKS1_: ## @_ZNK14altered_carbon2js9JsVariant3rszEPS1_RKS1_
	.cfi_startproc
## %bb.0:
	pushq	%rbp
	.cfi_def_cfa_offset 16
	.cfi_offset %rbp, -16
	movq	%rsp, %rbp
	.cfi_def_cfa_register %rbp
	subq	$32, %rsp
	movq	%rdi, -24(%rbp)
	movq	%rsi, -8(%rbp)
	movq	%rdx, -16(%rbp)
	movq	-24(%rbp), %rsi
## %bb.1:
	movq	-8(%rbp), %rdi
	callq	__ZN14altered_carbon2js9JsVariantaSERKS1_
	movq	-8(%rbp), %rdi
	movl	$2, %esi
	callq	__ZN14altered_carbon2js9JsVariant4convEi
## %bb.2:
	movq	-8(%rbp), %rdi
	movq	-16(%rbp), %rsi
	callq	__ZN14altered_carbon2js9JsVariant4arszERKS1_
	addq	$32, %rsp
	popq	%rbp
	retq
	.cfi_endproc
                                        ## -- End function
	.globl	__ZN14altered_carbon2js9JsVariant4arszERKS1_ ## -- Begin function _ZN14altered_carbon2js9JsVariant4arszERKS1_
	.p2align	4, 0x90
__ZN14altered_carbon2js9JsVariant4arszERKS1_: ## @_ZN14altered_carbon2js9JsVariant4arszERKS1_
	.cfi_startproc
## %bb.0:
	pushq	%rbp
	.cfi_def_cfa_offset 16
	.cfi_offset %rbp, -16
	movq	%rsp, %rbp
	.cfi_def_cfa_register %rbp
	pushq	%rbx
	subq	$88, %rsp
	.cfi_offset %rbx, -24
	movq	___stack_chk_guard@GOTPCREL(%rip), %rax
	movq	(%rax), %rax
	movq	%rax, -16(%rbp)
	movq	%rdi, -88(%rbp)
	movq	%rsi, -80(%rbp)
	movq	-88(%rbp), %rbx
	movq	%rbx, %rdi
	movl	$2, %esi
	callq	__ZN14altered_carbon2js9JsVariant4convEi
	movq	-80(%rbp), %rsi
	leaq	-72(%rbp), %rdi
	movl	$2, %edx
	callq	__ZN14altered_carbon2js9JsVariantC1ERKS1_NS1_13JsVariantTypeE
	movq	16(%rbx), %rax
	movq	%rax, 16(%rbx)
	movq	-56(%rbp), %rcx
	movq	16(%rbx), %rax
                                        ## kill: def $cl killed $rcx
	sarq	%cl, %rax
	movq	%rax, 16(%rbx)
	cvtsi2sdq	%rax, %xmm0
	movsd	%xmm0, 24(%rbx)
	leaq	-72(%rbp), %rdi
	callq	__ZN14altered_carbon2js9JsVariantD1Ev
	movq	-16(%rbp), %rax
	movq	___stack_chk_guard@GOTPCREL(%rip), %rcx
	movq	(%rcx), %rcx
	subq	%rax, %rcx
	jne	LBB106_1
	jmp	LBB106_2
LBB106_1:
	callq	___stack_chk_fail
LBB106_2:
	movq	%rbx, %rax
	addq	$88, %rsp
	popq	%rbx
	popq	%rbp
	retq
	.cfi_endproc
                                        ## -- End function
	.globl	__ZNK14altered_carbon2js9JsVarianteqERKS1_ ## -- Begin function _ZNK14altered_carbon2js9JsVarianteqERKS1_
	.p2align	4, 0x90
__ZNK14altered_carbon2js9JsVarianteqERKS1_: ## @_ZNK14altered_carbon2js9JsVarianteqERKS1_
	.cfi_startproc
## %bb.0:
	pushq	%rbp
	.cfi_def_cfa_offset 16
	.cfi_offset %rbp, -16
	movq	%rsp, %rbp
	.cfi_def_cfa_register %rbp
	pushq	%rbx
	subq	$552, %rsp              ## imm = 0x228
	.cfi_offset %rbx, -24
	movq	___stack_chk_guard@GOTPCREL(%rip), %rax
	movq	(%rax), %rax
	movq	%rax, -16(%rbp)
	movq	%rdi, -176(%rbp)
	movq	%rsi, -144(%rbp)
	movq	-176(%rbp), %rbx
	cmpl	$7, 8(%rbx)
	jne	LBB107_2
## %bb.1:
	movq	16(%rbx), %rax
	cmpl	$2, 8(%rax)
	je	LBB107_3
	jmp	LBB107_11
LBB107_2:
	cmpl	$2, 8(%rbx)
	jne	LBB107_11
LBB107_3:
	movq	-144(%rbp), %rax
	cmpl	$7, 8(%rax)
	jne	LBB107_5
## %bb.4:
	movq	-144(%rbp), %rax
	movq	16(%rax), %rax
	cmpl	$2, 8(%rax)
	je	LBB107_6
	jmp	LBB107_11
LBB107_5:
	movq	-144(%rbp), %rax
	cmpl	$2, 8(%rax)
	jne	LBB107_11
LBB107_6:
	movq	16(%rbx), %rax
	movq	-144(%rbp), %rcx
	cmpq	16(%rcx), %rax
	jne	LBB107_9
## %bb.7:
	testb	$1, 32(%rbx)
	je	LBB107_9
## %bb.8:
	movq	-144(%rbp), %rax
	testb	$1, 32(%rax)
	movb	$1, %al
	jne	LBB107_10
LBB107_9:
	movsd	24(%rbx), %xmm0         ## xmm0 = mem[0],zero
	movq	-144(%rbp), %rax
	ucomisd	24(%rax), %xmm0
	sete	%al
	setnp	%cl
	andb	%cl, %al
LBB107_10:
	andb	$1, %al
	movb	%al, -129(%rbp)
	jmp	LBB107_45
LBB107_11:
	cmpl	$7, 8(%rbx)
	jne	LBB107_13
## %bb.12:
	movq	16(%rbx), %rax
	cmpl	$10, 8(%rax)
	je	LBB107_21
	jmp	LBB107_14
LBB107_13:
	cmpl	$10, 8(%rbx)
	je	LBB107_21
LBB107_14:
	movq	-144(%rbp), %rax
	cmpl	$7, 8(%rax)
	jne	LBB107_16
## %bb.15:
	movq	-144(%rbp), %rax
	movq	16(%rax), %rax
	cmpl	$10, 8(%rax)
	je	LBB107_21
	jmp	LBB107_17
LBB107_16:
	movq	-144(%rbp), %rax
	cmpl	$10, 8(%rax)
	je	LBB107_21
LBB107_17:
	leaq	-72(%rbp), %rdi
	movq	%rbx, %rsi
	movl	$2, %edx
	callq	__ZN14altered_carbon2js9JsVariantC1ERKS1_NS1_13JsVariantTypeE
	movq	-144(%rbp), %rsi
	leaq	-128(%rbp), %rdi
	movl	$2, %edx
	callq	__ZN14altered_carbon2js9JsVariantC1ERKS1_NS1_13JsVariantTypeE
	movq	-56(%rbp), %rax
	cmpq	-112(%rbp), %rax
	sete	%al
	andb	$1, %al
	movzbl	%al, %eax
	movb	32(%rbx), %cl
	andb	$1, %cl
	movzbl	%cl, %ecx
	andl	%ecx, %eax
	cmpl	$0, %eax
	je	LBB107_19
## %bb.18:
	movq	-144(%rbp), %rax
	testb	$1, 32(%rax)
	movb	$1, %al
	jne	LBB107_20
LBB107_19:
	movsd	-48(%rbp), %xmm0        ## xmm0 = mem[0],zero
	ucomisd	-104(%rbp), %xmm0
	sete	%al
	setnp	%cl
	andb	%cl, %al
LBB107_20:
	andb	$1, %al
	movb	%al, -129(%rbp)
	leaq	-128(%rbp), %rdi
	callq	__ZN14altered_carbon2js9JsVariantD1Ev
	leaq	-72(%rbp), %rdi
	callq	__ZN14altered_carbon2js9JsVariantD1Ev
	jmp	LBB107_45
LBB107_21:
	cmpl	$7, 8(%rbx)
	jne	LBB107_23
## %bb.22:
	movq	16(%rbx), %rax
	cmpl	$10, 8(%rax)
	je	LBB107_24
	jmp	LBB107_42
LBB107_23:
	cmpl	$10, 8(%rbx)
	jne	LBB107_42
LBB107_24:
	movq	-144(%rbp), %rax
	cmpl	$7, 8(%rax)
	jne	LBB107_26
## %bb.25:
	movq	-144(%rbp), %rax
	movq	16(%rax), %rax
	cmpl	$10, 8(%rax)
	je	LBB107_27
	jmp	LBB107_42
LBB107_26:
	movq	-144(%rbp), %rax
	cmpl	$10, 8(%rax)
	jne	LBB107_42
LBB107_27:
	movq	16(%rbx), %rax
	movq	-144(%rbp), %rcx
	movq	16(%rcx), %rcx
	movq	%rax, -168(%rbp)
	movq	%rcx, -160(%rbp)
	movq	-168(%rbp), %rax
	movq	%rax, -184(%rbp)
	movq	-184(%rbp), %rax
	movq	%rax, -192(%rbp)
	movq	-192(%rbp), %rcx
	movq	%rcx, -200(%rbp)
	movq	-200(%rbp), %rcx
	movq	%rcx, -208(%rbp)
	movq	-208(%rbp), %rcx
	movzbl	(%rcx), %ecx
	andq	$1, %rcx
	cmpq	$0, %rcx
	je	LBB107_29
## %bb.28:
	movq	%rax, -240(%rbp)
	movq	-240(%rbp), %rax
	movq	%rax, -248(%rbp)
	movq	-248(%rbp), %rax
	movq	%rax, -256(%rbp)
	movq	-256(%rbp), %rax
	movq	8(%rax), %rax
	jmp	LBB107_30
LBB107_29:
	movq	%rax, -216(%rbp)
	movq	-216(%rbp), %rax
	movq	%rax, -224(%rbp)
	movq	-224(%rbp), %rax
	movq	%rax, -232(%rbp)
	movq	-232(%rbp), %rax
	movzbl	(%rax), %eax
	sarl	$1, %eax
	cltq
LBB107_30:
	movq	%rax, -152(%rbp)
	movq	-152(%rbp), %rax
	movq	-160(%rbp), %rcx
	movq	%rcx, -264(%rbp)
	movq	-264(%rbp), %rcx
	movq	%rcx, -272(%rbp)
	movq	-272(%rbp), %rdx
	movq	%rdx, -280(%rbp)
	movq	-280(%rbp), %rdx
	movq	%rdx, -288(%rbp)
	movq	-288(%rbp), %rdx
	movzbl	(%rdx), %edx
	andq	$1, %rdx
	cmpq	$0, %rdx
	je	LBB107_32
## %bb.31:
	movq	%rcx, -320(%rbp)
	movq	-320(%rbp), %rcx
	movq	%rcx, -328(%rbp)
	movq	-328(%rbp), %rcx
	movq	%rcx, -336(%rbp)
	movq	-336(%rbp), %rcx
	movq	8(%rcx), %rdx
	jmp	LBB107_33
LBB107_32:
	movq	%rcx, -296(%rbp)
	movq	-296(%rbp), %rcx
	movq	%rcx, -304(%rbp)
	movq	-304(%rbp), %rcx
	movq	%rcx, -312(%rbp)
	movq	-312(%rbp), %rcx
	movzbl	(%rcx), %ecx
	sarl	$1, %ecx
	movslq	%ecx, %rdx
LBB107_33:
	xorl	%ecx, %ecx
	cmpq	%rdx, %rax
	jne	LBB107_41
## %bb.34:
	movq	-168(%rbp), %rax
	movq	%rax, -456(%rbp)
	movq	-456(%rbp), %rax
	movq	%rax, -464(%rbp)
	movq	-464(%rbp), %rax
	movq	%rax, -472(%rbp)
	movq	-472(%rbp), %rcx
	movq	%rcx, -480(%rbp)
	movq	-480(%rbp), %rcx
	movq	%rcx, -488(%rbp)
	movq	-488(%rbp), %rcx
	movzbl	(%rcx), %ecx
	andq	$1, %rcx
	cmpq	$0, %rcx
	je	LBB107_36
## %bb.35:
	movq	%rax, -536(%rbp)
	movq	-536(%rbp), %rax
	movq	%rax, -544(%rbp)
	movq	-544(%rbp), %rax
	movq	%rax, -552(%rbp)
	movq	-552(%rbp), %rax
	movq	16(%rax), %rax
	jmp	LBB107_37
LBB107_36:
	movq	%rax, -496(%rbp)
	movq	-496(%rbp), %rax
	movq	%rax, -504(%rbp)
	movq	-504(%rbp), %rax
	movq	%rax, -512(%rbp)
	movq	-512(%rbp), %rax
	addq	$4, %rax
	movq	%rax, -520(%rbp)
	movq	-520(%rbp), %rax
	movq	%rax, -528(%rbp)
	movq	-528(%rbp), %rax
LBB107_37:
	movq	%rax, -560(%rbp)
	movq	-560(%rbp), %rdi
	movq	-160(%rbp), %rax
	movq	%rax, -344(%rbp)
	movq	-344(%rbp), %rax
	movq	%rax, -352(%rbp)
	movq	-352(%rbp), %rax
	movq	%rax, -360(%rbp)
	movq	-360(%rbp), %rcx
	movq	%rcx, -368(%rbp)
	movq	-368(%rbp), %rcx
	movq	%rcx, -376(%rbp)
	movq	-376(%rbp), %rcx
	movzbl	(%rcx), %ecx
	andq	$1, %rcx
	cmpq	$0, %rcx
	je	LBB107_39
## %bb.38:
	movq	%rax, -424(%rbp)
	movq	-424(%rbp), %rax
	movq	%rax, -432(%rbp)
	movq	-432(%rbp), %rax
	movq	%rax, -440(%rbp)
	movq	-440(%rbp), %rax
	movq	16(%rax), %rax
	jmp	LBB107_40
LBB107_39:
	movq	%rax, -384(%rbp)
	movq	-384(%rbp), %rax
	movq	%rax, -392(%rbp)
	movq	-392(%rbp), %rax
	movq	%rax, -400(%rbp)
	movq	-400(%rbp), %rax
	addq	$4, %rax
	movq	%rax, -408(%rbp)
	movq	-408(%rbp), %rax
	movq	%rax, -416(%rbp)
	movq	-416(%rbp), %rax
LBB107_40:
	movq	%rax, -448(%rbp)
	movq	-448(%rbp), %rsi
	movq	-152(%rbp), %rdx
	callq	__ZNSt3__111char_traitsIwE7compareEPKwS3_m
	cmpl	$0, %eax
	sete	%cl
LBB107_41:
	andb	$1, %cl
	movb	%cl, -129(%rbp)
	jmp	LBB107_45
LBB107_42:
	jmp	LBB107_43
LBB107_43:
	jmp	LBB107_44
LBB107_44:
	leaq	L___func__._ZNK14altered_carbon2js9JsVarianteqERKS1_(%rip), %rdi
	leaq	L_.str.1(%rip), %rsi
	leaq	L_.str.3(%rip), %rcx
	movl	$580, %edx              ## imm = 0x244
	callq	___assert_rtn
LBB107_45:
	movb	-129(%rbp), %al
	andb	$1, %al
	movzbl	%al, %eax
	movq	-16(%rbp), %rcx
	movq	___stack_chk_guard@GOTPCREL(%rip), %rdx
	movq	(%rdx), %rdx
	subq	%rcx, %rdx
	jne	LBB107_46
	jmp	LBB107_47
LBB107_46:
	callq	___stack_chk_fail
LBB107_47:
	addq	$552, %rsp              ## imm = 0x228
	popq	%rbx
	popq	%rbp
	retq
	.cfi_endproc
                                        ## -- End function
	.globl	__ZNK14altered_carbon2js9JsVariantneERKS1_ ## -- Begin function _ZNK14altered_carbon2js9JsVariantneERKS1_
	.p2align	4, 0x90
__ZNK14altered_carbon2js9JsVariantneERKS1_: ## @_ZNK14altered_carbon2js9JsVariantneERKS1_
	.cfi_startproc
## %bb.0:
	pushq	%rbp
	.cfi_def_cfa_offset 16
	.cfi_offset %rbp, -16
	movq	%rsp, %rbp
	.cfi_def_cfa_register %rbp
	pushq	%rbx
	subq	$568, %rsp              ## imm = 0x238
	.cfi_offset %rbx, -24
	movq	___stack_chk_guard@GOTPCREL(%rip), %rax
	movq	(%rax), %rax
	movq	%rax, -16(%rbp)
	movq	%rdi, -176(%rbp)
	movq	%rsi, -144(%rbp)
	movq	-176(%rbp), %rbx
	cmpl	$7, 8(%rbx)
	jne	LBB108_2
## %bb.1:
	movq	16(%rbx), %rax
	cmpl	$2, 8(%rax)
	je	LBB108_3
	jmp	LBB108_11
LBB108_2:
	cmpl	$2, 8(%rbx)
	jne	LBB108_11
LBB108_3:
	movq	-144(%rbp), %rax
	cmpl	$7, 8(%rax)
	jne	LBB108_5
## %bb.4:
	movq	-144(%rbp), %rax
	movq	16(%rax), %rax
	cmpl	$2, 8(%rax)
	je	LBB108_6
	jmp	LBB108_11
LBB108_5:
	movq	-144(%rbp), %rax
	cmpl	$2, 8(%rax)
	jne	LBB108_11
LBB108_6:
	movq	16(%rbx), %rax
	movq	-144(%rbp), %rcx
	cmpq	16(%rcx), %rax
	je	LBB108_9
## %bb.7:
	testb	$1, 32(%rbx)
	je	LBB108_9
## %bb.8:
	movq	-144(%rbp), %rax
	testb	$1, 32(%rax)
	movb	$1, %al
	jne	LBB108_10
LBB108_9:
	movsd	24(%rbx), %xmm0         ## xmm0 = mem[0],zero
	movq	-144(%rbp), %rax
	ucomisd	24(%rax), %xmm0
	setne	%al
	setp	%cl
	orb	%cl, %al
LBB108_10:
	andb	$1, %al
	movb	%al, -129(%rbp)
	jmp	LBB108_45
LBB108_11:
	cmpl	$7, 8(%rbx)
	jne	LBB108_13
## %bb.12:
	movq	16(%rbx), %rax
	cmpl	$10, 8(%rax)
	je	LBB108_21
	jmp	LBB108_14
LBB108_13:
	cmpl	$10, 8(%rbx)
	je	LBB108_21
LBB108_14:
	movq	-144(%rbp), %rax
	cmpl	$7, 8(%rax)
	jne	LBB108_16
## %bb.15:
	movq	-144(%rbp), %rax
	movq	16(%rax), %rax
	cmpl	$10, 8(%rax)
	je	LBB108_21
	jmp	LBB108_17
LBB108_16:
	movq	-144(%rbp), %rax
	cmpl	$10, 8(%rax)
	je	LBB108_21
LBB108_17:
	leaq	-72(%rbp), %rdi
	movq	%rbx, %rsi
	movl	$2, %edx
	callq	__ZN14altered_carbon2js9JsVariantC1ERKS1_NS1_13JsVariantTypeE
	movq	-144(%rbp), %rsi
	leaq	-128(%rbp), %rdi
	movl	$2, %edx
	callq	__ZN14altered_carbon2js9JsVariantC1ERKS1_NS1_13JsVariantTypeE
	movq	-56(%rbp), %rax
	cmpq	-112(%rbp), %rax
	setne	%al
	andb	$1, %al
	movzbl	%al, %eax
	movb	32(%rbx), %cl
	andb	$1, %cl
	movzbl	%cl, %ecx
	andl	%ecx, %eax
	cmpl	$0, %eax
	je	LBB108_19
## %bb.18:
	movq	-144(%rbp), %rax
	testb	$1, 32(%rax)
	movb	$1, %al
	jne	LBB108_20
LBB108_19:
	movsd	-48(%rbp), %xmm0        ## xmm0 = mem[0],zero
	ucomisd	-104(%rbp), %xmm0
	setne	%al
	setp	%cl
	orb	%cl, %al
LBB108_20:
	andb	$1, %al
	movb	%al, -129(%rbp)
	leaq	-128(%rbp), %rdi
	callq	__ZN14altered_carbon2js9JsVariantD1Ev
	leaq	-72(%rbp), %rdi
	callq	__ZN14altered_carbon2js9JsVariantD1Ev
	jmp	LBB108_45
LBB108_21:
	cmpl	$7, 8(%rbx)
	jne	LBB108_23
## %bb.22:
	movq	16(%rbx), %rax
	cmpl	$10, 8(%rax)
	je	LBB108_24
	jmp	LBB108_42
LBB108_23:
	cmpl	$10, 8(%rbx)
	jne	LBB108_42
LBB108_24:
	movq	-144(%rbp), %rax
	cmpl	$7, 8(%rax)
	jne	LBB108_26
## %bb.25:
	movq	-144(%rbp), %rax
	movq	16(%rax), %rax
	cmpl	$10, 8(%rax)
	je	LBB108_27
	jmp	LBB108_42
LBB108_26:
	movq	-144(%rbp), %rax
	cmpl	$10, 8(%rax)
	jne	LBB108_42
LBB108_27:
	movq	16(%rbx), %rax
	movq	-144(%rbp), %rcx
	movq	16(%rcx), %rcx
	movq	%rax, -192(%rbp)
	movq	%rcx, -184(%rbp)
	movq	-192(%rbp), %rax
	movq	-184(%rbp), %rcx
	movq	%rax, -168(%rbp)
	movq	%rcx, -160(%rbp)
	movq	-168(%rbp), %rax
	movq	%rax, -200(%rbp)
	movq	-200(%rbp), %rax
	movq	%rax, -208(%rbp)
	movq	-208(%rbp), %rcx
	movq	%rcx, -216(%rbp)
	movq	-216(%rbp), %rcx
	movq	%rcx, -224(%rbp)
	movq	-224(%rbp), %rcx
	movzbl	(%rcx), %ecx
	andq	$1, %rcx
	cmpq	$0, %rcx
	je	LBB108_29
## %bb.28:
	movq	%rax, -256(%rbp)
	movq	-256(%rbp), %rax
	movq	%rax, -264(%rbp)
	movq	-264(%rbp), %rax
	movq	%rax, -272(%rbp)
	movq	-272(%rbp), %rax
	movq	8(%rax), %rax
	jmp	LBB108_30
LBB108_29:
	movq	%rax, -232(%rbp)
	movq	-232(%rbp), %rax
	movq	%rax, -240(%rbp)
	movq	-240(%rbp), %rax
	movq	%rax, -248(%rbp)
	movq	-248(%rbp), %rax
	movzbl	(%rax), %eax
	sarl	$1, %eax
	cltq
LBB108_30:
	movq	%rax, -152(%rbp)
	movq	-152(%rbp), %rax
	movq	-160(%rbp), %rcx
	movq	%rcx, -280(%rbp)
	movq	-280(%rbp), %rcx
	movq	%rcx, -288(%rbp)
	movq	-288(%rbp), %rdx
	movq	%rdx, -296(%rbp)
	movq	-296(%rbp), %rdx
	movq	%rdx, -304(%rbp)
	movq	-304(%rbp), %rdx
	movzbl	(%rdx), %edx
	andq	$1, %rdx
	cmpq	$0, %rdx
	je	LBB108_32
## %bb.31:
	movq	%rcx, -336(%rbp)
	movq	-336(%rbp), %rcx
	movq	%rcx, -344(%rbp)
	movq	-344(%rbp), %rcx
	movq	%rcx, -352(%rbp)
	movq	-352(%rbp), %rcx
	movq	8(%rcx), %rdx
	jmp	LBB108_33
LBB108_32:
	movq	%rcx, -312(%rbp)
	movq	-312(%rbp), %rcx
	movq	%rcx, -320(%rbp)
	movq	-320(%rbp), %rcx
	movq	%rcx, -328(%rbp)
	movq	-328(%rbp), %rcx
	movzbl	(%rcx), %ecx
	sarl	$1, %ecx
	movslq	%ecx, %rdx
LBB108_33:
	xorl	%ecx, %ecx
	cmpq	%rdx, %rax
	jne	LBB108_41
## %bb.34:
	movq	-168(%rbp), %rax
	movq	%rax, -472(%rbp)
	movq	-472(%rbp), %rax
	movq	%rax, -480(%rbp)
	movq	-480(%rbp), %rax
	movq	%rax, -488(%rbp)
	movq	-488(%rbp), %rcx
	movq	%rcx, -496(%rbp)
	movq	-496(%rbp), %rcx
	movq	%rcx, -504(%rbp)
	movq	-504(%rbp), %rcx
	movzbl	(%rcx), %ecx
	andq	$1, %rcx
	cmpq	$0, %rcx
	je	LBB108_36
## %bb.35:
	movq	%rax, -552(%rbp)
	movq	-552(%rbp), %rax
	movq	%rax, -560(%rbp)
	movq	-560(%rbp), %rax
	movq	%rax, -568(%rbp)
	movq	-568(%rbp), %rax
	movq	16(%rax), %rax
	jmp	LBB108_37
LBB108_36:
	movq	%rax, -512(%rbp)
	movq	-512(%rbp), %rax
	movq	%rax, -520(%rbp)
	movq	-520(%rbp), %rax
	movq	%rax, -528(%rbp)
	movq	-528(%rbp), %rax
	addq	$4, %rax
	movq	%rax, -536(%rbp)
	movq	-536(%rbp), %rax
	movq	%rax, -544(%rbp)
	movq	-544(%rbp), %rax
LBB108_37:
	movq	%rax, -576(%rbp)
	movq	-576(%rbp), %rdi
	movq	-160(%rbp), %rax
	movq	%rax, -360(%rbp)
	movq	-360(%rbp), %rax
	movq	%rax, -368(%rbp)
	movq	-368(%rbp), %rax
	movq	%rax, -376(%rbp)
	movq	-376(%rbp), %rcx
	movq	%rcx, -384(%rbp)
	movq	-384(%rbp), %rcx
	movq	%rcx, -392(%rbp)
	movq	-392(%rbp), %rcx
	movzbl	(%rcx), %ecx
	andq	$1, %rcx
	cmpq	$0, %rcx
	je	LBB108_39
## %bb.38:
	movq	%rax, -440(%rbp)
	movq	-440(%rbp), %rax
	movq	%rax, -448(%rbp)
	movq	-448(%rbp), %rax
	movq	%rax, -456(%rbp)
	movq	-456(%rbp), %rax
	movq	16(%rax), %rax
	jmp	LBB108_40
LBB108_39:
	movq	%rax, -400(%rbp)
	movq	-400(%rbp), %rax
	movq	%rax, -408(%rbp)
	movq	-408(%rbp), %rax
	movq	%rax, -416(%rbp)
	movq	-416(%rbp), %rax
	addq	$4, %rax
	movq	%rax, -424(%rbp)
	movq	-424(%rbp), %rax
	movq	%rax, -432(%rbp)
	movq	-432(%rbp), %rax
LBB108_40:
	movq	%rax, -464(%rbp)
	movq	-464(%rbp), %rsi
	movq	-152(%rbp), %rdx
	callq	__ZNSt3__111char_traitsIwE7compareEPKwS3_m
	cmpl	$0, %eax
	sete	%cl
LBB108_41:
	xorb	$-1, %cl
	andb	$1, %cl
	movb	%cl, -129(%rbp)
	jmp	LBB108_45
LBB108_42:
	jmp	LBB108_43
LBB108_43:
	jmp	LBB108_44
LBB108_44:
	leaq	L___func__._ZNK14altered_carbon2js9JsVariantneERKS1_(%rip), %rdi
	leaq	L_.str.1(%rip), %rsi
	leaq	L_.str.3(%rip), %rcx
	movl	$581, %edx              ## imm = 0x245
	callq	___assert_rtn
LBB108_45:
	movb	-129(%rbp), %al
	andb	$1, %al
	movzbl	%al, %eax
	movq	-16(%rbp), %rcx
	movq	___stack_chk_guard@GOTPCREL(%rip), %rdx
	movq	(%rdx), %rdx
	subq	%rcx, %rdx
	jne	LBB108_46
	jmp	LBB108_47
LBB108_46:
	callq	___stack_chk_fail
LBB108_47:
	addq	$568, %rsp              ## imm = 0x238
	popq	%rbx
	popq	%rbp
	retq
	.cfi_endproc
                                        ## -- End function
	.globl	__ZNK14altered_carbon2js9JsVariantgtERKS1_ ## -- Begin function _ZNK14altered_carbon2js9JsVariantgtERKS1_
	.p2align	4, 0x90
__ZNK14altered_carbon2js9JsVariantgtERKS1_: ## @_ZNK14altered_carbon2js9JsVariantgtERKS1_
	.cfi_startproc
## %bb.0:
	pushq	%rbp
	.cfi_def_cfa_offset 16
	.cfi_offset %rbp, -16
	movq	%rsp, %rbp
	.cfi_def_cfa_register %rbp
	pushq	%rbx
	subq	$808, %rsp              ## imm = 0x328
	.cfi_offset %rbx, -24
	movq	___stack_chk_guard@GOTPCREL(%rip), %rax
	movq	(%rax), %rax
	movq	%rax, -16(%rbp)
	movq	%rdi, -200(%rbp)
	movq	%rsi, -144(%rbp)
	movq	-200(%rbp), %rbx
	cmpl	$7, 8(%rbx)
	jne	LBB109_2
## %bb.1:
	movq	16(%rbx), %rax
	cmpl	$2, 8(%rax)
	je	LBB109_3
	jmp	LBB109_11
LBB109_2:
	cmpl	$2, 8(%rbx)
	jne	LBB109_11
LBB109_3:
	movq	-144(%rbp), %rax
	cmpl	$7, 8(%rax)
	jne	LBB109_5
## %bb.4:
	movq	-144(%rbp), %rax
	movq	16(%rax), %rax
	cmpl	$2, 8(%rax)
	je	LBB109_6
	jmp	LBB109_11
LBB109_5:
	movq	-144(%rbp), %rax
	cmpl	$2, 8(%rax)
	jne	LBB109_11
LBB109_6:
	movq	16(%rbx), %rax
	movq	-144(%rbp), %rcx
	cmpq	16(%rcx), %rax
	jle	LBB109_9
## %bb.7:
	testb	$1, 32(%rbx)
	je	LBB109_9
## %bb.8:
	movq	-144(%rbp), %rax
	testb	$1, 32(%rax)
	movb	$1, %al
	jne	LBB109_10
LBB109_9:
	movsd	24(%rbx), %xmm0         ## xmm0 = mem[0],zero
	movq	-144(%rbp), %rax
	ucomisd	24(%rax), %xmm0
	seta	%al
LBB109_10:
	andb	$1, %al
	movb	%al, -129(%rbp)
	jmp	LBB109_53
LBB109_11:
	cmpl	$7, 8(%rbx)
	jne	LBB109_13
## %bb.12:
	movq	16(%rbx), %rax
	cmpl	$10, 8(%rax)
	je	LBB109_21
	jmp	LBB109_14
LBB109_13:
	cmpl	$10, 8(%rbx)
	je	LBB109_21
LBB109_14:
	movq	-144(%rbp), %rax
	cmpl	$7, 8(%rax)
	jne	LBB109_16
## %bb.15:
	movq	-144(%rbp), %rax
	movq	16(%rax), %rax
	cmpl	$10, 8(%rax)
	je	LBB109_21
	jmp	LBB109_17
LBB109_16:
	movq	-144(%rbp), %rax
	cmpl	$10, 8(%rax)
	je	LBB109_21
LBB109_17:
	leaq	-72(%rbp), %rdi
	movq	%rbx, %rsi
	movl	$2, %edx
	callq	__ZN14altered_carbon2js9JsVariantC1ERKS1_NS1_13JsVariantTypeE
	movq	-144(%rbp), %rsi
	leaq	-128(%rbp), %rdi
	movl	$2, %edx
	callq	__ZN14altered_carbon2js9JsVariantC1ERKS1_NS1_13JsVariantTypeE
	movq	-56(%rbp), %rax
	cmpq	-112(%rbp), %rax
	setg	%al
	andb	$1, %al
	movzbl	%al, %eax
	movb	32(%rbx), %cl
	andb	$1, %cl
	movzbl	%cl, %ecx
	andl	%ecx, %eax
	cmpl	$0, %eax
	je	LBB109_19
## %bb.18:
	movq	-144(%rbp), %rax
	testb	$1, 32(%rax)
	movb	$1, %al
	jne	LBB109_20
LBB109_19:
	movsd	-48(%rbp), %xmm0        ## xmm0 = mem[0],zero
	ucomisd	-104(%rbp), %xmm0
	seta	%al
LBB109_20:
	andb	$1, %al
	movb	%al, -129(%rbp)
	leaq	-128(%rbp), %rdi
	callq	__ZN14altered_carbon2js9JsVariantD1Ev
	leaq	-72(%rbp), %rdi
	callq	__ZN14altered_carbon2js9JsVariantD1Ev
	jmp	LBB109_53
LBB109_21:
	cmpl	$7, 8(%rbx)
	jne	LBB109_23
## %bb.22:
	movq	16(%rbx), %rax
	cmpl	$10, 8(%rax)
	je	LBB109_24
	jmp	LBB109_50
LBB109_23:
	cmpl	$10, 8(%rbx)
	jne	LBB109_50
LBB109_24:
	movq	-144(%rbp), %rax
	cmpl	$7, 8(%rax)
	jne	LBB109_26
## %bb.25:
	movq	-144(%rbp), %rax
	movq	16(%rax), %rax
	cmpl	$10, 8(%rax)
	je	LBB109_27
	jmp	LBB109_50
LBB109_26:
	movq	-144(%rbp), %rax
	cmpl	$10, 8(%rax)
	jne	LBB109_50
LBB109_27:
	movq	16(%rbx), %rax
	movq	-144(%rbp), %rcx
	movq	16(%rcx), %rcx
	movq	%rax, -216(%rbp)
	movq	%rcx, -208(%rbp)
	movq	-208(%rbp), %rax
	movq	-216(%rbp), %rcx
	movq	%rax, -232(%rbp)
	movq	%rcx, -224(%rbp)
	movq	-232(%rbp), %rax
	movq	-224(%rbp), %rcx
	movq	%rax, -264(%rbp)
	movq	%rcx, -256(%rbp)
	movq	-264(%rbp), %rax
	movq	-256(%rbp), %rcx
	movq	%rcx, -272(%rbp)
	movq	-272(%rbp), %rcx
	movq	%rcx, -280(%rbp)
	movq	-280(%rbp), %rdx
	movq	%rdx, -288(%rbp)
	movq	-288(%rbp), %rdx
	movq	%rdx, -296(%rbp)
	movq	-296(%rbp), %rsi
	movq	%rsi, -304(%rbp)
	movq	-304(%rbp), %rsi
	movq	%rsi, -312(%rbp)
	movq	-312(%rbp), %rsi
	movzbl	(%rsi), %esi
	andq	$1, %rsi
	cmpq	$0, %rsi
	je	LBB109_29
## %bb.28:
	movq	%rdx, -360(%rbp)
	movq	-360(%rbp), %rdx
	movq	%rdx, -368(%rbp)
	movq	-368(%rbp), %rdx
	movq	%rdx, -376(%rbp)
	movq	-376(%rbp), %rdx
	movq	16(%rdx), %rdx
	jmp	LBB109_30
LBB109_29:
	movq	%rdx, -320(%rbp)
	movq	-320(%rbp), %rdx
	movq	%rdx, -328(%rbp)
	movq	-328(%rbp), %rdx
	movq	%rdx, -336(%rbp)
	movq	-336(%rbp), %rdx
	addq	$4, %rdx
	movq	%rdx, -344(%rbp)
	movq	-344(%rbp), %rdx
	movq	%rdx, -352(%rbp)
	movq	-352(%rbp), %rdx
LBB109_30:
	movq	%rdx, -384(%rbp)
	movq	-384(%rbp), %rdx
	movq	%rcx, -440(%rbp)
	movq	-440(%rbp), %rcx
	movq	%rcx, -448(%rbp)
	movq	-448(%rbp), %rsi
	movq	%rsi, -456(%rbp)
	movq	-456(%rbp), %rsi
	movq	%rsi, -464(%rbp)
	movq	-464(%rbp), %rsi
	movzbl	(%rsi), %esi
	andq	$1, %rsi
	cmpq	$0, %rsi
	je	LBB109_32
## %bb.31:
	movq	%rcx, -496(%rbp)
	movq	-496(%rbp), %rcx
	movq	%rcx, -504(%rbp)
	movq	-504(%rbp), %rcx
	movq	%rcx, -512(%rbp)
	movq	-512(%rbp), %rcx
	movq	8(%rcx), %rcx
	jmp	LBB109_33
LBB109_32:
	movq	%rcx, -472(%rbp)
	movq	-472(%rbp), %rcx
	movq	%rcx, -480(%rbp)
	movq	-480(%rbp), %rcx
	movq	%rcx, -488(%rbp)
	movq	-488(%rbp), %rcx
	movzbl	(%rcx), %ecx
	sarl	$1, %ecx
	movslq	%ecx, %rcx
LBB109_33:
	leaq	-792(%rbp), %rsi
	movq	%rsi, -408(%rbp)
	movq	%rdx, -400(%rbp)
	movq	%rcx, -392(%rbp)
	movq	-408(%rbp), %rcx
	movq	-400(%rbp), %rdx
	movq	-392(%rbp), %rsi
	movq	%rcx, -432(%rbp)
	movq	%rdx, -424(%rbp)
	movq	%rsi, -416(%rbp)
	movq	-432(%rbp), %rcx
	movq	-424(%rbp), %rdx
	movq	%rdx, (%rcx)
	movq	-416(%rbp), %rdx
	movq	%rdx, 8(%rcx)
	movq	-792(%rbp), %rcx
	movq	-784(%rbp), %rdx
	movq	%rcx, -248(%rbp)
	movq	%rdx, -240(%rbp)
	movq	-248(%rbp), %rcx
	movq	-240(%rbp), %rdx
	movq	%rcx, -536(%rbp)
	movq	%rdx, -528(%rbp)
	movq	%rax, -520(%rbp)
	movq	-520(%rbp), %rax
	movq	%rax, -544(%rbp)
	movq	-544(%rbp), %rcx
	movq	%rcx, -552(%rbp)
	movq	-552(%rbp), %rdx
	movq	%rdx, -560(%rbp)
	movq	-560(%rbp), %rdx
	movq	%rdx, -568(%rbp)
	movq	-568(%rbp), %rdx
	movzbl	(%rdx), %edx
	andq	$1, %rdx
	cmpq	$0, %rdx
	je	LBB109_35
## %bb.34:
	movq	%rcx, -600(%rbp)
	movq	-600(%rbp), %rcx
	movq	%rcx, -608(%rbp)
	movq	-608(%rbp), %rcx
	movq	%rcx, -616(%rbp)
	movq	-616(%rbp), %rcx
	movq	8(%rcx), %rcx
	jmp	LBB109_36
LBB109_35:
	movq	%rcx, -576(%rbp)
	movq	-576(%rbp), %rcx
	movq	%rcx, -584(%rbp)
	movq	-584(%rbp), %rcx
	movq	%rcx, -592(%rbp)
	movq	-592(%rbp), %rcx
	movzbl	(%rcx), %ecx
	sarl	$1, %ecx
	movslq	%ecx, %rcx
LBB109_36:
	movq	%rcx, -176(%rbp)
	leaq	-536(%rbp), %rcx
	movq	%rcx, -624(%rbp)
	movq	-624(%rbp), %rcx
	movq	8(%rcx), %rcx
	movq	%rcx, -168(%rbp)
	movq	%rax, -672(%rbp)
	movq	-672(%rbp), %rax
	movq	%rax, -680(%rbp)
	movq	-680(%rbp), %rax
	movq	%rax, -688(%rbp)
	movq	-688(%rbp), %rcx
	movq	%rcx, -696(%rbp)
	movq	-696(%rbp), %rcx
	movq	%rcx, -704(%rbp)
	movq	-704(%rbp), %rcx
	movzbl	(%rcx), %ecx
	andq	$1, %rcx
	cmpq	$0, %rcx
	je	LBB109_38
## %bb.37:
	movq	%rax, -752(%rbp)
	movq	-752(%rbp), %rax
	movq	%rax, -760(%rbp)
	movq	-760(%rbp), %rax
	movq	%rax, -768(%rbp)
	movq	-768(%rbp), %rax
	movq	16(%rax), %rax
	jmp	LBB109_39
LBB109_38:
	movq	%rax, -712(%rbp)
	movq	-712(%rbp), %rax
	movq	%rax, -720(%rbp)
	movq	-720(%rbp), %rax
	movq	%rax, -728(%rbp)
	movq	-728(%rbp), %rax
	addq	$4, %rax
	movq	%rax, -736(%rbp)
	movq	-736(%rbp), %rax
	movq	%rax, -744(%rbp)
	movq	-744(%rbp), %rax
LBB109_39:
	movq	%rax, -776(%rbp)
	movq	-776(%rbp), %rdi
	leaq	-536(%rbp), %rax
	movq	%rax, -664(%rbp)
	movq	-664(%rbp), %rax
	movq	(%rax), %rsi
	leaq	-176(%rbp), %rax
	movq	%rax, -640(%rbp)
	leaq	-168(%rbp), %rax
	movq	%rax, -632(%rbp)
	movq	-640(%rbp), %rax
	movq	-632(%rbp), %rcx
	movq	%rax, -192(%rbp)
	movq	%rcx, -184(%rbp)
	movq	-184(%rbp), %rax
	movq	-192(%rbp), %rcx
	leaq	-152(%rbp), %rdx
	movq	%rdx, -800(%rbp)
	movq	%rax, -656(%rbp)
	movq	%rcx, -648(%rbp)
	movq	-656(%rbp), %rax
	movq	(%rax), %rax
	movq	-648(%rbp), %rcx
	cmpq	(%rcx), %rax
	jae	LBB109_41
## %bb.40:
	movq	-184(%rbp), %rax
	jmp	LBB109_42
LBB109_41:
	movq	-192(%rbp), %rax
LBB109_42:
	movq	(%rax), %rdx
	callq	__ZNSt3__111char_traitsIwE7compareEPKwS3_m
	movl	%eax, -156(%rbp)
	cmpl	$0, -156(%rbp)
	je	LBB109_44
## %bb.43:
	movl	-156(%rbp), %eax
	movl	%eax, -148(%rbp)
	jmp	LBB109_49
LBB109_44:
	movq	-176(%rbp), %rax
	cmpq	-168(%rbp), %rax
	jae	LBB109_46
## %bb.45:
	movl	$-1, -148(%rbp)
	jmp	LBB109_49
LBB109_46:
	movq	-176(%rbp), %rax
	cmpq	-168(%rbp), %rax
	jbe	LBB109_48
## %bb.47:
	movl	$1, -148(%rbp)
	jmp	LBB109_49
LBB109_48:
	movl	$0, -148(%rbp)
LBB109_49:
	cmpl	$0, -148(%rbp)
	setl	%al
	andb	$1, %al
	movb	%al, -129(%rbp)
	jmp	LBB109_53
LBB109_50:
	jmp	LBB109_51
LBB109_51:
	jmp	LBB109_52
LBB109_52:
	leaq	L___func__._ZNK14altered_carbon2js9JsVariantgtERKS1_(%rip), %rdi
	leaq	L_.str.1(%rip), %rsi
	leaq	L_.str.3(%rip), %rcx
	movl	$582, %edx              ## imm = 0x246
	callq	___assert_rtn
LBB109_53:
	movb	-129(%rbp), %al
	andb	$1, %al
	movzbl	%al, %eax
	movq	-16(%rbp), %rcx
	movq	___stack_chk_guard@GOTPCREL(%rip), %rdx
	movq	(%rdx), %rdx
	subq	%rcx, %rdx
	jne	LBB109_54
	jmp	LBB109_55
LBB109_54:
	callq	___stack_chk_fail
LBB109_55:
	addq	$808, %rsp              ## imm = 0x328
	popq	%rbx
	popq	%rbp
	retq
	.cfi_endproc
                                        ## -- End function
	.globl	__ZNK14altered_carbon2js9JsVariantltERKS1_ ## -- Begin function _ZNK14altered_carbon2js9JsVariantltERKS1_
	.p2align	4, 0x90
__ZNK14altered_carbon2js9JsVariantltERKS1_: ## @_ZNK14altered_carbon2js9JsVariantltERKS1_
	.cfi_startproc
## %bb.0:
	pushq	%rbp
	.cfi_def_cfa_offset 16
	.cfi_offset %rbp, -16
	movq	%rsp, %rbp
	.cfi_def_cfa_register %rbp
	pushq	%rbx
	subq	$792, %rsp              ## imm = 0x318
	.cfi_offset %rbx, -24
	movq	___stack_chk_guard@GOTPCREL(%rip), %rax
	movq	(%rax), %rax
	movq	%rax, -16(%rbp)
	movq	%rdi, -200(%rbp)
	movq	%rsi, -144(%rbp)
	movq	-200(%rbp), %rbx
	cmpl	$7, 8(%rbx)
	jne	LBB110_2
## %bb.1:
	movq	16(%rbx), %rax
	cmpl	$2, 8(%rax)
	je	LBB110_3
	jmp	LBB110_11
LBB110_2:
	cmpl	$2, 8(%rbx)
	jne	LBB110_11
LBB110_3:
	movq	-144(%rbp), %rax
	cmpl	$7, 8(%rax)
	jne	LBB110_5
## %bb.4:
	movq	-144(%rbp), %rax
	movq	16(%rax), %rax
	cmpl	$2, 8(%rax)
	je	LBB110_6
	jmp	LBB110_11
LBB110_5:
	movq	-144(%rbp), %rax
	cmpl	$2, 8(%rax)
	jne	LBB110_11
LBB110_6:
	movq	16(%rbx), %rax
	movq	-144(%rbp), %rcx
	cmpq	16(%rcx), %rax
	jge	LBB110_9
## %bb.7:
	testb	$1, 32(%rbx)
	je	LBB110_9
## %bb.8:
	movq	-144(%rbp), %rax
	testb	$1, 32(%rax)
	movb	$1, %al
	jne	LBB110_10
LBB110_9:
	movsd	24(%rbx), %xmm0         ## xmm0 = mem[0],zero
	movq	-144(%rbp), %rax
	movsd	24(%rax), %xmm1         ## xmm1 = mem[0],zero
	ucomisd	%xmm0, %xmm1
	seta	%al
LBB110_10:
	andb	$1, %al
	movb	%al, -129(%rbp)
	jmp	LBB110_53
LBB110_11:
	cmpl	$7, 8(%rbx)
	jne	LBB110_13
## %bb.12:
	movq	16(%rbx), %rax
	cmpl	$10, 8(%rax)
	je	LBB110_21
	jmp	LBB110_14
LBB110_13:
	cmpl	$10, 8(%rbx)
	je	LBB110_21
LBB110_14:
	movq	-144(%rbp), %rax
	cmpl	$7, 8(%rax)
	jne	LBB110_16
## %bb.15:
	movq	-144(%rbp), %rax
	movq	16(%rax), %rax
	cmpl	$10, 8(%rax)
	je	LBB110_21
	jmp	LBB110_17
LBB110_16:
	movq	-144(%rbp), %rax
	cmpl	$10, 8(%rax)
	je	LBB110_21
LBB110_17:
	leaq	-72(%rbp), %rdi
	movq	%rbx, %rsi
	movl	$2, %edx
	callq	__ZN14altered_carbon2js9JsVariantC1ERKS1_NS1_13JsVariantTypeE
	movq	-144(%rbp), %rsi
	leaq	-128(%rbp), %rdi
	movl	$2, %edx
	callq	__ZN14altered_carbon2js9JsVariantC1ERKS1_NS1_13JsVariantTypeE
	movq	-56(%rbp), %rax
	cmpq	-112(%rbp), %rax
	setl	%al
	andb	$1, %al
	movzbl	%al, %eax
	movb	32(%rbx), %cl
	andb	$1, %cl
	movzbl	%cl, %ecx
	andl	%ecx, %eax
	cmpl	$0, %eax
	je	LBB110_19
## %bb.18:
	movq	-144(%rbp), %rax
	testb	$1, 32(%rax)
	movb	$1, %al
	jne	LBB110_20
LBB110_19:
	movsd	-48(%rbp), %xmm0        ## xmm0 = mem[0],zero
	movsd	-104(%rbp), %xmm1       ## xmm1 = mem[0],zero
	ucomisd	%xmm0, %xmm1
	seta	%al
LBB110_20:
	andb	$1, %al
	movb	%al, -129(%rbp)
	leaq	-128(%rbp), %rdi
	callq	__ZN14altered_carbon2js9JsVariantD1Ev
	leaq	-72(%rbp), %rdi
	callq	__ZN14altered_carbon2js9JsVariantD1Ev
	jmp	LBB110_53
LBB110_21:
	cmpl	$7, 8(%rbx)
	jne	LBB110_23
## %bb.22:
	movq	16(%rbx), %rax
	cmpl	$10, 8(%rax)
	je	LBB110_24
	jmp	LBB110_50
LBB110_23:
	cmpl	$10, 8(%rbx)
	jne	LBB110_50
LBB110_24:
	movq	-144(%rbp), %rax
	cmpl	$7, 8(%rax)
	jne	LBB110_26
## %bb.25:
	movq	-144(%rbp), %rax
	movq	16(%rax), %rax
	cmpl	$10, 8(%rax)
	je	LBB110_27
	jmp	LBB110_50
LBB110_26:
	movq	-144(%rbp), %rax
	cmpl	$10, 8(%rax)
	jne	LBB110_50
LBB110_27:
	movq	16(%rbx), %rax
	movq	-144(%rbp), %rcx
	movq	16(%rcx), %rcx
	movq	%rax, -216(%rbp)
	movq	%rcx, -208(%rbp)
	movq	-216(%rbp), %rax
	movq	-208(%rbp), %rcx
	movq	%rax, -248(%rbp)
	movq	%rcx, -240(%rbp)
	movq	-248(%rbp), %rax
	movq	-240(%rbp), %rcx
	movq	%rcx, -256(%rbp)
	movq	-256(%rbp), %rcx
	movq	%rcx, -264(%rbp)
	movq	-264(%rbp), %rdx
	movq	%rdx, -272(%rbp)
	movq	-272(%rbp), %rdx
	movq	%rdx, -280(%rbp)
	movq	-280(%rbp), %rsi
	movq	%rsi, -288(%rbp)
	movq	-288(%rbp), %rsi
	movq	%rsi, -296(%rbp)
	movq	-296(%rbp), %rsi
	movzbl	(%rsi), %esi
	andq	$1, %rsi
	cmpq	$0, %rsi
	je	LBB110_29
## %bb.28:
	movq	%rdx, -344(%rbp)
	movq	-344(%rbp), %rdx
	movq	%rdx, -352(%rbp)
	movq	-352(%rbp), %rdx
	movq	%rdx, -360(%rbp)
	movq	-360(%rbp), %rdx
	movq	16(%rdx), %rdx
	jmp	LBB110_30
LBB110_29:
	movq	%rdx, -304(%rbp)
	movq	-304(%rbp), %rdx
	movq	%rdx, -312(%rbp)
	movq	-312(%rbp), %rdx
	movq	%rdx, -320(%rbp)
	movq	-320(%rbp), %rdx
	addq	$4, %rdx
	movq	%rdx, -328(%rbp)
	movq	-328(%rbp), %rdx
	movq	%rdx, -336(%rbp)
	movq	-336(%rbp), %rdx
LBB110_30:
	movq	%rdx, -368(%rbp)
	movq	-368(%rbp), %rdx
	movq	%rcx, -424(%rbp)
	movq	-424(%rbp), %rcx
	movq	%rcx, -432(%rbp)
	movq	-432(%rbp), %rsi
	movq	%rsi, -440(%rbp)
	movq	-440(%rbp), %rsi
	movq	%rsi, -448(%rbp)
	movq	-448(%rbp), %rsi
	movzbl	(%rsi), %esi
	andq	$1, %rsi
	cmpq	$0, %rsi
	je	LBB110_32
## %bb.31:
	movq	%rcx, -480(%rbp)
	movq	-480(%rbp), %rcx
	movq	%rcx, -488(%rbp)
	movq	-488(%rbp), %rcx
	movq	%rcx, -496(%rbp)
	movq	-496(%rbp), %rcx
	movq	8(%rcx), %rcx
	jmp	LBB110_33
LBB110_32:
	movq	%rcx, -456(%rbp)
	movq	-456(%rbp), %rcx
	movq	%rcx, -464(%rbp)
	movq	-464(%rbp), %rcx
	movq	%rcx, -472(%rbp)
	movq	-472(%rbp), %rcx
	movzbl	(%rcx), %ecx
	sarl	$1, %ecx
	movslq	%ecx, %rcx
LBB110_33:
	leaq	-776(%rbp), %rsi
	movq	%rsi, -392(%rbp)
	movq	%rdx, -384(%rbp)
	movq	%rcx, -376(%rbp)
	movq	-392(%rbp), %rcx
	movq	-384(%rbp), %rdx
	movq	-376(%rbp), %rsi
	movq	%rcx, -416(%rbp)
	movq	%rdx, -408(%rbp)
	movq	%rsi, -400(%rbp)
	movq	-416(%rbp), %rcx
	movq	-408(%rbp), %rdx
	movq	%rdx, (%rcx)
	movq	-400(%rbp), %rdx
	movq	%rdx, 8(%rcx)
	movq	-776(%rbp), %rcx
	movq	-768(%rbp), %rdx
	movq	%rcx, -232(%rbp)
	movq	%rdx, -224(%rbp)
	movq	-232(%rbp), %rcx
	movq	-224(%rbp), %rdx
	movq	%rcx, -520(%rbp)
	movq	%rdx, -512(%rbp)
	movq	%rax, -504(%rbp)
	movq	-504(%rbp), %rax
	movq	%rax, -528(%rbp)
	movq	-528(%rbp), %rcx
	movq	%rcx, -536(%rbp)
	movq	-536(%rbp), %rdx
	movq	%rdx, -544(%rbp)
	movq	-544(%rbp), %rdx
	movq	%rdx, -552(%rbp)
	movq	-552(%rbp), %rdx
	movzbl	(%rdx), %edx
	andq	$1, %rdx
	cmpq	$0, %rdx
	je	LBB110_35
## %bb.34:
	movq	%rcx, -584(%rbp)
	movq	-584(%rbp), %rcx
	movq	%rcx, -592(%rbp)
	movq	-592(%rbp), %rcx
	movq	%rcx, -600(%rbp)
	movq	-600(%rbp), %rcx
	movq	8(%rcx), %rcx
	jmp	LBB110_36
LBB110_35:
	movq	%rcx, -560(%rbp)
	movq	-560(%rbp), %rcx
	movq	%rcx, -568(%rbp)
	movq	-568(%rbp), %rcx
	movq	%rcx, -576(%rbp)
	movq	-576(%rbp), %rcx
	movzbl	(%rcx), %ecx
	sarl	$1, %ecx
	movslq	%ecx, %rcx
LBB110_36:
	movq	%rcx, -176(%rbp)
	leaq	-520(%rbp), %rcx
	movq	%rcx, -608(%rbp)
	movq	-608(%rbp), %rcx
	movq	8(%rcx), %rcx
	movq	%rcx, -168(%rbp)
	movq	%rax, -656(%rbp)
	movq	-656(%rbp), %rax
	movq	%rax, -664(%rbp)
	movq	-664(%rbp), %rax
	movq	%rax, -672(%rbp)
	movq	-672(%rbp), %rcx
	movq	%rcx, -680(%rbp)
	movq	-680(%rbp), %rcx
	movq	%rcx, -688(%rbp)
	movq	-688(%rbp), %rcx
	movzbl	(%rcx), %ecx
	andq	$1, %rcx
	cmpq	$0, %rcx
	je	LBB110_38
## %bb.37:
	movq	%rax, -736(%rbp)
	movq	-736(%rbp), %rax
	movq	%rax, -744(%rbp)
	movq	-744(%rbp), %rax
	movq	%rax, -752(%rbp)
	movq	-752(%rbp), %rax
	movq	16(%rax), %rax
	jmp	LBB110_39
LBB110_38:
	movq	%rax, -696(%rbp)
	movq	-696(%rbp), %rax
	movq	%rax, -704(%rbp)
	movq	-704(%rbp), %rax
	movq	%rax, -712(%rbp)
	movq	-712(%rbp), %rax
	addq	$4, %rax
	movq	%rax, -720(%rbp)
	movq	-720(%rbp), %rax
	movq	%rax, -728(%rbp)
	movq	-728(%rbp), %rax
LBB110_39:
	movq	%rax, -760(%rbp)
	movq	-760(%rbp), %rdi
	leaq	-520(%rbp), %rax
	movq	%rax, -648(%rbp)
	movq	-648(%rbp), %rax
	movq	(%rax), %rsi
	leaq	-176(%rbp), %rax
	movq	%rax, -624(%rbp)
	leaq	-168(%rbp), %rax
	movq	%rax, -616(%rbp)
	movq	-624(%rbp), %rax
	movq	-616(%rbp), %rcx
	movq	%rax, -192(%rbp)
	movq	%rcx, -184(%rbp)
	movq	-184(%rbp), %rax
	movq	-192(%rbp), %rcx
	leaq	-152(%rbp), %rdx
	movq	%rdx, -784(%rbp)
	movq	%rax, -640(%rbp)
	movq	%rcx, -632(%rbp)
	movq	-640(%rbp), %rax
	movq	(%rax), %rax
	movq	-632(%rbp), %rcx
	cmpq	(%rcx), %rax
	jae	LBB110_41
## %bb.40:
	movq	-184(%rbp), %rax
	jmp	LBB110_42
LBB110_41:
	movq	-192(%rbp), %rax
LBB110_42:
	movq	(%rax), %rdx
	callq	__ZNSt3__111char_traitsIwE7compareEPKwS3_m
	movl	%eax, -156(%rbp)
	cmpl	$0, -156(%rbp)
	je	LBB110_44
## %bb.43:
	movl	-156(%rbp), %eax
	movl	%eax, -148(%rbp)
	jmp	LBB110_49
LBB110_44:
	movq	-176(%rbp), %rax
	cmpq	-168(%rbp), %rax
	jae	LBB110_46
## %bb.45:
	movl	$-1, -148(%rbp)
	jmp	LBB110_49
LBB110_46:
	movq	-176(%rbp), %rax
	cmpq	-168(%rbp), %rax
	jbe	LBB110_48
## %bb.47:
	movl	$1, -148(%rbp)
	jmp	LBB110_49
LBB110_48:
	movl	$0, -148(%rbp)
LBB110_49:
	cmpl	$0, -148(%rbp)
	setl	%al
	andb	$1, %al
	movb	%al, -129(%rbp)
	jmp	LBB110_53
LBB110_50:
	jmp	LBB110_51
LBB110_51:
	jmp	LBB110_52
LBB110_52:
	leaq	L___func__._ZNK14altered_carbon2js9JsVariantltERKS1_(%rip), %rdi
	leaq	L_.str.1(%rip), %rsi
	leaq	L_.str.3(%rip), %rcx
	movl	$583, %edx              ## imm = 0x247
	callq	___assert_rtn
LBB110_53:
	movb	-129(%rbp), %al
	andb	$1, %al
	movzbl	%al, %eax
	movq	-16(%rbp), %rcx
	movq	___stack_chk_guard@GOTPCREL(%rip), %rdx
	movq	(%rdx), %rdx
	subq	%rcx, %rdx
	jne	LBB110_54
	jmp	LBB110_55
LBB110_54:
	callq	___stack_chk_fail
LBB110_55:
	addq	$792, %rsp              ## imm = 0x318
	popq	%rbx
	popq	%rbp
	retq
	.cfi_endproc
                                        ## -- End function
	.globl	__ZNK14altered_carbon2js9JsVariantgeERKS1_ ## -- Begin function _ZNK14altered_carbon2js9JsVariantgeERKS1_
	.p2align	4, 0x90
__ZNK14altered_carbon2js9JsVariantgeERKS1_: ## @_ZNK14altered_carbon2js9JsVariantgeERKS1_
	.cfi_startproc
## %bb.0:
	pushq	%rbp
	.cfi_def_cfa_offset 16
	.cfi_offset %rbp, -16
	movq	%rsp, %rbp
	.cfi_def_cfa_register %rbp
	pushq	%rbx
	subq	$808, %rsp              ## imm = 0x328
	.cfi_offset %rbx, -24
	movq	___stack_chk_guard@GOTPCREL(%rip), %rax
	movq	(%rax), %rax
	movq	%rax, -16(%rbp)
	movq	%rdi, -200(%rbp)
	movq	%rsi, -144(%rbp)
	movq	-200(%rbp), %rbx
	cmpl	$7, 8(%rbx)
	jne	LBB111_2
## %bb.1:
	movq	16(%rbx), %rax
	cmpl	$2, 8(%rax)
	je	LBB111_3
	jmp	LBB111_11
LBB111_2:
	cmpl	$2, 8(%rbx)
	jne	LBB111_11
LBB111_3:
	movq	-144(%rbp), %rax
	cmpl	$7, 8(%rax)
	jne	LBB111_5
## %bb.4:
	movq	-144(%rbp), %rax
	movq	16(%rax), %rax
	cmpl	$2, 8(%rax)
	je	LBB111_6
	jmp	LBB111_11
LBB111_5:
	movq	-144(%rbp), %rax
	cmpl	$2, 8(%rax)
	jne	LBB111_11
LBB111_6:
	movq	16(%rbx), %rax
	movq	-144(%rbp), %rcx
	cmpq	16(%rcx), %rax
	jl	LBB111_9
## %bb.7:
	testb	$1, 32(%rbx)
	je	LBB111_9
## %bb.8:
	movq	-144(%rbp), %rax
	testb	$1, 32(%rax)
	movb	$1, %al
	jne	LBB111_10
LBB111_9:
	movsd	24(%rbx), %xmm0         ## xmm0 = mem[0],zero
	movq	-144(%rbp), %rax
	ucomisd	24(%rax), %xmm0
	setae	%al
LBB111_10:
	andb	$1, %al
	movb	%al, -129(%rbp)
	jmp	LBB111_53
LBB111_11:
	cmpl	$7, 8(%rbx)
	jne	LBB111_13
## %bb.12:
	movq	16(%rbx), %rax
	cmpl	$10, 8(%rax)
	je	LBB111_21
	jmp	LBB111_14
LBB111_13:
	cmpl	$10, 8(%rbx)
	je	LBB111_21
LBB111_14:
	movq	-144(%rbp), %rax
	cmpl	$7, 8(%rax)
	jne	LBB111_16
## %bb.15:
	movq	-144(%rbp), %rax
	movq	16(%rax), %rax
	cmpl	$10, 8(%rax)
	je	LBB111_21
	jmp	LBB111_17
LBB111_16:
	movq	-144(%rbp), %rax
	cmpl	$10, 8(%rax)
	je	LBB111_21
LBB111_17:
	leaq	-72(%rbp), %rdi
	movq	%rbx, %rsi
	movl	$2, %edx
	callq	__ZN14altered_carbon2js9JsVariantC1ERKS1_NS1_13JsVariantTypeE
	movq	-144(%rbp), %rsi
	leaq	-128(%rbp), %rdi
	movl	$2, %edx
	callq	__ZN14altered_carbon2js9JsVariantC1ERKS1_NS1_13JsVariantTypeE
	movq	-56(%rbp), %rax
	cmpq	-112(%rbp), %rax
	setge	%al
	andb	$1, %al
	movzbl	%al, %eax
	movb	32(%rbx), %cl
	andb	$1, %cl
	movzbl	%cl, %ecx
	andl	%ecx, %eax
	cmpl	$0, %eax
	je	LBB111_19
## %bb.18:
	movq	-144(%rbp), %rax
	testb	$1, 32(%rax)
	movb	$1, %al
	jne	LBB111_20
LBB111_19:
	movsd	-48(%rbp), %xmm0        ## xmm0 = mem[0],zero
	ucomisd	-104(%rbp), %xmm0
	setae	%al
LBB111_20:
	andb	$1, %al
	movb	%al, -129(%rbp)
	leaq	-128(%rbp), %rdi
	callq	__ZN14altered_carbon2js9JsVariantD1Ev
	leaq	-72(%rbp), %rdi
	callq	__ZN14altered_carbon2js9JsVariantD1Ev
	jmp	LBB111_53
LBB111_21:
	cmpl	$7, 8(%rbx)
	jne	LBB111_23
## %bb.22:
	movq	16(%rbx), %rax
	cmpl	$10, 8(%rax)
	je	LBB111_24
	jmp	LBB111_50
LBB111_23:
	cmpl	$10, 8(%rbx)
	jne	LBB111_50
LBB111_24:
	movq	-144(%rbp), %rax
	cmpl	$7, 8(%rax)
	jne	LBB111_26
## %bb.25:
	movq	-144(%rbp), %rax
	movq	16(%rax), %rax
	cmpl	$10, 8(%rax)
	je	LBB111_27
	jmp	LBB111_50
LBB111_26:
	movq	-144(%rbp), %rax
	cmpl	$10, 8(%rax)
	jne	LBB111_50
LBB111_27:
	movq	16(%rbx), %rax
	movq	-144(%rbp), %rcx
	movq	16(%rcx), %rcx
	movq	%rax, -216(%rbp)
	movq	%rcx, -208(%rbp)
	movq	-216(%rbp), %rax
	movq	-208(%rbp), %rcx
	movq	%rax, -232(%rbp)
	movq	%rcx, -224(%rbp)
	movq	-232(%rbp), %rax
	movq	-224(%rbp), %rcx
	movq	%rax, -264(%rbp)
	movq	%rcx, -256(%rbp)
	movq	-264(%rbp), %rax
	movq	-256(%rbp), %rcx
	movq	%rcx, -272(%rbp)
	movq	-272(%rbp), %rcx
	movq	%rcx, -280(%rbp)
	movq	-280(%rbp), %rdx
	movq	%rdx, -288(%rbp)
	movq	-288(%rbp), %rdx
	movq	%rdx, -296(%rbp)
	movq	-296(%rbp), %rsi
	movq	%rsi, -304(%rbp)
	movq	-304(%rbp), %rsi
	movq	%rsi, -312(%rbp)
	movq	-312(%rbp), %rsi
	movzbl	(%rsi), %esi
	andq	$1, %rsi
	cmpq	$0, %rsi
	je	LBB111_29
## %bb.28:
	movq	%rdx, -360(%rbp)
	movq	-360(%rbp), %rdx
	movq	%rdx, -368(%rbp)
	movq	-368(%rbp), %rdx
	movq	%rdx, -376(%rbp)
	movq	-376(%rbp), %rdx
	movq	16(%rdx), %rdx
	jmp	LBB111_30
LBB111_29:
	movq	%rdx, -320(%rbp)
	movq	-320(%rbp), %rdx
	movq	%rdx, -328(%rbp)
	movq	-328(%rbp), %rdx
	movq	%rdx, -336(%rbp)
	movq	-336(%rbp), %rdx
	addq	$4, %rdx
	movq	%rdx, -344(%rbp)
	movq	-344(%rbp), %rdx
	movq	%rdx, -352(%rbp)
	movq	-352(%rbp), %rdx
LBB111_30:
	movq	%rdx, -384(%rbp)
	movq	-384(%rbp), %rdx
	movq	%rcx, -440(%rbp)
	movq	-440(%rbp), %rcx
	movq	%rcx, -448(%rbp)
	movq	-448(%rbp), %rsi
	movq	%rsi, -456(%rbp)
	movq	-456(%rbp), %rsi
	movq	%rsi, -464(%rbp)
	movq	-464(%rbp), %rsi
	movzbl	(%rsi), %esi
	andq	$1, %rsi
	cmpq	$0, %rsi
	je	LBB111_32
## %bb.31:
	movq	%rcx, -496(%rbp)
	movq	-496(%rbp), %rcx
	movq	%rcx, -504(%rbp)
	movq	-504(%rbp), %rcx
	movq	%rcx, -512(%rbp)
	movq	-512(%rbp), %rcx
	movq	8(%rcx), %rcx
	jmp	LBB111_33
LBB111_32:
	movq	%rcx, -472(%rbp)
	movq	-472(%rbp), %rcx
	movq	%rcx, -480(%rbp)
	movq	-480(%rbp), %rcx
	movq	%rcx, -488(%rbp)
	movq	-488(%rbp), %rcx
	movzbl	(%rcx), %ecx
	sarl	$1, %ecx
	movslq	%ecx, %rcx
LBB111_33:
	leaq	-792(%rbp), %rsi
	movq	%rsi, -408(%rbp)
	movq	%rdx, -400(%rbp)
	movq	%rcx, -392(%rbp)
	movq	-408(%rbp), %rcx
	movq	-400(%rbp), %rdx
	movq	-392(%rbp), %rsi
	movq	%rcx, -432(%rbp)
	movq	%rdx, -424(%rbp)
	movq	%rsi, -416(%rbp)
	movq	-432(%rbp), %rcx
	movq	-424(%rbp), %rdx
	movq	%rdx, (%rcx)
	movq	-416(%rbp), %rdx
	movq	%rdx, 8(%rcx)
	movq	-792(%rbp), %rcx
	movq	-784(%rbp), %rdx
	movq	%rcx, -248(%rbp)
	movq	%rdx, -240(%rbp)
	movq	-248(%rbp), %rcx
	movq	-240(%rbp), %rdx
	movq	%rcx, -536(%rbp)
	movq	%rdx, -528(%rbp)
	movq	%rax, -520(%rbp)
	movq	-520(%rbp), %rax
	movq	%rax, -544(%rbp)
	movq	-544(%rbp), %rcx
	movq	%rcx, -552(%rbp)
	movq	-552(%rbp), %rdx
	movq	%rdx, -560(%rbp)
	movq	-560(%rbp), %rdx
	movq	%rdx, -568(%rbp)
	movq	-568(%rbp), %rdx
	movzbl	(%rdx), %edx
	andq	$1, %rdx
	cmpq	$0, %rdx
	je	LBB111_35
## %bb.34:
	movq	%rcx, -600(%rbp)
	movq	-600(%rbp), %rcx
	movq	%rcx, -608(%rbp)
	movq	-608(%rbp), %rcx
	movq	%rcx, -616(%rbp)
	movq	-616(%rbp), %rcx
	movq	8(%rcx), %rcx
	jmp	LBB111_36
LBB111_35:
	movq	%rcx, -576(%rbp)
	movq	-576(%rbp), %rcx
	movq	%rcx, -584(%rbp)
	movq	-584(%rbp), %rcx
	movq	%rcx, -592(%rbp)
	movq	-592(%rbp), %rcx
	movzbl	(%rcx), %ecx
	sarl	$1, %ecx
	movslq	%ecx, %rcx
LBB111_36:
	movq	%rcx, -176(%rbp)
	leaq	-536(%rbp), %rcx
	movq	%rcx, -624(%rbp)
	movq	-624(%rbp), %rcx
	movq	8(%rcx), %rcx
	movq	%rcx, -168(%rbp)
	movq	%rax, -672(%rbp)
	movq	-672(%rbp), %rax
	movq	%rax, -680(%rbp)
	movq	-680(%rbp), %rax
	movq	%rax, -688(%rbp)
	movq	-688(%rbp), %rcx
	movq	%rcx, -696(%rbp)
	movq	-696(%rbp), %rcx
	movq	%rcx, -704(%rbp)
	movq	-704(%rbp), %rcx
	movzbl	(%rcx), %ecx
	andq	$1, %rcx
	cmpq	$0, %rcx
	je	LBB111_38
## %bb.37:
	movq	%rax, -752(%rbp)
	movq	-752(%rbp), %rax
	movq	%rax, -760(%rbp)
	movq	-760(%rbp), %rax
	movq	%rax, -768(%rbp)
	movq	-768(%rbp), %rax
	movq	16(%rax), %rax
	jmp	LBB111_39
LBB111_38:
	movq	%rax, -712(%rbp)
	movq	-712(%rbp), %rax
	movq	%rax, -720(%rbp)
	movq	-720(%rbp), %rax
	movq	%rax, -728(%rbp)
	movq	-728(%rbp), %rax
	addq	$4, %rax
	movq	%rax, -736(%rbp)
	movq	-736(%rbp), %rax
	movq	%rax, -744(%rbp)
	movq	-744(%rbp), %rax
LBB111_39:
	movq	%rax, -776(%rbp)
	movq	-776(%rbp), %rdi
	leaq	-536(%rbp), %rax
	movq	%rax, -664(%rbp)
	movq	-664(%rbp), %rax
	movq	(%rax), %rsi
	leaq	-176(%rbp), %rax
	movq	%rax, -640(%rbp)
	leaq	-168(%rbp), %rax
	movq	%rax, -632(%rbp)
	movq	-640(%rbp), %rax
	movq	-632(%rbp), %rcx
	movq	%rax, -192(%rbp)
	movq	%rcx, -184(%rbp)
	movq	-184(%rbp), %rax
	movq	-192(%rbp), %rcx
	leaq	-152(%rbp), %rdx
	movq	%rdx, -800(%rbp)
	movq	%rax, -656(%rbp)
	movq	%rcx, -648(%rbp)
	movq	-656(%rbp), %rax
	movq	(%rax), %rax
	movq	-648(%rbp), %rcx
	cmpq	(%rcx), %rax
	jae	LBB111_41
## %bb.40:
	movq	-184(%rbp), %rax
	jmp	LBB111_42
LBB111_41:
	movq	-192(%rbp), %rax
LBB111_42:
	movq	(%rax), %rdx
	callq	__ZNSt3__111char_traitsIwE7compareEPKwS3_m
	movl	%eax, -156(%rbp)
	cmpl	$0, -156(%rbp)
	je	LBB111_44
## %bb.43:
	movl	-156(%rbp), %eax
	movl	%eax, -148(%rbp)
	jmp	LBB111_49
LBB111_44:
	movq	-176(%rbp), %rax
	cmpq	-168(%rbp), %rax
	jae	LBB111_46
## %bb.45:
	movl	$-1, -148(%rbp)
	jmp	LBB111_49
LBB111_46:
	movq	-176(%rbp), %rax
	cmpq	-168(%rbp), %rax
	jbe	LBB111_48
## %bb.47:
	movl	$1, -148(%rbp)
	jmp	LBB111_49
LBB111_48:
	movl	$0, -148(%rbp)
LBB111_49:
	cmpl	$0, -148(%rbp)
	setl	%al
	xorb	$-1, %al
	andb	$1, %al
	movb	%al, -129(%rbp)
	jmp	LBB111_53
LBB111_50:
	jmp	LBB111_51
LBB111_51:
	jmp	LBB111_52
LBB111_52:
	leaq	L___func__._ZNK14altered_carbon2js9JsVariantgeERKS1_(%rip), %rdi
	leaq	L_.str.1(%rip), %rsi
	leaq	L_.str.3(%rip), %rcx
	movl	$584, %edx              ## imm = 0x248
	callq	___assert_rtn
LBB111_53:
	movb	-129(%rbp), %al
	andb	$1, %al
	movzbl	%al, %eax
	movq	-16(%rbp), %rcx
	movq	___stack_chk_guard@GOTPCREL(%rip), %rdx
	movq	(%rdx), %rdx
	subq	%rcx, %rdx
	jne	LBB111_54
	jmp	LBB111_55
LBB111_54:
	callq	___stack_chk_fail
LBB111_55:
	addq	$808, %rsp              ## imm = 0x328
	popq	%rbx
	popq	%rbp
	retq
	.cfi_endproc
                                        ## -- End function
	.globl	__ZNK14altered_carbon2js9JsVariantleERKS1_ ## -- Begin function _ZNK14altered_carbon2js9JsVariantleERKS1_
	.p2align	4, 0x90
__ZNK14altered_carbon2js9JsVariantleERKS1_: ## @_ZNK14altered_carbon2js9JsVariantleERKS1_
	.cfi_startproc
## %bb.0:
	pushq	%rbp
	.cfi_def_cfa_offset 16
	.cfi_offset %rbp, -16
	movq	%rsp, %rbp
	.cfi_def_cfa_register %rbp
	pushq	%rbx
	subq	$808, %rsp              ## imm = 0x328
	.cfi_offset %rbx, -24
	movq	___stack_chk_guard@GOTPCREL(%rip), %rax
	movq	(%rax), %rax
	movq	%rax, -16(%rbp)
	movq	%rdi, -200(%rbp)
	movq	%rsi, -144(%rbp)
	movq	-200(%rbp), %rbx
	cmpl	$7, 8(%rbx)
	jne	LBB112_2
## %bb.1:
	movq	16(%rbx), %rax
	cmpl	$2, 8(%rax)
	je	LBB112_3
	jmp	LBB112_11
LBB112_2:
	cmpl	$2, 8(%rbx)
	jne	LBB112_11
LBB112_3:
	movq	-144(%rbp), %rax
	cmpl	$7, 8(%rax)
	jne	LBB112_5
## %bb.4:
	movq	-144(%rbp), %rax
	movq	16(%rax), %rax
	cmpl	$2, 8(%rax)
	je	LBB112_6
	jmp	LBB112_11
LBB112_5:
	movq	-144(%rbp), %rax
	cmpl	$2, 8(%rax)
	jne	LBB112_11
LBB112_6:
	movq	16(%rbx), %rax
	movq	-144(%rbp), %rcx
	cmpq	16(%rcx), %rax
	jg	LBB112_9
## %bb.7:
	testb	$1, 32(%rbx)
	je	LBB112_9
## %bb.8:
	movq	-144(%rbp), %rax
	testb	$1, 32(%rax)
	movb	$1, %al
	jne	LBB112_10
LBB112_9:
	movsd	24(%rbx), %xmm0         ## xmm0 = mem[0],zero
	movq	-144(%rbp), %rax
	movsd	24(%rax), %xmm1         ## xmm1 = mem[0],zero
	ucomisd	%xmm0, %xmm1
	setae	%al
LBB112_10:
	andb	$1, %al
	movb	%al, -129(%rbp)
	jmp	LBB112_53
LBB112_11:
	cmpl	$7, 8(%rbx)
	jne	LBB112_13
## %bb.12:
	movq	16(%rbx), %rax
	cmpl	$10, 8(%rax)
	je	LBB112_21
	jmp	LBB112_14
LBB112_13:
	cmpl	$10, 8(%rbx)
	je	LBB112_21
LBB112_14:
	movq	-144(%rbp), %rax
	cmpl	$7, 8(%rax)
	jne	LBB112_16
## %bb.15:
	movq	-144(%rbp), %rax
	movq	16(%rax), %rax
	cmpl	$10, 8(%rax)
	je	LBB112_21
	jmp	LBB112_17
LBB112_16:
	movq	-144(%rbp), %rax
	cmpl	$10, 8(%rax)
	je	LBB112_21
LBB112_17:
	leaq	-72(%rbp), %rdi
	movq	%rbx, %rsi
	movl	$2, %edx
	callq	__ZN14altered_carbon2js9JsVariantC1ERKS1_NS1_13JsVariantTypeE
	movq	-144(%rbp), %rsi
	leaq	-128(%rbp), %rdi
	movl	$2, %edx
	callq	__ZN14altered_carbon2js9JsVariantC1ERKS1_NS1_13JsVariantTypeE
	movq	-56(%rbp), %rax
	cmpq	-112(%rbp), %rax
	setle	%al
	andb	$1, %al
	movzbl	%al, %eax
	movb	32(%rbx), %cl
	andb	$1, %cl
	movzbl	%cl, %ecx
	andl	%ecx, %eax
	cmpl	$0, %eax
	je	LBB112_19
## %bb.18:
	movq	-144(%rbp), %rax
	testb	$1, 32(%rax)
	movb	$1, %al
	jne	LBB112_20
LBB112_19:
	movsd	-48(%rbp), %xmm0        ## xmm0 = mem[0],zero
	movsd	-104(%rbp), %xmm1       ## xmm1 = mem[0],zero
	ucomisd	%xmm0, %xmm1
	setae	%al
LBB112_20:
	andb	$1, %al
	movb	%al, -129(%rbp)
	leaq	-128(%rbp), %rdi
	callq	__ZN14altered_carbon2js9JsVariantD1Ev
	leaq	-72(%rbp), %rdi
	callq	__ZN14altered_carbon2js9JsVariantD1Ev
	jmp	LBB112_53
LBB112_21:
	cmpl	$7, 8(%rbx)
	jne	LBB112_23
## %bb.22:
	movq	16(%rbx), %rax
	cmpl	$10, 8(%rax)
	je	LBB112_24
	jmp	LBB112_50
LBB112_23:
	cmpl	$10, 8(%rbx)
	jne	LBB112_50
LBB112_24:
	movq	-144(%rbp), %rax
	cmpl	$7, 8(%rax)
	jne	LBB112_26
## %bb.25:
	movq	-144(%rbp), %rax
	movq	16(%rax), %rax
	cmpl	$10, 8(%rax)
	je	LBB112_27
	jmp	LBB112_50
LBB112_26:
	movq	-144(%rbp), %rax
	cmpl	$10, 8(%rax)
	jne	LBB112_50
LBB112_27:
	movq	16(%rbx), %rax
	movq	-144(%rbp), %rcx
	movq	16(%rcx), %rcx
	movq	%rax, -216(%rbp)
	movq	%rcx, -208(%rbp)
	movq	-208(%rbp), %rax
	movq	-216(%rbp), %rcx
	movq	%rax, -232(%rbp)
	movq	%rcx, -224(%rbp)
	movq	-232(%rbp), %rax
	movq	-224(%rbp), %rcx
	movq	%rax, -264(%rbp)
	movq	%rcx, -256(%rbp)
	movq	-264(%rbp), %rax
	movq	-256(%rbp), %rcx
	movq	%rcx, -272(%rbp)
	movq	-272(%rbp), %rcx
	movq	%rcx, -280(%rbp)
	movq	-280(%rbp), %rdx
	movq	%rdx, -288(%rbp)
	movq	-288(%rbp), %rdx
	movq	%rdx, -296(%rbp)
	movq	-296(%rbp), %rsi
	movq	%rsi, -304(%rbp)
	movq	-304(%rbp), %rsi
	movq	%rsi, -312(%rbp)
	movq	-312(%rbp), %rsi
	movzbl	(%rsi), %esi
	andq	$1, %rsi
	cmpq	$0, %rsi
	je	LBB112_29
## %bb.28:
	movq	%rdx, -360(%rbp)
	movq	-360(%rbp), %rdx
	movq	%rdx, -368(%rbp)
	movq	-368(%rbp), %rdx
	movq	%rdx, -376(%rbp)
	movq	-376(%rbp), %rdx
	movq	16(%rdx), %rdx
	jmp	LBB112_30
LBB112_29:
	movq	%rdx, -320(%rbp)
	movq	-320(%rbp), %rdx
	movq	%rdx, -328(%rbp)
	movq	-328(%rbp), %rdx
	movq	%rdx, -336(%rbp)
	movq	-336(%rbp), %rdx
	addq	$4, %rdx
	movq	%rdx, -344(%rbp)
	movq	-344(%rbp), %rdx
	movq	%rdx, -352(%rbp)
	movq	-352(%rbp), %rdx
LBB112_30:
	movq	%rdx, -384(%rbp)
	movq	-384(%rbp), %rdx
	movq	%rcx, -440(%rbp)
	movq	-440(%rbp), %rcx
	movq	%rcx, -448(%rbp)
	movq	-448(%rbp), %rsi
	movq	%rsi, -456(%rbp)
	movq	-456(%rbp), %rsi
	movq	%rsi, -464(%rbp)
	movq	-464(%rbp), %rsi
	movzbl	(%rsi), %esi
	andq	$1, %rsi
	cmpq	$0, %rsi
	je	LBB112_32
## %bb.31:
	movq	%rcx, -496(%rbp)
	movq	-496(%rbp), %rcx
	movq	%rcx, -504(%rbp)
	movq	-504(%rbp), %rcx
	movq	%rcx, -512(%rbp)
	movq	-512(%rbp), %rcx
	movq	8(%rcx), %rcx
	jmp	LBB112_33
LBB112_32:
	movq	%rcx, -472(%rbp)
	movq	-472(%rbp), %rcx
	movq	%rcx, -480(%rbp)
	movq	-480(%rbp), %rcx
	movq	%rcx, -488(%rbp)
	movq	-488(%rbp), %rcx
	movzbl	(%rcx), %ecx
	sarl	$1, %ecx
	movslq	%ecx, %rcx
LBB112_33:
	leaq	-792(%rbp), %rsi
	movq	%rsi, -408(%rbp)
	movq	%rdx, -400(%rbp)
	movq	%rcx, -392(%rbp)
	movq	-408(%rbp), %rcx
	movq	-400(%rbp), %rdx
	movq	-392(%rbp), %rsi
	movq	%rcx, -432(%rbp)
	movq	%rdx, -424(%rbp)
	movq	%rsi, -416(%rbp)
	movq	-432(%rbp), %rcx
	movq	-424(%rbp), %rdx
	movq	%rdx, (%rcx)
	movq	-416(%rbp), %rdx
	movq	%rdx, 8(%rcx)
	movq	-792(%rbp), %rcx
	movq	-784(%rbp), %rdx
	movq	%rcx, -248(%rbp)
	movq	%rdx, -240(%rbp)
	movq	-248(%rbp), %rcx
	movq	-240(%rbp), %rdx
	movq	%rcx, -536(%rbp)
	movq	%rdx, -528(%rbp)
	movq	%rax, -520(%rbp)
	movq	-520(%rbp), %rax
	movq	%rax, -544(%rbp)
	movq	-544(%rbp), %rcx
	movq	%rcx, -552(%rbp)
	movq	-552(%rbp), %rdx
	movq	%rdx, -560(%rbp)
	movq	-560(%rbp), %rdx
	movq	%rdx, -568(%rbp)
	movq	-568(%rbp), %rdx
	movzbl	(%rdx), %edx
	andq	$1, %rdx
	cmpq	$0, %rdx
	je	LBB112_35
## %bb.34:
	movq	%rcx, -600(%rbp)
	movq	-600(%rbp), %rcx
	movq	%rcx, -608(%rbp)
	movq	-608(%rbp), %rcx
	movq	%rcx, -616(%rbp)
	movq	-616(%rbp), %rcx
	movq	8(%rcx), %rcx
	jmp	LBB112_36
LBB112_35:
	movq	%rcx, -576(%rbp)
	movq	-576(%rbp), %rcx
	movq	%rcx, -584(%rbp)
	movq	-584(%rbp), %rcx
	movq	%rcx, -592(%rbp)
	movq	-592(%rbp), %rcx
	movzbl	(%rcx), %ecx
	sarl	$1, %ecx
	movslq	%ecx, %rcx
LBB112_36:
	movq	%rcx, -176(%rbp)
	leaq	-536(%rbp), %rcx
	movq	%rcx, -624(%rbp)
	movq	-624(%rbp), %rcx
	movq	8(%rcx), %rcx
	movq	%rcx, -168(%rbp)
	movq	%rax, -672(%rbp)
	movq	-672(%rbp), %rax
	movq	%rax, -680(%rbp)
	movq	-680(%rbp), %rax
	movq	%rax, -688(%rbp)
	movq	-688(%rbp), %rcx
	movq	%rcx, -696(%rbp)
	movq	-696(%rbp), %rcx
	movq	%rcx, -704(%rbp)
	movq	-704(%rbp), %rcx
	movzbl	(%rcx), %ecx
	andq	$1, %rcx
	cmpq	$0, %rcx
	je	LBB112_38
## %bb.37:
	movq	%rax, -752(%rbp)
	movq	-752(%rbp), %rax
	movq	%rax, -760(%rbp)
	movq	-760(%rbp), %rax
	movq	%rax, -768(%rbp)
	movq	-768(%rbp), %rax
	movq	16(%rax), %rax
	jmp	LBB112_39
LBB112_38:
	movq	%rax, -712(%rbp)
	movq	-712(%rbp), %rax
	movq	%rax, -720(%rbp)
	movq	-720(%rbp), %rax
	movq	%rax, -728(%rbp)
	movq	-728(%rbp), %rax
	addq	$4, %rax
	movq	%rax, -736(%rbp)
	movq	-736(%rbp), %rax
	movq	%rax, -744(%rbp)
	movq	-744(%rbp), %rax
LBB112_39:
	movq	%rax, -776(%rbp)
	movq	-776(%rbp), %rdi
	leaq	-536(%rbp), %rax
	movq	%rax, -664(%rbp)
	movq	-664(%rbp), %rax
	movq	(%rax), %rsi
	leaq	-176(%rbp), %rax
	movq	%rax, -640(%rbp)
	leaq	-168(%rbp), %rax
	movq	%rax, -632(%rbp)
	movq	-640(%rbp), %rax
	movq	-632(%rbp), %rcx
	movq	%rax, -192(%rbp)
	movq	%rcx, -184(%rbp)
	movq	-184(%rbp), %rax
	movq	-192(%rbp), %rcx
	leaq	-152(%rbp), %rdx
	movq	%rdx, -800(%rbp)
	movq	%rax, -656(%rbp)
	movq	%rcx, -648(%rbp)
	movq	-656(%rbp), %rax
	movq	(%rax), %rax
	movq	-648(%rbp), %rcx
	cmpq	(%rcx), %rax
	jae	LBB112_41
## %bb.40:
	movq	-184(%rbp), %rax
	jmp	LBB112_42
LBB112_41:
	movq	-192(%rbp), %rax
LBB112_42:
	movq	(%rax), %rdx
	callq	__ZNSt3__111char_traitsIwE7compareEPKwS3_m
	movl	%eax, -156(%rbp)
	cmpl	$0, -156(%rbp)
	je	LBB112_44
## %bb.43:
	movl	-156(%rbp), %eax
	movl	%eax, -148(%rbp)
	jmp	LBB112_49
LBB112_44:
	movq	-176(%rbp), %rax
	cmpq	-168(%rbp), %rax
	jae	LBB112_46
## %bb.45:
	movl	$-1, -148(%rbp)
	jmp	LBB112_49
LBB112_46:
	movq	-176(%rbp), %rax
	cmpq	-168(%rbp), %rax
	jbe	LBB112_48
## %bb.47:
	movl	$1, -148(%rbp)
	jmp	LBB112_49
LBB112_48:
	movl	$0, -148(%rbp)
LBB112_49:
	cmpl	$0, -148(%rbp)
	setl	%al
	xorb	$-1, %al
	andb	$1, %al
	movb	%al, -129(%rbp)
	jmp	LBB112_53
LBB112_50:
	jmp	LBB112_51
LBB112_51:
	jmp	LBB112_52
LBB112_52:
	leaq	L___func__._ZNK14altered_carbon2js9JsVariantleERKS1_(%rip), %rdi
	leaq	L_.str.1(%rip), %rsi
	leaq	L_.str.3(%rip), %rcx
	movl	$585, %edx              ## imm = 0x249
	callq	___assert_rtn
LBB112_53:
	movb	-129(%rbp), %al
	andb	$1, %al
	movzbl	%al, %eax
	movq	-16(%rbp), %rcx
	movq	___stack_chk_guard@GOTPCREL(%rip), %rdx
	movq	(%rdx), %rdx
	subq	%rcx, %rdx
	jne	LBB112_54
	jmp	LBB112_55
LBB112_54:
	callq	___stack_chk_fail
LBB112_55:
	addq	$808, %rsp              ## imm = 0x328
	popq	%rbx
	popq	%rbp
	retq
	.cfi_endproc
                                        ## -- End function
	.globl	__ZNK14altered_carbon2js9JsVariant4eqvtERKS1_ ## -- Begin function _ZNK14altered_carbon2js9JsVariant4eqvtERKS1_
	.p2align	4, 0x90
__ZNK14altered_carbon2js9JsVariant4eqvtERKS1_: ## @_ZNK14altered_carbon2js9JsVariant4eqvtERKS1_
	.cfi_startproc
## %bb.0:
	pushq	%rbp
	.cfi_def_cfa_offset 16
	.cfi_offset %rbp, -16
	movq	%rsp, %rbp
	.cfi_def_cfa_register %rbp
	subq	$32, %rsp
	movq	%rdi, -24(%rbp)
	movq	%rsi, -8(%rbp)
	movq	-24(%rbp), %rdi
	cmpl	$7, 8(%rdi)
	jne	LBB113_2
## %bb.1:
	movq	16(%rdi), %rax
	movl	8(%rax), %eax
	jmp	LBB113_3
LBB113_2:
	movl	8(%rdi), %eax
LBB113_3:
	movl	%eax, -16(%rbp)
	movq	-8(%rbp), %rax
	cmpl	$7, 8(%rax)
	jne	LBB113_5
## %bb.4:
	movq	-8(%rbp), %rax
	movq	16(%rax), %rax
	movl	8(%rax), %ecx
	jmp	LBB113_6
LBB113_5:
	movl	8(%rdi), %ecx
LBB113_6:
	xorl	%eax, %eax
	movl	%ecx, -12(%rbp)
	movl	-16(%rbp), %ecx
	cmpl	-12(%rbp), %ecx
	jne	LBB113_8
## %bb.7:
	movq	-8(%rbp), %rsi
	callq	__ZNK14altered_carbon2js9JsVarianteqERKS1_
                                        ## kill: def $al killed $al def $eax
LBB113_8:
	andb	$1, %al
	movzbl	%al, %eax
	addq	$32, %rsp
	popq	%rbp
	retq
	.cfi_endproc
                                        ## -- End function
	.globl	__ZNK14altered_carbon2js9JsVariant4nevtERKS1_ ## -- Begin function _ZNK14altered_carbon2js9JsVariant4nevtERKS1_
	.p2align	4, 0x90
__ZNK14altered_carbon2js9JsVariant4nevtERKS1_: ## @_ZNK14altered_carbon2js9JsVariant4nevtERKS1_
	.cfi_startproc
## %bb.0:
	pushq	%rbp
	.cfi_def_cfa_offset 16
	.cfi_offset %rbp, -16
	movq	%rsp, %rbp
	.cfi_def_cfa_register %rbp
	subq	$16, %rsp
	movq	%rdi, -16(%rbp)
	movq	%rsi, -8(%rbp)
	movq	-16(%rbp), %rdi
	movq	-8(%rbp), %rsi
	callq	__ZNK14altered_carbon2js9JsVariant4eqvtERKS1_
	xorb	$-1, %al
	andb	$1, %al
	movzbl	%al, %eax
	addq	$16, %rsp
	popq	%rbp
	retq
	.cfi_endproc
                                        ## -- End function
	.section	__TEXT,__literal8,8byte_literals
	.p2align	3               ## -- Begin function _ZN14altered_carbon2js9JsVariantppEv
LCPI115_0:
	.quad	4607182418800017408     ## double 1
	.section	__TEXT,__text,regular,pure_instructions
	.globl	__ZN14altered_carbon2js9JsVariantppEv
	.p2align	4, 0x90
__ZN14altered_carbon2js9JsVariantppEv:  ## @_ZN14altered_carbon2js9JsVariantppEv
	.cfi_startproc
## %bb.0:
	pushq	%rbp
	.cfi_def_cfa_offset 16
	.cfi_offset %rbp, -16
	movq	%rsp, %rbp
	.cfi_def_cfa_register %rbp
	pushq	%rbx
	pushq	%rax
	.cfi_offset %rbx, -24
	movq	%rdi, -16(%rbp)
	movq	-16(%rbp), %rbx
	cmpl	$7, 8(%rbx)
	jne	LBB115_2
## %bb.1:
	movq	16(%rbx), %rax
	cmpl	$2, 8(%rax)
	je	LBB115_4
	jmp	LBB115_3
LBB115_2:
	cmpl	$2, 8(%rbx)
	je	LBB115_4
LBB115_3:
	movq	%rbx, %rdi
	movl	$2, %esi
	callq	__ZN14altered_carbon2js9JsVariant4convEi
LBB115_4:
	movsd	LCPI115_0(%rip), %xmm0  ## xmm0 = mem[0],zero
	movq	16(%rbx), %rax
	addq	$1, %rax
	movq	%rax, 16(%rbx)
	addsd	24(%rbx), %xmm0
	movsd	%xmm0, 24(%rbx)
	movq	%rbx, %rax
	addq	$8, %rsp
	popq	%rbx
	popq	%rbp
	retq
	.cfi_endproc
                                        ## -- End function
	.section	__TEXT,__literal8,8byte_literals
	.p2align	3               ## -- Begin function _ZN14altered_carbon2js9JsVariantmmEv
LCPI116_0:
	.quad	4607182418800017408     ## double 1
	.section	__TEXT,__text,regular,pure_instructions
	.globl	__ZN14altered_carbon2js9JsVariantmmEv
	.p2align	4, 0x90
__ZN14altered_carbon2js9JsVariantmmEv:  ## @_ZN14altered_carbon2js9JsVariantmmEv
	.cfi_startproc
## %bb.0:
	pushq	%rbp
	.cfi_def_cfa_offset 16
	.cfi_offset %rbp, -16
	movq	%rsp, %rbp
	.cfi_def_cfa_register %rbp
	pushq	%rbx
	pushq	%rax
	.cfi_offset %rbx, -24
	movq	%rdi, -16(%rbp)
	movq	-16(%rbp), %rbx
	cmpl	$7, 8(%rbx)
	jne	LBB116_2
## %bb.1:
	movq	16(%rbx), %rax
	cmpl	$2, 8(%rax)
	je	LBB116_4
	jmp	LBB116_3
LBB116_2:
	cmpl	$2, 8(%rbx)
	je	LBB116_4
LBB116_3:
	movq	%rbx, %rdi
	movl	$2, %esi
	callq	__ZN14altered_carbon2js9JsVariant4convEi
LBB116_4:
	movsd	LCPI116_0(%rip), %xmm0  ## xmm0 = mem[0],zero
	movq	16(%rbx), %rax
	addq	$-1, %rax
	movq	%rax, 16(%rbx)
	movsd	24(%rbx), %xmm1         ## xmm1 = mem[0],zero
	subsd	%xmm0, %xmm1
	movsd	%xmm1, 24(%rbx)
	movq	%rbx, %rax
	addq	$8, %rsp
	popq	%rbx
	popq	%rbp
	retq
	.cfi_endproc
                                        ## -- End function
	.section	__TEXT,__literal8,8byte_literals
	.p2align	3               ## -- Begin function _ZN14altered_carbon2js9JsVariantppEi
LCPI117_0:
	.quad	4607182418800017408     ## double 1
	.section	__TEXT,__text,regular,pure_instructions
	.globl	__ZN14altered_carbon2js9JsVariantppEi
	.p2align	4, 0x90
__ZN14altered_carbon2js9JsVariantppEi:  ## @_ZN14altered_carbon2js9JsVariantppEi
	.cfi_startproc
## %bb.0:
	pushq	%rbp
	.cfi_def_cfa_offset 16
	.cfi_offset %rbp, -16
	movq	%rsp, %rbp
	.cfi_def_cfa_register %rbp
	pushq	%r14
	pushq	%rbx
	subq	$32, %rsp
	.cfi_offset %rbx, -32
	.cfi_offset %r14, -24
	movq	%rdi, %r14
	movq	%rsi, -32(%rbp)
	movl	%edx, -36(%rbp)
	movq	-32(%rbp), %rbx
	cmpl	$7, 8(%rbx)
	jne	LBB117_2
## %bb.1:
	movq	16(%rbx), %rax
	cmpl	$2, 8(%rax)
	je	LBB117_4
	jmp	LBB117_3
LBB117_2:
	cmpl	$2, 8(%rbx)
	je	LBB117_4
LBB117_3:
	movq	%rbx, %rdi
	movl	$2, %esi
	callq	__ZN14altered_carbon2js9JsVariant4convEi
LBB117_4:
	movb	$0, -17(%rbp)
	movq	%rbx, %rsi
	addq	$16, %rsi
	movq	%r14, %rdi
	callq	__ZN14altered_carbon2js9JsVariantC1ERKNS0_15JsVariantNumberE
	movsd	LCPI117_0(%rip), %xmm0  ## xmm0 = mem[0],zero
	movq	16(%rbx), %rax
	addq	$1, %rax
	movq	%rax, 16(%rbx)
	addsd	24(%rbx), %xmm0
	movsd	%xmm0, 24(%rbx)
	movb	$1, -17(%rbp)
	testb	$1, -17(%rbp)
	jne	LBB117_6
## %bb.5:
	movq	%r14, %rdi
	callq	__ZN14altered_carbon2js9JsVariantD1Ev
LBB117_6:
	movq	%r14, %rax
	addq	$32, %rsp
	popq	%rbx
	popq	%r14
	popq	%rbp
	retq
	.cfi_endproc
                                        ## -- End function
	.section	__TEXT,__literal8,8byte_literals
	.p2align	3               ## -- Begin function _ZN14altered_carbon2js9JsVariantmmEi
LCPI118_0:
	.quad	4607182418800017408     ## double 1
	.section	__TEXT,__text,regular,pure_instructions
	.globl	__ZN14altered_carbon2js9JsVariantmmEi
	.p2align	4, 0x90
__ZN14altered_carbon2js9JsVariantmmEi:  ## @_ZN14altered_carbon2js9JsVariantmmEi
	.cfi_startproc
## %bb.0:
	pushq	%rbp
	.cfi_def_cfa_offset 16
	.cfi_offset %rbp, -16
	movq	%rsp, %rbp
	.cfi_def_cfa_register %rbp
	pushq	%r14
	pushq	%rbx
	subq	$32, %rsp
	.cfi_offset %rbx, -32
	.cfi_offset %r14, -24
	movq	%rdi, %r14
	movq	%rsi, -32(%rbp)
	movl	%edx, -36(%rbp)
	movq	-32(%rbp), %rbx
	cmpl	$7, 8(%rbx)
	jne	LBB118_2
## %bb.1:
	movq	16(%rbx), %rax
	cmpl	$2, 8(%rax)
	je	LBB118_4
	jmp	LBB118_3
LBB118_2:
	cmpl	$2, 8(%rbx)
	je	LBB118_4
LBB118_3:
	movq	%rbx, %rdi
	movl	$2, %esi
	callq	__ZN14altered_carbon2js9JsVariant4convEi
LBB118_4:
	movb	$0, -17(%rbp)
	movq	%rbx, %rsi
	addq	$16, %rsi
	movq	%r14, %rdi
	callq	__ZN14altered_carbon2js9JsVariantC1ERKNS0_15JsVariantNumberE
	movsd	LCPI118_0(%rip), %xmm0  ## xmm0 = mem[0],zero
	movq	16(%rbx), %rax
	addq	$-1, %rax
	movq	%rax, 16(%rbx)
	movsd	24(%rbx), %xmm1         ## xmm1 = mem[0],zero
	subsd	%xmm0, %xmm1
	movsd	%xmm1, 24(%rbx)
	movb	$1, -17(%rbp)
	testb	$1, -17(%rbp)
	jne	LBB118_6
## %bb.5:
	movq	%r14, %rdi
	callq	__ZN14altered_carbon2js9JsVariantD1Ev
LBB118_6:
	movq	%r14, %rax
	addq	$32, %rsp
	popq	%rbx
	popq	%r14
	popq	%rbp
	retq
	.cfi_endproc
                                        ## -- End function
	.globl	__ZN14altered_carbon2js9JsVariantngEv ## -- Begin function _ZN14altered_carbon2js9JsVariantngEv
	.p2align	4, 0x90
__ZN14altered_carbon2js9JsVariantngEv:  ## @_ZN14altered_carbon2js9JsVariantngEv
	.cfi_startproc
## %bb.0:
	pushq	%rbp
	.cfi_def_cfa_offset 16
	.cfi_offset %rbp, -16
	movq	%rsp, %rbp
	.cfi_def_cfa_register %rbp
	pushq	%rbx
	subq	$24, %rsp
	.cfi_offset %rbx, -24
	movq	%rdi, %rbx
	movq	%rsi, -24(%rbp)
	movq	-24(%rbp), %rsi
	movb	$0, -9(%rbp)
	movq	%rbx, %rdi
	movl	$2, %edx
	callq	__ZN14altered_carbon2js9JsVariantC1ERKS1_NS1_13JsVariantTypeE
	xorl	%eax, %eax
	subq	16(%rbx), %rax
	movq	%rax, 16(%rbx)
	movsd	24(%rbx), %xmm0         ## xmm0 = mem[0],zero
	movq	%xmm0, %rax
	movabsq	$-9223372036854775808, %rcx ## imm = 0x8000000000000000
	xorq	%rcx, %rax
	movq	%rax, %xmm0
	movsd	%xmm0, 24(%rbx)
	movb	$1, -9(%rbp)
	testb	$1, -9(%rbp)
	jne	LBB119_2
## %bb.1:
	movq	%rbx, %rdi
	callq	__ZN14altered_carbon2js9JsVariantD1Ev
LBB119_2:
	movq	%rbx, %rax
	addq	$24, %rsp
	popq	%rbx
	popq	%rbp
	retq
	.cfi_endproc
                                        ## -- End function
	.globl	__ZN14altered_carbon2js9JsVariantpsEv ## -- Begin function _ZN14altered_carbon2js9JsVariantpsEv
	.p2align	4, 0x90
__ZN14altered_carbon2js9JsVariantpsEv:  ## @_ZN14altered_carbon2js9JsVariantpsEv
	.cfi_startproc
## %bb.0:
	pushq	%rbp
	.cfi_def_cfa_offset 16
	.cfi_offset %rbp, -16
	movq	%rsp, %rbp
	.cfi_def_cfa_register %rbp
	pushq	%rbx
	pushq	%rax
	.cfi_offset %rbx, -24
	movq	%rdi, %rbx
	movq	%rsi, -16(%rbp)
	movq	-16(%rbp), %rsi
	movq	%rbx, %rdi
	movl	$2, %edx
	callq	__ZN14altered_carbon2js9JsVariantC1ERKS1_NS1_13JsVariantTypeE
	movq	%rbx, %rax
	addq	$8, %rsp
	popq	%rbx
	popq	%rbp
	retq
	.cfi_endproc
                                        ## -- End function
	.section	__TEXT,__literal8,8byte_literals
	.p2align	3               ## -- Begin function _ZN14altered_carbon2js9JsVariantcoEv
LCPI121_0:
	.quad	-4616189618054758400    ## double -1
	.section	__TEXT,__text,regular,pure_instructions
	.globl	__ZN14altered_carbon2js9JsVariantcoEv
	.p2align	4, 0x90
__ZN14altered_carbon2js9JsVariantcoEv:  ## @_ZN14altered_carbon2js9JsVariantcoEv
	.cfi_startproc
## %bb.0:
	pushq	%rbp
	.cfi_def_cfa_offset 16
	.cfi_offset %rbp, -16
	movq	%rsp, %rbp
	.cfi_def_cfa_register %rbp
	pushq	%rbx
	subq	$24, %rsp
	.cfi_offset %rbx, -24
	movq	%rdi, %rbx
	movq	%rsi, -24(%rbp)
	movq	-24(%rbp), %rsi
	movb	$0, -9(%rbp)
	movq	%rbx, %rdi
	movl	$2, %edx
	callq	__ZN14altered_carbon2js9JsVariantC1ERKS1_NS1_13JsVariantTypeE
	movq	%rbx, %rdi
	callq	__ZNK14altered_carbon2js9JsVariant5isNaNEv
	testb	$1, %al
	jne	LBB121_2
## %bb.1:
	movq	%rbx, %rdi
	callq	__ZNK14altered_carbon2js9JsVariant10isInfiniteEv
	testb	$1, %al
	jne	LBB121_2
	jmp	LBB121_3
LBB121_2:
	movsd	LCPI121_0(%rip), %xmm0  ## xmm0 = mem[0],zero
	movb	$1, 32(%rbx)
	movq	$-1, 16(%rbx)
	movsd	%xmm0, 24(%rbx)
	jmp	LBB121_4
LBB121_3:
	movb	$1, 32(%rbx)
	movq	16(%rbx), %rax
	xorq	$-1, %rax
	movq	%rax, 16(%rbx)
	movq	16(%rbx), %rax
	cvtsi2sdq	%rax, %xmm0
	movsd	%xmm0, 24(%rbx)
LBB121_4:
	movb	$1, -9(%rbp)
	testb	$1, -9(%rbp)
	jne	LBB121_6
## %bb.5:
	movq	%rbx, %rdi
	callq	__ZN14altered_carbon2js9JsVariantD1Ev
LBB121_6:
	movq	%rbx, %rax
	addq	$24, %rsp
	popq	%rbx
	popq	%rbp
	retq
	.cfi_endproc
                                        ## -- End function
	.section	__TEXT,__literal8,8byte_literals
	.p2align	3               ## -- Begin function _ZNK14altered_carbon2js9JsVariant10isInfiniteEv
LCPI122_0:
	.quad	9218868437227405312     ## double +Inf
	.section	__TEXT,__literal16,16byte_literals
	.p2align	4
LCPI122_1:
	.quad	9223372036854775807     ## double NaN
	.quad	9223372036854775807     ## double NaN
	.section	__TEXT,__text,regular,pure_instructions
	.private_extern	__ZNK14altered_carbon2js9JsVariant10isInfiniteEv
	.globl	__ZNK14altered_carbon2js9JsVariant10isInfiniteEv
	.weak_definition	__ZNK14altered_carbon2js9JsVariant10isInfiniteEv
	.p2align	4, 0x90
__ZNK14altered_carbon2js9JsVariant10isInfiniteEv: ## @_ZNK14altered_carbon2js9JsVariant10isInfiniteEv
	.cfi_startproc
## %bb.0:
	pushq	%rbp
	.cfi_def_cfa_offset 16
	.cfi_offset %rbp, -16
	movq	%rsp, %rbp
	.cfi_def_cfa_register %rbp
	subq	$32, %rsp
	movq	%rdi, -8(%rbp)
	movq	-8(%rbp), %rcx
	cmpl	$7, 8(%rcx)
	jne	LBB122_2
## %bb.1:
	movq	16(%rcx), %rdi
	callq	__ZNK14altered_carbon2js9JsVariant10isInfiniteEv
                                        ## kill: def $al killed $al def $eax
	jmp	LBB122_5
LBB122_2:
	xorl	%eax, %eax
	cmpl	$2, 8(%rcx)
	jne	LBB122_4
## %bb.3:
	movsd	LCPI122_0(%rip), %xmm0  ## xmm0 = mem[0],zero
	movsd	24(%rcx), %xmm1         ## xmm1 = mem[0],zero
	movsd	%xmm1, -16(%rbp)
	movsd	-16(%rbp), %xmm1        ## xmm1 = mem[0],zero
	movsd	%xmm1, -24(%rbp)
	movsd	-24(%rbp), %xmm1        ## xmm1 = mem[0],zero
	movsd	%xmm1, -32(%rbp)
	movsd	-32(%rbp), %xmm1        ## xmm1 = mem[0],zero
	movaps	LCPI122_1(%rip), %xmm2  ## xmm2 = [nan,nan]
	pand	%xmm2, %xmm1
	ucomisd	%xmm0, %xmm1
	sete	%al
	setnp	%cl
	andb	%cl, %al
LBB122_4:
LBB122_5:
	andb	$1, %al
	movzbl	%al, %eax
	addq	$32, %rsp
	popq	%rbp
	retq
	.cfi_endproc
                                        ## -- End function
	.globl	__ZNK14altered_carbon2js9JsVariantixEj ## -- Begin function _ZNK14altered_carbon2js9JsVariantixEj
	.p2align	4, 0x90
__ZNK14altered_carbon2js9JsVariantixEj: ## @_ZNK14altered_carbon2js9JsVariantixEj
	.cfi_startproc
## %bb.0:
	pushq	%rbp
	.cfi_def_cfa_offset 16
	.cfi_offset %rbp, -16
	movq	%rsp, %rbp
	.cfi_def_cfa_register %rbp
	pushq	%r14
	pushq	%rbx
	subq	$112, %rsp
	.cfi_offset %rbx, -32
	.cfi_offset %r14, -24
	movq	%rdi, %r14
	movq	%rsi, -40(%rbp)
	movl	%edx, -20(%rbp)
	movq	-40(%rbp), %rbx
	movl	8(%rbx), %eax
	movl	%eax, %ecx
	subl	$10, %ecx
	je	LBB123_3
	jmp	LBB123_1
LBB123_1:
	movl	%eax, %ecx
	subl	$12, %ecx
	je	LBB123_10
	jmp	LBB123_2
LBB123_2:
	subl	$14, %eax
	je	LBB123_9
	jmp	LBB123_18
LBB123_3:
	movl	-20(%rbp), %eax
	movq	16(%rbx), %rcx
	movq	%rcx, -48(%rbp)
	movq	-48(%rbp), %rcx
	movq	%rcx, -56(%rbp)
	movq	-56(%rbp), %rcx
	movq	%rcx, -64(%rbp)
	movq	-64(%rbp), %rdx
	movq	%rdx, -72(%rbp)
	movq	-72(%rbp), %rdx
	movq	%rdx, -80(%rbp)
	movq	-80(%rbp), %rdx
	movzbl	(%rdx), %edx
	andq	$1, %rdx
	cmpq	$0, %rdx
	je	LBB123_5
## %bb.4:
	movq	%rcx, -112(%rbp)
	movq	-112(%rbp), %rcx
	movq	%rcx, -120(%rbp)
	movq	-120(%rbp), %rcx
	movq	%rcx, -128(%rbp)
	movq	-128(%rbp), %rcx
	movq	8(%rcx), %rcx
	jmp	LBB123_6
LBB123_5:
	movq	%rcx, -88(%rbp)
	movq	-88(%rbp), %rcx
	movq	%rcx, -96(%rbp)
	movq	-96(%rbp), %rcx
	movq	%rcx, -104(%rbp)
	movq	-104(%rbp), %rcx
	movzbl	(%rcx), %ecx
	sarl	$1, %ecx
	movslq	%ecx, %rcx
LBB123_6:
	cmpq	%rcx, %rax
	jae	LBB123_8
## %bb.7:
	movq	16(%rbx), %rdi
	movl	-20(%rbp), %esi
	callq	__ZNSt3__112basic_stringIwNS_11char_traitsIwEENS_9allocatorIwEEE2atEm
	movl	(%rax), %esi
	movq	%r14, %rdi
	callq	__ZN14altered_carbon2js9JsVariantC1Ew
	jmp	LBB123_20
LBB123_8:
	jmp	LBB123_19
LBB123_9:
	jmp	LBB123_19
LBB123_10:
	movq	%rbx, %rdi
	addq	$16, %rdi
	callq	__ZNK14altered_carbon2js13RefCountedPtrINS0_14JsVariantArrayEE3getEv
	cmpq	$0, %rax
	setne	%al
	xorb	$-1, %al
	xorb	$-1, %al
	xorb	$-1, %al
	testb	$1, %al
	jne	LBB123_11
	jmp	LBB123_12
LBB123_11:
	leaq	L___func__._ZNK14altered_carbon2js9JsVariantixEj(%rip), %rdi
	leaq	L_.str.1(%rip), %rsi
	leaq	L_.str.32(%rip), %rcx
	movl	$670, %edx              ## imm = 0x29E
	callq	___assert_rtn
LBB123_12:
	jmp	LBB123_13
LBB123_13:
	addq	$16, %rbx
	movq	%rbx, %rdi
	callq	__ZNK14altered_carbon2js13RefCountedPtrINS0_14JsVariantArrayEEptEv
	movl	-20(%rbp), %esi
	movl	-20(%rbp), %edx
	movq	%rax, %rdi
	callq	__ZNK14altered_carbon2js14JsVariantArray13searchByIndexEjj
	movq	%rax, -32(%rbp)
	cmpq	$0, -32(%rbp)
	je	LBB123_17
## %bb.14:
	movl	-20(%rbp), %eax
	movq	-32(%rbp), %rcx
	cmpl	8(%rcx), %eax
	jb	LBB123_17
## %bb.15:
	movl	-20(%rbp), %eax
	movq	-32(%rbp), %rcx
	cmpl	12(%rcx), %eax
	ja	LBB123_17
## %bb.16:
	movq	-32(%rbp), %rdi
	movl	-20(%rbp), %esi
	movq	-32(%rbp), %rax
	subl	8(%rax), %esi
	callq	__ZNK14altered_carbon2js10RBTreeNodeINS0_9JsVariantEEixEj
	movq	%r14, %rdi
	movq	%rax, %rsi
	callq	__ZN14altered_carbon2js9JsVariantC1ERKS1_
	jmp	LBB123_20
LBB123_17:
	jmp	LBB123_19
LBB123_18:
	jmp	LBB123_19
LBB123_19:
	movq	%r14, %rdi
	leaq	__ZN14altered_carbon2js11JsConstants9UndefinedE(%rip), %rsi
	callq	__ZN14altered_carbon2js9JsVariantC1ERKS1_
LBB123_20:
	movq	%r14, %rax
	addq	$112, %rsp
	popq	%rbx
	popq	%r14
	popq	%rbp
	retq
	.cfi_endproc
                                        ## -- End function
	.globl	__ZNK14altered_carbon2js14JsVariantArray13searchByIndexEjj ## -- Begin function _ZNK14altered_carbon2js14JsVariantArray13searchByIndexEjj
	.p2align	4, 0x90
__ZNK14altered_carbon2js14JsVariantArray13searchByIndexEjj: ## @_ZNK14altered_carbon2js14JsVariantArray13searchByIndexEjj
	.cfi_startproc
## %bb.0:
	pushq	%rbp
	.cfi_def_cfa_offset 16
	.cfi_offset %rbp, -16
	movq	%rsp, %rbp
	.cfi_def_cfa_register %rbp
	movq	%rdi, -24(%rbp)
	movl	%esi, -16(%rbp)
	movl	%edx, -12(%rbp)
	movq	-24(%rbp), %rax
	movq	8(%rax), %rax
	movq	%rax, -8(%rbp)
LBB124_1:                               ## =>This Inner Loop Header: Depth=1
	cmpq	$0, -8(%rbp)
	setne	%al
	xorb	$-1, %al
	xorb	$-1, %al
	testb	$1, %al
	jne	LBB124_2
	jmp	LBB124_14
LBB124_2:                               ##   in Loop: Header=BB124_1 Depth=1
	movl	-16(%rbp), %eax
	movq	-8(%rbp), %rcx
	cmpl	12(%rcx), %eax
	jbe	LBB124_7
## %bb.3:                               ##   in Loop: Header=BB124_1 Depth=1
	movq	-8(%rbp), %rax
	cmpq	$0, 40(%rax)
	je	LBB124_6
## %bb.4:                               ##   in Loop: Header=BB124_1 Depth=1
	movq	-8(%rbp), %rax
	movq	40(%rax), %rax
	movq	%rax, -8(%rbp)
LBB124_5:                               ## %.backedge
                                        ##   in Loop: Header=BB124_1 Depth=1
	jmp	LBB124_1
LBB124_6:
	jmp	LBB124_13
LBB124_7:                               ##   in Loop: Header=BB124_1 Depth=1
	movl	-12(%rbp), %eax
	movq	-8(%rbp), %rcx
	cmpl	8(%rcx), %eax
	jae	LBB124_11
## %bb.8:                               ##   in Loop: Header=BB124_1 Depth=1
	movq	-8(%rbp), %rax
	cmpq	$0, 32(%rax)
	je	LBB124_10
## %bb.9:                               ##   in Loop: Header=BB124_1 Depth=1
	movq	-8(%rbp), %rax
	movq	32(%rax), %rax
	movq	%rax, -8(%rbp)
	jmp	LBB124_5
LBB124_10:
	jmp	LBB124_12
LBB124_11:                              ## %.loopexit1
	jmp	LBB124_12
LBB124_12:
	jmp	LBB124_13
LBB124_13:
	jmp	LBB124_15
LBB124_14:                              ## %.loopexit
	jmp	LBB124_15
LBB124_15:
	movq	-8(%rbp), %rax
	popq	%rbp
	retq
	.cfi_endproc
                                        ## -- End function
	.private_extern	__ZNK14altered_carbon2js10RBTreeNodeINS0_9JsVariantEEixEj ## -- Begin function _ZNK14altered_carbon2js10RBTreeNodeINS0_9JsVariantEEixEj
	.globl	__ZNK14altered_carbon2js10RBTreeNodeINS0_9JsVariantEEixEj
	.weak_definition	__ZNK14altered_carbon2js10RBTreeNodeINS0_9JsVariantEEixEj
	.p2align	4, 0x90
__ZNK14altered_carbon2js10RBTreeNodeINS0_9JsVariantEEixEj: ## @_ZNK14altered_carbon2js10RBTreeNodeINS0_9JsVariantEEixEj
	.cfi_startproc
## %bb.0:
	pushq	%rbp
	.cfi_def_cfa_offset 16
	.cfi_offset %rbp, -16
	movq	%rsp, %rbp
	.cfi_def_cfa_register %rbp
	subq	$48, %rsp
	xorl	%ecx, %ecx
	movq	%rdi, -16(%rbp)
	movl	%esi, -4(%rbp)
	movq	-16(%rbp), %rax
	cmpl	$0, -4(%rbp)
	jb	LBB125_2
## %bb.1:
	movl	-4(%rbp), %ecx
	movq	%rax, %rdx
	addq	$48, %rdx
	movq	%rdx, -24(%rbp)
	movq	-24(%rbp), %rdx
	movq	8(%rdx), %rsi
	movq	(%rdx), %rdx
	subq	%rdx, %rsi
	sarq	$3, %rsi
	cmpq	%rsi, %rcx
	setb	%cl
LBB125_2:
	xorb	$-1, %cl
	testb	$1, %cl
	jne	LBB125_3
	jmp	LBB125_4
LBB125_3:
	leaq	L___func__._ZNK14altered_carbon2js9JsVariantixEj(%rip), %rdi
	leaq	L_.str.73(%rip), %rsi
	leaq	L_.str.75(%rip), %rcx
	movl	$490, %edx              ## imm = 0x1EA
	callq	___assert_rtn
LBB125_4:
	jmp	LBB125_5
LBB125_5:
	addq	$48, %rax
	movl	-4(%rbp), %ecx
	movq	%rax, -40(%rbp)
	movq	%rcx, -32(%rbp)
	movq	-40(%rbp), %rax
	movq	(%rax), %rax
	movq	-32(%rbp), %rcx
	movq	(%rax,%rcx,8), %rax
	addq	$48, %rsp
	popq	%rbp
	retq
	.cfi_endproc
                                        ## -- End function
	.globl	__ZNK14altered_carbon2js9JsVariantixERS1_ ## -- Begin function _ZNK14altered_carbon2js9JsVariantixERS1_
	.p2align	4, 0x90
__ZNK14altered_carbon2js9JsVariantixERS1_: ## @_ZNK14altered_carbon2js9JsVariantixERS1_
	.cfi_startproc
## %bb.0:
	pushq	%rbp
	.cfi_def_cfa_offset 16
	.cfi_offset %rbp, -16
	movq	%rsp, %rbp
	.cfi_def_cfa_register %rbp
	pushq	%r14
	pushq	%rbx
	subq	$80, %rsp
	.cfi_offset %rbx, -32
	.cfi_offset %r14, -24
	movq	%rdi, %r14
	movq	___stack_chk_guard@GOTPCREL(%rip), %rax
	movq	(%rax), %rax
	movq	%rax, -24(%rbp)
	movq	%rsi, -96(%rbp)
	movq	%rdx, -88(%rbp)
	movq	-96(%rbp), %rbx
	movq	-88(%rbp), %rax
	movl	8(%rax), %eax
	movl	%eax, %ecx
	subl	$2, %ecx
	je	LBB126_2
	jmp	LBB126_1
LBB126_1:
	subl	$10, %eax
	je	LBB126_3
	jmp	LBB126_4
LBB126_2:
	movq	-88(%rbp), %rdi
	callq	__ZNK14altered_carbon2js9JsVariant5int_vEv
	movq	%r14, %rdi
	movq	%rbx, %rsi
	movl	%eax, %edx
	callq	__ZNK14altered_carbon2js9JsVariantixEj
	jmp	LBB126_5
LBB126_3:
	leaq	L___func__._ZNK14altered_carbon2js9JsVariantixEj(%rip), %rdi
	leaq	L_.str.1(%rip), %rsi
	leaq	L_.str.33(%rip), %rcx
	movl	$689, %edx              ## imm = 0x2B1
	callq	___assert_rtn
LBB126_4:
	movq	-88(%rbp), %rsi
