	.section	__TEXT,__text,regular,pure_instructions
	.macosx_version_min 10, 13
	.globl	__Z7_scriptPN14altered_carbon2js9JsVariantE ## -- Begin function _Z7_scriptPN14altered_carbon2js9JsVariantE
	.p2align	4, 0x90
__Z7_scriptPN14altered_carbon2js9JsVariantE: ## @_Z7_scriptPN14altered_carbon2js9JsVariantE
	.cfi_startproc
## %bb.0:                               ## %init.bb
	pushq	%rbp
	.cfi_def_cfa_offset 16
	.cfi_offset %rbp, -16
	movq	%rsp, %rbp
	.cfi_def_cfa_register %rbp
	pushq	%r15
	pushq	%r14
	pushq	%r13
	pushq	%r12
	pushq	%rbx
	subq	$57528, %rsp            ## imm = 0xE0B8
	.cfi_offset %rbx, -56
	.cfi_offset %r12, -48
	.cfi_offset %r13, -40
	.cfi_offset %r14, -32
	.cfi_offset %r15, -24
	movq	%rdi, -5032(%rbp)       ## 8-byte Spill
	movq	__ZTVN14altered_carbon2js9JsVariantE@GOTPCREL(%rip), %r14
	addq	$16, %r14
	movq	%r14, -57288(%rbp)
	movl	$1, -57280(%rbp)
	movq	%r14, -57232(%rbp)
	movl	$1, -57224(%rbp)
	movq	%r14, -57176(%rbp)
	movl	$1, -57168(%rbp)
	movq	%r14, -57120(%rbp)
	movl	$1, -57112(%rbp)
	movq	%r14, -57064(%rbp)
	movl	$1, -57056(%rbp)
	movq	%r14, -57008(%rbp)
	movl	$1, -57000(%rbp)
	movq	%r14, -56952(%rbp)
	movl	$1, -56944(%rbp)
	movq	%r14, -56896(%rbp)
	movl	$1, -56888(%rbp)
	movq	%r14, -56840(%rbp)
	movl	$1, -56832(%rbp)
	movq	%r14, -56784(%rbp)
	movl	$1, -56776(%rbp)
	movq	%r14, -56728(%rbp)
	movl	$1, -56720(%rbp)
	movq	%r14, -56672(%rbp)
	movl	$1, -56664(%rbp)
	movq	%r14, -56616(%rbp)
	movl	$1, -56608(%rbp)
	movq	%r14, -56560(%rbp)
	movl	$1, -56552(%rbp)
	movq	%r14, -56504(%rbp)
	movl	$1, -56496(%rbp)
	movq	%r14, -56448(%rbp)
	movl	$1, -56440(%rbp)
	movq	%r14, -56392(%rbp)
	movl	$1, -56384(%rbp)
	movq	%r14, -56336(%rbp)
	movl	$1, -56328(%rbp)
	movq	%r14, -56280(%rbp)
	movl	$1, -56272(%rbp)
	movq	%r14, -56224(%rbp)
	movl	$1, -56216(%rbp)
	movq	%r14, -56168(%rbp)
	movl	$1, -56160(%rbp)
	movq	%r14, -56112(%rbp)
	movl	$1, -56104(%rbp)
	movq	%r14, -56056(%rbp)
	movl	$1, -56048(%rbp)
	movq	%r14, -56000(%rbp)
	movl	$1, -55992(%rbp)
	movq	%r14, -55944(%rbp)
	movl	$1, -55936(%rbp)
	movq	%r14, -55888(%rbp)
	movl	$1, -55880(%rbp)
	movq	%r14, -55832(%rbp)
	movl	$1, -55824(%rbp)
	movq	%r14, -55776(%rbp)
	movl	$1, -55768(%rbp)
	movq	%r14, -55720(%rbp)
	movl	$1, -55712(%rbp)
	movq	%r14, -55664(%rbp)
	movl	$1, -55656(%rbp)
	movq	%r14, -55608(%rbp)
	movl	$1, -55600(%rbp)
	movq	%r14, -55552(%rbp)
	movl	$1, -55544(%rbp)
	movq	%r14, -55496(%rbp)
	movl	$1, -55488(%rbp)
	movq	%r14, -55440(%rbp)
	movl	$1, -55432(%rbp)
	movq	%r14, -55384(%rbp)
	movl	$1, -55376(%rbp)
	movq	%r14, -55328(%rbp)
	movl	$1, -55320(%rbp)
	movq	%r14, -55272(%rbp)
	movl	$1, -55264(%rbp)
	movq	%r14, -55216(%rbp)
	movl	$1, -55208(%rbp)
	movq	%r14, -55160(%rbp)
	movl	$1, -55152(%rbp)
	movq	%r14, -55104(%rbp)
	movl	$1, -55096(%rbp)
	movq	%r14, -55048(%rbp)
	movl	$1, -55040(%rbp)
	movq	%r14, -54992(%rbp)
	movl	$1, -54984(%rbp)
	movq	%r14, -54936(%rbp)
	movl	$1, -54928(%rbp)
	movq	%r14, -54880(%rbp)
	movl	$1, -54872(%rbp)
	movq	%r14, -54824(%rbp)
	movl	$1, -54816(%rbp)
	movq	%r14, -54768(%rbp)
	movl	$1, -54760(%rbp)
	movq	%r14, -54712(%rbp)
	movl	$1, -54704(%rbp)
	movq	%r14, -54656(%rbp)
	movl	$1, -54648(%rbp)
	movq	%r14, -54600(%rbp)
	movl	$1, -54592(%rbp)
	movq	%r14, -54544(%rbp)
	movl	$1, -54536(%rbp)
	movq	%r14, -54488(%rbp)
	movl	$1, -54480(%rbp)
	movq	%r14, -54432(%rbp)
	movl	$1, -54424(%rbp)
	movq	%r14, -54376(%rbp)
	movl	$1, -54368(%rbp)
	movq	%r14, -54320(%rbp)
	movl	$1, -54312(%rbp)
	movq	%r14, -54264(%rbp)
	movl	$1, -54256(%rbp)
	movq	%r14, -54208(%rbp)
	movl	$1, -54200(%rbp)
	movq	%r14, -54152(%rbp)
	movl	$1, -54144(%rbp)
	movq	%r14, -54096(%rbp)
	movl	$1, -54088(%rbp)
	movq	%r14, -54040(%rbp)
	movl	$1, -54032(%rbp)
	movq	%r14, -53984(%rbp)
	movl	$1, -53976(%rbp)
	movq	%r14, -53928(%rbp)
	movl	$1, -53920(%rbp)
	movq	%r14, -53872(%rbp)
	movl	$1, -53864(%rbp)
	movq	%r14, -53816(%rbp)
	movl	$1, -53808(%rbp)
	movq	%r14, -53760(%rbp)
	movl	$1, -53752(%rbp)
	movq	%r14, -53704(%rbp)
	movl	$1, -53696(%rbp)
	movq	%r14, -53648(%rbp)
	movl	$1, -53640(%rbp)
	movq	%r14, -53592(%rbp)
	movl	$1, -53584(%rbp)
	movq	%r14, -53536(%rbp)
	movl	$1, -53528(%rbp)
	movq	%r14, -53480(%rbp)
	movl	$1, -53472(%rbp)
	movq	%r14, -53424(%rbp)
	movl	$1, -53416(%rbp)
	movq	%r14, -53368(%rbp)
	movl	$1, -53360(%rbp)
	movq	%r14, -53312(%rbp)
	movl	$1, -53304(%rbp)
	movq	%r14, -53256(%rbp)
	movl	$1, -53248(%rbp)
	movq	%r14, -53200(%rbp)
	movl	$1, -53192(%rbp)
	movq	%r14, -53144(%rbp)
	movl	$1, -53136(%rbp)
	movq	%r14, -53088(%rbp)
	movl	$1, -53080(%rbp)
	movq	%r14, -53032(%rbp)
	movl	$1, -53024(%rbp)
	movq	%r14, -52976(%rbp)
	movl	$1, -52968(%rbp)
	movq	%r14, -52920(%rbp)
	movl	$1, -52912(%rbp)
	movq	%r14, -52864(%rbp)
	movl	$1, -52856(%rbp)
	movq	%r14, -52808(%rbp)
	movl	$1, -52800(%rbp)
	movq	%r14, -52752(%rbp)
	movl	$1, -52744(%rbp)
	movq	%r14, -52696(%rbp)
	movl	$1, -52688(%rbp)
	movq	%r14, -52640(%rbp)
	movl	$1, -52632(%rbp)
	movq	%r14, -52584(%rbp)
	movl	$1, -52576(%rbp)
	movq	%r14, -52528(%rbp)
	movl	$1, -52520(%rbp)
	movq	%r14, -52472(%rbp)
	movl	$1, -52464(%rbp)
	movq	%r14, -52416(%rbp)
	movl	$1, -52408(%rbp)
	movq	%r14, -52360(%rbp)
	movl	$1, -52352(%rbp)
	movq	%r14, -52304(%rbp)
	movl	$1, -52296(%rbp)
	movq	%r14, -52248(%rbp)
	movl	$1, -52240(%rbp)
	movq	%r14, -52192(%rbp)
	movl	$1, -52184(%rbp)
	movq	%r14, -52136(%rbp)
	movl	$1, -52128(%rbp)
	movq	%r14, -52080(%rbp)
	movl	$1, -52072(%rbp)
	movq	%r14, -52024(%rbp)
	movl	$1, -52016(%rbp)
	movq	%r14, -51968(%rbp)
	movl	$1, -51960(%rbp)
	movq	%r14, -51912(%rbp)
	movl	$1, -51904(%rbp)
	movq	%r14, -51856(%rbp)
	movl	$1, -51848(%rbp)
	movq	%r14, -51800(%rbp)
	movl	$1, -51792(%rbp)
	movq	%r14, -51744(%rbp)
	movl	$1, -51736(%rbp)
	movq	%r14, -51688(%rbp)
	movl	$1, -51680(%rbp)
	movq	%r14, -51632(%rbp)
	movl	$1, -51624(%rbp)
	movq	%r14, -51576(%rbp)
	movl	$1, -51568(%rbp)
	movq	%r14, -51520(%rbp)
	movl	$1, -51512(%rbp)
	movq	%r14, -51464(%rbp)
	movl	$1, -51456(%rbp)
	movq	%r14, -51408(%rbp)
	movl	$1, -51400(%rbp)
	movq	%r14, -51352(%rbp)
	movl	$1, -51344(%rbp)
	movq	%r14, -51296(%rbp)
	movl	$1, -51288(%rbp)
	movq	%r14, -51240(%rbp)
	movl	$1, -51232(%rbp)
	movq	%r14, -51184(%rbp)
	movl	$1, -51176(%rbp)
	movq	%r14, -51128(%rbp)
	movl	$1, -51120(%rbp)
	movq	%r14, -51072(%rbp)
	movl	$1, -51064(%rbp)
	movq	%r14, -51016(%rbp)
	movl	$1, -51008(%rbp)
	movq	%r14, -50960(%rbp)
	movl	$1, -50952(%rbp)
	movq	%r14, -50904(%rbp)
	movl	$1, -50896(%rbp)
	movq	%r14, -50848(%rbp)
	movl	$1, -50840(%rbp)
	movq	%r14, -50792(%rbp)
	movl	$1, -50784(%rbp)
	movq	%r14, -50736(%rbp)
	movl	$1, -50728(%rbp)
	movq	%r14, -50680(%rbp)
	movl	$1, -50672(%rbp)
	movq	%r14, -50624(%rbp)
	movl	$1, -50616(%rbp)
	movq	%r14, -50568(%rbp)
	movl	$1, -50560(%rbp)
	movq	%r14, -50512(%rbp)
	movl	$1, -50504(%rbp)
	movq	%r14, -50456(%rbp)
	movl	$1, -50448(%rbp)
	movq	%r14, -50400(%rbp)
	movl	$1, -50392(%rbp)
	movq	%r14, -50344(%rbp)
	movl	$1, -50336(%rbp)
	movq	%r14, -50288(%rbp)
	movl	$1, -50280(%rbp)
	movq	%r14, -50232(%rbp)
	movl	$1, -50224(%rbp)
	movq	%r14, -50176(%rbp)
	movl	$1, -50168(%rbp)
	movq	%r14, -50120(%rbp)
	movl	$1, -50112(%rbp)
	movq	%r14, -50064(%rbp)
	movl	$1, -50056(%rbp)
	movq	%r14, -50008(%rbp)
	movl	$1, -50000(%rbp)
	movq	%r14, -49952(%rbp)
	movl	$1, -49944(%rbp)
	movq	%r14, -49896(%rbp)
	movl	$1, -49888(%rbp)
	movq	%r14, -49840(%rbp)
	movl	$1, -49832(%rbp)
	movq	%r14, -49784(%rbp)
	movl	$1, -49776(%rbp)
	movq	%r14, -49728(%rbp)
	movl	$1, -49720(%rbp)
	movq	%r14, -49672(%rbp)
	movl	$1, -49664(%rbp)
	movq	%r14, -49616(%rbp)
	movl	$1, -49608(%rbp)
	movq	%r14, -49560(%rbp)
	movl	$1, -49552(%rbp)
	movq	%r14, -49504(%rbp)
	movl	$1, -49496(%rbp)
	movq	%r14, -49448(%rbp)
	movl	$1, -49440(%rbp)
	movq	%r14, -49392(%rbp)
	movl	$1, -49384(%rbp)
	movq	%r14, -49336(%rbp)
	movl	$1, -49328(%rbp)
	movq	%r14, -49280(%rbp)
	movl	$1, -49272(%rbp)
	movq	%r14, -49224(%rbp)
	movl	$1, -49216(%rbp)
	movq	%r14, -49168(%rbp)
	movl	$1, -49160(%rbp)
	movq	%r14, -49112(%rbp)
	movl	$1, -49104(%rbp)
	movq	%r14, -49056(%rbp)
	movl	$1, -49048(%rbp)
	movq	%r14, -49000(%rbp)
	movl	$1, -48992(%rbp)
	movq	%r14, -48944(%rbp)
	movl	$1, -48936(%rbp)
	movq	%r14, -48888(%rbp)
	movl	$1, -48880(%rbp)
	movq	%r14, -48832(%rbp)
	movl	$1, -48824(%rbp)
	movq	%r14, -48776(%rbp)
	movl	$1, -48768(%rbp)
	movq	%r14, -48720(%rbp)
	movl	$1, -48712(%rbp)
	movq	%r14, -48664(%rbp)
	movl	$1, -48656(%rbp)
	movq	%r14, -48608(%rbp)
	movl	$1, -48600(%rbp)
	movq	%r14, -48552(%rbp)
	movl	$1, -48544(%rbp)
	movq	%r14, -48496(%rbp)
	movl	$1, -48488(%rbp)
	movq	%r14, -48440(%rbp)
	movl	$1, -48432(%rbp)
	movq	%r14, -48384(%rbp)
	movl	$1, -48376(%rbp)
	movq	%r14, -48328(%rbp)
	movl	$1, -48320(%rbp)
	movq	%r14, -48272(%rbp)
	movl	$1, -48264(%rbp)
	movq	%r14, -48216(%rbp)
	movl	$1, -48208(%rbp)
	movq	%r14, -48160(%rbp)
	movl	$1, -48152(%rbp)
	movq	%r14, -48104(%rbp)
	movl	$1, -48096(%rbp)
	movq	%r14, -48048(%rbp)
	movl	$1, -48040(%rbp)
	movq	%r14, -47992(%rbp)
	movl	$1, -47984(%rbp)
	movq	%r14, -47936(%rbp)
	movl	$1, -47928(%rbp)
	movq	%r14, -47880(%rbp)
	movl	$1, -47872(%rbp)
	movq	%r14, -47824(%rbp)
	movl	$1, -47816(%rbp)
	movq	%r14, -47768(%rbp)
	movl	$1, -47760(%rbp)
	movq	%r14, -47712(%rbp)
	movl	$1, -47704(%rbp)
	movq	%r14, -47656(%rbp)
	movl	$1, -47648(%rbp)
	movq	%r14, -47600(%rbp)
	movl	$1, -47592(%rbp)
	movq	%r14, -47544(%rbp)
	movl	$1, -47536(%rbp)
	movq	%r14, -47488(%rbp)
	movl	$1, -47480(%rbp)
	movq	%r14, -47432(%rbp)
	movl	$1, -47424(%rbp)
	movq	%r14, -47376(%rbp)
	movl	$1, -47368(%rbp)
	movq	%r14, -47320(%rbp)
	movl	$1, -47312(%rbp)
	movq	%r14, -47264(%rbp)
	movl	$1, -47256(%rbp)
	movq	%r14, -47208(%rbp)
	movl	$1, -47200(%rbp)
	movq	%r14, -47152(%rbp)
	movl	$1, -47144(%rbp)
	movq	%r14, -47096(%rbp)
	movl	$1, -47088(%rbp)
	movq	%r14, -47040(%rbp)
	movl	$1, -47032(%rbp)
	movq	%r14, -46984(%rbp)
	movl	$1, -46976(%rbp)
	movq	%r14, -46928(%rbp)
	movl	$1, -46920(%rbp)
	movq	%r14, -46872(%rbp)
	movl	$1, -46864(%rbp)
	movq	%r14, -46816(%rbp)
	movl	$1, -46808(%rbp)
	movq	%r14, -46760(%rbp)
	movl	$1, -46752(%rbp)
	movq	%r14, -46704(%rbp)
	movl	$1, -46696(%rbp)
	movq	%r14, -46648(%rbp)
	movl	$1, -46640(%rbp)
	movq	%r14, -46592(%rbp)
	movl	$1, -46584(%rbp)
	movq	%r14, -46536(%rbp)
	movl	$1, -46528(%rbp)
	movq	%r14, -46480(%rbp)
	movl	$1, -46472(%rbp)
	movq	%r14, -46424(%rbp)
	movl	$1, -46416(%rbp)
	movq	%r14, -46368(%rbp)
	movl	$1, -46360(%rbp)
	movq	%r14, -46312(%rbp)
	movl	$1, -46304(%rbp)
	movq	%r14, -46256(%rbp)
	movl	$1, -46248(%rbp)
	movq	%r14, -46200(%rbp)
	movl	$1, -46192(%rbp)
	movq	%r14, -46144(%rbp)
	movl	$1, -46136(%rbp)
	movq	%r14, -46088(%rbp)
	movl	$1, -46080(%rbp)
	movq	%r14, -46032(%rbp)
	movl	$1, -46024(%rbp)
	movq	%r14, -45976(%rbp)
	movl	$1, -45968(%rbp)
	movq	%r14, -45920(%rbp)
	movl	$1, -45912(%rbp)
	movq	%r14, -45864(%rbp)
	movl	$1, -45856(%rbp)
	movq	%r14, -45808(%rbp)
	movl	$1, -45800(%rbp)
	movq	%r14, -45752(%rbp)
	movl	$1, -45744(%rbp)
	movq	%r14, -45696(%rbp)
	movl	$1, -45688(%rbp)
	movq	%r14, -45640(%rbp)
	movl	$1, -45632(%rbp)
	movq	%r14, -45584(%rbp)
	movl	$1, -45576(%rbp)
	movq	%r14, -45528(%rbp)
	movl	$1, -45520(%rbp)
	movq	%r14, -45472(%rbp)
	movl	$1, -45464(%rbp)
	movq	%r14, -45416(%rbp)
	movl	$1, -45408(%rbp)
	movq	%r14, -45360(%rbp)
	movl	$1, -45352(%rbp)
	movq	%r14, -45304(%rbp)
	movl	$1, -45296(%rbp)
	movq	%r14, -45248(%rbp)
	movl	$1, -45240(%rbp)
	movq	%r14, -45192(%rbp)
	movl	$1, -45184(%rbp)
	movq	%r14, -45136(%rbp)
	movl	$1, -45128(%rbp)
	movq	%r14, -45080(%rbp)
	movl	$1, -45072(%rbp)
	movq	%r14, -45024(%rbp)
	movl	$1, -45016(%rbp)
	movq	%r14, -44968(%rbp)
	movl	$1, -44960(%rbp)
	movq	%r14, -44912(%rbp)
	movl	$1, -44904(%rbp)
	movq	%r14, -44856(%rbp)
	movl	$1, -44848(%rbp)
	movq	%r14, -44800(%rbp)
	movl	$1, -44792(%rbp)
	movq	%r14, -44744(%rbp)
	movl	$1, -44736(%rbp)
	movq	%r14, -44688(%rbp)
	movl	$1, -44680(%rbp)
	movq	%r14, -44632(%rbp)
	movl	$1, -44624(%rbp)
	movq	%r14, -44576(%rbp)
	movl	$1, -44568(%rbp)
	movq	%r14, -44520(%rbp)
	movl	$1, -44512(%rbp)
	movq	%r14, -44464(%rbp)
	movl	$1, -44456(%rbp)
	movq	%r14, -44408(%rbp)
	movl	$1, -44400(%rbp)
	movq	%r14, -44352(%rbp)
	movl	$1, -44344(%rbp)
	movq	%r14, -44296(%rbp)
	movl	$1, -44288(%rbp)
	movq	%r14, -44240(%rbp)
	movl	$1, -44232(%rbp)
	movq	%r14, -44184(%rbp)
	movl	$1, -44176(%rbp)
	movq	%r14, -44128(%rbp)
	movl	$1, -44120(%rbp)
	movq	%r14, -44072(%rbp)
	movl	$1, -44064(%rbp)
	movq	%r14, -44016(%rbp)
	movl	$1, -44008(%rbp)
	movq	%r14, -43960(%rbp)
	movl	$1, -43952(%rbp)
	movq	%r14, -43904(%rbp)
	movl	$1, -43896(%rbp)
	movq	%r14, -43848(%rbp)
	movl	$1, -43840(%rbp)
	movq	%r14, -43792(%rbp)
	movl	$1, -43784(%rbp)
	movq	%r14, -43736(%rbp)
	movl	$1, -43728(%rbp)
	movq	%r14, -43680(%rbp)
	movl	$1, -43672(%rbp)
	movq	%r14, -43624(%rbp)
	movl	$1, -43616(%rbp)
	movq	%r14, -43568(%rbp)
	movl	$1, -43560(%rbp)
	movq	%r14, -43512(%rbp)
	movl	$1, -43504(%rbp)
	movq	%r14, -43456(%rbp)
	movl	$1, -43448(%rbp)
	movq	%r14, -43400(%rbp)
	movl	$1, -43392(%rbp)
	movq	%r14, -43344(%rbp)
	movl	$1, -43336(%rbp)
	movq	%r14, -43288(%rbp)
	movl	$1, -43280(%rbp)
	movq	%r14, -43232(%rbp)
	movl	$1, -43224(%rbp)
	movq	%r14, -43176(%rbp)
	movl	$1, -43168(%rbp)
	movq	%r14, -43120(%rbp)
	movl	$1, -43112(%rbp)
	movq	%r14, -43064(%rbp)
	movl	$1, -43056(%rbp)
	movq	%r14, -43008(%rbp)
	movl	$1, -43000(%rbp)
	movq	%r14, -42952(%rbp)
	movl	$1, -42944(%rbp)
	movq	%r14, -42896(%rbp)
	movl	$1, -42888(%rbp)
	movq	%r14, -42840(%rbp)
	movl	$1, -42832(%rbp)
	movq	%r14, -42784(%rbp)
	movl	$1, -42776(%rbp)
	movq	%r14, -42728(%rbp)
	movl	$1, -42720(%rbp)
	movq	%r14, -42672(%rbp)
	movl	$1, -42664(%rbp)
	movq	%r14, -42616(%rbp)
	movl	$1, -42608(%rbp)
	movq	%r14, -42560(%rbp)
	movl	$1, -42552(%rbp)
	movq	%r14, -42504(%rbp)
	movl	$1, -42496(%rbp)
	movq	%r14, -42448(%rbp)
	movl	$1, -42440(%rbp)
	movq	%r14, -42392(%rbp)
	movl	$1, -42384(%rbp)
	movq	%r14, -42336(%rbp)
	movl	$1, -42328(%rbp)
	movq	%r14, -42280(%rbp)
	movl	$1, -42272(%rbp)
	movq	%r14, -42224(%rbp)
	movl	$1, -42216(%rbp)
	movq	%r14, -42168(%rbp)
	movl	$1, -42160(%rbp)
	movq	%r14, -42112(%rbp)
	movl	$1, -42104(%rbp)
	movq	%r14, -42056(%rbp)
	movl	$1, -42048(%rbp)
	movq	%r14, -42000(%rbp)
	movl	$1, -41992(%rbp)
	movq	%r14, -41944(%rbp)
	movl	$1, -41936(%rbp)
	movq	%r14, -41888(%rbp)
	movl	$1, -41880(%rbp)
	movq	%r14, -41832(%rbp)
	movl	$1, -41824(%rbp)
	movq	%r14, -41776(%rbp)
	movl	$1, -41768(%rbp)
	movq	%r14, -41720(%rbp)
	movl	$1, -41712(%rbp)
	movq	%r14, -41664(%rbp)
	movl	$1, -41656(%rbp)
	movq	%r14, -41608(%rbp)
	movl	$1, -41600(%rbp)
	movq	%r14, -41552(%rbp)
	movl	$1, -41544(%rbp)
	movq	%r14, -41496(%rbp)
	movl	$1, -41488(%rbp)
	movq	%r14, -41440(%rbp)
	movl	$1, -41432(%rbp)
	movq	%r14, -41384(%rbp)
	movl	$1, -41376(%rbp)
	movq	%r14, -41328(%rbp)
	movl	$1, -41320(%rbp)
	movq	%r14, -41272(%rbp)
	movl	$1, -41264(%rbp)
	movq	%r14, -41216(%rbp)
	movl	$1, -41208(%rbp)
	movq	%r14, -41160(%rbp)
	movl	$1, -41152(%rbp)
	movq	%r14, -41104(%rbp)
	movl	$1, -41096(%rbp)
	movq	%r14, -41048(%rbp)
	movl	$1, -41040(%rbp)
	movq	%r14, -40992(%rbp)
	movl	$1, -40984(%rbp)
	movq	%r14, -40936(%rbp)
	movl	$1, -40928(%rbp)
	movq	%r14, -40880(%rbp)
	movl	$1, -40872(%rbp)
	movq	%r14, -40824(%rbp)
	movl	$1, -40816(%rbp)
	movq	%r14, -40768(%rbp)
	movl	$1, -40760(%rbp)
	movq	%r14, -40712(%rbp)
	movl	$1, -40704(%rbp)
	movq	%r14, -40656(%rbp)
	movl	$1, -40648(%rbp)
	movq	%r14, -40600(%rbp)
	movl	$1, -40592(%rbp)
	movq	%r14, -40544(%rbp)
	movl	$1, -40536(%rbp)
	movq	%r14, -40488(%rbp)
	movl	$1, -40480(%rbp)
	movq	%r14, -40432(%rbp)
	movl	$1, -40424(%rbp)
	movq	%r14, -40376(%rbp)
	movl	$1, -40368(%rbp)
	movq	%r14, -40320(%rbp)
	movl	$1, -40312(%rbp)
	movq	%r14, -40264(%rbp)
	movl	$1, -40256(%rbp)
	movq	%r14, -40208(%rbp)
	movl	$1, -40200(%rbp)
	movq	%r14, -40152(%rbp)
	movl	$1, -40144(%rbp)
	movq	%r14, -40096(%rbp)
	movl	$1, -40088(%rbp)
	movq	%r14, -40040(%rbp)
	movl	$1, -40032(%rbp)
	movq	%r14, -39984(%rbp)
	movl	$1, -39976(%rbp)
	movq	%r14, -39928(%rbp)
	movl	$1, -39920(%rbp)
	movq	%r14, -39872(%rbp)
	movl	$1, -39864(%rbp)
	movq	%r14, -39816(%rbp)
	movl	$1, -39808(%rbp)
	movq	%r14, -39760(%rbp)
	movl	$1, -39752(%rbp)
	movq	%r14, -39704(%rbp)
	movl	$1, -39696(%rbp)
	movq	%r14, -39648(%rbp)
	movl	$1, -39640(%rbp)
	movq	%r14, -39592(%rbp)
	movl	$1, -39584(%rbp)
	movq	%r14, -39536(%rbp)
	movl	$1, -39528(%rbp)
	movq	%r14, -39480(%rbp)
	movl	$1, -39472(%rbp)
	movq	%r14, -39424(%rbp)
	movl	$1, -39416(%rbp)
	movq	%r14, -39368(%rbp)
	movl	$1, -39360(%rbp)
	movq	%r14, -39312(%rbp)
	movl	$1, -39304(%rbp)
	movq	%r14, -39256(%rbp)
	movl	$1, -39248(%rbp)
	movq	%r14, -39200(%rbp)
	movl	$1, -39192(%rbp)
	movq	%r14, -39144(%rbp)
	movl	$1, -39136(%rbp)
	movq	%r14, -39088(%rbp)
	movl	$1, -39080(%rbp)
	movq	%r14, -39032(%rbp)
	movl	$1, -39024(%rbp)
	movq	%r14, -38976(%rbp)
	movl	$1, -38968(%rbp)
	movq	%r14, -38920(%rbp)
	movl	$1, -38912(%rbp)
	movq	%r14, -38864(%rbp)
	movl	$1, -38856(%rbp)
	movq	%r14, -38808(%rbp)
	movl	$1, -38800(%rbp)
	movq	%r14, -38752(%rbp)
	movl	$1, -38744(%rbp)
	movq	%r14, -38696(%rbp)
	movl	$1, -38688(%rbp)
	movq	%r14, -38640(%rbp)
	movl	$1, -38632(%rbp)
	movq	%r14, -38584(%rbp)
	movl	$1, -38576(%rbp)
	movq	%r14, -38528(%rbp)
	movl	$1, -38520(%rbp)
	movq	%r14, -38472(%rbp)
	movl	$1, -38464(%rbp)
	movq	%r14, -38416(%rbp)
	movl	$1, -38408(%rbp)
	movq	%r14, -38360(%rbp)
	movl	$1, -38352(%rbp)
	movq	%r14, -38304(%rbp)
	movl	$1, -38296(%rbp)
	movq	%r14, -38248(%rbp)
	movl	$1, -38240(%rbp)
	movq	%r14, -38192(%rbp)
	movl	$1, -38184(%rbp)
	movq	%r14, -38136(%rbp)
	movl	$1, -38128(%rbp)
	movq	%r14, -38080(%rbp)
	movl	$1, -38072(%rbp)
	movq	%r14, -38024(%rbp)
	movl	$1, -38016(%rbp)
	movq	%r14, -37968(%rbp)
	movl	$1, -37960(%rbp)
	movq	%r14, -37912(%rbp)
	movl	$1, -37904(%rbp)
	movq	%r14, -37856(%rbp)
	movl	$1, -37848(%rbp)
	movq	%r14, -37800(%rbp)
	movl	$1, -37792(%rbp)
	movq	%r14, -37744(%rbp)
	movl	$1, -37736(%rbp)
	movq	%r14, -37688(%rbp)
	movl	$1, -37680(%rbp)
	movq	%r14, -37632(%rbp)
	movl	$1, -37624(%rbp)
	movq	%r14, -37576(%rbp)
	movl	$1, -37568(%rbp)
	movq	%r14, -37520(%rbp)
	movl	$1, -37512(%rbp)
	movq	%r14, -37464(%rbp)
	movl	$1, -37456(%rbp)
	movq	%r14, -37408(%rbp)
	movl	$1, -37400(%rbp)
	movq	%r14, -37352(%rbp)
	movl	$1, -37344(%rbp)
	movq	%r14, -37296(%rbp)
	movl	$1, -37288(%rbp)
	movq	%r14, -37240(%rbp)
	movl	$1, -37232(%rbp)
	movq	%r14, -37184(%rbp)
	movl	$1, -37176(%rbp)
	movq	%r14, -37128(%rbp)
	movl	$1, -37120(%rbp)
	movq	%r14, -37072(%rbp)
	movl	$1, -37064(%rbp)
	movq	%r14, -37016(%rbp)
	movl	$1, -37008(%rbp)
	movq	%r14, -36960(%rbp)
	movl	$1, -36952(%rbp)
	movq	%r14, -36904(%rbp)
	movl	$1, -36896(%rbp)
	movq	%r14, -36848(%rbp)
	movl	$1, -36840(%rbp)
	movq	%r14, -36792(%rbp)
	movl	$1, -36784(%rbp)
	movq	%r14, -36736(%rbp)
	movl	$1, -36728(%rbp)
	movq	%r14, -36680(%rbp)
	movl	$1, -36672(%rbp)
	movq	%r14, -36624(%rbp)
	movl	$1, -36616(%rbp)
	movq	%r14, -36568(%rbp)
	movl	$1, -36560(%rbp)
	movq	%r14, -36512(%rbp)
	movl	$1, -36504(%rbp)
	movq	%r14, -36456(%rbp)
	movl	$1, -36448(%rbp)
	movq	%r14, -36400(%rbp)
	movl	$1, -36392(%rbp)
	movq	%r14, -36344(%rbp)
	movl	$1, -36336(%rbp)
	movq	%r14, -36288(%rbp)
	movl	$1, -36280(%rbp)
	movq	%r14, -36232(%rbp)
	movl	$1, -36224(%rbp)
	movq	%r14, -36176(%rbp)
	movl	$1, -36168(%rbp)
	movq	%r14, -36120(%rbp)
	movl	$1, -36112(%rbp)
	movq	%r14, -36064(%rbp)
	movl	$1, -36056(%rbp)
	movq	%r14, -36008(%rbp)
	movl	$1, -36000(%rbp)
	movq	%r14, -35952(%rbp)
	movl	$1, -35944(%rbp)
	movq	%r14, -35896(%rbp)
	movl	$1, -35888(%rbp)
	movq	%r14, -35840(%rbp)
	movl	$1, -35832(%rbp)
	movq	%r14, -35784(%rbp)
	movl	$1, -35776(%rbp)
	movq	%r14, -35728(%rbp)
	movl	$1, -35720(%rbp)
	movq	%r14, -35672(%rbp)
	movl	$1, -35664(%rbp)
	movq	%r14, -35616(%rbp)
	movl	$1, -35608(%rbp)
	movq	%r14, -35560(%rbp)
	movl	$1, -35552(%rbp)
	movq	%r14, -35504(%rbp)
	movl	$1, -35496(%rbp)
	movq	%r14, -35448(%rbp)
	movl	$1, -35440(%rbp)
	movq	%r14, -35392(%rbp)
	movl	$1, -35384(%rbp)
	movq	%r14, -35336(%rbp)
	movl	$1, -35328(%rbp)
	movq	%r14, -35280(%rbp)
	movl	$1, -35272(%rbp)
	movq	%r14, -35224(%rbp)
	movl	$1, -35216(%rbp)
	movq	%r14, -35168(%rbp)
	movl	$1, -35160(%rbp)
	movq	%r14, -35112(%rbp)
	movl	$1, -35104(%rbp)
	movq	%r14, -35056(%rbp)
	movl	$1, -35048(%rbp)
	movq	%r14, -35000(%rbp)
	movl	$1, -34992(%rbp)
	movq	%r14, -34944(%rbp)
	movl	$1, -34936(%rbp)
	movq	%r14, -34888(%rbp)
	movl	$1, -34880(%rbp)
	movq	%r14, -34832(%rbp)
	movl	$1, -34824(%rbp)
	movq	%r14, -34776(%rbp)
	movl	$1, -34768(%rbp)
	movq	%r14, -34720(%rbp)
	movl	$1, -34712(%rbp)
	movq	%r14, -34664(%rbp)
	movl	$1, -34656(%rbp)
	movq	%r14, -34608(%rbp)
	movl	$1, -34600(%rbp)
	movq	%r14, -34552(%rbp)
	movl	$1, -34544(%rbp)
	movq	%r14, -34496(%rbp)
	movl	$1, -34488(%rbp)
	movq	%r14, -34440(%rbp)
	movl	$1, -34432(%rbp)
	movq	%r14, -34384(%rbp)
	movl	$1, -34376(%rbp)
	movq	%r14, -34328(%rbp)
	movl	$1, -34320(%rbp)
	movq	%r14, -34272(%rbp)
	movl	$1, -34264(%rbp)
	movq	%r14, -34216(%rbp)
	movl	$1, -34208(%rbp)
	movq	%r14, -34160(%rbp)
	movl	$1, -34152(%rbp)
	movq	%r14, -34104(%rbp)
	movl	$1, -34096(%rbp)
	movq	%r14, -34048(%rbp)
	movl	$1, -34040(%rbp)
	movq	%r14, -33992(%rbp)
	movl	$1, -33984(%rbp)
	movq	%r14, -33936(%rbp)
	movl	$1, -33928(%rbp)
	movq	%r14, -33880(%rbp)
	movl	$1, -33872(%rbp)
	movq	%r14, -33824(%rbp)
	movl	$1, -33816(%rbp)
	movq	%r14, -33768(%rbp)
	movl	$1, -33760(%rbp)
	movq	%r14, -33712(%rbp)
	movl	$1, -33704(%rbp)
	movq	%r14, -33656(%rbp)
	movl	$1, -33648(%rbp)
	movq	%r14, -33600(%rbp)
	movl	$1, -33592(%rbp)
	movq	%r14, -33544(%rbp)
	movl	$1, -33536(%rbp)
	movq	%r14, -33488(%rbp)
	movl	$1, -33480(%rbp)
	movq	%r14, -33432(%rbp)
	movl	$1, -33424(%rbp)
	movq	%r14, -33376(%rbp)
	movl	$1, -33368(%rbp)
	movq	%r14, -33320(%rbp)
	movl	$1, -33312(%rbp)
	movq	%r14, -33264(%rbp)
	movl	$1, -33256(%rbp)
	movq	%r14, -33208(%rbp)
	movl	$1, -33200(%rbp)
	movq	%r14, -33152(%rbp)
	movl	$1, -33144(%rbp)
	movq	%r14, -33096(%rbp)
	movl	$1, -33088(%rbp)
	movq	%r14, -33040(%rbp)
	movl	$1, -33032(%rbp)
	movq	%r14, -32984(%rbp)
	movl	$1, -32976(%rbp)
	movq	%r14, -32928(%rbp)
	movl	$1, -32920(%rbp)
	movq	%r14, -32872(%rbp)
	movl	$1, -32864(%rbp)
	movq	%r14, -32816(%rbp)
	movl	$1, -32808(%rbp)
	movq	%r14, -32760(%rbp)
	movl	$1, -32752(%rbp)
	movq	%r14, -32704(%rbp)
	movl	$1, -32696(%rbp)
	movq	%r14, -32648(%rbp)
	movl	$1, -32640(%rbp)
	movq	%r14, -32592(%rbp)
	movl	$1, -32584(%rbp)
	movq	%r14, -32536(%rbp)
	movl	$1, -32528(%rbp)
	movq	%r14, -32480(%rbp)
	movl	$1, -32472(%rbp)
	movq	%r14, -32424(%rbp)
	movl	$1, -32416(%rbp)
	movq	%r14, -32368(%rbp)
	movl	$1, -32360(%rbp)
	movq	%r14, -32312(%rbp)
	movl	$1, -32304(%rbp)
	movq	%r14, -32256(%rbp)
	movl	$1, -32248(%rbp)
	movq	%r14, -32200(%rbp)
	movl	$1, -32192(%rbp)
	movq	%r14, -32144(%rbp)
	movl	$1, -32136(%rbp)
	movq	%r14, -32088(%rbp)
	movl	$1, -32080(%rbp)
	movq	%r14, -32032(%rbp)
	movl	$1, -32024(%rbp)
	movq	%r14, -31976(%rbp)
	movl	$1, -31968(%rbp)
	movq	%r14, -31920(%rbp)
	movl	$1, -31912(%rbp)
	movq	%r14, -31864(%rbp)
	movl	$1, -31856(%rbp)
	movq	%r14, -31808(%rbp)
	movl	$1, -31800(%rbp)
	movq	%r14, -31752(%rbp)
	movl	$1, -31744(%rbp)
	movq	%r14, -31696(%rbp)
	movl	$1, -31688(%rbp)
	movq	%r14, -31640(%rbp)
	movl	$1, -31632(%rbp)
	movq	%r14, -31584(%rbp)
	movl	$1, -31576(%rbp)
	movq	%r14, -31528(%rbp)
	movl	$1, -31520(%rbp)
	movq	%r14, -31472(%rbp)
	movl	$1, -31464(%rbp)
	movq	%r14, -31416(%rbp)
	movl	$1, -31408(%rbp)
	movq	%r14, -31360(%rbp)
	movl	$1, -31352(%rbp)
	movq	%r14, -31304(%rbp)
	movl	$1, -31296(%rbp)
	movq	%r14, -31248(%rbp)
	movl	$1, -31240(%rbp)
	movq	%r14, -31192(%rbp)
	movl	$1, -31184(%rbp)
	movq	%r14, -31136(%rbp)
	movl	$1, -31128(%rbp)
	movq	%r14, -31080(%rbp)
	movl	$1, -31072(%rbp)
	movq	%r14, -31024(%rbp)
	movl	$1, -31016(%rbp)
	movq	%r14, -30968(%rbp)
	movl	$1, -30960(%rbp)
	movq	%r14, -30912(%rbp)
	movl	$1, -30904(%rbp)
	movq	%r14, -30856(%rbp)
	movl	$1, -30848(%rbp)
	movq	%r14, -30800(%rbp)
	movl	$1, -30792(%rbp)
	movq	%r14, -30744(%rbp)
	movl	$1, -30736(%rbp)
	movq	%r14, -30688(%rbp)
	movl	$1, -30680(%rbp)
	movq	%r14, -30632(%rbp)
	movl	$1, -30624(%rbp)
	movq	%r14, -30576(%rbp)
	movl	$1, -30568(%rbp)
	movq	%r14, -30520(%rbp)
	movl	$1, -30512(%rbp)
	movq	%r14, -30464(%rbp)
	movl	$1, -30456(%rbp)
	movq	%r14, -30408(%rbp)
	movl	$1, -30400(%rbp)
	movq	%r14, -30352(%rbp)
	movl	$1, -30344(%rbp)
	movq	%r14, -30296(%rbp)
	movl	$1, -30288(%rbp)
	movq	%r14, -30240(%rbp)
	movl	$1, -30232(%rbp)
	movq	%r14, -30184(%rbp)
	movl	$1, -30176(%rbp)
	movq	%r14, -30128(%rbp)
	movl	$1, -30120(%rbp)
	movq	%r14, -30072(%rbp)
	movl	$1, -30064(%rbp)
	movq	%r14, -30016(%rbp)
	movl	$1, -30008(%rbp)
	movq	%r14, -29960(%rbp)
	movl	$1, -29952(%rbp)
	movq	%r14, -29904(%rbp)
	movl	$1, -29896(%rbp)
	movq	%r14, -29848(%rbp)
	movl	$1, -29840(%rbp)
	movq	%r14, -29792(%rbp)
	movl	$1, -29784(%rbp)
	movq	%r14, -29736(%rbp)
	movl	$1, -29728(%rbp)
	movq	%r14, -29680(%rbp)
	movl	$1, -29672(%rbp)
	movq	%r14, -29624(%rbp)
	movl	$1, -29616(%rbp)
	movq	%r14, -29568(%rbp)
	movl	$1, -29560(%rbp)
	movq	%r14, -29512(%rbp)
	movl	$1, -29504(%rbp)
	movq	%r14, -29456(%rbp)
	movl	$1, -29448(%rbp)
	movq	%r14, -29400(%rbp)
	movl	$1, -29392(%rbp)
	movq	%r14, -29344(%rbp)
	movl	$1, -29336(%rbp)
	movq	%r14, -29288(%rbp)
	movl	$1, -29280(%rbp)
	movq	%r14, -29232(%rbp)
	movl	$1, -29224(%rbp)
	movq	%r14, -29176(%rbp)
	movl	$1, -29168(%rbp)
	movq	%r14, -29120(%rbp)
	movl	$1, -29112(%rbp)
	movq	%r14, -29064(%rbp)
	movl	$1, -29056(%rbp)
	movq	%r14, -29008(%rbp)
	movl	$1, -29000(%rbp)
	movq	%r14, -28952(%rbp)
	movl	$1, -28944(%rbp)
	movq	%r14, -28896(%rbp)
	movl	$1, -28888(%rbp)
	movq	%r14, -28840(%rbp)
	movl	$1, -28832(%rbp)
	movq	%r14, -28784(%rbp)
	movl	$1, -28776(%rbp)
	movq	%r14, -28728(%rbp)
	movl	$1, -28720(%rbp)
	movq	%r14, -28672(%rbp)
	movl	$1, -28664(%rbp)
	movq	%r14, -28616(%rbp)
	movl	$1, -28608(%rbp)
	movq	%r14, -28560(%rbp)
	movl	$1, -28552(%rbp)
	movq	%r14, -28504(%rbp)
	movl	$1, -28496(%rbp)
	movq	%r14, -28448(%rbp)
	movl	$1, -28440(%rbp)
	movq	%r14, -28392(%rbp)
	movl	$1, -28384(%rbp)
	movq	%r14, -28336(%rbp)
	movl	$1, -28328(%rbp)
	movq	%r14, -28280(%rbp)
	movl	$1, -28272(%rbp)
	movq	%r14, -28224(%rbp)
	movl	$1, -28216(%rbp)
	movq	%r14, -28168(%rbp)
	movl	$1, -28160(%rbp)
	movq	%r14, -28112(%rbp)
	movl	$1, -28104(%rbp)
	movq	%r14, -28056(%rbp)
	movl	$1, -28048(%rbp)
	movq	%r14, -28000(%rbp)
	movl	$1, -27992(%rbp)
	movq	%r14, -27944(%rbp)
	movl	$1, -27936(%rbp)
	movq	%r14, -27888(%rbp)
	movl	$1, -27880(%rbp)
	movq	%r14, -27832(%rbp)
	movl	$1, -27824(%rbp)
	movq	%r14, -27776(%rbp)
	movl	$1, -27768(%rbp)
	movq	%r14, -27720(%rbp)
	movl	$1, -27712(%rbp)
	movq	%r14, -27664(%rbp)
	movl	$1, -27656(%rbp)
	movq	%r14, -27608(%rbp)
	movl	$1, -27600(%rbp)
	movq	%r14, -27552(%rbp)
	movl	$1, -27544(%rbp)
	movq	%r14, -27496(%rbp)
	movl	$1, -27488(%rbp)
	movq	%r14, -27440(%rbp)
	movl	$1, -27432(%rbp)
	movq	%r14, -27384(%rbp)
	movl	$1, -27376(%rbp)
	movq	%r14, -27328(%rbp)
	movl	$1, -27320(%rbp)
	movq	%r14, -27272(%rbp)
	movl	$1, -27264(%rbp)
	movq	%r14, -27216(%rbp)
	movl	$1, -27208(%rbp)
	movq	%r14, -27160(%rbp)
	movl	$1, -27152(%rbp)
	movq	%r14, -27104(%rbp)
	movl	$1, -27096(%rbp)
	movq	%r14, -27048(%rbp)
	movl	$1, -27040(%rbp)
	movq	%r14, -26992(%rbp)
	movl	$1, -26984(%rbp)
	movq	%r14, -26936(%rbp)
	movl	$1, -26928(%rbp)
	movq	%r14, -26880(%rbp)
	movl	$1, -26872(%rbp)
	movq	%r14, -26824(%rbp)
	movl	$1, -26816(%rbp)
	movq	%r14, -26768(%rbp)
	movl	$1, -26760(%rbp)
	movq	%r14, -26712(%rbp)
	movl	$1, -26704(%rbp)
	movq	%r14, -26656(%rbp)
	movl	$1, -26648(%rbp)
	movq	%r14, -26600(%rbp)
	movl	$1, -26592(%rbp)
	movq	%r14, -26544(%rbp)
	movl	$1, -26536(%rbp)
	movq	%r14, -26488(%rbp)
	movl	$1, -26480(%rbp)
	movq	%r14, -26432(%rbp)
	movl	$1, -26424(%rbp)
	movq	%r14, -26376(%rbp)
	movl	$1, -26368(%rbp)
	movq	%r14, -26320(%rbp)
	movl	$1, -26312(%rbp)
	movq	%r14, -26264(%rbp)
	movl	$1, -26256(%rbp)
	movq	%r14, -26208(%rbp)
	movl	$1, -26200(%rbp)
	movq	%r14, -26152(%rbp)
	movl	$1, -26144(%rbp)
	movq	%r14, -26096(%rbp)
	movl	$1, -26088(%rbp)
	movq	%r14, -26040(%rbp)
	movl	$1, -26032(%rbp)
	movq	%r14, -25984(%rbp)
	movl	$1, -25976(%rbp)
	movq	%r14, -25928(%rbp)
	movl	$1, -25920(%rbp)
	movq	%r14, -25872(%rbp)
	movl	$1, -25864(%rbp)
	movq	%r14, -25816(%rbp)
	movl	$1, -25808(%rbp)
	movq	%r14, -25760(%rbp)
	movl	$1, -25752(%rbp)
	movq	%r14, -25704(%rbp)
	movl	$1, -25696(%rbp)
	movq	%r14, -25648(%rbp)
	movl	$1, -25640(%rbp)
	movq	%r14, -25592(%rbp)
	movl	$1, -25584(%rbp)
	movq	%r14, -25536(%rbp)
	movl	$1, -25528(%rbp)
	movq	%r14, -25480(%rbp)
	movl	$1, -25472(%rbp)
	movq	%r14, -25424(%rbp)
	movl	$1, -25416(%rbp)
	movq	%r14, -25368(%rbp)
	movl	$1, -25360(%rbp)
	movq	%r14, -25312(%rbp)
	movl	$1, -25304(%rbp)
	movq	%r14, -25256(%rbp)
	movl	$1, -25248(%rbp)
	movq	%r14, -25200(%rbp)
	movl	$1, -25192(%rbp)
	movq	%r14, -25144(%rbp)
	movl	$1, -25136(%rbp)
	movq	%r14, -25088(%rbp)
	movl	$1, -25080(%rbp)
	movq	%r14, -25032(%rbp)
	movl	$1, -25024(%rbp)
	movq	%r14, -24976(%rbp)
	movl	$1, -24968(%rbp)
	movq	%r14, -24920(%rbp)
	movl	$1, -24912(%rbp)
	movq	%r14, -24864(%rbp)
	movl	$1, -24856(%rbp)
	movq	%r14, -24808(%rbp)
	movl	$1, -24800(%rbp)
	movq	%r14, -24752(%rbp)
	movl	$1, -24744(%rbp)
	movq	%r14, -24696(%rbp)
	movl	$1, -24688(%rbp)
	movq	%r14, -24640(%rbp)
	movl	$1, -24632(%rbp)
	movq	%r14, -24584(%rbp)
	movl	$1, -24576(%rbp)
	movq	%r14, -24528(%rbp)
	movl	$1, -24520(%rbp)
	movq	%r14, -24472(%rbp)
	movl	$1, -24464(%rbp)
	movq	%r14, -24416(%rbp)
	movl	$1, -24408(%rbp)
	movq	%r14, -24360(%rbp)
	movl	$1, -24352(%rbp)
	movq	%r14, -24304(%rbp)
	movl	$1, -24296(%rbp)
	movq	%r14, -24248(%rbp)
	movl	$1, -24240(%rbp)
	movq	%r14, -24192(%rbp)
	movl	$1, -24184(%rbp)
	movq	%r14, -24136(%rbp)
	movl	$1, -24128(%rbp)
	movq	%r14, -24080(%rbp)
	movl	$1, -24072(%rbp)
	movq	%r14, -24024(%rbp)
	movl	$1, -24016(%rbp)
	movq	%r14, -23968(%rbp)
	movl	$1, -23960(%rbp)
	movq	%r14, -23912(%rbp)
	movl	$1, -23904(%rbp)
	movq	%r14, -23856(%rbp)
	movl	$1, -23848(%rbp)
	movq	%r14, -23800(%rbp)
	movl	$1, -23792(%rbp)
	movq	%r14, -23744(%rbp)
	movl	$1, -23736(%rbp)
	movq	%r14, -23688(%rbp)
	movl	$1, -23680(%rbp)
	movq	%r14, -23632(%rbp)
	movl	$1, -23624(%rbp)
	movq	%r14, -23576(%rbp)
	movl	$1, -23568(%rbp)
	movq	%r14, -23520(%rbp)
	movl	$1, -23512(%rbp)
	movq	%r14, -23464(%rbp)
	movl	$1, -23456(%rbp)
	movq	%r14, -23408(%rbp)
	movl	$1, -23400(%rbp)
	movq	%r14, -23352(%rbp)
	movl	$1, -23344(%rbp)
	movq	%r14, -23296(%rbp)
	movl	$1, -23288(%rbp)
	movq	%r14, -23240(%rbp)
	movl	$1, -23232(%rbp)
	movq	%r14, -23184(%rbp)
	movl	$1, -23176(%rbp)
	movq	%r14, -23128(%rbp)
	movl	$1, -23120(%rbp)
	movq	%r14, -23072(%rbp)
	movl	$1, -23064(%rbp)
	movq	%r14, -23016(%rbp)
	movl	$1, -23008(%rbp)
	movq	%r14, -22960(%rbp)
	movl	$1, -22952(%rbp)
	movq	%r14, -22904(%rbp)
	movl	$1, -22896(%rbp)
	movq	%r14, -22848(%rbp)
	movl	$1, -22840(%rbp)
	movq	%r14, -22792(%rbp)
	movl	$1, -22784(%rbp)
	movq	%r14, -22736(%rbp)
	movl	$1, -22728(%rbp)
	movq	%r14, -22680(%rbp)
	movl	$1, -22672(%rbp)
	movq	%r14, -22624(%rbp)
	movl	$1, -22616(%rbp)
	movq	%r14, -22568(%rbp)
	movl	$1, -22560(%rbp)
	movq	%r14, -22512(%rbp)
	movl	$1, -22504(%rbp)
	movq	%r14, -22456(%rbp)
	movl	$1, -22448(%rbp)
	movq	%r14, -22400(%rbp)
	movl	$1, -22392(%rbp)
	movq	%r14, -22344(%rbp)
	movl	$1, -22336(%rbp)
	movq	%r14, -22288(%rbp)
	movl	$1, -22280(%rbp)
	movq	%r14, -22232(%rbp)
	movl	$1, -22224(%rbp)
	movq	%r14, -22176(%rbp)
	movl	$1, -22168(%rbp)
	movq	%r14, -22120(%rbp)
	movl	$1, -22112(%rbp)
	movq	%r14, -22064(%rbp)
	movl	$1, -22056(%rbp)
	movq	%r14, -22008(%rbp)
	movl	$1, -22000(%rbp)
	movq	%r14, -21952(%rbp)
	movl	$1, -21944(%rbp)
	movq	%r14, -21896(%rbp)
	movl	$1, -21888(%rbp)
	movq	%r14, -21840(%rbp)
	movl	$1, -21832(%rbp)
	movq	%r14, -21784(%rbp)
	movl	$1, -21776(%rbp)
	movq	%r14, -21728(%rbp)
	movl	$1, -21720(%rbp)
	movq	%r14, -21672(%rbp)
	movl	$1, -21664(%rbp)
	movq	%r14, -21616(%rbp)
	movl	$1, -21608(%rbp)
	movq	%r14, -21560(%rbp)
	movl	$1, -21552(%rbp)
	movq	%r14, -21504(%rbp)
	movl	$1, -21496(%rbp)
	movq	%r14, -21448(%rbp)
	movl	$1, -21440(%rbp)
	movq	%r14, -21392(%rbp)
	movl	$1, -21384(%rbp)
	movq	%r14, -21336(%rbp)
	movl	$1, -21328(%rbp)
	movq	%r14, -21280(%rbp)
	movl	$1, -21272(%rbp)
	movq	%r14, -21224(%rbp)
	movl	$1, -21216(%rbp)
	movq	%r14, -21168(%rbp)
	movl	$1, -21160(%rbp)
	movq	%r14, -21112(%rbp)
	movl	$1, -21104(%rbp)
	movq	%r14, -21056(%rbp)
	movl	$1, -21048(%rbp)
	movq	%r14, -21000(%rbp)
	movl	$1, -20992(%rbp)
	movq	%r14, -20944(%rbp)
	movl	$1, -20936(%rbp)
	movq	%r14, -20888(%rbp)
	movl	$1, -20880(%rbp)
	movq	%r14, -20832(%rbp)
	movl	$1, -20824(%rbp)
	movq	%r14, -20776(%rbp)
	movl	$1, -20768(%rbp)
	movq	%r14, -20720(%rbp)
	movl	$1, -20712(%rbp)
	movq	%r14, -20664(%rbp)
	movl	$1, -20656(%rbp)
	movq	%r14, -20608(%rbp)
	movl	$1, -20600(%rbp)
	movq	%r14, -20552(%rbp)
	movl	$1, -20544(%rbp)
	movq	%r14, -20496(%rbp)
	movl	$1, -20488(%rbp)
	movq	%r14, -20440(%rbp)
	movl	$1, -20432(%rbp)
	movq	%r14, -20384(%rbp)
	movl	$1, -20376(%rbp)
	movq	%r14, -20328(%rbp)
	movl	$1, -20320(%rbp)
	movq	%r14, -20272(%rbp)
	movl	$1, -20264(%rbp)
	movq	%r14, -20216(%rbp)
	movl	$1, -20208(%rbp)
	movq	%r14, -20160(%rbp)
	movl	$1, -20152(%rbp)
	movq	%r14, -20104(%rbp)
	movl	$1, -20096(%rbp)
	movq	%r14, -20048(%rbp)
	movl	$1, -20040(%rbp)
	movq	%r14, -19992(%rbp)
	movl	$1, -19984(%rbp)
	movq	%r14, -19936(%rbp)
	movl	$1, -19928(%rbp)
	movq	%r14, -19880(%rbp)
	movl	$1, -19872(%rbp)
	movq	%r14, -19824(%rbp)
	movl	$1, -19816(%rbp)
	movq	%r14, -19768(%rbp)
	movl	$1, -19760(%rbp)
	movq	%r14, -19712(%rbp)
	movl	$1, -19704(%rbp)
	movq	%r14, -19656(%rbp)
	movl	$1, -19648(%rbp)
	movq	%r14, -19600(%rbp)
	movl	$1, -19592(%rbp)
	movq	%r14, -19544(%rbp)
	movl	$1, -19536(%rbp)
	movq	%r14, -19488(%rbp)
	movl	$1, -19480(%rbp)
	movq	%r14, -19432(%rbp)
	movl	$1, -19424(%rbp)
	movq	%r14, -19376(%rbp)
	movl	$1, -19368(%rbp)
	movq	%r14, -19320(%rbp)
	movl	$1, -19312(%rbp)
	movq	%r14, -19264(%rbp)
	movl	$1, -19256(%rbp)
	movq	%r14, -19208(%rbp)
	movl	$1, -19200(%rbp)
	movq	%r14, -19152(%rbp)
	movl	$1, -19144(%rbp)
	movq	%r14, -19096(%rbp)
	movl	$1, -19088(%rbp)
	movq	%r14, -19040(%rbp)
	movl	$1, -19032(%rbp)
	movq	%r14, -18984(%rbp)
	movl	$1, -18976(%rbp)
	movq	%r14, -18928(%rbp)
	movl	$1, -18920(%rbp)
	movq	%r14, -18872(%rbp)
	movl	$1, -18864(%rbp)
	movq	%r14, -18816(%rbp)
	movl	$1, -18808(%rbp)
	movq	%r14, -18760(%rbp)
	movl	$1, -18752(%rbp)
	movq	%r14, -18704(%rbp)
	movl	$1, -18696(%rbp)
	movq	%r14, -18648(%rbp)
	movl	$1, -18640(%rbp)
	movq	%r14, -18592(%rbp)
	movl	$1, -18584(%rbp)
	movq	%r14, -18536(%rbp)
	movl	$1, -18528(%rbp)
	movq	%r14, -18480(%rbp)
	movl	$1, -18472(%rbp)
	movq	%r14, -18424(%rbp)
	movl	$1, -18416(%rbp)
	movq	%r14, -18368(%rbp)
	movl	$1, -18360(%rbp)
	movq	%r14, -18312(%rbp)
	movl	$1, -18304(%rbp)
	movq	%r14, -18256(%rbp)
	movl	$1, -18248(%rbp)
	movq	%r14, -18200(%rbp)
	movl	$1, -18192(%rbp)
	movq	%r14, -18144(%rbp)
	movl	$1, -18136(%rbp)
	movq	%r14, -18088(%rbp)
	movl	$1, -18080(%rbp)
	movq	%r14, -18032(%rbp)
	movl	$1, -18024(%rbp)
	movq	%r14, -17976(%rbp)
	movl	$1, -17968(%rbp)
	movq	%r14, -17920(%rbp)
	movl	$1, -17912(%rbp)
	movq	%r14, -17864(%rbp)
	movl	$1, -17856(%rbp)
	movq	%r14, -17808(%rbp)
	movl	$1, -17800(%rbp)
	movq	%r14, -17752(%rbp)
	movl	$1, -17744(%rbp)
	movq	%r14, -17696(%rbp)
	movl	$1, -17688(%rbp)
	movq	%r14, -17640(%rbp)
	movl	$1, -17632(%rbp)
	movq	%r14, -17584(%rbp)
	movl	$1, -17576(%rbp)
	movq	%r14, -17528(%rbp)
	movl	$1, -17520(%rbp)
	movq	%r14, -17472(%rbp)
	movl	$1, -17464(%rbp)
	movq	%r14, -17416(%rbp)
	movl	$1, -17408(%rbp)
	movq	%r14, -17360(%rbp)
	movl	$1, -17352(%rbp)
	movq	%r14, -17304(%rbp)
	movl	$1, -17296(%rbp)
	movq	%r14, -17248(%rbp)
	movl	$1, -17240(%rbp)
	movq	%r14, -17192(%rbp)
	movl	$1, -17184(%rbp)
	movq	%r14, -17136(%rbp)
	movl	$1, -17128(%rbp)
	movq	%r14, -17080(%rbp)
	movl	$1, -17072(%rbp)
	movq	%r14, -17024(%rbp)
	movl	$1, -17016(%rbp)
	movq	%r14, -16968(%rbp)
	movl	$1, -16960(%rbp)
	movq	%r14, -16912(%rbp)
	movl	$1, -16904(%rbp)
	movq	%r14, -16856(%rbp)
	movl	$1, -16848(%rbp)
	movq	%r14, -16800(%rbp)
	movl	$1, -16792(%rbp)
	movq	%r14, -16744(%rbp)
	movl	$1, -16736(%rbp)
	movq	%r14, -16688(%rbp)
	movl	$1, -16680(%rbp)
	movq	%r14, -16632(%rbp)
	movl	$1, -16624(%rbp)
	movq	%r14, -16576(%rbp)
	movl	$1, -16568(%rbp)
	movq	%r14, -16520(%rbp)
	movl	$1, -16512(%rbp)
	movq	%r14, -16464(%rbp)
	movl	$1, -16456(%rbp)
	movq	%r14, -16408(%rbp)
	movl	$1, -16400(%rbp)
	movq	%r14, -16352(%rbp)
	movl	$1, -16344(%rbp)
	movq	%r14, -16296(%rbp)
	movl	$1, -16288(%rbp)
	movq	%r14, -16240(%rbp)
	movl	$1, -16232(%rbp)
	movq	%r14, -16184(%rbp)
	movl	$1, -16176(%rbp)
	movq	%r14, -16128(%rbp)
	movl	$1, -16120(%rbp)
	movq	%r14, -16072(%rbp)
	movl	$1, -16064(%rbp)
	movq	%r14, -16016(%rbp)
	movl	$1, -16008(%rbp)
	movq	%r14, -15960(%rbp)
	movl	$1, -15952(%rbp)
	movq	%r14, -15904(%rbp)
	movl	$1, -15896(%rbp)
	movq	%r14, -15848(%rbp)
	movl	$1, -15840(%rbp)
	movq	%r14, -15792(%rbp)
	movl	$1, -15784(%rbp)
	movq	%r14, -15736(%rbp)
	movl	$1, -15728(%rbp)
	movq	%r14, -15680(%rbp)
	movl	$1, -15672(%rbp)
	movq	%r14, -15624(%rbp)
	movl	$1, -15616(%rbp)
	movq	%r14, -15568(%rbp)
	movl	$1, -15560(%rbp)
	movq	%r14, -15512(%rbp)
	movl	$1, -15504(%rbp)
	movq	%r14, -15456(%rbp)
	movl	$1, -15448(%rbp)
	movq	%r14, -15400(%rbp)
	movl	$1, -15392(%rbp)
	movq	%r14, -15344(%rbp)
	movl	$1, -15336(%rbp)
	movq	%r14, -15288(%rbp)
	movl	$1, -15280(%rbp)
	movq	%r14, -15232(%rbp)
	movl	$1, -15224(%rbp)
	movq	%r14, -15176(%rbp)
	movl	$1, -15168(%rbp)
	movq	%r14, -15120(%rbp)
	movl	$1, -15112(%rbp)
	movq	%r14, -15064(%rbp)
	movl	$1, -15056(%rbp)
	movq	%r14, -15008(%rbp)
	movl	$1, -15000(%rbp)
	movq	%r14, -14952(%rbp)
	movl	$1, -14944(%rbp)
	movq	%r14, -14896(%rbp)
	movl	$1, -14888(%rbp)
	movq	%r14, -14840(%rbp)
	movl	$1, -14832(%rbp)
	movq	%r14, -14784(%rbp)
	movl	$1, -14776(%rbp)
	movq	%r14, -14728(%rbp)
	movl	$1, -14720(%rbp)
	movq	%r14, -14672(%rbp)
	movl	$1, -14664(%rbp)
	movq	%r14, -14616(%rbp)
	movl	$1, -14608(%rbp)
	movq	%r14, -14560(%rbp)
	movl	$1, -14552(%rbp)
	movq	%r14, -14504(%rbp)
	movl	$1, -14496(%rbp)
	movq	%r14, -14448(%rbp)
	movl	$1, -14440(%rbp)
	movq	%r14, -14392(%rbp)
	movl	$1, -14384(%rbp)
	movq	%r14, -14336(%rbp)
	movl	$1, -14328(%rbp)
	movq	%r14, -14280(%rbp)
	movl	$1, -14272(%rbp)
	movq	%r14, -14224(%rbp)
	movl	$1, -14216(%rbp)
	movq	%r14, -14168(%rbp)
	movl	$1, -14160(%rbp)
	movq	%r14, -14112(%rbp)
	movl	$1, -14104(%rbp)
	movq	%r14, -14056(%rbp)
	movl	$1, -14048(%rbp)
	movq	%r14, -14000(%rbp)
	movl	$1, -13992(%rbp)
	movq	%r14, -13944(%rbp)
	movl	$1, -13936(%rbp)
	movq	%r14, -13888(%rbp)
	movl	$1, -13880(%rbp)
	movq	%r14, -13832(%rbp)
	movl	$1, -13824(%rbp)
	movq	%r14, -13776(%rbp)
	movl	$1, -13768(%rbp)
	movq	%r14, -13720(%rbp)
	movl	$1, -13712(%rbp)
	movq	%r14, -13664(%rbp)
	movl	$1, -13656(%rbp)
	movq	%r14, -13608(%rbp)
	movl	$1, -13600(%rbp)
	movq	%r14, -13552(%rbp)
	movl	$1, -13544(%rbp)
	movq	%r14, -13496(%rbp)
	movl	$1, -13488(%rbp)
	movq	%r14, -13440(%rbp)
	movl	$1, -13432(%rbp)
	movq	%r14, -13384(%rbp)
	movl	$1, -13376(%rbp)
	movq	%r14, -13328(%rbp)
	movl	$1, -13320(%rbp)
	movq	%r14, -13272(%rbp)
	movl	$1, -13264(%rbp)
	movq	%r14, -13216(%rbp)
	movl	$1, -13208(%rbp)
	movq	%r14, -13160(%rbp)
	movl	$1, -13152(%rbp)
	movq	%r14, -13104(%rbp)
	movl	$1, -13096(%rbp)
	movq	%r14, -13048(%rbp)
	movl	$1, -13040(%rbp)
	movq	%r14, -12992(%rbp)
	movl	$1, -12984(%rbp)
	movq	%r14, -12936(%rbp)
	movl	$1, -12928(%rbp)
	movq	%r14, -12880(%rbp)
	movl	$1, -12872(%rbp)
	movq	%r14, -12824(%rbp)
	movl	$1, -12816(%rbp)
	movq	%r14, -12768(%rbp)
	movl	$1, -12760(%rbp)
	movq	%r14, -12712(%rbp)
	movl	$1, -12704(%rbp)
	movq	%r14, -12656(%rbp)
	movl	$1, -12648(%rbp)
	movq	%r14, -12600(%rbp)
	movl	$1, -12592(%rbp)
	movq	%r14, -12544(%rbp)
	movl	$1, -12536(%rbp)
	movq	%r14, -12488(%rbp)
	movl	$1, -12480(%rbp)
	movq	%r14, -12432(%rbp)
	movl	$1, -12424(%rbp)
	movq	%r14, -12376(%rbp)
	movl	$1, -12368(%rbp)
	movq	%r14, -12320(%rbp)
	movl	$1, -12312(%rbp)
	movq	%r14, -12264(%rbp)
	movl	$1, -12256(%rbp)
	movq	%r14, -12208(%rbp)
	movl	$1, -12200(%rbp)
	movq	%r14, -12152(%rbp)
	movl	$1, -12144(%rbp)
	movq	%r14, -12096(%rbp)
	movl	$1, -12088(%rbp)
	movq	%r14, -12040(%rbp)
	movl	$1, -12032(%rbp)
	movq	%r14, -11984(%rbp)
	movl	$1, -11976(%rbp)
	movq	%r14, -11928(%rbp)
	movl	$1, -11920(%rbp)
	movq	%r14, -11872(%rbp)
	movl	$1, -11864(%rbp)
	movq	%r14, -11816(%rbp)
	movl	$1, -11808(%rbp)
	movq	%r14, -11760(%rbp)
	movl	$1, -11752(%rbp)
	movq	%r14, -11704(%rbp)
	movl	$1, -11696(%rbp)
	movq	%r14, -11648(%rbp)
	movl	$1, -11640(%rbp)
	movq	%r14, -11592(%rbp)
	movl	$1, -11584(%rbp)
	movq	%r14, -11536(%rbp)
	movl	$1, -11528(%rbp)
	movq	%r14, -11480(%rbp)
	movl	$1, -11472(%rbp)
	movq	%r14, -11424(%rbp)
	movl	$1, -11416(%rbp)
	movq	%r14, -11368(%rbp)
	movl	$1, -11360(%rbp)
	movq	%r14, -11312(%rbp)
	movl	$1, -11304(%rbp)
	movq	%r14, -11256(%rbp)
	movl	$1, -11248(%rbp)
	movq	%r14, -11200(%rbp)
	movl	$1, -11192(%rbp)
	movq	%r14, -11144(%rbp)
	movl	$1, -11136(%rbp)
	movq	%r14, -11088(%rbp)
	movl	$1, -11080(%rbp)
	movq	%r14, -11032(%rbp)
	movl	$1, -11024(%rbp)
	movq	%r14, -10976(%rbp)
	movl	$1, -10968(%rbp)
	movq	%r14, -10920(%rbp)
	movl	$1, -10912(%rbp)
	movq	%r14, -10864(%rbp)
	movl	$1, -10856(%rbp)
	movq	%r14, -10808(%rbp)
	movl	$1, -10800(%rbp)
	movq	%r14, -10752(%rbp)
	movl	$1, -10744(%rbp)
	movq	%r14, -10696(%rbp)
	movl	$1, -10688(%rbp)
	movq	%r14, -10640(%rbp)
	movl	$1, -10632(%rbp)
	movq	%r14, -10584(%rbp)
	movl	$1, -10576(%rbp)
	movq	%r14, -57456(%rbp)
	movl	$1, -57448(%rbp)
	movq	%r14, -10528(%rbp)
	movl	$1, -10520(%rbp)
	movq	%r14, -10472(%rbp)
	movl	$1, -10464(%rbp)
	movq	%r14, -10416(%rbp)
	movl	$1, -10408(%rbp)
	movq	%r14, -10360(%rbp)
	movl	$1, -10352(%rbp)
	movq	%r14, -10304(%rbp)
	movl	$1, -10296(%rbp)
	movq	%r14, -10248(%rbp)
	movl	$1, -10240(%rbp)
	movq	%r14, -10192(%rbp)
	movl	$1, -10184(%rbp)
	movq	%r14, -10136(%rbp)
	movl	$1, -10128(%rbp)
	movq	%r14, -10080(%rbp)
	movl	$1, -10072(%rbp)
	movq	%r14, -10024(%rbp)
	movl	$1, -10016(%rbp)
	movq	%r14, -57400(%rbp)
	movl	$1, -57392(%rbp)
	movq	%r14, -9968(%rbp)
	movl	$1, -9960(%rbp)
	movq	%r14, -9912(%rbp)
	movl	$1, -9904(%rbp)
	movq	%r14, -9856(%rbp)
	movl	$1, -9848(%rbp)
	movq	%r14, -9800(%rbp)
	movl	$1, -9792(%rbp)
	movq	%r14, -9744(%rbp)
	movl	$1, -9736(%rbp)
	movq	%r14, -9688(%rbp)
	movl	$1, -9680(%rbp)
	movq	%r14, -9632(%rbp)
	movl	$1, -9624(%rbp)
	movq	%r14, -9576(%rbp)
	movl	$1, -9568(%rbp)
	movq	%r14, -9520(%rbp)
	movl	$1, -9512(%rbp)
	movq	%r14, -9464(%rbp)
	movl	$1, -9456(%rbp)
	movq	%r14, -57344(%rbp)
	movl	$1, -57336(%rbp)
	movq	%r14, -57568(%rbp)
	movl	$1, -57560(%rbp)
	movq	%r14, -57512(%rbp)
	movl	$1, -57504(%rbp)
	leaq	-57288(%rbp), %rdi
	movl	$1, %esi
	callq	__ZN14altered_carbon2js9JsVariantaSEx
	leaq	-57232(%rbp), %rdi
	movl	$2, %esi
	callq	__ZN14altered_carbon2js9JsVariantaSEx
	movl	$120, %edi
	callq	__Znam
	movq	$2, (%rax)
	leaq	8(%rax), %rbx
	addq	$120, %rax
	movq	%rbx, %rcx
	.p2align	4, 0x90
LBB0_1:                                 ## %initarr.bb
                                        ## =>This Inner Loop Header: Depth=1
	movq	%r14, (%rcx)
	movl	$1, 8(%rcx)
	addq	$56, %rcx
	cmpq	%rax, %rcx
	jne	LBB0_1
## %bb.2:                               ## %initarr.bbe
	leaq	-57288(%rbp), %rsi
	movq	%rbx, %rdi
	callq	__ZN14altered_carbon2js9JsVariantaSERKS1_
	movq	%rbx, -8784(%rbp)
	addq	$56, %rbx
	leaq	-57232(%rbp), %rsi
	movq	%rbx, %rdi
	callq	__ZN14altered_carbon2js9JsVariantaSERKS1_
	movq	%rbx, -8776(%rbp)
	movq	%rsp, %rax
	leaq	-16(%rax), %rsi
	movq	%rsi, %rsp
	leaq	-8784(%rbp), %rcx
	movq	%rcx, -16(%rax)
	movq	$2, -8(%rax)
	leaq	-57176(%rbp), %rdi
	callq	__ZN14altered_carbon2js9JsVariantaSERN4llvm8ArrayRefIPS1_EE
	leaq	-57120(%rbp), %rdi
	movl	$3, %esi
	callq	__ZN14altered_carbon2js9JsVariantaSEx
	leaq	-57064(%rbp), %rdi
	movl	$4, %esi
	callq	__ZN14altered_carbon2js9JsVariantaSEx
	movl	$120, %edi
	callq	__Znam
	movq	$2, (%rax)
	leaq	8(%rax), %rbx
	addq	$120, %rax
	movq	%rbx, %rcx
	.p2align	4, 0x90
LBB0_3:                                 ## %initarr.bb9
                                        ## =>This Inner Loop Header: Depth=1
	movq	%r14, (%rcx)
	movl	$1, 8(%rcx)
	addq	$56, %rcx
	cmpq	%rax, %rcx
	jne	LBB0_3
## %bb.4:                               ## %initarr.bb9e
	leaq	-57120(%rbp), %rsi
	movq	%rbx, %rdi
	callq	__ZN14altered_carbon2js9JsVariantaSERKS1_
	movq	%rbx, -8768(%rbp)
	addq	$56, %rbx
	leaq	-57064(%rbp), %rsi
	movq	%rbx, %rdi
	callq	__ZN14altered_carbon2js9JsVariantaSERKS1_
	movq	%rbx, -8760(%rbp)
	movq	%rsp, %rax
	leaq	-16(%rax), %rsi
	movq	%rsi, %rsp
	leaq	-8768(%rbp), %rcx
	movq	%rcx, -16(%rax)
	movq	$2, -8(%rax)
	leaq	-57008(%rbp), %rdi
	callq	__ZN14altered_carbon2js9JsVariantaSERN4llvm8ArrayRefIPS1_EE
	movl	$120, %edi
	callq	__Znam
	movq	$2, (%rax)
	leaq	8(%rax), %rbx
	addq	$120, %rax
	movq	%rbx, %rcx
	.p2align	4, 0x90
LBB0_5:                                 ## %initarr.bb17
                                        ## =>This Inner Loop Header: Depth=1
	movq	%r14, (%rcx)
	movl	$1, 8(%rcx)
	addq	$56, %rcx
	cmpq	%rax, %rcx
	jne	LBB0_5
## %bb.6:                               ## %initarr.bb17e
	leaq	-57176(%rbp), %rsi
	movq	%rbx, %rdi
	callq	__ZN14altered_carbon2js9JsVariantaSERKS1_
	movq	%rbx, -8752(%rbp)
	addq	$56, %rbx
	leaq	-57008(%rbp), %rsi
	movq	%rbx, %rdi
	callq	__ZN14altered_carbon2js9JsVariantaSERKS1_
	movq	%rbx, -8744(%rbp)
	movq	%rsp, %rax
	leaq	-16(%rax), %rsi
	movq	%rsi, %rsp
	leaq	-8752(%rbp), %rcx
	movq	%rcx, -16(%rax)
	movq	$2, -8(%rax)
	leaq	-56952(%rbp), %rdi
	callq	__ZN14altered_carbon2js9JsVariantaSERN4llvm8ArrayRefIPS1_EE
	movl	$64, %edi
	callq	__Znam
	movq	$1, (%rax)
	leaq	8(%rax), %rbx
	addq	$64, %rax
	movq	%rbx, %rcx
	.p2align	4, 0x90
LBB0_7:                                 ## %initarr.bb25
                                        ## =>This Inner Loop Header: Depth=1
	movq	%r14, (%rcx)
	movl	$1, 8(%rcx)
	addq	$56, %rcx
	cmpq	%rax, %rcx
	jne	LBB0_7
## %bb.8:                               ## %initarr.bb25e
	leaq	-56952(%rbp), %rsi
	movq	%rbx, %rdi
	callq	__ZN14altered_carbon2js9JsVariantaSERKS1_
	movq	%rbx, -5024(%rbp)
	movq	%rsp, %rax
	leaq	-16(%rax), %rsi
	movq	%rsi, %rsp
	leaq	-5024(%rbp), %rcx
	movq	%rcx, -16(%rax)
	movq	$1, -8(%rax)
	leaq	-56896(%rbp), %rdi
	callq	__ZN14altered_carbon2js9JsVariantaSERN4llvm8ArrayRefIPS1_EE
	movl	$64, %edi
	callq	__Znam
	movq	$1, (%rax)
	leaq	8(%rax), %rbx
	addq	$64, %rax
	movq	%rbx, %rcx
	.p2align	4, 0x90
LBB0_9:                                 ## %initarr.bb33
                                        ## =>This Inner Loop Header: Depth=1
	movq	%r14, (%rcx)
	movl	$1, 8(%rcx)
	addq	$56, %rcx
	cmpq	%rax, %rcx
	jne	LBB0_9
## %bb.10:                              ## %initarr.bb33e
	leaq	-56896(%rbp), %rsi
	movq	%rbx, %rdi
	callq	__ZN14altered_carbon2js9JsVariantaSERKS1_
	movq	%rbx, -5008(%rbp)
	movq	%rsp, %rax
	leaq	-16(%rax), %rsi
	movq	%rsi, %rsp
	leaq	-5008(%rbp), %rcx
	movq	%rcx, -16(%rax)
	movq	$1, -8(%rax)
	leaq	-56840(%rbp), %rdi
	callq	__ZN14altered_carbon2js9JsVariantaSERN4llvm8ArrayRefIPS1_EE
	movl	$64, %edi
	callq	__Znam
	movq	$1, (%rax)
	leaq	8(%rax), %rbx
	addq	$64, %rax
	movq	%rbx, %rcx
	.p2align	4, 0x90
LBB0_11:                                ## %initarr.bb41
                                        ## =>This Inner Loop Header: Depth=1
	movq	%r14, (%rcx)
	movl	$1, 8(%rcx)
	addq	$56, %rcx
	cmpq	%rax, %rcx
	jne	LBB0_11
## %bb.12:                              ## %initarr.bb41e
	leaq	-56840(%rbp), %rsi
	movq	%rbx, %rdi
	callq	__ZN14altered_carbon2js9JsVariantaSERKS1_
	movq	%rbx, -4992(%rbp)
	movq	%rsp, %rax
	leaq	-16(%rax), %rsi
	movq	%rsi, %rsp
	leaq	-4992(%rbp), %rcx
	movq	%rcx, -16(%rax)
	movq	$1, -8(%rax)
	leaq	-56784(%rbp), %rdi
	callq	__ZN14altered_carbon2js9JsVariantaSERN4llvm8ArrayRefIPS1_EE
	movl	$64, %edi
	callq	__Znam
	movq	$1, (%rax)
	leaq	8(%rax), %rbx
	addq	$64, %rax
	movq	%rbx, %rcx
	.p2align	4, 0x90
LBB0_13:                                ## %initarr.bb49
                                        ## =>This Inner Loop Header: Depth=1
	movq	%r14, (%rcx)
	movl	$1, 8(%rcx)
	addq	$56, %rcx
	cmpq	%rax, %rcx
	jne	LBB0_13
## %bb.14:                              ## %initarr.bb49e
	leaq	-56784(%rbp), %rsi
	movq	%rbx, %rdi
	callq	__ZN14altered_carbon2js9JsVariantaSERKS1_
	movq	%rbx, -4976(%rbp)
	movq	%rsp, %rax
	leaq	-16(%rax), %rsi
	movq	%rsi, %rsp
	leaq	-4976(%rbp), %rcx
	movq	%rcx, -16(%rax)
	movq	$1, -8(%rax)
	leaq	-56728(%rbp), %rdi
	callq	__ZN14altered_carbon2js9JsVariantaSERN4llvm8ArrayRefIPS1_EE
	leaq	-56672(%rbp), %rdi
	movl	$1, %esi
	callq	__ZN14altered_carbon2js9JsVariantaSEx
	leaq	-56616(%rbp), %rdi
	movl	$2, %esi
	callq	__ZN14altered_carbon2js9JsVariantaSEx
	movl	$120, %edi
	callq	__Znam
	movq	$2, (%rax)
	leaq	8(%rax), %rbx
	addq	$120, %rax
	movq	%rbx, %rcx
	.p2align	4, 0x90
LBB0_15:                                ## %initarr.bb59
                                        ## =>This Inner Loop Header: Depth=1
	movq	%r14, (%rcx)
	movl	$1, 8(%rcx)
	addq	$56, %rcx
	cmpq	%rax, %rcx
	jne	LBB0_15
## %bb.16:                              ## %initarr.bb59e
	leaq	-56672(%rbp), %rsi
	movq	%rbx, %rdi
	callq	__ZN14altered_carbon2js9JsVariantaSERKS1_
	movq	%rbx, -8736(%rbp)
	addq	$56, %rbx
	leaq	-56616(%rbp), %rsi
	movq	%rbx, %rdi
	callq	__ZN14altered_carbon2js9JsVariantaSERKS1_
	movq	%rbx, -8728(%rbp)
	movq	%rsp, %rax
	leaq	-16(%rax), %rsi
	movq	%rsi, %rsp
	leaq	-8736(%rbp), %rcx
	movq	%rcx, -16(%rax)
	movq	$2, -8(%rax)
	leaq	-56560(%rbp), %rdi
	callq	__ZN14altered_carbon2js9JsVariantaSERN4llvm8ArrayRefIPS1_EE
	leaq	-56504(%rbp), %rdi
	movl	$3, %esi
	callq	__ZN14altered_carbon2js9JsVariantaSEx
	leaq	-56448(%rbp), %rdi
	movl	$4, %esi
	callq	__ZN14altered_carbon2js9JsVariantaSEx
	movl	$120, %edi
	callq	__Znam
	movq	$2, (%rax)
	leaq	8(%rax), %rbx
	addq	$120, %rax
	movq	%rbx, %rcx
	.p2align	4, 0x90
LBB0_17:                                ## %initarr.bb69
                                        ## =>This Inner Loop Header: Depth=1
	movq	%r14, (%rcx)
	movl	$1, 8(%rcx)
	addq	$56, %rcx
	cmpq	%rax, %rcx
	jne	LBB0_17
## %bb.18:                              ## %initarr.bb69e
	leaq	-56504(%rbp), %rsi
	movq	%rbx, %rdi
	callq	__ZN14altered_carbon2js9JsVariantaSERKS1_
	movq	%rbx, -8720(%rbp)
	addq	$56, %rbx
	leaq	-56448(%rbp), %rsi
	movq	%rbx, %rdi
	callq	__ZN14altered_carbon2js9JsVariantaSERKS1_
	movq	%rbx, -8712(%rbp)
	movq	%rsp, %rax
	leaq	-16(%rax), %rsi
	movq	%rsi, %rsp
	leaq	-8720(%rbp), %rcx
	movq	%rcx, -16(%rax)
	movq	$2, -8(%rax)
	leaq	-56392(%rbp), %rdi
	callq	__ZN14altered_carbon2js9JsVariantaSERN4llvm8ArrayRefIPS1_EE
	movl	$120, %edi
	callq	__Znam
	movq	$2, (%rax)
	leaq	8(%rax), %rbx
	addq	$120, %rax
	movq	%rbx, %rcx
	.p2align	4, 0x90
LBB0_19:                                ## %initarr.bb77
                                        ## =>This Inner Loop Header: Depth=1
	movq	%r14, (%rcx)
	movl	$1, 8(%rcx)
	addq	$56, %rcx
	cmpq	%rax, %rcx
	jne	LBB0_19
## %bb.20:                              ## %initarr.bb77e
	leaq	-56560(%rbp), %rsi
	movq	%rbx, %rdi
	callq	__ZN14altered_carbon2js9JsVariantaSERKS1_
	movq	%rbx, -8704(%rbp)
	addq	$56, %rbx
	leaq	-56392(%rbp), %rsi
	movq	%rbx, %rdi
	callq	__ZN14altered_carbon2js9JsVariantaSERKS1_
	movq	%rbx, -8696(%rbp)
	movq	%rsp, %rax
	leaq	-16(%rax), %rsi
	movq	%rsi, %rsp
	leaq	-8704(%rbp), %rcx
	movq	%rcx, -16(%rax)
	movq	$2, -8(%rax)
	leaq	-56336(%rbp), %rdi
	callq	__ZN14altered_carbon2js9JsVariantaSERN4llvm8ArrayRefIPS1_EE
	movl	$64, %edi
	callq	__Znam
	movq	$1, (%rax)
	leaq	8(%rax), %rbx
	addq	$64, %rax
	movq	%rbx, %rcx
	.p2align	4, 0x90
LBB0_21:                                ## %initarr.bb85
                                        ## =>This Inner Loop Header: Depth=1
	movq	%r14, (%rcx)
	movl	$1, 8(%rcx)
	addq	$56, %rcx
	cmpq	%rax, %rcx
	jne	LBB0_21
## %bb.22:                              ## %initarr.bb85e
	leaq	-56336(%rbp), %rsi
	movq	%rbx, %rdi
	callq	__ZN14altered_carbon2js9JsVariantaSERKS1_
	movq	%rbx, -4960(%rbp)
	movq	%rsp, %rax
	leaq	-16(%rax), %rsi
	movq	%rsi, %rsp
	leaq	-4960(%rbp), %rcx
	movq	%rcx, -16(%rax)
	movq	$1, -8(%rax)
	leaq	-56280(%rbp), %rdi
	callq	__ZN14altered_carbon2js9JsVariantaSERN4llvm8ArrayRefIPS1_EE
	movl	$64, %edi
	callq	__Znam
	movq	$1, (%rax)
	leaq	8(%rax), %rbx
	addq	$64, %rax
	movq	%rbx, %rcx
	.p2align	4, 0x90
LBB0_23:                                ## %initarr.bb93
                                        ## =>This Inner Loop Header: Depth=1
	movq	%r14, (%rcx)
	movl	$1, 8(%rcx)
	addq	$56, %rcx
	cmpq	%rax, %rcx
	jne	LBB0_23
## %bb.24:                              ## %initarr.bb93e
	leaq	-56280(%rbp), %rsi
	movq	%rbx, %rdi
	callq	__ZN14altered_carbon2js9JsVariantaSERKS1_
	movq	%rbx, -4944(%rbp)
	movq	%rsp, %rax
	leaq	-16(%rax), %rsi
	movq	%rsi, %rsp
	leaq	-4944(%rbp), %rcx
	movq	%rcx, -16(%rax)
	movq	$1, -8(%rax)
	leaq	-56224(%rbp), %rdi
	callq	__ZN14altered_carbon2js9JsVariantaSERN4llvm8ArrayRefIPS1_EE
	movl	$64, %edi
	callq	__Znam
	movq	$1, (%rax)
	leaq	8(%rax), %rbx
	addq	$64, %rax
	movq	%rbx, %rcx
	.p2align	4, 0x90
LBB0_25:                                ## %initarr.bb101
                                        ## =>This Inner Loop Header: Depth=1
	movq	%r14, (%rcx)
	movl	$1, 8(%rcx)
	addq	$56, %rcx
	cmpq	%rax, %rcx
	jne	LBB0_25
## %bb.26:                              ## %initarr.bb101e
	leaq	-56224(%rbp), %rsi
	movq	%rbx, %rdi
	callq	__ZN14altered_carbon2js9JsVariantaSERKS1_
	movq	%rbx, -4928(%rbp)
	movq	%rsp, %rax
	leaq	-16(%rax), %rsi
	movq	%rsi, %rsp
	leaq	-4928(%rbp), %rcx
	movq	%rcx, -16(%rax)
	movq	$1, -8(%rax)
	leaq	-56168(%rbp), %rdi
	callq	__ZN14altered_carbon2js9JsVariantaSERN4llvm8ArrayRefIPS1_EE
	movl	$64, %edi
	callq	__Znam
	movq	$1, (%rax)
	leaq	8(%rax), %rbx
	addq	$64, %rax
	movq	%rbx, %rcx
	.p2align	4, 0x90
LBB0_27:                                ## %initarr.bb109
                                        ## =>This Inner Loop Header: Depth=1
	movq	%r14, (%rcx)
	movl	$1, 8(%rcx)
	addq	$56, %rcx
	cmpq	%rax, %rcx
	jne	LBB0_27
## %bb.28:                              ## %initarr.bb109e
	leaq	-56168(%rbp), %rsi
	movq	%rbx, %rdi
	callq	__ZN14altered_carbon2js9JsVariantaSERKS1_
	movq	%rbx, -4912(%rbp)
	movq	%rsp, %rax
	leaq	-16(%rax), %rsi
	movq	%rsi, %rsp
	leaq	-4912(%rbp), %rcx
	movq	%rcx, -16(%rax)
	movq	$1, -8(%rax)
	leaq	-56112(%rbp), %rdi
	callq	__ZN14altered_carbon2js9JsVariantaSERN4llvm8ArrayRefIPS1_EE
	leaq	-56056(%rbp), %rdi
	movl	$1, %esi
	callq	__ZN14altered_carbon2js9JsVariantaSEx
	leaq	-56000(%rbp), %rdi
	movl	$2, %esi
	callq	__ZN14altered_carbon2js9JsVariantaSEx
	movl	$120, %edi
	callq	__Znam
	movq	$2, (%rax)
	leaq	8(%rax), %rbx
	addq	$120, %rax
	movq	%rbx, %rcx
	.p2align	4, 0x90
LBB0_29:                                ## %initarr.bb119
                                        ## =>This Inner Loop Header: Depth=1
	movq	%r14, (%rcx)
	movl	$1, 8(%rcx)
	addq	$56, %rcx
	cmpq	%rax, %rcx
	jne	LBB0_29
## %bb.30:                              ## %initarr.bb119e
	leaq	-56056(%rbp), %rsi
	movq	%rbx, %rdi
	callq	__ZN14altered_carbon2js9JsVariantaSERKS1_
	movq	%rbx, -8688(%rbp)
	addq	$56, %rbx
	leaq	-56000(%rbp), %rsi
	movq	%rbx, %rdi
	callq	__ZN14altered_carbon2js9JsVariantaSERKS1_
	movq	%rbx, -8680(%rbp)
	movq	%rsp, %rax
	leaq	-16(%rax), %rsi
	movq	%rsi, %rsp
	leaq	-8688(%rbp), %rcx
	movq	%rcx, -16(%rax)
	movq	$2, -8(%rax)
	leaq	-55944(%rbp), %rdi
	callq	__ZN14altered_carbon2js9JsVariantaSERN4llvm8ArrayRefIPS1_EE
	leaq	-55888(%rbp), %rdi
	movl	$3, %esi
	callq	__ZN14altered_carbon2js9JsVariantaSEx
	leaq	-55832(%rbp), %rdi
	movl	$4, %esi
	callq	__ZN14altered_carbon2js9JsVariantaSEx
	movl	$120, %edi
	callq	__Znam
	movq	$2, (%rax)
	leaq	8(%rax), %rbx
	addq	$120, %rax
	movq	%rbx, %rcx
	.p2align	4, 0x90
LBB0_31:                                ## %initarr.bb129
                                        ## =>This Inner Loop Header: Depth=1
	movq	%r14, (%rcx)
	movl	$1, 8(%rcx)
	addq	$56, %rcx
	cmpq	%rax, %rcx
	jne	LBB0_31
## %bb.32:                              ## %initarr.bb129e
	leaq	-55888(%rbp), %rsi
	movq	%rbx, %rdi
	callq	__ZN14altered_carbon2js9JsVariantaSERKS1_
	movq	%rbx, -8672(%rbp)
	addq	$56, %rbx
	leaq	-55832(%rbp), %rsi
	movq	%rbx, %rdi
	callq	__ZN14altered_carbon2js9JsVariantaSERKS1_
	movq	%rbx, -8664(%rbp)
	movq	%rsp, %rax
	leaq	-16(%rax), %rsi
	movq	%rsi, %rsp
	leaq	-8672(%rbp), %rcx
	movq	%rcx, -16(%rax)
	movq	$2, -8(%rax)
	leaq	-55776(%rbp), %rdi
	callq	__ZN14altered_carbon2js9JsVariantaSERN4llvm8ArrayRefIPS1_EE
	movl	$120, %edi
	callq	__Znam
	movq	$2, (%rax)
	leaq	8(%rax), %rbx
	addq	$120, %rax
	movq	%rbx, %rcx
	.p2align	4, 0x90
LBB0_33:                                ## %initarr.bb137
                                        ## =>This Inner Loop Header: Depth=1
	movq	%r14, (%rcx)
	movl	$1, 8(%rcx)
	addq	$56, %rcx
	cmpq	%rax, %rcx
	jne	LBB0_33
## %bb.34:                              ## %initarr.bb137e
	leaq	-55944(%rbp), %rsi
	movq	%rbx, %rdi
	callq	__ZN14altered_carbon2js9JsVariantaSERKS1_
	movq	%rbx, -8656(%rbp)
	addq	$56, %rbx
	leaq	-55776(%rbp), %rsi
	movq	%rbx, %rdi
	callq	__ZN14altered_carbon2js9JsVariantaSERKS1_
	movq	%rbx, -8648(%rbp)
	movq	%rsp, %rax
	leaq	-16(%rax), %rsi
	movq	%rsi, %rsp
	leaq	-8656(%rbp), %rcx
	movq	%rcx, -16(%rax)
	movq	$2, -8(%rax)
	leaq	-55720(%rbp), %rdi
	callq	__ZN14altered_carbon2js9JsVariantaSERN4llvm8ArrayRefIPS1_EE
	movl	$64, %edi
	callq	__Znam
	movq	$1, (%rax)
	leaq	8(%rax), %rbx
	addq	$64, %rax
	movq	%rbx, %rcx
	.p2align	4, 0x90
LBB0_35:                                ## %initarr.bb145
                                        ## =>This Inner Loop Header: Depth=1
	movq	%r14, (%rcx)
	movl	$1, 8(%rcx)
	addq	$56, %rcx
	cmpq	%rax, %rcx
	jne	LBB0_35
## %bb.36:                              ## %initarr.bb145e
	leaq	-55720(%rbp), %rsi
	movq	%rbx, %rdi
	callq	__ZN14altered_carbon2js9JsVariantaSERKS1_
	movq	%rbx, -4896(%rbp)
	movq	%rsp, %rax
	leaq	-16(%rax), %rsi
	movq	%rsi, %rsp
	leaq	-4896(%rbp), %rcx
	movq	%rcx, -16(%rax)
	movq	$1, -8(%rax)
	leaq	-55664(%rbp), %rdi
	callq	__ZN14altered_carbon2js9JsVariantaSERN4llvm8ArrayRefIPS1_EE
	movl	$64, %edi
	callq	__Znam
	movq	$1, (%rax)
	leaq	8(%rax), %rbx
	addq	$64, %rax
	movq	%rbx, %rcx
	.p2align	4, 0x90
LBB0_37:                                ## %initarr.bb153
                                        ## =>This Inner Loop Header: Depth=1
	movq	%r14, (%rcx)
	movl	$1, 8(%rcx)
	addq	$56, %rcx
	cmpq	%rax, %rcx
	jne	LBB0_37
## %bb.38:                              ## %initarr.bb153e
	leaq	-55664(%rbp), %rsi
	movq	%rbx, %rdi
	callq	__ZN14altered_carbon2js9JsVariantaSERKS1_
	movq	%rbx, -4880(%rbp)
	movq	%rsp, %rax
	leaq	-16(%rax), %rsi
	movq	%rsi, %rsp
	leaq	-4880(%rbp), %rcx
	movq	%rcx, -16(%rax)
	movq	$1, -8(%rax)
	leaq	-55608(%rbp), %rdi
	callq	__ZN14altered_carbon2js9JsVariantaSERN4llvm8ArrayRefIPS1_EE
	movl	$64, %edi
	callq	__Znam
	movq	$1, (%rax)
	leaq	8(%rax), %rbx
	addq	$64, %rax
	movq	%rbx, %rcx
	.p2align	4, 0x90
LBB0_39:                                ## %initarr.bb161
                                        ## =>This Inner Loop Header: Depth=1
	movq	%r14, (%rcx)
	movl	$1, 8(%rcx)
	addq	$56, %rcx
	cmpq	%rax, %rcx
	jne	LBB0_39
## %bb.40:                              ## %initarr.bb161e
	leaq	-55608(%rbp), %rsi
	movq	%rbx, %rdi
	callq	__ZN14altered_carbon2js9JsVariantaSERKS1_
	movq	%rbx, -4864(%rbp)
	movq	%rsp, %rax
	leaq	-16(%rax), %rsi
	movq	%rsi, %rsp
	leaq	-4864(%rbp), %rcx
	movq	%rcx, -16(%rax)
	movq	$1, -8(%rax)
	leaq	-55552(%rbp), %rdi
	callq	__ZN14altered_carbon2js9JsVariantaSERN4llvm8ArrayRefIPS1_EE
	movl	$64, %edi
	callq	__Znam
	movq	$1, (%rax)
	leaq	8(%rax), %rbx
	addq	$64, %rax
	movq	%rbx, %rcx
	.p2align	4, 0x90
LBB0_41:                                ## %initarr.bb169
                                        ## =>This Inner Loop Header: Depth=1
	movq	%r14, (%rcx)
	movl	$1, 8(%rcx)
	addq	$56, %rcx
	cmpq	%rax, %rcx
	jne	LBB0_41
## %bb.42:                              ## %initarr.bb169e
	leaq	-55552(%rbp), %rsi
	movq	%rbx, %rdi
	callq	__ZN14altered_carbon2js9JsVariantaSERKS1_
	movq	%rbx, -4848(%rbp)
	movq	%rsp, %rax
	leaq	-16(%rax), %rsi
	movq	%rsi, %rsp
	leaq	-4848(%rbp), %rcx
	movq	%rcx, -16(%rax)
	movq	$1, -8(%rax)
	leaq	-55496(%rbp), %rdi
	callq	__ZN14altered_carbon2js9JsVariantaSERN4llvm8ArrayRefIPS1_EE
	leaq	-55440(%rbp), %rdi
	movl	$1, %esi
	callq	__ZN14altered_carbon2js9JsVariantaSEx
	leaq	-55384(%rbp), %rdi
	movl	$2, %esi
	callq	__ZN14altered_carbon2js9JsVariantaSEx
	movl	$120, %edi
	callq	__Znam
	movq	$2, (%rax)
	leaq	8(%rax), %rbx
	addq	$120, %rax
	movq	%rbx, %rcx
	.p2align	4, 0x90
LBB0_43:                                ## %initarr.bb179
                                        ## =>This Inner Loop Header: Depth=1
	movq	%r14, (%rcx)
	movl	$1, 8(%rcx)
	addq	$56, %rcx
	cmpq	%rax, %rcx
	jne	LBB0_43
## %bb.44:                              ## %initarr.bb179e
	leaq	-55440(%rbp), %rsi
	movq	%rbx, %rdi
	callq	__ZN14altered_carbon2js9JsVariantaSERKS1_
	movq	%rbx, -8640(%rbp)
	addq	$56, %rbx
	leaq	-55384(%rbp), %rsi
	movq	%rbx, %rdi
	callq	__ZN14altered_carbon2js9JsVariantaSERKS1_
	movq	%rbx, -8632(%rbp)
	movq	%rsp, %rax
	leaq	-16(%rax), %rsi
	movq	%rsi, %rsp
	leaq	-8640(%rbp), %rcx
	movq	%rcx, -16(%rax)
	movq	$2, -8(%rax)
	leaq	-55328(%rbp), %rdi
	callq	__ZN14altered_carbon2js9JsVariantaSERN4llvm8ArrayRefIPS1_EE
	leaq	-55272(%rbp), %rdi
	movl	$3, %esi
	callq	__ZN14altered_carbon2js9JsVariantaSEx
	leaq	-55216(%rbp), %rdi
	movl	$4, %esi
	callq	__ZN14altered_carbon2js9JsVariantaSEx
	movl	$120, %edi
	callq	__Znam
	movq	$2, (%rax)
	leaq	8(%rax), %rbx
	addq	$120, %rax
	movq	%rbx, %rcx
	.p2align	4, 0x90
LBB0_45:                                ## %initarr.bb189
                                        ## =>This Inner Loop Header: Depth=1
	movq	%r14, (%rcx)
	movl	$1, 8(%rcx)
	addq	$56, %rcx
	cmpq	%rax, %rcx
	jne	LBB0_45
## %bb.46:                              ## %initarr.bb189e
	leaq	-55272(%rbp), %rsi
	movq	%rbx, %rdi
	callq	__ZN14altered_carbon2js9JsVariantaSERKS1_
	movq	%rbx, -8624(%rbp)
	addq	$56, %rbx
	leaq	-55216(%rbp), %rsi
	movq	%rbx, %rdi
	callq	__ZN14altered_carbon2js9JsVariantaSERKS1_
	movq	%rbx, -8616(%rbp)
	movq	%rsp, %rax
	leaq	-16(%rax), %rsi
	movq	%rsi, %rsp
	leaq	-8624(%rbp), %rcx
	movq	%rcx, -16(%rax)
	movq	$2, -8(%rax)
	leaq	-55160(%rbp), %rdi
	callq	__ZN14altered_carbon2js9JsVariantaSERN4llvm8ArrayRefIPS1_EE
	movl	$120, %edi
	callq	__Znam
	movq	$2, (%rax)
	leaq	8(%rax), %rbx
	addq	$120, %rax
	movq	%rbx, %rcx
	.p2align	4, 0x90
LBB0_47:                                ## %initarr.bb197
                                        ## =>This Inner Loop Header: Depth=1
	movq	%r14, (%rcx)
	movl	$1, 8(%rcx)
	addq	$56, %rcx
	cmpq	%rax, %rcx
	jne	LBB0_47
## %bb.48:                              ## %initarr.bb197e
	leaq	-55328(%rbp), %rsi
	movq	%rbx, %rdi
	callq	__ZN14altered_carbon2js9JsVariantaSERKS1_
	movq	%rbx, -8608(%rbp)
	addq	$56, %rbx
	leaq	-55160(%rbp), %rsi
	movq	%rbx, %rdi
	callq	__ZN14altered_carbon2js9JsVariantaSERKS1_
	movq	%rbx, -8600(%rbp)
	movq	%rsp, %rax
	leaq	-16(%rax), %rsi
	movq	%rsi, %rsp
	leaq	-8608(%rbp), %rcx
	movq	%rcx, -16(%rax)
	movq	$2, -8(%rax)
	leaq	-55104(%rbp), %rdi
	callq	__ZN14altered_carbon2js9JsVariantaSERN4llvm8ArrayRefIPS1_EE
	movl	$64, %edi
	callq	__Znam
	movq	$1, (%rax)
	leaq	8(%rax), %rbx
	addq	$64, %rax
	movq	%rbx, %rcx
	.p2align	4, 0x90
LBB0_49:                                ## %initarr.bb205
                                        ## =>This Inner Loop Header: Depth=1
	movq	%r14, (%rcx)
	movl	$1, 8(%rcx)
	addq	$56, %rcx
	cmpq	%rax, %rcx
	jne	LBB0_49
## %bb.50:                              ## %initarr.bb205e
	leaq	-55104(%rbp), %rsi
	movq	%rbx, %rdi
	callq	__ZN14altered_carbon2js9JsVariantaSERKS1_
	movq	%rbx, -4832(%rbp)
	movq	%rsp, %rax
	leaq	-16(%rax), %rsi
	movq	%rsi, %rsp
	leaq	-4832(%rbp), %rcx
	movq	%rcx, -16(%rax)
	movq	$1, -8(%rax)
	leaq	-55048(%rbp), %rdi
	callq	__ZN14altered_carbon2js9JsVariantaSERN4llvm8ArrayRefIPS1_EE
	movl	$64, %edi
	callq	__Znam
	movq	$1, (%rax)
	leaq	8(%rax), %rbx
	addq	$64, %rax
	movq	%rbx, %rcx
	.p2align	4, 0x90
LBB0_51:                                ## %initarr.bb213
                                        ## =>This Inner Loop Header: Depth=1
	movq	%r14, (%rcx)
	movl	$1, 8(%rcx)
	addq	$56, %rcx
	cmpq	%rax, %rcx
	jne	LBB0_51
## %bb.52:                              ## %initarr.bb213e
	leaq	-55048(%rbp), %rsi
	movq	%rbx, %rdi
	callq	__ZN14altered_carbon2js9JsVariantaSERKS1_
	movq	%rbx, -4816(%rbp)
	movq	%rsp, %rax
	leaq	-16(%rax), %rsi
	movq	%rsi, %rsp
	leaq	-4816(%rbp), %rcx
	movq	%rcx, -16(%rax)
	movq	$1, -8(%rax)
	leaq	-54992(%rbp), %rdi
	callq	__ZN14altered_carbon2js9JsVariantaSERN4llvm8ArrayRefIPS1_EE
	movl	$64, %edi
	callq	__Znam
	movq	$1, (%rax)
	leaq	8(%rax), %rbx
	addq	$64, %rax
	movq	%rbx, %rcx
	.p2align	4, 0x90
LBB0_53:                                ## %initarr.bb221
                                        ## =>This Inner Loop Header: Depth=1
	movq	%r14, (%rcx)
	movl	$1, 8(%rcx)
	addq	$56, %rcx
	cmpq	%rax, %rcx
	jne	LBB0_53
## %bb.54:                              ## %initarr.bb221e
	leaq	-54992(%rbp), %rsi
	movq	%rbx, %rdi
	callq	__ZN14altered_carbon2js9JsVariantaSERKS1_
	movq	%rbx, -4800(%rbp)
	movq	%rsp, %rax
	leaq	-16(%rax), %rsi
	movq	%rsi, %rsp
	leaq	-4800(%rbp), %rcx
	movq	%rcx, -16(%rax)
	movq	$1, -8(%rax)
	leaq	-54936(%rbp), %rdi
	callq	__ZN14altered_carbon2js9JsVariantaSERN4llvm8ArrayRefIPS1_EE
	movl	$64, %edi
	callq	__Znam
	movq	$1, (%rax)
	leaq	8(%rax), %rbx
	addq	$64, %rax
	movq	%rbx, %rcx
	.p2align	4, 0x90
LBB0_55:                                ## %initarr.bb229
                                        ## =>This Inner Loop Header: Depth=1
	movq	%r14, (%rcx)
	movl	$1, 8(%rcx)
	addq	$56, %rcx
	cmpq	%rax, %rcx
	jne	LBB0_55
## %bb.56:                              ## %initarr.bb229e
	leaq	-54936(%rbp), %rsi
	movq	%rbx, %rdi
	callq	__ZN14altered_carbon2js9JsVariantaSERKS1_
	movq	%rbx, -4784(%rbp)
	movq	%rsp, %rax
	leaq	-16(%rax), %rsi
	movq	%rsi, %rsp
	leaq	-4784(%rbp), %rcx
	movq	%rcx, -16(%rax)
	movq	$1, -8(%rax)
	leaq	-54880(%rbp), %rdi
	callq	__ZN14altered_carbon2js9JsVariantaSERN4llvm8ArrayRefIPS1_EE
	leaq	-54824(%rbp), %rdi
	movl	$1, %esi
	callq	__ZN14altered_carbon2js9JsVariantaSEx
	leaq	-54768(%rbp), %rdi
	movl	$2, %esi
	callq	__ZN14altered_carbon2js9JsVariantaSEx
	movl	$120, %edi
	callq	__Znam
	movq	$2, (%rax)
	leaq	8(%rax), %rbx
	addq	$120, %rax
	movq	%rbx, %rcx
	.p2align	4, 0x90
LBB0_57:                                ## %initarr.bb239
                                        ## =>This Inner Loop Header: Depth=1
	movq	%r14, (%rcx)
	movl	$1, 8(%rcx)
	addq	$56, %rcx
	cmpq	%rax, %rcx
	jne	LBB0_57
## %bb.58:                              ## %initarr.bb239e
	leaq	-54824(%rbp), %rsi
	movq	%rbx, %rdi
	callq	__ZN14altered_carbon2js9JsVariantaSERKS1_
	movq	%rbx, -8592(%rbp)
	addq	$56, %rbx
	leaq	-54768(%rbp), %rsi
	movq	%rbx, %rdi
	callq	__ZN14altered_carbon2js9JsVariantaSERKS1_
	movq	%rbx, -8584(%rbp)
	movq	%rsp, %rax
	leaq	-16(%rax), %rsi
	movq	%rsi, %rsp
	leaq	-8592(%rbp), %rcx
	movq	%rcx, -16(%rax)
	movq	$2, -8(%rax)
	leaq	-54712(%rbp), %rdi
	callq	__ZN14altered_carbon2js9JsVariantaSERN4llvm8ArrayRefIPS1_EE
	leaq	-54656(%rbp), %rdi
	movl	$3, %esi
	callq	__ZN14altered_carbon2js9JsVariantaSEx
	leaq	-54600(%rbp), %rdi
	movl	$4, %esi
	callq	__ZN14altered_carbon2js9JsVariantaSEx
	movl	$120, %edi
	callq	__Znam
	movq	$2, (%rax)
	leaq	8(%rax), %rbx
	addq	$120, %rax
	movq	%rbx, %rcx
	.p2align	4, 0x90
LBB0_59:                                ## %initarr.bb249
                                        ## =>This Inner Loop Header: Depth=1
	movq	%r14, (%rcx)
	movl	$1, 8(%rcx)
	addq	$56, %rcx
	cmpq	%rax, %rcx
	jne	LBB0_59
## %bb.60:                              ## %initarr.bb249e
	leaq	-54656(%rbp), %rsi
	movq	%rbx, %rdi
	callq	__ZN14altered_carbon2js9JsVariantaSERKS1_
	movq	%rbx, -8576(%rbp)
	addq	$56, %rbx
	leaq	-54600(%rbp), %rsi
	movq	%rbx, %rdi
	callq	__ZN14altered_carbon2js9JsVariantaSERKS1_
	movq	%rbx, -8568(%rbp)
	movq	%rsp, %rax
	leaq	-16(%rax), %rsi
	movq	%rsi, %rsp
	leaq	-8576(%rbp), %rcx
	movq	%rcx, -16(%rax)
	movq	$2, -8(%rax)
	leaq	-54544(%rbp), %rdi
	callq	__ZN14altered_carbon2js9JsVariantaSERN4llvm8ArrayRefIPS1_EE
	movl	$120, %edi
	callq	__Znam
	movq	$2, (%rax)
	leaq	8(%rax), %rbx
	addq	$120, %rax
	movq	%rbx, %rcx
	.p2align	4, 0x90
LBB0_61:                                ## %initarr.bb257
                                        ## =>This Inner Loop Header: Depth=1
	movq	%r14, (%rcx)
	movl	$1, 8(%rcx)
	addq	$56, %rcx
	cmpq	%rax, %rcx
	jne	LBB0_61
## %bb.62:                              ## %initarr.bb257e
	leaq	-54712(%rbp), %rsi
	movq	%rbx, %rdi
	callq	__ZN14altered_carbon2js9JsVariantaSERKS1_
	movq	%rbx, -8560(%rbp)
	addq	$56, %rbx
	leaq	-54544(%rbp), %rsi
	movq	%rbx, %rdi
	callq	__ZN14altered_carbon2js9JsVariantaSERKS1_
	movq	%rbx, -8552(%rbp)
	movq	%rsp, %rax
	leaq	-16(%rax), %rsi
	movq	%rsi, %rsp
	leaq	-8560(%rbp), %rcx
	movq	%rcx, -16(%rax)
	movq	$2, -8(%rax)
	leaq	-54488(%rbp), %rdi
	callq	__ZN14altered_carbon2js9JsVariantaSERN4llvm8ArrayRefIPS1_EE
	movl	$64, %edi
	callq	__Znam
	movq	$1, (%rax)
	leaq	8(%rax), %rbx
	addq	$64, %rax
	movq	%rbx, %rcx
	.p2align	4, 0x90
LBB0_63:                                ## %initarr.bb265
                                        ## =>This Inner Loop Header: Depth=1
	movq	%r14, (%rcx)
	movl	$1, 8(%rcx)
	addq	$56, %rcx
	cmpq	%rax, %rcx
	jne	LBB0_63
## %bb.64:                              ## %initarr.bb265e
	leaq	-54488(%rbp), %rsi
	movq	%rbx, %rdi
	callq	__ZN14altered_carbon2js9JsVariantaSERKS1_
	movq	%rbx, -4768(%rbp)
	movq	%rsp, %rax
	leaq	-16(%rax), %rsi
	movq	%rsi, %rsp
	leaq	-4768(%rbp), %rcx
	movq	%rcx, -16(%rax)
	movq	$1, -8(%rax)
	leaq	-54432(%rbp), %rdi
	callq	__ZN14altered_carbon2js9JsVariantaSERN4llvm8ArrayRefIPS1_EE
	movl	$64, %edi
	callq	__Znam
	movq	$1, (%rax)
	leaq	8(%rax), %rbx
	addq	$64, %rax
	movq	%rbx, %rcx
	.p2align	4, 0x90
LBB0_65:                                ## %initarr.bb273
                                        ## =>This Inner Loop Header: Depth=1
	movq	%r14, (%rcx)
	movl	$1, 8(%rcx)
	addq	$56, %rcx
	cmpq	%rax, %rcx
	jne	LBB0_65
## %bb.66:                              ## %initarr.bb273e
	leaq	-54432(%rbp), %rsi
	movq	%rbx, %rdi
	callq	__ZN14altered_carbon2js9JsVariantaSERKS1_
	movq	%rbx, -4752(%rbp)
	movq	%rsp, %rax
	leaq	-16(%rax), %rsi
	movq	%rsi, %rsp
	leaq	-4752(%rbp), %rcx
	movq	%rcx, -16(%rax)
	movq	$1, -8(%rax)
	leaq	-54376(%rbp), %rdi
	callq	__ZN14altered_carbon2js9JsVariantaSERN4llvm8ArrayRefIPS1_EE
	movl	$64, %edi
	callq	__Znam
	movq	$1, (%rax)
	leaq	8(%rax), %rbx
	addq	$64, %rax
	movq	%rbx, %rcx
	.p2align	4, 0x90
LBB0_67:                                ## %initarr.bb281
                                        ## =>This Inner Loop Header: Depth=1
	movq	%r14, (%rcx)
	movl	$1, 8(%rcx)
	addq	$56, %rcx
	cmpq	%rax, %rcx
	jne	LBB0_67
## %bb.68:                              ## %initarr.bb281e
	leaq	-54376(%rbp), %rsi
	movq	%rbx, %rdi
	callq	__ZN14altered_carbon2js9JsVariantaSERKS1_
	movq	%rbx, -4736(%rbp)
	movq	%rsp, %rax
	leaq	-16(%rax), %rsi
	movq	%rsi, %rsp
	leaq	-4736(%rbp), %rcx
	movq	%rcx, -16(%rax)
	movq	$1, -8(%rax)
	leaq	-54320(%rbp), %rdi
	callq	__ZN14altered_carbon2js9JsVariantaSERN4llvm8ArrayRefIPS1_EE
	movl	$64, %edi
	callq	__Znam
	movq	$1, (%rax)
	leaq	8(%rax), %rbx
	addq	$64, %rax
	movq	%rbx, %rcx
	.p2align	4, 0x90
LBB0_69:                                ## %initarr.bb289
                                        ## =>This Inner Loop Header: Depth=1
	movq	%r14, (%rcx)
	movl	$1, 8(%rcx)
	addq	$56, %rcx
	cmpq	%rax, %rcx
	jne	LBB0_69
## %bb.70:                              ## %initarr.bb289e
	leaq	-54320(%rbp), %rsi
	movq	%rbx, %rdi
	callq	__ZN14altered_carbon2js9JsVariantaSERKS1_
	movq	%rbx, -4720(%rbp)
	movq	%rsp, %rax
	leaq	-16(%rax), %rsi
	movq	%rsi, %rsp
	leaq	-4720(%rbp), %rcx
	movq	%rcx, -16(%rax)
	movq	$1, -8(%rax)
	leaq	-54264(%rbp), %rdi
	callq	__ZN14altered_carbon2js9JsVariantaSERN4llvm8ArrayRefIPS1_EE
	leaq	-54208(%rbp), %rdi
	movl	$1, %esi
	callq	__ZN14altered_carbon2js9JsVariantaSEx
	leaq	-54152(%rbp), %rdi
	movl	$2, %esi
	callq	__ZN14altered_carbon2js9JsVariantaSEx
	movl	$120, %edi
	callq	__Znam
	movq	$2, (%rax)
	leaq	8(%rax), %rbx
	addq	$120, %rax
	movq	%rbx, %rcx
	.p2align	4, 0x90
LBB0_71:                                ## %initarr.bb299
                                        ## =>This Inner Loop Header: Depth=1
	movq	%r14, (%rcx)
	movl	$1, 8(%rcx)
	addq	$56, %rcx
	cmpq	%rax, %rcx
	jne	LBB0_71
## %bb.72:                              ## %initarr.bb299e
	leaq	-54208(%rbp), %rsi
	movq	%rbx, %rdi
	callq	__ZN14altered_carbon2js9JsVariantaSERKS1_
	movq	%rbx, -8544(%rbp)
	addq	$56, %rbx
	leaq	-54152(%rbp), %rsi
	movq	%rbx, %rdi
	callq	__ZN14altered_carbon2js9JsVariantaSERKS1_
	movq	%rbx, -8536(%rbp)
	movq	%rsp, %rax
	leaq	-16(%rax), %rsi
	movq	%rsi, %rsp
	leaq	-8544(%rbp), %rcx
	movq	%rcx, -16(%rax)
	movq	$2, -8(%rax)
	leaq	-54096(%rbp), %rdi
	callq	__ZN14altered_carbon2js9JsVariantaSERN4llvm8ArrayRefIPS1_EE
	leaq	-54040(%rbp), %rdi
	movl	$3, %esi
	callq	__ZN14altered_carbon2js9JsVariantaSEx
	leaq	-53984(%rbp), %rdi
	movl	$4, %esi
	callq	__ZN14altered_carbon2js9JsVariantaSEx
	movl	$120, %edi
	callq	__Znam
	movq	$2, (%rax)
	leaq	8(%rax), %rbx
	addq	$120, %rax
	movq	%rbx, %rcx
	.p2align	4, 0x90
LBB0_73:                                ## %initarr.bb309
                                        ## =>This Inner Loop Header: Depth=1
	movq	%r14, (%rcx)
	movl	$1, 8(%rcx)
	addq	$56, %rcx
	cmpq	%rax, %rcx
	jne	LBB0_73
## %bb.74:                              ## %initarr.bb309e
	leaq	-54040(%rbp), %rsi
	movq	%rbx, %rdi
	callq	__ZN14altered_carbon2js9JsVariantaSERKS1_
	movq	%rbx, -8528(%rbp)
	addq	$56, %rbx
	leaq	-53984(%rbp), %rsi
	movq	%rbx, %rdi
	callq	__ZN14altered_carbon2js9JsVariantaSERKS1_
	movq	%rbx, -8520(%rbp)
	movq	%rsp, %rax
	leaq	-16(%rax), %rsi
	movq	%rsi, %rsp
	leaq	-8528(%rbp), %rcx
	movq	%rcx, -16(%rax)
	movq	$2, -8(%rax)
	leaq	-53928(%rbp), %rdi
	callq	__ZN14altered_carbon2js9JsVariantaSERN4llvm8ArrayRefIPS1_EE
	movl	$120, %edi
	callq	__Znam
	movq	$2, (%rax)
	leaq	8(%rax), %rbx
	addq	$120, %rax
	movq	%rbx, %rcx
	.p2align	4, 0x90
LBB0_75:                                ## %initarr.bb317
                                        ## =>This Inner Loop Header: Depth=1
	movq	%r14, (%rcx)
	movl	$1, 8(%rcx)
	addq	$56, %rcx
	cmpq	%rax, %rcx
	jne	LBB0_75
## %bb.76:                              ## %initarr.bb317e
	leaq	-54096(%rbp), %rsi
	movq	%rbx, %rdi
	callq	__ZN14altered_carbon2js9JsVariantaSERKS1_
	movq	%rbx, -8512(%rbp)
	addq	$56, %rbx
	leaq	-53928(%rbp), %rsi
	movq	%rbx, %rdi
	callq	__ZN14altered_carbon2js9JsVariantaSERKS1_
	movq	%rbx, -8504(%rbp)
	movq	%rsp, %rax
	leaq	-16(%rax), %rsi
	movq	%rsi, %rsp
	leaq	-8512(%rbp), %rcx
	movq	%rcx, -16(%rax)
	movq	$2, -8(%rax)
	leaq	-53872(%rbp), %rdi
	callq	__ZN14altered_carbon2js9JsVariantaSERN4llvm8ArrayRefIPS1_EE
	movl	$64, %edi
	callq	__Znam
	movq	$1, (%rax)
	leaq	8(%rax), %rbx
	addq	$64, %rax
	movq	%rbx, %rcx
	.p2align	4, 0x90
LBB0_77:                                ## %initarr.bb325
                                        ## =>This Inner Loop Header: Depth=1
	movq	%r14, (%rcx)
	movl	$1, 8(%rcx)
	addq	$56, %rcx
	cmpq	%rax, %rcx
	jne	LBB0_77
## %bb.78:                              ## %initarr.bb325e
	leaq	-53872(%rbp), %rsi
	movq	%rbx, %rdi
	callq	__ZN14altered_carbon2js9JsVariantaSERKS1_
	movq	%rbx, -4704(%rbp)
	movq	%rsp, %rax
	leaq	-16(%rax), %rsi
	movq	%rsi, %rsp
	leaq	-4704(%rbp), %rcx
	movq	%rcx, -16(%rax)
	movq	$1, -8(%rax)
	leaq	-53816(%rbp), %rdi
	callq	__ZN14altered_carbon2js9JsVariantaSERN4llvm8ArrayRefIPS1_EE
	movl	$64, %edi
	callq	__Znam
	movq	$1, (%rax)
	leaq	8(%rax), %rbx
	addq	$64, %rax
	movq	%rbx, %rcx
	.p2align	4, 0x90
LBB0_79:                                ## %initarr.bb333
                                        ## =>This Inner Loop Header: Depth=1
	movq	%r14, (%rcx)
	movl	$1, 8(%rcx)
	addq	$56, %rcx
	cmpq	%rax, %rcx
	jne	LBB0_79
## %bb.80:                              ## %initarr.bb333e
	leaq	-53816(%rbp), %rsi
	movq	%rbx, %rdi
	callq	__ZN14altered_carbon2js9JsVariantaSERKS1_
	movq	%rbx, -4688(%rbp)
	movq	%rsp, %rax
	leaq	-16(%rax), %rsi
	movq	%rsi, %rsp
	leaq	-4688(%rbp), %rcx
	movq	%rcx, -16(%rax)
	movq	$1, -8(%rax)
	leaq	-53760(%rbp), %rdi
	callq	__ZN14altered_carbon2js9JsVariantaSERN4llvm8ArrayRefIPS1_EE
	movl	$64, %edi
	callq	__Znam
	movq	$1, (%rax)
	leaq	8(%rax), %rbx
	addq	$64, %rax
	movq	%rbx, %rcx
	.p2align	4, 0x90
LBB0_81:                                ## %initarr.bb341
                                        ## =>This Inner Loop Header: Depth=1
	movq	%r14, (%rcx)
	movl	$1, 8(%rcx)
	addq	$56, %rcx
	cmpq	%rax, %rcx
	jne	LBB0_81
## %bb.82:                              ## %initarr.bb341e
	leaq	-53760(%rbp), %rsi
	movq	%rbx, %rdi
	callq	__ZN14altered_carbon2js9JsVariantaSERKS1_
	movq	%rbx, -4672(%rbp)
	movq	%rsp, %rax
	leaq	-16(%rax), %rsi
	movq	%rsi, %rsp
	leaq	-4672(%rbp), %rcx
	movq	%rcx, -16(%rax)
	movq	$1, -8(%rax)
	leaq	-53704(%rbp), %rdi
	callq	__ZN14altered_carbon2js9JsVariantaSERN4llvm8ArrayRefIPS1_EE
	movl	$64, %edi
	callq	__Znam
	movq	$1, (%rax)
	leaq	8(%rax), %rbx
	addq	$64, %rax
	movq	%rbx, %rcx
	.p2align	4, 0x90
LBB0_83:                                ## %initarr.bb349
                                        ## =>This Inner Loop Header: Depth=1
	movq	%r14, (%rcx)
	movl	$1, 8(%rcx)
	addq	$56, %rcx
	cmpq	%rax, %rcx
	jne	LBB0_83
## %bb.84:                              ## %initarr.bb349e
	leaq	-53704(%rbp), %rsi
	movq	%rbx, %rdi
	callq	__ZN14altered_carbon2js9JsVariantaSERKS1_
	movq	%rbx, -4656(%rbp)
	movq	%rsp, %rax
	leaq	-16(%rax), %rsi
	movq	%rsi, %rsp
	leaq	-4656(%rbp), %rcx
	movq	%rcx, -16(%rax)
	movq	$1, -8(%rax)
	leaq	-53648(%rbp), %rdi
	callq	__ZN14altered_carbon2js9JsVariantaSERN4llvm8ArrayRefIPS1_EE
	leaq	-53592(%rbp), %rdi
	movl	$1, %esi
	callq	__ZN14altered_carbon2js9JsVariantaSEx
	leaq	-53536(%rbp), %rdi
	movl	$2, %esi
	callq	__ZN14altered_carbon2js9JsVariantaSEx
	movl	$120, %edi
	callq	__Znam
	movq	$2, (%rax)
	leaq	8(%rax), %rbx
	addq	$120, %rax
	movq	%rbx, %rcx
	.p2align	4, 0x90
LBB0_85:                                ## %initarr.bb359
                                        ## =>This Inner Loop Header: Depth=1
	movq	%r14, (%rcx)
	movl	$1, 8(%rcx)
	addq	$56, %rcx
	cmpq	%rax, %rcx
	jne	LBB0_85
## %bb.86:                              ## %initarr.bb359e
	leaq	-53592(%rbp), %rsi
	movq	%rbx, %rdi
	callq	__ZN14altered_carbon2js9JsVariantaSERKS1_
	movq	%rbx, -8496(%rbp)
	addq	$56, %rbx
	leaq	-53536(%rbp), %rsi
	movq	%rbx, %rdi
	callq	__ZN14altered_carbon2js9JsVariantaSERKS1_
	movq	%rbx, -8488(%rbp)
	movq	%rsp, %rax
	leaq	-16(%rax), %rsi
	movq	%rsi, %rsp
	leaq	-8496(%rbp), %rcx
	movq	%rcx, -16(%rax)
	movq	$2, -8(%rax)
	leaq	-53480(%rbp), %rdi
	callq	__ZN14altered_carbon2js9JsVariantaSERN4llvm8ArrayRefIPS1_EE
	leaq	-53424(%rbp), %rdi
	movl	$3, %esi
	callq	__ZN14altered_carbon2js9JsVariantaSEx
	leaq	-53368(%rbp), %rdi
	movl	$4, %esi
	callq	__ZN14altered_carbon2js9JsVariantaSEx
	movl	$120, %edi
	callq	__Znam
	movq	$2, (%rax)
	leaq	8(%rax), %rbx
	addq	$120, %rax
	movq	%rbx, %rcx
	.p2align	4, 0x90
LBB0_87:                                ## %initarr.bb369
                                        ## =>This Inner Loop Header: Depth=1
	movq	%r14, (%rcx)
	movl	$1, 8(%rcx)
	addq	$56, %rcx
	cmpq	%rax, %rcx
	jne	LBB0_87
## %bb.88:                              ## %initarr.bb369e
	leaq	-53424(%rbp), %rsi
	movq	%rbx, %rdi
	callq	__ZN14altered_carbon2js9JsVariantaSERKS1_
	movq	%rbx, -8480(%rbp)
	addq	$56, %rbx
	leaq	-53368(%rbp), %rsi
	movq	%rbx, %rdi
	callq	__ZN14altered_carbon2js9JsVariantaSERKS1_
	movq	%rbx, -8472(%rbp)
	movq	%rsp, %rax
	leaq	-16(%rax), %rsi
	movq	%rsi, %rsp
	leaq	-8480(%rbp), %rcx
	movq	%rcx, -16(%rax)
	movq	$2, -8(%rax)
	leaq	-53312(%rbp), %rdi
	callq	__ZN14altered_carbon2js9JsVariantaSERN4llvm8ArrayRefIPS1_EE
	movl	$120, %edi
	callq	__Znam
	movq	$2, (%rax)
	leaq	8(%rax), %rbx
	addq	$120, %rax
	movq	%rbx, %rcx
	.p2align	4, 0x90
LBB0_89:                                ## %initarr.bb377
                                        ## =>This Inner Loop Header: Depth=1
	movq	%r14, (%rcx)
	movl	$1, 8(%rcx)
	addq	$56, %rcx
	cmpq	%rax, %rcx
	jne	LBB0_89
## %bb.90:                              ## %initarr.bb377e
	leaq	-53480(%rbp), %rsi
	movq	%rbx, %rdi
	callq	__ZN14altered_carbon2js9JsVariantaSERKS1_
	movq	%rbx, -8464(%rbp)
	addq	$56, %rbx
	leaq	-53312(%rbp), %rsi
	movq	%rbx, %rdi
	callq	__ZN14altered_carbon2js9JsVariantaSERKS1_
	movq	%rbx, -8456(%rbp)
	movq	%rsp, %rax
	leaq	-16(%rax), %rsi
	movq	%rsi, %rsp
	leaq	-8464(%rbp), %rcx
	movq	%rcx, -16(%rax)
	movq	$2, -8(%rax)
	leaq	-53256(%rbp), %rdi
	callq	__ZN14altered_carbon2js9JsVariantaSERN4llvm8ArrayRefIPS1_EE
	movl	$64, %edi
	callq	__Znam
	movq	$1, (%rax)
	leaq	8(%rax), %rbx
	addq	$64, %rax
	movq	%rbx, %rcx
	.p2align	4, 0x90
LBB0_91:                                ## %initarr.bb385
                                        ## =>This Inner Loop Header: Depth=1
	movq	%r14, (%rcx)
	movl	$1, 8(%rcx)
	addq	$56, %rcx
	cmpq	%rax, %rcx
	jne	LBB0_91
## %bb.92:                              ## %initarr.bb385e
	leaq	-53256(%rbp), %rsi
	movq	%rbx, %rdi
	callq	__ZN14altered_carbon2js9JsVariantaSERKS1_
	movq	%rbx, -4640(%rbp)
	movq	%rsp, %rax
	leaq	-16(%rax), %rsi
	movq	%rsi, %rsp
	leaq	-4640(%rbp), %rcx
	movq	%rcx, -16(%rax)
	movq	$1, -8(%rax)
	leaq	-53200(%rbp), %rdi
	callq	__ZN14altered_carbon2js9JsVariantaSERN4llvm8ArrayRefIPS1_EE
	movl	$64, %edi
	callq	__Znam
	movq	$1, (%rax)
	leaq	8(%rax), %rbx
	addq	$64, %rax
	movq	%rbx, %rcx
	.p2align	4, 0x90
LBB0_93:                                ## %initarr.bb393
                                        ## =>This Inner Loop Header: Depth=1
	movq	%r14, (%rcx)
	movl	$1, 8(%rcx)
	addq	$56, %rcx
	cmpq	%rax, %rcx
	jne	LBB0_93
## %bb.94:                              ## %initarr.bb393e
	leaq	-53200(%rbp), %rsi
	movq	%rbx, %rdi
	callq	__ZN14altered_carbon2js9JsVariantaSERKS1_
	movq	%rbx, -4624(%rbp)
	movq	%rsp, %rax
	leaq	-16(%rax), %rsi
	movq	%rsi, %rsp
	leaq	-4624(%rbp), %rcx
	movq	%rcx, -16(%rax)
	movq	$1, -8(%rax)
	leaq	-53144(%rbp), %rdi
	callq	__ZN14altered_carbon2js9JsVariantaSERN4llvm8ArrayRefIPS1_EE
	movl	$64, %edi
	callq	__Znam
	movq	$1, (%rax)
	leaq	8(%rax), %rbx
	addq	$64, %rax
	movq	%rbx, %rcx
	.p2align	4, 0x90
LBB0_95:                                ## %initarr.bb401
                                        ## =>This Inner Loop Header: Depth=1
	movq	%r14, (%rcx)
	movl	$1, 8(%rcx)
	addq	$56, %rcx
	cmpq	%rax, %rcx
	jne	LBB0_95
## %bb.96:                              ## %initarr.bb401e
	leaq	-53144(%rbp), %rsi
	movq	%rbx, %rdi
	callq	__ZN14altered_carbon2js9JsVariantaSERKS1_
	movq	%rbx, -4608(%rbp)
	movq	%rsp, %rax
	leaq	-16(%rax), %rsi
	movq	%rsi, %rsp
	leaq	-4608(%rbp), %rcx
	movq	%rcx, -16(%rax)
	movq	$1, -8(%rax)
	leaq	-53088(%rbp), %rdi
	callq	__ZN14altered_carbon2js9JsVariantaSERN4llvm8ArrayRefIPS1_EE
	movl	$64, %edi
	callq	__Znam
	movq	$1, (%rax)
	leaq	8(%rax), %rbx
	addq	$64, %rax
	movq	%rbx, %rcx
	.p2align	4, 0x90
LBB0_97:                                ## %initarr.bb409
                                        ## =>This Inner Loop Header: Depth=1
	movq	%r14, (%rcx)
	movl	$1, 8(%rcx)
	addq	$56, %rcx
	cmpq	%rax, %rcx
	jne	LBB0_97
## %bb.98:                              ## %initarr.bb409e
	leaq	-53088(%rbp), %rsi
	movq	%rbx, %rdi
	callq	__ZN14altered_carbon2js9JsVariantaSERKS1_
	movq	%rbx, -4592(%rbp)
	movq	%rsp, %rax
	leaq	-16(%rax), %rsi
	movq	%rsi, %rsp
	leaq	-4592(%rbp), %rcx
	movq	%rcx, -16(%rax)
	movq	$1, -8(%rax)
	leaq	-53032(%rbp), %rdi
	callq	__ZN14altered_carbon2js9JsVariantaSERN4llvm8ArrayRefIPS1_EE
	leaq	-52976(%rbp), %rdi
	movl	$1, %esi
	callq	__ZN14altered_carbon2js9JsVariantaSEx
	leaq	-52920(%rbp), %rdi
	movl	$2, %esi
	callq	__ZN14altered_carbon2js9JsVariantaSEx
	movl	$120, %edi
	callq	__Znam
	movq	$2, (%rax)
	leaq	8(%rax), %rbx
	addq	$120, %rax
	movq	%rbx, %rcx
	.p2align	4, 0x90
LBB0_99:                                ## %initarr.bb419
                                        ## =>This Inner Loop Header: Depth=1
	movq	%r14, (%rcx)
	movl	$1, 8(%rcx)
	addq	$56, %rcx
	cmpq	%rax, %rcx
	jne	LBB0_99
## %bb.100:                             ## %initarr.bb419e
	leaq	-52976(%rbp), %rsi
	movq	%rbx, %rdi
	callq	__ZN14altered_carbon2js9JsVariantaSERKS1_
	movq	%rbx, -8448(%rbp)
	addq	$56, %rbx
	leaq	-52920(%rbp), %rsi
	movq	%rbx, %rdi
	callq	__ZN14altered_carbon2js9JsVariantaSERKS1_
	movq	%rbx, -8440(%rbp)
	movq	%rsp, %rax
	leaq	-16(%rax), %rsi
	movq	%rsi, %rsp
	leaq	-8448(%rbp), %rcx
	movq	%rcx, -16(%rax)
	movq	$2, -8(%rax)
	leaq	-52864(%rbp), %rdi
	callq	__ZN14altered_carbon2js9JsVariantaSERN4llvm8ArrayRefIPS1_EE
	leaq	-52808(%rbp), %rdi
	movl	$3, %esi
	callq	__ZN14altered_carbon2js9JsVariantaSEx
	leaq	-52752(%rbp), %rdi
	movl	$4, %esi
	callq	__ZN14altered_carbon2js9JsVariantaSEx
	movl	$120, %edi
	callq	__Znam
	movq	$2, (%rax)
	leaq	8(%rax), %rbx
	addq	$120, %rax
	movq	%rbx, %rcx
	.p2align	4, 0x90
LBB0_101:                               ## %initarr.bb429
                                        ## =>This Inner Loop Header: Depth=1
	movq	%r14, (%rcx)
	movl	$1, 8(%rcx)
	addq	$56, %rcx
	cmpq	%rax, %rcx
	jne	LBB0_101
## %bb.102:                             ## %initarr.bb429e
	leaq	-52808(%rbp), %rsi
	movq	%rbx, %rdi
	callq	__ZN14altered_carbon2js9JsVariantaSERKS1_
	movq	%rbx, -8432(%rbp)
	addq	$56, %rbx
	leaq	-52752(%rbp), %rsi
	movq	%rbx, %rdi
	callq	__ZN14altered_carbon2js9JsVariantaSERKS1_
	movq	%rbx, -8424(%rbp)
	movq	%rsp, %rax
	leaq	-16(%rax), %rsi
	movq	%rsi, %rsp
	leaq	-8432(%rbp), %rcx
	movq	%rcx, -16(%rax)
	movq	$2, -8(%rax)
	leaq	-52696(%rbp), %rdi
	callq	__ZN14altered_carbon2js9JsVariantaSERN4llvm8ArrayRefIPS1_EE
	movl	$120, %edi
	callq	__Znam
	movq	$2, (%rax)
	leaq	8(%rax), %rbx
	addq	$120, %rax
	movq	%rbx, %rcx
	.p2align	4, 0x90
LBB0_103:                               ## %initarr.bb437
                                        ## =>This Inner Loop Header: Depth=1
	movq	%r14, (%rcx)
	movl	$1, 8(%rcx)
	addq	$56, %rcx
	cmpq	%rax, %rcx
	jne	LBB0_103
## %bb.104:                             ## %initarr.bb437e
	leaq	-52864(%rbp), %rsi
	movq	%rbx, %rdi
	callq	__ZN14altered_carbon2js9JsVariantaSERKS1_
	movq	%rbx, -8416(%rbp)
	addq	$56, %rbx
	leaq	-52696(%rbp), %rsi
	movq	%rbx, %rdi
	callq	__ZN14altered_carbon2js9JsVariantaSERKS1_
	movq	%rbx, -8408(%rbp)
	movq	%rsp, %rax
	leaq	-16(%rax), %rsi
	movq	%rsi, %rsp
	leaq	-8416(%rbp), %rcx
	movq	%rcx, -16(%rax)
	movq	$2, -8(%rax)
	leaq	-52640(%rbp), %rdi
	callq	__ZN14altered_carbon2js9JsVariantaSERN4llvm8ArrayRefIPS1_EE
	movl	$64, %edi
	callq	__Znam
	movq	$1, (%rax)
	leaq	8(%rax), %rbx
	addq	$64, %rax
	movq	%rbx, %rcx
	.p2align	4, 0x90
LBB0_105:                               ## %initarr.bb445
                                        ## =>This Inner Loop Header: Depth=1
	movq	%r14, (%rcx)
	movl	$1, 8(%rcx)
	addq	$56, %rcx
	cmpq	%rax, %rcx
	jne	LBB0_105
## %bb.106:                             ## %initarr.bb445e
	leaq	-52640(%rbp), %rsi
	movq	%rbx, %rdi
	callq	__ZN14altered_carbon2js9JsVariantaSERKS1_
	movq	%rbx, -4576(%rbp)
	movq	%rsp, %rax
	leaq	-16(%rax), %rsi
	movq	%rsi, %rsp
	leaq	-4576(%rbp), %rcx
	movq	%rcx, -16(%rax)
	movq	$1, -8(%rax)
	leaq	-52584(%rbp), %rdi
	callq	__ZN14altered_carbon2js9JsVariantaSERN4llvm8ArrayRefIPS1_EE
	movl	$64, %edi
	callq	__Znam
	movq	$1, (%rax)
	leaq	8(%rax), %rbx
	addq	$64, %rax
	movq	%rbx, %rcx
	.p2align	4, 0x90
LBB0_107:                               ## %initarr.bb453
                                        ## =>This Inner Loop Header: Depth=1
	movq	%r14, (%rcx)
	movl	$1, 8(%rcx)
	addq	$56, %rcx
	cmpq	%rax, %rcx
	jne	LBB0_107
## %bb.108:                             ## %initarr.bb453e
	leaq	-52584(%rbp), %rsi
	movq	%rbx, %rdi
	callq	__ZN14altered_carbon2js9JsVariantaSERKS1_
	movq	%rbx, -4560(%rbp)
	movq	%rsp, %rax
	leaq	-16(%rax), %rsi
	movq	%rsi, %rsp
	leaq	-4560(%rbp), %rcx
	movq	%rcx, -16(%rax)
	movq	$1, -8(%rax)
	leaq	-52528(%rbp), %rdi
	callq	__ZN14altered_carbon2js9JsVariantaSERN4llvm8ArrayRefIPS1_EE
	movl	$64, %edi
	callq	__Znam
	movq	$1, (%rax)
	leaq	8(%rax), %rbx
	addq	$64, %rax
	movq	%rbx, %rcx
	.p2align	4, 0x90
LBB0_109:                               ## %initarr.bb461
                                        ## =>This Inner Loop Header: Depth=1
	movq	%r14, (%rcx)
	movl	$1, 8(%rcx)
	addq	$56, %rcx
	cmpq	%rax, %rcx
	jne	LBB0_109
## %bb.110:                             ## %initarr.bb461e
	leaq	-52528(%rbp), %rsi
	movq	%rbx, %rdi
	callq	__ZN14altered_carbon2js9JsVariantaSERKS1_
	movq	%rbx, -4544(%rbp)
	movq	%rsp, %rax
	leaq	-16(%rax), %rsi
	movq	%rsi, %rsp
	leaq	-4544(%rbp), %rcx
	movq	%rcx, -16(%rax)
	movq	$1, -8(%rax)
	leaq	-52472(%rbp), %rdi
	callq	__ZN14altered_carbon2js9JsVariantaSERN4llvm8ArrayRefIPS1_EE
	movl	$64, %edi
	callq	__Znam
	movq	$1, (%rax)
	leaq	8(%rax), %rbx
	addq	$64, %rax
	movq	%rbx, %rcx
	.p2align	4, 0x90
LBB0_111:                               ## %initarr.bb469
                                        ## =>This Inner Loop Header: Depth=1
	movq	%r14, (%rcx)
	movl	$1, 8(%rcx)
	addq	$56, %rcx
	cmpq	%rax, %rcx
	jne	LBB0_111
## %bb.112:                             ## %initarr.bb469e
	leaq	-52472(%rbp), %rsi
	movq	%rbx, %rdi
	callq	__ZN14altered_carbon2js9JsVariantaSERKS1_
	movq	%rbx, -4528(%rbp)
	movq	%rsp, %rax
	leaq	-16(%rax), %rsi
	movq	%rsi, %rsp
	leaq	-4528(%rbp), %rcx
	movq	%rcx, -16(%rax)
	movq	$1, -8(%rax)
	leaq	-52416(%rbp), %rdi
	callq	__ZN14altered_carbon2js9JsVariantaSERN4llvm8ArrayRefIPS1_EE
	leaq	-52360(%rbp), %rdi
	movl	$1, %esi
	callq	__ZN14altered_carbon2js9JsVariantaSEx
	leaq	-52304(%rbp), %rdi
	movl	$2, %esi
	callq	__ZN14altered_carbon2js9JsVariantaSEx
	movl	$120, %edi
	callq	__Znam
	movq	$2, (%rax)
	leaq	8(%rax), %rbx
	addq	$120, %rax
	movq	%rbx, %rcx
	.p2align	4, 0x90
LBB0_113:                               ## %initarr.bb479
                                        ## =>This Inner Loop Header: Depth=1
	movq	%r14, (%rcx)
	movl	$1, 8(%rcx)
	addq	$56, %rcx
	cmpq	%rax, %rcx
	jne	LBB0_113
## %bb.114:                             ## %initarr.bb479e
	leaq	-52360(%rbp), %rsi
	movq	%rbx, %rdi
	callq	__ZN14altered_carbon2js9JsVariantaSERKS1_
	movq	%rbx, -8400(%rbp)
	addq	$56, %rbx
	leaq	-52304(%rbp), %rsi
	movq	%rbx, %rdi
	callq	__ZN14altered_carbon2js9JsVariantaSERKS1_
	movq	%rbx, -8392(%rbp)
	movq	%rsp, %rax
	leaq	-16(%rax), %rsi
	movq	%rsi, %rsp
	leaq	-8400(%rbp), %rcx
	movq	%rcx, -16(%rax)
	movq	$2, -8(%rax)
	leaq	-52248(%rbp), %rdi
	callq	__ZN14altered_carbon2js9JsVariantaSERN4llvm8ArrayRefIPS1_EE
	leaq	-52192(%rbp), %rdi
	movl	$3, %esi
	callq	__ZN14altered_carbon2js9JsVariantaSEx
	leaq	-52136(%rbp), %rdi
	movl	$4, %esi
	callq	__ZN14altered_carbon2js9JsVariantaSEx
	movl	$120, %edi
	callq	__Znam
	movq	$2, (%rax)
	leaq	8(%rax), %rbx
	addq	$120, %rax
	movq	%rbx, %rcx
	.p2align	4, 0x90
LBB0_115:                               ## %initarr.bb489
                                        ## =>This Inner Loop Header: Depth=1
	movq	%r14, (%rcx)
	movl	$1, 8(%rcx)
	addq	$56, %rcx
	cmpq	%rax, %rcx
	jne	LBB0_115
## %bb.116:                             ## %initarr.bb489e
	leaq	-52192(%rbp), %rsi
	movq	%rbx, %rdi
	callq	__ZN14altered_carbon2js9JsVariantaSERKS1_
	movq	%rbx, -8384(%rbp)
	addq	$56, %rbx
	leaq	-52136(%rbp), %rsi
	movq	%rbx, %rdi
	callq	__ZN14altered_carbon2js9JsVariantaSERKS1_
	movq	%rbx, -8376(%rbp)
	movq	%rsp, %rax
	leaq	-16(%rax), %rsi
	movq	%rsi, %rsp
	leaq	-8384(%rbp), %rcx
	movq	%rcx, -16(%rax)
	movq	$2, -8(%rax)
	leaq	-52080(%rbp), %rdi
	callq	__ZN14altered_carbon2js9JsVariantaSERN4llvm8ArrayRefIPS1_EE
	movl	$120, %edi
	callq	__Znam
	movq	$2, (%rax)
	leaq	8(%rax), %rbx
	addq	$120, %rax
	movq	%rbx, %rcx
	.p2align	4, 0x90
LBB0_117:                               ## %initarr.bb497
                                        ## =>This Inner Loop Header: Depth=1
	movq	%r14, (%rcx)
	movl	$1, 8(%rcx)
	addq	$56, %rcx
	cmpq	%rax, %rcx
	jne	LBB0_117
## %bb.118:                             ## %initarr.bb497e
	leaq	-52248(%rbp), %rsi
	movq	%rbx, %rdi
	callq	__ZN14altered_carbon2js9JsVariantaSERKS1_
	movq	%rbx, -8368(%rbp)
	addq	$56, %rbx
	leaq	-52080(%rbp), %rsi
	movq	%rbx, %rdi
	callq	__ZN14altered_carbon2js9JsVariantaSERKS1_
	movq	%rbx, -8360(%rbp)
	movq	%rsp, %rax
	leaq	-16(%rax), %rsi
	movq	%rsi, %rsp
	leaq	-8368(%rbp), %rcx
	movq	%rcx, -16(%rax)
	movq	$2, -8(%rax)
	leaq	-52024(%rbp), %rdi
	callq	__ZN14altered_carbon2js9JsVariantaSERN4llvm8ArrayRefIPS1_EE
	movl	$64, %edi
	callq	__Znam
	movq	$1, (%rax)
	leaq	8(%rax), %rbx
	addq	$64, %rax
	movq	%rbx, %rcx
	.p2align	4, 0x90
LBB0_119:                               ## %initarr.bb505
                                        ## =>This Inner Loop Header: Depth=1
	movq	%r14, (%rcx)
	movl	$1, 8(%rcx)
	addq	$56, %rcx
	cmpq	%rax, %rcx
	jne	LBB0_119
## %bb.120:                             ## %initarr.bb505e
	leaq	-52024(%rbp), %rsi
	movq	%rbx, %rdi
	callq	__ZN14altered_carbon2js9JsVariantaSERKS1_
	movq	%rbx, -4512(%rbp)
	movq	%rsp, %rax
	leaq	-16(%rax), %rsi
	movq	%rsi, %rsp
	leaq	-4512(%rbp), %rcx
	movq	%rcx, -16(%rax)
	movq	$1, -8(%rax)
	leaq	-51968(%rbp), %rdi
	callq	__ZN14altered_carbon2js9JsVariantaSERN4llvm8ArrayRefIPS1_EE
	movl	$64, %edi
	callq	__Znam
	movq	$1, (%rax)
	leaq	8(%rax), %rbx
	addq	$64, %rax
	movq	%rbx, %rcx
	.p2align	4, 0x90
LBB0_121:                               ## %initarr.bb513
                                        ## =>This Inner Loop Header: Depth=1
	movq	%r14, (%rcx)
	movl	$1, 8(%rcx)
	addq	$56, %rcx
	cmpq	%rax, %rcx
	jne	LBB0_121
## %bb.122:                             ## %initarr.bb513e
	leaq	-51968(%rbp), %rsi
	movq	%rbx, %rdi
	callq	__ZN14altered_carbon2js9JsVariantaSERKS1_
	movq	%rbx, -4496(%rbp)
	movq	%rsp, %rax
	leaq	-16(%rax), %rsi
	movq	%rsi, %rsp
	leaq	-4496(%rbp), %rcx
	movq	%rcx, -16(%rax)
	movq	$1, -8(%rax)
	leaq	-51912(%rbp), %rdi
	callq	__ZN14altered_carbon2js9JsVariantaSERN4llvm8ArrayRefIPS1_EE
	movl	$64, %edi
	callq	__Znam
	movq	$1, (%rax)
	leaq	8(%rax), %rbx
	addq	$64, %rax
	movq	%rbx, %rcx
	.p2align	4, 0x90
LBB0_123:                               ## %initarr.bb521
                                        ## =>This Inner Loop Header: Depth=1
	movq	%r14, (%rcx)
	movl	$1, 8(%rcx)
	addq	$56, %rcx
	cmpq	%rax, %rcx
	jne	LBB0_123
## %bb.124:                             ## %initarr.bb521e
	leaq	-51912(%rbp), %rsi
	movq	%rbx, %rdi
	callq	__ZN14altered_carbon2js9JsVariantaSERKS1_
	movq	%rbx, -4480(%rbp)
	movq	%rsp, %rax
	leaq	-16(%rax), %rsi
	movq	%rsi, %rsp
	leaq	-4480(%rbp), %rcx
	movq	%rcx, -16(%rax)
	movq	$1, -8(%rax)
	leaq	-51856(%rbp), %rdi
	callq	__ZN14altered_carbon2js9JsVariantaSERN4llvm8ArrayRefIPS1_EE
	movl	$64, %edi
	callq	__Znam
	movq	$1, (%rax)
	leaq	8(%rax), %rbx
	addq	$64, %rax
	movq	%rbx, %rcx
	.p2align	4, 0x90
LBB0_125:                               ## %initarr.bb529
                                        ## =>This Inner Loop Header: Depth=1
	movq	%r14, (%rcx)
	movl	$1, 8(%rcx)
	addq	$56, %rcx
	cmpq	%rax, %rcx
	jne	LBB0_125
## %bb.126:                             ## %initarr.bb529e
	leaq	-51856(%rbp), %rsi
	movq	%rbx, %rdi
	callq	__ZN14altered_carbon2js9JsVariantaSERKS1_
	movq	%rbx, -4464(%rbp)
	movq	%rsp, %rax
	leaq	-16(%rax), %rsi
	movq	%rsi, %rsp
	leaq	-4464(%rbp), %rcx
	movq	%rcx, -16(%rax)
	movq	$1, -8(%rax)
	leaq	-51800(%rbp), %rdi
	callq	__ZN14altered_carbon2js9JsVariantaSERN4llvm8ArrayRefIPS1_EE
	leaq	-51744(%rbp), %rdi
	movl	$1, %esi
	callq	__ZN14altered_carbon2js9JsVariantaSEx
	leaq	-51688(%rbp), %rdi
	movl	$2, %esi
	callq	__ZN14altered_carbon2js9JsVariantaSEx
	movl	$120, %edi
	callq	__Znam
	movq	$2, (%rax)
	leaq	8(%rax), %rbx
	addq	$120, %rax
	movq	%rbx, %rcx
	.p2align	4, 0x90
LBB0_127:                               ## %initarr.bb539
                                        ## =>This Inner Loop Header: Depth=1
	movq	%r14, (%rcx)
	movl	$1, 8(%rcx)
	addq	$56, %rcx
	cmpq	%rax, %rcx
	jne	LBB0_127
## %bb.128:                             ## %initarr.bb539e
	leaq	-51744(%rbp), %rsi
	movq	%rbx, %rdi
	callq	__ZN14altered_carbon2js9JsVariantaSERKS1_
	movq	%rbx, -8352(%rbp)
	addq	$56, %rbx
	leaq	-51688(%rbp), %rsi
	movq	%rbx, %rdi
	callq	__ZN14altered_carbon2js9JsVariantaSERKS1_
	movq	%rbx, -8344(%rbp)
	movq	%rsp, %rax
	leaq	-16(%rax), %rsi
	movq	%rsi, %rsp
	leaq	-8352(%rbp), %rcx
	movq	%rcx, -16(%rax)
	movq	$2, -8(%rax)
	leaq	-51632(%rbp), %rdi
	callq	__ZN14altered_carbon2js9JsVariantaSERN4llvm8ArrayRefIPS1_EE
	leaq	-51576(%rbp), %rdi
	movl	$3, %esi
	callq	__ZN14altered_carbon2js9JsVariantaSEx
	leaq	-51520(%rbp), %rdi
	movl	$4, %esi
	callq	__ZN14altered_carbon2js9JsVariantaSEx
	movl	$120, %edi
	callq	__Znam
	movq	$2, (%rax)
	leaq	8(%rax), %rbx
	addq	$120, %rax
	movq	%rbx, %rcx
	.p2align	4, 0x90
LBB0_129:                               ## %initarr.bb549
                                        ## =>This Inner Loop Header: Depth=1
	movq	%r14, (%rcx)
	movl	$1, 8(%rcx)
	addq	$56, %rcx
	cmpq	%rax, %rcx
	jne	LBB0_129
## %bb.130:                             ## %initarr.bb549e
	leaq	-51576(%rbp), %rsi
	movq	%rbx, %rdi
	callq	__ZN14altered_carbon2js9JsVariantaSERKS1_
	movq	%rbx, -8336(%rbp)
	addq	$56, %rbx
	leaq	-51520(%rbp), %rsi
	movq	%rbx, %rdi
	callq	__ZN14altered_carbon2js9JsVariantaSERKS1_
	movq	%rbx, -8328(%rbp)
	movq	%rsp, %rax
	leaq	-16(%rax), %rsi
	movq	%rsi, %rsp
	leaq	-8336(%rbp), %rcx
	movq	%rcx, -16(%rax)
	movq	$2, -8(%rax)
	leaq	-51464(%rbp), %rdi
	callq	__ZN14altered_carbon2js9JsVariantaSERN4llvm8ArrayRefIPS1_EE
	movl	$120, %edi
	callq	__Znam
	movq	$2, (%rax)
	leaq	8(%rax), %rbx
	addq	$120, %rax
	movq	%rbx, %rcx
	.p2align	4, 0x90
LBB0_131:                               ## %initarr.bb557
                                        ## =>This Inner Loop Header: Depth=1
	movq	%r14, (%rcx)
	movl	$1, 8(%rcx)
	addq	$56, %rcx
	cmpq	%rax, %rcx
	jne	LBB0_131
## %bb.132:                             ## %initarr.bb557e
	leaq	-51632(%rbp), %rsi
	movq	%rbx, %rdi
	callq	__ZN14altered_carbon2js9JsVariantaSERKS1_
	movq	%rbx, -8320(%rbp)
	addq	$56, %rbx
	leaq	-51464(%rbp), %rsi
	movq	%rbx, %rdi
	callq	__ZN14altered_carbon2js9JsVariantaSERKS1_
	movq	%rbx, -8312(%rbp)
	movq	%rsp, %rax
	leaq	-16(%rax), %rsi
	movq	%rsi, %rsp
	leaq	-8320(%rbp), %rcx
	movq	%rcx, -16(%rax)
	movq	$2, -8(%rax)
	leaq	-51408(%rbp), %rdi
	callq	__ZN14altered_carbon2js9JsVariantaSERN4llvm8ArrayRefIPS1_EE
	movl	$64, %edi
	callq	__Znam
	movq	$1, (%rax)
	leaq	8(%rax), %rbx
	addq	$64, %rax
	movq	%rbx, %rcx
	.p2align	4, 0x90
LBB0_133:                               ## %initarr.bb565
                                        ## =>This Inner Loop Header: Depth=1
	movq	%r14, (%rcx)
	movl	$1, 8(%rcx)
	addq	$56, %rcx
	cmpq	%rax, %rcx
	jne	LBB0_133
## %bb.134:                             ## %initarr.bb565e
	leaq	-51408(%rbp), %rsi
	movq	%rbx, %rdi
	callq	__ZN14altered_carbon2js9JsVariantaSERKS1_
	movq	%rbx, -4448(%rbp)
	movq	%rsp, %rax
	leaq	-16(%rax), %rsi
	movq	%rsi, %rsp
	leaq	-4448(%rbp), %rcx
	movq	%rcx, -16(%rax)
	movq	$1, -8(%rax)
	leaq	-51352(%rbp), %rdi
	callq	__ZN14altered_carbon2js9JsVariantaSERN4llvm8ArrayRefIPS1_EE
	movl	$64, %edi
	callq	__Znam
	movq	$1, (%rax)
	leaq	8(%rax), %rbx
	addq	$64, %rax
	movq	%rbx, %rcx
	.p2align	4, 0x90
LBB0_135:                               ## %initarr.bb573
                                        ## =>This Inner Loop Header: Depth=1
	movq	%r14, (%rcx)
	movl	$1, 8(%rcx)
	addq	$56, %rcx
	cmpq	%rax, %rcx
	jne	LBB0_135
## %bb.136:                             ## %initarr.bb573e
	leaq	-51352(%rbp), %rsi
	movq	%rbx, %rdi
	callq	__ZN14altered_carbon2js9JsVariantaSERKS1_
	movq	%rbx, -4432(%rbp)
	movq	%rsp, %rax
	leaq	-16(%rax), %rsi
	movq	%rsi, %rsp
	leaq	-4432(%rbp), %rcx
	movq	%rcx, -16(%rax)
	movq	$1, -8(%rax)
	leaq	-51296(%rbp), %rdi
	callq	__ZN14altered_carbon2js9JsVariantaSERN4llvm8ArrayRefIPS1_EE
	movl	$64, %edi
	callq	__Znam
	movq	$1, (%rax)
	leaq	8(%rax), %rbx
	addq	$64, %rax
	movq	%rbx, %rcx
	.p2align	4, 0x90
LBB0_137:                               ## %initarr.bb581
                                        ## =>This Inner Loop Header: Depth=1
	movq	%r14, (%rcx)
	movl	$1, 8(%rcx)
	addq	$56, %rcx
	cmpq	%rax, %rcx
	jne	LBB0_137
## %bb.138:                             ## %initarr.bb581e
	leaq	-51296(%rbp), %rsi
	movq	%rbx, %rdi
	callq	__ZN14altered_carbon2js9JsVariantaSERKS1_
	movq	%rbx, -4416(%rbp)
	movq	%rsp, %rax
	leaq	-16(%rax), %rsi
	movq	%rsi, %rsp
	leaq	-4416(%rbp), %rcx
	movq	%rcx, -16(%rax)
	movq	$1, -8(%rax)
	leaq	-51240(%rbp), %rdi
	callq	__ZN14altered_carbon2js9JsVariantaSERN4llvm8ArrayRefIPS1_EE
	movl	$64, %edi
	callq	__Znam
	movq	$1, (%rax)
	leaq	8(%rax), %rbx
	addq	$64, %rax
	movq	%rbx, %rcx
	.p2align	4, 0x90
LBB0_139:                               ## %initarr.bb589
                                        ## =>This Inner Loop Header: Depth=1
	movq	%r14, (%rcx)
	movl	$1, 8(%rcx)
	addq	$56, %rcx
	cmpq	%rax, %rcx
	jne	LBB0_139
## %bb.140:                             ## %initarr.bb589e
	leaq	-51240(%rbp), %rsi
	movq	%rbx, %rdi
	callq	__ZN14altered_carbon2js9JsVariantaSERKS1_
	movq	%rbx, -4400(%rbp)
	movq	%rsp, %rax
	leaq	-16(%rax), %rsi
	movq	%rsi, %rsp
	leaq	-4400(%rbp), %rcx
	movq	%rcx, -16(%rax)
	movq	$1, -8(%rax)
	leaq	-51184(%rbp), %rdi
	callq	__ZN14altered_carbon2js9JsVariantaSERN4llvm8ArrayRefIPS1_EE
	leaq	-51128(%rbp), %rdi
	movl	$1, %esi
	callq	__ZN14altered_carbon2js9JsVariantaSEx
	leaq	-51072(%rbp), %rdi
	movl	$2, %esi
	callq	__ZN14altered_carbon2js9JsVariantaSEx
	movl	$120, %edi
	callq	__Znam
	movq	$2, (%rax)
	leaq	8(%rax), %rbx
	addq	$120, %rax
	movq	%rbx, %rcx
	.p2align	4, 0x90
LBB0_141:                               ## %initarr.bb599
                                        ## =>This Inner Loop Header: Depth=1
	movq	%r14, (%rcx)
	movl	$1, 8(%rcx)
	addq	$56, %rcx
	cmpq	%rax, %rcx
	jne	LBB0_141
## %bb.142:                             ## %initarr.bb599e
	leaq	-51128(%rbp), %rsi
	movq	%rbx, %rdi
	callq	__ZN14altered_carbon2js9JsVariantaSERKS1_
	movq	%rbx, -8304(%rbp)
	addq	$56, %rbx
	leaq	-51072(%rbp), %rsi
	movq	%rbx, %rdi
	callq	__ZN14altered_carbon2js9JsVariantaSERKS1_
	movq	%rbx, -8296(%rbp)
	movq	%rsp, %rax
	leaq	-16(%rax), %rsi
	movq	%rsi, %rsp
	leaq	-8304(%rbp), %rcx
	movq	%rcx, -16(%rax)
	movq	$2, -8(%rax)
	leaq	-51016(%rbp), %rdi
	callq	__ZN14altered_carbon2js9JsVariantaSERN4llvm8ArrayRefIPS1_EE
	leaq	-50960(%rbp), %rdi
	movl	$3, %esi
	callq	__ZN14altered_carbon2js9JsVariantaSEx
	leaq	-50904(%rbp), %rdi
	movl	$4, %esi
	callq	__ZN14altered_carbon2js9JsVariantaSEx
	movl	$120, %edi
	callq	__Znam
	movq	$2, (%rax)
	leaq	8(%rax), %rbx
	addq	$120, %rax
	movq	%rbx, %rcx
	.p2align	4, 0x90
LBB0_143:                               ## %initarr.bb609
                                        ## =>This Inner Loop Header: Depth=1
	movq	%r14, (%rcx)
	movl	$1, 8(%rcx)
	addq	$56, %rcx
	cmpq	%rax, %rcx
	jne	LBB0_143
## %bb.144:                             ## %initarr.bb609e
	leaq	-50960(%rbp), %rsi
	movq	%rbx, %rdi
	callq	__ZN14altered_carbon2js9JsVariantaSERKS1_
	movq	%rbx, -8288(%rbp)
	addq	$56, %rbx
	leaq	-50904(%rbp), %rsi
	movq	%rbx, %rdi
	callq	__ZN14altered_carbon2js9JsVariantaSERKS1_
	movq	%rbx, -8280(%rbp)
	movq	%rsp, %rax
	leaq	-16(%rax), %rsi
	movq	%rsi, %rsp
	leaq	-8288(%rbp), %rcx
	movq	%rcx, -16(%rax)
	movq	$2, -8(%rax)
	leaq	-50848(%rbp), %rdi
	callq	__ZN14altered_carbon2js9JsVariantaSERN4llvm8ArrayRefIPS1_EE
	movl	$120, %edi
	callq	__Znam
	movq	$2, (%rax)
	leaq	8(%rax), %rbx
	addq	$120, %rax
	movq	%rbx, %rcx
	.p2align	4, 0x90
LBB0_145:                               ## %initarr.bb617
                                        ## =>This Inner Loop Header: Depth=1
	movq	%r14, (%rcx)
	movl	$1, 8(%rcx)
	addq	$56, %rcx
	cmpq	%rax, %rcx
	jne	LBB0_145
## %bb.146:                             ## %initarr.bb617e
	leaq	-51016(%rbp), %rsi
	movq	%rbx, %rdi
	callq	__ZN14altered_carbon2js9JsVariantaSERKS1_
	movq	%rbx, -8272(%rbp)
	addq	$56, %rbx
	leaq	-50848(%rbp), %rsi
	movq	%rbx, %rdi
	callq	__ZN14altered_carbon2js9JsVariantaSERKS1_
	movq	%rbx, -8264(%rbp)
	movq	%rsp, %rax
	leaq	-16(%rax), %rsi
	movq	%rsi, %rsp
	leaq	-8272(%rbp), %rcx
	movq	%rcx, -16(%rax)
	movq	$2, -8(%rax)
	leaq	-50792(%rbp), %rdi
	callq	__ZN14altered_carbon2js9JsVariantaSERN4llvm8ArrayRefIPS1_EE
	movl	$64, %edi
	callq	__Znam
	movq	$1, (%rax)
	leaq	8(%rax), %rbx
	addq	$64, %rax
	movq	%rbx, %rcx
	.p2align	4, 0x90
LBB0_147:                               ## %initarr.bb625
                                        ## =>This Inner Loop Header: Depth=1
	movq	%r14, (%rcx)
	movl	$1, 8(%rcx)
	addq	$56, %rcx
	cmpq	%rax, %rcx
	jne	LBB0_147
## %bb.148:                             ## %initarr.bb625e
	leaq	-50792(%rbp), %rsi
	movq	%rbx, %rdi
	callq	__ZN14altered_carbon2js9JsVariantaSERKS1_
	movq	%rbx, -4384(%rbp)
	movq	%rsp, %rax
	leaq	-16(%rax), %rsi
	movq	%rsi, %rsp
	leaq	-4384(%rbp), %rcx
	movq	%rcx, -16(%rax)
	movq	$1, -8(%rax)
	leaq	-50736(%rbp), %rdi
	callq	__ZN14altered_carbon2js9JsVariantaSERN4llvm8ArrayRefIPS1_EE
	movl	$64, %edi
	callq	__Znam
	movq	$1, (%rax)
	leaq	8(%rax), %rbx
	addq	$64, %rax
	movq	%rbx, %rcx
	.p2align	4, 0x90
LBB0_149:                               ## %initarr.bb633
                                        ## =>This Inner Loop Header: Depth=1
	movq	%r14, (%rcx)
	movl	$1, 8(%rcx)
	addq	$56, %rcx
	cmpq	%rax, %rcx
	jne	LBB0_149
## %bb.150:                             ## %initarr.bb633e
	leaq	-50736(%rbp), %rsi
	movq	%rbx, %rdi
	callq	__ZN14altered_carbon2js9JsVariantaSERKS1_
	movq	%rbx, -4368(%rbp)
	movq	%rsp, %rax
	leaq	-16(%rax), %rsi
	movq	%rsi, %rsp
	leaq	-4368(%rbp), %rcx
	movq	%rcx, -16(%rax)
	movq	$1, -8(%rax)
	leaq	-50680(%rbp), %rdi
	callq	__ZN14altered_carbon2js9JsVariantaSERN4llvm8ArrayRefIPS1_EE
	movl	$64, %edi
	callq	__Znam
	movq	$1, (%rax)
	leaq	8(%rax), %rbx
	addq	$64, %rax
	movq	%rbx, %rcx
	.p2align	4, 0x90
LBB0_151:                               ## %initarr.bb641
                                        ## =>This Inner Loop Header: Depth=1
	movq	%r14, (%rcx)
	movl	$1, 8(%rcx)
	addq	$56, %rcx
	cmpq	%rax, %rcx
	jne	LBB0_151
## %bb.152:                             ## %initarr.bb641e
	leaq	-50680(%rbp), %rsi
	movq	%rbx, %rdi
	callq	__ZN14altered_carbon2js9JsVariantaSERKS1_
	movq	%rbx, -4352(%rbp)
	movq	%rsp, %rax
	leaq	-16(%rax), %rsi
	movq	%rsi, %rsp
	leaq	-4352(%rbp), %rcx
	movq	%rcx, -16(%rax)
	movq	$1, -8(%rax)
	leaq	-50624(%rbp), %rdi
	callq	__ZN14altered_carbon2js9JsVariantaSERN4llvm8ArrayRefIPS1_EE
	movl	$64, %edi
	callq	__Znam
	movq	$1, (%rax)
	leaq	8(%rax), %rbx
	addq	$64, %rax
	movq	%rbx, %rcx
	.p2align	4, 0x90
LBB0_153:                               ## %initarr.bb649
                                        ## =>This Inner Loop Header: Depth=1
	movq	%r14, (%rcx)
	movl	$1, 8(%rcx)
	addq	$56, %rcx
	cmpq	%rax, %rcx
	jne	LBB0_153
## %bb.154:                             ## %initarr.bb649e
	leaq	-50624(%rbp), %rsi
	movq	%rbx, %rdi
	callq	__ZN14altered_carbon2js9JsVariantaSERKS1_
	movq	%rbx, -4336(%rbp)
	movq	%rsp, %rax
	leaq	-16(%rax), %rsi
	movq	%rsi, %rsp
	leaq	-4336(%rbp), %rcx
	movq	%rcx, -16(%rax)
	movq	$1, -8(%rax)
	leaq	-50568(%rbp), %rdi
	callq	__ZN14altered_carbon2js9JsVariantaSERN4llvm8ArrayRefIPS1_EE
	leaq	-50512(%rbp), %rdi
	movl	$1, %esi
	callq	__ZN14altered_carbon2js9JsVariantaSEx
	leaq	-50456(%rbp), %rdi
	movl	$2, %esi
	callq	__ZN14altered_carbon2js9JsVariantaSEx
	movl	$120, %edi
	callq	__Znam
	movq	$2, (%rax)
	leaq	8(%rax), %rbx
	addq	$120, %rax
	movq	%rbx, %rcx
	.p2align	4, 0x90
LBB0_155:                               ## %initarr.bb659
                                        ## =>This Inner Loop Header: Depth=1
	movq	%r14, (%rcx)
	movl	$1, 8(%rcx)
	addq	$56, %rcx
	cmpq	%rax, %rcx
	jne	LBB0_155
## %bb.156:                             ## %initarr.bb659e
	leaq	-50512(%rbp), %rsi
	movq	%rbx, %rdi
	callq	__ZN14altered_carbon2js9JsVariantaSERKS1_
	movq	%rbx, -8256(%rbp)
	addq	$56, %rbx
	leaq	-50456(%rbp), %rsi
	movq	%rbx, %rdi
	callq	__ZN14altered_carbon2js9JsVariantaSERKS1_
	movq	%rbx, -8248(%rbp)
	movq	%rsp, %rax
	leaq	-16(%rax), %rsi
	movq	%rsi, %rsp
	leaq	-8256(%rbp), %rcx
	movq	%rcx, -16(%rax)
	movq	$2, -8(%rax)
	leaq	-50400(%rbp), %rdi
	callq	__ZN14altered_carbon2js9JsVariantaSERN4llvm8ArrayRefIPS1_EE
	leaq	-50344(%rbp), %rdi
	movl	$3, %esi
	callq	__ZN14altered_carbon2js9JsVariantaSEx
	leaq	-50288(%rbp), %rdi
	movl	$4, %esi
	callq	__ZN14altered_carbon2js9JsVariantaSEx
	movl	$120, %edi
	callq	__Znam
	movq	$2, (%rax)
	leaq	8(%rax), %rbx
	addq	$120, %rax
	movq	%rbx, %rcx
	.p2align	4, 0x90
LBB0_157:                               ## %initarr.bb669
                                        ## =>This Inner Loop Header: Depth=1
	movq	%r14, (%rcx)
	movl	$1, 8(%rcx)
	addq	$56, %rcx
	cmpq	%rax, %rcx
	jne	LBB0_157
## %bb.158:                             ## %initarr.bb669e
	leaq	-50344(%rbp), %rsi
	movq	%rbx, %rdi
	callq	__ZN14altered_carbon2js9JsVariantaSERKS1_
	movq	%rbx, -8240(%rbp)
	addq	$56, %rbx
	leaq	-50288(%rbp), %rsi
	movq	%rbx, %rdi
	callq	__ZN14altered_carbon2js9JsVariantaSERKS1_
	movq	%rbx, -8232(%rbp)
	movq	%rsp, %rax
	leaq	-16(%rax), %rsi
	movq	%rsi, %rsp
	leaq	-8240(%rbp), %rcx
	movq	%rcx, -16(%rax)
	movq	$2, -8(%rax)
	leaq	-50232(%rbp), %rdi
	callq	__ZN14altered_carbon2js9JsVariantaSERN4llvm8ArrayRefIPS1_EE
	movl	$120, %edi
	callq	__Znam
	movq	$2, (%rax)
	leaq	8(%rax), %rbx
	addq	$120, %rax
	movq	%rbx, %rcx
	.p2align	4, 0x90
LBB0_159:                               ## %initarr.bb677
                                        ## =>This Inner Loop Header: Depth=1
	movq	%r14, (%rcx)
	movl	$1, 8(%rcx)
	addq	$56, %rcx
	cmpq	%rax, %rcx
	jne	LBB0_159
## %bb.160:                             ## %initarr.bb677e
	leaq	-50400(%rbp), %rsi
	movq	%rbx, %rdi
	callq	__ZN14altered_carbon2js9JsVariantaSERKS1_
	movq	%rbx, -8224(%rbp)
	addq	$56, %rbx
	leaq	-50232(%rbp), %rsi
	movq	%rbx, %rdi
	callq	__ZN14altered_carbon2js9JsVariantaSERKS1_
	movq	%rbx, -8216(%rbp)
	movq	%rsp, %rax
	leaq	-16(%rax), %rsi
	movq	%rsi, %rsp
	leaq	-8224(%rbp), %rcx
	movq	%rcx, -16(%rax)
	movq	$2, -8(%rax)
	leaq	-50176(%rbp), %rdi
	callq	__ZN14altered_carbon2js9JsVariantaSERN4llvm8ArrayRefIPS1_EE
	movl	$64, %edi
	callq	__Znam
	movq	$1, (%rax)
	leaq	8(%rax), %rbx
	addq	$64, %rax
	movq	%rbx, %rcx
	.p2align	4, 0x90
LBB0_161:                               ## %initarr.bb685
                                        ## =>This Inner Loop Header: Depth=1
	movq	%r14, (%rcx)
	movl	$1, 8(%rcx)
	addq	$56, %rcx
	cmpq	%rax, %rcx
	jne	LBB0_161
## %bb.162:                             ## %initarr.bb685e
	leaq	-50176(%rbp), %rsi
	movq	%rbx, %rdi
	callq	__ZN14altered_carbon2js9JsVariantaSERKS1_
	movq	%rbx, -4320(%rbp)
	movq	%rsp, %rax
	leaq	-16(%rax), %rsi
	movq	%rsi, %rsp
	leaq	-4320(%rbp), %rcx
	movq	%rcx, -16(%rax)
	movq	$1, -8(%rax)
	leaq	-50120(%rbp), %rdi
	callq	__ZN14altered_carbon2js9JsVariantaSERN4llvm8ArrayRefIPS1_EE
	movl	$64, %edi
	callq	__Znam
	movq	$1, (%rax)
	leaq	8(%rax), %rbx
	addq	$64, %rax
	movq	%rbx, %rcx
	.p2align	4, 0x90
LBB0_163:                               ## %initarr.bb693
                                        ## =>This Inner Loop Header: Depth=1
	movq	%r14, (%rcx)
	movl	$1, 8(%rcx)
	addq	$56, %rcx
	cmpq	%rax, %rcx
	jne	LBB0_163
## %bb.164:                             ## %initarr.bb693e
	leaq	-50120(%rbp), %rsi
	movq	%rbx, %rdi
	callq	__ZN14altered_carbon2js9JsVariantaSERKS1_
	movq	%rbx, -4304(%rbp)
	movq	%rsp, %rax
	leaq	-16(%rax), %rsi
	movq	%rsi, %rsp
	leaq	-4304(%rbp), %rcx
	movq	%rcx, -16(%rax)
	movq	$1, -8(%rax)
	leaq	-50064(%rbp), %rdi
	callq	__ZN14altered_carbon2js9JsVariantaSERN4llvm8ArrayRefIPS1_EE
	movl	$64, %edi
	callq	__Znam
	movq	$1, (%rax)
	leaq	8(%rax), %rbx
	addq	$64, %rax
	movq	%rbx, %rcx
	.p2align	4, 0x90
LBB0_165:                               ## %initarr.bb701
                                        ## =>This Inner Loop Header: Depth=1
	movq	%r14, (%rcx)
	movl	$1, 8(%rcx)
	addq	$56, %rcx
	cmpq	%rax, %rcx
	jne	LBB0_165
## %bb.166:                             ## %initarr.bb701e
	leaq	-50064(%rbp), %rsi
	movq	%rbx, %rdi
	callq	__ZN14altered_carbon2js9JsVariantaSERKS1_
	movq	%rbx, -4288(%rbp)
	movq	%rsp, %rax
	leaq	-16(%rax), %rsi
	movq	%rsi, %rsp
	leaq	-4288(%rbp), %rcx
	movq	%rcx, -16(%rax)
	movq	$1, -8(%rax)
	leaq	-50008(%rbp), %rdi
	callq	__ZN14altered_carbon2js9JsVariantaSERN4llvm8ArrayRefIPS1_EE
	movl	$64, %edi
	callq	__Znam
	movq	$1, (%rax)
	leaq	8(%rax), %rbx
	addq	$64, %rax
	movq	%rbx, %rcx
	.p2align	4, 0x90
LBB0_167:                               ## %initarr.bb709
                                        ## =>This Inner Loop Header: Depth=1
	movq	%r14, (%rcx)
	movl	$1, 8(%rcx)
	addq	$56, %rcx
	cmpq	%rax, %rcx
	jne	LBB0_167
## %bb.168:                             ## %initarr.bb709e
	leaq	-50008(%rbp), %rsi
	movq	%rbx, %rdi
	callq	__ZN14altered_carbon2js9JsVariantaSERKS1_
	movq	%rbx, -4272(%rbp)
	movq	%rsp, %rax
	leaq	-16(%rax), %rsi
	movq	%rsi, %rsp
	leaq	-4272(%rbp), %rcx
	movq	%rcx, -16(%rax)
	movq	$1, -8(%rax)
	leaq	-49952(%rbp), %rdi
	callq	__ZN14altered_carbon2js9JsVariantaSERN4llvm8ArrayRefIPS1_EE
	leaq	-49896(%rbp), %rdi
	movl	$1, %esi
	callq	__ZN14altered_carbon2js9JsVariantaSEx
	leaq	-49840(%rbp), %rdi
	movl	$2, %esi
	callq	__ZN14altered_carbon2js9JsVariantaSEx
	movl	$120, %edi
	callq	__Znam
	movq	$2, (%rax)
	leaq	8(%rax), %rbx
	addq	$120, %rax
	movq	%rbx, %rcx
	.p2align	4, 0x90
LBB0_169:                               ## %initarr.bb719
                                        ## =>This Inner Loop Header: Depth=1
	movq	%r14, (%rcx)
	movl	$1, 8(%rcx)
	addq	$56, %rcx
	cmpq	%rax, %rcx
	jne	LBB0_169
## %bb.170:                             ## %initarr.bb719e
	leaq	-49896(%rbp), %rsi
	movq	%rbx, %rdi
	callq	__ZN14altered_carbon2js9JsVariantaSERKS1_
	movq	%rbx, -8208(%rbp)
	addq	$56, %rbx
	leaq	-49840(%rbp), %rsi
	movq	%rbx, %rdi
	callq	__ZN14altered_carbon2js9JsVariantaSERKS1_
	movq	%rbx, -8200(%rbp)
	movq	%rsp, %rax
	leaq	-16(%rax), %rsi
	movq	%rsi, %rsp
	leaq	-8208(%rbp), %rcx
	movq	%rcx, -16(%rax)
	movq	$2, -8(%rax)
	leaq	-49784(%rbp), %rdi
	callq	__ZN14altered_carbon2js9JsVariantaSERN4llvm8ArrayRefIPS1_EE
	leaq	-49728(%rbp), %rdi
	movl	$3, %esi
	callq	__ZN14altered_carbon2js9JsVariantaSEx
	leaq	-49672(%rbp), %rdi
	movl	$4, %esi
	callq	__ZN14altered_carbon2js9JsVariantaSEx
	movl	$120, %edi
	callq	__Znam
	movq	$2, (%rax)
	leaq	8(%rax), %rbx
	addq	$120, %rax
	movq	%rbx, %rcx
	.p2align	4, 0x90
LBB0_171:                               ## %initarr.bb729
                                        ## =>This Inner Loop Header: Depth=1
	movq	%r14, (%rcx)
	movl	$1, 8(%rcx)
	addq	$56, %rcx
	cmpq	%rax, %rcx
	jne	LBB0_171
## %bb.172:                             ## %initarr.bb729e
	leaq	-49728(%rbp), %rsi
	movq	%rbx, %rdi
	callq	__ZN14altered_carbon2js9JsVariantaSERKS1_
	movq	%rbx, -8192(%rbp)
	addq	$56, %rbx
	leaq	-49672(%rbp), %rsi
	movq	%rbx, %rdi
	callq	__ZN14altered_carbon2js9JsVariantaSERKS1_
	movq	%rbx, -8184(%rbp)
	movq	%rsp, %rax
	leaq	-16(%rax), %rsi
	movq	%rsi, %rsp
	leaq	-8192(%rbp), %rcx
	movq	%rcx, -16(%rax)
	movq	$2, -8(%rax)
	leaq	-49616(%rbp), %rdi
	callq	__ZN14altered_carbon2js9JsVariantaSERN4llvm8ArrayRefIPS1_EE
	movl	$120, %edi
	callq	__Znam
	movq	$2, (%rax)
	leaq	8(%rax), %rbx
	addq	$120, %rax
	movq	%rbx, %rcx
	.p2align	4, 0x90
LBB0_173:                               ## %initarr.bb737
                                        ## =>This Inner Loop Header: Depth=1
	movq	%r14, (%rcx)
	movl	$1, 8(%rcx)
	addq	$56, %rcx
	cmpq	%rax, %rcx
	jne	LBB0_173
## %bb.174:                             ## %initarr.bb737e
	leaq	-49784(%rbp), %rsi
	movq	%rbx, %rdi
	callq	__ZN14altered_carbon2js9JsVariantaSERKS1_
	movq	%rbx, -8176(%rbp)
	addq	$56, %rbx
	leaq	-49616(%rbp), %rsi
	movq	%rbx, %rdi
	callq	__ZN14altered_carbon2js9JsVariantaSERKS1_
	movq	%rbx, -8168(%rbp)
	movq	%rsp, %rax
	leaq	-16(%rax), %rsi
	movq	%rsi, %rsp
	leaq	-8176(%rbp), %rcx
	movq	%rcx, -16(%rax)
	movq	$2, -8(%rax)
	leaq	-49560(%rbp), %rdi
	callq	__ZN14altered_carbon2js9JsVariantaSERN4llvm8ArrayRefIPS1_EE
	movl	$64, %edi
	callq	__Znam
	movq	$1, (%rax)
	leaq	8(%rax), %rbx
	addq	$64, %rax
	movq	%rbx, %rcx
	.p2align	4, 0x90
LBB0_175:                               ## %initarr.bb745
                                        ## =>This Inner Loop Header: Depth=1
	movq	%r14, (%rcx)
	movl	$1, 8(%rcx)
	addq	$56, %rcx
	cmpq	%rax, %rcx
	jne	LBB0_175
## %bb.176:                             ## %initarr.bb745e
	leaq	-49560(%rbp), %rsi
	movq	%rbx, %rdi
	callq	__ZN14altered_carbon2js9JsVariantaSERKS1_
	movq	%rbx, -4256(%rbp)
	movq	%rsp, %rax
	leaq	-16(%rax), %rsi
	movq	%rsi, %rsp
	leaq	-4256(%rbp), %rcx
	movq	%rcx, -16(%rax)
	movq	$1, -8(%rax)
	leaq	-49504(%rbp), %rdi
	callq	__ZN14altered_carbon2js9JsVariantaSERN4llvm8ArrayRefIPS1_EE
	movl	$64, %edi
	callq	__Znam
	movq	$1, (%rax)
	leaq	8(%rax), %rbx
	addq	$64, %rax
	movq	%rbx, %rcx
	.p2align	4, 0x90
LBB0_177:                               ## %initarr.bb753
                                        ## =>This Inner Loop Header: Depth=1
	movq	%r14, (%rcx)
	movl	$1, 8(%rcx)
	addq	$56, %rcx
	cmpq	%rax, %rcx
	jne	LBB0_177
## %bb.178:                             ## %initarr.bb753e
	leaq	-49504(%rbp), %rsi
	movq	%rbx, %rdi
	callq	__ZN14altered_carbon2js9JsVariantaSERKS1_
	movq	%rbx, -4240(%rbp)
	movq	%rsp, %rax
	leaq	-16(%rax), %rsi
	movq	%rsi, %rsp
	leaq	-4240(%rbp), %rcx
	movq	%rcx, -16(%rax)
	movq	$1, -8(%rax)
	leaq	-49448(%rbp), %rdi
	callq	__ZN14altered_carbon2js9JsVariantaSERN4llvm8ArrayRefIPS1_EE
	movl	$64, %edi
	callq	__Znam
	movq	$1, (%rax)
	leaq	8(%rax), %rbx
	addq	$64, %rax
	movq	%rbx, %rcx
	.p2align	4, 0x90
LBB0_179:                               ## %initarr.bb761
                                        ## =>This Inner Loop Header: Depth=1
	movq	%r14, (%rcx)
	movl	$1, 8(%rcx)
	addq	$56, %rcx
	cmpq	%rax, %rcx
	jne	LBB0_179
## %bb.180:                             ## %initarr.bb761e
	leaq	-49448(%rbp), %rsi
	movq	%rbx, %rdi
	callq	__ZN14altered_carbon2js9JsVariantaSERKS1_
	movq	%rbx, -4224(%rbp)
	movq	%rsp, %rax
	leaq	-16(%rax), %rsi
	movq	%rsi, %rsp
	leaq	-4224(%rbp), %rcx
	movq	%rcx, -16(%rax)
	movq	$1, -8(%rax)
	leaq	-49392(%rbp), %rdi
	callq	__ZN14altered_carbon2js9JsVariantaSERN4llvm8ArrayRefIPS1_EE
	movl	$64, %edi
	callq	__Znam
	movq	$1, (%rax)
	leaq	8(%rax), %rbx
	addq	$64, %rax
	movq	%rbx, %rcx
	.p2align	4, 0x90
LBB0_181:                               ## %initarr.bb769
                                        ## =>This Inner Loop Header: Depth=1
	movq	%r14, (%rcx)
	movl	$1, 8(%rcx)
	addq	$56, %rcx
	cmpq	%rax, %rcx
	jne	LBB0_181
## %bb.182:                             ## %initarr.bb769e
	leaq	-49392(%rbp), %rsi
	movq	%rbx, %rdi
	callq	__ZN14altered_carbon2js9JsVariantaSERKS1_
	movq	%rbx, -4208(%rbp)
	movq	%rsp, %rax
	leaq	-16(%rax), %rsi
	movq	%rsi, %rsp
	leaq	-4208(%rbp), %rcx
	movq	%rcx, -16(%rax)
	movq	$1, -8(%rax)
	leaq	-49336(%rbp), %rdi
	callq	__ZN14altered_carbon2js9JsVariantaSERN4llvm8ArrayRefIPS1_EE
	leaq	-49280(%rbp), %rdi
	movl	$1, %esi
	callq	__ZN14altered_carbon2js9JsVariantaSEx
	leaq	-49224(%rbp), %rdi
	movl	$2, %esi
	callq	__ZN14altered_carbon2js9JsVariantaSEx
	movl	$120, %edi
	callq	__Znam
	movq	$2, (%rax)
	leaq	8(%rax), %rbx
	addq	$120, %rax
	movq	%rbx, %rcx
	.p2align	4, 0x90
LBB0_183:                               ## %initarr.bb779
                                        ## =>This Inner Loop Header: Depth=1
	movq	%r14, (%rcx)
	movl	$1, 8(%rcx)
	addq	$56, %rcx
	cmpq	%rax, %rcx
	jne	LBB0_183
## %bb.184:                             ## %initarr.bb779e
	leaq	-49280(%rbp), %rsi
	movq	%rbx, %rdi
	callq	__ZN14altered_carbon2js9JsVariantaSERKS1_
	movq	%rbx, -8160(%rbp)
	addq	$56, %rbx
	leaq	-49224(%rbp), %rsi
	movq	%rbx, %rdi
	callq	__ZN14altered_carbon2js9JsVariantaSERKS1_
	movq	%rbx, -8152(%rbp)
	movq	%rsp, %rax
	leaq	-16(%rax), %rsi
	movq	%rsi, %rsp
	leaq	-8160(%rbp), %rcx
	movq	%rcx, -16(%rax)
	movq	$2, -8(%rax)
	leaq	-49168(%rbp), %rdi
	callq	__ZN14altered_carbon2js9JsVariantaSERN4llvm8ArrayRefIPS1_EE
	leaq	-49112(%rbp), %rdi
	movl	$3, %esi
	callq	__ZN14altered_carbon2js9JsVariantaSEx
	leaq	-49056(%rbp), %rdi
	movl	$4, %esi
	callq	__ZN14altered_carbon2js9JsVariantaSEx
	movl	$120, %edi
	callq	__Znam
	movq	$2, (%rax)
	leaq	8(%rax), %rbx
	addq	$120, %rax
	movq	%rbx, %rcx
	.p2align	4, 0x90
LBB0_185:                               ## %initarr.bb789
                                        ## =>This Inner Loop Header: Depth=1
	movq	%r14, (%rcx)
	movl	$1, 8(%rcx)
	addq	$56, %rcx
	cmpq	%rax, %rcx
	jne	LBB0_185
## %bb.186:                             ## %initarr.bb789e
	leaq	-49112(%rbp), %rsi
	movq	%rbx, %rdi
	callq	__ZN14altered_carbon2js9JsVariantaSERKS1_
	movq	%rbx, -8144(%rbp)
	addq	$56, %rbx
	leaq	-49056(%rbp), %rsi
	movq	%rbx, %rdi
	callq	__ZN14altered_carbon2js9JsVariantaSERKS1_
	movq	%rbx, -8136(%rbp)
	movq	%rsp, %rax
	leaq	-16(%rax), %rsi
	movq	%rsi, %rsp
	leaq	-8144(%rbp), %rcx
	movq	%rcx, -16(%rax)
	movq	$2, -8(%rax)
	leaq	-49000(%rbp), %rdi
	callq	__ZN14altered_carbon2js9JsVariantaSERN4llvm8ArrayRefIPS1_EE
	movl	$120, %edi
	callq	__Znam
	movq	$2, (%rax)
	leaq	8(%rax), %rbx
	addq	$120, %rax
	movq	%rbx, %rcx
	.p2align	4, 0x90
LBB0_187:                               ## %initarr.bb797
                                        ## =>This Inner Loop Header: Depth=1
	movq	%r14, (%rcx)
	movl	$1, 8(%rcx)
	addq	$56, %rcx
	cmpq	%rax, %rcx
	jne	LBB0_187
## %bb.188:                             ## %initarr.bb797e
	leaq	-49168(%rbp), %rsi
	movq	%rbx, %rdi
	callq	__ZN14altered_carbon2js9JsVariantaSERKS1_
	movq	%rbx, -8128(%rbp)
	addq	$56, %rbx
	leaq	-49000(%rbp), %rsi
	movq	%rbx, %rdi
	callq	__ZN14altered_carbon2js9JsVariantaSERKS1_
	movq	%rbx, -8120(%rbp)
	movq	%rsp, %rax
	leaq	-16(%rax), %rsi
	movq	%rsi, %rsp
	leaq	-8128(%rbp), %rcx
	movq	%rcx, -16(%rax)
	movq	$2, -8(%rax)
	leaq	-48944(%rbp), %rdi
	callq	__ZN14altered_carbon2js9JsVariantaSERN4llvm8ArrayRefIPS1_EE
	movl	$64, %edi
	callq	__Znam
	movq	$1, (%rax)
	leaq	8(%rax), %rbx
	addq	$64, %rax
	movq	%rbx, %rcx
	.p2align	4, 0x90
LBB0_189:                               ## %initarr.bb805
                                        ## =>This Inner Loop Header: Depth=1
	movq	%r14, (%rcx)
	movl	$1, 8(%rcx)
	addq	$56, %rcx
	cmpq	%rax, %rcx
	jne	LBB0_189
## %bb.190:                             ## %initarr.bb805e
	leaq	-48944(%rbp), %rsi
	movq	%rbx, %rdi
	callq	__ZN14altered_carbon2js9JsVariantaSERKS1_
	movq	%rbx, -4192(%rbp)
	movq	%rsp, %rax
	leaq	-16(%rax), %rsi
	movq	%rsi, %rsp
	leaq	-4192(%rbp), %rcx
	movq	%rcx, -16(%rax)
	movq	$1, -8(%rax)
	leaq	-48888(%rbp), %rdi
	callq	__ZN14altered_carbon2js9JsVariantaSERN4llvm8ArrayRefIPS1_EE
	movl	$64, %edi
	callq	__Znam
	movq	$1, (%rax)
	leaq	8(%rax), %rbx
	addq	$64, %rax
	movq	%rbx, %rcx
	.p2align	4, 0x90
LBB0_191:                               ## %initarr.bb813
                                        ## =>This Inner Loop Header: Depth=1
	movq	%r14, (%rcx)
	movl	$1, 8(%rcx)
	addq	$56, %rcx
	cmpq	%rax, %rcx
	jne	LBB0_191
## %bb.192:                             ## %initarr.bb813e
	leaq	-48888(%rbp), %rsi
	movq	%rbx, %rdi
	callq	__ZN14altered_carbon2js9JsVariantaSERKS1_
	movq	%rbx, -4176(%rbp)
	movq	%rsp, %rax
	leaq	-16(%rax), %rsi
	movq	%rsi, %rsp
	leaq	-4176(%rbp), %rcx
	movq	%rcx, -16(%rax)
	movq	$1, -8(%rax)
	leaq	-48832(%rbp), %rdi
	callq	__ZN14altered_carbon2js9JsVariantaSERN4llvm8ArrayRefIPS1_EE
	movl	$64, %edi
	callq	__Znam
	movq	$1, (%rax)
	leaq	8(%rax), %rbx
	addq	$64, %rax
	movq	%rbx, %rcx
	.p2align	4, 0x90
LBB0_193:                               ## %initarr.bb821
                                        ## =>This Inner Loop Header: Depth=1
	movq	%r14, (%rcx)
	movl	$1, 8(%rcx)
	addq	$56, %rcx
	cmpq	%rax, %rcx
	jne	LBB0_193
## %bb.194:                             ## %initarr.bb821e
	leaq	-48832(%rbp), %rsi
	movq	%rbx, %rdi
	callq	__ZN14altered_carbon2js9JsVariantaSERKS1_
	movq	%rbx, -4160(%rbp)
	movq	%rsp, %rax
	leaq	-16(%rax), %rsi
	movq	%rsi, %rsp
	leaq	-4160(%rbp), %rcx
	movq	%rcx, -16(%rax)
	movq	$1, -8(%rax)
	leaq	-48776(%rbp), %rdi
	callq	__ZN14altered_carbon2js9JsVariantaSERN4llvm8ArrayRefIPS1_EE
	movl	$64, %edi
	callq	__Znam
	movq	$1, (%rax)
	leaq	8(%rax), %rbx
	addq	$64, %rax
	movq	%rbx, %rcx
	.p2align	4, 0x90
LBB0_195:                               ## %initarr.bb829
                                        ## =>This Inner Loop Header: Depth=1
	movq	%r14, (%rcx)
	movl	$1, 8(%rcx)
	addq	$56, %rcx
	cmpq	%rax, %rcx
	jne	LBB0_195
## %bb.196:                             ## %initarr.bb829e
	leaq	-48776(%rbp), %rsi
	movq	%rbx, %rdi
	callq	__ZN14altered_carbon2js9JsVariantaSERKS1_
	movq	%rbx, -4144(%rbp)
	movq	%rsp, %rax
	leaq	-16(%rax), %rsi
	movq	%rsi, %rsp
	leaq	-4144(%rbp), %rcx
	movq	%rcx, -16(%rax)
	movq	$1, -8(%rax)
	leaq	-48720(%rbp), %rdi
	callq	__ZN14altered_carbon2js9JsVariantaSERN4llvm8ArrayRefIPS1_EE
	leaq	-48664(%rbp), %rdi
	movl	$1, %esi
	callq	__ZN14altered_carbon2js9JsVariantaSEx
	leaq	-48608(%rbp), %rdi
	movl	$2, %esi
	callq	__ZN14altered_carbon2js9JsVariantaSEx
	movl	$120, %edi
	callq	__Znam
	movq	$2, (%rax)
	leaq	8(%rax), %rbx
	addq	$120, %rax
	movq	%rbx, %rcx
	.p2align	4, 0x90
LBB0_197:                               ## %initarr.bb839
                                        ## =>This Inner Loop Header: Depth=1
	movq	%r14, (%rcx)
	movl	$1, 8(%rcx)
	addq	$56, %rcx
	cmpq	%rax, %rcx
	jne	LBB0_197
## %bb.198:                             ## %initarr.bb839e
	leaq	-48664(%rbp), %rsi
	movq	%rbx, %rdi
	callq	__ZN14altered_carbon2js9JsVariantaSERKS1_
	movq	%rbx, -8112(%rbp)
	addq	$56, %rbx
	leaq	-48608(%rbp), %rsi
	movq	%rbx, %rdi
	callq	__ZN14altered_carbon2js9JsVariantaSERKS1_
	movq	%rbx, -8104(%rbp)
	movq	%rsp, %rax
	leaq	-16(%rax), %rsi
	movq	%rsi, %rsp
	leaq	-8112(%rbp), %rcx
	movq	%rcx, -16(%rax)
	movq	$2, -8(%rax)
	leaq	-48552(%rbp), %rdi
	callq	__ZN14altered_carbon2js9JsVariantaSERN4llvm8ArrayRefIPS1_EE
	leaq	-48496(%rbp), %rdi
	movl	$3, %esi
	callq	__ZN14altered_carbon2js9JsVariantaSEx
	leaq	-48440(%rbp), %rdi
	movl	$4, %esi
	callq	__ZN14altered_carbon2js9JsVariantaSEx
	movl	$120, %edi
	callq	__Znam
	movq	$2, (%rax)
	leaq	8(%rax), %rbx
	addq	$120, %rax
	movq	%rbx, %rcx
	.p2align	4, 0x90
LBB0_199:                               ## %initarr.bb849
                                        ## =>This Inner Loop Header: Depth=1
	movq	%r14, (%rcx)
	movl	$1, 8(%rcx)
	addq	$56, %rcx
	cmpq	%rax, %rcx
	jne	LBB0_199
## %bb.200:                             ## %initarr.bb849e
	leaq	-48496(%rbp), %rsi
	movq	%rbx, %rdi
	callq	__ZN14altered_carbon2js9JsVariantaSERKS1_
	movq	%rbx, -8096(%rbp)
	addq	$56, %rbx
	leaq	-48440(%rbp), %rsi
	movq	%rbx, %rdi
	callq	__ZN14altered_carbon2js9JsVariantaSERKS1_
	movq	%rbx, -8088(%rbp)
	movq	%rsp, %rax
	leaq	-16(%rax), %rsi
	movq	%rsi, %rsp
	leaq	-8096(%rbp), %rcx
	movq	%rcx, -16(%rax)
	movq	$2, -8(%rax)
	leaq	-48384(%rbp), %rdi
	callq	__ZN14altered_carbon2js9JsVariantaSERN4llvm8ArrayRefIPS1_EE
	movl	$120, %edi
	callq	__Znam
	movq	$2, (%rax)
	leaq	8(%rax), %rbx
	addq	$120, %rax
	movq	%rbx, %rcx
	.p2align	4, 0x90
LBB0_201:                               ## %initarr.bb857
                                        ## =>This Inner Loop Header: Depth=1
	movq	%r14, (%rcx)
	movl	$1, 8(%rcx)
	addq	$56, %rcx
	cmpq	%rax, %rcx
	jne	LBB0_201
## %bb.202:                             ## %initarr.bb857e
	leaq	-48552(%rbp), %rsi
	movq	%rbx, %rdi
	callq	__ZN14altered_carbon2js9JsVariantaSERKS1_
	movq	%rbx, -8080(%rbp)
	addq	$56, %rbx
	leaq	-48384(%rbp), %rsi
	movq	%rbx, %rdi
	callq	__ZN14altered_carbon2js9JsVariantaSERKS1_
	movq	%rbx, -8072(%rbp)
	movq	%rsp, %rax
	leaq	-16(%rax), %rsi
	movq	%rsi, %rsp
	leaq	-8080(%rbp), %rcx
	movq	%rcx, -16(%rax)
	movq	$2, -8(%rax)
	leaq	-48328(%rbp), %rdi
	callq	__ZN14altered_carbon2js9JsVariantaSERN4llvm8ArrayRefIPS1_EE
	movl	$64, %edi
	callq	__Znam
	movq	$1, (%rax)
	leaq	8(%rax), %rbx
	addq	$64, %rax
	movq	%rbx, %rcx
	.p2align	4, 0x90
LBB0_203:                               ## %initarr.bb865
                                        ## =>This Inner Loop Header: Depth=1
	movq	%r14, (%rcx)
	movl	$1, 8(%rcx)
	addq	$56, %rcx
	cmpq	%rax, %rcx
	jne	LBB0_203
## %bb.204:                             ## %initarr.bb865e
	leaq	-48328(%rbp), %rsi
	movq	%rbx, %rdi
	callq	__ZN14altered_carbon2js9JsVariantaSERKS1_
	movq	%rbx, -4128(%rbp)
	movq	%rsp, %rax
	leaq	-16(%rax), %rsi
	movq	%rsi, %rsp
	leaq	-4128(%rbp), %rcx
	movq	%rcx, -16(%rax)
	movq	$1, -8(%rax)
	leaq	-48272(%rbp), %rdi
	callq	__ZN14altered_carbon2js9JsVariantaSERN4llvm8ArrayRefIPS1_EE
	movl	$64, %edi
	callq	__Znam
	movq	$1, (%rax)
	leaq	8(%rax), %rbx
	addq	$64, %rax
	movq	%rbx, %rcx
	.p2align	4, 0x90
LBB0_205:                               ## %initarr.bb873
                                        ## =>This Inner Loop Header: Depth=1
	movq	%r14, (%rcx)
	movl	$1, 8(%rcx)
	addq	$56, %rcx
	cmpq	%rax, %rcx
	jne	LBB0_205
## %bb.206:                             ## %initarr.bb873e
	leaq	-48272(%rbp), %rsi
	movq	%rbx, %rdi
	callq	__ZN14altered_carbon2js9JsVariantaSERKS1_
	movq	%rbx, -4112(%rbp)
	movq	%rsp, %rax
	leaq	-16(%rax), %rsi
	movq	%rsi, %rsp
	leaq	-4112(%rbp), %rcx
	movq	%rcx, -16(%rax)
	movq	$1, -8(%rax)
	leaq	-48216(%rbp), %rdi
	callq	__ZN14altered_carbon2js9JsVariantaSERN4llvm8ArrayRefIPS1_EE
	movl	$64, %edi
	callq	__Znam
	movq	$1, (%rax)
	leaq	8(%rax), %rbx
	addq	$64, %rax
	movq	%rbx, %rcx
	.p2align	4, 0x90
LBB0_207:                               ## %initarr.bb881
                                        ## =>This Inner Loop Header: Depth=1
	movq	%r14, (%rcx)
	movl	$1, 8(%rcx)
	addq	$56, %rcx
	cmpq	%rax, %rcx
	jne	LBB0_207
## %bb.208:                             ## %initarr.bb881e
	leaq	-48216(%rbp), %rsi
	movq	%rbx, %rdi
	callq	__ZN14altered_carbon2js9JsVariantaSERKS1_
	movq	%rbx, -4096(%rbp)
	movq	%rsp, %rax
	leaq	-16(%rax), %rsi
	movq	%rsi, %rsp
	leaq	-4096(%rbp), %rcx
	movq	%rcx, -16(%rax)
	movq	$1, -8(%rax)
	leaq	-48160(%rbp), %rdi
	callq	__ZN14altered_carbon2js9JsVariantaSERN4llvm8ArrayRefIPS1_EE
	movl	$64, %edi
	callq	__Znam
	movq	$1, (%rax)
	leaq	8(%rax), %rbx
	addq	$64, %rax
	movq	%rbx, %rcx
	.p2align	4, 0x90
LBB0_209:                               ## %initarr.bb889
                                        ## =>This Inner Loop Header: Depth=1
	movq	%r14, (%rcx)
	movl	$1, 8(%rcx)
	addq	$56, %rcx
	cmpq	%rax, %rcx
	jne	LBB0_209
## %bb.210:                             ## %initarr.bb889e
	leaq	-48160(%rbp), %rsi
	movq	%rbx, %rdi
	callq	__ZN14altered_carbon2js9JsVariantaSERKS1_
	movq	%rbx, -4080(%rbp)
	movq	%rsp, %rax
	leaq	-16(%rax), %rsi
	movq	%rsi, %rsp
	leaq	-4080(%rbp), %rcx
	movq	%rcx, -16(%rax)
	movq	$1, -8(%rax)
	leaq	-48104(%rbp), %rdi
	callq	__ZN14altered_carbon2js9JsVariantaSERN4llvm8ArrayRefIPS1_EE
	leaq	-48048(%rbp), %rdi
	movl	$1, %esi
	callq	__ZN14altered_carbon2js9JsVariantaSEx
	leaq	-47992(%rbp), %rdi
	movl	$2, %esi
	callq	__ZN14altered_carbon2js9JsVariantaSEx
	movl	$120, %edi
	callq	__Znam
	movq	$2, (%rax)
	leaq	8(%rax), %rbx
	addq	$120, %rax
	movq	%rbx, %rcx
	.p2align	4, 0x90
LBB0_211:                               ## %initarr.bb899
                                        ## =>This Inner Loop Header: Depth=1
	movq	%r14, (%rcx)
	movl	$1, 8(%rcx)
	addq	$56, %rcx
	cmpq	%rax, %rcx
	jne	LBB0_211
## %bb.212:                             ## %initarr.bb899e
	leaq	-48048(%rbp), %rsi
	movq	%rbx, %rdi
	callq	__ZN14altered_carbon2js9JsVariantaSERKS1_
	movq	%rbx, -8064(%rbp)
	addq	$56, %rbx
	leaq	-47992(%rbp), %rsi
	movq	%rbx, %rdi
	callq	__ZN14altered_carbon2js9JsVariantaSERKS1_
	movq	%rbx, -8056(%rbp)
	movq	%rsp, %rax
	leaq	-16(%rax), %rsi
	movq	%rsi, %rsp
	leaq	-8064(%rbp), %rcx
	movq	%rcx, -16(%rax)
	movq	$2, -8(%rax)
	leaq	-47936(%rbp), %rdi
	callq	__ZN14altered_carbon2js9JsVariantaSERN4llvm8ArrayRefIPS1_EE
	leaq	-47880(%rbp), %rdi
	movl	$3, %esi
	callq	__ZN14altered_carbon2js9JsVariantaSEx
	leaq	-47824(%rbp), %rdi
	movl	$4, %esi
	callq	__ZN14altered_carbon2js9JsVariantaSEx
	movl	$120, %edi
	callq	__Znam
	movq	$2, (%rax)
	leaq	8(%rax), %rbx
	addq	$120, %rax
	movq	%rbx, %rcx
	.p2align	4, 0x90
LBB0_213:                               ## %initarr.bb909
                                        ## =>This Inner Loop Header: Depth=1
	movq	%r14, (%rcx)
	movl	$1, 8(%rcx)
	addq	$56, %rcx
	cmpq	%rax, %rcx
	jne	LBB0_213
## %bb.214:                             ## %initarr.bb909e
	leaq	-47880(%rbp), %rsi
	movq	%rbx, %rdi
	callq	__ZN14altered_carbon2js9JsVariantaSERKS1_
	movq	%rbx, -8048(%rbp)
	addq	$56, %rbx
	leaq	-47824(%rbp), %rsi
	movq	%rbx, %rdi
	callq	__ZN14altered_carbon2js9JsVariantaSERKS1_
	movq	%rbx, -8040(%rbp)
	movq	%rsp, %rax
	leaq	-16(%rax), %rsi
	movq	%rsi, %rsp
	leaq	-8048(%rbp), %rcx
	movq	%rcx, -16(%rax)
	movq	$2, -8(%rax)
	leaq	-47768(%rbp), %rdi
	callq	__ZN14altered_carbon2js9JsVariantaSERN4llvm8ArrayRefIPS1_EE
	movl	$120, %edi
	callq	__Znam
	movq	$2, (%rax)
	leaq	8(%rax), %rbx
	addq	$120, %rax
	movq	%rbx, %rcx
	.p2align	4, 0x90
LBB0_215:                               ## %initarr.bb917
                                        ## =>This Inner Loop Header: Depth=1
	movq	%r14, (%rcx)
	movl	$1, 8(%rcx)
	addq	$56, %rcx
	cmpq	%rax, %rcx
	jne	LBB0_215
## %bb.216:                             ## %initarr.bb917e
	leaq	-47936(%rbp), %rsi
	movq	%rbx, %rdi
	callq	__ZN14altered_carbon2js9JsVariantaSERKS1_
	movq	%rbx, -8032(%rbp)
	addq	$56, %rbx
	leaq	-47768(%rbp), %rsi
	movq	%rbx, %rdi
	callq	__ZN14altered_carbon2js9JsVariantaSERKS1_
	movq	%rbx, -8024(%rbp)
	movq	%rsp, %rax
	leaq	-16(%rax), %rsi
	movq	%rsi, %rsp
	leaq	-8032(%rbp), %rcx
	movq	%rcx, -16(%rax)
	movq	$2, -8(%rax)
	leaq	-47712(%rbp), %rdi
	callq	__ZN14altered_carbon2js9JsVariantaSERN4llvm8ArrayRefIPS1_EE
	movl	$64, %edi
	callq	__Znam
	movq	$1, (%rax)
	leaq	8(%rax), %rbx
	addq	$64, %rax
	movq	%rbx, %rcx
	.p2align	4, 0x90
LBB0_217:                               ## %initarr.bb925
                                        ## =>This Inner Loop Header: Depth=1
	movq	%r14, (%rcx)
	movl	$1, 8(%rcx)
	addq	$56, %rcx
	cmpq	%rax, %rcx
	jne	LBB0_217
## %bb.218:                             ## %initarr.bb925e
	leaq	-47712(%rbp), %rsi
	movq	%rbx, %rdi
	callq	__ZN14altered_carbon2js9JsVariantaSERKS1_
	movq	%rbx, -4064(%rbp)
	movq	%rsp, %rax
	leaq	-16(%rax), %rsi
	movq	%rsi, %rsp
	leaq	-4064(%rbp), %rcx
	movq	%rcx, -16(%rax)
	movq	$1, -8(%rax)
	leaq	-47656(%rbp), %rdi
	callq	__ZN14altered_carbon2js9JsVariantaSERN4llvm8ArrayRefIPS1_EE
	movl	$64, %edi
	callq	__Znam
	movq	$1, (%rax)
	leaq	8(%rax), %rbx
	addq	$64, %rax
	movq	%rbx, %rcx
	.p2align	4, 0x90
LBB0_219:                               ## %initarr.bb933
                                        ## =>This Inner Loop Header: Depth=1
	movq	%r14, (%rcx)
	movl	$1, 8(%rcx)
	addq	$56, %rcx
	cmpq	%rax, %rcx
	jne	LBB0_219
## %bb.220:                             ## %initarr.bb933e
	leaq	-47656(%rbp), %rsi
	movq	%rbx, %rdi
	callq	__ZN14altered_carbon2js9JsVariantaSERKS1_
	movq	%rbx, -4048(%rbp)
	movq	%rsp, %rax
	leaq	-16(%rax), %rsi
	movq	%rsi, %rsp
	leaq	-4048(%rbp), %rcx
	movq	%rcx, -16(%rax)
	movq	$1, -8(%rax)
	leaq	-47600(%rbp), %rdi
	callq	__ZN14altered_carbon2js9JsVariantaSERN4llvm8ArrayRefIPS1_EE
	movl	$64, %edi
	callq	__Znam
	movq	$1, (%rax)
	leaq	8(%rax), %rbx
	addq	$64, %rax
	movq	%rbx, %rcx
	.p2align	4, 0x90
LBB0_221:                               ## %initarr.bb941
                                        ## =>This Inner Loop Header: Depth=1
	movq	%r14, (%rcx)
	movl	$1, 8(%rcx)
	addq	$56, %rcx
	cmpq	%rax, %rcx
	jne	LBB0_221
## %bb.222:                             ## %initarr.bb941e
	leaq	-47600(%rbp), %rsi
	movq	%rbx, %rdi
	callq	__ZN14altered_carbon2js9JsVariantaSERKS1_
	movq	%rbx, -4032(%rbp)
	movq	%rsp, %rax
	leaq	-16(%rax), %rsi
	movq	%rsi, %rsp
	leaq	-4032(%rbp), %rcx
	movq	%rcx, -16(%rax)
	movq	$1, -8(%rax)
	leaq	-47544(%rbp), %rdi
	callq	__ZN14altered_carbon2js9JsVariantaSERN4llvm8ArrayRefIPS1_EE
	movl	$64, %edi
	callq	__Znam
	movq	$1, (%rax)
	leaq	8(%rax), %rbx
	addq	$64, %rax
	movq	%rbx, %rcx
	.p2align	4, 0x90
LBB0_223:                               ## %initarr.bb949
                                        ## =>This Inner Loop Header: Depth=1
	movq	%r14, (%rcx)
	movl	$1, 8(%rcx)
	addq	$56, %rcx
	cmpq	%rax, %rcx
	jne	LBB0_223
## %bb.224:                             ## %initarr.bb949e
	leaq	-47544(%rbp), %rsi
	movq	%rbx, %rdi
	callq	__ZN14altered_carbon2js9JsVariantaSERKS1_
	movq	%rbx, -4016(%rbp)
	movq	%rsp, %rax
	leaq	-16(%rax), %rsi
	movq	%rsi, %rsp
	leaq	-4016(%rbp), %rcx
	movq	%rcx, -16(%rax)
	movq	$1, -8(%rax)
	leaq	-47488(%rbp), %rdi
	callq	__ZN14altered_carbon2js9JsVariantaSERN4llvm8ArrayRefIPS1_EE
	leaq	-47432(%rbp), %rdi
	movl	$1, %esi
	callq	__ZN14altered_carbon2js9JsVariantaSEx
	leaq	-47376(%rbp), %rdi
	movl	$2, %esi
	callq	__ZN14altered_carbon2js9JsVariantaSEx
	movl	$120, %edi
	callq	__Znam
	movq	$2, (%rax)
	leaq	8(%rax), %rbx
	addq	$120, %rax
	movq	%rbx, %rcx
	.p2align	4, 0x90
LBB0_225:                               ## %initarr.bb959
                                        ## =>This Inner Loop Header: Depth=1
	movq	%r14, (%rcx)
	movl	$1, 8(%rcx)
	addq	$56, %rcx
	cmpq	%rax, %rcx
	jne	LBB0_225
## %bb.226:                             ## %initarr.bb959e
	leaq	-47432(%rbp), %rsi
	movq	%rbx, %rdi
	callq	__ZN14altered_carbon2js9JsVariantaSERKS1_
	movq	%rbx, -8016(%rbp)
	addq	$56, %rbx
	leaq	-47376(%rbp), %rsi
	movq	%rbx, %rdi
	callq	__ZN14altered_carbon2js9JsVariantaSERKS1_
	movq	%rbx, -8008(%rbp)
	movq	%rsp, %rax
	leaq	-16(%rax), %rsi
	movq	%rsi, %rsp
	leaq	-8016(%rbp), %rcx
	movq	%rcx, -16(%rax)
	movq	$2, -8(%rax)
	leaq	-47320(%rbp), %rdi
	callq	__ZN14altered_carbon2js9JsVariantaSERN4llvm8ArrayRefIPS1_EE
	leaq	-47264(%rbp), %rdi
	movl	$3, %esi
	callq	__ZN14altered_carbon2js9JsVariantaSEx
	leaq	-47208(%rbp), %rdi
	movl	$4, %esi
	callq	__ZN14altered_carbon2js9JsVariantaSEx
	movl	$120, %edi
	callq	__Znam
	movq	$2, (%rax)
	leaq	8(%rax), %rbx
	addq	$120, %rax
	movq	%rbx, %rcx
	.p2align	4, 0x90
LBB0_227:                               ## %initarr.bb969
                                        ## =>This Inner Loop Header: Depth=1
	movq	%r14, (%rcx)
	movl	$1, 8(%rcx)
	addq	$56, %rcx
	cmpq	%rax, %rcx
	jne	LBB0_227
## %bb.228:                             ## %initarr.bb969e
	leaq	-47264(%rbp), %rsi
	movq	%rbx, %rdi
	callq	__ZN14altered_carbon2js9JsVariantaSERKS1_
	movq	%rbx, -8000(%rbp)
	addq	$56, %rbx
	leaq	-47208(%rbp), %rsi
	movq	%rbx, %rdi
	callq	__ZN14altered_carbon2js9JsVariantaSERKS1_
	movq	%rbx, -7992(%rbp)
	movq	%rsp, %rax
	leaq	-16(%rax), %rsi
	movq	%rsi, %rsp
	leaq	-8000(%rbp), %rcx
	movq	%rcx, -16(%rax)
	movq	$2, -8(%rax)
	leaq	-47152(%rbp), %rdi
	callq	__ZN14altered_carbon2js9JsVariantaSERN4llvm8ArrayRefIPS1_EE
	movl	$120, %edi
	callq	__Znam
	movq	$2, (%rax)
	leaq	8(%rax), %rbx
	addq	$120, %rax
	movq	%rbx, %rcx
	.p2align	4, 0x90
LBB0_229:                               ## %initarr.bb977
                                        ## =>This Inner Loop Header: Depth=1
	movq	%r14, (%rcx)
	movl	$1, 8(%rcx)
	addq	$56, %rcx
	cmpq	%rax, %rcx
	jne	LBB0_229
## %bb.230:                             ## %initarr.bb977e
	leaq	-47320(%rbp), %rsi
	movq	%rbx, %rdi
	callq	__ZN14altered_carbon2js9JsVariantaSERKS1_
	movq	%rbx, -7984(%rbp)
	addq	$56, %rbx
	leaq	-47152(%rbp), %rsi
	movq	%rbx, %rdi
	callq	__ZN14altered_carbon2js9JsVariantaSERKS1_
	movq	%rbx, -7976(%rbp)
	movq	%rsp, %rax
	leaq	-16(%rax), %rsi
	movq	%rsi, %rsp
	leaq	-7984(%rbp), %rcx
	movq	%rcx, -16(%rax)
	movq	$2, -8(%rax)
	leaq	-47096(%rbp), %rdi
	callq	__ZN14altered_carbon2js9JsVariantaSERN4llvm8ArrayRefIPS1_EE
	movl	$64, %edi
	callq	__Znam
	movq	$1, (%rax)
	leaq	8(%rax), %rbx
	addq	$64, %rax
	movq	%rbx, %rcx
	.p2align	4, 0x90
LBB0_231:                               ## %initarr.bb985
                                        ## =>This Inner Loop Header: Depth=1
	movq	%r14, (%rcx)
	movl	$1, 8(%rcx)
	addq	$56, %rcx
	cmpq	%rax, %rcx
	jne	LBB0_231
## %bb.232:                             ## %initarr.bb985e
	leaq	-47096(%rbp), %rsi
	movq	%rbx, %rdi
	callq	__ZN14altered_carbon2js9JsVariantaSERKS1_
	movq	%rbx, -4000(%rbp)
	movq	%rsp, %rax
	leaq	-16(%rax), %rsi
	movq	%rsi, %rsp
	leaq	-4000(%rbp), %rcx
	movq	%rcx, -16(%rax)
	movq	$1, -8(%rax)
	leaq	-47040(%rbp), %rdi
	callq	__ZN14altered_carbon2js9JsVariantaSERN4llvm8ArrayRefIPS1_EE
	movl	$64, %edi
	callq	__Znam
	movq	$1, (%rax)
	leaq	8(%rax), %rbx
	addq	$64, %rax
	movq	%rbx, %rcx
	.p2align	4, 0x90
LBB0_233:                               ## %initarr.bb993
                                        ## =>This Inner Loop Header: Depth=1
	movq	%r14, (%rcx)
	movl	$1, 8(%rcx)
	addq	$56, %rcx
	cmpq	%rax, %rcx
	jne	LBB0_233
## %bb.234:                             ## %initarr.bb993e
	leaq	-47040(%rbp), %rsi
	movq	%rbx, %rdi
	callq	__ZN14altered_carbon2js9JsVariantaSERKS1_
	movq	%rbx, -3984(%rbp)
	movq	%rsp, %rax
	leaq	-16(%rax), %rsi
	movq	%rsi, %rsp
	leaq	-3984(%rbp), %rcx
	movq	%rcx, -16(%rax)
	movq	$1, -8(%rax)
	leaq	-46984(%rbp), %rdi
	callq	__ZN14altered_carbon2js9JsVariantaSERN4llvm8ArrayRefIPS1_EE
	movl	$64, %edi
	callq	__Znam
	movq	$1, (%rax)
	leaq	8(%rax), %rbx
	addq	$64, %rax
	movq	%rbx, %rcx
	.p2align	4, 0x90
LBB0_235:                               ## %initarr.bb1001
                                        ## =>This Inner Loop Header: Depth=1
	movq	%r14, (%rcx)
	movl	$1, 8(%rcx)
	addq	$56, %rcx
	cmpq	%rax, %rcx
	jne	LBB0_235
## %bb.236:                             ## %initarr.bb1001e
	leaq	-46984(%rbp), %rsi
	movq	%rbx, %rdi
	callq	__ZN14altered_carbon2js9JsVariantaSERKS1_
	movq	%rbx, -3968(%rbp)
	movq	%rsp, %rax
	leaq	-16(%rax), %rsi
	movq	%rsi, %rsp
	leaq	-3968(%rbp), %rcx
	movq	%rcx, -16(%rax)
	movq	$1, -8(%rax)
	leaq	-46928(%rbp), %rdi
	callq	__ZN14altered_carbon2js9JsVariantaSERN4llvm8ArrayRefIPS1_EE
	movl	$64, %edi
	callq	__Znam
	movq	$1, (%rax)
	leaq	8(%rax), %rbx
	addq	$64, %rax
	movq	%rbx, %rcx
	.p2align	4, 0x90
LBB0_237:                               ## %initarr.bb1009
                                        ## =>This Inner Loop Header: Depth=1
	movq	%r14, (%rcx)
	movl	$1, 8(%rcx)
	addq	$56, %rcx
	cmpq	%rax, %rcx
	jne	LBB0_237
## %bb.238:                             ## %initarr.bb1009e
	leaq	-46928(%rbp), %rsi
	movq	%rbx, %rdi
	callq	__ZN14altered_carbon2js9JsVariantaSERKS1_
	movq	%rbx, -3952(%rbp)
	movq	%rsp, %rax
	leaq	-16(%rax), %rsi
	movq	%rsi, %rsp
	leaq	-3952(%rbp), %rcx
	movq	%rcx, -16(%rax)
	movq	$1, -8(%rax)
	leaq	-46872(%rbp), %rdi
	callq	__ZN14altered_carbon2js9JsVariantaSERN4llvm8ArrayRefIPS1_EE
	leaq	-46816(%rbp), %rdi
	movl	$1, %esi
	callq	__ZN14altered_carbon2js9JsVariantaSEx
	leaq	-46760(%rbp), %rdi
	movl	$2, %esi
	callq	__ZN14altered_carbon2js9JsVariantaSEx
	movl	$120, %edi
	callq	__Znam
	movq	$2, (%rax)
	leaq	8(%rax), %rbx
	addq	$120, %rax
	movq	%rbx, %rcx
	.p2align	4, 0x90
LBB0_239:                               ## %initarr.bb1019
                                        ## =>This Inner Loop Header: Depth=1
	movq	%r14, (%rcx)
	movl	$1, 8(%rcx)
	addq	$56, %rcx
	cmpq	%rax, %rcx
	jne	LBB0_239
## %bb.240:                             ## %initarr.bb1019e
	leaq	-46816(%rbp), %rsi
	movq	%rbx, %rdi
	callq	__ZN14altered_carbon2js9JsVariantaSERKS1_
	movq	%rbx, -7968(%rbp)
	addq	$56, %rbx
	leaq	-46760(%rbp), %rsi
	movq	%rbx, %rdi
	callq	__ZN14altered_carbon2js9JsVariantaSERKS1_
	movq	%rbx, -7960(%rbp)
	movq	%rsp, %rax
	leaq	-16(%rax), %rsi
	movq	%rsi, %rsp
	leaq	-7968(%rbp), %rcx
	movq	%rcx, -16(%rax)
	movq	$2, -8(%rax)
	leaq	-46704(%rbp), %rdi
	callq	__ZN14altered_carbon2js9JsVariantaSERN4llvm8ArrayRefIPS1_EE
	leaq	-46648(%rbp), %rdi
	movl	$3, %esi
	callq	__ZN14altered_carbon2js9JsVariantaSEx
	leaq	-46592(%rbp), %rdi
	movl	$4, %esi
	callq	__ZN14altered_carbon2js9JsVariantaSEx
	movl	$120, %edi
	callq	__Znam
	movq	$2, (%rax)
	leaq	8(%rax), %rbx
	addq	$120, %rax
	movq	%rbx, %rcx
	.p2align	4, 0x90
LBB0_241:                               ## %initarr.bb1029
                                        ## =>This Inner Loop Header: Depth=1
	movq	%r14, (%rcx)
	movl	$1, 8(%rcx)
	addq	$56, %rcx
	cmpq	%rax, %rcx
	jne	LBB0_241
## %bb.242:                             ## %initarr.bb1029e
	leaq	-46648(%rbp), %rsi
	movq	%rbx, %rdi
	callq	__ZN14altered_carbon2js9JsVariantaSERKS1_
	movq	%rbx, -7952(%rbp)
	addq	$56, %rbx
	leaq	-46592(%rbp), %rsi
	movq	%rbx, %rdi
	callq	__ZN14altered_carbon2js9JsVariantaSERKS1_
	movq	%rbx, -7944(%rbp)
	movq	%rsp, %rax
	leaq	-16(%rax), %rsi
	movq	%rsi, %rsp
	leaq	-7952(%rbp), %rcx
	movq	%rcx, -16(%rax)
	movq	$2, -8(%rax)
	leaq	-46536(%rbp), %rdi
	callq	__ZN14altered_carbon2js9JsVariantaSERN4llvm8ArrayRefIPS1_EE
	movl	$120, %edi
	callq	__Znam
	movq	$2, (%rax)
	leaq	8(%rax), %rbx
	addq	$120, %rax
	movq	%rbx, %rcx
	.p2align	4, 0x90
LBB0_243:                               ## %initarr.bb1037
                                        ## =>This Inner Loop Header: Depth=1
	movq	%r14, (%rcx)
	movl	$1, 8(%rcx)
	addq	$56, %rcx
	cmpq	%rax, %rcx
	jne	LBB0_243
## %bb.244:                             ## %initarr.bb1037e
	leaq	-46704(%rbp), %rsi
	movq	%rbx, %rdi
	callq	__ZN14altered_carbon2js9JsVariantaSERKS1_
	movq	%rbx, -7936(%rbp)
	addq	$56, %rbx
	leaq	-46536(%rbp), %rsi
	movq	%rbx, %rdi
	callq	__ZN14altered_carbon2js9JsVariantaSERKS1_
	movq	%rbx, -7928(%rbp)
	movq	%rsp, %rax
	leaq	-16(%rax), %rsi
	movq	%rsi, %rsp
	leaq	-7936(%rbp), %rcx
	movq	%rcx, -16(%rax)
	movq	$2, -8(%rax)
	leaq	-46480(%rbp), %rdi
	callq	__ZN14altered_carbon2js9JsVariantaSERN4llvm8ArrayRefIPS1_EE
	movl	$64, %edi
	callq	__Znam
	movq	$1, (%rax)
	leaq	8(%rax), %rbx
	addq	$64, %rax
	movq	%rbx, %rcx
	.p2align	4, 0x90
LBB0_245:                               ## %initarr.bb1045
                                        ## =>This Inner Loop Header: Depth=1
	movq	%r14, (%rcx)
	movl	$1, 8(%rcx)
	addq	$56, %rcx
	cmpq	%rax, %rcx
	jne	LBB0_245
## %bb.246:                             ## %initarr.bb1045e
	leaq	-46480(%rbp), %rsi
	movq	%rbx, %rdi
	callq	__ZN14altered_carbon2js9JsVariantaSERKS1_
	movq	%rbx, -3936(%rbp)
	movq	%rsp, %rax
	leaq	-16(%rax), %rsi
	movq	%rsi, %rsp
	leaq	-3936(%rbp), %rcx
	movq	%rcx, -16(%rax)
	movq	$1, -8(%rax)
	leaq	-46424(%rbp), %rdi
	callq	__ZN14altered_carbon2js9JsVariantaSERN4llvm8ArrayRefIPS1_EE
	movl	$64, %edi
	callq	__Znam
	movq	$1, (%rax)
	leaq	8(%rax), %rbx
	addq	$64, %rax
	movq	%rbx, %rcx
	.p2align	4, 0x90
LBB0_247:                               ## %initarr.bb1053
                                        ## =>This Inner Loop Header: Depth=1
	movq	%r14, (%rcx)
	movl	$1, 8(%rcx)
	addq	$56, %rcx
	cmpq	%rax, %rcx
	jne	LBB0_247
## %bb.248:                             ## %initarr.bb1053e
	leaq	-46424(%rbp), %rsi
	movq	%rbx, %rdi
	callq	__ZN14altered_carbon2js9JsVariantaSERKS1_
	movq	%rbx, -3920(%rbp)
	movq	%rsp, %rax
	leaq	-16(%rax), %rsi
	movq	%rsi, %rsp
	leaq	-3920(%rbp), %rcx
	movq	%rcx, -16(%rax)
	movq	$1, -8(%rax)
	leaq	-46368(%rbp), %rdi
	callq	__ZN14altered_carbon2js9JsVariantaSERN4llvm8ArrayRefIPS1_EE
	movl	$64, %edi
	callq	__Znam
	movq	$1, (%rax)
	leaq	8(%rax), %rbx
	addq	$64, %rax
	movq	%rbx, %rcx
	.p2align	4, 0x90
LBB0_249:                               ## %initarr.bb1061
                                        ## =>This Inner Loop Header: Depth=1
	movq	%r14, (%rcx)
	movl	$1, 8(%rcx)
	addq	$56, %rcx
	cmpq	%rax, %rcx
	jne	LBB0_249
## %bb.250:                             ## %initarr.bb1061e
	leaq	-46368(%rbp), %rsi
	movq	%rbx, %rdi
	callq	__ZN14altered_carbon2js9JsVariantaSERKS1_
	movq	%rbx, -3904(%rbp)
	movq	%rsp, %rax
	leaq	-16(%rax), %rsi
	movq	%rsi, %rsp
	leaq	-3904(%rbp), %rcx
	movq	%rcx, -16(%rax)
	movq	$1, -8(%rax)
	leaq	-46312(%rbp), %rdi
	callq	__ZN14altered_carbon2js9JsVariantaSERN4llvm8ArrayRefIPS1_EE
	movl	$64, %edi
	callq	__Znam
	movq	$1, (%rax)
	leaq	8(%rax), %rbx
	addq	$64, %rax
	movq	%rbx, %rcx
	.p2align	4, 0x90
LBB0_251:                               ## %initarr.bb1069
                                        ## =>This Inner Loop Header: Depth=1
	movq	%r14, (%rcx)
	movl	$1, 8(%rcx)
	addq	$56, %rcx
	cmpq	%rax, %rcx
	jne	LBB0_251
## %bb.252:                             ## %initarr.bb1069e
	leaq	-46312(%rbp), %rsi
	movq	%rbx, %rdi
	callq	__ZN14altered_carbon2js9JsVariantaSERKS1_
	movq	%rbx, -3888(%rbp)
	movq	%rsp, %rax
	leaq	-16(%rax), %rsi
	movq	%rsi, %rsp
	leaq	-3888(%rbp), %rcx
	movq	%rcx, -16(%rax)
	movq	$1, -8(%rax)
	leaq	-46256(%rbp), %rdi
	callq	__ZN14altered_carbon2js9JsVariantaSERN4llvm8ArrayRefIPS1_EE
	leaq	-46200(%rbp), %rdi
	movl	$1, %esi
	callq	__ZN14altered_carbon2js9JsVariantaSEx
	leaq	-46144(%rbp), %rdi
	movl	$2, %esi
	callq	__ZN14altered_carbon2js9JsVariantaSEx
	movl	$120, %edi
	callq	__Znam
	movq	$2, (%rax)
	leaq	8(%rax), %rbx
	addq	$120, %rax
	movq	%rbx, %rcx
	.p2align	4, 0x90
LBB0_253:                               ## %initarr.bb1079
                                        ## =>This Inner Loop Header: Depth=1
	movq	%r14, (%rcx)
	movl	$1, 8(%rcx)
	addq	$56, %rcx
	cmpq	%rax, %rcx
	jne	LBB0_253
## %bb.254:                             ## %initarr.bb1079e
	leaq	-46200(%rbp), %rsi
	movq	%rbx, %rdi
	callq	__ZN14altered_carbon2js9JsVariantaSERKS1_
	movq	%rbx, -7920(%rbp)
	addq	$56, %rbx
	leaq	-46144(%rbp), %rsi
	movq	%rbx, %rdi
	callq	__ZN14altered_carbon2js9JsVariantaSERKS1_
	movq	%rbx, -7912(%rbp)
	movq	%rsp, %rax
	leaq	-16(%rax), %rsi
	movq	%rsi, %rsp
	leaq	-7920(%rbp), %rcx
	movq	%rcx, -16(%rax)
	movq	$2, -8(%rax)
	leaq	-46088(%rbp), %rdi
	callq	__ZN14altered_carbon2js9JsVariantaSERN4llvm8ArrayRefIPS1_EE
	leaq	-46032(%rbp), %rdi
	movl	$3, %esi
	callq	__ZN14altered_carbon2js9JsVariantaSEx
	leaq	-45976(%rbp), %rdi
	movl	$4, %esi
	callq	__ZN14altered_carbon2js9JsVariantaSEx
	movl	$120, %edi
	callq	__Znam
	movq	$2, (%rax)
	leaq	8(%rax), %rbx
	addq	$120, %rax
	movq	%rbx, %rcx
	.p2align	4, 0x90
LBB0_255:                               ## %initarr.bb1089
                                        ## =>This Inner Loop Header: Depth=1
	movq	%r14, (%rcx)
	movl	$1, 8(%rcx)
	addq	$56, %rcx
	cmpq	%rax, %rcx
	jne	LBB0_255
## %bb.256:                             ## %initarr.bb1089e
	leaq	-46032(%rbp), %rsi
	movq	%rbx, %rdi
	callq	__ZN14altered_carbon2js9JsVariantaSERKS1_
	movq	%rbx, -7904(%rbp)
	addq	$56, %rbx
	leaq	-45976(%rbp), %rsi
	movq	%rbx, %rdi
	callq	__ZN14altered_carbon2js9JsVariantaSERKS1_
	movq	%rbx, -7896(%rbp)
	movq	%rsp, %rax
	leaq	-16(%rax), %rsi
	movq	%rsi, %rsp
	leaq	-7904(%rbp), %rcx
	movq	%rcx, -16(%rax)
	movq	$2, -8(%rax)
	leaq	-45920(%rbp), %rdi
	callq	__ZN14altered_carbon2js9JsVariantaSERN4llvm8ArrayRefIPS1_EE
	movl	$120, %edi
	callq	__Znam
	movq	$2, (%rax)
	leaq	8(%rax), %rbx
	addq	$120, %rax
	movq	%rbx, %rcx
	.p2align	4, 0x90
LBB0_257:                               ## %initarr.bb1097
                                        ## =>This Inner Loop Header: Depth=1
	movq	%r14, (%rcx)
	movl	$1, 8(%rcx)
	addq	$56, %rcx
	cmpq	%rax, %rcx
	jne	LBB0_257
## %bb.258:                             ## %initarr.bb1097e
	leaq	-46088(%rbp), %rsi
	movq	%rbx, %rdi
	callq	__ZN14altered_carbon2js9JsVariantaSERKS1_
	movq	%rbx, -7888(%rbp)
	addq	$56, %rbx
	leaq	-45920(%rbp), %rsi
	movq	%rbx, %rdi
	callq	__ZN14altered_carbon2js9JsVariantaSERKS1_
	movq	%rbx, -7880(%rbp)
	movq	%rsp, %rax
	leaq	-16(%rax), %rsi
	movq	%rsi, %rsp
	leaq	-7888(%rbp), %rcx
	movq	%rcx, -16(%rax)
	movq	$2, -8(%rax)
	leaq	-45864(%rbp), %rdi
	callq	__ZN14altered_carbon2js9JsVariantaSERN4llvm8ArrayRefIPS1_EE
	movl	$64, %edi
	callq	__Znam
	movq	$1, (%rax)
	leaq	8(%rax), %rbx
	addq	$64, %rax
	movq	%rbx, %rcx
	.p2align	4, 0x90
LBB0_259:                               ## %initarr.bb1105
                                        ## =>This Inner Loop Header: Depth=1
	movq	%r14, (%rcx)
	movl	$1, 8(%rcx)
	addq	$56, %rcx
	cmpq	%rax, %rcx
	jne	LBB0_259
## %bb.260:                             ## %initarr.bb1105e
	leaq	-45864(%rbp), %rsi
	movq	%rbx, %rdi
	callq	__ZN14altered_carbon2js9JsVariantaSERKS1_
	movq	%rbx, -3872(%rbp)
	movq	%rsp, %rax
	leaq	-16(%rax), %rsi
	movq	%rsi, %rsp
	leaq	-3872(%rbp), %rcx
	movq	%rcx, -16(%rax)
	movq	$1, -8(%rax)
	leaq	-45808(%rbp), %rdi
	callq	__ZN14altered_carbon2js9JsVariantaSERN4llvm8ArrayRefIPS1_EE
	movl	$64, %edi
	callq	__Znam
	movq	$1, (%rax)
	leaq	8(%rax), %rbx
	addq	$64, %rax
	movq	%rbx, %rcx
	.p2align	4, 0x90
LBB0_261:                               ## %initarr.bb1113
                                        ## =>This Inner Loop Header: Depth=1
	movq	%r14, (%rcx)
	movl	$1, 8(%rcx)
	addq	$56, %rcx
	cmpq	%rax, %rcx
	jne	LBB0_261
## %bb.262:                             ## %initarr.bb1113e
	leaq	-45808(%rbp), %rsi
	movq	%rbx, %rdi
	callq	__ZN14altered_carbon2js9JsVariantaSERKS1_
	movq	%rbx, -3856(%rbp)
	movq	%rsp, %rax
	leaq	-16(%rax), %rsi
	movq	%rsi, %rsp
	leaq	-3856(%rbp), %rcx
	movq	%rcx, -16(%rax)
	movq	$1, -8(%rax)
	leaq	-45752(%rbp), %rdi
	callq	__ZN14altered_carbon2js9JsVariantaSERN4llvm8ArrayRefIPS1_EE
	movl	$64, %edi
	callq	__Znam
	movq	$1, (%rax)
	leaq	8(%rax), %rbx
	addq	$64, %rax
	movq	%rbx, %rcx
	.p2align	4, 0x90
LBB0_263:                               ## %initarr.bb1121
                                        ## =>This Inner Loop Header: Depth=1
	movq	%r14, (%rcx)
	movl	$1, 8(%rcx)
	addq	$56, %rcx
	cmpq	%rax, %rcx
	jne	LBB0_263
## %bb.264:                             ## %initarr.bb1121e
	leaq	-45752(%rbp), %rsi
	movq	%rbx, %rdi
	callq	__ZN14altered_carbon2js9JsVariantaSERKS1_
	movq	%rbx, -3840(%rbp)
	movq	%rsp, %rax
	leaq	-16(%rax), %rsi
	movq	%rsi, %rsp
	leaq	-3840(%rbp), %rcx
	movq	%rcx, -16(%rax)
	movq	$1, -8(%rax)
	leaq	-45696(%rbp), %rdi
	callq	__ZN14altered_carbon2js9JsVariantaSERN4llvm8ArrayRefIPS1_EE
	movl	$64, %edi
	callq	__Znam
	movq	$1, (%rax)
	leaq	8(%rax), %rbx
	addq	$64, %rax
	movq	%rbx, %rcx
	.p2align	4, 0x90
LBB0_265:                               ## %initarr.bb1129
                                        ## =>This Inner Loop Header: Depth=1
	movq	%r14, (%rcx)
	movl	$1, 8(%rcx)
	addq	$56, %rcx
	cmpq	%rax, %rcx
	jne	LBB0_265
## %bb.266:                             ## %initarr.bb1129e
	leaq	-45696(%rbp), %rsi
	movq	%rbx, %rdi
	callq	__ZN14altered_carbon2js9JsVariantaSERKS1_
	movq	%rbx, -3824(%rbp)
	movq	%rsp, %rax
	leaq	-16(%rax), %rsi
	movq	%rsi, %rsp
	leaq	-3824(%rbp), %rcx
	movq	%rcx, -16(%rax)
	movq	$1, -8(%rax)
	leaq	-45640(%rbp), %rdi
	callq	__ZN14altered_carbon2js9JsVariantaSERN4llvm8ArrayRefIPS1_EE
	leaq	-45584(%rbp), %rdi
	movl	$1, %esi
	callq	__ZN14altered_carbon2js9JsVariantaSEx
	leaq	-45528(%rbp), %rdi
	movl	$2, %esi
	callq	__ZN14altered_carbon2js9JsVariantaSEx
	movl	$120, %edi
	callq	__Znam
	movq	$2, (%rax)
	leaq	8(%rax), %rbx
	addq	$120, %rax
	movq	%rbx, %rcx
	.p2align	4, 0x90
LBB0_267:                               ## %initarr.bb1139
                                        ## =>This Inner Loop Header: Depth=1
	movq	%r14, (%rcx)
	movl	$1, 8(%rcx)
	addq	$56, %rcx
	cmpq	%rax, %rcx
	jne	LBB0_267
## %bb.268:                             ## %initarr.bb1139e
	leaq	-45584(%rbp), %rsi
	movq	%rbx, %rdi
	callq	__ZN14altered_carbon2js9JsVariantaSERKS1_
	movq	%rbx, -7872(%rbp)
	addq	$56, %rbx
	leaq	-45528(%rbp), %rsi
	movq	%rbx, %rdi
	callq	__ZN14altered_carbon2js9JsVariantaSERKS1_
	movq	%rbx, -7864(%rbp)
	movq	%rsp, %rax
	leaq	-16(%rax), %rsi
	movq	%rsi, %rsp
	leaq	-7872(%rbp), %rcx
	movq	%rcx, -16(%rax)
	movq	$2, -8(%rax)
	leaq	-45472(%rbp), %rdi
	callq	__ZN14altered_carbon2js9JsVariantaSERN4llvm8ArrayRefIPS1_EE
	leaq	-45416(%rbp), %rdi
	movl	$3, %esi
	callq	__ZN14altered_carbon2js9JsVariantaSEx
	leaq	-45360(%rbp), %rdi
	movl	$4, %esi
	callq	__ZN14altered_carbon2js9JsVariantaSEx
	movl	$120, %edi
	callq	__Znam
	movq	$2, (%rax)
	leaq	8(%rax), %rbx
	addq	$120, %rax
	movq	%rbx, %rcx
	.p2align	4, 0x90
LBB0_269:                               ## %initarr.bb1149
                                        ## =>This Inner Loop Header: Depth=1
	movq	%r14, (%rcx)
	movl	$1, 8(%rcx)
	addq	$56, %rcx
	cmpq	%rax, %rcx
	jne	LBB0_269
## %bb.270:                             ## %initarr.bb1149e
	leaq	-45416(%rbp), %rsi
	movq	%rbx, %rdi
	callq	__ZN14altered_carbon2js9JsVariantaSERKS1_
	movq	%rbx, -7856(%rbp)
	addq	$56, %rbx
	leaq	-45360(%rbp), %rsi
	movq	%rbx, %rdi
	callq	__ZN14altered_carbon2js9JsVariantaSERKS1_
	movq	%rbx, -7848(%rbp)
	movq	%rsp, %rax
	leaq	-16(%rax), %rsi
	movq	%rsi, %rsp
	leaq	-7856(%rbp), %rcx
	movq	%rcx, -16(%rax)
	movq	$2, -8(%rax)
	leaq	-45304(%rbp), %rdi
	callq	__ZN14altered_carbon2js9JsVariantaSERN4llvm8ArrayRefIPS1_EE
	movl	$120, %edi
	callq	__Znam
	movq	$2, (%rax)
	leaq	8(%rax), %rbx
	addq	$120, %rax
	movq	%rbx, %rcx
	.p2align	4, 0x90
LBB0_271:                               ## %initarr.bb1157
                                        ## =>This Inner Loop Header: Depth=1
	movq	%r14, (%rcx)
	movl	$1, 8(%rcx)
	addq	$56, %rcx
	cmpq	%rax, %rcx
	jne	LBB0_271
## %bb.272:                             ## %initarr.bb1157e
	leaq	-45472(%rbp), %rsi
	movq	%rbx, %rdi
	callq	__ZN14altered_carbon2js9JsVariantaSERKS1_
	movq	%rbx, -7840(%rbp)
	addq	$56, %rbx
	leaq	-45304(%rbp), %rsi
	movq	%rbx, %rdi
	callq	__ZN14altered_carbon2js9JsVariantaSERKS1_
	movq	%rbx, -7832(%rbp)
	movq	%rsp, %rax
	leaq	-16(%rax), %rsi
	movq	%rsi, %rsp
	leaq	-7840(%rbp), %rcx
	movq	%rcx, -16(%rax)
	movq	$2, -8(%rax)
	leaq	-45248(%rbp), %rdi
	callq	__ZN14altered_carbon2js9JsVariantaSERN4llvm8ArrayRefIPS1_EE
	movl	$64, %edi
	callq	__Znam
	movq	$1, (%rax)
	leaq	8(%rax), %rbx
	addq	$64, %rax
	movq	%rbx, %rcx
	.p2align	4, 0x90
LBB0_273:                               ## %initarr.bb1165
                                        ## =>This Inner Loop Header: Depth=1
	movq	%r14, (%rcx)
	movl	$1, 8(%rcx)
	addq	$56, %rcx
	cmpq	%rax, %rcx
	jne	LBB0_273
## %bb.274:                             ## %initarr.bb1165e
	leaq	-45248(%rbp), %rsi
	movq	%rbx, %rdi
	callq	__ZN14altered_carbon2js9JsVariantaSERKS1_
	movq	%rbx, -3808(%rbp)
	movq	%rsp, %rax
	leaq	-16(%rax), %rsi
	movq	%rsi, %rsp
	leaq	-3808(%rbp), %rcx
	movq	%rcx, -16(%rax)
	movq	$1, -8(%rax)
	leaq	-45192(%rbp), %rdi
	callq	__ZN14altered_carbon2js9JsVariantaSERN4llvm8ArrayRefIPS1_EE
	movl	$64, %edi
	callq	__Znam
	movq	$1, (%rax)
	leaq	8(%rax), %rbx
	addq	$64, %rax
	movq	%rbx, %rcx
	.p2align	4, 0x90
LBB0_275:                               ## %initarr.bb1173
                                        ## =>This Inner Loop Header: Depth=1
	movq	%r14, (%rcx)
	movl	$1, 8(%rcx)
	addq	$56, %rcx
	cmpq	%rax, %rcx
	jne	LBB0_275
## %bb.276:                             ## %initarr.bb1173e
	leaq	-45192(%rbp), %rsi
	movq	%rbx, %rdi
	callq	__ZN14altered_carbon2js9JsVariantaSERKS1_
	movq	%rbx, -3792(%rbp)
	movq	%rsp, %rax
	leaq	-16(%rax), %rsi
	movq	%rsi, %rsp
	leaq	-3792(%rbp), %rcx
	movq	%rcx, -16(%rax)
	movq	$1, -8(%rax)
	leaq	-45136(%rbp), %rdi
	callq	__ZN14altered_carbon2js9JsVariantaSERN4llvm8ArrayRefIPS1_EE
	movl	$64, %edi
	callq	__Znam
	movq	$1, (%rax)
	leaq	8(%rax), %rbx
	addq	$64, %rax
	movq	%rbx, %rcx
	.p2align	4, 0x90
LBB0_277:                               ## %initarr.bb1181
                                        ## =>This Inner Loop Header: Depth=1
	movq	%r14, (%rcx)
	movl	$1, 8(%rcx)
	addq	$56, %rcx
	cmpq	%rax, %rcx
	jne	LBB0_277
## %bb.278:                             ## %initarr.bb1181e
	leaq	-45136(%rbp), %rsi
	movq	%rbx, %rdi
	callq	__ZN14altered_carbon2js9JsVariantaSERKS1_
	movq	%rbx, -3776(%rbp)
	movq	%rsp, %rax
	leaq	-16(%rax), %rsi
	movq	%rsi, %rsp
	leaq	-3776(%rbp), %rcx
	movq	%rcx, -16(%rax)
	movq	$1, -8(%rax)
	leaq	-45080(%rbp), %rdi
	callq	__ZN14altered_carbon2js9JsVariantaSERN4llvm8ArrayRefIPS1_EE
	movl	$64, %edi
	callq	__Znam
	movq	$1, (%rax)
	leaq	8(%rax), %rbx
	addq	$64, %rax
	movq	%rbx, %rcx
	.p2align	4, 0x90
LBB0_279:                               ## %initarr.bb1189
                                        ## =>This Inner Loop Header: Depth=1
	movq	%r14, (%rcx)
	movl	$1, 8(%rcx)
	addq	$56, %rcx
	cmpq	%rax, %rcx
	jne	LBB0_279
## %bb.280:                             ## %initarr.bb1189e
	leaq	-45080(%rbp), %rsi
	movq	%rbx, %rdi
	callq	__ZN14altered_carbon2js9JsVariantaSERKS1_
	movq	%rbx, -3760(%rbp)
	movq	%rsp, %rax
	leaq	-16(%rax), %rsi
	movq	%rsi, %rsp
	leaq	-3760(%rbp), %rcx
	movq	%rcx, -16(%rax)
	movq	$1, -8(%rax)
	leaq	-45024(%rbp), %rdi
	callq	__ZN14altered_carbon2js9JsVariantaSERN4llvm8ArrayRefIPS1_EE
	leaq	-44968(%rbp), %rdi
	movl	$1, %esi
	callq	__ZN14altered_carbon2js9JsVariantaSEx
	leaq	-44912(%rbp), %rdi
	movl	$2, %esi
	callq	__ZN14altered_carbon2js9JsVariantaSEx
	movl	$120, %edi
	callq	__Znam
	movq	$2, (%rax)
	leaq	8(%rax), %rbx
	addq	$120, %rax
	movq	%rbx, %rcx
	.p2align	4, 0x90
LBB0_281:                               ## %initarr.bb1199
                                        ## =>This Inner Loop Header: Depth=1
	movq	%r14, (%rcx)
	movl	$1, 8(%rcx)
	addq	$56, %rcx
	cmpq	%rax, %rcx
	jne	LBB0_281
## %bb.282:                             ## %initarr.bb1199e
	leaq	-44968(%rbp), %rsi
	movq	%rbx, %rdi
	callq	__ZN14altered_carbon2js9JsVariantaSERKS1_
	movq	%rbx, -7824(%rbp)
	addq	$56, %rbx
	leaq	-44912(%rbp), %rsi
	movq	%rbx, %rdi
	callq	__ZN14altered_carbon2js9JsVariantaSERKS1_
	movq	%rbx, -7816(%rbp)
	movq	%rsp, %rax
	leaq	-16(%rax), %rsi
	movq	%rsi, %rsp
	leaq	-7824(%rbp), %rcx
	movq	%rcx, -16(%rax)
	movq	$2, -8(%rax)
	leaq	-44856(%rbp), %rdi
	callq	__ZN14altered_carbon2js9JsVariantaSERN4llvm8ArrayRefIPS1_EE
	leaq	-44800(%rbp), %rdi
	movl	$3, %esi
	callq	__ZN14altered_carbon2js9JsVariantaSEx
	leaq	-44744(%rbp), %rdi
	movl	$4, %esi
	callq	__ZN14altered_carbon2js9JsVariantaSEx
	movl	$120, %edi
	callq	__Znam
	movq	$2, (%rax)
	leaq	8(%rax), %rbx
	addq	$120, %rax
	movq	%rbx, %rcx
	.p2align	4, 0x90
LBB0_283:                               ## %initarr.bb1209
                                        ## =>This Inner Loop Header: Depth=1
	movq	%r14, (%rcx)
	movl	$1, 8(%rcx)
	addq	$56, %rcx
	cmpq	%rax, %rcx
	jne	LBB0_283
## %bb.284:                             ## %initarr.bb1209e
	leaq	-44800(%rbp), %rsi
	movq	%rbx, %rdi
	callq	__ZN14altered_carbon2js9JsVariantaSERKS1_
	movq	%rbx, -7808(%rbp)
	addq	$56, %rbx
	leaq	-44744(%rbp), %rsi
	movq	%rbx, %rdi
	callq	__ZN14altered_carbon2js9JsVariantaSERKS1_
	movq	%rbx, -7800(%rbp)
	movq	%rsp, %rax
	leaq	-16(%rax), %rsi
	movq	%rsi, %rsp
	leaq	-7808(%rbp), %rcx
	movq	%rcx, -16(%rax)
	movq	$2, -8(%rax)
	leaq	-44688(%rbp), %rdi
	callq	__ZN14altered_carbon2js9JsVariantaSERN4llvm8ArrayRefIPS1_EE
	movl	$120, %edi
	callq	__Znam
	movq	$2, (%rax)
	leaq	8(%rax), %rbx
	addq	$120, %rax
	movq	%rbx, %rcx
	.p2align	4, 0x90
LBB0_285:                               ## %initarr.bb1217
                                        ## =>This Inner Loop Header: Depth=1
	movq	%r14, (%rcx)
	movl	$1, 8(%rcx)
	addq	$56, %rcx
	cmpq	%rax, %rcx
	jne	LBB0_285
## %bb.286:                             ## %initarr.bb1217e
	leaq	-44856(%rbp), %rsi
	movq	%rbx, %rdi
	callq	__ZN14altered_carbon2js9JsVariantaSERKS1_
	movq	%rbx, -7792(%rbp)
	addq	$56, %rbx
	leaq	-44688(%rbp), %rsi
	movq	%rbx, %rdi
	callq	__ZN14altered_carbon2js9JsVariantaSERKS1_
	movq	%rbx, -7784(%rbp)
	movq	%rsp, %rax
	leaq	-16(%rax), %rsi
	movq	%rsi, %rsp
	leaq	-7792(%rbp), %rcx
	movq	%rcx, -16(%rax)
	movq	$2, -8(%rax)
	leaq	-44632(%rbp), %rdi
	callq	__ZN14altered_carbon2js9JsVariantaSERN4llvm8ArrayRefIPS1_EE
	movl	$64, %edi
	callq	__Znam
	movq	$1, (%rax)
	leaq	8(%rax), %rbx
	addq	$64, %rax
	movq	%rbx, %rcx
	.p2align	4, 0x90
LBB0_287:                               ## %initarr.bb1225
                                        ## =>This Inner Loop Header: Depth=1
	movq	%r14, (%rcx)
	movl	$1, 8(%rcx)
	addq	$56, %rcx
	cmpq	%rax, %rcx
	jne	LBB0_287
## %bb.288:                             ## %initarr.bb1225e
	leaq	-44632(%rbp), %rsi
	movq	%rbx, %rdi
	callq	__ZN14altered_carbon2js9JsVariantaSERKS1_
	movq	%rbx, -3744(%rbp)
	movq	%rsp, %rax
	leaq	-16(%rax), %rsi
	movq	%rsi, %rsp
	leaq	-3744(%rbp), %rcx
	movq	%rcx, -16(%rax)
	movq	$1, -8(%rax)
	leaq	-44576(%rbp), %rdi
	callq	__ZN14altered_carbon2js9JsVariantaSERN4llvm8ArrayRefIPS1_EE
	movl	$64, %edi
	callq	__Znam
	movq	$1, (%rax)
	leaq	8(%rax), %rbx
	addq	$64, %rax
	movq	%rbx, %rcx
	.p2align	4, 0x90
LBB0_289:                               ## %initarr.bb1233
                                        ## =>This Inner Loop Header: Depth=1
	movq	%r14, (%rcx)
	movl	$1, 8(%rcx)
	addq	$56, %rcx
	cmpq	%rax, %rcx
	jne	LBB0_289
## %bb.290:                             ## %initarr.bb1233e
	leaq	-44576(%rbp), %rsi
	movq	%rbx, %rdi
	callq	__ZN14altered_carbon2js9JsVariantaSERKS1_
	movq	%rbx, -3728(%rbp)
	movq	%rsp, %rax
	leaq	-16(%rax), %rsi
	movq	%rsi, %rsp
	leaq	-3728(%rbp), %rcx
	movq	%rcx, -16(%rax)
	movq	$1, -8(%rax)
	leaq	-44520(%rbp), %rdi
	callq	__ZN14altered_carbon2js9JsVariantaSERN4llvm8ArrayRefIPS1_EE
	movl	$64, %edi
	callq	__Znam
	movq	$1, (%rax)
	leaq	8(%rax), %rbx
	addq	$64, %rax
	movq	%rbx, %rcx
	.p2align	4, 0x90
LBB0_291:                               ## %initarr.bb1241
                                        ## =>This Inner Loop Header: Depth=1
	movq	%r14, (%rcx)
	movl	$1, 8(%rcx)
	addq	$56, %rcx
	cmpq	%rax, %rcx
	jne	LBB0_291
## %bb.292:                             ## %initarr.bb1241e
	leaq	-44520(%rbp), %rsi
	movq	%rbx, %rdi
	callq	__ZN14altered_carbon2js9JsVariantaSERKS1_
	movq	%rbx, -3712(%rbp)
	movq	%rsp, %rax
	leaq	-16(%rax), %rsi
	movq	%rsi, %rsp
	leaq	-3712(%rbp), %rcx
	movq	%rcx, -16(%rax)
	movq	$1, -8(%rax)
	leaq	-44464(%rbp), %rdi
	callq	__ZN14altered_carbon2js9JsVariantaSERN4llvm8ArrayRefIPS1_EE
	movl	$64, %edi
	callq	__Znam
	movq	$1, (%rax)
	leaq	8(%rax), %rbx
	addq	$64, %rax
	movq	%rbx, %rcx
	.p2align	4, 0x90
LBB0_293:                               ## %initarr.bb1249
                                        ## =>This Inner Loop Header: Depth=1
	movq	%r14, (%rcx)
	movl	$1, 8(%rcx)
	addq	$56, %rcx
	cmpq	%rax, %rcx
	jne	LBB0_293
## %bb.294:                             ## %initarr.bb1249e
	leaq	-44464(%rbp), %rsi
	movq	%rbx, %rdi
	callq	__ZN14altered_carbon2js9JsVariantaSERKS1_
	movq	%rbx, -3696(%rbp)
	movq	%rsp, %rax
	leaq	-16(%rax), %rsi
	movq	%rsi, %rsp
	leaq	-3696(%rbp), %rcx
	movq	%rcx, -16(%rax)
	movq	$1, -8(%rax)
	leaq	-44408(%rbp), %rdi
	callq	__ZN14altered_carbon2js9JsVariantaSERN4llvm8ArrayRefIPS1_EE
	leaq	-44352(%rbp), %rdi
	movl	$1, %esi
	callq	__ZN14altered_carbon2js9JsVariantaSEx
	leaq	-44296(%rbp), %rdi
	movl	$2, %esi
	callq	__ZN14altered_carbon2js9JsVariantaSEx
	movl	$120, %edi
	callq	__Znam
	movq	$2, (%rax)
	leaq	8(%rax), %rbx
	addq	$120, %rax
	movq	%rbx, %rcx
	.p2align	4, 0x90
LBB0_295:                               ## %initarr.bb1259
                                        ## =>This Inner Loop Header: Depth=1
	movq	%r14, (%rcx)
	movl	$1, 8(%rcx)
	addq	$56, %rcx
	cmpq	%rax, %rcx
	jne	LBB0_295
## %bb.296:                             ## %initarr.bb1259e
	leaq	-44352(%rbp), %rsi
	movq	%rbx, %rdi
	callq	__ZN14altered_carbon2js9JsVariantaSERKS1_
	movq	%rbx, -7776(%rbp)
	addq	$56, %rbx
	leaq	-44296(%rbp), %rsi
	movq	%rbx, %rdi
	callq	__ZN14altered_carbon2js9JsVariantaSERKS1_
	movq	%rbx, -7768(%rbp)
	movq	%rsp, %rax
	leaq	-16(%rax), %rsi
	movq	%rsi, %rsp
	leaq	-7776(%rbp), %rcx
	movq	%rcx, -16(%rax)
	movq	$2, -8(%rax)
	leaq	-44240(%rbp), %rdi
	callq	__ZN14altered_carbon2js9JsVariantaSERN4llvm8ArrayRefIPS1_EE
	leaq	-44184(%rbp), %rdi
	movl	$3, %esi
	callq	__ZN14altered_carbon2js9JsVariantaSEx
	leaq	-44128(%rbp), %rdi
	movl	$4, %esi
	callq	__ZN14altered_carbon2js9JsVariantaSEx
	movl	$120, %edi
	callq	__Znam
	movq	$2, (%rax)
	leaq	8(%rax), %rbx
	addq	$120, %rax
	movq	%rbx, %rcx
	.p2align	4, 0x90
LBB0_297:                               ## %initarr.bb1269
                                        ## =>This Inner Loop Header: Depth=1
	movq	%r14, (%rcx)
	movl	$1, 8(%rcx)
	addq	$56, %rcx
	cmpq	%rax, %rcx
	jne	LBB0_297
## %bb.298:                             ## %initarr.bb1269e
	leaq	-44184(%rbp), %rsi
	movq	%rbx, %rdi
	callq	__ZN14altered_carbon2js9JsVariantaSERKS1_
	movq	%rbx, -7760(%rbp)
	addq	$56, %rbx
	leaq	-44128(%rbp), %rsi
	movq	%rbx, %rdi
	callq	__ZN14altered_carbon2js9JsVariantaSERKS1_
	movq	%rbx, -7752(%rbp)
	movq	%rsp, %rax
	leaq	-16(%rax), %rsi
	movq	%rsi, %rsp
	leaq	-7760(%rbp), %rcx
	movq	%rcx, -16(%rax)
	movq	$2, -8(%rax)
	leaq	-44072(%rbp), %rdi
	callq	__ZN14altered_carbon2js9JsVariantaSERN4llvm8ArrayRefIPS1_EE
	movl	$120, %edi
	callq	__Znam
	movq	$2, (%rax)
	leaq	8(%rax), %rbx
	addq	$120, %rax
	movq	%rbx, %rcx
	.p2align	4, 0x90
LBB0_299:                               ## %initarr.bb1277
                                        ## =>This Inner Loop Header: Depth=1
	movq	%r14, (%rcx)
	movl	$1, 8(%rcx)
	addq	$56, %rcx
	cmpq	%rax, %rcx
	jne	LBB0_299
## %bb.300:                             ## %initarr.bb1277e
	leaq	-44240(%rbp), %rsi
	movq	%rbx, %rdi
	callq	__ZN14altered_carbon2js9JsVariantaSERKS1_
	movq	%rbx, -7744(%rbp)
	addq	$56, %rbx
	leaq	-44072(%rbp), %rsi
	movq	%rbx, %rdi
	callq	__ZN14altered_carbon2js9JsVariantaSERKS1_
	movq	%rbx, -7736(%rbp)
	movq	%rsp, %rax
	leaq	-16(%rax), %rsi
	movq	%rsi, %rsp
	leaq	-7744(%rbp), %rcx
	movq	%rcx, -16(%rax)
	movq	$2, -8(%rax)
	leaq	-44016(%rbp), %rdi
	callq	__ZN14altered_carbon2js9JsVariantaSERN4llvm8ArrayRefIPS1_EE
	movl	$64, %edi
	callq	__Znam
	movq	$1, (%rax)
	leaq	8(%rax), %rbx
	addq	$64, %rax
	movq	%rbx, %rcx
	.p2align	4, 0x90
LBB0_301:                               ## %initarr.bb1285
                                        ## =>This Inner Loop Header: Depth=1
	movq	%r14, (%rcx)
	movl	$1, 8(%rcx)
	addq	$56, %rcx
	cmpq	%rax, %rcx
	jne	LBB0_301
## %bb.302:                             ## %initarr.bb1285e
	leaq	-44016(%rbp), %rsi
	movq	%rbx, %rdi
	callq	__ZN14altered_carbon2js9JsVariantaSERKS1_
	movq	%rbx, -3680(%rbp)
	movq	%rsp, %rax
	leaq	-16(%rax), %rsi
	movq	%rsi, %rsp
	leaq	-3680(%rbp), %rcx
	movq	%rcx, -16(%rax)
	movq	$1, -8(%rax)
	leaq	-43960(%rbp), %rdi
	callq	__ZN14altered_carbon2js9JsVariantaSERN4llvm8ArrayRefIPS1_EE
	movl	$64, %edi
	callq	__Znam
	movq	$1, (%rax)
	leaq	8(%rax), %rbx
	addq	$64, %rax
	movq	%rbx, %rcx
	.p2align	4, 0x90
LBB0_303:                               ## %initarr.bb1293
                                        ## =>This Inner Loop Header: Depth=1
	movq	%r14, (%rcx)
	movl	$1, 8(%rcx)
	addq	$56, %rcx
	cmpq	%rax, %rcx
	jne	LBB0_303
## %bb.304:                             ## %initarr.bb1293e
	leaq	-43960(%rbp), %rsi
	movq	%rbx, %rdi
	callq	__ZN14altered_carbon2js9JsVariantaSERKS1_
	movq	%rbx, -3664(%rbp)
	movq	%rsp, %rax
	leaq	-16(%rax), %rsi
	movq	%rsi, %rsp
	leaq	-3664(%rbp), %rcx
	movq	%rcx, -16(%rax)
	movq	$1, -8(%rax)
	leaq	-43904(%rbp), %rdi
	callq	__ZN14altered_carbon2js9JsVariantaSERN4llvm8ArrayRefIPS1_EE
	movl	$64, %edi
	callq	__Znam
	movq	$1, (%rax)
	leaq	8(%rax), %rbx
	addq	$64, %rax
	movq	%rbx, %rcx
	.p2align	4, 0x90
LBB0_305:                               ## %initarr.bb1301
                                        ## =>This Inner Loop Header: Depth=1
	movq	%r14, (%rcx)
	movl	$1, 8(%rcx)
	addq	$56, %rcx
	cmpq	%rax, %rcx
	jne	LBB0_305
## %bb.306:                             ## %initarr.bb1301e
	leaq	-43904(%rbp), %rsi
	movq	%rbx, %rdi
	callq	__ZN14altered_carbon2js9JsVariantaSERKS1_
	movq	%rbx, -3648(%rbp)
	movq	%rsp, %rax
	leaq	-16(%rax), %rsi
	movq	%rsi, %rsp
	leaq	-3648(%rbp), %rcx
	movq	%rcx, -16(%rax)
	movq	$1, -8(%rax)
	leaq	-43848(%rbp), %rdi
	callq	__ZN14altered_carbon2js9JsVariantaSERN4llvm8ArrayRefIPS1_EE
	movl	$64, %edi
	callq	__Znam
	movq	$1, (%rax)
	leaq	8(%rax), %rbx
	addq	$64, %rax
	movq	%rbx, %rcx
	.p2align	4, 0x90
LBB0_307:                               ## %initarr.bb1309
                                        ## =>This Inner Loop Header: Depth=1
	movq	%r14, (%rcx)
	movl	$1, 8(%rcx)
	addq	$56, %rcx
	cmpq	%rax, %rcx
	jne	LBB0_307
## %bb.308:                             ## %initarr.bb1309e
	leaq	-43848(%rbp), %rsi
	movq	%rbx, %rdi
	callq	__ZN14altered_carbon2js9JsVariantaSERKS1_
	movq	%rbx, -3632(%rbp)
	movq	%rsp, %rax
	leaq	-16(%rax), %rsi
	movq	%rsi, %rsp
	leaq	-3632(%rbp), %rcx
	movq	%rcx, -16(%rax)
	movq	$1, -8(%rax)
	leaq	-43792(%rbp), %rdi
	callq	__ZN14altered_carbon2js9JsVariantaSERN4llvm8ArrayRefIPS1_EE
	leaq	-43736(%rbp), %rdi
	movl	$1, %esi
	callq	__ZN14altered_carbon2js9JsVariantaSEx
	leaq	-43680(%rbp), %rdi
	movl	$2, %esi
	callq	__ZN14altered_carbon2js9JsVariantaSEx
	movl	$120, %edi
	callq	__Znam
	movq	$2, (%rax)
	leaq	8(%rax), %rbx
	addq	$120, %rax
	movq	%rbx, %rcx
	.p2align	4, 0x90
LBB0_309:                               ## %initarr.bb1319
                                        ## =>This Inner Loop Header: Depth=1
	movq	%r14, (%rcx)
	movl	$1, 8(%rcx)
	addq	$56, %rcx
	cmpq	%rax, %rcx
	jne	LBB0_309
## %bb.310:                             ## %initarr.bb1319e
	leaq	-43736(%rbp), %rsi
	movq	%rbx, %rdi
	callq	__ZN14altered_carbon2js9JsVariantaSERKS1_
	movq	%rbx, -7728(%rbp)
	addq	$56, %rbx
	leaq	-43680(%rbp), %rsi
	movq	%rbx, %rdi
	callq	__ZN14altered_carbon2js9JsVariantaSERKS1_
	movq	%rbx, -7720(%rbp)
	movq	%rsp, %rax
	leaq	-16(%rax), %rsi
	movq	%rsi, %rsp
	leaq	-7728(%rbp), %rcx
	movq	%rcx, -16(%rax)
	movq	$2, -8(%rax)
	leaq	-43624(%rbp), %rdi
	callq	__ZN14altered_carbon2js9JsVariantaSERN4llvm8ArrayRefIPS1_EE
	leaq	-43568(%rbp), %rdi
	movl	$3, %esi
	callq	__ZN14altered_carbon2js9JsVariantaSEx
	leaq	-43512(%rbp), %rdi
	movl	$4, %esi
	callq	__ZN14altered_carbon2js9JsVariantaSEx
	movl	$120, %edi
	callq	__Znam
	movq	$2, (%rax)
	leaq	8(%rax), %rbx
	addq	$120, %rax
	movq	%rbx, %rcx
	.p2align	4, 0x90
LBB0_311:                               ## %initarr.bb1329
                                        ## =>This Inner Loop Header: Depth=1
	movq	%r14, (%rcx)
	movl	$1, 8(%rcx)
	addq	$56, %rcx
	cmpq	%rax, %rcx
	jne	LBB0_311
## %bb.312:                             ## %initarr.bb1329e
	leaq	-43568(%rbp), %rsi
	movq	%rbx, %rdi
	callq	__ZN14altered_carbon2js9JsVariantaSERKS1_
	movq	%rbx, -7712(%rbp)
	addq	$56, %rbx
	leaq	-43512(%rbp), %rsi
	movq	%rbx, %rdi
	callq	__ZN14altered_carbon2js9JsVariantaSERKS1_
	movq	%rbx, -7704(%rbp)
	movq	%rsp, %rax
	leaq	-16(%rax), %rsi
	movq	%rsi, %rsp
	leaq	-7712(%rbp), %rcx
	movq	%rcx, -16(%rax)
	movq	$2, -8(%rax)
	leaq	-43456(%rbp), %rdi
	callq	__ZN14altered_carbon2js9JsVariantaSERN4llvm8ArrayRefIPS1_EE
	movl	$120, %edi
	callq	__Znam
	movq	$2, (%rax)
	leaq	8(%rax), %rbx
	addq	$120, %rax
	movq	%rbx, %rcx
	.p2align	4, 0x90
LBB0_313:                               ## %initarr.bb1337
                                        ## =>This Inner Loop Header: Depth=1
	movq	%r14, (%rcx)
	movl	$1, 8(%rcx)
	addq	$56, %rcx
	cmpq	%rax, %rcx
	jne	LBB0_313
## %bb.314:                             ## %initarr.bb1337e
	leaq	-43624(%rbp), %rsi
	movq	%rbx, %rdi
	callq	__ZN14altered_carbon2js9JsVariantaSERKS1_
	movq	%rbx, -7696(%rbp)
	addq	$56, %rbx
	leaq	-43456(%rbp), %rsi
	movq	%rbx, %rdi
	callq	__ZN14altered_carbon2js9JsVariantaSERKS1_
	movq	%rbx, -7688(%rbp)
	movq	%rsp, %rax
	leaq	-16(%rax), %rsi
	movq	%rsi, %rsp
	leaq	-7696(%rbp), %rcx
	movq	%rcx, -16(%rax)
	movq	$2, -8(%rax)
	leaq	-43400(%rbp), %rdi
	callq	__ZN14altered_carbon2js9JsVariantaSERN4llvm8ArrayRefIPS1_EE
	movl	$64, %edi
	callq	__Znam
	movq	$1, (%rax)
	leaq	8(%rax), %rbx
	addq	$64, %rax
	movq	%rbx, %rcx
	.p2align	4, 0x90
LBB0_315:                               ## %initarr.bb1345
                                        ## =>This Inner Loop Header: Depth=1
	movq	%r14, (%rcx)
	movl	$1, 8(%rcx)
	addq	$56, %rcx
	cmpq	%rax, %rcx
	jne	LBB0_315
## %bb.316:                             ## %initarr.bb1345e
	leaq	-43400(%rbp), %rsi
	movq	%rbx, %rdi
	callq	__ZN14altered_carbon2js9JsVariantaSERKS1_
	movq	%rbx, -3616(%rbp)
	movq	%rsp, %rax
	leaq	-16(%rax), %rsi
	movq	%rsi, %rsp
	leaq	-3616(%rbp), %rcx
	movq	%rcx, -16(%rax)
	movq	$1, -8(%rax)
	leaq	-43344(%rbp), %rdi
	callq	__ZN14altered_carbon2js9JsVariantaSERN4llvm8ArrayRefIPS1_EE
	movl	$64, %edi
	callq	__Znam
	movq	$1, (%rax)
	leaq	8(%rax), %rbx
	addq	$64, %rax
	movq	%rbx, %rcx
	.p2align	4, 0x90
LBB0_317:                               ## %initarr.bb1353
                                        ## =>This Inner Loop Header: Depth=1
	movq	%r14, (%rcx)
	movl	$1, 8(%rcx)
	addq	$56, %rcx
	cmpq	%rax, %rcx
	jne	LBB0_317
## %bb.318:                             ## %initarr.bb1353e
	leaq	-43344(%rbp), %rsi
	movq	%rbx, %rdi
	callq	__ZN14altered_carbon2js9JsVariantaSERKS1_
	movq	%rbx, -3600(%rbp)
	movq	%rsp, %rax
	leaq	-16(%rax), %rsi
	movq	%rsi, %rsp
	leaq	-3600(%rbp), %rcx
	movq	%rcx, -16(%rax)
	movq	$1, -8(%rax)
	leaq	-43288(%rbp), %rdi
	callq	__ZN14altered_carbon2js9JsVariantaSERN4llvm8ArrayRefIPS1_EE
	movl	$64, %edi
	callq	__Znam
	movq	$1, (%rax)
	leaq	8(%rax), %rbx
	addq	$64, %rax
	movq	%rbx, %rcx
	.p2align	4, 0x90
LBB0_319:                               ## %initarr.bb1361
                                        ## =>This Inner Loop Header: Depth=1
	movq	%r14, (%rcx)
	movl	$1, 8(%rcx)
	addq	$56, %rcx
	cmpq	%rax, %rcx
	jne	LBB0_319
## %bb.320:                             ## %initarr.bb1361e
	leaq	-43288(%rbp), %rsi
	movq	%rbx, %rdi
	callq	__ZN14altered_carbon2js9JsVariantaSERKS1_
	movq	%rbx, -3584(%rbp)
	movq	%rsp, %rax
	leaq	-16(%rax), %rsi
	movq	%rsi, %rsp
	leaq	-3584(%rbp), %rcx
	movq	%rcx, -16(%rax)
	movq	$1, -8(%rax)
	leaq	-43232(%rbp), %rdi
	callq	__ZN14altered_carbon2js9JsVariantaSERN4llvm8ArrayRefIPS1_EE
	movl	$64, %edi
	callq	__Znam
	movq	$1, (%rax)
	leaq	8(%rax), %rbx
	addq	$64, %rax
	movq	%rbx, %rcx
	.p2align	4, 0x90
LBB0_321:                               ## %initarr.bb1369
                                        ## =>This Inner Loop Header: Depth=1
	movq	%r14, (%rcx)
	movl	$1, 8(%rcx)
	addq	$56, %rcx
	cmpq	%rax, %rcx
	jne	LBB0_321
## %bb.322:                             ## %initarr.bb1369e
	leaq	-43232(%rbp), %rsi
	movq	%rbx, %rdi
	callq	__ZN14altered_carbon2js9JsVariantaSERKS1_
	movq	%rbx, -3568(%rbp)
	movq	%rsp, %rax
	leaq	-16(%rax), %rsi
	movq	%rsi, %rsp
	leaq	-3568(%rbp), %rcx
	movq	%rcx, -16(%rax)
	movq	$1, -8(%rax)
	leaq	-43176(%rbp), %rdi
	callq	__ZN14altered_carbon2js9JsVariantaSERN4llvm8ArrayRefIPS1_EE
	leaq	-43120(%rbp), %rdi
	movl	$1, %esi
	callq	__ZN14altered_carbon2js9JsVariantaSEx
	leaq	-43064(%rbp), %rdi
	movl	$2, %esi
	callq	__ZN14altered_carbon2js9JsVariantaSEx
	movl	$120, %edi
	callq	__Znam
	movq	$2, (%rax)
	leaq	8(%rax), %rbx
	addq	$120, %rax
	movq	%rbx, %rcx
	.p2align	4, 0x90
LBB0_323:                               ## %initarr.bb1379
                                        ## =>This Inner Loop Header: Depth=1
	movq	%r14, (%rcx)
	movl	$1, 8(%rcx)
	addq	$56, %rcx
	cmpq	%rax, %rcx
	jne	LBB0_323
## %bb.324:                             ## %initarr.bb1379e
	leaq	-43120(%rbp), %rsi
	movq	%rbx, %rdi
	callq	__ZN14altered_carbon2js9JsVariantaSERKS1_
	movq	%rbx, -7680(%rbp)
	addq	$56, %rbx
	leaq	-43064(%rbp), %rsi
	movq	%rbx, %rdi
	callq	__ZN14altered_carbon2js9JsVariantaSERKS1_
	movq	%rbx, -7672(%rbp)
	movq	%rsp, %rax
	leaq	-16(%rax), %rsi
	movq	%rsi, %rsp
	leaq	-7680(%rbp), %rcx
	movq	%rcx, -16(%rax)
	movq	$2, -8(%rax)
	leaq	-43008(%rbp), %rdi
	callq	__ZN14altered_carbon2js9JsVariantaSERN4llvm8ArrayRefIPS1_EE
	leaq	-42952(%rbp), %rdi
	movl	$3, %esi
	callq	__ZN14altered_carbon2js9JsVariantaSEx
	leaq	-42896(%rbp), %rdi
	movl	$4, %esi
	callq	__ZN14altered_carbon2js9JsVariantaSEx
	movl	$120, %edi
	callq	__Znam
	movq	$2, (%rax)
	leaq	8(%rax), %rbx
	addq	$120, %rax
	movq	%rbx, %rcx
	.p2align	4, 0x90
LBB0_325:                               ## %initarr.bb1389
                                        ## =>This Inner Loop Header: Depth=1
	movq	%r14, (%rcx)
	movl	$1, 8(%rcx)
	addq	$56, %rcx
	cmpq	%rax, %rcx
	jne	LBB0_325
## %bb.326:                             ## %initarr.bb1389e
	leaq	-42952(%rbp), %rsi
	movq	%rbx, %rdi
	callq	__ZN14altered_carbon2js9JsVariantaSERKS1_
	movq	%rbx, -7664(%rbp)
	addq	$56, %rbx
	leaq	-42896(%rbp), %rsi
	movq	%rbx, %rdi
	callq	__ZN14altered_carbon2js9JsVariantaSERKS1_
	movq	%rbx, -7656(%rbp)
	movq	%rsp, %rax
	leaq	-16(%rax), %rsi
	movq	%rsi, %rsp
	leaq	-7664(%rbp), %rcx
	movq	%rcx, -16(%rax)
	movq	$2, -8(%rax)
	leaq	-42840(%rbp), %rdi
	callq	__ZN14altered_carbon2js9JsVariantaSERN4llvm8ArrayRefIPS1_EE
	movl	$120, %edi
	callq	__Znam
	movq	$2, (%rax)
	leaq	8(%rax), %rbx
	addq	$120, %rax
	movq	%rbx, %rcx
	.p2align	4, 0x90
LBB0_327:                               ## %initarr.bb1397
                                        ## =>This Inner Loop Header: Depth=1
	movq	%r14, (%rcx)
	movl	$1, 8(%rcx)
	addq	$56, %rcx
	cmpq	%rax, %rcx
	jne	LBB0_327
## %bb.328:                             ## %initarr.bb1397e
	leaq	-43008(%rbp), %rsi
	movq	%rbx, %rdi
	callq	__ZN14altered_carbon2js9JsVariantaSERKS1_
	movq	%rbx, -7648(%rbp)
	addq	$56, %rbx
	leaq	-42840(%rbp), %rsi
	movq	%rbx, %rdi
	callq	__ZN14altered_carbon2js9JsVariantaSERKS1_
	movq	%rbx, -7640(%rbp)
	movq	%rsp, %rax
	leaq	-16(%rax), %rsi
	movq	%rsi, %rsp
	leaq	-7648(%rbp), %rcx
	movq	%rcx, -16(%rax)
	movq	$2, -8(%rax)
	leaq	-42784(%rbp), %rdi
	callq	__ZN14altered_carbon2js9JsVariantaSERN4llvm8ArrayRefIPS1_EE
	movl	$64, %edi
	callq	__Znam
	movq	$1, (%rax)
	leaq	8(%rax), %rbx
	addq	$64, %rax
	movq	%rbx, %rcx
	.p2align	4, 0x90
LBB0_329:                               ## %initarr.bb1405
                                        ## =>This Inner Loop Header: Depth=1
	movq	%r14, (%rcx)
	movl	$1, 8(%rcx)
	addq	$56, %rcx
	cmpq	%rax, %rcx
	jne	LBB0_329
## %bb.330:                             ## %initarr.bb1405e
	leaq	-42784(%rbp), %rsi
	movq	%rbx, %rdi
	callq	__ZN14altered_carbon2js9JsVariantaSERKS1_
	movq	%rbx, -3552(%rbp)
	movq	%rsp, %rax
	leaq	-16(%rax), %rsi
	movq	%rsi, %rsp
	leaq	-3552(%rbp), %rcx
	movq	%rcx, -16(%rax)
	movq	$1, -8(%rax)
	leaq	-42728(%rbp), %rdi
	callq	__ZN14altered_carbon2js9JsVariantaSERN4llvm8ArrayRefIPS1_EE
	movl	$64, %edi
	callq	__Znam
	movq	$1, (%rax)
	leaq	8(%rax), %rbx
	addq	$64, %rax
	movq	%rbx, %rcx
	.p2align	4, 0x90
LBB0_331:                               ## %initarr.bb1413
                                        ## =>This Inner Loop Header: Depth=1
	movq	%r14, (%rcx)
	movl	$1, 8(%rcx)
	addq	$56, %rcx
	cmpq	%rax, %rcx
	jne	LBB0_331
## %bb.332:                             ## %initarr.bb1413e
	leaq	-42728(%rbp), %rsi
	movq	%rbx, %rdi
	callq	__ZN14altered_carbon2js9JsVariantaSERKS1_
	movq	%rbx, -3536(%rbp)
	movq	%rsp, %rax
	leaq	-16(%rax), %rsi
	movq	%rsi, %rsp
	leaq	-3536(%rbp), %rcx
	movq	%rcx, -16(%rax)
	movq	$1, -8(%rax)
	leaq	-42672(%rbp), %rdi
	callq	__ZN14altered_carbon2js9JsVariantaSERN4llvm8ArrayRefIPS1_EE
	movl	$64, %edi
	callq	__Znam
	movq	$1, (%rax)
	leaq	8(%rax), %rbx
	addq	$64, %rax
	movq	%rbx, %rcx
	.p2align	4, 0x90
LBB0_333:                               ## %initarr.bb1421
                                        ## =>This Inner Loop Header: Depth=1
	movq	%r14, (%rcx)
	movl	$1, 8(%rcx)
	addq	$56, %rcx
	cmpq	%rax, %rcx
	jne	LBB0_333
## %bb.334:                             ## %initarr.bb1421e
	leaq	-42672(%rbp), %rsi
	movq	%rbx, %rdi
	callq	__ZN14altered_carbon2js9JsVariantaSERKS1_
	movq	%rbx, -3520(%rbp)
	movq	%rsp, %rax
	leaq	-16(%rax), %rsi
	movq	%rsi, %rsp
	leaq	-3520(%rbp), %rcx
	movq	%rcx, -16(%rax)
	movq	$1, -8(%rax)
	leaq	-42616(%rbp), %rdi
	callq	__ZN14altered_carbon2js9JsVariantaSERN4llvm8ArrayRefIPS1_EE
	movl	$64, %edi
	callq	__Znam
	movq	$1, (%rax)
	leaq	8(%rax), %rbx
	addq	$64, %rax
	movq	%rbx, %rcx
	.p2align	4, 0x90
LBB0_335:                               ## %initarr.bb1429
                                        ## =>This Inner Loop Header: Depth=1
	movq	%r14, (%rcx)
	movl	$1, 8(%rcx)
	addq	$56, %rcx
	cmpq	%rax, %rcx
	jne	LBB0_335
## %bb.336:                             ## %initarr.bb1429e
	leaq	-42616(%rbp), %rsi
	movq	%rbx, %rdi
	callq	__ZN14altered_carbon2js9JsVariantaSERKS1_
	movq	%rbx, -3504(%rbp)
	movq	%rsp, %rax
	leaq	-16(%rax), %rsi
	movq	%rsi, %rsp
	leaq	-3504(%rbp), %rcx
	movq	%rcx, -16(%rax)
	movq	$1, -8(%rax)
	leaq	-42560(%rbp), %rdi
	callq	__ZN14altered_carbon2js9JsVariantaSERN4llvm8ArrayRefIPS1_EE
	leaq	-42504(%rbp), %rdi
	movl	$1, %esi
	callq	__ZN14altered_carbon2js9JsVariantaSEx
	leaq	-42448(%rbp), %rdi
	movl	$2, %esi
	callq	__ZN14altered_carbon2js9JsVariantaSEx
	movl	$120, %edi
	callq	__Znam
	movq	$2, (%rax)
	leaq	8(%rax), %rbx
	addq	$120, %rax
	movq	%rbx, %rcx
	.p2align	4, 0x90
LBB0_337:                               ## %initarr.bb1439
                                        ## =>This Inner Loop Header: Depth=1
	movq	%r14, (%rcx)
	movl	$1, 8(%rcx)
	addq	$56, %rcx
	cmpq	%rax, %rcx
	jne	LBB0_337
## %bb.338:                             ## %initarr.bb1439e
	leaq	-42504(%rbp), %rsi
	movq	%rbx, %rdi
	callq	__ZN14altered_carbon2js9JsVariantaSERKS1_
	movq	%rbx, -7632(%rbp)
	addq	$56, %rbx
	leaq	-42448(%rbp), %rsi
	movq	%rbx, %rdi
	callq	__ZN14altered_carbon2js9JsVariantaSERKS1_
	movq	%rbx, -7624(%rbp)
	movq	%rsp, %rax
	leaq	-16(%rax), %rsi
	movq	%rsi, %rsp
	leaq	-7632(%rbp), %rcx
	movq	%rcx, -16(%rax)
	movq	$2, -8(%rax)
	leaq	-42392(%rbp), %rdi
	callq	__ZN14altered_carbon2js9JsVariantaSERN4llvm8ArrayRefIPS1_EE
	leaq	-42336(%rbp), %rdi
	movl	$3, %esi
	callq	__ZN14altered_carbon2js9JsVariantaSEx
	leaq	-42280(%rbp), %rdi
	movl	$4, %esi
	callq	__ZN14altered_carbon2js9JsVariantaSEx
	movl	$120, %edi
	callq	__Znam
	movq	$2, (%rax)
	leaq	8(%rax), %rbx
	addq	$120, %rax
	movq	%rbx, %rcx
	.p2align	4, 0x90
LBB0_339:                               ## %initarr.bb1449
                                        ## =>This Inner Loop Header: Depth=1
	movq	%r14, (%rcx)
	movl	$1, 8(%rcx)
	addq	$56, %rcx
	cmpq	%rax, %rcx
	jne	LBB0_339
## %bb.340:                             ## %initarr.bb1449e
	leaq	-42336(%rbp), %rsi
	movq	%rbx, %rdi
	callq	__ZN14altered_carbon2js9JsVariantaSERKS1_
	movq	%rbx, -7616(%rbp)
	addq	$56, %rbx
	leaq	-42280(%rbp), %rsi
	movq	%rbx, %rdi
	callq	__ZN14altered_carbon2js9JsVariantaSERKS1_
	movq	%rbx, -7608(%rbp)
	movq	%rsp, %rax
	leaq	-16(%rax), %rsi
	movq	%rsi, %rsp
	leaq	-7616(%rbp), %rcx
	movq	%rcx, -16(%rax)
	movq	$2, -8(%rax)
	leaq	-42224(%rbp), %rdi
	callq	__ZN14altered_carbon2js9JsVariantaSERN4llvm8ArrayRefIPS1_EE
	movl	$120, %edi
	callq	__Znam
	movq	$2, (%rax)
	leaq	8(%rax), %rbx
	addq	$120, %rax
	movq	%rbx, %rcx
	.p2align	4, 0x90
LBB0_341:                               ## %initarr.bb1457
                                        ## =>This Inner Loop Header: Depth=1
	movq	%r14, (%rcx)
	movl	$1, 8(%rcx)
	addq	$56, %rcx
	cmpq	%rax, %rcx
	jne	LBB0_341
## %bb.342:                             ## %initarr.bb1457e
	leaq	-42392(%rbp), %rsi
	movq	%rbx, %rdi
	callq	__ZN14altered_carbon2js9JsVariantaSERKS1_
	movq	%rbx, -7600(%rbp)
	addq	$56, %rbx
	leaq	-42224(%rbp), %rsi
	movq	%rbx, %rdi
	callq	__ZN14altered_carbon2js9JsVariantaSERKS1_
	movq	%rbx, -7592(%rbp)
	movq	%rsp, %rax
	leaq	-16(%rax), %rsi
	movq	%rsi, %rsp
	leaq	-7600(%rbp), %rcx
	movq	%rcx, -16(%rax)
	movq	$2, -8(%rax)
	leaq	-42168(%rbp), %rdi
	callq	__ZN14altered_carbon2js9JsVariantaSERN4llvm8ArrayRefIPS1_EE
	movl	$64, %edi
	callq	__Znam
	movq	$1, (%rax)
	leaq	8(%rax), %rbx
	addq	$64, %rax
	movq	%rbx, %rcx
	.p2align	4, 0x90
LBB0_343:                               ## %initarr.bb1465
                                        ## =>This Inner Loop Header: Depth=1
	movq	%r14, (%rcx)
	movl	$1, 8(%rcx)
	addq	$56, %rcx
	cmpq	%rax, %rcx
	jne	LBB0_343
## %bb.344:                             ## %initarr.bb1465e
	leaq	-42168(%rbp), %rsi
	movq	%rbx, %rdi
	callq	__ZN14altered_carbon2js9JsVariantaSERKS1_
	movq	%rbx, -3488(%rbp)
	movq	%rsp, %rax
	leaq	-16(%rax), %rsi
	movq	%rsi, %rsp
	leaq	-3488(%rbp), %rcx
	movq	%rcx, -16(%rax)
	movq	$1, -8(%rax)
	leaq	-42112(%rbp), %rdi
	callq	__ZN14altered_carbon2js9JsVariantaSERN4llvm8ArrayRefIPS1_EE
	movl	$64, %edi
	callq	__Znam
	movq	$1, (%rax)
	leaq	8(%rax), %rbx
	addq	$64, %rax
	movq	%rbx, %rcx
	.p2align	4, 0x90
LBB0_345:                               ## %initarr.bb1473
                                        ## =>This Inner Loop Header: Depth=1
	movq	%r14, (%rcx)
	movl	$1, 8(%rcx)
	addq	$56, %rcx
	cmpq	%rax, %rcx
	jne	LBB0_345
## %bb.346:                             ## %initarr.bb1473e
	leaq	-42112(%rbp), %rsi
	movq	%rbx, %rdi
	callq	__ZN14altered_carbon2js9JsVariantaSERKS1_
	movq	%rbx, -3472(%rbp)
	movq	%rsp, %rax
	leaq	-16(%rax), %rsi
	movq	%rsi, %rsp
	leaq	-3472(%rbp), %rcx
	movq	%rcx, -16(%rax)
	movq	$1, -8(%rax)
	leaq	-42056(%rbp), %rdi
	callq	__ZN14altered_carbon2js9JsVariantaSERN4llvm8ArrayRefIPS1_EE
	movl	$64, %edi
	callq	__Znam
	movq	$1, (%rax)
	leaq	8(%rax), %rbx
	addq	$64, %rax
	movq	%rbx, %rcx
	.p2align	4, 0x90
LBB0_347:                               ## %initarr.bb1481
                                        ## =>This Inner Loop Header: Depth=1
	movq	%r14, (%rcx)
	movl	$1, 8(%rcx)
	addq	$56, %rcx
	cmpq	%rax, %rcx
	jne	LBB0_347
## %bb.348:                             ## %initarr.bb1481e
	leaq	-42056(%rbp), %rsi
	movq	%rbx, %rdi
	callq	__ZN14altered_carbon2js9JsVariantaSERKS1_
	movq	%rbx, -3456(%rbp)
	movq	%rsp, %rax
	leaq	-16(%rax), %rsi
	movq	%rsi, %rsp
	leaq	-3456(%rbp), %rcx
	movq	%rcx, -16(%rax)
	movq	$1, -8(%rax)
	leaq	-42000(%rbp), %rdi
	callq	__ZN14altered_carbon2js9JsVariantaSERN4llvm8ArrayRefIPS1_EE
	movl	$64, %edi
	callq	__Znam
	movq	$1, (%rax)
	leaq	8(%rax), %rbx
	addq	$64, %rax
	movq	%rbx, %rcx
	.p2align	4, 0x90
LBB0_349:                               ## %initarr.bb1489
                                        ## =>This Inner Loop Header: Depth=1
	movq	%r14, (%rcx)
	movl	$1, 8(%rcx)
	addq	$56, %rcx
	cmpq	%rax, %rcx
	jne	LBB0_349
## %bb.350:                             ## %initarr.bb1489e
	leaq	-42000(%rbp), %rsi
	movq	%rbx, %rdi
	callq	__ZN14altered_carbon2js9JsVariantaSERKS1_
	movq	%rbx, -3440(%rbp)
	movq	%rsp, %rax
	leaq	-16(%rax), %rsi
	movq	%rsi, %rsp
	leaq	-3440(%rbp), %rcx
	movq	%rcx, -16(%rax)
	movq	$1, -8(%rax)
	leaq	-41944(%rbp), %rdi
	callq	__ZN14altered_carbon2js9JsVariantaSERN4llvm8ArrayRefIPS1_EE
	leaq	-41888(%rbp), %rdi
	movl	$1, %esi
	callq	__ZN14altered_carbon2js9JsVariantaSEx
	leaq	-41832(%rbp), %rdi
	movl	$2, %esi
	callq	__ZN14altered_carbon2js9JsVariantaSEx
	movl	$120, %edi
	callq	__Znam
	movq	$2, (%rax)
	leaq	8(%rax), %rbx
	addq	$120, %rax
	movq	%rbx, %rcx
	.p2align	4, 0x90
LBB0_351:                               ## %initarr.bb1499
                                        ## =>This Inner Loop Header: Depth=1
	movq	%r14, (%rcx)
	movl	$1, 8(%rcx)
	addq	$56, %rcx
	cmpq	%rax, %rcx
	jne	LBB0_351
## %bb.352:                             ## %initarr.bb1499e
	leaq	-41888(%rbp), %rsi
	movq	%rbx, %rdi
	callq	__ZN14altered_carbon2js9JsVariantaSERKS1_
	movq	%rbx, -7584(%rbp)
	addq	$56, %rbx
	leaq	-41832(%rbp), %rsi
	movq	%rbx, %rdi
	callq	__ZN14altered_carbon2js9JsVariantaSERKS1_
	movq	%rbx, -7576(%rbp)
	movq	%rsp, %rax
	leaq	-16(%rax), %rsi
	movq	%rsi, %rsp
	leaq	-7584(%rbp), %rcx
	movq	%rcx, -16(%rax)
	movq	$2, -8(%rax)
	leaq	-41776(%rbp), %rdi
	callq	__ZN14altered_carbon2js9JsVariantaSERN4llvm8ArrayRefIPS1_EE
	leaq	-41720(%rbp), %rdi
	movl	$3, %esi
	callq	__ZN14altered_carbon2js9JsVariantaSEx
	leaq	-41664(%rbp), %rdi
	movl	$4, %esi
	callq	__ZN14altered_carbon2js9JsVariantaSEx
	movl	$120, %edi
	callq	__Znam
	movq	$2, (%rax)
	leaq	8(%rax), %rbx
	addq	$120, %rax
	movq	%rbx, %rcx
	.p2align	4, 0x90
LBB0_353:                               ## %initarr.bb1509
                                        ## =>This Inner Loop Header: Depth=1
	movq	%r14, (%rcx)
	movl	$1, 8(%rcx)
	addq	$56, %rcx
	cmpq	%rax, %rcx
	jne	LBB0_353
## %bb.354:                             ## %initarr.bb1509e
	leaq	-41720(%rbp), %rsi
	movq	%rbx, %rdi
	callq	__ZN14altered_carbon2js9JsVariantaSERKS1_
	movq	%rbx, -7568(%rbp)
	addq	$56, %rbx
	leaq	-41664(%rbp), %rsi
	movq	%rbx, %rdi
	callq	__ZN14altered_carbon2js9JsVariantaSERKS1_
	movq	%rbx, -7560(%rbp)
	movq	%rsp, %rax
	leaq	-16(%rax), %rsi
	movq	%rsi, %rsp
	leaq	-7568(%rbp), %rcx
	movq	%rcx, -16(%rax)
	movq	$2, -8(%rax)
	leaq	-41608(%rbp), %rdi
	callq	__ZN14altered_carbon2js9JsVariantaSERN4llvm8ArrayRefIPS1_EE
	movl	$120, %edi
	callq	__Znam
	movq	$2, (%rax)
	leaq	8(%rax), %rbx
	addq	$120, %rax
	movq	%rbx, %rcx
	.p2align	4, 0x90
LBB0_355:                               ## %initarr.bb1517
                                        ## =>This Inner Loop Header: Depth=1
	movq	%r14, (%rcx)
	movl	$1, 8(%rcx)
	addq	$56, %rcx
	cmpq	%rax, %rcx
	jne	LBB0_355
## %bb.356:                             ## %initarr.bb1517e
	leaq	-41776(%rbp), %rsi
	movq	%rbx, %rdi
	callq	__ZN14altered_carbon2js9JsVariantaSERKS1_
	movq	%rbx, -7552(%rbp)
	addq	$56, %rbx
	leaq	-41608(%rbp), %rsi
	movq	%rbx, %rdi
	callq	__ZN14altered_carbon2js9JsVariantaSERKS1_
	movq	%rbx, -7544(%rbp)
	movq	%rsp, %rax
	leaq	-16(%rax), %rsi
	movq	%rsi, %rsp
	leaq	-7552(%rbp), %rcx
	movq	%rcx, -16(%rax)
	movq	$2, -8(%rax)
	leaq	-41552(%rbp), %rdi
	callq	__ZN14altered_carbon2js9JsVariantaSERN4llvm8ArrayRefIPS1_EE
	movl	$64, %edi
	callq	__Znam
	movq	$1, (%rax)
	leaq	8(%rax), %rbx
	addq	$64, %rax
	movq	%rbx, %rcx
	.p2align	4, 0x90
LBB0_357:                               ## %initarr.bb1525
                                        ## =>This Inner Loop Header: Depth=1
	movq	%r14, (%rcx)
	movl	$1, 8(%rcx)
	addq	$56, %rcx
	cmpq	%rax, %rcx
	jne	LBB0_357
## %bb.358:                             ## %initarr.bb1525e
	leaq	-41552(%rbp), %rsi
	movq	%rbx, %rdi
	callq	__ZN14altered_carbon2js9JsVariantaSERKS1_
	movq	%rbx, -3424(%rbp)
	movq	%rsp, %rax
	leaq	-16(%rax), %rsi
	movq	%rsi, %rsp
	leaq	-3424(%rbp), %rcx
	movq	%rcx, -16(%rax)
	movq	$1, -8(%rax)
	leaq	-41496(%rbp), %rdi
	callq	__ZN14altered_carbon2js9JsVariantaSERN4llvm8ArrayRefIPS1_EE
	movl	$64, %edi
	callq	__Znam
	movq	$1, (%rax)
	leaq	8(%rax), %rbx
	addq	$64, %rax
	movq	%rbx, %rcx
	.p2align	4, 0x90
LBB0_359:                               ## %initarr.bb1533
                                        ## =>This Inner Loop Header: Depth=1
	movq	%r14, (%rcx)
	movl	$1, 8(%rcx)
	addq	$56, %rcx
	cmpq	%rax, %rcx
	jne	LBB0_359
## %bb.360:                             ## %initarr.bb1533e
	leaq	-41496(%rbp), %rsi
	movq	%rbx, %rdi
	callq	__ZN14altered_carbon2js9JsVariantaSERKS1_
	movq	%rbx, -3408(%rbp)
	movq	%rsp, %rax
	leaq	-16(%rax), %rsi
	movq	%rsi, %rsp
	leaq	-3408(%rbp), %rcx
	movq	%rcx, -16(%rax)
	movq	$1, -8(%rax)
	leaq	-41440(%rbp), %rdi
	callq	__ZN14altered_carbon2js9JsVariantaSERN4llvm8ArrayRefIPS1_EE
	movl	$64, %edi
	callq	__Znam
	movq	$1, (%rax)
	leaq	8(%rax), %rbx
	addq	$64, %rax
	movq	%rbx, %rcx
	.p2align	4, 0x90
LBB0_361:                               ## %initarr.bb1541
                                        ## =>This Inner Loop Header: Depth=1
	movq	%r14, (%rcx)
	movl	$1, 8(%rcx)
	addq	$56, %rcx
	cmpq	%rax, %rcx
	jne	LBB0_361
## %bb.362:                             ## %initarr.bb1541e
	leaq	-41440(%rbp), %rsi
	movq	%rbx, %rdi
	callq	__ZN14altered_carbon2js9JsVariantaSERKS1_
	movq	%rbx, -3392(%rbp)
	movq	%rsp, %rax
	leaq	-16(%rax), %rsi
	movq	%rsi, %rsp
	leaq	-3392(%rbp), %rcx
	movq	%rcx, -16(%rax)
	movq	$1, -8(%rax)
	leaq	-41384(%rbp), %rdi
	callq	__ZN14altered_carbon2js9JsVariantaSERN4llvm8ArrayRefIPS1_EE
	movl	$64, %edi
	callq	__Znam
	movq	$1, (%rax)
	leaq	8(%rax), %rbx
	addq	$64, %rax
	movq	%rbx, %rcx
	.p2align	4, 0x90
LBB0_363:                               ## %initarr.bb1549
                                        ## =>This Inner Loop Header: Depth=1
	movq	%r14, (%rcx)
	movl	$1, 8(%rcx)
	addq	$56, %rcx
	cmpq	%rax, %rcx
	jne	LBB0_363
## %bb.364:                             ## %initarr.bb1549e
	leaq	-41384(%rbp), %rsi
	movq	%rbx, %rdi
	callq	__ZN14altered_carbon2js9JsVariantaSERKS1_
	movq	%rbx, -3376(%rbp)
	movq	%rsp, %rax
	leaq	-16(%rax), %rsi
	movq	%rsi, %rsp
	leaq	-3376(%rbp), %rcx
	movq	%rcx, -16(%rax)
	movq	$1, -8(%rax)
	leaq	-41328(%rbp), %rdi
	callq	__ZN14altered_carbon2js9JsVariantaSERN4llvm8ArrayRefIPS1_EE
	leaq	-41272(%rbp), %rdi
	movl	$1, %esi
	callq	__ZN14altered_carbon2js9JsVariantaSEx
	leaq	-41216(%rbp), %rdi
	movl	$2, %esi
	callq	__ZN14altered_carbon2js9JsVariantaSEx
	movl	$120, %edi
	callq	__Znam
	movq	$2, (%rax)
	leaq	8(%rax), %rbx
	addq	$120, %rax
	movq	%rbx, %rcx
	.p2align	4, 0x90
LBB0_365:                               ## %initarr.bb1559
                                        ## =>This Inner Loop Header: Depth=1
	movq	%r14, (%rcx)
	movl	$1, 8(%rcx)
	addq	$56, %rcx
	cmpq	%rax, %rcx
	jne	LBB0_365
## %bb.366:                             ## %initarr.bb1559e
	leaq	-41272(%rbp), %rsi
	movq	%rbx, %rdi
	callq	__ZN14altered_carbon2js9JsVariantaSERKS1_
	movq	%rbx, -7536(%rbp)
	addq	$56, %rbx
	leaq	-41216(%rbp), %rsi
	movq	%rbx, %rdi
	callq	__ZN14altered_carbon2js9JsVariantaSERKS1_
	movq	%rbx, -7528(%rbp)
	movq	%rsp, %rax
	leaq	-16(%rax), %rsi
	movq	%rsi, %rsp
	leaq	-7536(%rbp), %rcx
	movq	%rcx, -16(%rax)
	movq	$2, -8(%rax)
	leaq	-41160(%rbp), %rdi
	callq	__ZN14altered_carbon2js9JsVariantaSERN4llvm8ArrayRefIPS1_EE
	leaq	-41104(%rbp), %rdi
	movl	$3, %esi
	callq	__ZN14altered_carbon2js9JsVariantaSEx
	leaq	-41048(%rbp), %rdi
	movl	$4, %esi
	callq	__ZN14altered_carbon2js9JsVariantaSEx
	movl	$120, %edi
	callq	__Znam
	movq	$2, (%rax)
	leaq	8(%rax), %rbx
	addq	$120, %rax
	movq	%rbx, %rcx
	.p2align	4, 0x90
LBB0_367:                               ## %initarr.bb1569
                                        ## =>This Inner Loop Header: Depth=1
	movq	%r14, (%rcx)
	movl	$1, 8(%rcx)
	addq	$56, %rcx
	cmpq	%rax, %rcx
	jne	LBB0_367
## %bb.368:                             ## %initarr.bb1569e
	leaq	-41104(%rbp), %rsi
	movq	%rbx, %rdi
	callq	__ZN14altered_carbon2js9JsVariantaSERKS1_
	movq	%rbx, -7520(%rbp)
	addq	$56, %rbx
	leaq	-41048(%rbp), %rsi
	movq	%rbx, %rdi
	callq	__ZN14altered_carbon2js9JsVariantaSERKS1_
	movq	%rbx, -7512(%rbp)
	movq	%rsp, %rax
	leaq	-16(%rax), %rsi
	movq	%rsi, %rsp
	leaq	-7520(%rbp), %rcx
	movq	%rcx, -16(%rax)
	movq	$2, -8(%rax)
	leaq	-40992(%rbp), %rdi
	callq	__ZN14altered_carbon2js9JsVariantaSERN4llvm8ArrayRefIPS1_EE
	movl	$120, %edi
	callq	__Znam
	movq	$2, (%rax)
	leaq	8(%rax), %rbx
	addq	$120, %rax
	movq	%rbx, %rcx
	.p2align	4, 0x90
LBB0_369:                               ## %initarr.bb1577
                                        ## =>This Inner Loop Header: Depth=1
	movq	%r14, (%rcx)
	movl	$1, 8(%rcx)
	addq	$56, %rcx
	cmpq	%rax, %rcx
	jne	LBB0_369
## %bb.370:                             ## %initarr.bb1577e
	leaq	-41160(%rbp), %rsi
	movq	%rbx, %rdi
	callq	__ZN14altered_carbon2js9JsVariantaSERKS1_
	movq	%rbx, -7504(%rbp)
	addq	$56, %rbx
	leaq	-40992(%rbp), %rsi
	movq	%rbx, %rdi
	callq	__ZN14altered_carbon2js9JsVariantaSERKS1_
	movq	%rbx, -7496(%rbp)
	movq	%rsp, %rax
	leaq	-16(%rax), %rsi
	movq	%rsi, %rsp
	leaq	-7504(%rbp), %rcx
	movq	%rcx, -16(%rax)
	movq	$2, -8(%rax)
	leaq	-40936(%rbp), %rdi
	callq	__ZN14altered_carbon2js9JsVariantaSERN4llvm8ArrayRefIPS1_EE
	movl	$64, %edi
	callq	__Znam
	movq	$1, (%rax)
	leaq	8(%rax), %rbx
	addq	$64, %rax
	movq	%rbx, %rcx
	.p2align	4, 0x90
LBB0_371:                               ## %initarr.bb1585
                                        ## =>This Inner Loop Header: Depth=1
	movq	%r14, (%rcx)
	movl	$1, 8(%rcx)
	addq	$56, %rcx
	cmpq	%rax, %rcx
	jne	LBB0_371
## %bb.372:                             ## %initarr.bb1585e
	leaq	-40936(%rbp), %rsi
	movq	%rbx, %rdi
	callq	__ZN14altered_carbon2js9JsVariantaSERKS1_
	movq	%rbx, -3360(%rbp)
	movq	%rsp, %rax
	leaq	-16(%rax), %rsi
	movq	%rsi, %rsp
	leaq	-3360(%rbp), %rcx
	movq	%rcx, -16(%rax)
	movq	$1, -8(%rax)
	leaq	-40880(%rbp), %rdi
	callq	__ZN14altered_carbon2js9JsVariantaSERN4llvm8ArrayRefIPS1_EE
	movl	$64, %edi
	callq	__Znam
	movq	$1, (%rax)
	leaq	8(%rax), %rbx
	addq	$64, %rax
	movq	%rbx, %rcx
	.p2align	4, 0x90
LBB0_373:                               ## %initarr.bb1593
                                        ## =>This Inner Loop Header: Depth=1
	movq	%r14, (%rcx)
	movl	$1, 8(%rcx)
	addq	$56, %rcx
	cmpq	%rax, %rcx
	jne	LBB0_373
## %bb.374:                             ## %initarr.bb1593e
	leaq	-40880(%rbp), %rsi
	movq	%rbx, %rdi
	callq	__ZN14altered_carbon2js9JsVariantaSERKS1_
	movq	%rbx, -3344(%rbp)
	movq	%rsp, %rax
	leaq	-16(%rax), %rsi
	movq	%rsi, %rsp
	leaq	-3344(%rbp), %rcx
	movq	%rcx, -16(%rax)
	movq	$1, -8(%rax)
	leaq	-40824(%rbp), %rdi
	callq	__ZN14altered_carbon2js9JsVariantaSERN4llvm8ArrayRefIPS1_EE
	movl	$64, %edi
	callq	__Znam
	movq	$1, (%rax)
	leaq	8(%rax), %rbx
	addq	$64, %rax
	movq	%rbx, %rcx
	.p2align	4, 0x90
LBB0_375:                               ## %initarr.bb1601
                                        ## =>This Inner Loop Header: Depth=1
	movq	%r14, (%rcx)
	movl	$1, 8(%rcx)
	addq	$56, %rcx
	cmpq	%rax, %rcx
	jne	LBB0_375
## %bb.376:                             ## %initarr.bb1601e
	leaq	-40824(%rbp), %rsi
	movq	%rbx, %rdi
	callq	__ZN14altered_carbon2js9JsVariantaSERKS1_
	movq	%rbx, -3328(%rbp)
	movq	%rsp, %rax
	leaq	-16(%rax), %rsi
	movq	%rsi, %rsp
	leaq	-3328(%rbp), %rcx
	movq	%rcx, -16(%rax)
	movq	$1, -8(%rax)
	leaq	-40768(%rbp), %rdi
	callq	__ZN14altered_carbon2js9JsVariantaSERN4llvm8ArrayRefIPS1_EE
	movl	$64, %edi
	callq	__Znam
	movq	$1, (%rax)
	leaq	8(%rax), %rbx
	addq	$64, %rax
	movq	%rbx, %rcx
	.p2align	4, 0x90
LBB0_377:                               ## %initarr.bb1609
                                        ## =>This Inner Loop Header: Depth=1
	movq	%r14, (%rcx)
	movl	$1, 8(%rcx)
	addq	$56, %rcx
	cmpq	%rax, %rcx
	jne	LBB0_377
## %bb.378:                             ## %initarr.bb1609e
	leaq	-40768(%rbp), %rsi
	movq	%rbx, %rdi
	callq	__ZN14altered_carbon2js9JsVariantaSERKS1_
	movq	%rbx, -3312(%rbp)
	movq	%rsp, %rax
	leaq	-16(%rax), %rsi
	movq	%rsi, %rsp
	leaq	-3312(%rbp), %rcx
	movq	%rcx, -16(%rax)
	movq	$1, -8(%rax)
	leaq	-40712(%rbp), %rdi
	callq	__ZN14altered_carbon2js9JsVariantaSERN4llvm8ArrayRefIPS1_EE
	leaq	-40656(%rbp), %rdi
	movl	$1, %esi
	callq	__ZN14altered_carbon2js9JsVariantaSEx
	leaq	-40600(%rbp), %rdi
	movl	$2, %esi
	callq	__ZN14altered_carbon2js9JsVariantaSEx
	movl	$120, %edi
	callq	__Znam
	movq	$2, (%rax)
	leaq	8(%rax), %rbx
	addq	$120, %rax
	movq	%rbx, %rcx
	.p2align	4, 0x90
LBB0_379:                               ## %initarr.bb1619
                                        ## =>This Inner Loop Header: Depth=1
	movq	%r14, (%rcx)
	movl	$1, 8(%rcx)
	addq	$56, %rcx
	cmpq	%rax, %rcx
	jne	LBB0_379
## %bb.380:                             ## %initarr.bb1619e
	leaq	-40656(%rbp), %rsi
	movq	%rbx, %rdi
	callq	__ZN14altered_carbon2js9JsVariantaSERKS1_
	movq	%rbx, -7488(%rbp)
	addq	$56, %rbx
	leaq	-40600(%rbp), %rsi
	movq	%rbx, %rdi
	callq	__ZN14altered_carbon2js9JsVariantaSERKS1_
	movq	%rbx, -7480(%rbp)
	movq	%rsp, %rax
	leaq	-16(%rax), %rsi
	movq	%rsi, %rsp
	leaq	-7488(%rbp), %rcx
	movq	%rcx, -16(%rax)
	movq	$2, -8(%rax)
	leaq	-40544(%rbp), %rdi
	callq	__ZN14altered_carbon2js9JsVariantaSERN4llvm8ArrayRefIPS1_EE
	leaq	-40488(%rbp), %rdi
	movl	$3, %esi
	callq	__ZN14altered_carbon2js9JsVariantaSEx
	leaq	-40432(%rbp), %rdi
	movl	$4, %esi
	callq	__ZN14altered_carbon2js9JsVariantaSEx
	movl	$120, %edi
	callq	__Znam
	movq	$2, (%rax)
	leaq	8(%rax), %rbx
	addq	$120, %rax
	movq	%rbx, %rcx
	.p2align	4, 0x90
LBB0_381:                               ## %initarr.bb1629
                                        ## =>This Inner Loop Header: Depth=1
	movq	%r14, (%rcx)
	movl	$1, 8(%rcx)
	addq	$56, %rcx
	cmpq	%rax, %rcx
	jne	LBB0_381
## %bb.382:                             ## %initarr.bb1629e
	leaq	-40488(%rbp), %rsi
	movq	%rbx, %rdi
	callq	__ZN14altered_carbon2js9JsVariantaSERKS1_
	movq	%rbx, -7472(%rbp)
	addq	$56, %rbx
	leaq	-40432(%rbp), %rsi
	movq	%rbx, %rdi
	callq	__ZN14altered_carbon2js9JsVariantaSERKS1_
	movq	%rbx, -7464(%rbp)
	movq	%rsp, %rax
	leaq	-16(%rax), %rsi
	movq	%rsi, %rsp
	leaq	-7472(%rbp), %rcx
	movq	%rcx, -16(%rax)
	movq	$2, -8(%rax)
	leaq	-40376(%rbp), %rdi
	callq	__ZN14altered_carbon2js9JsVariantaSERN4llvm8ArrayRefIPS1_EE
	movl	$120, %edi
	callq	__Znam
	movq	$2, (%rax)
	leaq	8(%rax), %rbx
	addq	$120, %rax
	movq	%rbx, %rcx
	.p2align	4, 0x90
LBB0_383:                               ## %initarr.bb1637
                                        ## =>This Inner Loop Header: Depth=1
	movq	%r14, (%rcx)
	movl	$1, 8(%rcx)
	addq	$56, %rcx
	cmpq	%rax, %rcx
	jne	LBB0_383
## %bb.384:                             ## %initarr.bb1637e
	leaq	-40544(%rbp), %rsi
	movq	%rbx, %rdi
	callq	__ZN14altered_carbon2js9JsVariantaSERKS1_
	movq	%rbx, -7456(%rbp)
	addq	$56, %rbx
	leaq	-40376(%rbp), %rsi
	movq	%rbx, %rdi
	callq	__ZN14altered_carbon2js9JsVariantaSERKS1_
	movq	%rbx, -7448(%rbp)
	movq	%rsp, %rax
	leaq	-16(%rax), %rsi
	movq	%rsi, %rsp
	leaq	-7456(%rbp), %rcx
	movq	%rcx, -16(%rax)
	movq	$2, -8(%rax)
	leaq	-40320(%rbp), %rdi
	callq	__ZN14altered_carbon2js9JsVariantaSERN4llvm8ArrayRefIPS1_EE
	movl	$64, %edi
	callq	__Znam
	movq	$1, (%rax)
	leaq	8(%rax), %rbx
	addq	$64, %rax
	movq	%rbx, %rcx
	.p2align	4, 0x90
LBB0_385:                               ## %initarr.bb1645
                                        ## =>This Inner Loop Header: Depth=1
	movq	%r14, (%rcx)
	movl	$1, 8(%rcx)
	addq	$56, %rcx
	cmpq	%rax, %rcx
	jne	LBB0_385
## %bb.386:                             ## %initarr.bb1645e
	leaq	-40320(%rbp), %rsi
	movq	%rbx, %rdi
	callq	__ZN14altered_carbon2js9JsVariantaSERKS1_
	movq	%rbx, -3296(%rbp)
	movq	%rsp, %rax
	leaq	-16(%rax), %rsi
	movq	%rsi, %rsp
	leaq	-3296(%rbp), %rcx
	movq	%rcx, -16(%rax)
	movq	$1, -8(%rax)
	leaq	-40264(%rbp), %rdi
	callq	__ZN14altered_carbon2js9JsVariantaSERN4llvm8ArrayRefIPS1_EE
	movl	$64, %edi
	callq	__Znam
	movq	$1, (%rax)
	leaq	8(%rax), %rbx
	addq	$64, %rax
	movq	%rbx, %rcx
	.p2align	4, 0x90
LBB0_387:                               ## %initarr.bb1653
                                        ## =>This Inner Loop Header: Depth=1
	movq	%r14, (%rcx)
	movl	$1, 8(%rcx)
	addq	$56, %rcx
	cmpq	%rax, %rcx
	jne	LBB0_387
## %bb.388:                             ## %initarr.bb1653e
	leaq	-40264(%rbp), %rsi
	movq	%rbx, %rdi
	callq	__ZN14altered_carbon2js9JsVariantaSERKS1_
	movq	%rbx, -3280(%rbp)
	movq	%rsp, %rax
	leaq	-16(%rax), %rsi
	movq	%rsi, %rsp
	leaq	-3280(%rbp), %rcx
	movq	%rcx, -16(%rax)
	movq	$1, -8(%rax)
	leaq	-40208(%rbp), %rdi
	callq	__ZN14altered_carbon2js9JsVariantaSERN4llvm8ArrayRefIPS1_EE
	movl	$64, %edi
	callq	__Znam
	movq	$1, (%rax)
	leaq	8(%rax), %rbx
	addq	$64, %rax
	movq	%rbx, %rcx
	.p2align	4, 0x90
LBB0_389:                               ## %initarr.bb1661
                                        ## =>This Inner Loop Header: Depth=1
	movq	%r14, (%rcx)
	movl	$1, 8(%rcx)
	addq	$56, %rcx
	cmpq	%rax, %rcx
	jne	LBB0_389
## %bb.390:                             ## %initarr.bb1661e
	leaq	-40208(%rbp), %rsi
	movq	%rbx, %rdi
	callq	__ZN14altered_carbon2js9JsVariantaSERKS1_
	movq	%rbx, -3264(%rbp)
	movq	%rsp, %rax
	leaq	-16(%rax), %rsi
	movq	%rsi, %rsp
	leaq	-3264(%rbp), %rcx
	movq	%rcx, -16(%rax)
	movq	$1, -8(%rax)
	leaq	-40152(%rbp), %rdi
	callq	__ZN14altered_carbon2js9JsVariantaSERN4llvm8ArrayRefIPS1_EE
	movl	$64, %edi
	callq	__Znam
	movq	$1, (%rax)
	leaq	8(%rax), %rbx
	addq	$64, %rax
	movq	%rbx, %rcx
	.p2align	4, 0x90
LBB0_391:                               ## %initarr.bb1669
                                        ## =>This Inner Loop Header: Depth=1
	movq	%r14, (%rcx)
	movl	$1, 8(%rcx)
	addq	$56, %rcx
	cmpq	%rax, %rcx
	jne	LBB0_391
## %bb.392:                             ## %initarr.bb1669e
	leaq	-40152(%rbp), %rsi
	movq	%rbx, %rdi
	callq	__ZN14altered_carbon2js9JsVariantaSERKS1_
	movq	%rbx, -3248(%rbp)
	movq	%rsp, %rax
	leaq	-16(%rax), %rsi
	movq	%rsi, %rsp
	leaq	-3248(%rbp), %rcx
	movq	%rcx, -16(%rax)
	movq	$1, -8(%rax)
	leaq	-40096(%rbp), %rdi
	callq	__ZN14altered_carbon2js9JsVariantaSERN4llvm8ArrayRefIPS1_EE
	leaq	-40040(%rbp), %rdi
	movl	$1, %esi
	callq	__ZN14altered_carbon2js9JsVariantaSEx
	leaq	-39984(%rbp), %rdi
	movl	$2, %esi
	callq	__ZN14altered_carbon2js9JsVariantaSEx
	movl	$120, %edi
	callq	__Znam
	movq	$2, (%rax)
	leaq	8(%rax), %rbx
	addq	$120, %rax
	movq	%rbx, %rcx
	.p2align	4, 0x90
LBB0_393:                               ## %initarr.bb1679
                                        ## =>This Inner Loop Header: Depth=1
	movq	%r14, (%rcx)
	movl	$1, 8(%rcx)
	addq	$56, %rcx
	cmpq	%rax, %rcx
	jne	LBB0_393
## %bb.394:                             ## %initarr.bb1679e
	leaq	-40040(%rbp), %rsi
	movq	%rbx, %rdi
	callq	__ZN14altered_carbon2js9JsVariantaSERKS1_
	movq	%rbx, -7440(%rbp)
	addq	$56, %rbx
	leaq	-39984(%rbp), %rsi
	movq	%rbx, %rdi
	callq	__ZN14altered_carbon2js9JsVariantaSERKS1_
	movq	%rbx, -7432(%rbp)
	movq	%rsp, %rax
	leaq	-16(%rax), %rsi
	movq	%rsi, %rsp
	leaq	-7440(%rbp), %rcx
	movq	%rcx, -16(%rax)
	movq	$2, -8(%rax)
	leaq	-39928(%rbp), %rdi
	callq	__ZN14altered_carbon2js9JsVariantaSERN4llvm8ArrayRefIPS1_EE
	leaq	-39872(%rbp), %rdi
	movl	$3, %esi
	callq	__ZN14altered_carbon2js9JsVariantaSEx
	leaq	-39816(%rbp), %rdi
	movl	$4, %esi
	callq	__ZN14altered_carbon2js9JsVariantaSEx
	movl	$120, %edi
	callq	__Znam
	movq	$2, (%rax)
	leaq	8(%rax), %rbx
	addq	$120, %rax
	movq	%rbx, %rcx
	.p2align	4, 0x90
LBB0_395:                               ## %initarr.bb1689
                                        ## =>This Inner Loop Header: Depth=1
	movq	%r14, (%rcx)
	movl	$1, 8(%rcx)
	addq	$56, %rcx
	cmpq	%rax, %rcx
	jne	LBB0_395
## %bb.396:                             ## %initarr.bb1689e
	leaq	-39872(%rbp), %rsi
	movq	%rbx, %rdi
	callq	__ZN14altered_carbon2js9JsVariantaSERKS1_
	movq	%rbx, -7424(%rbp)
	addq	$56, %rbx
	leaq	-39816(%rbp), %rsi
	movq	%rbx, %rdi
	callq	__ZN14altered_carbon2js9JsVariantaSERKS1_
	movq	%rbx, -7416(%rbp)
	movq	%rsp, %rax
	leaq	-16(%rax), %rsi
	movq	%rsi, %rsp
	leaq	-7424(%rbp), %rcx
	movq	%rcx, -16(%rax)
	movq	$2, -8(%rax)
	leaq	-39760(%rbp), %rdi
	callq	__ZN14altered_carbon2js9JsVariantaSERN4llvm8ArrayRefIPS1_EE
	movl	$120, %edi
	callq	__Znam
	movq	$2, (%rax)
	leaq	8(%rax), %rbx
	addq	$120, %rax
	movq	%rbx, %rcx
	.p2align	4, 0x90
LBB0_397:                               ## %initarr.bb1697
                                        ## =>This Inner Loop Header: Depth=1
	movq	%r14, (%rcx)
	movl	$1, 8(%rcx)
	addq	$56, %rcx
	cmpq	%rax, %rcx
	jne	LBB0_397
## %bb.398:                             ## %initarr.bb1697e
	leaq	-39928(%rbp), %rsi
	movq	%rbx, %rdi
	callq	__ZN14altered_carbon2js9JsVariantaSERKS1_
	movq	%rbx, -7408(%rbp)
	addq	$56, %rbx
	leaq	-39760(%rbp), %rsi
	movq	%rbx, %rdi
	callq	__ZN14altered_carbon2js9JsVariantaSERKS1_
	movq	%rbx, -7400(%rbp)
	movq	%rsp, %rax
	leaq	-16(%rax), %rsi
	movq	%rsi, %rsp
	leaq	-7408(%rbp), %rcx
	movq	%rcx, -16(%rax)
	movq	$2, -8(%rax)
	leaq	-39704(%rbp), %rdi
	callq	__ZN14altered_carbon2js9JsVariantaSERN4llvm8ArrayRefIPS1_EE
	movl	$64, %edi
	callq	__Znam
	movq	$1, (%rax)
	leaq	8(%rax), %rbx
	addq	$64, %rax
	movq	%rbx, %rcx
	.p2align	4, 0x90
LBB0_399:                               ## %initarr.bb1705
                                        ## =>This Inner Loop Header: Depth=1
	movq	%r14, (%rcx)
	movl	$1, 8(%rcx)
	addq	$56, %rcx
	cmpq	%rax, %rcx
	jne	LBB0_399
## %bb.400:                             ## %initarr.bb1705e
	leaq	-39704(%rbp), %rsi
	movq	%rbx, %rdi
	callq	__ZN14altered_carbon2js9JsVariantaSERKS1_
	movq	%rbx, -3232(%rbp)
	movq	%rsp, %rax
	leaq	-16(%rax), %rsi
	movq	%rsi, %rsp
	leaq	-3232(%rbp), %rcx
	movq	%rcx, -16(%rax)
	movq	$1, -8(%rax)
	leaq	-39648(%rbp), %rdi
	callq	__ZN14altered_carbon2js9JsVariantaSERN4llvm8ArrayRefIPS1_EE
	movl	$64, %edi
	callq	__Znam
	movq	$1, (%rax)
	leaq	8(%rax), %rbx
	addq	$64, %rax
	movq	%rbx, %rcx
	.p2align	4, 0x90
LBB0_401:                               ## %initarr.bb1713
                                        ## =>This Inner Loop Header: Depth=1
	movq	%r14, (%rcx)
	movl	$1, 8(%rcx)
	addq	$56, %rcx
	cmpq	%rax, %rcx
	jne	LBB0_401
## %bb.402:                             ## %initarr.bb1713e
	leaq	-39648(%rbp), %rsi
	movq	%rbx, %rdi
	callq	__ZN14altered_carbon2js9JsVariantaSERKS1_
	movq	%rbx, -3216(%rbp)
	movq	%rsp, %rax
	leaq	-16(%rax), %rsi
	movq	%rsi, %rsp
	leaq	-3216(%rbp), %rcx
	movq	%rcx, -16(%rax)
	movq	$1, -8(%rax)
	leaq	-39592(%rbp), %rdi
	callq	__ZN14altered_carbon2js9JsVariantaSERN4llvm8ArrayRefIPS1_EE
	movl	$64, %edi
	callq	__Znam
	movq	$1, (%rax)
	leaq	8(%rax), %rbx
	addq	$64, %rax
	movq	%rbx, %rcx
	.p2align	4, 0x90
LBB0_403:                               ## %initarr.bb1721
                                        ## =>This Inner Loop Header: Depth=1
	movq	%r14, (%rcx)
	movl	$1, 8(%rcx)
	addq	$56, %rcx
	cmpq	%rax, %rcx
	jne	LBB0_403
## %bb.404:                             ## %initarr.bb1721e
	leaq	-39592(%rbp), %rsi
	movq	%rbx, %rdi
	callq	__ZN14altered_carbon2js9JsVariantaSERKS1_
	movq	%rbx, -3200(%rbp)
	movq	%rsp, %rax
	leaq	-16(%rax), %rsi
	movq	%rsi, %rsp
	leaq	-3200(%rbp), %rcx
	movq	%rcx, -16(%rax)
	movq	$1, -8(%rax)
	leaq	-39536(%rbp), %rdi
	callq	__ZN14altered_carbon2js9JsVariantaSERN4llvm8ArrayRefIPS1_EE
	movl	$64, %edi
	callq	__Znam
	movq	$1, (%rax)
	leaq	8(%rax), %rbx
	addq	$64, %rax
	movq	%rbx, %rcx
	.p2align	4, 0x90
LBB0_405:                               ## %initarr.bb1729
                                        ## =>This Inner Loop Header: Depth=1
	movq	%r14, (%rcx)
	movl	$1, 8(%rcx)
	addq	$56, %rcx
	cmpq	%rax, %rcx
	jne	LBB0_405
## %bb.406:                             ## %initarr.bb1729e
	leaq	-39536(%rbp), %rsi
	movq	%rbx, %rdi
	callq	__ZN14altered_carbon2js9JsVariantaSERKS1_
	movq	%rbx, -3184(%rbp)
	movq	%rsp, %rax
	leaq	-16(%rax), %rsi
	movq	%rsi, %rsp
	leaq	-3184(%rbp), %rcx
	movq	%rcx, -16(%rax)
	movq	$1, -8(%rax)
	leaq	-39480(%rbp), %rdi
	callq	__ZN14altered_carbon2js9JsVariantaSERN4llvm8ArrayRefIPS1_EE
	leaq	-39424(%rbp), %rdi
	movl	$1, %esi
	callq	__ZN14altered_carbon2js9JsVariantaSEx
	leaq	-39368(%rbp), %rdi
	movl	$2, %esi
	callq	__ZN14altered_carbon2js9JsVariantaSEx
	movl	$120, %edi
	callq	__Znam
	movq	$2, (%rax)
	leaq	8(%rax), %rbx
	addq	$120, %rax
	movq	%rbx, %rcx
	.p2align	4, 0x90
LBB0_407:                               ## %initarr.bb1739
                                        ## =>This Inner Loop Header: Depth=1
	movq	%r14, (%rcx)
	movl	$1, 8(%rcx)
	addq	$56, %rcx
	cmpq	%rax, %rcx
	jne	LBB0_407
## %bb.408:                             ## %initarr.bb1739e
	leaq	-39424(%rbp), %rsi
	movq	%rbx, %rdi
	callq	__ZN14altered_carbon2js9JsVariantaSERKS1_
	movq	%rbx, -7392(%rbp)
	addq	$56, %rbx
	leaq	-39368(%rbp), %rsi
	movq	%rbx, %rdi
	callq	__ZN14altered_carbon2js9JsVariantaSERKS1_
	movq	%rbx, -7384(%rbp)
	movq	%rsp, %rax
	leaq	-16(%rax), %rsi
	movq	%rsi, %rsp
	leaq	-7392(%rbp), %rcx
	movq	%rcx, -16(%rax)
	movq	$2, -8(%rax)
	leaq	-39312(%rbp), %rdi
	callq	__ZN14altered_carbon2js9JsVariantaSERN4llvm8ArrayRefIPS1_EE
	leaq	-39256(%rbp), %rdi
	movl	$3, %esi
	callq	__ZN14altered_carbon2js9JsVariantaSEx
	leaq	-39200(%rbp), %rdi
	movl	$4, %esi
	callq	__ZN14altered_carbon2js9JsVariantaSEx
	movl	$120, %edi
	callq	__Znam
	movq	$2, (%rax)
	leaq	8(%rax), %rbx
	addq	$120, %rax
	movq	%rbx, %rcx
	.p2align	4, 0x90
LBB0_409:                               ## %initarr.bb1749
                                        ## =>This Inner Loop Header: Depth=1
	movq	%r14, (%rcx)
	movl	$1, 8(%rcx)
	addq	$56, %rcx
	cmpq	%rax, %rcx
	jne	LBB0_409
## %bb.410:                             ## %initarr.bb1749e
	leaq	-39256(%rbp), %rsi
	movq	%rbx, %rdi
	callq	__ZN14altered_carbon2js9JsVariantaSERKS1_
	movq	%rbx, -7376(%rbp)
	addq	$56, %rbx
	leaq	-39200(%rbp), %rsi
	movq	%rbx, %rdi
	callq	__ZN14altered_carbon2js9JsVariantaSERKS1_
	movq	%rbx, -7368(%rbp)
	movq	%rsp, %rax
	leaq	-16(%rax), %rsi
	movq	%rsi, %rsp
	leaq	-7376(%rbp), %rcx
	movq	%rcx, -16(%rax)
	movq	$2, -8(%rax)
	leaq	-39144(%rbp), %rdi
	callq	__ZN14altered_carbon2js9JsVariantaSERN4llvm8ArrayRefIPS1_EE
	movl	$120, %edi
	callq	__Znam
	movq	$2, (%rax)
	leaq	8(%rax), %rbx
	addq	$120, %rax
	movq	%rbx, %rcx
	.p2align	4, 0x90
LBB0_411:                               ## %initarr.bb1757
                                        ## =>This Inner Loop Header: Depth=1
	movq	%r14, (%rcx)
	movl	$1, 8(%rcx)
	addq	$56, %rcx
	cmpq	%rax, %rcx
	jne	LBB0_411
## %bb.412:                             ## %initarr.bb1757e
	leaq	-39312(%rbp), %rsi
	movq	%rbx, %rdi
	callq	__ZN14altered_carbon2js9JsVariantaSERKS1_
	movq	%rbx, -7360(%rbp)
	addq	$56, %rbx
	leaq	-39144(%rbp), %rsi
	movq	%rbx, %rdi
	callq	__ZN14altered_carbon2js9JsVariantaSERKS1_
	movq	%rbx, -7352(%rbp)
	movq	%rsp, %rax
	leaq	-16(%rax), %rsi
	movq	%rsi, %rsp
	leaq	-7360(%rbp), %rcx
	movq	%rcx, -16(%rax)
	movq	$2, -8(%rax)
	leaq	-39088(%rbp), %rdi
	callq	__ZN14altered_carbon2js9JsVariantaSERN4llvm8ArrayRefIPS1_EE
	movl	$64, %edi
	callq	__Znam
	movq	$1, (%rax)
	leaq	8(%rax), %rbx
	addq	$64, %rax
	movq	%rbx, %rcx
	.p2align	4, 0x90
LBB0_413:                               ## %initarr.bb1765
                                        ## =>This Inner Loop Header: Depth=1
	movq	%r14, (%rcx)
	movl	$1, 8(%rcx)
	addq	$56, %rcx
	cmpq	%rax, %rcx
	jne	LBB0_413
## %bb.414:                             ## %initarr.bb1765e
	leaq	-39088(%rbp), %rsi
	movq	%rbx, %rdi
	callq	__ZN14altered_carbon2js9JsVariantaSERKS1_
	movq	%rbx, -3168(%rbp)
	movq	%rsp, %rax
	leaq	-16(%rax), %rsi
	movq	%rsi, %rsp
	leaq	-3168(%rbp), %rcx
	movq	%rcx, -16(%rax)
	movq	$1, -8(%rax)
	leaq	-39032(%rbp), %rdi
	callq	__ZN14altered_carbon2js9JsVariantaSERN4llvm8ArrayRefIPS1_EE
	movl	$64, %edi
	callq	__Znam
	movq	$1, (%rax)
	leaq	8(%rax), %rbx
	addq	$64, %rax
	movq	%rbx, %rcx
	.p2align	4, 0x90
LBB0_415:                               ## %initarr.bb1773
                                        ## =>This Inner Loop Header: Depth=1
	movq	%r14, (%rcx)
	movl	$1, 8(%rcx)
	addq	$56, %rcx
	cmpq	%rax, %rcx
	jne	LBB0_415
## %bb.416:                             ## %initarr.bb1773e
	leaq	-39032(%rbp), %rsi
	movq	%rbx, %rdi
	callq	__ZN14altered_carbon2js9JsVariantaSERKS1_
	movq	%rbx, -3152(%rbp)
	movq	%rsp, %rax
	leaq	-16(%rax), %rsi
	movq	%rsi, %rsp
	leaq	-3152(%rbp), %rcx
	movq	%rcx, -16(%rax)
	movq	$1, -8(%rax)
	leaq	-38976(%rbp), %rdi
	callq	__ZN14altered_carbon2js9JsVariantaSERN4llvm8ArrayRefIPS1_EE
	movl	$64, %edi
	callq	__Znam
	movq	$1, (%rax)
	leaq	8(%rax), %rbx
	addq	$64, %rax
	movq	%rbx, %rcx
	.p2align	4, 0x90
LBB0_417:                               ## %initarr.bb1781
                                        ## =>This Inner Loop Header: Depth=1
	movq	%r14, (%rcx)
	movl	$1, 8(%rcx)
	addq	$56, %rcx
	cmpq	%rax, %rcx
	jne	LBB0_417
## %bb.418:                             ## %initarr.bb1781e
	leaq	-38976(%rbp), %rsi
	movq	%rbx, %rdi
	callq	__ZN14altered_carbon2js9JsVariantaSERKS1_
	movq	%rbx, -3136(%rbp)
	movq	%rsp, %rax
	leaq	-16(%rax), %rsi
	movq	%rsi, %rsp
	leaq	-3136(%rbp), %rcx
	movq	%rcx, -16(%rax)
	movq	$1, -8(%rax)
	leaq	-38920(%rbp), %rdi
	callq	__ZN14altered_carbon2js9JsVariantaSERN4llvm8ArrayRefIPS1_EE
	movl	$64, %edi
	callq	__Znam
	movq	$1, (%rax)
	leaq	8(%rax), %rbx
	addq	$64, %rax
	movq	%rbx, %rcx
	.p2align	4, 0x90
LBB0_419:                               ## %initarr.bb1789
                                        ## =>This Inner Loop Header: Depth=1
	movq	%r14, (%rcx)
	movl	$1, 8(%rcx)
	addq	$56, %rcx
	cmpq	%rax, %rcx
	jne	LBB0_419
## %bb.420:                             ## %initarr.bb1789e
	leaq	-38920(%rbp), %rsi
	movq	%rbx, %rdi
	callq	__ZN14altered_carbon2js9JsVariantaSERKS1_
	movq	%rbx, -3120(%rbp)
	movq	%rsp, %rax
	leaq	-16(%rax), %rsi
	movq	%rsi, %rsp
	leaq	-3120(%rbp), %rcx
	movq	%rcx, -16(%rax)
	movq	$1, -8(%rax)
	leaq	-38864(%rbp), %rdi
	callq	__ZN14altered_carbon2js9JsVariantaSERN4llvm8ArrayRefIPS1_EE
	leaq	-38808(%rbp), %rdi
	movl	$1, %esi
	callq	__ZN14altered_carbon2js9JsVariantaSEx
	leaq	-38752(%rbp), %rdi
	movl	$2, %esi
	callq	__ZN14altered_carbon2js9JsVariantaSEx
	movl	$120, %edi
	callq	__Znam
	movq	$2, (%rax)
	leaq	8(%rax), %rbx
	addq	$120, %rax
	movq	%rbx, %rcx
	.p2align	4, 0x90
LBB0_421:                               ## %initarr.bb1799
                                        ## =>This Inner Loop Header: Depth=1
	movq	%r14, (%rcx)
	movl	$1, 8(%rcx)
	addq	$56, %rcx
	cmpq	%rax, %rcx
	jne	LBB0_421
## %bb.422:                             ## %initarr.bb1799e
	leaq	-38808(%rbp), %rsi
	movq	%rbx, %rdi
	callq	__ZN14altered_carbon2js9JsVariantaSERKS1_
	movq	%rbx, -7344(%rbp)
	addq	$56, %rbx
	leaq	-38752(%rbp), %rsi
	movq	%rbx, %rdi
	callq	__ZN14altered_carbon2js9JsVariantaSERKS1_
	movq	%rbx, -7336(%rbp)
	movq	%rsp, %rax
	leaq	-16(%rax), %rsi
	movq	%rsi, %rsp
	leaq	-7344(%rbp), %rcx
	movq	%rcx, -16(%rax)
	movq	$2, -8(%rax)
	leaq	-38696(%rbp), %rdi
	callq	__ZN14altered_carbon2js9JsVariantaSERN4llvm8ArrayRefIPS1_EE
	leaq	-38640(%rbp), %rdi
	movl	$3, %esi
	callq	__ZN14altered_carbon2js9JsVariantaSEx
	leaq	-38584(%rbp), %rdi
	movl	$4, %esi
	callq	__ZN14altered_carbon2js9JsVariantaSEx
	movl	$120, %edi
	callq	__Znam
	movq	$2, (%rax)
	leaq	8(%rax), %rbx
	addq	$120, %rax
	movq	%rbx, %rcx
	.p2align	4, 0x90
LBB0_423:                               ## %initarr.bb1809
                                        ## =>This Inner Loop Header: Depth=1
	movq	%r14, (%rcx)
	movl	$1, 8(%rcx)
	addq	$56, %rcx
	cmpq	%rax, %rcx
	jne	LBB0_423
## %bb.424:                             ## %initarr.bb1809e
	leaq	-38640(%rbp), %rsi
	movq	%rbx, %rdi
	callq	__ZN14altered_carbon2js9JsVariantaSERKS1_
	movq	%rbx, -7328(%rbp)
	addq	$56, %rbx
	leaq	-38584(%rbp), %rsi
	movq	%rbx, %rdi
	callq	__ZN14altered_carbon2js9JsVariantaSERKS1_
	movq	%rbx, -7320(%rbp)
	movq	%rsp, %rax
	leaq	-16(%rax), %rsi
	movq	%rsi, %rsp
	leaq	-7328(%rbp), %rcx
	movq	%rcx, -16(%rax)
	movq	$2, -8(%rax)
	leaq	-38528(%rbp), %rdi
	callq	__ZN14altered_carbon2js9JsVariantaSERN4llvm8ArrayRefIPS1_EE
	movl	$120, %edi
	callq	__Znam
	movq	$2, (%rax)
	leaq	8(%rax), %rbx
	addq	$120, %rax
	movq	%rbx, %rcx
	.p2align	4, 0x90
LBB0_425:                               ## %initarr.bb1817
                                        ## =>This Inner Loop Header: Depth=1
	movq	%r14, (%rcx)
	movl	$1, 8(%rcx)
	addq	$56, %rcx
	cmpq	%rax, %rcx
	jne	LBB0_425
## %bb.426:                             ## %initarr.bb1817e
	leaq	-38696(%rbp), %rsi
	movq	%rbx, %rdi
	callq	__ZN14altered_carbon2js9JsVariantaSERKS1_
	movq	%rbx, -7312(%rbp)
	addq	$56, %rbx
	leaq	-38528(%rbp), %rsi
	movq	%rbx, %rdi
	callq	__ZN14altered_carbon2js9JsVariantaSERKS1_
	movq	%rbx, -7304(%rbp)
	movq	%rsp, %rax
	leaq	-16(%rax), %rsi
	movq	%rsi, %rsp
	leaq	-7312(%rbp), %rcx
	movq	%rcx, -16(%rax)
	movq	$2, -8(%rax)
	leaq	-38472(%rbp), %rdi
	callq	__ZN14altered_carbon2js9JsVariantaSERN4llvm8ArrayRefIPS1_EE
	movl	$64, %edi
	callq	__Znam
	movq	$1, (%rax)
	leaq	8(%rax), %rbx
	addq	$64, %rax
	movq	%rbx, %rcx
	.p2align	4, 0x90
LBB0_427:                               ## %initarr.bb1825
                                        ## =>This Inner Loop Header: Depth=1
	movq	%r14, (%rcx)
	movl	$1, 8(%rcx)
	addq	$56, %rcx
	cmpq	%rax, %rcx
	jne	LBB0_427
## %bb.428:                             ## %initarr.bb1825e
	leaq	-38472(%rbp), %rsi
	movq	%rbx, %rdi
	callq	__ZN14altered_carbon2js9JsVariantaSERKS1_
	movq	%rbx, -3104(%rbp)
	movq	%rsp, %rax
	leaq	-16(%rax), %rsi
	movq	%rsi, %rsp
	leaq	-3104(%rbp), %rcx
	movq	%rcx, -16(%rax)
	movq	$1, -8(%rax)
	leaq	-38416(%rbp), %rdi
	callq	__ZN14altered_carbon2js9JsVariantaSERN4llvm8ArrayRefIPS1_EE
	movl	$64, %edi
	callq	__Znam
	movq	$1, (%rax)
	leaq	8(%rax), %rbx
	addq	$64, %rax
	movq	%rbx, %rcx
	.p2align	4, 0x90
LBB0_429:                               ## %initarr.bb1833
                                        ## =>This Inner Loop Header: Depth=1
	movq	%r14, (%rcx)
	movl	$1, 8(%rcx)
	addq	$56, %rcx
	cmpq	%rax, %rcx
	jne	LBB0_429
## %bb.430:                             ## %initarr.bb1833e
	leaq	-38416(%rbp), %rsi
	movq	%rbx, %rdi
	callq	__ZN14altered_carbon2js9JsVariantaSERKS1_
	movq	%rbx, -3088(%rbp)
	movq	%rsp, %rax
	leaq	-16(%rax), %rsi
	movq	%rsi, %rsp
	leaq	-3088(%rbp), %rcx
	movq	%rcx, -16(%rax)
	movq	$1, -8(%rax)
	leaq	-38360(%rbp), %rdi
	callq	__ZN14altered_carbon2js9JsVariantaSERN4llvm8ArrayRefIPS1_EE
	movl	$64, %edi
	callq	__Znam
	movq	$1, (%rax)
	leaq	8(%rax), %rbx
	addq	$64, %rax
	movq	%rbx, %rcx
	.p2align	4, 0x90
LBB0_431:                               ## %initarr.bb1841
                                        ## =>This Inner Loop Header: Depth=1
	movq	%r14, (%rcx)
	movl	$1, 8(%rcx)
	addq	$56, %rcx
	cmpq	%rax, %rcx
	jne	LBB0_431
## %bb.432:                             ## %initarr.bb1841e
	leaq	-38360(%rbp), %rsi
	movq	%rbx, %rdi
	callq	__ZN14altered_carbon2js9JsVariantaSERKS1_
	movq	%rbx, -3072(%rbp)
	movq	%rsp, %rax
	leaq	-16(%rax), %rsi
	movq	%rsi, %rsp
	leaq	-3072(%rbp), %rcx
	movq	%rcx, -16(%rax)
	movq	$1, -8(%rax)
	leaq	-38304(%rbp), %rdi
	callq	__ZN14altered_carbon2js9JsVariantaSERN4llvm8ArrayRefIPS1_EE
	movl	$64, %edi
	callq	__Znam
	movq	$1, (%rax)
	leaq	8(%rax), %rbx
	addq	$64, %rax
	movq	%rbx, %rcx
	.p2align	4, 0x90
LBB0_433:                               ## %initarr.bb1849
                                        ## =>This Inner Loop Header: Depth=1
	movq	%r14, (%rcx)
	movl	$1, 8(%rcx)
	addq	$56, %rcx
	cmpq	%rax, %rcx
	jne	LBB0_433
## %bb.434:                             ## %initarr.bb1849e
	leaq	-38304(%rbp), %rsi
	movq	%rbx, %rdi
	callq	__ZN14altered_carbon2js9JsVariantaSERKS1_
	movq	%rbx, -3056(%rbp)
	movq	%rsp, %rax
	leaq	-16(%rax), %rsi
	movq	%rsi, %rsp
	leaq	-3056(%rbp), %rcx
	movq	%rcx, -16(%rax)
	movq	$1, -8(%rax)
	leaq	-38248(%rbp), %rdi
	callq	__ZN14altered_carbon2js9JsVariantaSERN4llvm8ArrayRefIPS1_EE
	leaq	-38192(%rbp), %rdi
	movl	$1, %esi
	callq	__ZN14altered_carbon2js9JsVariantaSEx
	leaq	-38136(%rbp), %rdi
	movl	$2, %esi
	callq	__ZN14altered_carbon2js9JsVariantaSEx
	movl	$120, %edi
	callq	__Znam
	movq	$2, (%rax)
	leaq	8(%rax), %rbx
	addq	$120, %rax
	movq	%rbx, %rcx
	.p2align	4, 0x90
LBB0_435:                               ## %initarr.bb1859
                                        ## =>This Inner Loop Header: Depth=1
	movq	%r14, (%rcx)
	movl	$1, 8(%rcx)
	addq	$56, %rcx
	cmpq	%rax, %rcx
	jne	LBB0_435
## %bb.436:                             ## %initarr.bb1859e
	leaq	-38192(%rbp), %rsi
	movq	%rbx, %rdi
	callq	__ZN14altered_carbon2js9JsVariantaSERKS1_
	movq	%rbx, -7296(%rbp)
	addq	$56, %rbx
	leaq	-38136(%rbp), %rsi
	movq	%rbx, %rdi
	callq	__ZN14altered_carbon2js9JsVariantaSERKS1_
	movq	%rbx, -7288(%rbp)
	movq	%rsp, %rax
	leaq	-16(%rax), %rsi
	movq	%rsi, %rsp
	leaq	-7296(%rbp), %rcx
	movq	%rcx, -16(%rax)
	movq	$2, -8(%rax)
	leaq	-38080(%rbp), %rdi
	callq	__ZN14altered_carbon2js9JsVariantaSERN4llvm8ArrayRefIPS1_EE
	leaq	-38024(%rbp), %rdi
	movl	$3, %esi
	callq	__ZN14altered_carbon2js9JsVariantaSEx
	leaq	-37968(%rbp), %rdi
	movl	$4, %esi
	callq	__ZN14altered_carbon2js9JsVariantaSEx
	movl	$120, %edi
	callq	__Znam
	movq	$2, (%rax)
	leaq	8(%rax), %rbx
	addq	$120, %rax
	movq	%rbx, %rcx
	.p2align	4, 0x90
LBB0_437:                               ## %initarr.bb1869
                                        ## =>This Inner Loop Header: Depth=1
	movq	%r14, (%rcx)
	movl	$1, 8(%rcx)
	addq	$56, %rcx
	cmpq	%rax, %rcx
	jne	LBB0_437
## %bb.438:                             ## %initarr.bb1869e
	leaq	-38024(%rbp), %rsi
	movq	%rbx, %rdi
	callq	__ZN14altered_carbon2js9JsVariantaSERKS1_
	movq	%rbx, -7280(%rbp)
	addq	$56, %rbx
	leaq	-37968(%rbp), %rsi
	movq	%rbx, %rdi
	callq	__ZN14altered_carbon2js9JsVariantaSERKS1_
	movq	%rbx, -7272(%rbp)
	movq	%rsp, %rax
	leaq	-16(%rax), %rsi
	movq	%rsi, %rsp
	leaq	-7280(%rbp), %rcx
	movq	%rcx, -16(%rax)
	movq	$2, -8(%rax)
	leaq	-37912(%rbp), %rdi
	callq	__ZN14altered_carbon2js9JsVariantaSERN4llvm8ArrayRefIPS1_EE
	movl	$120, %edi
	callq	__Znam
	movq	$2, (%rax)
	leaq	8(%rax), %rbx
	addq	$120, %rax
	movq	%rbx, %rcx
	.p2align	4, 0x90
LBB0_439:                               ## %initarr.bb1877
                                        ## =>This Inner Loop Header: Depth=1
	movq	%r14, (%rcx)
	movl	$1, 8(%rcx)
	addq	$56, %rcx
	cmpq	%rax, %rcx
	jne	LBB0_439
## %bb.440:                             ## %initarr.bb1877e
	leaq	-38080(%rbp), %rsi
	movq	%rbx, %rdi
	callq	__ZN14altered_carbon2js9JsVariantaSERKS1_
	movq	%rbx, -7264(%rbp)
	addq	$56, %rbx
	leaq	-37912(%rbp), %rsi
	movq	%rbx, %rdi
	callq	__ZN14altered_carbon2js9JsVariantaSERKS1_
	movq	%rbx, -7256(%rbp)
	movq	%rsp, %rax
	leaq	-16(%rax), %rsi
	movq	%rsi, %rsp
	leaq	-7264(%rbp), %rcx
	movq	%rcx, -16(%rax)
	movq	$2, -8(%rax)
	leaq	-37856(%rbp), %rdi
	callq	__ZN14altered_carbon2js9JsVariantaSERN4llvm8ArrayRefIPS1_EE
	movl	$64, %edi
	callq	__Znam
	movq	$1, (%rax)
	leaq	8(%rax), %rbx
	addq	$64, %rax
	movq	%rbx, %rcx
	.p2align	4, 0x90
LBB0_441:                               ## %initarr.bb1885
                                        ## =>This Inner Loop Header: Depth=1
	movq	%r14, (%rcx)
	movl	$1, 8(%rcx)
	addq	$56, %rcx
	cmpq	%rax, %rcx
	jne	LBB0_441
## %bb.442:                             ## %initarr.bb1885e
	leaq	-37856(%rbp), %rsi
	movq	%rbx, %rdi
	callq	__ZN14altered_carbon2js9JsVariantaSERKS1_
	movq	%rbx, -3040(%rbp)
	movq	%rsp, %rax
	leaq	-16(%rax), %rsi
	movq	%rsi, %rsp
	leaq	-3040(%rbp), %rcx
	movq	%rcx, -16(%rax)
	movq	$1, -8(%rax)
	leaq	-37800(%rbp), %rdi
	callq	__ZN14altered_carbon2js9JsVariantaSERN4llvm8ArrayRefIPS1_EE
	movl	$64, %edi
	callq	__Znam
	movq	$1, (%rax)
	leaq	8(%rax), %rbx
	addq	$64, %rax
	movq	%rbx, %rcx
	.p2align	4, 0x90
LBB0_443:                               ## %initarr.bb1893
                                        ## =>This Inner Loop Header: Depth=1
	movq	%r14, (%rcx)
	movl	$1, 8(%rcx)
	addq	$56, %rcx
	cmpq	%rax, %rcx
	jne	LBB0_443
## %bb.444:                             ## %initarr.bb1893e
	leaq	-37800(%rbp), %rsi
	movq	%rbx, %rdi
	callq	__ZN14altered_carbon2js9JsVariantaSERKS1_
	movq	%rbx, -3024(%rbp)
	movq	%rsp, %rax
	leaq	-16(%rax), %rsi
	movq	%rsi, %rsp
	leaq	-3024(%rbp), %rcx
	movq	%rcx, -16(%rax)
	movq	$1, -8(%rax)
	leaq	-37744(%rbp), %rdi
	callq	__ZN14altered_carbon2js9JsVariantaSERN4llvm8ArrayRefIPS1_EE
	movl	$64, %edi
	callq	__Znam
	movq	$1, (%rax)
	leaq	8(%rax), %rbx
	addq	$64, %rax
	movq	%rbx, %rcx
	.p2align	4, 0x90
LBB0_445:                               ## %initarr.bb1901
                                        ## =>This Inner Loop Header: Depth=1
	movq	%r14, (%rcx)
	movl	$1, 8(%rcx)
	addq	$56, %rcx
	cmpq	%rax, %rcx
	jne	LBB0_445
## %bb.446:                             ## %initarr.bb1901e
	leaq	-37744(%rbp), %rsi
	movq	%rbx, %rdi
	callq	__ZN14altered_carbon2js9JsVariantaSERKS1_
	movq	%rbx, -3008(%rbp)
	movq	%rsp, %rax
	leaq	-16(%rax), %rsi
	movq	%rsi, %rsp
	leaq	-3008(%rbp), %rcx
	movq	%rcx, -16(%rax)
	movq	$1, -8(%rax)
	leaq	-37688(%rbp), %rdi
	callq	__ZN14altered_carbon2js9JsVariantaSERN4llvm8ArrayRefIPS1_EE
	movl	$64, %edi
	callq	__Znam
	movq	$1, (%rax)
	leaq	8(%rax), %rbx
	addq	$64, %rax
	movq	%rbx, %rcx
	.p2align	4, 0x90
LBB0_447:                               ## %initarr.bb1909
                                        ## =>This Inner Loop Header: Depth=1
	movq	%r14, (%rcx)
	movl	$1, 8(%rcx)
	addq	$56, %rcx
	cmpq	%rax, %rcx
	jne	LBB0_447
## %bb.448:                             ## %initarr.bb1909e
	leaq	-37688(%rbp), %rsi
	movq	%rbx, %rdi
	callq	__ZN14altered_carbon2js9JsVariantaSERKS1_
	movq	%rbx, -2992(%rbp)
	movq	%rsp, %rax
	leaq	-16(%rax), %rsi
	movq	%rsi, %rsp
	leaq	-2992(%rbp), %rcx
	movq	%rcx, -16(%rax)
	movq	$1, -8(%rax)
	leaq	-37632(%rbp), %rdi
	callq	__ZN14altered_carbon2js9JsVariantaSERN4llvm8ArrayRefIPS1_EE
	leaq	-37576(%rbp), %rdi
	movl	$1, %esi
	callq	__ZN14altered_carbon2js9JsVariantaSEx
	leaq	-37520(%rbp), %rdi
	movl	$2, %esi
	callq	__ZN14altered_carbon2js9JsVariantaSEx
	movl	$120, %edi
	callq	__Znam
	movq	$2, (%rax)
	leaq	8(%rax), %rbx
	addq	$120, %rax
	movq	%rbx, %rcx
	.p2align	4, 0x90
LBB0_449:                               ## %initarr.bb1919
                                        ## =>This Inner Loop Header: Depth=1
	movq	%r14, (%rcx)
	movl	$1, 8(%rcx)
	addq	$56, %rcx
	cmpq	%rax, %rcx
	jne	LBB0_449
## %bb.450:                             ## %initarr.bb1919e
	leaq	-37576(%rbp), %rsi
	movq	%rbx, %rdi
	callq	__ZN14altered_carbon2js9JsVariantaSERKS1_
	movq	%rbx, -7248(%rbp)
	addq	$56, %rbx
	leaq	-37520(%rbp), %rsi
	movq	%rbx, %rdi
	callq	__ZN14altered_carbon2js9JsVariantaSERKS1_
	movq	%rbx, -7240(%rbp)
	movq	%rsp, %rax
	leaq	-16(%rax), %rsi
	movq	%rsi, %rsp
	leaq	-7248(%rbp), %rcx
	movq	%rcx, -16(%rax)
	movq	$2, -8(%rax)
	leaq	-37464(%rbp), %rdi
	callq	__ZN14altered_carbon2js9JsVariantaSERN4llvm8ArrayRefIPS1_EE
	leaq	-37408(%rbp), %rdi
	movl	$3, %esi
	callq	__ZN14altered_carbon2js9JsVariantaSEx
	leaq	-37352(%rbp), %rdi
	movl	$4, %esi
	callq	__ZN14altered_carbon2js9JsVariantaSEx
	movl	$120, %edi
	callq	__Znam
	movq	$2, (%rax)
	leaq	8(%rax), %rbx
	addq	$120, %rax
	movq	%rbx, %rcx
	.p2align	4, 0x90
LBB0_451:                               ## %initarr.bb1929
                                        ## =>This Inner Loop Header: Depth=1
	movq	%r14, (%rcx)
	movl	$1, 8(%rcx)
	addq	$56, %rcx
	cmpq	%rax, %rcx
	jne	LBB0_451
## %bb.452:                             ## %initarr.bb1929e
	leaq	-37408(%rbp), %rsi
	movq	%rbx, %rdi
	callq	__ZN14altered_carbon2js9JsVariantaSERKS1_
	movq	%rbx, -7232(%rbp)
	addq	$56, %rbx
	leaq	-37352(%rbp), %rsi
	movq	%rbx, %rdi
	callq	__ZN14altered_carbon2js9JsVariantaSERKS1_
	movq	%rbx, -7224(%rbp)
	movq	%rsp, %rax
	leaq	-16(%rax), %rsi
	movq	%rsi, %rsp
	leaq	-7232(%rbp), %rcx
	movq	%rcx, -16(%rax)
	movq	$2, -8(%rax)
	leaq	-37296(%rbp), %rdi
	callq	__ZN14altered_carbon2js9JsVariantaSERN4llvm8ArrayRefIPS1_EE
	movl	$120, %edi
	callq	__Znam
	movq	$2, (%rax)
	leaq	8(%rax), %rbx
	addq	$120, %rax
	movq	%rbx, %rcx
	.p2align	4, 0x90
LBB0_453:                               ## %initarr.bb1937
                                        ## =>This Inner Loop Header: Depth=1
	movq	%r14, (%rcx)
	movl	$1, 8(%rcx)
	addq	$56, %rcx
	cmpq	%rax, %rcx
	jne	LBB0_453
## %bb.454:                             ## %initarr.bb1937e
	leaq	-37464(%rbp), %rsi
	movq	%rbx, %rdi
	callq	__ZN14altered_carbon2js9JsVariantaSERKS1_
	movq	%rbx, -7216(%rbp)
	addq	$56, %rbx
	leaq	-37296(%rbp), %rsi
	movq	%rbx, %rdi
	callq	__ZN14altered_carbon2js9JsVariantaSERKS1_
	movq	%rbx, -7208(%rbp)
	movq	%rsp, %rax
	leaq	-16(%rax), %rsi
	movq	%rsi, %rsp
	leaq	-7216(%rbp), %rcx
	movq	%rcx, -16(%rax)
	movq	$2, -8(%rax)
	leaq	-37240(%rbp), %rdi
	callq	__ZN14altered_carbon2js9JsVariantaSERN4llvm8ArrayRefIPS1_EE
	movl	$64, %edi
	callq	__Znam
	movq	$1, (%rax)
	leaq	8(%rax), %rbx
	addq	$64, %rax
	movq	%rbx, %rcx
	.p2align	4, 0x90
LBB0_455:                               ## %initarr.bb1945
                                        ## =>This Inner Loop Header: Depth=1
	movq	%r14, (%rcx)
	movl	$1, 8(%rcx)
	addq	$56, %rcx
	cmpq	%rax, %rcx
	jne	LBB0_455
## %bb.456:                             ## %initarr.bb1945e
	leaq	-37240(%rbp), %rsi
	movq	%rbx, %rdi
	callq	__ZN14altered_carbon2js9JsVariantaSERKS1_
	movq	%rbx, -2976(%rbp)
	movq	%rsp, %rax
	leaq	-16(%rax), %rsi
	movq	%rsi, %rsp
	leaq	-2976(%rbp), %rcx
	movq	%rcx, -16(%rax)
	movq	$1, -8(%rax)
	leaq	-37184(%rbp), %rdi
	callq	__ZN14altered_carbon2js9JsVariantaSERN4llvm8ArrayRefIPS1_EE
	movl	$64, %edi
	callq	__Znam
	movq	$1, (%rax)
	leaq	8(%rax), %rbx
	addq	$64, %rax
	movq	%rbx, %rcx
	.p2align	4, 0x90
LBB0_457:                               ## %initarr.bb1953
                                        ## =>This Inner Loop Header: Depth=1
	movq	%r14, (%rcx)
	movl	$1, 8(%rcx)
	addq	$56, %rcx
	cmpq	%rax, %rcx
	jne	LBB0_457
## %bb.458:                             ## %initarr.bb1953e
	leaq	-37184(%rbp), %rsi
	movq	%rbx, %rdi
	callq	__ZN14altered_carbon2js9JsVariantaSERKS1_
	movq	%rbx, -2960(%rbp)
	movq	%rsp, %rax
	leaq	-16(%rax), %rsi
	movq	%rsi, %rsp
	leaq	-2960(%rbp), %rcx
	movq	%rcx, -16(%rax)
	movq	$1, -8(%rax)
	leaq	-37128(%rbp), %rdi
	callq	__ZN14altered_carbon2js9JsVariantaSERN4llvm8ArrayRefIPS1_EE
	movl	$64, %edi
	callq	__Znam
	movq	$1, (%rax)
	leaq	8(%rax), %rbx
	addq	$64, %rax
	movq	%rbx, %rcx
	.p2align	4, 0x90
LBB0_459:                               ## %initarr.bb1961
                                        ## =>This Inner Loop Header: Depth=1
	movq	%r14, (%rcx)
	movl	$1, 8(%rcx)
	addq	$56, %rcx
	cmpq	%rax, %rcx
	jne	LBB0_459
## %bb.460:                             ## %initarr.bb1961e
	leaq	-37128(%rbp), %rsi
	movq	%rbx, %rdi
	callq	__ZN14altered_carbon2js9JsVariantaSERKS1_
	movq	%rbx, -2944(%rbp)
	movq	%rsp, %rax
	leaq	-16(%rax), %rsi
	movq	%rsi, %rsp
	leaq	-2944(%rbp), %rcx
	movq	%rcx, -16(%rax)
	movq	$1, -8(%rax)
	leaq	-37072(%rbp), %rdi
	callq	__ZN14altered_carbon2js9JsVariantaSERN4llvm8ArrayRefIPS1_EE
	movl	$64, %edi
	callq	__Znam
	movq	$1, (%rax)
	leaq	8(%rax), %rbx
	addq	$64, %rax
	movq	%rbx, %rcx
	.p2align	4, 0x90
LBB0_461:                               ## %initarr.bb1969
                                        ## =>This Inner Loop Header: Depth=1
	movq	%r14, (%rcx)
	movl	$1, 8(%rcx)
	addq	$56, %rcx
	cmpq	%rax, %rcx
	jne	LBB0_461
## %bb.462:                             ## %initarr.bb1969e
	leaq	-37072(%rbp), %rsi
	movq	%rbx, %rdi
	callq	__ZN14altered_carbon2js9JsVariantaSERKS1_
	movq	%rbx, -2928(%rbp)
	movq	%rsp, %rax
	leaq	-16(%rax), %rsi
	movq	%rsi, %rsp
	leaq	-2928(%rbp), %rcx
	movq	%rcx, -16(%rax)
	movq	$1, -8(%rax)
	leaq	-37016(%rbp), %rdi
	callq	__ZN14altered_carbon2js9JsVariantaSERN4llvm8ArrayRefIPS1_EE
	leaq	-36960(%rbp), %rdi
	movl	$1, %esi
	callq	__ZN14altered_carbon2js9JsVariantaSEx
	leaq	-36904(%rbp), %rdi
	movl	$2, %esi
	callq	__ZN14altered_carbon2js9JsVariantaSEx
	movl	$120, %edi
	callq	__Znam
	movq	$2, (%rax)
	leaq	8(%rax), %rbx
	addq	$120, %rax
	movq	%rbx, %rcx
	.p2align	4, 0x90
LBB0_463:                               ## %initarr.bb1979
                                        ## =>This Inner Loop Header: Depth=1
	movq	%r14, (%rcx)
	movl	$1, 8(%rcx)
	addq	$56, %rcx
	cmpq	%rax, %rcx
	jne	LBB0_463
## %bb.464:                             ## %initarr.bb1979e
	leaq	-36960(%rbp), %rsi
	movq	%rbx, %rdi
	callq	__ZN14altered_carbon2js9JsVariantaSERKS1_
	movq	%rbx, -7200(%rbp)
	addq	$56, %rbx
	leaq	-36904(%rbp), %rsi
	movq	%rbx, %rdi
	callq	__ZN14altered_carbon2js9JsVariantaSERKS1_
	movq	%rbx, -7192(%rbp)
	movq	%rsp, %rax
	leaq	-16(%rax), %rsi
	movq	%rsi, %rsp
	leaq	-7200(%rbp), %rcx
	movq	%rcx, -16(%rax)
	movq	$2, -8(%rax)
	leaq	-36848(%rbp), %rdi
	callq	__ZN14altered_carbon2js9JsVariantaSERN4llvm8ArrayRefIPS1_EE
	leaq	-36792(%rbp), %rdi
	movl	$3, %esi
	callq	__ZN14altered_carbon2js9JsVariantaSEx
	leaq	-36736(%rbp), %rdi
	movl	$4, %esi
	callq	__ZN14altered_carbon2js9JsVariantaSEx
	movl	$120, %edi
	callq	__Znam
	movq	$2, (%rax)
	leaq	8(%rax), %rbx
	addq	$120, %rax
	movq	%rbx, %rcx
	.p2align	4, 0x90
LBB0_465:                               ## %initarr.bb1989
                                        ## =>This Inner Loop Header: Depth=1
	movq	%r14, (%rcx)
	movl	$1, 8(%rcx)
	addq	$56, %rcx
	cmpq	%rax, %rcx
	jne	LBB0_465
## %bb.466:                             ## %initarr.bb1989e
	leaq	-36792(%rbp), %rsi
	movq	%rbx, %rdi
	callq	__ZN14altered_carbon2js9JsVariantaSERKS1_
	movq	%rbx, -7184(%rbp)
	addq	$56, %rbx
	leaq	-36736(%rbp), %rsi
	movq	%rbx, %rdi
	callq	__ZN14altered_carbon2js9JsVariantaSERKS1_
	movq	%rbx, -7176(%rbp)
	movq	%rsp, %rax
	leaq	-16(%rax), %rsi
	movq	%rsi, %rsp
	leaq	-7184(%rbp), %rcx
	movq	%rcx, -16(%rax)
	movq	$2, -8(%rax)
	leaq	-36680(%rbp), %rdi
	callq	__ZN14altered_carbon2js9JsVariantaSERN4llvm8ArrayRefIPS1_EE
	movl	$120, %edi
	callq	__Znam
	movq	$2, (%rax)
	leaq	8(%rax), %rbx
	addq	$120, %rax
	movq	%rbx, %rcx
	.p2align	4, 0x90
LBB0_467:                               ## %initarr.bb1997
                                        ## =>This Inner Loop Header: Depth=1
	movq	%r14, (%rcx)
	movl	$1, 8(%rcx)
	addq	$56, %rcx
	cmpq	%rax, %rcx
	jne	LBB0_467
## %bb.468:                             ## %initarr.bb1997e
	leaq	-36848(%rbp), %rsi
	movq	%rbx, %rdi
	callq	__ZN14altered_carbon2js9JsVariantaSERKS1_
	movq	%rbx, -7168(%rbp)
	addq	$56, %rbx
	leaq	-36680(%rbp), %rsi
	movq	%rbx, %rdi
	callq	__ZN14altered_carbon2js9JsVariantaSERKS1_
	movq	%rbx, -7160(%rbp)
	movq	%rsp, %rax
	leaq	-16(%rax), %rsi
	movq	%rsi, %rsp
	leaq	-7168(%rbp), %rcx
	movq	%rcx, -16(%rax)
	movq	$2, -8(%rax)
	leaq	-36624(%rbp), %rdi
	callq	__ZN14altered_carbon2js9JsVariantaSERN4llvm8ArrayRefIPS1_EE
	movl	$64, %edi
	callq	__Znam
	movq	$1, (%rax)
	leaq	8(%rax), %rbx
	addq	$64, %rax
	movq	%rbx, %rcx
	.p2align	4, 0x90
LBB0_469:                               ## %initarr.bb2005
                                        ## =>This Inner Loop Header: Depth=1
	movq	%r14, (%rcx)
	movl	$1, 8(%rcx)
	addq	$56, %rcx
	cmpq	%rax, %rcx
	jne	LBB0_469
## %bb.470:                             ## %initarr.bb2005e
	leaq	-36624(%rbp), %rsi
	movq	%rbx, %rdi
	callq	__ZN14altered_carbon2js9JsVariantaSERKS1_
	movq	%rbx, -2912(%rbp)
	movq	%rsp, %rax
	leaq	-16(%rax), %rsi
	movq	%rsi, %rsp
	leaq	-2912(%rbp), %rcx
	movq	%rcx, -16(%rax)
	movq	$1, -8(%rax)
	leaq	-36568(%rbp), %rdi
	callq	__ZN14altered_carbon2js9JsVariantaSERN4llvm8ArrayRefIPS1_EE
	movl	$64, %edi
	callq	__Znam
	movq	$1, (%rax)
	leaq	8(%rax), %rbx
	addq	$64, %rax
	movq	%rbx, %rcx
	.p2align	4, 0x90
LBB0_471:                               ## %initarr.bb2013
                                        ## =>This Inner Loop Header: Depth=1
	movq	%r14, (%rcx)
	movl	$1, 8(%rcx)
	addq	$56, %rcx
	cmpq	%rax, %rcx
	jne	LBB0_471
## %bb.472:                             ## %initarr.bb2013e
	leaq	-36568(%rbp), %rsi
	movq	%rbx, %rdi
	callq	__ZN14altered_carbon2js9JsVariantaSERKS1_
	movq	%rbx, -2896(%rbp)
	movq	%rsp, %rax
	leaq	-16(%rax), %rsi
	movq	%rsi, %rsp
	leaq	-2896(%rbp), %rcx
	movq	%rcx, -16(%rax)
	movq	$1, -8(%rax)
	leaq	-36512(%rbp), %rdi
	callq	__ZN14altered_carbon2js9JsVariantaSERN4llvm8ArrayRefIPS1_EE
	movl	$64, %edi
	callq	__Znam
	movq	$1, (%rax)
	leaq	8(%rax), %rbx
	addq	$64, %rax
	movq	%rbx, %rcx
	.p2align	4, 0x90
LBB0_473:                               ## %initarr.bb2021
                                        ## =>This Inner Loop Header: Depth=1
	movq	%r14, (%rcx)
	movl	$1, 8(%rcx)
	addq	$56, %rcx
	cmpq	%rax, %rcx
	jne	LBB0_473
## %bb.474:                             ## %initarr.bb2021e
	leaq	-36512(%rbp), %rsi
	movq	%rbx, %rdi
	callq	__ZN14altered_carbon2js9JsVariantaSERKS1_
	movq	%rbx, -2880(%rbp)
	movq	%rsp, %rax
	leaq	-16(%rax), %rsi
	movq	%rsi, %rsp
	leaq	-2880(%rbp), %rcx
	movq	%rcx, -16(%rax)
	movq	$1, -8(%rax)
	leaq	-36456(%rbp), %rdi
	callq	__ZN14altered_carbon2js9JsVariantaSERN4llvm8ArrayRefIPS1_EE
	movl	$64, %edi
	callq	__Znam
	movq	$1, (%rax)
	leaq	8(%rax), %rbx
	addq	$64, %rax
	movq	%rbx, %rcx
	.p2align	4, 0x90
LBB0_475:                               ## %initarr.bb2029
                                        ## =>This Inner Loop Header: Depth=1
	movq	%r14, (%rcx)
	movl	$1, 8(%rcx)
	addq	$56, %rcx
	cmpq	%rax, %rcx
	jne	LBB0_475
## %bb.476:                             ## %initarr.bb2029e
	leaq	-36456(%rbp), %rsi
	movq	%rbx, %rdi
	callq	__ZN14altered_carbon2js9JsVariantaSERKS1_
	movq	%rbx, -2864(%rbp)
	movq	%rsp, %rax
	leaq	-16(%rax), %rsi
	movq	%rsi, %rsp
	leaq	-2864(%rbp), %rcx
	movq	%rcx, -16(%rax)
	movq	$1, -8(%rax)
	leaq	-36400(%rbp), %rdi
	callq	__ZN14altered_carbon2js9JsVariantaSERN4llvm8ArrayRefIPS1_EE
	leaq	-36344(%rbp), %rdi
	movl	$1, %esi
	callq	__ZN14altered_carbon2js9JsVariantaSEx
	leaq	-36288(%rbp), %rdi
	movl	$2, %esi
	callq	__ZN14altered_carbon2js9JsVariantaSEx
	movl	$120, %edi
	callq	__Znam
	movq	$2, (%rax)
	leaq	8(%rax), %rbx
	addq	$120, %rax
	movq	%rbx, %rcx
	.p2align	4, 0x90
LBB0_477:                               ## %initarr.bb2039
                                        ## =>This Inner Loop Header: Depth=1
	movq	%r14, (%rcx)
	movl	$1, 8(%rcx)
	addq	$56, %rcx
	cmpq	%rax, %rcx
	jne	LBB0_477
## %bb.478:                             ## %initarr.bb2039e
	leaq	-36344(%rbp), %rsi
	movq	%rbx, %rdi
	callq	__ZN14altered_carbon2js9JsVariantaSERKS1_
	movq	%rbx, -7152(%rbp)
	addq	$56, %rbx
	leaq	-36288(%rbp), %rsi
	movq	%rbx, %rdi
	callq	__ZN14altered_carbon2js9JsVariantaSERKS1_
	movq	%rbx, -7144(%rbp)
	movq	%rsp, %rax
	leaq	-16(%rax), %rsi
	movq	%rsi, %rsp
	leaq	-7152(%rbp), %rcx
	movq	%rcx, -16(%rax)
	movq	$2, -8(%rax)
	leaq	-36232(%rbp), %rdi
	callq	__ZN14altered_carbon2js9JsVariantaSERN4llvm8ArrayRefIPS1_EE
	leaq	-36176(%rbp), %rdi
	movl	$3, %esi
	callq	__ZN14altered_carbon2js9JsVariantaSEx
	leaq	-36120(%rbp), %rdi
	movl	$4, %esi
	callq	__ZN14altered_carbon2js9JsVariantaSEx
	movl	$120, %edi
	callq	__Znam
	movq	$2, (%rax)
	leaq	8(%rax), %rbx
	addq	$120, %rax
	movq	%rbx, %rcx
	.p2align	4, 0x90
LBB0_479:                               ## %initarr.bb2049
                                        ## =>This Inner Loop Header: Depth=1
	movq	%r14, (%rcx)
	movl	$1, 8(%rcx)
	addq	$56, %rcx
	cmpq	%rax, %rcx
	jne	LBB0_479
## %bb.480:                             ## %initarr.bb2049e
	leaq	-36176(%rbp), %rsi
	movq	%rbx, %rdi
	callq	__ZN14altered_carbon2js9JsVariantaSERKS1_
	movq	%rbx, -7136(%rbp)
	addq	$56, %rbx
	leaq	-36120(%rbp), %rsi
	movq	%rbx, %rdi
	callq	__ZN14altered_carbon2js9JsVariantaSERKS1_
	movq	%rbx, -7128(%rbp)
	movq	%rsp, %rax
	leaq	-16(%rax), %rsi
	movq	%rsi, %rsp
	leaq	-7136(%rbp), %rcx
	movq	%rcx, -16(%rax)
	movq	$2, -8(%rax)
	leaq	-36064(%rbp), %rdi
	callq	__ZN14altered_carbon2js9JsVariantaSERN4llvm8ArrayRefIPS1_EE
	movl	$120, %edi
	callq	__Znam
	movq	$2, (%rax)
	leaq	8(%rax), %rbx
	addq	$120, %rax
	movq	%rbx, %rcx
	.p2align	4, 0x90
LBB0_481:                               ## %initarr.bb2057
                                        ## =>This Inner Loop Header: Depth=1
	movq	%r14, (%rcx)
	movl	$1, 8(%rcx)
	addq	$56, %rcx
	cmpq	%rax, %rcx
	jne	LBB0_481
## %bb.482:                             ## %initarr.bb2057e
	leaq	-36232(%rbp), %rsi
	movq	%rbx, %rdi
	callq	__ZN14altered_carbon2js9JsVariantaSERKS1_
	movq	%rbx, -7120(%rbp)
	addq	$56, %rbx
	leaq	-36064(%rbp), %rsi
	movq	%rbx, %rdi
	callq	__ZN14altered_carbon2js9JsVariantaSERKS1_
	movq	%rbx, -7112(%rbp)
	movq	%rsp, %rax
	leaq	-16(%rax), %rsi
	movq	%rsi, %rsp
	leaq	-7120(%rbp), %rcx
	movq	%rcx, -16(%rax)
	movq	$2, -8(%rax)
	leaq	-36008(%rbp), %rdi
	callq	__ZN14altered_carbon2js9JsVariantaSERN4llvm8ArrayRefIPS1_EE
	movl	$64, %edi
	callq	__Znam
	movq	$1, (%rax)
	leaq	8(%rax), %rbx
	addq	$64, %rax
	movq	%rbx, %rcx
	.p2align	4, 0x90
LBB0_483:                               ## %initarr.bb2065
                                        ## =>This Inner Loop Header: Depth=1
	movq	%r14, (%rcx)
	movl	$1, 8(%rcx)
	addq	$56, %rcx
	cmpq	%rax, %rcx
	jne	LBB0_483
## %bb.484:                             ## %initarr.bb2065e
	leaq	-36008(%rbp), %rsi
	movq	%rbx, %rdi
	callq	__ZN14altered_carbon2js9JsVariantaSERKS1_
	movq	%rbx, -2848(%rbp)
	movq	%rsp, %rax
	leaq	-16(%rax), %rsi
	movq	%rsi, %rsp
	leaq	-2848(%rbp), %rcx
	movq	%rcx, -16(%rax)
	movq	$1, -8(%rax)
	leaq	-35952(%rbp), %rdi
	callq	__ZN14altered_carbon2js9JsVariantaSERN4llvm8ArrayRefIPS1_EE
	movl	$64, %edi
	callq	__Znam
	movq	$1, (%rax)
	leaq	8(%rax), %rbx
	addq	$64, %rax
	movq	%rbx, %rcx
	.p2align	4, 0x90
LBB0_485:                               ## %initarr.bb2073
                                        ## =>This Inner Loop Header: Depth=1
	movq	%r14, (%rcx)
	movl	$1, 8(%rcx)
	addq	$56, %rcx
	cmpq	%rax, %rcx
	jne	LBB0_485
## %bb.486:                             ## %initarr.bb2073e
	leaq	-35952(%rbp), %rsi
	movq	%rbx, %rdi
	callq	__ZN14altered_carbon2js9JsVariantaSERKS1_
	movq	%rbx, -2832(%rbp)
	movq	%rsp, %rax
	leaq	-16(%rax), %rsi
	movq	%rsi, %rsp
	leaq	-2832(%rbp), %rcx
	movq	%rcx, -16(%rax)
	movq	$1, -8(%rax)
	leaq	-35896(%rbp), %rdi
	callq	__ZN14altered_carbon2js9JsVariantaSERN4llvm8ArrayRefIPS1_EE
	movl	$64, %edi
	callq	__Znam
	movq	$1, (%rax)
	leaq	8(%rax), %rbx
	addq	$64, %rax
	movq	%rbx, %rcx
	.p2align	4, 0x90
LBB0_487:                               ## %initarr.bb2081
                                        ## =>This Inner Loop Header: Depth=1
	movq	%r14, (%rcx)
	movl	$1, 8(%rcx)
	addq	$56, %rcx
	cmpq	%rax, %rcx
	jne	LBB0_487
## %bb.488:                             ## %initarr.bb2081e
	leaq	-35896(%rbp), %rsi
	movq	%rbx, %rdi
	callq	__ZN14altered_carbon2js9JsVariantaSERKS1_
	movq	%rbx, -2816(%rbp)
	movq	%rsp, %rax
	leaq	-16(%rax), %rsi
	movq	%rsi, %rsp
	leaq	-2816(%rbp), %rcx
	movq	%rcx, -16(%rax)
	movq	$1, -8(%rax)
	leaq	-35840(%rbp), %rdi
	callq	__ZN14altered_carbon2js9JsVariantaSERN4llvm8ArrayRefIPS1_EE
	movl	$64, %edi
	callq	__Znam
	movq	$1, (%rax)
	leaq	8(%rax), %rbx
	addq	$64, %rax
	movq	%rbx, %rcx
	.p2align	4, 0x90
LBB0_489:                               ## %initarr.bb2089
                                        ## =>This Inner Loop Header: Depth=1
	movq	%r14, (%rcx)
	movl	$1, 8(%rcx)
	addq	$56, %rcx
	cmpq	%rax, %rcx
	jne	LBB0_489
## %bb.490:                             ## %initarr.bb2089e
	leaq	-35840(%rbp), %rsi
	movq	%rbx, %rdi
	callq	__ZN14altered_carbon2js9JsVariantaSERKS1_
	movq	%rbx, -2800(%rbp)
	movq	%rsp, %rax
	leaq	-16(%rax), %rsi
	movq	%rsi, %rsp
	leaq	-2800(%rbp), %rcx
	movq	%rcx, -16(%rax)
	movq	$1, -8(%rax)
	leaq	-35784(%rbp), %rdi
	callq	__ZN14altered_carbon2js9JsVariantaSERN4llvm8ArrayRefIPS1_EE
	leaq	-35728(%rbp), %rdi
	movl	$1, %esi
	callq	__ZN14altered_carbon2js9JsVariantaSEx
	leaq	-35672(%rbp), %rdi
	movl	$2, %esi
	callq	__ZN14altered_carbon2js9JsVariantaSEx
	movl	$120, %edi
	callq	__Znam
	movq	$2, (%rax)
	leaq	8(%rax), %rbx
	addq	$120, %rax
	movq	%rbx, %rcx
	.p2align	4, 0x90
LBB0_491:                               ## %initarr.bb2099
                                        ## =>This Inner Loop Header: Depth=1
	movq	%r14, (%rcx)
	movl	$1, 8(%rcx)
	addq	$56, %rcx
	cmpq	%rax, %rcx
	jne	LBB0_491
## %bb.492:                             ## %initarr.bb2099e
	leaq	-35728(%rbp), %rsi
	movq	%rbx, %rdi
	callq	__ZN14altered_carbon2js9JsVariantaSERKS1_
	movq	%rbx, -7104(%rbp)
	addq	$56, %rbx
	leaq	-35672(%rbp), %rsi
	movq	%rbx, %rdi
	callq	__ZN14altered_carbon2js9JsVariantaSERKS1_
	movq	%rbx, -7096(%rbp)
	movq	%rsp, %rax
	leaq	-16(%rax), %rsi
	movq	%rsi, %rsp
	leaq	-7104(%rbp), %rcx
	movq	%rcx, -16(%rax)
	movq	$2, -8(%rax)
	leaq	-35616(%rbp), %rdi
	callq	__ZN14altered_carbon2js9JsVariantaSERN4llvm8ArrayRefIPS1_EE
	leaq	-35560(%rbp), %rdi
	movl	$3, %esi
	callq	__ZN14altered_carbon2js9JsVariantaSEx
	leaq	-35504(%rbp), %rdi
	movl	$4, %esi
	callq	__ZN14altered_carbon2js9JsVariantaSEx
	movl	$120, %edi
	callq	__Znam
	movq	$2, (%rax)
	leaq	8(%rax), %rbx
	addq	$120, %rax
	movq	%rbx, %rcx
	.p2align	4, 0x90
LBB0_493:                               ## %initarr.bb2109
                                        ## =>This Inner Loop Header: Depth=1
	movq	%r14, (%rcx)
	movl	$1, 8(%rcx)
	addq	$56, %rcx
	cmpq	%rax, %rcx
	jne	LBB0_493
## %bb.494:                             ## %initarr.bb2109e
	leaq	-35560(%rbp), %rsi
	movq	%rbx, %rdi
	callq	__ZN14altered_carbon2js9JsVariantaSERKS1_
	movq	%rbx, -7088(%rbp)
	addq	$56, %rbx
	leaq	-35504(%rbp), %rsi
	movq	%rbx, %rdi
	callq	__ZN14altered_carbon2js9JsVariantaSERKS1_
	movq	%rbx, -7080(%rbp)
	movq	%rsp, %rax
	leaq	-16(%rax), %rsi
	movq	%rsi, %rsp
	leaq	-7088(%rbp), %rcx
	movq	%rcx, -16(%rax)
	movq	$2, -8(%rax)
	leaq	-35448(%rbp), %rdi
	callq	__ZN14altered_carbon2js9JsVariantaSERN4llvm8ArrayRefIPS1_EE
	movl	$120, %edi
	callq	__Znam
	movq	$2, (%rax)
	leaq	8(%rax), %rbx
	addq	$120, %rax
	movq	%rbx, %rcx
	.p2align	4, 0x90
LBB0_495:                               ## %initarr.bb2117
                                        ## =>This Inner Loop Header: Depth=1
	movq	%r14, (%rcx)
	movl	$1, 8(%rcx)
	addq	$56, %rcx
	cmpq	%rax, %rcx
	jne	LBB0_495
## %bb.496:                             ## %initarr.bb2117e
	leaq	-35616(%rbp), %rsi
	movq	%rbx, %rdi
	callq	__ZN14altered_carbon2js9JsVariantaSERKS1_
	movq	%rbx, -7072(%rbp)
	addq	$56, %rbx
	leaq	-35448(%rbp), %rsi
	movq	%rbx, %rdi
	callq	__ZN14altered_carbon2js9JsVariantaSERKS1_
	movq	%rbx, -7064(%rbp)
	movq	%rsp, %rax
	leaq	-16(%rax), %rsi
	movq	%rsi, %rsp
	leaq	-7072(%rbp), %rcx
	movq	%rcx, -16(%rax)
	movq	$2, -8(%rax)
	leaq	-35392(%rbp), %rdi
	callq	__ZN14altered_carbon2js9JsVariantaSERN4llvm8ArrayRefIPS1_EE
	movl	$64, %edi
	callq	__Znam
	movq	$1, (%rax)
	leaq	8(%rax), %rbx
	addq	$64, %rax
	movq	%rbx, %rcx
	.p2align	4, 0x90
LBB0_497:                               ## %initarr.bb2125
                                        ## =>This Inner Loop Header: Depth=1
	movq	%r14, (%rcx)
	movl	$1, 8(%rcx)
	addq	$56, %rcx
	cmpq	%rax, %rcx
	jne	LBB0_497
## %bb.498:                             ## %initarr.bb2125e
	leaq	-35392(%rbp), %rsi
	movq	%rbx, %rdi
	callq	__ZN14altered_carbon2js9JsVariantaSERKS1_
	movq	%rbx, -2784(%rbp)
	movq	%rsp, %rax
	leaq	-16(%rax), %rsi
	movq	%rsi, %rsp
	leaq	-2784(%rbp), %rcx
	movq	%rcx, -16(%rax)
	movq	$1, -8(%rax)
	leaq	-35336(%rbp), %rdi
	callq	__ZN14altered_carbon2js9JsVariantaSERN4llvm8ArrayRefIPS1_EE
	movl	$64, %edi
	callq	__Znam
	movq	$1, (%rax)
	leaq	8(%rax), %rbx
	addq	$64, %rax
	movq	%rbx, %rcx
	.p2align	4, 0x90
LBB0_499:                               ## %initarr.bb2133
                                        ## =>This Inner Loop Header: Depth=1
	movq	%r14, (%rcx)
	movl	$1, 8(%rcx)
	addq	$56, %rcx
	cmpq	%rax, %rcx
	jne	LBB0_499
## %bb.500:                             ## %initarr.bb2133e
	leaq	-35336(%rbp), %rsi
	movq	%rbx, %rdi
	callq	__ZN14altered_carbon2js9JsVariantaSERKS1_
	movq	%rbx, -2768(%rbp)
	movq	%rsp, %rax
	leaq	-16(%rax), %rsi
	movq	%rsi, %rsp
	leaq	-2768(%rbp), %rcx
	movq	%rcx, -16(%rax)
	movq	$1, -8(%rax)
	leaq	-35280(%rbp), %rdi
	callq	__ZN14altered_carbon2js9JsVariantaSERN4llvm8ArrayRefIPS1_EE
	movl	$64, %edi
	callq	__Znam
	movq	$1, (%rax)
	leaq	8(%rax), %rbx
	addq	$64, %rax
	movq	%rbx, %rcx
	.p2align	4, 0x90
