	.section	__TEXT,__text,regular,pure_instructions
	.macosx_version_min 10, 13
	.globl	__Z7_scriptPN14altered_carbon2js9JsVariantE ## -- Begin function _Z7_scriptPN14altered_carbon2js9JsVariantE
	.p2align	4, 0x90
__Z7_scriptPN14altered_carbon2js9JsVariantE: ## @_Z7_scriptPN14altered_carbon2js9JsVariantE
	.cfi_startproc
## %bb.0:                               ## %init.bb
	pushq	%r15
	.cfi_def_cfa_offset 16
	pushq	%r14
	.cfi_def_cfa_offset 24
	pushq	%rbx
	.cfi_def_cfa_offset 32
	subq	$624, %rsp              ## imm = 0x270
	.cfi_def_cfa_offset 656
	.cfi_offset %rbx, -32
	.cfi_offset %r14, -24
	.cfi_offset %r15, -16
	movq	__ZTVN14altered_carbon2js9JsVariantE@GOTPCREL(%rip), %rax
	addq	$16, %rax
	movq	%rax, 568(%rsp)
	movl	$1, 576(%rsp)
	movq	%rax, 512(%rsp)
	movl	$1, 520(%rsp)
	movq	%rax, 456(%rsp)
	movl	$1, 464(%rsp)
	movq	%rax, 400(%rsp)
	movl	$1, 408(%rsp)
	movq	%rax, 344(%rsp)
	movl	$1, 352(%rsp)
	movq	%rax, 288(%rsp)
	movl	$1, 296(%rsp)
	movq	%rax, 232(%rsp)
	movl	$1, 240(%rsp)
	movq	%rax, 176(%rsp)
	movl	$1, 184(%rsp)
	movq	%rax, 120(%rsp)
	movl	$1, 128(%rsp)
	movq	%rax, 64(%rsp)
	movl	$1, 72(%rsp)
	movq	%rax, 8(%rsp)
	movl	$1, 16(%rsp)
	movq	%rdi, %r14
	leaq	568(%rsp), %r15
	movl	$1, %esi
	movq	%r15, %rdi
	callq	__ZN14altered_carbon2js9JsVariantaSEx
	leaq	512(%rsp), %rbx
	movl	$2, %esi
	movq	%rbx, %rdi
	callq	__ZN14altered_carbon2js9JsVariantaSEx
	leaq	456(%rsp), %rsi
	movq	%r15, %rdi
	movq	%rbx, %rdx
	callq	__ZNK14altered_carbon2js9JsVariant3addEPS1_RKS1_
	movq	%rax, %rbx
	leaq	400(%rsp), %r15
	movl	$3, %esi
	movq	%r15, %rdi
	callq	__ZN14altered_carbon2js9JsVariantaSEx
	leaq	344(%rsp), %rsi
	movq	%rbx, %rdi
	movq	%r15, %rdx
	callq	__ZNK14altered_carbon2js9JsVariant3addEPS1_RKS1_
	movq	%rax, %rbx
	leaq	288(%rsp), %r15
	movl	$4, %esi
	movq	%r15, %rdi
	callq	__ZN14altered_carbon2js9JsVariantaSEx
	leaq	232(%rsp), %rsi
	movq	%rbx, %rdi
	movq	%r15, %rdx
	callq	__ZNK14altered_carbon2js9JsVariant3addEPS1_RKS1_
	movq	%rax, %rbx
	leaq	176(%rsp), %r15
	movl	$5, %esi
	movq	%r15, %rdi
	callq	__ZN14altered_carbon2js9JsVariantaSEx
	leaq	120(%rsp), %rsi
	movq	%rbx, %rdi
	movq	%r15, %rdx
	callq	__ZNK14altered_carbon2js9JsVariant3addEPS1_RKS1_
	movq	%rax, %rbx
	leaq	64(%rsp), %r15
	movl	$6, %esi
	movq	%r15, %rdi
	callq	__ZN14altered_carbon2js9JsVariantaSEx
	leaq	8(%rsp), %rsi
	movq	%rbx, %rdi
	movq	%r15, %rdx
	callq	__ZNK14altered_carbon2js9JsVariant3addEPS1_RKS1_
	movq	%r14, %rdi
	movq	%rax, %rsi
	callq	__ZN14altered_carbon2js9JsVariantaSERKS1_
	leaq	8(%rsp), %rdi
	callq	__ZN14altered_carbon2js9JsVariantD1Ev
	leaq	64(%rsp), %rdi
	callq	__ZN14altered_carbon2js9JsVariantD1Ev
	leaq	120(%rsp), %rdi
	callq	__ZN14altered_carbon2js9JsVariantD1Ev
	leaq	176(%rsp), %rdi
	callq	__ZN14altered_carbon2js9JsVariantD1Ev
	leaq	232(%rsp), %rdi
	callq	__ZN14altered_carbon2js9JsVariantD1Ev
	leaq	288(%rsp), %rdi
	callq	__ZN14altered_carbon2js9JsVariantD1Ev
	leaq	344(%rsp), %rdi
	callq	__ZN14altered_carbon2js9JsVariantD1Ev
	leaq	400(%rsp), %rdi
	callq	__ZN14altered_carbon2js9JsVariantD1Ev
	leaq	456(%rsp), %rdi
	callq	__ZN14altered_carbon2js9JsVariantD1Ev
	leaq	512(%rsp), %rdi
	callq	__ZN14altered_carbon2js9JsVariantD1Ev
	leaq	568(%rsp), %rdi
	callq	__ZN14altered_carbon2js9JsVariantD1Ev
	addq	$624, %rsp              ## imm = 0x270
	popq	%rbx
	popq	%r14
	popq	%r15
	retq
	.cfi_endproc
                                        ## -- End function
	.section	__TEXT,__const
	.globl	__ZTSN14altered_carbon2js9JsVariantE ## @_ZTSN14altered_carbon2js9JsVariantE
	.weak_definition	__ZTSN14altered_carbon2js9JsVariantE
	.p2align	4
__ZTSN14altered_carbon2js9JsVariantE:
	.asciz	"N14altered_carbon2js9JsVariantE"

	.section	__DATA,__const
	.globl	__ZTIN14altered_carbon2js9JsVariantE ## @_ZTIN14altered_carbon2js9JsVariantE
	.weak_definition	__ZTIN14altered_carbon2js9JsVariantE
	.p2align	3
__ZTIN14altered_carbon2js9JsVariantE:
	.quad	__ZTVN10__cxxabiv117__class_type_infoE+16
	.quad	__ZTSN14altered_carbon2js9JsVariantE

	.globl	__ZTVN14altered_carbon2js9JsVariantE ## @_ZTVN14altered_carbon2js9JsVariantE
	.weak_def_can_be_hidden	__ZTVN14altered_carbon2js9JsVariantE
	.p2align	3
__ZTVN14altered_carbon2js9JsVariantE:
	.quad	0
	.quad	__ZTIN14altered_carbon2js9JsVariantE
	.quad	__ZN14altered_carbon2js9JsVariantD1Ev
	.quad	__ZN14altered_carbon2js9JsVariantD0Ev


.subsections_via_symbols
