define void @_ZN14altered_carbon2js8binaryOpERNS0_10JsValueRefEiS2_RKS1_(%"class.altered_carbon::js::JsValueRef"* dereferenceable(24), i32, %"class.altered_carbon::js::JsValueRef"* dereferenceable(24), %"class.altered_carbon::js::JsValueRef"* dereferenceable(24)) #0 !dbg !5243 {

define void @_ZN14altered_carbon2js8binaryOpERNS0_10JsValueRefEiS2_RKNSt3__18auto_ptrINS0_9ACJsValueEEE(%"class.altered_carbon::js::JsValueRef"* dereferenceable(24), i32, %"class.altered_carbon::js::JsValueRef"* dereferenceable(24), %"class.std::__1::auto_ptr"* dereferenceable(8)) #0 !dbg !5350 {

define void @_ZN14altered_carbon2js8binaryOpERNS0_10JsValueRefEiRNSt3__18auto_ptrINS0_9ACJsValueEEERKS1_(%"class.altered_carbon::js::JsValueRef"* dereferenceable(24), i32, %"class.std::__1::auto_ptr"* dereferenceable(8), %"class.altered_carbon::js::JsValueRef"* dereferenceable(24)) #0 !dbg !5374 {

define void @_ZN14altered_carbon2js8binaryOpERNS0_10JsValueRefEiRNSt3__18auto_ptrINS0_9ACJsValueEEERKS6_(%"class.altered_carbon::js::JsValueRef"* dereferenceable(24), i32, %"class.std::__1::auto_ptr"* dereferenceable(8), %"class.std::__1::auto_ptr"* dereferenceable(8)) #0 !dbg !5397 {

define void @_ZN14altered_carbon2js8binaryOpERNSt3__18auto_ptrINS0_9ACJsValueEEEiRNS0_10JsValueRefERKS6_(%"class.std::__1::auto_ptr"* dereferenceable(8), i32, %"class.altered_carbon::js::JsValueRef"* dereferenceable(24), %"class.altered_carbon::js::JsValueRef"* dereferenceable(24)) #0 !dbg !5420 {

define void @_ZN14altered_carbon2js8binaryOpERNSt3__18auto_ptrINS0_9ACJsValueEEEiRNS0_10JsValueRefERKS4_(%"class.std::__1::auto_ptr"* dereferenceable(8), i32, %"class.altered_carbon::js::JsValueRef"* dereferenceable(24), %"class.std::__1::auto_ptr"* dereferenceable(8)) #0 !dbg !5479 {

define void @_ZN14altered_carbon2js8binaryOpERNSt3__18auto_ptrINS0_9ACJsValueEEEiS5_RKNS0_10JsValueRefE(%"class.std::__1::auto_ptr"* dereferenceable(8), i32, %"class.std::__1::auto_ptr"* dereferenceable(8), %"class.altered_carbon::js::JsValueRef"* dereferenceable(24)) #0 !dbg !5502 {

define void @_ZN14altered_carbon2js8binaryOpERNSt3__18auto_ptrINS0_9ACJsValueEEEiS5_RKS4_(%"class.std::__1::auto_ptr"* dereferenceable(8), i32, %"class.std::__1::auto_ptr"* dereferenceable(8), %"class.std::__1::auto_ptr"* dereferenceable(8)) #0 !dbg !5525 {

define void @_ZN14altered_carbon2js8binaryOpERNS0_10JsValueRefEiPNS0_9ACJsValueEPKS3_(%"class.altered_carbon::js::JsValueRef"* dereferenceable(24), i32, %"class.altered_carbon::js::ACJsValue"*, %"class.altered_carbon::js::ACJsValue"*) #0 !dbg !5266 {

define void @_ZN14altered_carbon2js8binaryOpERNSt3__18auto_ptrINS0_9ACJsValueEEEiPS3_PKS3_(%"class.std::__1::auto_ptr"* dereferenceable(8), i32, %"class.altered_carbon::js::ACJsValue"*, %"class.altered_carbon::js::ACJsValue"*) #0 !dbg !5443 {

