	.section	__TEXT,__text,regular,pure_instructions
	.macosx_version_min 10, 13
	.globl	__Z7_scriptPN14altered_carbon2js9JsVariantE ## -- Begin function _Z7_scriptPN14altered_carbon2js9JsVariantE
	.p2align	4, 0x90
__Z7_scriptPN14altered_carbon2js9JsVariantE: ## @_Z7_scriptPN14altered_carbon2js9JsVariantE
	.cfi_startproc
## %bb.0:                               ## %init.bb
	pushq	%rbp
	.cfi_def_cfa_offset 16
	pushq	%r15
	.cfi_def_cfa_offset 24
	pushq	%r14
	.cfi_def_cfa_offset 32
	pushq	%r13
	.cfi_def_cfa_offset 40
	pushq	%r12
	.cfi_def_cfa_offset 48
	pushq	%rbx
	.cfi_def_cfa_offset 56
	subq	$904, %rsp              ## imm = 0x388
	.cfi_def_cfa_offset 960
	.cfi_offset %rbx, -56
	.cfi_offset %r12, -48
	.cfi_offset %r13, -40
	.cfi_offset %r14, -32
	.cfi_offset %r15, -24
	.cfi_offset %rbp, -16
	movq	%rdi, (%rsp)            ## 8-byte Spill
	movq	__ZTVN14altered_carbon2js9JsVariantE@GOTPCREL(%rip), %rax
	addq	$16, %rax
	movq	%rax, 792(%rsp)
	movl	$1, 800(%rsp)
	movq	%rax, 8(%rsp)
	movl	$1, 16(%rsp)
	movq	%rax, 736(%rsp)
	movl	$1, 744(%rsp)
	movq	%rax, 680(%rsp)
	movl	$1, 688(%rsp)
	movq	%rax, 624(%rsp)
	movl	$1, 632(%rsp)
	movq	%rax, 568(%rsp)
	movl	$1, 576(%rsp)
	movq	%rax, 512(%rsp)
	movl	$1, 520(%rsp)
	movq	%rax, 456(%rsp)
	movl	$1, 464(%rsp)
	movq	%rax, 400(%rsp)
	movl	$1, 408(%rsp)
	movq	%rax, 344(%rsp)
	movl	$1, 352(%rsp)
	movq	%rax, 288(%rsp)
	movl	$1, 296(%rsp)
	movq	%rax, 232(%rsp)
	movl	$1, 240(%rsp)
	movq	%rax, 176(%rsp)
	movl	$1, 184(%rsp)
	movq	%rax, 848(%rsp)
	movl	$1, 856(%rsp)
	movq	%rax, 120(%rsp)
	movl	$1, 128(%rsp)
	movq	%rax, 64(%rsp)
	movl	$1, 72(%rsp)
	leaq	792(%rsp), %rbx
	movl	$1, %esi
	movq	%rbx, %rdi
	callq	__ZN14altered_carbon2js9JsVariantaSEx
	leaq	8(%rsp), %rdi
	movq	%rbx, %rsi
	callq	__ZN14altered_carbon2js9JsVariantaSERKS1_
	leaq	736(%rsp), %rbp
	movl	$1, %esi
	movq	%rbp, %rdi
	callq	__ZN14altered_carbon2js9JsVariantaSEx
	leaq	680(%rsp), %rbx
	movq	%rbx, %rdi
	movq	%rbp, %rsi
	callq	__ZN14altered_carbon2js9JsVariantaSERKS1_
	leaq	624(%rsp), %rbp
	movl	$1, %esi
	movq	%rbp, %rdi
	callq	__ZN14altered_carbon2js9JsVariantaSEx
	leaq	568(%rsp), %r12
	movq	%r12, %rdi
	movq	%rbp, %rsi
	callq	__ZN14altered_carbon2js9JsVariantaSERKS1_
	leaq	120(%rsp), %r13
	leaq	288(%rsp), %r15
	jmp	LBB0_2
	.p2align	4, 0x90
LBB0_1:                                 ## %while.bb
                                        ##   in Loop: Header=BB0_2 Depth=1
	movq	%r12, %rdi
	leaq	512(%rsp), %rsi
	movq	%rbx, %rdx
	callq	__ZNK14altered_carbon2js9JsVariant3mulEPS1_RKS1_
	movq	%r12, %rdi
	movq	%rax, %rsi
	callq	__ZN14altered_carbon2js9JsVariantaSERKS1_
	movl	$1, %esi
	leaq	456(%rsp), %rbp
	movq	%rbp, %rdi
	callq	__ZN14altered_carbon2js9JsVariantaSEx
	movq	%rbp, %rdi
	leaq	400(%rsp), %rsi
	movq	%r12, %rdx
	callq	__ZNK14altered_carbon2js9JsVariant3divEPS1_RKS1_
	leaq	8(%rsp), %r14
	movq	%r14, %rdi
	leaq	344(%rsp), %rsi
	movq	%rax, %rdx
	callq	__ZNK14altered_carbon2js9JsVariant3addEPS1_RKS1_
	movq	%r14, %rdi
	movq	%rax, %rsi
	callq	__ZN14altered_carbon2js9JsVariantaSERKS1_
	movl	$1, %esi
	movq	%r15, %rdi
	callq	__ZN14altered_carbon2js9JsVariantaSEx
	movq	%rbx, %rdi
	leaq	232(%rsp), %rsi
	movq	%r15, %rdx
	callq	__ZNK14altered_carbon2js9JsVariant3addEPS1_RKS1_
	movq	%rbx, %rdi
	movq	%rax, %rsi
	callq	__ZN14altered_carbon2js9JsVariantaSERKS1_
LBB0_2:                                 ## %while.bbe
                                        ## =>This Inner Loop Header: Depth=1
	movl	$60, %esi
	leaq	176(%rsp), %rbp
	movq	%rbp, %rdi
	callq	__ZN14altered_carbon2js9JsVariantaSEx
	movq	%rbx, %rdi
	movq	%rbp, %rsi
	callq	__ZNK14altered_carbon2js9JsVariantltERKS1_
	movzbl	%al, %esi
	movq	%r13, %rdi
	callq	__ZN14altered_carbon2js9JsVariantC1Eb
	movq	%r13, %rdi
	callq	__ZNK14altered_carbon2js9JsVariant9asBooleanEv
	testb	%al, %al
	jne	LBB0_1
## %bb.3:                               ## %sectee
	leaq	64(%rsp), %rdi
	leaq	8(%rsp), %rsi
	callq	__ZN14altered_carbon2js9JsVariantaSERKS1_
	leaq	64(%rsp), %rbx
	movq	(%rsp), %rdi            ## 8-byte Reload
	movq	%rbx, %rsi
	callq	__ZN14altered_carbon2js9JsVariantaSERKS1_
	movq	%rbx, %rdi
	callq	__ZN14altered_carbon2js9JsVariantD1Ev
	leaq	120(%rsp), %rdi
	callq	__ZN14altered_carbon2js9JsVariantD1Ev
	leaq	848(%rsp), %rdi
	callq	__ZN14altered_carbon2js9JsVariantD1Ev
	leaq	176(%rsp), %rdi
	callq	__ZN14altered_carbon2js9JsVariantD1Ev
	leaq	232(%rsp), %rdi
	callq	__ZN14altered_carbon2js9JsVariantD1Ev
	leaq	288(%rsp), %rdi
	callq	__ZN14altered_carbon2js9JsVariantD1Ev
	leaq	344(%rsp), %rdi
	callq	__ZN14altered_carbon2js9JsVariantD1Ev
	leaq	400(%rsp), %rdi
	callq	__ZN14altered_carbon2js9JsVariantD1Ev
	leaq	456(%rsp), %rdi
	callq	__ZN14altered_carbon2js9JsVariantD1Ev
	leaq	512(%rsp), %rdi
	callq	__ZN14altered_carbon2js9JsVariantD1Ev
	leaq	568(%rsp), %rdi
	callq	__ZN14altered_carbon2js9JsVariantD1Ev
	leaq	624(%rsp), %rdi
	callq	__ZN14altered_carbon2js9JsVariantD1Ev
	leaq	680(%rsp), %rdi
	callq	__ZN14altered_carbon2js9JsVariantD1Ev
	leaq	736(%rsp), %rdi
	callq	__ZN14altered_carbon2js9JsVariantD1Ev
	leaq	8(%rsp), %rdi
	callq	__ZN14altered_carbon2js9JsVariantD1Ev
	leaq	792(%rsp), %rdi
	callq	__ZN14altered_carbon2js9JsVariantD1Ev
	addq	$904, %rsp              ## imm = 0x388
	popq	%rbx
	popq	%r12
	popq	%r13
	popq	%r14
	popq	%r15
	popq	%rbp
	retq
	.cfi_endproc
                                        ## -- End function
	.section	__TEXT,__const
	.globl	__ZTSN14altered_carbon2js9JsVariantE ## @_ZTSN14altered_carbon2js9JsVariantE
	.weak_definition	__ZTSN14altered_carbon2js9JsVariantE
	.p2align	4
__ZTSN14altered_carbon2js9JsVariantE:
	.asciz	"N14altered_carbon2js9JsVariantE"

	.section	__DATA,__const
	.globl	__ZTIN14altered_carbon2js9JsVariantE ## @_ZTIN14altered_carbon2js9JsVariantE
	.weak_definition	__ZTIN14altered_carbon2js9JsVariantE
	.p2align	3
__ZTIN14altered_carbon2js9JsVariantE:
	.quad	__ZTVN10__cxxabiv117__class_type_infoE+16
	.quad	__ZTSN14altered_carbon2js9JsVariantE

	.globl	__ZTVN14altered_carbon2js9JsVariantE ## @_ZTVN14altered_carbon2js9JsVariantE
	.weak_def_can_be_hidden	__ZTVN14altered_carbon2js9JsVariantE
	.p2align	3
__ZTVN14altered_carbon2js9JsVariantE:
	.quad	0
	.quad	__ZTIN14altered_carbon2js9JsVariantE
	.quad	__ZN14altered_carbon2js9JsVariantD1Ev
	.quad	__ZN14altered_carbon2js9JsVariantD0Ev


.subsections_via_symbols
