	.section	__TEXT,__text,regular,pure_instructions
	.macosx_version_min 10, 13
	.globl	__Z7_scriptPN14altered_carbon2js9JsVariantE ## -- Begin function _Z7_scriptPN14altered_carbon2js9JsVariantE
	.p2align	4, 0x90
__Z7_scriptPN14altered_carbon2js9JsVariantE: ## @_Z7_scriptPN14altered_carbon2js9JsVariantE
	.cfi_startproc
## %bb.0:                               ## %init.bb
	pushq	%rbp
	.cfi_def_cfa_offset 16
	pushq	%r15
	.cfi_def_cfa_offset 24
	pushq	%r14
	.cfi_def_cfa_offset 32
	pushq	%r13
	.cfi_def_cfa_offset 40
	pushq	%r12
	.cfi_def_cfa_offset 48
	pushq	%rbx
	.cfi_def_cfa_offset 56
	subq	$3256, %rsp             ## imm = 0xCB8
	.cfi_def_cfa_offset 3312
	.cfi_offset %rbx, -56
	.cfi_offset %r12, -48
	.cfi_offset %r13, -40
	.cfi_offset %r14, -32
	.cfi_offset %r15, -24
	.cfi_offset %rbp, -16
	movq	%rdi, (%rsp)            ## 8-byte Spill
	movq	__ZTVN14altered_carbon2js9JsVariantE@GOTPCREL(%rip), %rax
	addq	$16, %rax
	movq	%rax, 2696(%rsp)
	movl	$1, 2704(%rsp)
	movq	%rax, 344(%rsp)
	movl	$1, 352(%rsp)
	movq	%rax, 2640(%rsp)
	movl	$1, 2648(%rsp)
	movq	%rax, 288(%rsp)
	movl	$1, 296(%rsp)
	movq	%rax, 2584(%rsp)
	movl	$1, 2592(%rsp)
	movq	%rax, 232(%rsp)
	movl	$1, 240(%rsp)
	movq	%rax, 2528(%rsp)
	movl	$1, 2536(%rsp)
	movq	%rax, 176(%rsp)
	movl	$1, 184(%rsp)
	movq	%rax, 2472(%rsp)
	movl	$1, 2480(%rsp)
	movq	%rax, 120(%rsp)
	movl	$1, 128(%rsp)
	movq	%rax, 2416(%rsp)
	movl	$1, 2424(%rsp)
	movq	%rax, 64(%rsp)
	movl	$1, 72(%rsp)
	movq	%rax, 2360(%rsp)
	movl	$1, 2368(%rsp)
	movq	%rax, 8(%rsp)
	movl	$1, 16(%rsp)
	movq	%rax, 2304(%rsp)
	movl	$1, 2312(%rsp)
	movq	%rax, 2248(%rsp)
	movl	$1, 2256(%rsp)
	movq	%rax, 2192(%rsp)
	movl	$1, 2200(%rsp)
	movq	%rax, 2136(%rsp)
	movl	$1, 2144(%rsp)
	movq	%rax, 2080(%rsp)
	movl	$1, 2088(%rsp)
	movq	%rax, 2024(%rsp)
	movl	$1, 2032(%rsp)
	movq	%rax, 1968(%rsp)
	movl	$1, 1976(%rsp)
	movq	%rax, 1912(%rsp)
	movl	$1, 1920(%rsp)
	movq	%rax, 1856(%rsp)
	movl	$1, 1864(%rsp)
	movq	%rax, 1800(%rsp)
	movl	$1, 1808(%rsp)
	movq	%rax, 1744(%rsp)
	movl	$1, 1752(%rsp)
	movq	%rax, 1688(%rsp)
	movl	$1, 1696(%rsp)
	movq	%rax, 1632(%rsp)
	movl	$1, 1640(%rsp)
	movq	%rax, 3200(%rsp)
	movl	$1, 3208(%rsp)
	movq	%rax, 1576(%rsp)
	movl	$1, 1584(%rsp)
	movq	%rax, 1520(%rsp)
	movl	$1, 1528(%rsp)
	movq	%rax, 1464(%rsp)
	movl	$1, 1472(%rsp)
	movq	%rax, 3144(%rsp)
	movl	$1, 3152(%rsp)
	movq	%rax, 1408(%rsp)
	movl	$1, 1416(%rsp)
	movq	%rax, 1352(%rsp)
	movl	$1, 1360(%rsp)
	movq	%rax, 1296(%rsp)
	movl	$1, 1304(%rsp)
	movq	%rax, 3088(%rsp)
	movl	$1, 3096(%rsp)
	movq	%rax, 1240(%rsp)
	movl	$1, 1248(%rsp)
	movq	%rax, 1184(%rsp)
	movl	$1, 1192(%rsp)
	movq	%rax, 1128(%rsp)
	movl	$1, 1136(%rsp)
	movq	%rax, 3032(%rsp)
	movl	$1, 3040(%rsp)
	movq	%rax, 1072(%rsp)
	movl	$1, 1080(%rsp)
	movq	%rax, 1016(%rsp)
	movl	$1, 1024(%rsp)
	movq	%rax, 960(%rsp)
	movl	$1, 968(%rsp)
	movq	%rax, 2976(%rsp)
	movl	$1, 2984(%rsp)
	movq	%rax, 904(%rsp)
	movl	$1, 912(%rsp)
	movq	%rax, 848(%rsp)
	movl	$1, 856(%rsp)
	movq	%rax, 792(%rsp)
	movl	$1, 800(%rsp)
	movq	%rax, 2920(%rsp)
	movl	$1, 2928(%rsp)
	movq	%rax, 736(%rsp)
	movl	$1, 744(%rsp)
	movq	%rax, 680(%rsp)
	movl	$1, 688(%rsp)
	movq	%rax, 624(%rsp)
	movl	$1, 632(%rsp)
	movq	%rax, 2864(%rsp)
	movl	$1, 2872(%rsp)
	movq	%rax, 568(%rsp)
	movl	$1, 576(%rsp)
	movq	%rax, 512(%rsp)
	movl	$1, 520(%rsp)
	movq	%rax, 456(%rsp)
	movl	$1, 464(%rsp)
	movq	%rax, 2808(%rsp)
	movl	$1, 2816(%rsp)
	movq	%rax, 400(%rsp)
	movl	$1, 408(%rsp)
	movq	%rax, 2752(%rsp)
	movl	$1, 2760(%rsp)
	leaq	2696(%rsp), %rbx
	xorl	%esi, %esi
	movq	%rbx, %rdi
	callq	__ZN14altered_carbon2js9JsVariantaSEx
	leaq	344(%rsp), %rdi
	movq	%rbx, %rsi
	callq	__ZN14altered_carbon2js9JsVariantaSERKS1_
	leaq	2640(%rsp), %rbx
	xorl	%esi, %esi
	movq	%rbx, %rdi
	callq	__ZN14altered_carbon2js9JsVariantaSEx
	leaq	288(%rsp), %r15
	movq	%r15, %rdi
	movq	%rbx, %rsi
	callq	__ZN14altered_carbon2js9JsVariantaSERKS1_
	leaq	2248(%rsp), %r12
	leaq	2136(%rsp), %r14
	jmp	LBB0_1
	.p2align	4, 0x90
LBB0_18:                                ## %exit.bb9
                                        ##   in Loop: Header=BB0_1 Depth=1
	movl	$1, %esi
	leaq	512(%rsp), %rbp
	movq	%rbp, %rdi
	callq	__ZN14altered_carbon2js9JsVariantaSEx
	leaq	288(%rsp), %r15
	movq	%r15, %rdi
	movq	%rbp, %rsi
	callq	__ZN14altered_carbon2js9JsVariantpLERKS1_
LBB0_1:                                 ## %cond.bb
                                        ## =>This Loop Header: Depth=1
                                        ##     Child Loop BB0_3 Depth 2
                                        ##       Child Loop BB0_5 Depth 3
                                        ##         Child Loop BB0_7 Depth 4
                                        ##           Child Loop BB0_9 Depth 5
                                        ##             Child Loop BB0_11 Depth 6
                                        ##               Child Loop BB0_13 Depth 7
                                        ##                 Child Loop BB0_15 Depth 8
	movl	$10, %esi
	leaq	456(%rsp), %rbp
	movq	%rbp, %rdi
	callq	__ZN14altered_carbon2js9JsVariantaSEx
	movq	%r15, %rdi
	movq	%rbp, %rsi
	callq	__ZNK14altered_carbon2js9JsVariantltERKS1_
	movzbl	%al, %esi
	leaq	400(%rsp), %rbp
	movq	%rbp, %rdi
	callq	__ZN14altered_carbon2js9JsVariantC1Eb
	movq	%rbp, %rdi
	callq	__ZNK14altered_carbon2js9JsVariant9asBooleanEv
	testb	%al, %al
	je	LBB0_17
## %bb.2:                               ## %for.bb
                                        ##   in Loop: Header=BB0_1 Depth=1
	xorl	%esi, %esi
	leaq	2584(%rsp), %r15
	movq	%r15, %rdi
	callq	__ZN14altered_carbon2js9JsVariantaSEx
	leaq	232(%rsp), %rbp
	movq	%rbp, %rdi
	movq	%r15, %rsi
	callq	__ZN14altered_carbon2js9JsVariantaSERKS1_
	jmp	LBB0_3
	.p2align	4, 0x90
LBB0_19:                                ## %exit.bb15
                                        ##   in Loop: Header=BB0_3 Depth=2
	movl	$1, %esi
	leaq	680(%rsp), %r15
	movq	%r15, %rdi
	callq	__ZN14altered_carbon2js9JsVariantaSEx
	leaq	232(%rsp), %rbp
	movq	%rbp, %rdi
	movq	%r15, %rsi
	callq	__ZN14altered_carbon2js9JsVariantpLERKS1_
LBB0_3:                                 ## %cond.bb10
                                        ##   Parent Loop BB0_1 Depth=1
                                        ## =>  This Loop Header: Depth=2
                                        ##       Child Loop BB0_5 Depth 3
                                        ##         Child Loop BB0_7 Depth 4
                                        ##           Child Loop BB0_9 Depth 5
                                        ##             Child Loop BB0_11 Depth 6
                                        ##               Child Loop BB0_13 Depth 7
                                        ##                 Child Loop BB0_15 Depth 8
	movl	$10, %esi
	leaq	624(%rsp), %r15
	movq	%r15, %rdi
	callq	__ZN14altered_carbon2js9JsVariantaSEx
	movq	%rbp, %rdi
	movq	%r15, %rsi
	callq	__ZNK14altered_carbon2js9JsVariantltERKS1_
	movzbl	%al, %esi
	leaq	568(%rsp), %rbp
	movq	%rbp, %rdi
	callq	__ZN14altered_carbon2js9JsVariantC1Eb
	movq	%rbp, %rdi
	callq	__ZNK14altered_carbon2js9JsVariant9asBooleanEv
	testb	%al, %al
	je	LBB0_18
## %bb.4:                               ## %for.bb7
                                        ##   in Loop: Header=BB0_3 Depth=2
	xorl	%esi, %esi
	leaq	2528(%rsp), %r15
	movq	%r15, %rdi
	callq	__ZN14altered_carbon2js9JsVariantaSEx
	leaq	176(%rsp), %rbp
	movq	%rbp, %rdi
	movq	%r15, %rsi
	callq	__ZN14altered_carbon2js9JsVariantaSERKS1_
	jmp	LBB0_5
	.p2align	4, 0x90
LBB0_20:                                ## %exit.bb21
                                        ##   in Loop: Header=BB0_5 Depth=3
	movl	$1, %esi
	leaq	848(%rsp), %r15
	movq	%r15, %rdi
	callq	__ZN14altered_carbon2js9JsVariantaSEx
	leaq	176(%rsp), %rbp
	movq	%rbp, %rdi
	movq	%r15, %rsi
	callq	__ZN14altered_carbon2js9JsVariantpLERKS1_
LBB0_5:                                 ## %cond.bb16
                                        ##   Parent Loop BB0_1 Depth=1
                                        ##     Parent Loop BB0_3 Depth=2
                                        ## =>    This Loop Header: Depth=3
                                        ##         Child Loop BB0_7 Depth 4
                                        ##           Child Loop BB0_9 Depth 5
                                        ##             Child Loop BB0_11 Depth 6
                                        ##               Child Loop BB0_13 Depth 7
                                        ##                 Child Loop BB0_15 Depth 8
	movl	$10, %esi
	leaq	792(%rsp), %r15
	movq	%r15, %rdi
	callq	__ZN14altered_carbon2js9JsVariantaSEx
	movq	%rbp, %rdi
	movq	%r15, %rsi
	callq	__ZNK14altered_carbon2js9JsVariantltERKS1_
	movzbl	%al, %esi
	leaq	736(%rsp), %rbp
	movq	%rbp, %rdi
	callq	__ZN14altered_carbon2js9JsVariantC1Eb
	movq	%rbp, %rdi
	callq	__ZNK14altered_carbon2js9JsVariant9asBooleanEv
	testb	%al, %al
	je	LBB0_19
## %bb.6:                               ## %for.bb13
                                        ##   in Loop: Header=BB0_5 Depth=3
	xorl	%esi, %esi
	leaq	2472(%rsp), %r15
	movq	%r15, %rdi
	callq	__ZN14altered_carbon2js9JsVariantaSEx
	leaq	120(%rsp), %rbp
	movq	%rbp, %rdi
	movq	%r15, %rsi
	callq	__ZN14altered_carbon2js9JsVariantaSERKS1_
	jmp	LBB0_7
	.p2align	4, 0x90
LBB0_21:                                ## %exit.bb27
                                        ##   in Loop: Header=BB0_7 Depth=4
	movl	$1, %esi
	leaq	1016(%rsp), %r15
	movq	%r15, %rdi
	callq	__ZN14altered_carbon2js9JsVariantaSEx
	leaq	120(%rsp), %rbp
	movq	%rbp, %rdi
	movq	%r15, %rsi
	callq	__ZN14altered_carbon2js9JsVariantpLERKS1_
LBB0_7:                                 ## %cond.bb22
                                        ##   Parent Loop BB0_1 Depth=1
                                        ##     Parent Loop BB0_3 Depth=2
                                        ##       Parent Loop BB0_5 Depth=3
                                        ## =>      This Loop Header: Depth=4
                                        ##           Child Loop BB0_9 Depth 5
                                        ##             Child Loop BB0_11 Depth 6
                                        ##               Child Loop BB0_13 Depth 7
                                        ##                 Child Loop BB0_15 Depth 8
	movl	$10, %esi
	leaq	960(%rsp), %r15
	movq	%r15, %rdi
	callq	__ZN14altered_carbon2js9JsVariantaSEx
	movq	%rbp, %rdi
	movq	%r15, %rsi
	callq	__ZNK14altered_carbon2js9JsVariantltERKS1_
	movzbl	%al, %esi
	leaq	904(%rsp), %rbp
	movq	%rbp, %rdi
	callq	__ZN14altered_carbon2js9JsVariantC1Eb
	movq	%rbp, %rdi
	callq	__ZNK14altered_carbon2js9JsVariant9asBooleanEv
	testb	%al, %al
	je	LBB0_20
## %bb.8:                               ## %for.bb19
                                        ##   in Loop: Header=BB0_7 Depth=4
	xorl	%esi, %esi
	leaq	2416(%rsp), %r15
	movq	%r15, %rdi
	callq	__ZN14altered_carbon2js9JsVariantaSEx
	leaq	64(%rsp), %rbp
	movq	%rbp, %rdi
	movq	%r15, %rsi
	callq	__ZN14altered_carbon2js9JsVariantaSERKS1_
	jmp	LBB0_9
	.p2align	4, 0x90
LBB0_22:                                ## %exit.bb33
                                        ##   in Loop: Header=BB0_9 Depth=5
	movl	$1, %esi
	leaq	1184(%rsp), %r15
	movq	%r15, %rdi
	callq	__ZN14altered_carbon2js9JsVariantaSEx
	leaq	64(%rsp), %rbp
	movq	%rbp, %rdi
	movq	%r15, %rsi
	callq	__ZN14altered_carbon2js9JsVariantpLERKS1_
LBB0_9:                                 ## %cond.bb28
                                        ##   Parent Loop BB0_1 Depth=1
                                        ##     Parent Loop BB0_3 Depth=2
                                        ##       Parent Loop BB0_5 Depth=3
                                        ##         Parent Loop BB0_7 Depth=4
                                        ## =>        This Loop Header: Depth=5
                                        ##             Child Loop BB0_11 Depth 6
                                        ##               Child Loop BB0_13 Depth 7
                                        ##                 Child Loop BB0_15 Depth 8
	movl	$10, %esi
	leaq	1128(%rsp), %r15
	movq	%r15, %rdi
	callq	__ZN14altered_carbon2js9JsVariantaSEx
	movq	%rbp, %rdi
	movq	%r15, %rsi
	callq	__ZNK14altered_carbon2js9JsVariantltERKS1_
	movzbl	%al, %esi
	leaq	1072(%rsp), %rbp
	movq	%rbp, %rdi
	callq	__ZN14altered_carbon2js9JsVariantC1Eb
	movq	%rbp, %rdi
	callq	__ZNK14altered_carbon2js9JsVariant9asBooleanEv
	testb	%al, %al
	je	LBB0_21
## %bb.10:                              ## %for.bb25
                                        ##   in Loop: Header=BB0_9 Depth=5
	xorl	%esi, %esi
	leaq	2360(%rsp), %r15
	movq	%r15, %rdi
	callq	__ZN14altered_carbon2js9JsVariantaSEx
	leaq	8(%rsp), %rbp
	movq	%rbp, %rdi
	movq	%r15, %rsi
	callq	__ZN14altered_carbon2js9JsVariantaSERKS1_
	jmp	LBB0_11
	.p2align	4, 0x90
LBB0_23:                                ## %exit.bb39
                                        ##   in Loop: Header=BB0_11 Depth=6
	movl	$1, %esi
	leaq	1352(%rsp), %r15
	movq	%r15, %rdi
	callq	__ZN14altered_carbon2js9JsVariantaSEx
	leaq	8(%rsp), %rbp
	movq	%rbp, %rdi
	movq	%r15, %rsi
	callq	__ZN14altered_carbon2js9JsVariantpLERKS1_
LBB0_11:                                ## %cond.bb34
                                        ##   Parent Loop BB0_1 Depth=1
                                        ##     Parent Loop BB0_3 Depth=2
                                        ##       Parent Loop BB0_5 Depth=3
                                        ##         Parent Loop BB0_7 Depth=4
                                        ##           Parent Loop BB0_9 Depth=5
                                        ## =>          This Loop Header: Depth=6
                                        ##               Child Loop BB0_13 Depth 7
                                        ##                 Child Loop BB0_15 Depth 8
	movl	$10, %esi
	leaq	1296(%rsp), %rbx
	movq	%rbx, %rdi
	callq	__ZN14altered_carbon2js9JsVariantaSEx
	movq	%rbp, %rdi
	movq	%rbx, %rsi
	callq	__ZNK14altered_carbon2js9JsVariantltERKS1_
	movzbl	%al, %esi
	leaq	1240(%rsp), %rbp
	movq	%rbp, %rdi
	callq	__ZN14altered_carbon2js9JsVariantC1Eb
	movq	%rbp, %rdi
	callq	__ZNK14altered_carbon2js9JsVariant9asBooleanEv
	testb	%al, %al
	je	LBB0_22
## %bb.12:                              ## %for.bb31
                                        ##   in Loop: Header=BB0_11 Depth=6
	xorl	%esi, %esi
	leaq	2304(%rsp), %rbx
	movq	%rbx, %rdi
	callq	__ZN14altered_carbon2js9JsVariantaSEx
	movq	%r12, %rdi
	movq	%rbx, %rsi
	callq	__ZN14altered_carbon2js9JsVariantaSERKS1_
	movq	%r12, %r15
	jmp	LBB0_13
	.p2align	4, 0x90
LBB0_24:                                ## %exit.bb45
                                        ##   in Loop: Header=BB0_13 Depth=7
	movl	$1, %esi
	leaq	1520(%rsp), %rbx
	movq	%rbx, %rdi
	callq	__ZN14altered_carbon2js9JsVariantaSEx
	movq	%r15, %rdi
	movq	%rbx, %rsi
	callq	__ZN14altered_carbon2js9JsVariantpLERKS1_
LBB0_13:                                ## %cond.bb40
                                        ##   Parent Loop BB0_1 Depth=1
                                        ##     Parent Loop BB0_3 Depth=2
                                        ##       Parent Loop BB0_5 Depth=3
                                        ##         Parent Loop BB0_7 Depth=4
                                        ##           Parent Loop BB0_9 Depth=5
                                        ##             Parent Loop BB0_11 Depth=6
                                        ## =>            This Loop Header: Depth=7
                                        ##                 Child Loop BB0_15 Depth 8
	movl	$10, %esi
	leaq	1464(%rsp), %rbp
	movq	%rbp, %rdi
	callq	__ZN14altered_carbon2js9JsVariantaSEx
	movq	%r15, %r12
	movq	%r15, %rdi
	movq	%rbp, %rsi
	callq	__ZNK14altered_carbon2js9JsVariantltERKS1_
	movzbl	%al, %esi
	leaq	1408(%rsp), %r15
	movq	%r15, %rdi
	callq	__ZN14altered_carbon2js9JsVariantC1Eb
	movq	%r15, %rdi
	callq	__ZNK14altered_carbon2js9JsVariant9asBooleanEv
	testb	%al, %al
	je	LBB0_23
## %bb.14:                              ## %for.bb37
                                        ##   in Loop: Header=BB0_13 Depth=7
	xorl	%esi, %esi
	leaq	2192(%rsp), %r15
	movq	%r15, %rdi
	callq	__ZN14altered_carbon2js9JsVariantaSEx
	movq	%r14, %rdi
	movq	%r15, %rsi
	callq	__ZN14altered_carbon2js9JsVariantaSERKS1_
	movq	%r12, %r15
	leaq	2080(%rsp), %r12
	leaq	1632(%rsp), %rbx
	jmp	LBB0_15
	.p2align	4, 0x90
LBB0_16:                                ## %for.bb43
                                        ##   in Loop: Header=BB0_15 Depth=8
	leaq	288(%rsp), %rdi
	movq	%r12, %rsi
	leaq	232(%rsp), %rdx
	callq	__ZNK14altered_carbon2js9JsVariant3addEPS1_RKS1_
	movq	%rax, %rdi
	leaq	2024(%rsp), %rsi
	leaq	176(%rsp), %rdx
	callq	__ZNK14altered_carbon2js9JsVariant3subEPS1_RKS1_
	movq	%rax, %rdi
	leaq	1968(%rsp), %rsi
	leaq	120(%rsp), %rdx
	callq	__ZNK14altered_carbon2js9JsVariant3addEPS1_RKS1_
	movq	%rax, %rdi
	leaq	1912(%rsp), %rsi
	leaq	64(%rsp), %rdx
	callq	__ZNK14altered_carbon2js9JsVariant3subEPS1_RKS1_
	movq	%rax, %rdi
	leaq	1856(%rsp), %rsi
	leaq	8(%rsp), %rdx
	callq	__ZNK14altered_carbon2js9JsVariant3addEPS1_RKS1_
	movq	%rax, %rdi
	leaq	1800(%rsp), %rsi
	movq	%r15, %rdx
	callq	__ZNK14altered_carbon2js9JsVariant3subEPS1_RKS1_
	movq	%rax, %rdi
	leaq	1744(%rsp), %rsi
	movq	%r14, %rdx
	callq	__ZNK14altered_carbon2js9JsVariant3addEPS1_RKS1_
	leaq	344(%rsp), %rdi
	movq	%rax, %rsi
	callq	__ZN14altered_carbon2js9JsVariantpLERKS1_
	movl	$1, %esi
	leaq	1688(%rsp), %r13
	movq	%r13, %rdi
	callq	__ZN14altered_carbon2js9JsVariantaSEx
	movq	%r14, %rdi
	movq	%r13, %rsi
	callq	__ZN14altered_carbon2js9JsVariantpLERKS1_
LBB0_15:                                ## %cond.bb46
                                        ##   Parent Loop BB0_1 Depth=1
                                        ##     Parent Loop BB0_3 Depth=2
                                        ##       Parent Loop BB0_5 Depth=3
                                        ##         Parent Loop BB0_7 Depth=4
                                        ##           Parent Loop BB0_9 Depth=5
                                        ##             Parent Loop BB0_11 Depth=6
                                        ##               Parent Loop BB0_13 Depth=7
                                        ## =>              This Inner Loop Header: Depth=8
	movl	$10, %esi
	movq	%rbx, %rdi
	callq	__ZN14altered_carbon2js9JsVariantaSEx
	movq	%r14, %rdi
	movq	%rbx, %rsi
	callq	__ZNK14altered_carbon2js9JsVariantltERKS1_
	movzbl	%al, %esi
	leaq	1576(%rsp), %rbp
	movq	%rbp, %rdi
	callq	__ZN14altered_carbon2js9JsVariantC1Eb
	movq	%rbp, %rdi
	callq	__ZNK14altered_carbon2js9JsVariant9asBooleanEv
	testb	%al, %al
	jne	LBB0_16
	jmp	LBB0_24
LBB0_17:                                ## %exit.bb4
	leaq	2752(%rsp), %rbp
	leaq	344(%rsp), %rbx
	movq	%rbp, %rdi
	movq	%rbx, %rsi
	callq	__ZN14altered_carbon2js9JsVariantaSERKS1_
	movq	(%rsp), %rdi            ## 8-byte Reload
	movq	%rbp, %rsi
	callq	__ZN14altered_carbon2js9JsVariantaSERKS1_
	movq	%rbp, %rdi
	callq	__ZN14altered_carbon2js9JsVariantD1Ev
	leaq	400(%rsp), %rdi
	callq	__ZN14altered_carbon2js9JsVariantD1Ev
	leaq	2808(%rsp), %rdi
	callq	__ZN14altered_carbon2js9JsVariantD1Ev
	leaq	456(%rsp), %rdi
	callq	__ZN14altered_carbon2js9JsVariantD1Ev
	leaq	512(%rsp), %rdi
	callq	__ZN14altered_carbon2js9JsVariantD1Ev
	leaq	568(%rsp), %rdi
	callq	__ZN14altered_carbon2js9JsVariantD1Ev
	leaq	2864(%rsp), %rdi
	callq	__ZN14altered_carbon2js9JsVariantD1Ev
	leaq	624(%rsp), %rdi
	callq	__ZN14altered_carbon2js9JsVariantD1Ev
	leaq	680(%rsp), %rdi
	callq	__ZN14altered_carbon2js9JsVariantD1Ev
	leaq	736(%rsp), %rdi
	callq	__ZN14altered_carbon2js9JsVariantD1Ev
	leaq	2920(%rsp), %rdi
	callq	__ZN14altered_carbon2js9JsVariantD1Ev
	leaq	792(%rsp), %rdi
	callq	__ZN14altered_carbon2js9JsVariantD1Ev
	leaq	848(%rsp), %rdi
	callq	__ZN14altered_carbon2js9JsVariantD1Ev
	leaq	904(%rsp), %rdi
	callq	__ZN14altered_carbon2js9JsVariantD1Ev
	leaq	2976(%rsp), %rdi
	callq	__ZN14altered_carbon2js9JsVariantD1Ev
	leaq	960(%rsp), %rdi
	callq	__ZN14altered_carbon2js9JsVariantD1Ev
	leaq	1016(%rsp), %rdi
	callq	__ZN14altered_carbon2js9JsVariantD1Ev
	leaq	1072(%rsp), %rdi
	callq	__ZN14altered_carbon2js9JsVariantD1Ev
	leaq	3032(%rsp), %rdi
	callq	__ZN14altered_carbon2js9JsVariantD1Ev
	leaq	1128(%rsp), %rdi
	callq	__ZN14altered_carbon2js9JsVariantD1Ev
	leaq	1184(%rsp), %rdi
	callq	__ZN14altered_carbon2js9JsVariantD1Ev
	leaq	1240(%rsp), %rdi
	callq	__ZN14altered_carbon2js9JsVariantD1Ev
	leaq	3088(%rsp), %rdi
	callq	__ZN14altered_carbon2js9JsVariantD1Ev
	leaq	1296(%rsp), %rdi
	callq	__ZN14altered_carbon2js9JsVariantD1Ev
	leaq	1352(%rsp), %rdi
	callq	__ZN14altered_carbon2js9JsVariantD1Ev
	leaq	1408(%rsp), %rdi
	callq	__ZN14altered_carbon2js9JsVariantD1Ev
	leaq	3144(%rsp), %rdi
	callq	__ZN14altered_carbon2js9JsVariantD1Ev
	leaq	1464(%rsp), %rdi
	callq	__ZN14altered_carbon2js9JsVariantD1Ev
	leaq	1520(%rsp), %rdi
	callq	__ZN14altered_carbon2js9JsVariantD1Ev
	leaq	1576(%rsp), %rdi
	callq	__ZN14altered_carbon2js9JsVariantD1Ev
	leaq	3200(%rsp), %rdi
	callq	__ZN14altered_carbon2js9JsVariantD1Ev
	leaq	1632(%rsp), %rdi
	callq	__ZN14altered_carbon2js9JsVariantD1Ev
	leaq	1688(%rsp), %rdi
	callq	__ZN14altered_carbon2js9JsVariantD1Ev
	leaq	1744(%rsp), %rdi
	callq	__ZN14altered_carbon2js9JsVariantD1Ev
	leaq	1800(%rsp), %rdi
	callq	__ZN14altered_carbon2js9JsVariantD1Ev
	leaq	1856(%rsp), %rdi
	callq	__ZN14altered_carbon2js9JsVariantD1Ev
	leaq	1912(%rsp), %rdi
	callq	__ZN14altered_carbon2js9JsVariantD1Ev
	leaq	1968(%rsp), %rdi
	callq	__ZN14altered_carbon2js9JsVariantD1Ev
	leaq	2024(%rsp), %rdi
	callq	__ZN14altered_carbon2js9JsVariantD1Ev
	leaq	2080(%rsp), %rdi
	callq	__ZN14altered_carbon2js9JsVariantD1Ev
	leaq	2136(%rsp), %rdi
	callq	__ZN14altered_carbon2js9JsVariantD1Ev
	leaq	2192(%rsp), %rdi
	callq	__ZN14altered_carbon2js9JsVariantD1Ev
	leaq	2248(%rsp), %rdi
	callq	__ZN14altered_carbon2js9JsVariantD1Ev
	leaq	2304(%rsp), %rdi
	callq	__ZN14altered_carbon2js9JsVariantD1Ev
	leaq	8(%rsp), %rdi
	callq	__ZN14altered_carbon2js9JsVariantD1Ev
	leaq	2360(%rsp), %rdi
	callq	__ZN14altered_carbon2js9JsVariantD1Ev
	leaq	64(%rsp), %rdi
	callq	__ZN14altered_carbon2js9JsVariantD1Ev
	leaq	2416(%rsp), %rdi
	callq	__ZN14altered_carbon2js9JsVariantD1Ev
	leaq	120(%rsp), %rdi
	callq	__ZN14altered_carbon2js9JsVariantD1Ev
	leaq	2472(%rsp), %rdi
	callq	__ZN14altered_carbon2js9JsVariantD1Ev
	leaq	176(%rsp), %rdi
	callq	__ZN14altered_carbon2js9JsVariantD1Ev
	leaq	2528(%rsp), %rdi
	callq	__ZN14altered_carbon2js9JsVariantD1Ev
	leaq	232(%rsp), %rdi
	callq	__ZN14altered_carbon2js9JsVariantD1Ev
	leaq	2584(%rsp), %rdi
	callq	__ZN14altered_carbon2js9JsVariantD1Ev
	leaq	288(%rsp), %rdi
	callq	__ZN14altered_carbon2js9JsVariantD1Ev
	leaq	2640(%rsp), %rdi
	callq	__ZN14altered_carbon2js9JsVariantD1Ev
	movq	%rbx, %rdi
	callq	__ZN14altered_carbon2js9JsVariantD1Ev
	leaq	2696(%rsp), %rdi
	callq	__ZN14altered_carbon2js9JsVariantD1Ev
	addq	$3256, %rsp             ## imm = 0xCB8
	popq	%rbx
	popq	%r12
	popq	%r13
	popq	%r14
	popq	%r15
	popq	%rbp
	retq
	.cfi_endproc
                                        ## -- End function
	.section	__TEXT,__const
	.globl	__ZTSN14altered_carbon2js9JsVariantE ## @_ZTSN14altered_carbon2js9JsVariantE
	.weak_definition	__ZTSN14altered_carbon2js9JsVariantE
	.p2align	4
__ZTSN14altered_carbon2js9JsVariantE:
	.asciz	"N14altered_carbon2js9JsVariantE"

	.section	__DATA,__const
	.globl	__ZTIN14altered_carbon2js9JsVariantE ## @_ZTIN14altered_carbon2js9JsVariantE
	.weak_definition	__ZTIN14altered_carbon2js9JsVariantE
	.p2align	3
__ZTIN14altered_carbon2js9JsVariantE:
	.quad	__ZTVN10__cxxabiv117__class_type_infoE+16
	.quad	__ZTSN14altered_carbon2js9JsVariantE

	.globl	__ZTVN14altered_carbon2js9JsVariantE ## @_ZTVN14altered_carbon2js9JsVariantE
	.weak_def_can_be_hidden	__ZTVN14altered_carbon2js9JsVariantE
	.p2align	3
__ZTVN14altered_carbon2js9JsVariantE:
	.quad	0
	.quad	__ZTIN14altered_carbon2js9JsVariantE
	.quad	__ZN14altered_carbon2js9JsVariantD1Ev
	.quad	__ZN14altered_carbon2js9JsVariantD0Ev


.subsections_via_symbols
