; ModuleID = 'forin.js'
source_filename = "forin.js"

%"cls.acjs::JsVariant" = type { i32 (...)**, i32, %union.anon.6 }
%union.anon.6 = type { %"cls.acjs::JsVariantFunc", [24 x i8] }
%"cls.acjs::JsVariantFunc" = type { void (%"cls.acjs::JsVariant"*, %"cls.acjs::JsVariant"*, %"cls.acjs::JsVariant"**, i64)*, i32* }
%"str.acjs::JsVariantIterator" = type { %"cls.acjs::RefCountedPtr", %"cls.acjs::RBTreeNode"*, i32, i32 }
%"cls.acjs::RefCountedPtr" = type { %"cls.acjs::RefCounted"* }
%"cls.acjs::RefCounted" = type { %"cls.acjs::JsVariantArray", %"str.acjs::RefCounter" }
%"cls.acjs::JsVariantArray" = type { i32 (...)**, %"cls.acjs::RBTreeNode"* }
%"str.acjs::RefCounter" = type { %"struct.std::__1::__atomic" }
%"struct.std::__1::__atomic" = type { %"struct.std::__1::__atomic_base.9" }
%"struct.std::__1::__atomic_base.9" = type { %"struct.std::__1::__atomic_base" }
%"struct.std::__1::__atomic_base" = type { i64 }
%"cls.acjs::RBTreeNode" = type { i32 (...)**, i32, i32, i32, i32, %"cls.acjs::RBTreeNode"*, %"cls.acjs::RBTreeNode"*, %"cls.acjs::RBTreeNode"*, %"struct.std::__1::__vector" }
%"struct.std::__1::__vector" = type { %"struct.std::__1::__vector_base" }
%"struct.std::__1::__vector_base" = type { %"cls.acjs::JsVariant"**, %"cls.acjs::JsVariant"**, %"class.std::__1::__compressed_pair.8" }
%"class.std::__1::__compressed_pair.8" = type { %"struct.std::__1::__compressed_pair_elem.7" }
%"struct.std::__1::__compressed_pair_elem.7" = type { %"cls.acjs::JsVariant"** }
%"cls.acjs::JsVariantNumber" = type <{ i64, double, i8, [16 x i8] }>

@_ZTVN10__cxxabiv117__class_type_infoE = external global i8*
@_ZTSN14altered_carbon2js9JsVariantE = linkonce_odr constant [32 x i8] c"N14altered_carbon2js9JsVariantE\00"
@_ZTIN14altered_carbon2js9JsVariantE = linkonce_odr constant { i8*, i8* } { i8* bitcast (i8** getelementptr inbounds (i8*, i8** @_ZTVN10__cxxabiv117__class_type_infoE, i64 2) to i8*), i8* getelementptr inbounds ([32 x i8], [32 x i8]* @_ZTSN14altered_carbon2js9JsVariantE, i32 0, i32 0) }
@_ZTVN14altered_carbon2js9JsVariantE = linkonce_odr unnamed_addr constant { [4 x i8*] } { [4 x i8*] [i8* null, i8* bitcast ({ i8*, i8* }* @_ZTIN14altered_carbon2js9JsVariantE to i8*), i8* bitcast (void (%"cls.acjs::JsVariant"*)* @_ZN14altered_carbon2js9JsVariantD1Ev to i8*), i8* bitcast (void (%"cls.acjs::JsVariant"*)* @_ZN14altered_carbon2js9JsVariantD0Ev to i8*)] }, align 8
@_ZTVN14altered_carbon2js9JsVariantE_GEP = internal constant i8** getelementptr inbounds ({ [4 x i8*] }, { [4 x i8*] }* @_ZTVN14altered_carbon2js9JsVariantE, i32 0, inrange i32 0, i32 2)
@_ZN14altered_carbon2js11JsConstants9UndefinedE = external constant %"cls.acjs::JsVariant"
@_ZN14altered_carbon2js11JsConstants4NullE = external constant %"cls.acjs::JsVariant"
@_ZN14altered_carbon2js11JsConstants3NaNE = external constant %"cls.acjs::JsVariant"
@_ZN14altered_carbon2js11JsConstants8InfinityE = external constant %"cls.acjs::JsVariant"
@_ZN14altered_carbon2js11JsConstants9TypeErrorE = external constant %"cls.acjs::JsVariant"
@_ZN14altered_carbon2js11JsConstants16NullPointerErrorE = external constant %"cls.acjs::JsVariant"
@_ZN14altered_carbon2js11JsConstants3EndE = external constant %"str.acjs::JsVariantIterator"
@_ZN14altered_carbon2js11JsConstants4RendE = external constant %"str.acjs::JsVariantIterator"

declare void @_ZN14altered_carbon2js9JsVariantD1Ev(%"cls.acjs::JsVariant"*)

declare void @_ZN14altered_carbon2js9JsVariantD0Ev(%"cls.acjs::JsVariant"*)

declare dereferenceable(56) %"cls.acjs::JsVariant"* @_ZNK14altered_carbon2js9JsVariant3bwaEPS1_RKS1_(%"cls.acjs::JsVariant"*, %"cls.acjs::JsVariant"*, %"cls.acjs::JsVariant"* dereferenceable(56))

declare dereferenceable(56) %"cls.acjs::JsVariant"* @_ZNK14altered_carbon2js9JsVariant3bwxEPS1_RKS1_(%"cls.acjs::JsVariant"*, %"cls.acjs::JsVariant"*, %"cls.acjs::JsVariant"* dereferenceable(56))

declare zeroext i1 @_ZNK14altered_carbon2js9JsVarianteqERKS1_(%"cls.acjs::JsVariant"*, %"cls.acjs::JsVariant"* dereferenceable(56))

declare zeroext i1 @_ZNK14altered_carbon2js9JsVariantneERKS1_(%"cls.acjs::JsVariant"*, %"cls.acjs::JsVariant"* dereferenceable(56))

declare zeroext i1 @_ZNK14altered_carbon2js9JsVariant4eqvtERKS1_(%"cls.acjs::JsVariant"*, %"cls.acjs::JsVariant"* dereferenceable(56))

declare zeroext i1 @_ZNK14altered_carbon2js9JsVariant4nevtERKS1_(%"cls.acjs::JsVariant"*, %"cls.acjs::JsVariant"* dereferenceable(56))

declare zeroext i1 @_ZNK14altered_carbon2js9JsVariantltERKS1_(%"cls.acjs::JsVariant"*, %"cls.acjs::JsVariant"* dereferenceable(56))

declare zeroext i1 @_ZNK14altered_carbon2js9JsVariantgtERKS1_(%"cls.acjs::JsVariant"*, %"cls.acjs::JsVariant"* dereferenceable(56))

declare zeroext i1 @_ZNK14altered_carbon2js9JsVariantleERKS1_(%"cls.acjs::JsVariant"*, %"cls.acjs::JsVariant"* dereferenceable(56))

declare zeroext i1 @_ZNK14altered_carbon2js9JsVariantgeERKS1_(%"cls.acjs::JsVariant"*, %"cls.acjs::JsVariant"* dereferenceable(56))

declare dereferenceable(56) %"cls.acjs::JsVariant"* @_ZNK14altered_carbon2js9JsVariant3ltsEPS1_RKS1_(%"cls.acjs::JsVariant"*, %"cls.acjs::JsVariant"*, %"cls.acjs::JsVariant"* dereferenceable(56))

declare dereferenceable(56) %"cls.acjs::JsVariant"* @_ZNK14altered_carbon2js9JsVariant3rtsEPS1_RKS1_(%"cls.acjs::JsVariant"*, %"cls.acjs::JsVariant"*, %"cls.acjs::JsVariant"* dereferenceable(56))

declare dereferenceable(56) %"cls.acjs::JsVariant"* @_ZNK14altered_carbon2js9JsVariant3rszEPS1_RKS1_(%"cls.acjs::JsVariant"*, %"cls.acjs::JsVariant"*, %"cls.acjs::JsVariant"* dereferenceable(56))

declare dereferenceable(56) %"cls.acjs::JsVariant"* @_ZNK14altered_carbon2js9JsVariant3addEPS1_RKS1_(%"cls.acjs::JsVariant"*, %"cls.acjs::JsVariant"*, %"cls.acjs::JsVariant"* dereferenceable(56))

declare void @_ZN14altered_carbon2js9JsVariantpsEv(%"cls.acjs::JsVariant"* noalias sret, %"cls.acjs::JsVariant"*)

declare dereferenceable(56) %"cls.acjs::JsVariant"* @_ZNK14altered_carbon2js9JsVariant3subEPS1_RKS1_(%"cls.acjs::JsVariant"*, %"cls.acjs::JsVariant"*, %"cls.acjs::JsVariant"* dereferenceable(56))

declare void @_ZN14altered_carbon2js9JsVariantngEv(%"cls.acjs::JsVariant"* noalias sret, %"cls.acjs::JsVariant"*)

declare dereferenceable(56) %"cls.acjs::JsVariant"* @_ZNK14altered_carbon2js9JsVariant3mulEPS1_RKS1_(%"cls.acjs::JsVariant"*, %"cls.acjs::JsVariant"*, %"cls.acjs::JsVariant"* dereferenceable(56))

declare dereferenceable(56) %"cls.acjs::JsVariant"* @_ZNK14altered_carbon2js9JsVariant3divEPS1_RKS1_(%"cls.acjs::JsVariant"*, %"cls.acjs::JsVariant"*, %"cls.acjs::JsVariant"* dereferenceable(56))

declare dereferenceable(56) %"cls.acjs::JsVariant"* @_ZNK14altered_carbon2js9JsVariant3modEPS1_RKS1_(%"cls.acjs::JsVariant"*, %"cls.acjs::JsVariant"*, %"cls.acjs::JsVariant"* dereferenceable(56))

declare void @_ZN14altered_carbon2js9JsVariantcoEv(%"cls.acjs::JsVariant"* noalias sret, %"cls.acjs::JsVariant"*)

declare void @_ZN14altered_carbon2js9JsVariantppEi(%"cls.acjs::JsVariant"* noalias sret, %"cls.acjs::JsVariant"*, i32)

declare dereferenceable(56) %"cls.acjs::JsVariant"* @_ZN14altered_carbon2js9JsVariantppEv(%"cls.acjs::JsVariant"*)

declare void @_ZN14altered_carbon2js9JsVariantmmEi(%"cls.acjs::JsVariant"* noalias sret, %"cls.acjs::JsVariant"*, i32)

declare dereferenceable(56) %"cls.acjs::JsVariant"* @_ZN14altered_carbon2js9JsVariantmmEv(%"cls.acjs::JsVariant"*)

declare dereferenceable(56) %"cls.acjs::JsVariant"* @_ZN14altered_carbon2js9JsVariantaSERKS1_(%"cls.acjs::JsVariant"*, %"cls.acjs::JsVariant"* dereferenceable(56))

declare dereferenceable(56) %"cls.acjs::JsVariant"* @_ZN14altered_carbon2js9JsVariantpLERKS1_(%"cls.acjs::JsVariant"*, %"cls.acjs::JsVariant"* dereferenceable(56))

declare dereferenceable(56) %"cls.acjs::JsVariant"* @_ZN14altered_carbon2js9JsVariantmIERKS1_(%"cls.acjs::JsVariant"*, %"cls.acjs::JsVariant"* dereferenceable(56))

declare dereferenceable(56) %"cls.acjs::JsVariant"* @_ZN14altered_carbon2js9JsVariantmLERKS1_(%"cls.acjs::JsVariant"*, %"cls.acjs::JsVariant"* dereferenceable(56))

declare dereferenceable(56) %"cls.acjs::JsVariant"* @_ZN14altered_carbon2js9JsVariantdVERKS1_(%"cls.acjs::JsVariant"*, %"cls.acjs::JsVariant"* dereferenceable(56))

declare dereferenceable(56) %"cls.acjs::JsVariant"* @_ZN14altered_carbon2js9JsVariantrMERKS1_(%"cls.acjs::JsVariant"*, %"cls.acjs::JsVariant"* dereferenceable(56))

declare dereferenceable(56) %"cls.acjs::JsVariant"* @_ZN14altered_carbon2js9JsVariantlSERKS1_(%"cls.acjs::JsVariant"*, %"cls.acjs::JsVariant"* dereferenceable(56))

declare dereferenceable(56) %"cls.acjs::JsVariant"* @_ZN14altered_carbon2js9JsVariantrSERKS1_(%"cls.acjs::JsVariant"*, %"cls.acjs::JsVariant"* dereferenceable(56))

declare dereferenceable(56) %"cls.acjs::JsVariant"* @_ZN14altered_carbon2js9JsVariant4arszERKS1_(%"cls.acjs::JsVariant"*, %"cls.acjs::JsVariant"* dereferenceable(56))

declare dereferenceable(56) %"cls.acjs::JsVariant"* @_ZN14altered_carbon2js9JsVariantaNERKS1_(%"cls.acjs::JsVariant"*, %"cls.acjs::JsVariant"* dereferenceable(56))

declare dereferenceable(56) %"cls.acjs::JsVariant"* @_ZN14altered_carbon2js9JsVariantoRERKS1_(%"cls.acjs::JsVariant"*, %"cls.acjs::JsVariant"* dereferenceable(56))

declare dereferenceable(56) %"cls.acjs::JsVariant"* @_ZN14altered_carbon2js9JsVarianteOERKS1_(%"cls.acjs::JsVariant"*, %"cls.acjs::JsVariant"* dereferenceable(56))

define void @_Z7_scriptPN14altered_carbon2js9JsVariantE(%"cls.acjs::JsVariant"*) {
init.bb:
  %vptr = alloca %"cls.acjs::JsVariant", align 8
  %1 = bitcast %"cls.acjs::JsVariant"* %vptr to i32 (...)***
  store i32 (...)** bitcast (i8*** @_ZTVN14altered_carbon2js9JsVariantE_GEP to i32 (...)**), i32 (...)*** %1, align 8
  %2 = getelementptr inbounds %"cls.acjs::JsVariant", %"cls.acjs::JsVariant"* %vptr, i32 0, i32 1
  store i32 1, i32* %2, align 8
  %vptr1 = alloca %"cls.acjs::JsVariant", align 8
  %3 = bitcast %"cls.acjs::JsVariant"* %vptr1 to i32 (...)***
  store i32 (...)** bitcast (i8*** @_ZTVN14altered_carbon2js9JsVariantE_GEP to i32 (...)**), i32 (...)*** %3, align 8
  %4 = getelementptr inbounds %"cls.acjs::JsVariant", %"cls.acjs::JsVariant"* %vptr1, i32 0, i32 1
  store i32 1, i32* %4, align 8
  %vptr2 = alloca %"cls.acjs::JsVariant", align 8
  %5 = bitcast %"cls.acjs::JsVariant"* %vptr2 to i32 (...)***
  store i32 (...)** bitcast (i8*** @_ZTVN14altered_carbon2js9JsVariantE_GEP to i32 (...)**), i32 (...)*** %5, align 8
  %6 = getelementptr inbounds %"cls.acjs::JsVariant", %"cls.acjs::JsVariant"* %vptr2, i32 0, i32 1
  store i32 1, i32* %6, align 8
  %vptr3 = alloca %"cls.acjs::JsVariant", align 8
  %7 = bitcast %"cls.acjs::JsVariant"* %vptr3 to i32 (...)***
  store i32 (...)** bitcast (i8*** @_ZTVN14altered_carbon2js9JsVariantE_GEP to i32 (...)**), i32 (...)*** %7, align 8
  %8 = getelementptr inbounds %"cls.acjs::JsVariant", %"cls.acjs::JsVariant"* %vptr3, i32 0, i32 1
  store i32 1, i32* %8, align 8
  %vptr4 = alloca %"cls.acjs::JsVariant", align 8
  %9 = bitcast %"cls.acjs::JsVariant"* %vptr4 to i32 (...)***
  store i32 (...)** bitcast (i8*** @_ZTVN14altered_carbon2js9JsVariantE_GEP to i32 (...)**), i32 (...)*** %9, align 8
  %10 = getelementptr inbounds %"cls.acjs::JsVariant", %"cls.acjs::JsVariant"* %vptr4, i32 0, i32 1
  store i32 1, i32* %10, align 8
  %vptr5 = alloca %"cls.acjs::JsVariant", align 8
  %11 = bitcast %"cls.acjs::JsVariant"* %vptr5 to i32 (...)***
  store i32 (...)** bitcast (i8*** @_ZTVN14altered_carbon2js9JsVariantE_GEP to i32 (...)**), i32 (...)*** %11, align 8
  %12 = getelementptr inbounds %"cls.acjs::JsVariant", %"cls.acjs::JsVariant"* %vptr5, i32 0, i32 1
  store i32 1, i32* %12, align 8
  %vptr6 = alloca %"cls.acjs::JsVariant", align 8
  %13 = bitcast %"cls.acjs::JsVariant"* %vptr6 to i32 (...)***
  store i32 (...)** bitcast (i8*** @_ZTVN14altered_carbon2js9JsVariantE_GEP to i32 (...)**), i32 (...)*** %13, align 8
  %14 = getelementptr inbounds %"cls.acjs::JsVariant", %"cls.acjs::JsVariant"* %vptr6, i32 0, i32 1
  store i32 1, i32* %14, align 8
  %vptr7 = alloca %"cls.acjs::JsVariant", align 8
  %15 = bitcast %"cls.acjs::JsVariant"* %vptr7 to i32 (...)***
  store i32 (...)** bitcast (i8*** @_ZTVN14altered_carbon2js9JsVariantE_GEP to i32 (...)**), i32 (...)*** %15, align 8
  %16 = getelementptr inbounds %"cls.acjs::JsVariant", %"cls.acjs::JsVariant"* %vptr7, i32 0, i32 1
  store i32 1, i32* %16, align 8
  %ptr = alloca [5 x %"cls.acjs::JsVariant"*], align 16
  %vptr8 = alloca %"cls.acjs::JsVariant", align 8
  %17 = bitcast %"cls.acjs::JsVariant"* %vptr8 to i32 (...)***
  store i32 (...)** bitcast (i8*** @_ZTVN14altered_carbon2js9JsVariantE_GEP to i32 (...)**), i32 (...)*** %17, align 8
  %18 = getelementptr inbounds %"cls.acjs::JsVariant", %"cls.acjs::JsVariant"* %vptr8, i32 0, i32 1
  store i32 1, i32* %18, align 8
  %ptr9 = alloca %"str.acjs::JsVariantIterator", align 8
  %vptr10 = alloca %"cls.acjs::JsVariant", align 8
  %19 = bitcast %"cls.acjs::JsVariant"* %vptr10 to i32 (...)***
  store i32 (...)** bitcast (i8*** @_ZTVN14altered_carbon2js9JsVariantE_GEP to i32 (...)**), i32 (...)*** %19, align 8
  %20 = getelementptr inbounds %"cls.acjs::JsVariant", %"cls.acjs::JsVariant"* %vptr10, i32 0, i32 1
  store i32 1, i32* %20, align 8
  br label %exec.bb

exec.bb:                                          ; preds = %init.bb
  %21 = call %"cls.acjs::JsVariant"* @_ZN14altered_carbon2js9JsVariantaSEx(%"cls.acjs::JsVariant"* %vptr, i64 0)
  %22 = getelementptr inbounds %"cls.acjs::JsVariant", %"cls.acjs::JsVariant"* %vptr1, i32 0, i32 1
  %23 = load i32, i32* %22, align 8
  %24 = icmp sle i32 %23, 6
  %25 = getelementptr inbounds %"cls.acjs::JsVariant", %"cls.acjs::JsVariant"* %vptr, i32 0, i32 1
  %26 = load i32, i32* %25, align 8
  %27 = icmp sle i32 %26, 6
  %28 = and i1 %24, %27
  br i1 %28, label %copy.bb, label %fallback.bb

exit.bb:                                          ; preds = %copy.bb11e
  %29 = call %"cls.acjs::JsVariant"* @_ZN14altered_carbon2js9JsVariantaSERKS1_(%"cls.acjs::JsVariant"* %0, %"cls.acjs::JsVariant"* dereferenceable(56) %vptr10)
  call void @_ZN14altered_carbon2js9JsVariantD1Ev(%"cls.acjs::JsVariant"* %vptr10)
  call void @_ZN14altered_carbon2js17JsVariantIterator5resetEb(%"str.acjs::JsVariantIterator"* %ptr9, i1 false)
  call void @_ZN14altered_carbon2js9JsVariantD1Ev(%"cls.acjs::JsVariant"* %vptr8)
  call void @_ZN14altered_carbon2js9JsVariantD1Ev(%"cls.acjs::JsVariant"* %vptr7)
  call void @_ZN14altered_carbon2js9JsVariantD1Ev(%"cls.acjs::JsVariant"* %vptr6)
  call void @_ZN14altered_carbon2js9JsVariantD1Ev(%"cls.acjs::JsVariant"* %vptr5)
  call void @_ZN14altered_carbon2js9JsVariantD1Ev(%"cls.acjs::JsVariant"* %vptr4)
  call void @_ZN14altered_carbon2js9JsVariantD1Ev(%"cls.acjs::JsVariant"* %vptr3)
  call void @_ZN14altered_carbon2js9JsVariantD1Ev(%"cls.acjs::JsVariant"* %vptr2)
  call void @_ZN14altered_carbon2js9JsVariantD1Ev(%"cls.acjs::JsVariant"* %vptr1)
  call void @_ZN14altered_carbon2js9JsVariantD1Ev(%"cls.acjs::JsVariant"* %vptr)
  ret void

copy.bb:                                          ; preds = %exec.bb
  switch i32 %26, label %fallback.bb [
    i32 -2, label %caseerr.bb
    i32 0, label %casenul_unf.bb
    i32 1, label %casenul_unf.bb
    i32 6, label %casebln.bb
    i32 2, label %casenum.bb
  ]

copy.bbe:                                         ; preds = %fallback.bb, %casenum.bb, %casebln.bb, %casenul_unf.bb, %caseerr.bb
  %30 = call %"cls.acjs::JsVariant"* @_ZN14altered_carbon2js9JsVariantaSEx(%"cls.acjs::JsVariant"* %vptr3, i64 1)
  %31 = call %"cls.acjs::JsVariant"* @_ZN14altered_carbon2js9JsVariantaSEx(%"cls.acjs::JsVariant"* %vptr4, i64 2)
  %32 = call %"cls.acjs::JsVariant"* @_ZN14altered_carbon2js9JsVariantaSEx(%"cls.acjs::JsVariant"* %vptr5, i64 3)
  %33 = call %"cls.acjs::JsVariant"* @_ZN14altered_carbon2js9JsVariantaSEx(%"cls.acjs::JsVariant"* %vptr6, i64 4)
  %34 = call %"cls.acjs::JsVariant"* @_ZN14altered_carbon2js9JsVariantaSEx(%"cls.acjs::JsVariant"* %vptr7, i64 5)
  %newalloc = call i8* @_Znam(i64 288)
  %35 = bitcast i8* %newalloc to i64*
  store i64 5, i64* %35, align 16
  %36 = getelementptr inbounds i8, i8* %newalloc, i64 8
  %37 = bitcast i8* %36 to %"cls.acjs::JsVariant"*
  %38 = getelementptr inbounds %"cls.acjs::JsVariant", %"cls.acjs::JsVariant"* %37, i64 5
  %39 = getelementptr inbounds [5 x %"cls.acjs::JsVariant"*], [5 x %"cls.acjs::JsVariant"*]* %ptr, i32 0, i32 0
  br label %initarr.bb

fallback.bb:                                      ; preds = %copy.bb, %exec.bb
  %40 = call %"cls.acjs::JsVariant"* @_ZN14altered_carbon2js9JsVariantaSERKS1_(%"cls.acjs::JsVariant"* %vptr1, %"cls.acjs::JsVariant"* %vptr)
  br label %copy.bbe

caseerr.bb:                                       ; preds = %copy.bb
  store i32 %26, i32* %22, align 8
  %41 = getelementptr inbounds %"cls.acjs::JsVariant", %"cls.acjs::JsVariant"* %vptr, i32 0, i32 2
  %42 = bitcast %union.anon.6* %41 to i8**
  %43 = load i8*, i8** %42, align 8
  %44 = getelementptr inbounds %"cls.acjs::JsVariant", %"cls.acjs::JsVariant"* %vptr1, i32 0, i32 2
  %45 = bitcast %union.anon.6* %44 to i8**
  store i8* %43, i8** %45, align 8
  br label %copy.bbe

casenul_unf.bb:                                   ; preds = %copy.bb, %copy.bb
  store i32 %26, i32* %22, align 8
  br label %copy.bbe

casebln.bb:                                       ; preds = %copy.bb
  store i32 %26, i32* %22, align 8
  %46 = getelementptr inbounds %"cls.acjs::JsVariant", %"cls.acjs::JsVariant"* %vptr, i32 0, i32 2
  %47 = bitcast %union.anon.6* %46 to i8*
  %48 = load i8, i8* %47, align 8
  %49 = getelementptr inbounds %"cls.acjs::JsVariant", %"cls.acjs::JsVariant"* %vptr1, i32 0, i32 2
  %50 = bitcast %union.anon.6* %49 to i8*
  store i8 %48, i8* %50, align 1
  br label %copy.bbe

casenum.bb:                                       ; preds = %copy.bb
  store i32 %26, i32* %22, align 8
  %51 = getelementptr inbounds %"cls.acjs::JsVariant", %"cls.acjs::JsVariant"* %vptr, i32 0, i32 2
  %52 = bitcast %union.anon.6* %51 to %"cls.acjs::JsVariantNumber"*
  %53 = getelementptr inbounds %"cls.acjs::JsVariantNumber", %"cls.acjs::JsVariantNumber"* %52, i32 0, i32 0
  %54 = load i64, i64* %53, align 8
  %55 = getelementptr inbounds %"cls.acjs::JsVariantNumber", %"cls.acjs::JsVariantNumber"* %52, i32 0, i32 1
  %56 = load double, double* %55, align 8
  %57 = getelementptr inbounds %"cls.acjs::JsVariantNumber", %"cls.acjs::JsVariantNumber"* %52, i32 0, i32 2
  %58 = load i8, i8* %57, align 8
  %59 = getelementptr inbounds %"cls.acjs::JsVariant", %"cls.acjs::JsVariant"* %vptr1, i32 0, i32 2
  %60 = bitcast %union.anon.6* %59 to %"cls.acjs::JsVariantNumber"*
  %61 = getelementptr inbounds %"cls.acjs::JsVariantNumber", %"cls.acjs::JsVariantNumber"* %60, i32 0, i32 0
  store i64 %54, i64* %61, align 8
  %62 = getelementptr inbounds %"cls.acjs::JsVariantNumber", %"cls.acjs::JsVariantNumber"* %60, i32 0, i32 1
  store double %56, double* %62, align 8
  %63 = getelementptr inbounds %"cls.acjs::JsVariantNumber", %"cls.acjs::JsVariantNumber"* %60, i32 0, i32 2
  store i8 %58, i8* %63, align 8
  br label %copy.bbe

initarr.bb:                                       ; preds = %initarr.bb, %copy.bbe
  %iter = phi %"cls.acjs::JsVariant"* [ %37, %copy.bbe ], [ %66, %initarr.bb ]
  %64 = bitcast %"cls.acjs::JsVariant"* %iter to i32 (...)***
  store i32 (...)** bitcast (i8*** @_ZTVN14altered_carbon2js9JsVariantE_GEP to i32 (...)**), i32 (...)*** %64, align 8
  %65 = getelementptr inbounds %"cls.acjs::JsVariant", %"cls.acjs::JsVariant"* %iter, i32 0, i32 1
  store i32 1, i32* %65, align 8
  %66 = getelementptr inbounds %"cls.acjs::JsVariant", %"cls.acjs::JsVariant"* %iter, i64 1
  %67 = icmp eq %"cls.acjs::JsVariant"* %66, %38
  br i1 %67, label %initarr.bbe, label %initarr.bb

initarr.bbe:                                      ; preds = %initarr.bb
  %68 = getelementptr inbounds %"cls.acjs::JsVariant", %"cls.acjs::JsVariant"* %37, i64 0
  %69 = call %"cls.acjs::JsVariant"* @_ZN14altered_carbon2js9JsVariantaSERKS1_(%"cls.acjs::JsVariant"* %68, %"cls.acjs::JsVariant"* %vptr3)
  %70 = getelementptr inbounds %"cls.acjs::JsVariant"*, %"cls.acjs::JsVariant"** %39, i64 0
  store %"cls.acjs::JsVariant"* %68, %"cls.acjs::JsVariant"** %70, align 8
  %71 = getelementptr inbounds %"cls.acjs::JsVariant", %"cls.acjs::JsVariant"* %37, i64 1
  %72 = call %"cls.acjs::JsVariant"* @_ZN14altered_carbon2js9JsVariantaSERKS1_(%"cls.acjs::JsVariant"* %71, %"cls.acjs::JsVariant"* %vptr4)
  %73 = getelementptr inbounds %"cls.acjs::JsVariant"*, %"cls.acjs::JsVariant"** %39, i64 1
  store %"cls.acjs::JsVariant"* %71, %"cls.acjs::JsVariant"** %73, align 8
  %74 = getelementptr inbounds %"cls.acjs::JsVariant", %"cls.acjs::JsVariant"* %37, i64 2
  %75 = call %"cls.acjs::JsVariant"* @_ZN14altered_carbon2js9JsVariantaSERKS1_(%"cls.acjs::JsVariant"* %74, %"cls.acjs::JsVariant"* %vptr5)
  %76 = getelementptr inbounds %"cls.acjs::JsVariant"*, %"cls.acjs::JsVariant"** %39, i64 2
  store %"cls.acjs::JsVariant"* %74, %"cls.acjs::JsVariant"** %76, align 8
  %77 = getelementptr inbounds %"cls.acjs::JsVariant", %"cls.acjs::JsVariant"* %37, i64 3
  %78 = call %"cls.acjs::JsVariant"* @_ZN14altered_carbon2js9JsVariantaSERKS1_(%"cls.acjs::JsVariant"* %77, %"cls.acjs::JsVariant"* %vptr6)
  %79 = getelementptr inbounds %"cls.acjs::JsVariant"*, %"cls.acjs::JsVariant"** %39, i64 3
  store %"cls.acjs::JsVariant"* %77, %"cls.acjs::JsVariant"** %79, align 8
  %80 = getelementptr inbounds %"cls.acjs::JsVariant", %"cls.acjs::JsVariant"* %37, i64 4
  %81 = call %"cls.acjs::JsVariant"* @_ZN14altered_carbon2js9JsVariantaSERKS1_(%"cls.acjs::JsVariant"* %80, %"cls.acjs::JsVariant"* %vptr7)
  %82 = getelementptr inbounds %"cls.acjs::JsVariant"*, %"cls.acjs::JsVariant"** %39, i64 4
  store %"cls.acjs::JsVariant"* %80, %"cls.acjs::JsVariant"** %82, align 8
  %83 = call %"cls.acjs::JsVariant"* @_ZN14altered_carbon2js9JsVariantaSEN4llvm8ArrayRefIPS1_EE(%"cls.acjs::JsVariant"* %vptr8, %"cls.acjs::JsVariant"** %39, i64 5)
  %84 = getelementptr inbounds %"cls.acjs::JsVariant", %"cls.acjs::JsVariant"* %vptr8, i32 0, i32 1
  %85 = load i32, i32* %84, align 8
  %86 = icmp eq i32 %85, 12
  br i1 %86, label %iterbegin.bb, label %iterend.bb

iterbegin.bb:                                     ; preds = %initarr.bbe
  %87 = getelementptr inbounds %"cls.acjs::JsVariant", %"cls.acjs::JsVariant"* %vptr8, i32 0, i32 2
  %88 = bitcast %union.anon.6* %87 to %"cls.acjs::RefCountedPtr"*
  %89 = getelementptr inbounds %"cls.acjs::RefCountedPtr", %"cls.acjs::RefCountedPtr"* %88, i32 0, i32 0
  %90 = load %"cls.acjs::RefCounted"*, %"cls.acjs::RefCounted"** %89, align 8
  call void @_ZN14altered_carbon2js10RefCountedINS0_14JsVariantArrayEE5beginEv(%"str.acjs::JsVariantIterator"* %ptr9, %"cls.acjs::RefCounted"* %90)
  br label %iterret.bb

iterend.bb:                                       ; preds = %initarr.bbe
  br label %iterret.bb

iterret.bb:                                       ; preds = %iterend.bb, %iterbegin.bb
  %itderef = phi %"str.acjs::JsVariantIterator"* [ %ptr9, %iterbegin.bb ], [ @_ZN14altered_carbon2js11JsConstants3EndE, %iterend.bb ]
  br label %cond.bb

lpalloc.bb:                                       ; preds = %cond.bb
  br label %forin.bb

forin.bb:                                         ; preds = %lpalloc.bb
  %91 = call %"cls.acjs::JsVariant"* @_ZN14altered_carbon2js9JsVariantpLERKS1_(%"cls.acjs::JsVariant"* %vptr1, %"cls.acjs::JsVariant"* %vptr2)
  br label %lpinc.bb

lpinc.bb:                                         ; preds = %forin.bb
  %92 = call %"cls.acjs::JsVariant"* @_ZN14altered_carbon2js17JsVariantIterator4nextEv(%"str.acjs::JsVariantIterator"* %itderef)
  br label %cond.bb

lpexit.bb:                                        ; preds = %cond.bb
  %93 = getelementptr inbounds %"cls.acjs::JsVariant", %"cls.acjs::JsVariant"* %vptr10, i32 0, i32 1
  %94 = load i32, i32* %93, align 8
  %95 = icmp sle i32 %94, 6
  %96 = getelementptr inbounds %"cls.acjs::JsVariant", %"cls.acjs::JsVariant"* %vptr1, i32 0, i32 1
  %97 = load i32, i32* %96, align 8
  %98 = icmp sle i32 %97, 6
  %99 = and i1 %95, %98
  br i1 %99, label %copy.bb11, label %fallback.bb12

cond.bb:                                          ; preds = %iterret.bb, %lpinc.bb
  %100 = call %"cls.acjs::JsVariant"* @_ZNK14altered_carbon2js17JsVariantIteratordeEv(%"str.acjs::JsVariantIterator"* %itderef)
  %101 = call %"cls.acjs::JsVariant"* @_ZN14altered_carbon2js9JsVariantaSERKS1_(%"cls.acjs::JsVariant"* %vptr2, %"cls.acjs::JsVariant"* %100)
  %102 = getelementptr inbounds %"str.acjs::JsVariantIterator", %"str.acjs::JsVariantIterator"* %itderef, i32 0, i32 3
  %103 = load i32, i32* %102, align 8
  %104 = icmp ne i32 %103, 3
  %105 = icmp ne i32 %103, 4
  %106 = and i1 %104, %105
  br i1 %106, label %lpalloc.bb, label %lpexit.bb

copy.bb11:                                        ; preds = %lpexit.bb
  switch i32 %97, label %fallback.bb12 [
    i32 -2, label %caseerr.bb13
    i32 0, label %casenul_unf.bb14
    i32 1, label %casenul_unf.bb14
    i32 6, label %casebln.bb15
    i32 2, label %casenum.bb16
  ]

copy.bb11e:                                       ; preds = %fallback.bb12, %casenum.bb16, %casebln.bb15, %casenul_unf.bb14, %caseerr.bb13
  br label %exit.bb

fallback.bb12:                                    ; preds = %copy.bb11, %lpexit.bb
  %107 = call %"cls.acjs::JsVariant"* @_ZN14altered_carbon2js9JsVariantaSERKS1_(%"cls.acjs::JsVariant"* %vptr10, %"cls.acjs::JsVariant"* %vptr1)
  br label %copy.bb11e

caseerr.bb13:                                     ; preds = %copy.bb11
  store i32 %97, i32* %93, align 8
  %108 = getelementptr inbounds %"cls.acjs::JsVariant", %"cls.acjs::JsVariant"* %vptr1, i32 0, i32 2
  %109 = bitcast %union.anon.6* %108 to i8**
  %110 = load i8*, i8** %109, align 8
  %111 = getelementptr inbounds %"cls.acjs::JsVariant", %"cls.acjs::JsVariant"* %vptr10, i32 0, i32 2
  %112 = bitcast %union.anon.6* %111 to i8**
  store i8* %110, i8** %112, align 8
  br label %copy.bb11e

casenul_unf.bb14:                                 ; preds = %copy.bb11, %copy.bb11
  store i32 %97, i32* %93, align 8
  br label %copy.bb11e

casebln.bb15:                                     ; preds = %copy.bb11
  store i32 %97, i32* %93, align 8
  %113 = getelementptr inbounds %"cls.acjs::JsVariant", %"cls.acjs::JsVariant"* %vptr1, i32 0, i32 2
  %114 = bitcast %union.anon.6* %113 to i8*
  %115 = load i8, i8* %114, align 8
  %116 = getelementptr inbounds %"cls.acjs::JsVariant", %"cls.acjs::JsVariant"* %vptr10, i32 0, i32 2
  %117 = bitcast %union.anon.6* %116 to i8*
  store i8 %115, i8* %117, align 1
  br label %copy.bb11e

casenum.bb16:                                     ; preds = %copy.bb11
  store i32 %97, i32* %93, align 8
  %118 = getelementptr inbounds %"cls.acjs::JsVariant", %"cls.acjs::JsVariant"* %vptr1, i32 0, i32 2
  %119 = bitcast %union.anon.6* %118 to %"cls.acjs::JsVariantNumber"*
  %120 = getelementptr inbounds %"cls.acjs::JsVariantNumber", %"cls.acjs::JsVariantNumber"* %119, i32 0, i32 0
  %121 = load i64, i64* %120, align 8
  %122 = getelementptr inbounds %"cls.acjs::JsVariantNumber", %"cls.acjs::JsVariantNumber"* %119, i32 0, i32 1
  %123 = load double, double* %122, align 8
  %124 = getelementptr inbounds %"cls.acjs::JsVariantNumber", %"cls.acjs::JsVariantNumber"* %119, i32 0, i32 2
  %125 = load i8, i8* %124, align 8
  %126 = getelementptr inbounds %"cls.acjs::JsVariant", %"cls.acjs::JsVariant"* %vptr10, i32 0, i32 2
  %127 = bitcast %union.anon.6* %126 to %"cls.acjs::JsVariantNumber"*
  %128 = getelementptr inbounds %"cls.acjs::JsVariantNumber", %"cls.acjs::JsVariantNumber"* %127, i32 0, i32 0
  store i64 %121, i64* %128, align 8
  %129 = getelementptr inbounds %"cls.acjs::JsVariantNumber", %"cls.acjs::JsVariantNumber"* %127, i32 0, i32 1
  store double %123, double* %129, align 8
  %130 = getelementptr inbounds %"cls.acjs::JsVariantNumber", %"cls.acjs::JsVariantNumber"* %127, i32 0, i32 2
  store i8 %125, i8* %130, align 8
  br label %copy.bb11e
}

declare %"cls.acjs::JsVariant"* @_ZN14altered_carbon2js9JsVariantaSEx(%"cls.acjs::JsVariant"*, i64)

declare i8* @_Znam(i64)

declare %"cls.acjs::JsVariant"* @_ZN14altered_carbon2js9JsVariantaSEN4llvm8ArrayRefIPS1_EE(%"cls.acjs::JsVariant"*, %"cls.acjs::JsVariant"**, i64)

declare void @_ZN14altered_carbon2js10RefCountedINS0_14JsVariantArrayEE5beginEv(%"str.acjs::JsVariantIterator"* noalias sret, %"cls.acjs::RefCounted"*)

declare dereferenceable(56) %"cls.acjs::JsVariant"* @_ZN14altered_carbon2js17JsVariantIterator4nextEv(%"str.acjs::JsVariantIterator"*)

declare dereferenceable(56) %"cls.acjs::JsVariant"* @_ZNK14altered_carbon2js17JsVariantIteratordeEv(%"str.acjs::JsVariantIterator"*)

declare void @_ZN14altered_carbon2js17JsVariantIterator5resetEb(%"str.acjs::JsVariantIterator"*, i1 zeroext)
