	.section	__TEXT,__text,regular,pure_instructions
	.macosx_version_min 10, 13
	.globl	__Z7_scriptPN14altered_carbon2js9JsVariantE ## -- Begin function _Z7_scriptPN14altered_carbon2js9JsVariantE
	.p2align	4, 0x90
__Z7_scriptPN14altered_carbon2js9JsVariantE: ## @_Z7_scriptPN14altered_carbon2js9JsVariantE
	.cfi_startproc
## %bb.0:                               ## %init.bb
	pushq	%r15
	.cfi_def_cfa_offset 16
	pushq	%r14
	.cfi_def_cfa_offset 24
	pushq	%r12
	.cfi_def_cfa_offset 32
	pushq	%rbx
	.cfi_def_cfa_offset 40
	subq	$184, %rsp
	.cfi_def_cfa_offset 224
	.cfi_offset %rbx, -40
	.cfi_offset %r12, -32
	.cfi_offset %r14, -24
	.cfi_offset %r15, -16
	movq	%rdi, %r15
	movq	__ZTVN14altered_carbon2js9JsVariantE@GOTPCREL(%rip), %rax
	addq	$16, %rax
	movq	%rax, 128(%rsp)
	movl	$1, 136(%rsp)
	movq	%rax, 72(%rsp)
	movl	$1, 80(%rsp)
	movq	%rax, 16(%rsp)
	movl	$1, 24(%rsp)
	leaq	128(%rsp), %r14
	movl	$10, %esi
	movq	%r14, %rdi
	callq	__ZN14altered_carbon2js9JsVariantaSEx
	movq	%r14, (%rsp)
	leaq	72(%rsp), %r12
	movq	%rsp, %rdx
	xorl	%esi, %esi
	movl	$1, %ecx
	movq	%r12, %rdi
	callq	__ZN3_js9factorialEPN14altered_carbon2js9JsVariantEN4llvm8ArrayRefIS3_EE
	leaq	16(%rsp), %rbx
	movq	%rbx, %rdi
	movq	%r12, %rsi
	callq	__ZN14altered_carbon2js9JsVariantaSERKS1_
	movq	%r15, %rdi
	movq	%rbx, %rsi
	callq	__ZN14altered_carbon2js9JsVariantaSERKS1_
	movq	%rbx, %rdi
	callq	__ZN14altered_carbon2js9JsVariantD1Ev
	movq	%r12, %rdi
	callq	__ZN14altered_carbon2js9JsVariantD1Ev
	movq	%r14, %rdi
	callq	__ZN14altered_carbon2js9JsVariantD1Ev
	addq	$184, %rsp
	popq	%rbx
	popq	%r12
	popq	%r14
	popq	%r15
	retq
	.cfi_endproc
                                        ## -- End function
	.globl	__ZN3_js9factorialEPN14altered_carbon2js9JsVariantEN4llvm8ArrayRefIS3_EE ## -- Begin function _ZN3_js9factorialEPN14altered_carbon2js9JsVariantEN4llvm8ArrayRefIS3_EE
	.p2align	4, 0x90
__ZN3_js9factorialEPN14altered_carbon2js9JsVariantEN4llvm8ArrayRefIS3_EE: ## @_ZN3_js9factorialEPN14altered_carbon2js9JsVariantEN4llvm8ArrayRefIS3_EE
	.cfi_startproc
## %bb.0:                               ## %init.bb
	pushq	%r15
	.cfi_def_cfa_offset 16
	pushq	%r14
	.cfi_def_cfa_offset 24
	pushq	%rbx
	.cfi_def_cfa_offset 32
	subq	$464, %rsp              ## imm = 0x1D0
	.cfi_def_cfa_offset 496
	.cfi_offset %rbx, -32
	.cfi_offset %r14, -24
	.cfi_offset %r15, -16
	movq	%rdi, %r14
	movq	__ZTVN14altered_carbon2js9JsVariantE@GOTPCREL(%rip), %rax
	addq	$16, %rax
	movq	%rax, 16(%rsp)
	movl	$1, 24(%rsp)
	movq	%rax, 352(%rsp)
	movl	$1, 360(%rsp)
	movq	%rax, 408(%rsp)
	movl	$1, 416(%rsp)
	movq	%rax, 296(%rsp)
	movl	$1, 304(%rsp)
	movq	%rax, 240(%rsp)
	movl	$1, 248(%rsp)
	movq	%rax, 184(%rsp)
	movl	$1, 192(%rsp)
	movq	%rax, 128(%rsp)
	movl	$1, 136(%rsp)
	movq	%rax, 72(%rsp)
	movl	$1, 80(%rsp)
	testq	%rcx, %rcx
	je	LBB1_1
## %bb.5:                               ## %pcase.bb1
	movq	(%rdx), %rsi
	movq	%rsi, 8(%rsp)
	leaq	16(%rsp), %rdi
	callq	__ZN14altered_carbon2js9JsVariantaSERKS1_
LBB1_1:                                 ## %pcase.bb
	leaq	352(%rsp), %rbx
	movl	$1, %esi
	movq	%rbx, %rdi
	callq	__ZN14altered_carbon2js9JsVariantaSEx
	leaq	16(%rsp), %rdi
	movq	%rbx, %rsi
	callq	__ZNK14altered_carbon2js9JsVariantgtERKS1_
	testb	%al, %al
	je	LBB1_3
## %bb.2:                               ## %ret.lhs
	leaq	296(%rsp), %rbx
	movl	$1, %esi
	movq	%rbx, %rdi
	callq	__ZN14altered_carbon2js9JsVariantaSEx
	leaq	16(%rsp), %r15
	leaq	240(%rsp), %rsi
	movq	%r15, %rdi
	movq	%rbx, %rdx
	callq	__ZNK14altered_carbon2js9JsVariant3subEPS1_RKS1_
	movq	%rax, (%rsp)
	leaq	184(%rsp), %rbx
	movq	%rsp, %rdx
	xorl	%esi, %esi
	movl	$1, %ecx
	movq	%rbx, %rdi
	callq	__ZN3_js9factorialEPN14altered_carbon2js9JsVariantEN4llvm8ArrayRefIS3_EE
	leaq	128(%rsp), %rsi
	movq	%r15, %rdi
	movq	%rbx, %rdx
	callq	__ZNK14altered_carbon2js9JsVariant3mulEPS1_RKS1_
	movq	%r14, %rdi
	movq	%rax, %rsi
	jmp	LBB1_4
LBB1_3:                                 ## %ret.rhs
	leaq	72(%rsp), %rbx
	movl	$1, %esi
	movq	%rbx, %rdi
	callq	__ZN14altered_carbon2js9JsVariantaSEx
	movq	%r14, %rdi
	movq	%rbx, %rsi
LBB1_4:                                 ## %exit.bb
	callq	__ZN14altered_carbon2js9JsVariantaSERKS1_
	leaq	72(%rsp), %rdi
	callq	__ZN14altered_carbon2js9JsVariantD1Ev
	leaq	128(%rsp), %rdi
	callq	__ZN14altered_carbon2js9JsVariantD1Ev
	leaq	184(%rsp), %rdi
	callq	__ZN14altered_carbon2js9JsVariantD1Ev
	leaq	240(%rsp), %rdi
	callq	__ZN14altered_carbon2js9JsVariantD1Ev
	leaq	296(%rsp), %rdi
	callq	__ZN14altered_carbon2js9JsVariantD1Ev
	leaq	408(%rsp), %rdi
	callq	__ZN14altered_carbon2js9JsVariantD1Ev
	leaq	352(%rsp), %rdi
	callq	__ZN14altered_carbon2js9JsVariantD1Ev
	leaq	16(%rsp), %rdi
	callq	__ZN14altered_carbon2js9JsVariantD1Ev
	movq	%r14, %rax
	addq	$464, %rsp              ## imm = 0x1D0
	popq	%rbx
	popq	%r14
	popq	%r15
	retq
	.cfi_endproc
                                        ## -- End function
	.section	__TEXT,__const
	.globl	__ZTSN14altered_carbon2js9JsVariantE ## @_ZTSN14altered_carbon2js9JsVariantE
	.weak_definition	__ZTSN14altered_carbon2js9JsVariantE
	.p2align	4
__ZTSN14altered_carbon2js9JsVariantE:
	.asciz	"N14altered_carbon2js9JsVariantE"

	.section	__DATA,__const
	.globl	__ZTIN14altered_carbon2js9JsVariantE ## @_ZTIN14altered_carbon2js9JsVariantE
	.weak_definition	__ZTIN14altered_carbon2js9JsVariantE
	.p2align	3
__ZTIN14altered_carbon2js9JsVariantE:
	.quad	__ZTVN10__cxxabiv117__class_type_infoE+16
	.quad	__ZTSN14altered_carbon2js9JsVariantE

	.globl	__ZTVN14altered_carbon2js9JsVariantE ## @_ZTVN14altered_carbon2js9JsVariantE
	.weak_def_can_be_hidden	__ZTVN14altered_carbon2js9JsVariantE
	.p2align	3
__ZTVN14altered_carbon2js9JsVariantE:
	.quad	0
	.quad	__ZTIN14altered_carbon2js9JsVariantE
	.quad	__ZN14altered_carbon2js9JsVariantD1Ev
	.quad	__ZN14altered_carbon2js9JsVariantD0Ev


.subsections_via_symbols
