	.section	__TEXT,__text,regular,pure_instructions
	.macosx_version_min 10, 13
	.globl	__Z7_scriptPN14altered_carbon2js9JsVariantE ## -- Begin function _Z7_scriptPN14altered_carbon2js9JsVariantE
	.p2align	4, 0x90
__Z7_scriptPN14altered_carbon2js9JsVariantE: ## @_Z7_scriptPN14altered_carbon2js9JsVariantE
	.cfi_startproc
## %bb.0:                               ## %init.bb
	pushq	%r15
	.cfi_def_cfa_offset 16
	pushq	%r14
	.cfi_def_cfa_offset 24
	pushq	%rbx
	.cfi_def_cfa_offset 32
	subq	$112, %rsp
	.cfi_def_cfa_offset 144
	.cfi_offset %rbx, -32
	.cfi_offset %r14, -24
	.cfi_offset %r15, -16
	movq	%rdi, %r14
	movq	__ZTVN14altered_carbon2js9JsVariantE@GOTPCREL(%rip), %rax
	addq	$16, %rax
	movq	%rax, (%rsp)
	movl	$15, 8(%rsp)
	movq	%rax, 56(%rsp)
	movl	$1, 64(%rsp)
	leaq	__ZN3_js6_anon0EPN14altered_carbon2js9JsVariantEN4llvm8ArrayRefIS3_EE(%rip), %rax
	movq	%rax, 16(%rsp)
	leaq	l_.wstr(%rip), %rax
	movq	%rax, 24(%rsp)
	leaq	56(%rsp), %rbx
	movq	%rsp, %r15
	movq	%rbx, %rdi
	movq	%r15, %rsi
	callq	__ZN14altered_carbon2js9JsVariantaSERKS1_
	movq	%r14, %rdi
	movq	%rbx, %rsi
	callq	__ZN14altered_carbon2js9JsVariantaSERKS1_
	movq	%rbx, %rdi
	callq	__ZN14altered_carbon2js9JsVariantD1Ev
	movq	%r15, %rdi
	callq	__ZN14altered_carbon2js9JsVariantD1Ev
	addq	$112, %rsp
	popq	%rbx
	popq	%r14
	popq	%r15
	retq
	.cfi_endproc
                                        ## -- End function
	.globl	__ZN3_js6_anon0EPN14altered_carbon2js9JsVariantEN4llvm8ArrayRefIS3_EE ## -- Begin function _ZN3_js6_anon0EPN14altered_carbon2js9JsVariantEN4llvm8ArrayRefIS3_EE
	.p2align	4, 0x90
__ZN3_js6_anon0EPN14altered_carbon2js9JsVariantEN4llvm8ArrayRefIS3_EE: ## @_ZN3_js6_anon0EPN14altered_carbon2js9JsVariantEN4llvm8ArrayRefIS3_EE
	.cfi_startproc
## %bb.0:                               ## %init.bb
	pushq	%r14
	.cfi_def_cfa_offset 16
	pushq	%rbx
	.cfi_def_cfa_offset 24
	subq	$56, %rsp
	.cfi_def_cfa_offset 80
	.cfi_offset %rbx, -24
	.cfi_offset %r14, -16
	movq	%rdi, %rbx
	movq	__ZTVN14altered_carbon2js9JsVariantE@GOTPCREL(%rip), %rax
	addq	$16, %rax
	movq	%rax, (%rsp)
	movl	$1, 8(%rsp)
	movq	%rsp, %r14
	movl	$1, %esi
	movq	%r14, %rdi
	callq	__ZN14altered_carbon2js9JsVariantaSEx
	movq	%rbx, %rdi
	movq	%r14, %rsi
	callq	__ZN14altered_carbon2js9JsVariantaSERKS1_
	movq	%r14, %rdi
	callq	__ZN14altered_carbon2js9JsVariantD1Ev
	movq	%rbx, %rax
	addq	$56, %rsp
	popq	%rbx
	popq	%r14
	retq
	.cfi_endproc
                                        ## -- End function
	.section	__TEXT,__const
	.globl	__ZTSN14altered_carbon2js9JsVariantE ## @_ZTSN14altered_carbon2js9JsVariantE
	.weak_definition	__ZTSN14altered_carbon2js9JsVariantE
	.p2align	4
__ZTSN14altered_carbon2js9JsVariantE:
	.asciz	"N14altered_carbon2js9JsVariantE"

	.section	__DATA,__const
	.globl	__ZTIN14altered_carbon2js9JsVariantE ## @_ZTIN14altered_carbon2js9JsVariantE
	.weak_definition	__ZTIN14altered_carbon2js9JsVariantE
	.p2align	3
__ZTIN14altered_carbon2js9JsVariantE:
	.quad	__ZTVN10__cxxabiv117__class_type_infoE+16
	.quad	__ZTSN14altered_carbon2js9JsVariantE

	.globl	__ZTVN14altered_carbon2js9JsVariantE ## @_ZTVN14altered_carbon2js9JsVariantE
	.weak_def_can_be_hidden	__ZTVN14altered_carbon2js9JsVariantE
	.p2align	3
__ZTVN14altered_carbon2js9JsVariantE:
	.quad	0
	.quad	__ZTIN14altered_carbon2js9JsVariantE
	.quad	__ZN14altered_carbon2js9JsVariantD1Ev
	.quad	__ZN14altered_carbon2js9JsVariantD0Ev

	.section	__TEXT,__const
	.p2align	2               ## @.wstr
l_.wstr:
	.long	95                      ## 0x5f
	.long	97                      ## 0x61
	.long	110                     ## 0x6e
	.long	111                     ## 0x6f
	.long	110                     ## 0x6e
	.long	48                      ## 0x30
	.long	0                       ## 0x0


.subsections_via_symbols
