; ModuleID = 'func2.js'
source_filename = "func2.js"

%"cls.acjs::JsVariant" = type { i32 (...)**, i32, %union.anon.6 }
%union.anon.6 = type { %"class.std::__1::basic_string", [16 x i8] }
%"class.std::__1::basic_string" = type { %"class.std::__1::__compressed_pair.3" }
%"class.std::__1::__compressed_pair.3" = type { %"struct.std::__1::__compressed_pair_elem.2" }
%"struct.std::__1::__compressed_pair_elem.2" = type { %"struct.std::__1::basic_string<wchar_t, std::__1::char_traits<wchar_t>, std::__1::allocator<wchar_t> >::__rep" }
%"struct.std::__1::basic_string<wchar_t, std::__1::char_traits<wchar_t>, std::__1::allocator<wchar_t> >::__rep" = type { %union.anon }
%union.anon = type { %"struct.std::__1::basic_string<wchar_t, std::__1::char_traits<wchar_t>, std::__1::allocator<wchar_t> >::__long" }
%"struct.std::__1::basic_string<wchar_t, std::__1::char_traits<wchar_t>, std::__1::allocator<wchar_t> >::__long" = type { i64, i64, i32* }

@_ZTVN10__cxxabiv117__class_type_infoE = external global i8*
@_ZTSN14altered_carbon2js9JsVariantE = linkonce_odr constant [32 x i8] c"N14altered_carbon2js9JsVariantE\00"
@_ZTIN14altered_carbon2js9JsVariantE = linkonce_odr constant { i8*, i8* } { i8* bitcast (i8** getelementptr inbounds (i8*, i8** @_ZTVN10__cxxabiv117__class_type_infoE, i64 2) to i8*), i8* getelementptr inbounds ([32 x i8], [32 x i8]* @_ZTSN14altered_carbon2js9JsVariantE, i32 0, i32 0) }
@_ZTVN14altered_carbon2js9JsVariantE = linkonce_odr unnamed_addr constant { [4 x i8*] } { [4 x i8*] [i8* null, i8* bitcast ({ i8*, i8* }* @_ZTIN14altered_carbon2js9JsVariantE to i8*), i8* bitcast (void (%"cls.acjs::JsVariant"*)* @_ZN14altered_carbon2js9JsVariantD1Ev to i8*), i8* bitcast (void (%"cls.acjs::JsVariant"*)* @_ZN14altered_carbon2js9JsVariantD0Ev to i8*)] }, align 8

declare void @_ZN14altered_carbon2js9JsVariantD1Ev(%"cls.acjs::JsVariant"*)

declare void @_ZN14altered_carbon2js9JsVariantD0Ev(%"cls.acjs::JsVariant"*)

declare dereferenceable(56) %"cls.acjs::JsVariant"* @_ZNK14altered_carbon2js9JsVariant3bwaEPS1_RKS1_(%"cls.acjs::JsVariant"*, %"cls.acjs::JsVariant"*, %"cls.acjs::JsVariant"* dereferenceable(56))

declare dereferenceable(56) %"cls.acjs::JsVariant"* @_ZNK14altered_carbon2js9JsVariant3bwxEPS1_RKS1_(%"cls.acjs::JsVariant"*, %"cls.acjs::JsVariant"*, %"cls.acjs::JsVariant"* dereferenceable(56))

declare zeroext i1 @_ZNK14altered_carbon2js9JsVarianteqERKS1_(%"cls.acjs::JsVariant"*, %"cls.acjs::JsVariant"* dereferenceable(56))

declare zeroext i1 @_ZNK14altered_carbon2js9JsVariantneERKS1_(%"cls.acjs::JsVariant"*, %"cls.acjs::JsVariant"* dereferenceable(56))

declare zeroext i1 @_ZNK14altered_carbon2js9JsVarianteqvtERKS1_(%"cls.acjs::JsVariant"*, %"cls.acjs::JsVariant"* dereferenceable(56))

declare zeroext i1 @_ZNK14altered_carbon2js9JsVariantnevtERKS1_(%"cls.acjs::JsVariant"*, %"cls.acjs::JsVariant"* dereferenceable(56))

declare zeroext i1 @_ZNK14altered_carbon2js9JsVariantltERKS1_(%"cls.acjs::JsVariant"*, %"cls.acjs::JsVariant"* dereferenceable(56))

declare zeroext i1 @_ZNK14altered_carbon2js9JsVariantgtERKS1_(%"cls.acjs::JsVariant"*, %"cls.acjs::JsVariant"* dereferenceable(56))

declare zeroext i1 @_ZNK14altered_carbon2js9JsVariantleERKS1_(%"cls.acjs::JsVariant"*, %"cls.acjs::JsVariant"* dereferenceable(56))

declare zeroext i1 @_ZNK14altered_carbon2js9JsVariantgeERKS1_(%"cls.acjs::JsVariant"*, %"cls.acjs::JsVariant"* dereferenceable(56))

declare dereferenceable(56) %"cls.acjs::JsVariant"* @_ZNK14altered_carbon2js9JsVariant3ltsEPS1_RKS1_(%"cls.acjs::JsVariant"*, %"cls.acjs::JsVariant"*, %"cls.acjs::JsVariant"* dereferenceable(56))

declare dereferenceable(56) %"cls.acjs::JsVariant"* @_ZNK14altered_carbon2js9JsVariant3rtsEPS1_RKS1_(%"cls.acjs::JsVariant"*, %"cls.acjs::JsVariant"*, %"cls.acjs::JsVariant"* dereferenceable(56))

declare dereferenceable(56) %"cls.acjs::JsVariant"* @_ZNK14altered_carbon2js9JsVariant3rszEPS1_RKS1_(%"cls.acjs::JsVariant"*, %"cls.acjs::JsVariant"*, %"cls.acjs::JsVariant"* dereferenceable(56))

declare dereferenceable(56) %"cls.acjs::JsVariant"* @_ZNK14altered_carbon2js9JsVariant3addEPS1_RKS1_(%"cls.acjs::JsVariant"*, %"cls.acjs::JsVariant"*, %"cls.acjs::JsVariant"* dereferenceable(56))

declare void @_ZN14altered_carbon2js9JsVariantpsEv(%"cls.acjs::JsVariant"* noalias sret, %"cls.acjs::JsVariant"*)

declare dereferenceable(56) %"cls.acjs::JsVariant"* @_ZNK14altered_carbon2js9JsVariant3subEPS1_RKS1_(%"cls.acjs::JsVariant"*, %"cls.acjs::JsVariant"*, %"cls.acjs::JsVariant"* dereferenceable(56))

declare void @_ZN14altered_carbon2js9JsVariantngEv(%"cls.acjs::JsVariant"* noalias sret, %"cls.acjs::JsVariant"*)

declare dereferenceable(56) %"cls.acjs::JsVariant"* @_ZNK14altered_carbon2js9JsVariant3mulEPS1_RKS1_(%"cls.acjs::JsVariant"*, %"cls.acjs::JsVariant"*, %"cls.acjs::JsVariant"* dereferenceable(56))

declare dereferenceable(56) %"cls.acjs::JsVariant"* @_ZNK14altered_carbon2js9JsVariant3divEPS1_RKS1_(%"cls.acjs::JsVariant"*, %"cls.acjs::JsVariant"*, %"cls.acjs::JsVariant"* dereferenceable(56))

declare dereferenceable(56) %"cls.acjs::JsVariant"* @_ZNK14altered_carbon2js9JsVariant3modEPS1_RKS1_(%"cls.acjs::JsVariant"*, %"cls.acjs::JsVariant"*, %"cls.acjs::JsVariant"* dereferenceable(56))

declare void @_ZN14altered_carbon2js9JsVariantcoEv(%"cls.acjs::JsVariant"* noalias sret, %"cls.acjs::JsVariant"*)

declare void @_ZN14altered_carbon2js9JsVariantppEi(%"cls.acjs::JsVariant"* noalias sret, %"cls.acjs::JsVariant"*, i32)

declare dereferenceable(56) %"cls.acjs::JsVariant"* @_ZN14altered_carbon2js9JsVariantppEv(%"cls.acjs::JsVariant"*)

declare void @_ZN14altered_carbon2js9JsVariantmmEi(%"cls.acjs::JsVariant"* noalias sret, %"cls.acjs::JsVariant"*, i32)

declare dereferenceable(56) %"cls.acjs::JsVariant"* @_ZN14altered_carbon2js9JsVariantmmEv(%"cls.acjs::JsVariant"*)

declare dereferenceable(56) %"cls.acjs::JsVariant"* @_ZN14altered_carbon2js9JsVariantaSERKS1_(%"cls.acjs::JsVariant"*, %"cls.acjs::JsVariant"* dereferenceable(56))

declare dereferenceable(56) %"cls.acjs::JsVariant"* @_ZN14altered_carbon2js9JsVariantpLERKS1_(%"cls.acjs::JsVariant"*, %"cls.acjs::JsVariant"* dereferenceable(56))

declare dereferenceable(56) %"cls.acjs::JsVariant"* @_ZN14altered_carbon2js9JsVariantmIERKS1_(%"cls.acjs::JsVariant"*, %"cls.acjs::JsVariant"* dereferenceable(56))

declare dereferenceable(56) %"cls.acjs::JsVariant"* @_ZN14altered_carbon2js9JsVariantmLERKS1_(%"cls.acjs::JsVariant"*, %"cls.acjs::JsVariant"* dereferenceable(56))

declare dereferenceable(56) %"cls.acjs::JsVariant"* @_ZN14altered_carbon2js9JsVariantdVERKS1_(%"cls.acjs::JsVariant"*, %"cls.acjs::JsVariant"* dereferenceable(56))

declare dereferenceable(56) %"cls.acjs::JsVariant"* @_ZN14altered_carbon2js9JsVariantrMERKS1_(%"cls.acjs::JsVariant"*, %"cls.acjs::JsVariant"* dereferenceable(56))

declare dereferenceable(56) %"cls.acjs::JsVariant"* @_ZN14altered_carbon2js9JsVariantlSERKS1_(%"cls.acjs::JsVariant"*, %"cls.acjs::JsVariant"* dereferenceable(56))

declare dereferenceable(56) %"cls.acjs::JsVariant"* @_ZN14altered_carbon2js9JsVariantrSERKS1_(%"cls.acjs::JsVariant"*, %"cls.acjs::JsVariant"* dereferenceable(56))

declare dereferenceable(56) %"cls.acjs::JsVariant"* @_ZN14altered_carbon2js9JsVariant4arszERKS1_(%"cls.acjs::JsVariant"*, %"cls.acjs::JsVariant"* dereferenceable(56))

declare dereferenceable(56) %"cls.acjs::JsVariant"* @_ZN14altered_carbon2js9JsVariantaNERKS1_(%"cls.acjs::JsVariant"*, %"cls.acjs::JsVariant"* dereferenceable(56))

declare dereferenceable(56) %"cls.acjs::JsVariant"* @_ZN14altered_carbon2js9JsVariantoRERKS1_(%"cls.acjs::JsVariant"*, %"cls.acjs::JsVariant"* dereferenceable(56))

declare dereferenceable(56) %"cls.acjs::JsVariant"* @_ZN14altered_carbon2js9JsVarianteOERKS1_(%"cls.acjs::JsVariant"*, %"cls.acjs::JsVariant"* dereferenceable(56))

define void @_Z7_scriptPN14altered_carbon2js9JsVariantE(%"cls.acjs::JsVariant"*) {
init.bb:
  %ptr = alloca %"cls.acjs::JsVariant", align 8
  %1 = bitcast %"cls.acjs::JsVariant"* %ptr to i32 (...)***
  store i32 (...)** bitcast (i8** getelementptr inbounds ({ [4 x i8*] }, { [4 x i8*] }* @_ZTVN14altered_carbon2js9JsVariantE, i32 0, inrange i32 0, i32 2) to i32 (...)**), i32 (...)*** %1, align 8
  %2 = getelementptr inbounds %"cls.acjs::JsVariant", %"cls.acjs::JsVariant"* %ptr, i32 0, i32 1
  store i32 1, i32* %2, align 8
  %ptr1 = alloca [1 x %"cls.acjs::JsVariant"*], align 16
  %ptr2 = alloca %"cls.acjs::JsVariant", align 8
  %3 = bitcast %"cls.acjs::JsVariant"* %ptr2 to i32 (...)***
  store i32 (...)** bitcast (i8** getelementptr inbounds ({ [4 x i8*] }, { [4 x i8*] }* @_ZTVN14altered_carbon2js9JsVariantE, i32 0, inrange i32 0, i32 2) to i32 (...)**), i32 (...)*** %3, align 8
  %4 = getelementptr inbounds %"cls.acjs::JsVariant", %"cls.acjs::JsVariant"* %ptr2, i32 0, i32 1
  store i32 1, i32* %4, align 8
  %ptr3 = alloca %"cls.acjs::JsVariant", align 8
  %5 = bitcast %"cls.acjs::JsVariant"* %ptr3 to i32 (...)***
  store i32 (...)** bitcast (i8** getelementptr inbounds ({ [4 x i8*] }, { [4 x i8*] }* @_ZTVN14altered_carbon2js9JsVariantE, i32 0, inrange i32 0, i32 2) to i32 (...)**), i32 (...)*** %5, align 8
  %6 = getelementptr inbounds %"cls.acjs::JsVariant", %"cls.acjs::JsVariant"* %ptr3, i32 0, i32 1
  store i32 1, i32* %6, align 8
  br label %exec.bb

exec.bb:                                          ; preds = %init.bb
  %7 = call %"cls.acjs::JsVariant"* @_ZN14altered_carbon2js9JsVariantaSEx(%"cls.acjs::JsVariant"* %ptr, i64 10)
  %8 = getelementptr inbounds [1 x %"cls.acjs::JsVariant"*], [1 x %"cls.acjs::JsVariant"*]* %ptr1, i32 0, i32 0
  %9 = getelementptr inbounds %"cls.acjs::JsVariant"*, %"cls.acjs::JsVariant"** %8, i64 0
  store %"cls.acjs::JsVariant"* %ptr, %"cls.acjs::JsVariant"** %9, align 8
  call void @_ZN3_js9factorialEPN14altered_carbon2js9JsVariantEN4llvm8ArrayRefIS3_EE(%"cls.acjs::JsVariant"* %ptr2, %"cls.acjs::JsVariant"* null, %"cls.acjs::JsVariant"** %8, i64 1)
  %10 = call %"cls.acjs::JsVariant"* @_ZN14altered_carbon2js9JsVariantaSERKS1_(%"cls.acjs::JsVariant"* %ptr3, %"cls.acjs::JsVariant"* %ptr2)
  br label %exit.bb

exit.bb:                                          ; preds = %exec.bb
  %11 = call %"cls.acjs::JsVariant"* @_ZN14altered_carbon2js9JsVariantaSERKS1_(%"cls.acjs::JsVariant"* %0, %"cls.acjs::JsVariant"* dereferenceable(56) %ptr3)
  call void @_ZN14altered_carbon2js9JsVariantD1Ev(%"cls.acjs::JsVariant"* %ptr3)
  call void @_ZN14altered_carbon2js9JsVariantD1Ev(%"cls.acjs::JsVariant"* %ptr2)
  call void @_ZN14altered_carbon2js9JsVariantD1Ev(%"cls.acjs::JsVariant"* %ptr)
  ret void
}

define void @_ZN3_js9factorialEPN14altered_carbon2js9JsVariantEN4llvm8ArrayRefIS3_EE(%"cls.acjs::JsVariant"* noalias sret, %"cls.acjs::JsVariant"*, %"cls.acjs::JsVariant"**, i64) {
init.bb:
  %ptr = alloca %"cls.acjs::JsVariant"*, align 8
  %ptr2 = alloca %"cls.acjs::JsVariant", align 8
  %4 = bitcast %"cls.acjs::JsVariant"* %ptr2 to i32 (...)***
  store i32 (...)** bitcast (i8** getelementptr inbounds ({ [4 x i8*] }, { [4 x i8*] }* @_ZTVN14altered_carbon2js9JsVariantE, i32 0, inrange i32 0, i32 2) to i32 (...)**), i32 (...)*** %4, align 8
  %5 = getelementptr inbounds %"cls.acjs::JsVariant", %"cls.acjs::JsVariant"* %ptr2, i32 0, i32 1
  store i32 1, i32* %5, align 8
  %ptr3 = alloca %"cls.acjs::JsVariant", align 8
  %6 = bitcast %"cls.acjs::JsVariant"* %ptr3 to i32 (...)***
  store i32 (...)** bitcast (i8** getelementptr inbounds ({ [4 x i8*] }, { [4 x i8*] }* @_ZTVN14altered_carbon2js9JsVariantE, i32 0, inrange i32 0, i32 2) to i32 (...)**), i32 (...)*** %6, align 8
  %7 = getelementptr inbounds %"cls.acjs::JsVariant", %"cls.acjs::JsVariant"* %ptr3, i32 0, i32 1
  store i32 1, i32* %7, align 8
  %ptr4 = alloca %"cls.acjs::JsVariant", align 8
  %8 = bitcast %"cls.acjs::JsVariant"* %ptr4 to i32 (...)***
  store i32 (...)** bitcast (i8** getelementptr inbounds ({ [4 x i8*] }, { [4 x i8*] }* @_ZTVN14altered_carbon2js9JsVariantE, i32 0, inrange i32 0, i32 2) to i32 (...)**), i32 (...)*** %8, align 8
  %9 = getelementptr inbounds %"cls.acjs::JsVariant", %"cls.acjs::JsVariant"* %ptr4, i32 0, i32 1
  store i32 1, i32* %9, align 8
  %ptr6 = alloca %"cls.acjs::JsVariant", align 8
  %10 = bitcast %"cls.acjs::JsVariant"* %ptr6 to i32 (...)***
  store i32 (...)** bitcast (i8** getelementptr inbounds ({ [4 x i8*] }, { [4 x i8*] }* @_ZTVN14altered_carbon2js9JsVariantE, i32 0, inrange i32 0, i32 2) to i32 (...)**), i32 (...)*** %10, align 8
  %11 = getelementptr inbounds %"cls.acjs::JsVariant", %"cls.acjs::JsVariant"* %ptr6, i32 0, i32 1
  store i32 1, i32* %11, align 8
  %ptr7 = alloca %"cls.acjs::JsVariant", align 8
  %12 = bitcast %"cls.acjs::JsVariant"* %ptr7 to i32 (...)***
  store i32 (...)** bitcast (i8** getelementptr inbounds ({ [4 x i8*] }, { [4 x i8*] }* @_ZTVN14altered_carbon2js9JsVariantE, i32 0, inrange i32 0, i32 2) to i32 (...)**), i32 (...)*** %12, align 8
  %13 = getelementptr inbounds %"cls.acjs::JsVariant", %"cls.acjs::JsVariant"* %ptr7, i32 0, i32 1
  store i32 1, i32* %13, align 8
  %ptr8 = alloca [1 x %"cls.acjs::JsVariant"*], align 16
  %ptr9 = alloca %"cls.acjs::JsVariant", align 8
  %14 = bitcast %"cls.acjs::JsVariant"* %ptr9 to i32 (...)***
  store i32 (...)** bitcast (i8** getelementptr inbounds ({ [4 x i8*] }, { [4 x i8*] }* @_ZTVN14altered_carbon2js9JsVariantE, i32 0, inrange i32 0, i32 2) to i32 (...)**), i32 (...)*** %14, align 8
  %15 = getelementptr inbounds %"cls.acjs::JsVariant", %"cls.acjs::JsVariant"* %ptr9, i32 0, i32 1
  store i32 1, i32* %15, align 8
  %ptr10 = alloca %"cls.acjs::JsVariant", align 8
  %16 = bitcast %"cls.acjs::JsVariant"* %ptr10 to i32 (...)***
  store i32 (...)** bitcast (i8** getelementptr inbounds ({ [4 x i8*] }, { [4 x i8*] }* @_ZTVN14altered_carbon2js9JsVariantE, i32 0, inrange i32 0, i32 2) to i32 (...)**), i32 (...)*** %16, align 8
  %17 = getelementptr inbounds %"cls.acjs::JsVariant", %"cls.acjs::JsVariant"* %ptr10, i32 0, i32 1
  store i32 1, i32* %17, align 8
  %ptr12 = alloca %"cls.acjs::JsVariant", align 8
  %18 = bitcast %"cls.acjs::JsVariant"* %ptr12 to i32 (...)***
  store i32 (...)** bitcast (i8** getelementptr inbounds ({ [4 x i8*] }, { [4 x i8*] }* @_ZTVN14altered_carbon2js9JsVariantE, i32 0, inrange i32 0, i32 2) to i32 (...)**), i32 (...)*** %18, align 8
  %19 = getelementptr inbounds %"cls.acjs::JsVariant", %"cls.acjs::JsVariant"* %ptr12, i32 0, i32 1
  store i32 1, i32* %19, align 8
  br label %param.bb

exec.bb:                                          ; preds = %pcase.bb
  br label %block

exit.bb:                                          ; preds = %blocke, %block11, %block5
  call void @_ZN14altered_carbon2js9JsVariantD1Ev(%"cls.acjs::JsVariant"* %ptr12)
  call void @_ZN14altered_carbon2js9JsVariantD1Ev(%"cls.acjs::JsVariant"* %ptr10)
  call void @_ZN14altered_carbon2js9JsVariantD1Ev(%"cls.acjs::JsVariant"* %ptr9)
  call void @_ZN14altered_carbon2js9JsVariantD1Ev(%"cls.acjs::JsVariant"* %ptr7)
  call void @_ZN14altered_carbon2js9JsVariantD1Ev(%"cls.acjs::JsVariant"* %ptr6)
  call void @_ZN14altered_carbon2js9JsVariantD1Ev(%"cls.acjs::JsVariant"* %ptr4)
  call void @_ZN14altered_carbon2js9JsVariantD1Ev(%"cls.acjs::JsVariant"* %ptr3)
  call void @_ZN14altered_carbon2js9JsVariantD1Ev(%"cls.acjs::JsVariant"* %ptr2)
  ret void

param.bb:                                         ; preds = %init.bb
  switch i64 %3, label %pcase.bb1 [
    i64 0, label %pcase.bb
  ]

pcase.bb:                                         ; preds = %pcase.bb1, %param.bb
  br label %exec.bb

pcase.bb1:                                        ; preds = %param.bb
  %20 = getelementptr inbounds %"cls.acjs::JsVariant"*, %"cls.acjs::JsVariant"** %2, i64 0
  %21 = load %"cls.acjs::JsVariant"*, %"cls.acjs::JsVariant"** %20, align 8
  store %"cls.acjs::JsVariant"* %21, %"cls.acjs::JsVariant"** %ptr, align 8
  %22 = load %"cls.acjs::JsVariant"*, %"cls.acjs::JsVariant"** %ptr, align 8
  %23 = call %"cls.acjs::JsVariant"* @_ZN14altered_carbon2js9JsVariantaSERKS1_(%"cls.acjs::JsVariant"* %ptr2, %"cls.acjs::JsVariant"* %22)
  br label %pcase.bb

block:                                            ; preds = %exec.bb
  %24 = call %"cls.acjs::JsVariant"* @_ZN14altered_carbon2js9JsVariantaSEx(%"cls.acjs::JsVariant"* %ptr3, i64 1)
  %25 = call i1 @_ZNK14altered_carbon2js9JsVariantgtERKS1_(%"cls.acjs::JsVariant"* %ptr2, %"cls.acjs::JsVariant"* %ptr3)
  br i1 %25, label %ret.lhs, label %ret.rhs

ret.lhs:                                          ; preds = %block
  br label %block5

ret.rhs:                                          ; preds = %block
  br label %block11

ret.op:                                           ; preds = %block11e, %block5e
  br label %blocke

block5:                                           ; preds = %ret.lhs
  %26 = call %"cls.acjs::JsVariant"* @_ZN14altered_carbon2js9JsVariantaSEx(%"cls.acjs::JsVariant"* %ptr6, i64 1)
  %27 = call %"cls.acjs::JsVariant"* @_ZNK14altered_carbon2js9JsVariant3subEPS1_RKS1_(%"cls.acjs::JsVariant"* %ptr2, %"cls.acjs::JsVariant"* %ptr7, %"cls.acjs::JsVariant"* %ptr6)
  %28 = getelementptr inbounds [1 x %"cls.acjs::JsVariant"*], [1 x %"cls.acjs::JsVariant"*]* %ptr8, i32 0, i32 0
  %29 = getelementptr inbounds %"cls.acjs::JsVariant"*, %"cls.acjs::JsVariant"** %28, i64 0
  store %"cls.acjs::JsVariant"* %27, %"cls.acjs::JsVariant"** %29, align 8
  call void @_ZN3_js9factorialEPN14altered_carbon2js9JsVariantEN4llvm8ArrayRefIS3_EE(%"cls.acjs::JsVariant"* %ptr9, %"cls.acjs::JsVariant"* null, %"cls.acjs::JsVariant"** %28, i64 1)
  %30 = call %"cls.acjs::JsVariant"* @_ZNK14altered_carbon2js9JsVariant3mulEPS1_RKS1_(%"cls.acjs::JsVariant"* %ptr2, %"cls.acjs::JsVariant"* %ptr10, %"cls.acjs::JsVariant"* %ptr9)
  %31 = call %"cls.acjs::JsVariant"* @_ZN14altered_carbon2js9JsVariantaSERKS1_(%"cls.acjs::JsVariant"* %0, %"cls.acjs::JsVariant"* %30)
  br label %exit.bb

block5e:                                          ; No predecessors!
  br label %ret.op

block11:                                          ; preds = %ret.rhs
  %32 = call %"cls.acjs::JsVariant"* @_ZN14altered_carbon2js9JsVariantaSEx(%"cls.acjs::JsVariant"* %ptr12, i64 1)
  %33 = call %"cls.acjs::JsVariant"* @_ZN14altered_carbon2js9JsVariantaSERKS1_(%"cls.acjs::JsVariant"* %0, %"cls.acjs::JsVariant"* %ptr12)
  br label %exit.bb

block11e:                                         ; No predecessors!
  br label %ret.op

blocke:                                           ; preds = %ret.op
  br label %exit.bb
}

declare %"cls.acjs::JsVariant"* @_ZN14altered_carbon2js9JsVariantaSEx(%"cls.acjs::JsVariant"*, i64)
