; ModuleID = 'gamma.js'
source_filename = "gamma.js"

%"cls.acjs::JsVariant" = type { i32 (...)**, i32, %union.anon.6 }
%union.anon.6 = type { %"cls.acjs::JsVariantFunc", [24 x i8] }
%"cls.acjs::JsVariantFunc" = type { void (%"cls.acjs::JsVariant"*, %"cls.acjs::JsVariant"*, %"cls.acjs::JsVariant"**, i64)*, i32* }
%"str.acjs::JsVariantIterator" = type { %"cls.acjs::RefCountedPtr", %"cls.acjs::RBTreeNode"*, i32, i32 }
%"cls.acjs::RefCountedPtr" = type { %"cls.acjs::RefCounted"* }
%"cls.acjs::RefCounted" = type { %"cls.acjs::JsVariantArray", %"str.acjs::RefCounter" }
%"cls.acjs::JsVariantArray" = type { i32 (...)**, %"cls.acjs::RBTreeNode"* }
%"str.acjs::RefCounter" = type { %"struct.std::__1::__atomic" }
%"struct.std::__1::__atomic" = type { %"struct.std::__1::__atomic_base.9" }
%"struct.std::__1::__atomic_base.9" = type { %"struct.std::__1::__atomic_base" }
%"struct.std::__1::__atomic_base" = type { i64 }
%"cls.acjs::RBTreeNode" = type { i32 (...)**, i32, i32, i32, i32, %"cls.acjs::RBTreeNode"*, %"cls.acjs::RBTreeNode"*, %"cls.acjs::RBTreeNode"*, %"struct.std::__1::__vector" }
%"struct.std::__1::__vector" = type { %"struct.std::__1::__vector_base" }
%"struct.std::__1::__vector_base" = type { %"cls.acjs::JsVariant"**, %"cls.acjs::JsVariant"**, %"class.std::__1::__compressed_pair.8" }
%"class.std::__1::__compressed_pair.8" = type { %"struct.std::__1::__compressed_pair_elem.7" }
%"struct.std::__1::__compressed_pair_elem.7" = type { %"cls.acjs::JsVariant"** }
%"cls.acjs::JsVariantNumber" = type <{ i64, double, i8, [16 x i8] }>

@_ZTVN10__cxxabiv117__class_type_infoE = external global i8*
@_ZTSN14altered_carbon2js9JsVariantE = linkonce_odr constant [32 x i8] c"N14altered_carbon2js9JsVariantE\00"
@_ZTIN14altered_carbon2js9JsVariantE = linkonce_odr constant { i8*, i8* } { i8* bitcast (i8** getelementptr inbounds (i8*, i8** @_ZTVN10__cxxabiv117__class_type_infoE, i64 2) to i8*), i8* getelementptr inbounds ([32 x i8], [32 x i8]* @_ZTSN14altered_carbon2js9JsVariantE, i32 0, i32 0) }
@_ZTVN14altered_carbon2js9JsVariantE = linkonce_odr unnamed_addr constant { [4 x i8*] } { [4 x i8*] [i8* null, i8* bitcast ({ i8*, i8* }* @_ZTIN14altered_carbon2js9JsVariantE to i8*), i8* bitcast (void (%"cls.acjs::JsVariant"*)* @_ZN14altered_carbon2js9JsVariantD1Ev to i8*), i8* bitcast (void (%"cls.acjs::JsVariant"*)* @_ZN14altered_carbon2js9JsVariantD0Ev to i8*)] }, align 8
@_ZTVN14altered_carbon2js9JsVariantE_GEP = internal constant i8** getelementptr inbounds ({ [4 x i8*] }, { [4 x i8*] }* @_ZTVN14altered_carbon2js9JsVariantE, i32 0, inrange i32 0, i32 2)
@_ZN14altered_carbon2js11JsConstants9UndefinedE = external constant %"cls.acjs::JsVariant"
@_ZN14altered_carbon2js11JsConstants4NullE = external constant %"cls.acjs::JsVariant"
@_ZN14altered_carbon2js11JsConstants3NaNE = external constant %"cls.acjs::JsVariant"
@_ZN14altered_carbon2js11JsConstants8InfinityE = external constant %"cls.acjs::JsVariant"
@_ZN14altered_carbon2js11JsConstants9TypeErrorE = external constant %"cls.acjs::JsVariant"
@_ZN14altered_carbon2js11JsConstants16NullPointerErrorE = external constant %"cls.acjs::JsVariant"
@_ZN14altered_carbon2js11JsConstants3EndE = external constant %"str.acjs::JsVariantIterator"
@_ZN14altered_carbon2js11JsConstants4REndE = external constant %"str.acjs::JsVariantIterator"

declare void @_ZN14altered_carbon2js9JsVariantD1Ev(%"cls.acjs::JsVariant"*)

declare void @_ZN14altered_carbon2js9JsVariantD0Ev(%"cls.acjs::JsVariant"*)

declare dereferenceable(56) %"cls.acjs::JsVariant"* @_ZNK14altered_carbon2js9JsVariant3bwaEPS1_RKS1_(%"cls.acjs::JsVariant"*, %"cls.acjs::JsVariant"*, %"cls.acjs::JsVariant"* dereferenceable(56))

declare dereferenceable(56) %"cls.acjs::JsVariant"* @_ZNK14altered_carbon2js9JsVariant3bwxEPS1_RKS1_(%"cls.acjs::JsVariant"*, %"cls.acjs::JsVariant"*, %"cls.acjs::JsVariant"* dereferenceable(56))

declare zeroext i1 @_ZNK14altered_carbon2js9JsVarianteqERKS1_(%"cls.acjs::JsVariant"*, %"cls.acjs::JsVariant"* dereferenceable(56))

declare zeroext i1 @_ZNK14altered_carbon2js9JsVariantneERKS1_(%"cls.acjs::JsVariant"*, %"cls.acjs::JsVariant"* dereferenceable(56))

declare zeroext i1 @_ZNK14altered_carbon2js9JsVariant4eqvtERKS1_(%"cls.acjs::JsVariant"*, %"cls.acjs::JsVariant"* dereferenceable(56))

declare zeroext i1 @_ZNK14altered_carbon2js9JsVariant4nevtERKS1_(%"cls.acjs::JsVariant"*, %"cls.acjs::JsVariant"* dereferenceable(56))

declare zeroext i1 @_ZNK14altered_carbon2js9JsVariantltERKS1_(%"cls.acjs::JsVariant"*, %"cls.acjs::JsVariant"* dereferenceable(56))

declare zeroext i1 @_ZNK14altered_carbon2js9JsVariantgtERKS1_(%"cls.acjs::JsVariant"*, %"cls.acjs::JsVariant"* dereferenceable(56))

declare zeroext i1 @_ZNK14altered_carbon2js9JsVariantleERKS1_(%"cls.acjs::JsVariant"*, %"cls.acjs::JsVariant"* dereferenceable(56))

declare zeroext i1 @_ZNK14altered_carbon2js9JsVariantgeERKS1_(%"cls.acjs::JsVariant"*, %"cls.acjs::JsVariant"* dereferenceable(56))

declare dereferenceable(56) %"cls.acjs::JsVariant"* @_ZNK14altered_carbon2js9JsVariant3ltsEPS1_RKS1_(%"cls.acjs::JsVariant"*, %"cls.acjs::JsVariant"*, %"cls.acjs::JsVariant"* dereferenceable(56))

declare dereferenceable(56) %"cls.acjs::JsVariant"* @_ZNK14altered_carbon2js9JsVariant3rtsEPS1_RKS1_(%"cls.acjs::JsVariant"*, %"cls.acjs::JsVariant"*, %"cls.acjs::JsVariant"* dereferenceable(56))

declare dereferenceable(56) %"cls.acjs::JsVariant"* @_ZNK14altered_carbon2js9JsVariant3rszEPS1_RKS1_(%"cls.acjs::JsVariant"*, %"cls.acjs::JsVariant"*, %"cls.acjs::JsVariant"* dereferenceable(56))

declare dereferenceable(56) %"cls.acjs::JsVariant"* @_ZNK14altered_carbon2js9JsVariant3addEPS1_RKS1_(%"cls.acjs::JsVariant"*, %"cls.acjs::JsVariant"*, %"cls.acjs::JsVariant"* dereferenceable(56))

declare void @_ZN14altered_carbon2js9JsVariantpsEv(%"cls.acjs::JsVariant"* noalias sret, %"cls.acjs::JsVariant"*)

declare dereferenceable(56) %"cls.acjs::JsVariant"* @_ZNK14altered_carbon2js9JsVariant3subEPS1_RKS1_(%"cls.acjs::JsVariant"*, %"cls.acjs::JsVariant"*, %"cls.acjs::JsVariant"* dereferenceable(56))

declare void @_ZN14altered_carbon2js9JsVariantngEv(%"cls.acjs::JsVariant"* noalias sret, %"cls.acjs::JsVariant"*)

declare dereferenceable(56) %"cls.acjs::JsVariant"* @_ZNK14altered_carbon2js9JsVariant3mulEPS1_RKS1_(%"cls.acjs::JsVariant"*, %"cls.acjs::JsVariant"*, %"cls.acjs::JsVariant"* dereferenceable(56))

declare dereferenceable(56) %"cls.acjs::JsVariant"* @_ZNK14altered_carbon2js9JsVariant3divEPS1_RKS1_(%"cls.acjs::JsVariant"*, %"cls.acjs::JsVariant"*, %"cls.acjs::JsVariant"* dereferenceable(56))

declare dereferenceable(56) %"cls.acjs::JsVariant"* @_ZNK14altered_carbon2js9JsVariant3modEPS1_RKS1_(%"cls.acjs::JsVariant"*, %"cls.acjs::JsVariant"*, %"cls.acjs::JsVariant"* dereferenceable(56))

declare void @_ZN14altered_carbon2js9JsVariantcoEv(%"cls.acjs::JsVariant"* noalias sret, %"cls.acjs::JsVariant"*)

declare void @_ZN14altered_carbon2js9JsVariantppEi(%"cls.acjs::JsVariant"* noalias sret, %"cls.acjs::JsVariant"*, i32)

declare dereferenceable(56) %"cls.acjs::JsVariant"* @_ZN14altered_carbon2js9JsVariantppEv(%"cls.acjs::JsVariant"*)

declare void @_ZN14altered_carbon2js9JsVariantmmEi(%"cls.acjs::JsVariant"* noalias sret, %"cls.acjs::JsVariant"*, i32)

declare dereferenceable(56) %"cls.acjs::JsVariant"* @_ZN14altered_carbon2js9JsVariantmmEv(%"cls.acjs::JsVariant"*)

declare dereferenceable(56) %"cls.acjs::JsVariant"* @_ZN14altered_carbon2js9JsVariantaSERKS1_(%"cls.acjs::JsVariant"*, %"cls.acjs::JsVariant"* dereferenceable(56))

declare dereferenceable(56) %"cls.acjs::JsVariant"* @_ZN14altered_carbon2js9JsVariantpLERKS1_(%"cls.acjs::JsVariant"*, %"cls.acjs::JsVariant"* dereferenceable(56))

declare dereferenceable(56) %"cls.acjs::JsVariant"* @_ZN14altered_carbon2js9JsVariantmIERKS1_(%"cls.acjs::JsVariant"*, %"cls.acjs::JsVariant"* dereferenceable(56))

declare dereferenceable(56) %"cls.acjs::JsVariant"* @_ZN14altered_carbon2js9JsVariantmLERKS1_(%"cls.acjs::JsVariant"*, %"cls.acjs::JsVariant"* dereferenceable(56))

declare dereferenceable(56) %"cls.acjs::JsVariant"* @_ZN14altered_carbon2js9JsVariantdVERKS1_(%"cls.acjs::JsVariant"*, %"cls.acjs::JsVariant"* dereferenceable(56))

declare dereferenceable(56) %"cls.acjs::JsVariant"* @_ZN14altered_carbon2js9JsVariantrMERKS1_(%"cls.acjs::JsVariant"*, %"cls.acjs::JsVariant"* dereferenceable(56))

declare dereferenceable(56) %"cls.acjs::JsVariant"* @_ZN14altered_carbon2js9JsVariantlSERKS1_(%"cls.acjs::JsVariant"*, %"cls.acjs::JsVariant"* dereferenceable(56))

declare dereferenceable(56) %"cls.acjs::JsVariant"* @_ZN14altered_carbon2js9JsVariantrSERKS1_(%"cls.acjs::JsVariant"*, %"cls.acjs::JsVariant"* dereferenceable(56))

declare dereferenceable(56) %"cls.acjs::JsVariant"* @_ZN14altered_carbon2js9JsVariant4arszERKS1_(%"cls.acjs::JsVariant"*, %"cls.acjs::JsVariant"* dereferenceable(56))

declare dereferenceable(56) %"cls.acjs::JsVariant"* @_ZN14altered_carbon2js9JsVariantaNERKS1_(%"cls.acjs::JsVariant"*, %"cls.acjs::JsVariant"* dereferenceable(56))

declare dereferenceable(56) %"cls.acjs::JsVariant"* @_ZN14altered_carbon2js9JsVariantoRERKS1_(%"cls.acjs::JsVariant"*, %"cls.acjs::JsVariant"* dereferenceable(56))

declare dereferenceable(56) %"cls.acjs::JsVariant"* @_ZN14altered_carbon2js9JsVarianteOERKS1_(%"cls.acjs::JsVariant"*, %"cls.acjs::JsVariant"* dereferenceable(56))

define void @_Z7_scriptPN14altered_carbon2js9JsVariantE(%"cls.acjs::JsVariant"*) {
init.bb:
  %vptr = alloca %"cls.acjs::JsVariant", align 8
  %1 = bitcast %"cls.acjs::JsVariant"* %vptr to i32 (...)***
  store i32 (...)** bitcast (i8*** @_ZTVN14altered_carbon2js9JsVariantE_GEP to i32 (...)**), i32 (...)*** %1, align 8
  %2 = getelementptr inbounds %"cls.acjs::JsVariant", %"cls.acjs::JsVariant"* %vptr, i32 0, i32 1
  store i32 1, i32* %2, align 8
  %vptr1 = alloca %"cls.acjs::JsVariant", align 8
  %3 = bitcast %"cls.acjs::JsVariant"* %vptr1 to i32 (...)***
  store i32 (...)** bitcast (i8*** @_ZTVN14altered_carbon2js9JsVariantE_GEP to i32 (...)**), i32 (...)*** %3, align 8
  %4 = getelementptr inbounds %"cls.acjs::JsVariant", %"cls.acjs::JsVariant"* %vptr1, i32 0, i32 1
  store i32 1, i32* %4, align 8
  %vptr2 = alloca %"cls.acjs::JsVariant", align 8
  %5 = bitcast %"cls.acjs::JsVariant"* %vptr2 to i32 (...)***
  store i32 (...)** bitcast (i8*** @_ZTVN14altered_carbon2js9JsVariantE_GEP to i32 (...)**), i32 (...)*** %5, align 8
  %6 = getelementptr inbounds %"cls.acjs::JsVariant", %"cls.acjs::JsVariant"* %vptr2, i32 0, i32 1
  store i32 1, i32* %6, align 8
  %vptr3 = alloca %"cls.acjs::JsVariant", align 8
  %7 = bitcast %"cls.acjs::JsVariant"* %vptr3 to i32 (...)***
  store i32 (...)** bitcast (i8*** @_ZTVN14altered_carbon2js9JsVariantE_GEP to i32 (...)**), i32 (...)*** %7, align 8
  %8 = getelementptr inbounds %"cls.acjs::JsVariant", %"cls.acjs::JsVariant"* %vptr3, i32 0, i32 1
  store i32 1, i32* %8, align 8
  %vptr4 = alloca %"cls.acjs::JsVariant", align 8
  %9 = bitcast %"cls.acjs::JsVariant"* %vptr4 to i32 (...)***
  store i32 (...)** bitcast (i8*** @_ZTVN14altered_carbon2js9JsVariantE_GEP to i32 (...)**), i32 (...)*** %9, align 8
  %10 = getelementptr inbounds %"cls.acjs::JsVariant", %"cls.acjs::JsVariant"* %vptr4, i32 0, i32 1
  store i32 1, i32* %10, align 8
  %vptr5 = alloca %"cls.acjs::JsVariant", align 8
  %11 = bitcast %"cls.acjs::JsVariant"* %vptr5 to i32 (...)***
  store i32 (...)** bitcast (i8*** @_ZTVN14altered_carbon2js9JsVariantE_GEP to i32 (...)**), i32 (...)*** %11, align 8
  %12 = getelementptr inbounds %"cls.acjs::JsVariant", %"cls.acjs::JsVariant"* %vptr5, i32 0, i32 1
  store i32 1, i32* %12, align 8
  %vptr6 = alloca %"cls.acjs::JsVariant", align 8
  %13 = bitcast %"cls.acjs::JsVariant"* %vptr6 to i32 (...)***
  store i32 (...)** bitcast (i8*** @_ZTVN14altered_carbon2js9JsVariantE_GEP to i32 (...)**), i32 (...)*** %13, align 8
  %14 = getelementptr inbounds %"cls.acjs::JsVariant", %"cls.acjs::JsVariant"* %vptr6, i32 0, i32 1
  store i32 1, i32* %14, align 8
  %vptr7 = alloca %"cls.acjs::JsVariant", align 8
  %15 = bitcast %"cls.acjs::JsVariant"* %vptr7 to i32 (...)***
  store i32 (...)** bitcast (i8*** @_ZTVN14altered_carbon2js9JsVariantE_GEP to i32 (...)**), i32 (...)*** %15, align 8
  %16 = getelementptr inbounds %"cls.acjs::JsVariant", %"cls.acjs::JsVariant"* %vptr7, i32 0, i32 1
  store i32 1, i32* %16, align 8
  %vptr8 = alloca %"cls.acjs::JsVariant", align 8
  %17 = bitcast %"cls.acjs::JsVariant"* %vptr8 to i32 (...)***
  store i32 (...)** bitcast (i8*** @_ZTVN14altered_carbon2js9JsVariantE_GEP to i32 (...)**), i32 (...)*** %17, align 8
  %18 = getelementptr inbounds %"cls.acjs::JsVariant", %"cls.acjs::JsVariant"* %vptr8, i32 0, i32 1
  store i32 1, i32* %18, align 8
  %vptr9 = alloca %"cls.acjs::JsVariant", align 8
  %19 = bitcast %"cls.acjs::JsVariant"* %vptr9 to i32 (...)***
  store i32 (...)** bitcast (i8*** @_ZTVN14altered_carbon2js9JsVariantE_GEP to i32 (...)**), i32 (...)*** %19, align 8
  %20 = getelementptr inbounds %"cls.acjs::JsVariant", %"cls.acjs::JsVariant"* %vptr9, i32 0, i32 1
  store i32 1, i32* %20, align 8
  %vptr10 = alloca %"cls.acjs::JsVariant", align 8
  %21 = bitcast %"cls.acjs::JsVariant"* %vptr10 to i32 (...)***
  store i32 (...)** bitcast (i8*** @_ZTVN14altered_carbon2js9JsVariantE_GEP to i32 (...)**), i32 (...)*** %21, align 8
  %22 = getelementptr inbounds %"cls.acjs::JsVariant", %"cls.acjs::JsVariant"* %vptr10, i32 0, i32 1
  store i32 1, i32* %22, align 8
  %vptr11 = alloca %"cls.acjs::JsVariant", align 8
  %23 = bitcast %"cls.acjs::JsVariant"* %vptr11 to i32 (...)***
  store i32 (...)** bitcast (i8*** @_ZTVN14altered_carbon2js9JsVariantE_GEP to i32 (...)**), i32 (...)*** %23, align 8
  %24 = getelementptr inbounds %"cls.acjs::JsVariant", %"cls.acjs::JsVariant"* %vptr11, i32 0, i32 1
  store i32 1, i32* %24, align 8
  %vptr12 = alloca %"cls.acjs::JsVariant", align 8
  %25 = bitcast %"cls.acjs::JsVariant"* %vptr12 to i32 (...)***
  store i32 (...)** bitcast (i8*** @_ZTVN14altered_carbon2js9JsVariantE_GEP to i32 (...)**), i32 (...)*** %25, align 8
  %26 = getelementptr inbounds %"cls.acjs::JsVariant", %"cls.acjs::JsVariant"* %vptr12, i32 0, i32 1
  store i32 1, i32* %26, align 8
  %vptr13 = alloca %"cls.acjs::JsVariant", align 8
  %27 = bitcast %"cls.acjs::JsVariant"* %vptr13 to i32 (...)***
  store i32 (...)** bitcast (i8*** @_ZTVN14altered_carbon2js9JsVariantE_GEP to i32 (...)**), i32 (...)*** %27, align 8
  %28 = getelementptr inbounds %"cls.acjs::JsVariant", %"cls.acjs::JsVariant"* %vptr13, i32 0, i32 1
  store i32 1, i32* %28, align 8
  %vptr14 = alloca %"cls.acjs::JsVariant", align 8
  %29 = bitcast %"cls.acjs::JsVariant"* %vptr14 to i32 (...)***
  store i32 (...)** bitcast (i8*** @_ZTVN14altered_carbon2js9JsVariantE_GEP to i32 (...)**), i32 (...)*** %29, align 8
  %30 = getelementptr inbounds %"cls.acjs::JsVariant", %"cls.acjs::JsVariant"* %vptr14, i32 0, i32 1
  store i32 1, i32* %30, align 8
  %vptr15 = alloca %"cls.acjs::JsVariant", align 8
  %31 = bitcast %"cls.acjs::JsVariant"* %vptr15 to i32 (...)***
  store i32 (...)** bitcast (i8*** @_ZTVN14altered_carbon2js9JsVariantE_GEP to i32 (...)**), i32 (...)*** %31, align 8
  %32 = getelementptr inbounds %"cls.acjs::JsVariant", %"cls.acjs::JsVariant"* %vptr15, i32 0, i32 1
  store i32 1, i32* %32, align 8
  %vptr16 = alloca %"cls.acjs::JsVariant", align 8
  %33 = bitcast %"cls.acjs::JsVariant"* %vptr16 to i32 (...)***
  store i32 (...)** bitcast (i8*** @_ZTVN14altered_carbon2js9JsVariantE_GEP to i32 (...)**), i32 (...)*** %33, align 8
  %34 = getelementptr inbounds %"cls.acjs::JsVariant", %"cls.acjs::JsVariant"* %vptr16, i32 0, i32 1
  store i32 1, i32* %34, align 8
  %vptr17 = alloca %"cls.acjs::JsVariant", align 8
  %35 = bitcast %"cls.acjs::JsVariant"* %vptr17 to i32 (...)***
  store i32 (...)** bitcast (i8*** @_ZTVN14altered_carbon2js9JsVariantE_GEP to i32 (...)**), i32 (...)*** %35, align 8
  %36 = getelementptr inbounds %"cls.acjs::JsVariant", %"cls.acjs::JsVariant"* %vptr17, i32 0, i32 1
  store i32 1, i32* %36, align 8
  %vptr18 = alloca %"cls.acjs::JsVariant", align 8
  %37 = bitcast %"cls.acjs::JsVariant"* %vptr18 to i32 (...)***
  store i32 (...)** bitcast (i8*** @_ZTVN14altered_carbon2js9JsVariantE_GEP to i32 (...)**), i32 (...)*** %37, align 8
  %38 = getelementptr inbounds %"cls.acjs::JsVariant", %"cls.acjs::JsVariant"* %vptr18, i32 0, i32 1
  store i32 1, i32* %38, align 8
  %vptr19 = alloca %"cls.acjs::JsVariant", align 8
  %39 = bitcast %"cls.acjs::JsVariant"* %vptr19 to i32 (...)***
  store i32 (...)** bitcast (i8*** @_ZTVN14altered_carbon2js9JsVariantE_GEP to i32 (...)**), i32 (...)*** %39, align 8
  %40 = getelementptr inbounds %"cls.acjs::JsVariant", %"cls.acjs::JsVariant"* %vptr19, i32 0, i32 1
  store i32 1, i32* %40, align 8
  %vptr20 = alloca %"cls.acjs::JsVariant", align 8
  %41 = bitcast %"cls.acjs::JsVariant"* %vptr20 to i32 (...)***
  store i32 (...)** bitcast (i8*** @_ZTVN14altered_carbon2js9JsVariantE_GEP to i32 (...)**), i32 (...)*** %41, align 8
  %42 = getelementptr inbounds %"cls.acjs::JsVariant", %"cls.acjs::JsVariant"* %vptr20, i32 0, i32 1
  store i32 1, i32* %42, align 8
  %vptr21 = alloca %"cls.acjs::JsVariant", align 8
  %43 = bitcast %"cls.acjs::JsVariant"* %vptr21 to i32 (...)***
  store i32 (...)** bitcast (i8*** @_ZTVN14altered_carbon2js9JsVariantE_GEP to i32 (...)**), i32 (...)*** %43, align 8
  %44 = getelementptr inbounds %"cls.acjs::JsVariant", %"cls.acjs::JsVariant"* %vptr21, i32 0, i32 1
  store i32 1, i32* %44, align 8
  %vptr22 = alloca %"cls.acjs::JsVariant", align 8
  %45 = bitcast %"cls.acjs::JsVariant"* %vptr22 to i32 (...)***
  store i32 (...)** bitcast (i8*** @_ZTVN14altered_carbon2js9JsVariantE_GEP to i32 (...)**), i32 (...)*** %45, align 8
  %46 = getelementptr inbounds %"cls.acjs::JsVariant", %"cls.acjs::JsVariant"* %vptr22, i32 0, i32 1
  store i32 1, i32* %46, align 8
  %vptr23 = alloca %"cls.acjs::JsVariant", align 8
  %47 = bitcast %"cls.acjs::JsVariant"* %vptr23 to i32 (...)***
  store i32 (...)** bitcast (i8*** @_ZTVN14altered_carbon2js9JsVariantE_GEP to i32 (...)**), i32 (...)*** %47, align 8
  %48 = getelementptr inbounds %"cls.acjs::JsVariant", %"cls.acjs::JsVariant"* %vptr23, i32 0, i32 1
  store i32 1, i32* %48, align 8
  %vptr24 = alloca %"cls.acjs::JsVariant", align 8
  %49 = bitcast %"cls.acjs::JsVariant"* %vptr24 to i32 (...)***
  store i32 (...)** bitcast (i8*** @_ZTVN14altered_carbon2js9JsVariantE_GEP to i32 (...)**), i32 (...)*** %49, align 8
  %50 = getelementptr inbounds %"cls.acjs::JsVariant", %"cls.acjs::JsVariant"* %vptr24, i32 0, i32 1
  store i32 1, i32* %50, align 8
  %vptr25 = alloca %"cls.acjs::JsVariant", align 8
  %51 = bitcast %"cls.acjs::JsVariant"* %vptr25 to i32 (...)***
  store i32 (...)** bitcast (i8*** @_ZTVN14altered_carbon2js9JsVariantE_GEP to i32 (...)**), i32 (...)*** %51, align 8
  %52 = getelementptr inbounds %"cls.acjs::JsVariant", %"cls.acjs::JsVariant"* %vptr25, i32 0, i32 1
  store i32 1, i32* %52, align 8
  %vptr26 = alloca %"cls.acjs::JsVariant", align 8
  %53 = bitcast %"cls.acjs::JsVariant"* %vptr26 to i32 (...)***
  store i32 (...)** bitcast (i8*** @_ZTVN14altered_carbon2js9JsVariantE_GEP to i32 (...)**), i32 (...)*** %53, align 8
  %54 = getelementptr inbounds %"cls.acjs::JsVariant", %"cls.acjs::JsVariant"* %vptr26, i32 0, i32 1
  store i32 1, i32* %54, align 8
  %vptr27 = alloca %"cls.acjs::JsVariant", align 8
  %55 = bitcast %"cls.acjs::JsVariant"* %vptr27 to i32 (...)***
  store i32 (...)** bitcast (i8*** @_ZTVN14altered_carbon2js9JsVariantE_GEP to i32 (...)**), i32 (...)*** %55, align 8
  %56 = getelementptr inbounds %"cls.acjs::JsVariant", %"cls.acjs::JsVariant"* %vptr27, i32 0, i32 1
  store i32 1, i32* %56, align 8
  %vptr28 = alloca %"cls.acjs::JsVariant", align 8
  %57 = bitcast %"cls.acjs::JsVariant"* %vptr28 to i32 (...)***
  store i32 (...)** bitcast (i8*** @_ZTVN14altered_carbon2js9JsVariantE_GEP to i32 (...)**), i32 (...)*** %57, align 8
  %58 = getelementptr inbounds %"cls.acjs::JsVariant", %"cls.acjs::JsVariant"* %vptr28, i32 0, i32 1
  store i32 1, i32* %58, align 8
  %vptr29 = alloca %"cls.acjs::JsVariant", align 8
  %59 = bitcast %"cls.acjs::JsVariant"* %vptr29 to i32 (...)***
  store i32 (...)** bitcast (i8*** @_ZTVN14altered_carbon2js9JsVariantE_GEP to i32 (...)**), i32 (...)*** %59, align 8
  %60 = getelementptr inbounds %"cls.acjs::JsVariant", %"cls.acjs::JsVariant"* %vptr29, i32 0, i32 1
  store i32 1, i32* %60, align 8
  %vptr30 = alloca %"cls.acjs::JsVariant", align 8
  %61 = bitcast %"cls.acjs::JsVariant"* %vptr30 to i32 (...)***
  store i32 (...)** bitcast (i8*** @_ZTVN14altered_carbon2js9JsVariantE_GEP to i32 (...)**), i32 (...)*** %61, align 8
  %62 = getelementptr inbounds %"cls.acjs::JsVariant", %"cls.acjs::JsVariant"* %vptr30, i32 0, i32 1
  store i32 1, i32* %62, align 8
  %vptr31 = alloca %"cls.acjs::JsVariant", align 8
  %63 = bitcast %"cls.acjs::JsVariant"* %vptr31 to i32 (...)***
  store i32 (...)** bitcast (i8*** @_ZTVN14altered_carbon2js9JsVariantE_GEP to i32 (...)**), i32 (...)*** %63, align 8
  %64 = getelementptr inbounds %"cls.acjs::JsVariant", %"cls.acjs::JsVariant"* %vptr31, i32 0, i32 1
  store i32 1, i32* %64, align 8
  %vptr32 = alloca %"cls.acjs::JsVariant", align 8
  %65 = bitcast %"cls.acjs::JsVariant"* %vptr32 to i32 (...)***
  store i32 (...)** bitcast (i8*** @_ZTVN14altered_carbon2js9JsVariantE_GEP to i32 (...)**), i32 (...)*** %65, align 8
  %66 = getelementptr inbounds %"cls.acjs::JsVariant", %"cls.acjs::JsVariant"* %vptr32, i32 0, i32 1
  store i32 1, i32* %66, align 8
  %vptr33 = alloca %"cls.acjs::JsVariant", align 8
  %67 = bitcast %"cls.acjs::JsVariant"* %vptr33 to i32 (...)***
  store i32 (...)** bitcast (i8*** @_ZTVN14altered_carbon2js9JsVariantE_GEP to i32 (...)**), i32 (...)*** %67, align 8
  %68 = getelementptr inbounds %"cls.acjs::JsVariant", %"cls.acjs::JsVariant"* %vptr33, i32 0, i32 1
  store i32 1, i32* %68, align 8
  %vptr34 = alloca %"cls.acjs::JsVariant", align 8
  %69 = bitcast %"cls.acjs::JsVariant"* %vptr34 to i32 (...)***
  store i32 (...)** bitcast (i8*** @_ZTVN14altered_carbon2js9JsVariantE_GEP to i32 (...)**), i32 (...)*** %69, align 8
  %70 = getelementptr inbounds %"cls.acjs::JsVariant", %"cls.acjs::JsVariant"* %vptr34, i32 0, i32 1
  store i32 1, i32* %70, align 8
  %vptr35 = alloca %"cls.acjs::JsVariant", align 8
  %71 = bitcast %"cls.acjs::JsVariant"* %vptr35 to i32 (...)***
  store i32 (...)** bitcast (i8*** @_ZTVN14altered_carbon2js9JsVariantE_GEP to i32 (...)**), i32 (...)*** %71, align 8
  %72 = getelementptr inbounds %"cls.acjs::JsVariant", %"cls.acjs::JsVariant"* %vptr35, i32 0, i32 1
  store i32 1, i32* %72, align 8
  %vptr36 = alloca %"cls.acjs::JsVariant", align 8
  %73 = bitcast %"cls.acjs::JsVariant"* %vptr36 to i32 (...)***
  store i32 (...)** bitcast (i8*** @_ZTVN14altered_carbon2js9JsVariantE_GEP to i32 (...)**), i32 (...)*** %73, align 8
  %74 = getelementptr inbounds %"cls.acjs::JsVariant", %"cls.acjs::JsVariant"* %vptr36, i32 0, i32 1
  store i32 1, i32* %74, align 8
  %vptr37 = alloca %"cls.acjs::JsVariant", align 8
  %75 = bitcast %"cls.acjs::JsVariant"* %vptr37 to i32 (...)***
  store i32 (...)** bitcast (i8*** @_ZTVN14altered_carbon2js9JsVariantE_GEP to i32 (...)**), i32 (...)*** %75, align 8
  %76 = getelementptr inbounds %"cls.acjs::JsVariant", %"cls.acjs::JsVariant"* %vptr37, i32 0, i32 1
  store i32 1, i32* %76, align 8
  %vptr38 = alloca %"cls.acjs::JsVariant", align 8
  %77 = bitcast %"cls.acjs::JsVariant"* %vptr38 to i32 (...)***
  store i32 (...)** bitcast (i8*** @_ZTVN14altered_carbon2js9JsVariantE_GEP to i32 (...)**), i32 (...)*** %77, align 8
  %78 = getelementptr inbounds %"cls.acjs::JsVariant", %"cls.acjs::JsVariant"* %vptr38, i32 0, i32 1
  store i32 1, i32* %78, align 8
  %vptr39 = alloca %"cls.acjs::JsVariant", align 8
  %79 = bitcast %"cls.acjs::JsVariant"* %vptr39 to i32 (...)***
  store i32 (...)** bitcast (i8*** @_ZTVN14altered_carbon2js9JsVariantE_GEP to i32 (...)**), i32 (...)*** %79, align 8
  %80 = getelementptr inbounds %"cls.acjs::JsVariant", %"cls.acjs::JsVariant"* %vptr39, i32 0, i32 1
  store i32 1, i32* %80, align 8
  %vptr40 = alloca %"cls.acjs::JsVariant", align 8
  %81 = bitcast %"cls.acjs::JsVariant"* %vptr40 to i32 (...)***
  store i32 (...)** bitcast (i8*** @_ZTVN14altered_carbon2js9JsVariantE_GEP to i32 (...)**), i32 (...)*** %81, align 8
  %82 = getelementptr inbounds %"cls.acjs::JsVariant", %"cls.acjs::JsVariant"* %vptr40, i32 0, i32 1
  store i32 1, i32* %82, align 8
  %vptr41 = alloca %"cls.acjs::JsVariant", align 8
  %83 = bitcast %"cls.acjs::JsVariant"* %vptr41 to i32 (...)***
  store i32 (...)** bitcast (i8*** @_ZTVN14altered_carbon2js9JsVariantE_GEP to i32 (...)**), i32 (...)*** %83, align 8
  %84 = getelementptr inbounds %"cls.acjs::JsVariant", %"cls.acjs::JsVariant"* %vptr41, i32 0, i32 1
  store i32 1, i32* %84, align 8
  %vptr42 = alloca %"cls.acjs::JsVariant", align 8
  %85 = bitcast %"cls.acjs::JsVariant"* %vptr42 to i32 (...)***
  store i32 (...)** bitcast (i8*** @_ZTVN14altered_carbon2js9JsVariantE_GEP to i32 (...)**), i32 (...)*** %85, align 8
  %86 = getelementptr inbounds %"cls.acjs::JsVariant", %"cls.acjs::JsVariant"* %vptr42, i32 0, i32 1
  store i32 1, i32* %86, align 8
  %vptr43 = alloca %"cls.acjs::JsVariant", align 8
  %87 = bitcast %"cls.acjs::JsVariant"* %vptr43 to i32 (...)***
  store i32 (...)** bitcast (i8*** @_ZTVN14altered_carbon2js9JsVariantE_GEP to i32 (...)**), i32 (...)*** %87, align 8
  %88 = getelementptr inbounds %"cls.acjs::JsVariant", %"cls.acjs::JsVariant"* %vptr43, i32 0, i32 1
  store i32 1, i32* %88, align 8
  %vptr44 = alloca %"cls.acjs::JsVariant", align 8
  %89 = bitcast %"cls.acjs::JsVariant"* %vptr44 to i32 (...)***
  store i32 (...)** bitcast (i8*** @_ZTVN14altered_carbon2js9JsVariantE_GEP to i32 (...)**), i32 (...)*** %89, align 8
  %90 = getelementptr inbounds %"cls.acjs::JsVariant", %"cls.acjs::JsVariant"* %vptr44, i32 0, i32 1
  store i32 1, i32* %90, align 8
  %vptr45 = alloca %"cls.acjs::JsVariant", align 8
  %91 = bitcast %"cls.acjs::JsVariant"* %vptr45 to i32 (...)***
  store i32 (...)** bitcast (i8*** @_ZTVN14altered_carbon2js9JsVariantE_GEP to i32 (...)**), i32 (...)*** %91, align 8
  %92 = getelementptr inbounds %"cls.acjs::JsVariant", %"cls.acjs::JsVariant"* %vptr45, i32 0, i32 1
  store i32 1, i32* %92, align 8
  %vptr46 = alloca %"cls.acjs::JsVariant", align 8
  %93 = bitcast %"cls.acjs::JsVariant"* %vptr46 to i32 (...)***
  store i32 (...)** bitcast (i8*** @_ZTVN14altered_carbon2js9JsVariantE_GEP to i32 (...)**), i32 (...)*** %93, align 8
  %94 = getelementptr inbounds %"cls.acjs::JsVariant", %"cls.acjs::JsVariant"* %vptr46, i32 0, i32 1
  store i32 1, i32* %94, align 8
  %vptr47 = alloca %"cls.acjs::JsVariant", align 8
  %95 = bitcast %"cls.acjs::JsVariant"* %vptr47 to i32 (...)***
  store i32 (...)** bitcast (i8*** @_ZTVN14altered_carbon2js9JsVariantE_GEP to i32 (...)**), i32 (...)*** %95, align 8
  %96 = getelementptr inbounds %"cls.acjs::JsVariant", %"cls.acjs::JsVariant"* %vptr47, i32 0, i32 1
  store i32 1, i32* %96, align 8
  %vptr48 = alloca %"cls.acjs::JsVariant", align 8
  %97 = bitcast %"cls.acjs::JsVariant"* %vptr48 to i32 (...)***
  store i32 (...)** bitcast (i8*** @_ZTVN14altered_carbon2js9JsVariantE_GEP to i32 (...)**), i32 (...)*** %97, align 8
  %98 = getelementptr inbounds %"cls.acjs::JsVariant", %"cls.acjs::JsVariant"* %vptr48, i32 0, i32 1
  store i32 1, i32* %98, align 8
  %vptr49 = alloca %"cls.acjs::JsVariant", align 8
  %99 = bitcast %"cls.acjs::JsVariant"* %vptr49 to i32 (...)***
  store i32 (...)** bitcast (i8*** @_ZTVN14altered_carbon2js9JsVariantE_GEP to i32 (...)**), i32 (...)*** %99, align 8
  %100 = getelementptr inbounds %"cls.acjs::JsVariant", %"cls.acjs::JsVariant"* %vptr49, i32 0, i32 1
  store i32 1, i32* %100, align 8
  %vptr50 = alloca %"cls.acjs::JsVariant", align 8
  %101 = bitcast %"cls.acjs::JsVariant"* %vptr50 to i32 (...)***
  store i32 (...)** bitcast (i8*** @_ZTVN14altered_carbon2js9JsVariantE_GEP to i32 (...)**), i32 (...)*** %101, align 8
  %102 = getelementptr inbounds %"cls.acjs::JsVariant", %"cls.acjs::JsVariant"* %vptr50, i32 0, i32 1
  store i32 1, i32* %102, align 8
  %vptr51 = alloca %"cls.acjs::JsVariant", align 8
  %103 = bitcast %"cls.acjs::JsVariant"* %vptr51 to i32 (...)***
  store i32 (...)** bitcast (i8*** @_ZTVN14altered_carbon2js9JsVariantE_GEP to i32 (...)**), i32 (...)*** %103, align 8
  %104 = getelementptr inbounds %"cls.acjs::JsVariant", %"cls.acjs::JsVariant"* %vptr51, i32 0, i32 1
  store i32 1, i32* %104, align 8
  %vptr52 = alloca %"cls.acjs::JsVariant", align 8
  %105 = bitcast %"cls.acjs::JsVariant"* %vptr52 to i32 (...)***
  store i32 (...)** bitcast (i8*** @_ZTVN14altered_carbon2js9JsVariantE_GEP to i32 (...)**), i32 (...)*** %105, align 8
  %106 = getelementptr inbounds %"cls.acjs::JsVariant", %"cls.acjs::JsVariant"* %vptr52, i32 0, i32 1
  store i32 1, i32* %106, align 8
  %vptr53 = alloca %"cls.acjs::JsVariant", align 8
  %107 = bitcast %"cls.acjs::JsVariant"* %vptr53 to i32 (...)***
  store i32 (...)** bitcast (i8*** @_ZTVN14altered_carbon2js9JsVariantE_GEP to i32 (...)**), i32 (...)*** %107, align 8
  %108 = getelementptr inbounds %"cls.acjs::JsVariant", %"cls.acjs::JsVariant"* %vptr53, i32 0, i32 1
  store i32 1, i32* %108, align 8
  %vptr54 = alloca %"cls.acjs::JsVariant", align 8
  %109 = bitcast %"cls.acjs::JsVariant"* %vptr54 to i32 (...)***
  store i32 (...)** bitcast (i8*** @_ZTVN14altered_carbon2js9JsVariantE_GEP to i32 (...)**), i32 (...)*** %109, align 8
  %110 = getelementptr inbounds %"cls.acjs::JsVariant", %"cls.acjs::JsVariant"* %vptr54, i32 0, i32 1
  store i32 1, i32* %110, align 8
  %vptr55 = alloca %"cls.acjs::JsVariant", align 8
  %111 = bitcast %"cls.acjs::JsVariant"* %vptr55 to i32 (...)***
  store i32 (...)** bitcast (i8*** @_ZTVN14altered_carbon2js9JsVariantE_GEP to i32 (...)**), i32 (...)*** %111, align 8
  %112 = getelementptr inbounds %"cls.acjs::JsVariant", %"cls.acjs::JsVariant"* %vptr55, i32 0, i32 1
  store i32 1, i32* %112, align 8
  %vptr56 = alloca %"cls.acjs::JsVariant", align 8
  %113 = bitcast %"cls.acjs::JsVariant"* %vptr56 to i32 (...)***
  store i32 (...)** bitcast (i8*** @_ZTVN14altered_carbon2js9JsVariantE_GEP to i32 (...)**), i32 (...)*** %113, align 8
  %114 = getelementptr inbounds %"cls.acjs::JsVariant", %"cls.acjs::JsVariant"* %vptr56, i32 0, i32 1
  store i32 1, i32* %114, align 8
  %vptr57 = alloca %"cls.acjs::JsVariant", align 8
  %115 = bitcast %"cls.acjs::JsVariant"* %vptr57 to i32 (...)***
  store i32 (...)** bitcast (i8*** @_ZTVN14altered_carbon2js9JsVariantE_GEP to i32 (...)**), i32 (...)*** %115, align 8
  %116 = getelementptr inbounds %"cls.acjs::JsVariant", %"cls.acjs::JsVariant"* %vptr57, i32 0, i32 1
  store i32 1, i32* %116, align 8
  %vptr58 = alloca %"cls.acjs::JsVariant", align 8
  %117 = bitcast %"cls.acjs::JsVariant"* %vptr58 to i32 (...)***
  store i32 (...)** bitcast (i8*** @_ZTVN14altered_carbon2js9JsVariantE_GEP to i32 (...)**), i32 (...)*** %117, align 8
  %118 = getelementptr inbounds %"cls.acjs::JsVariant", %"cls.acjs::JsVariant"* %vptr58, i32 0, i32 1
  store i32 1, i32* %118, align 8
  %vptr59 = alloca %"cls.acjs::JsVariant", align 8
  %119 = bitcast %"cls.acjs::JsVariant"* %vptr59 to i32 (...)***
  store i32 (...)** bitcast (i8*** @_ZTVN14altered_carbon2js9JsVariantE_GEP to i32 (...)**), i32 (...)*** %119, align 8
  %120 = getelementptr inbounds %"cls.acjs::JsVariant", %"cls.acjs::JsVariant"* %vptr59, i32 0, i32 1
  store i32 1, i32* %120, align 8
  %vptr60 = alloca %"cls.acjs::JsVariant", align 8
  %121 = bitcast %"cls.acjs::JsVariant"* %vptr60 to i32 (...)***
  store i32 (...)** bitcast (i8*** @_ZTVN14altered_carbon2js9JsVariantE_GEP to i32 (...)**), i32 (...)*** %121, align 8
  %122 = getelementptr inbounds %"cls.acjs::JsVariant", %"cls.acjs::JsVariant"* %vptr60, i32 0, i32 1
  store i32 1, i32* %122, align 8
  %vptr61 = alloca %"cls.acjs::JsVariant", align 8
  %123 = bitcast %"cls.acjs::JsVariant"* %vptr61 to i32 (...)***
  store i32 (...)** bitcast (i8*** @_ZTVN14altered_carbon2js9JsVariantE_GEP to i32 (...)**), i32 (...)*** %123, align 8
  %124 = getelementptr inbounds %"cls.acjs::JsVariant", %"cls.acjs::JsVariant"* %vptr61, i32 0, i32 1
  store i32 1, i32* %124, align 8
  %vptr62 = alloca %"cls.acjs::JsVariant", align 8
  %125 = bitcast %"cls.acjs::JsVariant"* %vptr62 to i32 (...)***
  store i32 (...)** bitcast (i8*** @_ZTVN14altered_carbon2js9JsVariantE_GEP to i32 (...)**), i32 (...)*** %125, align 8
  %126 = getelementptr inbounds %"cls.acjs::JsVariant", %"cls.acjs::JsVariant"* %vptr62, i32 0, i32 1
  store i32 1, i32* %126, align 8
  %vptr63 = alloca %"cls.acjs::JsVariant", align 8
  %127 = bitcast %"cls.acjs::JsVariant"* %vptr63 to i32 (...)***
  store i32 (...)** bitcast (i8*** @_ZTVN14altered_carbon2js9JsVariantE_GEP to i32 (...)**), i32 (...)*** %127, align 8
  %128 = getelementptr inbounds %"cls.acjs::JsVariant", %"cls.acjs::JsVariant"* %vptr63, i32 0, i32 1
  store i32 1, i32* %128, align 8
  %vptr64 = alloca %"cls.acjs::JsVariant", align 8
  %129 = bitcast %"cls.acjs::JsVariant"* %vptr64 to i32 (...)***
  store i32 (...)** bitcast (i8*** @_ZTVN14altered_carbon2js9JsVariantE_GEP to i32 (...)**), i32 (...)*** %129, align 8
  %130 = getelementptr inbounds %"cls.acjs::JsVariant", %"cls.acjs::JsVariant"* %vptr64, i32 0, i32 1
  store i32 1, i32* %130, align 8
  %vptr65 = alloca %"cls.acjs::JsVariant", align 8
  %131 = bitcast %"cls.acjs::JsVariant"* %vptr65 to i32 (...)***
  store i32 (...)** bitcast (i8*** @_ZTVN14altered_carbon2js9JsVariantE_GEP to i32 (...)**), i32 (...)*** %131, align 8
  %132 = getelementptr inbounds %"cls.acjs::JsVariant", %"cls.acjs::JsVariant"* %vptr65, i32 0, i32 1
  store i32 1, i32* %132, align 8
  %vptr66 = alloca %"cls.acjs::JsVariant", align 8
  %133 = bitcast %"cls.acjs::JsVariant"* %vptr66 to i32 (...)***
  store i32 (...)** bitcast (i8*** @_ZTVN14altered_carbon2js9JsVariantE_GEP to i32 (...)**), i32 (...)*** %133, align 8
  %134 = getelementptr inbounds %"cls.acjs::JsVariant", %"cls.acjs::JsVariant"* %vptr66, i32 0, i32 1
  store i32 1, i32* %134, align 8
  %vptr67 = alloca %"cls.acjs::JsVariant", align 8
  %135 = bitcast %"cls.acjs::JsVariant"* %vptr67 to i32 (...)***
  store i32 (...)** bitcast (i8*** @_ZTVN14altered_carbon2js9JsVariantE_GEP to i32 (...)**), i32 (...)*** %135, align 8
  %136 = getelementptr inbounds %"cls.acjs::JsVariant", %"cls.acjs::JsVariant"* %vptr67, i32 0, i32 1
  store i32 1, i32* %136, align 8
  %vptr68 = alloca %"cls.acjs::JsVariant", align 8
  %137 = bitcast %"cls.acjs::JsVariant"* %vptr68 to i32 (...)***
  store i32 (...)** bitcast (i8*** @_ZTVN14altered_carbon2js9JsVariantE_GEP to i32 (...)**), i32 (...)*** %137, align 8
  %138 = getelementptr inbounds %"cls.acjs::JsVariant", %"cls.acjs::JsVariant"* %vptr68, i32 0, i32 1
  store i32 1, i32* %138, align 8
  %vptr69 = alloca %"cls.acjs::JsVariant", align 8
  %139 = bitcast %"cls.acjs::JsVariant"* %vptr69 to i32 (...)***
  store i32 (...)** bitcast (i8*** @_ZTVN14altered_carbon2js9JsVariantE_GEP to i32 (...)**), i32 (...)*** %139, align 8
  %140 = getelementptr inbounds %"cls.acjs::JsVariant", %"cls.acjs::JsVariant"* %vptr69, i32 0, i32 1
  store i32 1, i32* %140, align 8
  %vptr70 = alloca %"cls.acjs::JsVariant", align 8
  %141 = bitcast %"cls.acjs::JsVariant"* %vptr70 to i32 (...)***
  store i32 (...)** bitcast (i8*** @_ZTVN14altered_carbon2js9JsVariantE_GEP to i32 (...)**), i32 (...)*** %141, align 8
  %142 = getelementptr inbounds %"cls.acjs::JsVariant", %"cls.acjs::JsVariant"* %vptr70, i32 0, i32 1
  store i32 1, i32* %142, align 8
  %vptr71 = alloca %"cls.acjs::JsVariant", align 8
  %143 = bitcast %"cls.acjs::JsVariant"* %vptr71 to i32 (...)***
  store i32 (...)** bitcast (i8*** @_ZTVN14altered_carbon2js9JsVariantE_GEP to i32 (...)**), i32 (...)*** %143, align 8
  %144 = getelementptr inbounds %"cls.acjs::JsVariant", %"cls.acjs::JsVariant"* %vptr71, i32 0, i32 1
  store i32 1, i32* %144, align 8
  %vptr72 = alloca %"cls.acjs::JsVariant", align 8
  %145 = bitcast %"cls.acjs::JsVariant"* %vptr72 to i32 (...)***
  store i32 (...)** bitcast (i8*** @_ZTVN14altered_carbon2js9JsVariantE_GEP to i32 (...)**), i32 (...)*** %145, align 8
  %146 = getelementptr inbounds %"cls.acjs::JsVariant", %"cls.acjs::JsVariant"* %vptr72, i32 0, i32 1
  store i32 1, i32* %146, align 8
  %vptr73 = alloca %"cls.acjs::JsVariant", align 8
  %147 = bitcast %"cls.acjs::JsVariant"* %vptr73 to i32 (...)***
  store i32 (...)** bitcast (i8*** @_ZTVN14altered_carbon2js9JsVariantE_GEP to i32 (...)**), i32 (...)*** %147, align 8
  %148 = getelementptr inbounds %"cls.acjs::JsVariant", %"cls.acjs::JsVariant"* %vptr73, i32 0, i32 1
  store i32 1, i32* %148, align 8
  %vptr74 = alloca %"cls.acjs::JsVariant", align 8
  %149 = bitcast %"cls.acjs::JsVariant"* %vptr74 to i32 (...)***
  store i32 (...)** bitcast (i8*** @_ZTVN14altered_carbon2js9JsVariantE_GEP to i32 (...)**), i32 (...)*** %149, align 8
  %150 = getelementptr inbounds %"cls.acjs::JsVariant", %"cls.acjs::JsVariant"* %vptr74, i32 0, i32 1
  store i32 1, i32* %150, align 8
  %vptr75 = alloca %"cls.acjs::JsVariant", align 8
  %151 = bitcast %"cls.acjs::JsVariant"* %vptr75 to i32 (...)***
  store i32 (...)** bitcast (i8*** @_ZTVN14altered_carbon2js9JsVariantE_GEP to i32 (...)**), i32 (...)*** %151, align 8
  %152 = getelementptr inbounds %"cls.acjs::JsVariant", %"cls.acjs::JsVariant"* %vptr75, i32 0, i32 1
  store i32 1, i32* %152, align 8
  %vptr76 = alloca %"cls.acjs::JsVariant", align 8
  %153 = bitcast %"cls.acjs::JsVariant"* %vptr76 to i32 (...)***
  store i32 (...)** bitcast (i8*** @_ZTVN14altered_carbon2js9JsVariantE_GEP to i32 (...)**), i32 (...)*** %153, align 8
  %154 = getelementptr inbounds %"cls.acjs::JsVariant", %"cls.acjs::JsVariant"* %vptr76, i32 0, i32 1
  store i32 1, i32* %154, align 8
  %vptr77 = alloca %"cls.acjs::JsVariant", align 8
  %155 = bitcast %"cls.acjs::JsVariant"* %vptr77 to i32 (...)***
  store i32 (...)** bitcast (i8*** @_ZTVN14altered_carbon2js9JsVariantE_GEP to i32 (...)**), i32 (...)*** %155, align 8
  %156 = getelementptr inbounds %"cls.acjs::JsVariant", %"cls.acjs::JsVariant"* %vptr77, i32 0, i32 1
  store i32 1, i32* %156, align 8
  %vptr78 = alloca %"cls.acjs::JsVariant", align 8
  %157 = bitcast %"cls.acjs::JsVariant"* %vptr78 to i32 (...)***
  store i32 (...)** bitcast (i8*** @_ZTVN14altered_carbon2js9JsVariantE_GEP to i32 (...)**), i32 (...)*** %157, align 8
  %158 = getelementptr inbounds %"cls.acjs::JsVariant", %"cls.acjs::JsVariant"* %vptr78, i32 0, i32 1
  store i32 1, i32* %158, align 8
  %vptr79 = alloca %"cls.acjs::JsVariant", align 8
  %159 = bitcast %"cls.acjs::JsVariant"* %vptr79 to i32 (...)***
  store i32 (...)** bitcast (i8*** @_ZTVN14altered_carbon2js9JsVariantE_GEP to i32 (...)**), i32 (...)*** %159, align 8
  %160 = getelementptr inbounds %"cls.acjs::JsVariant", %"cls.acjs::JsVariant"* %vptr79, i32 0, i32 1
  store i32 1, i32* %160, align 8
  %vptr80 = alloca %"cls.acjs::JsVariant", align 8
  %161 = bitcast %"cls.acjs::JsVariant"* %vptr80 to i32 (...)***
  store i32 (...)** bitcast (i8*** @_ZTVN14altered_carbon2js9JsVariantE_GEP to i32 (...)**), i32 (...)*** %161, align 8
  %162 = getelementptr inbounds %"cls.acjs::JsVariant", %"cls.acjs::JsVariant"* %vptr80, i32 0, i32 1
  store i32 1, i32* %162, align 8
  %vptr81 = alloca %"cls.acjs::JsVariant", align 8
  %163 = bitcast %"cls.acjs::JsVariant"* %vptr81 to i32 (...)***
  store i32 (...)** bitcast (i8*** @_ZTVN14altered_carbon2js9JsVariantE_GEP to i32 (...)**), i32 (...)*** %163, align 8
  %164 = getelementptr inbounds %"cls.acjs::JsVariant", %"cls.acjs::JsVariant"* %vptr81, i32 0, i32 1
  store i32 1, i32* %164, align 8
  %vptr82 = alloca %"cls.acjs::JsVariant", align 8
  %165 = bitcast %"cls.acjs::JsVariant"* %vptr82 to i32 (...)***
  store i32 (...)** bitcast (i8*** @_ZTVN14altered_carbon2js9JsVariantE_GEP to i32 (...)**), i32 (...)*** %165, align 8
  %166 = getelementptr inbounds %"cls.acjs::JsVariant", %"cls.acjs::JsVariant"* %vptr82, i32 0, i32 1
  store i32 1, i32* %166, align 8
  %vptr83 = alloca %"cls.acjs::JsVariant", align 8
  %167 = bitcast %"cls.acjs::JsVariant"* %vptr83 to i32 (...)***
  store i32 (...)** bitcast (i8*** @_ZTVN14altered_carbon2js9JsVariantE_GEP to i32 (...)**), i32 (...)*** %167, align 8
  %168 = getelementptr inbounds %"cls.acjs::JsVariant", %"cls.acjs::JsVariant"* %vptr83, i32 0, i32 1
  store i32 1, i32* %168, align 8
  %vptr84 = alloca %"cls.acjs::JsVariant", align 8
  %169 = bitcast %"cls.acjs::JsVariant"* %vptr84 to i32 (...)***
  store i32 (...)** bitcast (i8*** @_ZTVN14altered_carbon2js9JsVariantE_GEP to i32 (...)**), i32 (...)*** %169, align 8
  %170 = getelementptr inbounds %"cls.acjs::JsVariant", %"cls.acjs::JsVariant"* %vptr84, i32 0, i32 1
  store i32 1, i32* %170, align 8
  %vptr85 = alloca %"cls.acjs::JsVariant", align 8
  %171 = bitcast %"cls.acjs::JsVariant"* %vptr85 to i32 (...)***
  store i32 (...)** bitcast (i8*** @_ZTVN14altered_carbon2js9JsVariantE_GEP to i32 (...)**), i32 (...)*** %171, align 8
  %172 = getelementptr inbounds %"cls.acjs::JsVariant", %"cls.acjs::JsVariant"* %vptr85, i32 0, i32 1
  store i32 1, i32* %172, align 8
  %vptr86 = alloca %"cls.acjs::JsVariant", align 8
  %173 = bitcast %"cls.acjs::JsVariant"* %vptr86 to i32 (...)***
  store i32 (...)** bitcast (i8*** @_ZTVN14altered_carbon2js9JsVariantE_GEP to i32 (...)**), i32 (...)*** %173, align 8
  %174 = getelementptr inbounds %"cls.acjs::JsVariant", %"cls.acjs::JsVariant"* %vptr86, i32 0, i32 1
  store i32 1, i32* %174, align 8
  %vptr87 = alloca %"cls.acjs::JsVariant", align 8
  %175 = bitcast %"cls.acjs::JsVariant"* %vptr87 to i32 (...)***
  store i32 (...)** bitcast (i8*** @_ZTVN14altered_carbon2js9JsVariantE_GEP to i32 (...)**), i32 (...)*** %175, align 8
  %176 = getelementptr inbounds %"cls.acjs::JsVariant", %"cls.acjs::JsVariant"* %vptr87, i32 0, i32 1
  store i32 1, i32* %176, align 8
  %vptr88 = alloca %"cls.acjs::JsVariant", align 8
  %177 = bitcast %"cls.acjs::JsVariant"* %vptr88 to i32 (...)***
  store i32 (...)** bitcast (i8*** @_ZTVN14altered_carbon2js9JsVariantE_GEP to i32 (...)**), i32 (...)*** %177, align 8
  %178 = getelementptr inbounds %"cls.acjs::JsVariant", %"cls.acjs::JsVariant"* %vptr88, i32 0, i32 1
  store i32 1, i32* %178, align 8
  %vptr89 = alloca %"cls.acjs::JsVariant", align 8
  %179 = bitcast %"cls.acjs::JsVariant"* %vptr89 to i32 (...)***
  store i32 (...)** bitcast (i8*** @_ZTVN14altered_carbon2js9JsVariantE_GEP to i32 (...)**), i32 (...)*** %179, align 8
  %180 = getelementptr inbounds %"cls.acjs::JsVariant", %"cls.acjs::JsVariant"* %vptr89, i32 0, i32 1
  store i32 1, i32* %180, align 8
  %vptr90 = alloca %"cls.acjs::JsVariant", align 8
  %181 = bitcast %"cls.acjs::JsVariant"* %vptr90 to i32 (...)***
  store i32 (...)** bitcast (i8*** @_ZTVN14altered_carbon2js9JsVariantE_GEP to i32 (...)**), i32 (...)*** %181, align 8
  %182 = getelementptr inbounds %"cls.acjs::JsVariant", %"cls.acjs::JsVariant"* %vptr90, i32 0, i32 1
  store i32 1, i32* %182, align 8
  %vptr91 = alloca %"cls.acjs::JsVariant", align 8
  %183 = bitcast %"cls.acjs::JsVariant"* %vptr91 to i32 (...)***
  store i32 (...)** bitcast (i8*** @_ZTVN14altered_carbon2js9JsVariantE_GEP to i32 (...)**), i32 (...)*** %183, align 8
  %184 = getelementptr inbounds %"cls.acjs::JsVariant", %"cls.acjs::JsVariant"* %vptr91, i32 0, i32 1
  store i32 1, i32* %184, align 8
  %vptr92 = alloca %"cls.acjs::JsVariant", align 8
  %185 = bitcast %"cls.acjs::JsVariant"* %vptr92 to i32 (...)***
  store i32 (...)** bitcast (i8*** @_ZTVN14altered_carbon2js9JsVariantE_GEP to i32 (...)**), i32 (...)*** %185, align 8
  %186 = getelementptr inbounds %"cls.acjs::JsVariant", %"cls.acjs::JsVariant"* %vptr92, i32 0, i32 1
  store i32 1, i32* %186, align 8
  %vptr93 = alloca %"cls.acjs::JsVariant", align 8
  %187 = bitcast %"cls.acjs::JsVariant"* %vptr93 to i32 (...)***
  store i32 (...)** bitcast (i8*** @_ZTVN14altered_carbon2js9JsVariantE_GEP to i32 (...)**), i32 (...)*** %187, align 8
  %188 = getelementptr inbounds %"cls.acjs::JsVariant", %"cls.acjs::JsVariant"* %vptr93, i32 0, i32 1
  store i32 1, i32* %188, align 8
  %vptr94 = alloca %"cls.acjs::JsVariant", align 8
  %189 = bitcast %"cls.acjs::JsVariant"* %vptr94 to i32 (...)***
  store i32 (...)** bitcast (i8*** @_ZTVN14altered_carbon2js9JsVariantE_GEP to i32 (...)**), i32 (...)*** %189, align 8
  %190 = getelementptr inbounds %"cls.acjs::JsVariant", %"cls.acjs::JsVariant"* %vptr94, i32 0, i32 1
  store i32 1, i32* %190, align 8
  %vptr95 = alloca %"cls.acjs::JsVariant", align 8
  %191 = bitcast %"cls.acjs::JsVariant"* %vptr95 to i32 (...)***
  store i32 (...)** bitcast (i8*** @_ZTVN14altered_carbon2js9JsVariantE_GEP to i32 (...)**), i32 (...)*** %191, align 8
  %192 = getelementptr inbounds %"cls.acjs::JsVariant", %"cls.acjs::JsVariant"* %vptr95, i32 0, i32 1
  store i32 1, i32* %192, align 8
  %vptr96 = alloca %"cls.acjs::JsVariant", align 8
  %193 = bitcast %"cls.acjs::JsVariant"* %vptr96 to i32 (...)***
  store i32 (...)** bitcast (i8*** @_ZTVN14altered_carbon2js9JsVariantE_GEP to i32 (...)**), i32 (...)*** %193, align 8
  %194 = getelementptr inbounds %"cls.acjs::JsVariant", %"cls.acjs::JsVariant"* %vptr96, i32 0, i32 1
  store i32 1, i32* %194, align 8
  %vptr97 = alloca %"cls.acjs::JsVariant", align 8
  %195 = bitcast %"cls.acjs::JsVariant"* %vptr97 to i32 (...)***
  store i32 (...)** bitcast (i8*** @_ZTVN14altered_carbon2js9JsVariantE_GEP to i32 (...)**), i32 (...)*** %195, align 8
  %196 = getelementptr inbounds %"cls.acjs::JsVariant", %"cls.acjs::JsVariant"* %vptr97, i32 0, i32 1
  store i32 1, i32* %196, align 8
  %vptr98 = alloca %"cls.acjs::JsVariant", align 8
  %197 = bitcast %"cls.acjs::JsVariant"* %vptr98 to i32 (...)***
  store i32 (...)** bitcast (i8*** @_ZTVN14altered_carbon2js9JsVariantE_GEP to i32 (...)**), i32 (...)*** %197, align 8
  %198 = getelementptr inbounds %"cls.acjs::JsVariant", %"cls.acjs::JsVariant"* %vptr98, i32 0, i32 1
  store i32 1, i32* %198, align 8
  %vptr99 = alloca %"cls.acjs::JsVariant", align 8
  %199 = bitcast %"cls.acjs::JsVariant"* %vptr99 to i32 (...)***
  store i32 (...)** bitcast (i8*** @_ZTVN14altered_carbon2js9JsVariantE_GEP to i32 (...)**), i32 (...)*** %199, align 8
  %200 = getelementptr inbounds %"cls.acjs::JsVariant", %"cls.acjs::JsVariant"* %vptr99, i32 0, i32 1
  store i32 1, i32* %200, align 8
  %vptr100 = alloca %"cls.acjs::JsVariant", align 8
  %201 = bitcast %"cls.acjs::JsVariant"* %vptr100 to i32 (...)***
  store i32 (...)** bitcast (i8*** @_ZTVN14altered_carbon2js9JsVariantE_GEP to i32 (...)**), i32 (...)*** %201, align 8
  %202 = getelementptr inbounds %"cls.acjs::JsVariant", %"cls.acjs::JsVariant"* %vptr100, i32 0, i32 1
  store i32 1, i32* %202, align 8
  %vptr101 = alloca %"cls.acjs::JsVariant", align 8
  %203 = bitcast %"cls.acjs::JsVariant"* %vptr101 to i32 (...)***
  store i32 (...)** bitcast (i8*** @_ZTVN14altered_carbon2js9JsVariantE_GEP to i32 (...)**), i32 (...)*** %203, align 8
  %204 = getelementptr inbounds %"cls.acjs::JsVariant", %"cls.acjs::JsVariant"* %vptr101, i32 0, i32 1
  store i32 1, i32* %204, align 8
  %vptr102 = alloca %"cls.acjs::JsVariant", align 8
  %205 = bitcast %"cls.acjs::JsVariant"* %vptr102 to i32 (...)***
  store i32 (...)** bitcast (i8*** @_ZTVN14altered_carbon2js9JsVariantE_GEP to i32 (...)**), i32 (...)*** %205, align 8
  %206 = getelementptr inbounds %"cls.acjs::JsVariant", %"cls.acjs::JsVariant"* %vptr102, i32 0, i32 1
  store i32 1, i32* %206, align 8
  %vptr103 = alloca %"cls.acjs::JsVariant", align 8
  %207 = bitcast %"cls.acjs::JsVariant"* %vptr103 to i32 (...)***
  store i32 (...)** bitcast (i8*** @_ZTVN14altered_carbon2js9JsVariantE_GEP to i32 (...)**), i32 (...)*** %207, align 8
  %208 = getelementptr inbounds %"cls.acjs::JsVariant", %"cls.acjs::JsVariant"* %vptr103, i32 0, i32 1
  store i32 1, i32* %208, align 8
  %vptr104 = alloca %"cls.acjs::JsVariant", align 8
  %209 = bitcast %"cls.acjs::JsVariant"* %vptr104 to i32 (...)***
  store i32 (...)** bitcast (i8*** @_ZTVN14altered_carbon2js9JsVariantE_GEP to i32 (...)**), i32 (...)*** %209, align 8
  %210 = getelementptr inbounds %"cls.acjs::JsVariant", %"cls.acjs::JsVariant"* %vptr104, i32 0, i32 1
  store i32 1, i32* %210, align 8
  %vptr105 = alloca %"cls.acjs::JsVariant", align 8
  %211 = bitcast %"cls.acjs::JsVariant"* %vptr105 to i32 (...)***
  store i32 (...)** bitcast (i8*** @_ZTVN14altered_carbon2js9JsVariantE_GEP to i32 (...)**), i32 (...)*** %211, align 8
  %212 = getelementptr inbounds %"cls.acjs::JsVariant", %"cls.acjs::JsVariant"* %vptr105, i32 0, i32 1
  store i32 1, i32* %212, align 8
  %vptr106 = alloca %"cls.acjs::JsVariant", align 8
  %213 = bitcast %"cls.acjs::JsVariant"* %vptr106 to i32 (...)***
  store i32 (...)** bitcast (i8*** @_ZTVN14altered_carbon2js9JsVariantE_GEP to i32 (...)**), i32 (...)*** %213, align 8
  %214 = getelementptr inbounds %"cls.acjs::JsVariant", %"cls.acjs::JsVariant"* %vptr106, i32 0, i32 1
  store i32 1, i32* %214, align 8
  %vptr107 = alloca %"cls.acjs::JsVariant", align 8
  %215 = bitcast %"cls.acjs::JsVariant"* %vptr107 to i32 (...)***
  store i32 (...)** bitcast (i8*** @_ZTVN14altered_carbon2js9JsVariantE_GEP to i32 (...)**), i32 (...)*** %215, align 8
  %216 = getelementptr inbounds %"cls.acjs::JsVariant", %"cls.acjs::JsVariant"* %vptr107, i32 0, i32 1
  store i32 1, i32* %216, align 8
  %vptr108 = alloca %"cls.acjs::JsVariant", align 8
  %217 = bitcast %"cls.acjs::JsVariant"* %vptr108 to i32 (...)***
  store i32 (...)** bitcast (i8*** @_ZTVN14altered_carbon2js9JsVariantE_GEP to i32 (...)**), i32 (...)*** %217, align 8
  %218 = getelementptr inbounds %"cls.acjs::JsVariant", %"cls.acjs::JsVariant"* %vptr108, i32 0, i32 1
  store i32 1, i32* %218, align 8
  %vptr109 = alloca %"cls.acjs::JsVariant", align 8
  %219 = bitcast %"cls.acjs::JsVariant"* %vptr109 to i32 (...)***
  store i32 (...)** bitcast (i8*** @_ZTVN14altered_carbon2js9JsVariantE_GEP to i32 (...)**), i32 (...)*** %219, align 8
  %220 = getelementptr inbounds %"cls.acjs::JsVariant", %"cls.acjs::JsVariant"* %vptr109, i32 0, i32 1
  store i32 1, i32* %220, align 8
  %vptr110 = alloca %"cls.acjs::JsVariant", align 8
  %221 = bitcast %"cls.acjs::JsVariant"* %vptr110 to i32 (...)***
  store i32 (...)** bitcast (i8*** @_ZTVN14altered_carbon2js9JsVariantE_GEP to i32 (...)**), i32 (...)*** %221, align 8
  %222 = getelementptr inbounds %"cls.acjs::JsVariant", %"cls.acjs::JsVariant"* %vptr110, i32 0, i32 1
  store i32 1, i32* %222, align 8
  %vptr111 = alloca %"cls.acjs::JsVariant", align 8
  %223 = bitcast %"cls.acjs::JsVariant"* %vptr111 to i32 (...)***
  store i32 (...)** bitcast (i8*** @_ZTVN14altered_carbon2js9JsVariantE_GEP to i32 (...)**), i32 (...)*** %223, align 8
  %224 = getelementptr inbounds %"cls.acjs::JsVariant", %"cls.acjs::JsVariant"* %vptr111, i32 0, i32 1
  store i32 1, i32* %224, align 8
  %vptr112 = alloca %"cls.acjs::JsVariant", align 8
  %225 = bitcast %"cls.acjs::JsVariant"* %vptr112 to i32 (...)***
  store i32 (...)** bitcast (i8*** @_ZTVN14altered_carbon2js9JsVariantE_GEP to i32 (...)**), i32 (...)*** %225, align 8
  %226 = getelementptr inbounds %"cls.acjs::JsVariant", %"cls.acjs::JsVariant"* %vptr112, i32 0, i32 1
  store i32 1, i32* %226, align 8
  %vptr113 = alloca %"cls.acjs::JsVariant", align 8
  %227 = bitcast %"cls.acjs::JsVariant"* %vptr113 to i32 (...)***
  store i32 (...)** bitcast (i8*** @_ZTVN14altered_carbon2js9JsVariantE_GEP to i32 (...)**), i32 (...)*** %227, align 8
  %228 = getelementptr inbounds %"cls.acjs::JsVariant", %"cls.acjs::JsVariant"* %vptr113, i32 0, i32 1
  store i32 1, i32* %228, align 8
  %vptr114 = alloca %"cls.acjs::JsVariant", align 8
  %229 = bitcast %"cls.acjs::JsVariant"* %vptr114 to i32 (...)***
  store i32 (...)** bitcast (i8*** @_ZTVN14altered_carbon2js9JsVariantE_GEP to i32 (...)**), i32 (...)*** %229, align 8
  %230 = getelementptr inbounds %"cls.acjs::JsVariant", %"cls.acjs::JsVariant"* %vptr114, i32 0, i32 1
  store i32 1, i32* %230, align 8
  %vptr115 = alloca %"cls.acjs::JsVariant", align 8
  %231 = bitcast %"cls.acjs::JsVariant"* %vptr115 to i32 (...)***
  store i32 (...)** bitcast (i8*** @_ZTVN14altered_carbon2js9JsVariantE_GEP to i32 (...)**), i32 (...)*** %231, align 8
  %232 = getelementptr inbounds %"cls.acjs::JsVariant", %"cls.acjs::JsVariant"* %vptr115, i32 0, i32 1
  store i32 1, i32* %232, align 8
  %vptr116 = alloca %"cls.acjs::JsVariant", align 8
  %233 = bitcast %"cls.acjs::JsVariant"* %vptr116 to i32 (...)***
  store i32 (...)** bitcast (i8*** @_ZTVN14altered_carbon2js9JsVariantE_GEP to i32 (...)**), i32 (...)*** %233, align 8
  %234 = getelementptr inbounds %"cls.acjs::JsVariant", %"cls.acjs::JsVariant"* %vptr116, i32 0, i32 1
  store i32 1, i32* %234, align 8
  %vptr117 = alloca %"cls.acjs::JsVariant", align 8
  %235 = bitcast %"cls.acjs::JsVariant"* %vptr117 to i32 (...)***
  store i32 (...)** bitcast (i8*** @_ZTVN14altered_carbon2js9JsVariantE_GEP to i32 (...)**), i32 (...)*** %235, align 8
  %236 = getelementptr inbounds %"cls.acjs::JsVariant", %"cls.acjs::JsVariant"* %vptr117, i32 0, i32 1
  store i32 1, i32* %236, align 8
  %vptr118 = alloca %"cls.acjs::JsVariant", align 8
  %237 = bitcast %"cls.acjs::JsVariant"* %vptr118 to i32 (...)***
  store i32 (...)** bitcast (i8*** @_ZTVN14altered_carbon2js9JsVariantE_GEP to i32 (...)**), i32 (...)*** %237, align 8
  %238 = getelementptr inbounds %"cls.acjs::JsVariant", %"cls.acjs::JsVariant"* %vptr118, i32 0, i32 1
  store i32 1, i32* %238, align 8
  %vptr119 = alloca %"cls.acjs::JsVariant", align 8
  %239 = bitcast %"cls.acjs::JsVariant"* %vptr119 to i32 (...)***
  store i32 (...)** bitcast (i8*** @_ZTVN14altered_carbon2js9JsVariantE_GEP to i32 (...)**), i32 (...)*** %239, align 8
  %240 = getelementptr inbounds %"cls.acjs::JsVariant", %"cls.acjs::JsVariant"* %vptr119, i32 0, i32 1
  store i32 1, i32* %240, align 8
  %vptr120 = alloca %"cls.acjs::JsVariant", align 8
  %241 = bitcast %"cls.acjs::JsVariant"* %vptr120 to i32 (...)***
  store i32 (...)** bitcast (i8*** @_ZTVN14altered_carbon2js9JsVariantE_GEP to i32 (...)**), i32 (...)*** %241, align 8
  %242 = getelementptr inbounds %"cls.acjs::JsVariant", %"cls.acjs::JsVariant"* %vptr120, i32 0, i32 1
  store i32 1, i32* %242, align 8
  %vptr121 = alloca %"cls.acjs::JsVariant", align 8
  %243 = bitcast %"cls.acjs::JsVariant"* %vptr121 to i32 (...)***
  store i32 (...)** bitcast (i8*** @_ZTVN14altered_carbon2js9JsVariantE_GEP to i32 (...)**), i32 (...)*** %243, align 8
  %244 = getelementptr inbounds %"cls.acjs::JsVariant", %"cls.acjs::JsVariant"* %vptr121, i32 0, i32 1
  store i32 1, i32* %244, align 8
  %vptr122 = alloca %"cls.acjs::JsVariant", align 8
  %245 = bitcast %"cls.acjs::JsVariant"* %vptr122 to i32 (...)***
  store i32 (...)** bitcast (i8*** @_ZTVN14altered_carbon2js9JsVariantE_GEP to i32 (...)**), i32 (...)*** %245, align 8
  %246 = getelementptr inbounds %"cls.acjs::JsVariant", %"cls.acjs::JsVariant"* %vptr122, i32 0, i32 1
  store i32 1, i32* %246, align 8
  %vptr123 = alloca %"cls.acjs::JsVariant", align 8
  %247 = bitcast %"cls.acjs::JsVariant"* %vptr123 to i32 (...)***
  store i32 (...)** bitcast (i8*** @_ZTVN14altered_carbon2js9JsVariantE_GEP to i32 (...)**), i32 (...)*** %247, align 8
  %248 = getelementptr inbounds %"cls.acjs::JsVariant", %"cls.acjs::JsVariant"* %vptr123, i32 0, i32 1
  store i32 1, i32* %248, align 8
  %vptr124 = alloca %"cls.acjs::JsVariant", align 8
  %249 = bitcast %"cls.acjs::JsVariant"* %vptr124 to i32 (...)***
  store i32 (...)** bitcast (i8*** @_ZTVN14altered_carbon2js9JsVariantE_GEP to i32 (...)**), i32 (...)*** %249, align 8
  %250 = getelementptr inbounds %"cls.acjs::JsVariant", %"cls.acjs::JsVariant"* %vptr124, i32 0, i32 1
  store i32 1, i32* %250, align 8
  %vptr125 = alloca %"cls.acjs::JsVariant", align 8
  %251 = bitcast %"cls.acjs::JsVariant"* %vptr125 to i32 (...)***
  store i32 (...)** bitcast (i8*** @_ZTVN14altered_carbon2js9JsVariantE_GEP to i32 (...)**), i32 (...)*** %251, align 8
  %252 = getelementptr inbounds %"cls.acjs::JsVariant", %"cls.acjs::JsVariant"* %vptr125, i32 0, i32 1
  store i32 1, i32* %252, align 8
  %vptr126 = alloca %"cls.acjs::JsVariant", align 8
  %253 = bitcast %"cls.acjs::JsVariant"* %vptr126 to i32 (...)***
  store i32 (...)** bitcast (i8*** @_ZTVN14altered_carbon2js9JsVariantE_GEP to i32 (...)**), i32 (...)*** %253, align 8
  %254 = getelementptr inbounds %"cls.acjs::JsVariant", %"cls.acjs::JsVariant"* %vptr126, i32 0, i32 1
  store i32 1, i32* %254, align 8
  %vptr127 = alloca %"cls.acjs::JsVariant", align 8
  %255 = bitcast %"cls.acjs::JsVariant"* %vptr127 to i32 (...)***
  store i32 (...)** bitcast (i8*** @_ZTVN14altered_carbon2js9JsVariantE_GEP to i32 (...)**), i32 (...)*** %255, align 8
  %256 = getelementptr inbounds %"cls.acjs::JsVariant", %"cls.acjs::JsVariant"* %vptr127, i32 0, i32 1
  store i32 1, i32* %256, align 8
  %vptr128 = alloca %"cls.acjs::JsVariant", align 8
  %257 = bitcast %"cls.acjs::JsVariant"* %vptr128 to i32 (...)***
  store i32 (...)** bitcast (i8*** @_ZTVN14altered_carbon2js9JsVariantE_GEP to i32 (...)**), i32 (...)*** %257, align 8
  %258 = getelementptr inbounds %"cls.acjs::JsVariant", %"cls.acjs::JsVariant"* %vptr128, i32 0, i32 1
  store i32 1, i32* %258, align 8
  %vptr129 = alloca %"cls.acjs::JsVariant", align 8
  %259 = bitcast %"cls.acjs::JsVariant"* %vptr129 to i32 (...)***
  store i32 (...)** bitcast (i8*** @_ZTVN14altered_carbon2js9JsVariantE_GEP to i32 (...)**), i32 (...)*** %259, align 8
  %260 = getelementptr inbounds %"cls.acjs::JsVariant", %"cls.acjs::JsVariant"* %vptr129, i32 0, i32 1
  store i32 1, i32* %260, align 8
  %vptr130 = alloca %"cls.acjs::JsVariant", align 8
  %261 = bitcast %"cls.acjs::JsVariant"* %vptr130 to i32 (...)***
  store i32 (...)** bitcast (i8*** @_ZTVN14altered_carbon2js9JsVariantE_GEP to i32 (...)**), i32 (...)*** %261, align 8
  %262 = getelementptr inbounds %"cls.acjs::JsVariant", %"cls.acjs::JsVariant"* %vptr130, i32 0, i32 1
  store i32 1, i32* %262, align 8
  %vptr131 = alloca %"cls.acjs::JsVariant", align 8
  %263 = bitcast %"cls.acjs::JsVariant"* %vptr131 to i32 (...)***
  store i32 (...)** bitcast (i8*** @_ZTVN14altered_carbon2js9JsVariantE_GEP to i32 (...)**), i32 (...)*** %263, align 8
  %264 = getelementptr inbounds %"cls.acjs::JsVariant", %"cls.acjs::JsVariant"* %vptr131, i32 0, i32 1
  store i32 1, i32* %264, align 8
  %vptr132 = alloca %"cls.acjs::JsVariant", align 8
  %265 = bitcast %"cls.acjs::JsVariant"* %vptr132 to i32 (...)***
  store i32 (...)** bitcast (i8*** @_ZTVN14altered_carbon2js9JsVariantE_GEP to i32 (...)**), i32 (...)*** %265, align 8
  %266 = getelementptr inbounds %"cls.acjs::JsVariant", %"cls.acjs::JsVariant"* %vptr132, i32 0, i32 1
  store i32 1, i32* %266, align 8
  %vptr133 = alloca %"cls.acjs::JsVariant", align 8
  %267 = bitcast %"cls.acjs::JsVariant"* %vptr133 to i32 (...)***
  store i32 (...)** bitcast (i8*** @_ZTVN14altered_carbon2js9JsVariantE_GEP to i32 (...)**), i32 (...)*** %267, align 8
  %268 = getelementptr inbounds %"cls.acjs::JsVariant", %"cls.acjs::JsVariant"* %vptr133, i32 0, i32 1
  store i32 1, i32* %268, align 8
  %vptr134 = alloca %"cls.acjs::JsVariant", align 8
  %269 = bitcast %"cls.acjs::JsVariant"* %vptr134 to i32 (...)***
  store i32 (...)** bitcast (i8*** @_ZTVN14altered_carbon2js9JsVariantE_GEP to i32 (...)**), i32 (...)*** %269, align 8
  %270 = getelementptr inbounds %"cls.acjs::JsVariant", %"cls.acjs::JsVariant"* %vptr134, i32 0, i32 1
  store i32 1, i32* %270, align 8
  %vptr135 = alloca %"cls.acjs::JsVariant", align 8
  %271 = bitcast %"cls.acjs::JsVariant"* %vptr135 to i32 (...)***
  store i32 (...)** bitcast (i8*** @_ZTVN14altered_carbon2js9JsVariantE_GEP to i32 (...)**), i32 (...)*** %271, align 8
  %272 = getelementptr inbounds %"cls.acjs::JsVariant", %"cls.acjs::JsVariant"* %vptr135, i32 0, i32 1
  store i32 1, i32* %272, align 8
  %vptr136 = alloca %"cls.acjs::JsVariant", align 8
  %273 = bitcast %"cls.acjs::JsVariant"* %vptr136 to i32 (...)***
  store i32 (...)** bitcast (i8*** @_ZTVN14altered_carbon2js9JsVariantE_GEP to i32 (...)**), i32 (...)*** %273, align 8
  %274 = getelementptr inbounds %"cls.acjs::JsVariant", %"cls.acjs::JsVariant"* %vptr136, i32 0, i32 1
  store i32 1, i32* %274, align 8
  %vptr137 = alloca %"cls.acjs::JsVariant", align 8
  %275 = bitcast %"cls.acjs::JsVariant"* %vptr137 to i32 (...)***
  store i32 (...)** bitcast (i8*** @_ZTVN14altered_carbon2js9JsVariantE_GEP to i32 (...)**), i32 (...)*** %275, align 8
  %276 = getelementptr inbounds %"cls.acjs::JsVariant", %"cls.acjs::JsVariant"* %vptr137, i32 0, i32 1
  store i32 1, i32* %276, align 8
  %vptr138 = alloca %"cls.acjs::JsVariant", align 8
  %277 = bitcast %"cls.acjs::JsVariant"* %vptr138 to i32 (...)***
  store i32 (...)** bitcast (i8*** @_ZTVN14altered_carbon2js9JsVariantE_GEP to i32 (...)**), i32 (...)*** %277, align 8
  %278 = getelementptr inbounds %"cls.acjs::JsVariant", %"cls.acjs::JsVariant"* %vptr138, i32 0, i32 1
  store i32 1, i32* %278, align 8
  %vptr139 = alloca %"cls.acjs::JsVariant", align 8
  %279 = bitcast %"cls.acjs::JsVariant"* %vptr139 to i32 (...)***
  store i32 (...)** bitcast (i8*** @_ZTVN14altered_carbon2js9JsVariantE_GEP to i32 (...)**), i32 (...)*** %279, align 8
  %280 = getelementptr inbounds %"cls.acjs::JsVariant", %"cls.acjs::JsVariant"* %vptr139, i32 0, i32 1
  store i32 1, i32* %280, align 8
  %vptr140 = alloca %"cls.acjs::JsVariant", align 8
  %281 = bitcast %"cls.acjs::JsVariant"* %vptr140 to i32 (...)***
  store i32 (...)** bitcast (i8*** @_ZTVN14altered_carbon2js9JsVariantE_GEP to i32 (...)**), i32 (...)*** %281, align 8
  %282 = getelementptr inbounds %"cls.acjs::JsVariant", %"cls.acjs::JsVariant"* %vptr140, i32 0, i32 1
  store i32 1, i32* %282, align 8
  %vptr141 = alloca %"cls.acjs::JsVariant", align 8
  %283 = bitcast %"cls.acjs::JsVariant"* %vptr141 to i32 (...)***
  store i32 (...)** bitcast (i8*** @_ZTVN14altered_carbon2js9JsVariantE_GEP to i32 (...)**), i32 (...)*** %283, align 8
  %284 = getelementptr inbounds %"cls.acjs::JsVariant", %"cls.acjs::JsVariant"* %vptr141, i32 0, i32 1
  store i32 1, i32* %284, align 8
  %vptr142 = alloca %"cls.acjs::JsVariant", align 8
  %285 = bitcast %"cls.acjs::JsVariant"* %vptr142 to i32 (...)***
  store i32 (...)** bitcast (i8*** @_ZTVN14altered_carbon2js9JsVariantE_GEP to i32 (...)**), i32 (...)*** %285, align 8
  %286 = getelementptr inbounds %"cls.acjs::JsVariant", %"cls.acjs::JsVariant"* %vptr142, i32 0, i32 1
  store i32 1, i32* %286, align 8
  %vptr143 = alloca %"cls.acjs::JsVariant", align 8
  %287 = bitcast %"cls.acjs::JsVariant"* %vptr143 to i32 (...)***
  store i32 (...)** bitcast (i8*** @_ZTVN14altered_carbon2js9JsVariantE_GEP to i32 (...)**), i32 (...)*** %287, align 8
  %288 = getelementptr inbounds %"cls.acjs::JsVariant", %"cls.acjs::JsVariant"* %vptr143, i32 0, i32 1
  store i32 1, i32* %288, align 8
  %vptr144 = alloca %"cls.acjs::JsVariant", align 8
  %289 = bitcast %"cls.acjs::JsVariant"* %vptr144 to i32 (...)***
  store i32 (...)** bitcast (i8*** @_ZTVN14altered_carbon2js9JsVariantE_GEP to i32 (...)**), i32 (...)*** %289, align 8
  %290 = getelementptr inbounds %"cls.acjs::JsVariant", %"cls.acjs::JsVariant"* %vptr144, i32 0, i32 1
  store i32 1, i32* %290, align 8
  %vptr145 = alloca %"cls.acjs::JsVariant", align 8
  %291 = bitcast %"cls.acjs::JsVariant"* %vptr145 to i32 (...)***
  store i32 (...)** bitcast (i8*** @_ZTVN14altered_carbon2js9JsVariantE_GEP to i32 (...)**), i32 (...)*** %291, align 8
  %292 = getelementptr inbounds %"cls.acjs::JsVariant", %"cls.acjs::JsVariant"* %vptr145, i32 0, i32 1
  store i32 1, i32* %292, align 8
  %vptr146 = alloca %"cls.acjs::JsVariant", align 8
  %293 = bitcast %"cls.acjs::JsVariant"* %vptr146 to i32 (...)***
  store i32 (...)** bitcast (i8*** @_ZTVN14altered_carbon2js9JsVariantE_GEP to i32 (...)**), i32 (...)*** %293, align 8
  %294 = getelementptr inbounds %"cls.acjs::JsVariant", %"cls.acjs::JsVariant"* %vptr146, i32 0, i32 1
  store i32 1, i32* %294, align 8
  %vptr147 = alloca %"cls.acjs::JsVariant", align 8
  %295 = bitcast %"cls.acjs::JsVariant"* %vptr147 to i32 (...)***
  store i32 (...)** bitcast (i8*** @_ZTVN14altered_carbon2js9JsVariantE_GEP to i32 (...)**), i32 (...)*** %295, align 8
  %296 = getelementptr inbounds %"cls.acjs::JsVariant", %"cls.acjs::JsVariant"* %vptr147, i32 0, i32 1
  store i32 1, i32* %296, align 8
  %vptr148 = alloca %"cls.acjs::JsVariant", align 8
  %297 = bitcast %"cls.acjs::JsVariant"* %vptr148 to i32 (...)***
  store i32 (...)** bitcast (i8*** @_ZTVN14altered_carbon2js9JsVariantE_GEP to i32 (...)**), i32 (...)*** %297, align 8
  %298 = getelementptr inbounds %"cls.acjs::JsVariant", %"cls.acjs::JsVariant"* %vptr148, i32 0, i32 1
  store i32 1, i32* %298, align 8
  %vptr149 = alloca %"cls.acjs::JsVariant", align 8
  %299 = bitcast %"cls.acjs::JsVariant"* %vptr149 to i32 (...)***
  store i32 (...)** bitcast (i8*** @_ZTVN14altered_carbon2js9JsVariantE_GEP to i32 (...)**), i32 (...)*** %299, align 8
  %300 = getelementptr inbounds %"cls.acjs::JsVariant", %"cls.acjs::JsVariant"* %vptr149, i32 0, i32 1
  store i32 1, i32* %300, align 8
  %vptr150 = alloca %"cls.acjs::JsVariant", align 8
  %301 = bitcast %"cls.acjs::JsVariant"* %vptr150 to i32 (...)***
  store i32 (...)** bitcast (i8*** @_ZTVN14altered_carbon2js9JsVariantE_GEP to i32 (...)**), i32 (...)*** %301, align 8
  %302 = getelementptr inbounds %"cls.acjs::JsVariant", %"cls.acjs::JsVariant"* %vptr150, i32 0, i32 1
  store i32 1, i32* %302, align 8
  %vptr151 = alloca %"cls.acjs::JsVariant", align 8
  %303 = bitcast %"cls.acjs::JsVariant"* %vptr151 to i32 (...)***
  store i32 (...)** bitcast (i8*** @_ZTVN14altered_carbon2js9JsVariantE_GEP to i32 (...)**), i32 (...)*** %303, align 8
  %304 = getelementptr inbounds %"cls.acjs::JsVariant", %"cls.acjs::JsVariant"* %vptr151, i32 0, i32 1
  store i32 1, i32* %304, align 8
  %vptr152 = alloca %"cls.acjs::JsVariant", align 8
  %305 = bitcast %"cls.acjs::JsVariant"* %vptr152 to i32 (...)***
  store i32 (...)** bitcast (i8*** @_ZTVN14altered_carbon2js9JsVariantE_GEP to i32 (...)**), i32 (...)*** %305, align 8
  %306 = getelementptr inbounds %"cls.acjs::JsVariant", %"cls.acjs::JsVariant"* %vptr152, i32 0, i32 1
  store i32 1, i32* %306, align 8
  %vptr153 = alloca %"cls.acjs::JsVariant", align 8
  %307 = bitcast %"cls.acjs::JsVariant"* %vptr153 to i32 (...)***
  store i32 (...)** bitcast (i8*** @_ZTVN14altered_carbon2js9JsVariantE_GEP to i32 (...)**), i32 (...)*** %307, align 8
  %308 = getelementptr inbounds %"cls.acjs::JsVariant", %"cls.acjs::JsVariant"* %vptr153, i32 0, i32 1
  store i32 1, i32* %308, align 8
  %vptr154 = alloca %"cls.acjs::JsVariant", align 8
  %309 = bitcast %"cls.acjs::JsVariant"* %vptr154 to i32 (...)***
  store i32 (...)** bitcast (i8*** @_ZTVN14altered_carbon2js9JsVariantE_GEP to i32 (...)**), i32 (...)*** %309, align 8
  %310 = getelementptr inbounds %"cls.acjs::JsVariant", %"cls.acjs::JsVariant"* %vptr154, i32 0, i32 1
  store i32 1, i32* %310, align 8
  %vptr155 = alloca %"cls.acjs::JsVariant", align 8
  %311 = bitcast %"cls.acjs::JsVariant"* %vptr155 to i32 (...)***
  store i32 (...)** bitcast (i8*** @_ZTVN14altered_carbon2js9JsVariantE_GEP to i32 (...)**), i32 (...)*** %311, align 8
  %312 = getelementptr inbounds %"cls.acjs::JsVariant", %"cls.acjs::JsVariant"* %vptr155, i32 0, i32 1
  store i32 1, i32* %312, align 8
  %vptr156 = alloca %"cls.acjs::JsVariant", align 8
  %313 = bitcast %"cls.acjs::JsVariant"* %vptr156 to i32 (...)***
  store i32 (...)** bitcast (i8*** @_ZTVN14altered_carbon2js9JsVariantE_GEP to i32 (...)**), i32 (...)*** %313, align 8
  %314 = getelementptr inbounds %"cls.acjs::JsVariant", %"cls.acjs::JsVariant"* %vptr156, i32 0, i32 1
  store i32 1, i32* %314, align 8
  %vptr157 = alloca %"cls.acjs::JsVariant", align 8
  %315 = bitcast %"cls.acjs::JsVariant"* %vptr157 to i32 (...)***
  store i32 (...)** bitcast (i8*** @_ZTVN14altered_carbon2js9JsVariantE_GEP to i32 (...)**), i32 (...)*** %315, align 8
  %316 = getelementptr inbounds %"cls.acjs::JsVariant", %"cls.acjs::JsVariant"* %vptr157, i32 0, i32 1
  store i32 1, i32* %316, align 8
  %vptr158 = alloca %"cls.acjs::JsVariant", align 8
  %317 = bitcast %"cls.acjs::JsVariant"* %vptr158 to i32 (...)***
  store i32 (...)** bitcast (i8*** @_ZTVN14altered_carbon2js9JsVariantE_GEP to i32 (...)**), i32 (...)*** %317, align 8
  %318 = getelementptr inbounds %"cls.acjs::JsVariant", %"cls.acjs::JsVariant"* %vptr158, i32 0, i32 1
  store i32 1, i32* %318, align 8
  %vptr159 = alloca %"cls.acjs::JsVariant", align 8
  %319 = bitcast %"cls.acjs::JsVariant"* %vptr159 to i32 (...)***
  store i32 (...)** bitcast (i8*** @_ZTVN14altered_carbon2js9JsVariantE_GEP to i32 (...)**), i32 (...)*** %319, align 8
  %320 = getelementptr inbounds %"cls.acjs::JsVariant", %"cls.acjs::JsVariant"* %vptr159, i32 0, i32 1
  store i32 1, i32* %320, align 8
  %vptr160 = alloca %"cls.acjs::JsVariant", align 8
  %321 = bitcast %"cls.acjs::JsVariant"* %vptr160 to i32 (...)***
  store i32 (...)** bitcast (i8*** @_ZTVN14altered_carbon2js9JsVariantE_GEP to i32 (...)**), i32 (...)*** %321, align 8
  %322 = getelementptr inbounds %"cls.acjs::JsVariant", %"cls.acjs::JsVariant"* %vptr160, i32 0, i32 1
  store i32 1, i32* %322, align 8
  %vptr161 = alloca %"cls.acjs::JsVariant", align 8
  %323 = bitcast %"cls.acjs::JsVariant"* %vptr161 to i32 (...)***
  store i32 (...)** bitcast (i8*** @_ZTVN14altered_carbon2js9JsVariantE_GEP to i32 (...)**), i32 (...)*** %323, align 8
  %324 = getelementptr inbounds %"cls.acjs::JsVariant", %"cls.acjs::JsVariant"* %vptr161, i32 0, i32 1
  store i32 1, i32* %324, align 8
  %vptr162 = alloca %"cls.acjs::JsVariant", align 8
  %325 = bitcast %"cls.acjs::JsVariant"* %vptr162 to i32 (...)***
  store i32 (...)** bitcast (i8*** @_ZTVN14altered_carbon2js9JsVariantE_GEP to i32 (...)**), i32 (...)*** %325, align 8
  %326 = getelementptr inbounds %"cls.acjs::JsVariant", %"cls.acjs::JsVariant"* %vptr162, i32 0, i32 1
  store i32 1, i32* %326, align 8
  %vptr163 = alloca %"cls.acjs::JsVariant", align 8
  %327 = bitcast %"cls.acjs::JsVariant"* %vptr163 to i32 (...)***
  store i32 (...)** bitcast (i8*** @_ZTVN14altered_carbon2js9JsVariantE_GEP to i32 (...)**), i32 (...)*** %327, align 8
  %328 = getelementptr inbounds %"cls.acjs::JsVariant", %"cls.acjs::JsVariant"* %vptr163, i32 0, i32 1
  store i32 1, i32* %328, align 8
  %vptr164 = alloca %"cls.acjs::JsVariant", align 8
  %329 = bitcast %"cls.acjs::JsVariant"* %vptr164 to i32 (...)***
  store i32 (...)** bitcast (i8*** @_ZTVN14altered_carbon2js9JsVariantE_GEP to i32 (...)**), i32 (...)*** %329, align 8
  %330 = getelementptr inbounds %"cls.acjs::JsVariant", %"cls.acjs::JsVariant"* %vptr164, i32 0, i32 1
  store i32 1, i32* %330, align 8
  %vptr165 = alloca %"cls.acjs::JsVariant", align 8
  %331 = bitcast %"cls.acjs::JsVariant"* %vptr165 to i32 (...)***
  store i32 (...)** bitcast (i8*** @_ZTVN14altered_carbon2js9JsVariantE_GEP to i32 (...)**), i32 (...)*** %331, align 8
  %332 = getelementptr inbounds %"cls.acjs::JsVariant", %"cls.acjs::JsVariant"* %vptr165, i32 0, i32 1
  store i32 1, i32* %332, align 8
  %vptr166 = alloca %"cls.acjs::JsVariant", align 8
  %333 = bitcast %"cls.acjs::JsVariant"* %vptr166 to i32 (...)***
  store i32 (...)** bitcast (i8*** @_ZTVN14altered_carbon2js9JsVariantE_GEP to i32 (...)**), i32 (...)*** %333, align 8
  %334 = getelementptr inbounds %"cls.acjs::JsVariant", %"cls.acjs::JsVariant"* %vptr166, i32 0, i32 1
  store i32 1, i32* %334, align 8
  %vptr167 = alloca %"cls.acjs::JsVariant", align 8
  %335 = bitcast %"cls.acjs::JsVariant"* %vptr167 to i32 (...)***
  store i32 (...)** bitcast (i8*** @_ZTVN14altered_carbon2js9JsVariantE_GEP to i32 (...)**), i32 (...)*** %335, align 8
  %336 = getelementptr inbounds %"cls.acjs::JsVariant", %"cls.acjs::JsVariant"* %vptr167, i32 0, i32 1
  store i32 1, i32* %336, align 8
  %vptr168 = alloca %"cls.acjs::JsVariant", align 8
  %337 = bitcast %"cls.acjs::JsVariant"* %vptr168 to i32 (...)***
  store i32 (...)** bitcast (i8*** @_ZTVN14altered_carbon2js9JsVariantE_GEP to i32 (...)**), i32 (...)*** %337, align 8
  %338 = getelementptr inbounds %"cls.acjs::JsVariant", %"cls.acjs::JsVariant"* %vptr168, i32 0, i32 1
  store i32 1, i32* %338, align 8
  %vptr169 = alloca %"cls.acjs::JsVariant", align 8
  %339 = bitcast %"cls.acjs::JsVariant"* %vptr169 to i32 (...)***
  store i32 (...)** bitcast (i8*** @_ZTVN14altered_carbon2js9JsVariantE_GEP to i32 (...)**), i32 (...)*** %339, align 8
  %340 = getelementptr inbounds %"cls.acjs::JsVariant", %"cls.acjs::JsVariant"* %vptr169, i32 0, i32 1
  store i32 1, i32* %340, align 8
  %vptr170 = alloca %"cls.acjs::JsVariant", align 8
  %341 = bitcast %"cls.acjs::JsVariant"* %vptr170 to i32 (...)***
  store i32 (...)** bitcast (i8*** @_ZTVN14altered_carbon2js9JsVariantE_GEP to i32 (...)**), i32 (...)*** %341, align 8
  %342 = getelementptr inbounds %"cls.acjs::JsVariant", %"cls.acjs::JsVariant"* %vptr170, i32 0, i32 1
  store i32 1, i32* %342, align 8
  %vptr171 = alloca %"cls.acjs::JsVariant", align 8
  %343 = bitcast %"cls.acjs::JsVariant"* %vptr171 to i32 (...)***
  store i32 (...)** bitcast (i8*** @_ZTVN14altered_carbon2js9JsVariantE_GEP to i32 (...)**), i32 (...)*** %343, align 8
  %344 = getelementptr inbounds %"cls.acjs::JsVariant", %"cls.acjs::JsVariant"* %vptr171, i32 0, i32 1
  store i32 1, i32* %344, align 8
  %vptr172 = alloca %"cls.acjs::JsVariant", align 8
  %345 = bitcast %"cls.acjs::JsVariant"* %vptr172 to i32 (...)***
  store i32 (...)** bitcast (i8*** @_ZTVN14altered_carbon2js9JsVariantE_GEP to i32 (...)**), i32 (...)*** %345, align 8
  %346 = getelementptr inbounds %"cls.acjs::JsVariant", %"cls.acjs::JsVariant"* %vptr172, i32 0, i32 1
  store i32 1, i32* %346, align 8
  %vptr173 = alloca %"cls.acjs::JsVariant", align 8
  %347 = bitcast %"cls.acjs::JsVariant"* %vptr173 to i32 (...)***
  store i32 (...)** bitcast (i8*** @_ZTVN14altered_carbon2js9JsVariantE_GEP to i32 (...)**), i32 (...)*** %347, align 8
  %348 = getelementptr inbounds %"cls.acjs::JsVariant", %"cls.acjs::JsVariant"* %vptr173, i32 0, i32 1
  store i32 1, i32* %348, align 8
  %vptr174 = alloca %"cls.acjs::JsVariant", align 8
  %349 = bitcast %"cls.acjs::JsVariant"* %vptr174 to i32 (...)***
  store i32 (...)** bitcast (i8*** @_ZTVN14altered_carbon2js9JsVariantE_GEP to i32 (...)**), i32 (...)*** %349, align 8
  %350 = getelementptr inbounds %"cls.acjs::JsVariant", %"cls.acjs::JsVariant"* %vptr174, i32 0, i32 1
  store i32 1, i32* %350, align 8
  %vptr175 = alloca %"cls.acjs::JsVariant", align 8
  %351 = bitcast %"cls.acjs::JsVariant"* %vptr175 to i32 (...)***
  store i32 (...)** bitcast (i8*** @_ZTVN14altered_carbon2js9JsVariantE_GEP to i32 (...)**), i32 (...)*** %351, align 8
  %352 = getelementptr inbounds %"cls.acjs::JsVariant", %"cls.acjs::JsVariant"* %vptr175, i32 0, i32 1
  store i32 1, i32* %352, align 8
  %vptr176 = alloca %"cls.acjs::JsVariant", align 8
  %353 = bitcast %"cls.acjs::JsVariant"* %vptr176 to i32 (...)***
  store i32 (...)** bitcast (i8*** @_ZTVN14altered_carbon2js9JsVariantE_GEP to i32 (...)**), i32 (...)*** %353, align 8
  %354 = getelementptr inbounds %"cls.acjs::JsVariant", %"cls.acjs::JsVariant"* %vptr176, i32 0, i32 1
  store i32 1, i32* %354, align 8
  %vptr177 = alloca %"cls.acjs::JsVariant", align 8
  %355 = bitcast %"cls.acjs::JsVariant"* %vptr177 to i32 (...)***
  store i32 (...)** bitcast (i8*** @_ZTVN14altered_carbon2js9JsVariantE_GEP to i32 (...)**), i32 (...)*** %355, align 8
  %356 = getelementptr inbounds %"cls.acjs::JsVariant", %"cls.acjs::JsVariant"* %vptr177, i32 0, i32 1
  store i32 1, i32* %356, align 8
  %vptr178 = alloca %"cls.acjs::JsVariant", align 8
  %357 = bitcast %"cls.acjs::JsVariant"* %vptr178 to i32 (...)***
  store i32 (...)** bitcast (i8*** @_ZTVN14altered_carbon2js9JsVariantE_GEP to i32 (...)**), i32 (...)*** %357, align 8
  %358 = getelementptr inbounds %"cls.acjs::JsVariant", %"cls.acjs::JsVariant"* %vptr178, i32 0, i32 1
  store i32 1, i32* %358, align 8
  %vptr179 = alloca %"cls.acjs::JsVariant", align 8
  %359 = bitcast %"cls.acjs::JsVariant"* %vptr179 to i32 (...)***
  store i32 (...)** bitcast (i8*** @_ZTVN14altered_carbon2js9JsVariantE_GEP to i32 (...)**), i32 (...)*** %359, align 8
  %360 = getelementptr inbounds %"cls.acjs::JsVariant", %"cls.acjs::JsVariant"* %vptr179, i32 0, i32 1
  store i32 1, i32* %360, align 8
  %vptr180 = alloca %"cls.acjs::JsVariant", align 8
  %361 = bitcast %"cls.acjs::JsVariant"* %vptr180 to i32 (...)***
  store i32 (...)** bitcast (i8*** @_ZTVN14altered_carbon2js9JsVariantE_GEP to i32 (...)**), i32 (...)*** %361, align 8
  %362 = getelementptr inbounds %"cls.acjs::JsVariant", %"cls.acjs::JsVariant"* %vptr180, i32 0, i32 1
  store i32 1, i32* %362, align 8
  %vptr181 = alloca %"cls.acjs::JsVariant", align 8
  %363 = bitcast %"cls.acjs::JsVariant"* %vptr181 to i32 (...)***
  store i32 (...)** bitcast (i8*** @_ZTVN14altered_carbon2js9JsVariantE_GEP to i32 (...)**), i32 (...)*** %363, align 8
  %364 = getelementptr inbounds %"cls.acjs::JsVariant", %"cls.acjs::JsVariant"* %vptr181, i32 0, i32 1
  store i32 1, i32* %364, align 8
  %vptr182 = alloca %"cls.acjs::JsVariant", align 8
  %365 = bitcast %"cls.acjs::JsVariant"* %vptr182 to i32 (...)***
  store i32 (...)** bitcast (i8*** @_ZTVN14altered_carbon2js9JsVariantE_GEP to i32 (...)**), i32 (...)*** %365, align 8
  %366 = getelementptr inbounds %"cls.acjs::JsVariant", %"cls.acjs::JsVariant"* %vptr182, i32 0, i32 1
  store i32 1, i32* %366, align 8
  %vptr183 = alloca %"cls.acjs::JsVariant", align 8
  %367 = bitcast %"cls.acjs::JsVariant"* %vptr183 to i32 (...)***
  store i32 (...)** bitcast (i8*** @_ZTVN14altered_carbon2js9JsVariantE_GEP to i32 (...)**), i32 (...)*** %367, align 8
  %368 = getelementptr inbounds %"cls.acjs::JsVariant", %"cls.acjs::JsVariant"* %vptr183, i32 0, i32 1
  store i32 1, i32* %368, align 8
  %vptr184 = alloca %"cls.acjs::JsVariant", align 8
  %369 = bitcast %"cls.acjs::JsVariant"* %vptr184 to i32 (...)***
  store i32 (...)** bitcast (i8*** @_ZTVN14altered_carbon2js9JsVariantE_GEP to i32 (...)**), i32 (...)*** %369, align 8
  %370 = getelementptr inbounds %"cls.acjs::JsVariant", %"cls.acjs::JsVariant"* %vptr184, i32 0, i32 1
  store i32 1, i32* %370, align 8
  %vptr185 = alloca %"cls.acjs::JsVariant", align 8
  %371 = bitcast %"cls.acjs::JsVariant"* %vptr185 to i32 (...)***
  store i32 (...)** bitcast (i8*** @_ZTVN14altered_carbon2js9JsVariantE_GEP to i32 (...)**), i32 (...)*** %371, align 8
  %372 = getelementptr inbounds %"cls.acjs::JsVariant", %"cls.acjs::JsVariant"* %vptr185, i32 0, i32 1
  store i32 1, i32* %372, align 8
  %vptr186 = alloca %"cls.acjs::JsVariant", align 8
  %373 = bitcast %"cls.acjs::JsVariant"* %vptr186 to i32 (...)***
  store i32 (...)** bitcast (i8*** @_ZTVN14altered_carbon2js9JsVariantE_GEP to i32 (...)**), i32 (...)*** %373, align 8
  %374 = getelementptr inbounds %"cls.acjs::JsVariant", %"cls.acjs::JsVariant"* %vptr186, i32 0, i32 1
  store i32 1, i32* %374, align 8
  %vptr187 = alloca %"cls.acjs::JsVariant", align 8
  %375 = bitcast %"cls.acjs::JsVariant"* %vptr187 to i32 (...)***
  store i32 (...)** bitcast (i8*** @_ZTVN14altered_carbon2js9JsVariantE_GEP to i32 (...)**), i32 (...)*** %375, align 8
  %376 = getelementptr inbounds %"cls.acjs::JsVariant", %"cls.acjs::JsVariant"* %vptr187, i32 0, i32 1
  store i32 1, i32* %376, align 8
  %vptr188 = alloca %"cls.acjs::JsVariant", align 8
  %377 = bitcast %"cls.acjs::JsVariant"* %vptr188 to i32 (...)***
  store i32 (...)** bitcast (i8*** @_ZTVN14altered_carbon2js9JsVariantE_GEP to i32 (...)**), i32 (...)*** %377, align 8
  %378 = getelementptr inbounds %"cls.acjs::JsVariant", %"cls.acjs::JsVariant"* %vptr188, i32 0, i32 1
  store i32 1, i32* %378, align 8
  %vptr189 = alloca %"cls.acjs::JsVariant", align 8
  %379 = bitcast %"cls.acjs::JsVariant"* %vptr189 to i32 (...)***
  store i32 (...)** bitcast (i8*** @_ZTVN14altered_carbon2js9JsVariantE_GEP to i32 (...)**), i32 (...)*** %379, align 8
  %380 = getelementptr inbounds %"cls.acjs::JsVariant", %"cls.acjs::JsVariant"* %vptr189, i32 0, i32 1
  store i32 1, i32* %380, align 8
  %vptr190 = alloca %"cls.acjs::JsVariant", align 8
  %381 = bitcast %"cls.acjs::JsVariant"* %vptr190 to i32 (...)***
  store i32 (...)** bitcast (i8*** @_ZTVN14altered_carbon2js9JsVariantE_GEP to i32 (...)**), i32 (...)*** %381, align 8
  %382 = getelementptr inbounds %"cls.acjs::JsVariant", %"cls.acjs::JsVariant"* %vptr190, i32 0, i32 1
  store i32 1, i32* %382, align 8
  %vptr191 = alloca %"cls.acjs::JsVariant", align 8
  %383 = bitcast %"cls.acjs::JsVariant"* %vptr191 to i32 (...)***
  store i32 (...)** bitcast (i8*** @_ZTVN14altered_carbon2js9JsVariantE_GEP to i32 (...)**), i32 (...)*** %383, align 8
  %384 = getelementptr inbounds %"cls.acjs::JsVariant", %"cls.acjs::JsVariant"* %vptr191, i32 0, i32 1
  store i32 1, i32* %384, align 8
  %vptr192 = alloca %"cls.acjs::JsVariant", align 8
  %385 = bitcast %"cls.acjs::JsVariant"* %vptr192 to i32 (...)***
  store i32 (...)** bitcast (i8*** @_ZTVN14altered_carbon2js9JsVariantE_GEP to i32 (...)**), i32 (...)*** %385, align 8
  %386 = getelementptr inbounds %"cls.acjs::JsVariant", %"cls.acjs::JsVariant"* %vptr192, i32 0, i32 1
  store i32 1, i32* %386, align 8
  %vptr193 = alloca %"cls.acjs::JsVariant", align 8
  %387 = bitcast %"cls.acjs::JsVariant"* %vptr193 to i32 (...)***
  store i32 (...)** bitcast (i8*** @_ZTVN14altered_carbon2js9JsVariantE_GEP to i32 (...)**), i32 (...)*** %387, align 8
  %388 = getelementptr inbounds %"cls.acjs::JsVariant", %"cls.acjs::JsVariant"* %vptr193, i32 0, i32 1
  store i32 1, i32* %388, align 8
  %vptr194 = alloca %"cls.acjs::JsVariant", align 8
  %389 = bitcast %"cls.acjs::JsVariant"* %vptr194 to i32 (...)***
  store i32 (...)** bitcast (i8*** @_ZTVN14altered_carbon2js9JsVariantE_GEP to i32 (...)**), i32 (...)*** %389, align 8
  %390 = getelementptr inbounds %"cls.acjs::JsVariant", %"cls.acjs::JsVariant"* %vptr194, i32 0, i32 1
  store i32 1, i32* %390, align 8
  %vptr195 = alloca %"cls.acjs::JsVariant", align 8
  %391 = bitcast %"cls.acjs::JsVariant"* %vptr195 to i32 (...)***
  store i32 (...)** bitcast (i8*** @_ZTVN14altered_carbon2js9JsVariantE_GEP to i32 (...)**), i32 (...)*** %391, align 8
  %392 = getelementptr inbounds %"cls.acjs::JsVariant", %"cls.acjs::JsVariant"* %vptr195, i32 0, i32 1
  store i32 1, i32* %392, align 8
  %vptr196 = alloca %"cls.acjs::JsVariant", align 8
  %393 = bitcast %"cls.acjs::JsVariant"* %vptr196 to i32 (...)***
  store i32 (...)** bitcast (i8*** @_ZTVN14altered_carbon2js9JsVariantE_GEP to i32 (...)**), i32 (...)*** %393, align 8
  %394 = getelementptr inbounds %"cls.acjs::JsVariant", %"cls.acjs::JsVariant"* %vptr196, i32 0, i32 1
  store i32 1, i32* %394, align 8
  %vptr197 = alloca %"cls.acjs::JsVariant", align 8
  %395 = bitcast %"cls.acjs::JsVariant"* %vptr197 to i32 (...)***
  store i32 (...)** bitcast (i8*** @_ZTVN14altered_carbon2js9JsVariantE_GEP to i32 (...)**), i32 (...)*** %395, align 8
  %396 = getelementptr inbounds %"cls.acjs::JsVariant", %"cls.acjs::JsVariant"* %vptr197, i32 0, i32 1
  store i32 1, i32* %396, align 8
  %vptr198 = alloca %"cls.acjs::JsVariant", align 8
  %397 = bitcast %"cls.acjs::JsVariant"* %vptr198 to i32 (...)***
  store i32 (...)** bitcast (i8*** @_ZTVN14altered_carbon2js9JsVariantE_GEP to i32 (...)**), i32 (...)*** %397, align 8
  %398 = getelementptr inbounds %"cls.acjs::JsVariant", %"cls.acjs::JsVariant"* %vptr198, i32 0, i32 1
  store i32 1, i32* %398, align 8
  %vptr199 = alloca %"cls.acjs::JsVariant", align 8
  %399 = bitcast %"cls.acjs::JsVariant"* %vptr199 to i32 (...)***
  store i32 (...)** bitcast (i8*** @_ZTVN14altered_carbon2js9JsVariantE_GEP to i32 (...)**), i32 (...)*** %399, align 8
  %400 = getelementptr inbounds %"cls.acjs::JsVariant", %"cls.acjs::JsVariant"* %vptr199, i32 0, i32 1
  store i32 1, i32* %400, align 8
  %vptr200 = alloca %"cls.acjs::JsVariant", align 8
  %401 = bitcast %"cls.acjs::JsVariant"* %vptr200 to i32 (...)***
  store i32 (...)** bitcast (i8*** @_ZTVN14altered_carbon2js9JsVariantE_GEP to i32 (...)**), i32 (...)*** %401, align 8
  %402 = getelementptr inbounds %"cls.acjs::JsVariant", %"cls.acjs::JsVariant"* %vptr200, i32 0, i32 1
  store i32 1, i32* %402, align 8
  %vptr201 = alloca %"cls.acjs::JsVariant", align 8
  %403 = bitcast %"cls.acjs::JsVariant"* %vptr201 to i32 (...)***
  store i32 (...)** bitcast (i8*** @_ZTVN14altered_carbon2js9JsVariantE_GEP to i32 (...)**), i32 (...)*** %403, align 8
  %404 = getelementptr inbounds %"cls.acjs::JsVariant", %"cls.acjs::JsVariant"* %vptr201, i32 0, i32 1
  store i32 1, i32* %404, align 8
  %vptr202 = alloca %"cls.acjs::JsVariant", align 8
  %405 = bitcast %"cls.acjs::JsVariant"* %vptr202 to i32 (...)***
  store i32 (...)** bitcast (i8*** @_ZTVN14altered_carbon2js9JsVariantE_GEP to i32 (...)**), i32 (...)*** %405, align 8
  %406 = getelementptr inbounds %"cls.acjs::JsVariant", %"cls.acjs::JsVariant"* %vptr202, i32 0, i32 1
  store i32 1, i32* %406, align 8
  %vptr203 = alloca %"cls.acjs::JsVariant", align 8
  %407 = bitcast %"cls.acjs::JsVariant"* %vptr203 to i32 (...)***
  store i32 (...)** bitcast (i8*** @_ZTVN14altered_carbon2js9JsVariantE_GEP to i32 (...)**), i32 (...)*** %407, align 8
  %408 = getelementptr inbounds %"cls.acjs::JsVariant", %"cls.acjs::JsVariant"* %vptr203, i32 0, i32 1
  store i32 1, i32* %408, align 8
  %vptr204 = alloca %"cls.acjs::JsVariant", align 8
  %409 = bitcast %"cls.acjs::JsVariant"* %vptr204 to i32 (...)***
  store i32 (...)** bitcast (i8*** @_ZTVN14altered_carbon2js9JsVariantE_GEP to i32 (...)**), i32 (...)*** %409, align 8
  %410 = getelementptr inbounds %"cls.acjs::JsVariant", %"cls.acjs::JsVariant"* %vptr204, i32 0, i32 1
  store i32 1, i32* %410, align 8
  %vptr205 = alloca %"cls.acjs::JsVariant", align 8
  %411 = bitcast %"cls.acjs::JsVariant"* %vptr205 to i32 (...)***
  store i32 (...)** bitcast (i8*** @_ZTVN14altered_carbon2js9JsVariantE_GEP to i32 (...)**), i32 (...)*** %411, align 8
  %412 = getelementptr inbounds %"cls.acjs::JsVariant", %"cls.acjs::JsVariant"* %vptr205, i32 0, i32 1
  store i32 1, i32* %412, align 8
  %vptr206 = alloca %"cls.acjs::JsVariant", align 8
  %413 = bitcast %"cls.acjs::JsVariant"* %vptr206 to i32 (...)***
  store i32 (...)** bitcast (i8*** @_ZTVN14altered_carbon2js9JsVariantE_GEP to i32 (...)**), i32 (...)*** %413, align 8
  %414 = getelementptr inbounds %"cls.acjs::JsVariant", %"cls.acjs::JsVariant"* %vptr206, i32 0, i32 1
  store i32 1, i32* %414, align 8
  %vptr207 = alloca %"cls.acjs::JsVariant", align 8
  %415 = bitcast %"cls.acjs::JsVariant"* %vptr207 to i32 (...)***
  store i32 (...)** bitcast (i8*** @_ZTVN14altered_carbon2js9JsVariantE_GEP to i32 (...)**), i32 (...)*** %415, align 8
  %416 = getelementptr inbounds %"cls.acjs::JsVariant", %"cls.acjs::JsVariant"* %vptr207, i32 0, i32 1
  store i32 1, i32* %416, align 8
  %vptr208 = alloca %"cls.acjs::JsVariant", align 8
  %417 = bitcast %"cls.acjs::JsVariant"* %vptr208 to i32 (...)***
  store i32 (...)** bitcast (i8*** @_ZTVN14altered_carbon2js9JsVariantE_GEP to i32 (...)**), i32 (...)*** %417, align 8
  %418 = getelementptr inbounds %"cls.acjs::JsVariant", %"cls.acjs::JsVariant"* %vptr208, i32 0, i32 1
  store i32 1, i32* %418, align 8
  %vptr209 = alloca %"cls.acjs::JsVariant", align 8
  %419 = bitcast %"cls.acjs::JsVariant"* %vptr209 to i32 (...)***
  store i32 (...)** bitcast (i8*** @_ZTVN14altered_carbon2js9JsVariantE_GEP to i32 (...)**), i32 (...)*** %419, align 8
  %420 = getelementptr inbounds %"cls.acjs::JsVariant", %"cls.acjs::JsVariant"* %vptr209, i32 0, i32 1
  store i32 1, i32* %420, align 8
  %vptr210 = alloca %"cls.acjs::JsVariant", align 8
  %421 = bitcast %"cls.acjs::JsVariant"* %vptr210 to i32 (...)***
  store i32 (...)** bitcast (i8*** @_ZTVN14altered_carbon2js9JsVariantE_GEP to i32 (...)**), i32 (...)*** %421, align 8
  %422 = getelementptr inbounds %"cls.acjs::JsVariant", %"cls.acjs::JsVariant"* %vptr210, i32 0, i32 1
  store i32 1, i32* %422, align 8
  %vptr211 = alloca %"cls.acjs::JsVariant", align 8
  %423 = bitcast %"cls.acjs::JsVariant"* %vptr211 to i32 (...)***
  store i32 (...)** bitcast (i8*** @_ZTVN14altered_carbon2js9JsVariantE_GEP to i32 (...)**), i32 (...)*** %423, align 8
  %424 = getelementptr inbounds %"cls.acjs::JsVariant", %"cls.acjs::JsVariant"* %vptr211, i32 0, i32 1
  store i32 1, i32* %424, align 8
  %vptr212 = alloca %"cls.acjs::JsVariant", align 8
  %425 = bitcast %"cls.acjs::JsVariant"* %vptr212 to i32 (...)***
  store i32 (...)** bitcast (i8*** @_ZTVN14altered_carbon2js9JsVariantE_GEP to i32 (...)**), i32 (...)*** %425, align 8
  %426 = getelementptr inbounds %"cls.acjs::JsVariant", %"cls.acjs::JsVariant"* %vptr212, i32 0, i32 1
  store i32 1, i32* %426, align 8
  %vptr213 = alloca %"cls.acjs::JsVariant", align 8
  %427 = bitcast %"cls.acjs::JsVariant"* %vptr213 to i32 (...)***
  store i32 (...)** bitcast (i8*** @_ZTVN14altered_carbon2js9JsVariantE_GEP to i32 (...)**), i32 (...)*** %427, align 8
  %428 = getelementptr inbounds %"cls.acjs::JsVariant", %"cls.acjs::JsVariant"* %vptr213, i32 0, i32 1
  store i32 1, i32* %428, align 8
  %vptr214 = alloca %"cls.acjs::JsVariant", align 8
  %429 = bitcast %"cls.acjs::JsVariant"* %vptr214 to i32 (...)***
  store i32 (...)** bitcast (i8*** @_ZTVN14altered_carbon2js9JsVariantE_GEP to i32 (...)**), i32 (...)*** %429, align 8
  %430 = getelementptr inbounds %"cls.acjs::JsVariant", %"cls.acjs::JsVariant"* %vptr214, i32 0, i32 1
  store i32 1, i32* %430, align 8
  %vptr215 = alloca %"cls.acjs::JsVariant", align 8
  %431 = bitcast %"cls.acjs::JsVariant"* %vptr215 to i32 (...)***
  store i32 (...)** bitcast (i8*** @_ZTVN14altered_carbon2js9JsVariantE_GEP to i32 (...)**), i32 (...)*** %431, align 8
  %432 = getelementptr inbounds %"cls.acjs::JsVariant", %"cls.acjs::JsVariant"* %vptr215, i32 0, i32 1
  store i32 1, i32* %432, align 8
  %vptr216 = alloca %"cls.acjs::JsVariant", align 8
  %433 = bitcast %"cls.acjs::JsVariant"* %vptr216 to i32 (...)***
  store i32 (...)** bitcast (i8*** @_ZTVN14altered_carbon2js9JsVariantE_GEP to i32 (...)**), i32 (...)*** %433, align 8
  %434 = getelementptr inbounds %"cls.acjs::JsVariant", %"cls.acjs::JsVariant"* %vptr216, i32 0, i32 1
  store i32 1, i32* %434, align 8
  %vptr217 = alloca %"cls.acjs::JsVariant", align 8
  %435 = bitcast %"cls.acjs::JsVariant"* %vptr217 to i32 (...)***
  store i32 (...)** bitcast (i8*** @_ZTVN14altered_carbon2js9JsVariantE_GEP to i32 (...)**), i32 (...)*** %435, align 8
  %436 = getelementptr inbounds %"cls.acjs::JsVariant", %"cls.acjs::JsVariant"* %vptr217, i32 0, i32 1
  store i32 1, i32* %436, align 8
  %vptr218 = alloca %"cls.acjs::JsVariant", align 8
  %437 = bitcast %"cls.acjs::JsVariant"* %vptr218 to i32 (...)***
  store i32 (...)** bitcast (i8*** @_ZTVN14altered_carbon2js9JsVariantE_GEP to i32 (...)**), i32 (...)*** %437, align 8
  %438 = getelementptr inbounds %"cls.acjs::JsVariant", %"cls.acjs::JsVariant"* %vptr218, i32 0, i32 1
  store i32 1, i32* %438, align 8
  %vptr219 = alloca %"cls.acjs::JsVariant", align 8
  %439 = bitcast %"cls.acjs::JsVariant"* %vptr219 to i32 (...)***
  store i32 (...)** bitcast (i8*** @_ZTVN14altered_carbon2js9JsVariantE_GEP to i32 (...)**), i32 (...)*** %439, align 8
  %440 = getelementptr inbounds %"cls.acjs::JsVariant", %"cls.acjs::JsVariant"* %vptr219, i32 0, i32 1
  store i32 1, i32* %440, align 8
  %vptr220 = alloca %"cls.acjs::JsVariant", align 8
  %441 = bitcast %"cls.acjs::JsVariant"* %vptr220 to i32 (...)***
  store i32 (...)** bitcast (i8*** @_ZTVN14altered_carbon2js9JsVariantE_GEP to i32 (...)**), i32 (...)*** %441, align 8
  %442 = getelementptr inbounds %"cls.acjs::JsVariant", %"cls.acjs::JsVariant"* %vptr220, i32 0, i32 1
  store i32 1, i32* %442, align 8
  %vptr221 = alloca %"cls.acjs::JsVariant", align 8
  %443 = bitcast %"cls.acjs::JsVariant"* %vptr221 to i32 (...)***
  store i32 (...)** bitcast (i8*** @_ZTVN14altered_carbon2js9JsVariantE_GEP to i32 (...)**), i32 (...)*** %443, align 8
  %444 = getelementptr inbounds %"cls.acjs::JsVariant", %"cls.acjs::JsVariant"* %vptr221, i32 0, i32 1
  store i32 1, i32* %444, align 8
  %vptr222 = alloca %"cls.acjs::JsVariant", align 8
  %445 = bitcast %"cls.acjs::JsVariant"* %vptr222 to i32 (...)***
  store i32 (...)** bitcast (i8*** @_ZTVN14altered_carbon2js9JsVariantE_GEP to i32 (...)**), i32 (...)*** %445, align 8
  %446 = getelementptr inbounds %"cls.acjs::JsVariant", %"cls.acjs::JsVariant"* %vptr222, i32 0, i32 1
  store i32 1, i32* %446, align 8
  %vptr223 = alloca %"cls.acjs::JsVariant", align 8
  %447 = bitcast %"cls.acjs::JsVariant"* %vptr223 to i32 (...)***
  store i32 (...)** bitcast (i8*** @_ZTVN14altered_carbon2js9JsVariantE_GEP to i32 (...)**), i32 (...)*** %447, align 8
  %448 = getelementptr inbounds %"cls.acjs::JsVariant", %"cls.acjs::JsVariant"* %vptr223, i32 0, i32 1
  store i32 1, i32* %448, align 8
  %vptr224 = alloca %"cls.acjs::JsVariant", align 8
  %449 = bitcast %"cls.acjs::JsVariant"* %vptr224 to i32 (...)***
  store i32 (...)** bitcast (i8*** @_ZTVN14altered_carbon2js9JsVariantE_GEP to i32 (...)**), i32 (...)*** %449, align 8
  %450 = getelementptr inbounds %"cls.acjs::JsVariant", %"cls.acjs::JsVariant"* %vptr224, i32 0, i32 1
  store i32 1, i32* %450, align 8
  %vptr225 = alloca %"cls.acjs::JsVariant", align 8
  %451 = bitcast %"cls.acjs::JsVariant"* %vptr225 to i32 (...)***
  store i32 (...)** bitcast (i8*** @_ZTVN14altered_carbon2js9JsVariantE_GEP to i32 (...)**), i32 (...)*** %451, align 8
  %452 = getelementptr inbounds %"cls.acjs::JsVariant", %"cls.acjs::JsVariant"* %vptr225, i32 0, i32 1
  store i32 1, i32* %452, align 8
  %vptr226 = alloca %"cls.acjs::JsVariant", align 8
  %453 = bitcast %"cls.acjs::JsVariant"* %vptr226 to i32 (...)***
  store i32 (...)** bitcast (i8*** @_ZTVN14altered_carbon2js9JsVariantE_GEP to i32 (...)**), i32 (...)*** %453, align 8
  %454 = getelementptr inbounds %"cls.acjs::JsVariant", %"cls.acjs::JsVariant"* %vptr226, i32 0, i32 1
  store i32 1, i32* %454, align 8
  %vptr227 = alloca %"cls.acjs::JsVariant", align 8
  %455 = bitcast %"cls.acjs::JsVariant"* %vptr227 to i32 (...)***
  store i32 (...)** bitcast (i8*** @_ZTVN14altered_carbon2js9JsVariantE_GEP to i32 (...)**), i32 (...)*** %455, align 8
  %456 = getelementptr inbounds %"cls.acjs::JsVariant", %"cls.acjs::JsVariant"* %vptr227, i32 0, i32 1
  store i32 1, i32* %456, align 8
  %vptr228 = alloca %"cls.acjs::JsVariant", align 8
  %457 = bitcast %"cls.acjs::JsVariant"* %vptr228 to i32 (...)***
  store i32 (...)** bitcast (i8*** @_ZTVN14altered_carbon2js9JsVariantE_GEP to i32 (...)**), i32 (...)*** %457, align 8
  %458 = getelementptr inbounds %"cls.acjs::JsVariant", %"cls.acjs::JsVariant"* %vptr228, i32 0, i32 1
  store i32 1, i32* %458, align 8
  %vptr229 = alloca %"cls.acjs::JsVariant", align 8
  %459 = bitcast %"cls.acjs::JsVariant"* %vptr229 to i32 (...)***
  store i32 (...)** bitcast (i8*** @_ZTVN14altered_carbon2js9JsVariantE_GEP to i32 (...)**), i32 (...)*** %459, align 8
  %460 = getelementptr inbounds %"cls.acjs::JsVariant", %"cls.acjs::JsVariant"* %vptr229, i32 0, i32 1
  store i32 1, i32* %460, align 8
  %vptr230 = alloca %"cls.acjs::JsVariant", align 8
  %461 = bitcast %"cls.acjs::JsVariant"* %vptr230 to i32 (...)***
  store i32 (...)** bitcast (i8*** @_ZTVN14altered_carbon2js9JsVariantE_GEP to i32 (...)**), i32 (...)*** %461, align 8
  %462 = getelementptr inbounds %"cls.acjs::JsVariant", %"cls.acjs::JsVariant"* %vptr230, i32 0, i32 1
  store i32 1, i32* %462, align 8
  %vptr231 = alloca %"cls.acjs::JsVariant", align 8
  %463 = bitcast %"cls.acjs::JsVariant"* %vptr231 to i32 (...)***
  store i32 (...)** bitcast (i8*** @_ZTVN14altered_carbon2js9JsVariantE_GEP to i32 (...)**), i32 (...)*** %463, align 8
  %464 = getelementptr inbounds %"cls.acjs::JsVariant", %"cls.acjs::JsVariant"* %vptr231, i32 0, i32 1
  store i32 1, i32* %464, align 8
  %vptr232 = alloca %"cls.acjs::JsVariant", align 8
  %465 = bitcast %"cls.acjs::JsVariant"* %vptr232 to i32 (...)***
  store i32 (...)** bitcast (i8*** @_ZTVN14altered_carbon2js9JsVariantE_GEP to i32 (...)**), i32 (...)*** %465, align 8
  %466 = getelementptr inbounds %"cls.acjs::JsVariant", %"cls.acjs::JsVariant"* %vptr232, i32 0, i32 1
  store i32 1, i32* %466, align 8
  %vptr233 = alloca %"cls.acjs::JsVariant", align 8
  %467 = bitcast %"cls.acjs::JsVariant"* %vptr233 to i32 (...)***
  store i32 (...)** bitcast (i8*** @_ZTVN14altered_carbon2js9JsVariantE_GEP to i32 (...)**), i32 (...)*** %467, align 8
  %468 = getelementptr inbounds %"cls.acjs::JsVariant", %"cls.acjs::JsVariant"* %vptr233, i32 0, i32 1
  store i32 1, i32* %468, align 8
  %vptr234 = alloca %"cls.acjs::JsVariant", align 8
  %469 = bitcast %"cls.acjs::JsVariant"* %vptr234 to i32 (...)***
  store i32 (...)** bitcast (i8*** @_ZTVN14altered_carbon2js9JsVariantE_GEP to i32 (...)**), i32 (...)*** %469, align 8
  %470 = getelementptr inbounds %"cls.acjs::JsVariant", %"cls.acjs::JsVariant"* %vptr234, i32 0, i32 1
  store i32 1, i32* %470, align 8
  %vptr235 = alloca %"cls.acjs::JsVariant", align 8
  %471 = bitcast %"cls.acjs::JsVariant"* %vptr235 to i32 (...)***
  store i32 (...)** bitcast (i8*** @_ZTVN14altered_carbon2js9JsVariantE_GEP to i32 (...)**), i32 (...)*** %471, align 8
  %472 = getelementptr inbounds %"cls.acjs::JsVariant", %"cls.acjs::JsVariant"* %vptr235, i32 0, i32 1
  store i32 1, i32* %472, align 8
  %vptr236 = alloca %"cls.acjs::JsVariant", align 8
  %473 = bitcast %"cls.acjs::JsVariant"* %vptr236 to i32 (...)***
  store i32 (...)** bitcast (i8*** @_ZTVN14altered_carbon2js9JsVariantE_GEP to i32 (...)**), i32 (...)*** %473, align 8
  %474 = getelementptr inbounds %"cls.acjs::JsVariant", %"cls.acjs::JsVariant"* %vptr236, i32 0, i32 1
  store i32 1, i32* %474, align 8
  %vptr237 = alloca %"cls.acjs::JsVariant", align 8
  %475 = bitcast %"cls.acjs::JsVariant"* %vptr237 to i32 (...)***
  store i32 (...)** bitcast (i8*** @_ZTVN14altered_carbon2js9JsVariantE_GEP to i32 (...)**), i32 (...)*** %475, align 8
  %476 = getelementptr inbounds %"cls.acjs::JsVariant", %"cls.acjs::JsVariant"* %vptr237, i32 0, i32 1
  store i32 1, i32* %476, align 8
  %vptr238 = alloca %"cls.acjs::JsVariant", align 8
  %477 = bitcast %"cls.acjs::JsVariant"* %vptr238 to i32 (...)***
  store i32 (...)** bitcast (i8*** @_ZTVN14altered_carbon2js9JsVariantE_GEP to i32 (...)**), i32 (...)*** %477, align 8
  %478 = getelementptr inbounds %"cls.acjs::JsVariant", %"cls.acjs::JsVariant"* %vptr238, i32 0, i32 1
  store i32 1, i32* %478, align 8
  %vptr239 = alloca %"cls.acjs::JsVariant", align 8
  %479 = bitcast %"cls.acjs::JsVariant"* %vptr239 to i32 (...)***
  store i32 (...)** bitcast (i8*** @_ZTVN14altered_carbon2js9JsVariantE_GEP to i32 (...)**), i32 (...)*** %479, align 8
  %480 = getelementptr inbounds %"cls.acjs::JsVariant", %"cls.acjs::JsVariant"* %vptr239, i32 0, i32 1
  store i32 1, i32* %480, align 8
  %vptr240 = alloca %"cls.acjs::JsVariant", align 8
  %481 = bitcast %"cls.acjs::JsVariant"* %vptr240 to i32 (...)***
  store i32 (...)** bitcast (i8*** @_ZTVN14altered_carbon2js9JsVariantE_GEP to i32 (...)**), i32 (...)*** %481, align 8
  %482 = getelementptr inbounds %"cls.acjs::JsVariant", %"cls.acjs::JsVariant"* %vptr240, i32 0, i32 1
  store i32 1, i32* %482, align 8
  %vptr241 = alloca %"cls.acjs::JsVariant", align 8
  %483 = bitcast %"cls.acjs::JsVariant"* %vptr241 to i32 (...)***
  store i32 (...)** bitcast (i8*** @_ZTVN14altered_carbon2js9JsVariantE_GEP to i32 (...)**), i32 (...)*** %483, align 8
  %484 = getelementptr inbounds %"cls.acjs::JsVariant", %"cls.acjs::JsVariant"* %vptr241, i32 0, i32 1
  store i32 1, i32* %484, align 8
  %vptr242 = alloca %"cls.acjs::JsVariant", align 8
  %485 = bitcast %"cls.acjs::JsVariant"* %vptr242 to i32 (...)***
  store i32 (...)** bitcast (i8*** @_ZTVN14altered_carbon2js9JsVariantE_GEP to i32 (...)**), i32 (...)*** %485, align 8
  %486 = getelementptr inbounds %"cls.acjs::JsVariant", %"cls.acjs::JsVariant"* %vptr242, i32 0, i32 1
  store i32 1, i32* %486, align 8
  %vptr243 = alloca %"cls.acjs::JsVariant", align 8
  %487 = bitcast %"cls.acjs::JsVariant"* %vptr243 to i32 (...)***
  store i32 (...)** bitcast (i8*** @_ZTVN14altered_carbon2js9JsVariantE_GEP to i32 (...)**), i32 (...)*** %487, align 8
  %488 = getelementptr inbounds %"cls.acjs::JsVariant", %"cls.acjs::JsVariant"* %vptr243, i32 0, i32 1
  store i32 1, i32* %488, align 8
  %vptr244 = alloca %"cls.acjs::JsVariant", align 8
  %489 = bitcast %"cls.acjs::JsVariant"* %vptr244 to i32 (...)***
  store i32 (...)** bitcast (i8*** @_ZTVN14altered_carbon2js9JsVariantE_GEP to i32 (...)**), i32 (...)*** %489, align 8
  %490 = getelementptr inbounds %"cls.acjs::JsVariant", %"cls.acjs::JsVariant"* %vptr244, i32 0, i32 1
  store i32 1, i32* %490, align 8
  %vptr245 = alloca %"cls.acjs::JsVariant", align 8
  %491 = bitcast %"cls.acjs::JsVariant"* %vptr245 to i32 (...)***
  store i32 (...)** bitcast (i8*** @_ZTVN14altered_carbon2js9JsVariantE_GEP to i32 (...)**), i32 (...)*** %491, align 8
  %492 = getelementptr inbounds %"cls.acjs::JsVariant", %"cls.acjs::JsVariant"* %vptr245, i32 0, i32 1
  store i32 1, i32* %492, align 8
  %vptr246 = alloca %"cls.acjs::JsVariant", align 8
  %493 = bitcast %"cls.acjs::JsVariant"* %vptr246 to i32 (...)***
  store i32 (...)** bitcast (i8*** @_ZTVN14altered_carbon2js9JsVariantE_GEP to i32 (...)**), i32 (...)*** %493, align 8
  %494 = getelementptr inbounds %"cls.acjs::JsVariant", %"cls.acjs::JsVariant"* %vptr246, i32 0, i32 1
  store i32 1, i32* %494, align 8
  %vptr247 = alloca %"cls.acjs::JsVariant", align 8
  %495 = bitcast %"cls.acjs::JsVariant"* %vptr247 to i32 (...)***
  store i32 (...)** bitcast (i8*** @_ZTVN14altered_carbon2js9JsVariantE_GEP to i32 (...)**), i32 (...)*** %495, align 8
  %496 = getelementptr inbounds %"cls.acjs::JsVariant", %"cls.acjs::JsVariant"* %vptr247, i32 0, i32 1
  store i32 1, i32* %496, align 8
  %vptr248 = alloca %"cls.acjs::JsVariant", align 8
  %497 = bitcast %"cls.acjs::JsVariant"* %vptr248 to i32 (...)***
  store i32 (...)** bitcast (i8*** @_ZTVN14altered_carbon2js9JsVariantE_GEP to i32 (...)**), i32 (...)*** %497, align 8
  %498 = getelementptr inbounds %"cls.acjs::JsVariant", %"cls.acjs::JsVariant"* %vptr248, i32 0, i32 1
  store i32 1, i32* %498, align 8
  %vptr249 = alloca %"cls.acjs::JsVariant", align 8
  %499 = bitcast %"cls.acjs::JsVariant"* %vptr249 to i32 (...)***
  store i32 (...)** bitcast (i8*** @_ZTVN14altered_carbon2js9JsVariantE_GEP to i32 (...)**), i32 (...)*** %499, align 8
  %500 = getelementptr inbounds %"cls.acjs::JsVariant", %"cls.acjs::JsVariant"* %vptr249, i32 0, i32 1
  store i32 1, i32* %500, align 8
  %vptr250 = alloca %"cls.acjs::JsVariant", align 8
  %501 = bitcast %"cls.acjs::JsVariant"* %vptr250 to i32 (...)***
  store i32 (...)** bitcast (i8*** @_ZTVN14altered_carbon2js9JsVariantE_GEP to i32 (...)**), i32 (...)*** %501, align 8
  %502 = getelementptr inbounds %"cls.acjs::JsVariant", %"cls.acjs::JsVariant"* %vptr250, i32 0, i32 1
  store i32 1, i32* %502, align 8
  %vptr251 = alloca %"cls.acjs::JsVariant", align 8
  %503 = bitcast %"cls.acjs::JsVariant"* %vptr251 to i32 (...)***
  store i32 (...)** bitcast (i8*** @_ZTVN14altered_carbon2js9JsVariantE_GEP to i32 (...)**), i32 (...)*** %503, align 8
  %504 = getelementptr inbounds %"cls.acjs::JsVariant", %"cls.acjs::JsVariant"* %vptr251, i32 0, i32 1
  store i32 1, i32* %504, align 8
  %vptr252 = alloca %"cls.acjs::JsVariant", align 8
  %505 = bitcast %"cls.acjs::JsVariant"* %vptr252 to i32 (...)***
  store i32 (...)** bitcast (i8*** @_ZTVN14altered_carbon2js9JsVariantE_GEP to i32 (...)**), i32 (...)*** %505, align 8
  %506 = getelementptr inbounds %"cls.acjs::JsVariant", %"cls.acjs::JsVariant"* %vptr252, i32 0, i32 1
  store i32 1, i32* %506, align 8
  %vptr253 = alloca %"cls.acjs::JsVariant", align 8
  %507 = bitcast %"cls.acjs::JsVariant"* %vptr253 to i32 (...)***
  store i32 (...)** bitcast (i8*** @_ZTVN14altered_carbon2js9JsVariantE_GEP to i32 (...)**), i32 (...)*** %507, align 8
  %508 = getelementptr inbounds %"cls.acjs::JsVariant", %"cls.acjs::JsVariant"* %vptr253, i32 0, i32 1
  store i32 1, i32* %508, align 8
  %vptr254 = alloca %"cls.acjs::JsVariant", align 8
  %509 = bitcast %"cls.acjs::JsVariant"* %vptr254 to i32 (...)***
  store i32 (...)** bitcast (i8*** @_ZTVN14altered_carbon2js9JsVariantE_GEP to i32 (...)**), i32 (...)*** %509, align 8
  %510 = getelementptr inbounds %"cls.acjs::JsVariant", %"cls.acjs::JsVariant"* %vptr254, i32 0, i32 1
  store i32 1, i32* %510, align 8
  %vptr255 = alloca %"cls.acjs::JsVariant", align 8
  %511 = bitcast %"cls.acjs::JsVariant"* %vptr255 to i32 (...)***
  store i32 (...)** bitcast (i8*** @_ZTVN14altered_carbon2js9JsVariantE_GEP to i32 (...)**), i32 (...)*** %511, align 8
  %512 = getelementptr inbounds %"cls.acjs::JsVariant", %"cls.acjs::JsVariant"* %vptr255, i32 0, i32 1
  store i32 1, i32* %512, align 8
  %vptr256 = alloca %"cls.acjs::JsVariant", align 8
  %513 = bitcast %"cls.acjs::JsVariant"* %vptr256 to i32 (...)***
  store i32 (...)** bitcast (i8*** @_ZTVN14altered_carbon2js9JsVariantE_GEP to i32 (...)**), i32 (...)*** %513, align 8
  %514 = getelementptr inbounds %"cls.acjs::JsVariant", %"cls.acjs::JsVariant"* %vptr256, i32 0, i32 1
  store i32 1, i32* %514, align 8
  %vptr257 = alloca %"cls.acjs::JsVariant", align 8
  %515 = bitcast %"cls.acjs::JsVariant"* %vptr257 to i32 (...)***
  store i32 (...)** bitcast (i8*** @_ZTVN14altered_carbon2js9JsVariantE_GEP to i32 (...)**), i32 (...)*** %515, align 8
  %516 = getelementptr inbounds %"cls.acjs::JsVariant", %"cls.acjs::JsVariant"* %vptr257, i32 0, i32 1
  store i32 1, i32* %516, align 8
  %vptr258 = alloca %"cls.acjs::JsVariant", align 8
  %517 = bitcast %"cls.acjs::JsVariant"* %vptr258 to i32 (...)***
  store i32 (...)** bitcast (i8*** @_ZTVN14altered_carbon2js9JsVariantE_GEP to i32 (...)**), i32 (...)*** %517, align 8
  %518 = getelementptr inbounds %"cls.acjs::JsVariant", %"cls.acjs::JsVariant"* %vptr258, i32 0, i32 1
  store i32 1, i32* %518, align 8
  %vptr259 = alloca %"cls.acjs::JsVariant", align 8
  %519 = bitcast %"cls.acjs::JsVariant"* %vptr259 to i32 (...)***
  store i32 (...)** bitcast (i8*** @_ZTVN14altered_carbon2js9JsVariantE_GEP to i32 (...)**), i32 (...)*** %519, align 8
  %520 = getelementptr inbounds %"cls.acjs::JsVariant", %"cls.acjs::JsVariant"* %vptr259, i32 0, i32 1
  store i32 1, i32* %520, align 8
  %vptr260 = alloca %"cls.acjs::JsVariant", align 8
  %521 = bitcast %"cls.acjs::JsVariant"* %vptr260 to i32 (...)***
  store i32 (...)** bitcast (i8*** @_ZTVN14altered_carbon2js9JsVariantE_GEP to i32 (...)**), i32 (...)*** %521, align 8
  %522 = getelementptr inbounds %"cls.acjs::JsVariant", %"cls.acjs::JsVariant"* %vptr260, i32 0, i32 1
  store i32 1, i32* %522, align 8
  %vptr261 = alloca %"cls.acjs::JsVariant", align 8
  %523 = bitcast %"cls.acjs::JsVariant"* %vptr261 to i32 (...)***
  store i32 (...)** bitcast (i8*** @_ZTVN14altered_carbon2js9JsVariantE_GEP to i32 (...)**), i32 (...)*** %523, align 8
  %524 = getelementptr inbounds %"cls.acjs::JsVariant", %"cls.acjs::JsVariant"* %vptr261, i32 0, i32 1
  store i32 1, i32* %524, align 8
  %vptr262 = alloca %"cls.acjs::JsVariant", align 8
  %525 = bitcast %"cls.acjs::JsVariant"* %vptr262 to i32 (...)***
  store i32 (...)** bitcast (i8*** @_ZTVN14altered_carbon2js9JsVariantE_GEP to i32 (...)**), i32 (...)*** %525, align 8
  %526 = getelementptr inbounds %"cls.acjs::JsVariant", %"cls.acjs::JsVariant"* %vptr262, i32 0, i32 1
  store i32 1, i32* %526, align 8
  %vptr263 = alloca %"cls.acjs::JsVariant", align 8
  %527 = bitcast %"cls.acjs::JsVariant"* %vptr263 to i32 (...)***
  store i32 (...)** bitcast (i8*** @_ZTVN14altered_carbon2js9JsVariantE_GEP to i32 (...)**), i32 (...)*** %527, align 8
  %528 = getelementptr inbounds %"cls.acjs::JsVariant", %"cls.acjs::JsVariant"* %vptr263, i32 0, i32 1
  store i32 1, i32* %528, align 8
  %vptr264 = alloca %"cls.acjs::JsVariant", align 8
  %529 = bitcast %"cls.acjs::JsVariant"* %vptr264 to i32 (...)***
  store i32 (...)** bitcast (i8*** @_ZTVN14altered_carbon2js9JsVariantE_GEP to i32 (...)**), i32 (...)*** %529, align 8
  %530 = getelementptr inbounds %"cls.acjs::JsVariant", %"cls.acjs::JsVariant"* %vptr264, i32 0, i32 1
  store i32 1, i32* %530, align 8
  %vptr265 = alloca %"cls.acjs::JsVariant", align 8
  %531 = bitcast %"cls.acjs::JsVariant"* %vptr265 to i32 (...)***
  store i32 (...)** bitcast (i8*** @_ZTVN14altered_carbon2js9JsVariantE_GEP to i32 (...)**), i32 (...)*** %531, align 8
  %532 = getelementptr inbounds %"cls.acjs::JsVariant", %"cls.acjs::JsVariant"* %vptr265, i32 0, i32 1
  store i32 1, i32* %532, align 8
  %vptr266 = alloca %"cls.acjs::JsVariant", align 8
  %533 = bitcast %"cls.acjs::JsVariant"* %vptr266 to i32 (...)***
  store i32 (...)** bitcast (i8*** @_ZTVN14altered_carbon2js9JsVariantE_GEP to i32 (...)**), i32 (...)*** %533, align 8
  %534 = getelementptr inbounds %"cls.acjs::JsVariant", %"cls.acjs::JsVariant"* %vptr266, i32 0, i32 1
  store i32 1, i32* %534, align 8
  %vptr267 = alloca %"cls.acjs::JsVariant", align 8
  %535 = bitcast %"cls.acjs::JsVariant"* %vptr267 to i32 (...)***
  store i32 (...)** bitcast (i8*** @_ZTVN14altered_carbon2js9JsVariantE_GEP to i32 (...)**), i32 (...)*** %535, align 8
  %536 = getelementptr inbounds %"cls.acjs::JsVariant", %"cls.acjs::JsVariant"* %vptr267, i32 0, i32 1
  store i32 1, i32* %536, align 8
  %vptr268 = alloca %"cls.acjs::JsVariant", align 8
  %537 = bitcast %"cls.acjs::JsVariant"* %vptr268 to i32 (...)***
  store i32 (...)** bitcast (i8*** @_ZTVN14altered_carbon2js9JsVariantE_GEP to i32 (...)**), i32 (...)*** %537, align 8
  %538 = getelementptr inbounds %"cls.acjs::JsVariant", %"cls.acjs::JsVariant"* %vptr268, i32 0, i32 1
  store i32 1, i32* %538, align 8
  %vptr269 = alloca %"cls.acjs::JsVariant", align 8
  %539 = bitcast %"cls.acjs::JsVariant"* %vptr269 to i32 (...)***
  store i32 (...)** bitcast (i8*** @_ZTVN14altered_carbon2js9JsVariantE_GEP to i32 (...)**), i32 (...)*** %539, align 8
  %540 = getelementptr inbounds %"cls.acjs::JsVariant", %"cls.acjs::JsVariant"* %vptr269, i32 0, i32 1
  store i32 1, i32* %540, align 8
  %vptr270 = alloca %"cls.acjs::JsVariant", align 8
  %541 = bitcast %"cls.acjs::JsVariant"* %vptr270 to i32 (...)***
  store i32 (...)** bitcast (i8*** @_ZTVN14altered_carbon2js9JsVariantE_GEP to i32 (...)**), i32 (...)*** %541, align 8
  %542 = getelementptr inbounds %"cls.acjs::JsVariant", %"cls.acjs::JsVariant"* %vptr270, i32 0, i32 1
  store i32 1, i32* %542, align 8
  %vptr271 = alloca %"cls.acjs::JsVariant", align 8
  %543 = bitcast %"cls.acjs::JsVariant"* %vptr271 to i32 (...)***
  store i32 (...)** bitcast (i8*** @_ZTVN14altered_carbon2js9JsVariantE_GEP to i32 (...)**), i32 (...)*** %543, align 8
  %544 = getelementptr inbounds %"cls.acjs::JsVariant", %"cls.acjs::JsVariant"* %vptr271, i32 0, i32 1
  store i32 1, i32* %544, align 8
  %vptr272 = alloca %"cls.acjs::JsVariant", align 8
  %545 = bitcast %"cls.acjs::JsVariant"* %vptr272 to i32 (...)***
  store i32 (...)** bitcast (i8*** @_ZTVN14altered_carbon2js9JsVariantE_GEP to i32 (...)**), i32 (...)*** %545, align 8
  %546 = getelementptr inbounds %"cls.acjs::JsVariant", %"cls.acjs::JsVariant"* %vptr272, i32 0, i32 1
  store i32 1, i32* %546, align 8
  %vptr273 = alloca %"cls.acjs::JsVariant", align 8
  %547 = bitcast %"cls.acjs::JsVariant"* %vptr273 to i32 (...)***
  store i32 (...)** bitcast (i8*** @_ZTVN14altered_carbon2js9JsVariantE_GEP to i32 (...)**), i32 (...)*** %547, align 8
  %548 = getelementptr inbounds %"cls.acjs::JsVariant", %"cls.acjs::JsVariant"* %vptr273, i32 0, i32 1
  store i32 1, i32* %548, align 8
  %vptr274 = alloca %"cls.acjs::JsVariant", align 8
  %549 = bitcast %"cls.acjs::JsVariant"* %vptr274 to i32 (...)***
  store i32 (...)** bitcast (i8*** @_ZTVN14altered_carbon2js9JsVariantE_GEP to i32 (...)**), i32 (...)*** %549, align 8
  %550 = getelementptr inbounds %"cls.acjs::JsVariant", %"cls.acjs::JsVariant"* %vptr274, i32 0, i32 1
  store i32 1, i32* %550, align 8
  %vptr275 = alloca %"cls.acjs::JsVariant", align 8
  %551 = bitcast %"cls.acjs::JsVariant"* %vptr275 to i32 (...)***
  store i32 (...)** bitcast (i8*** @_ZTVN14altered_carbon2js9JsVariantE_GEP to i32 (...)**), i32 (...)*** %551, align 8
  %552 = getelementptr inbounds %"cls.acjs::JsVariant", %"cls.acjs::JsVariant"* %vptr275, i32 0, i32 1
  store i32 1, i32* %552, align 8
  %vptr276 = alloca %"cls.acjs::JsVariant", align 8
  %553 = bitcast %"cls.acjs::JsVariant"* %vptr276 to i32 (...)***
  store i32 (...)** bitcast (i8*** @_ZTVN14altered_carbon2js9JsVariantE_GEP to i32 (...)**), i32 (...)*** %553, align 8
  %554 = getelementptr inbounds %"cls.acjs::JsVariant", %"cls.acjs::JsVariant"* %vptr276, i32 0, i32 1
  store i32 1, i32* %554, align 8
  %vptr277 = alloca %"cls.acjs::JsVariant", align 8
  %555 = bitcast %"cls.acjs::JsVariant"* %vptr277 to i32 (...)***
  store i32 (...)** bitcast (i8*** @_ZTVN14altered_carbon2js9JsVariantE_GEP to i32 (...)**), i32 (...)*** %555, align 8
  %556 = getelementptr inbounds %"cls.acjs::JsVariant", %"cls.acjs::JsVariant"* %vptr277, i32 0, i32 1
  store i32 1, i32* %556, align 8
  %vptr278 = alloca %"cls.acjs::JsVariant", align 8
  %557 = bitcast %"cls.acjs::JsVariant"* %vptr278 to i32 (...)***
  store i32 (...)** bitcast (i8*** @_ZTVN14altered_carbon2js9JsVariantE_GEP to i32 (...)**), i32 (...)*** %557, align 8
  %558 = getelementptr inbounds %"cls.acjs::JsVariant", %"cls.acjs::JsVariant"* %vptr278, i32 0, i32 1
  store i32 1, i32* %558, align 8
  %vptr279 = alloca %"cls.acjs::JsVariant", align 8
  %559 = bitcast %"cls.acjs::JsVariant"* %vptr279 to i32 (...)***
  store i32 (...)** bitcast (i8*** @_ZTVN14altered_carbon2js9JsVariantE_GEP to i32 (...)**), i32 (...)*** %559, align 8
  %560 = getelementptr inbounds %"cls.acjs::JsVariant", %"cls.acjs::JsVariant"* %vptr279, i32 0, i32 1
  store i32 1, i32* %560, align 8
  %vptr280 = alloca %"cls.acjs::JsVariant", align 8
  %561 = bitcast %"cls.acjs::JsVariant"* %vptr280 to i32 (...)***
  store i32 (...)** bitcast (i8*** @_ZTVN14altered_carbon2js9JsVariantE_GEP to i32 (...)**), i32 (...)*** %561, align 8
  %562 = getelementptr inbounds %"cls.acjs::JsVariant", %"cls.acjs::JsVariant"* %vptr280, i32 0, i32 1
  store i32 1, i32* %562, align 8
  %vptr281 = alloca %"cls.acjs::JsVariant", align 8
  %563 = bitcast %"cls.acjs::JsVariant"* %vptr281 to i32 (...)***
  store i32 (...)** bitcast (i8*** @_ZTVN14altered_carbon2js9JsVariantE_GEP to i32 (...)**), i32 (...)*** %563, align 8
  %564 = getelementptr inbounds %"cls.acjs::JsVariant", %"cls.acjs::JsVariant"* %vptr281, i32 0, i32 1
  store i32 1, i32* %564, align 8
  %vptr282 = alloca %"cls.acjs::JsVariant", align 8
  %565 = bitcast %"cls.acjs::JsVariant"* %vptr282 to i32 (...)***
  store i32 (...)** bitcast (i8*** @_ZTVN14altered_carbon2js9JsVariantE_GEP to i32 (...)**), i32 (...)*** %565, align 8
  %566 = getelementptr inbounds %"cls.acjs::JsVariant", %"cls.acjs::JsVariant"* %vptr282, i32 0, i32 1
  store i32 1, i32* %566, align 8
  %vptr283 = alloca %"cls.acjs::JsVariant", align 8
  %567 = bitcast %"cls.acjs::JsVariant"* %vptr283 to i32 (...)***
  store i32 (...)** bitcast (i8*** @_ZTVN14altered_carbon2js9JsVariantE_GEP to i32 (...)**), i32 (...)*** %567, align 8
  %568 = getelementptr inbounds %"cls.acjs::JsVariant", %"cls.acjs::JsVariant"* %vptr283, i32 0, i32 1
  store i32 1, i32* %568, align 8
  %vptr284 = alloca %"cls.acjs::JsVariant", align 8
  %569 = bitcast %"cls.acjs::JsVariant"* %vptr284 to i32 (...)***
  store i32 (...)** bitcast (i8*** @_ZTVN14altered_carbon2js9JsVariantE_GEP to i32 (...)**), i32 (...)*** %569, align 8
  %570 = getelementptr inbounds %"cls.acjs::JsVariant", %"cls.acjs::JsVariant"* %vptr284, i32 0, i32 1
  store i32 1, i32* %570, align 8
  %vptr285 = alloca %"cls.acjs::JsVariant", align 8
  %571 = bitcast %"cls.acjs::JsVariant"* %vptr285 to i32 (...)***
  store i32 (...)** bitcast (i8*** @_ZTVN14altered_carbon2js9JsVariantE_GEP to i32 (...)**), i32 (...)*** %571, align 8
  %572 = getelementptr inbounds %"cls.acjs::JsVariant", %"cls.acjs::JsVariant"* %vptr285, i32 0, i32 1
  store i32 1, i32* %572, align 8
  %vptr286 = alloca %"cls.acjs::JsVariant", align 8
  %573 = bitcast %"cls.acjs::JsVariant"* %vptr286 to i32 (...)***
  store i32 (...)** bitcast (i8*** @_ZTVN14altered_carbon2js9JsVariantE_GEP to i32 (...)**), i32 (...)*** %573, align 8
  %574 = getelementptr inbounds %"cls.acjs::JsVariant", %"cls.acjs::JsVariant"* %vptr286, i32 0, i32 1
  store i32 1, i32* %574, align 8
  %vptr287 = alloca %"cls.acjs::JsVariant", align 8
  %575 = bitcast %"cls.acjs::JsVariant"* %vptr287 to i32 (...)***
  store i32 (...)** bitcast (i8*** @_ZTVN14altered_carbon2js9JsVariantE_GEP to i32 (...)**), i32 (...)*** %575, align 8
  %576 = getelementptr inbounds %"cls.acjs::JsVariant", %"cls.acjs::JsVariant"* %vptr287, i32 0, i32 1
  store i32 1, i32* %576, align 8
  %vptr288 = alloca %"cls.acjs::JsVariant", align 8
  %577 = bitcast %"cls.acjs::JsVariant"* %vptr288 to i32 (...)***
  store i32 (...)** bitcast (i8*** @_ZTVN14altered_carbon2js9JsVariantE_GEP to i32 (...)**), i32 (...)*** %577, align 8
  %578 = getelementptr inbounds %"cls.acjs::JsVariant", %"cls.acjs::JsVariant"* %vptr288, i32 0, i32 1
  store i32 1, i32* %578, align 8
  %vptr289 = alloca %"cls.acjs::JsVariant", align 8
  %579 = bitcast %"cls.acjs::JsVariant"* %vptr289 to i32 (...)***
  store i32 (...)** bitcast (i8*** @_ZTVN14altered_carbon2js9JsVariantE_GEP to i32 (...)**), i32 (...)*** %579, align 8
  %580 = getelementptr inbounds %"cls.acjs::JsVariant", %"cls.acjs::JsVariant"* %vptr289, i32 0, i32 1
  store i32 1, i32* %580, align 8
  %vptr290 = alloca %"cls.acjs::JsVariant", align 8
  %581 = bitcast %"cls.acjs::JsVariant"* %vptr290 to i32 (...)***
  store i32 (...)** bitcast (i8*** @_ZTVN14altered_carbon2js9JsVariantE_GEP to i32 (...)**), i32 (...)*** %581, align 8
  %582 = getelementptr inbounds %"cls.acjs::JsVariant", %"cls.acjs::JsVariant"* %vptr290, i32 0, i32 1
  store i32 1, i32* %582, align 8
  %vptr291 = alloca %"cls.acjs::JsVariant", align 8
  %583 = bitcast %"cls.acjs::JsVariant"* %vptr291 to i32 (...)***
  store i32 (...)** bitcast (i8*** @_ZTVN14altered_carbon2js9JsVariantE_GEP to i32 (...)**), i32 (...)*** %583, align 8
  %584 = getelementptr inbounds %"cls.acjs::JsVariant", %"cls.acjs::JsVariant"* %vptr291, i32 0, i32 1
  store i32 1, i32* %584, align 8
  %vptr292 = alloca %"cls.acjs::JsVariant", align 8
  %585 = bitcast %"cls.acjs::JsVariant"* %vptr292 to i32 (...)***
  store i32 (...)** bitcast (i8*** @_ZTVN14altered_carbon2js9JsVariantE_GEP to i32 (...)**), i32 (...)*** %585, align 8
  %586 = getelementptr inbounds %"cls.acjs::JsVariant", %"cls.acjs::JsVariant"* %vptr292, i32 0, i32 1
  store i32 1, i32* %586, align 8
  %vptr293 = alloca %"cls.acjs::JsVariant", align 8
  %587 = bitcast %"cls.acjs::JsVariant"* %vptr293 to i32 (...)***
  store i32 (...)** bitcast (i8*** @_ZTVN14altered_carbon2js9JsVariantE_GEP to i32 (...)**), i32 (...)*** %587, align 8
  %588 = getelementptr inbounds %"cls.acjs::JsVariant", %"cls.acjs::JsVariant"* %vptr293, i32 0, i32 1
  store i32 1, i32* %588, align 8
  %vptr294 = alloca %"cls.acjs::JsVariant", align 8
  %589 = bitcast %"cls.acjs::JsVariant"* %vptr294 to i32 (...)***
  store i32 (...)** bitcast (i8*** @_ZTVN14altered_carbon2js9JsVariantE_GEP to i32 (...)**), i32 (...)*** %589, align 8
  %590 = getelementptr inbounds %"cls.acjs::JsVariant", %"cls.acjs::JsVariant"* %vptr294, i32 0, i32 1
  store i32 1, i32* %590, align 8
  %vptr295 = alloca %"cls.acjs::JsVariant", align 8
  %591 = bitcast %"cls.acjs::JsVariant"* %vptr295 to i32 (...)***
  store i32 (...)** bitcast (i8*** @_ZTVN14altered_carbon2js9JsVariantE_GEP to i32 (...)**), i32 (...)*** %591, align 8
  %592 = getelementptr inbounds %"cls.acjs::JsVariant", %"cls.acjs::JsVariant"* %vptr295, i32 0, i32 1
  store i32 1, i32* %592, align 8
  %vptr296 = alloca %"cls.acjs::JsVariant", align 8
  %593 = bitcast %"cls.acjs::JsVariant"* %vptr296 to i32 (...)***
  store i32 (...)** bitcast (i8*** @_ZTVN14altered_carbon2js9JsVariantE_GEP to i32 (...)**), i32 (...)*** %593, align 8
  %594 = getelementptr inbounds %"cls.acjs::JsVariant", %"cls.acjs::JsVariant"* %vptr296, i32 0, i32 1
  store i32 1, i32* %594, align 8
  %vptr297 = alloca %"cls.acjs::JsVariant", align 8
  %595 = bitcast %"cls.acjs::JsVariant"* %vptr297 to i32 (...)***
  store i32 (...)** bitcast (i8*** @_ZTVN14altered_carbon2js9JsVariantE_GEP to i32 (...)**), i32 (...)*** %595, align 8
  %596 = getelementptr inbounds %"cls.acjs::JsVariant", %"cls.acjs::JsVariant"* %vptr297, i32 0, i32 1
  store i32 1, i32* %596, align 8
  %vptr298 = alloca %"cls.acjs::JsVariant", align 8
  %597 = bitcast %"cls.acjs::JsVariant"* %vptr298 to i32 (...)***
  store i32 (...)** bitcast (i8*** @_ZTVN14altered_carbon2js9JsVariantE_GEP to i32 (...)**), i32 (...)*** %597, align 8
  %598 = getelementptr inbounds %"cls.acjs::JsVariant", %"cls.acjs::JsVariant"* %vptr298, i32 0, i32 1
  store i32 1, i32* %598, align 8
  %vptr299 = alloca %"cls.acjs::JsVariant", align 8
  %599 = bitcast %"cls.acjs::JsVariant"* %vptr299 to i32 (...)***
  store i32 (...)** bitcast (i8*** @_ZTVN14altered_carbon2js9JsVariantE_GEP to i32 (...)**), i32 (...)*** %599, align 8
  %600 = getelementptr inbounds %"cls.acjs::JsVariant", %"cls.acjs::JsVariant"* %vptr299, i32 0, i32 1
  store i32 1, i32* %600, align 8
  %vptr300 = alloca %"cls.acjs::JsVariant", align 8
  %601 = bitcast %"cls.acjs::JsVariant"* %vptr300 to i32 (...)***
  store i32 (...)** bitcast (i8*** @_ZTVN14altered_carbon2js9JsVariantE_GEP to i32 (...)**), i32 (...)*** %601, align 8
  %602 = getelementptr inbounds %"cls.acjs::JsVariant", %"cls.acjs::JsVariant"* %vptr300, i32 0, i32 1
  store i32 1, i32* %602, align 8
  %vptr301 = alloca %"cls.acjs::JsVariant", align 8
  %603 = bitcast %"cls.acjs::JsVariant"* %vptr301 to i32 (...)***
  store i32 (...)** bitcast (i8*** @_ZTVN14altered_carbon2js9JsVariantE_GEP to i32 (...)**), i32 (...)*** %603, align 8
  %604 = getelementptr inbounds %"cls.acjs::JsVariant", %"cls.acjs::JsVariant"* %vptr301, i32 0, i32 1
  store i32 1, i32* %604, align 8
  %vptr302 = alloca %"cls.acjs::JsVariant", align 8
  %605 = bitcast %"cls.acjs::JsVariant"* %vptr302 to i32 (...)***
  store i32 (...)** bitcast (i8*** @_ZTVN14altered_carbon2js9JsVariantE_GEP to i32 (...)**), i32 (...)*** %605, align 8
  %606 = getelementptr inbounds %"cls.acjs::JsVariant", %"cls.acjs::JsVariant"* %vptr302, i32 0, i32 1
  store i32 1, i32* %606, align 8
  %vptr303 = alloca %"cls.acjs::JsVariant", align 8
  %607 = bitcast %"cls.acjs::JsVariant"* %vptr303 to i32 (...)***
  store i32 (...)** bitcast (i8*** @_ZTVN14altered_carbon2js9JsVariantE_GEP to i32 (...)**), i32 (...)*** %607, align 8
  %608 = getelementptr inbounds %"cls.acjs::JsVariant", %"cls.acjs::JsVariant"* %vptr303, i32 0, i32 1
  store i32 1, i32* %608, align 8
  %vptr304 = alloca %"cls.acjs::JsVariant", align 8
  %609 = bitcast %"cls.acjs::JsVariant"* %vptr304 to i32 (...)***
  store i32 (...)** bitcast (i8*** @_ZTVN14altered_carbon2js9JsVariantE_GEP to i32 (...)**), i32 (...)*** %609, align 8
  %610 = getelementptr inbounds %"cls.acjs::JsVariant", %"cls.acjs::JsVariant"* %vptr304, i32 0, i32 1
  store i32 1, i32* %610, align 8
  %vptr305 = alloca %"cls.acjs::JsVariant", align 8
  %611 = bitcast %"cls.acjs::JsVariant"* %vptr305 to i32 (...)***
  store i32 (...)** bitcast (i8*** @_ZTVN14altered_carbon2js9JsVariantE_GEP to i32 (...)**), i32 (...)*** %611, align 8
  %612 = getelementptr inbounds %"cls.acjs::JsVariant", %"cls.acjs::JsVariant"* %vptr305, i32 0, i32 1
  store i32 1, i32* %612, align 8
  %vptr306 = alloca %"cls.acjs::JsVariant", align 8
  %613 = bitcast %"cls.acjs::JsVariant"* %vptr306 to i32 (...)***
  store i32 (...)** bitcast (i8*** @_ZTVN14altered_carbon2js9JsVariantE_GEP to i32 (...)**), i32 (...)*** %613, align 8
  %614 = getelementptr inbounds %"cls.acjs::JsVariant", %"cls.acjs::JsVariant"* %vptr306, i32 0, i32 1
  store i32 1, i32* %614, align 8
  %vptr307 = alloca %"cls.acjs::JsVariant", align 8
  %615 = bitcast %"cls.acjs::JsVariant"* %vptr307 to i32 (...)***
  store i32 (...)** bitcast (i8*** @_ZTVN14altered_carbon2js9JsVariantE_GEP to i32 (...)**), i32 (...)*** %615, align 8
  %616 = getelementptr inbounds %"cls.acjs::JsVariant", %"cls.acjs::JsVariant"* %vptr307, i32 0, i32 1
  store i32 1, i32* %616, align 8
  %vptr308 = alloca %"cls.acjs::JsVariant", align 8
  %617 = bitcast %"cls.acjs::JsVariant"* %vptr308 to i32 (...)***
  store i32 (...)** bitcast (i8*** @_ZTVN14altered_carbon2js9JsVariantE_GEP to i32 (...)**), i32 (...)*** %617, align 8
  %618 = getelementptr inbounds %"cls.acjs::JsVariant", %"cls.acjs::JsVariant"* %vptr308, i32 0, i32 1
  store i32 1, i32* %618, align 8
  %vptr309 = alloca %"cls.acjs::JsVariant", align 8
  %619 = bitcast %"cls.acjs::JsVariant"* %vptr309 to i32 (...)***
  store i32 (...)** bitcast (i8*** @_ZTVN14altered_carbon2js9JsVariantE_GEP to i32 (...)**), i32 (...)*** %619, align 8
  %620 = getelementptr inbounds %"cls.acjs::JsVariant", %"cls.acjs::JsVariant"* %vptr309, i32 0, i32 1
  store i32 1, i32* %620, align 8
  %vptr310 = alloca %"cls.acjs::JsVariant", align 8
  %621 = bitcast %"cls.acjs::JsVariant"* %vptr310 to i32 (...)***
  store i32 (...)** bitcast (i8*** @_ZTVN14altered_carbon2js9JsVariantE_GEP to i32 (...)**), i32 (...)*** %621, align 8
  %622 = getelementptr inbounds %"cls.acjs::JsVariant", %"cls.acjs::JsVariant"* %vptr310, i32 0, i32 1
  store i32 1, i32* %622, align 8
  %vptr311 = alloca %"cls.acjs::JsVariant", align 8
  %623 = bitcast %"cls.acjs::JsVariant"* %vptr311 to i32 (...)***
  store i32 (...)** bitcast (i8*** @_ZTVN14altered_carbon2js9JsVariantE_GEP to i32 (...)**), i32 (...)*** %623, align 8
  %624 = getelementptr inbounds %"cls.acjs::JsVariant", %"cls.acjs::JsVariant"* %vptr311, i32 0, i32 1
  store i32 1, i32* %624, align 8
  %vptr312 = alloca %"cls.acjs::JsVariant", align 8
  %625 = bitcast %"cls.acjs::JsVariant"* %vptr312 to i32 (...)***
  store i32 (...)** bitcast (i8*** @_ZTVN14altered_carbon2js9JsVariantE_GEP to i32 (...)**), i32 (...)*** %625, align 8
  %626 = getelementptr inbounds %"cls.acjs::JsVariant", %"cls.acjs::JsVariant"* %vptr312, i32 0, i32 1
  store i32 1, i32* %626, align 8
  %vptr313 = alloca %"cls.acjs::JsVariant", align 8
  %627 = bitcast %"cls.acjs::JsVariant"* %vptr313 to i32 (...)***
  store i32 (...)** bitcast (i8*** @_ZTVN14altered_carbon2js9JsVariantE_GEP to i32 (...)**), i32 (...)*** %627, align 8
  %628 = getelementptr inbounds %"cls.acjs::JsVariant", %"cls.acjs::JsVariant"* %vptr313, i32 0, i32 1
  store i32 1, i32* %628, align 8
  %vptr314 = alloca %"cls.acjs::JsVariant", align 8
  %629 = bitcast %"cls.acjs::JsVariant"* %vptr314 to i32 (...)***
  store i32 (...)** bitcast (i8*** @_ZTVN14altered_carbon2js9JsVariantE_GEP to i32 (...)**), i32 (...)*** %629, align 8
  %630 = getelementptr inbounds %"cls.acjs::JsVariant", %"cls.acjs::JsVariant"* %vptr314, i32 0, i32 1
  store i32 1, i32* %630, align 8
  %vptr315 = alloca %"cls.acjs::JsVariant", align 8
  %631 = bitcast %"cls.acjs::JsVariant"* %vptr315 to i32 (...)***
  store i32 (...)** bitcast (i8*** @_ZTVN14altered_carbon2js9JsVariantE_GEP to i32 (...)**), i32 (...)*** %631, align 8
  %632 = getelementptr inbounds %"cls.acjs::JsVariant", %"cls.acjs::JsVariant"* %vptr315, i32 0, i32 1
  store i32 1, i32* %632, align 8
  %vptr316 = alloca %"cls.acjs::JsVariant", align 8
  %633 = bitcast %"cls.acjs::JsVariant"* %vptr316 to i32 (...)***
  store i32 (...)** bitcast (i8*** @_ZTVN14altered_carbon2js9JsVariantE_GEP to i32 (...)**), i32 (...)*** %633, align 8
  %634 = getelementptr inbounds %"cls.acjs::JsVariant", %"cls.acjs::JsVariant"* %vptr316, i32 0, i32 1
  store i32 1, i32* %634, align 8
  %vptr317 = alloca %"cls.acjs::JsVariant", align 8
  %635 = bitcast %"cls.acjs::JsVariant"* %vptr317 to i32 (...)***
  store i32 (...)** bitcast (i8*** @_ZTVN14altered_carbon2js9JsVariantE_GEP to i32 (...)**), i32 (...)*** %635, align 8
  %636 = getelementptr inbounds %"cls.acjs::JsVariant", %"cls.acjs::JsVariant"* %vptr317, i32 0, i32 1
  store i32 1, i32* %636, align 8
  %vptr318 = alloca %"cls.acjs::JsVariant", align 8
  %637 = bitcast %"cls.acjs::JsVariant"* %vptr318 to i32 (...)***
  store i32 (...)** bitcast (i8*** @_ZTVN14altered_carbon2js9JsVariantE_GEP to i32 (...)**), i32 (...)*** %637, align 8
  %638 = getelementptr inbounds %"cls.acjs::JsVariant", %"cls.acjs::JsVariant"* %vptr318, i32 0, i32 1
  store i32 1, i32* %638, align 8
  %vptr319 = alloca %"cls.acjs::JsVariant", align 8
  %639 = bitcast %"cls.acjs::JsVariant"* %vptr319 to i32 (...)***
  store i32 (...)** bitcast (i8*** @_ZTVN14altered_carbon2js9JsVariantE_GEP to i32 (...)**), i32 (...)*** %639, align 8
  %640 = getelementptr inbounds %"cls.acjs::JsVariant", %"cls.acjs::JsVariant"* %vptr319, i32 0, i32 1
  store i32 1, i32* %640, align 8
  %vptr320 = alloca %"cls.acjs::JsVariant", align 8
  %641 = bitcast %"cls.acjs::JsVariant"* %vptr320 to i32 (...)***
  store i32 (...)** bitcast (i8*** @_ZTVN14altered_carbon2js9JsVariantE_GEP to i32 (...)**), i32 (...)*** %641, align 8
  %642 = getelementptr inbounds %"cls.acjs::JsVariant", %"cls.acjs::JsVariant"* %vptr320, i32 0, i32 1
  store i32 1, i32* %642, align 8
  %vptr321 = alloca %"cls.acjs::JsVariant", align 8
  %643 = bitcast %"cls.acjs::JsVariant"* %vptr321 to i32 (...)***
  store i32 (...)** bitcast (i8*** @_ZTVN14altered_carbon2js9JsVariantE_GEP to i32 (...)**), i32 (...)*** %643, align 8
  %644 = getelementptr inbounds %"cls.acjs::JsVariant", %"cls.acjs::JsVariant"* %vptr321, i32 0, i32 1
  store i32 1, i32* %644, align 8
  %vptr322 = alloca %"cls.acjs::JsVariant", align 8
  %645 = bitcast %"cls.acjs::JsVariant"* %vptr322 to i32 (...)***
  store i32 (...)** bitcast (i8*** @_ZTVN14altered_carbon2js9JsVariantE_GEP to i32 (...)**), i32 (...)*** %645, align 8
  %646 = getelementptr inbounds %"cls.acjs::JsVariant", %"cls.acjs::JsVariant"* %vptr322, i32 0, i32 1
  store i32 1, i32* %646, align 8
  %vptr323 = alloca %"cls.acjs::JsVariant", align 8
  %647 = bitcast %"cls.acjs::JsVariant"* %vptr323 to i32 (...)***
  store i32 (...)** bitcast (i8*** @_ZTVN14altered_carbon2js9JsVariantE_GEP to i32 (...)**), i32 (...)*** %647, align 8
  %648 = getelementptr inbounds %"cls.acjs::JsVariant", %"cls.acjs::JsVariant"* %vptr323, i32 0, i32 1
  store i32 1, i32* %648, align 8
  %vptr324 = alloca %"cls.acjs::JsVariant", align 8
  %649 = bitcast %"cls.acjs::JsVariant"* %vptr324 to i32 (...)***
  store i32 (...)** bitcast (i8*** @_ZTVN14altered_carbon2js9JsVariantE_GEP to i32 (...)**), i32 (...)*** %649, align 8
  %650 = getelementptr inbounds %"cls.acjs::JsVariant", %"cls.acjs::JsVariant"* %vptr324, i32 0, i32 1
  store i32 1, i32* %650, align 8
  %vptr325 = alloca %"cls.acjs::JsVariant", align 8
  %651 = bitcast %"cls.acjs::JsVariant"* %vptr325 to i32 (...)***
  store i32 (...)** bitcast (i8*** @_ZTVN14altered_carbon2js9JsVariantE_GEP to i32 (...)**), i32 (...)*** %651, align 8
  %652 = getelementptr inbounds %"cls.acjs::JsVariant", %"cls.acjs::JsVariant"* %vptr325, i32 0, i32 1
  store i32 1, i32* %652, align 8
  %vptr326 = alloca %"cls.acjs::JsVariant", align 8
  %653 = bitcast %"cls.acjs::JsVariant"* %vptr326 to i32 (...)***
  store i32 (...)** bitcast (i8*** @_ZTVN14altered_carbon2js9JsVariantE_GEP to i32 (...)**), i32 (...)*** %653, align 8
  %654 = getelementptr inbounds %"cls.acjs::JsVariant", %"cls.acjs::JsVariant"* %vptr326, i32 0, i32 1
  store i32 1, i32* %654, align 8
  %vptr327 = alloca %"cls.acjs::JsVariant", align 8
  %655 = bitcast %"cls.acjs::JsVariant"* %vptr327 to i32 (...)***
  store i32 (...)** bitcast (i8*** @_ZTVN14altered_carbon2js9JsVariantE_GEP to i32 (...)**), i32 (...)*** %655, align 8
  %656 = getelementptr inbounds %"cls.acjs::JsVariant", %"cls.acjs::JsVariant"* %vptr327, i32 0, i32 1
  store i32 1, i32* %656, align 8
  %vptr328 = alloca %"cls.acjs::JsVariant", align 8
  %657 = bitcast %"cls.acjs::JsVariant"* %vptr328 to i32 (...)***
  store i32 (...)** bitcast (i8*** @_ZTVN14altered_carbon2js9JsVariantE_GEP to i32 (...)**), i32 (...)*** %657, align 8
  %658 = getelementptr inbounds %"cls.acjs::JsVariant", %"cls.acjs::JsVariant"* %vptr328, i32 0, i32 1
  store i32 1, i32* %658, align 8
  %vptr329 = alloca %"cls.acjs::JsVariant", align 8
  %659 = bitcast %"cls.acjs::JsVariant"* %vptr329 to i32 (...)***
  store i32 (...)** bitcast (i8*** @_ZTVN14altered_carbon2js9JsVariantE_GEP to i32 (...)**), i32 (...)*** %659, align 8
  %660 = getelementptr inbounds %"cls.acjs::JsVariant", %"cls.acjs::JsVariant"* %vptr329, i32 0, i32 1
  store i32 1, i32* %660, align 8
  %vptr330 = alloca %"cls.acjs::JsVariant", align 8
  %661 = bitcast %"cls.acjs::JsVariant"* %vptr330 to i32 (...)***
  store i32 (...)** bitcast (i8*** @_ZTVN14altered_carbon2js9JsVariantE_GEP to i32 (...)**), i32 (...)*** %661, align 8
  %662 = getelementptr inbounds %"cls.acjs::JsVariant", %"cls.acjs::JsVariant"* %vptr330, i32 0, i32 1
  store i32 1, i32* %662, align 8
  %vptr331 = alloca %"cls.acjs::JsVariant", align 8
  %663 = bitcast %"cls.acjs::JsVariant"* %vptr331 to i32 (...)***
  store i32 (...)** bitcast (i8*** @_ZTVN14altered_carbon2js9JsVariantE_GEP to i32 (...)**), i32 (...)*** %663, align 8
  %664 = getelementptr inbounds %"cls.acjs::JsVariant", %"cls.acjs::JsVariant"* %vptr331, i32 0, i32 1
  store i32 1, i32* %664, align 8
  %vptr332 = alloca %"cls.acjs::JsVariant", align 8
  %665 = bitcast %"cls.acjs::JsVariant"* %vptr332 to i32 (...)***
  store i32 (...)** bitcast (i8*** @_ZTVN14altered_carbon2js9JsVariantE_GEP to i32 (...)**), i32 (...)*** %665, align 8
  %666 = getelementptr inbounds %"cls.acjs::JsVariant", %"cls.acjs::JsVariant"* %vptr332, i32 0, i32 1
  store i32 1, i32* %666, align 8
  %vptr333 = alloca %"cls.acjs::JsVariant", align 8
  %667 = bitcast %"cls.acjs::JsVariant"* %vptr333 to i32 (...)***
  store i32 (...)** bitcast (i8*** @_ZTVN14altered_carbon2js9JsVariantE_GEP to i32 (...)**), i32 (...)*** %667, align 8
  %668 = getelementptr inbounds %"cls.acjs::JsVariant", %"cls.acjs::JsVariant"* %vptr333, i32 0, i32 1
  store i32 1, i32* %668, align 8
  %vptr334 = alloca %"cls.acjs::JsVariant", align 8
  %669 = bitcast %"cls.acjs::JsVariant"* %vptr334 to i32 (...)***
  store i32 (...)** bitcast (i8*** @_ZTVN14altered_carbon2js9JsVariantE_GEP to i32 (...)**), i32 (...)*** %669, align 8
  %670 = getelementptr inbounds %"cls.acjs::JsVariant", %"cls.acjs::JsVariant"* %vptr334, i32 0, i32 1
  store i32 1, i32* %670, align 8
  %vptr335 = alloca %"cls.acjs::JsVariant", align 8
  %671 = bitcast %"cls.acjs::JsVariant"* %vptr335 to i32 (...)***
  store i32 (...)** bitcast (i8*** @_ZTVN14altered_carbon2js9JsVariantE_GEP to i32 (...)**), i32 (...)*** %671, align 8
  %672 = getelementptr inbounds %"cls.acjs::JsVariant", %"cls.acjs::JsVariant"* %vptr335, i32 0, i32 1
  store i32 1, i32* %672, align 8
  %vptr336 = alloca %"cls.acjs::JsVariant", align 8
  %673 = bitcast %"cls.acjs::JsVariant"* %vptr336 to i32 (...)***
  store i32 (...)** bitcast (i8*** @_ZTVN14altered_carbon2js9JsVariantE_GEP to i32 (...)**), i32 (...)*** %673, align 8
  %674 = getelementptr inbounds %"cls.acjs::JsVariant", %"cls.acjs::JsVariant"* %vptr336, i32 0, i32 1
  store i32 1, i32* %674, align 8
  %vptr337 = alloca %"cls.acjs::JsVariant", align 8
  %675 = bitcast %"cls.acjs::JsVariant"* %vptr337 to i32 (...)***
  store i32 (...)** bitcast (i8*** @_ZTVN14altered_carbon2js9JsVariantE_GEP to i32 (...)**), i32 (...)*** %675, align 8
  %676 = getelementptr inbounds %"cls.acjs::JsVariant", %"cls.acjs::JsVariant"* %vptr337, i32 0, i32 1
  store i32 1, i32* %676, align 8
  %vptr338 = alloca %"cls.acjs::JsVariant", align 8
  %677 = bitcast %"cls.acjs::JsVariant"* %vptr338 to i32 (...)***
  store i32 (...)** bitcast (i8*** @_ZTVN14altered_carbon2js9JsVariantE_GEP to i32 (...)**), i32 (...)*** %677, align 8
  %678 = getelementptr inbounds %"cls.acjs::JsVariant", %"cls.acjs::JsVariant"* %vptr338, i32 0, i32 1
  store i32 1, i32* %678, align 8
  %vptr339 = alloca %"cls.acjs::JsVariant", align 8
  %679 = bitcast %"cls.acjs::JsVariant"* %vptr339 to i32 (...)***
  store i32 (...)** bitcast (i8*** @_ZTVN14altered_carbon2js9JsVariantE_GEP to i32 (...)**), i32 (...)*** %679, align 8
  %680 = getelementptr inbounds %"cls.acjs::JsVariant", %"cls.acjs::JsVariant"* %vptr339, i32 0, i32 1
  store i32 1, i32* %680, align 8
  %vptr340 = alloca %"cls.acjs::JsVariant", align 8
  %681 = bitcast %"cls.acjs::JsVariant"* %vptr340 to i32 (...)***
  store i32 (...)** bitcast (i8*** @_ZTVN14altered_carbon2js9JsVariantE_GEP to i32 (...)**), i32 (...)*** %681, align 8
  %682 = getelementptr inbounds %"cls.acjs::JsVariant", %"cls.acjs::JsVariant"* %vptr340, i32 0, i32 1
  store i32 1, i32* %682, align 8
  %vptr341 = alloca %"cls.acjs::JsVariant", align 8
  %683 = bitcast %"cls.acjs::JsVariant"* %vptr341 to i32 (...)***
  store i32 (...)** bitcast (i8*** @_ZTVN14altered_carbon2js9JsVariantE_GEP to i32 (...)**), i32 (...)*** %683, align 8
  %684 = getelementptr inbounds %"cls.acjs::JsVariant", %"cls.acjs::JsVariant"* %vptr341, i32 0, i32 1
  store i32 1, i32* %684, align 8
  %vptr342 = alloca %"cls.acjs::JsVariant", align 8
  %685 = bitcast %"cls.acjs::JsVariant"* %vptr342 to i32 (...)***
  store i32 (...)** bitcast (i8*** @_ZTVN14altered_carbon2js9JsVariantE_GEP to i32 (...)**), i32 (...)*** %685, align 8
  %686 = getelementptr inbounds %"cls.acjs::JsVariant", %"cls.acjs::JsVariant"* %vptr342, i32 0, i32 1
  store i32 1, i32* %686, align 8
  %vptr343 = alloca %"cls.acjs::JsVariant", align 8
  %687 = bitcast %"cls.acjs::JsVariant"* %vptr343 to i32 (...)***
  store i32 (...)** bitcast (i8*** @_ZTVN14altered_carbon2js9JsVariantE_GEP to i32 (...)**), i32 (...)*** %687, align 8
  %688 = getelementptr inbounds %"cls.acjs::JsVariant", %"cls.acjs::JsVariant"* %vptr343, i32 0, i32 1
  store i32 1, i32* %688, align 8
  %vptr344 = alloca %"cls.acjs::JsVariant", align 8
  %689 = bitcast %"cls.acjs::JsVariant"* %vptr344 to i32 (...)***
  store i32 (...)** bitcast (i8*** @_ZTVN14altered_carbon2js9JsVariantE_GEP to i32 (...)**), i32 (...)*** %689, align 8
  %690 = getelementptr inbounds %"cls.acjs::JsVariant", %"cls.acjs::JsVariant"* %vptr344, i32 0, i32 1
  store i32 1, i32* %690, align 8
  %vptr345 = alloca %"cls.acjs::JsVariant", align 8
  %691 = bitcast %"cls.acjs::JsVariant"* %vptr345 to i32 (...)***
  store i32 (...)** bitcast (i8*** @_ZTVN14altered_carbon2js9JsVariantE_GEP to i32 (...)**), i32 (...)*** %691, align 8
  %692 = getelementptr inbounds %"cls.acjs::JsVariant", %"cls.acjs::JsVariant"* %vptr345, i32 0, i32 1
  store i32 1, i32* %692, align 8
  %vptr346 = alloca %"cls.acjs::JsVariant", align 8
  %693 = bitcast %"cls.acjs::JsVariant"* %vptr346 to i32 (...)***
  store i32 (...)** bitcast (i8*** @_ZTVN14altered_carbon2js9JsVariantE_GEP to i32 (...)**), i32 (...)*** %693, align 8
  %694 = getelementptr inbounds %"cls.acjs::JsVariant", %"cls.acjs::JsVariant"* %vptr346, i32 0, i32 1
  store i32 1, i32* %694, align 8
  %vptr347 = alloca %"cls.acjs::JsVariant", align 8
  %695 = bitcast %"cls.acjs::JsVariant"* %vptr347 to i32 (...)***
  store i32 (...)** bitcast (i8*** @_ZTVN14altered_carbon2js9JsVariantE_GEP to i32 (...)**), i32 (...)*** %695, align 8
  %696 = getelementptr inbounds %"cls.acjs::JsVariant", %"cls.acjs::JsVariant"* %vptr347, i32 0, i32 1
  store i32 1, i32* %696, align 8
  %vptr348 = alloca %"cls.acjs::JsVariant", align 8
  %697 = bitcast %"cls.acjs::JsVariant"* %vptr348 to i32 (...)***
  store i32 (...)** bitcast (i8*** @_ZTVN14altered_carbon2js9JsVariantE_GEP to i32 (...)**), i32 (...)*** %697, align 8
  %698 = getelementptr inbounds %"cls.acjs::JsVariant", %"cls.acjs::JsVariant"* %vptr348, i32 0, i32 1
  store i32 1, i32* %698, align 8
  %vptr349 = alloca %"cls.acjs::JsVariant", align 8
  %699 = bitcast %"cls.acjs::JsVariant"* %vptr349 to i32 (...)***
  store i32 (...)** bitcast (i8*** @_ZTVN14altered_carbon2js9JsVariantE_GEP to i32 (...)**), i32 (...)*** %699, align 8
  %700 = getelementptr inbounds %"cls.acjs::JsVariant", %"cls.acjs::JsVariant"* %vptr349, i32 0, i32 1
  store i32 1, i32* %700, align 8
  %vptr350 = alloca %"cls.acjs::JsVariant", align 8
  %701 = bitcast %"cls.acjs::JsVariant"* %vptr350 to i32 (...)***
  store i32 (...)** bitcast (i8*** @_ZTVN14altered_carbon2js9JsVariantE_GEP to i32 (...)**), i32 (...)*** %701, align 8
  %702 = getelementptr inbounds %"cls.acjs::JsVariant", %"cls.acjs::JsVariant"* %vptr350, i32 0, i32 1
  store i32 1, i32* %702, align 8
  %vptr351 = alloca %"cls.acjs::JsVariant", align 8
  %703 = bitcast %"cls.acjs::JsVariant"* %vptr351 to i32 (...)***
  store i32 (...)** bitcast (i8*** @_ZTVN14altered_carbon2js9JsVariantE_GEP to i32 (...)**), i32 (...)*** %703, align 8
  %704 = getelementptr inbounds %"cls.acjs::JsVariant", %"cls.acjs::JsVariant"* %vptr351, i32 0, i32 1
  store i32 1, i32* %704, align 8
  %vptr352 = alloca %"cls.acjs::JsVariant", align 8
  %705 = bitcast %"cls.acjs::JsVariant"* %vptr352 to i32 (...)***
  store i32 (...)** bitcast (i8*** @_ZTVN14altered_carbon2js9JsVariantE_GEP to i32 (...)**), i32 (...)*** %705, align 8
  %706 = getelementptr inbounds %"cls.acjs::JsVariant", %"cls.acjs::JsVariant"* %vptr352, i32 0, i32 1
  store i32 1, i32* %706, align 8
  %vptr353 = alloca %"cls.acjs::JsVariant", align 8
  %707 = bitcast %"cls.acjs::JsVariant"* %vptr353 to i32 (...)***
  store i32 (...)** bitcast (i8*** @_ZTVN14altered_carbon2js9JsVariantE_GEP to i32 (...)**), i32 (...)*** %707, align 8
  %708 = getelementptr inbounds %"cls.acjs::JsVariant", %"cls.acjs::JsVariant"* %vptr353, i32 0, i32 1
  store i32 1, i32* %708, align 8
  %vptr354 = alloca %"cls.acjs::JsVariant", align 8
  %709 = bitcast %"cls.acjs::JsVariant"* %vptr354 to i32 (...)***
  store i32 (...)** bitcast (i8*** @_ZTVN14altered_carbon2js9JsVariantE_GEP to i32 (...)**), i32 (...)*** %709, align 8
  %710 = getelementptr inbounds %"cls.acjs::JsVariant", %"cls.acjs::JsVariant"* %vptr354, i32 0, i32 1
  store i32 1, i32* %710, align 8
  %vptr355 = alloca %"cls.acjs::JsVariant", align 8
  %711 = bitcast %"cls.acjs::JsVariant"* %vptr355 to i32 (...)***
  store i32 (...)** bitcast (i8*** @_ZTVN14altered_carbon2js9JsVariantE_GEP to i32 (...)**), i32 (...)*** %711, align 8
  %712 = getelementptr inbounds %"cls.acjs::JsVariant", %"cls.acjs::JsVariant"* %vptr355, i32 0, i32 1
  store i32 1, i32* %712, align 8
  %vptr356 = alloca %"cls.acjs::JsVariant", align 8
  %713 = bitcast %"cls.acjs::JsVariant"* %vptr356 to i32 (...)***
  store i32 (...)** bitcast (i8*** @_ZTVN14altered_carbon2js9JsVariantE_GEP to i32 (...)**), i32 (...)*** %713, align 8
  %714 = getelementptr inbounds %"cls.acjs::JsVariant", %"cls.acjs::JsVariant"* %vptr356, i32 0, i32 1
  store i32 1, i32* %714, align 8
  %vptr357 = alloca %"cls.acjs::JsVariant", align 8
  %715 = bitcast %"cls.acjs::JsVariant"* %vptr357 to i32 (...)***
  store i32 (...)** bitcast (i8*** @_ZTVN14altered_carbon2js9JsVariantE_GEP to i32 (...)**), i32 (...)*** %715, align 8
  %716 = getelementptr inbounds %"cls.acjs::JsVariant", %"cls.acjs::JsVariant"* %vptr357, i32 0, i32 1
  store i32 1, i32* %716, align 8
  %vptr358 = alloca %"cls.acjs::JsVariant", align 8
  %717 = bitcast %"cls.acjs::JsVariant"* %vptr358 to i32 (...)***
  store i32 (...)** bitcast (i8*** @_ZTVN14altered_carbon2js9JsVariantE_GEP to i32 (...)**), i32 (...)*** %717, align 8
  %718 = getelementptr inbounds %"cls.acjs::JsVariant", %"cls.acjs::JsVariant"* %vptr358, i32 0, i32 1
  store i32 1, i32* %718, align 8
  %vptr359 = alloca %"cls.acjs::JsVariant", align 8
  %719 = bitcast %"cls.acjs::JsVariant"* %vptr359 to i32 (...)***
  store i32 (...)** bitcast (i8*** @_ZTVN14altered_carbon2js9JsVariantE_GEP to i32 (...)**), i32 (...)*** %719, align 8
  %720 = getelementptr inbounds %"cls.acjs::JsVariant", %"cls.acjs::JsVariant"* %vptr359, i32 0, i32 1
  store i32 1, i32* %720, align 8
  %vptr360 = alloca %"cls.acjs::JsVariant", align 8
  %721 = bitcast %"cls.acjs::JsVariant"* %vptr360 to i32 (...)***
  store i32 (...)** bitcast (i8*** @_ZTVN14altered_carbon2js9JsVariantE_GEP to i32 (...)**), i32 (...)*** %721, align 8
  %722 = getelementptr inbounds %"cls.acjs::JsVariant", %"cls.acjs::JsVariant"* %vptr360, i32 0, i32 1
  store i32 1, i32* %722, align 8
  %vptr361 = alloca %"cls.acjs::JsVariant", align 8
  %723 = bitcast %"cls.acjs::JsVariant"* %vptr361 to i32 (...)***
  store i32 (...)** bitcast (i8*** @_ZTVN14altered_carbon2js9JsVariantE_GEP to i32 (...)**), i32 (...)*** %723, align 8
  %724 = getelementptr inbounds %"cls.acjs::JsVariant", %"cls.acjs::JsVariant"* %vptr361, i32 0, i32 1
  store i32 1, i32* %724, align 8
  %vptr362 = alloca %"cls.acjs::JsVariant", align 8
  %725 = bitcast %"cls.acjs::JsVariant"* %vptr362 to i32 (...)***
  store i32 (...)** bitcast (i8*** @_ZTVN14altered_carbon2js9JsVariantE_GEP to i32 (...)**), i32 (...)*** %725, align 8
  %726 = getelementptr inbounds %"cls.acjs::JsVariant", %"cls.acjs::JsVariant"* %vptr362, i32 0, i32 1
  store i32 1, i32* %726, align 8
  %vptr363 = alloca %"cls.acjs::JsVariant", align 8
  %727 = bitcast %"cls.acjs::JsVariant"* %vptr363 to i32 (...)***
  store i32 (...)** bitcast (i8*** @_ZTVN14altered_carbon2js9JsVariantE_GEP to i32 (...)**), i32 (...)*** %727, align 8
  %728 = getelementptr inbounds %"cls.acjs::JsVariant", %"cls.acjs::JsVariant"* %vptr363, i32 0, i32 1
  store i32 1, i32* %728, align 8
  %vptr364 = alloca %"cls.acjs::JsVariant", align 8
  %729 = bitcast %"cls.acjs::JsVariant"* %vptr364 to i32 (...)***
  store i32 (...)** bitcast (i8*** @_ZTVN14altered_carbon2js9JsVariantE_GEP to i32 (...)**), i32 (...)*** %729, align 8
  %730 = getelementptr inbounds %"cls.acjs::JsVariant", %"cls.acjs::JsVariant"* %vptr364, i32 0, i32 1
  store i32 1, i32* %730, align 8
  %vptr365 = alloca %"cls.acjs::JsVariant", align 8
  %731 = bitcast %"cls.acjs::JsVariant"* %vptr365 to i32 (...)***
  store i32 (...)** bitcast (i8*** @_ZTVN14altered_carbon2js9JsVariantE_GEP to i32 (...)**), i32 (...)*** %731, align 8
  %732 = getelementptr inbounds %"cls.acjs::JsVariant", %"cls.acjs::JsVariant"* %vptr365, i32 0, i32 1
  store i32 1, i32* %732, align 8
  %vptr366 = alloca %"cls.acjs::JsVariant", align 8
  %733 = bitcast %"cls.acjs::JsVariant"* %vptr366 to i32 (...)***
  store i32 (...)** bitcast (i8*** @_ZTVN14altered_carbon2js9JsVariantE_GEP to i32 (...)**), i32 (...)*** %733, align 8
  %734 = getelementptr inbounds %"cls.acjs::JsVariant", %"cls.acjs::JsVariant"* %vptr366, i32 0, i32 1
  store i32 1, i32* %734, align 8
  %vptr367 = alloca %"cls.acjs::JsVariant", align 8
  %735 = bitcast %"cls.acjs::JsVariant"* %vptr367 to i32 (...)***
  store i32 (...)** bitcast (i8*** @_ZTVN14altered_carbon2js9JsVariantE_GEP to i32 (...)**), i32 (...)*** %735, align 8
  %736 = getelementptr inbounds %"cls.acjs::JsVariant", %"cls.acjs::JsVariant"* %vptr367, i32 0, i32 1
  store i32 1, i32* %736, align 8
  %vptr368 = alloca %"cls.acjs::JsVariant", align 8
  %737 = bitcast %"cls.acjs::JsVariant"* %vptr368 to i32 (...)***
  store i32 (...)** bitcast (i8*** @_ZTVN14altered_carbon2js9JsVariantE_GEP to i32 (...)**), i32 (...)*** %737, align 8
  %738 = getelementptr inbounds %"cls.acjs::JsVariant", %"cls.acjs::JsVariant"* %vptr368, i32 0, i32 1
  store i32 1, i32* %738, align 8
  %vptr369 = alloca %"cls.acjs::JsVariant", align 8
  %739 = bitcast %"cls.acjs::JsVariant"* %vptr369 to i32 (...)***
  store i32 (...)** bitcast (i8*** @_ZTVN14altered_carbon2js9JsVariantE_GEP to i32 (...)**), i32 (...)*** %739, align 8
  %740 = getelementptr inbounds %"cls.acjs::JsVariant", %"cls.acjs::JsVariant"* %vptr369, i32 0, i32 1
  store i32 1, i32* %740, align 8
  %vptr370 = alloca %"cls.acjs::JsVariant", align 8
  %741 = bitcast %"cls.acjs::JsVariant"* %vptr370 to i32 (...)***
  store i32 (...)** bitcast (i8*** @_ZTVN14altered_carbon2js9JsVariantE_GEP to i32 (...)**), i32 (...)*** %741, align 8
  %742 = getelementptr inbounds %"cls.acjs::JsVariant", %"cls.acjs::JsVariant"* %vptr370, i32 0, i32 1
  store i32 1, i32* %742, align 8
  %vptr371 = alloca %"cls.acjs::JsVariant", align 8
  %743 = bitcast %"cls.acjs::JsVariant"* %vptr371 to i32 (...)***
  store i32 (...)** bitcast (i8*** @_ZTVN14altered_carbon2js9JsVariantE_GEP to i32 (...)**), i32 (...)*** %743, align 8
  %744 = getelementptr inbounds %"cls.acjs::JsVariant", %"cls.acjs::JsVariant"* %vptr371, i32 0, i32 1
  store i32 1, i32* %744, align 8
  %vptr372 = alloca %"cls.acjs::JsVariant", align 8
  %745 = bitcast %"cls.acjs::JsVariant"* %vptr372 to i32 (...)***
  store i32 (...)** bitcast (i8*** @_ZTVN14altered_carbon2js9JsVariantE_GEP to i32 (...)**), i32 (...)*** %745, align 8
  %746 = getelementptr inbounds %"cls.acjs::JsVariant", %"cls.acjs::JsVariant"* %vptr372, i32 0, i32 1
  store i32 1, i32* %746, align 8
  %vptr373 = alloca %"cls.acjs::JsVariant", align 8
  %747 = bitcast %"cls.acjs::JsVariant"* %vptr373 to i32 (...)***
  store i32 (...)** bitcast (i8*** @_ZTVN14altered_carbon2js9JsVariantE_GEP to i32 (...)**), i32 (...)*** %747, align 8
  %748 = getelementptr inbounds %"cls.acjs::JsVariant", %"cls.acjs::JsVariant"* %vptr373, i32 0, i32 1
  store i32 1, i32* %748, align 8
  %vptr374 = alloca %"cls.acjs::JsVariant", align 8
  %749 = bitcast %"cls.acjs::JsVariant"* %vptr374 to i32 (...)***
  store i32 (...)** bitcast (i8*** @_ZTVN14altered_carbon2js9JsVariantE_GEP to i32 (...)**), i32 (...)*** %749, align 8
  %750 = getelementptr inbounds %"cls.acjs::JsVariant", %"cls.acjs::JsVariant"* %vptr374, i32 0, i32 1
  store i32 1, i32* %750, align 8
  %vptr375 = alloca %"cls.acjs::JsVariant", align 8
  %751 = bitcast %"cls.acjs::JsVariant"* %vptr375 to i32 (...)***
  store i32 (...)** bitcast (i8*** @_ZTVN14altered_carbon2js9JsVariantE_GEP to i32 (...)**), i32 (...)*** %751, align 8
  %752 = getelementptr inbounds %"cls.acjs::JsVariant", %"cls.acjs::JsVariant"* %vptr375, i32 0, i32 1
  store i32 1, i32* %752, align 8
  %vptr376 = alloca %"cls.acjs::JsVariant", align 8
  %753 = bitcast %"cls.acjs::JsVariant"* %vptr376 to i32 (...)***
  store i32 (...)** bitcast (i8*** @_ZTVN14altered_carbon2js9JsVariantE_GEP to i32 (...)**), i32 (...)*** %753, align 8
  %754 = getelementptr inbounds %"cls.acjs::JsVariant", %"cls.acjs::JsVariant"* %vptr376, i32 0, i32 1
  store i32 1, i32* %754, align 8
  %vptr377 = alloca %"cls.acjs::JsVariant", align 8
  %755 = bitcast %"cls.acjs::JsVariant"* %vptr377 to i32 (...)***
  store i32 (...)** bitcast (i8*** @_ZTVN14altered_carbon2js9JsVariantE_GEP to i32 (...)**), i32 (...)*** %755, align 8
  %756 = getelementptr inbounds %"cls.acjs::JsVariant", %"cls.acjs::JsVariant"* %vptr377, i32 0, i32 1
  store i32 1, i32* %756, align 8
  %vptr378 = alloca %"cls.acjs::JsVariant", align 8
  %757 = bitcast %"cls.acjs::JsVariant"* %vptr378 to i32 (...)***
  store i32 (...)** bitcast (i8*** @_ZTVN14altered_carbon2js9JsVariantE_GEP to i32 (...)**), i32 (...)*** %757, align 8
  %758 = getelementptr inbounds %"cls.acjs::JsVariant", %"cls.acjs::JsVariant"* %vptr378, i32 0, i32 1
  store i32 1, i32* %758, align 8
  %vptr379 = alloca %"cls.acjs::JsVariant", align 8
  %759 = bitcast %"cls.acjs::JsVariant"* %vptr379 to i32 (...)***
  store i32 (...)** bitcast (i8*** @_ZTVN14altered_carbon2js9JsVariantE_GEP to i32 (...)**), i32 (...)*** %759, align 8
  %760 = getelementptr inbounds %"cls.acjs::JsVariant", %"cls.acjs::JsVariant"* %vptr379, i32 0, i32 1
  store i32 1, i32* %760, align 8
  %vptr380 = alloca %"cls.acjs::JsVariant", align 8
  %761 = bitcast %"cls.acjs::JsVariant"* %vptr380 to i32 (...)***
  store i32 (...)** bitcast (i8*** @_ZTVN14altered_carbon2js9JsVariantE_GEP to i32 (...)**), i32 (...)*** %761, align 8
  %762 = getelementptr inbounds %"cls.acjs::JsVariant", %"cls.acjs::JsVariant"* %vptr380, i32 0, i32 1
  store i32 1, i32* %762, align 8
  %vptr381 = alloca %"cls.acjs::JsVariant", align 8
  %763 = bitcast %"cls.acjs::JsVariant"* %vptr381 to i32 (...)***
  store i32 (...)** bitcast (i8*** @_ZTVN14altered_carbon2js9JsVariantE_GEP to i32 (...)**), i32 (...)*** %763, align 8
  %764 = getelementptr inbounds %"cls.acjs::JsVariant", %"cls.acjs::JsVariant"* %vptr381, i32 0, i32 1
  store i32 1, i32* %764, align 8
  %vptr382 = alloca %"cls.acjs::JsVariant", align 8
  %765 = bitcast %"cls.acjs::JsVariant"* %vptr382 to i32 (...)***
  store i32 (...)** bitcast (i8*** @_ZTVN14altered_carbon2js9JsVariantE_GEP to i32 (...)**), i32 (...)*** %765, align 8
  %766 = getelementptr inbounds %"cls.acjs::JsVariant", %"cls.acjs::JsVariant"* %vptr382, i32 0, i32 1
  store i32 1, i32* %766, align 8
  %vptr383 = alloca %"cls.acjs::JsVariant", align 8
  %767 = bitcast %"cls.acjs::JsVariant"* %vptr383 to i32 (...)***
  store i32 (...)** bitcast (i8*** @_ZTVN14altered_carbon2js9JsVariantE_GEP to i32 (...)**), i32 (...)*** %767, align 8
  %768 = getelementptr inbounds %"cls.acjs::JsVariant", %"cls.acjs::JsVariant"* %vptr383, i32 0, i32 1
  store i32 1, i32* %768, align 8
  %vptr384 = alloca %"cls.acjs::JsVariant", align 8
  %769 = bitcast %"cls.acjs::JsVariant"* %vptr384 to i32 (...)***
  store i32 (...)** bitcast (i8*** @_ZTVN14altered_carbon2js9JsVariantE_GEP to i32 (...)**), i32 (...)*** %769, align 8
  %770 = getelementptr inbounds %"cls.acjs::JsVariant", %"cls.acjs::JsVariant"* %vptr384, i32 0, i32 1
  store i32 1, i32* %770, align 8
  %vptr385 = alloca %"cls.acjs::JsVariant", align 8
  %771 = bitcast %"cls.acjs::JsVariant"* %vptr385 to i32 (...)***
  store i32 (...)** bitcast (i8*** @_ZTVN14altered_carbon2js9JsVariantE_GEP to i32 (...)**), i32 (...)*** %771, align 8
  %772 = getelementptr inbounds %"cls.acjs::JsVariant", %"cls.acjs::JsVariant"* %vptr385, i32 0, i32 1
  store i32 1, i32* %772, align 8
  %vptr386 = alloca %"cls.acjs::JsVariant", align 8
  %773 = bitcast %"cls.acjs::JsVariant"* %vptr386 to i32 (...)***
  store i32 (...)** bitcast (i8*** @_ZTVN14altered_carbon2js9JsVariantE_GEP to i32 (...)**), i32 (...)*** %773, align 8
  %774 = getelementptr inbounds %"cls.acjs::JsVariant", %"cls.acjs::JsVariant"* %vptr386, i32 0, i32 1
  store i32 1, i32* %774, align 8
  %vptr387 = alloca %"cls.acjs::JsVariant", align 8
  %775 = bitcast %"cls.acjs::JsVariant"* %vptr387 to i32 (...)***
  store i32 (...)** bitcast (i8*** @_ZTVN14altered_carbon2js9JsVariantE_GEP to i32 (...)**), i32 (...)*** %775, align 8
  %776 = getelementptr inbounds %"cls.acjs::JsVariant", %"cls.acjs::JsVariant"* %vptr387, i32 0, i32 1
  store i32 1, i32* %776, align 8
  %vptr388 = alloca %"cls.acjs::JsVariant", align 8
  %777 = bitcast %"cls.acjs::JsVariant"* %vptr388 to i32 (...)***
  store i32 (...)** bitcast (i8*** @_ZTVN14altered_carbon2js9JsVariantE_GEP to i32 (...)**), i32 (...)*** %777, align 8
  %778 = getelementptr inbounds %"cls.acjs::JsVariant", %"cls.acjs::JsVariant"* %vptr388, i32 0, i32 1
  store i32 1, i32* %778, align 8
  %vptr389 = alloca %"cls.acjs::JsVariant", align 8
  %779 = bitcast %"cls.acjs::JsVariant"* %vptr389 to i32 (...)***
  store i32 (...)** bitcast (i8*** @_ZTVN14altered_carbon2js9JsVariantE_GEP to i32 (...)**), i32 (...)*** %779, align 8
  %780 = getelementptr inbounds %"cls.acjs::JsVariant", %"cls.acjs::JsVariant"* %vptr389, i32 0, i32 1
  store i32 1, i32* %780, align 8
  %vptr390 = alloca %"cls.acjs::JsVariant", align 8
  %781 = bitcast %"cls.acjs::JsVariant"* %vptr390 to i32 (...)***
  store i32 (...)** bitcast (i8*** @_ZTVN14altered_carbon2js9JsVariantE_GEP to i32 (...)**), i32 (...)*** %781, align 8
  %782 = getelementptr inbounds %"cls.acjs::JsVariant", %"cls.acjs::JsVariant"* %vptr390, i32 0, i32 1
  store i32 1, i32* %782, align 8
  %vptr391 = alloca %"cls.acjs::JsVariant", align 8
  %783 = bitcast %"cls.acjs::JsVariant"* %vptr391 to i32 (...)***
  store i32 (...)** bitcast (i8*** @_ZTVN14altered_carbon2js9JsVariantE_GEP to i32 (...)**), i32 (...)*** %783, align 8
  %784 = getelementptr inbounds %"cls.acjs::JsVariant", %"cls.acjs::JsVariant"* %vptr391, i32 0, i32 1
  store i32 1, i32* %784, align 8
  %vptr392 = alloca %"cls.acjs::JsVariant", align 8
  %785 = bitcast %"cls.acjs::JsVariant"* %vptr392 to i32 (...)***
  store i32 (...)** bitcast (i8*** @_ZTVN14altered_carbon2js9JsVariantE_GEP to i32 (...)**), i32 (...)*** %785, align 8
  %786 = getelementptr inbounds %"cls.acjs::JsVariant", %"cls.acjs::JsVariant"* %vptr392, i32 0, i32 1
  store i32 1, i32* %786, align 8
  %vptr393 = alloca %"cls.acjs::JsVariant", align 8
  %787 = bitcast %"cls.acjs::JsVariant"* %vptr393 to i32 (...)***
  store i32 (...)** bitcast (i8*** @_ZTVN14altered_carbon2js9JsVariantE_GEP to i32 (...)**), i32 (...)*** %787, align 8
  %788 = getelementptr inbounds %"cls.acjs::JsVariant", %"cls.acjs::JsVariant"* %vptr393, i32 0, i32 1
  store i32 1, i32* %788, align 8
  %vptr394 = alloca %"cls.acjs::JsVariant", align 8
  %789 = bitcast %"cls.acjs::JsVariant"* %vptr394 to i32 (...)***
  store i32 (...)** bitcast (i8*** @_ZTVN14altered_carbon2js9JsVariantE_GEP to i32 (...)**), i32 (...)*** %789, align 8
  %790 = getelementptr inbounds %"cls.acjs::JsVariant", %"cls.acjs::JsVariant"* %vptr394, i32 0, i32 1
  store i32 1, i32* %790, align 8
  %vptr395 = alloca %"cls.acjs::JsVariant", align 8
  %791 = bitcast %"cls.acjs::JsVariant"* %vptr395 to i32 (...)***
  store i32 (...)** bitcast (i8*** @_ZTVN14altered_carbon2js9JsVariantE_GEP to i32 (...)**), i32 (...)*** %791, align 8
  %792 = getelementptr inbounds %"cls.acjs::JsVariant", %"cls.acjs::JsVariant"* %vptr395, i32 0, i32 1
  store i32 1, i32* %792, align 8
  %vptr396 = alloca %"cls.acjs::JsVariant", align 8
  %793 = bitcast %"cls.acjs::JsVariant"* %vptr396 to i32 (...)***
  store i32 (...)** bitcast (i8*** @_ZTVN14altered_carbon2js9JsVariantE_GEP to i32 (...)**), i32 (...)*** %793, align 8
  %794 = getelementptr inbounds %"cls.acjs::JsVariant", %"cls.acjs::JsVariant"* %vptr396, i32 0, i32 1
  store i32 1, i32* %794, align 8
  %vptr397 = alloca %"cls.acjs::JsVariant", align 8
  %795 = bitcast %"cls.acjs::JsVariant"* %vptr397 to i32 (...)***
  store i32 (...)** bitcast (i8*** @_ZTVN14altered_carbon2js9JsVariantE_GEP to i32 (...)**), i32 (...)*** %795, align 8
  %796 = getelementptr inbounds %"cls.acjs::JsVariant", %"cls.acjs::JsVariant"* %vptr397, i32 0, i32 1
  store i32 1, i32* %796, align 8
  %vptr398 = alloca %"cls.acjs::JsVariant", align 8
  %797 = bitcast %"cls.acjs::JsVariant"* %vptr398 to i32 (...)***
  store i32 (...)** bitcast (i8*** @_ZTVN14altered_carbon2js9JsVariantE_GEP to i32 (...)**), i32 (...)*** %797, align 8
  %798 = getelementptr inbounds %"cls.acjs::JsVariant", %"cls.acjs::JsVariant"* %vptr398, i32 0, i32 1
  store i32 1, i32* %798, align 8
  %vptr399 = alloca %"cls.acjs::JsVariant", align 8
  %799 = bitcast %"cls.acjs::JsVariant"* %vptr399 to i32 (...)***
  store i32 (...)** bitcast (i8*** @_ZTVN14altered_carbon2js9JsVariantE_GEP to i32 (...)**), i32 (...)*** %799, align 8
  %800 = getelementptr inbounds %"cls.acjs::JsVariant", %"cls.acjs::JsVariant"* %vptr399, i32 0, i32 1
  store i32 1, i32* %800, align 8
  %vptr400 = alloca %"cls.acjs::JsVariant", align 8
  %801 = bitcast %"cls.acjs::JsVariant"* %vptr400 to i32 (...)***
  store i32 (...)** bitcast (i8*** @_ZTVN14altered_carbon2js9JsVariantE_GEP to i32 (...)**), i32 (...)*** %801, align 8
  %802 = getelementptr inbounds %"cls.acjs::JsVariant", %"cls.acjs::JsVariant"* %vptr400, i32 0, i32 1
  store i32 1, i32* %802, align 8
  %vptr401 = alloca %"cls.acjs::JsVariant", align 8
  %803 = bitcast %"cls.acjs::JsVariant"* %vptr401 to i32 (...)***
  store i32 (...)** bitcast (i8*** @_ZTVN14altered_carbon2js9JsVariantE_GEP to i32 (...)**), i32 (...)*** %803, align 8
  %804 = getelementptr inbounds %"cls.acjs::JsVariant", %"cls.acjs::JsVariant"* %vptr401, i32 0, i32 1
  store i32 1, i32* %804, align 8
  %vptr402 = alloca %"cls.acjs::JsVariant", align 8
  %805 = bitcast %"cls.acjs::JsVariant"* %vptr402 to i32 (...)***
  store i32 (...)** bitcast (i8*** @_ZTVN14altered_carbon2js9JsVariantE_GEP to i32 (...)**), i32 (...)*** %805, align 8
  %806 = getelementptr inbounds %"cls.acjs::JsVariant", %"cls.acjs::JsVariant"* %vptr402, i32 0, i32 1
  store i32 1, i32* %806, align 8
  %vptr403 = alloca %"cls.acjs::JsVariant", align 8
  %807 = bitcast %"cls.acjs::JsVariant"* %vptr403 to i32 (...)***
  store i32 (...)** bitcast (i8*** @_ZTVN14altered_carbon2js9JsVariantE_GEP to i32 (...)**), i32 (...)*** %807, align 8
  %808 = getelementptr inbounds %"cls.acjs::JsVariant", %"cls.acjs::JsVariant"* %vptr403, i32 0, i32 1
  store i32 1, i32* %808, align 8
  %vptr404 = alloca %"cls.acjs::JsVariant", align 8
  %809 = bitcast %"cls.acjs::JsVariant"* %vptr404 to i32 (...)***
  store i32 (...)** bitcast (i8*** @_ZTVN14altered_carbon2js9JsVariantE_GEP to i32 (...)**), i32 (...)*** %809, align 8
  %810 = getelementptr inbounds %"cls.acjs::JsVariant", %"cls.acjs::JsVariant"* %vptr404, i32 0, i32 1
  store i32 1, i32* %810, align 8
  %vptr405 = alloca %"cls.acjs::JsVariant", align 8
  %811 = bitcast %"cls.acjs::JsVariant"* %vptr405 to i32 (...)***
  store i32 (...)** bitcast (i8*** @_ZTVN14altered_carbon2js9JsVariantE_GEP to i32 (...)**), i32 (...)*** %811, align 8
  %812 = getelementptr inbounds %"cls.acjs::JsVariant", %"cls.acjs::JsVariant"* %vptr405, i32 0, i32 1
  store i32 1, i32* %812, align 8
  %vptr406 = alloca %"cls.acjs::JsVariant", align 8
  %813 = bitcast %"cls.acjs::JsVariant"* %vptr406 to i32 (...)***
  store i32 (...)** bitcast (i8*** @_ZTVN14altered_carbon2js9JsVariantE_GEP to i32 (...)**), i32 (...)*** %813, align 8
  %814 = getelementptr inbounds %"cls.acjs::JsVariant", %"cls.acjs::JsVariant"* %vptr406, i32 0, i32 1
  store i32 1, i32* %814, align 8
  %vptr407 = alloca %"cls.acjs::JsVariant", align 8
  %815 = bitcast %"cls.acjs::JsVariant"* %vptr407 to i32 (...)***
  store i32 (...)** bitcast (i8*** @_ZTVN14altered_carbon2js9JsVariantE_GEP to i32 (...)**), i32 (...)*** %815, align 8
  %816 = getelementptr inbounds %"cls.acjs::JsVariant", %"cls.acjs::JsVariant"* %vptr407, i32 0, i32 1
  store i32 1, i32* %816, align 8
  %vptr408 = alloca %"cls.acjs::JsVariant", align 8
  %817 = bitcast %"cls.acjs::JsVariant"* %vptr408 to i32 (...)***
  store i32 (...)** bitcast (i8*** @_ZTVN14altered_carbon2js9JsVariantE_GEP to i32 (...)**), i32 (...)*** %817, align 8
  %818 = getelementptr inbounds %"cls.acjs::JsVariant", %"cls.acjs::JsVariant"* %vptr408, i32 0, i32 1
  store i32 1, i32* %818, align 8
  %vptr409 = alloca %"cls.acjs::JsVariant", align 8
  %819 = bitcast %"cls.acjs::JsVariant"* %vptr409 to i32 (...)***
  store i32 (...)** bitcast (i8*** @_ZTVN14altered_carbon2js9JsVariantE_GEP to i32 (...)**), i32 (...)*** %819, align 8
  %820 = getelementptr inbounds %"cls.acjs::JsVariant", %"cls.acjs::JsVariant"* %vptr409, i32 0, i32 1
  store i32 1, i32* %820, align 8
  %vptr410 = alloca %"cls.acjs::JsVariant", align 8
  %821 = bitcast %"cls.acjs::JsVariant"* %vptr410 to i32 (...)***
  store i32 (...)** bitcast (i8*** @_ZTVN14altered_carbon2js9JsVariantE_GEP to i32 (...)**), i32 (...)*** %821, align 8
  %822 = getelementptr inbounds %"cls.acjs::JsVariant", %"cls.acjs::JsVariant"* %vptr410, i32 0, i32 1
  store i32 1, i32* %822, align 8
  %vptr411 = alloca %"cls.acjs::JsVariant", align 8
  %823 = bitcast %"cls.acjs::JsVariant"* %vptr411 to i32 (...)***
  store i32 (...)** bitcast (i8*** @_ZTVN14altered_carbon2js9JsVariantE_GEP to i32 (...)**), i32 (...)*** %823, align 8
  %824 = getelementptr inbounds %"cls.acjs::JsVariant", %"cls.acjs::JsVariant"* %vptr411, i32 0, i32 1
  store i32 1, i32* %824, align 8
  %vptr412 = alloca %"cls.acjs::JsVariant", align 8
  %825 = bitcast %"cls.acjs::JsVariant"* %vptr412 to i32 (...)***
  store i32 (...)** bitcast (i8*** @_ZTVN14altered_carbon2js9JsVariantE_GEP to i32 (...)**), i32 (...)*** %825, align 8
  %826 = getelementptr inbounds %"cls.acjs::JsVariant", %"cls.acjs::JsVariant"* %vptr412, i32 0, i32 1
  store i32 1, i32* %826, align 8
  %vptr413 = alloca %"cls.acjs::JsVariant", align 8
  %827 = bitcast %"cls.acjs::JsVariant"* %vptr413 to i32 (...)***
  store i32 (...)** bitcast (i8*** @_ZTVN14altered_carbon2js9JsVariantE_GEP to i32 (...)**), i32 (...)*** %827, align 8
  %828 = getelementptr inbounds %"cls.acjs::JsVariant", %"cls.acjs::JsVariant"* %vptr413, i32 0, i32 1
  store i32 1, i32* %828, align 8
  %vptr414 = alloca %"cls.acjs::JsVariant", align 8
  %829 = bitcast %"cls.acjs::JsVariant"* %vptr414 to i32 (...)***
  store i32 (...)** bitcast (i8*** @_ZTVN14altered_carbon2js9JsVariantE_GEP to i32 (...)**), i32 (...)*** %829, align 8
  %830 = getelementptr inbounds %"cls.acjs::JsVariant", %"cls.acjs::JsVariant"* %vptr414, i32 0, i32 1
  store i32 1, i32* %830, align 8
  %vptr415 = alloca %"cls.acjs::JsVariant", align 8
  %831 = bitcast %"cls.acjs::JsVariant"* %vptr415 to i32 (...)***
  store i32 (...)** bitcast (i8*** @_ZTVN14altered_carbon2js9JsVariantE_GEP to i32 (...)**), i32 (...)*** %831, align 8
  %832 = getelementptr inbounds %"cls.acjs::JsVariant", %"cls.acjs::JsVariant"* %vptr415, i32 0, i32 1
  store i32 1, i32* %832, align 8
  %vptr416 = alloca %"cls.acjs::JsVariant", align 8
  %833 = bitcast %"cls.acjs::JsVariant"* %vptr416 to i32 (...)***
  store i32 (...)** bitcast (i8*** @_ZTVN14altered_carbon2js9JsVariantE_GEP to i32 (...)**), i32 (...)*** %833, align 8
  %834 = getelementptr inbounds %"cls.acjs::JsVariant", %"cls.acjs::JsVariant"* %vptr416, i32 0, i32 1
  store i32 1, i32* %834, align 8
  %vptr417 = alloca %"cls.acjs::JsVariant", align 8
  %835 = bitcast %"cls.acjs::JsVariant"* %vptr417 to i32 (...)***
  store i32 (...)** bitcast (i8*** @_ZTVN14altered_carbon2js9JsVariantE_GEP to i32 (...)**), i32 (...)*** %835, align 8
  %836 = getelementptr inbounds %"cls.acjs::JsVariant", %"cls.acjs::JsVariant"* %vptr417, i32 0, i32 1
  store i32 1, i32* %836, align 8
  %vptr418 = alloca %"cls.acjs::JsVariant", align 8
  %837 = bitcast %"cls.acjs::JsVariant"* %vptr418 to i32 (...)***
  store i32 (...)** bitcast (i8*** @_ZTVN14altered_carbon2js9JsVariantE_GEP to i32 (...)**), i32 (...)*** %837, align 8
  %838 = getelementptr inbounds %"cls.acjs::JsVariant", %"cls.acjs::JsVariant"* %vptr418, i32 0, i32 1
  store i32 1, i32* %838, align 8
  %vptr419 = alloca %"cls.acjs::JsVariant", align 8
  %839 = bitcast %"cls.acjs::JsVariant"* %vptr419 to i32 (...)***
  store i32 (...)** bitcast (i8*** @_ZTVN14altered_carbon2js9JsVariantE_GEP to i32 (...)**), i32 (...)*** %839, align 8
  %840 = getelementptr inbounds %"cls.acjs::JsVariant", %"cls.acjs::JsVariant"* %vptr419, i32 0, i32 1
  store i32 1, i32* %840, align 8
  %vptr420 = alloca %"cls.acjs::JsVariant", align 8
  %841 = bitcast %"cls.acjs::JsVariant"* %vptr420 to i32 (...)***
  store i32 (...)** bitcast (i8*** @_ZTVN14altered_carbon2js9JsVariantE_GEP to i32 (...)**), i32 (...)*** %841, align 8
  %842 = getelementptr inbounds %"cls.acjs::JsVariant", %"cls.acjs::JsVariant"* %vptr420, i32 0, i32 1
  store i32 1, i32* %842, align 8
  %vptr421 = alloca %"cls.acjs::JsVariant", align 8
  %843 = bitcast %"cls.acjs::JsVariant"* %vptr421 to i32 (...)***
  store i32 (...)** bitcast (i8*** @_ZTVN14altered_carbon2js9JsVariantE_GEP to i32 (...)**), i32 (...)*** %843, align 8
  %844 = getelementptr inbounds %"cls.acjs::JsVariant", %"cls.acjs::JsVariant"* %vptr421, i32 0, i32 1
  store i32 1, i32* %844, align 8
  %vptr422 = alloca %"cls.acjs::JsVariant", align 8
  %845 = bitcast %"cls.acjs::JsVariant"* %vptr422 to i32 (...)***
  store i32 (...)** bitcast (i8*** @_ZTVN14altered_carbon2js9JsVariantE_GEP to i32 (...)**), i32 (...)*** %845, align 8
  %846 = getelementptr inbounds %"cls.acjs::JsVariant", %"cls.acjs::JsVariant"* %vptr422, i32 0, i32 1
  store i32 1, i32* %846, align 8
  %vptr423 = alloca %"cls.acjs::JsVariant", align 8
  %847 = bitcast %"cls.acjs::JsVariant"* %vptr423 to i32 (...)***
  store i32 (...)** bitcast (i8*** @_ZTVN14altered_carbon2js9JsVariantE_GEP to i32 (...)**), i32 (...)*** %847, align 8
  %848 = getelementptr inbounds %"cls.acjs::JsVariant", %"cls.acjs::JsVariant"* %vptr423, i32 0, i32 1
  store i32 1, i32* %848, align 8
  %vptr424 = alloca %"cls.acjs::JsVariant", align 8
  %849 = bitcast %"cls.acjs::JsVariant"* %vptr424 to i32 (...)***
  store i32 (...)** bitcast (i8*** @_ZTVN14altered_carbon2js9JsVariantE_GEP to i32 (...)**), i32 (...)*** %849, align 8
  %850 = getelementptr inbounds %"cls.acjs::JsVariant", %"cls.acjs::JsVariant"* %vptr424, i32 0, i32 1
  store i32 1, i32* %850, align 8
  %vptr425 = alloca %"cls.acjs::JsVariant", align 8
  %851 = bitcast %"cls.acjs::JsVariant"* %vptr425 to i32 (...)***
  store i32 (...)** bitcast (i8*** @_ZTVN14altered_carbon2js9JsVariantE_GEP to i32 (...)**), i32 (...)*** %851, align 8
  %852 = getelementptr inbounds %"cls.acjs::JsVariant", %"cls.acjs::JsVariant"* %vptr425, i32 0, i32 1
  store i32 1, i32* %852, align 8
  %vptr426 = alloca %"cls.acjs::JsVariant", align 8
  %853 = bitcast %"cls.acjs::JsVariant"* %vptr426 to i32 (...)***
  store i32 (...)** bitcast (i8*** @_ZTVN14altered_carbon2js9JsVariantE_GEP to i32 (...)**), i32 (...)*** %853, align 8
  %854 = getelementptr inbounds %"cls.acjs::JsVariant", %"cls.acjs::JsVariant"* %vptr426, i32 0, i32 1
  store i32 1, i32* %854, align 8
  %vptr427 = alloca %"cls.acjs::JsVariant", align 8
  %855 = bitcast %"cls.acjs::JsVariant"* %vptr427 to i32 (...)***
  store i32 (...)** bitcast (i8*** @_ZTVN14altered_carbon2js9JsVariantE_GEP to i32 (...)**), i32 (...)*** %855, align 8
  %856 = getelementptr inbounds %"cls.acjs::JsVariant", %"cls.acjs::JsVariant"* %vptr427, i32 0, i32 1
  store i32 1, i32* %856, align 8
  %vptr428 = alloca %"cls.acjs::JsVariant", align 8
  %857 = bitcast %"cls.acjs::JsVariant"* %vptr428 to i32 (...)***
  store i32 (...)** bitcast (i8*** @_ZTVN14altered_carbon2js9JsVariantE_GEP to i32 (...)**), i32 (...)*** %857, align 8
  %858 = getelementptr inbounds %"cls.acjs::JsVariant", %"cls.acjs::JsVariant"* %vptr428, i32 0, i32 1
  store i32 1, i32* %858, align 8
  %vptr429 = alloca %"cls.acjs::JsVariant", align 8
  %859 = bitcast %"cls.acjs::JsVariant"* %vptr429 to i32 (...)***
  store i32 (...)** bitcast (i8*** @_ZTVN14altered_carbon2js9JsVariantE_GEP to i32 (...)**), i32 (...)*** %859, align 8
  %860 = getelementptr inbounds %"cls.acjs::JsVariant", %"cls.acjs::JsVariant"* %vptr429, i32 0, i32 1
  store i32 1, i32* %860, align 8
  %vptr430 = alloca %"cls.acjs::JsVariant", align 8
  %861 = bitcast %"cls.acjs::JsVariant"* %vptr430 to i32 (...)***
  store i32 (...)** bitcast (i8*** @_ZTVN14altered_carbon2js9JsVariantE_GEP to i32 (...)**), i32 (...)*** %861, align 8
  %862 = getelementptr inbounds %"cls.acjs::JsVariant", %"cls.acjs::JsVariant"* %vptr430, i32 0, i32 1
  store i32 1, i32* %862, align 8
  %vptr431 = alloca %"cls.acjs::JsVariant", align 8
  %863 = bitcast %"cls.acjs::JsVariant"* %vptr431 to i32 (...)***
  store i32 (...)** bitcast (i8*** @_ZTVN14altered_carbon2js9JsVariantE_GEP to i32 (...)**), i32 (...)*** %863, align 8
  %864 = getelementptr inbounds %"cls.acjs::JsVariant", %"cls.acjs::JsVariant"* %vptr431, i32 0, i32 1
  store i32 1, i32* %864, align 8
  %vptr432 = alloca %"cls.acjs::JsVariant", align 8
  %865 = bitcast %"cls.acjs::JsVariant"* %vptr432 to i32 (...)***
  store i32 (...)** bitcast (i8*** @_ZTVN14altered_carbon2js9JsVariantE_GEP to i32 (...)**), i32 (...)*** %865, align 8
  %866 = getelementptr inbounds %"cls.acjs::JsVariant", %"cls.acjs::JsVariant"* %vptr432, i32 0, i32 1
  store i32 1, i32* %866, align 8
  %vptr433 = alloca %"cls.acjs::JsVariant", align 8
  %867 = bitcast %"cls.acjs::JsVariant"* %vptr433 to i32 (...)***
  store i32 (...)** bitcast (i8*** @_ZTVN14altered_carbon2js9JsVariantE_GEP to i32 (...)**), i32 (...)*** %867, align 8
  %868 = getelementptr inbounds %"cls.acjs::JsVariant", %"cls.acjs::JsVariant"* %vptr433, i32 0, i32 1
  store i32 1, i32* %868, align 8
  %vptr434 = alloca %"cls.acjs::JsVariant", align 8
  %869 = bitcast %"cls.acjs::JsVariant"* %vptr434 to i32 (...)***
  store i32 (...)** bitcast (i8*** @_ZTVN14altered_carbon2js9JsVariantE_GEP to i32 (...)**), i32 (...)*** %869, align 8
  %870 = getelementptr inbounds %"cls.acjs::JsVariant", %"cls.acjs::JsVariant"* %vptr434, i32 0, i32 1
  store i32 1, i32* %870, align 8
  %vptr435 = alloca %"cls.acjs::JsVariant", align 8
  %871 = bitcast %"cls.acjs::JsVariant"* %vptr435 to i32 (...)***
  store i32 (...)** bitcast (i8*** @_ZTVN14altered_carbon2js9JsVariantE_GEP to i32 (...)**), i32 (...)*** %871, align 8
  %872 = getelementptr inbounds %"cls.acjs::JsVariant", %"cls.acjs::JsVariant"* %vptr435, i32 0, i32 1
  store i32 1, i32* %872, align 8
  %vptr436 = alloca %"cls.acjs::JsVariant", align 8
  %873 = bitcast %"cls.acjs::JsVariant"* %vptr436 to i32 (...)***
  store i32 (...)** bitcast (i8*** @_ZTVN14altered_carbon2js9JsVariantE_GEP to i32 (...)**), i32 (...)*** %873, align 8
  %874 = getelementptr inbounds %"cls.acjs::JsVariant", %"cls.acjs::JsVariant"* %vptr436, i32 0, i32 1
  store i32 1, i32* %874, align 8
  %vptr437 = alloca %"cls.acjs::JsVariant", align 8
  %875 = bitcast %"cls.acjs::JsVariant"* %vptr437 to i32 (...)***
  store i32 (...)** bitcast (i8*** @_ZTVN14altered_carbon2js9JsVariantE_GEP to i32 (...)**), i32 (...)*** %875, align 8
  %876 = getelementptr inbounds %"cls.acjs::JsVariant", %"cls.acjs::JsVariant"* %vptr437, i32 0, i32 1
  store i32 1, i32* %876, align 8
  %vptr438 = alloca %"cls.acjs::JsVariant", align 8
  %877 = bitcast %"cls.acjs::JsVariant"* %vptr438 to i32 (...)***
  store i32 (...)** bitcast (i8*** @_ZTVN14altered_carbon2js9JsVariantE_GEP to i32 (...)**), i32 (...)*** %877, align 8
  %878 = getelementptr inbounds %"cls.acjs::JsVariant", %"cls.acjs::JsVariant"* %vptr438, i32 0, i32 1
  store i32 1, i32* %878, align 8
  %vptr439 = alloca %"cls.acjs::JsVariant", align 8
  %879 = bitcast %"cls.acjs::JsVariant"* %vptr439 to i32 (...)***
  store i32 (...)** bitcast (i8*** @_ZTVN14altered_carbon2js9JsVariantE_GEP to i32 (...)**), i32 (...)*** %879, align 8
  %880 = getelementptr inbounds %"cls.acjs::JsVariant", %"cls.acjs::JsVariant"* %vptr439, i32 0, i32 1
  store i32 1, i32* %880, align 8
  %vptr440 = alloca %"cls.acjs::JsVariant", align 8
  %881 = bitcast %"cls.acjs::JsVariant"* %vptr440 to i32 (...)***
  store i32 (...)** bitcast (i8*** @_ZTVN14altered_carbon2js9JsVariantE_GEP to i32 (...)**), i32 (...)*** %881, align 8
  %882 = getelementptr inbounds %"cls.acjs::JsVariant", %"cls.acjs::JsVariant"* %vptr440, i32 0, i32 1
  store i32 1, i32* %882, align 8
  %vptr441 = alloca %"cls.acjs::JsVariant", align 8
  %883 = bitcast %"cls.acjs::JsVariant"* %vptr441 to i32 (...)***
  store i32 (...)** bitcast (i8*** @_ZTVN14altered_carbon2js9JsVariantE_GEP to i32 (...)**), i32 (...)*** %883, align 8
  %884 = getelementptr inbounds %"cls.acjs::JsVariant", %"cls.acjs::JsVariant"* %vptr441, i32 0, i32 1
  store i32 1, i32* %884, align 8
  %vptr442 = alloca %"cls.acjs::JsVariant", align 8
  %885 = bitcast %"cls.acjs::JsVariant"* %vptr442 to i32 (...)***
  store i32 (...)** bitcast (i8*** @_ZTVN14altered_carbon2js9JsVariantE_GEP to i32 (...)**), i32 (...)*** %885, align 8
  %886 = getelementptr inbounds %"cls.acjs::JsVariant", %"cls.acjs::JsVariant"* %vptr442, i32 0, i32 1
  store i32 1, i32* %886, align 8
  %vptr443 = alloca %"cls.acjs::JsVariant", align 8
  %887 = bitcast %"cls.acjs::JsVariant"* %vptr443 to i32 (...)***
  store i32 (...)** bitcast (i8*** @_ZTVN14altered_carbon2js9JsVariantE_GEP to i32 (...)**), i32 (...)*** %887, align 8
  %888 = getelementptr inbounds %"cls.acjs::JsVariant", %"cls.acjs::JsVariant"* %vptr443, i32 0, i32 1
  store i32 1, i32* %888, align 8
  %vptr444 = alloca %"cls.acjs::JsVariant", align 8
  %889 = bitcast %"cls.acjs::JsVariant"* %vptr444 to i32 (...)***
  store i32 (...)** bitcast (i8*** @_ZTVN14altered_carbon2js9JsVariantE_GEP to i32 (...)**), i32 (...)*** %889, align 8
  %890 = getelementptr inbounds %"cls.acjs::JsVariant", %"cls.acjs::JsVariant"* %vptr444, i32 0, i32 1
  store i32 1, i32* %890, align 8
  %vptr445 = alloca %"cls.acjs::JsVariant", align 8
  %891 = bitcast %"cls.acjs::JsVariant"* %vptr445 to i32 (...)***
  store i32 (...)** bitcast (i8*** @_ZTVN14altered_carbon2js9JsVariantE_GEP to i32 (...)**), i32 (...)*** %891, align 8
  %892 = getelementptr inbounds %"cls.acjs::JsVariant", %"cls.acjs::JsVariant"* %vptr445, i32 0, i32 1
  store i32 1, i32* %892, align 8
  %vptr446 = alloca %"cls.acjs::JsVariant", align 8
  %893 = bitcast %"cls.acjs::JsVariant"* %vptr446 to i32 (...)***
  store i32 (...)** bitcast (i8*** @_ZTVN14altered_carbon2js9JsVariantE_GEP to i32 (...)**), i32 (...)*** %893, align 8
  %894 = getelementptr inbounds %"cls.acjs::JsVariant", %"cls.acjs::JsVariant"* %vptr446, i32 0, i32 1
  store i32 1, i32* %894, align 8
  %vptr447 = alloca %"cls.acjs::JsVariant", align 8
  %895 = bitcast %"cls.acjs::JsVariant"* %vptr447 to i32 (...)***
  store i32 (...)** bitcast (i8*** @_ZTVN14altered_carbon2js9JsVariantE_GEP to i32 (...)**), i32 (...)*** %895, align 8
  %896 = getelementptr inbounds %"cls.acjs::JsVariant", %"cls.acjs::JsVariant"* %vptr447, i32 0, i32 1
  store i32 1, i32* %896, align 8
  %vptr448 = alloca %"cls.acjs::JsVariant", align 8
  %897 = bitcast %"cls.acjs::JsVariant"* %vptr448 to i32 (...)***
  store i32 (...)** bitcast (i8*** @_ZTVN14altered_carbon2js9JsVariantE_GEP to i32 (...)**), i32 (...)*** %897, align 8
  %898 = getelementptr inbounds %"cls.acjs::JsVariant", %"cls.acjs::JsVariant"* %vptr448, i32 0, i32 1
  store i32 1, i32* %898, align 8
  %vptr449 = alloca %"cls.acjs::JsVariant", align 8
  %899 = bitcast %"cls.acjs::JsVariant"* %vptr449 to i32 (...)***
  store i32 (...)** bitcast (i8*** @_ZTVN14altered_carbon2js9JsVariantE_GEP to i32 (...)**), i32 (...)*** %899, align 8
  %900 = getelementptr inbounds %"cls.acjs::JsVariant", %"cls.acjs::JsVariant"* %vptr449, i32 0, i32 1
  store i32 1, i32* %900, align 8
  %vptr450 = alloca %"cls.acjs::JsVariant", align 8
  %901 = bitcast %"cls.acjs::JsVariant"* %vptr450 to i32 (...)***
  store i32 (...)** bitcast (i8*** @_ZTVN14altered_carbon2js9JsVariantE_GEP to i32 (...)**), i32 (...)*** %901, align 8
  %902 = getelementptr inbounds %"cls.acjs::JsVariant", %"cls.acjs::JsVariant"* %vptr450, i32 0, i32 1
  store i32 1, i32* %902, align 8
  %vptr451 = alloca %"cls.acjs::JsVariant", align 8
  %903 = bitcast %"cls.acjs::JsVariant"* %vptr451 to i32 (...)***
  store i32 (...)** bitcast (i8*** @_ZTVN14altered_carbon2js9JsVariantE_GEP to i32 (...)**), i32 (...)*** %903, align 8
  %904 = getelementptr inbounds %"cls.acjs::JsVariant", %"cls.acjs::JsVariant"* %vptr451, i32 0, i32 1
  store i32 1, i32* %904, align 8
  %vptr452 = alloca %"cls.acjs::JsVariant", align 8
  %905 = bitcast %"cls.acjs::JsVariant"* %vptr452 to i32 (...)***
  store i32 (...)** bitcast (i8*** @_ZTVN14altered_carbon2js9JsVariantE_GEP to i32 (...)**), i32 (...)*** %905, align 8
  %906 = getelementptr inbounds %"cls.acjs::JsVariant", %"cls.acjs::JsVariant"* %vptr452, i32 0, i32 1
  store i32 1, i32* %906, align 8
  %vptr453 = alloca %"cls.acjs::JsVariant", align 8
  %907 = bitcast %"cls.acjs::JsVariant"* %vptr453 to i32 (...)***
  store i32 (...)** bitcast (i8*** @_ZTVN14altered_carbon2js9JsVariantE_GEP to i32 (...)**), i32 (...)*** %907, align 8
  %908 = getelementptr inbounds %"cls.acjs::JsVariant", %"cls.acjs::JsVariant"* %vptr453, i32 0, i32 1
  store i32 1, i32* %908, align 8
  %vptr454 = alloca %"cls.acjs::JsVariant", align 8
  %909 = bitcast %"cls.acjs::JsVariant"* %vptr454 to i32 (...)***
  store i32 (...)** bitcast (i8*** @_ZTVN14altered_carbon2js9JsVariantE_GEP to i32 (...)**), i32 (...)*** %909, align 8
  %910 = getelementptr inbounds %"cls.acjs::JsVariant", %"cls.acjs::JsVariant"* %vptr454, i32 0, i32 1
  store i32 1, i32* %910, align 8
  %vptr455 = alloca %"cls.acjs::JsVariant", align 8
  %911 = bitcast %"cls.acjs::JsVariant"* %vptr455 to i32 (...)***
  store i32 (...)** bitcast (i8*** @_ZTVN14altered_carbon2js9JsVariantE_GEP to i32 (...)**), i32 (...)*** %911, align 8
  %912 = getelementptr inbounds %"cls.acjs::JsVariant", %"cls.acjs::JsVariant"* %vptr455, i32 0, i32 1
  store i32 1, i32* %912, align 8
  %vptr456 = alloca %"cls.acjs::JsVariant", align 8
  %913 = bitcast %"cls.acjs::JsVariant"* %vptr456 to i32 (...)***
  store i32 (...)** bitcast (i8*** @_ZTVN14altered_carbon2js9JsVariantE_GEP to i32 (...)**), i32 (...)*** %913, align 8
  %914 = getelementptr inbounds %"cls.acjs::JsVariant", %"cls.acjs::JsVariant"* %vptr456, i32 0, i32 1
  store i32 1, i32* %914, align 8
  %vptr457 = alloca %"cls.acjs::JsVariant", align 8
  %915 = bitcast %"cls.acjs::JsVariant"* %vptr457 to i32 (...)***
  store i32 (...)** bitcast (i8*** @_ZTVN14altered_carbon2js9JsVariantE_GEP to i32 (...)**), i32 (...)*** %915, align 8
  %916 = getelementptr inbounds %"cls.acjs::JsVariant", %"cls.acjs::JsVariant"* %vptr457, i32 0, i32 1
  store i32 1, i32* %916, align 8
  %vptr458 = alloca %"cls.acjs::JsVariant", align 8
  %917 = bitcast %"cls.acjs::JsVariant"* %vptr458 to i32 (...)***
  store i32 (...)** bitcast (i8*** @_ZTVN14altered_carbon2js9JsVariantE_GEP to i32 (...)**), i32 (...)*** %917, align 8
  %918 = getelementptr inbounds %"cls.acjs::JsVariant", %"cls.acjs::JsVariant"* %vptr458, i32 0, i32 1
  store i32 1, i32* %918, align 8
  %vptr459 = alloca %"cls.acjs::JsVariant", align 8
  %919 = bitcast %"cls.acjs::JsVariant"* %vptr459 to i32 (...)***
  store i32 (...)** bitcast (i8*** @_ZTVN14altered_carbon2js9JsVariantE_GEP to i32 (...)**), i32 (...)*** %919, align 8
  %920 = getelementptr inbounds %"cls.acjs::JsVariant", %"cls.acjs::JsVariant"* %vptr459, i32 0, i32 1
  store i32 1, i32* %920, align 8
  %vptr460 = alloca %"cls.acjs::JsVariant", align 8
  %921 = bitcast %"cls.acjs::JsVariant"* %vptr460 to i32 (...)***
  store i32 (...)** bitcast (i8*** @_ZTVN14altered_carbon2js9JsVariantE_GEP to i32 (...)**), i32 (...)*** %921, align 8
  %922 = getelementptr inbounds %"cls.acjs::JsVariant", %"cls.acjs::JsVariant"* %vptr460, i32 0, i32 1
  store i32 1, i32* %922, align 8
  %vptr461 = alloca %"cls.acjs::JsVariant", align 8
  %923 = bitcast %"cls.acjs::JsVariant"* %vptr461 to i32 (...)***
  store i32 (...)** bitcast (i8*** @_ZTVN14altered_carbon2js9JsVariantE_GEP to i32 (...)**), i32 (...)*** %923, align 8
  %924 = getelementptr inbounds %"cls.acjs::JsVariant", %"cls.acjs::JsVariant"* %vptr461, i32 0, i32 1
  store i32 1, i32* %924, align 8
  %vptr462 = alloca %"cls.acjs::JsVariant", align 8
  %925 = bitcast %"cls.acjs::JsVariant"* %vptr462 to i32 (...)***
  store i32 (...)** bitcast (i8*** @_ZTVN14altered_carbon2js9JsVariantE_GEP to i32 (...)**), i32 (...)*** %925, align 8
  %926 = getelementptr inbounds %"cls.acjs::JsVariant", %"cls.acjs::JsVariant"* %vptr462, i32 0, i32 1
  store i32 1, i32* %926, align 8
  %vptr463 = alloca %"cls.acjs::JsVariant", align 8
  %927 = bitcast %"cls.acjs::JsVariant"* %vptr463 to i32 (...)***
  store i32 (...)** bitcast (i8*** @_ZTVN14altered_carbon2js9JsVariantE_GEP to i32 (...)**), i32 (...)*** %927, align 8
  %928 = getelementptr inbounds %"cls.acjs::JsVariant", %"cls.acjs::JsVariant"* %vptr463, i32 0, i32 1
  store i32 1, i32* %928, align 8
  %vptr464 = alloca %"cls.acjs::JsVariant", align 8
  %929 = bitcast %"cls.acjs::JsVariant"* %vptr464 to i32 (...)***
  store i32 (...)** bitcast (i8*** @_ZTVN14altered_carbon2js9JsVariantE_GEP to i32 (...)**), i32 (...)*** %929, align 8
  %930 = getelementptr inbounds %"cls.acjs::JsVariant", %"cls.acjs::JsVariant"* %vptr464, i32 0, i32 1
  store i32 1, i32* %930, align 8
  %vptr465 = alloca %"cls.acjs::JsVariant", align 8
  %931 = bitcast %"cls.acjs::JsVariant"* %vptr465 to i32 (...)***
  store i32 (...)** bitcast (i8*** @_ZTVN14altered_carbon2js9JsVariantE_GEP to i32 (...)**), i32 (...)*** %931, align 8
  %932 = getelementptr inbounds %"cls.acjs::JsVariant", %"cls.acjs::JsVariant"* %vptr465, i32 0, i32 1
  store i32 1, i32* %932, align 8
  %vptr466 = alloca %"cls.acjs::JsVariant", align 8
  %933 = bitcast %"cls.acjs::JsVariant"* %vptr466 to i32 (...)***
  store i32 (...)** bitcast (i8*** @_ZTVN14altered_carbon2js9JsVariantE_GEP to i32 (...)**), i32 (...)*** %933, align 8
  %934 = getelementptr inbounds %"cls.acjs::JsVariant", %"cls.acjs::JsVariant"* %vptr466, i32 0, i32 1
  store i32 1, i32* %934, align 8
  %vptr467 = alloca %"cls.acjs::JsVariant", align 8
  %935 = bitcast %"cls.acjs::JsVariant"* %vptr467 to i32 (...)***
  store i32 (...)** bitcast (i8*** @_ZTVN14altered_carbon2js9JsVariantE_GEP to i32 (...)**), i32 (...)*** %935, align 8
  %936 = getelementptr inbounds %"cls.acjs::JsVariant", %"cls.acjs::JsVariant"* %vptr467, i32 0, i32 1
  store i32 1, i32* %936, align 8
  %vptr468 = alloca %"cls.acjs::JsVariant", align 8
  %937 = bitcast %"cls.acjs::JsVariant"* %vptr468 to i32 (...)***
  store i32 (...)** bitcast (i8*** @_ZTVN14altered_carbon2js9JsVariantE_GEP to i32 (...)**), i32 (...)*** %937, align 8
  %938 = getelementptr inbounds %"cls.acjs::JsVariant", %"cls.acjs::JsVariant"* %vptr468, i32 0, i32 1
  store i32 1, i32* %938, align 8
  %vptr469 = alloca %"cls.acjs::JsVariant", align 8
  %939 = bitcast %"cls.acjs::JsVariant"* %vptr469 to i32 (...)***
  store i32 (...)** bitcast (i8*** @_ZTVN14altered_carbon2js9JsVariantE_GEP to i32 (...)**), i32 (...)*** %939, align 8
  %940 = getelementptr inbounds %"cls.acjs::JsVariant", %"cls.acjs::JsVariant"* %vptr469, i32 0, i32 1
  store i32 1, i32* %940, align 8
  %vptr470 = alloca %"cls.acjs::JsVariant", align 8
  %941 = bitcast %"cls.acjs::JsVariant"* %vptr470 to i32 (...)***
  store i32 (...)** bitcast (i8*** @_ZTVN14altered_carbon2js9JsVariantE_GEP to i32 (...)**), i32 (...)*** %941, align 8
  %942 = getelementptr inbounds %"cls.acjs::JsVariant", %"cls.acjs::JsVariant"* %vptr470, i32 0, i32 1
  store i32 1, i32* %942, align 8
  %vptr471 = alloca %"cls.acjs::JsVariant", align 8
  %943 = bitcast %"cls.acjs::JsVariant"* %vptr471 to i32 (...)***
  store i32 (...)** bitcast (i8*** @_ZTVN14altered_carbon2js9JsVariantE_GEP to i32 (...)**), i32 (...)*** %943, align 8
  %944 = getelementptr inbounds %"cls.acjs::JsVariant", %"cls.acjs::JsVariant"* %vptr471, i32 0, i32 1
  store i32 1, i32* %944, align 8
  %vptr472 = alloca %"cls.acjs::JsVariant", align 8
  %945 = bitcast %"cls.acjs::JsVariant"* %vptr472 to i32 (...)***
  store i32 (...)** bitcast (i8*** @_ZTVN14altered_carbon2js9JsVariantE_GEP to i32 (...)**), i32 (...)*** %945, align 8
  %946 = getelementptr inbounds %"cls.acjs::JsVariant", %"cls.acjs::JsVariant"* %vptr472, i32 0, i32 1
  store i32 1, i32* %946, align 8
  %vptr473 = alloca %"cls.acjs::JsVariant", align 8
  %947 = bitcast %"cls.acjs::JsVariant"* %vptr473 to i32 (...)***
  store i32 (...)** bitcast (i8*** @_ZTVN14altered_carbon2js9JsVariantE_GEP to i32 (...)**), i32 (...)*** %947, align 8
  %948 = getelementptr inbounds %"cls.acjs::JsVariant", %"cls.acjs::JsVariant"* %vptr473, i32 0, i32 1
  store i32 1, i32* %948, align 8
  %vptr474 = alloca %"cls.acjs::JsVariant", align 8
  %949 = bitcast %"cls.acjs::JsVariant"* %vptr474 to i32 (...)***
  store i32 (...)** bitcast (i8*** @_ZTVN14altered_carbon2js9JsVariantE_GEP to i32 (...)**), i32 (...)*** %949, align 8
  %950 = getelementptr inbounds %"cls.acjs::JsVariant", %"cls.acjs::JsVariant"* %vptr474, i32 0, i32 1
  store i32 1, i32* %950, align 8
  %vptr475 = alloca %"cls.acjs::JsVariant", align 8
  %951 = bitcast %"cls.acjs::JsVariant"* %vptr475 to i32 (...)***
  store i32 (...)** bitcast (i8*** @_ZTVN14altered_carbon2js9JsVariantE_GEP to i32 (...)**), i32 (...)*** %951, align 8
  %952 = getelementptr inbounds %"cls.acjs::JsVariant", %"cls.acjs::JsVariant"* %vptr475, i32 0, i32 1
  store i32 1, i32* %952, align 8
  %vptr476 = alloca %"cls.acjs::JsVariant", align 8
  %953 = bitcast %"cls.acjs::JsVariant"* %vptr476 to i32 (...)***
  store i32 (...)** bitcast (i8*** @_ZTVN14altered_carbon2js9JsVariantE_GEP to i32 (...)**), i32 (...)*** %953, align 8
  %954 = getelementptr inbounds %"cls.acjs::JsVariant", %"cls.acjs::JsVariant"* %vptr476, i32 0, i32 1
  store i32 1, i32* %954, align 8
  %vptr477 = alloca %"cls.acjs::JsVariant", align 8
  %955 = bitcast %"cls.acjs::JsVariant"* %vptr477 to i32 (...)***
  store i32 (...)** bitcast (i8*** @_ZTVN14altered_carbon2js9JsVariantE_GEP to i32 (...)**), i32 (...)*** %955, align 8
  %956 = getelementptr inbounds %"cls.acjs::JsVariant", %"cls.acjs::JsVariant"* %vptr477, i32 0, i32 1
  store i32 1, i32* %956, align 8
  %vptr478 = alloca %"cls.acjs::JsVariant", align 8
  %957 = bitcast %"cls.acjs::JsVariant"* %vptr478 to i32 (...)***
  store i32 (...)** bitcast (i8*** @_ZTVN14altered_carbon2js9JsVariantE_GEP to i32 (...)**), i32 (...)*** %957, align 8
  %958 = getelementptr inbounds %"cls.acjs::JsVariant", %"cls.acjs::JsVariant"* %vptr478, i32 0, i32 1
  store i32 1, i32* %958, align 8
  %vptr479 = alloca %"cls.acjs::JsVariant", align 8
  %959 = bitcast %"cls.acjs::JsVariant"* %vptr479 to i32 (...)***
  store i32 (...)** bitcast (i8*** @_ZTVN14altered_carbon2js9JsVariantE_GEP to i32 (...)**), i32 (...)*** %959, align 8
  %960 = getelementptr inbounds %"cls.acjs::JsVariant", %"cls.acjs::JsVariant"* %vptr479, i32 0, i32 1
  store i32 1, i32* %960, align 8
  %vptr480 = alloca %"cls.acjs::JsVariant", align 8
  %961 = bitcast %"cls.acjs::JsVariant"* %vptr480 to i32 (...)***
  store i32 (...)** bitcast (i8*** @_ZTVN14altered_carbon2js9JsVariantE_GEP to i32 (...)**), i32 (...)*** %961, align 8
  %962 = getelementptr inbounds %"cls.acjs::JsVariant", %"cls.acjs::JsVariant"* %vptr480, i32 0, i32 1
  store i32 1, i32* %962, align 8
  %vptr481 = alloca %"cls.acjs::JsVariant", align 8
  %963 = bitcast %"cls.acjs::JsVariant"* %vptr481 to i32 (...)***
  store i32 (...)** bitcast (i8*** @_ZTVN14altered_carbon2js9JsVariantE_GEP to i32 (...)**), i32 (...)*** %963, align 8
  %964 = getelementptr inbounds %"cls.acjs::JsVariant", %"cls.acjs::JsVariant"* %vptr481, i32 0, i32 1
  store i32 1, i32* %964, align 8
  %vptr482 = alloca %"cls.acjs::JsVariant", align 8
  %965 = bitcast %"cls.acjs::JsVariant"* %vptr482 to i32 (...)***
  store i32 (...)** bitcast (i8*** @_ZTVN14altered_carbon2js9JsVariantE_GEP to i32 (...)**), i32 (...)*** %965, align 8
  %966 = getelementptr inbounds %"cls.acjs::JsVariant", %"cls.acjs::JsVariant"* %vptr482, i32 0, i32 1
  store i32 1, i32* %966, align 8
  %vptr483 = alloca %"cls.acjs::JsVariant", align 8
  %967 = bitcast %"cls.acjs::JsVariant"* %vptr483 to i32 (...)***
  store i32 (...)** bitcast (i8*** @_ZTVN14altered_carbon2js9JsVariantE_GEP to i32 (...)**), i32 (...)*** %967, align 8
  %968 = getelementptr inbounds %"cls.acjs::JsVariant", %"cls.acjs::JsVariant"* %vptr483, i32 0, i32 1
  store i32 1, i32* %968, align 8
  %vptr484 = alloca %"cls.acjs::JsVariant", align 8
  %969 = bitcast %"cls.acjs::JsVariant"* %vptr484 to i32 (...)***
  store i32 (...)** bitcast (i8*** @_ZTVN14altered_carbon2js9JsVariantE_GEP to i32 (...)**), i32 (...)*** %969, align 8
  %970 = getelementptr inbounds %"cls.acjs::JsVariant", %"cls.acjs::JsVariant"* %vptr484, i32 0, i32 1
  store i32 1, i32* %970, align 8
  %vptr485 = alloca %"cls.acjs::JsVariant", align 8
  %971 = bitcast %"cls.acjs::JsVariant"* %vptr485 to i32 (...)***
  store i32 (...)** bitcast (i8*** @_ZTVN14altered_carbon2js9JsVariantE_GEP to i32 (...)**), i32 (...)*** %971, align 8
  %972 = getelementptr inbounds %"cls.acjs::JsVariant", %"cls.acjs::JsVariant"* %vptr485, i32 0, i32 1
  store i32 1, i32* %972, align 8
  %vptr486 = alloca %"cls.acjs::JsVariant", align 8
  %973 = bitcast %"cls.acjs::JsVariant"* %vptr486 to i32 (...)***
  store i32 (...)** bitcast (i8*** @_ZTVN14altered_carbon2js9JsVariantE_GEP to i32 (...)**), i32 (...)*** %973, align 8
  %974 = getelementptr inbounds %"cls.acjs::JsVariant", %"cls.acjs::JsVariant"* %vptr486, i32 0, i32 1
  store i32 1, i32* %974, align 8
  %vptr487 = alloca %"cls.acjs::JsVariant", align 8
  %975 = bitcast %"cls.acjs::JsVariant"* %vptr487 to i32 (...)***
  store i32 (...)** bitcast (i8*** @_ZTVN14altered_carbon2js9JsVariantE_GEP to i32 (...)**), i32 (...)*** %975, align 8
  %976 = getelementptr inbounds %"cls.acjs::JsVariant", %"cls.acjs::JsVariant"* %vptr487, i32 0, i32 1
  store i32 1, i32* %976, align 8
  %vptr488 = alloca %"cls.acjs::JsVariant", align 8
  %977 = bitcast %"cls.acjs::JsVariant"* %vptr488 to i32 (...)***
  store i32 (...)** bitcast (i8*** @_ZTVN14altered_carbon2js9JsVariantE_GEP to i32 (...)**), i32 (...)*** %977, align 8
  %978 = getelementptr inbounds %"cls.acjs::JsVariant", %"cls.acjs::JsVariant"* %vptr488, i32 0, i32 1
  store i32 1, i32* %978, align 8
  %vptr489 = alloca %"cls.acjs::JsVariant", align 8
  %979 = bitcast %"cls.acjs::JsVariant"* %vptr489 to i32 (...)***
  store i32 (...)** bitcast (i8*** @_ZTVN14altered_carbon2js9JsVariantE_GEP to i32 (...)**), i32 (...)*** %979, align 8
  %980 = getelementptr inbounds %"cls.acjs::JsVariant", %"cls.acjs::JsVariant"* %vptr489, i32 0, i32 1
  store i32 1, i32* %980, align 8
  %vptr490 = alloca %"cls.acjs::JsVariant", align 8
  %981 = bitcast %"cls.acjs::JsVariant"* %vptr490 to i32 (...)***
  store i32 (...)** bitcast (i8*** @_ZTVN14altered_carbon2js9JsVariantE_GEP to i32 (...)**), i32 (...)*** %981, align 8
  %982 = getelementptr inbounds %"cls.acjs::JsVariant", %"cls.acjs::JsVariant"* %vptr490, i32 0, i32 1
  store i32 1, i32* %982, align 8
  %vptr491 = alloca %"cls.acjs::JsVariant", align 8
  %983 = bitcast %"cls.acjs::JsVariant"* %vptr491 to i32 (...)***
  store i32 (...)** bitcast (i8*** @_ZTVN14altered_carbon2js9JsVariantE_GEP to i32 (...)**), i32 (...)*** %983, align 8
  %984 = getelementptr inbounds %"cls.acjs::JsVariant", %"cls.acjs::JsVariant"* %vptr491, i32 0, i32 1
  store i32 1, i32* %984, align 8
  %vptr492 = alloca %"cls.acjs::JsVariant", align 8
  %985 = bitcast %"cls.acjs::JsVariant"* %vptr492 to i32 (...)***
  store i32 (...)** bitcast (i8*** @_ZTVN14altered_carbon2js9JsVariantE_GEP to i32 (...)**), i32 (...)*** %985, align 8
  %986 = getelementptr inbounds %"cls.acjs::JsVariant", %"cls.acjs::JsVariant"* %vptr492, i32 0, i32 1
  store i32 1, i32* %986, align 8
  %vptr493 = alloca %"cls.acjs::JsVariant", align 8
  %987 = bitcast %"cls.acjs::JsVariant"* %vptr493 to i32 (...)***
  store i32 (...)** bitcast (i8*** @_ZTVN14altered_carbon2js9JsVariantE_GEP to i32 (...)**), i32 (...)*** %987, align 8
  %988 = getelementptr inbounds %"cls.acjs::JsVariant", %"cls.acjs::JsVariant"* %vptr493, i32 0, i32 1
  store i32 1, i32* %988, align 8
  %vptr494 = alloca %"cls.acjs::JsVariant", align 8
  %989 = bitcast %"cls.acjs::JsVariant"* %vptr494 to i32 (...)***
  store i32 (...)** bitcast (i8*** @_ZTVN14altered_carbon2js9JsVariantE_GEP to i32 (...)**), i32 (...)*** %989, align 8
  %990 = getelementptr inbounds %"cls.acjs::JsVariant", %"cls.acjs::JsVariant"* %vptr494, i32 0, i32 1
  store i32 1, i32* %990, align 8
  %vptr495 = alloca %"cls.acjs::JsVariant", align 8
  %991 = bitcast %"cls.acjs::JsVariant"* %vptr495 to i32 (...)***
  store i32 (...)** bitcast (i8*** @_ZTVN14altered_carbon2js9JsVariantE_GEP to i32 (...)**), i32 (...)*** %991, align 8
  %992 = getelementptr inbounds %"cls.acjs::JsVariant", %"cls.acjs::JsVariant"* %vptr495, i32 0, i32 1
  store i32 1, i32* %992, align 8
  %vptr496 = alloca %"cls.acjs::JsVariant", align 8
  %993 = bitcast %"cls.acjs::JsVariant"* %vptr496 to i32 (...)***
  store i32 (...)** bitcast (i8*** @_ZTVN14altered_carbon2js9JsVariantE_GEP to i32 (...)**), i32 (...)*** %993, align 8
  %994 = getelementptr inbounds %"cls.acjs::JsVariant", %"cls.acjs::JsVariant"* %vptr496, i32 0, i32 1
  store i32 1, i32* %994, align 8
  %vptr497 = alloca %"cls.acjs::JsVariant", align 8
  %995 = bitcast %"cls.acjs::JsVariant"* %vptr497 to i32 (...)***
  store i32 (...)** bitcast (i8*** @_ZTVN14altered_carbon2js9JsVariantE_GEP to i32 (...)**), i32 (...)*** %995, align 8
  %996 = getelementptr inbounds %"cls.acjs::JsVariant", %"cls.acjs::JsVariant"* %vptr497, i32 0, i32 1
  store i32 1, i32* %996, align 8
  %vptr498 = alloca %"cls.acjs::JsVariant", align 8
  %997 = bitcast %"cls.acjs::JsVariant"* %vptr498 to i32 (...)***
  store i32 (...)** bitcast (i8*** @_ZTVN14altered_carbon2js9JsVariantE_GEP to i32 (...)**), i32 (...)*** %997, align 8
  %998 = getelementptr inbounds %"cls.acjs::JsVariant", %"cls.acjs::JsVariant"* %vptr498, i32 0, i32 1
  store i32 1, i32* %998, align 8
  %vptr499 = alloca %"cls.acjs::JsVariant", align 8
  %999 = bitcast %"cls.acjs::JsVariant"* %vptr499 to i32 (...)***
  store i32 (...)** bitcast (i8*** @_ZTVN14altered_carbon2js9JsVariantE_GEP to i32 (...)**), i32 (...)*** %999, align 8
  %1000 = getelementptr inbounds %"cls.acjs::JsVariant", %"cls.acjs::JsVariant"* %vptr499, i32 0, i32 1
  store i32 1, i32* %1000, align 8
  %vptr500 = alloca %"cls.acjs::JsVariant", align 8
  %1001 = bitcast %"cls.acjs::JsVariant"* %vptr500 to i32 (...)***
  store i32 (...)** bitcast (i8*** @_ZTVN14altered_carbon2js9JsVariantE_GEP to i32 (...)**), i32 (...)*** %1001, align 8
  %1002 = getelementptr inbounds %"cls.acjs::JsVariant", %"cls.acjs::JsVariant"* %vptr500, i32 0, i32 1
  store i32 1, i32* %1002, align 8
  %vptr501 = alloca %"cls.acjs::JsVariant", align 8
  %1003 = bitcast %"cls.acjs::JsVariant"* %vptr501 to i32 (...)***
  store i32 (...)** bitcast (i8*** @_ZTVN14altered_carbon2js9JsVariantE_GEP to i32 (...)**), i32 (...)*** %1003, align 8
  %1004 = getelementptr inbounds %"cls.acjs::JsVariant", %"cls.acjs::JsVariant"* %vptr501, i32 0, i32 1
  store i32 1, i32* %1004, align 8
  %vptr502 = alloca %"cls.acjs::JsVariant", align 8
  %1005 = bitcast %"cls.acjs::JsVariant"* %vptr502 to i32 (...)***
  store i32 (...)** bitcast (i8*** @_ZTVN14altered_carbon2js9JsVariantE_GEP to i32 (...)**), i32 (...)*** %1005, align 8
  %1006 = getelementptr inbounds %"cls.acjs::JsVariant", %"cls.acjs::JsVariant"* %vptr502, i32 0, i32 1
  store i32 1, i32* %1006, align 8
  %vptr503 = alloca %"cls.acjs::JsVariant", align 8
  %1007 = bitcast %"cls.acjs::JsVariant"* %vptr503 to i32 (...)***
  store i32 (...)** bitcast (i8*** @_ZTVN14altered_carbon2js9JsVariantE_GEP to i32 (...)**), i32 (...)*** %1007, align 8
  %1008 = getelementptr inbounds %"cls.acjs::JsVariant", %"cls.acjs::JsVariant"* %vptr503, i32 0, i32 1
  store i32 1, i32* %1008, align 8
  %vptr504 = alloca %"cls.acjs::JsVariant", align 8
  %1009 = bitcast %"cls.acjs::JsVariant"* %vptr504 to i32 (...)***
  store i32 (...)** bitcast (i8*** @_ZTVN14altered_carbon2js9JsVariantE_GEP to i32 (...)**), i32 (...)*** %1009, align 8
  %1010 = getelementptr inbounds %"cls.acjs::JsVariant", %"cls.acjs::JsVariant"* %vptr504, i32 0, i32 1
  store i32 1, i32* %1010, align 8
  %vptr505 = alloca %"cls.acjs::JsVariant", align 8
  %1011 = bitcast %"cls.acjs::JsVariant"* %vptr505 to i32 (...)***
  store i32 (...)** bitcast (i8*** @_ZTVN14altered_carbon2js9JsVariantE_GEP to i32 (...)**), i32 (...)*** %1011, align 8
  %1012 = getelementptr inbounds %"cls.acjs::JsVariant", %"cls.acjs::JsVariant"* %vptr505, i32 0, i32 1
  store i32 1, i32* %1012, align 8
  %vptr506 = alloca %"cls.acjs::JsVariant", align 8
  %1013 = bitcast %"cls.acjs::JsVariant"* %vptr506 to i32 (...)***
  store i32 (...)** bitcast (i8*** @_ZTVN14altered_carbon2js9JsVariantE_GEP to i32 (...)**), i32 (...)*** %1013, align 8
  %1014 = getelementptr inbounds %"cls.acjs::JsVariant", %"cls.acjs::JsVariant"* %vptr506, i32 0, i32 1
  store i32 1, i32* %1014, align 8
  %vptr507 = alloca %"cls.acjs::JsVariant", align 8
  %1015 = bitcast %"cls.acjs::JsVariant"* %vptr507 to i32 (...)***
  store i32 (...)** bitcast (i8*** @_ZTVN14altered_carbon2js9JsVariantE_GEP to i32 (...)**), i32 (...)*** %1015, align 8
  %1016 = getelementptr inbounds %"cls.acjs::JsVariant", %"cls.acjs::JsVariant"* %vptr507, i32 0, i32 1
  store i32 1, i32* %1016, align 8
  %vptr508 = alloca %"cls.acjs::JsVariant", align 8
  %1017 = bitcast %"cls.acjs::JsVariant"* %vptr508 to i32 (...)***
  store i32 (...)** bitcast (i8*** @_ZTVN14altered_carbon2js9JsVariantE_GEP to i32 (...)**), i32 (...)*** %1017, align 8
  %1018 = getelementptr inbounds %"cls.acjs::JsVariant", %"cls.acjs::JsVariant"* %vptr508, i32 0, i32 1
  store i32 1, i32* %1018, align 8
  %vptr509 = alloca %"cls.acjs::JsVariant", align 8
  %1019 = bitcast %"cls.acjs::JsVariant"* %vptr509 to i32 (...)***
  store i32 (...)** bitcast (i8*** @_ZTVN14altered_carbon2js9JsVariantE_GEP to i32 (...)**), i32 (...)*** %1019, align 8
  %1020 = getelementptr inbounds %"cls.acjs::JsVariant", %"cls.acjs::JsVariant"* %vptr509, i32 0, i32 1
  store i32 1, i32* %1020, align 8
  %vptr510 = alloca %"cls.acjs::JsVariant", align 8
  %1021 = bitcast %"cls.acjs::JsVariant"* %vptr510 to i32 (...)***
  store i32 (...)** bitcast (i8*** @_ZTVN14altered_carbon2js9JsVariantE_GEP to i32 (...)**), i32 (...)*** %1021, align 8
  %1022 = getelementptr inbounds %"cls.acjs::JsVariant", %"cls.acjs::JsVariant"* %vptr510, i32 0, i32 1
  store i32 1, i32* %1022, align 8
  %vptr511 = alloca %"cls.acjs::JsVariant", align 8
  %1023 = bitcast %"cls.acjs::JsVariant"* %vptr511 to i32 (...)***
  store i32 (...)** bitcast (i8*** @_ZTVN14altered_carbon2js9JsVariantE_GEP to i32 (...)**), i32 (...)*** %1023, align 8
  %1024 = getelementptr inbounds %"cls.acjs::JsVariant", %"cls.acjs::JsVariant"* %vptr511, i32 0, i32 1
  store i32 1, i32* %1024, align 8
  %vptr512 = alloca %"cls.acjs::JsVariant", align 8
  %1025 = bitcast %"cls.acjs::JsVariant"* %vptr512 to i32 (...)***
  store i32 (...)** bitcast (i8*** @_ZTVN14altered_carbon2js9JsVariantE_GEP to i32 (...)**), i32 (...)*** %1025, align 8
  %1026 = getelementptr inbounds %"cls.acjs::JsVariant", %"cls.acjs::JsVariant"* %vptr512, i32 0, i32 1
  store i32 1, i32* %1026, align 8
  %vptr513 = alloca %"cls.acjs::JsVariant", align 8
  %1027 = bitcast %"cls.acjs::JsVariant"* %vptr513 to i32 (...)***
  store i32 (...)** bitcast (i8*** @_ZTVN14altered_carbon2js9JsVariantE_GEP to i32 (...)**), i32 (...)*** %1027, align 8
  %1028 = getelementptr inbounds %"cls.acjs::JsVariant", %"cls.acjs::JsVariant"* %vptr513, i32 0, i32 1
  store i32 1, i32* %1028, align 8
  %vptr514 = alloca %"cls.acjs::JsVariant", align 8
  %1029 = bitcast %"cls.acjs::JsVariant"* %vptr514 to i32 (...)***
  store i32 (...)** bitcast (i8*** @_ZTVN14altered_carbon2js9JsVariantE_GEP to i32 (...)**), i32 (...)*** %1029, align 8
  %1030 = getelementptr inbounds %"cls.acjs::JsVariant", %"cls.acjs::JsVariant"* %vptr514, i32 0, i32 1
  store i32 1, i32* %1030, align 8
  %vptr515 = alloca %"cls.acjs::JsVariant", align 8
  %1031 = bitcast %"cls.acjs::JsVariant"* %vptr515 to i32 (...)***
  store i32 (...)** bitcast (i8*** @_ZTVN14altered_carbon2js9JsVariantE_GEP to i32 (...)**), i32 (...)*** %1031, align 8
  %1032 = getelementptr inbounds %"cls.acjs::JsVariant", %"cls.acjs::JsVariant"* %vptr515, i32 0, i32 1
  store i32 1, i32* %1032, align 8
  %vptr516 = alloca %"cls.acjs::JsVariant", align 8
  %1033 = bitcast %"cls.acjs::JsVariant"* %vptr516 to i32 (...)***
  store i32 (...)** bitcast (i8*** @_ZTVN14altered_carbon2js9JsVariantE_GEP to i32 (...)**), i32 (...)*** %1033, align 8
  %1034 = getelementptr inbounds %"cls.acjs::JsVariant", %"cls.acjs::JsVariant"* %vptr516, i32 0, i32 1
  store i32 1, i32* %1034, align 8
  %vptr517 = alloca %"cls.acjs::JsVariant", align 8
  %1035 = bitcast %"cls.acjs::JsVariant"* %vptr517 to i32 (...)***
  store i32 (...)** bitcast (i8*** @_ZTVN14altered_carbon2js9JsVariantE_GEP to i32 (...)**), i32 (...)*** %1035, align 8
  %1036 = getelementptr inbounds %"cls.acjs::JsVariant", %"cls.acjs::JsVariant"* %vptr517, i32 0, i32 1
  store i32 1, i32* %1036, align 8
  %vptr518 = alloca %"cls.acjs::JsVariant", align 8
  %1037 = bitcast %"cls.acjs::JsVariant"* %vptr518 to i32 (...)***
  store i32 (...)** bitcast (i8*** @_ZTVN14altered_carbon2js9JsVariantE_GEP to i32 (...)**), i32 (...)*** %1037, align 8
  %1038 = getelementptr inbounds %"cls.acjs::JsVariant", %"cls.acjs::JsVariant"* %vptr518, i32 0, i32 1
  store i32 1, i32* %1038, align 8
  %vptr519 = alloca %"cls.acjs::JsVariant", align 8
  %1039 = bitcast %"cls.acjs::JsVariant"* %vptr519 to i32 (...)***
  store i32 (...)** bitcast (i8*** @_ZTVN14altered_carbon2js9JsVariantE_GEP to i32 (...)**), i32 (...)*** %1039, align 8
  %1040 = getelementptr inbounds %"cls.acjs::JsVariant", %"cls.acjs::JsVariant"* %vptr519, i32 0, i32 1
  store i32 1, i32* %1040, align 8
  %vptr520 = alloca %"cls.acjs::JsVariant", align 8
  %1041 = bitcast %"cls.acjs::JsVariant"* %vptr520 to i32 (...)***
  store i32 (...)** bitcast (i8*** @_ZTVN14altered_carbon2js9JsVariantE_GEP to i32 (...)**), i32 (...)*** %1041, align 8
  %1042 = getelementptr inbounds %"cls.acjs::JsVariant", %"cls.acjs::JsVariant"* %vptr520, i32 0, i32 1
  store i32 1, i32* %1042, align 8
  %vptr521 = alloca %"cls.acjs::JsVariant", align 8
  %1043 = bitcast %"cls.acjs::JsVariant"* %vptr521 to i32 (...)***
  store i32 (...)** bitcast (i8*** @_ZTVN14altered_carbon2js9JsVariantE_GEP to i32 (...)**), i32 (...)*** %1043, align 8
  %1044 = getelementptr inbounds %"cls.acjs::JsVariant", %"cls.acjs::JsVariant"* %vptr521, i32 0, i32 1
  store i32 1, i32* %1044, align 8
  %vptr522 = alloca %"cls.acjs::JsVariant", align 8
  %1045 = bitcast %"cls.acjs::JsVariant"* %vptr522 to i32 (...)***
  store i32 (...)** bitcast (i8*** @_ZTVN14altered_carbon2js9JsVariantE_GEP to i32 (...)**), i32 (...)*** %1045, align 8
  %1046 = getelementptr inbounds %"cls.acjs::JsVariant", %"cls.acjs::JsVariant"* %vptr522, i32 0, i32 1
  store i32 1, i32* %1046, align 8
  %vptr523 = alloca %"cls.acjs::JsVariant", align 8
  %1047 = bitcast %"cls.acjs::JsVariant"* %vptr523 to i32 (...)***
  store i32 (...)** bitcast (i8*** @_ZTVN14altered_carbon2js9JsVariantE_GEP to i32 (...)**), i32 (...)*** %1047, align 8
  %1048 = getelementptr inbounds %"cls.acjs::JsVariant", %"cls.acjs::JsVariant"* %vptr523, i32 0, i32 1
  store i32 1, i32* %1048, align 8
  %vptr524 = alloca %"cls.acjs::JsVariant", align 8
  %1049 = bitcast %"cls.acjs::JsVariant"* %vptr524 to i32 (...)***
  store i32 (...)** bitcast (i8*** @_ZTVN14altered_carbon2js9JsVariantE_GEP to i32 (...)**), i32 (...)*** %1049, align 8
  %1050 = getelementptr inbounds %"cls.acjs::JsVariant", %"cls.acjs::JsVariant"* %vptr524, i32 0, i32 1
  store i32 1, i32* %1050, align 8
  %vptr525 = alloca %"cls.acjs::JsVariant", align 8
  %1051 = bitcast %"cls.acjs::JsVariant"* %vptr525 to i32 (...)***
  store i32 (...)** bitcast (i8*** @_ZTVN14altered_carbon2js9JsVariantE_GEP to i32 (...)**), i32 (...)*** %1051, align 8
  %1052 = getelementptr inbounds %"cls.acjs::JsVariant", %"cls.acjs::JsVariant"* %vptr525, i32 0, i32 1
  store i32 1, i32* %1052, align 8
  %vptr526 = alloca %"cls.acjs::JsVariant", align 8
  %1053 = bitcast %"cls.acjs::JsVariant"* %vptr526 to i32 (...)***
  store i32 (...)** bitcast (i8*** @_ZTVN14altered_carbon2js9JsVariantE_GEP to i32 (...)**), i32 (...)*** %1053, align 8
  %1054 = getelementptr inbounds %"cls.acjs::JsVariant", %"cls.acjs::JsVariant"* %vptr526, i32 0, i32 1
  store i32 1, i32* %1054, align 8
  %vptr527 = alloca %"cls.acjs::JsVariant", align 8
  %1055 = bitcast %"cls.acjs::JsVariant"* %vptr527 to i32 (...)***
  store i32 (...)** bitcast (i8*** @_ZTVN14altered_carbon2js9JsVariantE_GEP to i32 (...)**), i32 (...)*** %1055, align 8
  %1056 = getelementptr inbounds %"cls.acjs::JsVariant", %"cls.acjs::JsVariant"* %vptr527, i32 0, i32 1
  store i32 1, i32* %1056, align 8
  %vptr528 = alloca %"cls.acjs::JsVariant", align 8
  %1057 = bitcast %"cls.acjs::JsVariant"* %vptr528 to i32 (...)***
  store i32 (...)** bitcast (i8*** @_ZTVN14altered_carbon2js9JsVariantE_GEP to i32 (...)**), i32 (...)*** %1057, align 8
  %1058 = getelementptr inbounds %"cls.acjs::JsVariant", %"cls.acjs::JsVariant"* %vptr528, i32 0, i32 1
  store i32 1, i32* %1058, align 8
  %vptr529 = alloca %"cls.acjs::JsVariant", align 8
  %1059 = bitcast %"cls.acjs::JsVariant"* %vptr529 to i32 (...)***
  store i32 (...)** bitcast (i8*** @_ZTVN14altered_carbon2js9JsVariantE_GEP to i32 (...)**), i32 (...)*** %1059, align 8
  %1060 = getelementptr inbounds %"cls.acjs::JsVariant", %"cls.acjs::JsVariant"* %vptr529, i32 0, i32 1
  store i32 1, i32* %1060, align 8
  %vptr530 = alloca %"cls.acjs::JsVariant", align 8
  %1061 = bitcast %"cls.acjs::JsVariant"* %vptr530 to i32 (...)***
  store i32 (...)** bitcast (i8*** @_ZTVN14altered_carbon2js9JsVariantE_GEP to i32 (...)**), i32 (...)*** %1061, align 8
  %1062 = getelementptr inbounds %"cls.acjs::JsVariant", %"cls.acjs::JsVariant"* %vptr530, i32 0, i32 1
  store i32 1, i32* %1062, align 8
  %vptr531 = alloca %"cls.acjs::JsVariant", align 8
  %1063 = bitcast %"cls.acjs::JsVariant"* %vptr531 to i32 (...)***
  store i32 (...)** bitcast (i8*** @_ZTVN14altered_carbon2js9JsVariantE_GEP to i32 (...)**), i32 (...)*** %1063, align 8
  %1064 = getelementptr inbounds %"cls.acjs::JsVariant", %"cls.acjs::JsVariant"* %vptr531, i32 0, i32 1
  store i32 1, i32* %1064, align 8
  %vptr532 = alloca %"cls.acjs::JsVariant", align 8
  %1065 = bitcast %"cls.acjs::JsVariant"* %vptr532 to i32 (...)***
  store i32 (...)** bitcast (i8*** @_ZTVN14altered_carbon2js9JsVariantE_GEP to i32 (...)**), i32 (...)*** %1065, align 8
  %1066 = getelementptr inbounds %"cls.acjs::JsVariant", %"cls.acjs::JsVariant"* %vptr532, i32 0, i32 1
  store i32 1, i32* %1066, align 8
  %vptr533 = alloca %"cls.acjs::JsVariant", align 8
  %1067 = bitcast %"cls.acjs::JsVariant"* %vptr533 to i32 (...)***
  store i32 (...)** bitcast (i8*** @_ZTVN14altered_carbon2js9JsVariantE_GEP to i32 (...)**), i32 (...)*** %1067, align 8
  %1068 = getelementptr inbounds %"cls.acjs::JsVariant", %"cls.acjs::JsVariant"* %vptr533, i32 0, i32 1
  store i32 1, i32* %1068, align 8
  %vptr534 = alloca %"cls.acjs::JsVariant", align 8
  %1069 = bitcast %"cls.acjs::JsVariant"* %vptr534 to i32 (...)***
  store i32 (...)** bitcast (i8*** @_ZTVN14altered_carbon2js9JsVariantE_GEP to i32 (...)**), i32 (...)*** %1069, align 8
  %1070 = getelementptr inbounds %"cls.acjs::JsVariant", %"cls.acjs::JsVariant"* %vptr534, i32 0, i32 1
  store i32 1, i32* %1070, align 8
  %vptr535 = alloca %"cls.acjs::JsVariant", align 8
  %1071 = bitcast %"cls.acjs::JsVariant"* %vptr535 to i32 (...)***
  store i32 (...)** bitcast (i8*** @_ZTVN14altered_carbon2js9JsVariantE_GEP to i32 (...)**), i32 (...)*** %1071, align 8
  %1072 = getelementptr inbounds %"cls.acjs::JsVariant", %"cls.acjs::JsVariant"* %vptr535, i32 0, i32 1
  store i32 1, i32* %1072, align 8
  %vptr536 = alloca %"cls.acjs::JsVariant", align 8
  %1073 = bitcast %"cls.acjs::JsVariant"* %vptr536 to i32 (...)***
  store i32 (...)** bitcast (i8*** @_ZTVN14altered_carbon2js9JsVariantE_GEP to i32 (...)**), i32 (...)*** %1073, align 8
  %1074 = getelementptr inbounds %"cls.acjs::JsVariant", %"cls.acjs::JsVariant"* %vptr536, i32 0, i32 1
  store i32 1, i32* %1074, align 8
  %vptr537 = alloca %"cls.acjs::JsVariant", align 8
  %1075 = bitcast %"cls.acjs::JsVariant"* %vptr537 to i32 (...)***
  store i32 (...)** bitcast (i8*** @_ZTVN14altered_carbon2js9JsVariantE_GEP to i32 (...)**), i32 (...)*** %1075, align 8
  %1076 = getelementptr inbounds %"cls.acjs::JsVariant", %"cls.acjs::JsVariant"* %vptr537, i32 0, i32 1
  store i32 1, i32* %1076, align 8
  %vptr538 = alloca %"cls.acjs::JsVariant", align 8
  %1077 = bitcast %"cls.acjs::JsVariant"* %vptr538 to i32 (...)***
  store i32 (...)** bitcast (i8*** @_ZTVN14altered_carbon2js9JsVariantE_GEP to i32 (...)**), i32 (...)*** %1077, align 8
  %1078 = getelementptr inbounds %"cls.acjs::JsVariant", %"cls.acjs::JsVariant"* %vptr538, i32 0, i32 1
  store i32 1, i32* %1078, align 8
  %vptr539 = alloca %"cls.acjs::JsVariant", align 8
  %1079 = bitcast %"cls.acjs::JsVariant"* %vptr539 to i32 (...)***
  store i32 (...)** bitcast (i8*** @_ZTVN14altered_carbon2js9JsVariantE_GEP to i32 (...)**), i32 (...)*** %1079, align 8
  %1080 = getelementptr inbounds %"cls.acjs::JsVariant", %"cls.acjs::JsVariant"* %vptr539, i32 0, i32 1
  store i32 1, i32* %1080, align 8
  %vptr540 = alloca %"cls.acjs::JsVariant", align 8
  %1081 = bitcast %"cls.acjs::JsVariant"* %vptr540 to i32 (...)***
  store i32 (...)** bitcast (i8*** @_ZTVN14altered_carbon2js9JsVariantE_GEP to i32 (...)**), i32 (...)*** %1081, align 8
  %1082 = getelementptr inbounds %"cls.acjs::JsVariant", %"cls.acjs::JsVariant"* %vptr540, i32 0, i32 1
  store i32 1, i32* %1082, align 8
  %vptr541 = alloca %"cls.acjs::JsVariant", align 8
  %1083 = bitcast %"cls.acjs::JsVariant"* %vptr541 to i32 (...)***
  store i32 (...)** bitcast (i8*** @_ZTVN14altered_carbon2js9JsVariantE_GEP to i32 (...)**), i32 (...)*** %1083, align 8
  %1084 = getelementptr inbounds %"cls.acjs::JsVariant", %"cls.acjs::JsVariant"* %vptr541, i32 0, i32 1
  store i32 1, i32* %1084, align 8
  %vptr542 = alloca %"cls.acjs::JsVariant", align 8
  %1085 = bitcast %"cls.acjs::JsVariant"* %vptr542 to i32 (...)***
  store i32 (...)** bitcast (i8*** @_ZTVN14altered_carbon2js9JsVariantE_GEP to i32 (...)**), i32 (...)*** %1085, align 8
  %1086 = getelementptr inbounds %"cls.acjs::JsVariant", %"cls.acjs::JsVariant"* %vptr542, i32 0, i32 1
  store i32 1, i32* %1086, align 8
  %vptr543 = alloca %"cls.acjs::JsVariant", align 8
  %1087 = bitcast %"cls.acjs::JsVariant"* %vptr543 to i32 (...)***
  store i32 (...)** bitcast (i8*** @_ZTVN14altered_carbon2js9JsVariantE_GEP to i32 (...)**), i32 (...)*** %1087, align 8
  %1088 = getelementptr inbounds %"cls.acjs::JsVariant", %"cls.acjs::JsVariant"* %vptr543, i32 0, i32 1
  store i32 1, i32* %1088, align 8
  %vptr544 = alloca %"cls.acjs::JsVariant", align 8
  %1089 = bitcast %"cls.acjs::JsVariant"* %vptr544 to i32 (...)***
  store i32 (...)** bitcast (i8*** @_ZTVN14altered_carbon2js9JsVariantE_GEP to i32 (...)**), i32 (...)*** %1089, align 8
  %1090 = getelementptr inbounds %"cls.acjs::JsVariant", %"cls.acjs::JsVariant"* %vptr544, i32 0, i32 1
  store i32 1, i32* %1090, align 8
  %vptr545 = alloca %"cls.acjs::JsVariant", align 8
  %1091 = bitcast %"cls.acjs::JsVariant"* %vptr545 to i32 (...)***
  store i32 (...)** bitcast (i8*** @_ZTVN14altered_carbon2js9JsVariantE_GEP to i32 (...)**), i32 (...)*** %1091, align 8
  %1092 = getelementptr inbounds %"cls.acjs::JsVariant", %"cls.acjs::JsVariant"* %vptr545, i32 0, i32 1
  store i32 1, i32* %1092, align 8
  %vptr546 = alloca %"cls.acjs::JsVariant", align 8
  %1093 = bitcast %"cls.acjs::JsVariant"* %vptr546 to i32 (...)***
  store i32 (...)** bitcast (i8*** @_ZTVN14altered_carbon2js9JsVariantE_GEP to i32 (...)**), i32 (...)*** %1093, align 8
  %1094 = getelementptr inbounds %"cls.acjs::JsVariant", %"cls.acjs::JsVariant"* %vptr546, i32 0, i32 1
  store i32 1, i32* %1094, align 8
  %vptr547 = alloca %"cls.acjs::JsVariant", align 8
  %1095 = bitcast %"cls.acjs::JsVariant"* %vptr547 to i32 (...)***
  store i32 (...)** bitcast (i8*** @_ZTVN14altered_carbon2js9JsVariantE_GEP to i32 (...)**), i32 (...)*** %1095, align 8
  %1096 = getelementptr inbounds %"cls.acjs::JsVariant", %"cls.acjs::JsVariant"* %vptr547, i32 0, i32 1
  store i32 1, i32* %1096, align 8
  %vptr548 = alloca %"cls.acjs::JsVariant", align 8
  %1097 = bitcast %"cls.acjs::JsVariant"* %vptr548 to i32 (...)***
  store i32 (...)** bitcast (i8*** @_ZTVN14altered_carbon2js9JsVariantE_GEP to i32 (...)**), i32 (...)*** %1097, align 8
  %1098 = getelementptr inbounds %"cls.acjs::JsVariant", %"cls.acjs::JsVariant"* %vptr548, i32 0, i32 1
  store i32 1, i32* %1098, align 8
  %vptr549 = alloca %"cls.acjs::JsVariant", align 8
  %1099 = bitcast %"cls.acjs::JsVariant"* %vptr549 to i32 (...)***
  store i32 (...)** bitcast (i8*** @_ZTVN14altered_carbon2js9JsVariantE_GEP to i32 (...)**), i32 (...)*** %1099, align 8
  %1100 = getelementptr inbounds %"cls.acjs::JsVariant", %"cls.acjs::JsVariant"* %vptr549, i32 0, i32 1
  store i32 1, i32* %1100, align 8
  %vptr550 = alloca %"cls.acjs::JsVariant", align 8
  %1101 = bitcast %"cls.acjs::JsVariant"* %vptr550 to i32 (...)***
  store i32 (...)** bitcast (i8*** @_ZTVN14altered_carbon2js9JsVariantE_GEP to i32 (...)**), i32 (...)*** %1101, align 8
  %1102 = getelementptr inbounds %"cls.acjs::JsVariant", %"cls.acjs::JsVariant"* %vptr550, i32 0, i32 1
  store i32 1, i32* %1102, align 8
  %vptr551 = alloca %"cls.acjs::JsVariant", align 8
  %1103 = bitcast %"cls.acjs::JsVariant"* %vptr551 to i32 (...)***
  store i32 (...)** bitcast (i8*** @_ZTVN14altered_carbon2js9JsVariantE_GEP to i32 (...)**), i32 (...)*** %1103, align 8
  %1104 = getelementptr inbounds %"cls.acjs::JsVariant", %"cls.acjs::JsVariant"* %vptr551, i32 0, i32 1
  store i32 1, i32* %1104, align 8
  %vptr552 = alloca %"cls.acjs::JsVariant", align 8
  %1105 = bitcast %"cls.acjs::JsVariant"* %vptr552 to i32 (...)***
  store i32 (...)** bitcast (i8*** @_ZTVN14altered_carbon2js9JsVariantE_GEP to i32 (...)**), i32 (...)*** %1105, align 8
  %1106 = getelementptr inbounds %"cls.acjs::JsVariant", %"cls.acjs::JsVariant"* %vptr552, i32 0, i32 1
  store i32 1, i32* %1106, align 8
  %vptr553 = alloca %"cls.acjs::JsVariant", align 8
  %1107 = bitcast %"cls.acjs::JsVariant"* %vptr553 to i32 (...)***
  store i32 (...)** bitcast (i8*** @_ZTVN14altered_carbon2js9JsVariantE_GEP to i32 (...)**), i32 (...)*** %1107, align 8
  %1108 = getelementptr inbounds %"cls.acjs::JsVariant", %"cls.acjs::JsVariant"* %vptr553, i32 0, i32 1
  store i32 1, i32* %1108, align 8
  %vptr554 = alloca %"cls.acjs::JsVariant", align 8
  %1109 = bitcast %"cls.acjs::JsVariant"* %vptr554 to i32 (...)***
  store i32 (...)** bitcast (i8*** @_ZTVN14altered_carbon2js9JsVariantE_GEP to i32 (...)**), i32 (...)*** %1109, align 8
  %1110 = getelementptr inbounds %"cls.acjs::JsVariant", %"cls.acjs::JsVariant"* %vptr554, i32 0, i32 1
  store i32 1, i32* %1110, align 8
  %vptr555 = alloca %"cls.acjs::JsVariant", align 8
  %1111 = bitcast %"cls.acjs::JsVariant"* %vptr555 to i32 (...)***
  store i32 (...)** bitcast (i8*** @_ZTVN14altered_carbon2js9JsVariantE_GEP to i32 (...)**), i32 (...)*** %1111, align 8
  %1112 = getelementptr inbounds %"cls.acjs::JsVariant", %"cls.acjs::JsVariant"* %vptr555, i32 0, i32 1
  store i32 1, i32* %1112, align 8
  %vptr556 = alloca %"cls.acjs::JsVariant", align 8
  %1113 = bitcast %"cls.acjs::JsVariant"* %vptr556 to i32 (...)***
  store i32 (...)** bitcast (i8*** @_ZTVN14altered_carbon2js9JsVariantE_GEP to i32 (...)**), i32 (...)*** %1113, align 8
  %1114 = getelementptr inbounds %"cls.acjs::JsVariant", %"cls.acjs::JsVariant"* %vptr556, i32 0, i32 1
  store i32 1, i32* %1114, align 8
  %vptr557 = alloca %"cls.acjs::JsVariant", align 8
  %1115 = bitcast %"cls.acjs::JsVariant"* %vptr557 to i32 (...)***
  store i32 (...)** bitcast (i8*** @_ZTVN14altered_carbon2js9JsVariantE_GEP to i32 (...)**), i32 (...)*** %1115, align 8
  %1116 = getelementptr inbounds %"cls.acjs::JsVariant", %"cls.acjs::JsVariant"* %vptr557, i32 0, i32 1
  store i32 1, i32* %1116, align 8
  %vptr558 = alloca %"cls.acjs::JsVariant", align 8
  %1117 = bitcast %"cls.acjs::JsVariant"* %vptr558 to i32 (...)***
  store i32 (...)** bitcast (i8*** @_ZTVN14altered_carbon2js9JsVariantE_GEP to i32 (...)**), i32 (...)*** %1117, align 8
  %1118 = getelementptr inbounds %"cls.acjs::JsVariant", %"cls.acjs::JsVariant"* %vptr558, i32 0, i32 1
  store i32 1, i32* %1118, align 8
  %vptr559 = alloca %"cls.acjs::JsVariant", align 8
  %1119 = bitcast %"cls.acjs::JsVariant"* %vptr559 to i32 (...)***
  store i32 (...)** bitcast (i8*** @_ZTVN14altered_carbon2js9JsVariantE_GEP to i32 (...)**), i32 (...)*** %1119, align 8
  %1120 = getelementptr inbounds %"cls.acjs::JsVariant", %"cls.acjs::JsVariant"* %vptr559, i32 0, i32 1
  store i32 1, i32* %1120, align 8
  %vptr560 = alloca %"cls.acjs::JsVariant", align 8
  %1121 = bitcast %"cls.acjs::JsVariant"* %vptr560 to i32 (...)***
  store i32 (...)** bitcast (i8*** @_ZTVN14altered_carbon2js9JsVariantE_GEP to i32 (...)**), i32 (...)*** %1121, align 8
  %1122 = getelementptr inbounds %"cls.acjs::JsVariant", %"cls.acjs::JsVariant"* %vptr560, i32 0, i32 1
  store i32 1, i32* %1122, align 8
  %vptr561 = alloca %"cls.acjs::JsVariant", align 8
  %1123 = bitcast %"cls.acjs::JsVariant"* %vptr561 to i32 (...)***
  store i32 (...)** bitcast (i8*** @_ZTVN14altered_carbon2js9JsVariantE_GEP to i32 (...)**), i32 (...)*** %1123, align 8
  %1124 = getelementptr inbounds %"cls.acjs::JsVariant", %"cls.acjs::JsVariant"* %vptr561, i32 0, i32 1
  store i32 1, i32* %1124, align 8
  %vptr562 = alloca %"cls.acjs::JsVariant", align 8
  %1125 = bitcast %"cls.acjs::JsVariant"* %vptr562 to i32 (...)***
  store i32 (...)** bitcast (i8*** @_ZTVN14altered_carbon2js9JsVariantE_GEP to i32 (...)**), i32 (...)*** %1125, align 8
  %1126 = getelementptr inbounds %"cls.acjs::JsVariant", %"cls.acjs::JsVariant"* %vptr562, i32 0, i32 1
  store i32 1, i32* %1126, align 8
  %vptr563 = alloca %"cls.acjs::JsVariant", align 8
  %1127 = bitcast %"cls.acjs::JsVariant"* %vptr563 to i32 (...)***
  store i32 (...)** bitcast (i8*** @_ZTVN14altered_carbon2js9JsVariantE_GEP to i32 (...)**), i32 (...)*** %1127, align 8
  %1128 = getelementptr inbounds %"cls.acjs::JsVariant", %"cls.acjs::JsVariant"* %vptr563, i32 0, i32 1
  store i32 1, i32* %1128, align 8
  %vptr564 = alloca %"cls.acjs::JsVariant", align 8
  %1129 = bitcast %"cls.acjs::JsVariant"* %vptr564 to i32 (...)***
  store i32 (...)** bitcast (i8*** @_ZTVN14altered_carbon2js9JsVariantE_GEP to i32 (...)**), i32 (...)*** %1129, align 8
  %1130 = getelementptr inbounds %"cls.acjs::JsVariant", %"cls.acjs::JsVariant"* %vptr564, i32 0, i32 1
  store i32 1, i32* %1130, align 8
  %vptr565 = alloca %"cls.acjs::JsVariant", align 8
  %1131 = bitcast %"cls.acjs::JsVariant"* %vptr565 to i32 (...)***
  store i32 (...)** bitcast (i8*** @_ZTVN14altered_carbon2js9JsVariantE_GEP to i32 (...)**), i32 (...)*** %1131, align 8
  %1132 = getelementptr inbounds %"cls.acjs::JsVariant", %"cls.acjs::JsVariant"* %vptr565, i32 0, i32 1
  store i32 1, i32* %1132, align 8
  %vptr566 = alloca %"cls.acjs::JsVariant", align 8
  %1133 = bitcast %"cls.acjs::JsVariant"* %vptr566 to i32 (...)***
  store i32 (...)** bitcast (i8*** @_ZTVN14altered_carbon2js9JsVariantE_GEP to i32 (...)**), i32 (...)*** %1133, align 8
  %1134 = getelementptr inbounds %"cls.acjs::JsVariant", %"cls.acjs::JsVariant"* %vptr566, i32 0, i32 1
  store i32 1, i32* %1134, align 8
  %vptr567 = alloca %"cls.acjs::JsVariant", align 8
  %1135 = bitcast %"cls.acjs::JsVariant"* %vptr567 to i32 (...)***
  store i32 (...)** bitcast (i8*** @_ZTVN14altered_carbon2js9JsVariantE_GEP to i32 (...)**), i32 (...)*** %1135, align 8
  %1136 = getelementptr inbounds %"cls.acjs::JsVariant", %"cls.acjs::JsVariant"* %vptr567, i32 0, i32 1
  store i32 1, i32* %1136, align 8
  %vptr568 = alloca %"cls.acjs::JsVariant", align 8
  %1137 = bitcast %"cls.acjs::JsVariant"* %vptr568 to i32 (...)***
  store i32 (...)** bitcast (i8*** @_ZTVN14altered_carbon2js9JsVariantE_GEP to i32 (...)**), i32 (...)*** %1137, align 8
  %1138 = getelementptr inbounds %"cls.acjs::JsVariant", %"cls.acjs::JsVariant"* %vptr568, i32 0, i32 1
  store i32 1, i32* %1138, align 8
  %vptr569 = alloca %"cls.acjs::JsVariant", align 8
  %1139 = bitcast %"cls.acjs::JsVariant"* %vptr569 to i32 (...)***
  store i32 (...)** bitcast (i8*** @_ZTVN14altered_carbon2js9JsVariantE_GEP to i32 (...)**), i32 (...)*** %1139, align 8
  %1140 = getelementptr inbounds %"cls.acjs::JsVariant", %"cls.acjs::JsVariant"* %vptr569, i32 0, i32 1
  store i32 1, i32* %1140, align 8
  %vptr570 = alloca %"cls.acjs::JsVariant", align 8
  %1141 = bitcast %"cls.acjs::JsVariant"* %vptr570 to i32 (...)***
  store i32 (...)** bitcast (i8*** @_ZTVN14altered_carbon2js9JsVariantE_GEP to i32 (...)**), i32 (...)*** %1141, align 8
  %1142 = getelementptr inbounds %"cls.acjs::JsVariant", %"cls.acjs::JsVariant"* %vptr570, i32 0, i32 1
  store i32 1, i32* %1142, align 8
  %vptr571 = alloca %"cls.acjs::JsVariant", align 8
  %1143 = bitcast %"cls.acjs::JsVariant"* %vptr571 to i32 (...)***
  store i32 (...)** bitcast (i8*** @_ZTVN14altered_carbon2js9JsVariantE_GEP to i32 (...)**), i32 (...)*** %1143, align 8
  %1144 = getelementptr inbounds %"cls.acjs::JsVariant", %"cls.acjs::JsVariant"* %vptr571, i32 0, i32 1
  store i32 1, i32* %1144, align 8
  %vptr572 = alloca %"cls.acjs::JsVariant", align 8
  %1145 = bitcast %"cls.acjs::JsVariant"* %vptr572 to i32 (...)***
  store i32 (...)** bitcast (i8*** @_ZTVN14altered_carbon2js9JsVariantE_GEP to i32 (...)**), i32 (...)*** %1145, align 8
  %1146 = getelementptr inbounds %"cls.acjs::JsVariant", %"cls.acjs::JsVariant"* %vptr572, i32 0, i32 1
  store i32 1, i32* %1146, align 8
  %vptr573 = alloca %"cls.acjs::JsVariant", align 8
  %1147 = bitcast %"cls.acjs::JsVariant"* %vptr573 to i32 (...)***
  store i32 (...)** bitcast (i8*** @_ZTVN14altered_carbon2js9JsVariantE_GEP to i32 (...)**), i32 (...)*** %1147, align 8
  %1148 = getelementptr inbounds %"cls.acjs::JsVariant", %"cls.acjs::JsVariant"* %vptr573, i32 0, i32 1
  store i32 1, i32* %1148, align 8
  %vptr574 = alloca %"cls.acjs::JsVariant", align 8
  %1149 = bitcast %"cls.acjs::JsVariant"* %vptr574 to i32 (...)***
  store i32 (...)** bitcast (i8*** @_ZTVN14altered_carbon2js9JsVariantE_GEP to i32 (...)**), i32 (...)*** %1149, align 8
  %1150 = getelementptr inbounds %"cls.acjs::JsVariant", %"cls.acjs::JsVariant"* %vptr574, i32 0, i32 1
  store i32 1, i32* %1150, align 8
  %vptr575 = alloca %"cls.acjs::JsVariant", align 8
  %1151 = bitcast %"cls.acjs::JsVariant"* %vptr575 to i32 (...)***
  store i32 (...)** bitcast (i8*** @_ZTVN14altered_carbon2js9JsVariantE_GEP to i32 (...)**), i32 (...)*** %1151, align 8
  %1152 = getelementptr inbounds %"cls.acjs::JsVariant", %"cls.acjs::JsVariant"* %vptr575, i32 0, i32 1
  store i32 1, i32* %1152, align 8
  %vptr576 = alloca %"cls.acjs::JsVariant", align 8
  %1153 = bitcast %"cls.acjs::JsVariant"* %vptr576 to i32 (...)***
  store i32 (...)** bitcast (i8*** @_ZTVN14altered_carbon2js9JsVariantE_GEP to i32 (...)**), i32 (...)*** %1153, align 8
  %1154 = getelementptr inbounds %"cls.acjs::JsVariant", %"cls.acjs::JsVariant"* %vptr576, i32 0, i32 1
  store i32 1, i32* %1154, align 8
  %vptr577 = alloca %"cls.acjs::JsVariant", align 8
  %1155 = bitcast %"cls.acjs::JsVariant"* %vptr577 to i32 (...)***
  store i32 (...)** bitcast (i8*** @_ZTVN14altered_carbon2js9JsVariantE_GEP to i32 (...)**), i32 (...)*** %1155, align 8
  %1156 = getelementptr inbounds %"cls.acjs::JsVariant", %"cls.acjs::JsVariant"* %vptr577, i32 0, i32 1
  store i32 1, i32* %1156, align 8
  %vptr578 = alloca %"cls.acjs::JsVariant", align 8
  %1157 = bitcast %"cls.acjs::JsVariant"* %vptr578 to i32 (...)***
  store i32 (...)** bitcast (i8*** @_ZTVN14altered_carbon2js9JsVariantE_GEP to i32 (...)**), i32 (...)*** %1157, align 8
  %1158 = getelementptr inbounds %"cls.acjs::JsVariant", %"cls.acjs::JsVariant"* %vptr578, i32 0, i32 1
  store i32 1, i32* %1158, align 8
  %vptr579 = alloca %"cls.acjs::JsVariant", align 8
  %1159 = bitcast %"cls.acjs::JsVariant"* %vptr579 to i32 (...)***
  store i32 (...)** bitcast (i8*** @_ZTVN14altered_carbon2js9JsVariantE_GEP to i32 (...)**), i32 (...)*** %1159, align 8
  %1160 = getelementptr inbounds %"cls.acjs::JsVariant", %"cls.acjs::JsVariant"* %vptr579, i32 0, i32 1
  store i32 1, i32* %1160, align 8
  %vptr580 = alloca %"cls.acjs::JsVariant", align 8
  %1161 = bitcast %"cls.acjs::JsVariant"* %vptr580 to i32 (...)***
  store i32 (...)** bitcast (i8*** @_ZTVN14altered_carbon2js9JsVariantE_GEP to i32 (...)**), i32 (...)*** %1161, align 8
  %1162 = getelementptr inbounds %"cls.acjs::JsVariant", %"cls.acjs::JsVariant"* %vptr580, i32 0, i32 1
  store i32 1, i32* %1162, align 8
  %vptr581 = alloca %"cls.acjs::JsVariant", align 8
  %1163 = bitcast %"cls.acjs::JsVariant"* %vptr581 to i32 (...)***
  store i32 (...)** bitcast (i8*** @_ZTVN14altered_carbon2js9JsVariantE_GEP to i32 (...)**), i32 (...)*** %1163, align 8
  %1164 = getelementptr inbounds %"cls.acjs::JsVariant", %"cls.acjs::JsVariant"* %vptr581, i32 0, i32 1
  store i32 1, i32* %1164, align 8
  %vptr582 = alloca %"cls.acjs::JsVariant", align 8
  %1165 = bitcast %"cls.acjs::JsVariant"* %vptr582 to i32 (...)***
  store i32 (...)** bitcast (i8*** @_ZTVN14altered_carbon2js9JsVariantE_GEP to i32 (...)**), i32 (...)*** %1165, align 8
  %1166 = getelementptr inbounds %"cls.acjs::JsVariant", %"cls.acjs::JsVariant"* %vptr582, i32 0, i32 1
  store i32 1, i32* %1166, align 8
  %vptr583 = alloca %"cls.acjs::JsVariant", align 8
  %1167 = bitcast %"cls.acjs::JsVariant"* %vptr583 to i32 (...)***
  store i32 (...)** bitcast (i8*** @_ZTVN14altered_carbon2js9JsVariantE_GEP to i32 (...)**), i32 (...)*** %1167, align 8
  %1168 = getelementptr inbounds %"cls.acjs::JsVariant", %"cls.acjs::JsVariant"* %vptr583, i32 0, i32 1
  store i32 1, i32* %1168, align 8
  %vptr584 = alloca %"cls.acjs::JsVariant", align 8
  %1169 = bitcast %"cls.acjs::JsVariant"* %vptr584 to i32 (...)***
  store i32 (...)** bitcast (i8*** @_ZTVN14altered_carbon2js9JsVariantE_GEP to i32 (...)**), i32 (...)*** %1169, align 8
  %1170 = getelementptr inbounds %"cls.acjs::JsVariant", %"cls.acjs::JsVariant"* %vptr584, i32 0, i32 1
  store i32 1, i32* %1170, align 8
  %vptr585 = alloca %"cls.acjs::JsVariant", align 8
  %1171 = bitcast %"cls.acjs::JsVariant"* %vptr585 to i32 (...)***
  store i32 (...)** bitcast (i8*** @_ZTVN14altered_carbon2js9JsVariantE_GEP to i32 (...)**), i32 (...)*** %1171, align 8
  %1172 = getelementptr inbounds %"cls.acjs::JsVariant", %"cls.acjs::JsVariant"* %vptr585, i32 0, i32 1
  store i32 1, i32* %1172, align 8
  %vptr586 = alloca %"cls.acjs::JsVariant", align 8
  %1173 = bitcast %"cls.acjs::JsVariant"* %vptr586 to i32 (...)***
  store i32 (...)** bitcast (i8*** @_ZTVN14altered_carbon2js9JsVariantE_GEP to i32 (...)**), i32 (...)*** %1173, align 8
  %1174 = getelementptr inbounds %"cls.acjs::JsVariant", %"cls.acjs::JsVariant"* %vptr586, i32 0, i32 1
  store i32 1, i32* %1174, align 8
  %vptr587 = alloca %"cls.acjs::JsVariant", align 8
  %1175 = bitcast %"cls.acjs::JsVariant"* %vptr587 to i32 (...)***
  store i32 (...)** bitcast (i8*** @_ZTVN14altered_carbon2js9JsVariantE_GEP to i32 (...)**), i32 (...)*** %1175, align 8
  %1176 = getelementptr inbounds %"cls.acjs::JsVariant", %"cls.acjs::JsVariant"* %vptr587, i32 0, i32 1
  store i32 1, i32* %1176, align 8
  %vptr588 = alloca %"cls.acjs::JsVariant", align 8
  %1177 = bitcast %"cls.acjs::JsVariant"* %vptr588 to i32 (...)***
  store i32 (...)** bitcast (i8*** @_ZTVN14altered_carbon2js9JsVariantE_GEP to i32 (...)**), i32 (...)*** %1177, align 8
  %1178 = getelementptr inbounds %"cls.acjs::JsVariant", %"cls.acjs::JsVariant"* %vptr588, i32 0, i32 1
  store i32 1, i32* %1178, align 8
  %vptr589 = alloca %"cls.acjs::JsVariant", align 8
  %1179 = bitcast %"cls.acjs::JsVariant"* %vptr589 to i32 (...)***
  store i32 (...)** bitcast (i8*** @_ZTVN14altered_carbon2js9JsVariantE_GEP to i32 (...)**), i32 (...)*** %1179, align 8
  %1180 = getelementptr inbounds %"cls.acjs::JsVariant", %"cls.acjs::JsVariant"* %vptr589, i32 0, i32 1
  store i32 1, i32* %1180, align 8
  %vptr590 = alloca %"cls.acjs::JsVariant", align 8
  %1181 = bitcast %"cls.acjs::JsVariant"* %vptr590 to i32 (...)***
  store i32 (...)** bitcast (i8*** @_ZTVN14altered_carbon2js9JsVariantE_GEP to i32 (...)**), i32 (...)*** %1181, align 8
  %1182 = getelementptr inbounds %"cls.acjs::JsVariant", %"cls.acjs::JsVariant"* %vptr590, i32 0, i32 1
  store i32 1, i32* %1182, align 8
  %vptr591 = alloca %"cls.acjs::JsVariant", align 8
  %1183 = bitcast %"cls.acjs::JsVariant"* %vptr591 to i32 (...)***
  store i32 (...)** bitcast (i8*** @_ZTVN14altered_carbon2js9JsVariantE_GEP to i32 (...)**), i32 (...)*** %1183, align 8
  %1184 = getelementptr inbounds %"cls.acjs::JsVariant", %"cls.acjs::JsVariant"* %vptr591, i32 0, i32 1
  store i32 1, i32* %1184, align 8
  %vptr592 = alloca %"cls.acjs::JsVariant", align 8
  %1185 = bitcast %"cls.acjs::JsVariant"* %vptr592 to i32 (...)***
  store i32 (...)** bitcast (i8*** @_ZTVN14altered_carbon2js9JsVariantE_GEP to i32 (...)**), i32 (...)*** %1185, align 8
  %1186 = getelementptr inbounds %"cls.acjs::JsVariant", %"cls.acjs::JsVariant"* %vptr592, i32 0, i32 1
  store i32 1, i32* %1186, align 8
  %vptr593 = alloca %"cls.acjs::JsVariant", align 8
  %1187 = bitcast %"cls.acjs::JsVariant"* %vptr593 to i32 (...)***
  store i32 (...)** bitcast (i8*** @_ZTVN14altered_carbon2js9JsVariantE_GEP to i32 (...)**), i32 (...)*** %1187, align 8
  %1188 = getelementptr inbounds %"cls.acjs::JsVariant", %"cls.acjs::JsVariant"* %vptr593, i32 0, i32 1
  store i32 1, i32* %1188, align 8
  %vptr594 = alloca %"cls.acjs::JsVariant", align 8
  %1189 = bitcast %"cls.acjs::JsVariant"* %vptr594 to i32 (...)***
  store i32 (...)** bitcast (i8*** @_ZTVN14altered_carbon2js9JsVariantE_GEP to i32 (...)**), i32 (...)*** %1189, align 8
  %1190 = getelementptr inbounds %"cls.acjs::JsVariant", %"cls.acjs::JsVariant"* %vptr594, i32 0, i32 1
  store i32 1, i32* %1190, align 8
  %vptr595 = alloca %"cls.acjs::JsVariant", align 8
  %1191 = bitcast %"cls.acjs::JsVariant"* %vptr595 to i32 (...)***
  store i32 (...)** bitcast (i8*** @_ZTVN14altered_carbon2js9JsVariantE_GEP to i32 (...)**), i32 (...)*** %1191, align 8
  %1192 = getelementptr inbounds %"cls.acjs::JsVariant", %"cls.acjs::JsVariant"* %vptr595, i32 0, i32 1
  store i32 1, i32* %1192, align 8
  %vptr596 = alloca %"cls.acjs::JsVariant", align 8
  %1193 = bitcast %"cls.acjs::JsVariant"* %vptr596 to i32 (...)***
  store i32 (...)** bitcast (i8*** @_ZTVN14altered_carbon2js9JsVariantE_GEP to i32 (...)**), i32 (...)*** %1193, align 8
  %1194 = getelementptr inbounds %"cls.acjs::JsVariant", %"cls.acjs::JsVariant"* %vptr596, i32 0, i32 1
  store i32 1, i32* %1194, align 8
  %vptr597 = alloca %"cls.acjs::JsVariant", align 8
  %1195 = bitcast %"cls.acjs::JsVariant"* %vptr597 to i32 (...)***
  store i32 (...)** bitcast (i8*** @_ZTVN14altered_carbon2js9JsVariantE_GEP to i32 (...)**), i32 (...)*** %1195, align 8
  %1196 = getelementptr inbounds %"cls.acjs::JsVariant", %"cls.acjs::JsVariant"* %vptr597, i32 0, i32 1
  store i32 1, i32* %1196, align 8
  %vptr598 = alloca %"cls.acjs::JsVariant", align 8
  %1197 = bitcast %"cls.acjs::JsVariant"* %vptr598 to i32 (...)***
  store i32 (...)** bitcast (i8*** @_ZTVN14altered_carbon2js9JsVariantE_GEP to i32 (...)**), i32 (...)*** %1197, align 8
  %1198 = getelementptr inbounds %"cls.acjs::JsVariant", %"cls.acjs::JsVariant"* %vptr598, i32 0, i32 1
  store i32 1, i32* %1198, align 8
  %vptr599 = alloca %"cls.acjs::JsVariant", align 8
  %1199 = bitcast %"cls.acjs::JsVariant"* %vptr599 to i32 (...)***
  store i32 (...)** bitcast (i8*** @_ZTVN14altered_carbon2js9JsVariantE_GEP to i32 (...)**), i32 (...)*** %1199, align 8
  %1200 = getelementptr inbounds %"cls.acjs::JsVariant", %"cls.acjs::JsVariant"* %vptr599, i32 0, i32 1
  store i32 1, i32* %1200, align 8
  %vptr600 = alloca %"cls.acjs::JsVariant", align 8
  %1201 = bitcast %"cls.acjs::JsVariant"* %vptr600 to i32 (...)***
  store i32 (...)** bitcast (i8*** @_ZTVN14altered_carbon2js9JsVariantE_GEP to i32 (...)**), i32 (...)*** %1201, align 8
  %1202 = getelementptr inbounds %"cls.acjs::JsVariant", %"cls.acjs::JsVariant"* %vptr600, i32 0, i32 1
  store i32 1, i32* %1202, align 8
  %vptr601 = alloca %"cls.acjs::JsVariant", align 8
  %1203 = bitcast %"cls.acjs::JsVariant"* %vptr601 to i32 (...)***
  store i32 (...)** bitcast (i8*** @_ZTVN14altered_carbon2js9JsVariantE_GEP to i32 (...)**), i32 (...)*** %1203, align 8
  %1204 = getelementptr inbounds %"cls.acjs::JsVariant", %"cls.acjs::JsVariant"* %vptr601, i32 0, i32 1
  store i32 1, i32* %1204, align 8
  %vptr602 = alloca %"cls.acjs::JsVariant", align 8
  %1205 = bitcast %"cls.acjs::JsVariant"* %vptr602 to i32 (...)***
  store i32 (...)** bitcast (i8*** @_ZTVN14altered_carbon2js9JsVariantE_GEP to i32 (...)**), i32 (...)*** %1205, align 8
  %1206 = getelementptr inbounds %"cls.acjs::JsVariant", %"cls.acjs::JsVariant"* %vptr602, i32 0, i32 1
  store i32 1, i32* %1206, align 8
  %vptr603 = alloca %"cls.acjs::JsVariant", align 8
  %1207 = bitcast %"cls.acjs::JsVariant"* %vptr603 to i32 (...)***
  store i32 (...)** bitcast (i8*** @_ZTVN14altered_carbon2js9JsVariantE_GEP to i32 (...)**), i32 (...)*** %1207, align 8
  %1208 = getelementptr inbounds %"cls.acjs::JsVariant", %"cls.acjs::JsVariant"* %vptr603, i32 0, i32 1
  store i32 1, i32* %1208, align 8
  %vptr604 = alloca %"cls.acjs::JsVariant", align 8
  %1209 = bitcast %"cls.acjs::JsVariant"* %vptr604 to i32 (...)***
  store i32 (...)** bitcast (i8*** @_ZTVN14altered_carbon2js9JsVariantE_GEP to i32 (...)**), i32 (...)*** %1209, align 8
  %1210 = getelementptr inbounds %"cls.acjs::JsVariant", %"cls.acjs::JsVariant"* %vptr604, i32 0, i32 1
  store i32 1, i32* %1210, align 8
  %vptr605 = alloca %"cls.acjs::JsVariant", align 8
  %1211 = bitcast %"cls.acjs::JsVariant"* %vptr605 to i32 (...)***
  store i32 (...)** bitcast (i8*** @_ZTVN14altered_carbon2js9JsVariantE_GEP to i32 (...)**), i32 (...)*** %1211, align 8
  %1212 = getelementptr inbounds %"cls.acjs::JsVariant", %"cls.acjs::JsVariant"* %vptr605, i32 0, i32 1
  store i32 1, i32* %1212, align 8
  %vptr606 = alloca %"cls.acjs::JsVariant", align 8
  %1213 = bitcast %"cls.acjs::JsVariant"* %vptr606 to i32 (...)***
  store i32 (...)** bitcast (i8*** @_ZTVN14altered_carbon2js9JsVariantE_GEP to i32 (...)**), i32 (...)*** %1213, align 8
  %1214 = getelementptr inbounds %"cls.acjs::JsVariant", %"cls.acjs::JsVariant"* %vptr606, i32 0, i32 1
  store i32 1, i32* %1214, align 8
  %vptr607 = alloca %"cls.acjs::JsVariant", align 8
  %1215 = bitcast %"cls.acjs::JsVariant"* %vptr607 to i32 (...)***
  store i32 (...)** bitcast (i8*** @_ZTVN14altered_carbon2js9JsVariantE_GEP to i32 (...)**), i32 (...)*** %1215, align 8
  %1216 = getelementptr inbounds %"cls.acjs::JsVariant", %"cls.acjs::JsVariant"* %vptr607, i32 0, i32 1
  store i32 1, i32* %1216, align 8
  %vptr608 = alloca %"cls.acjs::JsVariant", align 8
  %1217 = bitcast %"cls.acjs::JsVariant"* %vptr608 to i32 (...)***
  store i32 (...)** bitcast (i8*** @_ZTVN14altered_carbon2js9JsVariantE_GEP to i32 (...)**), i32 (...)*** %1217, align 8
  %1218 = getelementptr inbounds %"cls.acjs::JsVariant", %"cls.acjs::JsVariant"* %vptr608, i32 0, i32 1
  store i32 1, i32* %1218, align 8
  %vptr609 = alloca %"cls.acjs::JsVariant", align 8
  %1219 = bitcast %"cls.acjs::JsVariant"* %vptr609 to i32 (...)***
  store i32 (...)** bitcast (i8*** @_ZTVN14altered_carbon2js9JsVariantE_GEP to i32 (...)**), i32 (...)*** %1219, align 8
  %1220 = getelementptr inbounds %"cls.acjs::JsVariant", %"cls.acjs::JsVariant"* %vptr609, i32 0, i32 1
  store i32 1, i32* %1220, align 8
  %vptr610 = alloca %"cls.acjs::JsVariant", align 8
  %1221 = bitcast %"cls.acjs::JsVariant"* %vptr610 to i32 (...)***
  store i32 (...)** bitcast (i8*** @_ZTVN14altered_carbon2js9JsVariantE_GEP to i32 (...)**), i32 (...)*** %1221, align 8
  %1222 = getelementptr inbounds %"cls.acjs::JsVariant", %"cls.acjs::JsVariant"* %vptr610, i32 0, i32 1
  store i32 1, i32* %1222, align 8
  %vptr611 = alloca %"cls.acjs::JsVariant", align 8
  %1223 = bitcast %"cls.acjs::JsVariant"* %vptr611 to i32 (...)***
  store i32 (...)** bitcast (i8*** @_ZTVN14altered_carbon2js9JsVariantE_GEP to i32 (...)**), i32 (...)*** %1223, align 8
  %1224 = getelementptr inbounds %"cls.acjs::JsVariant", %"cls.acjs::JsVariant"* %vptr611, i32 0, i32 1
  store i32 1, i32* %1224, align 8
  %vptr612 = alloca %"cls.acjs::JsVariant", align 8
  %1225 = bitcast %"cls.acjs::JsVariant"* %vptr612 to i32 (...)***
  store i32 (...)** bitcast (i8*** @_ZTVN14altered_carbon2js9JsVariantE_GEP to i32 (...)**), i32 (...)*** %1225, align 8
  %1226 = getelementptr inbounds %"cls.acjs::JsVariant", %"cls.acjs::JsVariant"* %vptr612, i32 0, i32 1
  store i32 1, i32* %1226, align 8
  %vptr613 = alloca %"cls.acjs::JsVariant", align 8
  %1227 = bitcast %"cls.acjs::JsVariant"* %vptr613 to i32 (...)***
  store i32 (...)** bitcast (i8*** @_ZTVN14altered_carbon2js9JsVariantE_GEP to i32 (...)**), i32 (...)*** %1227, align 8
  %1228 = getelementptr inbounds %"cls.acjs::JsVariant", %"cls.acjs::JsVariant"* %vptr613, i32 0, i32 1
  store i32 1, i32* %1228, align 8
  %vptr614 = alloca %"cls.acjs::JsVariant", align 8
  %1229 = bitcast %"cls.acjs::JsVariant"* %vptr614 to i32 (...)***
  store i32 (...)** bitcast (i8*** @_ZTVN14altered_carbon2js9JsVariantE_GEP to i32 (...)**), i32 (...)*** %1229, align 8
  %1230 = getelementptr inbounds %"cls.acjs::JsVariant", %"cls.acjs::JsVariant"* %vptr614, i32 0, i32 1
  store i32 1, i32* %1230, align 8
  %vptr615 = alloca %"cls.acjs::JsVariant", align 8
  %1231 = bitcast %"cls.acjs::JsVariant"* %vptr615 to i32 (...)***
  store i32 (...)** bitcast (i8*** @_ZTVN14altered_carbon2js9JsVariantE_GEP to i32 (...)**), i32 (...)*** %1231, align 8
  %1232 = getelementptr inbounds %"cls.acjs::JsVariant", %"cls.acjs::JsVariant"* %vptr615, i32 0, i32 1
  store i32 1, i32* %1232, align 8
  %vptr616 = alloca %"cls.acjs::JsVariant", align 8
  %1233 = bitcast %"cls.acjs::JsVariant"* %vptr616 to i32 (...)***
  store i32 (...)** bitcast (i8*** @_ZTVN14altered_carbon2js9JsVariantE_GEP to i32 (...)**), i32 (...)*** %1233, align 8
  %1234 = getelementptr inbounds %"cls.acjs::JsVariant", %"cls.acjs::JsVariant"* %vptr616, i32 0, i32 1
  store i32 1, i32* %1234, align 8
  %vptr617 = alloca %"cls.acjs::JsVariant", align 8
  %1235 = bitcast %"cls.acjs::JsVariant"* %vptr617 to i32 (...)***
  store i32 (...)** bitcast (i8*** @_ZTVN14altered_carbon2js9JsVariantE_GEP to i32 (...)**), i32 (...)*** %1235, align 8
  %1236 = getelementptr inbounds %"cls.acjs::JsVariant", %"cls.acjs::JsVariant"* %vptr617, i32 0, i32 1
  store i32 1, i32* %1236, align 8
  %vptr618 = alloca %"cls.acjs::JsVariant", align 8
  %1237 = bitcast %"cls.acjs::JsVariant"* %vptr618 to i32 (...)***
  store i32 (...)** bitcast (i8*** @_ZTVN14altered_carbon2js9JsVariantE_GEP to i32 (...)**), i32 (...)*** %1237, align 8
  %1238 = getelementptr inbounds %"cls.acjs::JsVariant", %"cls.acjs::JsVariant"* %vptr618, i32 0, i32 1
  store i32 1, i32* %1238, align 8
  %vptr619 = alloca %"cls.acjs::JsVariant", align 8
  %1239 = bitcast %"cls.acjs::JsVariant"* %vptr619 to i32 (...)***
  store i32 (...)** bitcast (i8*** @_ZTVN14altered_carbon2js9JsVariantE_GEP to i32 (...)**), i32 (...)*** %1239, align 8
  %1240 = getelementptr inbounds %"cls.acjs::JsVariant", %"cls.acjs::JsVariant"* %vptr619, i32 0, i32 1
  store i32 1, i32* %1240, align 8
  %vptr620 = alloca %"cls.acjs::JsVariant", align 8
  %1241 = bitcast %"cls.acjs::JsVariant"* %vptr620 to i32 (...)***
  store i32 (...)** bitcast (i8*** @_ZTVN14altered_carbon2js9JsVariantE_GEP to i32 (...)**), i32 (...)*** %1241, align 8
  %1242 = getelementptr inbounds %"cls.acjs::JsVariant", %"cls.acjs::JsVariant"* %vptr620, i32 0, i32 1
  store i32 1, i32* %1242, align 8
  %vptr621 = alloca %"cls.acjs::JsVariant", align 8
  %1243 = bitcast %"cls.acjs::JsVariant"* %vptr621 to i32 (...)***
  store i32 (...)** bitcast (i8*** @_ZTVN14altered_carbon2js9JsVariantE_GEP to i32 (...)**), i32 (...)*** %1243, align 8
  %1244 = getelementptr inbounds %"cls.acjs::JsVariant", %"cls.acjs::JsVariant"* %vptr621, i32 0, i32 1
  store i32 1, i32* %1244, align 8
  %vptr622 = alloca %"cls.acjs::JsVariant", align 8
  %1245 = bitcast %"cls.acjs::JsVariant"* %vptr622 to i32 (...)***
  store i32 (...)** bitcast (i8*** @_ZTVN14altered_carbon2js9JsVariantE_GEP to i32 (...)**), i32 (...)*** %1245, align 8
  %1246 = getelementptr inbounds %"cls.acjs::JsVariant", %"cls.acjs::JsVariant"* %vptr622, i32 0, i32 1
  store i32 1, i32* %1246, align 8
  %vptr623 = alloca %"cls.acjs::JsVariant", align 8
  %1247 = bitcast %"cls.acjs::JsVariant"* %vptr623 to i32 (...)***
  store i32 (...)** bitcast (i8*** @_ZTVN14altered_carbon2js9JsVariantE_GEP to i32 (...)**), i32 (...)*** %1247, align 8
  %1248 = getelementptr inbounds %"cls.acjs::JsVariant", %"cls.acjs::JsVariant"* %vptr623, i32 0, i32 1
  store i32 1, i32* %1248, align 8
  %vptr624 = alloca %"cls.acjs::JsVariant", align 8
  %1249 = bitcast %"cls.acjs::JsVariant"* %vptr624 to i32 (...)***
  store i32 (...)** bitcast (i8*** @_ZTVN14altered_carbon2js9JsVariantE_GEP to i32 (...)**), i32 (...)*** %1249, align 8
  %1250 = getelementptr inbounds %"cls.acjs::JsVariant", %"cls.acjs::JsVariant"* %vptr624, i32 0, i32 1
  store i32 1, i32* %1250, align 8
  %vptr625 = alloca %"cls.acjs::JsVariant", align 8
  %1251 = bitcast %"cls.acjs::JsVariant"* %vptr625 to i32 (...)***
  store i32 (...)** bitcast (i8*** @_ZTVN14altered_carbon2js9JsVariantE_GEP to i32 (...)**), i32 (...)*** %1251, align 8
  %1252 = getelementptr inbounds %"cls.acjs::JsVariant", %"cls.acjs::JsVariant"* %vptr625, i32 0, i32 1
  store i32 1, i32* %1252, align 8
  %vptr626 = alloca %"cls.acjs::JsVariant", align 8
  %1253 = bitcast %"cls.acjs::JsVariant"* %vptr626 to i32 (...)***
  store i32 (...)** bitcast (i8*** @_ZTVN14altered_carbon2js9JsVariantE_GEP to i32 (...)**), i32 (...)*** %1253, align 8
  %1254 = getelementptr inbounds %"cls.acjs::JsVariant", %"cls.acjs::JsVariant"* %vptr626, i32 0, i32 1
  store i32 1, i32* %1254, align 8
  %vptr627 = alloca %"cls.acjs::JsVariant", align 8
  %1255 = bitcast %"cls.acjs::JsVariant"* %vptr627 to i32 (...)***
  store i32 (...)** bitcast (i8*** @_ZTVN14altered_carbon2js9JsVariantE_GEP to i32 (...)**), i32 (...)*** %1255, align 8
  %1256 = getelementptr inbounds %"cls.acjs::JsVariant", %"cls.acjs::JsVariant"* %vptr627, i32 0, i32 1
  store i32 1, i32* %1256, align 8
  %vptr628 = alloca %"cls.acjs::JsVariant", align 8
  %1257 = bitcast %"cls.acjs::JsVariant"* %vptr628 to i32 (...)***
  store i32 (...)** bitcast (i8*** @_ZTVN14altered_carbon2js9JsVariantE_GEP to i32 (...)**), i32 (...)*** %1257, align 8
  %1258 = getelementptr inbounds %"cls.acjs::JsVariant", %"cls.acjs::JsVariant"* %vptr628, i32 0, i32 1
  store i32 1, i32* %1258, align 8
  %vptr629 = alloca %"cls.acjs::JsVariant", align 8
  %1259 = bitcast %"cls.acjs::JsVariant"* %vptr629 to i32 (...)***
  store i32 (...)** bitcast (i8*** @_ZTVN14altered_carbon2js9JsVariantE_GEP to i32 (...)**), i32 (...)*** %1259, align 8
  %1260 = getelementptr inbounds %"cls.acjs::JsVariant", %"cls.acjs::JsVariant"* %vptr629, i32 0, i32 1
  store i32 1, i32* %1260, align 8
  %vptr630 = alloca %"cls.acjs::JsVariant", align 8
  %1261 = bitcast %"cls.acjs::JsVariant"* %vptr630 to i32 (...)***
  store i32 (...)** bitcast (i8*** @_ZTVN14altered_carbon2js9JsVariantE_GEP to i32 (...)**), i32 (...)*** %1261, align 8
  %1262 = getelementptr inbounds %"cls.acjs::JsVariant", %"cls.acjs::JsVariant"* %vptr630, i32 0, i32 1
  store i32 1, i32* %1262, align 8
  %vptr631 = alloca %"cls.acjs::JsVariant", align 8
  %1263 = bitcast %"cls.acjs::JsVariant"* %vptr631 to i32 (...)***
  store i32 (...)** bitcast (i8*** @_ZTVN14altered_carbon2js9JsVariantE_GEP to i32 (...)**), i32 (...)*** %1263, align 8
  %1264 = getelementptr inbounds %"cls.acjs::JsVariant", %"cls.acjs::JsVariant"* %vptr631, i32 0, i32 1
  store i32 1, i32* %1264, align 8
  %vptr632 = alloca %"cls.acjs::JsVariant", align 8
  %1265 = bitcast %"cls.acjs::JsVariant"* %vptr632 to i32 (...)***
  store i32 (...)** bitcast (i8*** @_ZTVN14altered_carbon2js9JsVariantE_GEP to i32 (...)**), i32 (...)*** %1265, align 8
  %1266 = getelementptr inbounds %"cls.acjs::JsVariant", %"cls.acjs::JsVariant"* %vptr632, i32 0, i32 1
  store i32 1, i32* %1266, align 8
  %vptr633 = alloca %"cls.acjs::JsVariant", align 8
  %1267 = bitcast %"cls.acjs::JsVariant"* %vptr633 to i32 (...)***
  store i32 (...)** bitcast (i8*** @_ZTVN14altered_carbon2js9JsVariantE_GEP to i32 (...)**), i32 (...)*** %1267, align 8
  %1268 = getelementptr inbounds %"cls.acjs::JsVariant", %"cls.acjs::JsVariant"* %vptr633, i32 0, i32 1
  store i32 1, i32* %1268, align 8
  %vptr634 = alloca %"cls.acjs::JsVariant", align 8
  %1269 = bitcast %"cls.acjs::JsVariant"* %vptr634 to i32 (...)***
  store i32 (...)** bitcast (i8*** @_ZTVN14altered_carbon2js9JsVariantE_GEP to i32 (...)**), i32 (...)*** %1269, align 8
  %1270 = getelementptr inbounds %"cls.acjs::JsVariant", %"cls.acjs::JsVariant"* %vptr634, i32 0, i32 1
  store i32 1, i32* %1270, align 8
  %vptr635 = alloca %"cls.acjs::JsVariant", align 8
  %1271 = bitcast %"cls.acjs::JsVariant"* %vptr635 to i32 (...)***
  store i32 (...)** bitcast (i8*** @_ZTVN14altered_carbon2js9JsVariantE_GEP to i32 (...)**), i32 (...)*** %1271, align 8
  %1272 = getelementptr inbounds %"cls.acjs::JsVariant", %"cls.acjs::JsVariant"* %vptr635, i32 0, i32 1
  store i32 1, i32* %1272, align 8
  %vptr636 = alloca %"cls.acjs::JsVariant", align 8
  %1273 = bitcast %"cls.acjs::JsVariant"* %vptr636 to i32 (...)***
  store i32 (...)** bitcast (i8*** @_ZTVN14altered_carbon2js9JsVariantE_GEP to i32 (...)**), i32 (...)*** %1273, align 8
  %1274 = getelementptr inbounds %"cls.acjs::JsVariant", %"cls.acjs::JsVariant"* %vptr636, i32 0, i32 1
  store i32 1, i32* %1274, align 8
  %vptr637 = alloca %"cls.acjs::JsVariant", align 8
  %1275 = bitcast %"cls.acjs::JsVariant"* %vptr637 to i32 (...)***
  store i32 (...)** bitcast (i8*** @_ZTVN14altered_carbon2js9JsVariantE_GEP to i32 (...)**), i32 (...)*** %1275, align 8
  %1276 = getelementptr inbounds %"cls.acjs::JsVariant", %"cls.acjs::JsVariant"* %vptr637, i32 0, i32 1
  store i32 1, i32* %1276, align 8
  %vptr638 = alloca %"cls.acjs::JsVariant", align 8
  %1277 = bitcast %"cls.acjs::JsVariant"* %vptr638 to i32 (...)***
  store i32 (...)** bitcast (i8*** @_ZTVN14altered_carbon2js9JsVariantE_GEP to i32 (...)**), i32 (...)*** %1277, align 8
  %1278 = getelementptr inbounds %"cls.acjs::JsVariant", %"cls.acjs::JsVariant"* %vptr638, i32 0, i32 1
  store i32 1, i32* %1278, align 8
  %vptr639 = alloca %"cls.acjs::JsVariant", align 8
  %1279 = bitcast %"cls.acjs::JsVariant"* %vptr639 to i32 (...)***
  store i32 (...)** bitcast (i8*** @_ZTVN14altered_carbon2js9JsVariantE_GEP to i32 (...)**), i32 (...)*** %1279, align 8
  %1280 = getelementptr inbounds %"cls.acjs::JsVariant", %"cls.acjs::JsVariant"* %vptr639, i32 0, i32 1
  store i32 1, i32* %1280, align 8
  %vptr640 = alloca %"cls.acjs::JsVariant", align 8
  %1281 = bitcast %"cls.acjs::JsVariant"* %vptr640 to i32 (...)***
  store i32 (...)** bitcast (i8*** @_ZTVN14altered_carbon2js9JsVariantE_GEP to i32 (...)**), i32 (...)*** %1281, align 8
  %1282 = getelementptr inbounds %"cls.acjs::JsVariant", %"cls.acjs::JsVariant"* %vptr640, i32 0, i32 1
  store i32 1, i32* %1282, align 8
  %vptr641 = alloca %"cls.acjs::JsVariant", align 8
  %1283 = bitcast %"cls.acjs::JsVariant"* %vptr641 to i32 (...)***
