	.section	__TEXT,__text,regular,pure_instructions
	.macosx_version_min 10, 14
	.section	__TEXT,__literal8,8byte_literals
	.p2align	3               ## -- Begin function _Z7_scriptPN14altered_carbon2js9JsVariantE
LCPI0_0:
	.quad	4614150418745444507     ## double 3.0944135899999998
LCPI0_1:
	.quad	4600965688173006406     ## double 0.40490212599999997
LCPI0_2:
	.quad	4601379933950475557     ## double 0.42789738599999999
LCPI0_3:
	.quad	4613936528094887899     ## double 2.9994270599999999
LCPI0_4:
	.quad	4611421501259678153     ## double 1.9412653900000001
LCPI0_5:
	.quad	4613302770589059230     ## double 2.7179821899999999
LCPI0_6:
	.quad	4615888266283466357     ## double 3.8661729299999998
LCPI0_7:
	.quad	4612524984094051573     ## double 2.3725755999999998
LCPI0_8:
	.quad	4612424835702661889     ## double 2.3281007800000002
LCPI0_9:
	.quad	4611801990598874324     ## double 2.0515019900000002
LCPI0_10:
	.quad	4615697280490254593     ## double 3.7813582000000001
LCPI0_11:
	.quad	4599776157519518214     ## double 0.33886991
LCPI0_12:
	.quad	4612630176562059910     ## double 2.4192904400000002
LCPI0_13:
	.quad	4611734515687673223     ## double 2.0215371100000001
LCPI0_14:
	.quad	4613414093289326349     ## double 2.7674194000000001
LCPI0_15:
	.quad	4614365224707589382     ## double 3.1898065999999998
LCPI0_16:
	.quad	4611769276226001123     ## double 2.0369738900000001
LCPI0_17:
	.quad	4609380749987414670     ## double 1.48812758
LCPI0_18:
	.quad	4612396821984417754     ## double 2.31566019
LCPI0_19:
	.quad	4610648004871157531     ## double 1.7695146900000001
LCPI0_20:
	.quad	4611868425448777479     ## double 2.0810049899999998
LCPI0_21:
	.quad	4612536397971911185     ## double 2.37764438
LCPI0_22:
	.quad	4607871454951342301     ## double 1.15299676
LCPI0_23:
	.quad	4606406241535732203     ## double 0.91382701300000002
LCPI0_24:
	.quad	4608738806626313302     ## double 1.34558752
LCPI0_25:
	.quad	4612926437644477158     ## double 2.5508567900000001
LCPI0_26:
	.quad	4601141218454470166     ## double 0.41464601400000001
LCPI0_27:
	.quad	4612562926132782235     ## double 2.3894252499999999
LCPI0_28:
	.quad	4604361603170601540     ## double 0.68682655400000003
LCPI0_29:
	.quad	4616248706081258435     ## double 4.0524807100000002
LCPI0_30:
	.quad	4612582968749901902     ## double 2.3983259600000002
LCPI0_31:
	.quad	4599939427237385217     ## double 0.3479332
LCPI0_32:
	.quad	4616439186818289988     ## double 4.2216615900000001
LCPI0_33:
	.quad	4611932409912641381     ## double 2.1094198
LCPI0_34:
	.quad	4612297834238206037     ## double 2.2717008000000001
LCPI0_35:
	.quad	4610528305317957516     ## double 1.74293605
LCPI0_36:
	.quad	4610629620907262627     ## double 1.7654326300000001
LCPI0_37:
	.quad	4613040996744026495     ## double 2.6017312499999998
LCPI0_38:
	.quad	4614744829517300740     ## double 3.3583850000000002
LCPI0_39:
	.quad	4614024801957730087     ## double 3.03862853
LCPI0_40:
	.quad	4607608467115994012     ## double 1.0946017299999999
LCPI0_41:
	.quad	4612663631394265844     ## double 2.4341473699999998
LCPI0_42:
	.quad	4607721049675738890     ## double 1.1196000800000001
LCPI0_43:
	.quad	4605598264309442138     ## double 0.82412352099999997
LCPI0_44:
	.quad	4614460972947035138     ## double 3.2323273600000002
LCPI0_45:
	.quad	4608205622719233136     ## double 1.22719691
LCPI0_46:
	.quad	4610433389974226847     ## double 1.72186061
LCPI0_47:
	.quad	4616831545991031044     ## double 4.5701465399999996
LCPI0_48:
	.quad	4612448058941982389     ## double 2.33841397
LCPI0_49:
	.quad	4614932935528766778     ## double 3.4419208499999998
LCPI0_50:
	.quad	4612770839538359403     ## double 2.4817573500000001
LCPI0_51:
	.quad	4613187395369703419     ## double 2.6667453000000001
LCPI0_52:
	.quad	4608743717396382983     ## double 1.34667793
LCPI0_53:
	.quad	4608027386729156448     ## double 1.18762057
LCPI0_54:
	.quad	4609048909724847256     ## double 1.4144442399999999
LCPI0_55:
	.quad	4607393302644800800     ## double 1.0468256199999999
LCPI0_56:
	.quad	4610147578481434996     ## double 1.65839771
LCPI0_57:
	.quad	4607160976216435575     ## double 0.99761939499999996
LCPI0_58:
	.quad	4614931050457070750     ## double 3.44108371
LCPI0_59:
	.quad	4614723502248387366     ## double 3.3489137900000001
LCPI0_60:
	.quad	4612131622611436448     ## double 2.1978880099999998
LCPI0_61:
	.quad	4611769274672259251     ## double 2.0369731999999998
LCPI0_62:
	.quad	4612088718168866378     ## double 2.17883461
LCPI0_63:
	.quad	4615398284777107609     ## double 3.64857743
LCPI0_64:
	.quad	4614118603741416893     ## double 3.0802848900000002
LCPI0_65:
	.quad	4614008898936797909     ## double 3.0315661700000001
LCPI0_66:
	.quad	4612615059914658667     ## double 2.4125773000000001
LCPI0_67:
	.quad	4613130194880620208     ## double 2.6413431799999998
LCPI0_68:
	.quad	4615083563282191782     ## double 3.5088130099999999
LCPI0_69:
	.quad	4607691971824456802     ## double 1.1131435000000001
LCPI0_70:
	.quad	4609000869827622095     ## double 1.4037772399999999
LCPI0_71:
	.quad	4615090435234791194     ## double 3.5118647699999999
LCPI0_72:
	.quad	4614298226457372842     ## double 3.1600533999999998
LCPI0_73:
	.quad	4614688009019436089     ## double 3.3331516300000001
LCPI0_74:
	.quad	4601629483503902935     ## double 0.44175016900000003
LCPI0_75:
	.quad	4612651534905810712     ## double 2.4287754499999998
LCPI0_76:
	.quad	4611895128867228029     ## double 2.0928636900000002
LCPI0_77:
	.quad	4614089287784822506     ## double 3.0672659900000001
LCPI0_78:
	.quad	4606095222224890056     ## double 0.879296933
LCPI0_79:
	.quad	4612719226079865920     ## double 2.4588363700000002
LCPI0_80:
	.quad	4607919224452445835     ## double 1.16360372
LCPI0_81:
	.quad	4610294606012281883     ## double 1.6910443799999999
LCPI0_82:
	.quad	4612600002894916490     ## double 2.40589064
LCPI0_83:
	.quad	4611837039862974334     ## double 2.0670669899999998
LCPI0_84:
	.quad	4606323128208091430     ## double 0.90459957999999996
LCPI0_85:
	.quad	4606129705989999256     ## double 0.88312539999999995
LCPI0_86:
	.quad	4613111527325056769     ## double 2.63305312
LCPI0_87:
	.quad	4612732585535282553     ## double 2.4647691599999999
LCPI0_88:
	.quad	4610620797589980671     ## double 1.7634734599999999
LCPI0_89:
	.quad	4612218501957172019     ## double 2.2364701899999999
LCPI0_90:
	.quad	4606689884221044302     ## double 0.94531767700000002
LCPI0_91:
	.quad	4612211656800990390     ## double 2.23343033
LCPI0_92:
	.quad	4610350956131683454     ## double 1.7035566200000001
LCPI0_93:
	.quad	4606199926917029951     ## double 0.89092148900000001
LCPI0_94:
	.quad	4610192681040911193     ## double 1.6684124899999999
LCPI0_95:
	.quad	4612489660763396239     ## double 2.35688889
LCPI0_96:
	.quad	4610541508926309045     ## double 1.7458678400000001
LCPI0_97:
	.quad	4608544935264230290     ## double 1.3025394299999999
LCPI0_98:
	.quad	4610718229274967138     ## double 1.7851076400000001
LCPI0_99:
	.quad	4608332734927203825     ## double 1.25542149
LCPI0_100:
	.quad	4610200248754617038     ## double 1.67009286
LCPI0_101:
	.quad	4610890997219556254     ## double 1.8234698300000001
LCPI0_102:
	.quad	4611361897829977762     ## double 1.9280307699999999
LCPI0_103:
	.quad	4610676555305887257     ## double 1.77585416
LCPI0_104:
	.quad	4616988956570818835     ## double 4.7099552200000003
LCPI0_105:
	.quad	4604435119183321198     ## double 0.69498847100000005
LCPI0_106:
	.quad	4595732448516531397     ## double 0.18219948399999999
LCPI0_107:
	.quad	4615097026230327853     ## double 3.51479176
LCPI0_108:
	.quad	4612619875906474190     ## double 2.4147160300000001
LCPI0_109:
	.quad	4612843243459208676     ## double 2.5139111500000002
LCPI0_110:
	.quad	4613278790294641369     ## double 2.7073328000000001
LCPI0_111:
	.quad	4612574566361559118     ## double 2.3945945499999999
LCPI0_112:
	.quad	4615260486495495090     ## double 3.5873827
LCPI0_113:
	.quad	4612934277668334471     ## double 2.5543384599999999
LCPI0_114:
	.quad	4608492926029401554     ## double 1.2909910600000001
LCPI0_115:
	.quad	4612753414435861162     ## double 2.4740190499999999
LCPI0_116:
	.quad	4610037815175056853     ## double 1.6340253600000001
LCPI0_117:
	.quad	4610996858472109254     ## double 1.8469757499999999
LCPI0_118:
	.quad	4604609798158354594     ## double 0.71438173299999996
LCPI0_119:
	.quad	4609812496437783808     ## double 1.5839945499999999
LCPI0_120:
	.quad	4613167519948719918     ## double 2.6579188399999998
LCPI0_121:
	.quad	4609029362165916629     ## double 1.4101038100000001
LCPI0_122:
	.quad	4614625320016005000     ## double 3.30531212
LCPI0_123:
	.quad	4610699056505597500     ## double 1.7808504300000001
LCPI0_124:
	.quad	4613026267834035171     ## double 2.5951903000000001
LCPI0_125:
	.quad	4609344102170626924     ## double 1.47999013
LCPI0_126:
	.quad	4612028365182562006     ## double 2.1520324999999998
LCPI0_127:
	.quad	4614989763952966774     ## double 3.4671577400000002
LCPI0_128:
	.quad	4609458766564335549     ## double 1.5054507399999999
LCPI0_129:
	.quad	4611439246387965914     ## double 1.9452056
LCPI0_130:
	.quad	4608562473091827204     ## double 1.30643361
LCPI0_131:
	.quad	4613888757895726423     ## double 2.9782128299999999
LCPI0_132:
	.quad	4613723201722846602     ## double 2.9046911199999998
LCPI0_133:
	.quad	4609624175131737583     ## double 1.54217882
LCPI0_134:
	.quad	4610414391989558747     ## double 1.7176422099999999
LCPI0_135:
	.quad	4611963573335874908     ## double 2.12325914
LCPI0_136:
	.quad	4613903890756086325     ## double 2.9849331700000001
LCPI0_137:
	.quad	4614191634112974333     ## double 3.1127168900000002
LCPI0_138:
	.quad	4607768775491926038     ## double 1.1301973400000001
LCPI0_139:
	.quad	4607315309351489994     ## double 1.0295076299999999
LCPI0_140:
	.quad	4614240086337263378     ## double 3.1342340000000002
LCPI0_141:
	.quad	4610337550581924634     ## double 1.70057999
LCPI0_142:
	.quad	4612066238744060334     ## double 2.16885174
LCPI0_143:
	.quad	4611100689366842248     ## double 1.8700308400000001
LCPI0_144:
	.quad	4614490551238307819     ## double 3.2454627600000001
LCPI0_145:
	.quad	4611979636820061809     ## double 2.1303927599999999
LCPI0_146:
	.quad	4616304047461897468     ## double 4.1016337299999996
LCPI0_147:
	.quad	4600918093663769994     ## double 0.40226010000000001
LCPI0_148:
	.quad	4610129306477026828     ## double 1.6543405099999999
LCPI0_149:
	.quad	4612980429769185829     ## double 2.5748341099999998
LCPI0_150:
	.quad	4612927913113787077     ## double 2.55151203
LCPI0_151:
	.quad	4603251602024285846     ## double 0.56359167099999996
LCPI0_152:
	.quad	4610348048562728027     ## double 1.70291101
LCPI0_153:
	.quad	4608386972272912207     ## double 1.2674646000000001
LCPI0_154:
	.quad	4614773504206344185     ## double 3.3711191199999999
LCPI0_155:
	.quad	4616140095392391923     ## double 3.9780075199999998
LCPI0_156:
	.quad	4609012174628298732     ## double 1.40628741
LCPI0_157:
	.quad	4612246112310515528     ## double 2.2487316499999999
LCPI0_158:
	.quad	4603340101350836179     ## double 0.57341706999999997
LCPI0_159:
	.quad	4600753780425840532     ## double 0.39313888299999999
LCPI0_160:
	.quad	4611907465442579296     ## double 2.0983422300000001
LCPI0_161:
	.quad	4612890652334572048     ## double 2.5349649200000002
LCPI0_162:
	.quad	4612793523156372552     ## double 2.4918309000000001
LCPI0_163:
	.quad	4610055301031114066     ## double 1.6379079999999999
LCPI0_164:
	.quad	4615517120765079075     ## double 3.7013512099999999
LCPI0_165:
	.quad	4607228760209679103     ## double 1.0102898600000001
LCPI0_166:
	.quad	4608437416056510469     ## double 1.2786653699999999
LCPI0_167:
	.quad	4614919160481176531     ## double 3.4358035
LCPI0_168:
	.quad	4609618450561215236     ## double 1.5409077099999999
LCPI0_169:
	.quad	4606669915800728496     ## double 0.94310073699999997
LCPI0_170:
	.quad	4606436261323883554     ## double 0.91715987899999996
LCPI0_171:
	.quad	4611139781647435738     ## double 1.87871107
LCPI0_172:
	.quad	4597268350837216669     ## double 0.22482933699999999
LCPI0_173:
	.quad	4611886625598253592     ## double 2.0890874799999999
LCPI0_174:
	.quad	4608573673634172467     ## double 1.30892063
LCPI0_175:
	.quad	4614437270412124294     ## double 3.22180132
LCPI0_176:
	.quad	4609466254113968027     ## double 1.50711331
LCPI0_177:
	.quad	4610886176476443124     ## double 1.8223994100000001
LCPI0_178:
	.quad	4614113559327028269     ## double 3.0780447199999998
LCPI0_179:
	.quad	4608019335689138594     ## double 1.18583288
LCPI0_180:
	.quad	4603854919326434349     ## double 0.63057334700000001
LCPI0_181:
	.quad	4607889757670299927     ## double 1.1570607799999999
LCPI0_182:
	.quad	4612165908853169592     ## double 2.2131141599999999
LCPI0_183:
	.quad	4608821112071231319     ## double 1.363863
LCPI0_184:
	.quad	4600915701081431957     ## double 0.402127285
LCPI0_185:
	.quad	4601302644038361753     ## double 0.42360693399999999
LCPI0_186:
	.quad	4613823323948322452     ## double 2.9491543199999999
LCPI0_187:
	.quad	4612211203130881927     ## double 2.2332288600000001
LCPI0_188:
	.quad	4613032746194545149     ## double 2.59806727
LCPI0_189:
	.quad	4610647909169665449     ## double 1.76949344
LCPI0_190:
	.quad	4614040332440901089     ## double 3.04552545
LCPI0_191:
	.quad	4605590099589562490     ## double 0.82321705499999998
LCPI0_192:
	.quad	4612553766576752100     ## double 2.3853575899999999
LCPI0_193:
	.quad	4610604845614920544     ## double 1.7599314100000001
LCPI0_194:
	.quad	4614586804218681811     ## double 3.2882076699999998
LCPI0_195:
	.quad	4609727366425251497     ## double 1.5650918899999999
LCPI0_196:
	.quad	4613066283735358240     ## double 2.6129609299999998
LCPI0_197:
	.quad	4611164865931748255     ## double 1.8842809
LCPI0_198:
	.quad	4615004193373582878     ## double 3.47356569
LCPI0_199:
	.quad	4612787841955514617     ## double 2.4893079400000002
LCPI0_200:
	.quad	4602886722237959335     ## double 0.52308187699999997
LCPI0_201:
	.quad	4592593241706100933     ## double 0.110034496
LCPI0_202:
	.quad	4610992385406887357     ## double 1.8459825299999999
LCPI0_203:
	.quad	4612193209268786746     ## double 2.2252379800000002
LCPI0_204:
	.quad	4608258881883102453     ## double 1.23902282
LCPI0_205:
	.quad	4608593432817249585     ## double 1.3133080500000001
LCPI0_206:
	.quad	4603181595243417433     ## double 0.55581935699999996
LCPI0_207:
	.quad	4609453841968215012     ## double 1.5043572599999999
LCPI0_208:
	.quad	4609344364280125237     ## double 1.48004833
LCPI0_209:
	.quad	4603259612721058238     ## double 0.56448103699999996
LCPI0_210:
	.quad	4609442105227298115     ## double 1.5017511800000001
LCPI0_211:
	.quad	4596337302338786368     ## double 0.19898755000000001
LCPI0_212:
	.quad	4602823602875051455     ## double 0.51607422000000003
LCPI0_213:
	.quad	4608113581212496685     ## double 1.2067595900000001
LCPI0_214:
	.quad	4608340132449879751     ## double 1.25706407
LCPI0_215:
	.quad	4599415293647022625     ## double 0.31883794100000001
LCPI0_216:
	.quad	4604251751233382730     ## double 0.67463053900000003
LCPI0_217:
	.quad	4601863739553571702     ## double 0.454753992
LCPI0_218:
	.quad	4603067865580818668     ## double 0.54319282800000002
LCPI0_219:
	.quad	4606618652325969255     ## double 0.93740934799999998
LCPI0_220:
	.quad	4603516012357605237     ## double 0.59294711499999997
LCPI0_221:
	.quad	4609193081793386406     ## double 1.44645687
LCPI0_222:
	.quad	4610444131014302129     ## double 1.7242455999999999
LCPI0_223:
	.quad	4612286392010186771     ## double 2.26661943
LCPI0_224:
	.quad	4597344336110561620     ## double 0.22693835200000001
LCPI0_225:
	.quad	4608062104663431873     ## double 1.1953294999999999
LCPI0_226:
	.quad	4609622604276187556     ## double 1.5418300199999999
LCPI0_227:
	.quad	4603716750619248879     ## double 0.615233539
LCPI0_228:
	.quad	4607814711622657265     ## double 1.1403972099999999
LCPI0_229:
	.quad	4600468671206360175     ## double 0.37731214200000002
LCPI0_230:
	.quad	4605495032996941935     ## double 0.81266254299999996
LCPI0_231:
	.quad	4606547219588365226     ## double 0.92947872099999995
LCPI0_232:
	.quad	4573693482191669631     ## double 0.0061092277399999997
LCPI0_233:
	.quad	4599594131372052725     ## double 0.328765429
LCPI0_234:
	.quad	4594166463915746344     ## double 0.13873468
LCPI0_235:
	.quad	4605736129122731952     ## double 0.83942958999999995
LCPI0_236:
	.quad	4612631791102526322     ## double 2.42000744
LCPI0_237:
	.quad	4607399687307920531     ## double 1.0482433
LCPI0_238:
	.quad	4606637843208816594     ## double 0.93953996399999995
LCPI0_239:
	.quad	4607409827883057496     ## double 1.05049496
LCPI0_240:
	.quad	4610732644666870403     ## double 1.7883085000000001
LCPI0_241:
	.quad	4603992520021620416     ## double 0.64585009299999996
LCPI0_242:
	.quad	4609038201966373220     ## double 1.4120666399999999
LCPI0_243:
	.quad	4613102588715624353     ## double 2.6290835800000001
LCPI0_244:
	.quad	4607424508807194791     ## double 1.05375478
LCPI0_245:
	.quad	4609726497815991366     ## double 1.5648990199999999
LCPI0_246:
	.quad	4607609941099116054     ## double 1.0949290199999999
LCPI0_247:
	.quad	4604385533632689524     ## double 0.68948336899999996
LCPI0_248:
	.quad	4609268575093508062     ## double 1.4632197499999999
LCPI0_249:
	.quad	4610936265556534735     ## double 1.8335214200000001
LCPI0_250:
	.quad	4582086851867952646     ## double 0.022307261799999999
LCPI0_251:
	.quad	4595177381916099414     ## double 0.16679329100000001
LCPI0_252:
	.quad	4608652421910924805     ## double 1.3264062599999999
LCPI0_253:
	.quad	4608658800314041054     ## double 1.32782255
LCPI0_254:
	.quad	4605544703377376190     ## double 0.81817706300000004
LCPI0_255:
	.quad	4589195443998497416     ## double 0.062880580399999997
LCPI0_256:
	.quad	4607843591270519752     ## double 1.1468097799999999
LCPI0_257:
	.quad	4604962673275615176     ## double 0.75355874099999998
LCPI0_258:
	.quad	4603688088531277191     ## double 0.61205140800000002
LCPI0_259:
	.quad	4606701795089137192     ## double 0.94664004899999998
LCPI0_260:
	.quad	4600136627002787235     ## double 0.35887998599999998
LCPI0_261:
	.quad	4603305985745989317     ## double 0.569629477
LCPI0_262:
	.quad	4610712288846914651     ## double 1.7837886000000001
LCPI0_263:
	.quad	4603485734071842474     ## double 0.58958555000000001
LCPI0_264:
	.quad	4612065920091868699     ## double 2.1687102299999999
LCPI0_265:
	.quad	4612022440607180208     ## double 2.14940146
LCPI0_266:
	.quad	4603098279677131794     ## double 0.54656947099999997
LCPI0_267:
	.quad	4609593157580095987     ## double 1.53529154
LCPI0_268:
	.quad	4606269328197935663     ## double 0.89862657899999998
LCPI0_269:
	.quad	4595739469916580844     ## double 0.182394367
LCPI0_270:
	.quad	4608431716345858066     ## double 1.2773997800000001
LCPI0_271:
	.quad	4610108570192974556     ## double 1.64973613
LCPI0_272:
	.quad	4612176354074303351     ## double 2.2177527700000002
LCPI0_273:
	.quad	4612118007238970989     ## double 2.1918415699999998
LCPI0_274:
	.quad	4609195491759619004     ## double 1.4469919899999999
LCPI0_275:
	.quad	4612220769699728385     ## double 2.2374772699999999
LCPI0_276:
	.quad	4607843876708664135     ## double 1.1468731599999999
LCPI0_277:
	.quad	4611345688744414908     ## double 1.9244316299999999
LCPI0_278:
	.quad	4574962021062835183     ## double 0.0072095098200000004
LCPI0_279:
	.quad	4611608621770955732     ## double 1.98281449
LCPI0_280:
	.quad	4606274521685975552     ## double 0.89920317199999999
LCPI0_281:
	.quad	4597015602953434723     ## double 0.217814174
LCPI0_282:
	.quad	4609649441496583035     ## double 1.54778908
LCPI0_283:
	.quad	4601936800567621007     ## double 0.45880969300000002
LCPI0_284:
	.quad	4613014045672632437     ## double 2.58976257
LCPI0_285:
	.quad	4605458093815272697     ## double 0.80856147
LCPI0_286:
	.quad	4607920863357386231     ## double 1.1639676299999999
LCPI0_287:
	.quad	4608660660976227102     ## double 1.3282357
LCPI0_288:
	.quad	4609088326624901887     ## double 1.4231965499999999
LCPI0_289:
	.quad	4603029723685847342     ## double 0.53895822699999996
LCPI0_290:
	.quad	4603808558191006286     ## double 0.62542622699999995
LCPI0_291:
	.quad	4606058544990589544     ## double 0.87522494200000001
LCPI0_292:
	.quad	4597880612288225130     ## double 0.24182300600000001
LCPI0_293:
	.quad	4610721470965978919     ## double 1.78582744
LCPI0_294:
	.quad	4611363043906010936     ## double 1.9282852500000001
LCPI0_295:
	.quad	4603527891358227164     ## double 0.59426594899999996
LCPI0_296:
	.quad	4602689120319124991     ## double 0.50114365699999996
LCPI0_297:
	.quad	4608589669023933002     ## double 1.3124723199999999
LCPI0_298:
	.quad	4612937300236706383     ## double 2.5556807500000001
LCPI0_299:
	.quad	4605399241396838968     ## double 0.80202753900000001
LCPI0_300:
	.quad	4608446297920587581     ## double 1.2806375400000001
LCPI0_301:
	.quad	4607911133600607275     ## double 1.16180719
LCPI0_302:
	.quad	4608964231603501556     ## double 1.3956419200000001
LCPI0_303:
	.quad	4609509594775198004     ## double 1.5167368699999999
LCPI0_304:
	.quad	4604057484707454014     ## double 0.65306262199999998
LCPI0_305:
	.quad	4608080378559351884     ## double 1.1993871199999999
LCPI0_306:
	.quad	4607674353472498551     ## double 1.1092314400000001
LCPI0_307:
	.quad	4605935890616666812     ## double 0.86160757099999996
LCPI0_308:
	.quad	4612722978996989402     ## double 2.4605030000000001
LCPI0_309:
	.quad	4612935498076279494     ## double 2.5548804299999999
LCPI0_310:
	.quad	4610150423450355602     ## double 1.65902942
LCPI0_311:
	.quad	4607619844874984612     ## double 1.0971280999999999
LCPI0_312:
	.quad	4585361257200365374     ## double 0.036085274799999997
LCPI0_313:
	.quad	4599813173379474708     ## double 0.340924703
LCPI0_314:
	.quad	4591494345144833962     ## double 0.094784242699999993
LCPI0_315:
	.quad	4609886479455770426     ## double 1.60042208
LCPI0_316:
	.quad	4598509231659756930     ## double 0.26854139700000002
LCPI0_317:
	.quad	4604716127488031266     ## double 0.72618665999999998
LCPI0_318:
	.quad	4604723881984028056     ## double 0.72704758199999997
LCPI0_319:
	.quad	4597989062389987928     ## double 0.244833101
LCPI0_320:
	.quad	4607980372301566439     ## double 1.1771812699999999
LCPI0_321:
	.quad	4610892435849421221     ## double 1.82378927
LCPI0_322:
	.quad	4611458944682376070     ## double 1.9495795
LCPI0_323:
	.quad	4599388746944831909     ## double 0.31736430300000001
LCPI0_324:
	.quad	4608798048236819629     ## double 1.3587418
LCPI0_325:
	.quad	4608145196752096803     ## double 1.21377965
LCPI0_326:
	.quad	4605509080228582862     ## double 0.81422209899999998
LCPI0_327:
	.quad	4607652522183232880     ## double 1.1043839200000001
LCPI0_328:
	.quad	4607391662388780516     ## double 1.04646141
LCPI0_329:
	.quad	4605764393713993330     ## double 0.84256759000000003
LCPI0_330:
	.quad	4613464150258752617     ## double 2.7896491600000002
LCPI0_331:
	.quad	4609798459123069261     ## double 1.58087764
LCPI0_332:
	.quad	4601724887073862008     ## double 0.44704613100000001
LCPI0_333:
	.quad	4598314029114688861     ## double 0.25770547900000002
LCPI0_334:
	.quad	4605170256702447646     ## double 0.77660513099999995
LCPI0_335:
	.quad	4576083258105473790     ## double 0.0085515558600000006
LCPI0_336:
	.quad	4607353251547846643     ## double 1.03793249
LCPI0_337:
	.quad	4611566716316855005     ## double 1.97350961
LCPI0_338:
	.quad	4598461857070297521     ## double 0.26591157900000001
LCPI0_339:
	.quad	4610959150102645259     ## double 1.83860281
LCPI0_340:
	.quad	4598270650353006036     ## double 0.25529747400000002
LCPI0_341:
	.quad	4600006054445035657     ## double 0.35163175299999999
LCPI0_342:
	.quad	4611246507365937212     ## double 1.9024089399999999
LCPI0_343:
	.quad	4607778781409434144     ## double 1.1324190999999999
LCPI0_344:
	.quad	4605040363044325496     ## double 0.76218403800000001
LCPI0_345:
	.quad	4606633572003937196     ## double 0.93906576500000005
LCPI0_346:
	.quad	4606322714291256878     ## double 0.904553626
LCPI0_347:
	.quad	4602611843944831667     ## double 0.49628212799999999
LCPI0_348:
	.quad	4609624136851140751     ## double 1.5421703200000001
LCPI0_349:
	.quad	4603603538915643257     ## double 0.60266451499999996
LCPI0_350:
	.quad	4610861304897141007     ## double 1.8168768099999999
LCPI0_351:
	.quad	4604149783234621200     ## double 0.66330981700000002
LCPI0_352:
	.quad	4610903416526032676     ## double 1.8262274700000001
LCPI0_353:
	.quad	4603280514629490407     ## double 0.56680161500000004
LCPI0_354:
	.quad	4596338730988674561     ## double 0.19902720300000001
LCPI0_355:
	.quad	4606934343463899253     ## double 0.97245810499999996
LCPI0_356:
	.quad	4588832743496824830     ## double 0.060173549899999998
LCPI0_357:
	.quad	4604820543238226268     ## double 0.73777913699999997
LCPI0_358:
	.quad	4603716715833445357     ## double 0.61522967699999997
LCPI0_359:
	.quad	4603948035833394655     ## double 0.64091135600000004
LCPI0_360:
	.quad	4608476820661738118     ## double 1.2874149500000001
LCPI0_361:
	.quad	4602741053353048033     ## double 0.50690938200000002
LCPI0_362:
	.quad	4601408228499681656     ## double 0.42946804900000002
LCPI0_363:
	.quad	4604678876738332607     ## double 0.722050996
LCPI0_364:
	.quad	4600340294693858895     ## double 0.370185814
LCPI0_365:
	.quad	4610600367280487083     ## double 1.7589370200000001
LCPI0_366:
	.quad	4599930750007867974     ## double 0.34745151699999999
LCPI0_367:
	.quad	4591272715859057732     ## double 0.091708518500000002
LCPI0_368:
	.quad	4608235436323586347     ## double 1.2338168599999999
LCPI0_369:
	.quad	4589855454133170493     ## double 0.072040061000000002
LCPI0_370:
	.quad	4607864934819945779     ## double 1.1515489999999999
LCPI0_371:
	.quad	4598282187548430644     ## double 0.25593791700000001
LCPI0_372:
	.quad	4602339722314043112     ## double 0.48117634300000001
LCPI0_373:
	.quad	4604010679760297073     ## double 0.64786622900000002
LCPI0_374:
	.quad	4609003275605507040     ## double 1.4043114299999999
LCPI0_375:
	.quad	4597863759710333118     ## double 0.24135525299999999
LCPI0_376:
	.quad	4608049470220001252     ## double 1.19252409
LCPI0_377:
	.quad	4611878542942966354     ## double 2.0854980599999999
LCPI0_378:
	.quad	4610178165128664245     ## double 1.6651893099999999
LCPI0_379:
	.quad	4594435704017392518     ## double 0.146207594
LCPI0_380:
	.quad	4611789598471621653     ## double 2.0459987800000001
LCPI0_381:
	.quad	4604525367365693229     ## double 0.70500803199999995
LCPI0_382:
	.quad	4608883354745421337     ## double 1.37768365
LCPI0_383:
	.quad	4581057713982449177     ## double 0.018736722500000001
LCPI0_384:
	.quad	4600141941322405127     ## double 0.35917499000000003
LCPI0_385:
	.quad	4609456293052312209     ## double 1.5049015100000001
LCPI0_386:
	.quad	4553470759131876888     ## double 2.6211322E-4
LCPI0_387:
	.quad	4597725096111591796     ## double 0.237506565
LCPI0_388:
	.quad	4606790384893004039     ## double 0.95647549300000001
LCPI0_389:
	.quad	4605075310157778759     ## double 0.76606394700000002
LCPI0_390:
	.quad	4609128195866503092     ## double 1.4320493000000001
LCPI0_391:
	.quad	4604642502884517393     ## double 0.71801268699999998
LCPI0_392:
	.quad	4610043290020979862     ## double 1.63524102
LCPI0_393:
	.quad	4605140752189144061     ## double 0.77332947200000002
LCPI0_394:
	.quad	4612382118519764324     ## double 2.30913054
LCPI0_395:
	.quad	4609461607164764517     ## double 1.50608148
LCPI0_396:
	.quad	4613060953747717245     ## double 2.6105939399999998
LCPI0_397:
	.quad	4607016723632542288     ## double 0.98160414100000004
LCPI0_398:
	.quad	4612647020632652225     ## double 2.42677071
LCPI0_399:
	.quad	4609544736948558328     ## double 1.52454
LCPI0_400:
	.quad	4599859719504761064     ## double 0.34350853199999998
LCPI0_401:
	.quad	4603990183509097740     ## double 0.64559068799999997
LCPI0_402:
	.quad	4603260114809366295     ## double 0.56453677999999996
LCPI0_403:
	.quad	4601236431792380979     ## double 0.419931416
LCPI0_404:
	.quad	4592733614078627271     ## double 0.111982554
LCPI0_405:
	.quad	4606910268328176839     ## double 0.96978522799999999
LCPI0_406:
	.quad	4610759416945359254     ## double 1.7942531399999999
LCPI0_407:
	.quad	4612325067167382774     ## double 2.2837946499999999
LCPI0_408:
	.quad	4594860403550316721     ## double 0.15799537399999999
LCPI0_409:
	.quad	4611084775357126979     ## double 1.8664972200000001
LCPI0_410:
	.quad	4612587068736930667     ## double 2.40014672
LCPI0_411:
	.quad	4609135852346157592     ## double 1.4337493800000001
LCPI0_412:
	.quad	4606450296611978269     ## double 0.91871810899999995
LCPI0_413:
	.quad	4594964232850775446     ## double 0.16087721599999999
LCPI0_414:
	.quad	4606972739911328717     ## double 0.97672096699999999
LCPI0_415:
	.quad	4605710885870359789     ## double 0.83662702600000005
LCPI0_416:
	.quad	4603506052007518160     ## double 0.59184129399999996
LCPI0_417:
	.quad	4605837484577900965     ## double 0.85068230600000005
LCPI0_418:
	.quad	4605869815226071515     ## double 0.85427172900000004
LCPI0_419:
	.quad	4610509426318391572     ## double 1.7387440700000001
LCPI0_420:
	.quad	4611522004985078437     ## double 1.9635817
LCPI0_421:
	.quad	4606536742864552074     ## double 0.92831557099999995
LCPI0_422:
	.quad	4602170845452510446     ## double 0.471801794
LCPI0_423:
	.quad	4598655846687899548     ## double 0.27668016600000001
LCPI0_424:
	.quad	4607763062675798718     ## double 1.1289288399999999
LCPI0_425:
	.quad	4613204444421632774     ## double 2.6743166
LCPI0_426:
	.quad	4603602515283476753     ## double 0.60255086899999999
LCPI0_427:
	.quad	4607551669609005459     ## double 1.08199015
LCPI0_428:
	.quad	4608090256439522585     ## double 1.20158045
LCPI0_429:
	.quad	4607494197192576748     ## double 1.06922871
LCPI0_430:
	.quad	4603799712544877379     ## double 0.62444416300000005
LCPI0_431:
	.quad	4608560514161097287     ## double 1.3059986400000001
LCPI0_432:
	.quad	4610993928024867721     ## double 1.8463250600000001
LCPI0_433:
	.quad	4608771017451712166     ## double 1.35273976
LCPI0_434:
	.quad	4598077572101839002     ## double 0.24728973900000001
LCPI0_435:
	.quad	4598899745394730478     ## double 0.29021926399999998
LCPI0_436:
	.quad	4610762450074672292     ## double 1.79492663
LCPI0_437:
	.quad	4604197362422611680     ## double 0.66859216799999999
LCPI0_438:
	.quad	4609467715036651150     ## double 1.5074377000000001
LCPI0_439:
	.quad	4587579439754119807     ## double 0.0514770082
LCPI0_440:
	.quad	4608444348447416881     ## double 1.28020467
LCPI0_441:
	.quad	4603227247494249749     ## double 0.56088777499999998
LCPI0_442:
	.quad	4606961060600314268     ## double 0.97542430300000004
LCPI0_443:
	.quad	4607985830754386805     ## double 1.17839329
LCPI0_444:
	.quad	4607078196785671176     ## double 0.98842903199999998
LCPI0_445:
	.quad	4610173033907392805     ## double 1.6640499500000001
LCPI0_446:
	.quad	4614615263613145071     ## double 3.3008461800000002
LCPI0_447:
	.quad	4607045415462285915     ## double 0.984789574
LCPI0_448:
	.quad	4607785925514559039     ## double 1.1340054100000001
LCPI0_449:
	.quad	4601928936904369249     ## double 0.458373172
LCPI0_450:
	.quad	4599470068155072962     ## double 0.32187853700000002
LCPI0_451:
	.quad	4608581661984083508     ## double 1.3106944
LCPI0_452:
	.quad	4605201083931968990     ## double 0.78002764099999999
LCPI0_453:
	.quad	4608731931521194151     ## double 1.3440609400000001
LCPI0_454:
	.quad	4609249881732318758     ## double 1.45906899
LCPI0_455:
	.quad	4604351336413610215     ## double 0.685686715
LCPI0_456:
	.quad	4607378317277328695     ## double 1.0434981999999999
LCPI0_457:
	.quad	4611615826764747588     ## double 1.98441432
LCPI0_458:
	.quad	4606972761789815707     ## double 0.97672339600000002
LCPI0_459:
	.quad	4605261539478747676     ## double 0.78673955500000003
LCPI0_460:
	.quad	4604580912547726200     ## double 0.71117478599999995
LCPI0_461:
	.quad	4604875568848977429     ## double 0.74388820700000002
LCPI0_462:
	.quad	4609222512456663302     ## double 1.45299179
LCPI0_463:
	.quad	4596181691982877626     ## double 0.194668495
LCPI0_464:
	.quad	4610578767791494232     ## double 1.7541409699999999
LCPI0_465:
	.quad	4612101623728994567     ## double 2.1845658299999999
LCPI0_466:
	.quad	4611725012349365532     ## double 2.0173167799999998
LCPI0_467:
	.quad	4606102642977132860     ## double 0.88012080199999997
LCPI0_468:
	.quad	4602967823807646561     ## double 0.53208595999999997
LCPI0_469:
	.quad	4611885760862089141     ## double 2.0887034600000001
LCPI0_470:
	.quad	4608960580084923684     ## double 1.3948311200000001
LCPI0_471:
	.quad	4603619018571188865     ## double 0.60438310200000001
LCPI0_472:
	.quad	4610558727448692378     ## double 1.74969112
LCPI0_473:
	.quad	4610167336358468222     ## double 1.66278484
LCPI0_474:
	.quad	4605518196847294150     ## double 0.81523424700000002
LCPI0_475:
	.quad	4611917127848025825     ## double 2.1026332000000001
LCPI0_476:
	.quad	4610701077405858290     ## double 1.7812991600000001
LCPI0_477:
	.quad	4596406017289123267     ## double 0.200894773
LCPI0_478:
	.quad	4611736912233178932     ## double 2.0226013900000002
LCPI0_479:
	.quad	4609788331743479204     ## double 1.5786289099999999
LCPI0_480:
	.quad	4611566228306799383     ## double 1.97340125
LCPI0_481:
	.quad	4609309281644351987     ## double 1.47225842
LCPI0_482:
	.quad	4604438163355460522     ## double 0.69532644200000004
LCPI0_483:
	.quad	4608051023916836698     ## double 1.1928690799999999
LCPI0_484:
	.quad	4608205913876949046     ## double 1.2272615600000001
LCPI0_485:
	.quad	4605103430435693677     ## double 0.76918592500000005
LCPI0_486:
	.quad	4608758842870839496     ## double 1.3500364600000001
LCPI0_487:
	.quad	4608579623925108138     ## double 1.3102418600000001
LCPI0_488:
	.quad	4607662348677331832     ## double 1.10656584
LCPI0_489:
	.quad	4612647018425888408     ## double 2.4267697300000002
LCPI0_490:
	.quad	4583365156756719626     ## double 0.026742272800000001
LCPI0_491:
	.quad	4594060275629802802     ## double 0.13578736299999999
LCPI0_492:
	.quad	4609883376745843146     ## double 1.5997331400000001
LCPI0_493:
	.quad	4610275374515973105     ## double 1.6867741300000001
LCPI0_494:
	.quad	4602670023192214695     ## double 0.49951172500000002
LCPI0_495:
	.quad	4601740615427186238     ## double 0.44791923
LCPI0_496:
	.quad	4610235909877762423     ## double 1.6780112199999999
LCPI0_497:
	.quad	4604063253611411093     ## double 0.65370309900000001
LCPI0_498:
	.quad	4603884344207089323     ## double 0.63384016499999996
LCPI0_499:
	.quad	4608366774754483357     ## double 1.26297985
LCPI0_500:
	.quad	4608687148402039522     ## double 1.3341170899999999
LCPI0_501:
	.quad	4573279736859955682     ## double 0.0057503608700000004
LCPI0_502:
	.quad	4607592542207567645     ## double 1.09106569
LCPI0_503:
	.quad	4605738906024247791     ## double 0.83973788800000004
LCPI0_504:
	.quad	4610870339433245487     ## double 1.8188828800000001
LCPI0_505:
	.quad	4612032522342788041     ## double 2.1538786499999998
LCPI0_506:
	.quad	4604715670579834671     ## double 0.72613593300000001
LCPI0_507:
	.quad	4610847715015049439     ## double 1.8138592499999999
LCPI0_508:
	.quad	4601293234199285927     ## double 0.42308458300000001
LCPI0_509:
	.quad	4612186792540037668     ## double 2.2223883799999999
LCPI0_510:
	.quad	4610165797433439553     ## double 1.66244313
LCPI0_511:
	.quad	4609310759095245742     ## double 1.4725864799999999
LCPI0_512:
	.quad	4612861482902591537     ## double 2.5220110899999999
LCPI0_513:
	.quad	4607460399298669198     ## double 1.0617240699999999
LCPI0_514:
	.quad	4604158639662367616     ## double 0.66429307800000004
LCPI0_515:
	.quad	4576547281998127193     ## double 0.0093565090000000007
LCPI0_516:
	.quad	4608364439683112562     ## double 1.2624613600000001
LCPI0_517:
	.quad	4609443794752698323     ## double 1.5021263300000001
LCPI0_518:
	.quad	4607979022707866105     ## double 1.1768816
LCPI0_519:
	.quad	4601321878065693523     ## double 0.42467463700000002
LCPI0_520:
	.quad	4610306488669826708     ## double 1.69368286
LCPI0_521:
	.quad	4605094253459740183     ## double 0.768167076
LCPI0_522:
	.quad	4605072939327826922     ## double 0.76580073199999998
LCPI0_523:
	.quad	4610031500092551365     ## double 1.63262313
LCPI0_524:
	.quad	4601660381962355985     ## double 0.44346537800000002
LCPI0_525:
	.quad	4611410912261126290     ## double 1.9389141599999999
LCPI0_526:
	.quad	4610034215042550729     ## double 1.63322597
LCPI0_527:
	.quad	4608338866713204479     ## double 1.2567830200000001
LCPI0_528:
	.quad	4609709383867191381     ## double 1.56109896
LCPI0_529:
	.quad	4609663242777641112     ## double 1.5508535800000001
LCPI0_530:
	.quad	4594683829550632119     ## double 0.15309446099999999
LCPI0_531:
	.quad	4609858949987076225     ## double 1.5943093100000001
LCPI0_532:
	.quad	4573382029451517043     ## double 0.0058390855500000003
LCPI0_533:
	.quad	4602677850934755824     ## double 0.49994625199999998
LCPI0_534:
	.quad	4607462052254840432     ## double 1.0620911
LCPI0_535:
	.quad	4603140122720348885     ## double 0.55121498199999996
LCPI0_536:
	.quad	4603755098905183928     ## double 0.61949105400000004
LCPI0_537:
	.quad	4581604052988708565     ## double 0.020632216700000001
LCPI0_538:
	.quad	4609744702446549108     ## double 1.5689412599999999
LCPI0_539:
	.quad	4589169040381071181     ## double 0.062514156599999995
LCPI0_540:
	.quad	4608356756902436238     ## double 1.2607554400000001
LCPI0_541:
	.quad	4610915006359529729     ## double 1.8288009300000001
LCPI0_542:
	.quad	4608183241450380971     ## double 1.2222272700000001
LCPI0_543:
	.quad	4611004701941220283     ## double 1.84871735
LCPI0_544:
	.quad	4607444083702975157     ## double 1.05810128
LCPI0_545:
	.quad	4605110207182196966     ## double 0.76993829499999999
LCPI0_546:
	.quad	4612715105691530842     ## double 2.45700655
LCPI0_547:
	.quad	4601612139223003607     ## double 0.44078736800000001
LCPI0_548:
	.quad	4608563925953066994     ## double 1.3067562100000001
LCPI0_549:
	.quad	4609843176985065289     ## double 1.5908070000000001
LCPI0_550:
	.quad	4605734204869719166     ## double 0.83921595500000001
LCPI0_551:
	.quad	4611591849465223479     ## double 1.97909029
LCPI0_552:
	.quad	4608200815622026877     ## double 1.22612952
LCPI0_553:
	.quad	4612639234224148475     ## double 2.4233128499999999
LCPI0_554:
	.quad	4604065951889084636     ## double 0.65400266799999995
LCPI0_555:
	.quad	4601095061638349998     ## double 0.412083796
LCPI0_556:
	.quad	4603859006550261771     ## double 0.63102712000000005
LCPI0_557:
	.quad	4611726161780580428     ## double 2.01782723
LCPI0_558:
	.quad	4607550823652851454     ## double 1.08180231
LCPI0_559:
	.quad	4605486040695594762     ## double 0.81166419700000003
LCPI0_560:
	.quad	4607478616133981931     ## double 1.0657690200000001
LCPI0_561:
	.quad	4608917163132716018     ## double 1.3851906199999999
LCPI0_562:
	.quad	4601871084438175184     ## double 0.45516171500000002
LCPI0_563:
	.quad	4609785613190600138     ## double 1.5780252699999999
LCPI0_564:
	.quad	4607736733776693181     ## double 1.12308265
LCPI0_565:
	.quad	4610043112894406517     ## double 1.6352016899999999
LCPI0_566:
	.quad	4606721096157053015     ## double 0.94878289800000004
LCPI0_567:
	.quad	4605787917924373328     ## double 0.84517930200000002
LCPI0_568:
	.quad	4598548181041134243     ## double 0.27070352199999997
LCPI0_569:
	.quad	4610541304012525999     ## double 1.7458223399999999
LCPI0_570:
	.quad	4610362309571236066     ## double 1.70607759
LCPI0_571:
	.quad	4587705973278361416     ## double 0.052355010899999999
LCPI0_572:
	.quad	4611801805996325598     ## double 2.0514200100000002
LCPI0_573:
	.quad	4609867284123366655     ## double 1.59615986
LCPI0_574:
	.quad	4608512346631858686     ## double 1.2953033
LCPI0_575:
	.quad	4607707399310304326     ## double 1.11656909
LCPI0_576:
	.quad	4602291860795391992     ## double 0.47851949500000002
LCPI0_577:
	.quad	4611752938292452930     ## double 2.0297183900000002
LCPI0_578:
	.quad	4603397101024412005     ## double 0.57974530499999999
LCPI0_579:
	.quad	4612318532084035489     ## double 2.2808924899999998
LCPI0_580:
	.quad	4597913365094817550     ## double 0.24273207899999999
LCPI0_581:
	.quad	4603876257597641612     ## double 0.63294237099999995
LCPI0_582:
	.quad	4600606687259532675     ## double 0.38497357199999999
LCPI0_583:
	.quad	4603090525406314985     ## double 0.54570857399999995
LCPI0_584:
	.quad	4604006711260363028     ## double 0.647425637
LCPI0_585:
	.quad	4606275097363101520     ## double 0.89926708499999997
LCPI0_586:
	.quad	4602776828957695946     ## double 0.510881272
LCPI0_587:
	.quad	4606510191983020904     ## double 0.92536783099999997
LCPI0_588:
	.quad	4595489025137619538     ## double 0.175443128
LCPI0_589:
	.quad	4611686333746915814     ## double 2.0001400299999998
LCPI0_590:
	.quad	4608856800891514413     ## double 1.3717875100000001
LCPI0_591:
	.quad	4611481406835877543     ## double 1.9545671
LCPI0_592:
	.quad	4611578328578278202     ## double 1.97608805
LCPI0_593:
	.quad	4611448475974970255     ## double 1.9472549800000001
LCPI0_594:
	.quad	4590792176093473130     ## double 0.085039689599999995
LCPI0_595:
	.quad	4586775421494544096     ## double 0.0458980108
LCPI0_596:
	.quad	4611955537067663832     ## double 2.1196903200000001
LCPI0_597:
	.quad	4609347160024701916     ## double 1.48066911
LCPI0_598:
	.quad	4612069656390709557     ## double 2.1703694800000002
LCPI0_599:
	.quad	4608954736304119200     ## double 1.39353354
LCPI0_600:
	.quad	4607508273508464069     ## double 1.0723542800000001
LCPI0_601:
	.quad	4613349265233698246     ## double 2.7386299599999999
LCPI0_602:
	.quad	4594858997886801026     ## double 0.15795635899999999
LCPI0_603:
	.quad	4597343287096107615     ## double 0.22690923599999999
LCPI0_604:
	.quad	4600919554559431519     ## double 0.40234119600000001
LCPI0_605:
	.quad	4608251713683719553     ## double 1.2374311600000001
LCPI0_606:
	.quad	4603045961522390218     ## double 0.54076098900000003
LCPI0_607:
	.quad	4587267312860411222     ## double 0.0493111928
LCPI0_608:
	.quad	4608153070035037365     ## double 1.2155278700000001
LCPI0_609:
	.quad	4600161188860535778     ## double 0.360243443
LCPI0_610:
	.quad	4610817184572743539     ## double 1.8070801299999999
LCPI0_611:
	.quad	4606703848406308100     ## double 0.946868013
LCPI0_612:
	.quad	4609390461594687128     ## double 1.49028399
LCPI0_613:
	.quad	4608727727591085985     ## double 1.3431274799999999
LCPI0_614:
	.quad	4604787093904915478     ## double 0.73406551499999995
LCPI0_615:
	.quad	4594095256673375658     ## double 0.13675828200000001
LCPI0_616:
	.quad	4603428826199641452     ## double 0.58326750699999996
LCPI0_617:
	.quad	4595111394345696850     ## double 0.16496176800000001
LCPI0_618:
	.quad	4608256872512056709     ## double 1.2385766499999999
LCPI0_619:
	.quad	4606600061646851455     ## double 0.93534536800000001
LCPI0_620:
	.quad	4603596691931000179     ## double 0.60190434699999995
LCPI0_621:
	.quad	4594481649200358997     ## double 0.14748282900000001
LCPI0_622:
	.quad	4608442127362152654     ## double 1.27971149
LCPI0_623:
	.quad	4606259598369099113     ## double 0.89754635100000002
LCPI0_624:
	.quad	4605349652351413984     ## double 0.796522049
LCPI0_625:
	.quad	4588709690469667403     ## double 0.059319697999999997
LCPI0_626:
	.quad	4605908440384304455     ## double 0.85855998300000003
LCPI0_627:
	.quad	4609288910827409476     ## double 1.46773519
LCPI0_628:
	.quad	4608427943905630199     ## double 1.2765621300000001
LCPI0_629:
	.quad	4611918157618598621     ## double 2.1030905099999999
LCPI0_630:
	.quad	4604179878223879129     ## double 0.66665103199999998
LCPI0_631:
	.quad	4601994886842693327     ## double 0.46203412900000002
LCPI0_632:
	.quad	4590275833063933144     ## double 0.077873990599999998
LCPI0_633:
	.quad	4589781054249392287     ## double 0.071007555200000003
LCPI0_634:
	.quad	4595616348456326359     ## double 0.17897705999999999
LCPI0_635:
	.quad	4612219402677097493     ## double 2.2368701899999999
LCPI0_636:
	.quad	4608338732055575620     ## double 1.2567531199999999
LCPI0_637:
	.quad	4607396053398417202     ## double 1.04743641
LCPI0_638:
	.quad	4608678281444877178     ## double 1.33214823
LCPI0_639:
	.quad	4610053132998253450     ## double 1.6374266
LCPI0_640:
	.quad	4603467300352178887     ## double 0.58753899600000004
LCPI0_641:
	.quad	4605050153311469046     ## double 0.76327097600000005
LCPI0_642:
	.quad	4601564965169828405     ## double 0.43816868199999998
LCPI0_643:
	.quad	4584043119046552454     ## double 0.029094426999999999
LCPI0_644:
	.quad	4608437044419469219     ## double 1.27858285
LCPI0_645:
	.quad	4602701212096814913     ## double 0.50248611399999998
LCPI0_646:
	.quad	4606878851028025118     ## double 0.96629720699999999
LCPI0_647:
	.quad	4603875753401648930     ## double 0.63288639400000002
LCPI0_648:
	.quad	4612081083554188069     ## double 2.1754441600000001
LCPI0_649:
	.quad	4612654861264495488     ## double 2.4302526499999999
LCPI0_650:
	.quad	4608253026167758957     ## double 1.23772259
LCPI0_651:
	.quad	4604022989341072174     ## double 0.64923286700000005
LCPI0_652:
	.quad	4607224109567523898     ## double 1.0092572099999999
LCPI0_653:
	.quad	4608783553806742904     ## double 1.3555233900000001
LCPI0_654:
	.quad	4609438444161089033     ## double 1.5009382600000001
LCPI0_655:
	.quad	4612256548209198058     ## double 2.2533661199999999
LCPI0_656:
	.quad	4608797194579510261     ## double 1.35855225
LCPI0_657:
	.quad	4585885375215479015     ## double 0.039722074099999997
LCPI0_658:
	.quad	4612286929852572270     ## double 2.2668582800000001
LCPI0_659:
	.quad	4596976911123912899     ## double 0.21674025999999999
LCPI0_660:
	.quad	4608776734231007158     ## double 1.3540091400000001
LCPI0_661:
	.quad	4606597378267085479     ## double 0.93504745300000003
LCPI0_662:
	.quad	4608164026437246828     ## double 1.21796068
LCPI0_663:
	.quad	4610717740139011609     ## double 1.78499903
LCPI0_664:
	.quad	4600104251940117160     ## double 0.357082809
LCPI0_665:
	.quad	4603800753714060832     ## double 0.62455975600000002
LCPI0_666:
	.quad	4604500737152309542     ## double 0.70227352899999995
LCPI0_667:
	.quad	4611800240545095124     ## double 2.0507248100000002
LCPI0_668:
	.quad	4605222103744639403     ## double 0.782361309
LCPI0_669:
	.quad	4604222536580758361     ## double 0.67138706100000001
LCPI0_670:
	.quad	4609754819062536056     ## double 1.5711876
LCPI0_671:
	.quad	4603903196617403068     ## double 0.635933203
LCPI0_672:
	.quad	4601179025867097167     ## double 0.41674474700000003
LCPI0_673:
	.quad	4607757566662957460     ## double 1.1277084799999999
LCPI0_674:
	.quad	4603551645567440132     ## double 0.59690319599999997
LCPI0_675:
	.quad	4593720634826436008     ## double 0.12636043699999999
LCPI0_676:
	.quad	4606412946810109406     ## double 0.91457144800000001
LCPI0_677:
	.quad	4608373328527769095     ## double 1.2644350799999999
LCPI0_678:
	.quad	4605077572333885986     ## double 0.76631509900000006
LCPI0_679:
	.quad	4611494117390141867     ## double 1.95738941
LCPI0_680:
	.quad	4608161695374079701     ## double 1.21744308
LCPI0_681:
	.quad	4603438301016652702     ## double 0.58431942299999995
LCPI0_682:
	.quad	4608642864777119566     ## double 1.32428415
LCPI0_683:
	.quad	4604301820578700774     ## double 0.68018935300000005
LCPI0_684:
	.quad	4605245148483788673     ## double 0.78491978900000003
LCPI0_685:
	.quad	4608211536395903836     ## double 1.2285100099999999
LCPI0_686:
	.quad	4603825639876018542     ## double 0.62732267500000005
LCPI0_687:
	.quad	4603901196307599774     ## double 0.63571112399999996
LCPI0_688:
	.quad	4612456933014832145     ## double 2.34235485
LCPI0_689:
	.quad	4602761039958899134     ## double 0.50912834100000004
LCPI0_690:
	.quad	4604134772592947986     ## double 0.66164330100000002
LCPI0_691:
	.quad	4608148392596464378     ## double 1.2144892700000001
LCPI0_692:
	.quad	4607946546800593174     ## double 1.1696705000000001
LCPI0_693:
	.quad	4611549548144715506     ## double 1.96969751
LCPI0_694:
	.quad	4608554082840685416     ## double 1.3045705999999999
LCPI0_695:
	.quad	4605358764232338464     ## double 0.79753367100000005
LCPI0_696:
	.quad	4608271464129813393     ## double 1.2418166399999999
LCPI0_697:
	.quad	4595151270297661499     ## double 0.16606854800000001
LCPI0_698:
	.quad	4604761944606638741     ## double 0.73127338200000003
LCPI0_699:
	.quad	4611664221050227427     ## double 1.99516001
LCPI0_700:
	.quad	4605123032326050209     ## double 0.77136217200000001
LCPI0_701:
	.quad	4608026812520203958     ## double 1.1874930699999999
LCPI0_702:
	.quad	4591972471153956519     ## double 0.101419574
LCPI0_703:
	.quad	4588552042317793510     ## double 0.0582257942
LCPI0_704:
	.quad	4607519017115591138     ## double 1.0747398399999999
LCPI0_705:
	.quad	4607650968486397433     ## double 1.10403893
LCPI0_706:
	.quad	4612184111929985463     ## double 2.2211979500000001
LCPI0_707:
	.quad	4586695105322007406     ## double 0.0453407054
LCPI0_708:
	.quad	4600759976946582230     ## double 0.39348285900000002
LCPI0_709:
	.quad	4608165211064092811     ## double 1.2182237199999999
LCPI0_710:
	.quad	4604342224793894514     ## double 0.68467512200000002
LCPI0_711:
	.quad	4592763759733381008     ## double 0.11240090899999999
LCPI0_712:
	.quad	4605832622509757654     ## double 0.85014250800000002
LCPI0_713:
	.quad	4607605197187412567     ## double 1.0938756599999999
LCPI0_714:
	.quad	4596047537604256009     ## double 0.190944963
LCPI0_715:
	.quad	4607298603834140215     ## double 1.02579826
LCPI0_716:
	.quad	4605838167611834850     ## double 0.850758138
LCPI0_717:
	.quad	4606748988309632408     ## double 0.95187954900000004
LCPI0_718:
	.quad	4612675137213111849     ## double 2.4392569800000001
LCPI0_719:
	.quad	4604288612412706422     ## double 0.67872295199999999
LCPI0_720:
	.quad	4603788129935154128     ## double 0.623158235
LCPI0_721:
	.quad	4604482064561721720     ## double 0.70020045500000005
LCPI0_722:
	.quad	4612569471529372667     ## double 2.3923319900000002
LCPI0_723:
	.quad	4605542727729284456     ## double 0.81795772200000005
LCPI0_724:
	.quad	4610541347742478381     ## double 1.74583205
LCPI0_725:
	.quad	4611971848092204251     ## double 2.1269338699999998
LCPI0_726:
	.quad	4608871555404469619     ## double 1.3750636700000001
LCPI0_727:
	.quad	4603315745019360231     ## double 0.57071297399999998
LCPI0_728:
	.quad	4597936136591570228     ## double 0.24336411499999999
LCPI0_729:
	.quad	4606861152764195079     ## double 0.964332305
LCPI0_730:
	.quad	4601528615662472777     ## double 0.43615087899999999
LCPI0_731:
	.quad	4604761420801973281     ## double 0.73121522800000005
LCPI0_732:
	.quad	4606199769092884609     ## double 0.89090396699999996
LCPI0_733:
	.quad	4608177194827449270     ## double 1.2208846499999999
LCPI0_734:
	.quad	4607767041290817526     ## double 1.12981227
LCPI0_735:
	.quad	4604278813282478806     ## double 0.67763503000000003
LCPI0_736:
	.quad	4608438874322069812     ## double 1.27898917
LCPI0_737:
	.quad	4607976087216592989     ## double 1.1762297900000001
LCPI0_738:
	.quad	4611770128149424634     ## double 2.0373522199999998
LCPI0_739:
	.quad	4609929402182954984     ## double 1.6099528400000001
LCPI0_740:
	.quad	4603618215345188124     ## double 0.60429392599999998
LCPI0_741:
	.quad	4609098814337498130     ## double 1.4255252899999999
LCPI0_742:
	.quad	4610728981078645529     ## double 1.7874950199999999
LCPI0_743:
	.quad	4609267472206995316     ## double 1.4629748600000001
LCPI0_744:
	.quad	4610053265719334469     ## double 1.63745607
LCPI0_745:
	.quad	4610394046437810146     ## double 1.7131245900000001
LCPI0_746:
	.quad	4609365622531374321     ## double 1.4847686099999999
LCPI0_747:
	.quad	4607356020541041536     ## double 1.0385473300000001
LCPI0_748:
	.quad	4600405919670448260     ## double 0.373828732
LCPI0_749:
	.quad	4608900614250561279     ## double 1.38151603
LCPI0_750:
	.quad	4611564042709900220     ## double 1.97291595
LCPI0_751:
	.quad	4613096703411631305     ## double 2.62646998
LCPI0_752:
	.quad	4600981359907076121     ## double 0.40577208199999998
LCPI0_753:
	.quad	4612022142311258889     ## double 2.1492689899999999
LCPI0_754:
	.quad	4609785220431676635     ## double 1.5779380599999999
LCPI0_755:
	.quad	4598239142701638590     ## double 0.25354844799999998
LCPI0_756:
	.quad	4598834389120909281     ## double 0.28659126200000001
LCPI0_757:
	.quad	4606774941113133063     ## double 0.954760889
LCPI0_758:
	.quad	4609042904129708162     ## double 1.4131107300000001
LCPI0_759:
	.quad	4609056426682985301     ## double 1.4161133400000001
LCPI0_760:
	.quad	4606462033587082348     ## double 0.92002117500000002
LCPI0_761:
	.quad	4606782853496325589     ## double 0.95563933999999995
LCPI0_762:
	.quad	4608565351117169075     ## double 1.30707266
LCPI0_763:
	.quad	4603867715998530748     ## double 0.63199406300000005
LCPI0_764:
	.quad	4610963521206371592     ## double 1.83957339
LCPI0_765:
	.quad	4611940197424527039     ## double 2.1128781499999998
LCPI0_766:
	.quad	4612060790019015163     ## double 2.1664320199999998
LCPI0_767:
	.quad	4602428399974131489     ## double 0.48609894199999998
LCPI0_768:
	.quad	4605183053104328067     ## double 0.77802581699999995
LCPI0_769:
	.quad	4611921742168650034     ## double 2.1046823699999999
LCPI0_770:
	.quad	4598791128677795866     ## double 0.28418982500000001
LCPI0_771:
	.quad	4607224946696622634     ## double 1.00944309
LCPI0_772:
	.quad	4593296263335708663     ## double 0.119790881
LCPI0_773:
	.quad	4608876595472884602     ## double 1.3761827900000001
LCPI0_774:
	.quad	4607389642119023674     ## double 1.0460128200000001
LCPI0_775:
	.quad	4609138890609574205     ## double 1.4344240100000001
LCPI0_776:
	.quad	4613178913357719224     ## double 2.6629785300000002
LCPI0_777:
	.quad	4606083341179633898     ## double 0.87797787199999999
LCPI0_778:
	.quad	4594015618116041781     ## double 0.13454786799999999
LCPI0_779:
	.quad	4611401702625068299     ## double 1.93686921
LCPI0_780:
	.quad	4606852721161001513     ## double 0.963396209
LCPI0_781:
	.quad	4611113041389540237     ## double 1.8727735400000001
LCPI0_782:
	.quad	4603331315179243950     ## double 0.57244160899999996
LCPI0_783:
	.quad	4612115403955724386     ## double 2.19068548
LCPI0_784:
	.quad	4611973728885480634     ## double 2.12776911
LCPI0_785:
	.quad	4603383315713118207     ## double 0.57821482800000001
LCPI0_786:
	.quad	4608373701966250197     ## double 1.264518
LCPI0_787:
	.quad	4608851626795974519     ## double 1.37063863
LCPI0_788:
	.quad	4611418379499524448     ## double 1.94057222
LCPI0_789:
	.quad	4602137975246082939     ## double 0.46997713099999999
LCPI0_790:
	.quad	4591037104726701404     ## double 0.088438757199999996
LCPI0_791:
	.quad	4608883324120943871     ## double 1.3776768500000001
LCPI0_792:
	.quad	4591223642735197420     ## double 0.091027492099999996
LCPI0_793:
	.quad	4604129569818485665     ## double 0.66106567699999996
LCPI0_794:
	.quad	4590128238668604039     ## double 0.075825706899999998
LCPI0_795:
	.quad	4609714307967915959     ## double 1.56219233
LCPI0_796:
	.quad	4608657468869847218     ## double 1.32752691
LCPI0_797:
	.quad	4598276055411149219     ## double 0.255597515
LCPI0_798:
	.quad	4604987756920416546     ## double 0.75634358499999998
LCPI0_799:
	.quad	4604340350575873587     ## double 0.68446704199999997
	.section	__TEXT,__text,regular,pure_instructions
	.globl	__Z7_scriptPN14altered_carbon2js9JsVariantE
	.p2align	4, 0x90
__Z7_scriptPN14altered_carbon2js9JsVariantE: ## @_Z7_scriptPN14altered_carbon2js9JsVariantE
	.cfi_startproc
## %bb.0:                               ## %init.bb
	pushq	%r15
	.cfi_def_cfa_offset 16
	pushq	%r14
	.cfi_def_cfa_offset 24
	pushq	%rbx
	.cfi_def_cfa_offset 32
	subq	$81440, %rsp            ## imm = 0x13E20
	.cfi_def_cfa_offset 81472
	.cfi_offset %rbx, -32
	.cfi_offset %r14, -24
	.cfi_offset %r15, -16
	movq	%rdi, %r14
	leaq	__ZTVN14altered_carbon2js9JsVariantE_GEP(%rip), %r15
	movq	%r15, 51256(%rsp)
	movl	$1, 51264(%rsp)
	movq	%r15, 51200(%rsp)
	movl	$1, 51208(%rsp)
	movq	%r15, 51144(%rsp)
	movl	$1, 51152(%rsp)
	movq	%r15, 51088(%rsp)
	movl	$1, 51096(%rsp)
	movq	%r15, 51032(%rsp)
	movl	$1, 51040(%rsp)
	movq	%r15, 50976(%rsp)
	movl	$1, 50984(%rsp)
	movq	%r15, 50920(%rsp)
	movl	$1, 50928(%rsp)
	movq	%r15, 50864(%rsp)
	movl	$1, 50872(%rsp)
	movq	%r15, 50808(%rsp)
	movl	$1, 50816(%rsp)
	movq	%r15, 50752(%rsp)
	movl	$1, 50760(%rsp)
	movq	%r15, 50696(%rsp)
	movl	$1, 50704(%rsp)
	movq	%r15, 50640(%rsp)
	movl	$1, 50648(%rsp)
	movq	%r15, 50584(%rsp)
	movl	$1, 50592(%rsp)
	movq	%r15, 50528(%rsp)
	movl	$1, 50536(%rsp)
	movq	%r15, 50472(%rsp)
	movl	$1, 50480(%rsp)
	movq	%r15, 50416(%rsp)
	movl	$1, 50424(%rsp)
	movq	%r15, 50360(%rsp)
	movl	$1, 50368(%rsp)
	movq	%r15, 50304(%rsp)
	movl	$1, 50312(%rsp)
	movq	%r15, 50248(%rsp)
	movl	$1, 50256(%rsp)
	movq	%r15, 50192(%rsp)
	movl	$1, 50200(%rsp)
	movq	%r15, 50136(%rsp)
	movl	$1, 50144(%rsp)
	movq	%r15, 50080(%rsp)
	movl	$1, 50088(%rsp)
	movq	%r15, 50024(%rsp)
	movl	$1, 50032(%rsp)
	movq	%r15, 49968(%rsp)
	movl	$1, 49976(%rsp)
	movq	%r15, 49912(%rsp)
	movl	$1, 49920(%rsp)
	movq	%r15, 49856(%rsp)
	movl	$1, 49864(%rsp)
	movq	%r15, 49800(%rsp)
	movl	$1, 49808(%rsp)
	movq	%r15, 49744(%rsp)
	movl	$1, 49752(%rsp)
	movq	%r15, 49688(%rsp)
	movl	$1, 49696(%rsp)
	movq	%r15, 49632(%rsp)
	movl	$1, 49640(%rsp)
	movq	%r15, 49576(%rsp)
	movl	$1, 49584(%rsp)
	movq	%r15, 49520(%rsp)
	movl	$1, 49528(%rsp)
	movq	%r15, 49464(%rsp)
	movl	$1, 49472(%rsp)
	movq	%r15, 49408(%rsp)
	movl	$1, 49416(%rsp)
	movq	%r15, 49352(%rsp)
	movl	$1, 49360(%rsp)
	movq	%r15, 49296(%rsp)
	movl	$1, 49304(%rsp)
	movq	%r15, 49240(%rsp)
	movl	$1, 49248(%rsp)
	movq	%r15, 49184(%rsp)
	movl	$1, 49192(%rsp)
	movq	%r15, 49128(%rsp)
	movl	$1, 49136(%rsp)
	movq	%r15, 49072(%rsp)
	movl	$1, 49080(%rsp)
	movq	%r15, 49016(%rsp)
	movl	$1, 49024(%rsp)
	movq	%r15, 48960(%rsp)
	movl	$1, 48968(%rsp)
	movq	%r15, 48904(%rsp)
	movl	$1, 48912(%rsp)
	movq	%r15, 48848(%rsp)
	movl	$1, 48856(%rsp)
	movq	%r15, 48792(%rsp)
	movl	$1, 48800(%rsp)
	movq	%r15, 48736(%rsp)
	movl	$1, 48744(%rsp)
	movq	%r15, 48680(%rsp)
	movl	$1, 48688(%rsp)
	movq	%r15, 48624(%rsp)
	movl	$1, 48632(%rsp)
	movq	%r15, 48568(%rsp)
	movl	$1, 48576(%rsp)
	movq	%r15, 48512(%rsp)
	movl	$1, 48520(%rsp)
	movq	%r15, 48456(%rsp)
	movl	$1, 48464(%rsp)
	movq	%r15, 48400(%rsp)
	movl	$1, 48408(%rsp)
	movq	%r15, 48344(%rsp)
	movl	$1, 48352(%rsp)
	movq	%r15, 48288(%rsp)
	movl	$1, 48296(%rsp)
	movq	%r15, 48232(%rsp)
	movl	$1, 48240(%rsp)
	movq	%r15, 48176(%rsp)
	movl	$1, 48184(%rsp)
	movq	%r15, 48120(%rsp)
	movl	$1, 48128(%rsp)
	movq	%r15, 48064(%rsp)
	movl	$1, 48072(%rsp)
	movq	%r15, 48008(%rsp)
	movl	$1, 48016(%rsp)
	movq	%r15, 47952(%rsp)
	movl	$1, 47960(%rsp)
	movq	%r15, 47896(%rsp)
	movl	$1, 47904(%rsp)
	movq	%r15, 47840(%rsp)
	movl	$1, 47848(%rsp)
	movq	%r15, 47784(%rsp)
	movl	$1, 47792(%rsp)
	movq	%r15, 47728(%rsp)
	movl	$1, 47736(%rsp)
	movq	%r15, 47672(%rsp)
	movl	$1, 47680(%rsp)
	movq	%r15, 47616(%rsp)
	movl	$1, 47624(%rsp)
	movq	%r15, 47560(%rsp)
	movl	$1, 47568(%rsp)
	movq	%r15, 47504(%rsp)
	movl	$1, 47512(%rsp)
	movq	%r15, 47448(%rsp)
	movl	$1, 47456(%rsp)
	movq	%r15, 47392(%rsp)
	movl	$1, 47400(%rsp)
	movq	%r15, 47336(%rsp)
	movl	$1, 47344(%rsp)
	movq	%r15, 47280(%rsp)
	movl	$1, 47288(%rsp)
	movq	%r15, 47224(%rsp)
	movl	$1, 47232(%rsp)
	movq	%r15, 47168(%rsp)
	movl	$1, 47176(%rsp)
	movq	%r15, 47112(%rsp)
	movl	$1, 47120(%rsp)
	movq	%r15, 47056(%rsp)
	movl	$1, 47064(%rsp)
	movq	%r15, 47000(%rsp)
	movl	$1, 47008(%rsp)
	movq	%r15, 46944(%rsp)
	movl	$1, 46952(%rsp)
	movq	%r15, 46888(%rsp)
	movl	$1, 46896(%rsp)
	movq	%r15, 46832(%rsp)
	movl	$1, 46840(%rsp)
	movq	%r15, 46776(%rsp)
	movl	$1, 46784(%rsp)
	movq	%r15, 46720(%rsp)
	movl	$1, 46728(%rsp)
	movq	%r15, 46664(%rsp)
	movl	$1, 46672(%rsp)
	movq	%r15, 46608(%rsp)
	movl	$1, 46616(%rsp)
	movq	%r15, 46552(%rsp)
	movl	$1, 46560(%rsp)
	movq	%r15, 46496(%rsp)
	movl	$1, 46504(%rsp)
	movq	%r15, 46440(%rsp)
	movl	$1, 46448(%rsp)
	movq	%r15, 46384(%rsp)
	movl	$1, 46392(%rsp)
	movq	%r15, 46328(%rsp)
	movl	$1, 46336(%rsp)
	movq	%r15, 46272(%rsp)
	movl	$1, 46280(%rsp)
	movq	%r15, 46216(%rsp)
	movl	$1, 46224(%rsp)
	movq	%r15, 46160(%rsp)
	movl	$1, 46168(%rsp)
	movq	%r15, 46104(%rsp)
	movl	$1, 46112(%rsp)
	movq	%r15, 81384(%rsp)
	movl	$1, 81392(%rsp)
	movq	%r15, 46048(%rsp)
	movl	$1, 46056(%rsp)
	movq	%r15, 45992(%rsp)
	movl	$1, 46000(%rsp)
	movq	%r15, 45936(%rsp)
	movl	$1, 45944(%rsp)
	movq	%r15, 45880(%rsp)
	movl	$1, 45888(%rsp)
	movq	%r15, 45824(%rsp)
	movl	$1, 45832(%rsp)
	movq	%r15, 45768(%rsp)
	movl	$1, 45776(%rsp)
	movq	%r15, 45712(%rsp)
	movl	$1, 45720(%rsp)
	movq	%r15, 45656(%rsp)
	movl	$1, 45664(%rsp)
	movq	%r15, 45600(%rsp)
	movl	$1, 45608(%rsp)
	movq	%r15, 45544(%rsp)
	movl	$1, 45552(%rsp)
	movq	%r15, 45488(%rsp)
	movl	$1, 45496(%rsp)
	movq	%r15, 45432(%rsp)
	movl	$1, 45440(%rsp)
	movq	%r15, 45376(%rsp)
	movl	$1, 45384(%rsp)
	movq	%r15, 45320(%rsp)
	movl	$1, 45328(%rsp)
	movq	%r15, 45264(%rsp)
	movl	$1, 45272(%rsp)
	movq	%r15, 45208(%rsp)
	movl	$1, 45216(%rsp)
	movq	%r15, 45152(%rsp)
	movl	$1, 45160(%rsp)
	movq	%r15, 45096(%rsp)
	movl	$1, 45104(%rsp)
	movq	%r15, 45040(%rsp)
	movl	$1, 45048(%rsp)
	movq	%r15, 44984(%rsp)
	movl	$1, 44992(%rsp)
	movq	%r15, 44928(%rsp)
	movl	$1, 44936(%rsp)
	movq	%r15, 44872(%rsp)
	movl	$1, 44880(%rsp)
	movq	%r15, 44816(%rsp)
	movl	$1, 44824(%rsp)
	movq	%r15, 44760(%rsp)
	movl	$1, 44768(%rsp)
	movq	%r15, 44704(%rsp)
	movl	$1, 44712(%rsp)
	movq	%r15, 44648(%rsp)
	movl	$1, 44656(%rsp)
	movq	%r15, 44592(%rsp)
	movl	$1, 44600(%rsp)
	movq	%r15, 44536(%rsp)
	movl	$1, 44544(%rsp)
	movq	%r15, 44480(%rsp)
	movl	$1, 44488(%rsp)
	movq	%r15, 44424(%rsp)
	movl	$1, 44432(%rsp)
	movq	%r15, 44368(%rsp)
	movl	$1, 44376(%rsp)
	movq	%r15, 44312(%rsp)
	movl	$1, 44320(%rsp)
	movq	%r15, 44256(%rsp)
	movl	$1, 44264(%rsp)
	movq	%r15, 44200(%rsp)
	movl	$1, 44208(%rsp)
	movq	%r15, 44144(%rsp)
	movl	$1, 44152(%rsp)
	movq	%r15, 44088(%rsp)
	movl	$1, 44096(%rsp)
	movq	%r15, 44032(%rsp)
	movl	$1, 44040(%rsp)
	movq	%r15, 43976(%rsp)
	movl	$1, 43984(%rsp)
	movq	%r15, 43920(%rsp)
	movl	$1, 43928(%rsp)
	movq	%r15, 43864(%rsp)
	movl	$1, 43872(%rsp)
	movq	%r15, 43808(%rsp)
	movl	$1, 43816(%rsp)
	movq	%r15, 43752(%rsp)
	movl	$1, 43760(%rsp)
	movq	%r15, 43696(%rsp)
	movl	$1, 43704(%rsp)
	movq	%r15, 43640(%rsp)
	movl	$1, 43648(%rsp)
	movq	%r15, 43584(%rsp)
	movl	$1, 43592(%rsp)
	movq	%r15, 43528(%rsp)
	movl	$1, 43536(%rsp)
	movq	%r15, 43472(%rsp)
	movl	$1, 43480(%rsp)
	movq	%r15, 43416(%rsp)
	movl	$1, 43424(%rsp)
	movq	%r15, 43360(%rsp)
	movl	$1, 43368(%rsp)
	movq	%r15, 43304(%rsp)
	movl	$1, 43312(%rsp)
	movq	%r15, 43248(%rsp)
	movl	$1, 43256(%rsp)
	movq	%r15, 43192(%rsp)
	movl	$1, 43200(%rsp)
	movq	%r15, 43136(%rsp)
	movl	$1, 43144(%rsp)
	movq	%r15, 43080(%rsp)
	movl	$1, 43088(%rsp)
	movq	%r15, 43024(%rsp)
	movl	$1, 43032(%rsp)
	movq	%r15, 42968(%rsp)
	movl	$1, 42976(%rsp)
	movq	%r15, 42912(%rsp)
	movl	$1, 42920(%rsp)
	movq	%r15, 42856(%rsp)
	movl	$1, 42864(%rsp)
	movq	%r15, 42800(%rsp)
	movl	$1, 42808(%rsp)
	movq	%r15, 42744(%rsp)
	movl	$1, 42752(%rsp)
	movq	%r15, 42688(%rsp)
	movl	$1, 42696(%rsp)
	movq	%r15, 42632(%rsp)
	movl	$1, 42640(%rsp)
	movq	%r15, 42576(%rsp)
	movl	$1, 42584(%rsp)
	movq	%r15, 42520(%rsp)
	movl	$1, 42528(%rsp)
	movq	%r15, 42464(%rsp)
	movl	$1, 42472(%rsp)
	movq	%r15, 81328(%rsp)
	movl	$1, 81336(%rsp)
	movq	%r15, 42408(%rsp)
	movl	$1, 42416(%rsp)
	movq	%r15, 42352(%rsp)
	movl	$1, 42360(%rsp)
	movq	%r15, 42296(%rsp)
	movl	$1, 42304(%rsp)
	movq	%r15, 42240(%rsp)
	movl	$1, 42248(%rsp)
	movq	%r15, 42184(%rsp)
	movl	$1, 42192(%rsp)
	movq	%r15, 42128(%rsp)
	movl	$1, 42136(%rsp)
	movq	%r15, 42072(%rsp)
	movl	$1, 42080(%rsp)
	movq	%r15, 42016(%rsp)
	movl	$1, 42024(%rsp)
	movq	%r15, 41960(%rsp)
	movl	$1, 41968(%rsp)
	movq	%r15, 41904(%rsp)
	movl	$1, 41912(%rsp)
	movq	%r15, 41848(%rsp)
	movl	$1, 41856(%rsp)
	movq	%r15, 41792(%rsp)
	movl	$1, 41800(%rsp)
	movq	%r15, 41736(%rsp)
	movl	$1, 41744(%rsp)
	movq	%r15, 41680(%rsp)
	movl	$1, 41688(%rsp)
	movq	%r15, 41624(%rsp)
	movl	$1, 41632(%rsp)
	movq	%r15, 41568(%rsp)
	movl	$1, 41576(%rsp)
	movq	%r15, 41512(%rsp)
	movl	$1, 41520(%rsp)
	movq	%r15, 41456(%rsp)
	movl	$1, 41464(%rsp)
	movq	%r15, 41400(%rsp)
	movl	$1, 41408(%rsp)
	movq	%r15, 41344(%rsp)
	movl	$1, 41352(%rsp)
	movq	%r15, 41288(%rsp)
	movl	$1, 41296(%rsp)
	movq	%r15, 41232(%rsp)
	movl	$1, 41240(%rsp)
	movq	%r15, 41176(%rsp)
	movl	$1, 41184(%rsp)
	movq	%r15, 41120(%rsp)
	movl	$1, 41128(%rsp)
	movq	%r15, 41064(%rsp)
	movl	$1, 41072(%rsp)
	movq	%r15, 41008(%rsp)
	movl	$1, 41016(%rsp)
	movq	%r15, 40952(%rsp)
	movl	$1, 40960(%rsp)
	movq	%r15, 81272(%rsp)
	movl	$1, 81280(%rsp)
	movq	%r15, 40896(%rsp)
	movl	$1, 40904(%rsp)
	movq	%r15, 40840(%rsp)
	movl	$1, 40848(%rsp)
	movq	%r15, 40784(%rsp)
	movl	$1, 40792(%rsp)
	movq	%r15, 40728(%rsp)
	movl	$1, 40736(%rsp)
	movq	%r15, 40672(%rsp)
	movl	$1, 40680(%rsp)
	movq	%r15, 40616(%rsp)
	movl	$1, 40624(%rsp)
	movq	%r15, 40560(%rsp)
	movl	$1, 40568(%rsp)
	movq	%r15, 40504(%rsp)
	movl	$1, 40512(%rsp)
	movq	%r15, 40448(%rsp)
	movl	$1, 40456(%rsp)
	movq	%r15, 40392(%rsp)
	movl	$1, 40400(%rsp)
	movq	%r15, 40336(%rsp)
	movl	$1, 40344(%rsp)
	movq	%r15, 40280(%rsp)
	movl	$1, 40288(%rsp)
	movq	%r15, 40224(%rsp)
	movl	$1, 40232(%rsp)
	movq	%r15, 40168(%rsp)
	movl	$1, 40176(%rsp)
	movq	%r15, 40112(%rsp)
	movl	$1, 40120(%rsp)
	movq	%r15, 81216(%rsp)
	movl	$1, 81224(%rsp)
	movq	%r15, 40056(%rsp)
	movl	$1, 40064(%rsp)
	movq	%r15, 81160(%rsp)
	movl	$1, 81168(%rsp)
	movq	%r15, 40000(%rsp)
	movl	$1, 40008(%rsp)
	movq	%r15, 81104(%rsp)
	movl	$1, 81112(%rsp)
	movq	%r15, 39944(%rsp)
	movl	$1, 39952(%rsp)
	movq	%r15, 81048(%rsp)
	movl	$1, 81056(%rsp)
	movq	%r15, 39888(%rsp)
	movl	$1, 39896(%rsp)
	movq	%r15, 80992(%rsp)
	movl	$1, 81000(%rsp)
	movq	%r15, 39832(%rsp)
	movl	$1, 39840(%rsp)
	movq	%r15, 80936(%rsp)
	movl	$1, 80944(%rsp)
	movq	%r15, 39776(%rsp)
	movl	$1, 39784(%rsp)
	movq	%r15, 80880(%rsp)
	movl	$1, 80888(%rsp)
	movq	%r15, 39720(%rsp)
	movl	$1, 39728(%rsp)
	movq	%r15, 80824(%rsp)
	movl	$1, 80832(%rsp)
	movq	%r15, 39664(%rsp)
	movl	$1, 39672(%rsp)
	movq	%r15, 80768(%rsp)
	movl	$1, 80776(%rsp)
	movq	%r15, 39608(%rsp)
	movl	$1, 39616(%rsp)
	movq	%r15, 80712(%rsp)
	movl	$1, 80720(%rsp)
	movq	%r15, 39552(%rsp)
	movl	$1, 39560(%rsp)
	movq	%r15, 80656(%rsp)
	movl	$1, 80664(%rsp)
	movq	%r15, 39496(%rsp)
	movl	$1, 39504(%rsp)
	movq	%r15, 39440(%rsp)
	movl	$1, 39448(%rsp)
	movq	%r15, 39384(%rsp)
	movl	$1, 39392(%rsp)
	movq	%r15, 80600(%rsp)
	movl	$1, 80608(%rsp)
	movq	%r15, 39328(%rsp)
	movl	$1, 39336(%rsp)
	movq	%r15, 80544(%rsp)
	movl	$1, 80552(%rsp)
	movq	%r15, 39272(%rsp)
	movl	$1, 39280(%rsp)
	movq	%r15, 80488(%rsp)
	movl	$1, 80496(%rsp)
	movq	%r15, 39216(%rsp)
	movl	$1, 39224(%rsp)
	movq	%r15, 80432(%rsp)
	movl	$1, 80440(%rsp)
	movq	%r15, 39160(%rsp)
	movl	$1, 39168(%rsp)
	movq	%r15, 80376(%rsp)
	movl	$1, 80384(%rsp)
	movq	%r15, 39104(%rsp)
	movl	$1, 39112(%rsp)
	movq	%r15, 80320(%rsp)
	movl	$1, 80328(%rsp)
	movq	%r15, 39048(%rsp)
	movl	$1, 39056(%rsp)
	movq	%r15, 80264(%rsp)
	movl	$1, 80272(%rsp)
	movq	%r15, 38992(%rsp)
	movl	$1, 39000(%rsp)
	movq	%r15, 80208(%rsp)
	movl	$1, 80216(%rsp)
	movq	%r15, 38936(%rsp)
	movl	$1, 38944(%rsp)
	movq	%r15, 80152(%rsp)
	movl	$1, 80160(%rsp)
	movq	%r15, 38880(%rsp)
	movl	$1, 38888(%rsp)
	movq	%r15, 80096(%rsp)
	movl	$1, 80104(%rsp)
	movq	%r15, 38824(%rsp)
	movl	$1, 38832(%rsp)
	movq	%r15, 80040(%rsp)
	movl	$1, 80048(%rsp)
	movq	%r15, 38768(%rsp)
	movl	$1, 38776(%rsp)
	movq	%r15, 79984(%rsp)
	movl	$1, 79992(%rsp)
	movq	%r15, 38712(%rsp)
	movl	$1, 38720(%rsp)
	movq	%r15, 79928(%rsp)
	movl	$1, 79936(%rsp)
	movq	%r15, 38656(%rsp)
	movl	$1, 38664(%rsp)
	movq	%r15, 79872(%rsp)
	movl	$1, 79880(%rsp)
	movq	%r15, 38600(%rsp)
	movl	$1, 38608(%rsp)
	movq	%r15, 79816(%rsp)
	movl	$1, 79824(%rsp)
	movq	%r15, 38544(%rsp)
	movl	$1, 38552(%rsp)
	movq	%r15, 79760(%rsp)
	movl	$1, 79768(%rsp)
	movq	%r15, 38488(%rsp)
	movl	$1, 38496(%rsp)
	movq	%r15, 38432(%rsp)
	movl	$1, 38440(%rsp)
	movq	%r15, 79704(%rsp)
	movl	$1, 79712(%rsp)
	movq	%r15, 38376(%rsp)
	movl	$1, 38384(%rsp)
	movq	%r15, 79648(%rsp)
	movl	$1, 79656(%rsp)
	movq	%r15, 38320(%rsp)
	movl	$1, 38328(%rsp)
	movq	%r15, 79592(%rsp)
	movl	$1, 79600(%rsp)
	movq	%r15, 38264(%rsp)
	movl	$1, 38272(%rsp)
	movq	%r15, 79536(%rsp)
	movl	$1, 79544(%rsp)
	movq	%r15, 38208(%rsp)
	movl	$1, 38216(%rsp)
	movq	%r15, 79480(%rsp)
	movl	$1, 79488(%rsp)
	movq	%r15, 38152(%rsp)
	movl	$1, 38160(%rsp)
	movq	%r15, 79424(%rsp)
	movl	$1, 79432(%rsp)
	movq	%r15, 38096(%rsp)
	movl	$1, 38104(%rsp)
	movq	%r15, 79368(%rsp)
	movl	$1, 79376(%rsp)
	movq	%r15, 38040(%rsp)
	movl	$1, 38048(%rsp)
	movq	%r15, 79312(%rsp)
	movl	$1, 79320(%rsp)
	movq	%r15, 37984(%rsp)
	movl	$1, 37992(%rsp)
	movq	%r15, 79256(%rsp)
	movl	$1, 79264(%rsp)
	movq	%r15, 37928(%rsp)
	movl	$1, 37936(%rsp)
	movq	%r15, 79200(%rsp)
	movl	$1, 79208(%rsp)
	movq	%r15, 37872(%rsp)
	movl	$1, 37880(%rsp)
	movq	%r15, 79144(%rsp)
	movl	$1, 79152(%rsp)
	movq	%r15, 37816(%rsp)
	movl	$1, 37824(%rsp)
	movq	%r15, 79088(%rsp)
	movl	$1, 79096(%rsp)
	movq	%r15, 37760(%rsp)
	movl	$1, 37768(%rsp)
	movq	%r15, 79032(%rsp)
	movl	$1, 79040(%rsp)
	movq	%r15, 37704(%rsp)
	movl	$1, 37712(%rsp)
	movq	%r15, 78976(%rsp)
	movl	$1, 78984(%rsp)
	movq	%r15, 37648(%rsp)
	movl	$1, 37656(%rsp)
	movq	%r15, 78920(%rsp)
	movl	$1, 78928(%rsp)
	movq	%r15, 37592(%rsp)
	movl	$1, 37600(%rsp)
	movq	%r15, 78864(%rsp)
	movl	$1, 78872(%rsp)
	movq	%r15, 37536(%rsp)
	movl	$1, 37544(%rsp)
	movq	%r15, 37480(%rsp)
	movl	$1, 37488(%rsp)
	movq	%r15, 78808(%rsp)
	movl	$1, 78816(%rsp)
	movq	%r15, 37424(%rsp)
	movl	$1, 37432(%rsp)
	movq	%r15, 78752(%rsp)
	movl	$1, 78760(%rsp)
	movq	%r15, 37368(%rsp)
	movl	$1, 37376(%rsp)
	movq	%r15, 78696(%rsp)
	movl	$1, 78704(%rsp)
	movq	%r15, 37312(%rsp)
	movl	$1, 37320(%rsp)
	movq	%r15, 78640(%rsp)
	movl	$1, 78648(%rsp)
	movq	%r15, 37256(%rsp)
	movl	$1, 37264(%rsp)
	movq	%r15, 78584(%rsp)
	movl	$1, 78592(%rsp)
	movq	%r15, 37200(%rsp)
	movl	$1, 37208(%rsp)
	movq	%r15, 78528(%rsp)
	movl	$1, 78536(%rsp)
	movq	%r15, 37144(%rsp)
	movl	$1, 37152(%rsp)
	movq	%r15, 78472(%rsp)
	movl	$1, 78480(%rsp)
	movq	%r15, 37088(%rsp)
	movl	$1, 37096(%rsp)
	movq	%r15, 78416(%rsp)
	movl	$1, 78424(%rsp)
	movq	%r15, 37032(%rsp)
	movl	$1, 37040(%rsp)
	movq	%r15, 36976(%rsp)
	movl	$1, 36984(%rsp)
	movq	%r15, 78360(%rsp)
	movl	$1, 78368(%rsp)
	movq	%r15, 36920(%rsp)
	movl	$1, 36928(%rsp)
	movq	%r15, 78304(%rsp)
	movl	$1, 78312(%rsp)
	movq	%r15, 36864(%rsp)
	movl	$1, 36872(%rsp)
	movq	%r15, 78248(%rsp)
	movl	$1, 78256(%rsp)
	movq	%r15, 36808(%rsp)
	movl	$1, 36816(%rsp)
	movq	%r15, 78192(%rsp)
	movl	$1, 78200(%rsp)
	movq	%r15, 36752(%rsp)
	movl	$1, 36760(%rsp)
	movq	%r15, 78136(%rsp)
	movl	$1, 78144(%rsp)
	movq	%r15, 36696(%rsp)
	movl	$1, 36704(%rsp)
	movq	%r15, 78080(%rsp)
	movl	$1, 78088(%rsp)
	movq	%r15, 36640(%rsp)
	movl	$1, 36648(%rsp)
	movq	%r15, 78024(%rsp)
	movl	$1, 78032(%rsp)
	movq	%r15, 36584(%rsp)
	movl	$1, 36592(%rsp)
	movq	%r15, 77968(%rsp)
	movl	$1, 77976(%rsp)
	movq	%r15, 36528(%rsp)
	movl	$1, 36536(%rsp)
	movq	%r15, 77912(%rsp)
	movl	$1, 77920(%rsp)
	movq	%r15, 36472(%rsp)
	movl	$1, 36480(%rsp)
	movq	%r15, 77856(%rsp)
	movl	$1, 77864(%rsp)
	movq	%r15, 36416(%rsp)
	movl	$1, 36424(%rsp)
	movq	%r15, 36360(%rsp)
	movl	$1, 36368(%rsp)
	movq	%r15, 77800(%rsp)
	movl	$1, 77808(%rsp)
	movq	%r15, 36304(%rsp)
	movl	$1, 36312(%rsp)
	movq	%r15, 77744(%rsp)
	movl	$1, 77752(%rsp)
	movq	%r15, 36248(%rsp)
	movl	$1, 36256(%rsp)
	movq	%r15, 77688(%rsp)
	movl	$1, 77696(%rsp)
	movq	%r15, 36192(%rsp)
	movl	$1, 36200(%rsp)
	movq	%r15, 77632(%rsp)
	movl	$1, 77640(%rsp)
	movq	%r15, 36136(%rsp)
	movl	$1, 36144(%rsp)
	movq	%r15, 77576(%rsp)
	movl	$1, 77584(%rsp)
	movq	%r15, 36080(%rsp)
	movl	$1, 36088(%rsp)
	movq	%r15, 77520(%rsp)
	movl	$1, 77528(%rsp)
	movq	%r15, 36024(%rsp)
	movl	$1, 36032(%rsp)
	movq	%r15, 77464(%rsp)
	movl	$1, 77472(%rsp)
	movq	%r15, 35968(%rsp)
	movl	$1, 35976(%rsp)
	movq	%r15, 77408(%rsp)
	movl	$1, 77416(%rsp)
	movq	%r15, 35912(%rsp)
	movl	$1, 35920(%rsp)
	movq	%r15, 77352(%rsp)
	movl	$1, 77360(%rsp)
	movq	%r15, 35856(%rsp)
	movl	$1, 35864(%rsp)
	movq	%r15, 77296(%rsp)
	movl	$1, 77304(%rsp)
	movq	%r15, 35800(%rsp)
	movl	$1, 35808(%rsp)
	movq	%r15, 77240(%rsp)
	movl	$1, 77248(%rsp)
	movq	%r15, 35744(%rsp)
	movl	$1, 35752(%rsp)
	movq	%r15, 35688(%rsp)
	movl	$1, 35696(%rsp)
	movq	%r15, 77184(%rsp)
	movl	$1, 77192(%rsp)
	movq	%r15, 35632(%rsp)
	movl	$1, 35640(%rsp)
	movq	%r15, 77128(%rsp)
	movl	$1, 77136(%rsp)
	movq	%r15, 35576(%rsp)
	movl	$1, 35584(%rsp)
	movq	%r15, 35520(%rsp)
	movl	$1, 35528(%rsp)
	movq	%r15, 77072(%rsp)
	movl	$1, 77080(%rsp)
	movq	%r15, 35464(%rsp)
	movl	$1, 35472(%rsp)
	movq	%r15, 77016(%rsp)
	movl	$1, 77024(%rsp)
	movq	%r15, 35408(%rsp)
	movl	$1, 35416(%rsp)
	movq	%r15, 76960(%rsp)
	movl	$1, 76968(%rsp)
	movq	%r15, 35352(%rsp)
	movl	$1, 35360(%rsp)
	movq	%r15, 76904(%rsp)
	movl	$1, 76912(%rsp)
	movq	%r15, 35296(%rsp)
	movl	$1, 35304(%rsp)
	movq	%r15, 76848(%rsp)
	movl	$1, 76856(%rsp)
	movq	%r15, 35240(%rsp)
	movl	$1, 35248(%rsp)
	movq	%r15, 76792(%rsp)
	movl	$1, 76800(%rsp)
	movq	%r15, 35184(%rsp)
	movl	$1, 35192(%rsp)
	movq	%r15, 76736(%rsp)
	movl	$1, 76744(%rsp)
	movq	%r15, 35128(%rsp)
	movl	$1, 35136(%rsp)
	movq	%r15, 76680(%rsp)
	movl	$1, 76688(%rsp)
	movq	%r15, 35072(%rsp)
	movl	$1, 35080(%rsp)
	movq	%r15, 76624(%rsp)
	movl	$1, 76632(%rsp)
	movq	%r15, 35016(%rsp)
	movl	$1, 35024(%rsp)
	movq	%r15, 76568(%rsp)
	movl	$1, 76576(%rsp)
	movq	%r15, 34960(%rsp)
	movl	$1, 34968(%rsp)
	movq	%r15, 34904(%rsp)
	movl	$1, 34912(%rsp)
	movq	%r15, 76512(%rsp)
	movl	$1, 76520(%rsp)
	movq	%r15, 34848(%rsp)
	movl	$1, 34856(%rsp)
	movq	%r15, 76456(%rsp)
	movl	$1, 76464(%rsp)
	movq	%r15, 34792(%rsp)
	movl	$1, 34800(%rsp)
	movq	%r15, 34736(%rsp)
	movl	$1, 34744(%rsp)
	movq	%r15, 76400(%rsp)
	movl	$1, 76408(%rsp)
	movq	%r15, 34680(%rsp)
	movl	$1, 34688(%rsp)
	movq	%r15, 76344(%rsp)
	movl	$1, 76352(%rsp)
	movq	%r15, 34624(%rsp)
	movl	$1, 34632(%rsp)
	movq	%r15, 76288(%rsp)
	movl	$1, 76296(%rsp)
	movq	%r15, 34568(%rsp)
	movl	$1, 34576(%rsp)
	movq	%r15, 76232(%rsp)
	movl	$1, 76240(%rsp)
	movq	%r15, 34512(%rsp)
	movl	$1, 34520(%rsp)
	movq	%r15, 76176(%rsp)
	movl	$1, 76184(%rsp)
	movq	%r15, 34456(%rsp)
	movl	$1, 34464(%rsp)
	movq	%r15, 76120(%rsp)
	movl	$1, 76128(%rsp)
	movq	%r15, 34400(%rsp)
	movl	$1, 34408(%rsp)
	movq	%r15, 76064(%rsp)
	movl	$1, 76072(%rsp)
	movq	%r15, 34344(%rsp)
	movl	$1, 34352(%rsp)
	movq	%r15, 76008(%rsp)
	movl	$1, 76016(%rsp)
	movq	%r15, 34288(%rsp)
	movl	$1, 34296(%rsp)
	movq	%r15, 75952(%rsp)
	movl	$1, 75960(%rsp)
	movq	%r15, 34232(%rsp)
	movl	$1, 34240(%rsp)
	movq	%r15, 75896(%rsp)
	movl	$1, 75904(%rsp)
	movq	%r15, 34176(%rsp)
	movl	$1, 34184(%rsp)
	movq	%r15, 75840(%rsp)
	movl	$1, 75848(%rsp)
	movq	%r15, 34120(%rsp)
	movl	$1, 34128(%rsp)
	movq	%r15, 75784(%rsp)
	movl	$1, 75792(%rsp)
	movq	%r15, 34064(%rsp)
	movl	$1, 34072(%rsp)
	movq	%r15, 75728(%rsp)
	movl	$1, 75736(%rsp)
	movq	%r15, 34008(%rsp)
	movl	$1, 34016(%rsp)
	movq	%r15, 75672(%rsp)
	movl	$1, 75680(%rsp)
	movq	%r15, 33952(%rsp)
	movl	$1, 33960(%rsp)
	movq	%r15, 75616(%rsp)
	movl	$1, 75624(%rsp)
	movq	%r15, 33896(%rsp)
	movl	$1, 33904(%rsp)
	movq	%r15, 75560(%rsp)
	movl	$1, 75568(%rsp)
	movq	%r15, 33840(%rsp)
	movl	$1, 33848(%rsp)
	movq	%r15, 33784(%rsp)
	movl	$1, 33792(%rsp)
	movq	%r15, 75504(%rsp)
	movl	$1, 75512(%rsp)
	movq	%r15, 33728(%rsp)
	movl	$1, 33736(%rsp)
	movq	%r15, 75448(%rsp)
	movl	$1, 75456(%rsp)
	movq	%r15, 33672(%rsp)
	movl	$1, 33680(%rsp)
	movq	%r15, 75392(%rsp)
	movl	$1, 75400(%rsp)
	movq	%r15, 33616(%rsp)
	movl	$1, 33624(%rsp)
	movq	%r15, 75336(%rsp)
	movl	$1, 75344(%rsp)
	movq	%r15, 33560(%rsp)
	movl	$1, 33568(%rsp)
	movq	%r15, 75280(%rsp)
	movl	$1, 75288(%rsp)
	movq	%r15, 33504(%rsp)
	movl	$1, 33512(%rsp)
	movq	%r15, 33448(%rsp)
	movl	$1, 33456(%rsp)
	movq	%r15, 33392(%rsp)
	movl	$1, 33400(%rsp)
	movq	%r15, 75224(%rsp)
	movl	$1, 75232(%rsp)
	movq	%r15, 33336(%rsp)
	movl	$1, 33344(%rsp)
	movq	%r15, 75168(%rsp)
	movl	$1, 75176(%rsp)
	movq	%r15, 33280(%rsp)
	movl	$1, 33288(%rsp)
	movq	%r15, 75112(%rsp)
	movl	$1, 75120(%rsp)
	movq	%r15, 33224(%rsp)
	movl	$1, 33232(%rsp)
	movq	%r15, 75056(%rsp)
	movl	$1, 75064(%rsp)
	movq	%r15, 33168(%rsp)
	movl	$1, 33176(%rsp)
	movq	%r15, 75000(%rsp)
	movl	$1, 75008(%rsp)
	movq	%r15, 33112(%rsp)
	movl	$1, 33120(%rsp)
	movq	%r15, 74944(%rsp)
	movl	$1, 74952(%rsp)
	movq	%r15, 33056(%rsp)
	movl	$1, 33064(%rsp)
	movq	%r15, 74888(%rsp)
	movl	$1, 74896(%rsp)
	movq	%r15, 33000(%rsp)
	movl	$1, 33008(%rsp)
	movq	%r15, 74832(%rsp)
	movl	$1, 74840(%rsp)
	movq	%r15, 32944(%rsp)
	movl	$1, 32952(%rsp)
	movq	%r15, 74776(%rsp)
	movl	$1, 74784(%rsp)
	movq	%r15, 32888(%rsp)
	movl	$1, 32896(%rsp)
	movq	%r15, 74720(%rsp)
	movl	$1, 74728(%rsp)
	movq	%r15, 32832(%rsp)
	movl	$1, 32840(%rsp)
	movq	%r15, 74664(%rsp)
	movl	$1, 74672(%rsp)
	movq	%r15, 32776(%rsp)
	movl	$1, 32784(%rsp)
	movq	%r15, 74608(%rsp)
	movl	$1, 74616(%rsp)
	movq	%r15, 32720(%rsp)
	movl	$1, 32728(%rsp)
	movq	%r15, 74552(%rsp)
	movl	$1, 74560(%rsp)
	movq	%r15, 32664(%rsp)
	movl	$1, 32672(%rsp)
	movq	%r15, 74496(%rsp)
	movl	$1, 74504(%rsp)
	movq	%r15, 32608(%rsp)
	movl	$1, 32616(%rsp)
	movq	%r15, 74440(%rsp)
	movl	$1, 74448(%rsp)
	movq	%r15, 32552(%rsp)
	movl	$1, 32560(%rsp)
	movq	%r15, 32496(%rsp)
	movl	$1, 32504(%rsp)
	movq	%r15, 74384(%rsp)
	movl	$1, 74392(%rsp)
	movq	%r15, 32440(%rsp)
	movl	$1, 32448(%rsp)
	movq	%r15, 74328(%rsp)
	movl	$1, 74336(%rsp)
	movq	%r15, 32384(%rsp)
	movl	$1, 32392(%rsp)
	movq	%r15, 32328(%rsp)
	movl	$1, 32336(%rsp)
	movq	%r15, 74272(%rsp)
	movl	$1, 74280(%rsp)
	movq	%r15, 32272(%rsp)
	movl	$1, 32280(%rsp)
	movq	%r15, 74216(%rsp)
	movl	$1, 74224(%rsp)
	movq	%r15, 32216(%rsp)
	movl	$1, 32224(%rsp)
	movq	%r15, 32160(%rsp)
	movl	$1, 32168(%rsp)
	movq	%r15, 74160(%rsp)
	movl	$1, 74168(%rsp)
	movq	%r15, 32104(%rsp)
	movl	$1, 32112(%rsp)
	movq	%r15, 74104(%rsp)
	movl	$1, 74112(%rsp)
	movq	%r15, 32048(%rsp)
	movl	$1, 32056(%rsp)
	movq	%r15, 31992(%rsp)
	movl	$1, 32000(%rsp)
	movq	%r15, 74048(%rsp)
	movl	$1, 74056(%rsp)
	movq	%r15, 31936(%rsp)
	movl	$1, 31944(%rsp)
	movq	%r15, 73992(%rsp)
	movl	$1, 74000(%rsp)
	movq	%r15, 31880(%rsp)
	movl	$1, 31888(%rsp)
	movq	%r15, 73936(%rsp)
	movl	$1, 73944(%rsp)
	movq	%r15, 31824(%rsp)
	movl	$1, 31832(%rsp)
	movq	%r15, 73880(%rsp)
	movl	$1, 73888(%rsp)
	movq	%r15, 31768(%rsp)
	movl	$1, 31776(%rsp)
	movq	%r15, 31712(%rsp)
	movl	$1, 31720(%rsp)
	movq	%r15, 73824(%rsp)
	movl	$1, 73832(%rsp)
	movq	%r15, 31656(%rsp)
	movl	$1, 31664(%rsp)
	movq	%r15, 31600(%rsp)
	movl	$1, 31608(%rsp)
	movq	%r15, 73768(%rsp)
	movl	$1, 73776(%rsp)
	movq	%r15, 31544(%rsp)
	movl	$1, 31552(%rsp)
	movq	%r15, 73712(%rsp)
	movl	$1, 73720(%rsp)
	movq	%r15, 31488(%rsp)
	movl	$1, 31496(%rsp)
	movq	%r15, 31432(%rsp)
	movl	$1, 31440(%rsp)
	movq	%r15, 73656(%rsp)
	movl	$1, 73664(%rsp)
	movq	%r15, 31376(%rsp)
	movl	$1, 31384(%rsp)
	movq	%r15, 73600(%rsp)
	movl	$1, 73608(%rsp)
	movq	%r15, 31320(%rsp)
	movl	$1, 31328(%rsp)
	movq	%r15, 73544(%rsp)
	movl	$1, 73552(%rsp)
	movq	%r15, 31264(%rsp)
	movl	$1, 31272(%rsp)
	movq	%r15, 73488(%rsp)
	movl	$1, 73496(%rsp)
	movq	%r15, 31208(%rsp)
	movl	$1, 31216(%rsp)
	movq	%r15, 73432(%rsp)
	movl	$1, 73440(%rsp)
	movq	%r15, 31152(%rsp)
	movl	$1, 31160(%rsp)
	movq	%r15, 73376(%rsp)
	movl	$1, 73384(%rsp)
	movq	%r15, 31096(%rsp)
	movl	$1, 31104(%rsp)
	movq	%r15, 73320(%rsp)
	movl	$1, 73328(%rsp)
	movq	%r15, 31040(%rsp)
	movl	$1, 31048(%rsp)
	movq	%r15, 73264(%rsp)
	movl	$1, 73272(%rsp)
	movq	%r15, 30984(%rsp)
	movl	$1, 30992(%rsp)
	movq	%r15, 73208(%rsp)
	movl	$1, 73216(%rsp)
	movq	%r15, 30928(%rsp)
	movl	$1, 30936(%rsp)
	movq	%r15, 73152(%rsp)
	movl	$1, 73160(%rsp)
	movq	%r15, 30872(%rsp)
	movl	$1, 30880(%rsp)
	movq	%r15, 73096(%rsp)
	movl	$1, 73104(%rsp)
	movq	%r15, 30816(%rsp)
	movl	$1, 30824(%rsp)
	movq	%r15, 73040(%rsp)
	movl	$1, 73048(%rsp)
	movq	%r15, 30760(%rsp)
	movl	$1, 30768(%rsp)
	movq	%r15, 30704(%rsp)
	movl	$1, 30712(%rsp)
	movq	%r15, 72984(%rsp)
	movl	$1, 72992(%rsp)
	movq	%r15, 30648(%rsp)
	movl	$1, 30656(%rsp)
	movq	%r15, 30592(%rsp)
	movl	$1, 30600(%rsp)
	movq	%r15, 72928(%rsp)
	movl	$1, 72936(%rsp)
	movq	%r15, 30536(%rsp)
	movl	$1, 30544(%rsp)
	movq	%r15, 72872(%rsp)
	movl	$1, 72880(%rsp)
	movq	%r15, 30480(%rsp)
	movl	$1, 30488(%rsp)
	movq	%r15, 72816(%rsp)
	movl	$1, 72824(%rsp)
	movq	%r15, 30424(%rsp)
	movl	$1, 30432(%rsp)
	movq	%r15, 30368(%rsp)
	movl	$1, 30376(%rsp)
	movq	%r15, 72760(%rsp)
	movl	$1, 72768(%rsp)
	movq	%r15, 30312(%rsp)
	movl	$1, 30320(%rsp)
	movq	%r15, 72704(%rsp)
	movl	$1, 72712(%rsp)
	movq	%r15, 30256(%rsp)
	movl	$1, 30264(%rsp)
	movq	%r15, 72648(%rsp)
	movl	$1, 72656(%rsp)
	movq	%r15, 30200(%rsp)
	movl	$1, 30208(%rsp)
	movq	%r15, 72592(%rsp)
	movl	$1, 72600(%rsp)
	movq	%r15, 30144(%rsp)
	movl	$1, 30152(%rsp)
	movq	%r15, 72536(%rsp)
	movl	$1, 72544(%rsp)
	movq	%r15, 30088(%rsp)
	movl	$1, 30096(%rsp)
	movq	%r15, 72480(%rsp)
	movl	$1, 72488(%rsp)
	movq	%r15, 30032(%rsp)
	movl	$1, 30040(%rsp)
	movq	%r15, 72424(%rsp)
	movl	$1, 72432(%rsp)
	movq	%r15, 29976(%rsp)
	movl	$1, 29984(%rsp)
	movq	%r15, 72368(%rsp)
	movl	$1, 72376(%rsp)
	movq	%r15, 29920(%rsp)
	movl	$1, 29928(%rsp)
	movq	%r15, 72312(%rsp)
	movl	$1, 72320(%rsp)
	movq	%r15, 29864(%rsp)
	movl	$1, 29872(%rsp)
	movq	%r15, 29808(%rsp)
	movl	$1, 29816(%rsp)
	movq	%r15, 72256(%rsp)
	movl	$1, 72264(%rsp)
	movq	%r15, 29752(%rsp)
	movl	$1, 29760(%rsp)
	movq	%r15, 72200(%rsp)
	movl	$1, 72208(%rsp)
	movq	%r15, 29696(%rsp)
	movl	$1, 29704(%rsp)
	movq	%r15, 29640(%rsp)
	movl	$1, 29648(%rsp)
	movq	%r15, 72144(%rsp)
	movl	$1, 72152(%rsp)
	movq	%r15, 29584(%rsp)
	movl	$1, 29592(%rsp)
	movq	%r15, 72088(%rsp)
	movl	$1, 72096(%rsp)
	movq	%r15, 29528(%rsp)
	movl	$1, 29536(%rsp)
	movq	%r15, 72032(%rsp)
	movl	$1, 72040(%rsp)
	movq	%r15, 29472(%rsp)
	movl	$1, 29480(%rsp)
	movq	%r15, 71976(%rsp)
	movl	$1, 71984(%rsp)
	movq	%r15, 29416(%rsp)
	movl	$1, 29424(%rsp)
	movq	%r15, 71920(%rsp)
	movl	$1, 71928(%rsp)
	movq	%r15, 29360(%rsp)
	movl	$1, 29368(%rsp)
	movq	%r15, 71864(%rsp)
	movl	$1, 71872(%rsp)
	movq	%r15, 29304(%rsp)
	movl	$1, 29312(%rsp)
	movq	%r15, 71808(%rsp)
	movl	$1, 71816(%rsp)
	movq	%r15, 29248(%rsp)
	movl	$1, 29256(%rsp)
	movq	%r15, 71752(%rsp)
	movl	$1, 71760(%rsp)
	movq	%r15, 29192(%rsp)
	movl	$1, 29200(%rsp)
	movq	%r15, 71696(%rsp)
	movl	$1, 71704(%rsp)
	movq	%r15, 29136(%rsp)
	movl	$1, 29144(%rsp)
	movq	%r15, 71640(%rsp)
	movl	$1, 71648(%rsp)
	movq	%r15, 29080(%rsp)
	movl	$1, 29088(%rsp)
	movq	%r15, 71584(%rsp)
	movl	$1, 71592(%rsp)
	movq	%r15, 29024(%rsp)
	movl	$1, 29032(%rsp)
	movq	%r15, 71528(%rsp)
	movl	$1, 71536(%rsp)
	movq	%r15, 28968(%rsp)
	movl	$1, 28976(%rsp)
	movq	%r15, 71472(%rsp)
	movl	$1, 71480(%rsp)
	movq	%r15, 28912(%rsp)
	movl	$1, 28920(%rsp)
	movq	%r15, 28856(%rsp)
	movl	$1, 28864(%rsp)
	movq	%r15, 71416(%rsp)
	movl	$1, 71424(%rsp)
	movq	%r15, 28800(%rsp)
	movl	$1, 28808(%rsp)
	movq	%r15, 28744(%rsp)
	movl	$1, 28752(%rsp)
	movq	%r15, 28688(%rsp)
	movl	$1, 28696(%rsp)
	movq	%r15, 28632(%rsp)
	movl	$1, 28640(%rsp)
	movq	%r15, 71360(%rsp)
	movl	$1, 71368(%rsp)
	movq	%r15, 28576(%rsp)
	movl	$1, 28584(%rsp)
	movq	%r15, 71304(%rsp)
	movl	$1, 71312(%rsp)
	movq	%r15, 28520(%rsp)
	movl	$1, 28528(%rsp)
	movq	%r15, 71248(%rsp)
	movl	$1, 71256(%rsp)
	movq	%r15, 28464(%rsp)
	movl	$1, 28472(%rsp)
	movq	%r15, 28408(%rsp)
	movl	$1, 28416(%rsp)
	movq	%r15, 71192(%rsp)
	movl	$1, 71200(%rsp)
	movq	%r15, 28352(%rsp)
	movl	$1, 28360(%rsp)
	movq	%r15, 71136(%rsp)
	movl	$1, 71144(%rsp)
	movq	%r15, 28296(%rsp)
	movl	$1, 28304(%rsp)
	movq	%r15, 71080(%rsp)
	movl	$1, 71088(%rsp)
	movq	%r15, 28240(%rsp)
	movl	$1, 28248(%rsp)
	movq	%r15, 71024(%rsp)
	movl	$1, 71032(%rsp)
	movq	%r15, 28184(%rsp)
	movl	$1, 28192(%rsp)
	movq	%r15, 70968(%rsp)
	movl	$1, 70976(%rsp)
	movq	%r15, 28128(%rsp)
	movl	$1, 28136(%rsp)
	movq	%r15, 70912(%rsp)
	movl	$1, 70920(%rsp)
	movq	%r15, 28072(%rsp)
	movl	$1, 28080(%rsp)
	movq	%r15, 70856(%rsp)
	movl	$1, 70864(%rsp)
	movq	%r15, 28016(%rsp)
	movl	$1, 28024(%rsp)
	movq	%r15, 70800(%rsp)
	movl	$1, 70808(%rsp)
	movq	%r15, 27960(%rsp)
	movl	$1, 27968(%rsp)
	movq	%r15, 70744(%rsp)
	movl	$1, 70752(%rsp)
	movq	%r15, 27904(%rsp)
	movl	$1, 27912(%rsp)
	movq	%r15, 27848(%rsp)
	movl	$1, 27856(%rsp)
	movq	%r15, 70688(%rsp)
	movl	$1, 70696(%rsp)
	movq	%r15, 27792(%rsp)
	movl	$1, 27800(%rsp)
	movq	%r15, 70632(%rsp)
	movl	$1, 70640(%rsp)
	movq	%r15, 27736(%rsp)
	movl	$1, 27744(%rsp)
	movq	%r15, 70576(%rsp)
	movl	$1, 70584(%rsp)
	movq	%r15, 27680(%rsp)
	movl	$1, 27688(%rsp)
	movq	%r15, 70520(%rsp)
	movl	$1, 70528(%rsp)
	movq	%r15, 27624(%rsp)
	movl	$1, 27632(%rsp)
	movq	%r15, 27568(%rsp)
	movl	$1, 27576(%rsp)
	movq	%r15, 70464(%rsp)
	movl	$1, 70472(%rsp)
	movq	%r15, 27512(%rsp)
	movl	$1, 27520(%rsp)
	movq	%r15, 70408(%rsp)
	movl	$1, 70416(%rsp)
	movq	%r15, 27456(%rsp)
	movl	$1, 27464(%rsp)
	movq	%r15, 70352(%rsp)
	movl	$1, 70360(%rsp)
	movq	%r15, 27400(%rsp)
	movl	$1, 27408(%rsp)
	movq	%r15, 70296(%rsp)
	movl	$1, 70304(%rsp)
	movq	%r15, 27344(%rsp)
	movl	$1, 27352(%rsp)
	movq	%r15, 70240(%rsp)
	movl	$1, 70248(%rsp)
	movq	%r15, 27288(%rsp)
	movl	$1, 27296(%rsp)
	movq	%r15, 70184(%rsp)
	movl	$1, 70192(%rsp)
	movq	%r15, 27232(%rsp)
	movl	$1, 27240(%rsp)
	movq	%r15, 70128(%rsp)
	movl	$1, 70136(%rsp)
	movq	%r15, 27176(%rsp)
	movl	$1, 27184(%rsp)
	movq	%r15, 70072(%rsp)
	movl	$1, 70080(%rsp)
	movq	%r15, 27120(%rsp)
	movl	$1, 27128(%rsp)
	movq	%r15, 70016(%rsp)
	movl	$1, 70024(%rsp)
	movq	%r15, 27064(%rsp)
	movl	$1, 27072(%rsp)
	movq	%r15, 69960(%rsp)
	movl	$1, 69968(%rsp)
	movq	%r15, 27008(%rsp)
	movl	$1, 27016(%rsp)
	movq	%r15, 26952(%rsp)
	movl	$1, 26960(%rsp)
	movq	%r15, 69904(%rsp)
	movl	$1, 69912(%rsp)
	movq	%r15, 26896(%rsp)
	movl	$1, 26904(%rsp)
	movq	%r15, 69848(%rsp)
	movl	$1, 69856(%rsp)
	movq	%r15, 26840(%rsp)
	movl	$1, 26848(%rsp)
	movq	%r15, 26784(%rsp)
	movl	$1, 26792(%rsp)
	movq	%r15, 69792(%rsp)
	movl	$1, 69800(%rsp)
	movq	%r15, 26728(%rsp)
	movl	$1, 26736(%rsp)
	movq	%r15, 69736(%rsp)
	movl	$1, 69744(%rsp)
	movq	%r15, 26672(%rsp)
	movl	$1, 26680(%rsp)
	movq	%r15, 69680(%rsp)
	movl	$1, 69688(%rsp)
	movq	%r15, 26616(%rsp)
	movl	$1, 26624(%rsp)
	movq	%r15, 69624(%rsp)
	movl	$1, 69632(%rsp)
	movq	%r15, 26560(%rsp)
	movl	$1, 26568(%rsp)
	movq	%r15, 69568(%rsp)
	movl	$1, 69576(%rsp)
	movq	%r15, 26504(%rsp)
	movl	$1, 26512(%rsp)
	movq	%r15, 69512(%rsp)
	movl	$1, 69520(%rsp)
	movq	%r15, 26448(%rsp)
	movl	$1, 26456(%rsp)
	movq	%r15, 69456(%rsp)
	movl	$1, 69464(%rsp)
	movq	%r15, 26392(%rsp)
	movl	$1, 26400(%rsp)
	movq	%r15, 69400(%rsp)
	movl	$1, 69408(%rsp)
	movq	%r15, 26336(%rsp)
	movl	$1, 26344(%rsp)
	movq	%r15, 69344(%rsp)
	movl	$1, 69352(%rsp)
	movq	%r15, 26280(%rsp)
	movl	$1, 26288(%rsp)
	movq	%r15, 69288(%rsp)
	movl	$1, 69296(%rsp)
	movq	%r15, 26224(%rsp)
	movl	$1, 26232(%rsp)
	movq	%r15, 69232(%rsp)
	movl	$1, 69240(%rsp)
	movq	%r15, 26168(%rsp)
	movl	$1, 26176(%rsp)
	movq	%r15, 69176(%rsp)
	movl	$1, 69184(%rsp)
	movq	%r15, 26112(%rsp)
	movl	$1, 26120(%rsp)
	movq	%r15, 69120(%rsp)
	movl	$1, 69128(%rsp)
	movq	%r15, 26056(%rsp)
	movl	$1, 26064(%rsp)
	movq	%r15, 69064(%rsp)
	movl	$1, 69072(%rsp)
	movq	%r15, 26000(%rsp)
	movl	$1, 26008(%rsp)
	movq	%r15, 69008(%rsp)
	movl	$1, 69016(%rsp)
	movq	%r15, 25944(%rsp)
	movl	$1, 25952(%rsp)
	movq	%r15, 68952(%rsp)
	movl	$1, 68960(%rsp)
	movq	%r15, 25888(%rsp)
	movl	$1, 25896(%rsp)
	movq	%r15, 68896(%rsp)
	movl	$1, 68904(%rsp)
	movq	%r15, 25832(%rsp)
	movl	$1, 25840(%rsp)
	movq	%r15, 68840(%rsp)
	movl	$1, 68848(%rsp)
	movq	%r15, 25776(%rsp)
	movl	$1, 25784(%rsp)
	movq	%r15, 68784(%rsp)
	movl	$1, 68792(%rsp)
	movq	%r15, 25720(%rsp)
	movl	$1, 25728(%rsp)
	movq	%r15, 68728(%rsp)
	movl	$1, 68736(%rsp)
	movq	%r15, 25664(%rsp)
	movl	$1, 25672(%rsp)
	movq	%r15, 68672(%rsp)
	movl	$1, 68680(%rsp)
	movq	%r15, 25608(%rsp)
	movl	$1, 25616(%rsp)
	movq	%r15, 68616(%rsp)
	movl	$1, 68624(%rsp)
	movq	%r15, 25552(%rsp)
	movl	$1, 25560(%rsp)
	movq	%r15, 68560(%rsp)
	movl	$1, 68568(%rsp)
	movq	%r15, 25496(%rsp)
	movl	$1, 25504(%rsp)
	movq	%r15, 68504(%rsp)
	movl	$1, 68512(%rsp)
	movq	%r15, 25440(%rsp)
	movl	$1, 25448(%rsp)
	movq	%r15, 68448(%rsp)
	movl	$1, 68456(%rsp)
	movq	%r15, 25384(%rsp)
	movl	$1, 25392(%rsp)
	movq	%r15, 25328(%rsp)
	movl	$1, 25336(%rsp)
	movq	%r15, 68392(%rsp)
	movl	$1, 68400(%rsp)
	movq	%r15, 25272(%rsp)
	movl	$1, 25280(%rsp)
	movq	%r15, 68336(%rsp)
	movl	$1, 68344(%rsp)
	movq	%r15, 25216(%rsp)
	movl	$1, 25224(%rsp)
	movq	%r15, 68280(%rsp)
	movl	$1, 68288(%rsp)
	movq	%r15, 25160(%rsp)
	movl	$1, 25168(%rsp)
	movq	%r15, 68224(%rsp)
	movl	$1, 68232(%rsp)
	movq	%r15, 25104(%rsp)
	movl	$1, 25112(%rsp)
	movq	%r15, 68168(%rsp)
	movl	$1, 68176(%rsp)
	movq	%r15, 25048(%rsp)
	movl	$1, 25056(%rsp)
	movq	%r15, 68112(%rsp)
	movl	$1, 68120(%rsp)
	movq	%r15, 24992(%rsp)
	movl	$1, 25000(%rsp)
	movq	%r15, 68056(%rsp)
	movl	$1, 68064(%rsp)
	movq	%r15, 24936(%rsp)
	movl	$1, 24944(%rsp)
	movq	%r15, 68000(%rsp)
	movl	$1, 68008(%rsp)
	movq	%r15, 24880(%rsp)
	movl	$1, 24888(%rsp)
	movq	%r15, 67944(%rsp)
	movl	$1, 67952(%rsp)
	movq	%r15, 24824(%rsp)
	movl	$1, 24832(%rsp)
	movq	%r15, 67888(%rsp)
	movl	$1, 67896(%rsp)
	movq	%r15, 24768(%rsp)
	movl	$1, 24776(%rsp)
	movq	%r15, 24712(%rsp)
	movl	$1, 24720(%rsp)
	movq	%r15, 67832(%rsp)
	movl	$1, 67840(%rsp)
	movq	%r15, 24656(%rsp)
	movl	$1, 24664(%rsp)
	movq	%r15, 67776(%rsp)
	movl	$1, 67784(%rsp)
	movq	%r15, 24600(%rsp)
	movl	$1, 24608(%rsp)
	movq	%r15, 24544(%rsp)
	movl	$1, 24552(%rsp)
	movq	%r15, 67720(%rsp)
	movl	$1, 67728(%rsp)
	movq	%r15, 24488(%rsp)
	movl	$1, 24496(%rsp)
	movq	%r15, 67664(%rsp)
	movl	$1, 67672(%rsp)
	movq	%r15, 24432(%rsp)
	movl	$1, 24440(%rsp)
	movq	%r15, 67608(%rsp)
	movl	$1, 67616(%rsp)
	movq	%r15, 24376(%rsp)
	movl	$1, 24384(%rsp)
	movq	%r15, 67552(%rsp)
	movl	$1, 67560(%rsp)
	movq	%r15, 24320(%rsp)
	movl	$1, 24328(%rsp)
	movq	%r15, 67496(%rsp)
	movl	$1, 67504(%rsp)
	movq	%r15, 24264(%rsp)
	movl	$1, 24272(%rsp)
	movq	%r15, 67440(%rsp)
	movl	$1, 67448(%rsp)
	movq	%r15, 24208(%rsp)
	movl	$1, 24216(%rsp)
	movq	%r15, 67384(%rsp)
	movl	$1, 67392(%rsp)
	movq	%r15, 24152(%rsp)
	movl	$1, 24160(%rsp)
	movq	%r15, 67328(%rsp)
	movl	$1, 67336(%rsp)
	movq	%r15, 24096(%rsp)
	movl	$1, 24104(%rsp)
	movq	%r15, 67272(%rsp)
	movl	$1, 67280(%rsp)
	movq	%r15, 24040(%rsp)
	movl	$1, 24048(%rsp)
	movq	%r15, 67216(%rsp)
	movl	$1, 67224(%rsp)
	movq	%r15, 23984(%rsp)
	movl	$1, 23992(%rsp)
	movq	%r15, 67160(%rsp)
	movl	$1, 67168(%rsp)
	movq	%r15, 23928(%rsp)
	movl	$1, 23936(%rsp)
	movq	%r15, 67104(%rsp)
	movl	$1, 67112(%rsp)
	movq	%r15, 23872(%rsp)
	movl	$1, 23880(%rsp)
	movq	%r15, 23816(%rsp)
	movl	$1, 23824(%rsp)
	movq	%r15, 67048(%rsp)
	movl	$1, 67056(%rsp)
	movq	%r15, 23760(%rsp)
	movl	$1, 23768(%rsp)
	movq	%r15, 66992(%rsp)
	movl	$1, 67000(%rsp)
	movq	%r15, 23704(%rsp)
	movl	$1, 23712(%rsp)
	movq	%r15, 66936(%rsp)
	movl	$1, 66944(%rsp)
	movq	%r15, 23648(%rsp)
	movl	$1, 23656(%rsp)
	movq	%r15, 66880(%rsp)
	movl	$1, 66888(%rsp)
	movq	%r15, 23592(%rsp)
	movl	$1, 23600(%rsp)
	movq	%r15, 66824(%rsp)
	movl	$1, 66832(%rsp)
	movq	%r15, 23536(%rsp)
	movl	$1, 23544(%rsp)
	movq	%r15, 66768(%rsp)
	movl	$1, 66776(%rsp)
	movq	%r15, 23480(%rsp)
	movl	$1, 23488(%rsp)
	movq	%r15, 66712(%rsp)
	movl	$1, 66720(%rsp)
	movq	%r15, 23424(%rsp)
	movl	$1, 23432(%rsp)
	movq	%r15, 66656(%rsp)
	movl	$1, 66664(%rsp)
	movq	%r15, 23368(%rsp)
	movl	$1, 23376(%rsp)
	movq	%r15, 66600(%rsp)
	movl	$1, 66608(%rsp)
	movq	%r15, 23312(%rsp)
	movl	$1, 23320(%rsp)
	movq	%r15, 66544(%rsp)
	movl	$1, 66552(%rsp)
	movq	%r15, 23256(%rsp)
	movl	$1, 23264(%rsp)
	movq	%r15, 23200(%rsp)
	movl	$1, 23208(%rsp)
	movq	%r15, 66488(%rsp)
	movl	$1, 66496(%rsp)
	movq	%r15, 23144(%rsp)
	movl	$1, 23152(%rsp)
	movq	%r15, 66432(%rsp)
	movl	$1, 66440(%rsp)
	movq	%r15, 23088(%rsp)
	movl	$1, 23096(%rsp)
	movq	%r15, 66376(%rsp)
	movl	$1, 66384(%rsp)
	movq	%r15, 23032(%rsp)
	movl	$1, 23040(%rsp)
	movq	%r15, 66320(%rsp)
	movl	$1, 66328(%rsp)
	movq	%r15, 22976(%rsp)
	movl	$1, 22984(%rsp)
	movq	%r15, 66264(%rsp)
	movl	$1, 66272(%rsp)
	movq	%r15, 22920(%rsp)
	movl	$1, 22928(%rsp)
	movq	%r15, 66208(%rsp)
	movl	$1, 66216(%rsp)
	movq	%r15, 22864(%rsp)
	movl	$1, 22872(%rsp)
	movq	%r15, 22808(%rsp)
	movl	$1, 22816(%rsp)
	movq	%r15, 66152(%rsp)
	movl	$1, 66160(%rsp)
	movq	%r15, 22752(%rsp)
	movl	$1, 22760(%rsp)
	movq	%r15, 66096(%rsp)
	movl	$1, 66104(%rsp)
	movq	%r15, 22696(%rsp)
	movl	$1, 22704(%rsp)
	movq	%r15, 66040(%rsp)
	movl	$1, 66048(%rsp)
	movq	%r15, 22640(%rsp)
	movl	$1, 22648(%rsp)
	movq	%r15, 65984(%rsp)
	movl	$1, 65992(%rsp)
	movq	%r15, 22584(%rsp)
	movl	$1, 22592(%rsp)
	movq	%r15, 65928(%rsp)
	movl	$1, 65936(%rsp)
	movq	%r15, 22528(%rsp)
	movl	$1, 22536(%rsp)
	movq	%r15, 65872(%rsp)
	movl	$1, 65880(%rsp)
	movq	%r15, 22472(%rsp)
	movl	$1, 22480(%rsp)
	movq	%r15, 22416(%rsp)
	movl	$1, 22424(%rsp)
	movq	%r15, 65816(%rsp)
	movl	$1, 65824(%rsp)
	movq	%r15, 22360(%rsp)
	movl	$1, 22368(%rsp)
	movq	%r15, 65760(%rsp)
	movl	$1, 65768(%rsp)
	movq	%r15, 22304(%rsp)
	movl	$1, 22312(%rsp)
	movq	%r15, 65704(%rsp)
	movl	$1, 65712(%rsp)
	movq	%r15, 22248(%rsp)
	movl	$1, 22256(%rsp)
	movq	%r15, 65648(%rsp)
	movl	$1, 65656(%rsp)
	movq	%r15, 22192(%rsp)
	movl	$1, 22200(%rsp)
	movq	%r15, 65592(%rsp)
	movl	$1, 65600(%rsp)
	movq	%r15, 22136(%rsp)
	movl	$1, 22144(%rsp)
	movq	%r15, 65536(%rsp)
	movl	$1, 65544(%rsp)
	movq	%r15, 22080(%rsp)
	movl	$1, 22088(%rsp)
	movq	%r15, 65480(%rsp)
	movl	$1, 65488(%rsp)
	movq	%r15, 22024(%rsp)
	movl	$1, 22032(%rsp)
	movq	%r15, 65424(%rsp)
	movl	$1, 65432(%rsp)
	movq	%r15, 21968(%rsp)
	movl	$1, 21976(%rsp)
	movq	%r15, 21912(%rsp)
	movl	$1, 21920(%rsp)
	movq	%r15, 65368(%rsp)
	movl	$1, 65376(%rsp)
	movq	%r15, 21856(%rsp)
	movl	$1, 21864(%rsp)
	movq	%r15, 65312(%rsp)
	movl	$1, 65320(%rsp)
	movq	%r15, 21800(%rsp)
	movl	$1, 21808(%rsp)
	movq	%r15, 65256(%rsp)
	movl	$1, 65264(%rsp)
	movq	%r15, 21744(%rsp)
	movl	$1, 21752(%rsp)
	movq	%r15, 65200(%rsp)
	movl	$1, 65208(%rsp)
	movq	%r15, 21688(%rsp)
	movl	$1, 21696(%rsp)
	movq	%r15, 65144(%rsp)
	movl	$1, 65152(%rsp)
	movq	%r15, 21632(%rsp)
	movl	$1, 21640(%rsp)
	movq	%r15, 65088(%rsp)
	movl	$1, 65096(%rsp)
	movq	%r15, 21576(%rsp)
	movl	$1, 21584(%rsp)
	movq	%r15, 65032(%rsp)
	movl	$1, 65040(%rsp)
	movq	%r15, 21520(%rsp)
	movl	$1, 21528(%rsp)
	movq	%r15, 21464(%rsp)
	movl	$1, 21472(%rsp)
	movq	%r15, 64976(%rsp)
	movl	$1, 64984(%rsp)
	movq	%r15, 21408(%rsp)
	movl	$1, 21416(%rsp)
	movq	%r15, 64920(%rsp)
	movl	$1, 64928(%rsp)
	movq	%r15, 21352(%rsp)
	movl	$1, 21360(%rsp)
	movq	%r15, 21296(%rsp)
	movl	$1, 21304(%rsp)
	movq	%r15, 64864(%rsp)
	movl	$1, 64872(%rsp)
	movq	%r15, 21240(%rsp)
	movl	$1, 21248(%rsp)
	movq	%r15, 21184(%rsp)
	movl	$1, 21192(%rsp)
	movq	%r15, 64808(%rsp)
	movl	$1, 64816(%rsp)
	movq	%r15, 21128(%rsp)
	movl	$1, 21136(%rsp)
	movq	%r15, 64752(%rsp)
	movl	$1, 64760(%rsp)
	movq	%r15, 21072(%rsp)
	movl	$1, 21080(%rsp)
	movq	%r15, 64696(%rsp)
	movl	$1, 64704(%rsp)
	movq	%r15, 21016(%rsp)
	movl	$1, 21024(%rsp)
	movq	%r15, 64640(%rsp)
	movl	$1, 64648(%rsp)
	movq	%r15, 20960(%rsp)
	movl	$1, 20968(%rsp)
	movq	%r15, 64584(%rsp)
	movl	$1, 64592(%rsp)
	movq	%r15, 20904(%rsp)
	movl	$1, 20912(%rsp)
	movq	%r15, 64528(%rsp)
	movl	$1, 64536(%rsp)
	movq	%r15, 20848(%rsp)
	movl	$1, 20856(%rsp)
	movq	%r15, 64472(%rsp)
	movl	$1, 64480(%rsp)
	movq	%r15, 20792(%rsp)
	movl	$1, 20800(%rsp)
	movq	%r15, 64416(%rsp)
	movl	$1, 64424(%rsp)
	movq	%r15, 20736(%rsp)
	movl	$1, 20744(%rsp)
	movq	%r15, 64360(%rsp)
	movl	$1, 64368(%rsp)
	movq	%r15, 20680(%rsp)
	movl	$1, 20688(%rsp)
	movq	%r15, 64304(%rsp)
	movl	$1, 64312(%rsp)
	movq	%r15, 20624(%rsp)
	movl	$1, 20632(%rsp)
	movq	%r15, 64248(%rsp)
	movl	$1, 64256(%rsp)
	movq	%r15, 20568(%rsp)
	movl	$1, 20576(%rsp)
	movq	%r15, 64192(%rsp)
	movl	$1, 64200(%rsp)
	movq	%r15, 20512(%rsp)
	movl	$1, 20520(%rsp)
	movq	%r15, 64136(%rsp)
	movl	$1, 64144(%rsp)
	movq	%r15, 20456(%rsp)
	movl	$1, 20464(%rsp)
	movq	%r15, 64080(%rsp)
	movl	$1, 64088(%rsp)
	movq	%r15, 20400(%rsp)
	movl	$1, 20408(%rsp)
	movq	%r15, 64024(%rsp)
	movl	$1, 64032(%rsp)
	movq	%r15, 20344(%rsp)
	movl	$1, 20352(%rsp)
	movq	%r15, 63968(%rsp)
	movl	$1, 63976(%rsp)
	movq	%r15, 20288(%rsp)
	movl	$1, 20296(%rsp)
	movq	%r15, 63912(%rsp)
	movl	$1, 63920(%rsp)
	movq	%r15, 20232(%rsp)
	movl	$1, 20240(%rsp)
	movq	%r15, 63856(%rsp)
	movl	$1, 63864(%rsp)
	movq	%r15, 20176(%rsp)
	movl	$1, 20184(%rsp)
	movq	%r15, 63800(%rsp)
	movl	$1, 63808(%rsp)
	movq	%r15, 20120(%rsp)
	movl	$1, 20128(%rsp)
	movq	%r15, 63744(%rsp)
	movl	$1, 63752(%rsp)
	movq	%r15, 20064(%rsp)
	movl	$1, 20072(%rsp)
	movq	%r15, 63688(%rsp)
	movl	$1, 63696(%rsp)
	movq	%r15, 20008(%rsp)
	movl	$1, 20016(%rsp)
	movq	%r15, 63632(%rsp)
	movl	$1, 63640(%rsp)
	movq	%r15, 19952(%rsp)
	movl	$1, 19960(%rsp)
	movq	%r15, 63576(%rsp)
	movl	$1, 63584(%rsp)
	movq	%r15, 19896(%rsp)
	movl	$1, 19904(%rsp)
	movq	%r15, 63520(%rsp)
	movl	$1, 63528(%rsp)
	movq	%r15, 19840(%rsp)
	movl	$1, 19848(%rsp)
	movq	%r15, 63464(%rsp)
	movl	$1, 63472(%rsp)
	movq	%r15, 19784(%rsp)
	movl	$1, 19792(%rsp)
	movq	%r15, 63408(%rsp)
	movl	$1, 63416(%rsp)
	movq	%r15, 19728(%rsp)
	movl	$1, 19736(%rsp)
	movq	%r15, 63352(%rsp)
	movl	$1, 63360(%rsp)
	movq	%r15, 19672(%rsp)
	movl	$1, 19680(%rsp)
	movq	%r15, 63296(%rsp)
	movl	$1, 63304(%rsp)
	movq	%r15, 19616(%rsp)
	movl	$1, 19624(%rsp)
	movq	%r15, 63240(%rsp)
	movl	$1, 63248(%rsp)
	movq	%r15, 19560(%rsp)
	movl	$1, 19568(%rsp)
	movq	%r15, 63184(%rsp)
	movl	$1, 63192(%rsp)
	movq	%r15, 19504(%rsp)
	movl	$1, 19512(%rsp)
	movq	%r15, 63128(%rsp)
	movl	$1, 63136(%rsp)
	movq	%r15, 19448(%rsp)
	movl	$1, 19456(%rsp)
	movq	%r15, 63072(%rsp)
	movl	$1, 63080(%rsp)
	movq	%r15, 19392(%rsp)
	movl	$1, 19400(%rsp)
	movq	%r15, 63016(%rsp)
	movl	$1, 63024(%rsp)
	movq	%r15, 19336(%rsp)
	movl	$1, 19344(%rsp)
	movq	%r15, 62960(%rsp)
	movl	$1, 62968(%rsp)
	movq	%r15, 19280(%rsp)
	movl	$1, 19288(%rsp)
	movq	%r15, 62904(%rsp)
	movl	$1, 62912(%rsp)
	movq	%r15, 19224(%rsp)
	movl	$1, 19232(%rsp)
	movq	%r15, 62848(%rsp)
	movl	$1, 62856(%rsp)
	movq	%r15, 19168(%rsp)
	movl	$1, 19176(%rsp)
	movq	%r15, 62792(%rsp)
	movl	$1, 62800(%rsp)
	movq	%r15, 19112(%rsp)
	movl	$1, 19120(%rsp)
	movq	%r15, 62736(%rsp)
	movl	$1, 62744(%rsp)
	movq	%r15, 19056(%rsp)
	movl	$1, 19064(%rsp)
	movq	%r15, 62680(%rsp)
	movl	$1, 62688(%rsp)
	movq	%r15, 19000(%rsp)
	movl	$1, 19008(%rsp)
	movq	%r15, 62624(%rsp)
	movl	$1, 62632(%rsp)
	movq	%r15, 18944(%rsp)
	movl	$1, 18952(%rsp)
	movq	%r15, 62568(%rsp)
	movl	$1, 62576(%rsp)
	movq	%r15, 18888(%rsp)
	movl	$1, 18896(%rsp)
	movq	%r15, 62512(%rsp)
	movl	$1, 62520(%rsp)
	movq	%r15, 18832(%rsp)
	movl	$1, 18840(%rsp)
	movq	%r15, 62456(%rsp)
	movl	$1, 62464(%rsp)
	movq	%r15, 18776(%rsp)
	movl	$1, 18784(%rsp)
	movq	%r15, 62400(%rsp)
	movl	$1, 62408(%rsp)
	movq	%r15, 18720(%rsp)
	movl	$1, 18728(%rsp)
	movq	%r15, 18664(%rsp)
	movl	$1, 18672(%rsp)
	movq	%r15, 62344(%rsp)
	movl	$1, 62352(%rsp)
	movq	%r15, 18608(%rsp)
	movl	$1, 18616(%rsp)
	movq	%r15, 18552(%rsp)
	movl	$1, 18560(%rsp)
	movq	%r15, 62288(%rsp)
	movl	$1, 62296(%rsp)
	movq	%r15, 18496(%rsp)
	movl	$1, 18504(%rsp)
	movq	%r15, 62232(%rsp)
	movl	$1, 62240(%rsp)
	movq	%r15, 18440(%rsp)
	movl	$1, 18448(%rsp)
	movq	%r15, 62176(%rsp)
	movl	$1, 62184(%rsp)
	movq	%r15, 18384(%rsp)
	movl	$1, 18392(%rsp)
	movq	%r15, 18328(%rsp)
	movl	$1, 18336(%rsp)
	movq	%r15, 62120(%rsp)
	movl	$1, 62128(%rsp)
	movq	%r15, 18272(%rsp)
	movl	$1, 18280(%rsp)
	movq	%r15, 62064(%rsp)
	movl	$1, 62072(%rsp)
	movq	%r15, 18216(%rsp)
	movl	$1, 18224(%rsp)
	movq	%r15, 62008(%rsp)
	movl	$1, 62016(%rsp)
	movq	%r15, 18160(%rsp)
	movl	$1, 18168(%rsp)
	movq	%r15, 61952(%rsp)
	movl	$1, 61960(%rsp)
	movq	%r15, 18104(%rsp)
	movl	$1, 18112(%rsp)
	movq	%r15, 61896(%rsp)
	movl	$1, 61904(%rsp)
	movq	%r15, 18048(%rsp)
	movl	$1, 18056(%rsp)
	movq	%r15, 61840(%rsp)
	movl	$1, 61848(%rsp)
	movq	%r15, 17992(%rsp)
	movl	$1, 18000(%rsp)
	movq	%r15, 61784(%rsp)
	movl	$1, 61792(%rsp)
	movq	%r15, 17936(%rsp)
	movl	$1, 17944(%rsp)
	movq	%r15, 61728(%rsp)
	movl	$1, 61736(%rsp)
	movq	%r15, 17880(%rsp)
	movl	$1, 17888(%rsp)
	movq	%r15, 61672(%rsp)
	movl	$1, 61680(%rsp)
	movq	%r15, 17824(%rsp)
	movl	$1, 17832(%rsp)
	movq	%r15, 61616(%rsp)
	movl	$1, 61624(%rsp)
	movq	%r15, 17768(%rsp)
	movl	$1, 17776(%rsp)
	movq	%r15, 61560(%rsp)
	movl	$1, 61568(%rsp)
	movq	%r15, 17712(%rsp)
	movl	$1, 17720(%rsp)
	movq	%r15, 61504(%rsp)
	movl	$1, 61512(%rsp)
	movq	%r15, 17656(%rsp)
	movl	$1, 17664(%rsp)
	movq	%r15, 61448(%rsp)
	movl	$1, 61456(%rsp)
	movq	%r15, 17600(%rsp)
	movl	$1, 17608(%rsp)
	movq	%r15, 61392(%rsp)
	movl	$1, 61400(%rsp)
	movq	%r15, 17544(%rsp)
	movl	$1, 17552(%rsp)
	movq	%r15, 17488(%rsp)
	movl	$1, 17496(%rsp)
	movq	%r15, 61336(%rsp)
	movl	$1, 61344(%rsp)
	movq	%r15, 17432(%rsp)
	movl	$1, 17440(%rsp)
	movq	%r15, 61280(%rsp)
	movl	$1, 61288(%rsp)
	movq	%r15, 17376(%rsp)
	movl	$1, 17384(%rsp)
	movq	%r15, 61224(%rsp)
	movl	$1, 61232(%rsp)
	movq	%r15, 17320(%rsp)
	movl	$1, 17328(%rsp)
	movq	%r15, 17264(%rsp)
	movl	$1, 17272(%rsp)
	movq	%r15, 61168(%rsp)
	movl	$1, 61176(%rsp)
	movq	%r15, 17208(%rsp)
	movl	$1, 17216(%rsp)
	movq	%r15, 61112(%rsp)
	movl	$1, 61120(%rsp)
	movq	%r15, 17152(%rsp)
	movl	$1, 17160(%rsp)
	movq	%r15, 61056(%rsp)
	movl	$1, 61064(%rsp)
	movq	%r15, 17096(%rsp)
	movl	$1, 17104(%rsp)
	movq	%r15, 61000(%rsp)
	movl	$1, 61008(%rsp)
	movq	%r15, 17040(%rsp)
	movl	$1, 17048(%rsp)
	movq	%r15, 60944(%rsp)
	movl	$1, 60952(%rsp)
	movq	%r15, 16984(%rsp)
	movl	$1, 16992(%rsp)
	movq	%r15, 60888(%rsp)
	movl	$1, 60896(%rsp)
	movq	%r15, 16928(%rsp)
	movl	$1, 16936(%rsp)
	movq	%r15, 60832(%rsp)
	movl	$1, 60840(%rsp)
	movq	%r15, 16872(%rsp)
	movl	$1, 16880(%rsp)
	movq	%r15, 60776(%rsp)
	movl	$1, 60784(%rsp)
	movq	%r15, 16816(%rsp)
	movl	$1, 16824(%rsp)
	movq	%r15, 60720(%rsp)
	movl	$1, 60728(%rsp)
	movq	%r15, 16760(%rsp)
	movl	$1, 16768(%rsp)
	movq	%r15, 60664(%rsp)
	movl	$1, 60672(%rsp)
	movq	%r15, 16704(%rsp)
	movl	$1, 16712(%rsp)
	movq	%r15, 60608(%rsp)
	movl	$1, 60616(%rsp)
	movq	%r15, 16648(%rsp)
	movl	$1, 16656(%rsp)
	movq	%r15, 60552(%rsp)
	movl	$1, 60560(%rsp)
	movq	%r15, 16592(%rsp)
	movl	$1, 16600(%rsp)
	movq	%r15, 60496(%rsp)
	movl	$1, 60504(%rsp)
	movq	%r15, 16536(%rsp)
	movl	$1, 16544(%rsp)
	movq	%r15, 60440(%rsp)
	movl	$1, 60448(%rsp)
	movq	%r15, 16480(%rsp)
	movl	$1, 16488(%rsp)
	movq	%r15, 60384(%rsp)
	movl	$1, 60392(%rsp)
	movq	%r15, 16424(%rsp)
	movl	$1, 16432(%rsp)
	movq	%r15, 60328(%rsp)
	movl	$1, 60336(%rsp)
	movq	%r15, 16368(%rsp)
	movl	$1, 16376(%rsp)
	movq	%r15, 60272(%rsp)
	movl	$1, 60280(%rsp)
	movq	%r15, 16312(%rsp)
	movl	$1, 16320(%rsp)
	movq	%r15, 16256(%rsp)
	movl	$1, 16264(%rsp)
	movq	%r15, 60216(%rsp)
	movl	$1, 60224(%rsp)
	movq	%r15, 16200(%rsp)
	movl	$1, 16208(%rsp)
	movq	%r15, 60160(%rsp)
	movl	$1, 60168(%rsp)
	movq	%r15, 16144(%rsp)
	movl	$1, 16152(%rsp)
	movq	%r15, 60104(%rsp)
	movl	$1, 60112(%rsp)
	movq	%r15, 16088(%rsp)
	movl	$1, 16096(%rsp)
	movq	%r15, 60048(%rsp)
	movl	$1, 60056(%rsp)
	movq	%r15, 16032(%rsp)
	movl	$1, 16040(%rsp)
	movq	%r15, 59992(%rsp)
	movl	$1, 60000(%rsp)
	movq	%r15, 15976(%rsp)
	movl	$1, 15984(%rsp)
	movq	%r15, 59936(%rsp)
	movl	$1, 59944(%rsp)
	movq	%r15, 15920(%rsp)
	movl	$1, 15928(%rsp)
	movq	%r15, 59880(%rsp)
	movl	$1, 59888(%rsp)
	movq	%r15, 15864(%rsp)
	movl	$1, 15872(%rsp)
	movq	%r15, 15808(%rsp)
	movl	$1, 15816(%rsp)
	movq	%r15, 15752(%rsp)
	movl	$1, 15760(%rsp)
	movq	%r15, 59824(%rsp)
	movl	$1, 59832(%rsp)
	movq	%r15, 15696(%rsp)
	movl	$1, 15704(%rsp)
	movq	%r15, 59768(%rsp)
	movl	$1, 59776(%rsp)
	movq	%r15, 15640(%rsp)
	movl	$1, 15648(%rsp)
	movq	%r15, 59712(%rsp)
	movl	$1, 59720(%rsp)
	movq	%r15, 15584(%rsp)
	movl	$1, 15592(%rsp)
	movq	%r15, 59656(%rsp)
	movl	$1, 59664(%rsp)
	movq	%r15, 15528(%rsp)
	movl	$1, 15536(%rsp)
	movq	%r15, 59600(%rsp)
	movl	$1, 59608(%rsp)
	movq	%r15, 15472(%rsp)
	movl	$1, 15480(%rsp)
	movq	%r15, 59544(%rsp)
	movl	$1, 59552(%rsp)
	movq	%r15, 15416(%rsp)
	movl	$1, 15424(%rsp)
	movq	%r15, 59488(%rsp)
	movl	$1, 59496(%rsp)
	movq	%r15, 15360(%rsp)
	movl	$1, 15368(%rsp)
	movq	%r15, 59432(%rsp)
	movl	$1, 59440(%rsp)
	movq	%r15, 15304(%rsp)
	movl	$1, 15312(%rsp)
	movq	%r15, 59376(%rsp)
	movl	$1, 59384(%rsp)
	movq	%r15, 15248(%rsp)
	movl	$1, 15256(%rsp)
	movq	%r15, 59320(%rsp)
	movl	$1, 59328(%rsp)
	movq	%r15, 15192(%rsp)
	movl	$1, 15200(%rsp)
	movq	%r15, 59264(%rsp)
	movl	$1, 59272(%rsp)
	movq	%r15, 15136(%rsp)
	movl	$1, 15144(%rsp)
	movq	%r15, 59208(%rsp)
	movl	$1, 59216(%rsp)
	movq	%r15, 15080(%rsp)
	movl	$1, 15088(%rsp)
	movq	%r15, 59152(%rsp)
	movl	$1, 59160(%rsp)
	movq	%r15, 15024(%rsp)
	movl	$1, 15032(%rsp)
	movq	%r15, 59096(%rsp)
	movl	$1, 59104(%rsp)
	movq	%r15, 14968(%rsp)
	movl	$1, 14976(%rsp)
	movq	%r15, 59040(%rsp)
	movl	$1, 59048(%rsp)
	movq	%r15, 14912(%rsp)
	movl	$1, 14920(%rsp)
	movq	%r15, 58984(%rsp)
	movl	$1, 58992(%rsp)
	movq	%r15, 14856(%rsp)
	movl	$1, 14864(%rsp)
	movq	%r15, 58928(%rsp)
	movl	$1, 58936(%rsp)
	movq	%r15, 14800(%rsp)
	movl	$1, 14808(%rsp)
	movq	%r15, 58872(%rsp)
	movl	$1, 58880(%rsp)
	movq	%r15, 14744(%rsp)
	movl	$1, 14752(%rsp)
	movq	%r15, 58816(%rsp)
	movl	$1, 58824(%rsp)
	movq	%r15, 14688(%rsp)
	movl	$1, 14696(%rsp)
	movq	%r15, 58760(%rsp)
	movl	$1, 58768(%rsp)
	movq	%r15, 14632(%rsp)
	movl	$1, 14640(%rsp)
	movq	%r15, 58704(%rsp)
	movl	$1, 58712(%rsp)
	movq	%r15, 14576(%rsp)
	movl	$1, 14584(%rsp)
	movq	%r15, 58648(%rsp)
	movl	$1, 58656(%rsp)
	movq	%r15, 14520(%rsp)
	movl	$1, 14528(%rsp)
	movq	%r15, 14464(%rsp)
	movl	$1, 14472(%rsp)
	movq	%r15, 58592(%rsp)
	movl	$1, 58600(%rsp)
	movq	%r15, 14408(%rsp)
	movl	$1, 14416(%rsp)
	movq	%r15, 58536(%rsp)
	movl	$1, 58544(%rsp)
	movq	%r15, 14352(%rsp)
	movl	$1, 14360(%rsp)
	movq	%r15, 58480(%rsp)
	movl	$1, 58488(%rsp)
	movq	%r15, 14296(%rsp)
	movl	$1, 14304(%rsp)
	movq	%r15, 58424(%rsp)
	movl	$1, 58432(%rsp)
	movq	%r15, 14240(%rsp)
	movl	$1, 14248(%rsp)
	movq	%r15, 58368(%rsp)
	movl	$1, 58376(%rsp)
	movq	%r15, 14184(%rsp)
	movl	$1, 14192(%rsp)
	movq	%r15, 58312(%rsp)
	movl	$1, 58320(%rsp)
	movq	%r15, 14128(%rsp)
	movl	$1, 14136(%rsp)
	movq	%r15, 58256(%rsp)
	movl	$1, 58264(%rsp)
	movq	%r15, 14072(%rsp)
	movl	$1, 14080(%rsp)
	movq	%r15, 58200(%rsp)
	movl	$1, 58208(%rsp)
	movq	%r15, 14016(%rsp)
	movl	$1, 14024(%rsp)
	movq	%r15, 58144(%rsp)
	movl	$1, 58152(%rsp)
	movq	%r15, 13960(%rsp)
	movl	$1, 13968(%rsp)
	movq	%r15, 58088(%rsp)
	movl	$1, 58096(%rsp)
	movq	%r15, 13904(%rsp)
	movl	$1, 13912(%rsp)
	movq	%r15, 58032(%rsp)
	movl	$1, 58040(%rsp)
	movq	%r15, 13848(%rsp)
	movl	$1, 13856(%rsp)
	movq	%r15, 57976(%rsp)
	movl	$1, 57984(%rsp)
	movq	%r15, 13792(%rsp)
	movl	$1, 13800(%rsp)
	movq	%r15, 57920(%rsp)
	movl	$1, 57928(%rsp)
	movq	%r15, 13736(%rsp)
	movl	$1, 13744(%rsp)
	movq	%r15, 57864(%rsp)
	movl	$1, 57872(%rsp)
	movq	%r15, 13680(%rsp)
	movl	$1, 13688(%rsp)
	movq	%r15, 57808(%rsp)
	movl	$1, 57816(%rsp)
	movq	%r15, 13624(%rsp)
	movl	$1, 13632(%rsp)
	movq	%r15, 57752(%rsp)
	movl	$1, 57760(%rsp)
	movq	%r15, 13568(%rsp)
	movl	$1, 13576(%rsp)
	movq	%r15, 57696(%rsp)
	movl	$1, 57704(%rsp)
	movq	%r15, 13512(%rsp)
	movl	$1, 13520(%rsp)
	movq	%r15, 57640(%rsp)
	movl	$1, 57648(%rsp)
	movq	%r15, 13456(%rsp)
	movl	$1, 13464(%rsp)
	movq	%r15, 57584(%rsp)
	movl	$1, 57592(%rsp)
	movq	%r15, 13400(%rsp)
	movl	$1, 13408(%rsp)
	movq	%r15, 57528(%rsp)
	movl	$1, 57536(%rsp)
	movq	%r15, 13344(%rsp)
	movl	$1, 13352(%rsp)
	movq	%r15, 57472(%rsp)
	movl	$1, 57480(%rsp)
	movq	%r15, 13288(%rsp)
	movl	$1, 13296(%rsp)
	movq	%r15, 57416(%rsp)
	movl	$1, 57424(%rsp)
	movq	%r15, 13232(%rsp)
	movl	$1, 13240(%rsp)
	movq	%r15, 57360(%rsp)
	movl	$1, 57368(%rsp)
	movq	%r15, 13176(%rsp)
	movl	$1, 13184(%rsp)
	movq	%r15, 13120(%rsp)
	movl	$1, 13128(%rsp)
	movq	%r15, 57304(%rsp)
	movl	$1, 57312(%rsp)
	movq	%r15, 13064(%rsp)
	movl	$1, 13072(%rsp)
	movq	%r15, 57248(%rsp)
	movl	$1, 57256(%rsp)
	movq	%r15, 13008(%rsp)
	movl	$1, 13016(%rsp)
	movq	%r15, 57192(%rsp)
	movl	$1, 57200(%rsp)
	movq	%r15, 12952(%rsp)
	movl	$1, 12960(%rsp)
	movq	%r15, 57136(%rsp)
	movl	$1, 57144(%rsp)
	movq	%r15, 12896(%rsp)
	movl	$1, 12904(%rsp)
	movq	%r15, 57080(%rsp)
	movl	$1, 57088(%rsp)
	movq	%r15, 12840(%rsp)
	movl	$1, 12848(%rsp)
	movq	%r15, 57024(%rsp)
	movl	$1, 57032(%rsp)
	movq	%r15, 12784(%rsp)
	movl	$1, 12792(%rsp)
	movq	%r15, 56968(%rsp)
	movl	$1, 56976(%rsp)
	movq	%r15, 12728(%rsp)
	movl	$1, 12736(%rsp)
	movq	%r15, 56912(%rsp)
	movl	$1, 56920(%rsp)
	movq	%r15, 12672(%rsp)
	movl	$1, 12680(%rsp)
	movq	%r15, 56856(%rsp)
	movl	$1, 56864(%rsp)
	movq	%r15, 12616(%rsp)
	movl	$1, 12624(%rsp)
	movq	%r15, 56800(%rsp)
	movl	$1, 56808(%rsp)
	movq	%r15, 12560(%rsp)
	movl	$1, 12568(%rsp)
	movq	%r15, 56744(%rsp)
	movl	$1, 56752(%rsp)
	movq	%r15, 12504(%rsp)
	movl	$1, 12512(%rsp)
	movq	%r15, 56688(%rsp)
	movl	$1, 56696(%rsp)
	movq	%r15, 12448(%rsp)
	movl	$1, 12456(%rsp)
	movq	%r15, 56632(%rsp)
	movl	$1, 56640(%rsp)
	movq	%r15, 12392(%rsp)
	movl	$1, 12400(%rsp)
	movq	%r15, 56576(%rsp)
	movl	$1, 56584(%rsp)
	movq	%r15, 12336(%rsp)
	movl	$1, 12344(%rsp)
	movq	%r15, 56520(%rsp)
	movl	$1, 56528(%rsp)
	movq	%r15, 12280(%rsp)
	movl	$1, 12288(%rsp)
	movq	%r15, 56464(%rsp)
	movl	$1, 56472(%rsp)
	movq	%r15, 12224(%rsp)
	movl	$1, 12232(%rsp)
	movq	%r15, 56408(%rsp)
	movl	$1, 56416(%rsp)
	movq	%r15, 12168(%rsp)
	movl	$1, 12176(%rsp)
	movq	%r15, 56352(%rsp)
	movl	$1, 56360(%rsp)
	movq	%r15, 12112(%rsp)
	movl	$1, 12120(%rsp)
	movq	%r15, 56296(%rsp)
	movl	$1, 56304(%rsp)
	movq	%r15, 12056(%rsp)
	movl	$1, 12064(%rsp)
	movq	%r15, 56240(%rsp)
	movl	$1, 56248(%rsp)
	movq	%r15, 12000(%rsp)
	movl	$1, 12008(%rsp)
	movq	%r15, 11944(%rsp)
	movl	$1, 11952(%rsp)
	movq	%r15, 11888(%rsp)
	movl	$1, 11896(%rsp)
	movq	%r15, 56184(%rsp)
	movl	$1, 56192(%rsp)
	movq	%r15, 11832(%rsp)
	movl	$1, 11840(%rsp)
	movq	%r15, 56128(%rsp)
	movl	$1, 56136(%rsp)
	movq	%r15, 11776(%rsp)
	movl	$1, 11784(%rsp)
	movq	%r15, 56072(%rsp)
	movl	$1, 56080(%rsp)
	movq	%r15, 11720(%rsp)
	movl	$1, 11728(%rsp)
	movq	%r15, 11664(%rsp)
	movl	$1, 11672(%rsp)
	movq	%r15, 56016(%rsp)
	movl	$1, 56024(%rsp)
	movq	%r15, 11608(%rsp)
	movl	$1, 11616(%rsp)
	movq	%r15, 55960(%rsp)
	movl	$1, 55968(%rsp)
	movq	%r15, 11552(%rsp)
	movl	$1, 11560(%rsp)
	movq	%r15, 55904(%rsp)
	movl	$1, 55912(%rsp)
	movq	%r15, 11496(%rsp)
	movl	$1, 11504(%rsp)
	movq	%r15, 11440(%rsp)
	movl	$1, 11448(%rsp)
	movq	%r15, 55848(%rsp)
	movl	$1, 55856(%rsp)
	movq	%r15, 11384(%rsp)
	movl	$1, 11392(%rsp)
	movq	%r15, 55792(%rsp)
	movl	$1, 55800(%rsp)
	movq	%r15, 11328(%rsp)
	movl	$1, 11336(%rsp)
	movq	%r15, 55736(%rsp)
	movl	$1, 55744(%rsp)
	movq	%r15, 11272(%rsp)
	movl	$1, 11280(%rsp)
	movq	%r15, 55680(%rsp)
	movl	$1, 55688(%rsp)
	movq	%r15, 11216(%rsp)
	movl	$1, 11224(%rsp)
	movq	%r15, 55624(%rsp)
	movl	$1, 55632(%rsp)
	movq	%r15, 11160(%rsp)
	movl	$1, 11168(%rsp)
	movq	%r15, 55568(%rsp)
	movl	$1, 55576(%rsp)
	movq	%r15, 11104(%rsp)
	movl	$1, 11112(%rsp)
	movq	%r15, 55512(%rsp)
	movl	$1, 55520(%rsp)
	movq	%r15, 11048(%rsp)
	movl	$1, 11056(%rsp)
	movq	%r15, 10992(%rsp)
	movl	$1, 11000(%rsp)
	movq	%r15, 55456(%rsp)
	movl	$1, 55464(%rsp)
	movq	%r15, 10936(%rsp)
	movl	$1, 10944(%rsp)
	movq	%r15, 55400(%rsp)
	movl	$1, 55408(%rsp)
	movq	%r15, 10880(%rsp)
	movl	$1, 10888(%rsp)
	movq	%r15, 55344(%rsp)
	movl	$1, 55352(%rsp)
	movq	%r15, 10824(%rsp)
	movl	$1, 10832(%rsp)
	movq	%r15, 55288(%rsp)
	movl	$1, 55296(%rsp)
	movq	%r15, 10768(%rsp)
	movl	$1, 10776(%rsp)
	movq	%r15, 55232(%rsp)
	movl	$1, 55240(%rsp)
	movq	%r15, 10712(%rsp)
	movl	$1, 10720(%rsp)
	movq	%r15, 55176(%rsp)
	movl	$1, 55184(%rsp)
	movq	%r15, 10656(%rsp)
	movl	$1, 10664(%rsp)
	movq	%r15, 55120(%rsp)
	movl	$1, 55128(%rsp)
	movq	%r15, 10600(%rsp)
	movl	$1, 10608(%rsp)
	movq	%r15, 55064(%rsp)
	movl	$1, 55072(%rsp)
	movq	%r15, 10544(%rsp)
	movl	$1, 10552(%rsp)
	movq	%r15, 55008(%rsp)
	movl	$1, 55016(%rsp)
	movq	%r15, 10488(%rsp)
	movl	$1, 10496(%rsp)
	movq	%r15, 54952(%rsp)
	movl	$1, 54960(%rsp)
	movq	%r15, 10432(%rsp)
	movl	$1, 10440(%rsp)
	movq	%r15, 10376(%rsp)
	movl	$1, 10384(%rsp)
	movq	%r15, 54896(%rsp)
	movl	$1, 54904(%rsp)
	movq	%r15, 10320(%rsp)
	movl	$1, 10328(%rsp)
	movq	%r15, 54840(%rsp)
	movl	$1, 54848(%rsp)
	movq	%r15, 10264(%rsp)
	movl	$1, 10272(%rsp)
	movq	%r15, 54784(%rsp)
	movl	$1, 54792(%rsp)
	movq	%r15, 10208(%rsp)
	movl	$1, 10216(%rsp)
	movq	%r15, 54728(%rsp)
	movl	$1, 54736(%rsp)
	movq	%r15, 10152(%rsp)
	movl	$1, 10160(%rsp)
	movq	%r15, 54672(%rsp)
	movl	$1, 54680(%rsp)
	movq	%r15, 10096(%rsp)
	movl	$1, 10104(%rsp)
	movq	%r15, 54616(%rsp)
	movl	$1, 54624(%rsp)
	movq	%r15, 10040(%rsp)
	movl	$1, 10048(%rsp)
	movq	%r15, 54560(%rsp)
	movl	$1, 54568(%rsp)
	movq	%r15, 9984(%rsp)
	movl	$1, 9992(%rsp)
	movq	%r15, 54504(%rsp)
	movl	$1, 54512(%rsp)
	movq	%r15, 9928(%rsp)
	movl	$1, 9936(%rsp)
	movq	%r15, 54448(%rsp)
	movl	$1, 54456(%rsp)
	movq	%r15, 9872(%rsp)
	movl	$1, 9880(%rsp)
	movq	%r15, 54392(%rsp)
	movl	$1, 54400(%rsp)
	movq	%r15, 9816(%rsp)
	movl	$1, 9824(%rsp)
	movq	%r15, 54336(%rsp)
	movl	$1, 54344(%rsp)
	movq	%r15, 9760(%rsp)
	movl	$1, 9768(%rsp)
	movq	%r15, 54280(%rsp)
	movl	$1, 54288(%rsp)
	movq	%r15, 9704(%rsp)
	movl	$1, 9712(%rsp)
	movq	%r15, 54224(%rsp)
	movl	$1, 54232(%rsp)
	movq	%r15, 9648(%rsp)
	movl	$1, 9656(%rsp)
	movq	%r15, 54168(%rsp)
	movl	$1, 54176(%rsp)
	movq	%r15, 9592(%rsp)
	movl	$1, 9600(%rsp)
	movq	%r15, 54112(%rsp)
	movl	$1, 54120(%rsp)
	movq	%r15, 9536(%rsp)
	movl	$1, 9544(%rsp)
	movq	%r15, 54056(%rsp)
	movl	$1, 54064(%rsp)
	movq	%r15, 9480(%rsp)
	movl	$1, 9488(%rsp)
	movq	%r15, 54000(%rsp)
	movl	$1, 54008(%rsp)
	movq	%r15, 9424(%rsp)
	movl	$1, 9432(%rsp)
	movq	%r15, 53944(%rsp)
	movl	$1, 53952(%rsp)
	movq	%r15, 9368(%rsp)
	movl	$1, 9376(%rsp)
	movq	%r15, 53888(%rsp)
	movl	$1, 53896(%rsp)
	movq	%r15, 9312(%rsp)
	movl	$1, 9320(%rsp)
	movq	%r15, 53832(%rsp)
	movl	$1, 53840(%rsp)
	movq	%r15, 9256(%rsp)
	movl	$1, 9264(%rsp)
	movq	%r15, 53776(%rsp)
	movl	$1, 53784(%rsp)
	movq	%r15, 9200(%rsp)
	movl	$1, 9208(%rsp)
	movq	%r15, 53720(%rsp)
	movl	$1, 53728(%rsp)
	movq	%r15, 9144(%rsp)
	movl	$1, 9152(%rsp)
	movq	%r15, 53664(%rsp)
	movl	$1, 53672(%rsp)
	movq	%r15, 9088(%rsp)
	movl	$1, 9096(%rsp)
	movq	%r15, 53608(%rsp)
	movl	$1, 53616(%rsp)
	movq	%r15, 9032(%rsp)
	movl	$1, 9040(%rsp)
	movq	%r15, 53552(%rsp)
	movl	$1, 53560(%rsp)
	movq	%r15, 8976(%rsp)
	movl	$1, 8984(%rsp)
	movq	%r15, 53496(%rsp)
	movl	$1, 53504(%rsp)
	movq	%r15, 8920(%rsp)
	movl	$1, 8928(%rsp)
	movq	%r15, 53440(%rsp)
	movl	$1, 53448(%rsp)
	movq	%r15, 8864(%rsp)
	movl	$1, 8872(%rsp)
	movq	%r15, 53384(%rsp)
	movl	$1, 53392(%rsp)
	movq	%r15, 8808(%rsp)
	movl	$1, 8816(%rsp)
	movq	%r15, 53328(%rsp)
	movl	$1, 53336(%rsp)
	movq	%r15, 8752(%rsp)
	movl	$1, 8760(%rsp)
	movq	%r15, 53272(%rsp)
	movl	$1, 53280(%rsp)
	movq	%r15, 8696(%rsp)
	movl	$1, 8704(%rsp)
	movq	%r15, 53216(%rsp)
	movl	$1, 53224(%rsp)
	movq	%r15, 8640(%rsp)
	movl	$1, 8648(%rsp)
	movq	%r15, 53160(%rsp)
	movl	$1, 53168(%rsp)
	movq	%r15, 8584(%rsp)
	movl	$1, 8592(%rsp)
	movq	%r15, 53104(%rsp)
	movl	$1, 53112(%rsp)
	movq	%r15, 8528(%rsp)
	movl	$1, 8536(%rsp)
	movq	%r15, 53048(%rsp)
	movl	$1, 53056(%rsp)
	movq	%r15, 8472(%rsp)
	movl	$1, 8480(%rsp)
	movq	%r15, 52992(%rsp)
	movl	$1, 53000(%rsp)
	movq	%r15, 8416(%rsp)
	movl	$1, 8424(%rsp)
	movq	%r15, 52936(%rsp)
	movl	$1, 52944(%rsp)
	movq	%r15, 8360(%rsp)
	movl	$1, 8368(%rsp)
	movq	%r15, 52880(%rsp)
	movl	$1, 52888(%rsp)
	movq	%r15, 8304(%rsp)
	movl	$1, 8312(%rsp)
	movq	%r15, 8248(%rsp)
	movl	$1, 8256(%rsp)
	movq	%r15, 52824(%rsp)
	movl	$1, 52832(%rsp)
	movq	%r15, 8192(%rsp)
	movl	$1, 8200(%rsp)
	movq	%r15, 52768(%rsp)
	movl	$1, 52776(%rsp)
	movq	%r15, 8136(%rsp)
	movl	$1, 8144(%rsp)
	movq	%r15, 52712(%rsp)
	movl	$1, 52720(%rsp)
	movq	%r15, 8080(%rsp)
	movl	$1, 8088(%rsp)
	movq	%r15, 52656(%rsp)
	movl	$1, 52664(%rsp)
	movq	%r15, 8024(%rsp)
	movl	$1, 8032(%rsp)
	movq	%r15, 52600(%rsp)
	movl	$1, 52608(%rsp)
	movq	%r15, 7968(%rsp)
	movl	$1, 7976(%rsp)
	movq	%r15, 52544(%rsp)
	movl	$1, 52552(%rsp)
	movq	%r15, 7912(%rsp)
	movl	$1, 7920(%rsp)
	movq	%r15, 52488(%rsp)
	movl	$1, 52496(%rsp)
	movq	%r15, 7856(%rsp)
	movl	$1, 7864(%rsp)
	movq	%r15, 52432(%rsp)
	movl	$1, 52440(%rsp)
	movq	%r15, 7800(%rsp)
	movl	$1, 7808(%rsp)
	movq	%r15, 52376(%rsp)
	movl	$1, 52384(%rsp)
	movq	%r15, 7744(%rsp)
	movl	$1, 7752(%rsp)
	movq	%r15, 7688(%rsp)
	movl	$1, 7696(%rsp)
	movq	%r15, 52320(%rsp)
	movl	$1, 52328(%rsp)
	movq	%r15, 7632(%rsp)
	movl	$1, 7640(%rsp)
	movq	%r15, 52264(%rsp)
	movl	$1, 52272(%rsp)
	movq	%r15, 7576(%rsp)
	movl	$1, 7584(%rsp)
	movq	%r15, 52208(%rsp)
	movl	$1, 52216(%rsp)
	movq	%r15, 7520(%rsp)
	movl	$1, 7528(%rsp)
	movq	%r15, 52152(%rsp)
	movl	$1, 52160(%rsp)
	movq	%r15, 7464(%rsp)
	movl	$1, 7472(%rsp)
	movq	%r15, 52096(%rsp)
	movl	$1, 52104(%rsp)
	movq	%r15, 7408(%rsp)
	movl	$1, 7416(%rsp)
	movq	%r15, 52040(%rsp)
	movl	$1, 52048(%rsp)
	movq	%r15, 7352(%rsp)
	movl	$1, 7360(%rsp)
	movq	%r15, 7296(%rsp)
	movl	$1, 7304(%rsp)
	movq	%r15, 51984(%rsp)
	movl	$1, 51992(%rsp)
	movq	%r15, 7240(%rsp)
	movl	$1, 7248(%rsp)
	movq	%r15, 51928(%rsp)
	movl	$1, 51936(%rsp)
	movq	%r15, 7184(%rsp)
	movl	$1, 7192(%rsp)
	movq	%r15, 51872(%rsp)
	movl	$1, 51880(%rsp)
	movq	%r15, 7128(%rsp)
	movl	$1, 7136(%rsp)
	movq	%r15, 7072(%rsp)
	movl	$1, 7080(%rsp)
	movq	%r15, 51816(%rsp)
	movl	$1, 51824(%rsp)
	movq	%r15, 7016(%rsp)
	movl	$1, 7024(%rsp)
	movq	%r15, 51760(%rsp)
	movl	$1, 51768(%rsp)
	movq	%r15, 6960(%rsp)
	movl	$1, 6968(%rsp)
	movq	%r15, 51704(%rsp)
	movl	$1, 51712(%rsp)
	movq	%r15, 6904(%rsp)
	movl	$1, 6912(%rsp)
	movq	%r15, 51648(%rsp)
	movl	$1, 51656(%rsp)
	movq	%r15, 6848(%rsp)
	movl	$1, 6856(%rsp)
	movq	%r15, 51592(%rsp)
	movl	$1, 51600(%rsp)
	movq	%r15, 6792(%rsp)
	movl	$1, 6800(%rsp)
	movq	%r15, 51536(%rsp)
	movl	$1, 51544(%rsp)
	movq	%r15, 6736(%rsp)
	movl	$1, 6744(%rsp)
	movq	%r15, 51480(%rsp)
	movl	$1, 51488(%rsp)
	movq	%r15, 6680(%rsp)
	movl	$1, 6688(%rsp)
	movq	%r15, 51424(%rsp)
	movl	$1, 51432(%rsp)
	movq	%r15, 6624(%rsp)
	movl	$1, 6632(%rsp)
	movq	%r15, 51368(%rsp)
	movl	$1, 51376(%rsp)
	movq	%r15, 6568(%rsp)
	movl	$1, 6576(%rsp)
	movq	%r15, 51312(%rsp)
	movl	$1, 51320(%rsp)
	movq	%r15, 6512(%rsp)
	movl	$1, 6520(%rsp)
	movq	%r15, 56(%rsp)
	movl	$1, 64(%rsp)
	movq	%r15, (%rsp)
	movl	$1, 8(%rsp)
	leaq	51256(%rsp), %rdi
	movsd	LCPI0_0(%rip), %xmm0    ## xmm0 = mem[0],zero
	callq	__ZN14altered_carbon2js9JsVariantaSEd
	leaq	51200(%rsp), %rdi
	movsd	LCPI0_1(%rip), %xmm0    ## xmm0 = mem[0],zero
	callq	__ZN14altered_carbon2js9JsVariantaSEd
	leaq	51144(%rsp), %rdi
	movsd	LCPI0_2(%rip), %xmm0    ## xmm0 = mem[0],zero
	callq	__ZN14altered_carbon2js9JsVariantaSEd
	leaq	51088(%rsp), %rdi
	movsd	LCPI0_3(%rip), %xmm0    ## xmm0 = mem[0],zero
	callq	__ZN14altered_carbon2js9JsVariantaSEd
	leaq	51032(%rsp), %rdi
	movsd	LCPI0_4(%rip), %xmm0    ## xmm0 = mem[0],zero
	callq	__ZN14altered_carbon2js9JsVariantaSEd
	leaq	50976(%rsp), %rdi
	movsd	LCPI0_5(%rip), %xmm0    ## xmm0 = mem[0],zero
	callq	__ZN14altered_carbon2js9JsVariantaSEd
	leaq	50920(%rsp), %rdi
	movsd	LCPI0_6(%rip), %xmm0    ## xmm0 = mem[0],zero
	callq	__ZN14altered_carbon2js9JsVariantaSEd
	leaq	50864(%rsp), %rdi
	movsd	LCPI0_7(%rip), %xmm0    ## xmm0 = mem[0],zero
	callq	__ZN14altered_carbon2js9JsVariantaSEd
	leaq	50808(%rsp), %rdi
	movsd	LCPI0_8(%rip), %xmm0    ## xmm0 = mem[0],zero
	callq	__ZN14altered_carbon2js9JsVariantaSEd
	leaq	50752(%rsp), %rdi
	movsd	LCPI0_9(%rip), %xmm0    ## xmm0 = mem[0],zero
	callq	__ZN14altered_carbon2js9JsVariantaSEd
	leaq	50696(%rsp), %rdi
	movsd	LCPI0_10(%rip), %xmm0   ## xmm0 = mem[0],zero
	callq	__ZN14altered_carbon2js9JsVariantaSEd
	leaq	50640(%rsp), %rdi
	movsd	LCPI0_11(%rip), %xmm0   ## xmm0 = mem[0],zero
	callq	__ZN14altered_carbon2js9JsVariantaSEd
	leaq	50584(%rsp), %rdi
	movsd	LCPI0_12(%rip), %xmm0   ## xmm0 = mem[0],zero
	callq	__ZN14altered_carbon2js9JsVariantaSEd
	leaq	50528(%rsp), %rdi
	movsd	LCPI0_13(%rip), %xmm0   ## xmm0 = mem[0],zero
	callq	__ZN14altered_carbon2js9JsVariantaSEd
	leaq	50472(%rsp), %rdi
	movsd	LCPI0_14(%rip), %xmm0   ## xmm0 = mem[0],zero
	callq	__ZN14altered_carbon2js9JsVariantaSEd
	leaq	50416(%rsp), %rdi
	movsd	LCPI0_15(%rip), %xmm0   ## xmm0 = mem[0],zero
	callq	__ZN14altered_carbon2js9JsVariantaSEd
	leaq	50360(%rsp), %rdi
	movsd	LCPI0_16(%rip), %xmm0   ## xmm0 = mem[0],zero
	callq	__ZN14altered_carbon2js9JsVariantaSEd
	leaq	50304(%rsp), %rdi
	movsd	LCPI0_17(%rip), %xmm0   ## xmm0 = mem[0],zero
	callq	__ZN14altered_carbon2js9JsVariantaSEd
	leaq	50248(%rsp), %rdi
	movsd	LCPI0_18(%rip), %xmm0   ## xmm0 = mem[0],zero
	callq	__ZN14altered_carbon2js9JsVariantaSEd
	leaq	50192(%rsp), %rdi
	movsd	LCPI0_19(%rip), %xmm0   ## xmm0 = mem[0],zero
	callq	__ZN14altered_carbon2js9JsVariantaSEd
	leaq	50136(%rsp), %rdi
	movsd	LCPI0_20(%rip), %xmm0   ## xmm0 = mem[0],zero
	callq	__ZN14altered_carbon2js9JsVariantaSEd
	leaq	50080(%rsp), %rdi
	movsd	LCPI0_21(%rip), %xmm0   ## xmm0 = mem[0],zero
	callq	__ZN14altered_carbon2js9JsVariantaSEd
	leaq	50024(%rsp), %rdi
	movsd	LCPI0_22(%rip), %xmm0   ## xmm0 = mem[0],zero
	callq	__ZN14altered_carbon2js9JsVariantaSEd
	leaq	49968(%rsp), %rdi
	movsd	LCPI0_23(%rip), %xmm0   ## xmm0 = mem[0],zero
	callq	__ZN14altered_carbon2js9JsVariantaSEd
	leaq	49912(%rsp), %rdi
	movsd	LCPI0_24(%rip), %xmm0   ## xmm0 = mem[0],zero
	callq	__ZN14altered_carbon2js9JsVariantaSEd
	leaq	49856(%rsp), %rdi
	movsd	LCPI0_25(%rip), %xmm0   ## xmm0 = mem[0],zero
	callq	__ZN14altered_carbon2js9JsVariantaSEd
	leaq	49800(%rsp), %rdi
	movsd	LCPI0_26(%rip), %xmm0   ## xmm0 = mem[0],zero
	callq	__ZN14altered_carbon2js9JsVariantaSEd
	leaq	49744(%rsp), %rdi
	movsd	LCPI0_27(%rip), %xmm0   ## xmm0 = mem[0],zero
	callq	__ZN14altered_carbon2js9JsVariantaSEd
	leaq	49688(%rsp), %rdi
	movsd	LCPI0_28(%rip), %xmm0   ## xmm0 = mem[0],zero
	callq	__ZN14altered_carbon2js9JsVariantaSEd
	leaq	49632(%rsp), %rdi
	movsd	LCPI0_29(%rip), %xmm0   ## xmm0 = mem[0],zero
	callq	__ZN14altered_carbon2js9JsVariantaSEd
	leaq	49576(%rsp), %rdi
	movsd	LCPI0_30(%rip), %xmm0   ## xmm0 = mem[0],zero
	callq	__ZN14altered_carbon2js9JsVariantaSEd
	leaq	49520(%rsp), %rdi
	movsd	LCPI0_31(%rip), %xmm0   ## xmm0 = mem[0],zero
	callq	__ZN14altered_carbon2js9JsVariantaSEd
	leaq	49464(%rsp), %rdi
	movsd	LCPI0_32(%rip), %xmm0   ## xmm0 = mem[0],zero
	callq	__ZN14altered_carbon2js9JsVariantaSEd
	leaq	49408(%rsp), %rdi
	movsd	LCPI0_33(%rip), %xmm0   ## xmm0 = mem[0],zero
	callq	__ZN14altered_carbon2js9JsVariantaSEd
	leaq	49352(%rsp), %rdi
	movsd	LCPI0_34(%rip), %xmm0   ## xmm0 = mem[0],zero
	callq	__ZN14altered_carbon2js9JsVariantaSEd
	leaq	49296(%rsp), %rdi
	movsd	LCPI0_35(%rip), %xmm0   ## xmm0 = mem[0],zero
	callq	__ZN14altered_carbon2js9JsVariantaSEd
	leaq	49240(%rsp), %rdi
	movsd	LCPI0_36(%rip), %xmm0   ## xmm0 = mem[0],zero
	callq	__ZN14altered_carbon2js9JsVariantaSEd
	leaq	49184(%rsp), %rdi
	movsd	LCPI0_37(%rip), %xmm0   ## xmm0 = mem[0],zero
	callq	__ZN14altered_carbon2js9JsVariantaSEd
	leaq	49128(%rsp), %rdi
	movsd	LCPI0_38(%rip), %xmm0   ## xmm0 = mem[0],zero
	callq	__ZN14altered_carbon2js9JsVariantaSEd
	leaq	49072(%rsp), %rdi
	movsd	LCPI0_39(%rip), %xmm0   ## xmm0 = mem[0],zero
	callq	__ZN14altered_carbon2js9JsVariantaSEd
	leaq	49016(%rsp), %rdi
	movsd	LCPI0_40(%rip), %xmm0   ## xmm0 = mem[0],zero
	callq	__ZN14altered_carbon2js9JsVariantaSEd
	leaq	48960(%rsp), %rdi
	movsd	LCPI0_41(%rip), %xmm0   ## xmm0 = mem[0],zero
	callq	__ZN14altered_carbon2js9JsVariantaSEd
	leaq	48904(%rsp), %rdi
	movsd	LCPI0_42(%rip), %xmm0   ## xmm0 = mem[0],zero
	callq	__ZN14altered_carbon2js9JsVariantaSEd
	leaq	48848(%rsp), %rdi
	movsd	LCPI0_43(%rip), %xmm0   ## xmm0 = mem[0],zero
	callq	__ZN14altered_carbon2js9JsVariantaSEd
	leaq	48792(%rsp), %rdi
	movsd	LCPI0_44(%rip), %xmm0   ## xmm0 = mem[0],zero
	callq	__ZN14altered_carbon2js9JsVariantaSEd
	leaq	48736(%rsp), %rdi
	movsd	LCPI0_45(%rip), %xmm0   ## xmm0 = mem[0],zero
	callq	__ZN14altered_carbon2js9JsVariantaSEd
	leaq	48680(%rsp), %rdi
	movsd	LCPI0_46(%rip), %xmm0   ## xmm0 = mem[0],zero
	callq	__ZN14altered_carbon2js9JsVariantaSEd
	leaq	48624(%rsp), %rdi
	movsd	LCPI0_47(%rip), %xmm0   ## xmm0 = mem[0],zero
	callq	__ZN14altered_carbon2js9JsVariantaSEd
	leaq	48568(%rsp), %rdi
	movsd	LCPI0_48(%rip), %xmm0   ## xmm0 = mem[0],zero
	callq	__ZN14altered_carbon2js9JsVariantaSEd
	leaq	48512(%rsp), %rdi
	movsd	LCPI0_49(%rip), %xmm0   ## xmm0 = mem[0],zero
	callq	__ZN14altered_carbon2js9JsVariantaSEd
	leaq	48456(%rsp), %rdi
	movsd	LCPI0_50(%rip), %xmm0   ## xmm0 = mem[0],zero
	callq	__ZN14altered_carbon2js9JsVariantaSEd
	leaq	48400(%rsp), %rdi
	movsd	LCPI0_51(%rip), %xmm0   ## xmm0 = mem[0],zero
	callq	__ZN14altered_carbon2js9JsVariantaSEd
	leaq	48344(%rsp), %rdi
	movsd	LCPI0_52(%rip), %xmm0   ## xmm0 = mem[0],zero
	callq	__ZN14altered_carbon2js9JsVariantaSEd
	leaq	48288(%rsp), %rdi
	movsd	LCPI0_53(%rip), %xmm0   ## xmm0 = mem[0],zero
	callq	__ZN14altered_carbon2js9JsVariantaSEd
	leaq	48232(%rsp), %rdi
	movsd	LCPI0_54(%rip), %xmm0   ## xmm0 = mem[0],zero
	callq	__ZN14altered_carbon2js9JsVariantaSEd
	leaq	48176(%rsp), %rdi
	movsd	LCPI0_55(%rip), %xmm0   ## xmm0 = mem[0],zero
	callq	__ZN14altered_carbon2js9JsVariantaSEd
	leaq	48120(%rsp), %rdi
	movsd	LCPI0_56(%rip), %xmm0   ## xmm0 = mem[0],zero
	callq	__ZN14altered_carbon2js9JsVariantaSEd
	leaq	48064(%rsp), %rdi
	movsd	LCPI0_57(%rip), %xmm0   ## xmm0 = mem[0],zero
	callq	__ZN14altered_carbon2js9JsVariantaSEd
	leaq	48008(%rsp), %rdi
	movsd	LCPI0_58(%rip), %xmm0   ## xmm0 = mem[0],zero
	callq	__ZN14altered_carbon2js9JsVariantaSEd
	leaq	47952(%rsp), %rdi
	movsd	LCPI0_59(%rip), %xmm0   ## xmm0 = mem[0],zero
	callq	__ZN14altered_carbon2js9JsVariantaSEd
	leaq	47896(%rsp), %rdi
	movsd	LCPI0_60(%rip), %xmm0   ## xmm0 = mem[0],zero
	callq	__ZN14altered_carbon2js9JsVariantaSEd
	leaq	47840(%rsp), %rdi
	movsd	LCPI0_61(%rip), %xmm0   ## xmm0 = mem[0],zero
	callq	__ZN14altered_carbon2js9JsVariantaSEd
	leaq	47784(%rsp), %rdi
	movsd	LCPI0_62(%rip), %xmm0   ## xmm0 = mem[0],zero
	callq	__ZN14altered_carbon2js9JsVariantaSEd
	leaq	47728(%rsp), %rdi
	movsd	LCPI0_63(%rip), %xmm0   ## xmm0 = mem[0],zero
	callq	__ZN14altered_carbon2js9JsVariantaSEd
	leaq	47672(%rsp), %rdi
	movsd	LCPI0_64(%rip), %xmm0   ## xmm0 = mem[0],zero
	callq	__ZN14altered_carbon2js9JsVariantaSEd
	leaq	47616(%rsp), %rdi
	movsd	LCPI0_65(%rip), %xmm0   ## xmm0 = mem[0],zero
	callq	__ZN14altered_carbon2js9JsVariantaSEd
	leaq	47560(%rsp), %rdi
	movsd	LCPI0_66(%rip), %xmm0   ## xmm0 = mem[0],zero
	callq	__ZN14altered_carbon2js9JsVariantaSEd
	leaq	47504(%rsp), %rdi
	movsd	LCPI0_67(%rip), %xmm0   ## xmm0 = mem[0],zero
	callq	__ZN14altered_carbon2js9JsVariantaSEd
	leaq	47448(%rsp), %rdi
	movsd	LCPI0_68(%rip), %xmm0   ## xmm0 = mem[0],zero
	callq	__ZN14altered_carbon2js9JsVariantaSEd
	leaq	47392(%rsp), %rdi
	movsd	LCPI0_69(%rip), %xmm0   ## xmm0 = mem[0],zero
	callq	__ZN14altered_carbon2js9JsVariantaSEd
	leaq	47336(%rsp), %rdi
	movsd	LCPI0_70(%rip), %xmm0   ## xmm0 = mem[0],zero
	callq	__ZN14altered_carbon2js9JsVariantaSEd
	leaq	47280(%rsp), %rdi
	movsd	LCPI0_71(%rip), %xmm0   ## xmm0 = mem[0],zero
	callq	__ZN14altered_carbon2js9JsVariantaSEd
	leaq	47224(%rsp), %rdi
	movsd	LCPI0_72(%rip), %xmm0   ## xmm0 = mem[0],zero
	callq	__ZN14altered_carbon2js9JsVariantaSEd
	leaq	47168(%rsp), %rdi
	movsd	LCPI0_73(%rip), %xmm0   ## xmm0 = mem[0],zero
	callq	__ZN14altered_carbon2js9JsVariantaSEd
	leaq	47112(%rsp), %rdi
	movsd	LCPI0_74(%rip), %xmm0   ## xmm0 = mem[0],zero
	callq	__ZN14altered_carbon2js9JsVariantaSEd
	leaq	47056(%rsp), %rdi
	movsd	LCPI0_75(%rip), %xmm0   ## xmm0 = mem[0],zero
	callq	__ZN14altered_carbon2js9JsVariantaSEd
	leaq	47000(%rsp), %rdi
	movsd	LCPI0_76(%rip), %xmm0   ## xmm0 = mem[0],zero
	callq	__ZN14altered_carbon2js9JsVariantaSEd
	leaq	46944(%rsp), %rdi
	movsd	LCPI0_77(%rip), %xmm0   ## xmm0 = mem[0],zero
	callq	__ZN14altered_carbon2js9JsVariantaSEd
	leaq	46888(%rsp), %rdi
	movsd	LCPI0_78(%rip), %xmm0   ## xmm0 = mem[0],zero
	callq	__ZN14altered_carbon2js9JsVariantaSEd
	leaq	46832(%rsp), %rdi
	movsd	LCPI0_79(%rip), %xmm0   ## xmm0 = mem[0],zero
	callq	__ZN14altered_carbon2js9JsVariantaSEd
	leaq	46776(%rsp), %rdi
	movsd	LCPI0_80(%rip), %xmm0   ## xmm0 = mem[0],zero
	callq	__ZN14altered_carbon2js9JsVariantaSEd
	leaq	46720(%rsp), %rdi
	movsd	LCPI0_81(%rip), %xmm0   ## xmm0 = mem[0],zero
	callq	__ZN14altered_carbon2js9JsVariantaSEd
	leaq	46664(%rsp), %rdi
	movsd	LCPI0_82(%rip), %xmm0   ## xmm0 = mem[0],zero
	callq	__ZN14altered_carbon2js9JsVariantaSEd
	leaq	46608(%rsp), %rdi
	movsd	LCPI0_83(%rip), %xmm0   ## xmm0 = mem[0],zero
	callq	__ZN14altered_carbon2js9JsVariantaSEd
	leaq	46552(%rsp), %rdi
	movsd	LCPI0_84(%rip), %xmm0   ## xmm0 = mem[0],zero
	callq	__ZN14altered_carbon2js9JsVariantaSEd
	leaq	46496(%rsp), %rdi
	movsd	LCPI0_85(%rip), %xmm0   ## xmm0 = mem[0],zero
	callq	__ZN14altered_carbon2js9JsVariantaSEd
	leaq	46440(%rsp), %rdi
	movsd	LCPI0_86(%rip), %xmm0   ## xmm0 = mem[0],zero
	callq	__ZN14altered_carbon2js9JsVariantaSEd
	leaq	46384(%rsp), %rdi
	movsd	LCPI0_87(%rip), %xmm0   ## xmm0 = mem[0],zero
	callq	__ZN14altered_carbon2js9JsVariantaSEd
	leaq	46328(%rsp), %rdi
	movsd	LCPI0_88(%rip), %xmm0   ## xmm0 = mem[0],zero
	callq	__ZN14altered_carbon2js9JsVariantaSEd
	leaq	46272(%rsp), %rdi
	movsd	LCPI0_89(%rip), %xmm0   ## xmm0 = mem[0],zero
	callq	__ZN14altered_carbon2js9JsVariantaSEd
	leaq	46216(%rsp), %rdi
	movsd	LCPI0_90(%rip), %xmm0   ## xmm0 = mem[0],zero
	callq	__ZN14altered_carbon2js9JsVariantaSEd
	leaq	46160(%rsp), %rdi
	movsd	LCPI0_91(%rip), %xmm0   ## xmm0 = mem[0],zero
	callq	__ZN14altered_carbon2js9JsVariantaSEd
	leaq	46104(%rsp), %rdi
	movsd	LCPI0_92(%rip), %xmm0   ## xmm0 = mem[0],zero
	callq	__ZN14altered_carbon2js9JsVariantaSEd
	leaq	81384(%rsp), %rbx
	movsd	LCPI0_93(%rip), %xmm0   ## xmm0 = mem[0],zero
	movq	%rbx, %rdi
	callq	__ZN14altered_carbon2js9JsVariantaSEd
	leaq	46048(%rsp), %rdi
	movq	%rbx, %rsi
	callq	__ZN14altered_carbon2js9JsVariantngEv
	leaq	45992(%rsp), %rdi
	movsd	LCPI0_94(%rip), %xmm0   ## xmm0 = mem[0],zero
	callq	__ZN14altered_carbon2js9JsVariantaSEd
	leaq	45936(%rsp), %rdi
	movsd	LCPI0_95(%rip), %xmm0   ## xmm0 = mem[0],zero
	callq	__ZN14altered_carbon2js9JsVariantaSEd
	leaq	45880(%rsp), %rdi
	movsd	LCPI0_96(%rip), %xmm0   ## xmm0 = mem[0],zero
	callq	__ZN14altered_carbon2js9JsVariantaSEd
	leaq	45824(%rsp), %rdi
	movsd	LCPI0_97(%rip), %xmm0   ## xmm0 = mem[0],zero
	callq	__ZN14altered_carbon2js9JsVariantaSEd
	leaq	45768(%rsp), %rdi
	movsd	LCPI0_98(%rip), %xmm0   ## xmm0 = mem[0],zero
	callq	__ZN14altered_carbon2js9JsVariantaSEd
	leaq	45712(%rsp), %rdi
	movsd	LCPI0_99(%rip), %xmm0   ## xmm0 = mem[0],zero
	callq	__ZN14altered_carbon2js9JsVariantaSEd
	leaq	45656(%rsp), %rdi
	movsd	LCPI0_100(%rip), %xmm0  ## xmm0 = mem[0],zero
	callq	__ZN14altered_carbon2js9JsVariantaSEd
	leaq	45600(%rsp), %rdi
	movsd	LCPI0_101(%rip), %xmm0  ## xmm0 = mem[0],zero
	callq	__ZN14altered_carbon2js9JsVariantaSEd
	leaq	45544(%rsp), %rdi
	movsd	LCPI0_102(%rip), %xmm0  ## xmm0 = mem[0],zero
	callq	__ZN14altered_carbon2js9JsVariantaSEd
	leaq	45488(%rsp), %rdi
	movsd	LCPI0_103(%rip), %xmm0  ## xmm0 = mem[0],zero
	callq	__ZN14altered_carbon2js9JsVariantaSEd
	leaq	45432(%rsp), %rdi
	movsd	LCPI0_104(%rip), %xmm0  ## xmm0 = mem[0],zero
	callq	__ZN14altered_carbon2js9JsVariantaSEd
	leaq	45376(%rsp), %rdi
	movsd	LCPI0_105(%rip), %xmm0  ## xmm0 = mem[0],zero
	callq	__ZN14altered_carbon2js9JsVariantaSEd
	leaq	45320(%rsp), %rdi
	movsd	LCPI0_106(%rip), %xmm0  ## xmm0 = mem[0],zero
	callq	__ZN14altered_carbon2js9JsVariantaSEd
	leaq	45264(%rsp), %rdi
	movsd	LCPI0_107(%rip), %xmm0  ## xmm0 = mem[0],zero
	callq	__ZN14altered_carbon2js9JsVariantaSEd
	leaq	45208(%rsp), %rdi
	movsd	LCPI0_108(%rip), %xmm0  ## xmm0 = mem[0],zero
	callq	__ZN14altered_carbon2js9JsVariantaSEd
	leaq	45152(%rsp), %rdi
	movsd	LCPI0_109(%rip), %xmm0  ## xmm0 = mem[0],zero
	callq	__ZN14altered_carbon2js9JsVariantaSEd
	leaq	45096(%rsp), %rdi
	movsd	LCPI0_110(%rip), %xmm0  ## xmm0 = mem[0],zero
	callq	__ZN14altered_carbon2js9JsVariantaSEd
	leaq	45040(%rsp), %rdi
	movsd	LCPI0_111(%rip), %xmm0  ## xmm0 = mem[0],zero
	callq	__ZN14altered_carbon2js9JsVariantaSEd
	leaq	44984(%rsp), %rdi
	movsd	LCPI0_112(%rip), %xmm0  ## xmm0 = mem[0],zero
	callq	__ZN14altered_carbon2js9JsVariantaSEd
	leaq	44928(%rsp), %rdi
	movsd	LCPI0_113(%rip), %xmm0  ## xmm0 = mem[0],zero
	callq	__ZN14altered_carbon2js9JsVariantaSEd
	leaq	44872(%rsp), %rdi
	movsd	LCPI0_114(%rip), %xmm0  ## xmm0 = mem[0],zero
	callq	__ZN14altered_carbon2js9JsVariantaSEd
	leaq	44816(%rsp), %rdi
	movsd	LCPI0_115(%rip), %xmm0  ## xmm0 = mem[0],zero
	callq	__ZN14altered_carbon2js9JsVariantaSEd
	leaq	44760(%rsp), %rdi
	movsd	LCPI0_116(%rip), %xmm0  ## xmm0 = mem[0],zero
	callq	__ZN14altered_carbon2js9JsVariantaSEd
	leaq	44704(%rsp), %rdi
	movsd	LCPI0_117(%rip), %xmm0  ## xmm0 = mem[0],zero
	callq	__ZN14altered_carbon2js9JsVariantaSEd
	leaq	44648(%rsp), %rdi
	movsd	LCPI0_118(%rip), %xmm0  ## xmm0 = mem[0],zero
	callq	__ZN14altered_carbon2js9JsVariantaSEd
	leaq	44592(%rsp), %rdi
	movsd	LCPI0_119(%rip), %xmm0  ## xmm0 = mem[0],zero
	callq	__ZN14altered_carbon2js9JsVariantaSEd
	leaq	44536(%rsp), %rdi
	movsd	LCPI0_120(%rip), %xmm0  ## xmm0 = mem[0],zero
	callq	__ZN14altered_carbon2js9JsVariantaSEd
	leaq	44480(%rsp), %rdi
	movsd	LCPI0_121(%rip), %xmm0  ## xmm0 = mem[0],zero
	callq	__ZN14altered_carbon2js9JsVariantaSEd
	leaq	44424(%rsp), %rdi
	movsd	LCPI0_122(%rip), %xmm0  ## xmm0 = mem[0],zero
	callq	__ZN14altered_carbon2js9JsVariantaSEd
	leaq	44368(%rsp), %rdi
	movsd	LCPI0_123(%rip), %xmm0  ## xmm0 = mem[0],zero
	callq	__ZN14altered_carbon2js9JsVariantaSEd
	leaq	44312(%rsp), %rdi
	movsd	LCPI0_124(%rip), %xmm0  ## xmm0 = mem[0],zero
	callq	__ZN14altered_carbon2js9JsVariantaSEd
	leaq	44256(%rsp), %rdi
	movsd	LCPI0_125(%rip), %xmm0  ## xmm0 = mem[0],zero
	callq	__ZN14altered_carbon2js9JsVariantaSEd
	leaq	44200(%rsp), %rdi
	movsd	LCPI0_126(%rip), %xmm0  ## xmm0 = mem[0],zero
	callq	__ZN14altered_carbon2js9JsVariantaSEd
	leaq	44144(%rsp), %rdi
	movsd	LCPI0_127(%rip), %xmm0  ## xmm0 = mem[0],zero
	callq	__ZN14altered_carbon2js9JsVariantaSEd
	leaq	44088(%rsp), %rdi
	movsd	LCPI0_128(%rip), %xmm0  ## xmm0 = mem[0],zero
	callq	__ZN14altered_carbon2js9JsVariantaSEd
	leaq	44032(%rsp), %rdi
	movsd	LCPI0_129(%rip), %xmm0  ## xmm0 = mem[0],zero
	callq	__ZN14altered_carbon2js9JsVariantaSEd
	leaq	43976(%rsp), %rdi
	movsd	LCPI0_130(%rip), %xmm0  ## xmm0 = mem[0],zero
	callq	__ZN14altered_carbon2js9JsVariantaSEd
	leaq	43920(%rsp), %rdi
	movsd	LCPI0_131(%rip), %xmm0  ## xmm0 = mem[0],zero
	callq	__ZN14altered_carbon2js9JsVariantaSEd
	leaq	43864(%rsp), %rdi
	movsd	LCPI0_132(%rip), %xmm0  ## xmm0 = mem[0],zero
	callq	__ZN14altered_carbon2js9JsVariantaSEd
	leaq	43808(%rsp), %rdi
	movsd	LCPI0_133(%rip), %xmm0  ## xmm0 = mem[0],zero
	callq	__ZN14altered_carbon2js9JsVariantaSEd
	leaq	43752(%rsp), %rdi
	movsd	LCPI0_134(%rip), %xmm0  ## xmm0 = mem[0],zero
	callq	__ZN14altered_carbon2js9JsVariantaSEd
	leaq	43696(%rsp), %rdi
	movsd	LCPI0_135(%rip), %xmm0  ## xmm0 = mem[0],zero
	callq	__ZN14altered_carbon2js9JsVariantaSEd
	leaq	43640(%rsp), %rdi
	movsd	LCPI0_136(%rip), %xmm0  ## xmm0 = mem[0],zero
	callq	__ZN14altered_carbon2js9JsVariantaSEd
	leaq	43584(%rsp), %rdi
	movsd	LCPI0_137(%rip), %xmm0  ## xmm0 = mem[0],zero
	callq	__ZN14altered_carbon2js9JsVariantaSEd
	leaq	43528(%rsp), %rdi
	movsd	LCPI0_138(%rip), %xmm0  ## xmm0 = mem[0],zero
	callq	__ZN14altered_carbon2js9JsVariantaSEd
	leaq	43472(%rsp), %rdi
	movsd	LCPI0_139(%rip), %xmm0  ## xmm0 = mem[0],zero
	callq	__ZN14altered_carbon2js9JsVariantaSEd
	leaq	43416(%rsp), %rdi
	movsd	LCPI0_140(%rip), %xmm0  ## xmm0 = mem[0],zero
	callq	__ZN14altered_carbon2js9JsVariantaSEd
	leaq	43360(%rsp), %rdi
	movsd	LCPI0_141(%rip), %xmm0  ## xmm0 = mem[0],zero
	callq	__ZN14altered_carbon2js9JsVariantaSEd
	leaq	43304(%rsp), %rdi
	movsd	LCPI0_142(%rip), %xmm0  ## xmm0 = mem[0],zero
	callq	__ZN14altered_carbon2js9JsVariantaSEd
	leaq	43248(%rsp), %rdi
	movsd	LCPI0_143(%rip), %xmm0  ## xmm0 = mem[0],zero
	callq	__ZN14altered_carbon2js9JsVariantaSEd
	leaq	43192(%rsp), %rdi
	movsd	LCPI0_144(%rip), %xmm0  ## xmm0 = mem[0],zero
	callq	__ZN14altered_carbon2js9JsVariantaSEd
	leaq	43136(%rsp), %rdi
	movsd	LCPI0_145(%rip), %xmm0  ## xmm0 = mem[0],zero
	callq	__ZN14altered_carbon2js9JsVariantaSEd
	leaq	43080(%rsp), %rdi
	movsd	LCPI0_146(%rip), %xmm0  ## xmm0 = mem[0],zero
	callq	__ZN14altered_carbon2js9JsVariantaSEd
	leaq	43024(%rsp), %rdi
	movsd	LCPI0_147(%rip), %xmm0  ## xmm0 = mem[0],zero
	callq	__ZN14altered_carbon2js9JsVariantaSEd
	leaq	42968(%rsp), %rdi
	movsd	LCPI0_148(%rip), %xmm0  ## xmm0 = mem[0],zero
	callq	__ZN14altered_carbon2js9JsVariantaSEd
	leaq	42912(%rsp), %rdi
	movsd	LCPI0_149(%rip), %xmm0  ## xmm0 = mem[0],zero
	callq	__ZN14altered_carbon2js9JsVariantaSEd
	leaq	42856(%rsp), %rdi
	movsd	LCPI0_150(%rip), %xmm0  ## xmm0 = mem[0],zero
	callq	__ZN14altered_carbon2js9JsVariantaSEd
	leaq	42800(%rsp), %rdi
	movsd	LCPI0_151(%rip), %xmm0  ## xmm0 = mem[0],zero
	callq	__ZN14altered_carbon2js9JsVariantaSEd
	leaq	42744(%rsp), %rdi
	movsd	LCPI0_152(%rip), %xmm0  ## xmm0 = mem[0],zero
	callq	__ZN14altered_carbon2js9JsVariantaSEd
	leaq	42688(%rsp), %rdi
	movsd	LCPI0_153(%rip), %xmm0  ## xmm0 = mem[0],zero
	callq	__ZN14altered_carbon2js9JsVariantaSEd
	leaq	42632(%rsp), %rdi
	movsd	LCPI0_154(%rip), %xmm0  ## xmm0 = mem[0],zero
	callq	__ZN14altered_carbon2js9JsVariantaSEd
	leaq	42576(%rsp), %rdi
	movsd	LCPI0_155(%rip), %xmm0  ## xmm0 = mem[0],zero
	callq	__ZN14altered_carbon2js9JsVariantaSEd
	leaq	42520(%rsp), %rdi
	movsd	LCPI0_156(%rip), %xmm0  ## xmm0 = mem[0],zero
	callq	__ZN14altered_carbon2js9JsVariantaSEd
	leaq	42464(%rsp), %rdi
	movsd	LCPI0_157(%rip), %xmm0  ## xmm0 = mem[0],zero
	callq	__ZN14altered_carbon2js9JsVariantaSEd
	leaq	81328(%rsp), %rbx
	movsd	LCPI0_158(%rip), %xmm0  ## xmm0 = mem[0],zero
	movq	%rbx, %rdi
	callq	__ZN14altered_carbon2js9JsVariantaSEd
	leaq	42408(%rsp), %rdi
	movq	%rbx, %rsi
	callq	__ZN14altered_carbon2js9JsVariantngEv
	leaq	42352(%rsp), %rdi
	movsd	LCPI0_159(%rip), %xmm0  ## xmm0 = mem[0],zero
	callq	__ZN14altered_carbon2js9JsVariantaSEd
	leaq	42296(%rsp), %rdi
	movsd	LCPI0_160(%rip), %xmm0  ## xmm0 = mem[0],zero
	callq	__ZN14altered_carbon2js9JsVariantaSEd
	leaq	42240(%rsp), %rdi
	movsd	LCPI0_161(%rip), %xmm0  ## xmm0 = mem[0],zero
	callq	__ZN14altered_carbon2js9JsVariantaSEd
	leaq	42184(%rsp), %rdi
	movsd	LCPI0_162(%rip), %xmm0  ## xmm0 = mem[0],zero
	callq	__ZN14altered_carbon2js9JsVariantaSEd
	leaq	42128(%rsp), %rdi
	movsd	LCPI0_163(%rip), %xmm0  ## xmm0 = mem[0],zero
	callq	__ZN14altered_carbon2js9JsVariantaSEd
	leaq	42072(%rsp), %rdi
	movsd	LCPI0_164(%rip), %xmm0  ## xmm0 = mem[0],zero
	callq	__ZN14altered_carbon2js9JsVariantaSEd
	leaq	42016(%rsp), %rdi
	movsd	LCPI0_165(%rip), %xmm0  ## xmm0 = mem[0],zero
	callq	__ZN14altered_carbon2js9JsVariantaSEd
	leaq	41960(%rsp), %rdi
	movsd	LCPI0_166(%rip), %xmm0  ## xmm0 = mem[0],zero
	callq	__ZN14altered_carbon2js9JsVariantaSEd
	leaq	41904(%rsp), %rdi
	movsd	LCPI0_167(%rip), %xmm0  ## xmm0 = mem[0],zero
	callq	__ZN14altered_carbon2js9JsVariantaSEd
	leaq	41848(%rsp), %rdi
	movsd	LCPI0_168(%rip), %xmm0  ## xmm0 = mem[0],zero
	callq	__ZN14altered_carbon2js9JsVariantaSEd
	leaq	41792(%rsp), %rdi
	movsd	LCPI0_169(%rip), %xmm0  ## xmm0 = mem[0],zero
	callq	__ZN14altered_carbon2js9JsVariantaSEd
	leaq	41736(%rsp), %rdi
	movsd	LCPI0_170(%rip), %xmm0  ## xmm0 = mem[0],zero
	callq	__ZN14altered_carbon2js9JsVariantaSEd
	leaq	41680(%rsp), %rdi
	movsd	LCPI0_171(%rip), %xmm0  ## xmm0 = mem[0],zero
	callq	__ZN14altered_carbon2js9JsVariantaSEd
	leaq	41624(%rsp), %rdi
	movsd	LCPI0_172(%rip), %xmm0  ## xmm0 = mem[0],zero
	callq	__ZN14altered_carbon2js9JsVariantaSEd
	leaq	41568(%rsp), %rdi
	movsd	LCPI0_173(%rip), %xmm0  ## xmm0 = mem[0],zero
	callq	__ZN14altered_carbon2js9JsVariantaSEd
	leaq	41512(%rsp), %rdi
	movsd	LCPI0_174(%rip), %xmm0  ## xmm0 = mem[0],zero
	callq	__ZN14altered_carbon2js9JsVariantaSEd
	leaq	41456(%rsp), %rdi
	movsd	LCPI0_175(%rip), %xmm0  ## xmm0 = mem[0],zero
	callq	__ZN14altered_carbon2js9JsVariantaSEd
	leaq	41400(%rsp), %rdi
	movsd	LCPI0_176(%rip), %xmm0  ## xmm0 = mem[0],zero
	callq	__ZN14altered_carbon2js9JsVariantaSEd
	leaq	41344(%rsp), %rdi
	movsd	LCPI0_177(%rip), %xmm0  ## xmm0 = mem[0],zero
	callq	__ZN14altered_carbon2js9JsVariantaSEd
	leaq	41288(%rsp), %rdi
	movsd	LCPI0_178(%rip), %xmm0  ## xmm0 = mem[0],zero
	callq	__ZN14altered_carbon2js9JsVariantaSEd
	leaq	41232(%rsp), %rdi
	movsd	LCPI0_179(%rip), %xmm0  ## xmm0 = mem[0],zero
	callq	__ZN14altered_carbon2js9JsVariantaSEd
	leaq	41176(%rsp), %rdi
	movsd	LCPI0_180(%rip), %xmm0  ## xmm0 = mem[0],zero
	callq	__ZN14altered_carbon2js9JsVariantaSEd
	leaq	41120(%rsp), %rdi
	movsd	LCPI0_181(%rip), %xmm0  ## xmm0 = mem[0],zero
	callq	__ZN14altered_carbon2js9JsVariantaSEd
	leaq	41064(%rsp), %rdi
	movsd	LCPI0_182(%rip), %xmm0  ## xmm0 = mem[0],zero
	callq	__ZN14altered_carbon2js9JsVariantaSEd
	leaq	41008(%rsp), %rdi
	movsd	LCPI0_183(%rip), %xmm0  ## xmm0 = mem[0],zero
	callq	__ZN14altered_carbon2js9JsVariantaSEd
	leaq	40952(%rsp), %rdi
	movsd	LCPI0_184(%rip), %xmm0  ## xmm0 = mem[0],zero
	callq	__ZN14altered_carbon2js9JsVariantaSEd
	leaq	81272(%rsp), %rbx
	movsd	LCPI0_185(%rip), %xmm0  ## xmm0 = mem[0],zero
	movq	%rbx, %rdi
	callq	__ZN14altered_carbon2js9JsVariantaSEd
	leaq	40896(%rsp), %rdi
	movq	%rbx, %rsi
	callq	__ZN14altered_carbon2js9JsVariantngEv
	leaq	40840(%rsp), %rdi
	movsd	LCPI0_186(%rip), %xmm0  ## xmm0 = mem[0],zero
	callq	__ZN14altered_carbon2js9JsVariantaSEd
	leaq	40784(%rsp), %rdi
	movsd	LCPI0_187(%rip), %xmm0  ## xmm0 = mem[0],zero
	callq	__ZN14altered_carbon2js9JsVariantaSEd
	leaq	40728(%rsp), %rdi
	movsd	LCPI0_188(%rip), %xmm0  ## xmm0 = mem[0],zero
	callq	__ZN14altered_carbon2js9JsVariantaSEd
	leaq	40672(%rsp), %rdi
	movsd	LCPI0_189(%rip), %xmm0  ## xmm0 = mem[0],zero
	callq	__ZN14altered_carbon2js9JsVariantaSEd
	leaq	40616(%rsp), %rdi
	movsd	LCPI0_190(%rip), %xmm0  ## xmm0 = mem[0],zero
	callq	__ZN14altered_carbon2js9JsVariantaSEd
	leaq	40560(%rsp), %rdi
	movsd	LCPI0_191(%rip), %xmm0  ## xmm0 = mem[0],zero
	callq	__ZN14altered_carbon2js9JsVariantaSEd
	leaq	40504(%rsp), %rdi
	movsd	LCPI0_192(%rip), %xmm0  ## xmm0 = mem[0],zero
	callq	__ZN14altered_carbon2js9JsVariantaSEd
	leaq	40448(%rsp), %rdi
	movsd	LCPI0_193(%rip), %xmm0  ## xmm0 = mem[0],zero
	callq	__ZN14altered_carbon2js9JsVariantaSEd
	leaq	40392(%rsp), %rdi
	movsd	LCPI0_194(%rip), %xmm0  ## xmm0 = mem[0],zero
	callq	__ZN14altered_carbon2js9JsVariantaSEd
	leaq	40336(%rsp), %rdi
	movsd	LCPI0_195(%rip), %xmm0  ## xmm0 = mem[0],zero
	callq	__ZN14altered_carbon2js9JsVariantaSEd
	leaq	40280(%rsp), %rdi
	movsd	LCPI0_196(%rip), %xmm0  ## xmm0 = mem[0],zero
	callq	__ZN14altered_carbon2js9JsVariantaSEd
	leaq	40224(%rsp), %rdi
	movsd	LCPI0_197(%rip), %xmm0  ## xmm0 = mem[0],zero
	callq	__ZN14altered_carbon2js9JsVariantaSEd
	leaq	40168(%rsp), %rdi
	movsd	LCPI0_198(%rip), %xmm0  ## xmm0 = mem[0],zero
	callq	__ZN14altered_carbon2js9JsVariantaSEd
	leaq	40112(%rsp), %rdi
	movsd	LCPI0_199(%rip), %xmm0  ## xmm0 = mem[0],zero
	callq	__ZN14altered_carbon2js9JsVariantaSEd
	leaq	81216(%rsp), %rbx
	movsd	LCPI0_200(%rip), %xmm0  ## xmm0 = mem[0],zero
	movq	%rbx, %rdi
	callq	__ZN14altered_carbon2js9JsVariantaSEd
	leaq	40056(%rsp), %rdi
	movq	%rbx, %rsi
	callq	__ZN14altered_carbon2js9JsVariantngEv
	leaq	81160(%rsp), %rbx
	movsd	LCPI0_201(%rip), %xmm0  ## xmm0 = mem[0],zero
	movq	%rbx, %rdi
	callq	__ZN14altered_carbon2js9JsVariantaSEd
	leaq	40000(%rsp), %rdi
	movq	%rbx, %rsi
	callq	__ZN14altered_carbon2js9JsVariantngEv
	leaq	81104(%rsp), %rbx
	movsd	LCPI0_202(%rip), %xmm0  ## xmm0 = mem[0],zero
	movq	%rbx, %rdi
	callq	__ZN14altered_carbon2js9JsVariantaSEd
	leaq	39944(%rsp), %rdi
	movq	%rbx, %rsi
	callq	__ZN14altered_carbon2js9JsVariantngEv
	leaq	81048(%rsp), %rbx
	movsd	LCPI0_203(%rip), %xmm0  ## xmm0 = mem[0],zero
	movq	%rbx, %rdi
	callq	__ZN14altered_carbon2js9JsVariantaSEd
	leaq	39888(%rsp), %rdi
	movq	%rbx, %rsi
	callq	__ZN14altered_carbon2js9JsVariantngEv
	leaq	80992(%rsp), %rbx
	movsd	LCPI0_204(%rip), %xmm0  ## xmm0 = mem[0],zero
	movq	%rbx, %rdi
	callq	__ZN14altered_carbon2js9JsVariantaSEd
	leaq	39832(%rsp), %rdi
	movq	%rbx, %rsi
	callq	__ZN14altered_carbon2js9JsVariantngEv
	leaq	80936(%rsp), %rbx
	movsd	LCPI0_205(%rip), %xmm0  ## xmm0 = mem[0],zero
	movq	%rbx, %rdi
	callq	__ZN14altered_carbon2js9JsVariantaSEd
	leaq	39776(%rsp), %rdi
	movq	%rbx, %rsi
	callq	__ZN14altered_carbon2js9JsVariantngEv
	leaq	80880(%rsp), %rbx
	movsd	LCPI0_206(%rip), %xmm0  ## xmm0 = mem[0],zero
	movq	%rbx, %rdi
	callq	__ZN14altered_carbon2js9JsVariantaSEd
	leaq	39720(%rsp), %rdi
	movq	%rbx, %rsi
	callq	__ZN14altered_carbon2js9JsVariantngEv
	leaq	80824(%rsp), %rbx
	movsd	LCPI0_207(%rip), %xmm0  ## xmm0 = mem[0],zero
	movq	%rbx, %rdi
	callq	__ZN14altered_carbon2js9JsVariantaSEd
	leaq	39664(%rsp), %rdi
	movq	%rbx, %rsi
	callq	__ZN14altered_carbon2js9JsVariantngEv
	leaq	80768(%rsp), %rbx
	movsd	LCPI0_208(%rip), %xmm0  ## xmm0 = mem[0],zero
	movq	%rbx, %rdi
	callq	__ZN14altered_carbon2js9JsVariantaSEd
	leaq	39608(%rsp), %rdi
	movq	%rbx, %rsi
	callq	__ZN14altered_carbon2js9JsVariantngEv
	leaq	80712(%rsp), %rbx
	movsd	LCPI0_209(%rip), %xmm0  ## xmm0 = mem[0],zero
	movq	%rbx, %rdi
	callq	__ZN14altered_carbon2js9JsVariantaSEd
	leaq	39552(%rsp), %rdi
	movq	%rbx, %rsi
	callq	__ZN14altered_carbon2js9JsVariantngEv
	leaq	80656(%rsp), %rbx
	movsd	LCPI0_210(%rip), %xmm0  ## xmm0 = mem[0],zero
	movq	%rbx, %rdi
	callq	__ZN14altered_carbon2js9JsVariantaSEd
	leaq	39496(%rsp), %rdi
	movq	%rbx, %rsi
	callq	__ZN14altered_carbon2js9JsVariantngEv
	leaq	39440(%rsp), %rdi
	movsd	LCPI0_211(%rip), %xmm0  ## xmm0 = mem[0],zero
	callq	__ZN14altered_carbon2js9JsVariantaSEd
	leaq	39384(%rsp), %rdi
	movsd	LCPI0_212(%rip), %xmm0  ## xmm0 = mem[0],zero
	callq	__ZN14altered_carbon2js9JsVariantaSEd
	leaq	80600(%rsp), %rbx
	movsd	LCPI0_213(%rip), %xmm0  ## xmm0 = mem[0],zero
	movq	%rbx, %rdi
	callq	__ZN14altered_carbon2js9JsVariantaSEd
	leaq	39328(%rsp), %rdi
	movq	%rbx, %rsi
	callq	__ZN14altered_carbon2js9JsVariantngEv
	leaq	80544(%rsp), %rbx
	movsd	LCPI0_214(%rip), %xmm0  ## xmm0 = mem[0],zero
	movq	%rbx, %rdi
	callq	__ZN14altered_carbon2js9JsVariantaSEd
	leaq	39272(%rsp), %rdi
	movq	%rbx, %rsi
	callq	__ZN14altered_carbon2js9JsVariantngEv
	leaq	80488(%rsp), %rbx
	movsd	LCPI0_215(%rip), %xmm0  ## xmm0 = mem[0],zero
	movq	%rbx, %rdi
	callq	__ZN14altered_carbon2js9JsVariantaSEd
	leaq	39216(%rsp), %rdi
	movq	%rbx, %rsi
	callq	__ZN14altered_carbon2js9JsVariantngEv
	leaq	80432(%rsp), %rbx
	movsd	LCPI0_216(%rip), %xmm0  ## xmm0 = mem[0],zero
	movq	%rbx, %rdi
	callq	__ZN14altered_carbon2js9JsVariantaSEd
	leaq	39160(%rsp), %rdi
	movq	%rbx, %rsi
	callq	__ZN14altered_carbon2js9JsVariantngEv
	leaq	80376(%rsp), %rbx
	movsd	LCPI0_217(%rip), %xmm0  ## xmm0 = mem[0],zero
	movq	%rbx, %rdi
	callq	__ZN14altered_carbon2js9JsVariantaSEd
	leaq	39104(%rsp), %rdi
	movq	%rbx, %rsi
	callq	__ZN14altered_carbon2js9JsVariantngEv
	leaq	80320(%rsp), %rbx
	movsd	LCPI0_218(%rip), %xmm0  ## xmm0 = mem[0],zero
	movq	%rbx, %rdi
	callq	__ZN14altered_carbon2js9JsVariantaSEd
	leaq	39048(%rsp), %rdi
	movq	%rbx, %rsi
	callq	__ZN14altered_carbon2js9JsVariantngEv
	leaq	80264(%rsp), %rbx
	movsd	LCPI0_219(%rip), %xmm0  ## xmm0 = mem[0],zero
	movq	%rbx, %rdi
	callq	__ZN14altered_carbon2js9JsVariantaSEd
	leaq	38992(%rsp), %rdi
	movq	%rbx, %rsi
	callq	__ZN14altered_carbon2js9JsVariantngEv
	leaq	80208(%rsp), %rbx
	movsd	LCPI0_220(%rip), %xmm0  ## xmm0 = mem[0],zero
	movq	%rbx, %rdi
	callq	__ZN14altered_carbon2js9JsVariantaSEd
	leaq	38936(%rsp), %rdi
	movq	%rbx, %rsi
	callq	__ZN14altered_carbon2js9JsVariantngEv
	leaq	80152(%rsp), %rbx
	movsd	LCPI0_221(%rip), %xmm0  ## xmm0 = mem[0],zero
	movq	%rbx, %rdi
	callq	__ZN14altered_carbon2js9JsVariantaSEd
	leaq	38880(%rsp), %rdi
	movq	%rbx, %rsi
	callq	__ZN14altered_carbon2js9JsVariantngEv
	leaq	80096(%rsp), %rbx
	movsd	LCPI0_222(%rip), %xmm0  ## xmm0 = mem[0],zero
	movq	%rbx, %rdi
	callq	__ZN14altered_carbon2js9JsVariantaSEd
	leaq	38824(%rsp), %rdi
	movq	%rbx, %rsi
	callq	__ZN14altered_carbon2js9JsVariantngEv
	leaq	80040(%rsp), %rbx
	movsd	LCPI0_223(%rip), %xmm0  ## xmm0 = mem[0],zero
	movq	%rbx, %rdi
	callq	__ZN14altered_carbon2js9JsVariantaSEd
	leaq	38768(%rsp), %rdi
	movq	%rbx, %rsi
	callq	__ZN14altered_carbon2js9JsVariantngEv
	leaq	79984(%rsp), %rbx
	movsd	LCPI0_224(%rip), %xmm0  ## xmm0 = mem[0],zero
	movq	%rbx, %rdi
	callq	__ZN14altered_carbon2js9JsVariantaSEd
	leaq	38712(%rsp), %rdi
	movq	%rbx, %rsi
	callq	__ZN14altered_carbon2js9JsVariantngEv
	leaq	79928(%rsp), %rbx
	movsd	LCPI0_225(%rip), %xmm0  ## xmm0 = mem[0],zero
	movq	%rbx, %rdi
	callq	__ZN14altered_carbon2js9JsVariantaSEd
	leaq	38656(%rsp), %rdi
	movq	%rbx, %rsi
	callq	__ZN14altered_carbon2js9JsVariantngEv
	leaq	79872(%rsp), %rbx
	movsd	LCPI0_226(%rip), %xmm0  ## xmm0 = mem[0],zero
	movq	%rbx, %rdi
	callq	__ZN14altered_carbon2js9JsVariantaSEd
	leaq	38600(%rsp), %rdi
	movq	%rbx, %rsi
	callq	__ZN14altered_carbon2js9JsVariantngEv
	leaq	79816(%rsp), %rbx
	movsd	LCPI0_227(%rip), %xmm0  ## xmm0 = mem[0],zero
	movq	%rbx, %rdi
	callq	__ZN14altered_carbon2js9JsVariantaSEd
	leaq	38544(%rsp), %rdi
	movq	%rbx, %rsi
	callq	__ZN14altered_carbon2js9JsVariantngEv
	leaq	79760(%rsp), %rbx
	movsd	LCPI0_228(%rip), %xmm0  ## xmm0 = mem[0],zero
	movq	%rbx, %rdi
	callq	__ZN14altered_carbon2js9JsVariantaSEd
	leaq	38488(%rsp), %rdi
	movq	%rbx, %rsi
	callq	__ZN14altered_carbon2js9JsVariantngEv
	leaq	38432(%rsp), %rdi
	movsd	LCPI0_229(%rip), %xmm0  ## xmm0 = mem[0],zero
	callq	__ZN14altered_carbon2js9JsVariantaSEd
	leaq	79704(%rsp), %rbx
	movsd	LCPI0_230(%rip), %xmm0  ## xmm0 = mem[0],zero
	movq	%rbx, %rdi
	callq	__ZN14altered_carbon2js9JsVariantaSEd
	leaq	38376(%rsp), %rdi
	movq	%rbx, %rsi
	callq	__ZN14altered_carbon2js9JsVariantngEv
	leaq	79648(%rsp), %rbx
	movsd	LCPI0_231(%rip), %xmm0  ## xmm0 = mem[0],zero
	movq	%rbx, %rdi
	callq	__ZN14altered_carbon2js9JsVariantaSEd
	leaq	38320(%rsp), %rdi
	movq	%rbx, %rsi
	callq	__ZN14altered_carbon2js9JsVariantngEv
	leaq	79592(%rsp), %rbx
	movsd	LCPI0_232(%rip), %xmm0  ## xmm0 = mem[0],zero
	movq	%rbx, %rdi
	callq	__ZN14altered_carbon2js9JsVariantaSEd
	leaq	38264(%rsp), %rdi
	movq	%rbx, %rsi
	callq	__ZN14altered_carbon2js9JsVariantngEv
	leaq	79536(%rsp), %rbx
	movsd	LCPI0_233(%rip), %xmm0  ## xmm0 = mem[0],zero
	movq	%rbx, %rdi
	callq	__ZN14altered_carbon2js9JsVariantaSEd
	leaq	38208(%rsp), %rdi
	movq	%rbx, %rsi
	callq	__ZN14altered_carbon2js9JsVariantngEv
	leaq	79480(%rsp), %rbx
	movsd	LCPI0_234(%rip), %xmm0  ## xmm0 = mem[0],zero
	movq	%rbx, %rdi
	callq	__ZN14altered_carbon2js9JsVariantaSEd
	leaq	38152(%rsp), %rdi
	movq	%rbx, %rsi
	callq	__ZN14altered_carbon2js9JsVariantngEv
	leaq	79424(%rsp), %rbx
	movsd	LCPI0_235(%rip), %xmm0  ## xmm0 = mem[0],zero
	movq	%rbx, %rdi
	callq	__ZN14altered_carbon2js9JsVariantaSEd
	leaq	38096(%rsp), %rdi
	movq	%rbx, %rsi
	callq	__ZN14altered_carbon2js9JsVariantngEv
	leaq	79368(%rsp), %rbx
	movsd	LCPI0_236(%rip), %xmm0  ## xmm0 = mem[0],zero
	movq	%rbx, %rdi
	callq	__ZN14altered_carbon2js9JsVariantaSEd
	leaq	38040(%rsp), %rdi
	movq	%rbx, %rsi
	callq	__ZN14altered_carbon2js9JsVariantngEv
	leaq	79312(%rsp), %rbx
	movsd	LCPI0_237(%rip), %xmm0  ## xmm0 = mem[0],zero
	movq	%rbx, %rdi
	callq	__ZN14altered_carbon2js9JsVariantaSEd
	leaq	37984(%rsp), %rdi
	movq	%rbx, %rsi
	callq	__ZN14altered_carbon2js9JsVariantngEv
	leaq	79256(%rsp), %rbx
	movsd	LCPI0_238(%rip), %xmm0  ## xmm0 = mem[0],zero
	movq	%rbx, %rdi
	callq	__ZN14altered_carbon2js9JsVariantaSEd
	leaq	37928(%rsp), %rdi
	movq	%rbx, %rsi
	callq	__ZN14altered_carbon2js9JsVariantngEv
	leaq	79200(%rsp), %rbx
	movsd	LCPI0_239(%rip), %xmm0  ## xmm0 = mem[0],zero
	movq	%rbx, %rdi
	callq	__ZN14altered_carbon2js9JsVariantaSEd
	leaq	37872(%rsp), %rdi
	movq	%rbx, %rsi
	callq	__ZN14altered_carbon2js9JsVariantngEv
	leaq	79144(%rsp), %rbx
	movsd	LCPI0_240(%rip), %xmm0  ## xmm0 = mem[0],zero
	movq	%rbx, %rdi
	callq	__ZN14altered_carbon2js9JsVariantaSEd
	leaq	37816(%rsp), %rdi
	movq	%rbx, %rsi
	callq	__ZN14altered_carbon2js9JsVariantngEv
	leaq	79088(%rsp), %rbx
	movsd	LCPI0_241(%rip), %xmm0  ## xmm0 = mem[0],zero
	movq	%rbx, %rdi
	callq	__ZN14altered_carbon2js9JsVariantaSEd
	leaq	37760(%rsp), %rdi
	movq	%rbx, %rsi
	callq	__ZN14altered_carbon2js9JsVariantngEv
	leaq	79032(%rsp), %rbx
	movsd	LCPI0_242(%rip), %xmm0  ## xmm0 = mem[0],zero
	movq	%rbx, %rdi
	callq	__ZN14altered_carbon2js9JsVariantaSEd
	leaq	37704(%rsp), %rdi
	movq	%rbx, %rsi
	callq	__ZN14altered_carbon2js9JsVariantngEv
	leaq	78976(%rsp), %rbx
	movsd	LCPI0_243(%rip), %xmm0  ## xmm0 = mem[0],zero
	movq	%rbx, %rdi
	callq	__ZN14altered_carbon2js9JsVariantaSEd
	leaq	37648(%rsp), %rdi
	movq	%rbx, %rsi
	callq	__ZN14altered_carbon2js9JsVariantngEv
	leaq	78920(%rsp), %rbx
	movsd	LCPI0_244(%rip), %xmm0  ## xmm0 = mem[0],zero
	movq	%rbx, %rdi
	callq	__ZN14altered_carbon2js9JsVariantaSEd
	leaq	37592(%rsp), %rdi
	movq	%rbx, %rsi
	callq	__ZN14altered_carbon2js9JsVariantngEv
	leaq	78864(%rsp), %rbx
	movsd	LCPI0_245(%rip), %xmm0  ## xmm0 = mem[0],zero
	movq	%rbx, %rdi
	callq	__ZN14altered_carbon2js9JsVariantaSEd
	leaq	37536(%rsp), %rdi
	movq	%rbx, %rsi
	callq	__ZN14altered_carbon2js9JsVariantngEv
	leaq	37480(%rsp), %rdi
	movsd	LCPI0_246(%rip), %xmm0  ## xmm0 = mem[0],zero
	callq	__ZN14altered_carbon2js9JsVariantaSEd
	leaq	78808(%rsp), %rbx
	movsd	LCPI0_247(%rip), %xmm0  ## xmm0 = mem[0],zero
	movq	%rbx, %rdi
	callq	__ZN14altered_carbon2js9JsVariantaSEd
	leaq	37424(%rsp), %rdi
	movq	%rbx, %rsi
	callq	__ZN14altered_carbon2js9JsVariantngEv
	leaq	78752(%rsp), %rbx
	movsd	LCPI0_248(%rip), %xmm0  ## xmm0 = mem[0],zero
	movq	%rbx, %rdi
	callq	__ZN14altered_carbon2js9JsVariantaSEd
	leaq	37368(%rsp), %rdi
	movq	%rbx, %rsi
	callq	__ZN14altered_carbon2js9JsVariantngEv
	leaq	78696(%rsp), %rbx
	movsd	LCPI0_249(%rip), %xmm0  ## xmm0 = mem[0],zero
	movq	%rbx, %rdi
	callq	__ZN14altered_carbon2js9JsVariantaSEd
	leaq	37312(%rsp), %rdi
	movq	%rbx, %rsi
	callq	__ZN14altered_carbon2js9JsVariantngEv
	leaq	78640(%rsp), %rbx
	movsd	LCPI0_250(%rip), %xmm0  ## xmm0 = mem[0],zero
	movq	%rbx, %rdi
	callq	__ZN14altered_carbon2js9JsVariantaSEd
	leaq	37256(%rsp), %rdi
	movq	%rbx, %rsi
	callq	__ZN14altered_carbon2js9JsVariantngEv
	leaq	78584(%rsp), %rbx
	movsd	LCPI0_251(%rip), %xmm0  ## xmm0 = mem[0],zero
	movq	%rbx, %rdi
	callq	__ZN14altered_carbon2js9JsVariantaSEd
	leaq	37200(%rsp), %rdi
	movq	%rbx, %rsi
	callq	__ZN14altered_carbon2js9JsVariantngEv
	leaq	78528(%rsp), %rbx
	movsd	LCPI0_252(%rip), %xmm0  ## xmm0 = mem[0],zero
	movq	%rbx, %rdi
	callq	__ZN14altered_carbon2js9JsVariantaSEd
	leaq	37144(%rsp), %rdi
	movq	%rbx, %rsi
	callq	__ZN14altered_carbon2js9JsVariantngEv
	leaq	78472(%rsp), %rbx
	movsd	LCPI0_253(%rip), %xmm0  ## xmm0 = mem[0],zero
	movq	%rbx, %rdi
	callq	__ZN14altered_carbon2js9JsVariantaSEd
	leaq	37088(%rsp), %rdi
	movq	%rbx, %rsi
	callq	__ZN14altered_carbon2js9JsVariantngEv
	leaq	78416(%rsp), %rbx
	movsd	LCPI0_254(%rip), %xmm0  ## xmm0 = mem[0],zero
	movq	%rbx, %rdi
	callq	__ZN14altered_carbon2js9JsVariantaSEd
	leaq	37032(%rsp), %rdi
	movq	%rbx, %rsi
	callq	__ZN14altered_carbon2js9JsVariantngEv
	leaq	36976(%rsp), %rdi
	movsd	LCPI0_255(%rip), %xmm0  ## xmm0 = mem[0],zero
	callq	__ZN14altered_carbon2js9JsVariantaSEd
	leaq	78360(%rsp), %rbx
	movsd	LCPI0_256(%rip), %xmm0  ## xmm0 = mem[0],zero
	movq	%rbx, %rdi
	callq	__ZN14altered_carbon2js9JsVariantaSEd
	leaq	36920(%rsp), %rdi
	movq	%rbx, %rsi
	callq	__ZN14altered_carbon2js9JsVariantngEv
	leaq	78304(%rsp), %rbx
	movsd	LCPI0_257(%rip), %xmm0  ## xmm0 = mem[0],zero
	movq	%rbx, %rdi
	callq	__ZN14altered_carbon2js9JsVariantaSEd
	leaq	36864(%rsp), %rdi
	movq	%rbx, %rsi
	callq	__ZN14altered_carbon2js9JsVariantngEv
	leaq	78248(%rsp), %rbx
	movsd	LCPI0_258(%rip), %xmm0  ## xmm0 = mem[0],zero
	movq	%rbx, %rdi
	callq	__ZN14altered_carbon2js9JsVariantaSEd
	leaq	36808(%rsp), %rdi
	movq	%rbx, %rsi
	callq	__ZN14altered_carbon2js9JsVariantngEv
	leaq	78192(%rsp), %rbx
	movsd	LCPI0_259(%rip), %xmm0  ## xmm0 = mem[0],zero
	movq	%rbx, %rdi
	callq	__ZN14altered_carbon2js9JsVariantaSEd
	leaq	36752(%rsp), %rdi
	movq	%rbx, %rsi
	callq	__ZN14altered_carbon2js9JsVariantngEv
	leaq	78136(%rsp), %rbx
	movsd	LCPI0_260(%rip), %xmm0  ## xmm0 = mem[0],zero
	movq	%rbx, %rdi
	callq	__ZN14altered_carbon2js9JsVariantaSEd
	leaq	36696(%rsp), %rdi
	movq	%rbx, %rsi
	callq	__ZN14altered_carbon2js9JsVariantngEv
	leaq	78080(%rsp), %rbx
	movsd	LCPI0_261(%rip), %xmm0  ## xmm0 = mem[0],zero
	movq	%rbx, %rdi
	callq	__ZN14altered_carbon2js9JsVariantaSEd
	leaq	36640(%rsp), %rdi
	movq	%rbx, %rsi
	callq	__ZN14altered_carbon2js9JsVariantngEv
	leaq	78024(%rsp), %rbx
	movsd	LCPI0_262(%rip), %xmm0  ## xmm0 = mem[0],zero
	movq	%rbx, %rdi
	callq	__ZN14altered_carbon2js9JsVariantaSEd
	leaq	36584(%rsp), %rdi
	movq	%rbx, %rsi
	callq	__ZN14altered_carbon2js9JsVariantngEv
	leaq	77968(%rsp), %rbx
	movsd	LCPI0_263(%rip), %xmm0  ## xmm0 = mem[0],zero
	movq	%rbx, %rdi
	callq	__ZN14altered_carbon2js9JsVariantaSEd
	leaq	36528(%rsp), %rdi
	movq	%rbx, %rsi
	callq	__ZN14altered_carbon2js9JsVariantngEv
	leaq	77912(%rsp), %rbx
	movsd	LCPI0_264(%rip), %xmm0  ## xmm0 = mem[0],zero
	movq	%rbx, %rdi
	callq	__ZN14altered_carbon2js9JsVariantaSEd
	leaq	36472(%rsp), %rdi
	movq	%rbx, %rsi
	callq	__ZN14altered_carbon2js9JsVariantngEv
	leaq	77856(%rsp), %rbx
	movsd	LCPI0_265(%rip), %xmm0  ## xmm0 = mem[0],zero
	movq	%rbx, %rdi
	callq	__ZN14altered_carbon2js9JsVariantaSEd
	leaq	36416(%rsp), %rdi
	movq	%rbx, %rsi
	callq	__ZN14altered_carbon2js9JsVariantngEv
	leaq	36360(%rsp), %rdi
	movsd	LCPI0_266(%rip), %xmm0  ## xmm0 = mem[0],zero
	callq	__ZN14altered_carbon2js9JsVariantaSEd
	leaq	77800(%rsp), %rbx
	movsd	LCPI0_267(%rip), %xmm0  ## xmm0 = mem[0],zero
	movq	%rbx, %rdi
	callq	__ZN14altered_carbon2js9JsVariantaSEd
	leaq	36304(%rsp), %rdi
	movq	%rbx, %rsi
	callq	__ZN14altered_carbon2js9JsVariantngEv
	leaq	77744(%rsp), %rbx
	movsd	LCPI0_268(%rip), %xmm0  ## xmm0 = mem[0],zero
	movq	%rbx, %rdi
	callq	__ZN14altered_carbon2js9JsVariantaSEd
	leaq	36248(%rsp), %rdi
	movq	%rbx, %rsi
	callq	__ZN14altered_carbon2js9JsVariantngEv
	leaq	77688(%rsp), %rbx
	movsd	LCPI0_269(%rip), %xmm0  ## xmm0 = mem[0],zero
	movq	%rbx, %rdi
	callq	__ZN14altered_carbon2js9JsVariantaSEd
	leaq	36192(%rsp), %rdi
	movq	%rbx, %rsi
	callq	__ZN14altered_carbon2js9JsVariantngEv
	leaq	77632(%rsp), %rbx
	movsd	LCPI0_270(%rip), %xmm0  ## xmm0 = mem[0],zero
	movq	%rbx, %rdi
	callq	__ZN14altered_carbon2js9JsVariantaSEd
	leaq	36136(%rsp), %rdi
	movq	%rbx, %rsi
	callq	__ZN14altered_carbon2js9JsVariantngEv
	leaq	77576(%rsp), %rbx
	movsd	LCPI0_271(%rip), %xmm0  ## xmm0 = mem[0],zero
	movq	%rbx, %rdi
	callq	__ZN14altered_carbon2js9JsVariantaSEd
	leaq	36080(%rsp), %rdi
	movq	%rbx, %rsi
	callq	__ZN14altered_carbon2js9JsVariantngEv
	leaq	77520(%rsp), %rbx
	movsd	LCPI0_272(%rip), %xmm0  ## xmm0 = mem[0],zero
	movq	%rbx, %rdi
	callq	__ZN14altered_carbon2js9JsVariantaSEd
	leaq	36024(%rsp), %rdi
	movq	%rbx, %rsi
	callq	__ZN14altered_carbon2js9JsVariantngEv
	leaq	77464(%rsp), %rbx
	movsd	LCPI0_273(%rip), %xmm0  ## xmm0 = mem[0],zero
	movq	%rbx, %rdi
	callq	__ZN14altered_carbon2js9JsVariantaSEd
	leaq	35968(%rsp), %rdi
	movq	%rbx, %rsi
	callq	__ZN14altered_carbon2js9JsVariantngEv
	leaq	77408(%rsp), %rbx
	movsd	LCPI0_274(%rip), %xmm0  ## xmm0 = mem[0],zero
	movq	%rbx, %rdi
	callq	__ZN14altered_carbon2js9JsVariantaSEd
	leaq	35912(%rsp), %rdi
	movq	%rbx, %rsi
	callq	__ZN14altered_carbon2js9JsVariantngEv
	leaq	77352(%rsp), %rbx
	movsd	LCPI0_275(%rip), %xmm0  ## xmm0 = mem[0],zero
	movq	%rbx, %rdi
	callq	__ZN14altered_carbon2js9JsVariantaSEd
	leaq	35856(%rsp), %rdi
	movq	%rbx, %rsi
	callq	__ZN14altered_carbon2js9JsVariantngEv
	leaq	77296(%rsp), %rbx
	movsd	LCPI0_276(%rip), %xmm0  ## xmm0 = mem[0],zero
	movq	%rbx, %rdi
	callq	__ZN14altered_carbon2js9JsVariantaSEd
	leaq	35800(%rsp), %rdi
	movq	%rbx, %rsi
	callq	__ZN14altered_carbon2js9JsVariantngEv
	leaq	77240(%rsp), %rbx
	movsd	LCPI0_277(%rip), %xmm0  ## xmm0 = mem[0],zero
	movq	%rbx, %rdi
	callq	__ZN14altered_carbon2js9JsVariantaSEd
	leaq	35744(%rsp), %rdi
	movq	%rbx, %rsi
	callq	__ZN14altered_carbon2js9JsVariantngEv
	leaq	35688(%rsp), %rdi
	movsd	LCPI0_278(%rip), %xmm0  ## xmm0 = mem[0],zero
	callq	__ZN14altered_carbon2js9JsVariantaSEd
	leaq	77184(%rsp), %rbx
	movsd	LCPI0_279(%rip), %xmm0  ## xmm0 = mem[0],zero
	movq	%rbx, %rdi
	callq	__ZN14altered_carbon2js9JsVariantaSEd
	leaq	35632(%rsp), %rdi
	movq	%rbx, %rsi
	callq	__ZN14altered_carbon2js9JsVariantngEv
	leaq	77128(%rsp), %rbx
	movsd	LCPI0_280(%rip), %xmm0  ## xmm0 = mem[0],zero
	movq	%rbx, %rdi
	callq	__ZN14altered_carbon2js9JsVariantaSEd
	leaq	35576(%rsp), %rdi
	movq	%rbx, %rsi
	callq	__ZN14altered_carbon2js9JsVariantngEv
	leaq	35520(%rsp), %rdi
	movsd	LCPI0_281(%rip), %xmm0  ## xmm0 = mem[0],zero
	callq	__ZN14altered_carbon2js9JsVariantaSEd
	leaq	77072(%rsp), %rbx
	movsd	LCPI0_282(%rip), %xmm0  ## xmm0 = mem[0],zero
	movq	%rbx, %rdi
	callq	__ZN14altered_carbon2js9JsVariantaSEd
	leaq	35464(%rsp), %rdi
	movq	%rbx, %rsi
	callq	__ZN14altered_carbon2js9JsVariantngEv
	leaq	77016(%rsp), %rbx
	movsd	LCPI0_283(%rip), %xmm0  ## xmm0 = mem[0],zero
	movq	%rbx, %rdi
	callq	__ZN14altered_carbon2js9JsVariantaSEd
	leaq	35408(%rsp), %rdi
	movq	%rbx, %rsi
	callq	__ZN14altered_carbon2js9JsVariantngEv
	leaq	76960(%rsp), %rbx
	movsd	LCPI0_284(%rip), %xmm0  ## xmm0 = mem[0],zero
	movq	%rbx, %rdi
	callq	__ZN14altered_carbon2js9JsVariantaSEd
	leaq	35352(%rsp), %rdi
	movq	%rbx, %rsi
	callq	__ZN14altered_carbon2js9JsVariantngEv
	leaq	76904(%rsp), %rbx
	movsd	LCPI0_285(%rip), %xmm0  ## xmm0 = mem[0],zero
	movq	%rbx, %rdi
	callq	__ZN14altered_carbon2js9JsVariantaSEd
	leaq	35296(%rsp), %rdi
	movq	%rbx, %rsi
	callq	__ZN14altered_carbon2js9JsVariantngEv
	leaq	76848(%rsp), %rbx
	movsd	LCPI0_286(%rip), %xmm0  ## xmm0 = mem[0],zero
	movq	%rbx, %rdi
	callq	__ZN14altered_carbon2js9JsVariantaSEd
	leaq	35240(%rsp), %rdi
	movq	%rbx, %rsi
	callq	__ZN14altered_carbon2js9JsVariantngEv
	leaq	76792(%rsp), %rbx
	movsd	LCPI0_287(%rip), %xmm0  ## xmm0 = mem[0],zero
	movq	%rbx, %rdi
	callq	__ZN14altered_carbon2js9JsVariantaSEd
	leaq	35184(%rsp), %rdi
	movq	%rbx, %rsi
	callq	__ZN14altered_carbon2js9JsVariantngEv
	leaq	76736(%rsp), %rbx
	movsd	LCPI0_288(%rip), %xmm0  ## xmm0 = mem[0],zero
	movq	%rbx, %rdi
	callq	__ZN14altered_carbon2js9JsVariantaSEd
	leaq	35128(%rsp), %rdi
	movq	%rbx, %rsi
	callq	__ZN14altered_carbon2js9JsVariantngEv
	leaq	76680(%rsp), %rbx
	movsd	LCPI0_289(%rip), %xmm0  ## xmm0 = mem[0],zero
	movq	%rbx, %rdi
	callq	__ZN14altered_carbon2js9JsVariantaSEd
	leaq	35072(%rsp), %rdi
	movq	%rbx, %rsi
	callq	__ZN14altered_carbon2js9JsVariantngEv
	leaq	76624(%rsp), %rbx
	movsd	LCPI0_290(%rip), %xmm0  ## xmm0 = mem[0],zero
	movq	%rbx, %rdi
	callq	__ZN14altered_carbon2js9JsVariantaSEd
	leaq	35016(%rsp), %rdi
	movq	%rbx, %rsi
	callq	__ZN14altered_carbon2js9JsVariantngEv
	leaq	76568(%rsp), %rbx
	movsd	LCPI0_291(%rip), %xmm0  ## xmm0 = mem[0],zero
	movq	%rbx, %rdi
	callq	__ZN14altered_carbon2js9JsVariantaSEd
	leaq	34960(%rsp), %rdi
	movq	%rbx, %rsi
	callq	__ZN14altered_carbon2js9JsVariantngEv
	leaq	34904(%rsp), %rdi
	movsd	LCPI0_292(%rip), %xmm0  ## xmm0 = mem[0],zero
	callq	__ZN14altered_carbon2js9JsVariantaSEd
	leaq	76512(%rsp), %rbx
	movsd	LCPI0_293(%rip), %xmm0  ## xmm0 = mem[0],zero
	movq	%rbx, %rdi
	callq	__ZN14altered_carbon2js9JsVariantaSEd
	leaq	34848(%rsp), %rdi
	movq	%rbx, %rsi
	callq	__ZN14altered_carbon2js9JsVariantngEv
	leaq	76456(%rsp), %rbx
	movsd	LCPI0_294(%rip), %xmm0  ## xmm0 = mem[0],zero
	movq	%rbx, %rdi
	callq	__ZN14altered_carbon2js9JsVariantaSEd
	leaq	34792(%rsp), %rdi
	movq	%rbx, %rsi
	callq	__ZN14altered_carbon2js9JsVariantngEv
	leaq	34736(%rsp), %rdi
	movsd	LCPI0_295(%rip), %xmm0  ## xmm0 = mem[0],zero
	callq	__ZN14altered_carbon2js9JsVariantaSEd
	leaq	76400(%rsp), %rbx
	movsd	LCPI0_296(%rip), %xmm0  ## xmm0 = mem[0],zero
	movq	%rbx, %rdi
	callq	__ZN14altered_carbon2js9JsVariantaSEd
	leaq	34680(%rsp), %rdi
	movq	%rbx, %rsi
	callq	__ZN14altered_carbon2js9JsVariantngEv
	leaq	76344(%rsp), %rbx
	movsd	LCPI0_297(%rip), %xmm0  ## xmm0 = mem[0],zero
	movq	%rbx, %rdi
	callq	__ZN14altered_carbon2js9JsVariantaSEd
	leaq	34624(%rsp), %rdi
	movq	%rbx, %rsi
	callq	__ZN14altered_carbon2js9JsVariantngEv
	leaq	76288(%rsp), %rbx
	movsd	LCPI0_298(%rip), %xmm0  ## xmm0 = mem[0],zero
	movq	%rbx, %rdi
	callq	__ZN14altered_carbon2js9JsVariantaSEd
	leaq	34568(%rsp), %rdi
	movq	%rbx, %rsi
	callq	__ZN14altered_carbon2js9JsVariantngEv
	leaq	76232(%rsp), %rbx
	movsd	LCPI0_299(%rip), %xmm0  ## xmm0 = mem[0],zero
	movq	%rbx, %rdi
	callq	__ZN14altered_carbon2js9JsVariantaSEd
	leaq	34512(%rsp), %rdi
	movq	%rbx, %rsi
	callq	__ZN14altered_carbon2js9JsVariantngEv
	leaq	76176(%rsp), %rbx
	movsd	LCPI0_300(%rip), %xmm0  ## xmm0 = mem[0],zero
	movq	%rbx, %rdi
	callq	__ZN14altered_carbon2js9JsVariantaSEd
	leaq	34456(%rsp), %rdi
	movq	%rbx, %rsi
	callq	__ZN14altered_carbon2js9JsVariantngEv
	leaq	76120(%rsp), %rbx
	movsd	LCPI0_301(%rip), %xmm0  ## xmm0 = mem[0],zero
	movq	%rbx, %rdi
	callq	__ZN14altered_carbon2js9JsVariantaSEd
	leaq	34400(%rsp), %rdi
	movq	%rbx, %rsi
	callq	__ZN14altered_carbon2js9JsVariantngEv
	leaq	76064(%rsp), %rbx
	movsd	LCPI0_302(%rip), %xmm0  ## xmm0 = mem[0],zero
	movq	%rbx, %rdi
	callq	__ZN14altered_carbon2js9JsVariantaSEd
	leaq	34344(%rsp), %rdi
	movq	%rbx, %rsi
	callq	__ZN14altered_carbon2js9JsVariantngEv
	leaq	76008(%rsp), %rbx
	movsd	LCPI0_303(%rip), %xmm0  ## xmm0 = mem[0],zero
	movq	%rbx, %rdi
	callq	__ZN14altered_carbon2js9JsVariantaSEd
	leaq	34288(%rsp), %rdi
	movq	%rbx, %rsi
	callq	__ZN14altered_carbon2js9JsVariantngEv
	leaq	75952(%rsp), %rbx
	movsd	LCPI0_304(%rip), %xmm0  ## xmm0 = mem[0],zero
	movq	%rbx, %rdi
	callq	__ZN14altered_carbon2js9JsVariantaSEd
	leaq	34232(%rsp), %rdi
	movq	%rbx, %rsi
	callq	__ZN14altered_carbon2js9JsVariantngEv
	leaq	75896(%rsp), %rbx
	movsd	LCPI0_305(%rip), %xmm0  ## xmm0 = mem[0],zero
	movq	%rbx, %rdi
	callq	__ZN14altered_carbon2js9JsVariantaSEd
	leaq	34176(%rsp), %rdi
	movq	%rbx, %rsi
	callq	__ZN14altered_carbon2js9JsVariantngEv
	leaq	75840(%rsp), %rbx
	movsd	LCPI0_306(%rip), %xmm0  ## xmm0 = mem[0],zero
	movq	%rbx, %rdi
	callq	__ZN14altered_carbon2js9JsVariantaSEd
	leaq	34120(%rsp), %rdi
	movq	%rbx, %rsi
	callq	__ZN14altered_carbon2js9JsVariantngEv
	leaq	75784(%rsp), %rbx
	movsd	LCPI0_307(%rip), %xmm0  ## xmm0 = mem[0],zero
	movq	%rbx, %rdi
	callq	__ZN14altered_carbon2js9JsVariantaSEd
	leaq	34064(%rsp), %rdi
	movq	%rbx, %rsi
	callq	__ZN14altered_carbon2js9JsVariantngEv
	leaq	75728(%rsp), %rbx
	movsd	LCPI0_308(%rip), %xmm0  ## xmm0 = mem[0],zero
	movq	%rbx, %rdi
	callq	__ZN14altered_carbon2js9JsVariantaSEd
	leaq	34008(%rsp), %rdi
	movq	%rbx, %rsi
	callq	__ZN14altered_carbon2js9JsVariantngEv
	leaq	75672(%rsp), %rbx
	movsd	LCPI0_309(%rip), %xmm0  ## xmm0 = mem[0],zero
	movq	%rbx, %rdi
	callq	__ZN14altered_carbon2js9JsVariantaSEd
	leaq	33952(%rsp), %rdi
	movq	%rbx, %rsi
	callq	__ZN14altered_carbon2js9JsVariantngEv
	leaq	75616(%rsp), %rbx
	movsd	LCPI0_310(%rip), %xmm0  ## xmm0 = mem[0],zero
	movq	%rbx, %rdi
	callq	__ZN14altered_carbon2js9JsVariantaSEd
	leaq	33896(%rsp), %rdi
	movq	%rbx, %rsi
	callq	__ZN14altered_carbon2js9JsVariantngEv
	leaq	75560(%rsp), %rbx
	movsd	LCPI0_311(%rip), %xmm0  ## xmm0 = mem[0],zero
	movq	%rbx, %rdi
	callq	__ZN14altered_carbon2js9JsVariantaSEd
	leaq	33840(%rsp), %rdi
	movq	%rbx, %rsi
	callq	__ZN14altered_carbon2js9JsVariantngEv
	leaq	33784(%rsp), %rdi
	movsd	LCPI0_312(%rip), %xmm0  ## xmm0 = mem[0],zero
	callq	__ZN14altered_carbon2js9JsVariantaSEd
	leaq	75504(%rsp), %rbx
	movsd	LCPI0_313(%rip), %xmm0  ## xmm0 = mem[0],zero
	movq	%rbx, %rdi
	callq	__ZN14altered_carbon2js9JsVariantaSEd
	leaq	33728(%rsp), %rdi
	movq	%rbx, %rsi
	callq	__ZN14altered_carbon2js9JsVariantngEv
	leaq	75448(%rsp), %rbx
	movsd	LCPI0_314(%rip), %xmm0  ## xmm0 = mem[0],zero
	movq	%rbx, %rdi
	callq	__ZN14altered_carbon2js9JsVariantaSEd
	leaq	33672(%rsp), %rdi
	movq	%rbx, %rsi
	callq	__ZN14altered_carbon2js9JsVariantngEv
	leaq	75392(%rsp), %rbx
	movsd	LCPI0_315(%rip), %xmm0  ## xmm0 = mem[0],zero
	movq	%rbx, %rdi
	callq	__ZN14altered_carbon2js9JsVariantaSEd
	leaq	33616(%rsp), %rdi
	movq	%rbx, %rsi
	callq	__ZN14altered_carbon2js9JsVariantngEv
	leaq	75336(%rsp), %rbx
	movsd	LCPI0_316(%rip), %xmm0  ## xmm0 = mem[0],zero
	movq	%rbx, %rdi
	callq	__ZN14altered_carbon2js9JsVariantaSEd
	leaq	33560(%rsp), %rdi
	movq	%rbx, %rsi
	callq	__ZN14altered_carbon2js9JsVariantngEv
	leaq	75280(%rsp), %rbx
	movsd	LCPI0_317(%rip), %xmm0  ## xmm0 = mem[0],zero
	movq	%rbx, %rdi
	callq	__ZN14altered_carbon2js9JsVariantaSEd
	leaq	33504(%rsp), %rdi
	movq	%rbx, %rsi
	callq	__ZN14altered_carbon2js9JsVariantngEv
	leaq	33448(%rsp), %rdi
	movsd	LCPI0_318(%rip), %xmm0  ## xmm0 = mem[0],zero
	callq	__ZN14altered_carbon2js9JsVariantaSEd
	leaq	33392(%rsp), %rdi
	movsd	LCPI0_319(%rip), %xmm0  ## xmm0 = mem[0],zero
	callq	__ZN14altered_carbon2js9JsVariantaSEd
	leaq	75224(%rsp), %rbx
	movsd	LCPI0_320(%rip), %xmm0  ## xmm0 = mem[0],zero
	movq	%rbx, %rdi
	callq	__ZN14altered_carbon2js9JsVariantaSEd
	leaq	33336(%rsp), %rdi
	movq	%rbx, %rsi
	callq	__ZN14altered_carbon2js9JsVariantngEv
	leaq	75168(%rsp), %rbx
	movsd	LCPI0_321(%rip), %xmm0  ## xmm0 = mem[0],zero
	movq	%rbx, %rdi
	callq	__ZN14altered_carbon2js9JsVariantaSEd
	leaq	33280(%rsp), %rdi
	movq	%rbx, %rsi
	callq	__ZN14altered_carbon2js9JsVariantngEv
	leaq	75112(%rsp), %rbx
	movsd	LCPI0_322(%rip), %xmm0  ## xmm0 = mem[0],zero
	movq	%rbx, %rdi
	callq	__ZN14altered_carbon2js9JsVariantaSEd
	leaq	33224(%rsp), %rdi
	movq	%rbx, %rsi
	callq	__ZN14altered_carbon2js9JsVariantngEv
	leaq	75056(%rsp), %rbx
	movsd	LCPI0_323(%rip), %xmm0  ## xmm0 = mem[0],zero
	movq	%rbx, %rdi
	callq	__ZN14altered_carbon2js9JsVariantaSEd
	leaq	33168(%rsp), %rdi
	movq	%rbx, %rsi
	callq	__ZN14altered_carbon2js9JsVariantngEv
	leaq	75000(%rsp), %rbx
	movsd	LCPI0_324(%rip), %xmm0  ## xmm0 = mem[0],zero
	movq	%rbx, %rdi
	callq	__ZN14altered_carbon2js9JsVariantaSEd
	leaq	33112(%rsp), %rdi
	movq	%rbx, %rsi
	callq	__ZN14altered_carbon2js9JsVariantngEv
	leaq	74944(%rsp), %rbx
	movsd	LCPI0_325(%rip), %xmm0  ## xmm0 = mem[0],zero
	movq	%rbx, %rdi
	callq	__ZN14altered_carbon2js9JsVariantaSEd
	leaq	33056(%rsp), %rdi
	movq	%rbx, %rsi
	callq	__ZN14altered_carbon2js9JsVariantngEv
	leaq	74888(%rsp), %rbx
	movsd	LCPI0_326(%rip), %xmm0  ## xmm0 = mem[0],zero
	movq	%rbx, %rdi
	callq	__ZN14altered_carbon2js9JsVariantaSEd
	leaq	33000(%rsp), %rdi
	movq	%rbx, %rsi
	callq	__ZN14altered_carbon2js9JsVariantngEv
	leaq	74832(%rsp), %rbx
	movsd	LCPI0_327(%rip), %xmm0  ## xmm0 = mem[0],zero
	movq	%rbx, %rdi
	callq	__ZN14altered_carbon2js9JsVariantaSEd
	leaq	32944(%rsp), %rdi
	movq	%rbx, %rsi
	callq	__ZN14altered_carbon2js9JsVariantngEv
	leaq	74776(%rsp), %rbx
	movsd	LCPI0_328(%rip), %xmm0  ## xmm0 = mem[0],zero
	movq	%rbx, %rdi
	callq	__ZN14altered_carbon2js9JsVariantaSEd
	leaq	32888(%rsp), %rdi
	movq	%rbx, %rsi
	callq	__ZN14altered_carbon2js9JsVariantngEv
	leaq	74720(%rsp), %rbx
	movsd	LCPI0_329(%rip), %xmm0  ## xmm0 = mem[0],zero
	movq	%rbx, %rdi
	callq	__ZN14altered_carbon2js9JsVariantaSEd
	leaq	32832(%rsp), %rdi
	movq	%rbx, %rsi
	callq	__ZN14altered_carbon2js9JsVariantngEv
	leaq	74664(%rsp), %rbx
	movsd	LCPI0_330(%rip), %xmm0  ## xmm0 = mem[0],zero
	movq	%rbx, %rdi
	callq	__ZN14altered_carbon2js9JsVariantaSEd
	leaq	32776(%rsp), %rdi
	movq	%rbx, %rsi
	callq	__ZN14altered_carbon2js9JsVariantngEv
	leaq	74608(%rsp), %rbx
	movsd	LCPI0_331(%rip), %xmm0  ## xmm0 = mem[0],zero
	movq	%rbx, %rdi
	callq	__ZN14altered_carbon2js9JsVariantaSEd
	leaq	32720(%rsp), %rdi
	movq	%rbx, %rsi
	callq	__ZN14altered_carbon2js9JsVariantngEv
	leaq	74552(%rsp), %rbx
	movsd	LCPI0_332(%rip), %xmm0  ## xmm0 = mem[0],zero
	movq	%rbx, %rdi
	callq	__ZN14altered_carbon2js9JsVariantaSEd
	leaq	32664(%rsp), %rdi
	movq	%rbx, %rsi
	callq	__ZN14altered_carbon2js9JsVariantngEv
	leaq	74496(%rsp), %rbx
	movsd	LCPI0_333(%rip), %xmm0  ## xmm0 = mem[0],zero
	movq	%rbx, %rdi
	callq	__ZN14altered_carbon2js9JsVariantaSEd
	leaq	32608(%rsp), %rdi
	movq	%rbx, %rsi
	callq	__ZN14altered_carbon2js9JsVariantngEv
	leaq	74440(%rsp), %rbx
	movsd	LCPI0_334(%rip), %xmm0  ## xmm0 = mem[0],zero
	movq	%rbx, %rdi
	callq	__ZN14altered_carbon2js9JsVariantaSEd
	leaq	32552(%rsp), %rdi
	movq	%rbx, %rsi
	callq	__ZN14altered_carbon2js9JsVariantngEv
	leaq	32496(%rsp), %rdi
	movsd	LCPI0_335(%rip), %xmm0  ## xmm0 = mem[0],zero
	callq	__ZN14altered_carbon2js9JsVariantaSEd
	leaq	74384(%rsp), %rbx
	movsd	LCPI0_336(%rip), %xmm0  ## xmm0 = mem[0],zero
	movq	%rbx, %rdi
	callq	__ZN14altered_carbon2js9JsVariantaSEd
	leaq	32440(%rsp), %rdi
	movq	%rbx, %rsi
	callq	__ZN14altered_carbon2js9JsVariantngEv
	leaq	74328(%rsp), %rbx
	movsd	LCPI0_337(%rip), %xmm0  ## xmm0 = mem[0],zero
	movq	%rbx, %rdi
	callq	__ZN14altered_carbon2js9JsVariantaSEd
	leaq	32384(%rsp), %rdi
	movq	%rbx, %rsi
	callq	__ZN14altered_carbon2js9JsVariantngEv
	leaq	32328(%rsp), %rdi
	movsd	LCPI0_338(%rip), %xmm0  ## xmm0 = mem[0],zero
	callq	__ZN14altered_carbon2js9JsVariantaSEd
	leaq	74272(%rsp), %rbx
	movsd	LCPI0_339(%rip), %xmm0  ## xmm0 = mem[0],zero
	movq	%rbx, %rdi
	callq	__ZN14altered_carbon2js9JsVariantaSEd
	leaq	32272(%rsp), %rdi
	movq	%rbx, %rsi
	callq	__ZN14altered_carbon2js9JsVariantngEv
	leaq	74216(%rsp), %rbx
	movsd	LCPI0_340(%rip), %xmm0  ## xmm0 = mem[0],zero
	movq	%rbx, %rdi
	callq	__ZN14altered_carbon2js9JsVariantaSEd
	leaq	32216(%rsp), %rdi
	movq	%rbx, %rsi
	callq	__ZN14altered_carbon2js9JsVariantngEv
	leaq	32160(%rsp), %rdi
	movsd	LCPI0_341(%rip), %xmm0  ## xmm0 = mem[0],zero
	callq	__ZN14altered_carbon2js9JsVariantaSEd
	leaq	74160(%rsp), %rbx
	movsd	LCPI0_342(%rip), %xmm0  ## xmm0 = mem[0],zero
	movq	%rbx, %rdi
	callq	__ZN14altered_carbon2js9JsVariantaSEd
	leaq	32104(%rsp), %rdi
	movq	%rbx, %rsi
	callq	__ZN14altered_carbon2js9JsVariantngEv
	leaq	74104(%rsp), %rbx
	movsd	LCPI0_343(%rip), %xmm0  ## xmm0 = mem[0],zero
	movq	%rbx, %rdi
	callq	__ZN14altered_carbon2js9JsVariantaSEd
	leaq	32048(%rsp), %rdi
	movq	%rbx, %rsi
	callq	__ZN14altered_carbon2js9JsVariantngEv
	leaq	31992(%rsp), %rdi
	movsd	LCPI0_344(%rip), %xmm0  ## xmm0 = mem[0],zero
	callq	__ZN14altered_carbon2js9JsVariantaSEd
	leaq	74048(%rsp), %rbx
	movsd	LCPI0_345(%rip), %xmm0  ## xmm0 = mem[0],zero
	movq	%rbx, %rdi
	callq	__ZN14altered_carbon2js9JsVariantaSEd
	leaq	31936(%rsp), %rdi
	movq	%rbx, %rsi
	callq	__ZN14altered_carbon2js9JsVariantngEv
	leaq	73992(%rsp), %rbx
	movsd	LCPI0_346(%rip), %xmm0  ## xmm0 = mem[0],zero
	movq	%rbx, %rdi
	callq	__ZN14altered_carbon2js9JsVariantaSEd
	leaq	31880(%rsp), %rdi
	movq	%rbx, %rsi
	callq	__ZN14altered_carbon2js9JsVariantngEv
	leaq	73936(%rsp), %rbx
	movsd	LCPI0_347(%rip), %xmm0  ## xmm0 = mem[0],zero
	movq	%rbx, %rdi
	callq	__ZN14altered_carbon2js9JsVariantaSEd
	leaq	31824(%rsp), %rdi
	movq	%rbx, %rsi
	callq	__ZN14altered_carbon2js9JsVariantngEv
	leaq	73880(%rsp), %rbx
	movsd	LCPI0_348(%rip), %xmm0  ## xmm0 = mem[0],zero
	movq	%rbx, %rdi
	callq	__ZN14altered_carbon2js9JsVariantaSEd
	leaq	31768(%rsp), %rdi
	movq	%rbx, %rsi
	callq	__ZN14altered_carbon2js9JsVariantngEv
	leaq	31712(%rsp), %rdi
	movsd	LCPI0_349(%rip), %xmm0  ## xmm0 = mem[0],zero
	callq	__ZN14altered_carbon2js9JsVariantaSEd
	leaq	73824(%rsp), %rbx
	movsd	LCPI0_350(%rip), %xmm0  ## xmm0 = mem[0],zero
	movq	%rbx, %rdi
	callq	__ZN14altered_carbon2js9JsVariantaSEd
	leaq	31656(%rsp), %rdi
	movq	%rbx, %rsi
	callq	__ZN14altered_carbon2js9JsVariantngEv
	leaq	31600(%rsp), %rdi
	movsd	LCPI0_351(%rip), %xmm0  ## xmm0 = mem[0],zero
	callq	__ZN14altered_carbon2js9JsVariantaSEd
	leaq	73768(%rsp), %rbx
	movsd	LCPI0_352(%rip), %xmm0  ## xmm0 = mem[0],zero
	movq	%rbx, %rdi
	callq	__ZN14altered_carbon2js9JsVariantaSEd
	leaq	31544(%rsp), %rdi
	movq	%rbx, %rsi
	callq	__ZN14altered_carbon2js9JsVariantngEv
	leaq	73712(%rsp), %rbx
	movsd	LCPI0_353(%rip), %xmm0  ## xmm0 = mem[0],zero
	movq	%rbx, %rdi
	callq	__ZN14altered_carbon2js9JsVariantaSEd
	leaq	31488(%rsp), %rdi
	movq	%rbx, %rsi
	callq	__ZN14altered_carbon2js9JsVariantngEv
	leaq	31432(%rsp), %rdi
	movsd	LCPI0_354(%rip), %xmm0  ## xmm0 = mem[0],zero
	callq	__ZN14altered_carbon2js9JsVariantaSEd
	leaq	73656(%rsp), %rbx
	movsd	LCPI0_355(%rip), %xmm0  ## xmm0 = mem[0],zero
	movq	%rbx, %rdi
	callq	__ZN14altered_carbon2js9JsVariantaSEd
	leaq	31376(%rsp), %rdi
	movq	%rbx, %rsi
	callq	__ZN14altered_carbon2js9JsVariantngEv
	leaq	73600(%rsp), %rbx
	movsd	LCPI0_356(%rip), %xmm0  ## xmm0 = mem[0],zero
	movq	%rbx, %rdi
	callq	__ZN14altered_carbon2js9JsVariantaSEd
	leaq	31320(%rsp), %rdi
	movq	%rbx, %rsi
	callq	__ZN14altered_carbon2js9JsVariantngEv
	leaq	73544(%rsp), %rbx
	movsd	LCPI0_357(%rip), %xmm0  ## xmm0 = mem[0],zero
	movq	%rbx, %rdi
	callq	__ZN14altered_carbon2js9JsVariantaSEd
	leaq	31264(%rsp), %rdi
	movq	%rbx, %rsi
	callq	__ZN14altered_carbon2js9JsVariantngEv
	leaq	73488(%rsp), %rbx
	movsd	LCPI0_358(%rip), %xmm0  ## xmm0 = mem[0],zero
	movq	%rbx, %rdi
	callq	__ZN14altered_carbon2js9JsVariantaSEd
	leaq	31208(%rsp), %rdi
	movq	%rbx, %rsi
	callq	__ZN14altered_carbon2js9JsVariantngEv
	leaq	73432(%rsp), %rbx
	movsd	LCPI0_359(%rip), %xmm0  ## xmm0 = mem[0],zero
	movq	%rbx, %rdi
	callq	__ZN14altered_carbon2js9JsVariantaSEd
	leaq	31152(%rsp), %rdi
	movq	%rbx, %rsi
	callq	__ZN14altered_carbon2js9JsVariantngEv
	leaq	73376(%rsp), %rbx
	movsd	LCPI0_360(%rip), %xmm0  ## xmm0 = mem[0],zero
	movq	%rbx, %rdi
	callq	__ZN14altered_carbon2js9JsVariantaSEd
	leaq	31096(%rsp), %rdi
	movq	%rbx, %rsi
	callq	__ZN14altered_carbon2js9JsVariantngEv
	leaq	73320(%rsp), %rbx
	movsd	LCPI0_361(%rip), %xmm0  ## xmm0 = mem[0],zero
	movq	%rbx, %rdi
	callq	__ZN14altered_carbon2js9JsVariantaSEd
	leaq	31040(%rsp), %rdi
	movq	%rbx, %rsi
	callq	__ZN14altered_carbon2js9JsVariantngEv
	leaq	73264(%rsp), %rbx
	movsd	LCPI0_362(%rip), %xmm0  ## xmm0 = mem[0],zero
	movq	%rbx, %rdi
	callq	__ZN14altered_carbon2js9JsVariantaSEd
	leaq	30984(%rsp), %rdi
	movq	%rbx, %rsi
	callq	__ZN14altered_carbon2js9JsVariantngEv
	leaq	73208(%rsp), %rbx
	movsd	LCPI0_363(%rip), %xmm0  ## xmm0 = mem[0],zero
	movq	%rbx, %rdi
	callq	__ZN14altered_carbon2js9JsVariantaSEd
	leaq	30928(%rsp), %rdi
	movq	%rbx, %rsi
	callq	__ZN14altered_carbon2js9JsVariantngEv
	leaq	73152(%rsp), %rbx
	movsd	LCPI0_364(%rip), %xmm0  ## xmm0 = mem[0],zero
	movq	%rbx, %rdi
	callq	__ZN14altered_carbon2js9JsVariantaSEd
	leaq	30872(%rsp), %rdi
	movq	%rbx, %rsi
	callq	__ZN14altered_carbon2js9JsVariantngEv
	leaq	73096(%rsp), %rbx
	movsd	LCPI0_365(%rip), %xmm0  ## xmm0 = mem[0],zero
	movq	%rbx, %rdi
	callq	__ZN14altered_carbon2js9JsVariantaSEd
	leaq	30816(%rsp), %rdi
	movq	%rbx, %rsi
	callq	__ZN14altered_carbon2js9JsVariantngEv
	leaq	73040(%rsp), %rbx
	movsd	LCPI0_366(%rip), %xmm0  ## xmm0 = mem[0],zero
	movq	%rbx, %rdi
	callq	__ZN14altered_carbon2js9JsVariantaSEd
	leaq	30760(%rsp), %rdi
	movq	%rbx, %rsi
	callq	__ZN14altered_carbon2js9JsVariantngEv
	leaq	30704(%rsp), %rdi
	movsd	LCPI0_367(%rip), %xmm0  ## xmm0 = mem[0],zero
	callq	__ZN14altered_carbon2js9JsVariantaSEd
	leaq	72984(%rsp), %rbx
	movsd	LCPI0_368(%rip), %xmm0  ## xmm0 = mem[0],zero
	movq	%rbx, %rdi
	callq	__ZN14altered_carbon2js9JsVariantaSEd
	leaq	30648(%rsp), %rdi
	movq	%rbx, %rsi
	callq	__ZN14altered_carbon2js9JsVariantngEv
	leaq	30592(%rsp), %rdi
	movsd	LCPI0_369(%rip), %xmm0  ## xmm0 = mem[0],zero
	callq	__ZN14altered_carbon2js9JsVariantaSEd
	leaq	72928(%rsp), %rbx
	movsd	LCPI0_370(%rip), %xmm0  ## xmm0 = mem[0],zero
	movq	%rbx, %rdi
	callq	__ZN14altered_carbon2js9JsVariantaSEd
	leaq	30536(%rsp), %rdi
	movq	%rbx, %rsi
	callq	__ZN14altered_carbon2js9JsVariantngEv
	leaq	72872(%rsp), %rbx
	movsd	LCPI0_371(%rip), %xmm0  ## xmm0 = mem[0],zero
	movq	%rbx, %rdi
	callq	__ZN14altered_carbon2js9JsVariantaSEd
	leaq	30480(%rsp), %rdi
	movq	%rbx, %rsi
	callq	__ZN14altered_carbon2js9JsVariantngEv
	leaq	72816(%rsp), %rbx
	movsd	LCPI0_372(%rip), %xmm0  ## xmm0 = mem[0],zero
	movq	%rbx, %rdi
	callq	__ZN14altered_carbon2js9JsVariantaSEd
	leaq	30424(%rsp), %rdi
	movq	%rbx, %rsi
	callq	__ZN14altered_carbon2js9JsVariantngEv
	leaq	30368(%rsp), %rdi
	movsd	LCPI0_373(%rip), %xmm0  ## xmm0 = mem[0],zero
	callq	__ZN14altered_carbon2js9JsVariantaSEd
	leaq	72760(%rsp), %rbx
	movsd	LCPI0_374(%rip), %xmm0  ## xmm0 = mem[0],zero
	movq	%rbx, %rdi
	callq	__ZN14altered_carbon2js9JsVariantaSEd
	leaq	30312(%rsp), %rdi
	movq	%rbx, %rsi
	callq	__ZN14altered_carbon2js9JsVariantngEv
	leaq	72704(%rsp), %rbx
	movsd	LCPI0_375(%rip), %xmm0  ## xmm0 = mem[0],zero
	movq	%rbx, %rdi
	callq	__ZN14altered_carbon2js9JsVariantaSEd
	leaq	30256(%rsp), %rdi
	movq	%rbx, %rsi
	callq	__ZN14altered_carbon2js9JsVariantngEv
	leaq	72648(%rsp), %rbx
	movsd	LCPI0_376(%rip), %xmm0  ## xmm0 = mem[0],zero
	movq	%rbx, %rdi
	callq	__ZN14altered_carbon2js9JsVariantaSEd
	leaq	30200(%rsp), %rdi
	movq	%rbx, %rsi
	callq	__ZN14altered_carbon2js9JsVariantngEv
	leaq	72592(%rsp), %rbx
	movsd	LCPI0_377(%rip), %xmm0  ## xmm0 = mem[0],zero
	movq	%rbx, %rdi
	callq	__ZN14altered_carbon2js9JsVariantaSEd
	leaq	30144(%rsp), %rdi
	movq	%rbx, %rsi
	callq	__ZN14altered_carbon2js9JsVariantngEv
	leaq	72536(%rsp), %rbx
	movsd	LCPI0_378(%rip), %xmm0  ## xmm0 = mem[0],zero
	movq	%rbx, %rdi
	callq	__ZN14altered_carbon2js9JsVariantaSEd
	leaq	30088(%rsp), %rdi
	movq	%rbx, %rsi
	callq	__ZN14altered_carbon2js9JsVariantngEv
	leaq	72480(%rsp), %rbx
	movsd	LCPI0_379(%rip), %xmm0  ## xmm0 = mem[0],zero
	movq	%rbx, %rdi
	callq	__ZN14altered_carbon2js9JsVariantaSEd
	leaq	30032(%rsp), %rdi
	movq	%rbx, %rsi
	callq	__ZN14altered_carbon2js9JsVariantngEv
	leaq	72424(%rsp), %rbx
	movsd	LCPI0_380(%rip), %xmm0  ## xmm0 = mem[0],zero
	movq	%rbx, %rdi
	callq	__ZN14altered_carbon2js9JsVariantaSEd
	leaq	29976(%rsp), %rdi
	movq	%rbx, %rsi
	callq	__ZN14altered_carbon2js9JsVariantngEv
	leaq	72368(%rsp), %rbx
	movsd	LCPI0_381(%rip), %xmm0  ## xmm0 = mem[0],zero
	movq	%rbx, %rdi
	callq	__ZN14altered_carbon2js9JsVariantaSEd
	leaq	29920(%rsp), %rdi
	movq	%rbx, %rsi
	callq	__ZN14altered_carbon2js9JsVariantngEv
	leaq	72312(%rsp), %rbx
	movsd	LCPI0_382(%rip), %xmm0  ## xmm0 = mem[0],zero
	movq	%rbx, %rdi
	callq	__ZN14altered_carbon2js9JsVariantaSEd
	leaq	29864(%rsp), %rdi
	movq	%rbx, %rsi
	callq	__ZN14altered_carbon2js9JsVariantngEv
	leaq	29808(%rsp), %rdi
	movsd	LCPI0_383(%rip), %xmm0  ## xmm0 = mem[0],zero
	callq	__ZN14altered_carbon2js9JsVariantaSEd
	leaq	72256(%rsp), %rbx
	movsd	LCPI0_384(%rip), %xmm0  ## xmm0 = mem[0],zero
	movq	%rbx, %rdi
	callq	__ZN14altered_carbon2js9JsVariantaSEd
	leaq	29752(%rsp), %rdi
	movq	%rbx, %rsi
	callq	__ZN14altered_carbon2js9JsVariantngEv
	leaq	72200(%rsp), %rbx
	movsd	LCPI0_385(%rip), %xmm0  ## xmm0 = mem[0],zero
	movq	%rbx, %rdi
	callq	__ZN14altered_carbon2js9JsVariantaSEd
	leaq	29696(%rsp), %rdi
	movq	%rbx, %rsi
	callq	__ZN14altered_carbon2js9JsVariantngEv
	leaq	29640(%rsp), %rdi
	movsd	LCPI0_386(%rip), %xmm0  ## xmm0 = mem[0],zero
	callq	__ZN14altered_carbon2js9JsVariantaSEd
	leaq	72144(%rsp), %rbx
	movsd	LCPI0_387(%rip), %xmm0  ## xmm0 = mem[0],zero
	movq	%rbx, %rdi
	callq	__ZN14altered_carbon2js9JsVariantaSEd
	leaq	29584(%rsp), %rdi
	movq	%rbx, %rsi
	callq	__ZN14altered_carbon2js9JsVariantngEv
	leaq	72088(%rsp), %rbx
	movsd	LCPI0_388(%rip), %xmm0  ## xmm0 = mem[0],zero
	movq	%rbx, %rdi
	callq	__ZN14altered_carbon2js9JsVariantaSEd
	leaq	29528(%rsp), %rdi
	movq	%rbx, %rsi
	callq	__ZN14altered_carbon2js9JsVariantngEv
	leaq	72032(%rsp), %rbx
	movsd	LCPI0_389(%rip), %xmm0  ## xmm0 = mem[0],zero
	movq	%rbx, %rdi
	callq	__ZN14altered_carbon2js9JsVariantaSEd
	leaq	29472(%rsp), %rdi
	movq	%rbx, %rsi
	callq	__ZN14altered_carbon2js9JsVariantngEv
	leaq	71976(%rsp), %rbx
	movsd	LCPI0_390(%rip), %xmm0  ## xmm0 = mem[0],zero
	movq	%rbx, %rdi
	callq	__ZN14altered_carbon2js9JsVariantaSEd
	leaq	29416(%rsp), %rdi
	movq	%rbx, %rsi
	callq	__ZN14altered_carbon2js9JsVariantngEv
	leaq	71920(%rsp), %rbx
	movsd	LCPI0_391(%rip), %xmm0  ## xmm0 = mem[0],zero
	movq	%rbx, %rdi
	callq	__ZN14altered_carbon2js9JsVariantaSEd
	leaq	29360(%rsp), %rdi
	movq	%rbx, %rsi
	callq	__ZN14altered_carbon2js9JsVariantngEv
	leaq	71864(%rsp), %rbx
	movsd	LCPI0_392(%rip), %xmm0  ## xmm0 = mem[0],zero
	movq	%rbx, %rdi
	callq	__ZN14altered_carbon2js9JsVariantaSEd
	leaq	29304(%rsp), %rdi
	movq	%rbx, %rsi
	callq	__ZN14altered_carbon2js9JsVariantngEv
	leaq	71808(%rsp), %rbx
	movsd	LCPI0_393(%rip), %xmm0  ## xmm0 = mem[0],zero
	movq	%rbx, %rdi
	callq	__ZN14altered_carbon2js9JsVariantaSEd
	leaq	29248(%rsp), %rdi
	movq	%rbx, %rsi
	callq	__ZN14altered_carbon2js9JsVariantngEv
	leaq	71752(%rsp), %rbx
	movsd	LCPI0_394(%rip), %xmm0  ## xmm0 = mem[0],zero
	movq	%rbx, %rdi
	callq	__ZN14altered_carbon2js9JsVariantaSEd
	leaq	29192(%rsp), %rdi
	movq	%rbx, %rsi
	callq	__ZN14altered_carbon2js9JsVariantngEv
	leaq	71696(%rsp), %rbx
	movsd	LCPI0_395(%rip), %xmm0  ## xmm0 = mem[0],zero
	movq	%rbx, %rdi
	callq	__ZN14altered_carbon2js9JsVariantaSEd
	leaq	29136(%rsp), %rdi
	movq	%rbx, %rsi
	callq	__ZN14altered_carbon2js9JsVariantngEv
	leaq	71640(%rsp), %rbx
	movsd	LCPI0_396(%rip), %xmm0  ## xmm0 = mem[0],zero
	movq	%rbx, %rdi
	callq	__ZN14altered_carbon2js9JsVariantaSEd
	leaq	29080(%rsp), %rdi
	movq	%rbx, %rsi
	callq	__ZN14altered_carbon2js9JsVariantngEv
	leaq	71584(%rsp), %rbx
	movsd	LCPI0_397(%rip), %xmm0  ## xmm0 = mem[0],zero
	movq	%rbx, %rdi
	callq	__ZN14altered_carbon2js9JsVariantaSEd
	leaq	29024(%rsp), %rdi
	movq	%rbx, %rsi
	callq	__ZN14altered_carbon2js9JsVariantngEv
	leaq	71528(%rsp), %rbx
	movsd	LCPI0_398(%rip), %xmm0  ## xmm0 = mem[0],zero
	movq	%rbx, %rdi
	callq	__ZN14altered_carbon2js9JsVariantaSEd
	leaq	28968(%rsp), %rdi
	movq	%rbx, %rsi
	callq	__ZN14altered_carbon2js9JsVariantngEv
	leaq	71472(%rsp), %rbx
	movsd	LCPI0_399(%rip), %xmm0  ## xmm0 = mem[0],zero
	movq	%rbx, %rdi
	callq	__ZN14altered_carbon2js9JsVariantaSEd
	leaq	28912(%rsp), %rdi
	movq	%rbx, %rsi
	callq	__ZN14altered_carbon2js9JsVariantngEv
	leaq	28856(%rsp), %rdi
	movsd	LCPI0_400(%rip), %xmm0  ## xmm0 = mem[0],zero
	callq	__ZN14altered_carbon2js9JsVariantaSEd
	leaq	71416(%rsp), %rbx
	movsd	LCPI0_401(%rip), %xmm0  ## xmm0 = mem[0],zero
	movq	%rbx, %rdi
	callq	__ZN14altered_carbon2js9JsVariantaSEd
	leaq	28800(%rsp), %rdi
	movq	%rbx, %rsi
	callq	__ZN14altered_carbon2js9JsVariantngEv
	leaq	28744(%rsp), %rdi
	movsd	LCPI0_402(%rip), %xmm0  ## xmm0 = mem[0],zero
	callq	__ZN14altered_carbon2js9JsVariantaSEd
	leaq	28688(%rsp), %rdi
	movsd	LCPI0_403(%rip), %xmm0  ## xmm0 = mem[0],zero
	callq	__ZN14altered_carbon2js9JsVariantaSEd
	leaq	28632(%rsp), %rdi
	movsd	LCPI0_404(%rip), %xmm0  ## xmm0 = mem[0],zero
	callq	__ZN14altered_carbon2js9JsVariantaSEd
	leaq	71360(%rsp), %rbx
	movsd	LCPI0_405(%rip), %xmm0  ## xmm0 = mem[0],zero
	movq	%rbx, %rdi
	callq	__ZN14altered_carbon2js9JsVariantaSEd
	leaq	28576(%rsp), %rdi
	movq	%rbx, %rsi
	callq	__ZN14altered_carbon2js9JsVariantngEv
	leaq	71304(%rsp), %rbx
	movsd	LCPI0_406(%rip), %xmm0  ## xmm0 = mem[0],zero
	movq	%rbx, %rdi
	callq	__ZN14altered_carbon2js9JsVariantaSEd
	leaq	28520(%rsp), %rdi
	movq	%rbx, %rsi
	callq	__ZN14altered_carbon2js9JsVariantngEv
	leaq	71248(%rsp), %rbx
	movsd	LCPI0_407(%rip), %xmm0  ## xmm0 = mem[0],zero
	movq	%rbx, %rdi
	callq	__ZN14altered_carbon2js9JsVariantaSEd
	leaq	28464(%rsp), %rdi
	movq	%rbx, %rsi
	callq	__ZN14altered_carbon2js9JsVariantngEv
	leaq	28408(%rsp), %rdi
	movsd	LCPI0_408(%rip), %xmm0  ## xmm0 = mem[0],zero
	callq	__ZN14altered_carbon2js9JsVariantaSEd
	leaq	71192(%rsp), %rbx
	movsd	LCPI0_409(%rip), %xmm0  ## xmm0 = mem[0],zero
	movq	%rbx, %rdi
	callq	__ZN14altered_carbon2js9JsVariantaSEd
	leaq	28352(%rsp), %rdi
	movq	%rbx, %rsi
	callq	__ZN14altered_carbon2js9JsVariantngEv
	leaq	71136(%rsp), %rbx
	movsd	LCPI0_410(%rip), %xmm0  ## xmm0 = mem[0],zero
	movq	%rbx, %rdi
	callq	__ZN14altered_carbon2js9JsVariantaSEd
	leaq	28296(%rsp), %rdi
	movq	%rbx, %rsi
	callq	__ZN14altered_carbon2js9JsVariantngEv
	leaq	71080(%rsp), %rbx
	movsd	LCPI0_411(%rip), %xmm0  ## xmm0 = mem[0],zero
	movq	%rbx, %rdi
	callq	__ZN14altered_carbon2js9JsVariantaSEd
	leaq	28240(%rsp), %rdi
	movq	%rbx, %rsi
	callq	__ZN14altered_carbon2js9JsVariantngEv
	leaq	71024(%rsp), %rbx
	movsd	LCPI0_412(%rip), %xmm0  ## xmm0 = mem[0],zero
	movq	%rbx, %rdi
	callq	__ZN14altered_carbon2js9JsVariantaSEd
	leaq	28184(%rsp), %rdi
	movq	%rbx, %rsi
	callq	__ZN14altered_carbon2js9JsVariantngEv
	leaq	70968(%rsp), %rbx
	movsd	LCPI0_413(%rip), %xmm0  ## xmm0 = mem[0],zero
	movq	%rbx, %rdi
	callq	__ZN14altered_carbon2js9JsVariantaSEd
	leaq	28128(%rsp), %rdi
	movq	%rbx, %rsi
	callq	__ZN14altered_carbon2js9JsVariantngEv
	leaq	70912(%rsp), %rbx
	movsd	LCPI0_414(%rip), %xmm0  ## xmm0 = mem[0],zero
	movq	%rbx, %rdi
	callq	__ZN14altered_carbon2js9JsVariantaSEd
	leaq	28072(%rsp), %rdi
	movq	%rbx, %rsi
	callq	__ZN14altered_carbon2js9JsVariantngEv
	leaq	70856(%rsp), %rbx
	movsd	LCPI0_415(%rip), %xmm0  ## xmm0 = mem[0],zero
	movq	%rbx, %rdi
	callq	__ZN14altered_carbon2js9JsVariantaSEd
	leaq	28016(%rsp), %rdi
	movq	%rbx, %rsi
	callq	__ZN14altered_carbon2js9JsVariantngEv
	leaq	70800(%rsp), %rbx
	movsd	LCPI0_416(%rip), %xmm0  ## xmm0 = mem[0],zero
	movq	%rbx, %rdi
	callq	__ZN14altered_carbon2js9JsVariantaSEd
	leaq	27960(%rsp), %rdi
	movq	%rbx, %rsi
	callq	__ZN14altered_carbon2js9JsVariantngEv
	leaq	70744(%rsp), %rbx
	movsd	LCPI0_417(%rip), %xmm0  ## xmm0 = mem[0],zero
	movq	%rbx, %rdi
	callq	__ZN14altered_carbon2js9JsVariantaSEd
	leaq	27904(%rsp), %rdi
	movq	%rbx, %rsi
	callq	__ZN14altered_carbon2js9JsVariantngEv
	leaq	27848(%rsp), %rdi
	movsd	LCPI0_418(%rip), %xmm0  ## xmm0 = mem[0],zero
	callq	__ZN14altered_carbon2js9JsVariantaSEd
	leaq	70688(%rsp), %rbx
	movsd	LCPI0_419(%rip), %xmm0  ## xmm0 = mem[0],zero
	movq	%rbx, %rdi
	callq	__ZN14altered_carbon2js9JsVariantaSEd
	leaq	27792(%rsp), %rdi
	movq	%rbx, %rsi
	callq	__ZN14altered_carbon2js9JsVariantngEv
	leaq	70632(%rsp), %rbx
	movsd	LCPI0_420(%rip), %xmm0  ## xmm0 = mem[0],zero
	movq	%rbx, %rdi
	callq	__ZN14altered_carbon2js9JsVariantaSEd
	leaq	27736(%rsp), %rdi
	movq	%rbx, %rsi
	callq	__ZN14altered_carbon2js9JsVariantngEv
	leaq	70576(%rsp), %rbx
	movsd	LCPI0_421(%rip), %xmm0  ## xmm0 = mem[0],zero
	movq	%rbx, %rdi
	callq	__ZN14altered_carbon2js9JsVariantaSEd
	leaq	27680(%rsp), %rdi
	movq	%rbx, %rsi
	callq	__ZN14altered_carbon2js9JsVariantngEv
	leaq	70520(%rsp), %rbx
	movsd	LCPI0_422(%rip), %xmm0  ## xmm0 = mem[0],zero
	movq	%rbx, %rdi
	callq	__ZN14altered_carbon2js9JsVariantaSEd
	leaq	27624(%rsp), %rdi
	movq	%rbx, %rsi
	callq	__ZN14altered_carbon2js9JsVariantngEv
	leaq	27568(%rsp), %rdi
	movsd	LCPI0_423(%rip), %xmm0  ## xmm0 = mem[0],zero
	callq	__ZN14altered_carbon2js9JsVariantaSEd
	leaq	70464(%rsp), %rbx
	movsd	LCPI0_424(%rip), %xmm0  ## xmm0 = mem[0],zero
	movq	%rbx, %rdi
	callq	__ZN14altered_carbon2js9JsVariantaSEd
	leaq	27512(%rsp), %rdi
	movq	%rbx, %rsi
	callq	__ZN14altered_carbon2js9JsVariantngEv
	leaq	70408(%rsp), %rbx
	movsd	LCPI0_425(%rip), %xmm0  ## xmm0 = mem[0],zero
	movq	%rbx, %rdi
	callq	__ZN14altered_carbon2js9JsVariantaSEd
	leaq	27456(%rsp), %rdi
	movq	%rbx, %rsi
	callq	__ZN14altered_carbon2js9JsVariantngEv
	leaq	70352(%rsp), %rbx
	movsd	LCPI0_426(%rip), %xmm0  ## xmm0 = mem[0],zero
	movq	%rbx, %rdi
	callq	__ZN14altered_carbon2js9JsVariantaSEd
	leaq	27400(%rsp), %rdi
	movq	%rbx, %rsi
	callq	__ZN14altered_carbon2js9JsVariantngEv
	leaq	70296(%rsp), %rbx
	movsd	LCPI0_427(%rip), %xmm0  ## xmm0 = mem[0],zero
	movq	%rbx, %rdi
	callq	__ZN14altered_carbon2js9JsVariantaSEd
	leaq	27344(%rsp), %rdi
	movq	%rbx, %rsi
	callq	__ZN14altered_carbon2js9JsVariantngEv
	leaq	70240(%rsp), %rbx
	movsd	LCPI0_428(%rip), %xmm0  ## xmm0 = mem[0],zero
	movq	%rbx, %rdi
	callq	__ZN14altered_carbon2js9JsVariantaSEd
	leaq	27288(%rsp), %rdi
	movq	%rbx, %rsi
	callq	__ZN14altered_carbon2js9JsVariantngEv
	leaq	70184(%rsp), %rbx
	movsd	LCPI0_429(%rip), %xmm0  ## xmm0 = mem[0],zero
	movq	%rbx, %rdi
	callq	__ZN14altered_carbon2js9JsVariantaSEd
	leaq	27232(%rsp), %rdi
	movq	%rbx, %rsi
	callq	__ZN14altered_carbon2js9JsVariantngEv
	leaq	70128(%rsp), %rbx
	movsd	LCPI0_430(%rip), %xmm0  ## xmm0 = mem[0],zero
	movq	%rbx, %rdi
	callq	__ZN14altered_carbon2js9JsVariantaSEd
	leaq	27176(%rsp), %rdi
	movq	%rbx, %rsi
	callq	__ZN14altered_carbon2js9JsVariantngEv
	leaq	70072(%rsp), %rbx
	movsd	LCPI0_431(%rip), %xmm0  ## xmm0 = mem[0],zero
	movq	%rbx, %rdi
	callq	__ZN14altered_carbon2js9JsVariantaSEd
	leaq	27120(%rsp), %rdi
	movq	%rbx, %rsi
	callq	__ZN14altered_carbon2js9JsVariantngEv
	leaq	70016(%rsp), %rbx
	movsd	LCPI0_432(%rip), %xmm0  ## xmm0 = mem[0],zero
	movq	%rbx, %rdi
	callq	__ZN14altered_carbon2js9JsVariantaSEd
	leaq	27064(%rsp), %rdi
	movq	%rbx, %rsi
	callq	__ZN14altered_carbon2js9JsVariantngEv
	leaq	69960(%rsp), %rbx
	movsd	LCPI0_433(%rip), %xmm0  ## xmm0 = mem[0],zero
	movq	%rbx, %rdi
	callq	__ZN14altered_carbon2js9JsVariantaSEd
	leaq	27008(%rsp), %rdi
	movq	%rbx, %rsi
	callq	__ZN14altered_carbon2js9JsVariantngEv
	leaq	26952(%rsp), %rdi
	movsd	LCPI0_434(%rip), %xmm0  ## xmm0 = mem[0],zero
	callq	__ZN14altered_carbon2js9JsVariantaSEd
	leaq	69904(%rsp), %rbx
	movsd	LCPI0_435(%rip), %xmm0  ## xmm0 = mem[0],zero
	movq	%rbx, %rdi
	callq	__ZN14altered_carbon2js9JsVariantaSEd
	leaq	26896(%rsp), %rdi
	movq	%rbx, %rsi
	callq	__ZN14altered_carbon2js9JsVariantngEv
	leaq	69848(%rsp), %rbx
	movsd	LCPI0_436(%rip), %xmm0  ## xmm0 = mem[0],zero
	movq	%rbx, %rdi
	callq	__ZN14altered_carbon2js9JsVariantaSEd
	leaq	26840(%rsp), %rdi
	movq	%rbx, %rsi
	callq	__ZN14altered_carbon2js9JsVariantngEv
	leaq	26784(%rsp), %rdi
	movsd	LCPI0_437(%rip), %xmm0  ## xmm0 = mem[0],zero
	callq	__ZN14altered_carbon2js9JsVariantaSEd
	leaq	69792(%rsp), %rbx
	movsd	LCPI0_438(%rip), %xmm0  ## xmm0 = mem[0],zero
	movq	%rbx, %rdi
	callq	__ZN14altered_carbon2js9JsVariantaSEd
	leaq	26728(%rsp), %rdi
	movq	%rbx, %rsi
	callq	__ZN14altered_carbon2js9JsVariantngEv
	leaq	69736(%rsp), %rbx
	movsd	LCPI0_439(%rip), %xmm0  ## xmm0 = mem[0],zero
	movq	%rbx, %rdi
	callq	__ZN14altered_carbon2js9JsVariantaSEd
	leaq	26672(%rsp), %rdi
	movq	%rbx, %rsi
	callq	__ZN14altered_carbon2js9JsVariantngEv
	leaq	69680(%rsp), %rbx
	movsd	LCPI0_440(%rip), %xmm0  ## xmm0 = mem[0],zero
	movq	%rbx, %rdi
	callq	__ZN14altered_carbon2js9JsVariantaSEd
	leaq	26616(%rsp), %rdi
	movq	%rbx, %rsi
	callq	__ZN14altered_carbon2js9JsVariantngEv
	leaq	69624(%rsp), %rbx
	movsd	LCPI0_441(%rip), %xmm0  ## xmm0 = mem[0],zero
	movq	%rbx, %rdi
	callq	__ZN14altered_carbon2js9JsVariantaSEd
	leaq	26560(%rsp), %rdi
	movq	%rbx, %rsi
	callq	__ZN14altered_carbon2js9JsVariantngEv
	leaq	69568(%rsp), %rbx
	movsd	LCPI0_442(%rip), %xmm0  ## xmm0 = mem[0],zero
	movq	%rbx, %rdi
	callq	__ZN14altered_carbon2js9JsVariantaSEd
	leaq	26504(%rsp), %rdi
	movq	%rbx, %rsi
	callq	__ZN14altered_carbon2js9JsVariantngEv
	leaq	69512(%rsp), %rbx
	movsd	LCPI0_443(%rip), %xmm0  ## xmm0 = mem[0],zero
	movq	%rbx, %rdi
	callq	__ZN14altered_carbon2js9JsVariantaSEd
	leaq	26448(%rsp), %rdi
	movq	%rbx, %rsi
	callq	__ZN14altered_carbon2js9JsVariantngEv
	leaq	69456(%rsp), %rbx
	movsd	LCPI0_444(%rip), %xmm0  ## xmm0 = mem[0],zero
	movq	%rbx, %rdi
	callq	__ZN14altered_carbon2js9JsVariantaSEd
	leaq	26392(%rsp), %rdi
	movq	%rbx, %rsi
	callq	__ZN14altered_carbon2js9JsVariantngEv
	leaq	69400(%rsp), %rbx
	movsd	LCPI0_445(%rip), %xmm0  ## xmm0 = mem[0],zero
	movq	%rbx, %rdi
	callq	__ZN14altered_carbon2js9JsVariantaSEd
	leaq	26336(%rsp), %rdi
	movq	%rbx, %rsi
	callq	__ZN14altered_carbon2js9JsVariantngEv
	leaq	69344(%rsp), %rbx
	movsd	LCPI0_446(%rip), %xmm0  ## xmm0 = mem[0],zero
	movq	%rbx, %rdi
	callq	__ZN14altered_carbon2js9JsVariantaSEd
	leaq	26280(%rsp), %rdi
	movq	%rbx, %rsi
	callq	__ZN14altered_carbon2js9JsVariantngEv
	leaq	69288(%rsp), %rbx
	movsd	LCPI0_447(%rip), %xmm0  ## xmm0 = mem[0],zero
	movq	%rbx, %rdi
	callq	__ZN14altered_carbon2js9JsVariantaSEd
	leaq	26224(%rsp), %rdi
	movq	%rbx, %rsi
	callq	__ZN14altered_carbon2js9JsVariantngEv
	leaq	69232(%rsp), %rbx
	movsd	LCPI0_448(%rip), %xmm0  ## xmm0 = mem[0],zero
	movq	%rbx, %rdi
	callq	__ZN14altered_carbon2js9JsVariantaSEd
	leaq	26168(%rsp), %rdi
	movq	%rbx, %rsi
	callq	__ZN14altered_carbon2js9JsVariantngEv
	leaq	69176(%rsp), %rbx
	movsd	LCPI0_449(%rip), %xmm0  ## xmm0 = mem[0],zero
	movq	%rbx, %rdi
	callq	__ZN14altered_carbon2js9JsVariantaSEd
	leaq	26112(%rsp), %rdi
	movq	%rbx, %rsi
	callq	__ZN14altered_carbon2js9JsVariantngEv
	leaq	69120(%rsp), %rbx
	movsd	LCPI0_450(%rip), %xmm0  ## xmm0 = mem[0],zero
	movq	%rbx, %rdi
	callq	__ZN14altered_carbon2js9JsVariantaSEd
	leaq	26056(%rsp), %rdi
	movq	%rbx, %rsi
	callq	__ZN14altered_carbon2js9JsVariantngEv
	leaq	69064(%rsp), %rbx
	movsd	LCPI0_451(%rip), %xmm0  ## xmm0 = mem[0],zero
	movq	%rbx, %rdi
	callq	__ZN14altered_carbon2js9JsVariantaSEd
	leaq	26000(%rsp), %rdi
	movq	%rbx, %rsi
	callq	__ZN14altered_carbon2js9JsVariantngEv
	leaq	69008(%rsp), %rbx
	movsd	LCPI0_452(%rip), %xmm0  ## xmm0 = mem[0],zero
	movq	%rbx, %rdi
	callq	__ZN14altered_carbon2js9JsVariantaSEd
	leaq	25944(%rsp), %rdi
	movq	%rbx, %rsi
	callq	__ZN14altered_carbon2js9JsVariantngEv
	leaq	68952(%rsp), %rbx
	movsd	LCPI0_453(%rip), %xmm0  ## xmm0 = mem[0],zero
	movq	%rbx, %rdi
	callq	__ZN14altered_carbon2js9JsVariantaSEd
	leaq	25888(%rsp), %rdi
	movq	%rbx, %rsi
	callq	__ZN14altered_carbon2js9JsVariantngEv
	leaq	68896(%rsp), %rbx
	movsd	LCPI0_454(%rip), %xmm0  ## xmm0 = mem[0],zero
	movq	%rbx, %rdi
	callq	__ZN14altered_carbon2js9JsVariantaSEd
	leaq	25832(%rsp), %rdi
	movq	%rbx, %rsi
	callq	__ZN14altered_carbon2js9JsVariantngEv
	leaq	68840(%rsp), %rbx
	movsd	LCPI0_455(%rip), %xmm0  ## xmm0 = mem[0],zero
	movq	%rbx, %rdi
	callq	__ZN14altered_carbon2js9JsVariantaSEd
	leaq	25776(%rsp), %rdi
	movq	%rbx, %rsi
	callq	__ZN14altered_carbon2js9JsVariantngEv
	leaq	68784(%rsp), %rbx
	movsd	LCPI0_456(%rip), %xmm0  ## xmm0 = mem[0],zero
	movq	%rbx, %rdi
	callq	__ZN14altered_carbon2js9JsVariantaSEd
	leaq	25720(%rsp), %rdi
	movq	%rbx, %rsi
	callq	__ZN14altered_carbon2js9JsVariantngEv
	leaq	68728(%rsp), %rbx
	movsd	LCPI0_457(%rip), %xmm0  ## xmm0 = mem[0],zero
	movq	%rbx, %rdi
	callq	__ZN14altered_carbon2js9JsVariantaSEd
	leaq	25664(%rsp), %rdi
	movq	%rbx, %rsi
	callq	__ZN14altered_carbon2js9JsVariantngEv
	leaq	68672(%rsp), %rbx
	movsd	LCPI0_458(%rip), %xmm0  ## xmm0 = mem[0],zero
	movq	%rbx, %rdi
	callq	__ZN14altered_carbon2js9JsVariantaSEd
	leaq	25608(%rsp), %rdi
	movq	%rbx, %rsi
	callq	__ZN14altered_carbon2js9JsVariantngEv
	leaq	68616(%rsp), %rbx
	movsd	LCPI0_459(%rip), %xmm0  ## xmm0 = mem[0],zero
	movq	%rbx, %rdi
	callq	__ZN14altered_carbon2js9JsVariantaSEd
	leaq	25552(%rsp), %rdi
	movq	%rbx, %rsi
	callq	__ZN14altered_carbon2js9JsVariantngEv
	leaq	68560(%rsp), %rbx
	movsd	LCPI0_460(%rip), %xmm0  ## xmm0 = mem[0],zero
	movq	%rbx, %rdi
	callq	__ZN14altered_carbon2js9JsVariantaSEd
	leaq	25496(%rsp), %rdi
	movq	%rbx, %rsi
	callq	__ZN14altered_carbon2js9JsVariantngEv
	leaq	68504(%rsp), %rbx
	movsd	LCPI0_461(%rip), %xmm0  ## xmm0 = mem[0],zero
	movq	%rbx, %rdi
	callq	__ZN14altered_carbon2js9JsVariantaSEd
	leaq	25440(%rsp), %rdi
	movq	%rbx, %rsi
	callq	__ZN14altered_carbon2js9JsVariantngEv
	leaq	68448(%rsp), %rbx
	movsd	LCPI0_462(%rip), %xmm0  ## xmm0 = mem[0],zero
	movq	%rbx, %rdi
	callq	__ZN14altered_carbon2js9JsVariantaSEd
	leaq	25384(%rsp), %rdi
	movq	%rbx, %rsi
	callq	__ZN14altered_carbon2js9JsVariantngEv
	leaq	25328(%rsp), %rdi
	movsd	LCPI0_463(%rip), %xmm0  ## xmm0 = mem[0],zero
	callq	__ZN14altered_carbon2js9JsVariantaSEd
	leaq	68392(%rsp), %rbx
	movsd	LCPI0_464(%rip), %xmm0  ## xmm0 = mem[0],zero
	movq	%rbx, %rdi
	callq	__ZN14altered_carbon2js9JsVariantaSEd
	leaq	25272(%rsp), %rdi
	movq	%rbx, %rsi
	callq	__ZN14altered_carbon2js9JsVariantngEv
	leaq	68336(%rsp), %rbx
	movsd	LCPI0_465(%rip), %xmm0  ## xmm0 = mem[0],zero
	movq	%rbx, %rdi
	callq	__ZN14altered_carbon2js9JsVariantaSEd
	leaq	25216(%rsp), %rdi
	movq	%rbx, %rsi
	callq	__ZN14altered_carbon2js9JsVariantngEv
	leaq	68280(%rsp), %rbx
	movsd	LCPI0_466(%rip), %xmm0  ## xmm0 = mem[0],zero
	movq	%rbx, %rdi
	callq	__ZN14altered_carbon2js9JsVariantaSEd
	leaq	25160(%rsp), %rdi
	movq	%rbx, %rsi
	callq	__ZN14altered_carbon2js9JsVariantngEv
	leaq	68224(%rsp), %rbx
	movsd	LCPI0_467(%rip), %xmm0  ## xmm0 = mem[0],zero
	movq	%rbx, %rdi
	callq	__ZN14altered_carbon2js9JsVariantaSEd
	leaq	25104(%rsp), %rdi
	movq	%rbx, %rsi
	callq	__ZN14altered_carbon2js9JsVariantngEv
	leaq	68168(%rsp), %rbx
	movsd	LCPI0_468(%rip), %xmm0  ## xmm0 = mem[0],zero
	movq	%rbx, %rdi
	callq	__ZN14altered_carbon2js9JsVariantaSEd
	leaq	25048(%rsp), %rdi
	movq	%rbx, %rsi
	callq	__ZN14altered_carbon2js9JsVariantngEv
	leaq	68112(%rsp), %rbx
	movsd	LCPI0_469(%rip), %xmm0  ## xmm0 = mem[0],zero
	movq	%rbx, %rdi
	callq	__ZN14altered_carbon2js9JsVariantaSEd
	leaq	24992(%rsp), %rdi
	movq	%rbx, %rsi
	callq	__ZN14altered_carbon2js9JsVariantngEv
	leaq	68056(%rsp), %rbx
	movsd	LCPI0_470(%rip), %xmm0  ## xmm0 = mem[0],zero
	movq	%rbx, %rdi
	callq	__ZN14altered_carbon2js9JsVariantaSEd
	leaq	24936(%rsp), %rdi
	movq	%rbx, %rsi
	callq	__ZN14altered_carbon2js9JsVariantngEv
	leaq	68000(%rsp), %rbx
	movsd	LCPI0_471(%rip), %xmm0  ## xmm0 = mem[0],zero
	movq	%rbx, %rdi
	callq	__ZN14altered_carbon2js9JsVariantaSEd
	leaq	24880(%rsp), %rdi
	movq	%rbx, %rsi
	callq	__ZN14altered_carbon2js9JsVariantngEv
	leaq	67944(%rsp), %rbx
	movsd	LCPI0_472(%rip), %xmm0  ## xmm0 = mem[0],zero
	movq	%rbx, %rdi
	callq	__ZN14altered_carbon2js9JsVariantaSEd
	leaq	24824(%rsp), %rdi
	movq	%rbx, %rsi
	callq	__ZN14altered_carbon2js9JsVariantngEv
	leaq	67888(%rsp), %rbx
	movsd	LCPI0_473(%rip), %xmm0  ## xmm0 = mem[0],zero
	movq	%rbx, %rdi
	callq	__ZN14altered_carbon2js9JsVariantaSEd
	leaq	24768(%rsp), %rdi
	movq	%rbx, %rsi
	callq	__ZN14altered_carbon2js9JsVariantngEv
	leaq	24712(%rsp), %rdi
	movsd	LCPI0_474(%rip), %xmm0  ## xmm0 = mem[0],zero
	callq	__ZN14altered_carbon2js9JsVariantaSEd
	leaq	67832(%rsp), %rbx
	movsd	LCPI0_475(%rip), %xmm0  ## xmm0 = mem[0],zero
	movq	%rbx, %rdi
	callq	__ZN14altered_carbon2js9JsVariantaSEd
	leaq	24656(%rsp), %rdi
	movq	%rbx, %rsi
	callq	__ZN14altered_carbon2js9JsVariantngEv
	leaq	67776(%rsp), %rbx
	movsd	LCPI0_476(%rip), %xmm0  ## xmm0 = mem[0],zero
	movq	%rbx, %rdi
	callq	__ZN14altered_carbon2js9JsVariantaSEd
	leaq	24600(%rsp), %rdi
	movq	%rbx, %rsi
	callq	__ZN14altered_carbon2js9JsVariantngEv
	leaq	24544(%rsp), %rdi
	movsd	LCPI0_477(%rip), %xmm0  ## xmm0 = mem[0],zero
	callq	__ZN14altered_carbon2js9JsVariantaSEd
	leaq	67720(%rsp), %rbx
	movsd	LCPI0_478(%rip), %xmm0  ## xmm0 = mem[0],zero
	movq	%rbx, %rdi
	callq	__ZN14altered_carbon2js9JsVariantaSEd
	leaq	24488(%rsp), %rdi
	movq	%rbx, %rsi
	callq	__ZN14altered_carbon2js9JsVariantngEv
	leaq	67664(%rsp), %rbx
	movsd	LCPI0_479(%rip), %xmm0  ## xmm0 = mem[0],zero
	movq	%rbx, %rdi
	callq	__ZN14altered_carbon2js9JsVariantaSEd
	leaq	24432(%rsp), %rdi
	movq	%rbx, %rsi
	callq	__ZN14altered_carbon2js9JsVariantngEv
	leaq	67608(%rsp), %rbx
	movsd	LCPI0_480(%rip), %xmm0  ## xmm0 = mem[0],zero
	movq	%rbx, %rdi
	callq	__ZN14altered_carbon2js9JsVariantaSEd
	leaq	24376(%rsp), %rdi
	movq	%rbx, %rsi
	callq	__ZN14altered_carbon2js9JsVariantngEv
	leaq	67552(%rsp), %rbx
	movsd	LCPI0_481(%rip), %xmm0  ## xmm0 = mem[0],zero
	movq	%rbx, %rdi
	callq	__ZN14altered_carbon2js9JsVariantaSEd
	leaq	24320(%rsp), %rdi
	movq	%rbx, %rsi
	callq	__ZN14altered_carbon2js9JsVariantngEv
	leaq	67496(%rsp), %rbx
	movsd	LCPI0_482(%rip), %xmm0  ## xmm0 = mem[0],zero
	movq	%rbx, %rdi
	callq	__ZN14altered_carbon2js9JsVariantaSEd
	leaq	24264(%rsp), %rdi
	movq	%rbx, %rsi
	callq	__ZN14altered_carbon2js9JsVariantngEv
	leaq	67440(%rsp), %rbx
	movsd	LCPI0_483(%rip), %xmm0  ## xmm0 = mem[0],zero
	movq	%rbx, %rdi
	callq	__ZN14altered_carbon2js9JsVariantaSEd
	leaq	24208(%rsp), %rdi
	movq	%rbx, %rsi
	callq	__ZN14altered_carbon2js9JsVariantngEv
	leaq	67384(%rsp), %rbx
	movsd	LCPI0_484(%rip), %xmm0  ## xmm0 = mem[0],zero
	movq	%rbx, %rdi
	callq	__ZN14altered_carbon2js9JsVariantaSEd
	leaq	24152(%rsp), %rdi
	movq	%rbx, %rsi
	callq	__ZN14altered_carbon2js9JsVariantngEv
	leaq	67328(%rsp), %rbx
	movsd	LCPI0_485(%rip), %xmm0  ## xmm0 = mem[0],zero
	movq	%rbx, %rdi
	callq	__ZN14altered_carbon2js9JsVariantaSEd
	leaq	24096(%rsp), %rdi
	movq	%rbx, %rsi
	callq	__ZN14altered_carbon2js9JsVariantngEv
	leaq	67272(%rsp), %rbx
	movsd	LCPI0_486(%rip), %xmm0  ## xmm0 = mem[0],zero
	movq	%rbx, %rdi
	callq	__ZN14altered_carbon2js9JsVariantaSEd
	leaq	24040(%rsp), %rdi
	movq	%rbx, %rsi
	callq	__ZN14altered_carbon2js9JsVariantngEv
	leaq	67216(%rsp), %rbx
	movsd	LCPI0_487(%rip), %xmm0  ## xmm0 = mem[0],zero
	movq	%rbx, %rdi
	callq	__ZN14altered_carbon2js9JsVariantaSEd
	leaq	23984(%rsp), %rdi
	movq	%rbx, %rsi
	callq	__ZN14altered_carbon2js9JsVariantngEv
	leaq	67160(%rsp), %rbx
	movsd	LCPI0_488(%rip), %xmm0  ## xmm0 = mem[0],zero
	movq	%rbx, %rdi
	callq	__ZN14altered_carbon2js9JsVariantaSEd
	leaq	23928(%rsp), %rdi
	movq	%rbx, %rsi
	callq	__ZN14altered_carbon2js9JsVariantngEv
	leaq	67104(%rsp), %rbx
	movsd	LCPI0_489(%rip), %xmm0  ## xmm0 = mem[0],zero
	movq	%rbx, %rdi
	callq	__ZN14altered_carbon2js9JsVariantaSEd
	leaq	23872(%rsp), %rdi
	movq	%rbx, %rsi
	callq	__ZN14altered_carbon2js9JsVariantngEv
	leaq	23816(%rsp), %rdi
	movsd	LCPI0_490(%rip), %xmm0  ## xmm0 = mem[0],zero
	callq	__ZN14altered_carbon2js9JsVariantaSEd
	leaq	67048(%rsp), %rbx
	movsd	LCPI0_491(%rip), %xmm0  ## xmm0 = mem[0],zero
	movq	%rbx, %rdi
	callq	__ZN14altered_carbon2js9JsVariantaSEd
	leaq	23760(%rsp), %rdi
	movq	%rbx, %rsi
	callq	__ZN14altered_carbon2js9JsVariantngEv
	leaq	66992(%rsp), %rbx
	movsd	LCPI0_492(%rip), %xmm0  ## xmm0 = mem[0],zero
	movq	%rbx, %rdi
	callq	__ZN14altered_carbon2js9JsVariantaSEd
	leaq	23704(%rsp), %rdi
	movq	%rbx, %rsi
	callq	__ZN14altered_carbon2js9JsVariantngEv
	leaq	66936(%rsp), %rbx
	movsd	LCPI0_493(%rip), %xmm0  ## xmm0 = mem[0],zero
	movq	%rbx, %rdi
	callq	__ZN14altered_carbon2js9JsVariantaSEd
	leaq	23648(%rsp), %rdi
	movq	%rbx, %rsi
	callq	__ZN14altered_carbon2js9JsVariantngEv
	leaq	66880(%rsp), %rbx
	movsd	LCPI0_494(%rip), %xmm0  ## xmm0 = mem[0],zero
	movq	%rbx, %rdi
	callq	__ZN14altered_carbon2js9JsVariantaSEd
	leaq	23592(%rsp), %rdi
	movq	%rbx, %rsi
	callq	__ZN14altered_carbon2js9JsVariantngEv
	leaq	66824(%rsp), %rbx
	movsd	LCPI0_495(%rip), %xmm0  ## xmm0 = mem[0],zero
	movq	%rbx, %rdi
	callq	__ZN14altered_carbon2js9JsVariantaSEd
	leaq	23536(%rsp), %rdi
	movq	%rbx, %rsi
	callq	__ZN14altered_carbon2js9JsVariantngEv
	leaq	66768(%rsp), %rbx
	movsd	LCPI0_496(%rip), %xmm0  ## xmm0 = mem[0],zero
	movq	%rbx, %rdi
	callq	__ZN14altered_carbon2js9JsVariantaSEd
	leaq	23480(%rsp), %rdi
	movq	%rbx, %rsi
	callq	__ZN14altered_carbon2js9JsVariantngEv
	leaq	66712(%rsp), %rbx
	movsd	LCPI0_497(%rip), %xmm0  ## xmm0 = mem[0],zero
	movq	%rbx, %rdi
	callq	__ZN14altered_carbon2js9JsVariantaSEd
	leaq	23424(%rsp), %rdi
	movq	%rbx, %rsi
	callq	__ZN14altered_carbon2js9JsVariantngEv
	leaq	66656(%rsp), %rbx
	movsd	LCPI0_498(%rip), %xmm0  ## xmm0 = mem[0],zero
	movq	%rbx, %rdi
	callq	__ZN14altered_carbon2js9JsVariantaSEd
	leaq	23368(%rsp), %rdi
	movq	%rbx, %rsi
	callq	__ZN14altered_carbon2js9JsVariantngEv
	leaq	66600(%rsp), %rbx
	movsd	LCPI0_499(%rip), %xmm0  ## xmm0 = mem[0],zero
	movq	%rbx, %rdi
	callq	__ZN14altered_carbon2js9JsVariantaSEd
	leaq	23312(%rsp), %rdi
	movq	%rbx, %rsi
	callq	__ZN14altered_carbon2js9JsVariantngEv
	leaq	66544(%rsp), %rbx
	movsd	LCPI0_500(%rip), %xmm0  ## xmm0 = mem[0],zero
	movq	%rbx, %rdi
	callq	__ZN14altered_carbon2js9JsVariantaSEd
	leaq	23256(%rsp), %rdi
	movq	%rbx, %rsi
	callq	__ZN14altered_carbon2js9JsVariantngEv
	leaq	23200(%rsp), %rdi
	movsd	LCPI0_501(%rip), %xmm0  ## xmm0 = mem[0],zero
	callq	__ZN14altered_carbon2js9JsVariantaSEd
	leaq	66488(%rsp), %rbx
	movsd	LCPI0_502(%rip), %xmm0  ## xmm0 = mem[0],zero
	movq	%rbx, %rdi
	callq	__ZN14altered_carbon2js9JsVariantaSEd
	leaq	23144(%rsp), %rdi
	movq	%rbx, %rsi
	callq	__ZN14altered_carbon2js9JsVariantngEv
	leaq	66432(%rsp), %rbx
	movsd	LCPI0_503(%rip), %xmm0  ## xmm0 = mem[0],zero
	movq	%rbx, %rdi
	callq	__ZN14altered_carbon2js9JsVariantaSEd
	leaq	23088(%rsp), %rdi
	movq	%rbx, %rsi
	callq	__ZN14altered_carbon2js9JsVariantngEv
	leaq	66376(%rsp), %rbx
	movsd	LCPI0_504(%rip), %xmm0  ## xmm0 = mem[0],zero
	movq	%rbx, %rdi
	callq	__ZN14altered_carbon2js9JsVariantaSEd
	leaq	23032(%rsp), %rdi
	movq	%rbx, %rsi
	callq	__ZN14altered_carbon2js9JsVariantngEv
	leaq	66320(%rsp), %rbx
	movsd	LCPI0_505(%rip), %xmm0  ## xmm0 = mem[0],zero
	movq	%rbx, %rdi
	callq	__ZN14altered_carbon2js9JsVariantaSEd
	leaq	22976(%rsp), %rdi
	movq	%rbx, %rsi
	callq	__ZN14altered_carbon2js9JsVariantngEv
	leaq	66264(%rsp), %rbx
	movsd	LCPI0_506(%rip), %xmm0  ## xmm0 = mem[0],zero
	movq	%rbx, %rdi
	callq	__ZN14altered_carbon2js9JsVariantaSEd
	leaq	22920(%rsp), %rdi
	movq	%rbx, %rsi
	callq	__ZN14altered_carbon2js9JsVariantngEv
	leaq	66208(%rsp), %rbx
	movsd	LCPI0_507(%rip), %xmm0  ## xmm0 = mem[0],zero
	movq	%rbx, %rdi
	callq	__ZN14altered_carbon2js9JsVariantaSEd
	leaq	22864(%rsp), %rdi
	movq	%rbx, %rsi
	callq	__ZN14altered_carbon2js9JsVariantngEv
	leaq	22808(%rsp), %rdi
	movsd	LCPI0_508(%rip), %xmm0  ## xmm0 = mem[0],zero
	callq	__ZN14altered_carbon2js9JsVariantaSEd
	leaq	66152(%rsp), %rbx
	movsd	LCPI0_509(%rip), %xmm0  ## xmm0 = mem[0],zero
	movq	%rbx, %rdi
	callq	__ZN14altered_carbon2js9JsVariantaSEd
	leaq	22752(%rsp), %rdi
	movq	%rbx, %rsi
	callq	__ZN14altered_carbon2js9JsVariantngEv
	leaq	66096(%rsp), %rbx
	movsd	LCPI0_510(%rip), %xmm0  ## xmm0 = mem[0],zero
	movq	%rbx, %rdi
	callq	__ZN14altered_carbon2js9JsVariantaSEd
	leaq	22696(%rsp), %rdi
	movq	%rbx, %rsi
	callq	__ZN14altered_carbon2js9JsVariantngEv
	leaq	66040(%rsp), %rbx
	movsd	LCPI0_511(%rip), %xmm0  ## xmm0 = mem[0],zero
	movq	%rbx, %rdi
	callq	__ZN14altered_carbon2js9JsVariantaSEd
	leaq	22640(%rsp), %rdi
	movq	%rbx, %rsi
	callq	__ZN14altered_carbon2js9JsVariantngEv
	leaq	65984(%rsp), %rbx
	movsd	LCPI0_512(%rip), %xmm0  ## xmm0 = mem[0],zero
	movq	%rbx, %rdi
	callq	__ZN14altered_carbon2js9JsVariantaSEd
	leaq	22584(%rsp), %rdi
	movq	%rbx, %rsi
	callq	__ZN14altered_carbon2js9JsVariantngEv
	leaq	65928(%rsp), %rbx
	movsd	LCPI0_513(%rip), %xmm0  ## xmm0 = mem[0],zero
	movq	%rbx, %rdi
	callq	__ZN14altered_carbon2js9JsVariantaSEd
	leaq	22528(%rsp), %rdi
	movq	%rbx, %rsi
	callq	__ZN14altered_carbon2js9JsVariantngEv
	leaq	65872(%rsp), %rbx
	movsd	LCPI0_514(%rip), %xmm0  ## xmm0 = mem[0],zero
	movq	%rbx, %rdi
	callq	__ZN14altered_carbon2js9JsVariantaSEd
	leaq	22472(%rsp), %rdi
	movq	%rbx, %rsi
	callq	__ZN14altered_carbon2js9JsVariantngEv
	leaq	22416(%rsp), %rdi
	movsd	LCPI0_515(%rip), %xmm0  ## xmm0 = mem[0],zero
	callq	__ZN14altered_carbon2js9JsVariantaSEd
	leaq	65816(%rsp), %rbx
	movsd	LCPI0_516(%rip), %xmm0  ## xmm0 = mem[0],zero
	movq	%rbx, %rdi
	callq	__ZN14altered_carbon2js9JsVariantaSEd
	leaq	22360(%rsp), %rdi
	movq	%rbx, %rsi
	callq	__ZN14altered_carbon2js9JsVariantngEv
	leaq	65760(%rsp), %rbx
	movsd	LCPI0_517(%rip), %xmm0  ## xmm0 = mem[0],zero
	movq	%rbx, %rdi
	callq	__ZN14altered_carbon2js9JsVariantaSEd
	leaq	22304(%rsp), %rdi
	movq	%rbx, %rsi
	callq	__ZN14altered_carbon2js9JsVariantngEv
	leaq	65704(%rsp), %rbx
	movsd	LCPI0_518(%rip), %xmm0  ## xmm0 = mem[0],zero
	movq	%rbx, %rdi
	callq	__ZN14altered_carbon2js9JsVariantaSEd
	leaq	22248(%rsp), %rdi
	movq	%rbx, %rsi
	callq	__ZN14altered_carbon2js9JsVariantngEv
	leaq	65648(%rsp), %rbx
	movsd	LCPI0_519(%rip), %xmm0  ## xmm0 = mem[0],zero
	movq	%rbx, %rdi
	callq	__ZN14altered_carbon2js9JsVariantaSEd
	leaq	22192(%rsp), %rdi
	movq	%rbx, %rsi
	callq	__ZN14altered_carbon2js9JsVariantngEv
	leaq	65592(%rsp), %rbx
	movsd	LCPI0_520(%rip), %xmm0  ## xmm0 = mem[0],zero
	movq	%rbx, %rdi
	callq	__ZN14altered_carbon2js9JsVariantaSEd
	leaq	22136(%rsp), %rdi
	movq	%rbx, %rsi
	callq	__ZN14altered_carbon2js9JsVariantngEv
	leaq	65536(%rsp), %rbx
	movsd	LCPI0_521(%rip), %xmm0  ## xmm0 = mem[0],zero
	movq	%rbx, %rdi
	callq	__ZN14altered_carbon2js9JsVariantaSEd
	leaq	22080(%rsp), %rdi
	movq	%rbx, %rsi
	callq	__ZN14altered_carbon2js9JsVariantngEv
	leaq	65480(%rsp), %rbx
	movsd	LCPI0_522(%rip), %xmm0  ## xmm0 = mem[0],zero
	movq	%rbx, %rdi
	callq	__ZN14altered_carbon2js9JsVariantaSEd
	leaq	22024(%rsp), %rdi
	movq	%rbx, %rsi
	callq	__ZN14altered_carbon2js9JsVariantngEv
	leaq	65424(%rsp), %rbx
	movsd	LCPI0_523(%rip), %xmm0  ## xmm0 = mem[0],zero
	movq	%rbx, %rdi
	callq	__ZN14altered_carbon2js9JsVariantaSEd
	leaq	21968(%rsp), %rdi
	movq	%rbx, %rsi
	callq	__ZN14altered_carbon2js9JsVariantngEv
	leaq	21912(%rsp), %rdi
	movsd	LCPI0_524(%rip), %xmm0  ## xmm0 = mem[0],zero
	callq	__ZN14altered_carbon2js9JsVariantaSEd
	leaq	65368(%rsp), %rbx
	movsd	LCPI0_525(%rip), %xmm0  ## xmm0 = mem[0],zero
	movq	%rbx, %rdi
	callq	__ZN14altered_carbon2js9JsVariantaSEd
	leaq	21856(%rsp), %rdi
	movq	%rbx, %rsi
	callq	__ZN14altered_carbon2js9JsVariantngEv
	leaq	65312(%rsp), %rbx
	movsd	LCPI0_526(%rip), %xmm0  ## xmm0 = mem[0],zero
	movq	%rbx, %rdi
	callq	__ZN14altered_carbon2js9JsVariantaSEd
	leaq	21800(%rsp), %rdi
	movq	%rbx, %rsi
	callq	__ZN14altered_carbon2js9JsVariantngEv
	leaq	65256(%rsp), %rbx
	movsd	LCPI0_527(%rip), %xmm0  ## xmm0 = mem[0],zero
	movq	%rbx, %rdi
	callq	__ZN14altered_carbon2js9JsVariantaSEd
	leaq	21744(%rsp), %rdi
	movq	%rbx, %rsi
	callq	__ZN14altered_carbon2js9JsVariantngEv
	leaq	65200(%rsp), %rbx
	movsd	LCPI0_528(%rip), %xmm0  ## xmm0 = mem[0],zero
	movq	%rbx, %rdi
	callq	__ZN14altered_carbon2js9JsVariantaSEd
	leaq	21688(%rsp), %rdi
	movq	%rbx, %rsi
	callq	__ZN14altered_carbon2js9JsVariantngEv
	leaq	65144(%rsp), %rbx
	movsd	LCPI0_529(%rip), %xmm0  ## xmm0 = mem[0],zero
	movq	%rbx, %rdi
	callq	__ZN14altered_carbon2js9JsVariantaSEd
	leaq	21632(%rsp), %rdi
	movq	%rbx, %rsi
	callq	__ZN14altered_carbon2js9JsVariantngEv
	leaq	65088(%rsp), %rbx
	movsd	LCPI0_530(%rip), %xmm0  ## xmm0 = mem[0],zero
	movq	%rbx, %rdi
	callq	__ZN14altered_carbon2js9JsVariantaSEd
	leaq	21576(%rsp), %rdi
	movq	%rbx, %rsi
	callq	__ZN14altered_carbon2js9JsVariantngEv
	leaq	65032(%rsp), %rbx
	movsd	LCPI0_531(%rip), %xmm0  ## xmm0 = mem[0],zero
	movq	%rbx, %rdi
	callq	__ZN14altered_carbon2js9JsVariantaSEd
	leaq	21520(%rsp), %rdi
	movq	%rbx, %rsi
	callq	__ZN14altered_carbon2js9JsVariantngEv
	leaq	21464(%rsp), %rdi
	movsd	LCPI0_532(%rip), %xmm0  ## xmm0 = mem[0],zero
	callq	__ZN14altered_carbon2js9JsVariantaSEd
	leaq	64976(%rsp), %rbx
	movsd	LCPI0_533(%rip), %xmm0  ## xmm0 = mem[0],zero
	movq	%rbx, %rdi
	callq	__ZN14altered_carbon2js9JsVariantaSEd
	leaq	21408(%rsp), %rdi
	movq	%rbx, %rsi
	callq	__ZN14altered_carbon2js9JsVariantngEv
	leaq	64920(%rsp), %rbx
	movsd	LCPI0_534(%rip), %xmm0  ## xmm0 = mem[0],zero
	movq	%rbx, %rdi
	callq	__ZN14altered_carbon2js9JsVariantaSEd
	leaq	21352(%rsp), %rdi
	movq	%rbx, %rsi
	callq	__ZN14altered_carbon2js9JsVariantngEv
	leaq	21296(%rsp), %rdi
	movsd	LCPI0_535(%rip), %xmm0  ## xmm0 = mem[0],zero
	callq	__ZN14altered_carbon2js9JsVariantaSEd
	leaq	64864(%rsp), %rbx
	movsd	LCPI0_536(%rip), %xmm0  ## xmm0 = mem[0],zero
	movq	%rbx, %rdi
	callq	__ZN14altered_carbon2js9JsVariantaSEd
	leaq	21240(%rsp), %rdi
	movq	%rbx, %rsi
	callq	__ZN14altered_carbon2js9JsVariantngEv
	leaq	21184(%rsp), %rdi
	movsd	LCPI0_537(%rip), %xmm0  ## xmm0 = mem[0],zero
	callq	__ZN14altered_carbon2js9JsVariantaSEd
	leaq	64808(%rsp), %rbx
	movsd	LCPI0_538(%rip), %xmm0  ## xmm0 = mem[0],zero
	movq	%rbx, %rdi
	callq	__ZN14altered_carbon2js9JsVariantaSEd
	leaq	21128(%rsp), %rdi
	movq	%rbx, %rsi
	callq	__ZN14altered_carbon2js9JsVariantngEv
	leaq	64752(%rsp), %rbx
	movsd	LCPI0_539(%rip), %xmm0  ## xmm0 = mem[0],zero
	movq	%rbx, %rdi
	callq	__ZN14altered_carbon2js9JsVariantaSEd
	leaq	21072(%rsp), %rdi
	movq	%rbx, %rsi
	callq	__ZN14altered_carbon2js9JsVariantngEv
	leaq	64696(%rsp), %rbx
	movsd	LCPI0_540(%rip), %xmm0  ## xmm0 = mem[0],zero
	movq	%rbx, %rdi
	callq	__ZN14altered_carbon2js9JsVariantaSEd
	leaq	21016(%rsp), %rdi
	movq	%rbx, %rsi
	callq	__ZN14altered_carbon2js9JsVariantngEv
	leaq	64640(%rsp), %rbx
	movsd	LCPI0_541(%rip), %xmm0  ## xmm0 = mem[0],zero
	movq	%rbx, %rdi
	callq	__ZN14altered_carbon2js9JsVariantaSEd
	leaq	20960(%rsp), %rdi
	movq	%rbx, %rsi
	callq	__ZN14altered_carbon2js9JsVariantngEv
	leaq	64584(%rsp), %rbx
	movsd	LCPI0_542(%rip), %xmm0  ## xmm0 = mem[0],zero
	movq	%rbx, %rdi
	callq	__ZN14altered_carbon2js9JsVariantaSEd
	leaq	20904(%rsp), %rdi
	movq	%rbx, %rsi
	callq	__ZN14altered_carbon2js9JsVariantngEv
	leaq	64528(%rsp), %rbx
	movsd	LCPI0_543(%rip), %xmm0  ## xmm0 = mem[0],zero
	movq	%rbx, %rdi
	callq	__ZN14altered_carbon2js9JsVariantaSEd
	leaq	20848(%rsp), %rdi
	movq	%rbx, %rsi
	callq	__ZN14altered_carbon2js9JsVariantngEv
	leaq	64472(%rsp), %rbx
	movsd	LCPI0_544(%rip), %xmm0  ## xmm0 = mem[0],zero
	movq	%rbx, %rdi
	callq	__ZN14altered_carbon2js9JsVariantaSEd
	leaq	20792(%rsp), %rdi
	movq	%rbx, %rsi
	callq	__ZN14altered_carbon2js9JsVariantngEv
	leaq	64416(%rsp), %rbx
	movsd	LCPI0_545(%rip), %xmm0  ## xmm0 = mem[0],zero
	movq	%rbx, %rdi
	callq	__ZN14altered_carbon2js9JsVariantaSEd
	leaq	20736(%rsp), %rdi
	movq	%rbx, %rsi
	callq	__ZN14altered_carbon2js9JsVariantngEv
	leaq	64360(%rsp), %rbx
	movsd	LCPI0_546(%rip), %xmm0  ## xmm0 = mem[0],zero
	movq	%rbx, %rdi
	callq	__ZN14altered_carbon2js9JsVariantaSEd
	leaq	20680(%rsp), %rdi
	movq	%rbx, %rsi
	callq	__ZN14altered_carbon2js9JsVariantngEv
	leaq	64304(%rsp), %rbx
	movsd	LCPI0_547(%rip), %xmm0  ## xmm0 = mem[0],zero
	movq	%rbx, %rdi
	callq	__ZN14altered_carbon2js9JsVariantaSEd
	leaq	20624(%rsp), %rdi
	movq	%rbx, %rsi
	callq	__ZN14altered_carbon2js9JsVariantngEv
	leaq	64248(%rsp), %rbx
	movsd	LCPI0_548(%rip), %xmm0  ## xmm0 = mem[0],zero
	movq	%rbx, %rdi
	callq	__ZN14altered_carbon2js9JsVariantaSEd
	leaq	20568(%rsp), %rdi
	movq	%rbx, %rsi
	callq	__ZN14altered_carbon2js9JsVariantngEv
	leaq	64192(%rsp), %rbx
	movsd	LCPI0_549(%rip), %xmm0  ## xmm0 = mem[0],zero
	movq	%rbx, %rdi
	callq	__ZN14altered_carbon2js9JsVariantaSEd
	leaq	20512(%rsp), %rdi
	movq	%rbx, %rsi
	callq	__ZN14altered_carbon2js9JsVariantngEv
	leaq	64136(%rsp), %rbx
	movsd	LCPI0_550(%rip), %xmm0  ## xmm0 = mem[0],zero
	movq	%rbx, %rdi
	callq	__ZN14altered_carbon2js9JsVariantaSEd
	leaq	20456(%rsp), %rdi
	movq	%rbx, %rsi
	callq	__ZN14altered_carbon2js9JsVariantngEv
	leaq	64080(%rsp), %rbx
	movsd	LCPI0_551(%rip), %xmm0  ## xmm0 = mem[0],zero
	movq	%rbx, %rdi
	callq	__ZN14altered_carbon2js9JsVariantaSEd
	leaq	20400(%rsp), %rdi
	movq	%rbx, %rsi
	callq	__ZN14altered_carbon2js9JsVariantngEv
	leaq	64024(%rsp), %rbx
	movsd	LCPI0_552(%rip), %xmm0  ## xmm0 = mem[0],zero
	movq	%rbx, %rdi
	callq	__ZN14altered_carbon2js9JsVariantaSEd
	leaq	20344(%rsp), %rdi
	movq	%rbx, %rsi
	callq	__ZN14altered_carbon2js9JsVariantngEv
	leaq	63968(%rsp), %rbx
	movsd	LCPI0_553(%rip), %xmm0  ## xmm0 = mem[0],zero
	movq	%rbx, %rdi
	callq	__ZN14altered_carbon2js9JsVariantaSEd
	leaq	20288(%rsp), %rdi
	movq	%rbx, %rsi
	callq	__ZN14altered_carbon2js9JsVariantngEv
	leaq	63912(%rsp), %rbx
	movsd	LCPI0_554(%rip), %xmm0  ## xmm0 = mem[0],zero
	movq	%rbx, %rdi
	callq	__ZN14altered_carbon2js9JsVariantaSEd
	leaq	20232(%rsp), %rdi
	movq	%rbx, %rsi
	callq	__ZN14altered_carbon2js9JsVariantngEv
	leaq	63856(%rsp), %rbx
	movsd	LCPI0_555(%rip), %xmm0  ## xmm0 = mem[0],zero
	movq	%rbx, %rdi
	callq	__ZN14altered_carbon2js9JsVariantaSEd
	leaq	20176(%rsp), %rdi
	movq	%rbx, %rsi
	callq	__ZN14altered_carbon2js9JsVariantngEv
	leaq	63800(%rsp), %rbx
	movsd	LCPI0_556(%rip), %xmm0  ## xmm0 = mem[0],zero
	movq	%rbx, %rdi
	callq	__ZN14altered_carbon2js9JsVariantaSEd
	leaq	20120(%rsp), %rdi
	movq	%rbx, %rsi
	callq	__ZN14altered_carbon2js9JsVariantngEv
	leaq	63744(%rsp), %rbx
	movsd	LCPI0_557(%rip), %xmm0  ## xmm0 = mem[0],zero
	movq	%rbx, %rdi
	callq	__ZN14altered_carbon2js9JsVariantaSEd
	leaq	20064(%rsp), %rdi
	movq	%rbx, %rsi
	callq	__ZN14altered_carbon2js9JsVariantngEv
	leaq	63688(%rsp), %rbx
	movsd	LCPI0_558(%rip), %xmm0  ## xmm0 = mem[0],zero
	movq	%rbx, %rdi
	callq	__ZN14altered_carbon2js9JsVariantaSEd
	leaq	20008(%rsp), %rdi
	movq	%rbx, %rsi
	callq	__ZN14altered_carbon2js9JsVariantngEv
	leaq	63632(%rsp), %rbx
	movsd	LCPI0_559(%rip), %xmm0  ## xmm0 = mem[0],zero
	movq	%rbx, %rdi
	callq	__ZN14altered_carbon2js9JsVariantaSEd
	leaq	19952(%rsp), %rdi
	movq	%rbx, %rsi
	callq	__ZN14altered_carbon2js9JsVariantngEv
	leaq	63576(%rsp), %rbx
	movsd	LCPI0_560(%rip), %xmm0  ## xmm0 = mem[0],zero
	movq	%rbx, %rdi
	callq	__ZN14altered_carbon2js9JsVariantaSEd
	leaq	19896(%rsp), %rdi
	movq	%rbx, %rsi
	callq	__ZN14altered_carbon2js9JsVariantngEv
	leaq	63520(%rsp), %rbx
	movsd	LCPI0_561(%rip), %xmm0  ## xmm0 = mem[0],zero
	movq	%rbx, %rdi
	callq	__ZN14altered_carbon2js9JsVariantaSEd
	leaq	19840(%rsp), %rdi
	movq	%rbx, %rsi
	callq	__ZN14altered_carbon2js9JsVariantngEv
	leaq	63464(%rsp), %rbx
	movsd	LCPI0_562(%rip), %xmm0  ## xmm0 = mem[0],zero
	movq	%rbx, %rdi
	callq	__ZN14altered_carbon2js9JsVariantaSEd
	leaq	19784(%rsp), %rdi
	movq	%rbx, %rsi
	callq	__ZN14altered_carbon2js9JsVariantngEv
	leaq	63408(%rsp), %rbx
	movsd	LCPI0_563(%rip), %xmm0  ## xmm0 = mem[0],zero
	movq	%rbx, %rdi
	callq	__ZN14altered_carbon2js9JsVariantaSEd
	leaq	19728(%rsp), %rdi
	movq	%rbx, %rsi
	callq	__ZN14altered_carbon2js9JsVariantngEv
	leaq	63352(%rsp), %rbx
	movsd	LCPI0_564(%rip), %xmm0  ## xmm0 = mem[0],zero
	movq	%rbx, %rdi
	callq	__ZN14altered_carbon2js9JsVariantaSEd
	leaq	19672(%rsp), %rdi
	movq	%rbx, %rsi
	callq	__ZN14altered_carbon2js9JsVariantngEv
	leaq	63296(%rsp), %rbx
	movsd	LCPI0_565(%rip), %xmm0  ## xmm0 = mem[0],zero
	movq	%rbx, %rdi
	callq	__ZN14altered_carbon2js9JsVariantaSEd
	leaq	19616(%rsp), %rdi
	movq	%rbx, %rsi
	callq	__ZN14altered_carbon2js9JsVariantngEv
	leaq	63240(%rsp), %rbx
	movsd	LCPI0_566(%rip), %xmm0  ## xmm0 = mem[0],zero
	movq	%rbx, %rdi
	callq	__ZN14altered_carbon2js9JsVariantaSEd
	leaq	19560(%rsp), %rdi
	movq	%rbx, %rsi
	callq	__ZN14altered_carbon2js9JsVariantngEv
	leaq	63184(%rsp), %rbx
	movsd	LCPI0_567(%rip), %xmm0  ## xmm0 = mem[0],zero
	movq	%rbx, %rdi
	callq	__ZN14altered_carbon2js9JsVariantaSEd
	leaq	19504(%rsp), %rdi
	movq	%rbx, %rsi
	callq	__ZN14altered_carbon2js9JsVariantngEv
	leaq	63128(%rsp), %rbx
	movsd	LCPI0_568(%rip), %xmm0  ## xmm0 = mem[0],zero
	movq	%rbx, %rdi
	callq	__ZN14altered_carbon2js9JsVariantaSEd
	leaq	19448(%rsp), %rdi
	movq	%rbx, %rsi
	callq	__ZN14altered_carbon2js9JsVariantngEv
	leaq	63072(%rsp), %rbx
	movsd	LCPI0_569(%rip), %xmm0  ## xmm0 = mem[0],zero
	movq	%rbx, %rdi
	callq	__ZN14altered_carbon2js9JsVariantaSEd
	leaq	19392(%rsp), %rdi
	movq	%rbx, %rsi
	callq	__ZN14altered_carbon2js9JsVariantngEv
	leaq	63016(%rsp), %rbx
	movsd	LCPI0_570(%rip), %xmm0  ## xmm0 = mem[0],zero
	movq	%rbx, %rdi
	callq	__ZN14altered_carbon2js9JsVariantaSEd
	leaq	19336(%rsp), %rdi
	movq	%rbx, %rsi
	callq	__ZN14altered_carbon2js9JsVariantngEv
	leaq	62960(%rsp), %rbx
	movsd	LCPI0_571(%rip), %xmm0  ## xmm0 = mem[0],zero
	movq	%rbx, %rdi
	callq	__ZN14altered_carbon2js9JsVariantaSEd
	leaq	19280(%rsp), %rdi
	movq	%rbx, %rsi
	callq	__ZN14altered_carbon2js9JsVariantngEv
	leaq	62904(%rsp), %rbx
	movsd	LCPI0_572(%rip), %xmm0  ## xmm0 = mem[0],zero
	movq	%rbx, %rdi
	callq	__ZN14altered_carbon2js9JsVariantaSEd
	leaq	19224(%rsp), %rdi
	movq	%rbx, %rsi
	callq	__ZN14altered_carbon2js9JsVariantngEv
	leaq	62848(%rsp), %rbx
	movsd	LCPI0_573(%rip), %xmm0  ## xmm0 = mem[0],zero
	movq	%rbx, %rdi
	callq	__ZN14altered_carbon2js9JsVariantaSEd
	leaq	19168(%rsp), %rdi
	movq	%rbx, %rsi
	callq	__ZN14altered_carbon2js9JsVariantngEv
	leaq	62792(%rsp), %rbx
	movsd	LCPI0_574(%rip), %xmm0  ## xmm0 = mem[0],zero
	movq	%rbx, %rdi
	callq	__ZN14altered_carbon2js9JsVariantaSEd
	leaq	19112(%rsp), %rdi
	movq	%rbx, %rsi
	callq	__ZN14altered_carbon2js9JsVariantngEv
	leaq	62736(%rsp), %rbx
	movsd	LCPI0_575(%rip), %xmm0  ## xmm0 = mem[0],zero
	movq	%rbx, %rdi
	callq	__ZN14altered_carbon2js9JsVariantaSEd
	leaq	19056(%rsp), %rdi
	movq	%rbx, %rsi
	callq	__ZN14altered_carbon2js9JsVariantngEv
	leaq	62680(%rsp), %rbx
	movsd	LCPI0_576(%rip), %xmm0  ## xmm0 = mem[0],zero
	movq	%rbx, %rdi
	callq	__ZN14altered_carbon2js9JsVariantaSEd
	leaq	19000(%rsp), %rdi
	movq	%rbx, %rsi
	callq	__ZN14altered_carbon2js9JsVariantngEv
	leaq	62624(%rsp), %rbx
	movsd	LCPI0_577(%rip), %xmm0  ## xmm0 = mem[0],zero
	movq	%rbx, %rdi
	callq	__ZN14altered_carbon2js9JsVariantaSEd
	leaq	18944(%rsp), %rdi
	movq	%rbx, %rsi
	callq	__ZN14altered_carbon2js9JsVariantngEv
	leaq	62568(%rsp), %rbx
	movsd	LCPI0_578(%rip), %xmm0  ## xmm0 = mem[0],zero
	movq	%rbx, %rdi
	callq	__ZN14altered_carbon2js9JsVariantaSEd
	leaq	18888(%rsp), %rdi
	movq	%rbx, %rsi
	callq	__ZN14altered_carbon2js9JsVariantngEv
	leaq	62512(%rsp), %rbx
	movsd	LCPI0_579(%rip), %xmm0  ## xmm0 = mem[0],zero
	movq	%rbx, %rdi
	callq	__ZN14altered_carbon2js9JsVariantaSEd
	leaq	18832(%rsp), %rdi
	movq	%rbx, %rsi
	callq	__ZN14altered_carbon2js9JsVariantngEv
	leaq	62456(%rsp), %rbx
	movsd	LCPI0_580(%rip), %xmm0  ## xmm0 = mem[0],zero
	movq	%rbx, %rdi
	callq	__ZN14altered_carbon2js9JsVariantaSEd
	leaq	18776(%rsp), %rdi
	movq	%rbx, %rsi
	callq	__ZN14altered_carbon2js9JsVariantngEv
	leaq	62400(%rsp), %rbx
	movsd	LCPI0_581(%rip), %xmm0  ## xmm0 = mem[0],zero
	movq	%rbx, %rdi
	callq	__ZN14altered_carbon2js9JsVariantaSEd
	leaq	18720(%rsp), %rdi
	movq	%rbx, %rsi
	callq	__ZN14altered_carbon2js9JsVariantngEv
	leaq	18664(%rsp), %rdi
	movsd	LCPI0_582(%rip), %xmm0  ## xmm0 = mem[0],zero
	callq	__ZN14altered_carbon2js9JsVariantaSEd
	leaq	62344(%rsp), %rbx
	movsd	LCPI0_583(%rip), %xmm0  ## xmm0 = mem[0],zero
	movq	%rbx, %rdi
	callq	__ZN14altered_carbon2js9JsVariantaSEd
	leaq	18608(%rsp), %rdi
	movq	%rbx, %rsi
	callq	__ZN14altered_carbon2js9JsVariantngEv
	leaq	18552(%rsp), %rdi
	movsd	LCPI0_584(%rip), %xmm0  ## xmm0 = mem[0],zero
	callq	__ZN14altered_carbon2js9JsVariantaSEd
	leaq	62288(%rsp), %rbx
	movsd	LCPI0_585(%rip), %xmm0  ## xmm0 = mem[0],zero
	movq	%rbx, %rdi
	callq	__ZN14altered_carbon2js9JsVariantaSEd
	leaq	18496(%rsp), %rdi
	movq	%rbx, %rsi
	callq	__ZN14altered_carbon2js9JsVariantngEv
	leaq	62232(%rsp), %rbx
	movsd	LCPI0_586(%rip), %xmm0  ## xmm0 = mem[0],zero
	movq	%rbx, %rdi
	callq	__ZN14altered_carbon2js9JsVariantaSEd
	leaq	18440(%rsp), %rdi
	movq	%rbx, %rsi
	callq	__ZN14altered_carbon2js9JsVariantngEv
	leaq	62176(%rsp), %rbx
	movsd	LCPI0_587(%rip), %xmm0  ## xmm0 = mem[0],zero
	movq	%rbx, %rdi
	callq	__ZN14altered_carbon2js9JsVariantaSEd
	leaq	18384(%rsp), %rdi
	movq	%rbx, %rsi
	callq	__ZN14altered_carbon2js9JsVariantngEv
	leaq	18328(%rsp), %rdi
	movsd	LCPI0_588(%rip), %xmm0  ## xmm0 = mem[0],zero
	callq	__ZN14altered_carbon2js9JsVariantaSEd
	leaq	62120(%rsp), %rbx
	movsd	LCPI0_589(%rip), %xmm0  ## xmm0 = mem[0],zero
	movq	%rbx, %rdi
	callq	__ZN14altered_carbon2js9JsVariantaSEd
	leaq	18272(%rsp), %rdi
	movq	%rbx, %rsi
	callq	__ZN14altered_carbon2js9JsVariantngEv
	leaq	62064(%rsp), %rbx
	movsd	LCPI0_590(%rip), %xmm0  ## xmm0 = mem[0],zero
	movq	%rbx, %rdi
	callq	__ZN14altered_carbon2js9JsVariantaSEd
	leaq	18216(%rsp), %rdi
	movq	%rbx, %rsi
	callq	__ZN14altered_carbon2js9JsVariantngEv
	leaq	62008(%rsp), %rbx
	movsd	LCPI0_591(%rip), %xmm0  ## xmm0 = mem[0],zero
	movq	%rbx, %rdi
	callq	__ZN14altered_carbon2js9JsVariantaSEd
	leaq	18160(%rsp), %rdi
	movq	%rbx, %rsi
	callq	__ZN14altered_carbon2js9JsVariantngEv
	leaq	61952(%rsp), %rbx
	movsd	LCPI0_592(%rip), %xmm0  ## xmm0 = mem[0],zero
	movq	%rbx, %rdi
	callq	__ZN14altered_carbon2js9JsVariantaSEd
	leaq	18104(%rsp), %rdi
	movq	%rbx, %rsi
	callq	__ZN14altered_carbon2js9JsVariantngEv
	leaq	61896(%rsp), %rbx
	movsd	LCPI0_593(%rip), %xmm0  ## xmm0 = mem[0],zero
	movq	%rbx, %rdi
	callq	__ZN14altered_carbon2js9JsVariantaSEd
	leaq	18048(%rsp), %rdi
	movq	%rbx, %rsi
	callq	__ZN14altered_carbon2js9JsVariantngEv
	leaq	61840(%rsp), %rbx
	movsd	LCPI0_594(%rip), %xmm0  ## xmm0 = mem[0],zero
	movq	%rbx, %rdi
	callq	__ZN14altered_carbon2js9JsVariantaSEd
	leaq	17992(%rsp), %rdi
	movq	%rbx, %rsi
	callq	__ZN14altered_carbon2js9JsVariantngEv
	leaq	61784(%rsp), %rbx
	movsd	LCPI0_595(%rip), %xmm0  ## xmm0 = mem[0],zero
	movq	%rbx, %rdi
	callq	__ZN14altered_carbon2js9JsVariantaSEd
	leaq	17936(%rsp), %rdi
	movq	%rbx, %rsi
	callq	__ZN14altered_carbon2js9JsVariantngEv
	leaq	61728(%rsp), %rbx
	movsd	LCPI0_596(%rip), %xmm0  ## xmm0 = mem[0],zero
	movq	%rbx, %rdi
	callq	__ZN14altered_carbon2js9JsVariantaSEd
	leaq	17880(%rsp), %rdi
	movq	%rbx, %rsi
	callq	__ZN14altered_carbon2js9JsVariantngEv
	leaq	61672(%rsp), %rbx
	movsd	LCPI0_597(%rip), %xmm0  ## xmm0 = mem[0],zero
	movq	%rbx, %rdi
	callq	__ZN14altered_carbon2js9JsVariantaSEd
	leaq	17824(%rsp), %rdi
	movq	%rbx, %rsi
	callq	__ZN14altered_carbon2js9JsVariantngEv
	leaq	61616(%rsp), %rbx
	movsd	LCPI0_598(%rip), %xmm0  ## xmm0 = mem[0],zero
	movq	%rbx, %rdi
	callq	__ZN14altered_carbon2js9JsVariantaSEd
	leaq	17768(%rsp), %rdi
	movq	%rbx, %rsi
	callq	__ZN14altered_carbon2js9JsVariantngEv
	leaq	61560(%rsp), %rbx
	movsd	LCPI0_599(%rip), %xmm0  ## xmm0 = mem[0],zero
	movq	%rbx, %rdi
	callq	__ZN14altered_carbon2js9JsVariantaSEd
	leaq	17712(%rsp), %rdi
	movq	%rbx, %rsi
	callq	__ZN14altered_carbon2js9JsVariantngEv
	leaq	61504(%rsp), %rbx
	movsd	LCPI0_600(%rip), %xmm0  ## xmm0 = mem[0],zero
	movq	%rbx, %rdi
	callq	__ZN14altered_carbon2js9JsVariantaSEd
	leaq	17656(%rsp), %rdi
	movq	%rbx, %rsi
	callq	__ZN14altered_carbon2js9JsVariantngEv
	leaq	61448(%rsp), %rbx
	movsd	LCPI0_601(%rip), %xmm0  ## xmm0 = mem[0],zero
	movq	%rbx, %rdi
	callq	__ZN14altered_carbon2js9JsVariantaSEd
	leaq	17600(%rsp), %rdi
	movq	%rbx, %rsi
	callq	__ZN14altered_carbon2js9JsVariantngEv
	leaq	61392(%rsp), %rbx
	movsd	LCPI0_602(%rip), %xmm0  ## xmm0 = mem[0],zero
	movq	%rbx, %rdi
	callq	__ZN14altered_carbon2js9JsVariantaSEd
	leaq	17544(%rsp), %rdi
	movq	%rbx, %rsi
	callq	__ZN14altered_carbon2js9JsVariantngEv
	leaq	17488(%rsp), %rdi
	movsd	LCPI0_603(%rip), %xmm0  ## xmm0 = mem[0],zero
	callq	__ZN14altered_carbon2js9JsVariantaSEd
	leaq	61336(%rsp), %rbx
	movsd	LCPI0_604(%rip), %xmm0  ## xmm0 = mem[0],zero
	movq	%rbx, %rdi
	callq	__ZN14altered_carbon2js9JsVariantaSEd
	leaq	17432(%rsp), %rdi
	movq	%rbx, %rsi
	callq	__ZN14altered_carbon2js9JsVariantngEv
	leaq	61280(%rsp), %rbx
	movsd	LCPI0_605(%rip), %xmm0  ## xmm0 = mem[0],zero
	movq	%rbx, %rdi
	callq	__ZN14altered_carbon2js9JsVariantaSEd
	leaq	17376(%rsp), %rdi
	movq	%rbx, %rsi
	callq	__ZN14altered_carbon2js9JsVariantngEv
	leaq	61224(%rsp), %rbx
	movsd	LCPI0_606(%rip), %xmm0  ## xmm0 = mem[0],zero
	movq	%rbx, %rdi
	callq	__ZN14altered_carbon2js9JsVariantaSEd
	leaq	17320(%rsp), %rdi
	movq	%rbx, %rsi
	callq	__ZN14altered_carbon2js9JsVariantngEv
	leaq	17264(%rsp), %rdi
	movsd	LCPI0_607(%rip), %xmm0  ## xmm0 = mem[0],zero
	callq	__ZN14altered_carbon2js9JsVariantaSEd
	leaq	61168(%rsp), %rbx
	movsd	LCPI0_608(%rip), %xmm0  ## xmm0 = mem[0],zero
	movq	%rbx, %rdi
	callq	__ZN14altered_carbon2js9JsVariantaSEd
	leaq	17208(%rsp), %rdi
	movq	%rbx, %rsi
	callq	__ZN14altered_carbon2js9JsVariantngEv
	leaq	61112(%rsp), %rbx
	movsd	LCPI0_609(%rip), %xmm0  ## xmm0 = mem[0],zero
	movq	%rbx, %rdi
	callq	__ZN14altered_carbon2js9JsVariantaSEd
	leaq	17152(%rsp), %rdi
	movq	%rbx, %rsi
	callq	__ZN14altered_carbon2js9JsVariantngEv
	leaq	61056(%rsp), %rbx
	movsd	LCPI0_610(%rip), %xmm0  ## xmm0 = mem[0],zero
	movq	%rbx, %rdi
	callq	__ZN14altered_carbon2js9JsVariantaSEd
	leaq	17096(%rsp), %rdi
	movq	%rbx, %rsi
	callq	__ZN14altered_carbon2js9JsVariantngEv
	leaq	61000(%rsp), %rbx
	movsd	LCPI0_611(%rip), %xmm0  ## xmm0 = mem[0],zero
	movq	%rbx, %rdi
	callq	__ZN14altered_carbon2js9JsVariantaSEd
	leaq	17040(%rsp), %rdi
	movq	%rbx, %rsi
	callq	__ZN14altered_carbon2js9JsVariantngEv
	leaq	60944(%rsp), %rbx
	movsd	LCPI0_612(%rip), %xmm0  ## xmm0 = mem[0],zero
	movq	%rbx, %rdi
	callq	__ZN14altered_carbon2js9JsVariantaSEd
	leaq	16984(%rsp), %rdi
	movq	%rbx, %rsi
	callq	__ZN14altered_carbon2js9JsVariantngEv
	leaq	60888(%rsp), %rbx
	movsd	LCPI0_613(%rip), %xmm0  ## xmm0 = mem[0],zero
	movq	%rbx, %rdi
	callq	__ZN14altered_carbon2js9JsVariantaSEd
	leaq	16928(%rsp), %rdi
	movq	%rbx, %rsi
	callq	__ZN14altered_carbon2js9JsVariantngEv
	leaq	60832(%rsp), %rbx
	movsd	LCPI0_614(%rip), %xmm0  ## xmm0 = mem[0],zero
	movq	%rbx, %rdi
	callq	__ZN14altered_carbon2js9JsVariantaSEd
	leaq	16872(%rsp), %rdi
	movq	%rbx, %rsi
	callq	__ZN14altered_carbon2js9JsVariantngEv
	leaq	60776(%rsp), %rbx
	movsd	LCPI0_615(%rip), %xmm0  ## xmm0 = mem[0],zero
	movq	%rbx, %rdi
	callq	__ZN14altered_carbon2js9JsVariantaSEd
	leaq	16816(%rsp), %rdi
	movq	%rbx, %rsi
	callq	__ZN14altered_carbon2js9JsVariantngEv
	leaq	60720(%rsp), %rbx
	movsd	LCPI0_616(%rip), %xmm0  ## xmm0 = mem[0],zero
	movq	%rbx, %rdi
	callq	__ZN14altered_carbon2js9JsVariantaSEd
	leaq	16760(%rsp), %rdi
	movq	%rbx, %rsi
	callq	__ZN14altered_carbon2js9JsVariantngEv
	leaq	60664(%rsp), %rbx
	movsd	LCPI0_617(%rip), %xmm0  ## xmm0 = mem[0],zero
	movq	%rbx, %rdi
	callq	__ZN14altered_carbon2js9JsVariantaSEd
	leaq	16704(%rsp), %rdi
	movq	%rbx, %rsi
	callq	__ZN14altered_carbon2js9JsVariantngEv
	leaq	60608(%rsp), %rbx
	movsd	LCPI0_618(%rip), %xmm0  ## xmm0 = mem[0],zero
	movq	%rbx, %rdi
	callq	__ZN14altered_carbon2js9JsVariantaSEd
	leaq	16648(%rsp), %rdi
	movq	%rbx, %rsi
	callq	__ZN14altered_carbon2js9JsVariantngEv
	leaq	60552(%rsp), %rbx
	movsd	LCPI0_619(%rip), %xmm0  ## xmm0 = mem[0],zero
	movq	%rbx, %rdi
	callq	__ZN14altered_carbon2js9JsVariantaSEd
	leaq	16592(%rsp), %rdi
	movq	%rbx, %rsi
	callq	__ZN14altered_carbon2js9JsVariantngEv
	leaq	60496(%rsp), %rbx
	movsd	LCPI0_620(%rip), %xmm0  ## xmm0 = mem[0],zero
	movq	%rbx, %rdi
	callq	__ZN14altered_carbon2js9JsVariantaSEd
	leaq	16536(%rsp), %rdi
	movq	%rbx, %rsi
	callq	__ZN14altered_carbon2js9JsVariantngEv
	leaq	60440(%rsp), %rbx
	movsd	LCPI0_621(%rip), %xmm0  ## xmm0 = mem[0],zero
	movq	%rbx, %rdi
	callq	__ZN14altered_carbon2js9JsVariantaSEd
	leaq	16480(%rsp), %rdi
	movq	%rbx, %rsi
	callq	__ZN14altered_carbon2js9JsVariantngEv
	leaq	60384(%rsp), %rbx
	movsd	LCPI0_622(%rip), %xmm0  ## xmm0 = mem[0],zero
	movq	%rbx, %rdi
	callq	__ZN14altered_carbon2js9JsVariantaSEd
	leaq	16424(%rsp), %rdi
	movq	%rbx, %rsi
	callq	__ZN14altered_carbon2js9JsVariantngEv
	leaq	60328(%rsp), %rbx
	movsd	LCPI0_623(%rip), %xmm0  ## xmm0 = mem[0],zero
	movq	%rbx, %rdi
	callq	__ZN14altered_carbon2js9JsVariantaSEd
	leaq	16368(%rsp), %rdi
	movq	%rbx, %rsi
	callq	__ZN14altered_carbon2js9JsVariantngEv
	leaq	60272(%rsp), %rbx
	movsd	LCPI0_624(%rip), %xmm0  ## xmm0 = mem[0],zero
	movq	%rbx, %rdi
	callq	__ZN14altered_carbon2js9JsVariantaSEd
	leaq	16312(%rsp), %rdi
	movq	%rbx, %rsi
	callq	__ZN14altered_carbon2js9JsVariantngEv
	leaq	16256(%rsp), %rdi
	movsd	LCPI0_625(%rip), %xmm0  ## xmm0 = mem[0],zero
	callq	__ZN14altered_carbon2js9JsVariantaSEd
	leaq	60216(%rsp), %rbx
	movsd	LCPI0_626(%rip), %xmm0  ## xmm0 = mem[0],zero
	movq	%rbx, %rdi
	callq	__ZN14altered_carbon2js9JsVariantaSEd
	leaq	16200(%rsp), %rdi
	movq	%rbx, %rsi
	callq	__ZN14altered_carbon2js9JsVariantngEv
	leaq	60160(%rsp), %rbx
	movsd	LCPI0_627(%rip), %xmm0  ## xmm0 = mem[0],zero
	movq	%rbx, %rdi
	callq	__ZN14altered_carbon2js9JsVariantaSEd
	leaq	16144(%rsp), %rdi
	movq	%rbx, %rsi
	callq	__ZN14altered_carbon2js9JsVariantngEv
	leaq	60104(%rsp), %rbx
	movsd	LCPI0_628(%rip), %xmm0  ## xmm0 = mem[0],zero
	movq	%rbx, %rdi
	callq	__ZN14altered_carbon2js9JsVariantaSEd
	leaq	16088(%rsp), %rdi
	movq	%rbx, %rsi
	callq	__ZN14altered_carbon2js9JsVariantngEv
	leaq	60048(%rsp), %rbx
	movsd	LCPI0_629(%rip), %xmm0  ## xmm0 = mem[0],zero
	movq	%rbx, %rdi
	callq	__ZN14altered_carbon2js9JsVariantaSEd
	leaq	16032(%rsp), %rdi
	movq	%rbx, %rsi
	callq	__ZN14altered_carbon2js9JsVariantngEv
	leaq	59992(%rsp), %rbx
	movsd	LCPI0_630(%rip), %xmm0  ## xmm0 = mem[0],zero
	movq	%rbx, %rdi
	callq	__ZN14altered_carbon2js9JsVariantaSEd
	leaq	15976(%rsp), %rdi
	movq	%rbx, %rsi
	callq	__ZN14altered_carbon2js9JsVariantngEv
	leaq	59936(%rsp), %rbx
	movsd	LCPI0_631(%rip), %xmm0  ## xmm0 = mem[0],zero
	movq	%rbx, %rdi
	callq	__ZN14altered_carbon2js9JsVariantaSEd
	leaq	15920(%rsp), %rdi
	movq	%rbx, %rsi
	callq	__ZN14altered_carbon2js9JsVariantngEv
	leaq	59880(%rsp), %rbx
	movsd	LCPI0_632(%rip), %xmm0  ## xmm0 = mem[0],zero
	movq	%rbx, %rdi
	callq	__ZN14altered_carbon2js9JsVariantaSEd
	leaq	15864(%rsp), %rdi
	movq	%rbx, %rsi
	callq	__ZN14altered_carbon2js9JsVariantngEv
	leaq	15808(%rsp), %rdi
	movsd	LCPI0_633(%rip), %xmm0  ## xmm0 = mem[0],zero
	callq	__ZN14altered_carbon2js9JsVariantaSEd
	leaq	15752(%rsp), %rdi
	movsd	LCPI0_634(%rip), %xmm0  ## xmm0 = mem[0],zero
	callq	__ZN14altered_carbon2js9JsVariantaSEd
	leaq	59824(%rsp), %rbx
	movsd	LCPI0_635(%rip), %xmm0  ## xmm0 = mem[0],zero
	movq	%rbx, %rdi
	callq	__ZN14altered_carbon2js9JsVariantaSEd
	leaq	15696(%rsp), %rdi
	movq	%rbx, %rsi
	callq	__ZN14altered_carbon2js9JsVariantngEv
	leaq	59768(%rsp), %rbx
	movsd	LCPI0_636(%rip), %xmm0  ## xmm0 = mem[0],zero
	movq	%rbx, %rdi
	callq	__ZN14altered_carbon2js9JsVariantaSEd
	leaq	15640(%rsp), %rdi
	movq	%rbx, %rsi
	callq	__ZN14altered_carbon2js9JsVariantngEv
	leaq	59712(%rsp), %rbx
	movsd	LCPI0_637(%rip), %xmm0  ## xmm0 = mem[0],zero
	movq	%rbx, %rdi
	callq	__ZN14altered_carbon2js9JsVariantaSEd
	leaq	15584(%rsp), %rdi
	movq	%rbx, %rsi
	callq	__ZN14altered_carbon2js9JsVariantngEv
	leaq	59656(%rsp), %rbx
	movsd	LCPI0_638(%rip), %xmm0  ## xmm0 = mem[0],zero
	movq	%rbx, %rdi
	callq	__ZN14altered_carbon2js9JsVariantaSEd
	leaq	15528(%rsp), %rdi
	movq	%rbx, %rsi
	callq	__ZN14altered_carbon2js9JsVariantngEv
	leaq	59600(%rsp), %rbx
	movsd	LCPI0_639(%rip), %xmm0  ## xmm0 = mem[0],zero
	movq	%rbx, %rdi
	callq	__ZN14altered_carbon2js9JsVariantaSEd
	leaq	15472(%rsp), %rdi
	movq	%rbx, %rsi
	callq	__ZN14altered_carbon2js9JsVariantngEv
	leaq	59544(%rsp), %rbx
	movsd	LCPI0_640(%rip), %xmm0  ## xmm0 = mem[0],zero
	movq	%rbx, %rdi
	callq	__ZN14altered_carbon2js9JsVariantaSEd
	leaq	15416(%rsp), %rdi
	movq	%rbx, %rsi
	callq	__ZN14altered_carbon2js9JsVariantngEv
	leaq	59488(%rsp), %rbx
	movsd	LCPI0_641(%rip), %xmm0  ## xmm0 = mem[0],zero
	movq	%rbx, %rdi
	callq	__ZN14altered_carbon2js9JsVariantaSEd
	leaq	15360(%rsp), %rdi
	movq	%rbx, %rsi
	callq	__ZN14altered_carbon2js9JsVariantngEv
	leaq	59432(%rsp), %rbx
	movsd	LCPI0_642(%rip), %xmm0  ## xmm0 = mem[0],zero
	movq	%rbx, %rdi
	callq	__ZN14altered_carbon2js9JsVariantaSEd
	leaq	15304(%rsp), %rdi
	movq	%rbx, %rsi
	callq	__ZN14altered_carbon2js9JsVariantngEv
	leaq	59376(%rsp), %rbx
	movsd	LCPI0_643(%rip), %xmm0  ## xmm0 = mem[0],zero
	movq	%rbx, %rdi
	callq	__ZN14altered_carbon2js9JsVariantaSEd
	leaq	15248(%rsp), %rdi
	movq	%rbx, %rsi
	callq	__ZN14altered_carbon2js9JsVariantngEv
	leaq	59320(%rsp), %rbx
	movsd	LCPI0_644(%rip), %xmm0  ## xmm0 = mem[0],zero
	movq	%rbx, %rdi
	callq	__ZN14altered_carbon2js9JsVariantaSEd
	leaq	15192(%rsp), %rdi
	movq	%rbx, %rsi
	callq	__ZN14altered_carbon2js9JsVariantngEv
	leaq	59264(%rsp), %rbx
	movsd	LCPI0_645(%rip), %xmm0  ## xmm0 = mem[0],zero
	movq	%rbx, %rdi
	callq	__ZN14altered_carbon2js9JsVariantaSEd
	leaq	15136(%rsp), %rdi
	movq	%rbx, %rsi
	callq	__ZN14altered_carbon2js9JsVariantngEv
	leaq	59208(%rsp), %rbx
	movsd	LCPI0_646(%rip), %xmm0  ## xmm0 = mem[0],zero
	movq	%rbx, %rdi
	callq	__ZN14altered_carbon2js9JsVariantaSEd
	leaq	15080(%rsp), %rdi
	movq	%rbx, %rsi
	callq	__ZN14altered_carbon2js9JsVariantngEv
	leaq	59152(%rsp), %rbx
	movsd	LCPI0_647(%rip), %xmm0  ## xmm0 = mem[0],zero
	movq	%rbx, %rdi
	callq	__ZN14altered_carbon2js9JsVariantaSEd
	leaq	15024(%rsp), %rdi
	movq	%rbx, %rsi
	callq	__ZN14altered_carbon2js9JsVariantngEv
	leaq	59096(%rsp), %rbx
	movsd	LCPI0_648(%rip), %xmm0  ## xmm0 = mem[0],zero
	movq	%rbx, %rdi
	callq	__ZN14altered_carbon2js9JsVariantaSEd
	leaq	14968(%rsp), %rdi
	movq	%rbx, %rsi
	callq	__ZN14altered_carbon2js9JsVariantngEv
	leaq	59040(%rsp), %rbx
	movsd	LCPI0_649(%rip), %xmm0  ## xmm0 = mem[0],zero
	movq	%rbx, %rdi
	callq	__ZN14altered_carbon2js9JsVariantaSEd
	leaq	14912(%rsp), %rdi
	movq	%rbx, %rsi
	callq	__ZN14altered_carbon2js9JsVariantngEv
	leaq	58984(%rsp), %rbx
	movsd	LCPI0_650(%rip), %xmm0  ## xmm0 = mem[0],zero
	movq	%rbx, %rdi
	callq	__ZN14altered_carbon2js9JsVariantaSEd
	leaq	14856(%rsp), %rdi
	movq	%rbx, %rsi
	callq	__ZN14altered_carbon2js9JsVariantngEv
	leaq	58928(%rsp), %rbx
	movsd	LCPI0_651(%rip), %xmm0  ## xmm0 = mem[0],zero
	movq	%rbx, %rdi
	callq	__ZN14altered_carbon2js9JsVariantaSEd
	leaq	14800(%rsp), %rdi
	movq	%rbx, %rsi
	callq	__ZN14altered_carbon2js9JsVariantngEv
	leaq	58872(%rsp), %rbx
	movsd	LCPI0_652(%rip), %xmm0  ## xmm0 = mem[0],zero
	movq	%rbx, %rdi
	callq	__ZN14altered_carbon2js9JsVariantaSEd
	leaq	14744(%rsp), %rdi
	movq	%rbx, %rsi
	callq	__ZN14altered_carbon2js9JsVariantngEv
	leaq	58816(%rsp), %rbx
	movsd	LCPI0_653(%rip), %xmm0  ## xmm0 = mem[0],zero
	movq	%rbx, %rdi
	callq	__ZN14altered_carbon2js9JsVariantaSEd
	leaq	14688(%rsp), %rdi
	movq	%rbx, %rsi
	callq	__ZN14altered_carbon2js9JsVariantngEv
	leaq	58760(%rsp), %rbx
	movsd	LCPI0_654(%rip), %xmm0  ## xmm0 = mem[0],zero
	movq	%rbx, %rdi
	callq	__ZN14altered_carbon2js9JsVariantaSEd
	leaq	14632(%rsp), %rdi
	movq	%rbx, %rsi
	callq	__ZN14altered_carbon2js9JsVariantngEv
	leaq	58704(%rsp), %rbx
	movsd	LCPI0_655(%rip), %xmm0  ## xmm0 = mem[0],zero
	movq	%rbx, %rdi
	callq	__ZN14altered_carbon2js9JsVariantaSEd
	leaq	14576(%rsp), %rdi
	movq	%rbx, %rsi
	callq	__ZN14altered_carbon2js9JsVariantngEv
	leaq	58648(%rsp), %rbx
	movsd	LCPI0_656(%rip), %xmm0  ## xmm0 = mem[0],zero
	movq	%rbx, %rdi
	callq	__ZN14altered_carbon2js9JsVariantaSEd
	leaq	14520(%rsp), %rdi
	movq	%rbx, %rsi
	callq	__ZN14altered_carbon2js9JsVariantngEv
	leaq	14464(%rsp), %rdi
	movsd	LCPI0_657(%rip), %xmm0  ## xmm0 = mem[0],zero
	callq	__ZN14altered_carbon2js9JsVariantaSEd
	leaq	58592(%rsp), %rbx
	movsd	LCPI0_658(%rip), %xmm0  ## xmm0 = mem[0],zero
	movq	%rbx, %rdi
	callq	__ZN14altered_carbon2js9JsVariantaSEd
	leaq	14408(%rsp), %rdi
	movq	%rbx, %rsi
	callq	__ZN14altered_carbon2js9JsVariantngEv
	leaq	58536(%rsp), %rbx
	movsd	LCPI0_659(%rip), %xmm0  ## xmm0 = mem[0],zero
	movq	%rbx, %rdi
	callq	__ZN14altered_carbon2js9JsVariantaSEd
	leaq	14352(%rsp), %rdi
	movq	%rbx, %rsi
	callq	__ZN14altered_carbon2js9JsVariantngEv
	leaq	58480(%rsp), %rbx
	movsd	LCPI0_660(%rip), %xmm0  ## xmm0 = mem[0],zero
	movq	%rbx, %rdi
	callq	__ZN14altered_carbon2js9JsVariantaSEd
	leaq	14296(%rsp), %rdi
	movq	%rbx, %rsi
	callq	__ZN14altered_carbon2js9JsVariantngEv
	leaq	58424(%rsp), %rbx
	movsd	LCPI0_661(%rip), %xmm0  ## xmm0 = mem[0],zero
	movq	%rbx, %rdi
	callq	__ZN14altered_carbon2js9JsVariantaSEd
	leaq	14240(%rsp), %rdi
	movq	%rbx, %rsi
	callq	__ZN14altered_carbon2js9JsVariantngEv
	leaq	58368(%rsp), %rbx
	movsd	LCPI0_662(%rip), %xmm0  ## xmm0 = mem[0],zero
	movq	%rbx, %rdi
	callq	__ZN14altered_carbon2js9JsVariantaSEd
	leaq	14184(%rsp), %rdi
	movq	%rbx, %rsi
	callq	__ZN14altered_carbon2js9JsVariantngEv
	leaq	58312(%rsp), %rbx
	movsd	LCPI0_663(%rip), %xmm0  ## xmm0 = mem[0],zero
	movq	%rbx, %rdi
	callq	__ZN14altered_carbon2js9JsVariantaSEd
	leaq	14128(%rsp), %rdi
	movq	%rbx, %rsi
	callq	__ZN14altered_carbon2js9JsVariantngEv
	leaq	58256(%rsp), %rbx
	movsd	LCPI0_664(%rip), %xmm0  ## xmm0 = mem[0],zero
	movq	%rbx, %rdi
	callq	__ZN14altered_carbon2js9JsVariantaSEd
	leaq	14072(%rsp), %rdi
	movq	%rbx, %rsi
	callq	__ZN14altered_carbon2js9JsVariantngEv
	leaq	58200(%rsp), %rbx
	movsd	LCPI0_665(%rip), %xmm0  ## xmm0 = mem[0],zero
	movq	%rbx, %rdi
	callq	__ZN14altered_carbon2js9JsVariantaSEd
	leaq	14016(%rsp), %rdi
	movq	%rbx, %rsi
	callq	__ZN14altered_carbon2js9JsVariantngEv
	leaq	58144(%rsp), %rbx
	movsd	LCPI0_666(%rip), %xmm0  ## xmm0 = mem[0],zero
	movq	%rbx, %rdi
	callq	__ZN14altered_carbon2js9JsVariantaSEd
	leaq	13960(%rsp), %rdi
	movq	%rbx, %rsi
	callq	__ZN14altered_carbon2js9JsVariantngEv
	leaq	58088(%rsp), %rbx
	movsd	LCPI0_667(%rip), %xmm0  ## xmm0 = mem[0],zero
	movq	%rbx, %rdi
	callq	__ZN14altered_carbon2js9JsVariantaSEd
	leaq	13904(%rsp), %rdi
	movq	%rbx, %rsi
	callq	__ZN14altered_carbon2js9JsVariantngEv
	leaq	58032(%rsp), %rbx
	movsd	LCPI0_668(%rip), %xmm0  ## xmm0 = mem[0],zero
	movq	%rbx, %rdi
	callq	__ZN14altered_carbon2js9JsVariantaSEd
	leaq	13848(%rsp), %rdi
	movq	%rbx, %rsi
	callq	__ZN14altered_carbon2js9JsVariantngEv
	leaq	57976(%rsp), %rbx
	movsd	LCPI0_669(%rip), %xmm0  ## xmm0 = mem[0],zero
	movq	%rbx, %rdi
	callq	__ZN14altered_carbon2js9JsVariantaSEd
	leaq	13792(%rsp), %rdi
	movq	%rbx, %rsi
	callq	__ZN14altered_carbon2js9JsVariantngEv
	leaq	57920(%rsp), %rbx
	movsd	LCPI0_670(%rip), %xmm0  ## xmm0 = mem[0],zero
	movq	%rbx, %rdi
	callq	__ZN14altered_carbon2js9JsVariantaSEd
	leaq	13736(%rsp), %rdi
	movq	%rbx, %rsi
	callq	__ZN14altered_carbon2js9JsVariantngEv
	leaq	57864(%rsp), %rbx
	movsd	LCPI0_671(%rip), %xmm0  ## xmm0 = mem[0],zero
	movq	%rbx, %rdi
	callq	__ZN14altered_carbon2js9JsVariantaSEd
	leaq	13680(%rsp), %rdi
	movq	%rbx, %rsi
	callq	__ZN14altered_carbon2js9JsVariantngEv
	leaq	57808(%rsp), %rbx
	movsd	LCPI0_672(%rip), %xmm0  ## xmm0 = mem[0],zero
	movq	%rbx, %rdi
	callq	__ZN14altered_carbon2js9JsVariantaSEd
	leaq	13624(%rsp), %rdi
	movq	%rbx, %rsi
	callq	__ZN14altered_carbon2js9JsVariantngEv
	leaq	57752(%rsp), %rbx
	movsd	LCPI0_673(%rip), %xmm0  ## xmm0 = mem[0],zero
	movq	%rbx, %rdi
	callq	__ZN14altered_carbon2js9JsVariantaSEd
	leaq	13568(%rsp), %rdi
	movq	%rbx, %rsi
	callq	__ZN14altered_carbon2js9JsVariantngEv
	leaq	57696(%rsp), %rbx
	movsd	LCPI0_674(%rip), %xmm0  ## xmm0 = mem[0],zero
	movq	%rbx, %rdi
	callq	__ZN14altered_carbon2js9JsVariantaSEd
	leaq	13512(%rsp), %rdi
	movq	%rbx, %rsi
	callq	__ZN14altered_carbon2js9JsVariantngEv
	leaq	57640(%rsp), %rbx
	movsd	LCPI0_675(%rip), %xmm0  ## xmm0 = mem[0],zero
	movq	%rbx, %rdi
	callq	__ZN14altered_carbon2js9JsVariantaSEd
	leaq	13456(%rsp), %rdi
	movq	%rbx, %rsi
	callq	__ZN14altered_carbon2js9JsVariantngEv
	leaq	57584(%rsp), %rbx
	movsd	LCPI0_676(%rip), %xmm0  ## xmm0 = mem[0],zero
	movq	%rbx, %rdi
	callq	__ZN14altered_carbon2js9JsVariantaSEd
	leaq	13400(%rsp), %rdi
	movq	%rbx, %rsi
	callq	__ZN14altered_carbon2js9JsVariantngEv
	leaq	57528(%rsp), %rbx
	movsd	LCPI0_677(%rip), %xmm0  ## xmm0 = mem[0],zero
	movq	%rbx, %rdi
	callq	__ZN14altered_carbon2js9JsVariantaSEd
	leaq	13344(%rsp), %rdi
	movq	%rbx, %rsi
	callq	__ZN14altered_carbon2js9JsVariantngEv
	leaq	57472(%rsp), %rbx
	movsd	LCPI0_678(%rip), %xmm0  ## xmm0 = mem[0],zero
	movq	%rbx, %rdi
	callq	__ZN14altered_carbon2js9JsVariantaSEd
	leaq	13288(%rsp), %rdi
	movq	%rbx, %rsi
	callq	__ZN14altered_carbon2js9JsVariantngEv
	leaq	57416(%rsp), %rbx
	movsd	LCPI0_679(%rip), %xmm0  ## xmm0 = mem[0],zero
	movq	%rbx, %rdi
	callq	__ZN14altered_carbon2js9JsVariantaSEd
	leaq	13232(%rsp), %rdi
	movq	%rbx, %rsi
	callq	__ZN14altered_carbon2js9JsVariantngEv
	leaq	57360(%rsp), %rbx
	movsd	LCPI0_680(%rip), %xmm0  ## xmm0 = mem[0],zero
	movq	%rbx, %rdi
	callq	__ZN14altered_carbon2js9JsVariantaSEd
	leaq	13176(%rsp), %rdi
	movq	%rbx, %rsi
	callq	__ZN14altered_carbon2js9JsVariantngEv
	leaq	13120(%rsp), %rdi
	movsd	LCPI0_681(%rip), %xmm0  ## xmm0 = mem[0],zero
	callq	__ZN14altered_carbon2js9JsVariantaSEd
	leaq	57304(%rsp), %rbx
	movsd	LCPI0_682(%rip), %xmm0  ## xmm0 = mem[0],zero
	movq	%rbx, %rdi
	callq	__ZN14altered_carbon2js9JsVariantaSEd
	leaq	13064(%rsp), %rdi
	movq	%rbx, %rsi
	callq	__ZN14altered_carbon2js9JsVariantngEv
	leaq	57248(%rsp), %rbx
	movsd	LCPI0_683(%rip), %xmm0  ## xmm0 = mem[0],zero
	movq	%rbx, %rdi
	callq	__ZN14altered_carbon2js9JsVariantaSEd
	leaq	13008(%rsp), %rdi
	movq	%rbx, %rsi
	callq	__ZN14altered_carbon2js9JsVariantngEv
	leaq	57192(%rsp), %rbx
	movsd	LCPI0_684(%rip), %xmm0  ## xmm0 = mem[0],zero
	movq	%rbx, %rdi
	callq	__ZN14altered_carbon2js9JsVariantaSEd
	leaq	12952(%rsp), %rdi
	movq	%rbx, %rsi
	callq	__ZN14altered_carbon2js9JsVariantngEv
	leaq	57136(%rsp), %rbx
	movsd	LCPI0_685(%rip), %xmm0  ## xmm0 = mem[0],zero
	movq	%rbx, %rdi
	callq	__ZN14altered_carbon2js9JsVariantaSEd
	leaq	12896(%rsp), %rdi
	movq	%rbx, %rsi
	callq	__ZN14altered_carbon2js9JsVariantngEv
	leaq	57080(%rsp), %rbx
	movsd	LCPI0_686(%rip), %xmm0  ## xmm0 = mem[0],zero
	movq	%rbx, %rdi
	callq	__ZN14altered_carbon2js9JsVariantaSEd
	leaq	12840(%rsp), %rdi
	movq	%rbx, %rsi
	callq	__ZN14altered_carbon2js9JsVariantngEv
	leaq	57024(%rsp), %rbx
	movsd	LCPI0_687(%rip), %xmm0  ## xmm0 = mem[0],zero
	movq	%rbx, %rdi
	callq	__ZN14altered_carbon2js9JsVariantaSEd
	leaq	12784(%rsp), %rdi
	movq	%rbx, %rsi
	callq	__ZN14altered_carbon2js9JsVariantngEv
	leaq	56968(%rsp), %rbx
	movsd	LCPI0_688(%rip), %xmm0  ## xmm0 = mem[0],zero
	movq	%rbx, %rdi
	callq	__ZN14altered_carbon2js9JsVariantaSEd
	leaq	12728(%rsp), %rdi
	movq	%rbx, %rsi
	callq	__ZN14altered_carbon2js9JsVariantngEv
	leaq	56912(%rsp), %rbx
	movsd	LCPI0_689(%rip), %xmm0  ## xmm0 = mem[0],zero
	movq	%rbx, %rdi
	callq	__ZN14altered_carbon2js9JsVariantaSEd
	leaq	12672(%rsp), %rdi
	movq	%rbx, %rsi
	callq	__ZN14altered_carbon2js9JsVariantngEv
	leaq	56856(%rsp), %rbx
	movsd	LCPI0_690(%rip), %xmm0  ## xmm0 = mem[0],zero
	movq	%rbx, %rdi
	callq	__ZN14altered_carbon2js9JsVariantaSEd
	leaq	12616(%rsp), %rdi
	movq	%rbx, %rsi
	callq	__ZN14altered_carbon2js9JsVariantngEv
	leaq	56800(%rsp), %rbx
	movsd	LCPI0_691(%rip), %xmm0  ## xmm0 = mem[0],zero
	movq	%rbx, %rdi
	callq	__ZN14altered_carbon2js9JsVariantaSEd
	leaq	12560(%rsp), %rdi
	movq	%rbx, %rsi
	callq	__ZN14altered_carbon2js9JsVariantngEv
	leaq	56744(%rsp), %rbx
	movsd	LCPI0_692(%rip), %xmm0  ## xmm0 = mem[0],zero
	movq	%rbx, %rdi
	callq	__ZN14altered_carbon2js9JsVariantaSEd
	leaq	12504(%rsp), %rdi
	movq	%rbx, %rsi
	callq	__ZN14altered_carbon2js9JsVariantngEv
	leaq	56688(%rsp), %rbx
	movsd	LCPI0_693(%rip), %xmm0  ## xmm0 = mem[0],zero
	movq	%rbx, %rdi
	callq	__ZN14altered_carbon2js9JsVariantaSEd
	leaq	12448(%rsp), %rdi
	movq	%rbx, %rsi
	callq	__ZN14altered_carbon2js9JsVariantngEv
	leaq	56632(%rsp), %rbx
	movsd	LCPI0_694(%rip), %xmm0  ## xmm0 = mem[0],zero
	movq	%rbx, %rdi
	callq	__ZN14altered_carbon2js9JsVariantaSEd
	leaq	12392(%rsp), %rdi
	movq	%rbx, %rsi
	callq	__ZN14altered_carbon2js9JsVariantngEv
	leaq	56576(%rsp), %rbx
	movsd	LCPI0_695(%rip), %xmm0  ## xmm0 = mem[0],zero
	movq	%rbx, %rdi
	callq	__ZN14altered_carbon2js9JsVariantaSEd
	leaq	12336(%rsp), %rdi
	movq	%rbx, %rsi
	callq	__ZN14altered_carbon2js9JsVariantngEv
	leaq	56520(%rsp), %rbx
	movsd	LCPI0_696(%rip), %xmm0  ## xmm0 = mem[0],zero
	movq	%rbx, %rdi
	callq	__ZN14altered_carbon2js9JsVariantaSEd
	leaq	12280(%rsp), %rdi
	movq	%rbx, %rsi
	callq	__ZN14altered_carbon2js9JsVariantngEv
	leaq	56464(%rsp), %rbx
	movsd	LCPI0_697(%rip), %xmm0  ## xmm0 = mem[0],zero
	movq	%rbx, %rdi
	callq	__ZN14altered_carbon2js9JsVariantaSEd
	leaq	12224(%rsp), %rdi
	movq	%rbx, %rsi
	callq	__ZN14altered_carbon2js9JsVariantngEv
	leaq	56408(%rsp), %rbx
	movsd	LCPI0_698(%rip), %xmm0  ## xmm0 = mem[0],zero
	movq	%rbx, %rdi
	callq	__ZN14altered_carbon2js9JsVariantaSEd
	leaq	12168(%rsp), %rdi
	movq	%rbx, %rsi
	callq	__ZN14altered_carbon2js9JsVariantngEv
	leaq	56352(%rsp), %rbx
	movsd	LCPI0_699(%rip), %xmm0  ## xmm0 = mem[0],zero
	movq	%rbx, %rdi
	callq	__ZN14altered_carbon2js9JsVariantaSEd
	leaq	12112(%rsp), %rdi
	movq	%rbx, %rsi
	callq	__ZN14altered_carbon2js9JsVariantngEv
	leaq	56296(%rsp), %rbx
	movsd	LCPI0_700(%rip), %xmm0  ## xmm0 = mem[0],zero
	movq	%rbx, %rdi
	callq	__ZN14altered_carbon2js9JsVariantaSEd
	leaq	12056(%rsp), %rdi
	movq	%rbx, %rsi
	callq	__ZN14altered_carbon2js9JsVariantngEv
	leaq	56240(%rsp), %rbx
	movsd	LCPI0_701(%rip), %xmm0  ## xmm0 = mem[0],zero
	movq	%rbx, %rdi
	callq	__ZN14altered_carbon2js9JsVariantaSEd
	leaq	12000(%rsp), %rdi
	movq	%rbx, %rsi
	callq	__ZN14altered_carbon2js9JsVariantngEv
	leaq	11944(%rsp), %rdi
	movsd	LCPI0_702(%rip), %xmm0  ## xmm0 = mem[0],zero
	callq	__ZN14altered_carbon2js9JsVariantaSEd
	leaq	11888(%rsp), %rdi
	movsd	LCPI0_703(%rip), %xmm0  ## xmm0 = mem[0],zero
	callq	__ZN14altered_carbon2js9JsVariantaSEd
	leaq	56184(%rsp), %rbx
	movsd	LCPI0_704(%rip), %xmm0  ## xmm0 = mem[0],zero
	movq	%rbx, %rdi
	callq	__ZN14altered_carbon2js9JsVariantaSEd
	leaq	11832(%rsp), %rdi
	movq	%rbx, %rsi
