	.section	__TEXT,__text,regular,pure_instructions
	.macosx_version_min 10, 13
	.file	1 "/Users/ejiang/Projects/lls/ac/./ac_vm_jsvalue.h"
	.file	2 "/Applications/Xcode.app/Contents/Developer/Toolchains/XcodeDefault.xctoolchain/usr/include/c++/v1/memory"
	.file	3 "/Applications/Xcode.app/Contents/Developer/Toolchains/XcodeDefault.xctoolchain/usr/include/c++/v1/__nullptr"
	.file	4 "/Applications/Xcode.app/Contents/Developer/Toolchains/XcodeDefault.xctoolchain/usr/include/c++/v1/type_traits"
	.file	5 "/Applications/Xcode.app/Contents/Developer/Toolchains/XcodeDefault.xctoolchain/usr/include/c++/v1/iosfwd"
	.file	6 "/Applications/Xcode.app/Contents/Developer/Toolchains/XcodeDefault.xctoolchain/usr/lib/clang/9.1.0/include/stddef.h"
	.file	7 "/Applications/Xcode.app/Contents/Developer/Toolchains/XcodeDefault.xctoolchain/usr/include/c++/v1/cstddef"
	.file	8 "/Applications/Xcode.app/Contents/Developer/Toolchains/XcodeDefault.xctoolchain/usr/lib/clang/9.1.0/include/__stddef_max_align_t.h"
	.file	9 "/Applications/Xcode.app/Contents/Developer/Toolchains/XcodeDefault.xctoolchain/usr/include/c++/v1/cstdlib"
	.file	10 "/Applications/Xcode.app/Contents/Developer/Platforms/MacOSX.platform/Developer/SDKs/MacOSX10.13.sdk/usr/include/stdlib.h"
	.file	11 "/Applications/Xcode.app/Contents/Developer/Toolchains/XcodeDefault.xctoolchain/usr/include/c++/v1/stdlib.h"
	.file	12 "/Applications/Xcode.app/Contents/Developer/Platforms/MacOSX.platform/Developer/SDKs/MacOSX10.13.sdk/usr/include/sys/_types/_int8_t.h"
	.file	13 "/Applications/Xcode.app/Contents/Developer/Toolchains/XcodeDefault.xctoolchain/usr/include/c++/v1/cstdint"
	.file	14 "/Applications/Xcode.app/Contents/Developer/Platforms/MacOSX.platform/Developer/SDKs/MacOSX10.13.sdk/usr/include/sys/_types/_int16_t.h"
	.file	15 "/Applications/Xcode.app/Contents/Developer/Platforms/MacOSX.platform/Developer/SDKs/MacOSX10.13.sdk/usr/include/sys/_types/_int32_t.h"
	.file	16 "/Applications/Xcode.app/Contents/Developer/Platforms/MacOSX.platform/Developer/SDKs/MacOSX10.13.sdk/usr/include/sys/_types/_int64_t.h"
	.file	17 "/Applications/Xcode.app/Contents/Developer/Platforms/MacOSX.platform/Developer/SDKs/MacOSX10.13.sdk/usr/include/_types/_uint8_t.h"
	.file	18 "/Applications/Xcode.app/Contents/Developer/Platforms/MacOSX.platform/Developer/SDKs/MacOSX10.13.sdk/usr/include/_types/_uint16_t.h"
	.file	19 "/Applications/Xcode.app/Contents/Developer/Platforms/MacOSX.platform/Developer/SDKs/MacOSX10.13.sdk/usr/include/_types/_uint32_t.h"
	.file	20 "/Applications/Xcode.app/Contents/Developer/Platforms/MacOSX.platform/Developer/SDKs/MacOSX10.13.sdk/usr/include/_types/_uint64_t.h"
	.file	21 "/Applications/Xcode.app/Contents/Developer/Platforms/MacOSX.platform/Developer/SDKs/MacOSX10.13.sdk/usr/include/stdint.h"
	.file	22 "/Applications/Xcode.app/Contents/Developer/Platforms/MacOSX.platform/Developer/SDKs/MacOSX10.13.sdk/usr/include/i386/_types.h"
	.file	23 "/Applications/Xcode.app/Contents/Developer/Platforms/MacOSX.platform/Developer/SDKs/MacOSX10.13.sdk/usr/include/sys/_types/_intptr_t.h"
	.file	24 "/Applications/Xcode.app/Contents/Developer/Platforms/MacOSX.platform/Developer/SDKs/MacOSX10.13.sdk/usr/include/sys/_types/_uintptr_t.h"
	.file	25 "/Applications/Xcode.app/Contents/Developer/Platforms/MacOSX.platform/Developer/SDKs/MacOSX10.13.sdk/usr/include/_types/_intmax_t.h"
	.file	26 "/Applications/Xcode.app/Contents/Developer/Platforms/MacOSX.platform/Developer/SDKs/MacOSX10.13.sdk/usr/include/_types/_uintmax_t.h"
	.file	27 "/Applications/Xcode.app/Contents/Developer/Toolchains/XcodeDefault.xctoolchain/usr/include/c++/v1/cstring"
	.file	28 "/Applications/Xcode.app/Contents/Developer/Platforms/MacOSX.platform/Developer/SDKs/MacOSX10.13.sdk/usr/include/string.h"
	.file	29 "/Applications/Xcode.app/Contents/Developer/Toolchains/XcodeDefault.xctoolchain/usr/include/c++/v1/string.h"
	.file	30 "/Applications/Xcode.app/Contents/Developer/Toolchains/XcodeDefault.xctoolchain/usr/include/c++/v1/stddef.h"
	.file	31 "/Applications/Xcode.app/Contents/Developer/Platforms/MacOSX.platform/Developer/SDKs/MacOSX10.13.sdk/usr/include/math.h"
	.file	32 "/Applications/Xcode.app/Contents/Developer/Toolchains/XcodeDefault.xctoolchain/usr/include/c++/v1/cmath"
	.file	33 "/Applications/Xcode.app/Contents/Developer/Toolchains/XcodeDefault.xctoolchain/usr/include/c++/v1/math.h"
	.file	34 "/Applications/Xcode.app/Contents/Developer/Platforms/MacOSX.platform/Developer/SDKs/MacOSX10.13.sdk/usr/include/_stdio.h"
	.file	35 "/Applications/Xcode.app/Contents/Developer/Platforms/MacOSX.platform/Developer/SDKs/MacOSX10.13.sdk/usr/include/sys/_types.h"
	.file	36 "/Applications/Xcode.app/Contents/Developer/Toolchains/XcodeDefault.xctoolchain/usr/include/c++/v1/cstdio"
	.file	37 "/Applications/Xcode.app/Contents/Developer/Platforms/MacOSX.platform/Developer/SDKs/MacOSX10.13.sdk/usr/include/stdio.h"
	.file	38 "/Applications/Xcode.app/Contents/Developer/Platforms/MacOSX.platform/Developer/SDKs/MacOSX10.13.sdk/usr/include/_ctype.h"
	.file	39 "/Applications/Xcode.app/Contents/Developer/Toolchains/XcodeDefault.xctoolchain/usr/include/c++/v1/cctype"
	.file	40 "/Applications/Xcode.app/Contents/Developer/Platforms/MacOSX.platform/Developer/SDKs/MacOSX10.13.sdk/usr/include/sys/_types/_wint_t.h"
	.file	41 "/Applications/Xcode.app/Contents/Developer/Toolchains/XcodeDefault.xctoolchain/usr/include/c++/v1/cwctype"
	.file	42 "/Applications/Xcode.app/Contents/Developer/Platforms/MacOSX.platform/Developer/SDKs/MacOSX10.13.sdk/usr/include/_types.h"
	.file	43 "/Applications/Xcode.app/Contents/Developer/Platforms/MacOSX.platform/Developer/SDKs/MacOSX10.13.sdk/usr/include/_types/_wctrans_t.h"
	.file	44 "/Applications/Xcode.app/Contents/Developer/Platforms/MacOSX.platform/Developer/SDKs/MacOSX10.13.sdk/usr/include/_types/_wctype_t.h"
	.file	45 "/Applications/Xcode.app/Contents/Developer/Platforms/MacOSX.platform/Developer/SDKs/MacOSX10.13.sdk/usr/include/_wctype.h"
	.file	46 "/Applications/Xcode.app/Contents/Developer/Platforms/MacOSX.platform/Developer/SDKs/MacOSX10.13.sdk/usr/include/wctype.h"
	.file	47 "/Applications/Xcode.app/Contents/Developer/Platforms/MacOSX.platform/Developer/SDKs/MacOSX10.13.sdk/usr/include/sys/_types/_mbstate_t.h"
	.file	48 "/Applications/Xcode.app/Contents/Developer/Toolchains/XcodeDefault.xctoolchain/usr/include/c++/v1/cwchar"
	.file	49 "/Applications/Xcode.app/Contents/Developer/Platforms/MacOSX.platform/Developer/SDKs/MacOSX10.13.sdk/usr/include/time.h"
	.file	50 "/Applications/Xcode.app/Contents/Developer/Platforms/MacOSX.platform/Developer/SDKs/MacOSX10.13.sdk/usr/include/wchar.h"
	.file	51 "/Applications/Xcode.app/Contents/Developer/Toolchains/XcodeDefault.xctoolchain/usr/include/c++/v1/wchar.h"
	.file	52 "/Users/ejiang/Projects/lls/ac/jsvalue1.cc"
	.globl	_main                   ## -- Begin function main
	.p2align	4, 0x90
_main:                                  ## @main
Lfunc_begin0:
	.loc	52 5 0                  ## jsvalue1.cc:5:0
	.cfi_startproc
## %bb.0:
	pushq	%rbp
	.cfi_def_cfa_offset 16
	.cfi_offset %rbp, -16
	movq	%rsp, %rbp
	.cfi_def_cfa_register %rbp
	subq	$32, %rsp
	movl	$0, -4(%rbp)
Ltmp0:
	.loc	52 6 13 prologue_end    ## jsvalue1.cc:6:13
	leaq	-24(%rbp), %rdi
Ltmp1:
	##DEBUG_VALUE: main:value <- [$rdi+0]
	movl	$1, %esi
	callq	__ZN14altered_carbon2js9ACJsValueC1ENS1_11JsValueTypeE
Ltmp2:
	.loc	52 7 16                 ## jsvalue1.cc:7:16
	leaq	-24(%rbp), %rdi
	callq	__ZN14altered_carbon2js9ACJsValue9toBooleanEv
	.loc	52 7 10 is_stmt 0       ## jsvalue1.cc:7:10
	andb	$1, %al
	movzbl	%al, %eax
	.loc	52 7 3                  ## jsvalue1.cc:7:3
	movl	%eax, -4(%rbp)
	.loc	52 8 1 is_stmt 1        ## jsvalue1.cc:8:1
	leaq	-24(%rbp), %rdi
	callq	__ZN14altered_carbon2js9ACJsValueD1Ev
	movl	-4(%rbp), %eax
	addq	$32, %rsp
	popq	%rbp
	retq
Ltmp3:
Lfunc_end0:
	.cfi_endproc
                                        ## -- End function
	.private_extern	__ZN14altered_carbon2js9ACJsValue9toBooleanEv ## -- Begin function _ZN14altered_carbon2js9ACJsValue9toBooleanEv
	.globl	__ZN14altered_carbon2js9ACJsValue9toBooleanEv
	.weak_def_can_be_hidden	__ZN14altered_carbon2js9ACJsValue9toBooleanEv
	.p2align	4, 0x90
__ZN14altered_carbon2js9ACJsValue9toBooleanEv: ## @_ZN14altered_carbon2js9ACJsValue9toBooleanEv
Lfunc_begin1:
	.loc	1 146 0                 ## ./ac_vm_jsvalue.h:146:0
	.cfi_startproc
## %bb.0:
	pushq	%rbp
	.cfi_def_cfa_offset 16
	.cfi_offset %rbp, -16
	movq	%rsp, %rbp
	.cfi_def_cfa_register %rbp
	xorl	%eax, %eax
	movq	%rdi, -8(%rbp)
Ltmp4:
	.loc	1 146 30 prologue_end   ## ./ac_vm_jsvalue.h:146:30
	andb	$1, %al
	movzbl	%al, %eax
	popq	%rbp
	retq
Ltmp5:
Lfunc_end1:
	.cfi_endproc
                                        ## -- End function
	.private_extern	__ZN14altered_carbon2js9ACJsValueD1Ev ## -- Begin function _ZN14altered_carbon2js9ACJsValueD1Ev
	.globl	__ZN14altered_carbon2js9ACJsValueD1Ev
	.weak_def_can_be_hidden	__ZN14altered_carbon2js9ACJsValueD1Ev
	.p2align	4, 0x90
__ZN14altered_carbon2js9ACJsValueD1Ev:  ## @_ZN14altered_carbon2js9ACJsValueD1Ev
Lfunc_begin2:
	.loc	1 90 0                  ## ./ac_vm_jsvalue.h:90:0
	.cfi_startproc
## %bb.0:
	pushq	%rbp
	.cfi_def_cfa_offset 16
	.cfi_offset %rbp, -16
	movq	%rsp, %rbp
	.cfi_def_cfa_register %rbp
	subq	$16, %rsp
	movq	%rdi, -8(%rbp)
	movq	-8(%rbp), %rdi
Ltmp6:
	.loc	1 90 24 prologue_end    ## ./ac_vm_jsvalue.h:90:24
	callq	__ZN14altered_carbon2js9ACJsValueD2Ev
	.loc	1 90 25 is_stmt 0       ## ./ac_vm_jsvalue.h:90:25
	addq	$16, %rsp
	popq	%rbp
	retq
Ltmp7:
Lfunc_end2:
	.cfi_endproc
                                        ## -- End function
	.private_extern	__ZN14altered_carbon2js9ACJsValueD2Ev ## -- Begin function _ZN14altered_carbon2js9ACJsValueD2Ev
	.globl	__ZN14altered_carbon2js9ACJsValueD2Ev
	.weak_def_can_be_hidden	__ZN14altered_carbon2js9ACJsValueD2Ev
	.p2align	4, 0x90
__ZN14altered_carbon2js9ACJsValueD2Ev:  ## @_ZN14altered_carbon2js9ACJsValueD2Ev
Lfunc_begin3:
	.loc	1 90 0 is_stmt 1        ## ./ac_vm_jsvalue.h:90:0
	.cfi_startproc
## %bb.0:
	pushq	%rbp
	.cfi_def_cfa_offset 16
	.cfi_offset %rbp, -16
	movq	%rsp, %rbp
	.cfi_def_cfa_register %rbp
	movq	%rdi, -8(%rbp)
Ltmp8:
	.loc	1 90 25 prologue_end    ## ./ac_vm_jsvalue.h:90:25
	popq	%rbp
	retq
Ltmp9:
Lfunc_end3:
	.cfi_endproc
                                        ## -- End function