	.section	__TEXT,__text,regular,pure_instructions
	.macosx_version_min 10, 13
	.globl	__Z7_scriptPN14altered_carbon2js9JsVariantE ## -- Begin function _Z7_scriptPN14altered_carbon2js9JsVariantE
	.p2align	4, 0x90
__Z7_scriptPN14altered_carbon2js9JsVariantE: ## @_Z7_scriptPN14altered_carbon2js9JsVariantE
	.cfi_startproc
## %bb.0:                               ## %init.bb
	pushq	%rbp
	.cfi_def_cfa_offset 16
	pushq	%r15
	.cfi_def_cfa_offset 24
	pushq	%r14
	.cfi_def_cfa_offset 32
	pushq	%r13
	.cfi_def_cfa_offset 40
	pushq	%r12
	.cfi_def_cfa_offset 48
	pushq	%rbx
	.cfi_def_cfa_offset 56
	subq	$3592, %rsp             ## imm = 0xE08
	.cfi_def_cfa_offset 3648
	.cfi_offset %rbx, -56
	.cfi_offset %r12, -48
	.cfi_offset %r13, -40
	.cfi_offset %r14, -32
	.cfi_offset %r15, -24
	.cfi_offset %rbp, -16
	movq	%rdi, (%rsp)            ## 8-byte Spill
	movq	__ZTVN14altered_carbon2js9JsVariantE@GOTPCREL(%rip), %rbx
	addq	$16, %rbx
	movq	%rbx, 3144(%rsp)
	movl	$1, 3152(%rsp)
	movq	%rbx, 176(%rsp)
	movl	$1, 184(%rsp)
	movq	%rbx, 3088(%rsp)
	movl	$1, 3096(%rsp)
	movq	%rbx, 512(%rsp)
	movl	$1, 520(%rsp)
	movq	%rbx, 3032(%rsp)
	movl	$1, 3040(%rsp)
	movq	%rbx, 456(%rsp)
	movl	$1, 464(%rsp)
	movq	%rbx, 2976(%rsp)
	movl	$1, 2984(%rsp)
	movq	%rbx, 400(%rsp)
	movl	$1, 408(%rsp)
	movq	%rbx, 2920(%rsp)
	movl	$1, 2928(%rsp)
	movq	%rbx, 8(%rsp)
	movl	$1, 16(%rsp)
	movq	%rbx, 2864(%rsp)
	movl	$1, 2872(%rsp)
	movq	%rbx, 344(%rsp)
	movl	$1, 352(%rsp)
	leaq	3536(%rsp), %rdi
	movl	$14, %esi
	callq	__ZN14altered_carbon2js9JsVariantC1ENS1_13JsVariantTypeE
	movq	%rbx, 120(%rsp)
	movl	$1, 128(%rsp)
	movq	%rbx, 2808(%rsp)
	movl	$1, 2816(%rsp)
	movq	%rbx, 64(%rsp)
	movl	$1, 72(%rsp)
	movq	%rbx, 2752(%rsp)
	movl	$1, 2760(%rsp)
	movq	%rbx, 2696(%rsp)
	movl	$1, 2704(%rsp)
	movq	%rbx, 2640(%rsp)
	movl	$1, 2648(%rsp)
	movq	%rbx, 2584(%rsp)
	movl	$1, 2592(%rsp)
	movq	%rbx, 2528(%rsp)
	movl	$1, 2536(%rsp)
	movq	%rbx, 2472(%rsp)
	movl	$1, 2480(%rsp)
	movq	%rbx, 2416(%rsp)
	movl	$1, 2424(%rsp)
	movq	%rbx, 2360(%rsp)
	movl	$1, 2368(%rsp)
	movq	%rbx, 2304(%rsp)
	movl	$1, 2312(%rsp)
	movq	%rbx, 2248(%rsp)
	movl	$1, 2256(%rsp)
	movq	%rbx, 2192(%rsp)
	movl	$1, 2200(%rsp)
	movq	%rbx, 2136(%rsp)
	movl	$1, 2144(%rsp)
	movq	%rbx, 3480(%rsp)
	movl	$1, 3488(%rsp)
	movq	%rbx, 2080(%rsp)
	movl	$1, 2088(%rsp)
	movq	%rbx, 2024(%rsp)
	movl	$1, 2032(%rsp)
	movq	%rbx, 1968(%rsp)
	movl	$1, 1976(%rsp)
	movq	%rbx, 1912(%rsp)
	movl	$1, 1920(%rsp)
	movq	%rbx, 1856(%rsp)
	movl	$1, 1864(%rsp)
	movq	%rbx, 1800(%rsp)
	movl	$1, 1808(%rsp)
	movq	%rbx, 1744(%rsp)
	movl	$1, 1752(%rsp)
	movq	%rbx, 1688(%rsp)
	movl	$1, 1696(%rsp)
	movq	%rbx, 1632(%rsp)
	movl	$1, 1640(%rsp)
	movq	%rbx, 3424(%rsp)
	movl	$1, 3432(%rsp)
	movq	%rbx, 1576(%rsp)
	movl	$1, 1584(%rsp)
	movq	%rbx, 1520(%rsp)
	movl	$1, 1528(%rsp)
	movq	%rbx, 288(%rsp)
	movl	$1, 296(%rsp)
	movq	%rbx, 232(%rsp)
	movl	$1, 240(%rsp)
	movq	%rbx, 1464(%rsp)
	movl	$1, 1472(%rsp)
	movq	%rbx, 1408(%rsp)
	movl	$1, 1416(%rsp)
	movq	%rbx, 1352(%rsp)
	movl	$1, 1360(%rsp)
	movq	%rbx, 1296(%rsp)
	movl	$1, 1304(%rsp)
	movq	%rbx, 1240(%rsp)
	movl	$1, 1248(%rsp)
	movq	%rbx, 1184(%rsp)
	movl	$1, 1192(%rsp)
	movq	%rbx, 1128(%rsp)
	movl	$1, 1136(%rsp)
	movq	%rbx, 1072(%rsp)
	movl	$1, 1080(%rsp)
	movq	%rbx, 1016(%rsp)
	movl	$1, 1024(%rsp)
	movq	%rbx, 960(%rsp)
	movl	$1, 968(%rsp)
	movq	%rbx, 904(%rsp)
	movl	$1, 912(%rsp)
	movq	%rbx, 848(%rsp)
	movl	$1, 856(%rsp)
	movq	%rbx, 792(%rsp)
	movl	$1, 800(%rsp)
	movq	%rbx, 736(%rsp)
	movl	$1, 744(%rsp)
	movq	%rbx, 3368(%rsp)
	movl	$1, 3376(%rsp)
	movq	%rbx, 680(%rsp)
	movl	$1, 688(%rsp)
	movq	%rbx, 624(%rsp)
	movl	$1, 632(%rsp)
	movq	%rbx, 3312(%rsp)
	movl	$1, 3320(%rsp)
	movq	%rbx, 568(%rsp)
	movl	$1, 576(%rsp)
	movq	%rbx, 3256(%rsp)
	movl	$1, 3264(%rsp)
	movq	%rbx, 3200(%rsp)
	movl	$1, 3208(%rsp)
	leaq	3144(%rsp), %rbx
	xorl	%esi, %esi
	movq	%rbx, %rdi
	callq	__ZN14altered_carbon2js9JsVariantaSEx
	leaq	176(%rsp), %rdi
	movq	%rbx, %rsi
	callq	__ZN14altered_carbon2js9JsVariantaSERKS1_
	leaq	3088(%rsp), %rbx
	xorl	%esi, %esi
	movq	%rbx, %rdi
	callq	__ZN14altered_carbon2js9JsVariantaSEx
	leaq	512(%rsp), %rdi
	movq	%rbx, %rsi
	callq	__ZN14altered_carbon2js9JsVariantaSERKS1_
	leaq	3032(%rsp), %rbx
	movl	$58025, %esi            ## imm = 0xE2A9
	movq	%rbx, %rdi
	callq	__ZN14altered_carbon2js9JsVariantaSEx
	leaq	456(%rsp), %rdi
	movq	%rbx, %rsi
	callq	__ZN14altered_carbon2js9JsVariantaSERKS1_
	leaq	2976(%rsp), %rbx
	movl	$500, %esi              ## imm = 0x1F4
	movq	%rbx, %rdi
	callq	__ZN14altered_carbon2js9JsVariantaSEx
	leaq	400(%rsp), %r15
	movq	%r15, %rdi
	movq	%rbx, %rsi
	callq	__ZN14altered_carbon2js9JsVariantaSERKS1_
	leaq	2920(%rsp), %rbx
	movl	$4, %esi
	movq	%rbx, %rdi
	callq	__ZN14altered_carbon2js9JsVariantaSEx
	leaq	8(%rsp), %rdi
	movq	%rbx, %rsi
	callq	__ZN14altered_carbon2js9JsVariantaSERKS1_
	leaq	2864(%rsp), %rbx
	xorl	%esi, %esi
	movq	%rbx, %rdi
	callq	__ZN14altered_carbon2js9JsVariantaSEx
	leaq	344(%rsp), %r14
	movq	%r14, %rdi
	movq	%rbx, %rsi
	callq	__ZN14altered_carbon2js9JsVariantaSERKS1_
	leaq	120(%rsp), %r13
	leaq	1968(%rsp), %r12
	jmp	LBB0_1
	.p2align	4, 0x90
LBB0_11:                                ## %exit.bb37
                                        ##   in Loop: Header=BB0_1 Depth=1
	leaq	344(%rsp), %r14
	movq	%r14, %rdi
	callq	__ZN14altered_carbon2js9JsVariantppEv
LBB0_1:                                 ## %cond.bb
                                        ## =>This Loop Header: Depth=1
                                        ##     Child Loop BB0_3 Depth 2
                                        ##     Child Loop BB0_13 Depth 2
                                        ##       Child Loop BB0_15 Depth 3
	movl	$100, %esi
	leaq	568(%rsp), %rbp
	movq	%rbp, %rdi
	callq	__ZN14altered_carbon2js9JsVariantaSEx
	movq	%r14, %rdi
	movq	%rbp, %rsi
	callq	__ZNK14altered_carbon2js9JsVariantltERKS1_
	testb	%al, %al
	je	LBB0_31
## %bb.2:                               ## %for.bb
                                        ##   in Loop: Header=BB0_1 Depth=1
	movq	%r13, %rdi
	leaq	3536(%rsp), %rsi
	callq	__ZN14altered_carbon2js9JsVariantaSERKS1_
	xorl	%esi, %esi
	leaq	2808(%rsp), %r14
	movq	%r14, %rdi
	callq	__ZN14altered_carbon2js9JsVariantaSEx
	leaq	64(%rsp), %rbp
	movq	%rbp, %rdi
	movq	%r14, %rsi
	callq	__ZN14altered_carbon2js9JsVariantaSERKS1_
	jmp	LBB0_3
	.p2align	4, 0x90
LBB0_10:                                ## %ixexit.bb
                                        ##   in Loop: Header=BB0_3 Depth=2
	movq	%rbp, %rsi
	callq	__ZN14altered_carbon2js9JsVariantaSERKS1_
	movl	$32, %esi
	leaq	2472(%rsp), %rbp
	movq	%rbp, %rdi
	callq	__ZN14altered_carbon2js9JsVariantaSEx
	leaq	176(%rsp), %rbx
	movq	%rbx, %rdi
	leaq	2416(%rsp), %rsi
	movq	%rbp, %rdx
	callq	__ZNK14altered_carbon2js9JsVariant3rtsEPS1_RKS1_
	movq	%rax, %r15
	movl	$32, %esi
	leaq	2360(%rsp), %rbp
	movq	%rbp, %rdi
	callq	__ZN14altered_carbon2js9JsVariantaSEx
	movq	%rbx, %rdi
	leaq	2304(%rsp), %rsi
	movq	%rbp, %rdx
	callq	__ZNK14altered_carbon2js9JsVariant3ltsEPS1_RKS1_
	movq	%rax, %rbp
	movl	$10000, %esi            ## imm = 0x2710
	leaq	2248(%rsp), %r14
	movq	%r14, %rdi
	callq	__ZN14altered_carbon2js9JsVariantaSEx
	movq	%rbp, %rdi
	leaq	2192(%rsp), %rsi
	movq	%r14, %rdx
	callq	__ZNK14altered_carbon2js9JsVariant3modEPS1_RKS1_
	movq	%r15, %rdi
	leaq	2136(%rsp), %rsi
	movq	%rax, %rdx
	callq	__ZNK14altered_carbon2js9JsVariant3bwaEPS1_RKS1_
	movq	%rbx, %rdi
	movq	%rax, %rsi
	callq	__ZN14altered_carbon2js9JsVariantaSERKS1_
	leaq	64(%rsp), %rbp
	movq	%rbp, %rdi
	callq	__ZN14altered_carbon2js9JsVariantppEv
	leaq	400(%rsp), %r15
LBB0_3:                                 ## %cond.bb20
                                        ##   Parent Loop BB0_1 Depth=1
                                        ## =>  This Inner Loop Header: Depth=2
	movq	%rbp, %rdi
	movq	%r15, %rsi
	callq	__ZNK14altered_carbon2js9JsVariantltERKS1_
	testb	%al, %al
	je	LBB0_12
## %bb.4:                               ## %for.bb17
                                        ##   in Loop: Header=BB0_3 Depth=2
	leaq	176(%rsp), %rbp
	movq	%rbp, %rdi
	movq	%rbp, %rsi
	callq	__ZN14altered_carbon2js9JsVariantmLERKS1_
	leaq	512(%rsp), %rbx
	movq	%rbx, %rdi
	leaq	456(%rsp), %rsi
	callq	__ZN14altered_carbon2js9JsVariantpLERKS1_
	movq	%rbp, %rdi
	movq	%rbx, %rsi
	callq	__ZN14altered_carbon2js9JsVariantpLERKS1_
	movl	$997, %esi              ## imm = 0x3E5
	leaq	2752(%rsp), %rbx
	movq	%rbx, %rdi
	callq	__ZN14altered_carbon2js9JsVariantaSEx
	movq	%rbp, %rdi
	leaq	2696(%rsp), %rsi
	movq	%rbx, %rdx
	callq	__ZNK14altered_carbon2js9JsVariant3modEPS1_RKS1_
	movq	%rax, %rbp
	movl	128(%rsp), %eax
	cmpl	$13, %eax
	je	LBB0_8
## %bb.5:                               ## %for.bb17
                                        ##   in Loop: Header=BB0_3 Depth=2
	cmpl	$11, %eax
	je	LBB0_8
## %bb.6:                               ## %for.bb17
                                        ##   in Loop: Header=BB0_3 Depth=2
	cmpl	$14, %eax
	je	LBB0_8
## %bb.7:                               ## %for.bb17
                                        ##   in Loop: Header=BB0_3 Depth=2
	cmpl	$12, %eax
	je	LBB0_8
## %bb.9:                               ## %ixonly.bb
                                        ##   in Loop: Header=BB0_3 Depth=2
	leaq	64(%rsp), %rax
	movq	%rax, %rdi
	leaq	2528(%rsp), %rsi
	leaq	8(%rsp), %rdx
	callq	__ZNK14altered_carbon2js9JsVariant3mulEPS1_RKS1_
	leaq	2584(%rsp), %rbx
	movq	%rbx, %rdi
	movq	%r13, %rsi
	movq	%rax, %rdx
	callq	__ZNK14altered_carbon2js9JsVariantixERS1_
	movq	%rbx, %rdi
	jmp	LBB0_10
	.p2align	4, 0x90
LBB0_8:                                 ## %ixaccess.bb
                                        ##   in Loop: Header=BB0_3 Depth=2
	leaq	64(%rsp), %rax
	movq	%rax, %rdi
	leaq	2640(%rsp), %rsi
	leaq	8(%rsp), %rdx
	callq	__ZNK14altered_carbon2js9JsVariant3mulEPS1_RKS1_
	movq	%r13, %rdi
	movq	%rax, %rsi
	callq	__ZN14altered_carbon2js9JsVariantixERS1_
	movq	%rax, %rdi
	jmp	LBB0_10
	.p2align	4, 0x90
LBB0_12:                                ## %exit.bb19
                                        ##   in Loop: Header=BB0_1 Depth=1
	xorl	%esi, %esi
	leaq	2080(%rsp), %r14
	movq	%r14, %rdi
	callq	__ZN14altered_carbon2js9JsVariantaSEx
	leaq	64(%rsp), %rbp
	movq	%rbp, %rdi
	movq	%r14, %rsi
	callq	__ZN14altered_carbon2js9JsVariantaSERKS1_
	jmp	LBB0_13
	.p2align	4, 0x90
LBB0_32:                                ## %exit.bb43
                                        ##   in Loop: Header=BB0_13 Depth=2
	leaq	64(%rsp), %rbp
	movq	%rbp, %rdi
	callq	__ZN14altered_carbon2js9JsVariantppEv
LBB0_13:                                ## %cond.bb38
                                        ##   Parent Loop BB0_1 Depth=1
                                        ## =>  This Loop Header: Depth=2
                                        ##       Child Loop BB0_15 Depth 3
	movl	$1, %esi
	leaq	680(%rsp), %r14
	movq	%r14, %rdi
	callq	__ZN14altered_carbon2js9JsVariantaSEx
	movq	%r15, %rdi
	leaq	624(%rsp), %rsi
	movq	%r14, %rdx
	callq	__ZNK14altered_carbon2js9JsVariant3subEPS1_RKS1_
	movq	%rbp, %rdi
	movq	%rax, %rsi
	callq	__ZNK14altered_carbon2js9JsVariantltERKS1_
	testb	%al, %al
	je	LBB0_11
## %bb.14:                              ## %for.bb35
                                        ##   in Loop: Header=BB0_13 Depth=2
	movl	$1, %esi
	leaq	2024(%rsp), %rbp
	movq	%rbp, %rdi
	callq	__ZN14altered_carbon2js9JsVariantaSEx
	movq	%r12, %rdi
	movq	%rbp, %rsi
	callq	__ZN14altered_carbon2js9JsVariantaSERKS1_
	leaq	736(%rsp), %r14
	jmp	LBB0_15
	.p2align	4, 0x90
LBB0_30:                                ## %ret.op
                                        ##   in Loop: Header=BB0_15 Depth=3
	movq	%r12, %rdi
	callq	__ZN14altered_carbon2js9JsVariantppEv
LBB0_15:                                ## %cond.bb44
                                        ##   Parent Loop BB0_1 Depth=1
                                        ##     Parent Loop BB0_13 Depth=2
                                        ## =>    This Inner Loop Header: Depth=3
	movq	%r15, %rdi
	movq	%r14, %rsi
	leaq	64(%rsp), %rdx
	callq	__ZNK14altered_carbon2js9JsVariant3subEPS1_RKS1_
	movq	%r12, %rdi
	movq	%rax, %rsi
	callq	__ZNK14altered_carbon2js9JsVariantltERKS1_
	testb	%al, %al
	je	LBB0_32
## %bb.16:                              ## %for.bb41
                                        ##   in Loop: Header=BB0_15 Depth=3
	movl	$1, %esi
	movq	%r13, %rbx
	leaq	1856(%rsp), %r13
	movq	%r13, %rdi
	callq	__ZN14altered_carbon2js9JsVariantaSEx
	movq	%r12, %rdi
	leaq	1800(%rsp), %rsi
	movq	%r13, %rdx
	movq	%rbx, %r13
	callq	__ZNK14altered_carbon2js9JsVariant3subEPS1_RKS1_
	movq	%rax, %rdi
	leaq	1744(%rsp), %rsi
	leaq	8(%rsp), %rbp
	movq	%rbp, %rdx
	callq	__ZNK14altered_carbon2js9JsVariant3mulEPS1_RKS1_
	leaq	1912(%rsp), %rbx
	movq	%rbx, %rdi
	movq	%r13, %rsi
	movq	%rax, %rdx
	callq	__ZNK14altered_carbon2js9JsVariantixERS1_
	movq	%r12, %rdi
	leaq	1632(%rsp), %rsi
	movq	%rbp, %rdx
	callq	__ZNK14altered_carbon2js9JsVariant3mulEPS1_RKS1_
	leaq	1688(%rsp), %rbp
	movq	%rbp, %rdi
	movq	%r13, %rsi
	movq	%rax, %rdx
	callq	__ZNK14altered_carbon2js9JsVariantixERS1_
	movq	%rbx, %rdi
	movq	%rbp, %rsi
	callq	__ZNK14altered_carbon2js9JsVariantgtERKS1_
	testb	%al, %al
	je	LBB0_30
## %bb.17:                              ## %ret.lhs
                                        ##   in Loop: Header=BB0_15 Depth=3
	movq	%r12, %rdi
	leaq	1520(%rsp), %rsi
	leaq	8(%rsp), %rbx
	movq	%rbx, %rdx
	callq	__ZNK14altered_carbon2js9JsVariant3mulEPS1_RKS1_
	leaq	1576(%rsp), %rbp
	movq	%rbp, %rdi
	movq	%r13, %rsi
	movq	%rax, %rdx
	callq	__ZNK14altered_carbon2js9JsVariantixERS1_
	leaq	288(%rsp), %rdi
	movq	%rbp, %rsi
	callq	__ZN14altered_carbon2js9JsVariantaSERKS1_
	movl	$1, %esi
	leaq	1464(%rsp), %rbp
	movq	%rbp, %rdi
	callq	__ZN14altered_carbon2js9JsVariantaSEx
	movq	%r12, %rdi
	leaq	1408(%rsp), %rsi
	movq	%rbp, %rdx
	callq	__ZNK14altered_carbon2js9JsVariant3subEPS1_RKS1_
	movq	%rax, %rdi
	leaq	1352(%rsp), %rsi
	movq	%rbx, %rdx
	callq	__ZNK14altered_carbon2js9JsVariant3mulEPS1_RKS1_
	leaq	232(%rsp), %rdi
	movq	%r13, %rsi
	movq	%rax, %rdx
	callq	__ZNK14altered_carbon2js9JsVariantixERS1_
	movl	128(%rsp), %eax
	cmpl	$13, %eax
	je	LBB0_21
## %bb.18:                              ## %ret.lhs
                                        ##   in Loop: Header=BB0_15 Depth=3
	cmpl	$11, %eax
	je	LBB0_21
## %bb.19:                              ## %ret.lhs
                                        ##   in Loop: Header=BB0_15 Depth=3
	cmpl	$14, %eax
	je	LBB0_21
## %bb.20:                              ## %ret.lhs
                                        ##   in Loop: Header=BB0_15 Depth=3
	cmpl	$12, %eax
	je	LBB0_21
## %bb.22:                              ## %ixonly.bb60
                                        ##   in Loop: Header=BB0_15 Depth=3
	movq	%r12, %rdi
	leaq	1184(%rsp), %rsi
	leaq	8(%rsp), %rdx
	callq	__ZNK14altered_carbon2js9JsVariant3mulEPS1_RKS1_
	leaq	1240(%rsp), %rbx
	movq	%rbx, %rdi
	movq	%r13, %rsi
	movq	%rax, %rdx
	callq	__ZNK14altered_carbon2js9JsVariantixERS1_
	movq	%rbx, %rdi
	jmp	LBB0_23
	.p2align	4, 0x90
LBB0_21:                                ## %ixaccess.bb59
                                        ##   in Loop: Header=BB0_15 Depth=3
	movq	%r12, %rdi
	leaq	1296(%rsp), %rsi
	leaq	8(%rsp), %rdx
	callq	__ZNK14altered_carbon2js9JsVariant3mulEPS1_RKS1_
	movq	%r13, %rdi
	movq	%rax, %rsi
	callq	__ZN14altered_carbon2js9JsVariantixERS1_
	movq	%rax, %rdi
LBB0_23:                                ## %ixexit.bb61
                                        ##   in Loop: Header=BB0_15 Depth=3
	leaq	232(%rsp), %rsi
	callq	__ZN14altered_carbon2js9JsVariantaSERKS1_
	movl	128(%rsp), %eax
	cmpl	$13, %eax
	je	LBB0_27
## %bb.24:                              ## %ixexit.bb61
                                        ##   in Loop: Header=BB0_15 Depth=3
	cmpl	$11, %eax
	je	LBB0_27
## %bb.25:                              ## %ixexit.bb61
                                        ##   in Loop: Header=BB0_15 Depth=3
	cmpl	$14, %eax
	je	LBB0_27
## %bb.26:                              ## %ixexit.bb61
                                        ##   in Loop: Header=BB0_15 Depth=3
	cmpl	$12, %eax
	je	LBB0_27
## %bb.28:                              ## %ixonly.bb67
                                        ##   in Loop: Header=BB0_15 Depth=3
	movl	$1, %esi
	leaq	904(%rsp), %rbx
	movq	%rbx, %rdi
	callq	__ZN14altered_carbon2js9JsVariantaSEx
	movq	%r12, %rdi
	leaq	848(%rsp), %rsi
	movq	%rbx, %rdx
	callq	__ZNK14altered_carbon2js9JsVariant3subEPS1_RKS1_
	movq	%rax, %rdi
	leaq	792(%rsp), %rsi
	leaq	8(%rsp), %rdx
	callq	__ZNK14altered_carbon2js9JsVariant3mulEPS1_RKS1_
	leaq	960(%rsp), %rbx
	movq	%rbx, %rdi
	movq	%r13, %rsi
	movq	%rax, %rdx
	callq	__ZNK14altered_carbon2js9JsVariantixERS1_
	movq	%rbx, %rdi
	jmp	LBB0_29
	.p2align	4, 0x90
LBB0_27:                                ## %ixaccess.bb66
                                        ##   in Loop: Header=BB0_15 Depth=3
	movl	$1, %esi
	leaq	1128(%rsp), %rbx
	movq	%rbx, %rdi
	callq	__ZN14altered_carbon2js9JsVariantaSEx
	movq	%r12, %rdi
	leaq	1072(%rsp), %rsi
	movq	%rbx, %rdx
	callq	__ZNK14altered_carbon2js9JsVariant3subEPS1_RKS1_
	movq	%rax, %rdi
	leaq	1016(%rsp), %rsi
	leaq	8(%rsp), %rdx
	callq	__ZNK14altered_carbon2js9JsVariant3mulEPS1_RKS1_
	movq	%r13, %rdi
	movq	%rax, %rsi
	callq	__ZN14altered_carbon2js9JsVariantixERS1_
	movq	%rax, %rdi
LBB0_29:                                ## %ixexit.bb68
                                        ##   in Loop: Header=BB0_15 Depth=3
	leaq	288(%rsp), %rsi
	callq	__ZN14altered_carbon2js9JsVariantaSERKS1_
	jmp	LBB0_30
LBB0_31:                                ## %exit.bb12
	leaq	3200(%rsp), %rbp
	leaq	120(%rsp), %rbx
	movq	%rbp, %rdi
	movq	%rbx, %rsi
	callq	__ZN14altered_carbon2js9JsVariantaSERKS1_
	movq	(%rsp), %rdi            ## 8-byte Reload
	movq	%rbp, %rsi
	callq	__ZN14altered_carbon2js9JsVariantaSERKS1_
	movq	%rbp, %rdi
	callq	__ZN14altered_carbon2js9JsVariantD1Ev
	leaq	3256(%rsp), %rdi
	callq	__ZN14altered_carbon2js9JsVariantD1Ev
	leaq	568(%rsp), %rdi
	callq	__ZN14altered_carbon2js9JsVariantD1Ev
	leaq	3312(%rsp), %rdi
	callq	__ZN14altered_carbon2js9JsVariantD1Ev
	leaq	624(%rsp), %rdi
	callq	__ZN14altered_carbon2js9JsVariantD1Ev
	leaq	680(%rsp), %rdi
	callq	__ZN14altered_carbon2js9JsVariantD1Ev
	leaq	3368(%rsp), %rdi
	callq	__ZN14altered_carbon2js9JsVariantD1Ev
	leaq	736(%rsp), %rdi
	callq	__ZN14altered_carbon2js9JsVariantD1Ev
	leaq	792(%rsp), %rdi
	callq	__ZN14altered_carbon2js9JsVariantD1Ev
	leaq	848(%rsp), %rdi
	callq	__ZN14altered_carbon2js9JsVariantD1Ev
	leaq	904(%rsp), %rdi
	callq	__ZN14altered_carbon2js9JsVariantD1Ev
	leaq	960(%rsp), %rdi
	callq	__ZN14altered_carbon2js9JsVariantD1Ev
	leaq	1016(%rsp), %rdi
	callq	__ZN14altered_carbon2js9JsVariantD1Ev
	leaq	1072(%rsp), %rdi
	callq	__ZN14altered_carbon2js9JsVariantD1Ev
	leaq	1128(%rsp), %rdi
	callq	__ZN14altered_carbon2js9JsVariantD1Ev
	leaq	1184(%rsp), %rdi
	callq	__ZN14altered_carbon2js9JsVariantD1Ev
	leaq	1240(%rsp), %rdi
	callq	__ZN14altered_carbon2js9JsVariantD1Ev
	leaq	1296(%rsp), %rdi
	callq	__ZN14altered_carbon2js9JsVariantD1Ev
	leaq	1352(%rsp), %rdi
	callq	__ZN14altered_carbon2js9JsVariantD1Ev
	leaq	1408(%rsp), %rdi
	callq	__ZN14altered_carbon2js9JsVariantD1Ev
	leaq	1464(%rsp), %rdi
	callq	__ZN14altered_carbon2js9JsVariantD1Ev
	leaq	232(%rsp), %rdi
	callq	__ZN14altered_carbon2js9JsVariantD1Ev
	leaq	288(%rsp), %rdi
	callq	__ZN14altered_carbon2js9JsVariantD1Ev
	leaq	1520(%rsp), %rdi
	callq	__ZN14altered_carbon2js9JsVariantD1Ev
	leaq	1576(%rsp), %rdi
	callq	__ZN14altered_carbon2js9JsVariantD1Ev
	leaq	3424(%rsp), %rdi
	callq	__ZN14altered_carbon2js9JsVariantD1Ev
	leaq	1632(%rsp), %rdi
	callq	__ZN14altered_carbon2js9JsVariantD1Ev
	leaq	1688(%rsp), %rdi
	callq	__ZN14altered_carbon2js9JsVariantD1Ev
	leaq	1744(%rsp), %rdi
	callq	__ZN14altered_carbon2js9JsVariantD1Ev
	leaq	1800(%rsp), %rdi
	callq	__ZN14altered_carbon2js9JsVariantD1Ev
	leaq	1856(%rsp), %rdi
	callq	__ZN14altered_carbon2js9JsVariantD1Ev
	leaq	1912(%rsp), %rdi
	callq	__ZN14altered_carbon2js9JsVariantD1Ev
	leaq	1968(%rsp), %rdi
	callq	__ZN14altered_carbon2js9JsVariantD1Ev
	leaq	2024(%rsp), %rdi
	callq	__ZN14altered_carbon2js9JsVariantD1Ev
	leaq	2080(%rsp), %rdi
	callq	__ZN14altered_carbon2js9JsVariantD1Ev
	leaq	3480(%rsp), %rdi
	callq	__ZN14altered_carbon2js9JsVariantD1Ev
	leaq	2136(%rsp), %rdi
	callq	__ZN14altered_carbon2js9JsVariantD1Ev
	leaq	2192(%rsp), %rdi
	callq	__ZN14altered_carbon2js9JsVariantD1Ev
	leaq	2248(%rsp), %rdi
	callq	__ZN14altered_carbon2js9JsVariantD1Ev
	leaq	2304(%rsp), %rdi
	callq	__ZN14altered_carbon2js9JsVariantD1Ev
	leaq	2360(%rsp), %rdi
	callq	__ZN14altered_carbon2js9JsVariantD1Ev
	leaq	2416(%rsp), %rdi
	callq	__ZN14altered_carbon2js9JsVariantD1Ev
	leaq	2472(%rsp), %rdi
	callq	__ZN14altered_carbon2js9JsVariantD1Ev
	leaq	2528(%rsp), %rdi
	callq	__ZN14altered_carbon2js9JsVariantD1Ev
	leaq	2584(%rsp), %rdi
	callq	__ZN14altered_carbon2js9JsVariantD1Ev
	leaq	2640(%rsp), %rdi
	callq	__ZN14altered_carbon2js9JsVariantD1Ev
	leaq	2696(%rsp), %rdi
	callq	__ZN14altered_carbon2js9JsVariantD1Ev
	leaq	2752(%rsp), %rdi
	callq	__ZN14altered_carbon2js9JsVariantD1Ev
	leaq	64(%rsp), %rdi
	callq	__ZN14altered_carbon2js9JsVariantD1Ev
	leaq	2808(%rsp), %rdi
	callq	__ZN14altered_carbon2js9JsVariantD1Ev
	movq	%rbx, %rdi
	callq	__ZN14altered_carbon2js9JsVariantD1Ev
	leaq	344(%rsp), %rdi
	callq	__ZN14altered_carbon2js9JsVariantD1Ev
	leaq	2864(%rsp), %rdi
	callq	__ZN14altered_carbon2js9JsVariantD1Ev
	leaq	8(%rsp), %rdi
	callq	__ZN14altered_carbon2js9JsVariantD1Ev
	leaq	2920(%rsp), %rdi
	callq	__ZN14altered_carbon2js9JsVariantD1Ev
	leaq	400(%rsp), %rdi
	callq	__ZN14altered_carbon2js9JsVariantD1Ev
	leaq	2976(%rsp), %rdi
	callq	__ZN14altered_carbon2js9JsVariantD1Ev
	leaq	456(%rsp), %rdi
	callq	__ZN14altered_carbon2js9JsVariantD1Ev
	leaq	3032(%rsp), %rdi
	callq	__ZN14altered_carbon2js9JsVariantD1Ev
	leaq	512(%rsp), %rdi
	callq	__ZN14altered_carbon2js9JsVariantD1Ev
	leaq	3088(%rsp), %rdi
	callq	__ZN14altered_carbon2js9JsVariantD1Ev
	leaq	176(%rsp), %rdi
	callq	__ZN14altered_carbon2js9JsVariantD1Ev
	leaq	3144(%rsp), %rdi
	callq	__ZN14altered_carbon2js9JsVariantD1Ev
	addq	$3592, %rsp             ## imm = 0xE08
	popq	%rbx
	popq	%r12
	popq	%r13
	popq	%r14
	popq	%r15
	popq	%rbp
	retq
	.cfi_endproc
                                        ## -- End function
	.section	__TEXT,__const
	.globl	__ZTSN14altered_carbon2js9JsVariantE ## @_ZTSN14altered_carbon2js9JsVariantE
	.weak_definition	__ZTSN14altered_carbon2js9JsVariantE
	.p2align	4
__ZTSN14altered_carbon2js9JsVariantE:
	.asciz	"N14altered_carbon2js9JsVariantE"

	.section	__DATA,__const
	.globl	__ZTIN14altered_carbon2js9JsVariantE ## @_ZTIN14altered_carbon2js9JsVariantE
	.weak_definition	__ZTIN14altered_carbon2js9JsVariantE
	.p2align	3
__ZTIN14altered_carbon2js9JsVariantE:
	.quad	__ZTVN10__cxxabiv117__class_type_infoE+16
	.quad	__ZTSN14altered_carbon2js9JsVariantE

	.globl	__ZTVN14altered_carbon2js9JsVariantE ## @_ZTVN14altered_carbon2js9JsVariantE
	.weak_def_can_be_hidden	__ZTVN14altered_carbon2js9JsVariantE
	.p2align	3
__ZTVN14altered_carbon2js9JsVariantE:
	.quad	0
	.quad	__ZTIN14altered_carbon2js9JsVariantE
	.quad	__ZN14altered_carbon2js9JsVariantD1Ev
	.quad	__ZN14altered_carbon2js9JsVariantD0Ev


.subsections_via_symbols
