	.section	__TEXT,__text,regular,pure_instructions
	.macosx_version_min 10, 13
	.section	__TEXT,__literal8,8byte_literals
	.p2align	3               ## -- Begin function _Z7_scriptPN14altered_carbon2js9JsVariantE
LCPI0_0:
	.quad	4614253070214989087     ## double 3.1400000000000001
	.section	__TEXT,__text,regular,pure_instructions
	.globl	__Z7_scriptPN14altered_carbon2js9JsVariantE
	.p2align	4, 0x90
__Z7_scriptPN14altered_carbon2js9JsVariantE: ## @_Z7_scriptPN14altered_carbon2js9JsVariantE
	.cfi_startproc
## %bb.0:                               ## %init.bb
	pushq	%r15
	.cfi_def_cfa_offset 16
	pushq	%r14
	.cfi_def_cfa_offset 24
	pushq	%rbx
	.cfi_def_cfa_offset 32
	subq	$21344, %rsp            ## imm = 0x5360
	.cfi_def_cfa_offset 21376
	.cfi_offset %rbx, -32
	.cfi_offset %r14, -24
	.cfi_offset %r15, -16
	movq	%rdi, %r14
	movq	__ZTVN14altered_carbon2js9JsVariantE@GOTPCREL(%rip), %rax
	addq	$16, %rax
	movq	%rax, 15968(%rsp)
	movl	$1, 15976(%rsp)
	movq	%rax, 15912(%rsp)
	movl	$1, 15920(%rsp)
	movq	%rax, 21288(%rsp)
	movl	$1, 21296(%rsp)
	movq	%rax, 15856(%rsp)
	movl	$1, 15864(%rsp)
	movq	%rax, 15800(%rsp)
	movl	$1, 15808(%rsp)
	movq	%rax, 15744(%rsp)
	movl	$1, 15752(%rsp)
	movq	%rax, 21232(%rsp)
	movl	$1, 21240(%rsp)
	movq	%rax, 15688(%rsp)
	movl	$1, 15696(%rsp)
	movq	%rax, 15632(%rsp)
	movl	$1, 15640(%rsp)
	movq	%rax, 15576(%rsp)
	movl	$1, 15584(%rsp)
	movq	%rax, 21176(%rsp)
	movl	$1, 21184(%rsp)
	movq	%rax, 15520(%rsp)
	movl	$1, 15528(%rsp)
	movq	%rax, 15464(%rsp)
	movl	$1, 15472(%rsp)
	movq	%rax, 15408(%rsp)
	movl	$1, 15416(%rsp)
	movq	%rax, 21120(%rsp)
	movl	$1, 21128(%rsp)
	movq	%rax, 15352(%rsp)
	movl	$1, 15360(%rsp)
	movq	%rax, 15296(%rsp)
	movl	$1, 15304(%rsp)
	movq	%rax, 15240(%rsp)
	movl	$1, 15248(%rsp)
	movq	%rax, 21064(%rsp)
	movl	$1, 21072(%rsp)
	movq	%rax, 15184(%rsp)
	movl	$1, 15192(%rsp)
	movq	%rax, 15128(%rsp)
	movl	$1, 15136(%rsp)
	movq	%rax, 15072(%rsp)
	movl	$1, 15080(%rsp)
	movq	%rax, 21008(%rsp)
	movl	$1, 21016(%rsp)
	movq	%rax, 15016(%rsp)
	movl	$1, 15024(%rsp)
	movq	%rax, 14960(%rsp)
	movl	$1, 14968(%rsp)
	movq	%rax, 14904(%rsp)
	movl	$1, 14912(%rsp)
	movq	%rax, 20952(%rsp)
	movl	$1, 20960(%rsp)
	movq	%rax, 14848(%rsp)
	movl	$1, 14856(%rsp)
	movq	%rax, 14792(%rsp)
	movl	$1, 14800(%rsp)
	movq	%rax, 14736(%rsp)
	movl	$1, 14744(%rsp)
	movq	%rax, 20896(%rsp)
	movl	$1, 20904(%rsp)
	movq	%rax, 14680(%rsp)
	movl	$1, 14688(%rsp)
	movq	%rax, 14624(%rsp)
	movl	$1, 14632(%rsp)
	movq	%rax, 14568(%rsp)
	movl	$1, 14576(%rsp)
	movq	%rax, 20840(%rsp)
	movl	$1, 20848(%rsp)
	movq	%rax, 14512(%rsp)
	movl	$1, 14520(%rsp)
	movq	%rax, 14456(%rsp)
	movl	$1, 14464(%rsp)
	movq	%rax, 14400(%rsp)
	movl	$1, 14408(%rsp)
	movq	%rax, 20784(%rsp)
	movl	$1, 20792(%rsp)
	movq	%rax, 14344(%rsp)
	movl	$1, 14352(%rsp)
	movq	%rax, 14288(%rsp)
	movl	$1, 14296(%rsp)
	movq	%rax, 14232(%rsp)
	movl	$1, 14240(%rsp)
	movq	%rax, 20728(%rsp)
	movl	$1, 20736(%rsp)
	movq	%rax, 14176(%rsp)
	movl	$1, 14184(%rsp)
	movq	%rax, 14120(%rsp)
	movl	$1, 14128(%rsp)
	movq	%rax, 14064(%rsp)
	movl	$1, 14072(%rsp)
	movq	%rax, 20672(%rsp)
	movl	$1, 20680(%rsp)
	movq	%rax, 14008(%rsp)
	movl	$1, 14016(%rsp)
	movq	%rax, 13952(%rsp)
	movl	$1, 13960(%rsp)
	movq	%rax, 13896(%rsp)
	movl	$1, 13904(%rsp)
	movq	%rax, 20616(%rsp)
	movl	$1, 20624(%rsp)
	movq	%rax, 13840(%rsp)
	movl	$1, 13848(%rsp)
	movq	%rax, 13784(%rsp)
	movl	$1, 13792(%rsp)
	movq	%rax, 13728(%rsp)
	movl	$1, 13736(%rsp)
	movq	%rax, 20560(%rsp)
	movl	$1, 20568(%rsp)
	movq	%rax, 13672(%rsp)
	movl	$1, 13680(%rsp)
	movq	%rax, 13616(%rsp)
	movl	$1, 13624(%rsp)
	movq	%rax, 13560(%rsp)
	movl	$1, 13568(%rsp)
	movq	%rax, 20504(%rsp)
	movl	$1, 20512(%rsp)
	movq	%rax, 13504(%rsp)
	movl	$1, 13512(%rsp)
	movq	%rax, 13448(%rsp)
	movl	$1, 13456(%rsp)
	movq	%rax, 13392(%rsp)
	movl	$1, 13400(%rsp)
	movq	%rax, 20448(%rsp)
	movl	$1, 20456(%rsp)
	movq	%rax, 13336(%rsp)
	movl	$1, 13344(%rsp)
	movq	%rax, 13280(%rsp)
	movl	$1, 13288(%rsp)
	movq	%rax, 13224(%rsp)
	movl	$1, 13232(%rsp)
	movq	%rax, 20392(%rsp)
	movl	$1, 20400(%rsp)
	movq	%rax, 13168(%rsp)
	movl	$1, 13176(%rsp)
	movq	%rax, 13112(%rsp)
	movl	$1, 13120(%rsp)
	movq	%rax, 13056(%rsp)
	movl	$1, 13064(%rsp)
	movq	%rax, 20336(%rsp)
	movl	$1, 20344(%rsp)
	movq	%rax, 13000(%rsp)
	movl	$1, 13008(%rsp)
	movq	%rax, 12944(%rsp)
	movl	$1, 12952(%rsp)
	movq	%rax, 12888(%rsp)
	movl	$1, 12896(%rsp)
	movq	%rax, 20280(%rsp)
	movl	$1, 20288(%rsp)
	movq	%rax, 12832(%rsp)
	movl	$1, 12840(%rsp)
	movq	%rax, 12776(%rsp)
	movl	$1, 12784(%rsp)
	movq	%rax, 12720(%rsp)
	movl	$1, 12728(%rsp)
	movq	%rax, 20224(%rsp)
	movl	$1, 20232(%rsp)
	movq	%rax, 12664(%rsp)
	movl	$1, 12672(%rsp)
	movq	%rax, 12608(%rsp)
	movl	$1, 12616(%rsp)
	movq	%rax, 12552(%rsp)
	movl	$1, 12560(%rsp)
	movq	%rax, 20168(%rsp)
	movl	$1, 20176(%rsp)
	movq	%rax, 12496(%rsp)
	movl	$1, 12504(%rsp)
	movq	%rax, 12440(%rsp)
	movl	$1, 12448(%rsp)
	movq	%rax, 12384(%rsp)
	movl	$1, 12392(%rsp)
	movq	%rax, 20112(%rsp)
	movl	$1, 20120(%rsp)
	movq	%rax, 12328(%rsp)
	movl	$1, 12336(%rsp)
	movq	%rax, 12272(%rsp)
	movl	$1, 12280(%rsp)
	movq	%rax, 12216(%rsp)
	movl	$1, 12224(%rsp)
	movq	%rax, 20056(%rsp)
	movl	$1, 20064(%rsp)
	movq	%rax, 12160(%rsp)
	movl	$1, 12168(%rsp)
	movq	%rax, 12104(%rsp)
	movl	$1, 12112(%rsp)
	movq	%rax, 12048(%rsp)
	movl	$1, 12056(%rsp)
	movq	%rax, 20000(%rsp)
	movl	$1, 20008(%rsp)
	movq	%rax, 11992(%rsp)
	movl	$1, 12000(%rsp)
	movq	%rax, 11936(%rsp)
	movl	$1, 11944(%rsp)
	movq	%rax, 11880(%rsp)
	movl	$1, 11888(%rsp)
	movq	%rax, 19944(%rsp)
	movl	$1, 19952(%rsp)
	movq	%rax, 11824(%rsp)
	movl	$1, 11832(%rsp)
	movq	%rax, 11768(%rsp)
	movl	$1, 11776(%rsp)
	movq	%rax, 11712(%rsp)
	movl	$1, 11720(%rsp)
	movq	%rax, 19888(%rsp)
	movl	$1, 19896(%rsp)
	movq	%rax, 11656(%rsp)
	movl	$1, 11664(%rsp)
	movq	%rax, 11600(%rsp)
	movl	$1, 11608(%rsp)
	movq	%rax, 11544(%rsp)
	movl	$1, 11552(%rsp)
	movq	%rax, 19832(%rsp)
	movl	$1, 19840(%rsp)
	movq	%rax, 11488(%rsp)
	movl	$1, 11496(%rsp)
	movq	%rax, 11432(%rsp)
	movl	$1, 11440(%rsp)
	movq	%rax, 11376(%rsp)
	movl	$1, 11384(%rsp)
	movq	%rax, 19776(%rsp)
	movl	$1, 19784(%rsp)
	movq	%rax, 11320(%rsp)
	movl	$1, 11328(%rsp)
	movq	%rax, 11264(%rsp)
	movl	$1, 11272(%rsp)
	movq	%rax, 11208(%rsp)
	movl	$1, 11216(%rsp)
	movq	%rax, 19720(%rsp)
	movl	$1, 19728(%rsp)
	movq	%rax, 11152(%rsp)
	movl	$1, 11160(%rsp)
	movq	%rax, 11096(%rsp)
	movl	$1, 11104(%rsp)
	movq	%rax, 11040(%rsp)
	movl	$1, 11048(%rsp)
	movq	%rax, 19664(%rsp)
	movl	$1, 19672(%rsp)
	movq	%rax, 10984(%rsp)
	movl	$1, 10992(%rsp)
	movq	%rax, 10928(%rsp)
	movl	$1, 10936(%rsp)
	movq	%rax, 10872(%rsp)
	movl	$1, 10880(%rsp)
	movq	%rax, 19608(%rsp)
	movl	$1, 19616(%rsp)
	movq	%rax, 10816(%rsp)
	movl	$1, 10824(%rsp)
	movq	%rax, 10760(%rsp)
	movl	$1, 10768(%rsp)
	movq	%rax, 10704(%rsp)
	movl	$1, 10712(%rsp)
	movq	%rax, 19552(%rsp)
	movl	$1, 19560(%rsp)
	movq	%rax, 10648(%rsp)
	movl	$1, 10656(%rsp)
	movq	%rax, 10592(%rsp)
	movl	$1, 10600(%rsp)
	movq	%rax, 10536(%rsp)
	movl	$1, 10544(%rsp)
	movq	%rax, 19496(%rsp)
	movl	$1, 19504(%rsp)
	movq	%rax, 10480(%rsp)
	movl	$1, 10488(%rsp)
	movq	%rax, 10424(%rsp)
	movl	$1, 10432(%rsp)
	movq	%rax, 10368(%rsp)
	movl	$1, 10376(%rsp)
	movq	%rax, 19440(%rsp)
	movl	$1, 19448(%rsp)
	movq	%rax, 10312(%rsp)
	movl	$1, 10320(%rsp)
	movq	%rax, 10256(%rsp)
	movl	$1, 10264(%rsp)
	movq	%rax, 10200(%rsp)
	movl	$1, 10208(%rsp)
	movq	%rax, 19384(%rsp)
	movl	$1, 19392(%rsp)
	movq	%rax, 10144(%rsp)
	movl	$1, 10152(%rsp)
	movq	%rax, 10088(%rsp)
	movl	$1, 10096(%rsp)
	movq	%rax, 10032(%rsp)
	movl	$1, 10040(%rsp)
	movq	%rax, 19328(%rsp)
	movl	$1, 19336(%rsp)
	movq	%rax, 9976(%rsp)
	movl	$1, 9984(%rsp)
	movq	%rax, 9920(%rsp)
	movl	$1, 9928(%rsp)
	movq	%rax, 9864(%rsp)
	movl	$1, 9872(%rsp)
	movq	%rax, 19272(%rsp)
	movl	$1, 19280(%rsp)
	movq	%rax, 9808(%rsp)
	movl	$1, 9816(%rsp)
	movq	%rax, 9752(%rsp)
	movl	$1, 9760(%rsp)
	movq	%rax, 9696(%rsp)
	movl	$1, 9704(%rsp)
	movq	%rax, 19216(%rsp)
	movl	$1, 19224(%rsp)
	movq	%rax, 9640(%rsp)
	movl	$1, 9648(%rsp)
	movq	%rax, 9584(%rsp)
	movl	$1, 9592(%rsp)
	movq	%rax, 9528(%rsp)
	movl	$1, 9536(%rsp)
	movq	%rax, 19160(%rsp)
	movl	$1, 19168(%rsp)
	movq	%rax, 9472(%rsp)
	movl	$1, 9480(%rsp)
	movq	%rax, 9416(%rsp)
	movl	$1, 9424(%rsp)
	movq	%rax, 9360(%rsp)
	movl	$1, 9368(%rsp)
	movq	%rax, 19104(%rsp)
	movl	$1, 19112(%rsp)
	movq	%rax, 9304(%rsp)
	movl	$1, 9312(%rsp)
	movq	%rax, 9248(%rsp)
	movl	$1, 9256(%rsp)
	movq	%rax, 9192(%rsp)
	movl	$1, 9200(%rsp)
	movq	%rax, 19048(%rsp)
	movl	$1, 19056(%rsp)
	movq	%rax, 9136(%rsp)
	movl	$1, 9144(%rsp)
	movq	%rax, 9080(%rsp)
	movl	$1, 9088(%rsp)
	movq	%rax, 9024(%rsp)
	movl	$1, 9032(%rsp)
	movq	%rax, 18992(%rsp)
	movl	$1, 19000(%rsp)
	movq	%rax, 8968(%rsp)
	movl	$1, 8976(%rsp)
	movq	%rax, 8912(%rsp)
	movl	$1, 8920(%rsp)
	movq	%rax, 8856(%rsp)
	movl	$1, 8864(%rsp)
	movq	%rax, 18936(%rsp)
	movl	$1, 18944(%rsp)
	movq	%rax, 8800(%rsp)
	movl	$1, 8808(%rsp)
	movq	%rax, 8744(%rsp)
	movl	$1, 8752(%rsp)
	movq	%rax, 8688(%rsp)
	movl	$1, 8696(%rsp)
	movq	%rax, 18880(%rsp)
	movl	$1, 18888(%rsp)
	movq	%rax, 8632(%rsp)
	movl	$1, 8640(%rsp)
	movq	%rax, 8576(%rsp)
	movl	$1, 8584(%rsp)
	movq	%rax, 8520(%rsp)
	movl	$1, 8528(%rsp)
	movq	%rax, 18824(%rsp)
	movl	$1, 18832(%rsp)
	movq	%rax, 8464(%rsp)
	movl	$1, 8472(%rsp)
	movq	%rax, 8408(%rsp)
	movl	$1, 8416(%rsp)
	movq	%rax, 8352(%rsp)
	movl	$1, 8360(%rsp)
	movq	%rax, 18768(%rsp)
	movl	$1, 18776(%rsp)
	movq	%rax, 8296(%rsp)
	movl	$1, 8304(%rsp)
	movq	%rax, 8240(%rsp)
	movl	$1, 8248(%rsp)
	movq	%rax, 8184(%rsp)
	movl	$1, 8192(%rsp)
	movq	%rax, 18712(%rsp)
	movl	$1, 18720(%rsp)
	movq	%rax, 8128(%rsp)
	movl	$1, 8136(%rsp)
	movq	%rax, 8072(%rsp)
	movl	$1, 8080(%rsp)
	movq	%rax, 8016(%rsp)
	movl	$1, 8024(%rsp)
	movq	%rax, 18656(%rsp)
	movl	$1, 18664(%rsp)
	movq	%rax, 7960(%rsp)
	movl	$1, 7968(%rsp)
	movq	%rax, 7904(%rsp)
	movl	$1, 7912(%rsp)
	movq	%rax, 7848(%rsp)
	movl	$1, 7856(%rsp)
	movq	%rax, 18600(%rsp)
	movl	$1, 18608(%rsp)
	movq	%rax, 7792(%rsp)
	movl	$1, 7800(%rsp)
	movq	%rax, 7736(%rsp)
	movl	$1, 7744(%rsp)
	movq	%rax, 7680(%rsp)
	movl	$1, 7688(%rsp)
	movq	%rax, 18544(%rsp)
	movl	$1, 18552(%rsp)
	movq	%rax, 7624(%rsp)
	movl	$1, 7632(%rsp)
	movq	%rax, 7568(%rsp)
	movl	$1, 7576(%rsp)
	movq	%rax, 7512(%rsp)
	movl	$1, 7520(%rsp)
	movq	%rax, 18488(%rsp)
	movl	$1, 18496(%rsp)
	movq	%rax, 7456(%rsp)
	movl	$1, 7464(%rsp)
	movq	%rax, 7400(%rsp)
	movl	$1, 7408(%rsp)
	movq	%rax, 7344(%rsp)
	movl	$1, 7352(%rsp)
	movq	%rax, 18432(%rsp)
	movl	$1, 18440(%rsp)
	movq	%rax, 7288(%rsp)
	movl	$1, 7296(%rsp)
	movq	%rax, 7232(%rsp)
	movl	$1, 7240(%rsp)
	movq	%rax, 7176(%rsp)
	movl	$1, 7184(%rsp)
	movq	%rax, 18376(%rsp)
	movl	$1, 18384(%rsp)
	movq	%rax, 7120(%rsp)
	movl	$1, 7128(%rsp)
	movq	%rax, 7064(%rsp)
	movl	$1, 7072(%rsp)
	movq	%rax, 7008(%rsp)
	movl	$1, 7016(%rsp)
	movq	%rax, 18320(%rsp)
	movl	$1, 18328(%rsp)
	movq	%rax, 6952(%rsp)
	movl	$1, 6960(%rsp)
	movq	%rax, 6896(%rsp)
	movl	$1, 6904(%rsp)
	movq	%rax, 6840(%rsp)
	movl	$1, 6848(%rsp)
	movq	%rax, 18264(%rsp)
	movl	$1, 18272(%rsp)
	movq	%rax, 6784(%rsp)
	movl	$1, 6792(%rsp)
	movq	%rax, 6728(%rsp)
	movl	$1, 6736(%rsp)
	movq	%rax, 6672(%rsp)
	movl	$1, 6680(%rsp)
	movq	%rax, 18208(%rsp)
	movl	$1, 18216(%rsp)
	movq	%rax, 6616(%rsp)
	movl	$1, 6624(%rsp)
	movq	%rax, 6560(%rsp)
	movl	$1, 6568(%rsp)
	movq	%rax, 6504(%rsp)
	movl	$1, 6512(%rsp)
	movq	%rax, 18152(%rsp)
	movl	$1, 18160(%rsp)
	movq	%rax, 6448(%rsp)
	movl	$1, 6456(%rsp)
	movq	%rax, 6392(%rsp)
	movl	$1, 6400(%rsp)
	movq	%rax, 6336(%rsp)
	movl	$1, 6344(%rsp)
	movq	%rax, 18096(%rsp)
	movl	$1, 18104(%rsp)
	movq	%rax, 6280(%rsp)
	movl	$1, 6288(%rsp)
	movq	%rax, 6224(%rsp)
	movl	$1, 6232(%rsp)
	movq	%rax, 6168(%rsp)
	movl	$1, 6176(%rsp)
	movq	%rax, 18040(%rsp)
	movl	$1, 18048(%rsp)
	movq	%rax, 6112(%rsp)
	movl	$1, 6120(%rsp)
	movq	%rax, 6056(%rsp)
	movl	$1, 6064(%rsp)
	movq	%rax, 6000(%rsp)
	movl	$1, 6008(%rsp)
	movq	%rax, 17984(%rsp)
	movl	$1, 17992(%rsp)
	movq	%rax, 5944(%rsp)
	movl	$1, 5952(%rsp)
	movq	%rax, 5888(%rsp)
	movl	$1, 5896(%rsp)
	movq	%rax, 5832(%rsp)
	movl	$1, 5840(%rsp)
	movq	%rax, 17928(%rsp)
	movl	$1, 17936(%rsp)
	movq	%rax, 5776(%rsp)
	movl	$1, 5784(%rsp)
	movq	%rax, 5720(%rsp)
	movl	$1, 5728(%rsp)
	movq	%rax, 5664(%rsp)
	movl	$1, 5672(%rsp)
	movq	%rax, 17872(%rsp)
	movl	$1, 17880(%rsp)
	movq	%rax, 5608(%rsp)
	movl	$1, 5616(%rsp)
	movq	%rax, 5552(%rsp)
	movl	$1, 5560(%rsp)
	movq	%rax, 5496(%rsp)
	movl	$1, 5504(%rsp)
	movq	%rax, 17816(%rsp)
	movl	$1, 17824(%rsp)
	movq	%rax, 5440(%rsp)
	movl	$1, 5448(%rsp)
	movq	%rax, 5384(%rsp)
	movl	$1, 5392(%rsp)
	movq	%rax, 5328(%rsp)
	movl	$1, 5336(%rsp)
	movq	%rax, 17760(%rsp)
	movl	$1, 17768(%rsp)
	movq	%rax, 5272(%rsp)
	movl	$1, 5280(%rsp)
	movq	%rax, 5216(%rsp)
	movl	$1, 5224(%rsp)
	movq	%rax, 5160(%rsp)
	movl	$1, 5168(%rsp)
	movq	%rax, 17704(%rsp)
	movl	$1, 17712(%rsp)
	movq	%rax, 5104(%rsp)
	movl	$1, 5112(%rsp)
	movq	%rax, 5048(%rsp)
	movl	$1, 5056(%rsp)
	movq	%rax, 4992(%rsp)
	movl	$1, 5000(%rsp)
	movq	%rax, 17648(%rsp)
	movl	$1, 17656(%rsp)
	movq	%rax, 4936(%rsp)
	movl	$1, 4944(%rsp)
	movq	%rax, 4880(%rsp)
	movl	$1, 4888(%rsp)
	movq	%rax, 4824(%rsp)
	movl	$1, 4832(%rsp)
	movq	%rax, 17592(%rsp)
	movl	$1, 17600(%rsp)
	movq	%rax, 4768(%rsp)
	movl	$1, 4776(%rsp)
	movq	%rax, 4712(%rsp)
	movl	$1, 4720(%rsp)
	movq	%rax, 4656(%rsp)
	movl	$1, 4664(%rsp)
	movq	%rax, 17536(%rsp)
	movl	$1, 17544(%rsp)
	movq	%rax, 4600(%rsp)
	movl	$1, 4608(%rsp)
	movq	%rax, 4544(%rsp)
	movl	$1, 4552(%rsp)
	movq	%rax, 4488(%rsp)
	movl	$1, 4496(%rsp)
	movq	%rax, 17480(%rsp)
	movl	$1, 17488(%rsp)
	movq	%rax, 4432(%rsp)
	movl	$1, 4440(%rsp)
	movq	%rax, 4376(%rsp)
	movl	$1, 4384(%rsp)
	movq	%rax, 4320(%rsp)
	movl	$1, 4328(%rsp)
	movq	%rax, 17424(%rsp)
	movl	$1, 17432(%rsp)
	movq	%rax, 4264(%rsp)
	movl	$1, 4272(%rsp)
	movq	%rax, 4208(%rsp)
	movl	$1, 4216(%rsp)
	movq	%rax, 4152(%rsp)
	movl	$1, 4160(%rsp)
	movq	%rax, 17368(%rsp)
	movl	$1, 17376(%rsp)
	movq	%rax, 4096(%rsp)
	movl	$1, 4104(%rsp)
	movq	%rax, 4040(%rsp)
	movl	$1, 4048(%rsp)
	movq	%rax, 3984(%rsp)
	movl	$1, 3992(%rsp)
	movq	%rax, 17312(%rsp)
	movl	$1, 17320(%rsp)
	movq	%rax, 3928(%rsp)
	movl	$1, 3936(%rsp)
	movq	%rax, 3872(%rsp)
	movl	$1, 3880(%rsp)
	movq	%rax, 3816(%rsp)
	movl	$1, 3824(%rsp)
	movq	%rax, 17256(%rsp)
	movl	$1, 17264(%rsp)
	movq	%rax, 3760(%rsp)
	movl	$1, 3768(%rsp)
	movq	%rax, 3704(%rsp)
	movl	$1, 3712(%rsp)
	movq	%rax, 3648(%rsp)
	movl	$1, 3656(%rsp)
	movq	%rax, 17200(%rsp)
	movl	$1, 17208(%rsp)
	movq	%rax, 3592(%rsp)
	movl	$1, 3600(%rsp)
	movq	%rax, 3536(%rsp)
	movl	$1, 3544(%rsp)
	movq	%rax, 3480(%rsp)
	movl	$1, 3488(%rsp)
	movq	%rax, 17144(%rsp)
	movl	$1, 17152(%rsp)
	movq	%rax, 3424(%rsp)
	movl	$1, 3432(%rsp)
	movq	%rax, 3368(%rsp)
	movl	$1, 3376(%rsp)
	movq	%rax, 3312(%rsp)
	movl	$1, 3320(%rsp)
	movq	%rax, 17088(%rsp)
	movl	$1, 17096(%rsp)
	movq	%rax, 3256(%rsp)
	movl	$1, 3264(%rsp)
	movq	%rax, 3200(%rsp)
	movl	$1, 3208(%rsp)
	movq	%rax, 3144(%rsp)
	movl	$1, 3152(%rsp)
	movq	%rax, 17032(%rsp)
	movl	$1, 17040(%rsp)
	movq	%rax, 3088(%rsp)
	movl	$1, 3096(%rsp)
	movq	%rax, 3032(%rsp)
	movl	$1, 3040(%rsp)
	movq	%rax, 2976(%rsp)
	movl	$1, 2984(%rsp)
	movq	%rax, 16976(%rsp)
	movl	$1, 16984(%rsp)
	movq	%rax, 2920(%rsp)
	movl	$1, 2928(%rsp)
	movq	%rax, 2864(%rsp)
	movl	$1, 2872(%rsp)
	movq	%rax, 2808(%rsp)
	movl	$1, 2816(%rsp)
	movq	%rax, 16920(%rsp)
	movl	$1, 16928(%rsp)
	movq	%rax, 2752(%rsp)
	movl	$1, 2760(%rsp)
	movq	%rax, 2696(%rsp)
	movl	$1, 2704(%rsp)
	movq	%rax, 2640(%rsp)
	movl	$1, 2648(%rsp)
	movq	%rax, 16864(%rsp)
	movl	$1, 16872(%rsp)
	movq	%rax, 2584(%rsp)
	movl	$1, 2592(%rsp)
	movq	%rax, 2528(%rsp)
	movl	$1, 2536(%rsp)
	movq	%rax, 2472(%rsp)
	movl	$1, 2480(%rsp)
	movq	%rax, 16808(%rsp)
	movl	$1, 16816(%rsp)
	movq	%rax, 2416(%rsp)
	movl	$1, 2424(%rsp)
	movq	%rax, 2360(%rsp)
	movl	$1, 2368(%rsp)
	movq	%rax, 2304(%rsp)
	movl	$1, 2312(%rsp)
	movq	%rax, 16752(%rsp)
	movl	$1, 16760(%rsp)
	movq	%rax, 2248(%rsp)
	movl	$1, 2256(%rsp)
	movq	%rax, 2192(%rsp)
	movl	$1, 2200(%rsp)
	movq	%rax, 2136(%rsp)
	movl	$1, 2144(%rsp)
	movq	%rax, 16696(%rsp)
	movl	$1, 16704(%rsp)
	movq	%rax, 2080(%rsp)
	movl	$1, 2088(%rsp)
	movq	%rax, 2024(%rsp)
	movl	$1, 2032(%rsp)
	movq	%rax, 1968(%rsp)
	movl	$1, 1976(%rsp)
	movq	%rax, 16640(%rsp)
	movl	$1, 16648(%rsp)
	movq	%rax, 1912(%rsp)
	movl	$1, 1920(%rsp)
	movq	%rax, 1856(%rsp)
	movl	$1, 1864(%rsp)
	movq	%rax, 1800(%rsp)
	movl	$1, 1808(%rsp)
	movq	%rax, 16584(%rsp)
	movl	$1, 16592(%rsp)
	movq	%rax, 1744(%rsp)
	movl	$1, 1752(%rsp)
	movq	%rax, 1688(%rsp)
	movl	$1, 1696(%rsp)
	movq	%rax, 1632(%rsp)
	movl	$1, 1640(%rsp)
	movq	%rax, 16528(%rsp)
	movl	$1, 16536(%rsp)
	movq	%rax, 1576(%rsp)
	movl	$1, 1584(%rsp)
	movq	%rax, 1520(%rsp)
	movl	$1, 1528(%rsp)
	movq	%rax, 1464(%rsp)
	movl	$1, 1472(%rsp)
	movq	%rax, 16472(%rsp)
	movl	$1, 16480(%rsp)
	movq	%rax, 1408(%rsp)
	movl	$1, 1416(%rsp)
	movq	%rax, 1352(%rsp)
	movl	$1, 1360(%rsp)
	movq	%rax, 1296(%rsp)
	movl	$1, 1304(%rsp)
	movq	%rax, 16416(%rsp)
	movl	$1, 16424(%rsp)
	movq	%rax, 1240(%rsp)
	movl	$1, 1248(%rsp)
	movq	%rax, 1184(%rsp)
	movl	$1, 1192(%rsp)
	movq	%rax, 1128(%rsp)
	movl	$1, 1136(%rsp)
	movq	%rax, 16360(%rsp)
	movl	$1, 16368(%rsp)
	movq	%rax, 1072(%rsp)
	movl	$1, 1080(%rsp)
	movq	%rax, 1016(%rsp)
	movl	$1, 1024(%rsp)
	movq	%rax, 960(%rsp)
	movl	$1, 968(%rsp)
	movq	%rax, 16304(%rsp)
	movl	$1, 16312(%rsp)
	movq	%rax, 904(%rsp)
	movl	$1, 912(%rsp)
	movq	%rax, 848(%rsp)
	movl	$1, 856(%rsp)
	movq	%rax, 792(%rsp)
	movl	$1, 800(%rsp)
	movq	%rax, 16248(%rsp)
	movl	$1, 16256(%rsp)
	movq	%rax, 736(%rsp)
	movl	$1, 744(%rsp)
	movq	%rax, 680(%rsp)
	movl	$1, 688(%rsp)
	movq	%rax, 624(%rsp)
	movl	$1, 632(%rsp)
	movq	%rax, 16192(%rsp)
	movl	$1, 16200(%rsp)
	movq	%rax, 568(%rsp)
	movl	$1, 576(%rsp)
	movq	%rax, 512(%rsp)
	movl	$1, 520(%rsp)
	movq	%rax, 456(%rsp)
	movl	$1, 464(%rsp)
	movq	%rax, 16136(%rsp)
	movl	$1, 16144(%rsp)
	movq	%rax, 400(%rsp)
	movl	$1, 408(%rsp)
	movq	%rax, 344(%rsp)
	movl	$1, 352(%rsp)
	movq	%rax, 288(%rsp)
	movl	$1, 296(%rsp)
	movq	%rax, 16080(%rsp)
	movl	$1, 16088(%rsp)
	movq	%rax, 232(%rsp)
	movl	$1, 240(%rsp)
	movq	%rax, 176(%rsp)
	movl	$1, 184(%rsp)
	movq	%rax, 120(%rsp)
	movl	$1, 128(%rsp)
	movq	%rax, 16024(%rsp)
	movl	$1, 16032(%rsp)
	movq	%rax, 64(%rsp)
	movl	$1, 72(%rsp)
	movq	%rax, 8(%rsp)
	movl	$1, 16(%rsp)
	leaq	15968(%rsp), %r15
	movl	$1, %esi
	movq	%r15, %rdi
	callq	__ZN14altered_carbon2js9JsVariantaSEx
	leaq	15912(%rsp), %rbx
	movl	$2, %esi
	movq	%rbx, %rdi
	callq	__ZN14altered_carbon2js9JsVariantaSEx
	movq	%r15, %rdi
	movq	%rbx, %rsi
	callq	__ZNK14altered_carbon2js9JsVariantltERKS1_
	movzbl	%al, %esi
	leaq	15856(%rsp), %rbx
	movq	%rbx, %rdi
	callq	__ZN14altered_carbon2js9JsVariantC1Eb
	movq	%rbx, %rdi
	callq	__ZNK14altered_carbon2js9JsVariant9asBooleanEv
	testb	%al, %al
	je	LBB0_96
## %bb.1:                               ## %ret.lhs
	leaq	15800(%rsp), %r15
	movl	$3, %esi
	movq	%r15, %rdi
	callq	__ZN14altered_carbon2js9JsVariantaSEx
	leaq	15744(%rsp), %rbx
	movl	$4, %esi
	movq	%rbx, %rdi
	callq	__ZN14altered_carbon2js9JsVariantaSEx
	movq	%r15, %rdi
	movq	%rbx, %rsi
	callq	__ZNK14altered_carbon2js9JsVariantltERKS1_
	movzbl	%al, %esi
	leaq	15688(%rsp), %rbx
	movq	%rbx, %rdi
	callq	__ZN14altered_carbon2js9JsVariantC1Eb
	movq	%rbx, %rdi
	callq	__ZNK14altered_carbon2js9JsVariant9asBooleanEv
	testb	%al, %al
	je	LBB0_96
## %bb.2:                               ## %ret.lhs8
	leaq	15632(%rsp), %r15
	movl	$5, %esi
	movq	%r15, %rdi
	callq	__ZN14altered_carbon2js9JsVariantaSEx
	leaq	15576(%rsp), %rbx
	movl	$6, %esi
	movq	%rbx, %rdi
	callq	__ZN14altered_carbon2js9JsVariantaSEx
	movq	%r15, %rdi
	movq	%rbx, %rsi
	callq	__ZNK14altered_carbon2js9JsVariantltERKS1_
	movzbl	%al, %esi
	leaq	15520(%rsp), %rbx
	movq	%rbx, %rdi
	callq	__ZN14altered_carbon2js9JsVariantC1Eb
	movq	%rbx, %rdi
	callq	__ZNK14altered_carbon2js9JsVariant9asBooleanEv
	testb	%al, %al
	je	LBB0_96
## %bb.3:                               ## %ret.lhs16
	leaq	15464(%rsp), %r15
	movl	$7, %esi
	movq	%r15, %rdi
	callq	__ZN14altered_carbon2js9JsVariantaSEx
	leaq	15408(%rsp), %rbx
	movl	$8, %esi
	movq	%rbx, %rdi
	callq	__ZN14altered_carbon2js9JsVariantaSEx
	movq	%r15, %rdi
	movq	%rbx, %rsi
	callq	__ZNK14altered_carbon2js9JsVariantltERKS1_
	movzbl	%al, %esi
	leaq	15352(%rsp), %rbx
	movq	%rbx, %rdi
	callq	__ZN14altered_carbon2js9JsVariantC1Eb
	movq	%rbx, %rdi
	callq	__ZNK14altered_carbon2js9JsVariant9asBooleanEv
	testb	%al, %al
	je	LBB0_96
## %bb.4:                               ## %ret.lhs24
	leaq	15296(%rsp), %r15
	movl	$9, %esi
	movq	%r15, %rdi
	callq	__ZN14altered_carbon2js9JsVariantaSEx
	leaq	15240(%rsp), %rbx
	movl	$10, %esi
	movq	%rbx, %rdi
	callq	__ZN14altered_carbon2js9JsVariantaSEx
	movq	%r15, %rdi
	movq	%rbx, %rsi
	callq	__ZNK14altered_carbon2js9JsVariantltERKS1_
	movzbl	%al, %esi
	leaq	15184(%rsp), %rbx
	movq	%rbx, %rdi
	callq	__ZN14altered_carbon2js9JsVariantC1Eb
	movq	%rbx, %rdi
	callq	__ZNK14altered_carbon2js9JsVariant9asBooleanEv
	testb	%al, %al
	je	LBB0_96
## %bb.5:                               ## %ret.lhs32
	leaq	15128(%rsp), %r15
	movl	$1, %esi
	movq	%r15, %rdi
	callq	__ZN14altered_carbon2js9JsVariantaSEx
	leaq	15072(%rsp), %rbx
	movl	$2, %esi
	movq	%rbx, %rdi
	callq	__ZN14altered_carbon2js9JsVariantaSEx
	movq	%r15, %rdi
	movq	%rbx, %rsi
	callq	__ZNK14altered_carbon2js9JsVariantltERKS1_
	movzbl	%al, %esi
	leaq	15016(%rsp), %rbx
	movq	%rbx, %rdi
	callq	__ZN14altered_carbon2js9JsVariantC1Eb
	movq	%rbx, %rdi
	callq	__ZNK14altered_carbon2js9JsVariant9asBooleanEv
	testb	%al, %al
	je	LBB0_96
## %bb.6:                               ## %ret.lhs40
	leaq	14960(%rsp), %r15
	movl	$3, %esi
	movq	%r15, %rdi
	callq	__ZN14altered_carbon2js9JsVariantaSEx
	leaq	14904(%rsp), %rbx
	movl	$4, %esi
	movq	%rbx, %rdi
	callq	__ZN14altered_carbon2js9JsVariantaSEx
	movq	%r15, %rdi
	movq	%rbx, %rsi
	callq	__ZNK14altered_carbon2js9JsVariantltERKS1_
	movzbl	%al, %esi
	leaq	14848(%rsp), %rbx
	movq	%rbx, %rdi
	callq	__ZN14altered_carbon2js9JsVariantC1Eb
	movq	%rbx, %rdi
	callq	__ZNK14altered_carbon2js9JsVariant9asBooleanEv
	testb	%al, %al
	je	LBB0_96
## %bb.7:                               ## %ret.lhs48
	leaq	14792(%rsp), %r15
	movl	$5, %esi
	movq	%r15, %rdi
	callq	__ZN14altered_carbon2js9JsVariantaSEx
	leaq	14736(%rsp), %rbx
	movl	$6, %esi
	movq	%rbx, %rdi
	callq	__ZN14altered_carbon2js9JsVariantaSEx
	movq	%r15, %rdi
	movq	%rbx, %rsi
	callq	__ZNK14altered_carbon2js9JsVariantltERKS1_
	movzbl	%al, %esi
	leaq	14680(%rsp), %rbx
	movq	%rbx, %rdi
	callq	__ZN14altered_carbon2js9JsVariantC1Eb
	movq	%rbx, %rdi
	callq	__ZNK14altered_carbon2js9JsVariant9asBooleanEv
	testb	%al, %al
	je	LBB0_96
## %bb.8:                               ## %ret.lhs56
	leaq	14624(%rsp), %r15
	movl	$7, %esi
	movq	%r15, %rdi
	callq	__ZN14altered_carbon2js9JsVariantaSEx
	leaq	14568(%rsp), %rbx
	movl	$8, %esi
	movq	%rbx, %rdi
	callq	__ZN14altered_carbon2js9JsVariantaSEx
	movq	%r15, %rdi
	movq	%rbx, %rsi
	callq	__ZNK14altered_carbon2js9JsVariantltERKS1_
	movzbl	%al, %esi
	leaq	14512(%rsp), %rbx
	movq	%rbx, %rdi
	callq	__ZN14altered_carbon2js9JsVariantC1Eb
	movq	%rbx, %rdi
	callq	__ZNK14altered_carbon2js9JsVariant9asBooleanEv
	testb	%al, %al
	je	LBB0_96
## %bb.9:                               ## %ret.lhs64
	leaq	14456(%rsp), %r15
	movl	$9, %esi
	movq	%r15, %rdi
	callq	__ZN14altered_carbon2js9JsVariantaSEx
	leaq	14400(%rsp), %rbx
	movl	$10, %esi
	movq	%rbx, %rdi
	callq	__ZN14altered_carbon2js9JsVariantaSEx
	movq	%r15, %rdi
	movq	%rbx, %rsi
	callq	__ZNK14altered_carbon2js9JsVariantltERKS1_
	movzbl	%al, %esi
	leaq	14344(%rsp), %rbx
	movq	%rbx, %rdi
	callq	__ZN14altered_carbon2js9JsVariantC1Eb
	movq	%rbx, %rdi
	callq	__ZNK14altered_carbon2js9JsVariant9asBooleanEv
	testb	%al, %al
	je	LBB0_96
## %bb.10:                              ## %ret.lhs72
	leaq	14288(%rsp), %r15
	movl	$1, %esi
	movq	%r15, %rdi
	callq	__ZN14altered_carbon2js9JsVariantaSEx
	leaq	14232(%rsp), %rbx
	movl	$2, %esi
	movq	%rbx, %rdi
	callq	__ZN14altered_carbon2js9JsVariantaSEx
	movq	%r15, %rdi
	movq	%rbx, %rsi
	callq	__ZNK14altered_carbon2js9JsVariantltERKS1_
	movzbl	%al, %esi
	leaq	14176(%rsp), %rbx
	movq	%rbx, %rdi
	callq	__ZN14altered_carbon2js9JsVariantC1Eb
	movq	%rbx, %rdi
	callq	__ZNK14altered_carbon2js9JsVariant9asBooleanEv
	testb	%al, %al
	je	LBB0_96
## %bb.11:                              ## %ret.lhs80
	leaq	14120(%rsp), %r15
	movl	$3, %esi
	movq	%r15, %rdi
	callq	__ZN14altered_carbon2js9JsVariantaSEx
	leaq	14064(%rsp), %rbx
	movl	$4, %esi
	movq	%rbx, %rdi
	callq	__ZN14altered_carbon2js9JsVariantaSEx
	movq	%r15, %rdi
	movq	%rbx, %rsi
	callq	__ZNK14altered_carbon2js9JsVariantltERKS1_
	movzbl	%al, %esi
	leaq	14008(%rsp), %rbx
	movq	%rbx, %rdi
	callq	__ZN14altered_carbon2js9JsVariantC1Eb
	movq	%rbx, %rdi
	callq	__ZNK14altered_carbon2js9JsVariant9asBooleanEv
	testb	%al, %al
	je	LBB0_96
## %bb.12:                              ## %ret.lhs88
	leaq	13952(%rsp), %r15
	movl	$5, %esi
	movq	%r15, %rdi
	callq	__ZN14altered_carbon2js9JsVariantaSEx
	leaq	13896(%rsp), %rbx
	movl	$6, %esi
	movq	%rbx, %rdi
	callq	__ZN14altered_carbon2js9JsVariantaSEx
	movq	%r15, %rdi
	movq	%rbx, %rsi
	callq	__ZNK14altered_carbon2js9JsVariantltERKS1_
	movzbl	%al, %esi
	leaq	13840(%rsp), %rbx
	movq	%rbx, %rdi
	callq	__ZN14altered_carbon2js9JsVariantC1Eb
	movq	%rbx, %rdi
	callq	__ZNK14altered_carbon2js9JsVariant9asBooleanEv
	testb	%al, %al
	je	LBB0_96
## %bb.13:                              ## %ret.lhs96
	leaq	13784(%rsp), %r15
	movl	$7, %esi
	movq	%r15, %rdi
	callq	__ZN14altered_carbon2js9JsVariantaSEx
	leaq	13728(%rsp), %rbx
	movl	$8, %esi
	movq	%rbx, %rdi
	callq	__ZN14altered_carbon2js9JsVariantaSEx
	movq	%r15, %rdi
	movq	%rbx, %rsi
	callq	__ZNK14altered_carbon2js9JsVariantltERKS1_
	movzbl	%al, %esi
	leaq	13672(%rsp), %rbx
	movq	%rbx, %rdi
	callq	__ZN14altered_carbon2js9JsVariantC1Eb
	movq	%rbx, %rdi
	callq	__ZNK14altered_carbon2js9JsVariant9asBooleanEv
	testb	%al, %al
	je	LBB0_96
## %bb.14:                              ## %ret.lhs104
	leaq	13616(%rsp), %r15
	movl	$9, %esi
	movq	%r15, %rdi
	callq	__ZN14altered_carbon2js9JsVariantaSEx
	leaq	13560(%rsp), %rbx
	movl	$10, %esi
	movq	%rbx, %rdi
	callq	__ZN14altered_carbon2js9JsVariantaSEx
	movq	%r15, %rdi
	movq	%rbx, %rsi
	callq	__ZNK14altered_carbon2js9JsVariantltERKS1_
	movzbl	%al, %esi
	leaq	13504(%rsp), %rbx
	movq	%rbx, %rdi
	callq	__ZN14altered_carbon2js9JsVariantC1Eb
	movq	%rbx, %rdi
	callq	__ZNK14altered_carbon2js9JsVariant9asBooleanEv
	testb	%al, %al
	je	LBB0_96
## %bb.15:                              ## %ret.lhs112
	leaq	13448(%rsp), %r15
	movl	$1, %esi
	movq	%r15, %rdi
	callq	__ZN14altered_carbon2js9JsVariantaSEx
	leaq	13392(%rsp), %rbx
	movl	$2, %esi
	movq	%rbx, %rdi
	callq	__ZN14altered_carbon2js9JsVariantaSEx
	movq	%r15, %rdi
	movq	%rbx, %rsi
	callq	__ZNK14altered_carbon2js9JsVariantltERKS1_
	movzbl	%al, %esi
	leaq	13336(%rsp), %rbx
	movq	%rbx, %rdi
	callq	__ZN14altered_carbon2js9JsVariantC1Eb
	movq	%rbx, %rdi
	callq	__ZNK14altered_carbon2js9JsVariant9asBooleanEv
	testb	%al, %al
	je	LBB0_96
## %bb.16:                              ## %ret.lhs120
	leaq	13280(%rsp), %r15
	movl	$3, %esi
	movq	%r15, %rdi
	callq	__ZN14altered_carbon2js9JsVariantaSEx
	leaq	13224(%rsp), %rbx
	movl	$4, %esi
	movq	%rbx, %rdi
	callq	__ZN14altered_carbon2js9JsVariantaSEx
	movq	%r15, %rdi
	movq	%rbx, %rsi
	callq	__ZNK14altered_carbon2js9JsVariantltERKS1_
	movzbl	%al, %esi
	leaq	13168(%rsp), %rbx
	movq	%rbx, %rdi
	callq	__ZN14altered_carbon2js9JsVariantC1Eb
	movq	%rbx, %rdi
	callq	__ZNK14altered_carbon2js9JsVariant9asBooleanEv
	testb	%al, %al
	je	LBB0_96
## %bb.17:                              ## %ret.lhs128
	leaq	13112(%rsp), %r15
	movl	$5, %esi
	movq	%r15, %rdi
	callq	__ZN14altered_carbon2js9JsVariantaSEx
	leaq	13056(%rsp), %rbx
	movl	$6, %esi
	movq	%rbx, %rdi
	callq	__ZN14altered_carbon2js9JsVariantaSEx
	movq	%r15, %rdi
	movq	%rbx, %rsi
	callq	__ZNK14altered_carbon2js9JsVariantltERKS1_
	movzbl	%al, %esi
	leaq	13000(%rsp), %rbx
	movq	%rbx, %rdi
	callq	__ZN14altered_carbon2js9JsVariantC1Eb
	movq	%rbx, %rdi
	callq	__ZNK14altered_carbon2js9JsVariant9asBooleanEv
	testb	%al, %al
	je	LBB0_96
## %bb.18:                              ## %ret.lhs136
	leaq	12944(%rsp), %r15
	movl	$7, %esi
	movq	%r15, %rdi
	callq	__ZN14altered_carbon2js9JsVariantaSEx
	leaq	12888(%rsp), %rbx
	movl	$8, %esi
	movq	%rbx, %rdi
	callq	__ZN14altered_carbon2js9JsVariantaSEx
	movq	%r15, %rdi
	movq	%rbx, %rsi
	callq	__ZNK14altered_carbon2js9JsVariantltERKS1_
	movzbl	%al, %esi
	leaq	12832(%rsp), %rbx
	movq	%rbx, %rdi
	callq	__ZN14altered_carbon2js9JsVariantC1Eb
	movq	%rbx, %rdi
	callq	__ZNK14altered_carbon2js9JsVariant9asBooleanEv
	testb	%al, %al
	je	LBB0_96
## %bb.19:                              ## %ret.lhs144
	leaq	12776(%rsp), %r15
	movl	$9, %esi
	movq	%r15, %rdi
	callq	__ZN14altered_carbon2js9JsVariantaSEx
	leaq	12720(%rsp), %rbx
	movl	$10, %esi
	movq	%rbx, %rdi
	callq	__ZN14altered_carbon2js9JsVariantaSEx
	movq	%r15, %rdi
	movq	%rbx, %rsi
	callq	__ZNK14altered_carbon2js9JsVariantltERKS1_
	movzbl	%al, %esi
	leaq	12664(%rsp), %rbx
	movq	%rbx, %rdi
	callq	__ZN14altered_carbon2js9JsVariantC1Eb
	movq	%rbx, %rdi
	callq	__ZNK14altered_carbon2js9JsVariant9asBooleanEv
	testb	%al, %al
	je	LBB0_96
## %bb.20:                              ## %ret.lhs152
	leaq	12608(%rsp), %r15
	movl	$1, %esi
	movq	%r15, %rdi
	callq	__ZN14altered_carbon2js9JsVariantaSEx
	leaq	12552(%rsp), %rbx
	movl	$2, %esi
	movq	%rbx, %rdi
	callq	__ZN14altered_carbon2js9JsVariantaSEx
	movq	%r15, %rdi
	movq	%rbx, %rsi
	callq	__ZNK14altered_carbon2js9JsVariantltERKS1_
	movzbl	%al, %esi
	leaq	12496(%rsp), %rbx
	movq	%rbx, %rdi
	callq	__ZN14altered_carbon2js9JsVariantC1Eb
	movq	%rbx, %rdi
	callq	__ZNK14altered_carbon2js9JsVariant9asBooleanEv
	testb	%al, %al
	je	LBB0_96
## %bb.21:                              ## %ret.lhs160
	leaq	12440(%rsp), %r15
	movl	$3, %esi
	movq	%r15, %rdi
	callq	__ZN14altered_carbon2js9JsVariantaSEx
	leaq	12384(%rsp), %rbx
	movl	$4, %esi
	movq	%rbx, %rdi
	callq	__ZN14altered_carbon2js9JsVariantaSEx
	movq	%r15, %rdi
	movq	%rbx, %rsi
	callq	__ZNK14altered_carbon2js9JsVariantltERKS1_
	movzbl	%al, %esi
	leaq	12328(%rsp), %rbx
	movq	%rbx, %rdi
	callq	__ZN14altered_carbon2js9JsVariantC1Eb
	movq	%rbx, %rdi
	callq	__ZNK14altered_carbon2js9JsVariant9asBooleanEv
	testb	%al, %al
	je	LBB0_96
## %bb.22:                              ## %ret.lhs168
	leaq	12272(%rsp), %r15
	movl	$5, %esi
	movq	%r15, %rdi
	callq	__ZN14altered_carbon2js9JsVariantaSEx
	leaq	12216(%rsp), %rbx
	movl	$6, %esi
	movq	%rbx, %rdi
	callq	__ZN14altered_carbon2js9JsVariantaSEx
	movq	%r15, %rdi
	movq	%rbx, %rsi
	callq	__ZNK14altered_carbon2js9JsVariantltERKS1_
	movzbl	%al, %esi
	leaq	12160(%rsp), %rbx
	movq	%rbx, %rdi
	callq	__ZN14altered_carbon2js9JsVariantC1Eb
	movq	%rbx, %rdi
	callq	__ZNK14altered_carbon2js9JsVariant9asBooleanEv
	testb	%al, %al
	je	LBB0_96
## %bb.23:                              ## %ret.lhs176
	leaq	12104(%rsp), %r15
	movl	$7, %esi
	movq	%r15, %rdi
	callq	__ZN14altered_carbon2js9JsVariantaSEx
	leaq	12048(%rsp), %rbx
	movl	$8, %esi
	movq	%rbx, %rdi
	callq	__ZN14altered_carbon2js9JsVariantaSEx
	movq	%r15, %rdi
	movq	%rbx, %rsi
	callq	__ZNK14altered_carbon2js9JsVariantltERKS1_
	movzbl	%al, %esi
	leaq	11992(%rsp), %rbx
	movq	%rbx, %rdi
	callq	__ZN14altered_carbon2js9JsVariantC1Eb
	movq	%rbx, %rdi
	callq	__ZNK14altered_carbon2js9JsVariant9asBooleanEv
	testb	%al, %al
	je	LBB0_96
## %bb.24:                              ## %ret.lhs184
	leaq	11936(%rsp), %r15
	movl	$9, %esi
	movq	%r15, %rdi
	callq	__ZN14altered_carbon2js9JsVariantaSEx
	leaq	11880(%rsp), %rbx
	movl	$10, %esi
	movq	%rbx, %rdi
	callq	__ZN14altered_carbon2js9JsVariantaSEx
	movq	%r15, %rdi
	movq	%rbx, %rsi
	callq	__ZNK14altered_carbon2js9JsVariantltERKS1_
	movzbl	%al, %esi
	leaq	11824(%rsp), %rbx
	movq	%rbx, %rdi
	callq	__ZN14altered_carbon2js9JsVariantC1Eb
	movq	%rbx, %rdi
	callq	__ZNK14altered_carbon2js9JsVariant9asBooleanEv
	testb	%al, %al
	je	LBB0_96
## %bb.25:                              ## %ret.lhs192
	leaq	11768(%rsp), %r15
	movl	$1, %esi
	movq	%r15, %rdi
	callq	__ZN14altered_carbon2js9JsVariantaSEx
	leaq	11712(%rsp), %rbx
	movl	$2, %esi
	movq	%rbx, %rdi
	callq	__ZN14altered_carbon2js9JsVariantaSEx
	movq	%r15, %rdi
	movq	%rbx, %rsi
	callq	__ZNK14altered_carbon2js9JsVariantltERKS1_
	movzbl	%al, %esi
	leaq	11656(%rsp), %rbx
	movq	%rbx, %rdi
	callq	__ZN14altered_carbon2js9JsVariantC1Eb
	movq	%rbx, %rdi
	callq	__ZNK14altered_carbon2js9JsVariant9asBooleanEv
	testb	%al, %al
	je	LBB0_96
## %bb.26:                              ## %ret.lhs200
	leaq	11600(%rsp), %r15
	movl	$3, %esi
	movq	%r15, %rdi
	callq	__ZN14altered_carbon2js9JsVariantaSEx
	leaq	11544(%rsp), %rbx
	movl	$4, %esi
	movq	%rbx, %rdi
	callq	__ZN14altered_carbon2js9JsVariantaSEx
	movq	%r15, %rdi
	movq	%rbx, %rsi
	callq	__ZNK14altered_carbon2js9JsVariantltERKS1_
	movzbl	%al, %esi
	leaq	11488(%rsp), %rbx
	movq	%rbx, %rdi
	callq	__ZN14altered_carbon2js9JsVariantC1Eb
	movq	%rbx, %rdi
	callq	__ZNK14altered_carbon2js9JsVariant9asBooleanEv
	testb	%al, %al
	je	LBB0_96
## %bb.27:                              ## %ret.lhs208
	leaq	11432(%rsp), %r15
	movl	$5, %esi
	movq	%r15, %rdi
	callq	__ZN14altered_carbon2js9JsVariantaSEx
	leaq	11376(%rsp), %rbx
	movl	$6, %esi
	movq	%rbx, %rdi
	callq	__ZN14altered_carbon2js9JsVariantaSEx
	movq	%r15, %rdi
	movq	%rbx, %rsi
	callq	__ZNK14altered_carbon2js9JsVariantltERKS1_
	movzbl	%al, %esi
	leaq	11320(%rsp), %rbx
	movq	%rbx, %rdi
	callq	__ZN14altered_carbon2js9JsVariantC1Eb
	movq	%rbx, %rdi
	callq	__ZNK14altered_carbon2js9JsVariant9asBooleanEv
	testb	%al, %al
	je	LBB0_96
## %bb.28:                              ## %ret.lhs216
	leaq	11264(%rsp), %r15
	movl	$7, %esi
	movq	%r15, %rdi
	callq	__ZN14altered_carbon2js9JsVariantaSEx
	leaq	11208(%rsp), %rbx
	movl	$8, %esi
	movq	%rbx, %rdi
	callq	__ZN14altered_carbon2js9JsVariantaSEx
	movq	%r15, %rdi
	movq	%rbx, %rsi
	callq	__ZNK14altered_carbon2js9JsVariantltERKS1_
	movzbl	%al, %esi
	leaq	11152(%rsp), %rbx
	movq	%rbx, %rdi
	callq	__ZN14altered_carbon2js9JsVariantC1Eb
	movq	%rbx, %rdi
	callq	__ZNK14altered_carbon2js9JsVariant9asBooleanEv
	testb	%al, %al
	je	LBB0_96
## %bb.29:                              ## %ret.lhs224
	leaq	11096(%rsp), %r15
	movl	$9, %esi
	movq	%r15, %rdi
	callq	__ZN14altered_carbon2js9JsVariantaSEx
	leaq	11040(%rsp), %rbx
	movl	$10, %esi
	movq	%rbx, %rdi
	callq	__ZN14altered_carbon2js9JsVariantaSEx
	movq	%r15, %rdi
	movq	%rbx, %rsi
	callq	__ZNK14altered_carbon2js9JsVariantltERKS1_
	movzbl	%al, %esi
	leaq	10984(%rsp), %rbx
	movq	%rbx, %rdi
	callq	__ZN14altered_carbon2js9JsVariantC1Eb
	movq	%rbx, %rdi
	callq	__ZNK14altered_carbon2js9JsVariant9asBooleanEv
	testb	%al, %al
	je	LBB0_96
## %bb.30:                              ## %ret.lhs232
	leaq	10928(%rsp), %r15
	movl	$1, %esi
	movq	%r15, %rdi
	callq	__ZN14altered_carbon2js9JsVariantaSEx
	leaq	10872(%rsp), %rbx
	movl	$2, %esi
	movq	%rbx, %rdi
	callq	__ZN14altered_carbon2js9JsVariantaSEx
	movq	%r15, %rdi
	movq	%rbx, %rsi
	callq	__ZNK14altered_carbon2js9JsVariantltERKS1_
	movzbl	%al, %esi
	leaq	10816(%rsp), %rbx
	movq	%rbx, %rdi
	callq	__ZN14altered_carbon2js9JsVariantC1Eb
	movq	%rbx, %rdi
	callq	__ZNK14altered_carbon2js9JsVariant9asBooleanEv
	testb	%al, %al
	je	LBB0_96
## %bb.31:                              ## %ret.lhs240
	leaq	10760(%rsp), %r15
	movl	$3, %esi
	movq	%r15, %rdi
	callq	__ZN14altered_carbon2js9JsVariantaSEx
	leaq	10704(%rsp), %rbx
	movl	$4, %esi
	movq	%rbx, %rdi
	callq	__ZN14altered_carbon2js9JsVariantaSEx
	movq	%r15, %rdi
	movq	%rbx, %rsi
	callq	__ZNK14altered_carbon2js9JsVariantltERKS1_
	movzbl	%al, %esi
	leaq	10648(%rsp), %rbx
	movq	%rbx, %rdi
	callq	__ZN14altered_carbon2js9JsVariantC1Eb
	movq	%rbx, %rdi
	callq	__ZNK14altered_carbon2js9JsVariant9asBooleanEv
	testb	%al, %al
	je	LBB0_96
## %bb.32:                              ## %ret.lhs248
	leaq	10592(%rsp), %r15
	movl	$5, %esi
	movq	%r15, %rdi
	callq	__ZN14altered_carbon2js9JsVariantaSEx
	leaq	10536(%rsp), %rbx
	movl	$6, %esi
	movq	%rbx, %rdi
	callq	__ZN14altered_carbon2js9JsVariantaSEx
	movq	%r15, %rdi
	movq	%rbx, %rsi
	callq	__ZNK14altered_carbon2js9JsVariantltERKS1_
	movzbl	%al, %esi
	leaq	10480(%rsp), %rbx
	movq	%rbx, %rdi
	callq	__ZN14altered_carbon2js9JsVariantC1Eb
	movq	%rbx, %rdi
	callq	__ZNK14altered_carbon2js9JsVariant9asBooleanEv
	testb	%al, %al
	je	LBB0_96
## %bb.33:                              ## %ret.lhs256
	leaq	10424(%rsp), %r15
	movl	$7, %esi
	movq	%r15, %rdi
	callq	__ZN14altered_carbon2js9JsVariantaSEx
	leaq	10368(%rsp), %rbx
	movl	$8, %esi
	movq	%rbx, %rdi
	callq	__ZN14altered_carbon2js9JsVariantaSEx
	movq	%r15, %rdi
	movq	%rbx, %rsi
	callq	__ZNK14altered_carbon2js9JsVariantltERKS1_
	movzbl	%al, %esi
	leaq	10312(%rsp), %rbx
	movq	%rbx, %rdi
	callq	__ZN14altered_carbon2js9JsVariantC1Eb
	movq	%rbx, %rdi
	callq	__ZNK14altered_carbon2js9JsVariant9asBooleanEv
	testb	%al, %al
	je	LBB0_96
## %bb.34:                              ## %ret.lhs264
	leaq	10256(%rsp), %r15
	movl	$9, %esi
	movq	%r15, %rdi
	callq	__ZN14altered_carbon2js9JsVariantaSEx
	leaq	10200(%rsp), %rbx
	movl	$10, %esi
	movq	%rbx, %rdi
	callq	__ZN14altered_carbon2js9JsVariantaSEx
	movq	%r15, %rdi
	movq	%rbx, %rsi
	callq	__ZNK14altered_carbon2js9JsVariantltERKS1_
	movzbl	%al, %esi
	leaq	10144(%rsp), %rbx
	movq	%rbx, %rdi
	callq	__ZN14altered_carbon2js9JsVariantC1Eb
	movq	%rbx, %rdi
	callq	__ZNK14altered_carbon2js9JsVariant9asBooleanEv
	testb	%al, %al
	je	LBB0_96
## %bb.35:                              ## %ret.lhs272
	leaq	10088(%rsp), %r15
	movl	$1, %esi
	movq	%r15, %rdi
	callq	__ZN14altered_carbon2js9JsVariantaSEx
	leaq	10032(%rsp), %rbx
	movl	$2, %esi
	movq	%rbx, %rdi
	callq	__ZN14altered_carbon2js9JsVariantaSEx
	movq	%r15, %rdi
	movq	%rbx, %rsi
	callq	__ZNK14altered_carbon2js9JsVariantltERKS1_
	movzbl	%al, %esi
	leaq	9976(%rsp), %rbx
	movq	%rbx, %rdi
	callq	__ZN14altered_carbon2js9JsVariantC1Eb
	movq	%rbx, %rdi
	callq	__ZNK14altered_carbon2js9JsVariant9asBooleanEv
	testb	%al, %al
	je	LBB0_96
## %bb.36:                              ## %ret.lhs280
	leaq	9920(%rsp), %r15
	movl	$3, %esi
	movq	%r15, %rdi
	callq	__ZN14altered_carbon2js9JsVariantaSEx
	leaq	9864(%rsp), %rbx
	movl	$4, %esi
	movq	%rbx, %rdi
	callq	__ZN14altered_carbon2js9JsVariantaSEx
	movq	%r15, %rdi
	movq	%rbx, %rsi
	callq	__ZNK14altered_carbon2js9JsVariantltERKS1_
	movzbl	%al, %esi
	leaq	9808(%rsp), %rbx
	movq	%rbx, %rdi
	callq	__ZN14altered_carbon2js9JsVariantC1Eb
	movq	%rbx, %rdi
	callq	__ZNK14altered_carbon2js9JsVariant9asBooleanEv
	testb	%al, %al
	je	LBB0_96
## %bb.37:                              ## %ret.lhs288
	leaq	9752(%rsp), %r15
	movl	$5, %esi
	movq	%r15, %rdi
	callq	__ZN14altered_carbon2js9JsVariantaSEx
	leaq	9696(%rsp), %rbx
	movl	$6, %esi
	movq	%rbx, %rdi
	callq	__ZN14altered_carbon2js9JsVariantaSEx
	movq	%r15, %rdi
	movq	%rbx, %rsi
	callq	__ZNK14altered_carbon2js9JsVariantltERKS1_
	movzbl	%al, %esi
	leaq	9640(%rsp), %rbx
	movq	%rbx, %rdi
	callq	__ZN14altered_carbon2js9JsVariantC1Eb
	movq	%rbx, %rdi
	callq	__ZNK14altered_carbon2js9JsVariant9asBooleanEv
	testb	%al, %al
	je	LBB0_96
## %bb.38:                              ## %ret.lhs296
	leaq	9584(%rsp), %r15
	movl	$7, %esi
	movq	%r15, %rdi
	callq	__ZN14altered_carbon2js9JsVariantaSEx
	leaq	9528(%rsp), %rbx
	movl	$8, %esi
	movq	%rbx, %rdi
	callq	__ZN14altered_carbon2js9JsVariantaSEx
	movq	%r15, %rdi
	movq	%rbx, %rsi
	callq	__ZNK14altered_carbon2js9JsVariantltERKS1_
	movzbl	%al, %esi
	leaq	9472(%rsp), %rbx
	movq	%rbx, %rdi
	callq	__ZN14altered_carbon2js9JsVariantC1Eb
	movq	%rbx, %rdi
	callq	__ZNK14altered_carbon2js9JsVariant9asBooleanEv
	testb	%al, %al
	je	LBB0_96
## %bb.39:                              ## %ret.lhs304
	leaq	9416(%rsp), %r15
	movl	$9, %esi
	movq	%r15, %rdi
	callq	__ZN14altered_carbon2js9JsVariantaSEx
	leaq	9360(%rsp), %rbx
	movl	$10, %esi
	movq	%rbx, %rdi
	callq	__ZN14altered_carbon2js9JsVariantaSEx
	movq	%r15, %rdi
	movq	%rbx, %rsi
	callq	__ZNK14altered_carbon2js9JsVariantltERKS1_
	movzbl	%al, %esi
	leaq	9304(%rsp), %rbx
	movq	%rbx, %rdi
	callq	__ZN14altered_carbon2js9JsVariantC1Eb
	movq	%rbx, %rdi
	callq	__ZNK14altered_carbon2js9JsVariant9asBooleanEv
	testb	%al, %al
	je	LBB0_96
## %bb.40:                              ## %ret.lhs312
	leaq	9248(%rsp), %r15
	movl	$1, %esi
	movq	%r15, %rdi
	callq	__ZN14altered_carbon2js9JsVariantaSEx
	leaq	9192(%rsp), %rbx
	movl	$2, %esi
	movq	%rbx, %rdi
	callq	__ZN14altered_carbon2js9JsVariantaSEx
	movq	%r15, %rdi
	movq	%rbx, %rsi
	callq	__ZNK14altered_carbon2js9JsVariantltERKS1_
	movzbl	%al, %esi
	leaq	9136(%rsp), %rbx
	movq	%rbx, %rdi
	callq	__ZN14altered_carbon2js9JsVariantC1Eb
	movq	%rbx, %rdi
	callq	__ZNK14altered_carbon2js9JsVariant9asBooleanEv
	testb	%al, %al
	je	LBB0_96
## %bb.41:                              ## %ret.lhs320
	leaq	9080(%rsp), %r15
	movl	$3, %esi
	movq	%r15, %rdi
	callq	__ZN14altered_carbon2js9JsVariantaSEx
	leaq	9024(%rsp), %rbx
	movl	$4, %esi
	movq	%rbx, %rdi
	callq	__ZN14altered_carbon2js9JsVariantaSEx
	movq	%r15, %rdi
	movq	%rbx, %rsi
	callq	__ZNK14altered_carbon2js9JsVariantltERKS1_
	movzbl	%al, %esi
	leaq	8968(%rsp), %rbx
	movq	%rbx, %rdi
	callq	__ZN14altered_carbon2js9JsVariantC1Eb
	movq	%rbx, %rdi
	callq	__ZNK14altered_carbon2js9JsVariant9asBooleanEv
	testb	%al, %al
	je	LBB0_96
## %bb.42:                              ## %ret.lhs328
	leaq	8912(%rsp), %r15
	movl	$5, %esi
	movq	%r15, %rdi
	callq	__ZN14altered_carbon2js9JsVariantaSEx
	leaq	8856(%rsp), %rbx
	movl	$6, %esi
	movq	%rbx, %rdi
	callq	__ZN14altered_carbon2js9JsVariantaSEx
	movq	%r15, %rdi
	movq	%rbx, %rsi
	callq	__ZNK14altered_carbon2js9JsVariantltERKS1_
	movzbl	%al, %esi
	leaq	8800(%rsp), %rbx
	movq	%rbx, %rdi
	callq	__ZN14altered_carbon2js9JsVariantC1Eb
	movq	%rbx, %rdi
	callq	__ZNK14altered_carbon2js9JsVariant9asBooleanEv
	testb	%al, %al
	je	LBB0_96
## %bb.43:                              ## %ret.lhs336
	leaq	8744(%rsp), %r15
	movl	$7, %esi
	movq	%r15, %rdi
	callq	__ZN14altered_carbon2js9JsVariantaSEx
	leaq	8688(%rsp), %rbx
	movl	$8, %esi
	movq	%rbx, %rdi
	callq	__ZN14altered_carbon2js9JsVariantaSEx
	movq	%r15, %rdi
	movq	%rbx, %rsi
	callq	__ZNK14altered_carbon2js9JsVariantltERKS1_
	movzbl	%al, %esi
	leaq	8632(%rsp), %rbx
	movq	%rbx, %rdi
	callq	__ZN14altered_carbon2js9JsVariantC1Eb
	movq	%rbx, %rdi
	callq	__ZNK14altered_carbon2js9JsVariant9asBooleanEv
	testb	%al, %al
	je	LBB0_96
## %bb.44:                              ## %ret.lhs344
	leaq	8576(%rsp), %r15
	movl	$9, %esi
	movq	%r15, %rdi
	callq	__ZN14altered_carbon2js9JsVariantaSEx
	leaq	8520(%rsp), %rbx
	movl	$10, %esi
	movq	%rbx, %rdi
	callq	__ZN14altered_carbon2js9JsVariantaSEx
	movq	%r15, %rdi
	movq	%rbx, %rsi
	callq	__ZNK14altered_carbon2js9JsVariantltERKS1_
	movzbl	%al, %esi
	leaq	8464(%rsp), %rbx
	movq	%rbx, %rdi
	callq	__ZN14altered_carbon2js9JsVariantC1Eb
	movq	%rbx, %rdi
	callq	__ZNK14altered_carbon2js9JsVariant9asBooleanEv
	testb	%al, %al
	je	LBB0_96
## %bb.45:                              ## %ret.lhs352
	leaq	8408(%rsp), %r15
	movl	$1, %esi
	movq	%r15, %rdi
	callq	__ZN14altered_carbon2js9JsVariantaSEx
	leaq	8352(%rsp), %rbx
	movl	$2, %esi
	movq	%rbx, %rdi
	callq	__ZN14altered_carbon2js9JsVariantaSEx
	movq	%r15, %rdi
	movq	%rbx, %rsi
	callq	__ZNK14altered_carbon2js9JsVariantltERKS1_
	movzbl	%al, %esi
	leaq	8296(%rsp), %rbx
	movq	%rbx, %rdi
	callq	__ZN14altered_carbon2js9JsVariantC1Eb
	movq	%rbx, %rdi
	callq	__ZNK14altered_carbon2js9JsVariant9asBooleanEv
	testb	%al, %al
	je	LBB0_96
## %bb.46:                              ## %ret.lhs360
	leaq	8240(%rsp), %r15
	movl	$3, %esi
	movq	%r15, %rdi
	callq	__ZN14altered_carbon2js9JsVariantaSEx
	leaq	8184(%rsp), %rbx
	movl	$4, %esi
	movq	%rbx, %rdi
	callq	__ZN14altered_carbon2js9JsVariantaSEx
	movq	%r15, %rdi
	movq	%rbx, %rsi
	callq	__ZNK14altered_carbon2js9JsVariantltERKS1_
	movzbl	%al, %esi
	leaq	8128(%rsp), %rbx
	movq	%rbx, %rdi
	callq	__ZN14altered_carbon2js9JsVariantC1Eb
	movq	%rbx, %rdi
	callq	__ZNK14altered_carbon2js9JsVariant9asBooleanEv
	testb	%al, %al
	je	LBB0_96
## %bb.47:                              ## %ret.lhs368
	leaq	8072(%rsp), %r15
	movl	$5, %esi
	movq	%r15, %rdi
	callq	__ZN14altered_carbon2js9JsVariantaSEx
	leaq	8016(%rsp), %rbx
	movl	$6, %esi
	movq	%rbx, %rdi
	callq	__ZN14altered_carbon2js9JsVariantaSEx
	movq	%r15, %rdi
	movq	%rbx, %rsi
	callq	__ZNK14altered_carbon2js9JsVariantltERKS1_
	movzbl	%al, %esi
	leaq	7960(%rsp), %rbx
	movq	%rbx, %rdi
	callq	__ZN14altered_carbon2js9JsVariantC1Eb
	movq	%rbx, %rdi
	callq	__ZNK14altered_carbon2js9JsVariant9asBooleanEv
	testb	%al, %al
	je	LBB0_96
## %bb.48:                              ## %ret.lhs376
	leaq	7904(%rsp), %r15
	movl	$7, %esi
	movq	%r15, %rdi
	callq	__ZN14altered_carbon2js9JsVariantaSEx
	leaq	7848(%rsp), %rbx
	movl	$8, %esi
	movq	%rbx, %rdi
	callq	__ZN14altered_carbon2js9JsVariantaSEx
	movq	%r15, %rdi
	movq	%rbx, %rsi
	callq	__ZNK14altered_carbon2js9JsVariantltERKS1_
	movzbl	%al, %esi
	leaq	7792(%rsp), %rbx
	movq	%rbx, %rdi
	callq	__ZN14altered_carbon2js9JsVariantC1Eb
	movq	%rbx, %rdi
	callq	__ZNK14altered_carbon2js9JsVariant9asBooleanEv
	testb	%al, %al
	je	LBB0_96
## %bb.49:                              ## %ret.lhs384
	leaq	7736(%rsp), %r15
	movl	$9, %esi
	movq	%r15, %rdi
	callq	__ZN14altered_carbon2js9JsVariantaSEx
	leaq	7680(%rsp), %rbx
	movl	$10, %esi
	movq	%rbx, %rdi
	callq	__ZN14altered_carbon2js9JsVariantaSEx
	movq	%r15, %rdi
	movq	%rbx, %rsi
	callq	__ZNK14altered_carbon2js9JsVariantltERKS1_
	movzbl	%al, %esi
	leaq	7624(%rsp), %rbx
	movq	%rbx, %rdi
	callq	__ZN14altered_carbon2js9JsVariantC1Eb
	movq	%rbx, %rdi
	callq	__ZNK14altered_carbon2js9JsVariant9asBooleanEv
	testb	%al, %al
	je	LBB0_96
## %bb.50:                              ## %ret.lhs392
	leaq	7568(%rsp), %r15
	movl	$1, %esi
	movq	%r15, %rdi
	callq	__ZN14altered_carbon2js9JsVariantaSEx
	leaq	7512(%rsp), %rbx
	movl	$2, %esi
	movq	%rbx, %rdi
	callq	__ZN14altered_carbon2js9JsVariantaSEx
	movq	%r15, %rdi
	movq	%rbx, %rsi
	callq	__ZNK14altered_carbon2js9JsVariantltERKS1_
	movzbl	%al, %esi
	leaq	7456(%rsp), %rbx
	movq	%rbx, %rdi
	callq	__ZN14altered_carbon2js9JsVariantC1Eb
	movq	%rbx, %rdi
	callq	__ZNK14altered_carbon2js9JsVariant9asBooleanEv
	testb	%al, %al
	je	LBB0_96
## %bb.51:                              ## %ret.lhs400
	leaq	7400(%rsp), %r15
	movl	$3, %esi
	movq	%r15, %rdi
	callq	__ZN14altered_carbon2js9JsVariantaSEx
	leaq	7344(%rsp), %rbx
	movl	$4, %esi
	movq	%rbx, %rdi
	callq	__ZN14altered_carbon2js9JsVariantaSEx
	movq	%r15, %rdi
	movq	%rbx, %rsi
	callq	__ZNK14altered_carbon2js9JsVariantltERKS1_
	movzbl	%al, %esi
	leaq	7288(%rsp), %rbx
	movq	%rbx, %rdi
	callq	__ZN14altered_carbon2js9JsVariantC1Eb
	movq	%rbx, %rdi
	callq	__ZNK14altered_carbon2js9JsVariant9asBooleanEv
	testb	%al, %al
	je	LBB0_96
## %bb.52:                              ## %ret.lhs408
	leaq	7232(%rsp), %r15
	movl	$5, %esi
	movq	%r15, %rdi
	callq	__ZN14altered_carbon2js9JsVariantaSEx
	leaq	7176(%rsp), %rbx
	movl	$6, %esi
	movq	%rbx, %rdi
	callq	__ZN14altered_carbon2js9JsVariantaSEx
	movq	%r15, %rdi
	movq	%rbx, %rsi
	callq	__ZNK14altered_carbon2js9JsVariantltERKS1_
	movzbl	%al, %esi
	leaq	7120(%rsp), %rbx
	movq	%rbx, %rdi
	callq	__ZN14altered_carbon2js9JsVariantC1Eb
	movq	%rbx, %rdi
	callq	__ZNK14altered_carbon2js9JsVariant9asBooleanEv
	testb	%al, %al
	je	LBB0_96
## %bb.53:                              ## %ret.lhs416
	leaq	7064(%rsp), %r15
	movl	$7, %esi
	movq	%r15, %rdi
	callq	__ZN14altered_carbon2js9JsVariantaSEx
	leaq	7008(%rsp), %rbx
	movl	$8, %esi
	movq	%rbx, %rdi
	callq	__ZN14altered_carbon2js9JsVariantaSEx
	movq	%r15, %rdi
	movq	%rbx, %rsi
	callq	__ZNK14altered_carbon2js9JsVariantltERKS1_
	movzbl	%al, %esi
	leaq	6952(%rsp), %rbx
	movq	%rbx, %rdi
	callq	__ZN14altered_carbon2js9JsVariantC1Eb
	movq	%rbx, %rdi
	callq	__ZNK14altered_carbon2js9JsVariant9asBooleanEv
	testb	%al, %al
	je	LBB0_96
## %bb.54:                              ## %ret.lhs424
	leaq	6896(%rsp), %r15
	movl	$9, %esi
	movq	%r15, %rdi
	callq	__ZN14altered_carbon2js9JsVariantaSEx
	leaq	6840(%rsp), %rbx
	movl	$10, %esi
	movq	%rbx, %rdi
	callq	__ZN14altered_carbon2js9JsVariantaSEx
	movq	%r15, %rdi
	movq	%rbx, %rsi
	callq	__ZNK14altered_carbon2js9JsVariantltERKS1_
	movzbl	%al, %esi
	leaq	6784(%rsp), %rbx
	movq	%rbx, %rdi
	callq	__ZN14altered_carbon2js9JsVariantC1Eb
	movq	%rbx, %rdi
	callq	__ZNK14altered_carbon2js9JsVariant9asBooleanEv
	testb	%al, %al
	je	LBB0_96
## %bb.55:                              ## %ret.lhs432
	leaq	6728(%rsp), %r15
	movl	$1, %esi
	movq	%r15, %rdi
	callq	__ZN14altered_carbon2js9JsVariantaSEx
	leaq	6672(%rsp), %rbx
	movl	$2, %esi
	movq	%rbx, %rdi
	callq	__ZN14altered_carbon2js9JsVariantaSEx
	movq	%r15, %rdi
	movq	%rbx, %rsi
	callq	__ZNK14altered_carbon2js9JsVariantltERKS1_
	movzbl	%al, %esi
	leaq	6616(%rsp), %rbx
	movq	%rbx, %rdi
	callq	__ZN14altered_carbon2js9JsVariantC1Eb
	movq	%rbx, %rdi
	callq	__ZNK14altered_carbon2js9JsVariant9asBooleanEv
	testb	%al, %al
	je	LBB0_96
## %bb.56:                              ## %ret.lhs440
	leaq	6560(%rsp), %r15
	movl	$3, %esi
	movq	%r15, %rdi
	callq	__ZN14altered_carbon2js9JsVariantaSEx
	leaq	6504(%rsp), %rbx
	movl	$4, %esi
	movq	%rbx, %rdi
	callq	__ZN14altered_carbon2js9JsVariantaSEx
	movq	%r15, %rdi
	movq	%rbx, %rsi
	callq	__ZNK14altered_carbon2js9JsVariantltERKS1_
	movzbl	%al, %esi
	leaq	6448(%rsp), %rbx
	movq	%rbx, %rdi
	callq	__ZN14altered_carbon2js9JsVariantC1Eb
	movq	%rbx, %rdi
	callq	__ZNK14altered_carbon2js9JsVariant9asBooleanEv
	testb	%al, %al
	je	LBB0_96
## %bb.57:                              ## %ret.lhs448
	leaq	6392(%rsp), %r15
	movl	$5, %esi
	movq	%r15, %rdi
	callq	__ZN14altered_carbon2js9JsVariantaSEx
	leaq	6336(%rsp), %rbx
	movl	$6, %esi
	movq	%rbx, %rdi
	callq	__ZN14altered_carbon2js9JsVariantaSEx
	movq	%r15, %rdi
	movq	%rbx, %rsi
	callq	__ZNK14altered_carbon2js9JsVariantltERKS1_
	movzbl	%al, %esi
	leaq	6280(%rsp), %rbx
	movq	%rbx, %rdi
	callq	__ZN14altered_carbon2js9JsVariantC1Eb
	movq	%rbx, %rdi
	callq	__ZNK14altered_carbon2js9JsVariant9asBooleanEv
	testb	%al, %al
	je	LBB0_96
## %bb.58:                              ## %ret.lhs456
	leaq	6224(%rsp), %r15
	movl	$7, %esi
	movq	%r15, %rdi
	callq	__ZN14altered_carbon2js9JsVariantaSEx
	leaq	6168(%rsp), %rbx
	movl	$8, %esi
	movq	%rbx, %rdi
	callq	__ZN14altered_carbon2js9JsVariantaSEx
	movq	%r15, %rdi
	movq	%rbx, %rsi
	callq	__ZNK14altered_carbon2js9JsVariantltERKS1_
	movzbl	%al, %esi
	leaq	6112(%rsp), %rbx
	movq	%rbx, %rdi
	callq	__ZN14altered_carbon2js9JsVariantC1Eb
	movq	%rbx, %rdi
	callq	__ZNK14altered_carbon2js9JsVariant9asBooleanEv
	testb	%al, %al
	je	LBB0_96
## %bb.59:                              ## %ret.lhs464
	leaq	6056(%rsp), %r15
	movl	$9, %esi
	movq	%r15, %rdi
	callq	__ZN14altered_carbon2js9JsVariantaSEx
	leaq	6000(%rsp), %rbx
	movl	$10, %esi
	movq	%rbx, %rdi
	callq	__ZN14altered_carbon2js9JsVariantaSEx
	movq	%r15, %rdi
	movq	%rbx, %rsi
	callq	__ZNK14altered_carbon2js9JsVariantltERKS1_
	movzbl	%al, %esi
	leaq	5944(%rsp), %rbx
	movq	%rbx, %rdi
	callq	__ZN14altered_carbon2js9JsVariantC1Eb
	movq	%rbx, %rdi
	callq	__ZNK14altered_carbon2js9JsVariant9asBooleanEv
	testb	%al, %al
	je	LBB0_96
## %bb.60:                              ## %ret.lhs472
	leaq	5888(%rsp), %r15
	movl	$1, %esi
	movq	%r15, %rdi
	callq	__ZN14altered_carbon2js9JsVariantaSEx
	leaq	5832(%rsp), %rbx
	movl	$2, %esi
	movq	%rbx, %rdi
	callq	__ZN14altered_carbon2js9JsVariantaSEx
	movq	%r15, %rdi
	movq	%rbx, %rsi
	callq	__ZNK14altered_carbon2js9JsVariantltERKS1_
	movzbl	%al, %esi
	leaq	5776(%rsp), %rbx
	movq	%rbx, %rdi
	callq	__ZN14altered_carbon2js9JsVariantC1Eb
	movq	%rbx, %rdi
	callq	__ZNK14altered_carbon2js9JsVariant9asBooleanEv
	testb	%al, %al
	je	LBB0_96
## %bb.61:                              ## %ret.lhs480
	leaq	5720(%rsp), %r15
	movl	$3, %esi
	movq	%r15, %rdi
	callq	__ZN14altered_carbon2js9JsVariantaSEx
	leaq	5664(%rsp), %rbx
	movl	$4, %esi
	movq	%rbx, %rdi
	callq	__ZN14altered_carbon2js9JsVariantaSEx
	movq	%r15, %rdi
	movq	%rbx, %rsi
	callq	__ZNK14altered_carbon2js9JsVariantltERKS1_
	movzbl	%al, %esi
	leaq	5608(%rsp), %rbx
	movq	%rbx, %rdi
	callq	__ZN14altered_carbon2js9JsVariantC1Eb
	movq	%rbx, %rdi
	callq	__ZNK14altered_carbon2js9JsVariant9asBooleanEv
	testb	%al, %al
	je	LBB0_96
## %bb.62:                              ## %ret.lhs488
	leaq	5552(%rsp), %r15
	movl	$5, %esi
	movq	%r15, %rdi
	callq	__ZN14altered_carbon2js9JsVariantaSEx
	leaq	5496(%rsp), %rbx
	movl	$6, %esi
	movq	%rbx, %rdi
	callq	__ZN14altered_carbon2js9JsVariantaSEx
	movq	%r15, %rdi
	movq	%rbx, %rsi
	callq	__ZNK14altered_carbon2js9JsVariantltERKS1_
	movzbl	%al, %esi
	leaq	5440(%rsp), %rbx
	movq	%rbx, %rdi
	callq	__ZN14altered_carbon2js9JsVariantC1Eb
	movq	%rbx, %rdi
	callq	__ZNK14altered_carbon2js9JsVariant9asBooleanEv
	testb	%al, %al
	je	LBB0_96
## %bb.63:                              ## %ret.lhs496
	leaq	5384(%rsp), %r15
	movl	$7, %esi
	movq	%r15, %rdi
	callq	__ZN14altered_carbon2js9JsVariantaSEx
	leaq	5328(%rsp), %rbx
	movl	$8, %esi
	movq	%rbx, %rdi
	callq	__ZN14altered_carbon2js9JsVariantaSEx
	movq	%r15, %rdi
	movq	%rbx, %rsi
	callq	__ZNK14altered_carbon2js9JsVariantltERKS1_
	movzbl	%al, %esi
	leaq	5272(%rsp), %rbx
	movq	%rbx, %rdi
	callq	__ZN14altered_carbon2js9JsVariantC1Eb
	movq	%rbx, %rdi
	callq	__ZNK14altered_carbon2js9JsVariant9asBooleanEv
	testb	%al, %al
	je	LBB0_96
## %bb.64:                              ## %ret.lhs504
	leaq	5216(%rsp), %r15
	movl	$9, %esi
	movq	%r15, %rdi
	callq	__ZN14altered_carbon2js9JsVariantaSEx
	leaq	5160(%rsp), %rbx
	movl	$10, %esi
	movq	%rbx, %rdi
	callq	__ZN14altered_carbon2js9JsVariantaSEx
	movq	%r15, %rdi
	movq	%rbx, %rsi
	callq	__ZNK14altered_carbon2js9JsVariantltERKS1_
	movzbl	%al, %esi
	leaq	5104(%rsp), %rbx
	movq	%rbx, %rdi
	callq	__ZN14altered_carbon2js9JsVariantC1Eb
	movq	%rbx, %rdi
	callq	__ZNK14altered_carbon2js9JsVariant9asBooleanEv
	testb	%al, %al
	je	LBB0_96
## %bb.65:                              ## %ret.lhs512
	leaq	5048(%rsp), %r15
	movl	$1, %esi
	movq	%r15, %rdi
	callq	__ZN14altered_carbon2js9JsVariantaSEx
	leaq	4992(%rsp), %rbx
	movl	$2, %esi
	movq	%rbx, %rdi
	callq	__ZN14altered_carbon2js9JsVariantaSEx
	movq	%r15, %rdi
	movq	%rbx, %rsi
	callq	__ZNK14altered_carbon2js9JsVariantltERKS1_
	movzbl	%al, %esi
	leaq	4936(%rsp), %rbx
	movq	%rbx, %rdi
	callq	__ZN14altered_carbon2js9JsVariantC1Eb
	movq	%rbx, %rdi
	callq	__ZNK14altered_carbon2js9JsVariant9asBooleanEv
	testb	%al, %al
	je	LBB0_96
## %bb.66:                              ## %ret.lhs520
	leaq	4880(%rsp), %r15
	movl	$3, %esi
	movq	%r15, %rdi
	callq	__ZN14altered_carbon2js9JsVariantaSEx
	leaq	4824(%rsp), %rbx
	movl	$4, %esi
	movq	%rbx, %rdi
	callq	__ZN14altered_carbon2js9JsVariantaSEx
	movq	%r15, %rdi
	movq	%rbx, %rsi
	callq	__ZNK14altered_carbon2js9JsVariantltERKS1_
	movzbl	%al, %esi
	leaq	4768(%rsp), %rbx
	movq	%rbx, %rdi
	callq	__ZN14altered_carbon2js9JsVariantC1Eb
	movq	%rbx, %rdi
	callq	__ZNK14altered_carbon2js9JsVariant9asBooleanEv
	testb	%al, %al
	je	LBB0_96
## %bb.67:                              ## %ret.lhs528
	leaq	4712(%rsp), %r15
	movl	$5, %esi
	movq	%r15, %rdi
	callq	__ZN14altered_carbon2js9JsVariantaSEx
	leaq	4656(%rsp), %rbx
	movl	$6, %esi
	movq	%rbx, %rdi
	callq	__ZN14altered_carbon2js9JsVariantaSEx
	movq	%r15, %rdi
	movq	%rbx, %rsi
	callq	__ZNK14altered_carbon2js9JsVariantltERKS1_
	movzbl	%al, %esi
	leaq	4600(%rsp), %rbx
	movq	%rbx, %rdi
	callq	__ZN14altered_carbon2js9JsVariantC1Eb
	movq	%rbx, %rdi
	callq	__ZNK14altered_carbon2js9JsVariant9asBooleanEv
	testb	%al, %al
	je	LBB0_96
## %bb.68:                              ## %ret.lhs536
	leaq	4544(%rsp), %r15
	movl	$7, %esi
	movq	%r15, %rdi
	callq	__ZN14altered_carbon2js9JsVariantaSEx
	leaq	4488(%rsp), %rbx
	movl	$8, %esi
	movq	%rbx, %rdi
	callq	__ZN14altered_carbon2js9JsVariantaSEx
	movq	%r15, %rdi
	movq	%rbx, %rsi
	callq	__ZNK14altered_carbon2js9JsVariantltERKS1_
	movzbl	%al, %esi
	leaq	4432(%rsp), %rbx
	movq	%rbx, %rdi
	callq	__ZN14altered_carbon2js9JsVariantC1Eb
	movq	%rbx, %rdi
	callq	__ZNK14altered_carbon2js9JsVariant9asBooleanEv
	testb	%al, %al
	je	LBB0_96
## %bb.69:                              ## %ret.lhs544
	leaq	4376(%rsp), %r15
	movl	$9, %esi
	movq	%r15, %rdi
	callq	__ZN14altered_carbon2js9JsVariantaSEx
	leaq	4320(%rsp), %rbx
	movl	$10, %esi
	movq	%rbx, %rdi
	callq	__ZN14altered_carbon2js9JsVariantaSEx
	movq	%r15, %rdi
	movq	%rbx, %rsi
	callq	__ZNK14altered_carbon2js9JsVariantltERKS1_
	movzbl	%al, %esi
	leaq	4264(%rsp), %rbx
	movq	%rbx, %rdi
	callq	__ZN14altered_carbon2js9JsVariantC1Eb
	movq	%rbx, %rdi
	callq	__ZNK14altered_carbon2js9JsVariant9asBooleanEv
	testb	%al, %al
	je	LBB0_96
## %bb.70:                              ## %ret.lhs552
	leaq	4208(%rsp), %r15
	movl	$1, %esi
	movq	%r15, %rdi
	callq	__ZN14altered_carbon2js9JsVariantaSEx
	leaq	4152(%rsp), %rbx
	movl	$2, %esi
	movq	%rbx, %rdi
	callq	__ZN14altered_carbon2js9JsVariantaSEx
	movq	%r15, %rdi
	movq	%rbx, %rsi
	callq	__ZNK14altered_carbon2js9JsVariantltERKS1_
	movzbl	%al, %esi
	leaq	4096(%rsp), %rbx
	movq	%rbx, %rdi
	callq	__ZN14altered_carbon2js9JsVariantC1Eb
	movq	%rbx, %rdi
	callq	__ZNK14altered_carbon2js9JsVariant9asBooleanEv
	testb	%al, %al
	je	LBB0_96
## %bb.71:                              ## %ret.lhs560
	leaq	4040(%rsp), %r15
	movl	$3, %esi
	movq	%r15, %rdi
	callq	__ZN14altered_carbon2js9JsVariantaSEx
	leaq	3984(%rsp), %rbx
	movl	$4, %esi
	movq	%rbx, %rdi
	callq	__ZN14altered_carbon2js9JsVariantaSEx
	movq	%r15, %rdi
	movq	%rbx, %rsi
	callq	__ZNK14altered_carbon2js9JsVariantltERKS1_
	movzbl	%al, %esi
	leaq	3928(%rsp), %rbx
	movq	%rbx, %rdi
	callq	__ZN14altered_carbon2js9JsVariantC1Eb
	movq	%rbx, %rdi
	callq	__ZNK14altered_carbon2js9JsVariant9asBooleanEv
	testb	%al, %al
	je	LBB0_96
## %bb.72:                              ## %ret.lhs568
	leaq	3872(%rsp), %r15
	movl	$5, %esi
	movq	%r15, %rdi
	callq	__ZN14altered_carbon2js9JsVariantaSEx
	leaq	3816(%rsp), %rbx
	movl	$6, %esi
	movq	%rbx, %rdi
	callq	__ZN14altered_carbon2js9JsVariantaSEx
	movq	%r15, %rdi
	movq	%rbx, %rsi
	callq	__ZNK14altered_carbon2js9JsVariantltERKS1_
	movzbl	%al, %esi
	leaq	3760(%rsp), %rbx
	movq	%rbx, %rdi
	callq	__ZN14altered_carbon2js9JsVariantC1Eb
	movq	%rbx, %rdi
	callq	__ZNK14altered_carbon2js9JsVariant9asBooleanEv
	testb	%al, %al
	je	LBB0_96
## %bb.73:                              ## %ret.lhs576
	leaq	3704(%rsp), %r15
	movl	$7, %esi
	movq	%r15, %rdi
	callq	__ZN14altered_carbon2js9JsVariantaSEx
	leaq	3648(%rsp), %rbx
	movl	$8, %esi
	movq	%rbx, %rdi
	callq	__ZN14altered_carbon2js9JsVariantaSEx
	movq	%r15, %rdi
	movq	%rbx, %rsi
	callq	__ZNK14altered_carbon2js9JsVariantltERKS1_
	movzbl	%al, %esi
	leaq	3592(%rsp), %rbx
	movq	%rbx, %rdi
	callq	__ZN14altered_carbon2js9JsVariantC1Eb
	movq	%rbx, %rdi
	callq	__ZNK14altered_carbon2js9JsVariant9asBooleanEv
	testb	%al, %al
	je	LBB0_96
## %bb.74:                              ## %ret.lhs584
	leaq	3536(%rsp), %r15
	movl	$9, %esi
	movq	%r15, %rdi
	callq	__ZN14altered_carbon2js9JsVariantaSEx
	leaq	3480(%rsp), %rbx
	movl	$10, %esi
	movq	%rbx, %rdi
	callq	__ZN14altered_carbon2js9JsVariantaSEx
	movq	%r15, %rdi
	movq	%rbx, %rsi
	callq	__ZNK14altered_carbon2js9JsVariantltERKS1_
	movzbl	%al, %esi
	leaq	3424(%rsp), %rbx
	movq	%rbx, %rdi
	callq	__ZN14altered_carbon2js9JsVariantC1Eb
	movq	%rbx, %rdi
	callq	__ZNK14altered_carbon2js9JsVariant9asBooleanEv
	testb	%al, %al
	je	LBB0_96
## %bb.75:                              ## %ret.lhs592
	leaq	3368(%rsp), %r15
	movl	$1, %esi
	movq	%r15, %rdi
	callq	__ZN14altered_carbon2js9JsVariantaSEx
	leaq	3312(%rsp), %rbx
	movl	$2, %esi
	movq	%rbx, %rdi
	callq	__ZN14altered_carbon2js9JsVariantaSEx
	movq	%r15, %rdi
	movq	%rbx, %rsi
	callq	__ZNK14altered_carbon2js9JsVariantltERKS1_
	movzbl	%al, %esi
	leaq	3256(%rsp), %rbx
	movq	%rbx, %rdi
	callq	__ZN14altered_carbon2js9JsVariantC1Eb
	movq	%rbx, %rdi
	callq	__ZNK14altered_carbon2js9JsVariant9asBooleanEv
	testb	%al, %al
	je	LBB0_96
## %bb.76:                              ## %ret.lhs600
	leaq	3200(%rsp), %r15
	movl	$3, %esi
	movq	%r15, %rdi
	callq	__ZN14altered_carbon2js9JsVariantaSEx
	leaq	3144(%rsp), %rbx
	movl	$4, %esi
	movq	%rbx, %rdi
	callq	__ZN14altered_carbon2js9JsVariantaSEx
	movq	%r15, %rdi
	movq	%rbx, %rsi
	callq	__ZNK14altered_carbon2js9JsVariantltERKS1_
	movzbl	%al, %esi
	leaq	3088(%rsp), %rbx
	movq	%rbx, %rdi
	callq	__ZN14altered_carbon2js9JsVariantC1Eb
	movq	%rbx, %rdi
	callq	__ZNK14altered_carbon2js9JsVariant9asBooleanEv
	testb	%al, %al
	je	LBB0_96
## %bb.77:                              ## %ret.lhs608
	leaq	3032(%rsp), %r15
	movl	$5, %esi
	movq	%r15, %rdi
	callq	__ZN14altered_carbon2js9JsVariantaSEx
	leaq	2976(%rsp), %rbx
	movl	$6, %esi
	movq	%rbx, %rdi
	callq	__ZN14altered_carbon2js9JsVariantaSEx
	movq	%r15, %rdi
	movq	%rbx, %rsi
	callq	__ZNK14altered_carbon2js9JsVariantltERKS1_
	movzbl	%al, %esi
	leaq	2920(%rsp), %rbx
	movq	%rbx, %rdi
	callq	__ZN14altered_carbon2js9JsVariantC1Eb
	movq	%rbx, %rdi
	callq	__ZNK14altered_carbon2js9JsVariant9asBooleanEv
	testb	%al, %al
	je	LBB0_96
## %bb.78:                              ## %ret.lhs616
	leaq	2864(%rsp), %r15
	movl	$7, %esi
	movq	%r15, %rdi
	callq	__ZN14altered_carbon2js9JsVariantaSEx
	leaq	2808(%rsp), %rbx
	movl	$8, %esi
	movq	%rbx, %rdi
	callq	__ZN14altered_carbon2js9JsVariantaSEx
	movq	%r15, %rdi
	movq	%rbx, %rsi
	callq	__ZNK14altered_carbon2js9JsVariantltERKS1_
	movzbl	%al, %esi
	leaq	2752(%rsp), %rbx
	movq	%rbx, %rdi
	callq	__ZN14altered_carbon2js9JsVariantC1Eb
	movq	%rbx, %rdi
	callq	__ZNK14altered_carbon2js9JsVariant9asBooleanEv
	testb	%al, %al
	je	LBB0_96
## %bb.79:                              ## %ret.lhs624
	leaq	2696(%rsp), %r15
	movl	$9, %esi
	movq	%r15, %rdi
	callq	__ZN14altered_carbon2js9JsVariantaSEx
	leaq	2640(%rsp), %rbx
	movl	$10, %esi
	movq	%rbx, %rdi
	callq	__ZN14altered_carbon2js9JsVariantaSEx
	movq	%r15, %rdi
	movq	%rbx, %rsi
	callq	__ZNK14altered_carbon2js9JsVariantltERKS1_
	movzbl	%al, %esi
	leaq	2584(%rsp), %rbx
	movq	%rbx, %rdi
	callq	__ZN14altered_carbon2js9JsVariantC1Eb
	movq	%rbx, %rdi
	callq	__ZNK14altered_carbon2js9JsVariant9asBooleanEv
	testb	%al, %al
	je	LBB0_96
## %bb.80:                              ## %ret.lhs632
	leaq	2528(%rsp), %r15
	movl	$1, %esi
	movq	%r15, %rdi
	callq	__ZN14altered_carbon2js9JsVariantaSEx
	leaq	2472(%rsp), %rbx
	movl	$2, %esi
	movq	%rbx, %rdi
	callq	__ZN14altered_carbon2js9JsVariantaSEx
	movq	%r15, %rdi
	movq	%rbx, %rsi
	callq	__ZNK14altered_carbon2js9JsVariantltERKS1_
	movzbl	%al, %esi
	leaq	2416(%rsp), %rbx
	movq	%rbx, %rdi
	callq	__ZN14altered_carbon2js9JsVariantC1Eb
	movq	%rbx, %rdi
	callq	__ZNK14altered_carbon2js9JsVariant9asBooleanEv
	testb	%al, %al
	je	LBB0_96
## %bb.81:                              ## %ret.lhs640
	leaq	2360(%rsp), %r15
	movl	$3, %esi
	movq	%r15, %rdi
	callq	__ZN14altered_carbon2js9JsVariantaSEx
	leaq	2304(%rsp), %rbx
	movl	$4, %esi
	movq	%rbx, %rdi
	callq	__ZN14altered_carbon2js9JsVariantaSEx
	movq	%r15, %rdi
	movq	%rbx, %rsi
	callq	__ZNK14altered_carbon2js9JsVariantltERKS1_
	movzbl	%al, %esi
	leaq	2248(%rsp), %rbx
	movq	%rbx, %rdi
	callq	__ZN14altered_carbon2js9JsVariantC1Eb
	movq	%rbx, %rdi
	callq	__ZNK14altered_carbon2js9JsVariant9asBooleanEv
	testb	%al, %al
	je	LBB0_96
## %bb.82:                              ## %ret.lhs648
	leaq	2192(%rsp), %r15
	movl	$5, %esi
	movq	%r15, %rdi
	callq	__ZN14altered_carbon2js9JsVariantaSEx
	leaq	2136(%rsp), %rbx
	movl	$6, %esi
	movq	%rbx, %rdi
	callq	__ZN14altered_carbon2js9JsVariantaSEx
	movq	%r15, %rdi
	movq	%rbx, %rsi
	callq	__ZNK14altered_carbon2js9JsVariantltERKS1_
	movzbl	%al, %esi
	leaq	2080(%rsp), %rbx
	movq	%rbx, %rdi
	callq	__ZN14altered_carbon2js9JsVariantC1Eb
	movq	%rbx, %rdi
	callq	__ZNK14altered_carbon2js9JsVariant9asBooleanEv
	testb	%al, %al
	je	LBB0_96
## %bb.83:                              ## %ret.lhs656
	leaq	2024(%rsp), %r15
	movl	$7, %esi
	movq	%r15, %rdi
	callq	__ZN14altered_carbon2js9JsVariantaSEx
	leaq	1968(%rsp), %rbx
	movl	$8, %esi
	movq	%rbx, %rdi
	callq	__ZN14altered_carbon2js9JsVariantaSEx
	movq	%r15, %rdi
	movq	%rbx, %rsi
	callq	__ZNK14altered_carbon2js9JsVariantltERKS1_
	movzbl	%al, %esi
	leaq	1912(%rsp), %rbx
	movq	%rbx, %rdi
	callq	__ZN14altered_carbon2js9JsVariantC1Eb
	movq	%rbx, %rdi
	callq	__ZNK14altered_carbon2js9JsVariant9asBooleanEv
	testb	%al, %al
	je	LBB0_96
## %bb.84:                              ## %ret.lhs664
	leaq	1856(%rsp), %r15
	movl	$9, %esi
	movq	%r15, %rdi
	callq	__ZN14altered_carbon2js9JsVariantaSEx
	leaq	1800(%rsp), %rbx
	movl	$10, %esi
	movq	%rbx, %rdi
	callq	__ZN14altered_carbon2js9JsVariantaSEx
	movq	%r15, %rdi
	movq	%rbx, %rsi
	callq	__ZNK14altered_carbon2js9JsVariantltERKS1_
	movzbl	%al, %esi
	leaq	1744(%rsp), %rbx
	movq	%rbx, %rdi
	callq	__ZN14altered_carbon2js9JsVariantC1Eb
	movq	%rbx, %rdi
	callq	__ZNK14altered_carbon2js9JsVariant9asBooleanEv
	testb	%al, %al
	je	LBB0_96
## %bb.85:                              ## %ret.lhs672
	leaq	1688(%rsp), %r15
	movl	$1, %esi
	movq	%r15, %rdi
	callq	__ZN14altered_carbon2js9JsVariantaSEx
	leaq	1632(%rsp), %rbx
	movl	$2, %esi
	movq	%rbx, %rdi
	callq	__ZN14altered_carbon2js9JsVariantaSEx
	movq	%r15, %rdi
	movq	%rbx, %rsi
	callq	__ZNK14altered_carbon2js9JsVariantltERKS1_
	movzbl	%al, %esi
	leaq	1576(%rsp), %rbx
	movq	%rbx, %rdi
	callq	__ZN14altered_carbon2js9JsVariantC1Eb
	movq	%rbx, %rdi
	callq	__ZNK14altered_carbon2js9JsVariant9asBooleanEv
	testb	%al, %al
	je	LBB0_96
## %bb.86:                              ## %ret.lhs680
	leaq	1520(%rsp), %r15
	movl	$3, %esi
	movq	%r15, %rdi
	callq	__ZN14altered_carbon2js9JsVariantaSEx
	leaq	1464(%rsp), %rbx
	movl	$4, %esi
	movq	%rbx, %rdi
	callq	__ZN14altered_carbon2js9JsVariantaSEx
	movq	%r15, %rdi
	movq	%rbx, %rsi
	callq	__ZNK14altered_carbon2js9JsVariantltERKS1_
	movzbl	%al, %esi
	leaq	1408(%rsp), %rbx
	movq	%rbx, %rdi
	callq	__ZN14altered_carbon2js9JsVariantC1Eb
	movq	%rbx, %rdi
	callq	__ZNK14altered_carbon2js9JsVariant9asBooleanEv
	testb	%al, %al
	je	LBB0_96
## %bb.87:                              ## %ret.lhs688
	leaq	1352(%rsp), %r15
	movl	$5, %esi
	movq	%r15, %rdi
	callq	__ZN14altered_carbon2js9JsVariantaSEx
	leaq	1296(%rsp), %rbx
	movl	$6, %esi
	movq	%rbx, %rdi
	callq	__ZN14altered_carbon2js9JsVariantaSEx
	movq	%r15, %rdi
	movq	%rbx, %rsi
	callq	__ZNK14altered_carbon2js9JsVariantltERKS1_
	movzbl	%al, %esi
	leaq	1240(%rsp), %rbx
	movq	%rbx, %rdi
	callq	__ZN14altered_carbon2js9JsVariantC1Eb
	movq	%rbx, %rdi
	callq	__ZNK14altered_carbon2js9JsVariant9asBooleanEv
	testb	%al, %al
	je	LBB0_96
## %bb.88:                              ## %ret.lhs696
	leaq	1184(%rsp), %r15
	movl	$7, %esi
	movq	%r15, %rdi
	callq	__ZN14altered_carbon2js9JsVariantaSEx
	leaq	1128(%rsp), %rbx
	movl	$8, %esi
	movq	%rbx, %rdi
	callq	__ZN14altered_carbon2js9JsVariantaSEx
	movq	%r15, %rdi
	movq	%rbx, %rsi
	callq	__ZNK14altered_carbon2js9JsVariantltERKS1_
	movzbl	%al, %esi
	leaq	1072(%rsp), %rbx
	movq	%rbx, %rdi
	callq	__ZN14altered_carbon2js9JsVariantC1Eb
	movq	%rbx, %rdi
	callq	__ZNK14altered_carbon2js9JsVariant9asBooleanEv
	testb	%al, %al
	je	LBB0_96
## %bb.89:                              ## %ret.lhs704
	leaq	1016(%rsp), %r15
	movl	$9, %esi
	movq	%r15, %rdi
	callq	__ZN14altered_carbon2js9JsVariantaSEx
	leaq	960(%rsp), %rbx
	movl	$10, %esi
	movq	%rbx, %rdi
	callq	__ZN14altered_carbon2js9JsVariantaSEx
	movq	%r15, %rdi
	movq	%rbx, %rsi
	callq	__ZNK14altered_carbon2js9JsVariantltERKS1_
	movzbl	%al, %esi
	leaq	904(%rsp), %rbx
	movq	%rbx, %rdi
	callq	__ZN14altered_carbon2js9JsVariantC1Eb
	movq	%rbx, %rdi
	callq	__ZNK14altered_carbon2js9JsVariant9asBooleanEv
	testb	%al, %al
	je	LBB0_96
## %bb.90:                              ## %ret.lhs712
	leaq	848(%rsp), %r15
	movl	$1, %esi
	movq	%r15, %rdi
	callq	__ZN14altered_carbon2js9JsVariantaSEx
	leaq	792(%rsp), %rbx
	movl	$2, %esi
	movq	%rbx, %rdi
	callq	__ZN14altered_carbon2js9JsVariantaSEx
	movq	%r15, %rdi
	movq	%rbx, %rsi
	callq	__ZNK14altered_carbon2js9JsVariantltERKS1_
	movzbl	%al, %esi
	leaq	736(%rsp), %rbx
	movq	%rbx, %rdi
	callq	__ZN14altered_carbon2js9JsVariantC1Eb
	movq	%rbx, %rdi
	callq	__ZNK14altered_carbon2js9JsVariant9asBooleanEv
	testb	%al, %al
	je	LBB0_96
## %bb.91:                              ## %ret.lhs720
	leaq	680(%rsp), %r15
	movl	$3, %esi
	movq	%r15, %rdi
	callq	__ZN14altered_carbon2js9JsVariantaSEx
	leaq	624(%rsp), %rbx
	movl	$4, %esi
	movq	%rbx, %rdi
	callq	__ZN14altered_carbon2js9JsVariantaSEx
	movq	%r15, %rdi
	movq	%rbx, %rsi
	callq	__ZNK14altered_carbon2js9JsVariantltERKS1_
	movzbl	%al, %esi
	leaq	568(%rsp), %rbx
	movq	%rbx, %rdi
	callq	__ZN14altered_carbon2js9JsVariantC1Eb
	movq	%rbx, %rdi
	callq	__ZNK14altered_carbon2js9JsVariant9asBooleanEv
	testb	%al, %al
	je	LBB0_96
## %bb.92:                              ## %ret.lhs728
	leaq	512(%rsp), %r15
	movl	$5, %esi
	movq	%r15, %rdi
	callq	__ZN14altered_carbon2js9JsVariantaSEx
	leaq	456(%rsp), %rbx
	movl	$6, %esi
	movq	%rbx, %rdi
	callq	__ZN14altered_carbon2js9JsVariantaSEx
	movq	%r15, %rdi
	movq	%rbx, %rsi
	callq	__ZNK14altered_carbon2js9JsVariantltERKS1_
	movzbl	%al, %esi
	leaq	400(%rsp), %rbx
	movq	%rbx, %rdi
	callq	__ZN14altered_carbon2js9JsVariantC1Eb
	movq	%rbx, %rdi
	callq	__ZNK14altered_carbon2js9JsVariant9asBooleanEv
	testb	%al, %al
	je	LBB0_96
## %bb.93:                              ## %ret.lhs736
	leaq	344(%rsp), %r15
	movl	$7, %esi
	movq	%r15, %rdi
	callq	__ZN14altered_carbon2js9JsVariantaSEx
	leaq	288(%rsp), %rbx
	movl	$8, %esi
	movq	%rbx, %rdi
	callq	__ZN14altered_carbon2js9JsVariantaSEx
	movq	%r15, %rdi
	movq	%rbx, %rsi
	callq	__ZNK14altered_carbon2js9JsVariantltERKS1_
	movzbl	%al, %esi
	leaq	232(%rsp), %rbx
	movq	%rbx, %rdi
	callq	__ZN14altered_carbon2js9JsVariantC1Eb
	movq	%rbx, %rdi
	callq	__ZNK14altered_carbon2js9JsVariant9asBooleanEv
	testb	%al, %al
	je	LBB0_96
## %bb.94:                              ## %ret.lhs744
	leaq	176(%rsp), %r15
	movl	$9, %esi
	movq	%r15, %rdi
	callq	__ZN14altered_carbon2js9JsVariantaSEx
	leaq	120(%rsp), %rbx
	movl	$10, %esi
	movq	%rbx, %rdi
	callq	__ZN14altered_carbon2js9JsVariantaSEx
	movq	%r15, %rdi
	movq	%rbx, %rsi
	callq	__ZNK14altered_carbon2js9JsVariantltERKS1_
	movzbl	%al, %esi
	leaq	64(%rsp), %rbx
	movq	%rbx, %rdi
	callq	__ZN14altered_carbon2js9JsVariantC1Eb
	movq	%rbx, %rdi
	callq	__ZNK14altered_carbon2js9JsVariant9asBooleanEv
	testb	%al, %al
	je	LBB0_96
## %bb.95:                              ## %ret.lhs752
	leaq	8(%rsp), %rbx
	movsd	LCPI0_0(%rip), %xmm0    ## xmm0 = mem[0],zero
	movq	%rbx, %rdi
	callq	__ZN14altered_carbon2js9JsVariantaSEd
LBB0_96:                                ## %ret.op
	movq	%r14, %rdi
	movq	%rbx, %rsi
	callq	__ZN14altered_carbon2js9JsVariantaSERKS1_
	leaq	8(%rsp), %rdi
	callq	__ZN14altered_carbon2js9JsVariantD1Ev
	leaq	64(%rsp), %rdi
	callq	__ZN14altered_carbon2js9JsVariantD1Ev
	leaq	16024(%rsp), %rdi
	callq	__ZN14altered_carbon2js9JsVariantD1Ev
	leaq	120(%rsp), %rdi
	callq	__ZN14altered_carbon2js9JsVariantD1Ev
	leaq	176(%rsp), %rdi
	callq	__ZN14altered_carbon2js9JsVariantD1Ev
	leaq	232(%rsp), %rdi
	callq	__ZN14altered_carbon2js9JsVariantD1Ev
	leaq	16080(%rsp), %rdi
	callq	__ZN14altered_carbon2js9JsVariantD1Ev
	leaq	288(%rsp), %rdi
	callq	__ZN14altered_carbon2js9JsVariantD1Ev
	leaq	344(%rsp), %rdi
	callq	__ZN14altered_carbon2js9JsVariantD1Ev
	leaq	400(%rsp), %rdi
	callq	__ZN14altered_carbon2js9JsVariantD1Ev
	leaq	16136(%rsp), %rdi
	callq	__ZN14altered_carbon2js9JsVariantD1Ev
	leaq	456(%rsp), %rdi
	callq	__ZN14altered_carbon2js9JsVariantD1Ev
	leaq	512(%rsp), %rdi
	callq	__ZN14altered_carbon2js9JsVariantD1Ev
	leaq	568(%rsp), %rdi
	callq	__ZN14altered_carbon2js9JsVariantD1Ev
	leaq	16192(%rsp), %rdi
	callq	__ZN14altered_carbon2js9JsVariantD1Ev
	leaq	624(%rsp), %rdi
	callq	__ZN14altered_carbon2js9JsVariantD1Ev
	leaq	680(%rsp), %rdi
	callq	__ZN14altered_carbon2js9JsVariantD1Ev
	leaq	736(%rsp), %rdi
	callq	__ZN14altered_carbon2js9JsVariantD1Ev
	leaq	16248(%rsp), %rdi
	callq	__ZN14altered_carbon2js9JsVariantD1Ev
	leaq	792(%rsp), %rdi
	callq	__ZN14altered_carbon2js9JsVariantD1Ev
	leaq	848(%rsp), %rdi
	callq	__ZN14altered_carbon2js9JsVariantD1Ev
	leaq	904(%rsp), %rdi
	callq	__ZN14altered_carbon2js9JsVariantD1Ev
	leaq	16304(%rsp), %rdi
	callq	__ZN14altered_carbon2js9JsVariantD1Ev
	leaq	960(%rsp), %rdi
	callq	__ZN14altered_carbon2js9JsVariantD1Ev
	leaq	1016(%rsp), %rdi
	callq	__ZN14altered_carbon2js9JsVariantD1Ev
	leaq	1072(%rsp), %rdi
	callq	__ZN14altered_carbon2js9JsVariantD1Ev
	leaq	16360(%rsp), %rdi
	callq	__ZN14altered_carbon2js9JsVariantD1Ev
	leaq	1128(%rsp), %rdi
	callq	__ZN14altered_carbon2js9JsVariantD1Ev
	leaq	1184(%rsp), %rdi
	callq	__ZN14altered_carbon2js9JsVariantD1Ev
	leaq	1240(%rsp), %rdi
	callq	__ZN14altered_carbon2js9JsVariantD1Ev
	leaq	16416(%rsp), %rdi
	callq	__ZN14altered_carbon2js9JsVariantD1Ev
	leaq	1296(%rsp), %rdi
	callq	__ZN14altered_carbon2js9JsVariantD1Ev
	leaq	1352(%rsp), %rdi
	callq	__ZN14altered_carbon2js9JsVariantD1Ev
	leaq	1408(%rsp), %rdi
	callq	__ZN14altered_carbon2js9JsVariantD1Ev
	leaq	16472(%rsp), %rdi
	callq	__ZN14altered_carbon2js9JsVariantD1Ev
	leaq	1464(%rsp), %rdi
	callq	__ZN14altered_carbon2js9JsVariantD1Ev
	leaq	1520(%rsp), %rdi
	callq	__ZN14altered_carbon2js9JsVariantD1Ev
	leaq	1576(%rsp), %rdi
	callq	__ZN14altered_carbon2js9JsVariantD1Ev
	leaq	16528(%rsp), %rdi
	callq	__ZN14altered_carbon2js9JsVariantD1Ev
	leaq	1632(%rsp), %rdi
	callq	__ZN14altered_carbon2js9JsVariantD1Ev
	leaq	1688(%rsp), %rdi
	callq	__ZN14altered_carbon2js9JsVariantD1Ev
	leaq	1744(%rsp), %rdi
	callq	__ZN14altered_carbon2js9JsVariantD1Ev
	leaq	16584(%rsp), %rdi
	callq	__ZN14altered_carbon2js9JsVariantD1Ev
	leaq	1800(%rsp), %rdi
	callq	__ZN14altered_carbon2js9JsVariantD1Ev
	leaq	1856(%rsp), %rdi
	callq	__ZN14altered_carbon2js9JsVariantD1Ev
	leaq	1912(%rsp), %rdi
	callq	__ZN14altered_carbon2js9JsVariantD1Ev
	leaq	16640(%rsp), %rdi
	callq	__ZN14altered_carbon2js9JsVariantD1Ev
	leaq	1968(%rsp), %rdi
	callq	__ZN14altered_carbon2js9JsVariantD1Ev
	leaq	2024(%rsp), %rdi
	callq	__ZN14altered_carbon2js9JsVariantD1Ev
	leaq	2080(%rsp), %rdi
	callq	__ZN14altered_carbon2js9JsVariantD1Ev
	leaq	16696(%rsp), %rdi
	callq	__ZN14altered_carbon2js9JsVariantD1Ev
	leaq	2136(%rsp), %rdi
	callq	__ZN14altered_carbon2js9JsVariantD1Ev
	leaq	2192(%rsp), %rdi
	callq	__ZN14altered_carbon2js9JsVariantD1Ev
	leaq	2248(%rsp), %rdi
	callq	__ZN14altered_carbon2js9JsVariantD1Ev
	leaq	16752(%rsp), %rdi
	callq	__ZN14altered_carbon2js9JsVariantD1Ev
	leaq	2304(%rsp), %rdi
	callq	__ZN14altered_carbon2js9JsVariantD1Ev
	leaq	2360(%rsp), %rdi
	callq	__ZN14altered_carbon2js9JsVariantD1Ev
	leaq	2416(%rsp), %rdi
	callq	__ZN14altered_carbon2js9JsVariantD1Ev
	leaq	16808(%rsp), %rdi
	callq	__ZN14altered_carbon2js9JsVariantD1Ev
	leaq	2472(%rsp), %rdi
	callq	__ZN14altered_carbon2js9JsVariantD1Ev
	leaq	2528(%rsp), %rdi
	callq	__ZN14altered_carbon2js9JsVariantD1Ev
	leaq	2584(%rsp), %rdi
	callq	__ZN14altered_carbon2js9JsVariantD1Ev
	leaq	16864(%rsp), %rdi
	callq	__ZN14altered_carbon2js9JsVariantD1Ev
	leaq	2640(%rsp), %rdi
	callq	__ZN14altered_carbon2js9JsVariantD1Ev
	leaq	2696(%rsp), %rdi
	callq	__ZN14altered_carbon2js9JsVariantD1Ev
	leaq	2752(%rsp), %rdi
	callq	__ZN14altered_carbon2js9JsVariantD1Ev
	leaq	16920(%rsp), %rdi
	callq	__ZN14altered_carbon2js9JsVariantD1Ev
	leaq	2808(%rsp), %rdi
	callq	__ZN14altered_carbon2js9JsVariantD1Ev
	leaq	2864(%rsp), %rdi
	callq	__ZN14altered_carbon2js9JsVariantD1Ev
	leaq	2920(%rsp), %rdi
	callq	__ZN14altered_carbon2js9JsVariantD1Ev
	leaq	16976(%rsp), %rdi
	callq	__ZN14altered_carbon2js9JsVariantD1Ev
	leaq	2976(%rsp), %rdi
	callq	__ZN14altered_carbon2js9JsVariantD1Ev
	leaq	3032(%rsp), %rdi
	callq	__ZN14altered_carbon2js9JsVariantD1Ev
	leaq	3088(%rsp), %rdi
	callq	__ZN14altered_carbon2js9JsVariantD1Ev
	leaq	17032(%rsp), %rdi
	callq	__ZN14altered_carbon2js9JsVariantD1Ev
	leaq	3144(%rsp), %rdi
	callq	__ZN14altered_carbon2js9JsVariantD1Ev
	leaq	3200(%rsp), %rdi
	callq	__ZN14altered_carbon2js9JsVariantD1Ev
	leaq	3256(%rsp), %rdi
	callq	__ZN14altered_carbon2js9JsVariantD1Ev
	leaq	17088(%rsp), %rdi
	callq	__ZN14altered_carbon2js9JsVariantD1Ev
	leaq	3312(%rsp), %rdi
	callq	__ZN14altered_carbon2js9JsVariantD1Ev
	leaq	3368(%rsp), %rdi
	callq	__ZN14altered_carbon2js9JsVariantD1Ev
	leaq	3424(%rsp), %rdi
	callq	__ZN14altered_carbon2js9JsVariantD1Ev
	leaq	17144(%rsp), %rdi
	callq	__ZN14altered_carbon2js9JsVariantD1Ev
	leaq	3480(%rsp), %rdi
	callq	__ZN14altered_carbon2js9JsVariantD1Ev
	leaq	3536(%rsp), %rdi
	callq	__ZN14altered_carbon2js9JsVariantD1Ev
	leaq	3592(%rsp), %rdi
	callq	__ZN14altered_carbon2js9JsVariantD1Ev
	leaq	17200(%rsp), %rdi
	callq	__ZN14altered_carbon2js9JsVariantD1Ev
	leaq	3648(%rsp), %rdi
	callq	__ZN14altered_carbon2js9JsVariantD1Ev
	leaq	3704(%rsp), %rdi
	callq	__ZN14altered_carbon2js9JsVariantD1Ev
	leaq	3760(%rsp), %rdi
	callq	__ZN14altered_carbon2js9JsVariantD1Ev
	leaq	17256(%rsp), %rdi
	callq	__ZN14altered_carbon2js9JsVariantD1Ev
	leaq	3816(%rsp), %rdi
	callq	__ZN14altered_carbon2js9JsVariantD1Ev
	leaq	3872(%rsp), %rdi
	callq	__ZN14altered_carbon2js9JsVariantD1Ev
	leaq	3928(%rsp), %rdi
	callq	__ZN14altered_carbon2js9JsVariantD1Ev
	leaq	17312(%rsp), %rdi
	callq	__ZN14altered_carbon2js9JsVariantD1Ev
	leaq	3984(%rsp), %rdi
	callq	__ZN14altered_carbon2js9JsVariantD1Ev
	leaq	4040(%rsp), %rdi
	callq	__ZN14altered_carbon2js9JsVariantD1Ev
	leaq	4096(%rsp), %rdi
	callq	__ZN14altered_carbon2js9JsVariantD1Ev
	leaq	17368(%rsp), %rdi
	callq	__ZN14altered_carbon2js9JsVariantD1Ev
	leaq	4152(%rsp), %rdi
	callq	__ZN14altered_carbon2js9JsVariantD1Ev
	leaq	4208(%rsp), %rdi
	callq	__ZN14altered_carbon2js9JsVariantD1Ev
	leaq	4264(%rsp), %rdi
	callq	__ZN14altered_carbon2js9JsVariantD1Ev
	leaq	17424(%rsp), %rdi
	callq	__ZN14altered_carbon2js9JsVariantD1Ev
	leaq	4320(%rsp), %rdi
	callq	__ZN14altered_carbon2js9JsVariantD1Ev
	leaq	4376(%rsp), %rdi
	callq	__ZN14altered_carbon2js9JsVariantD1Ev
	leaq	4432(%rsp), %rdi
	callq	__ZN14altered_carbon2js9JsVariantD1Ev
	leaq	17480(%rsp), %rdi
	callq	__ZN14altered_carbon2js9JsVariantD1Ev
	leaq	4488(%rsp), %rdi
	callq	__ZN14altered_carbon2js9JsVariantD1Ev
	leaq	4544(%rsp), %rdi
	callq	__ZN14altered_carbon2js9JsVariantD1Ev
	leaq	4600(%rsp), %rdi
	callq	__ZN14altered_carbon2js9JsVariantD1Ev
	leaq	17536(%rsp), %rdi
	callq	__ZN14altered_carbon2js9JsVariantD1Ev
	leaq	4656(%rsp), %rdi
	callq	__ZN14altered_carbon2js9JsVariantD1Ev
	leaq	4712(%rsp), %rdi
	callq	__ZN14altered_carbon2js9JsVariantD1Ev
	leaq	4768(%rsp), %rdi
	callq	__ZN14altered_carbon2js9JsVariantD1Ev
	leaq	17592(%rsp), %rdi
	callq	__ZN14altered_carbon2js9JsVariantD1Ev
	leaq	4824(%rsp), %rdi
	callq	__ZN14altered_carbon2js9JsVariantD1Ev
	leaq	4880(%rsp), %rdi
	callq	__ZN14altered_carbon2js9JsVariantD1Ev
	leaq	4936(%rsp), %rdi
	callq	__ZN14altered_carbon2js9JsVariantD1Ev
	leaq	17648(%rsp), %rdi
	callq	__ZN14altered_carbon2js9JsVariantD1Ev
	leaq	4992(%rsp), %rdi
	callq	__ZN14altered_carbon2js9JsVariantD1Ev
	leaq	5048(%rsp), %rdi
	callq	__ZN14altered_carbon2js9JsVariantD1Ev
	leaq	5104(%rsp), %rdi
	callq	__ZN14altered_carbon2js9JsVariantD1Ev
	leaq	17704(%rsp), %rdi
	callq	__ZN14altered_carbon2js9JsVariantD1Ev
	leaq	5160(%rsp), %rdi
	callq	__ZN14altered_carbon2js9JsVariantD1Ev
	leaq	5216(%rsp), %rdi
	callq	__ZN14altered_carbon2js9JsVariantD1Ev
	leaq	5272(%rsp), %rdi
	callq	__ZN14altered_carbon2js9JsVariantD1Ev
	leaq	17760(%rsp), %rdi
	callq	__ZN14altered_carbon2js9JsVariantD1Ev
	leaq	5328(%rsp), %rdi
	callq	__ZN14altered_carbon2js9JsVariantD1Ev
	leaq	5384(%rsp), %rdi
	callq	__ZN14altered_carbon2js9JsVariantD1Ev
	leaq	5440(%rsp), %rdi
	callq	__ZN14altered_carbon2js9JsVariantD1Ev
	leaq	17816(%rsp), %rdi
	callq	__ZN14altered_carbon2js9JsVariantD1Ev
	leaq	5496(%rsp), %rdi
	callq	__ZN14altered_carbon2js9JsVariantD1Ev
	leaq	5552(%rsp), %rdi
	callq	__ZN14altered_carbon2js9JsVariantD1Ev
	leaq	5608(%rsp), %rdi
	callq	__ZN14altered_carbon2js9JsVariantD1Ev
	leaq	17872(%rsp), %rdi
	callq	__ZN14altered_carbon2js9JsVariantD1Ev
	leaq	5664(%rsp), %rdi
	callq	__ZN14altered_carbon2js9JsVariantD1Ev
	leaq	5720(%rsp), %rdi
	callq	__ZN14altered_carbon2js9JsVariantD1Ev
	leaq	5776(%rsp), %rdi
	callq	__ZN14altered_carbon2js9JsVariantD1Ev
	leaq	17928(%rsp), %rdi
	callq	__ZN14altered_carbon2js9JsVariantD1Ev
	leaq	5832(%rsp), %rdi
	callq	__ZN14altered_carbon2js9JsVariantD1Ev
	leaq	5888(%rsp), %rdi
	callq	__ZN14altered_carbon2js9JsVariantD1Ev
	leaq	5944(%rsp), %rdi
	callq	__ZN14altered_carbon2js9JsVariantD1Ev
	leaq	17984(%rsp), %rdi
	callq	__ZN14altered_carbon2js9JsVariantD1Ev
	leaq	6000(%rsp), %rdi
	callq	__ZN14altered_carbon2js9JsVariantD1Ev
	leaq	6056(%rsp), %rdi
	callq	__ZN14altered_carbon2js9JsVariantD1Ev
	leaq	6112(%rsp), %rdi
	callq	__ZN14altered_carbon2js9JsVariantD1Ev
	leaq	18040(%rsp), %rdi
	callq	__ZN14altered_carbon2js9JsVariantD1Ev
	leaq	6168(%rsp), %rdi
	callq	__ZN14altered_carbon2js9JsVariantD1Ev
	leaq	6224(%rsp), %rdi
	callq	__ZN14altered_carbon2js9JsVariantD1Ev
	leaq	6280(%rsp), %rdi
	callq	__ZN14altered_carbon2js9JsVariantD1Ev
	leaq	18096(%rsp), %rdi
	callq	__ZN14altered_carbon2js9JsVariantD1Ev
	leaq	6336(%rsp), %rdi
	callq	__ZN14altered_carbon2js9JsVariantD1Ev
	leaq	6392(%rsp), %rdi
	callq	__ZN14altered_carbon2js9JsVariantD1Ev
	leaq	6448(%rsp), %rdi
	callq	__ZN14altered_carbon2js9JsVariantD1Ev
	leaq	18152(%rsp), %rdi
	callq	__ZN14altered_carbon2js9JsVariantD1Ev
	leaq	6504(%rsp), %rdi
	callq	__ZN14altered_carbon2js9JsVariantD1Ev
	leaq	6560(%rsp), %rdi
	callq	__ZN14altered_carbon2js9JsVariantD1Ev
	leaq	6616(%rsp), %rdi
	callq	__ZN14altered_carbon2js9JsVariantD1Ev
	leaq	18208(%rsp), %rdi
	callq	__ZN14altered_carbon2js9JsVariantD1Ev
	leaq	6672(%rsp), %rdi
	callq	__ZN14altered_carbon2js9JsVariantD1Ev
	leaq	6728(%rsp), %rdi
	callq	__ZN14altered_carbon2js9JsVariantD1Ev
	leaq	6784(%rsp), %rdi
	callq	__ZN14altered_carbon2js9JsVariantD1Ev
	leaq	18264(%rsp), %rdi
	callq	__ZN14altered_carbon2js9JsVariantD1Ev
	leaq	6840(%rsp), %rdi
	callq	__ZN14altered_carbon2js9JsVariantD1Ev
	leaq	6896(%rsp), %rdi
	callq	__ZN14altered_carbon2js9JsVariantD1Ev
	leaq	6952(%rsp), %rdi
	callq	__ZN14altered_carbon2js9JsVariantD1Ev
	leaq	18320(%rsp), %rdi
	callq	__ZN14altered_carbon2js9JsVariantD1Ev
	leaq	7008(%rsp), %rdi
	callq	__ZN14altered_carbon2js9JsVariantD1Ev
	leaq	7064(%rsp), %rdi
	callq	__ZN14altered_carbon2js9JsVariantD1Ev
	leaq	7120(%rsp), %rdi
	callq	__ZN14altered_carbon2js9JsVariantD1Ev
	leaq	18376(%rsp), %rdi
	callq	__ZN14altered_carbon2js9JsVariantD1Ev
	leaq	7176(%rsp), %rdi
	callq	__ZN14altered_carbon2js9JsVariantD1Ev
	leaq	7232(%rsp), %rdi
	callq	__ZN14altered_carbon2js9JsVariantD1Ev
	leaq	7288(%rsp), %rdi
	callq	__ZN14altered_carbon2js9JsVariantD1Ev
	leaq	18432(%rsp), %rdi
	callq	__ZN14altered_carbon2js9JsVariantD1Ev
	leaq	7344(%rsp), %rdi
	callq	__ZN14altered_carbon2js9JsVariantD1Ev
	leaq	7400(%rsp), %rdi
	callq	__ZN14altered_carbon2js9JsVariantD1Ev
	leaq	7456(%rsp), %rdi
	callq	__ZN14altered_carbon2js9JsVariantD1Ev
	leaq	18488(%rsp), %rdi
	callq	__ZN14altered_carbon2js9JsVariantD1Ev
	leaq	7512(%rsp), %rdi
	callq	__ZN14altered_carbon2js9JsVariantD1Ev
	leaq	7568(%rsp), %rdi
	callq	__ZN14altered_carbon2js9JsVariantD1Ev
	leaq	7624(%rsp), %rdi
	callq	__ZN14altered_carbon2js9JsVariantD1Ev
	leaq	18544(%rsp), %rdi
	callq	__ZN14altered_carbon2js9JsVariantD1Ev
	leaq	7680(%rsp), %rdi
	callq	__ZN14altered_carbon2js9JsVariantD1Ev
	leaq	7736(%rsp), %rdi
	callq	__ZN14altered_carbon2js9JsVariantD1Ev
	leaq	7792(%rsp), %rdi
	callq	__ZN14altered_carbon2js9JsVariantD1Ev
	leaq	18600(%rsp), %rdi
	callq	__ZN14altered_carbon2js9JsVariantD1Ev
	leaq	7848(%rsp), %rdi
	callq	__ZN14altered_carbon2js9JsVariantD1Ev
	leaq	7904(%rsp), %rdi
	callq	__ZN14altered_carbon2js9JsVariantD1Ev
	leaq	7960(%rsp), %rdi
	callq	__ZN14altered_carbon2js9JsVariantD1Ev
	leaq	18656(%rsp), %rdi
	callq	__ZN14altered_carbon2js9JsVariantD1Ev
	leaq	8016(%rsp), %rdi
	callq	__ZN14altered_carbon2js9JsVariantD1Ev
	leaq	8072(%rsp), %rdi
	callq	__ZN14altered_carbon2js9JsVariantD1Ev
	leaq	8128(%rsp), %rdi
	callq	__ZN14altered_carbon2js9JsVariantD1Ev
	leaq	18712(%rsp), %rdi
	callq	__ZN14altered_carbon2js9JsVariantD1Ev
	leaq	8184(%rsp), %rdi
	callq	__ZN14altered_carbon2js9JsVariantD1Ev
	leaq	8240(%rsp), %rdi
	callq	__ZN14altered_carbon2js9JsVariantD1Ev
	leaq	8296(%rsp), %rdi
	callq	__ZN14altered_carbon2js9JsVariantD1Ev
	leaq	18768(%rsp), %rdi
	callq	__ZN14altered_carbon2js9JsVariantD1Ev
	leaq	8352(%rsp), %rdi
	callq	__ZN14altered_carbon2js9JsVariantD1Ev
	leaq	8408(%rsp), %rdi
	callq	__ZN14altered_carbon2js9JsVariantD1Ev
	leaq	8464(%rsp), %rdi
	callq	__ZN14altered_carbon2js9JsVariantD1Ev
	leaq	18824(%rsp), %rdi
	callq	__ZN14altered_carbon2js9JsVariantD1Ev
	leaq	8520(%rsp), %rdi
	callq	__ZN14altered_carbon2js9JsVariantD1Ev
	leaq	8576(%rsp), %rdi
	callq	__ZN14altered_carbon2js9JsVariantD1Ev
	leaq	8632(%rsp), %rdi
	callq	__ZN14altered_carbon2js9JsVariantD1Ev
	leaq	18880(%rsp), %rdi
	callq	__ZN14altered_carbon2js9JsVariantD1Ev
	leaq	8688(%rsp), %rdi
	callq	__ZN14altered_carbon2js9JsVariantD1Ev
	leaq	8744(%rsp), %rdi
	callq	__ZN14altered_carbon2js9JsVariantD1Ev
	leaq	8800(%rsp), %rdi
	callq	__ZN14altered_carbon2js9JsVariantD1Ev
	leaq	18936(%rsp), %rdi
	callq	__ZN14altered_carbon2js9JsVariantD1Ev
	leaq	8856(%rsp), %rdi
	callq	__ZN14altered_carbon2js9JsVariantD1Ev
	leaq	8912(%rsp), %rdi
	callq	__ZN14altered_carbon2js9JsVariantD1Ev
	leaq	8968(%rsp), %rdi
	callq	__ZN14altered_carbon2js9JsVariantD1Ev
	leaq	18992(%rsp), %rdi
	callq	__ZN14altered_carbon2js9JsVariantD1Ev
	leaq	9024(%rsp), %rdi
	callq	__ZN14altered_carbon2js9JsVariantD1Ev
	leaq	9080(%rsp), %rdi
	callq	__ZN14altered_carbon2js9JsVariantD1Ev
	leaq	9136(%rsp), %rdi
	callq	__ZN14altered_carbon2js9JsVariantD1Ev
	leaq	19048(%rsp), %rdi
	callq	__ZN14altered_carbon2js9JsVariantD1Ev
	leaq	9192(%rsp), %rdi
	callq	__ZN14altered_carbon2js9JsVariantD1Ev
	leaq	9248(%rsp), %rdi
	callq	__ZN14altered_carbon2js9JsVariantD1Ev
	leaq	9304(%rsp), %rdi
	callq	__ZN14altered_carbon2js9JsVariantD1Ev
	leaq	19104(%rsp), %rdi
	callq	__ZN14altered_carbon2js9JsVariantD1Ev
	leaq	9360(%rsp), %rdi
	callq	__ZN14altered_carbon2js9JsVariantD1Ev
	leaq	9416(%rsp), %rdi
	callq	__ZN14altered_carbon2js9JsVariantD1Ev
	leaq	9472(%rsp), %rdi
	callq	__ZN14altered_carbon2js9JsVariantD1Ev
	leaq	19160(%rsp), %rdi
	callq	__ZN14altered_carbon2js9JsVariantD1Ev
	leaq	9528(%rsp), %rdi
	callq	__ZN14altered_carbon2js9JsVariantD1Ev
	leaq	9584(%rsp), %rdi
	callq	__ZN14altered_carbon2js9JsVariantD1Ev
	leaq	9640(%rsp), %rdi
	callq	__ZN14altered_carbon2js9JsVariantD1Ev
	leaq	19216(%rsp), %rdi
	callq	__ZN14altered_carbon2js9JsVariantD1Ev
	leaq	9696(%rsp), %rdi
	callq	__ZN14altered_carbon2js9JsVariantD1Ev
	leaq	9752(%rsp), %rdi
	callq	__ZN14altered_carbon2js9JsVariantD1Ev
	leaq	9808(%rsp), %rdi
	callq	__ZN14altered_carbon2js9JsVariantD1Ev
	leaq	19272(%rsp), %rdi
	callq	__ZN14altered_carbon2js9JsVariantD1Ev
	leaq	9864(%rsp), %rdi
	callq	__ZN14altered_carbon2js9JsVariantD1Ev
	leaq	9920(%rsp), %rdi
	callq	__ZN14altered_carbon2js9JsVariantD1Ev
	leaq	9976(%rsp), %rdi
	callq	__ZN14altered_carbon2js9JsVariantD1Ev
	leaq	19328(%rsp), %rdi
	callq	__ZN14altered_carbon2js9JsVariantD1Ev
	leaq	10032(%rsp), %rdi
	callq	__ZN14altered_carbon2js9JsVariantD1Ev
	leaq	10088(%rsp), %rdi
	callq	__ZN14altered_carbon2js9JsVariantD1Ev
	leaq	10144(%rsp), %rdi
	callq	__ZN14altered_carbon2js9JsVariantD1Ev
	leaq	19384(%rsp), %rdi
	callq	__ZN14altered_carbon2js9JsVariantD1Ev
	leaq	10200(%rsp), %rdi
	callq	__ZN14altered_carbon2js9JsVariantD1Ev
	leaq	10256(%rsp), %rdi
	callq	__ZN14altered_carbon2js9JsVariantD1Ev
	leaq	10312(%rsp), %rdi
	callq	__ZN14altered_carbon2js9JsVariantD1Ev
	leaq	19440(%rsp), %rdi
	callq	__ZN14altered_carbon2js9JsVariantD1Ev
	leaq	10368(%rsp), %rdi
	callq	__ZN14altered_carbon2js9JsVariantD1Ev
	leaq	10424(%rsp), %rdi
	callq	__ZN14altered_carbon2js9JsVariantD1Ev
	leaq	10480(%rsp), %rdi
	callq	__ZN14altered_carbon2js9JsVariantD1Ev
	leaq	19496(%rsp), %rdi
	callq	__ZN14altered_carbon2js9JsVariantD1Ev
	leaq	10536(%rsp), %rdi
	callq	__ZN14altered_carbon2js9JsVariantD1Ev
	leaq	10592(%rsp), %rdi
	callq	__ZN14altered_carbon2js9JsVariantD1Ev
	leaq	10648(%rsp), %rdi
	callq	__ZN14altered_carbon2js9JsVariantD1Ev
	leaq	19552(%rsp), %rdi
	callq	__ZN14altered_carbon2js9JsVariantD1Ev
	leaq	10704(%rsp), %rdi
	callq	__ZN14altered_carbon2js9JsVariantD1Ev
	leaq	10760(%rsp), %rdi
	callq	__ZN14altered_carbon2js9JsVariantD1Ev
	leaq	10816(%rsp), %rdi
	callq	__ZN14altered_carbon2js9JsVariantD1Ev
	leaq	19608(%rsp), %rdi
	callq	__ZN14altered_carbon2js9JsVariantD1Ev
	leaq	10872(%rsp), %rdi
	callq	__ZN14altered_carbon2js9JsVariantD1Ev
	leaq	10928(%rsp), %rdi
	callq	__ZN14altered_carbon2js9JsVariantD1Ev
	leaq	10984(%rsp), %rdi
	callq	__ZN14altered_carbon2js9JsVariantD1Ev
	leaq	19664(%rsp), %rdi
	callq	__ZN14altered_carbon2js9JsVariantD1Ev
	leaq	11040(%rsp), %rdi
	callq	__ZN14altered_carbon2js9JsVariantD1Ev
	leaq	11096(%rsp), %rdi
	callq	__ZN14altered_carbon2js9JsVariantD1Ev
	leaq	11152(%rsp), %rdi
	callq	__ZN14altered_carbon2js9JsVariantD1Ev
	leaq	19720(%rsp), %rdi
	callq	__ZN14altered_carbon2js9JsVariantD1Ev
	leaq	11208(%rsp), %rdi
	callq	__ZN14altered_carbon2js9JsVariantD1Ev
	leaq	11264(%rsp), %rdi
	callq	__ZN14altered_carbon2js9JsVariantD1Ev
	leaq	11320(%rsp), %rdi
	callq	__ZN14altered_carbon2js9JsVariantD1Ev
	leaq	19776(%rsp), %rdi
	callq	__ZN14altered_carbon2js9JsVariantD1Ev
	leaq	11376(%rsp), %rdi
	callq	__ZN14altered_carbon2js9JsVariantD1Ev
	leaq	11432(%rsp), %rdi
	callq	__ZN14altered_carbon2js9JsVariantD1Ev
	leaq	11488(%rsp), %rdi
	callq	__ZN14altered_carbon2js9JsVariantD1Ev
	leaq	19832(%rsp), %rdi
	callq	__ZN14altered_carbon2js9JsVariantD1Ev
	leaq	11544(%rsp), %rdi
	callq	__ZN14altered_carbon2js9JsVariantD1Ev
	leaq	11600(%rsp), %rdi
	callq	__ZN14altered_carbon2js9JsVariantD1Ev
	leaq	11656(%rsp), %rdi
	callq	__ZN14altered_carbon2js9JsVariantD1Ev
	leaq	19888(%rsp), %rdi
	callq	__ZN14altered_carbon2js9JsVariantD1Ev
	leaq	11712(%rsp), %rdi
	callq	__ZN14altered_carbon2js9JsVariantD1Ev
	leaq	11768(%rsp), %rdi
	callq	__ZN14altered_carbon2js9JsVariantD1Ev
	leaq	11824(%rsp), %rdi
	callq	__ZN14altered_carbon2js9JsVariantD1Ev
	leaq	19944(%rsp), %rdi
	callq	__ZN14altered_carbon2js9JsVariantD1Ev
	leaq	11880(%rsp), %rdi
	callq	__ZN14altered_carbon2js9JsVariantD1Ev
	leaq	11936(%rsp), %rdi
	callq	__ZN14altered_carbon2js9JsVariantD1Ev
	leaq	11992(%rsp), %rdi
	callq	__ZN14altered_carbon2js9JsVariantD1Ev
	leaq	20000(%rsp), %rdi
	callq	__ZN14altered_carbon2js9JsVariantD1Ev
	leaq	12048(%rsp), %rdi
	callq	__ZN14altered_carbon2js9JsVariantD1Ev
	leaq	12104(%rsp), %rdi
	callq	__ZN14altered_carbon2js9JsVariantD1Ev
	leaq	12160(%rsp), %rdi
	callq	__ZN14altered_carbon2js9JsVariantD1Ev
	leaq	20056(%rsp), %rdi
	callq	__ZN14altered_carbon2js9JsVariantD1Ev
	leaq	12216(%rsp), %rdi
	callq	__ZN14altered_carbon2js9JsVariantD1Ev
	leaq	12272(%rsp), %rdi
	callq	__ZN14altered_carbon2js9JsVariantD1Ev
	leaq	12328(%rsp), %rdi
	callq	__ZN14altered_carbon2js9JsVariantD1Ev
	leaq	20112(%rsp), %rdi
	callq	__ZN14altered_carbon2js9JsVariantD1Ev
	leaq	12384(%rsp), %rdi
	callq	__ZN14altered_carbon2js9JsVariantD1Ev
	leaq	12440(%rsp), %rdi
	callq	__ZN14altered_carbon2js9JsVariantD1Ev
	leaq	12496(%rsp), %rdi
	callq	__ZN14altered_carbon2js9JsVariantD1Ev
	leaq	20168(%rsp), %rdi
	callq	__ZN14altered_carbon2js9JsVariantD1Ev
	leaq	12552(%rsp), %rdi
	callq	__ZN14altered_carbon2js9JsVariantD1Ev
	leaq	12608(%rsp), %rdi
	callq	__ZN14altered_carbon2js9JsVariantD1Ev
	leaq	12664(%rsp), %rdi
	callq	__ZN14altered_carbon2js9JsVariantD1Ev
	leaq	20224(%rsp), %rdi
	callq	__ZN14altered_carbon2js9JsVariantD1Ev
	leaq	12720(%rsp), %rdi
	callq	__ZN14altered_carbon2js9JsVariantD1Ev
	leaq	12776(%rsp), %rdi
	callq	__ZN14altered_carbon2js9JsVariantD1Ev
	leaq	12832(%rsp), %rdi
	callq	__ZN14altered_carbon2js9JsVariantD1Ev
	leaq	20280(%rsp), %rdi
	callq	__ZN14altered_carbon2js9JsVariantD1Ev
	leaq	12888(%rsp), %rdi
	callq	__ZN14altered_carbon2js9JsVariantD1Ev
	leaq	12944(%rsp), %rdi
	callq	__ZN14altered_carbon2js9JsVariantD1Ev
	leaq	13000(%rsp), %rdi
	callq	__ZN14altered_carbon2js9JsVariantD1Ev
	leaq	20336(%rsp), %rdi
	callq	__ZN14altered_carbon2js9JsVariantD1Ev
	leaq	13056(%rsp), %rdi
	callq	__ZN14altered_carbon2js9JsVariantD1Ev
	leaq	13112(%rsp), %rdi
	callq	__ZN14altered_carbon2js9JsVariantD1Ev
	leaq	13168(%rsp), %rdi
	callq	__ZN14altered_carbon2js9JsVariantD1Ev
	leaq	20392(%rsp), %rdi
	callq	__ZN14altered_carbon2js9JsVariantD1Ev
	leaq	13224(%rsp), %rdi
	callq	__ZN14altered_carbon2js9JsVariantD1Ev
	leaq	13280(%rsp), %rdi
	callq	__ZN14altered_carbon2js9JsVariantD1Ev
	leaq	13336(%rsp), %rdi
	callq	__ZN14altered_carbon2js9JsVariantD1Ev
	leaq	20448(%rsp), %rdi
	callq	__ZN14altered_carbon2js9JsVariantD1Ev
	leaq	13392(%rsp), %rdi
	callq	__ZN14altered_carbon2js9JsVariantD1Ev
	leaq	13448(%rsp), %rdi
	callq	__ZN14altered_carbon2js9JsVariantD1Ev
	leaq	13504(%rsp), %rdi
	callq	__ZN14altered_carbon2js9JsVariantD1Ev
	leaq	20504(%rsp), %rdi
	callq	__ZN14altered_carbon2js9JsVariantD1Ev
	leaq	13560(%rsp), %rdi
	callq	__ZN14altered_carbon2js9JsVariantD1Ev
	leaq	13616(%rsp), %rdi
	callq	__ZN14altered_carbon2js9JsVariantD1Ev
	leaq	13672(%rsp), %rdi
	callq	__ZN14altered_carbon2js9JsVariantD1Ev
	leaq	20560(%rsp), %rdi
	callq	__ZN14altered_carbon2js9JsVariantD1Ev
	leaq	13728(%rsp), %rdi
	callq	__ZN14altered_carbon2js9JsVariantD1Ev
	leaq	13784(%rsp), %rdi
	callq	__ZN14altered_carbon2js9JsVariantD1Ev
	leaq	13840(%rsp), %rdi
	callq	__ZN14altered_carbon2js9JsVariantD1Ev
	leaq	20616(%rsp), %rdi
	callq	__ZN14altered_carbon2js9JsVariantD1Ev
	leaq	13896(%rsp), %rdi
	callq	__ZN14altered_carbon2js9JsVariantD1Ev
	leaq	13952(%rsp), %rdi
	callq	__ZN14altered_carbon2js9JsVariantD1Ev
	leaq	14008(%rsp), %rdi
	callq	__ZN14altered_carbon2js9JsVariantD1Ev
	leaq	20672(%rsp), %rdi
	callq	__ZN14altered_carbon2js9JsVariantD1Ev
	leaq	14064(%rsp), %rdi
	callq	__ZN14altered_carbon2js9JsVariantD1Ev
	leaq	14120(%rsp), %rdi
	callq	__ZN14altered_carbon2js9JsVariantD1Ev
	leaq	14176(%rsp), %rdi
	callq	__ZN14altered_carbon2js9JsVariantD1Ev
	leaq	20728(%rsp), %rdi
	callq	__ZN14altered_carbon2js9JsVariantD1Ev
	leaq	14232(%rsp), %rdi
	callq	__ZN14altered_carbon2js9JsVariantD1Ev
	leaq	14288(%rsp), %rdi
	callq	__ZN14altered_carbon2js9JsVariantD1Ev
	leaq	14344(%rsp), %rdi
	callq	__ZN14altered_carbon2js9JsVariantD1Ev
	leaq	20784(%rsp), %rdi
	callq	__ZN14altered_carbon2js9JsVariantD1Ev
	leaq	14400(%rsp), %rdi
	callq	__ZN14altered_carbon2js9JsVariantD1Ev
	leaq	14456(%rsp), %rdi
	callq	__ZN14altered_carbon2js9JsVariantD1Ev
	leaq	14512(%rsp), %rdi
	callq	__ZN14altered_carbon2js9JsVariantD1Ev
	leaq	20840(%rsp), %rdi
	callq	__ZN14altered_carbon2js9JsVariantD1Ev
	leaq	14568(%rsp), %rdi
	callq	__ZN14altered_carbon2js9JsVariantD1Ev
	leaq	14624(%rsp), %rdi
	callq	__ZN14altered_carbon2js9JsVariantD1Ev
	leaq	14680(%rsp), %rdi
	callq	__ZN14altered_carbon2js9JsVariantD1Ev
	leaq	20896(%rsp), %rdi
	callq	__ZN14altered_carbon2js9JsVariantD1Ev
	leaq	14736(%rsp), %rdi
	callq	__ZN14altered_carbon2js9JsVariantD1Ev
	leaq	14792(%rsp), %rdi
	callq	__ZN14altered_carbon2js9JsVariantD1Ev
	leaq	14848(%rsp), %rdi
	callq	__ZN14altered_carbon2js9JsVariantD1Ev
	leaq	20952(%rsp), %rdi
	callq	__ZN14altered_carbon2js9JsVariantD1Ev
	leaq	14904(%rsp), %rdi
	callq	__ZN14altered_carbon2js9JsVariantD1Ev
	leaq	14960(%rsp), %rdi
	callq	__ZN14altered_carbon2js9JsVariantD1Ev
	leaq	15016(%rsp), %rdi
	callq	__ZN14altered_carbon2js9JsVariantD1Ev
	leaq	21008(%rsp), %rdi
	callq	__ZN14altered_carbon2js9JsVariantD1Ev
	leaq	15072(%rsp), %rdi
	callq	__ZN14altered_carbon2js9JsVariantD1Ev
	leaq	15128(%rsp), %rdi
	callq	__ZN14altered_carbon2js9JsVariantD1Ev
	leaq	15184(%rsp), %rdi
	callq	__ZN14altered_carbon2js9JsVariantD1Ev
	leaq	21064(%rsp), %rdi
	callq	__ZN14altered_carbon2js9JsVariantD1Ev
	leaq	15240(%rsp), %rdi
	callq	__ZN14altered_carbon2js9JsVariantD1Ev
	leaq	15296(%rsp), %rdi
	callq	__ZN14altered_carbon2js9JsVariantD1Ev
	leaq	15352(%rsp), %rdi
	callq	__ZN14altered_carbon2js9JsVariantD1Ev
	leaq	21120(%rsp), %rdi
	callq	__ZN14altered_carbon2js9JsVariantD1Ev
	leaq	15408(%rsp), %rdi
	callq	__ZN14altered_carbon2js9JsVariantD1Ev
	leaq	15464(%rsp), %rdi
	callq	__ZN14altered_carbon2js9JsVariantD1Ev
	leaq	15520(%rsp), %rdi
	callq	__ZN14altered_carbon2js9JsVariantD1Ev
	leaq	21176(%rsp), %rdi
	callq	__ZN14altered_carbon2js9JsVariantD1Ev
	leaq	15576(%rsp), %rdi
	callq	__ZN14altered_carbon2js9JsVariantD1Ev
	leaq	15632(%rsp), %rdi
	callq	__ZN14altered_carbon2js9JsVariantD1Ev
	leaq	15688(%rsp), %rdi
	callq	__ZN14altered_carbon2js9JsVariantD1Ev
	leaq	21232(%rsp), %rdi
	callq	__ZN14altered_carbon2js9JsVariantD1Ev
	leaq	15744(%rsp), %rdi
	callq	__ZN14altered_carbon2js9JsVariantD1Ev
	leaq	15800(%rsp), %rdi
	callq	__ZN14altered_carbon2js9JsVariantD1Ev
	leaq	15856(%rsp), %rdi
	callq	__ZN14altered_carbon2js9JsVariantD1Ev
	leaq	21288(%rsp), %rdi
	callq	__ZN14altered_carbon2js9JsVariantD1Ev
	leaq	15912(%rsp), %rdi
	callq	__ZN14altered_carbon2js9JsVariantD1Ev
	leaq	15968(%rsp), %rdi
	callq	__ZN14altered_carbon2js9JsVariantD1Ev
	addq	$21344, %rsp            ## imm = 0x5360
	popq	%rbx
	popq	%r14
	popq	%r15
	retq
	.cfi_endproc
                                        ## -- End function
	.section	__TEXT,__const
	.globl	__ZTSN14altered_carbon2js9JsVariantE ## @_ZTSN14altered_carbon2js9JsVariantE
	.weak_definition	__ZTSN14altered_carbon2js9JsVariantE
	.p2align	4
__ZTSN14altered_carbon2js9JsVariantE:
	.asciz	"N14altered_carbon2js9JsVariantE"

	.section	__DATA,__const
	.globl	__ZTIN14altered_carbon2js9JsVariantE ## @_ZTIN14altered_carbon2js9JsVariantE
	.weak_definition	__ZTIN14altered_carbon2js9JsVariantE
	.p2align	3
__ZTIN14altered_carbon2js9JsVariantE:
	.quad	__ZTVN10__cxxabiv117__class_type_infoE+16
	.quad	__ZTSN14altered_carbon2js9JsVariantE

	.globl	__ZTVN14altered_carbon2js9JsVariantE ## @_ZTVN14altered_carbon2js9JsVariantE
	.weak_def_can_be_hidden	__ZTVN14altered_carbon2js9JsVariantE
	.p2align	3
__ZTVN14altered_carbon2js9JsVariantE:
	.quad	0
	.quad	__ZTIN14altered_carbon2js9JsVariantE
	.quad	__ZN14altered_carbon2js9JsVariantD1Ev
	.quad	__ZN14altered_carbon2js9JsVariantD0Ev


.subsections_via_symbols
