	.section	__TEXT,__text,regular,pure_instructions
	.macosx_version_min 10, 14
	.globl	__Z7_scriptPN14altered_carbon2js9JsVariantE ## -- Begin function _Z7_scriptPN14altered_carbon2js9JsVariantE
	.p2align	4, 0x90
__Z7_scriptPN14altered_carbon2js9JsVariantE: ## @_Z7_scriptPN14altered_carbon2js9JsVariantE
	.cfi_startproc
## %bb.0:                               ## %init.bb
	pushq	%r15
	.cfi_def_cfa_offset 16
	pushq	%r14
	.cfi_def_cfa_offset 24
	pushq	%r12
	.cfi_def_cfa_offset 32
	pushq	%rbx
	.cfi_def_cfa_offset 40
	subq	$1528, %rsp             ## imm = 0x5F8
	.cfi_def_cfa_offset 1568
	.cfi_offset %rbx, -40
	.cfi_offset %r12, -32
	.cfi_offset %r14, -24
	.cfi_offset %r15, -16
	movq	%rdi, %r14
	leaq	__ZTVN14altered_carbon2js9JsVariantE_GEP(%rip), %r12
	movq	%r12, 1472(%rsp)
	movl	$1, 1480(%rsp)
	movq	%r12, 1416(%rsp)
	movl	$1, 1424(%rsp)
	movq	%r12, 576(%rsp)
	movl	$1, 584(%rsp)
	movq	%r12, 1360(%rsp)
	movl	$1, 1368(%rsp)
	movq	%r12, 1304(%rsp)
	movl	$1, 1312(%rsp)
	movq	%r12, 520(%rsp)
	movl	$1, 528(%rsp)
	movq	%r12, 1248(%rsp)
	movl	$1, 1256(%rsp)
	movq	%r12, 1192(%rsp)
	movl	$1, 1200(%rsp)
	movq	%r12, 464(%rsp)
	movl	$1, 472(%rsp)
	movq	%r12, 1136(%rsp)
	movl	$1, 1144(%rsp)
	movq	%r12, 1080(%rsp)
	movl	$1, 1088(%rsp)
	movq	%r12, 408(%rsp)
	movl	$1, 416(%rsp)
	movq	%r12, 1024(%rsp)
	movl	$1, 1032(%rsp)
	movq	%r12, 968(%rsp)
	movl	$1, 976(%rsp)
	movq	%r12, 352(%rsp)
	movl	$1, 360(%rsp)
	movq	%r12, 912(%rsp)
	movl	$1, 920(%rsp)
	movq	%r12, 856(%rsp)
	movl	$1, 864(%rsp)
	movq	%r12, 296(%rsp)
	movl	$1, 304(%rsp)
	movq	%r12, 800(%rsp)
	movl	$1, 808(%rsp)
	movq	%r12, 744(%rsp)
	movl	$1, 752(%rsp)
	movq	%r12, 240(%rsp)
	movl	$1, 248(%rsp)
	movq	%r12, 688(%rsp)
	movl	$1, 696(%rsp)
	movq	%r12, 632(%rsp)
	movl	$1, 640(%rsp)
	movq	%r12, 184(%rsp)
	movl	$1, 192(%rsp)
	movq	%r12, 56(%rsp)
	movl	$1, 64(%rsp)
	movq	%r12, (%rsp)
	movl	$1, 8(%rsp)
	leaq	1472(%rsp), %r15
	movl	$1, %esi
	movq	%r15, %rdi
	callq	__ZN14altered_carbon2js9JsVariantaSEx
	leaq	1416(%rsp), %rbx
	movl	$1, %esi
	movq	%rbx, %rdi
	callq	__ZN14altered_carbon2js9JsVariantaSEb
	movq	%r15, %rdi
	movq	%rbx, %rsi
	callq	__ZNK14altered_carbon2js9JsVariant4eqvtERKS1_
	movzbl	%al, %esi
	leaq	576(%rsp), %rdi
	callq	__ZN14altered_carbon2js9JsVariantaSEb
	leaq	1360(%rsp), %r15
	movl	$1, %esi
	movq	%r15, %rdi
	callq	__ZN14altered_carbon2js9JsVariantaSEx
	leaq	1304(%rsp), %rbx
	movl	$1, %esi
	movq	%rbx, %rdi
	callq	__ZN14altered_carbon2js9JsVariantaSEb
	movq	%r15, %rdi
	movq	%rbx, %rsi
	callq	__ZNK14altered_carbon2js9JsVarianteqERKS1_
	movzbl	%al, %esi
	leaq	520(%rsp), %rdi
	callq	__ZN14altered_carbon2js9JsVariantaSEb
	leaq	1248(%rsp), %r15
	movl	$1, %esi
	movq	%r15, %rdi
	callq	__ZN14altered_carbon2js9JsVariantaSEx
	leaq	1192(%rsp), %rbx
	xorl	%esi, %esi
	movq	%rbx, %rdi
	callq	__ZN14altered_carbon2js9JsVariantaSEb
	movq	%r15, %rdi
	movq	%rbx, %rsi
	callq	__ZNK14altered_carbon2js9JsVariantneERKS1_
	movzbl	%al, %esi
	leaq	464(%rsp), %rdi
	callq	__ZN14altered_carbon2js9JsVariantaSEb
	leaq	1136(%rsp), %r15
	movl	$1, %esi
	movq	%r15, %rdi
	callq	__ZN14altered_carbon2js9JsVariantaSEx
	leaq	1080(%rsp), %rbx
	xorl	%esi, %esi
	movq	%rbx, %rdi
	callq	__ZN14altered_carbon2js9JsVariantaSEb
	movq	%r15, %rdi
	movq	%rbx, %rsi
	callq	__ZNK14altered_carbon2js9JsVariant4nevtERKS1_
	movzbl	%al, %esi
	leaq	408(%rsp), %rdi
	callq	__ZN14altered_carbon2js9JsVariantaSEb
	leaq	1024(%rsp), %r15
	movl	$1, %esi
	movq	%r15, %rdi
	callq	__ZN14altered_carbon2js9JsVariantaSEx
	leaq	968(%rsp), %rbx
	movl	$1, %esi
	movq	%rbx, %rdi
	callq	__ZN14altered_carbon2js9JsVariantaSEx
	movq	%r15, %rdi
	movq	%rbx, %rsi
	callq	__ZNK14altered_carbon2js9JsVariantgtERKS1_
	movzbl	%al, %esi
	leaq	352(%rsp), %rdi
	callq	__ZN14altered_carbon2js9JsVariantaSEb
	leaq	912(%rsp), %r15
	movl	$1, %esi
	movq	%r15, %rdi
	callq	__ZN14altered_carbon2js9JsVariantaSEx
	leaq	856(%rsp), %rbx
	movl	$1, %esi
	movq	%rbx, %rdi
	callq	__ZN14altered_carbon2js9JsVariantaSEx
	movq	%r15, %rdi
	movq	%rbx, %rsi
	callq	__ZNK14altered_carbon2js9JsVariantltERKS1_
	movzbl	%al, %esi
	leaq	296(%rsp), %rdi
	callq	__ZN14altered_carbon2js9JsVariantaSEb
	leaq	800(%rsp), %r15
	movl	$1, %esi
	movq	%r15, %rdi
	callq	__ZN14altered_carbon2js9JsVariantaSEx
	leaq	744(%rsp), %rbx
	movl	$1, %esi
	movq	%rbx, %rdi
	callq	__ZN14altered_carbon2js9JsVariantaSEx
	movq	%r15, %rdi
	movq	%rbx, %rsi
	callq	__ZNK14altered_carbon2js9JsVariantgeERKS1_
	movzbl	%al, %esi
	leaq	240(%rsp), %rdi
	callq	__ZN14altered_carbon2js9JsVariantaSEb
	leaq	688(%rsp), %r15
	movl	$1, %esi
	movq	%r15, %rdi
	callq	__ZN14altered_carbon2js9JsVariantaSEx
	leaq	632(%rsp), %rbx
	movl	$1, %esi
	movq	%rbx, %rdi
	callq	__ZN14altered_carbon2js9JsVariantaSEx
	movq	%r15, %rdi
	movq	%rbx, %rsi
	callq	__ZNK14altered_carbon2js9JsVariantleERKS1_
	movzbl	%al, %esi
	leaq	184(%rsp), %rdi
	callq	__ZN14altered_carbon2js9JsVariantaSEb
	movl	$456, %edi              ## imm = 0x1C8
	callq	__Znam
	movq	$8, (%rax)
	leaq	8(%rax), %rbx
	addq	$456, %rax              ## imm = 0x1C8
	movq	%rbx, %rcx
	.p2align	4, 0x90
LBB0_1:                                 ## %initarr.bb
                                        ## =>This Inner Loop Header: Depth=1
	movq	%r12, (%rcx)
	movl	$1, 8(%rcx)
	addq	$56, %rcx
	cmpq	%rax, %rcx
	jne	LBB0_1
## %bb.2:                               ## %initarr.bbe
	leaq	576(%rsp), %rsi
	movq	%rbx, %rdi
	callq	__ZN14altered_carbon2js9JsVariantaSERKS1_
	movq	%rbx, 112(%rsp)
	leaq	56(%rbx), %r15
	leaq	520(%rsp), %rsi
	movq	%r15, %rdi
	callq	__ZN14altered_carbon2js9JsVariantaSERKS1_
	movq	%r15, 120(%rsp)
	leaq	112(%rbx), %r15
	leaq	464(%rsp), %rsi
	movq	%r15, %rdi
	callq	__ZN14altered_carbon2js9JsVariantaSERKS1_
	movq	%r15, 128(%rsp)
	leaq	168(%rbx), %r15
	leaq	408(%rsp), %rsi
	movq	%r15, %rdi
	callq	__ZN14altered_carbon2js9JsVariantaSERKS1_
	movq	%r15, 136(%rsp)
	leaq	224(%rbx), %r15
	leaq	352(%rsp), %rsi
	movq	%r15, %rdi
	callq	__ZN14altered_carbon2js9JsVariantaSERKS1_
	movq	%r15, 144(%rsp)
	leaq	280(%rbx), %r15
	leaq	296(%rsp), %rsi
	movq	%r15, %rdi
	callq	__ZN14altered_carbon2js9JsVariantaSERKS1_
	movq	%r15, 152(%rsp)
	leaq	336(%rbx), %r15
	leaq	240(%rsp), %rsi
	movq	%r15, %rdi
	callq	__ZN14altered_carbon2js9JsVariantaSERKS1_
	movq	%r15, 160(%rsp)
	addq	$392, %rbx              ## imm = 0x188
	leaq	184(%rsp), %rsi
	movq	%rbx, %rdi
	callq	__ZN14altered_carbon2js9JsVariantaSERKS1_
	movq	%rbx, 168(%rsp)
	leaq	56(%rsp), %rdi
	leaq	112(%rsp), %rsi
	movl	$8, %edx
	callq	__ZN14altered_carbon2js9JsVariantaSEN4llvm8ArrayRefIPS1_EE
	cmpl	$6, 8(%rsp)
	jg	LBB0_6
## %bb.3:                               ## %initarr.bbe
	movl	64(%rsp), %eax
	cmpl	$6, %eax
	jg	LBB0_6
## %bb.4:                               ## %copy.bb
	leal	2(%rax), %ecx
	cmpl	$8, %ecx
	ja	LBB0_6
## %bb.5:                               ## %copy.bb
	leaq	LJTI0_0(%rip), %rdx
	movslq	(%rdx,%rcx,4), %rcx
	addq	%rdx, %rcx
	jmpq	*%rcx
LBB0_8:                                 ## %casenul_unf.bb
	movl	%eax, 8(%rsp)
	jmp	LBB0_11
LBB0_6:                                 ## %fallback.bb
	movq	%rsp, %rdi
	leaq	56(%rsp), %rsi
	callq	__ZN14altered_carbon2js9JsVariantaSERKS1_
LBB0_11:                                ## %copy.bbe
	movq	%rsp, %rbx
	movq	%r14, %rdi
	movq	%rbx, %rsi
	callq	__ZN14altered_carbon2js9JsVariantaSERKS1_
	movq	%rbx, %rdi
	callq	__ZN14altered_carbon2js9JsVariantD1Ev
	leaq	56(%rsp), %rdi
	callq	__ZN14altered_carbon2js9JsVariantD1Ev
	leaq	184(%rsp), %rdi
	callq	__ZN14altered_carbon2js9JsVariantD1Ev
	leaq	632(%rsp), %rdi
	callq	__ZN14altered_carbon2js9JsVariantD1Ev
	leaq	688(%rsp), %rdi
	callq	__ZN14altered_carbon2js9JsVariantD1Ev
	leaq	240(%rsp), %rdi
	callq	__ZN14altered_carbon2js9JsVariantD1Ev
	leaq	744(%rsp), %rdi
	callq	__ZN14altered_carbon2js9JsVariantD1Ev
	leaq	800(%rsp), %rdi
	callq	__ZN14altered_carbon2js9JsVariantD1Ev
	leaq	296(%rsp), %rdi
	callq	__ZN14altered_carbon2js9JsVariantD1Ev
	leaq	856(%rsp), %rdi
	callq	__ZN14altered_carbon2js9JsVariantD1Ev
	leaq	912(%rsp), %rdi
	callq	__ZN14altered_carbon2js9JsVariantD1Ev
	leaq	352(%rsp), %rdi
	callq	__ZN14altered_carbon2js9JsVariantD1Ev
	leaq	968(%rsp), %rdi
	callq	__ZN14altered_carbon2js9JsVariantD1Ev
	leaq	1024(%rsp), %rdi
	callq	__ZN14altered_carbon2js9JsVariantD1Ev
	leaq	408(%rsp), %rdi
	callq	__ZN14altered_carbon2js9JsVariantD1Ev
	leaq	1080(%rsp), %rdi
	callq	__ZN14altered_carbon2js9JsVariantD1Ev
	leaq	1136(%rsp), %rdi
	callq	__ZN14altered_carbon2js9JsVariantD1Ev
	leaq	464(%rsp), %rdi
	callq	__ZN14altered_carbon2js9JsVariantD1Ev
	leaq	1192(%rsp), %rdi
	callq	__ZN14altered_carbon2js9JsVariantD1Ev
	leaq	1248(%rsp), %rdi
	callq	__ZN14altered_carbon2js9JsVariantD1Ev
	leaq	520(%rsp), %rdi
	callq	__ZN14altered_carbon2js9JsVariantD1Ev
	leaq	1304(%rsp), %rdi
	callq	__ZN14altered_carbon2js9JsVariantD1Ev
	leaq	1360(%rsp), %rdi
	callq	__ZN14altered_carbon2js9JsVariantD1Ev
	leaq	576(%rsp), %rdi
	callq	__ZN14altered_carbon2js9JsVariantD1Ev
	leaq	1416(%rsp), %rdi
	callq	__ZN14altered_carbon2js9JsVariantD1Ev
	leaq	1472(%rsp), %rdi
	callq	__ZN14altered_carbon2js9JsVariantD1Ev
	addq	$1528, %rsp             ## imm = 0x5F8
	popq	%rbx
	popq	%r12
	popq	%r14
	popq	%r15
	retq
LBB0_7:                                 ## %caseerr.bb
	movl	%eax, 8(%rsp)
	movq	72(%rsp), %rax
	movq	%rax, 16(%rsp)
	jmp	LBB0_11
LBB0_10:                                ## %casenum.bb
	movl	%eax, 8(%rsp)
	movq	72(%rsp), %rax
	movsd	80(%rsp), %xmm0         ## xmm0 = mem[0],zero
	movb	88(%rsp), %cl
	movq	%rax, 16(%rsp)
	movsd	%xmm0, 24(%rsp)
	movb	%cl, 32(%rsp)
	jmp	LBB0_11
LBB0_9:                                 ## %casebln.bb
	movl	%eax, 8(%rsp)
	movb	72(%rsp), %al
	movb	%al, 16(%rsp)
	jmp	LBB0_11
	.cfi_endproc
	.p2align	2, 0x90
	.data_region jt32
.set L0_0_set_7, LBB0_7-LJTI0_0
.set L0_0_set_6, LBB0_6-LJTI0_0
.set L0_0_set_8, LBB0_8-LJTI0_0
.set L0_0_set_10, LBB0_10-LJTI0_0
.set L0_0_set_9, LBB0_9-LJTI0_0
LJTI0_0:
	.long	L0_0_set_7
	.long	L0_0_set_6
	.long	L0_0_set_8
	.long	L0_0_set_8
	.long	L0_0_set_10
	.long	L0_0_set_6
	.long	L0_0_set_6
	.long	L0_0_set_6
	.long	L0_0_set_9
	.end_data_region
                                        ## -- End function
	.section	__TEXT,__const
	.globl	__ZTSN14altered_carbon2js9JsVariantE ## @_ZTSN14altered_carbon2js9JsVariantE
	.weak_definition	__ZTSN14altered_carbon2js9JsVariantE
	.p2align	4
__ZTSN14altered_carbon2js9JsVariantE:
	.asciz	"N14altered_carbon2js9JsVariantE"

	.section	__DATA,__const
	.globl	__ZTIN14altered_carbon2js9JsVariantE ## @_ZTIN14altered_carbon2js9JsVariantE
	.weak_definition	__ZTIN14altered_carbon2js9JsVariantE
	.p2align	3
__ZTIN14altered_carbon2js9JsVariantE:
	.quad	__ZTVN10__cxxabiv117__class_type_infoE+16
	.quad	__ZTSN14altered_carbon2js9JsVariantE

	.globl	__ZTVN14altered_carbon2js9JsVariantE ## @_ZTVN14altered_carbon2js9JsVariantE
	.weak_def_can_be_hidden	__ZTVN14altered_carbon2js9JsVariantE
	.p2align	3
__ZTVN14altered_carbon2js9JsVariantE:
	.quad	0
	.quad	__ZTIN14altered_carbon2js9JsVariantE
	.quad	__ZN14altered_carbon2js9JsVariantD1Ev
	.quad	__ZN14altered_carbon2js9JsVariantD0Ev

	.p2align	3               ## @_ZTVN14altered_carbon2js9JsVariantE_GEP
__ZTVN14altered_carbon2js9JsVariantE_GEP:
	.quad	__ZTVN14altered_carbon2js9JsVariantE+16


.subsections_via_symbols
