; ModuleID = 'script22.js'
source_filename = "script22.js"

%"class.altered_carbon::js::JsValueRef" = type { i32 (...)**, %"class.std::__1::shared_ptr" }
%"class.std::__1::shared_ptr" = type { %"class.altered_carbon::js::ACJsValue"*, %"class.std::__1::__shared_weak_count"* }
%"class.altered_carbon::js::ACJsValue" = type <{ i32 (...)**, i32, [4 x i8] }>
%"class.std::__1::__shared_weak_count" = type { %"class.std::__1::__shared_count", i64 }
%"class.std::__1::__shared_count" = type { i32 (...)**, i64 }
%"class.altered_carbon::js::ACJsNumber" = type { %"class.altered_carbon::js::ACJsPrimitive" }
%"class.altered_carbon::js::ACJsPrimitive" = type { %"class.altered_carbon::js::ACJsValue.base", %"class.altered_carbon::js::ACLexNumber" }
%"class.altered_carbon::js::ACJsValue.base" = type { i32 (...)**, i32 }
%"class.altered_carbon::js::ACLexNumber" = type { i32 (...)**, i8, %union.anon.4 }
%union.anon.4 = type { double }

define void @_Z7_scriptPN14altered_carbon2js10JsValueRefE(%"class.altered_carbon::js::JsValueRef"*) {
init.bb:
  %ptr = alloca %"class.altered_carbon::js::JsValueRef", align 8
  call void @_ZN14altered_carbon2js10JsValueRefC1Ev(%"class.altered_carbon::js::JsValueRef"* %ptr)
  %ptr4 = alloca %"class.altered_carbon::js::JsValueRef", align 8
  call void @_ZN14altered_carbon2js10JsValueRefC1Ev(%"class.altered_carbon::js::JsValueRef"* %ptr4)
  %ptr8 = alloca %"class.altered_carbon::js::JsValueRef", align 8
  call void @_ZN14altered_carbon2js10JsValueRefC1Ev(%"class.altered_carbon::js::JsValueRef"* %ptr8)
  %ptr9 = alloca %"class.altered_carbon::js::JsValueRef", align 8
  call void @_ZN14altered_carbon2js10JsValueRefC1Ev(%"class.altered_carbon::js::JsValueRef"* %ptr9)
  %ptr10 = alloca %"class.altered_carbon::js::JsValueRef", align 8
  call void @_ZN14altered_carbon2js10JsValueRefC1Ev(%"class.altered_carbon::js::JsValueRef"* %ptr10)
  %ptr14 = alloca %"class.altered_carbon::js::JsValueRef", align 8
  call void @_ZN14altered_carbon2js10JsValueRefC1Ev(%"class.altered_carbon::js::JsValueRef"* %ptr14)
  %ptr18 = alloca %"class.altered_carbon::js::JsValueRef", align 8
  call void @_ZN14altered_carbon2js10JsValueRefC1Ev(%"class.altered_carbon::js::JsValueRef"* %ptr18)
  %ptr19 = alloca %"class.altered_carbon::js::JsValueRef", align 8
  call void @_ZN14altered_carbon2js10JsValueRefC1Ev(%"class.altered_carbon::js::JsValueRef"* %ptr19)
  %ptr20 = alloca %"class.altered_carbon::js::JsValueRef", align 8
  call void @_ZN14altered_carbon2js10JsValueRefC1Ev(%"class.altered_carbon::js::JsValueRef"* %ptr20)
  %ptr24 = alloca %"class.altered_carbon::js::JsValueRef", align 8
  call void @_ZN14altered_carbon2js10JsValueRefC1Ev(%"class.altered_carbon::js::JsValueRef"* %ptr24)
  %ptr28 = alloca %"class.altered_carbon::js::JsValueRef", align 8
  call void @_ZN14altered_carbon2js10JsValueRefC1Ev(%"class.altered_carbon::js::JsValueRef"* %ptr28)
  %ptr29 = alloca %"class.altered_carbon::js::JsValueRef", align 8
  call void @_ZN14altered_carbon2js10JsValueRefC1Ev(%"class.altered_carbon::js::JsValueRef"* %ptr29)
  %ptr30 = alloca %"class.altered_carbon::js::JsValueRef", align 8
  call void @_ZN14altered_carbon2js10JsValueRefC1Ev(%"class.altered_carbon::js::JsValueRef"* %ptr30)
  %ptr34 = alloca %"class.altered_carbon::js::JsValueRef", align 8
  call void @_ZN14altered_carbon2js10JsValueRefC1Ev(%"class.altered_carbon::js::JsValueRef"* %ptr34)
  %ptr38 = alloca %"class.altered_carbon::js::JsValueRef", align 8
  call void @_ZN14altered_carbon2js10JsValueRefC1Ev(%"class.altered_carbon::js::JsValueRef"* %ptr38)
  %ptr39 = alloca %"class.altered_carbon::js::JsValueRef", align 8
  call void @_ZN14altered_carbon2js10JsValueRefC1Ev(%"class.altered_carbon::js::JsValueRef"* %ptr39)
  %ptr40 = alloca %"class.altered_carbon::js::JsValueRef", align 8
  call void @_ZN14altered_carbon2js10JsValueRefC1Ev(%"class.altered_carbon::js::JsValueRef"* %ptr40)
  %ptr44 = alloca %"class.altered_carbon::js::JsValueRef", align 8
  call void @_ZN14altered_carbon2js10JsValueRefC1Ev(%"class.altered_carbon::js::JsValueRef"* %ptr44)
  %ptr48 = alloca %"class.altered_carbon::js::JsValueRef", align 8
  call void @_ZN14altered_carbon2js10JsValueRefC1Ev(%"class.altered_carbon::js::JsValueRef"* %ptr48)
  %ptr49 = alloca %"class.altered_carbon::js::JsValueRef", align 8
  call void @_ZN14altered_carbon2js10JsValueRefC1Ev(%"class.altered_carbon::js::JsValueRef"* %ptr49)
  %ptr50 = alloca %"class.altered_carbon::js::JsValueRef", align 8
  call void @_ZN14altered_carbon2js10JsValueRefC1Ev(%"class.altered_carbon::js::JsValueRef"* %ptr50)
  %ptr54 = alloca %"class.altered_carbon::js::JsValueRef", align 8
  call void @_ZN14altered_carbon2js10JsValueRefC1Ev(%"class.altered_carbon::js::JsValueRef"* %ptr54)
  %ptr55 = alloca %"class.altered_carbon::js::JsValueRef", align 8
  call void @_ZN14altered_carbon2js10JsValueRefC1Ev(%"class.altered_carbon::js::JsValueRef"* %ptr55)
  %ptr59 = alloca %"class.altered_carbon::js::JsValueRef", align 8
  call void @_ZN14altered_carbon2js10JsValueRefC1Ev(%"class.altered_carbon::js::JsValueRef"* %ptr59)
  %ptr63 = alloca %"class.altered_carbon::js::JsValueRef", align 8
  call void @_ZN14altered_carbon2js10JsValueRefC1Ev(%"class.altered_carbon::js::JsValueRef"* %ptr63)
  %ptr64 = alloca %"class.altered_carbon::js::JsValueRef", align 8
  call void @_ZN14altered_carbon2js10JsValueRefC1Ev(%"class.altered_carbon::js::JsValueRef"* %ptr64)
  %ptr65 = alloca %"class.altered_carbon::js::JsValueRef", align 8
  call void @_ZN14altered_carbon2js10JsValueRefC1Ev(%"class.altered_carbon::js::JsValueRef"* %ptr65)
  %ptr69 = alloca %"class.altered_carbon::js::JsValueRef", align 8
  call void @_ZN14altered_carbon2js10JsValueRefC1Ev(%"class.altered_carbon::js::JsValueRef"* %ptr69)
  %ptr73 = alloca %"class.altered_carbon::js::JsValueRef", align 8
  call void @_ZN14altered_carbon2js10JsValueRefC1Ev(%"class.altered_carbon::js::JsValueRef"* %ptr73)
  %ptr74 = alloca %"class.altered_carbon::js::JsValueRef", align 8
  call void @_ZN14altered_carbon2js10JsValueRefC1Ev(%"class.altered_carbon::js::JsValueRef"* %ptr74)
  %ptr75 = alloca %"class.altered_carbon::js::JsValueRef", align 8
  call void @_ZN14altered_carbon2js10JsValueRefC1Ev(%"class.altered_carbon::js::JsValueRef"* %ptr75)
  %ptr79 = alloca %"class.altered_carbon::js::JsValueRef", align 8
  call void @_ZN14altered_carbon2js10JsValueRefC1Ev(%"class.altered_carbon::js::JsValueRef"* %ptr79)
  %ptr83 = alloca %"class.altered_carbon::js::JsValueRef", align 8
  call void @_ZN14altered_carbon2js10JsValueRefC1Ev(%"class.altered_carbon::js::JsValueRef"* %ptr83)
  %ptr84 = alloca %"class.altered_carbon::js::JsValueRef", align 8
  call void @_ZN14altered_carbon2js10JsValueRefC1Ev(%"class.altered_carbon::js::JsValueRef"* %ptr84)
  %ptr85 = alloca %"class.altered_carbon::js::JsValueRef", align 8
  call void @_ZN14altered_carbon2js10JsValueRefC1Ev(%"class.altered_carbon::js::JsValueRef"* %ptr85)
  %ptr89 = alloca %"class.altered_carbon::js::JsValueRef", align 8
  call void @_ZN14altered_carbon2js10JsValueRefC1Ev(%"class.altered_carbon::js::JsValueRef"* %ptr89)
  %ptr93 = alloca %"class.altered_carbon::js::JsValueRef", align 8
  call void @_ZN14altered_carbon2js10JsValueRefC1Ev(%"class.altered_carbon::js::JsValueRef"* %ptr93)
  %ptr94 = alloca %"class.altered_carbon::js::JsValueRef", align 8
  call void @_ZN14altered_carbon2js10JsValueRefC1Ev(%"class.altered_carbon::js::JsValueRef"* %ptr94)
  %ptr95 = alloca %"class.altered_carbon::js::JsValueRef", align 8
  call void @_ZN14altered_carbon2js10JsValueRefC1Ev(%"class.altered_carbon::js::JsValueRef"* %ptr95)
  %ptr99 = alloca %"class.altered_carbon::js::JsValueRef", align 8
  call void @_ZN14altered_carbon2js10JsValueRefC1Ev(%"class.altered_carbon::js::JsValueRef"* %ptr99)
  %ptr103 = alloca %"class.altered_carbon::js::JsValueRef", align 8
  call void @_ZN14altered_carbon2js10JsValueRefC1Ev(%"class.altered_carbon::js::JsValueRef"* %ptr103)
  %ptr104 = alloca %"class.altered_carbon::js::JsValueRef", align 8
  call void @_ZN14altered_carbon2js10JsValueRefC1Ev(%"class.altered_carbon::js::JsValueRef"* %ptr104)
  %ptr105 = alloca %"class.altered_carbon::js::JsValueRef", align 8
  call void @_ZN14altered_carbon2js10JsValueRefC1Ev(%"class.altered_carbon::js::JsValueRef"* %ptr105)
  %ptr109 = alloca %"class.altered_carbon::js::JsValueRef", align 8
  call void @_ZN14altered_carbon2js10JsValueRefC1Ev(%"class.altered_carbon::js::JsValueRef"* %ptr109)
  %ptr110 = alloca %"class.altered_carbon::js::JsValueRef", align 8
  call void @_ZN14altered_carbon2js10JsValueRefC1Ev(%"class.altered_carbon::js::JsValueRef"* %ptr110)
  %ptr114 = alloca %"class.altered_carbon::js::JsValueRef", align 8
  call void @_ZN14altered_carbon2js10JsValueRefC1Ev(%"class.altered_carbon::js::JsValueRef"* %ptr114)
  %ptr118 = alloca %"class.altered_carbon::js::JsValueRef", align 8
  call void @_ZN14altered_carbon2js10JsValueRefC1Ev(%"class.altered_carbon::js::JsValueRef"* %ptr118)
  %ptr119 = alloca %"class.altered_carbon::js::JsValueRef", align 8
  call void @_ZN14altered_carbon2js10JsValueRefC1Ev(%"class.altered_carbon::js::JsValueRef"* %ptr119)
  %ptr120 = alloca %"class.altered_carbon::js::JsValueRef", align 8
  call void @_ZN14altered_carbon2js10JsValueRefC1Ev(%"class.altered_carbon::js::JsValueRef"* %ptr120)
  %ptr124 = alloca %"class.altered_carbon::js::JsValueRef", align 8
  call void @_ZN14altered_carbon2js10JsValueRefC1Ev(%"class.altered_carbon::js::JsValueRef"* %ptr124)
  %ptr128 = alloca %"class.altered_carbon::js::JsValueRef", align 8
  call void @_ZN14altered_carbon2js10JsValueRefC1Ev(%"class.altered_carbon::js::JsValueRef"* %ptr128)
  %ptr129 = alloca %"class.altered_carbon::js::JsValueRef", align 8
  call void @_ZN14altered_carbon2js10JsValueRefC1Ev(%"class.altered_carbon::js::JsValueRef"* %ptr129)
  %ptr130 = alloca %"class.altered_carbon::js::JsValueRef", align 8
  call void @_ZN14altered_carbon2js10JsValueRefC1Ev(%"class.altered_carbon::js::JsValueRef"* %ptr130)
  %ptr134 = alloca %"class.altered_carbon::js::JsValueRef", align 8
  call void @_ZN14altered_carbon2js10JsValueRefC1Ev(%"class.altered_carbon::js::JsValueRef"* %ptr134)
  %ptr138 = alloca %"class.altered_carbon::js::JsValueRef", align 8
  call void @_ZN14altered_carbon2js10JsValueRefC1Ev(%"class.altered_carbon::js::JsValueRef"* %ptr138)
  %ptr139 = alloca %"class.altered_carbon::js::JsValueRef", align 8
  call void @_ZN14altered_carbon2js10JsValueRefC1Ev(%"class.altered_carbon::js::JsValueRef"* %ptr139)
  %ptr140 = alloca %"class.altered_carbon::js::JsValueRef", align 8
  call void @_ZN14altered_carbon2js10JsValueRefC1Ev(%"class.altered_carbon::js::JsValueRef"* %ptr140)
  %ptr144 = alloca %"class.altered_carbon::js::JsValueRef", align 8
  call void @_ZN14altered_carbon2js10JsValueRefC1Ev(%"class.altered_carbon::js::JsValueRef"* %ptr144)
  %ptr148 = alloca %"class.altered_carbon::js::JsValueRef", align 8
  call void @_ZN14altered_carbon2js10JsValueRefC1Ev(%"class.altered_carbon::js::JsValueRef"* %ptr148)
  %ptr149 = alloca %"class.altered_carbon::js::JsValueRef", align 8
  call void @_ZN14altered_carbon2js10JsValueRefC1Ev(%"class.altered_carbon::js::JsValueRef"* %ptr149)
  %ptr150 = alloca %"class.altered_carbon::js::JsValueRef", align 8
  call void @_ZN14altered_carbon2js10JsValueRefC1Ev(%"class.altered_carbon::js::JsValueRef"* %ptr150)
  %ptr154 = alloca %"class.altered_carbon::js::JsValueRef", align 8
  call void @_ZN14altered_carbon2js10JsValueRefC1Ev(%"class.altered_carbon::js::JsValueRef"* %ptr154)
  %ptr158 = alloca %"class.altered_carbon::js::JsValueRef", align 8
  call void @_ZN14altered_carbon2js10JsValueRefC1Ev(%"class.altered_carbon::js::JsValueRef"* %ptr158)
  %ptr159 = alloca %"class.altered_carbon::js::JsValueRef", align 8
  call void @_ZN14altered_carbon2js10JsValueRefC1Ev(%"class.altered_carbon::js::JsValueRef"* %ptr159)
  %ptr160 = alloca %"class.altered_carbon::js::JsValueRef", align 8
  call void @_ZN14altered_carbon2js10JsValueRefC1Ev(%"class.altered_carbon::js::JsValueRef"* %ptr160)
  %ptr164 = alloca %"class.altered_carbon::js::JsValueRef", align 8
  call void @_ZN14altered_carbon2js10JsValueRefC1Ev(%"class.altered_carbon::js::JsValueRef"* %ptr164)
  %ptr165 = alloca %"class.altered_carbon::js::JsValueRef", align 8
  call void @_ZN14altered_carbon2js10JsValueRefC1Ev(%"class.altered_carbon::js::JsValueRef"* %ptr165)
  %ptr169 = alloca %"class.altered_carbon::js::JsValueRef", align 8
  call void @_ZN14altered_carbon2js10JsValueRefC1Ev(%"class.altered_carbon::js::JsValueRef"* %ptr169)
  %ptr173 = alloca %"class.altered_carbon::js::JsValueRef", align 8
  call void @_ZN14altered_carbon2js10JsValueRefC1Ev(%"class.altered_carbon::js::JsValueRef"* %ptr173)
  %ptr174 = alloca %"class.altered_carbon::js::JsValueRef", align 8
  call void @_ZN14altered_carbon2js10JsValueRefC1Ev(%"class.altered_carbon::js::JsValueRef"* %ptr174)
  %ptr175 = alloca %"class.altered_carbon::js::JsValueRef", align 8
  call void @_ZN14altered_carbon2js10JsValueRefC1Ev(%"class.altered_carbon::js::JsValueRef"* %ptr175)
  %ptr179 = alloca %"class.altered_carbon::js::JsValueRef", align 8
  call void @_ZN14altered_carbon2js10JsValueRefC1Ev(%"class.altered_carbon::js::JsValueRef"* %ptr179)
  %ptr183 = alloca %"class.altered_carbon::js::JsValueRef", align 8
  call void @_ZN14altered_carbon2js10JsValueRefC1Ev(%"class.altered_carbon::js::JsValueRef"* %ptr183)
  %ptr184 = alloca %"class.altered_carbon::js::JsValueRef", align 8
  call void @_ZN14altered_carbon2js10JsValueRefC1Ev(%"class.altered_carbon::js::JsValueRef"* %ptr184)
  %ptr185 = alloca %"class.altered_carbon::js::JsValueRef", align 8
  call void @_ZN14altered_carbon2js10JsValueRefC1Ev(%"class.altered_carbon::js::JsValueRef"* %ptr185)
  %ptr189 = alloca %"class.altered_carbon::js::JsValueRef", align 8
  call void @_ZN14altered_carbon2js10JsValueRefC1Ev(%"class.altered_carbon::js::JsValueRef"* %ptr189)
  %ptr193 = alloca %"class.altered_carbon::js::JsValueRef", align 8
  call void @_ZN14altered_carbon2js10JsValueRefC1Ev(%"class.altered_carbon::js::JsValueRef"* %ptr193)
  %ptr194 = alloca %"class.altered_carbon::js::JsValueRef", align 8
  call void @_ZN14altered_carbon2js10JsValueRefC1Ev(%"class.altered_carbon::js::JsValueRef"* %ptr194)
  %ptr195 = alloca %"class.altered_carbon::js::JsValueRef", align 8
  call void @_ZN14altered_carbon2js10JsValueRefC1Ev(%"class.altered_carbon::js::JsValueRef"* %ptr195)
  %ptr199 = alloca %"class.altered_carbon::js::JsValueRef", align 8
  call void @_ZN14altered_carbon2js10JsValueRefC1Ev(%"class.altered_carbon::js::JsValueRef"* %ptr199)
  %ptr203 = alloca %"class.altered_carbon::js::JsValueRef", align 8
  call void @_ZN14altered_carbon2js10JsValueRefC1Ev(%"class.altered_carbon::js::JsValueRef"* %ptr203)
  %ptr204 = alloca %"class.altered_carbon::js::JsValueRef", align 8
  call void @_ZN14altered_carbon2js10JsValueRefC1Ev(%"class.altered_carbon::js::JsValueRef"* %ptr204)
  %ptr205 = alloca %"class.altered_carbon::js::JsValueRef", align 8
  call void @_ZN14altered_carbon2js10JsValueRefC1Ev(%"class.altered_carbon::js::JsValueRef"* %ptr205)
  %ptr209 = alloca %"class.altered_carbon::js::JsValueRef", align 8
  call void @_ZN14altered_carbon2js10JsValueRefC1Ev(%"class.altered_carbon::js::JsValueRef"* %ptr209)
  %ptr213 = alloca %"class.altered_carbon::js::JsValueRef", align 8
  call void @_ZN14altered_carbon2js10JsValueRefC1Ev(%"class.altered_carbon::js::JsValueRef"* %ptr213)
  %ptr214 = alloca %"class.altered_carbon::js::JsValueRef", align 8
  call void @_ZN14altered_carbon2js10JsValueRefC1Ev(%"class.altered_carbon::js::JsValueRef"* %ptr214)
  %ptr215 = alloca %"class.altered_carbon::js::JsValueRef", align 8
  call void @_ZN14altered_carbon2js10JsValueRefC1Ev(%"class.altered_carbon::js::JsValueRef"* %ptr215)
  %ptr219 = alloca %"class.altered_carbon::js::JsValueRef", align 8
  call void @_ZN14altered_carbon2js10JsValueRefC1Ev(%"class.altered_carbon::js::JsValueRef"* %ptr219)
  %ptr220 = alloca %"class.altered_carbon::js::JsValueRef", align 8
  call void @_ZN14altered_carbon2js10JsValueRefC1Ev(%"class.altered_carbon::js::JsValueRef"* %ptr220)
  %ptr224 = alloca %"class.altered_carbon::js::JsValueRef", align 8
  call void @_ZN14altered_carbon2js10JsValueRefC1Ev(%"class.altered_carbon::js::JsValueRef"* %ptr224)
  %ptr228 = alloca %"class.altered_carbon::js::JsValueRef", align 8
  call void @_ZN14altered_carbon2js10JsValueRefC1Ev(%"class.altered_carbon::js::JsValueRef"* %ptr228)
  %ptr229 = alloca %"class.altered_carbon::js::JsValueRef", align 8
  call void @_ZN14altered_carbon2js10JsValueRefC1Ev(%"class.altered_carbon::js::JsValueRef"* %ptr229)
  %ptr230 = alloca %"class.altered_carbon::js::JsValueRef", align 8
  call void @_ZN14altered_carbon2js10JsValueRefC1Ev(%"class.altered_carbon::js::JsValueRef"* %ptr230)
  %ptr234 = alloca %"class.altered_carbon::js::JsValueRef", align 8
  call void @_ZN14altered_carbon2js10JsValueRefC1Ev(%"class.altered_carbon::js::JsValueRef"* %ptr234)
  %ptr238 = alloca %"class.altered_carbon::js::JsValueRef", align 8
  call void @_ZN14altered_carbon2js10JsValueRefC1Ev(%"class.altered_carbon::js::JsValueRef"* %ptr238)
  %ptr239 = alloca %"class.altered_carbon::js::JsValueRef", align 8
  call void @_ZN14altered_carbon2js10JsValueRefC1Ev(%"class.altered_carbon::js::JsValueRef"* %ptr239)
  %ptr240 = alloca %"class.altered_carbon::js::JsValueRef", align 8
  call void @_ZN14altered_carbon2js10JsValueRefC1Ev(%"class.altered_carbon::js::JsValueRef"* %ptr240)
  %ptr244 = alloca %"class.altered_carbon::js::JsValueRef", align 8
  call void @_ZN14altered_carbon2js10JsValueRefC1Ev(%"class.altered_carbon::js::JsValueRef"* %ptr244)
  %ptr248 = alloca %"class.altered_carbon::js::JsValueRef", align 8
  call void @_ZN14altered_carbon2js10JsValueRefC1Ev(%"class.altered_carbon::js::JsValueRef"* %ptr248)
  %ptr249 = alloca %"class.altered_carbon::js::JsValueRef", align 8
  call void @_ZN14altered_carbon2js10JsValueRefC1Ev(%"class.altered_carbon::js::JsValueRef"* %ptr249)
  %ptr250 = alloca %"class.altered_carbon::js::JsValueRef", align 8
  call void @_ZN14altered_carbon2js10JsValueRefC1Ev(%"class.altered_carbon::js::JsValueRef"* %ptr250)
  %ptr254 = alloca %"class.altered_carbon::js::JsValueRef", align 8
  call void @_ZN14altered_carbon2js10JsValueRefC1Ev(%"class.altered_carbon::js::JsValueRef"* %ptr254)
  %ptr258 = alloca %"class.altered_carbon::js::JsValueRef", align 8
  call void @_ZN14altered_carbon2js10JsValueRefC1Ev(%"class.altered_carbon::js::JsValueRef"* %ptr258)
  %ptr259 = alloca %"class.altered_carbon::js::JsValueRef", align 8
  call void @_ZN14altered_carbon2js10JsValueRefC1Ev(%"class.altered_carbon::js::JsValueRef"* %ptr259)
  %ptr260 = alloca %"class.altered_carbon::js::JsValueRef", align 8
  call void @_ZN14altered_carbon2js10JsValueRefC1Ev(%"class.altered_carbon::js::JsValueRef"* %ptr260)
  %ptr264 = alloca %"class.altered_carbon::js::JsValueRef", align 8
  call void @_ZN14altered_carbon2js10JsValueRefC1Ev(%"class.altered_carbon::js::JsValueRef"* %ptr264)
  %ptr268 = alloca %"class.altered_carbon::js::JsValueRef", align 8
  call void @_ZN14altered_carbon2js10JsValueRefC1Ev(%"class.altered_carbon::js::JsValueRef"* %ptr268)
  %ptr269 = alloca %"class.altered_carbon::js::JsValueRef", align 8
  call void @_ZN14altered_carbon2js10JsValueRefC1Ev(%"class.altered_carbon::js::JsValueRef"* %ptr269)
  %ptr270 = alloca %"class.altered_carbon::js::JsValueRef", align 8
  call void @_ZN14altered_carbon2js10JsValueRefC1Ev(%"class.altered_carbon::js::JsValueRef"* %ptr270)
  %ptr274 = alloca %"class.altered_carbon::js::JsValueRef", align 8
  call void @_ZN14altered_carbon2js10JsValueRefC1Ev(%"class.altered_carbon::js::JsValueRef"* %ptr274)
  %ptr275 = alloca %"class.altered_carbon::js::JsValueRef", align 8
  call void @_ZN14altered_carbon2js10JsValueRefC1Ev(%"class.altered_carbon::js::JsValueRef"* %ptr275)
  %ptr279 = alloca %"class.altered_carbon::js::JsValueRef", align 8
  call void @_ZN14altered_carbon2js10JsValueRefC1Ev(%"class.altered_carbon::js::JsValueRef"* %ptr279)
  %ptr283 = alloca %"class.altered_carbon::js::JsValueRef", align 8
  call void @_ZN14altered_carbon2js10JsValueRefC1Ev(%"class.altered_carbon::js::JsValueRef"* %ptr283)
  %ptr284 = alloca %"class.altered_carbon::js::JsValueRef", align 8
  call void @_ZN14altered_carbon2js10JsValueRefC1Ev(%"class.altered_carbon::js::JsValueRef"* %ptr284)
  %ptr285 = alloca %"class.altered_carbon::js::JsValueRef", align 8
  call void @_ZN14altered_carbon2js10JsValueRefC1Ev(%"class.altered_carbon::js::JsValueRef"* %ptr285)
  %ptr289 = alloca %"class.altered_carbon::js::JsValueRef", align 8
  call void @_ZN14altered_carbon2js10JsValueRefC1Ev(%"class.altered_carbon::js::JsValueRef"* %ptr289)
  %ptr293 = alloca %"class.altered_carbon::js::JsValueRef", align 8
  call void @_ZN14altered_carbon2js10JsValueRefC1Ev(%"class.altered_carbon::js::JsValueRef"* %ptr293)
  %ptr294 = alloca %"class.altered_carbon::js::JsValueRef", align 8
  call void @_ZN14altered_carbon2js10JsValueRefC1Ev(%"class.altered_carbon::js::JsValueRef"* %ptr294)
  %ptr295 = alloca %"class.altered_carbon::js::JsValueRef", align 8
  call void @_ZN14altered_carbon2js10JsValueRefC1Ev(%"class.altered_carbon::js::JsValueRef"* %ptr295)
  %ptr299 = alloca %"class.altered_carbon::js::JsValueRef", align 8
  call void @_ZN14altered_carbon2js10JsValueRefC1Ev(%"class.altered_carbon::js::JsValueRef"* %ptr299)
  %ptr303 = alloca %"class.altered_carbon::js::JsValueRef", align 8
  call void @_ZN14altered_carbon2js10JsValueRefC1Ev(%"class.altered_carbon::js::JsValueRef"* %ptr303)
  %ptr304 = alloca %"class.altered_carbon::js::JsValueRef", align 8
  call void @_ZN14altered_carbon2js10JsValueRefC1Ev(%"class.altered_carbon::js::JsValueRef"* %ptr304)
  %ptr305 = alloca %"class.altered_carbon::js::JsValueRef", align 8
  call void @_ZN14altered_carbon2js10JsValueRefC1Ev(%"class.altered_carbon::js::JsValueRef"* %ptr305)
  %ptr309 = alloca %"class.altered_carbon::js::JsValueRef", align 8
  call void @_ZN14altered_carbon2js10JsValueRefC1Ev(%"class.altered_carbon::js::JsValueRef"* %ptr309)
  %ptr313 = alloca %"class.altered_carbon::js::JsValueRef", align 8
  call void @_ZN14altered_carbon2js10JsValueRefC1Ev(%"class.altered_carbon::js::JsValueRef"* %ptr313)
  %ptr314 = alloca %"class.altered_carbon::js::JsValueRef", align 8
  call void @_ZN14altered_carbon2js10JsValueRefC1Ev(%"class.altered_carbon::js::JsValueRef"* %ptr314)
  %ptr315 = alloca %"class.altered_carbon::js::JsValueRef", align 8
  call void @_ZN14altered_carbon2js10JsValueRefC1Ev(%"class.altered_carbon::js::JsValueRef"* %ptr315)
  %ptr319 = alloca %"class.altered_carbon::js::JsValueRef", align 8
  call void @_ZN14altered_carbon2js10JsValueRefC1Ev(%"class.altered_carbon::js::JsValueRef"* %ptr319)
  %ptr323 = alloca %"class.altered_carbon::js::JsValueRef", align 8
  call void @_ZN14altered_carbon2js10JsValueRefC1Ev(%"class.altered_carbon::js::JsValueRef"* %ptr323)
  %ptr324 = alloca %"class.altered_carbon::js::JsValueRef", align 8
  call void @_ZN14altered_carbon2js10JsValueRefC1Ev(%"class.altered_carbon::js::JsValueRef"* %ptr324)
  %ptr325 = alloca %"class.altered_carbon::js::JsValueRef", align 8
  call void @_ZN14altered_carbon2js10JsValueRefC1Ev(%"class.altered_carbon::js::JsValueRef"* %ptr325)
  %ptr329 = alloca %"class.altered_carbon::js::JsValueRef", align 8
  call void @_ZN14altered_carbon2js10JsValueRefC1Ev(%"class.altered_carbon::js::JsValueRef"* %ptr329)
  %ptr330 = alloca %"class.altered_carbon::js::JsValueRef", align 8
  call void @_ZN14altered_carbon2js10JsValueRefC1Ev(%"class.altered_carbon::js::JsValueRef"* %ptr330)
  %ptr334 = alloca %"class.altered_carbon::js::JsValueRef", align 8
  call void @_ZN14altered_carbon2js10JsValueRefC1Ev(%"class.altered_carbon::js::JsValueRef"* %ptr334)
  %ptr338 = alloca %"class.altered_carbon::js::JsValueRef", align 8
  call void @_ZN14altered_carbon2js10JsValueRefC1Ev(%"class.altered_carbon::js::JsValueRef"* %ptr338)
  %ptr339 = alloca %"class.altered_carbon::js::JsValueRef", align 8
  call void @_ZN14altered_carbon2js10JsValueRefC1Ev(%"class.altered_carbon::js::JsValueRef"* %ptr339)
  %ptr340 = alloca %"class.altered_carbon::js::JsValueRef", align 8
  call void @_ZN14altered_carbon2js10JsValueRefC1Ev(%"class.altered_carbon::js::JsValueRef"* %ptr340)
  %ptr344 = alloca %"class.altered_carbon::js::JsValueRef", align 8
  call void @_ZN14altered_carbon2js10JsValueRefC1Ev(%"class.altered_carbon::js::JsValueRef"* %ptr344)
  %ptr348 = alloca %"class.altered_carbon::js::JsValueRef", align 8
  call void @_ZN14altered_carbon2js10JsValueRefC1Ev(%"class.altered_carbon::js::JsValueRef"* %ptr348)
  %ptr349 = alloca %"class.altered_carbon::js::JsValueRef", align 8
  call void @_ZN14altered_carbon2js10JsValueRefC1Ev(%"class.altered_carbon::js::JsValueRef"* %ptr349)
  %ptr350 = alloca %"class.altered_carbon::js::JsValueRef", align 8
  call void @_ZN14altered_carbon2js10JsValueRefC1Ev(%"class.altered_carbon::js::JsValueRef"* %ptr350)
  %ptr354 = alloca %"class.altered_carbon::js::JsValueRef", align 8
  call void @_ZN14altered_carbon2js10JsValueRefC1Ev(%"class.altered_carbon::js::JsValueRef"* %ptr354)
  %ptr358 = alloca %"class.altered_carbon::js::JsValueRef", align 8
  call void @_ZN14altered_carbon2js10JsValueRefC1Ev(%"class.altered_carbon::js::JsValueRef"* %ptr358)
  %ptr359 = alloca %"class.altered_carbon::js::JsValueRef", align 8
  call void @_ZN14altered_carbon2js10JsValueRefC1Ev(%"class.altered_carbon::js::JsValueRef"* %ptr359)
  %ptr360 = alloca %"class.altered_carbon::js::JsValueRef", align 8
  call void @_ZN14altered_carbon2js10JsValueRefC1Ev(%"class.altered_carbon::js::JsValueRef"* %ptr360)
  %ptr364 = alloca %"class.altered_carbon::js::JsValueRef", align 8
  call void @_ZN14altered_carbon2js10JsValueRefC1Ev(%"class.altered_carbon::js::JsValueRef"* %ptr364)
  %ptr368 = alloca %"class.altered_carbon::js::JsValueRef", align 8
  call void @_ZN14altered_carbon2js10JsValueRefC1Ev(%"class.altered_carbon::js::JsValueRef"* %ptr368)
  %ptr369 = alloca %"class.altered_carbon::js::JsValueRef", align 8
  call void @_ZN14altered_carbon2js10JsValueRefC1Ev(%"class.altered_carbon::js::JsValueRef"* %ptr369)
  %ptr370 = alloca %"class.altered_carbon::js::JsValueRef", align 8
  call void @_ZN14altered_carbon2js10JsValueRefC1Ev(%"class.altered_carbon::js::JsValueRef"* %ptr370)
  %ptr374 = alloca %"class.altered_carbon::js::JsValueRef", align 8
  call void @_ZN14altered_carbon2js10JsValueRefC1Ev(%"class.altered_carbon::js::JsValueRef"* %ptr374)
  %ptr378 = alloca %"class.altered_carbon::js::JsValueRef", align 8
  call void @_ZN14altered_carbon2js10JsValueRefC1Ev(%"class.altered_carbon::js::JsValueRef"* %ptr378)
  %ptr379 = alloca %"class.altered_carbon::js::JsValueRef", align 8
  call void @_ZN14altered_carbon2js10JsValueRefC1Ev(%"class.altered_carbon::js::JsValueRef"* %ptr379)
  %ptr380 = alloca %"class.altered_carbon::js::JsValueRef", align 8
  call void @_ZN14altered_carbon2js10JsValueRefC1Ev(%"class.altered_carbon::js::JsValueRef"* %ptr380)
  %ptr384 = alloca %"class.altered_carbon::js::JsValueRef", align 8
  call void @_ZN14altered_carbon2js10JsValueRefC1Ev(%"class.altered_carbon::js::JsValueRef"* %ptr384)
  %ptr385 = alloca %"class.altered_carbon::js::JsValueRef", align 8
  call void @_ZN14altered_carbon2js10JsValueRefC1Ev(%"class.altered_carbon::js::JsValueRef"* %ptr385)
  %ptr389 = alloca %"class.altered_carbon::js::JsValueRef", align 8
  call void @_ZN14altered_carbon2js10JsValueRefC1Ev(%"class.altered_carbon::js::JsValueRef"* %ptr389)
  %ptr393 = alloca %"class.altered_carbon::js::JsValueRef", align 8
  call void @_ZN14altered_carbon2js10JsValueRefC1Ev(%"class.altered_carbon::js::JsValueRef"* %ptr393)
  %ptr394 = alloca %"class.altered_carbon::js::JsValueRef", align 8
  call void @_ZN14altered_carbon2js10JsValueRefC1Ev(%"class.altered_carbon::js::JsValueRef"* %ptr394)
  %ptr395 = alloca %"class.altered_carbon::js::JsValueRef", align 8
  call void @_ZN14altered_carbon2js10JsValueRefC1Ev(%"class.altered_carbon::js::JsValueRef"* %ptr395)
  %ptr399 = alloca %"class.altered_carbon::js::JsValueRef", align 8
  call void @_ZN14altered_carbon2js10JsValueRefC1Ev(%"class.altered_carbon::js::JsValueRef"* %ptr399)
  %ptr403 = alloca %"class.altered_carbon::js::JsValueRef", align 8
  call void @_ZN14altered_carbon2js10JsValueRefC1Ev(%"class.altered_carbon::js::JsValueRef"* %ptr403)
  %ptr404 = alloca %"class.altered_carbon::js::JsValueRef", align 8
  call void @_ZN14altered_carbon2js10JsValueRefC1Ev(%"class.altered_carbon::js::JsValueRef"* %ptr404)
  %ptr405 = alloca %"class.altered_carbon::js::JsValueRef", align 8
  call void @_ZN14altered_carbon2js10JsValueRefC1Ev(%"class.altered_carbon::js::JsValueRef"* %ptr405)
  %ptr409 = alloca %"class.altered_carbon::js::JsValueRef", align 8
  call void @_ZN14altered_carbon2js10JsValueRefC1Ev(%"class.altered_carbon::js::JsValueRef"* %ptr409)
  %ptr413 = alloca %"class.altered_carbon::js::JsValueRef", align 8
  call void @_ZN14altered_carbon2js10JsValueRefC1Ev(%"class.altered_carbon::js::JsValueRef"* %ptr413)
  %ptr414 = alloca %"class.altered_carbon::js::JsValueRef", align 8
  call void @_ZN14altered_carbon2js10JsValueRefC1Ev(%"class.altered_carbon::js::JsValueRef"* %ptr414)
  %ptr415 = alloca %"class.altered_carbon::js::JsValueRef", align 8
  call void @_ZN14altered_carbon2js10JsValueRefC1Ev(%"class.altered_carbon::js::JsValueRef"* %ptr415)
  %ptr419 = alloca %"class.altered_carbon::js::JsValueRef", align 8
  call void @_ZN14altered_carbon2js10JsValueRefC1Ev(%"class.altered_carbon::js::JsValueRef"* %ptr419)
  %ptr423 = alloca %"class.altered_carbon::js::JsValueRef", align 8
  call void @_ZN14altered_carbon2js10JsValueRefC1Ev(%"class.altered_carbon::js::JsValueRef"* %ptr423)
  %ptr424 = alloca %"class.altered_carbon::js::JsValueRef", align 8
  call void @_ZN14altered_carbon2js10JsValueRefC1Ev(%"class.altered_carbon::js::JsValueRef"* %ptr424)
  %ptr425 = alloca %"class.altered_carbon::js::JsValueRef", align 8
  call void @_ZN14altered_carbon2js10JsValueRefC1Ev(%"class.altered_carbon::js::JsValueRef"* %ptr425)
  %ptr429 = alloca %"class.altered_carbon::js::JsValueRef", align 8
  call void @_ZN14altered_carbon2js10JsValueRefC1Ev(%"class.altered_carbon::js::JsValueRef"* %ptr429)
  %ptr433 = alloca %"class.altered_carbon::js::JsValueRef", align 8
  call void @_ZN14altered_carbon2js10JsValueRefC1Ev(%"class.altered_carbon::js::JsValueRef"* %ptr433)
  %ptr434 = alloca %"class.altered_carbon::js::JsValueRef", align 8
  call void @_ZN14altered_carbon2js10JsValueRefC1Ev(%"class.altered_carbon::js::JsValueRef"* %ptr434)
  %ptr435 = alloca %"class.altered_carbon::js::JsValueRef", align 8
  call void @_ZN14altered_carbon2js10JsValueRefC1Ev(%"class.altered_carbon::js::JsValueRef"* %ptr435)
  %ptr439 = alloca %"class.altered_carbon::js::JsValueRef", align 8
  call void @_ZN14altered_carbon2js10JsValueRefC1Ev(%"class.altered_carbon::js::JsValueRef"* %ptr439)
  %ptr440 = alloca %"class.altered_carbon::js::JsValueRef", align 8
  call void @_ZN14altered_carbon2js10JsValueRefC1Ev(%"class.altered_carbon::js::JsValueRef"* %ptr440)
  %ptr444 = alloca %"class.altered_carbon::js::JsValueRef", align 8
  call void @_ZN14altered_carbon2js10JsValueRefC1Ev(%"class.altered_carbon::js::JsValueRef"* %ptr444)
  %ptr448 = alloca %"class.altered_carbon::js::JsValueRef", align 8
  call void @_ZN14altered_carbon2js10JsValueRefC1Ev(%"class.altered_carbon::js::JsValueRef"* %ptr448)
  %ptr449 = alloca %"class.altered_carbon::js::JsValueRef", align 8
  call void @_ZN14altered_carbon2js10JsValueRefC1Ev(%"class.altered_carbon::js::JsValueRef"* %ptr449)
  %ptr450 = alloca %"class.altered_carbon::js::JsValueRef", align 8
  call void @_ZN14altered_carbon2js10JsValueRefC1Ev(%"class.altered_carbon::js::JsValueRef"* %ptr450)
  %ptr454 = alloca %"class.altered_carbon::js::JsValueRef", align 8
  call void @_ZN14altered_carbon2js10JsValueRefC1Ev(%"class.altered_carbon::js::JsValueRef"* %ptr454)
  %ptr458 = alloca %"class.altered_carbon::js::JsValueRef", align 8
  call void @_ZN14altered_carbon2js10JsValueRefC1Ev(%"class.altered_carbon::js::JsValueRef"* %ptr458)
  %ptr459 = alloca %"class.altered_carbon::js::JsValueRef", align 8
  call void @_ZN14altered_carbon2js10JsValueRefC1Ev(%"class.altered_carbon::js::JsValueRef"* %ptr459)
  %ptr460 = alloca %"class.altered_carbon::js::JsValueRef", align 8
  call void @_ZN14altered_carbon2js10JsValueRefC1Ev(%"class.altered_carbon::js::JsValueRef"* %ptr460)
  %ptr464 = alloca %"class.altered_carbon::js::JsValueRef", align 8
  call void @_ZN14altered_carbon2js10JsValueRefC1Ev(%"class.altered_carbon::js::JsValueRef"* %ptr464)
  %ptr468 = alloca %"class.altered_carbon::js::JsValueRef", align 8
  call void @_ZN14altered_carbon2js10JsValueRefC1Ev(%"class.altered_carbon::js::JsValueRef"* %ptr468)
  %ptr469 = alloca %"class.altered_carbon::js::JsValueRef", align 8
  call void @_ZN14altered_carbon2js10JsValueRefC1Ev(%"class.altered_carbon::js::JsValueRef"* %ptr469)
  %ptr470 = alloca %"class.altered_carbon::js::JsValueRef", align 8
  call void @_ZN14altered_carbon2js10JsValueRefC1Ev(%"class.altered_carbon::js::JsValueRef"* %ptr470)
  %ptr474 = alloca %"class.altered_carbon::js::JsValueRef", align 8
  call void @_ZN14altered_carbon2js10JsValueRefC1Ev(%"class.altered_carbon::js::JsValueRef"* %ptr474)
  %ptr478 = alloca %"class.altered_carbon::js::JsValueRef", align 8
  call void @_ZN14altered_carbon2js10JsValueRefC1Ev(%"class.altered_carbon::js::JsValueRef"* %ptr478)
  %ptr479 = alloca %"class.altered_carbon::js::JsValueRef", align 8
  call void @_ZN14altered_carbon2js10JsValueRefC1Ev(%"class.altered_carbon::js::JsValueRef"* %ptr479)
  %ptr480 = alloca %"class.altered_carbon::js::JsValueRef", align 8
  call void @_ZN14altered_carbon2js10JsValueRefC1Ev(%"class.altered_carbon::js::JsValueRef"* %ptr480)
  %ptr484 = alloca %"class.altered_carbon::js::JsValueRef", align 8
  call void @_ZN14altered_carbon2js10JsValueRefC1Ev(%"class.altered_carbon::js::JsValueRef"* %ptr484)
  %ptr488 = alloca %"class.altered_carbon::js::JsValueRef", align 8
  call void @_ZN14altered_carbon2js10JsValueRefC1Ev(%"class.altered_carbon::js::JsValueRef"* %ptr488)
  %ptr489 = alloca %"class.altered_carbon::js::JsValueRef", align 8
  call void @_ZN14altered_carbon2js10JsValueRefC1Ev(%"class.altered_carbon::js::JsValueRef"* %ptr489)
  %ptr490 = alloca %"class.altered_carbon::js::JsValueRef", align 8
  call void @_ZN14altered_carbon2js10JsValueRefC1Ev(%"class.altered_carbon::js::JsValueRef"* %ptr490)
  %ptr494 = alloca %"class.altered_carbon::js::JsValueRef", align 8
  call void @_ZN14altered_carbon2js10JsValueRefC1Ev(%"class.altered_carbon::js::JsValueRef"* %ptr494)
  %ptr495 = alloca %"class.altered_carbon::js::JsValueRef", align 8
  call void @_ZN14altered_carbon2js10JsValueRefC1Ev(%"class.altered_carbon::js::JsValueRef"* %ptr495)
  %ptr499 = alloca %"class.altered_carbon::js::JsValueRef", align 8
  call void @_ZN14altered_carbon2js10JsValueRefC1Ev(%"class.altered_carbon::js::JsValueRef"* %ptr499)
  %ptr503 = alloca %"class.altered_carbon::js::JsValueRef", align 8
  call void @_ZN14altered_carbon2js10JsValueRefC1Ev(%"class.altered_carbon::js::JsValueRef"* %ptr503)
  %ptr504 = alloca %"class.altered_carbon::js::JsValueRef", align 8
  call void @_ZN14altered_carbon2js10JsValueRefC1Ev(%"class.altered_carbon::js::JsValueRef"* %ptr504)
  %ptr505 = alloca %"class.altered_carbon::js::JsValueRef", align 8
  call void @_ZN14altered_carbon2js10JsValueRefC1Ev(%"class.altered_carbon::js::JsValueRef"* %ptr505)
  %ptr509 = alloca %"class.altered_carbon::js::JsValueRef", align 8
  call void @_ZN14altered_carbon2js10JsValueRefC1Ev(%"class.altered_carbon::js::JsValueRef"* %ptr509)
  %ptr513 = alloca %"class.altered_carbon::js::JsValueRef", align 8
  call void @_ZN14altered_carbon2js10JsValueRefC1Ev(%"class.altered_carbon::js::JsValueRef"* %ptr513)
  %ptr514 = alloca %"class.altered_carbon::js::JsValueRef", align 8
  call void @_ZN14altered_carbon2js10JsValueRefC1Ev(%"class.altered_carbon::js::JsValueRef"* %ptr514)
  %ptr515 = alloca %"class.altered_carbon::js::JsValueRef", align 8
  call void @_ZN14altered_carbon2js10JsValueRefC1Ev(%"class.altered_carbon::js::JsValueRef"* %ptr515)
  %ptr519 = alloca %"class.altered_carbon::js::JsValueRef", align 8
  call void @_ZN14altered_carbon2js10JsValueRefC1Ev(%"class.altered_carbon::js::JsValueRef"* %ptr519)
  %ptr523 = alloca %"class.altered_carbon::js::JsValueRef", align 8
  call void @_ZN14altered_carbon2js10JsValueRefC1Ev(%"class.altered_carbon::js::JsValueRef"* %ptr523)
  %ptr524 = alloca %"class.altered_carbon::js::JsValueRef", align 8
  call void @_ZN14altered_carbon2js10JsValueRefC1Ev(%"class.altered_carbon::js::JsValueRef"* %ptr524)
  %ptr525 = alloca %"class.altered_carbon::js::JsValueRef", align 8
  call void @_ZN14altered_carbon2js10JsValueRefC1Ev(%"class.altered_carbon::js::JsValueRef"* %ptr525)
  %ptr529 = alloca %"class.altered_carbon::js::JsValueRef", align 8
  call void @_ZN14altered_carbon2js10JsValueRefC1Ev(%"class.altered_carbon::js::JsValueRef"* %ptr529)
  %ptr533 = alloca %"class.altered_carbon::js::JsValueRef", align 8
  call void @_ZN14altered_carbon2js10JsValueRefC1Ev(%"class.altered_carbon::js::JsValueRef"* %ptr533)
  %ptr534 = alloca %"class.altered_carbon::js::JsValueRef", align 8
  call void @_ZN14altered_carbon2js10JsValueRefC1Ev(%"class.altered_carbon::js::JsValueRef"* %ptr534)
  %ptr535 = alloca %"class.altered_carbon::js::JsValueRef", align 8
  call void @_ZN14altered_carbon2js10JsValueRefC1Ev(%"class.altered_carbon::js::JsValueRef"* %ptr535)
  %ptr539 = alloca %"class.altered_carbon::js::JsValueRef", align 8
  call void @_ZN14altered_carbon2js10JsValueRefC1Ev(%"class.altered_carbon::js::JsValueRef"* %ptr539)
  %ptr543 = alloca %"class.altered_carbon::js::JsValueRef", align 8
  call void @_ZN14altered_carbon2js10JsValueRefC1Ev(%"class.altered_carbon::js::JsValueRef"* %ptr543)
  %ptr544 = alloca %"class.altered_carbon::js::JsValueRef", align 8
  call void @_ZN14altered_carbon2js10JsValueRefC1Ev(%"class.altered_carbon::js::JsValueRef"* %ptr544)
  %ptr545 = alloca %"class.altered_carbon::js::JsValueRef", align 8
  call void @_ZN14altered_carbon2js10JsValueRefC1Ev(%"class.altered_carbon::js::JsValueRef"* %ptr545)
  %ptr549 = alloca %"class.altered_carbon::js::JsValueRef", align 8
  call void @_ZN14altered_carbon2js10JsValueRefC1Ev(%"class.altered_carbon::js::JsValueRef"* %ptr549)
  %ptr550 = alloca %"class.altered_carbon::js::JsValueRef", align 8
  call void @_ZN14altered_carbon2js10JsValueRefC1Ev(%"class.altered_carbon::js::JsValueRef"* %ptr550)
  %ptr554 = alloca %"class.altered_carbon::js::JsValueRef", align 8
  call void @_ZN14altered_carbon2js10JsValueRefC1Ev(%"class.altered_carbon::js::JsValueRef"* %ptr554)
  %ptr558 = alloca %"class.altered_carbon::js::JsValueRef", align 8
  call void @_ZN14altered_carbon2js10JsValueRefC1Ev(%"class.altered_carbon::js::JsValueRef"* %ptr558)
  %ptr559 = alloca %"class.altered_carbon::js::JsValueRef", align 8
  call void @_ZN14altered_carbon2js10JsValueRefC1Ev(%"class.altered_carbon::js::JsValueRef"* %ptr559)
  %ptr560 = alloca %"class.altered_carbon::js::JsValueRef", align 8
  call void @_ZN14altered_carbon2js10JsValueRefC1Ev(%"class.altered_carbon::js::JsValueRef"* %ptr560)
  %ptr564 = alloca %"class.altered_carbon::js::JsValueRef", align 8
  call void @_ZN14altered_carbon2js10JsValueRefC1Ev(%"class.altered_carbon::js::JsValueRef"* %ptr564)
  %ptr568 = alloca %"class.altered_carbon::js::JsValueRef", align 8
  call void @_ZN14altered_carbon2js10JsValueRefC1Ev(%"class.altered_carbon::js::JsValueRef"* %ptr568)
  %ptr569 = alloca %"class.altered_carbon::js::JsValueRef", align 8
  call void @_ZN14altered_carbon2js10JsValueRefC1Ev(%"class.altered_carbon::js::JsValueRef"* %ptr569)
  %ptr570 = alloca %"class.altered_carbon::js::JsValueRef", align 8
  call void @_ZN14altered_carbon2js10JsValueRefC1Ev(%"class.altered_carbon::js::JsValueRef"* %ptr570)
  %ptr574 = alloca %"class.altered_carbon::js::JsValueRef", align 8
  call void @_ZN14altered_carbon2js10JsValueRefC1Ev(%"class.altered_carbon::js::JsValueRef"* %ptr574)
  %ptr578 = alloca %"class.altered_carbon::js::JsValueRef", align 8
  call void @_ZN14altered_carbon2js10JsValueRefC1Ev(%"class.altered_carbon::js::JsValueRef"* %ptr578)
  %ptr579 = alloca %"class.altered_carbon::js::JsValueRef", align 8
  call void @_ZN14altered_carbon2js10JsValueRefC1Ev(%"class.altered_carbon::js::JsValueRef"* %ptr579)
  %ptr580 = alloca %"class.altered_carbon::js::JsValueRef", align 8
  call void @_ZN14altered_carbon2js10JsValueRefC1Ev(%"class.altered_carbon::js::JsValueRef"* %ptr580)
  %ptr584 = alloca %"class.altered_carbon::js::JsValueRef", align 8
  call void @_ZN14altered_carbon2js10JsValueRefC1Ev(%"class.altered_carbon::js::JsValueRef"* %ptr584)
  %ptr588 = alloca %"class.altered_carbon::js::JsValueRef", align 8
  call void @_ZN14altered_carbon2js10JsValueRefC1Ev(%"class.altered_carbon::js::JsValueRef"* %ptr588)
  %ptr589 = alloca %"class.altered_carbon::js::JsValueRef", align 8
  call void @_ZN14altered_carbon2js10JsValueRefC1Ev(%"class.altered_carbon::js::JsValueRef"* %ptr589)
  %ptr590 = alloca %"class.altered_carbon::js::JsValueRef", align 8
  call void @_ZN14altered_carbon2js10JsValueRefC1Ev(%"class.altered_carbon::js::JsValueRef"* %ptr590)
  %ptr594 = alloca %"class.altered_carbon::js::JsValueRef", align 8
  call void @_ZN14altered_carbon2js10JsValueRefC1Ev(%"class.altered_carbon::js::JsValueRef"* %ptr594)
  %ptr598 = alloca %"class.altered_carbon::js::JsValueRef", align 8
  call void @_ZN14altered_carbon2js10JsValueRefC1Ev(%"class.altered_carbon::js::JsValueRef"* %ptr598)
  %ptr599 = alloca %"class.altered_carbon::js::JsValueRef", align 8
  call void @_ZN14altered_carbon2js10JsValueRefC1Ev(%"class.altered_carbon::js::JsValueRef"* %ptr599)
  %ptr600 = alloca %"class.altered_carbon::js::JsValueRef", align 8
  call void @_ZN14altered_carbon2js10JsValueRefC1Ev(%"class.altered_carbon::js::JsValueRef"* %ptr600)
  %ptr604 = alloca %"class.altered_carbon::js::JsValueRef", align 8
  call void @_ZN14altered_carbon2js10JsValueRefC1Ev(%"class.altered_carbon::js::JsValueRef"* %ptr604)
  %ptr605 = alloca %"class.altered_carbon::js::JsValueRef", align 8
  call void @_ZN14altered_carbon2js10JsValueRefC1Ev(%"class.altered_carbon::js::JsValueRef"* %ptr605)
  %ptr609 = alloca %"class.altered_carbon::js::JsValueRef", align 8
  call void @_ZN14altered_carbon2js10JsValueRefC1Ev(%"class.altered_carbon::js::JsValueRef"* %ptr609)
  %ptr613 = alloca %"class.altered_carbon::js::JsValueRef", align 8
  call void @_ZN14altered_carbon2js10JsValueRefC1Ev(%"class.altered_carbon::js::JsValueRef"* %ptr613)
  %ptr614 = alloca %"class.altered_carbon::js::JsValueRef", align 8
  call void @_ZN14altered_carbon2js10JsValueRefC1Ev(%"class.altered_carbon::js::JsValueRef"* %ptr614)
  %ptr615 = alloca %"class.altered_carbon::js::JsValueRef", align 8
  call void @_ZN14altered_carbon2js10JsValueRefC1Ev(%"class.altered_carbon::js::JsValueRef"* %ptr615)
  %ptr619 = alloca %"class.altered_carbon::js::JsValueRef", align 8
  call void @_ZN14altered_carbon2js10JsValueRefC1Ev(%"class.altered_carbon::js::JsValueRef"* %ptr619)
  %ptr623 = alloca %"class.altered_carbon::js::JsValueRef", align 8
  call void @_ZN14altered_carbon2js10JsValueRefC1Ev(%"class.altered_carbon::js::JsValueRef"* %ptr623)
  %ptr624 = alloca %"class.altered_carbon::js::JsValueRef", align 8
  call void @_ZN14altered_carbon2js10JsValueRefC1Ev(%"class.altered_carbon::js::JsValueRef"* %ptr624)
  %ptr625 = alloca %"class.altered_carbon::js::JsValueRef", align 8
  call void @_ZN14altered_carbon2js10JsValueRefC1Ev(%"class.altered_carbon::js::JsValueRef"* %ptr625)
  %ptr629 = alloca %"class.altered_carbon::js::JsValueRef", align 8
  call void @_ZN14altered_carbon2js10JsValueRefC1Ev(%"class.altered_carbon::js::JsValueRef"* %ptr629)
  %ptr633 = alloca %"class.altered_carbon::js::JsValueRef", align 8
  call void @_ZN14altered_carbon2js10JsValueRefC1Ev(%"class.altered_carbon::js::JsValueRef"* %ptr633)
  %ptr634 = alloca %"class.altered_carbon::js::JsValueRef", align 8
  call void @_ZN14altered_carbon2js10JsValueRefC1Ev(%"class.altered_carbon::js::JsValueRef"* %ptr634)
  %ptr635 = alloca %"class.altered_carbon::js::JsValueRef", align 8
  call void @_ZN14altered_carbon2js10JsValueRefC1Ev(%"class.altered_carbon::js::JsValueRef"* %ptr635)
  %ptr639 = alloca %"class.altered_carbon::js::JsValueRef", align 8
  call void @_ZN14altered_carbon2js10JsValueRefC1Ev(%"class.altered_carbon::js::JsValueRef"* %ptr639)
  %ptr643 = alloca %"class.altered_carbon::js::JsValueRef", align 8
  call void @_ZN14altered_carbon2js10JsValueRefC1Ev(%"class.altered_carbon::js::JsValueRef"* %ptr643)
  %ptr644 = alloca %"class.altered_carbon::js::JsValueRef", align 8
  call void @_ZN14altered_carbon2js10JsValueRefC1Ev(%"class.altered_carbon::js::JsValueRef"* %ptr644)
  %ptr645 = alloca %"class.altered_carbon::js::JsValueRef", align 8
  call void @_ZN14altered_carbon2js10JsValueRefC1Ev(%"class.altered_carbon::js::JsValueRef"* %ptr645)
  %ptr649 = alloca %"class.altered_carbon::js::JsValueRef", align 8
  call void @_ZN14altered_carbon2js10JsValueRefC1Ev(%"class.altered_carbon::js::JsValueRef"* %ptr649)
  %ptr653 = alloca %"class.altered_carbon::js::JsValueRef", align 8
  call void @_ZN14altered_carbon2js10JsValueRefC1Ev(%"class.altered_carbon::js::JsValueRef"* %ptr653)
  %ptr654 = alloca %"class.altered_carbon::js::JsValueRef", align 8
  call void @_ZN14altered_carbon2js10JsValueRefC1Ev(%"class.altered_carbon::js::JsValueRef"* %ptr654)
  %ptr655 = alloca %"class.altered_carbon::js::JsValueRef", align 8
  call void @_ZN14altered_carbon2js10JsValueRefC1Ev(%"class.altered_carbon::js::JsValueRef"* %ptr655)
  %ptr659 = alloca %"class.altered_carbon::js::JsValueRef", align 8
  call void @_ZN14altered_carbon2js10JsValueRefC1Ev(%"class.altered_carbon::js::JsValueRef"* %ptr659)
  %ptr660 = alloca %"class.altered_carbon::js::JsValueRef", align 8
  call void @_ZN14altered_carbon2js10JsValueRefC1Ev(%"class.altered_carbon::js::JsValueRef"* %ptr660)
  %ptr664 = alloca %"class.altered_carbon::js::JsValueRef", align 8
  call void @_ZN14altered_carbon2js10JsValueRefC1Ev(%"class.altered_carbon::js::JsValueRef"* %ptr664)
  %ptr668 = alloca %"class.altered_carbon::js::JsValueRef", align 8
  call void @_ZN14altered_carbon2js10JsValueRefC1Ev(%"class.altered_carbon::js::JsValueRef"* %ptr668)
  %ptr669 = alloca %"class.altered_carbon::js::JsValueRef", align 8
  call void @_ZN14altered_carbon2js10JsValueRefC1Ev(%"class.altered_carbon::js::JsValueRef"* %ptr669)
  %ptr670 = alloca %"class.altered_carbon::js::JsValueRef", align 8
  call void @_ZN14altered_carbon2js10JsValueRefC1Ev(%"class.altered_carbon::js::JsValueRef"* %ptr670)
  %ptr674 = alloca %"class.altered_carbon::js::JsValueRef", align 8
  call void @_ZN14altered_carbon2js10JsValueRefC1Ev(%"class.altered_carbon::js::JsValueRef"* %ptr674)
  %ptr678 = alloca %"class.altered_carbon::js::JsValueRef", align 8
  call void @_ZN14altered_carbon2js10JsValueRefC1Ev(%"class.altered_carbon::js::JsValueRef"* %ptr678)
  %ptr679 = alloca %"class.altered_carbon::js::JsValueRef", align 8
  call void @_ZN14altered_carbon2js10JsValueRefC1Ev(%"class.altered_carbon::js::JsValueRef"* %ptr679)
  %ptr680 = alloca %"class.altered_carbon::js::JsValueRef", align 8
  call void @_ZN14altered_carbon2js10JsValueRefC1Ev(%"class.altered_carbon::js::JsValueRef"* %ptr680)
  %ptr684 = alloca %"class.altered_carbon::js::JsValueRef", align 8
  call void @_ZN14altered_carbon2js10JsValueRefC1Ev(%"class.altered_carbon::js::JsValueRef"* %ptr684)
  %ptr688 = alloca %"class.altered_carbon::js::JsValueRef", align 8
  call void @_ZN14altered_carbon2js10JsValueRefC1Ev(%"class.altered_carbon::js::JsValueRef"* %ptr688)
  %ptr689 = alloca %"class.altered_carbon::js::JsValueRef", align 8
  call void @_ZN14altered_carbon2js10JsValueRefC1Ev(%"class.altered_carbon::js::JsValueRef"* %ptr689)
  %ptr690 = alloca %"class.altered_carbon::js::JsValueRef", align 8
  call void @_ZN14altered_carbon2js10JsValueRefC1Ev(%"class.altered_carbon::js::JsValueRef"* %ptr690)
  %ptr694 = alloca %"class.altered_carbon::js::JsValueRef", align 8
  call void @_ZN14altered_carbon2js10JsValueRefC1Ev(%"class.altered_carbon::js::JsValueRef"* %ptr694)
  %ptr698 = alloca %"class.altered_carbon::js::JsValueRef", align 8
  call void @_ZN14altered_carbon2js10JsValueRefC1Ev(%"class.altered_carbon::js::JsValueRef"* %ptr698)
  %ptr699 = alloca %"class.altered_carbon::js::JsValueRef", align 8
  call void @_ZN14altered_carbon2js10JsValueRefC1Ev(%"class.altered_carbon::js::JsValueRef"* %ptr699)
  %ptr700 = alloca %"class.altered_carbon::js::JsValueRef", align 8
  call void @_ZN14altered_carbon2js10JsValueRefC1Ev(%"class.altered_carbon::js::JsValueRef"* %ptr700)
  %ptr704 = alloca %"class.altered_carbon::js::JsValueRef", align 8
  call void @_ZN14altered_carbon2js10JsValueRefC1Ev(%"class.altered_carbon::js::JsValueRef"* %ptr704)
  %ptr708 = alloca %"class.altered_carbon::js::JsValueRef", align 8
  call void @_ZN14altered_carbon2js10JsValueRefC1Ev(%"class.altered_carbon::js::JsValueRef"* %ptr708)
  %ptr709 = alloca %"class.altered_carbon::js::JsValueRef", align 8
  call void @_ZN14altered_carbon2js10JsValueRefC1Ev(%"class.altered_carbon::js::JsValueRef"* %ptr709)
  %ptr710 = alloca %"class.altered_carbon::js::JsValueRef", align 8
  call void @_ZN14altered_carbon2js10JsValueRefC1Ev(%"class.altered_carbon::js::JsValueRef"* %ptr710)
  %ptr714 = alloca %"class.altered_carbon::js::JsValueRef", align 8
  call void @_ZN14altered_carbon2js10JsValueRefC1Ev(%"class.altered_carbon::js::JsValueRef"* %ptr714)
  %ptr715 = alloca %"class.altered_carbon::js::JsValueRef", align 8
  call void @_ZN14altered_carbon2js10JsValueRefC1Ev(%"class.altered_carbon::js::JsValueRef"* %ptr715)
  %ptr719 = alloca %"class.altered_carbon::js::JsValueRef", align 8
  call void @_ZN14altered_carbon2js10JsValueRefC1Ev(%"class.altered_carbon::js::JsValueRef"* %ptr719)
  %ptr723 = alloca %"class.altered_carbon::js::JsValueRef", align 8
  call void @_ZN14altered_carbon2js10JsValueRefC1Ev(%"class.altered_carbon::js::JsValueRef"* %ptr723)
  %ptr724 = alloca %"class.altered_carbon::js::JsValueRef", align 8
  call void @_ZN14altered_carbon2js10JsValueRefC1Ev(%"class.altered_carbon::js::JsValueRef"* %ptr724)
  %ptr725 = alloca %"class.altered_carbon::js::JsValueRef", align 8
  call void @_ZN14altered_carbon2js10JsValueRefC1Ev(%"class.altered_carbon::js::JsValueRef"* %ptr725)
  %ptr729 = alloca %"class.altered_carbon::js::JsValueRef", align 8
  call void @_ZN14altered_carbon2js10JsValueRefC1Ev(%"class.altered_carbon::js::JsValueRef"* %ptr729)
  %ptr733 = alloca %"class.altered_carbon::js::JsValueRef", align 8
  call void @_ZN14altered_carbon2js10JsValueRefC1Ev(%"class.altered_carbon::js::JsValueRef"* %ptr733)
  %ptr734 = alloca %"class.altered_carbon::js::JsValueRef", align 8
  call void @_ZN14altered_carbon2js10JsValueRefC1Ev(%"class.altered_carbon::js::JsValueRef"* %ptr734)
  %ptr735 = alloca %"class.altered_carbon::js::JsValueRef", align 8
  call void @_ZN14altered_carbon2js10JsValueRefC1Ev(%"class.altered_carbon::js::JsValueRef"* %ptr735)
  %ptr739 = alloca %"class.altered_carbon::js::JsValueRef", align 8
  call void @_ZN14altered_carbon2js10JsValueRefC1Ev(%"class.altered_carbon::js::JsValueRef"* %ptr739)
  %ptr743 = alloca %"class.altered_carbon::js::JsValueRef", align 8
  call void @_ZN14altered_carbon2js10JsValueRefC1Ev(%"class.altered_carbon::js::JsValueRef"* %ptr743)
  %ptr744 = alloca %"class.altered_carbon::js::JsValueRef", align 8
  call void @_ZN14altered_carbon2js10JsValueRefC1Ev(%"class.altered_carbon::js::JsValueRef"* %ptr744)
  %ptr745 = alloca %"class.altered_carbon::js::JsValueRef", align 8
  call void @_ZN14altered_carbon2js10JsValueRefC1Ev(%"class.altered_carbon::js::JsValueRef"* %ptr745)
  %ptr749 = alloca %"class.altered_carbon::js::JsValueRef", align 8
  call void @_ZN14altered_carbon2js10JsValueRefC1Ev(%"class.altered_carbon::js::JsValueRef"* %ptr749)
  %ptr753 = alloca %"class.altered_carbon::js::JsValueRef", align 8
  call void @_ZN14altered_carbon2js10JsValueRefC1Ev(%"class.altered_carbon::js::JsValueRef"* %ptr753)
  %ptr754 = alloca %"class.altered_carbon::js::JsValueRef", align 8
  call void @_ZN14altered_carbon2js10JsValueRefC1Ev(%"class.altered_carbon::js::JsValueRef"* %ptr754)
  %ptr755 = alloca %"class.altered_carbon::js::JsValueRef", align 8
  call void @_ZN14altered_carbon2js10JsValueRefC1Ev(%"class.altered_carbon::js::JsValueRef"* %ptr755)
  %ptr759 = alloca %"class.altered_carbon::js::JsValueRef", align 8
  call void @_ZN14altered_carbon2js10JsValueRefC1Ev(%"class.altered_carbon::js::JsValueRef"* %ptr759)
  %ptr763 = alloca %"class.altered_carbon::js::JsValueRef", align 8
  call void @_ZN14altered_carbon2js10JsValueRefC1Ev(%"class.altered_carbon::js::JsValueRef"* %ptr763)
  %ptr764 = alloca %"class.altered_carbon::js::JsValueRef", align 8
  call void @_ZN14altered_carbon2js10JsValueRefC1Ev(%"class.altered_carbon::js::JsValueRef"* %ptr764)
  %ptr765 = alloca %"class.altered_carbon::js::JsValueRef", align 8
  call void @_ZN14altered_carbon2js10JsValueRefC1Ev(%"class.altered_carbon::js::JsValueRef"* %ptr765)
  %ptr769 = alloca %"class.altered_carbon::js::JsValueRef", align 8
  call void @_ZN14altered_carbon2js10JsValueRefC1Ev(%"class.altered_carbon::js::JsValueRef"* %ptr769)
  %ptr770 = alloca %"class.altered_carbon::js::JsValueRef", align 8
  call void @_ZN14altered_carbon2js10JsValueRefC1Ev(%"class.altered_carbon::js::JsValueRef"* %ptr770)
  %ptr774 = alloca %"class.altered_carbon::js::JsValueRef", align 8
  call void @_ZN14altered_carbon2js10JsValueRefC1Ev(%"class.altered_carbon::js::JsValueRef"* %ptr774)
  %ptr778 = alloca %"class.altered_carbon::js::JsValueRef", align 8
  call void @_ZN14altered_carbon2js10JsValueRefC1Ev(%"class.altered_carbon::js::JsValueRef"* %ptr778)
  %ptr779 = alloca %"class.altered_carbon::js::JsValueRef", align 8
  call void @_ZN14altered_carbon2js10JsValueRefC1Ev(%"class.altered_carbon::js::JsValueRef"* %ptr779)
  %ptr780 = alloca %"class.altered_carbon::js::JsValueRef", align 8
  call void @_ZN14altered_carbon2js10JsValueRefC1Ev(%"class.altered_carbon::js::JsValueRef"* %ptr780)
  %ptr784 = alloca %"class.altered_carbon::js::JsValueRef", align 8
  call void @_ZN14altered_carbon2js10JsValueRefC1Ev(%"class.altered_carbon::js::JsValueRef"* %ptr784)
  %ptr788 = alloca %"class.altered_carbon::js::JsValueRef", align 8
  call void @_ZN14altered_carbon2js10JsValueRefC1Ev(%"class.altered_carbon::js::JsValueRef"* %ptr788)
  %ptr789 = alloca %"class.altered_carbon::js::JsValueRef", align 8
  call void @_ZN14altered_carbon2js10JsValueRefC1Ev(%"class.altered_carbon::js::JsValueRef"* %ptr789)
  %ptr790 = alloca %"class.altered_carbon::js::JsValueRef", align 8
  call void @_ZN14altered_carbon2js10JsValueRefC1Ev(%"class.altered_carbon::js::JsValueRef"* %ptr790)
  %ptr794 = alloca %"class.altered_carbon::js::JsValueRef", align 8
  call void @_ZN14altered_carbon2js10JsValueRefC1Ev(%"class.altered_carbon::js::JsValueRef"* %ptr794)
  %ptr798 = alloca %"class.altered_carbon::js::JsValueRef", align 8
  call void @_ZN14altered_carbon2js10JsValueRefC1Ev(%"class.altered_carbon::js::JsValueRef"* %ptr798)
  %ptr799 = alloca %"class.altered_carbon::js::JsValueRef", align 8
  call void @_ZN14altered_carbon2js10JsValueRefC1Ev(%"class.altered_carbon::js::JsValueRef"* %ptr799)
  %ptr800 = alloca %"class.altered_carbon::js::JsValueRef", align 8
  call void @_ZN14altered_carbon2js10JsValueRefC1Ev(%"class.altered_carbon::js::JsValueRef"* %ptr800)
  %ptr804 = alloca %"class.altered_carbon::js::JsValueRef", align 8
  call void @_ZN14altered_carbon2js10JsValueRefC1Ev(%"class.altered_carbon::js::JsValueRef"* %ptr804)
  %ptr808 = alloca %"class.altered_carbon::js::JsValueRef", align 8
  call void @_ZN14altered_carbon2js10JsValueRefC1Ev(%"class.altered_carbon::js::JsValueRef"* %ptr808)
  %ptr809 = alloca %"class.altered_carbon::js::JsValueRef", align 8
  call void @_ZN14altered_carbon2js10JsValueRefC1Ev(%"class.altered_carbon::js::JsValueRef"* %ptr809)
  %ptr810 = alloca %"class.altered_carbon::js::JsValueRef", align 8
  call void @_ZN14altered_carbon2js10JsValueRefC1Ev(%"class.altered_carbon::js::JsValueRef"* %ptr810)
  %ptr814 = alloca %"class.altered_carbon::js::JsValueRef", align 8
  call void @_ZN14altered_carbon2js10JsValueRefC1Ev(%"class.altered_carbon::js::JsValueRef"* %ptr814)
  %ptr818 = alloca %"class.altered_carbon::js::JsValueRef", align 8
  call void @_ZN14altered_carbon2js10JsValueRefC1Ev(%"class.altered_carbon::js::JsValueRef"* %ptr818)
  %ptr819 = alloca %"class.altered_carbon::js::JsValueRef", align 8
  call void @_ZN14altered_carbon2js10JsValueRefC1Ev(%"class.altered_carbon::js::JsValueRef"* %ptr819)
  %ptr820 = alloca %"class.altered_carbon::js::JsValueRef", align 8
  call void @_ZN14altered_carbon2js10JsValueRefC1Ev(%"class.altered_carbon::js::JsValueRef"* %ptr820)
  %ptr824 = alloca %"class.altered_carbon::js::JsValueRef", align 8
  call void @_ZN14altered_carbon2js10JsValueRefC1Ev(%"class.altered_carbon::js::JsValueRef"* %ptr824)
  %ptr825 = alloca %"class.altered_carbon::js::JsValueRef", align 8
  call void @_ZN14altered_carbon2js10JsValueRefC1Ev(%"class.altered_carbon::js::JsValueRef"* %ptr825)
  %ptr829 = alloca %"class.altered_carbon::js::JsValueRef", align 8
  call void @_ZN14altered_carbon2js10JsValueRefC1Ev(%"class.altered_carbon::js::JsValueRef"* %ptr829)
  %ptr833 = alloca %"class.altered_carbon::js::JsValueRef", align 8
  call void @_ZN14altered_carbon2js10JsValueRefC1Ev(%"class.altered_carbon::js::JsValueRef"* %ptr833)
  %ptr834 = alloca %"class.altered_carbon::js::JsValueRef", align 8
  call void @_ZN14altered_carbon2js10JsValueRefC1Ev(%"class.altered_carbon::js::JsValueRef"* %ptr834)
  %ptr835 = alloca %"class.altered_carbon::js::JsValueRef", align 8
  call void @_ZN14altered_carbon2js10JsValueRefC1Ev(%"class.altered_carbon::js::JsValueRef"* %ptr835)
  %ptr839 = alloca %"class.altered_carbon::js::JsValueRef", align 8
  call void @_ZN14altered_carbon2js10JsValueRefC1Ev(%"class.altered_carbon::js::JsValueRef"* %ptr839)
  %ptr843 = alloca %"class.altered_carbon::js::JsValueRef", align 8
  call void @_ZN14altered_carbon2js10JsValueRefC1Ev(%"class.altered_carbon::js::JsValueRef"* %ptr843)
  %ptr844 = alloca %"class.altered_carbon::js::JsValueRef", align 8
  call void @_ZN14altered_carbon2js10JsValueRefC1Ev(%"class.altered_carbon::js::JsValueRef"* %ptr844)
  %ptr845 = alloca %"class.altered_carbon::js::JsValueRef", align 8
  call void @_ZN14altered_carbon2js10JsValueRefC1Ev(%"class.altered_carbon::js::JsValueRef"* %ptr845)
  %ptr849 = alloca %"class.altered_carbon::js::JsValueRef", align 8
  call void @_ZN14altered_carbon2js10JsValueRefC1Ev(%"class.altered_carbon::js::JsValueRef"* %ptr849)
  %ptr853 = alloca %"class.altered_carbon::js::JsValueRef", align 8
  call void @_ZN14altered_carbon2js10JsValueRefC1Ev(%"class.altered_carbon::js::JsValueRef"* %ptr853)
  %ptr854 = alloca %"class.altered_carbon::js::JsValueRef", align 8
  call void @_ZN14altered_carbon2js10JsValueRefC1Ev(%"class.altered_carbon::js::JsValueRef"* %ptr854)
  %ptr855 = alloca %"class.altered_carbon::js::JsValueRef", align 8
  call void @_ZN14altered_carbon2js10JsValueRefC1Ev(%"class.altered_carbon::js::JsValueRef"* %ptr855)
  %ptr859 = alloca %"class.altered_carbon::js::JsValueRef", align 8
  call void @_ZN14altered_carbon2js10JsValueRefC1Ev(%"class.altered_carbon::js::JsValueRef"* %ptr859)
  %ptr863 = alloca %"class.altered_carbon::js::JsValueRef", align 8
  call void @_ZN14altered_carbon2js10JsValueRefC1Ev(%"class.altered_carbon::js::JsValueRef"* %ptr863)
  %ptr864 = alloca %"class.altered_carbon::js::JsValueRef", align 8
  call void @_ZN14altered_carbon2js10JsValueRefC1Ev(%"class.altered_carbon::js::JsValueRef"* %ptr864)
  %ptr865 = alloca %"class.altered_carbon::js::JsValueRef", align 8
  call void @_ZN14altered_carbon2js10JsValueRefC1Ev(%"class.altered_carbon::js::JsValueRef"* %ptr865)
  %ptr869 = alloca %"class.altered_carbon::js::JsValueRef", align 8
  call void @_ZN14altered_carbon2js10JsValueRefC1Ev(%"class.altered_carbon::js::JsValueRef"* %ptr869)
  %ptr873 = alloca %"class.altered_carbon::js::JsValueRef", align 8
  call void @_ZN14altered_carbon2js10JsValueRefC1Ev(%"class.altered_carbon::js::JsValueRef"* %ptr873)
  %ptr874 = alloca %"class.altered_carbon::js::JsValueRef", align 8
  call void @_ZN14altered_carbon2js10JsValueRefC1Ev(%"class.altered_carbon::js::JsValueRef"* %ptr874)
  %ptr875 = alloca %"class.altered_carbon::js::JsValueRef", align 8
  call void @_ZN14altered_carbon2js10JsValueRefC1Ev(%"class.altered_carbon::js::JsValueRef"* %ptr875)
  %ptr879 = alloca %"class.altered_carbon::js::JsValueRef", align 8
  call void @_ZN14altered_carbon2js10JsValueRefC1Ev(%"class.altered_carbon::js::JsValueRef"* %ptr879)
  %ptr880 = alloca %"class.altered_carbon::js::JsValueRef", align 8
  call void @_ZN14altered_carbon2js10JsValueRefC1Ev(%"class.altered_carbon::js::JsValueRef"* %ptr880)
  %ptr884 = alloca %"class.altered_carbon::js::JsValueRef", align 8
  call void @_ZN14altered_carbon2js10JsValueRefC1Ev(%"class.altered_carbon::js::JsValueRef"* %ptr884)
  %ptr888 = alloca %"class.altered_carbon::js::JsValueRef", align 8
  call void @_ZN14altered_carbon2js10JsValueRefC1Ev(%"class.altered_carbon::js::JsValueRef"* %ptr888)
  %ptr889 = alloca %"class.altered_carbon::js::JsValueRef", align 8
  call void @_ZN14altered_carbon2js10JsValueRefC1Ev(%"class.altered_carbon::js::JsValueRef"* %ptr889)
  %ptr890 = alloca %"class.altered_carbon::js::JsValueRef", align 8
  call void @_ZN14altered_carbon2js10JsValueRefC1Ev(%"class.altered_carbon::js::JsValueRef"* %ptr890)
  %ptr894 = alloca %"class.altered_carbon::js::JsValueRef", align 8
  call void @_ZN14altered_carbon2js10JsValueRefC1Ev(%"class.altered_carbon::js::JsValueRef"* %ptr894)
  %ptr898 = alloca %"class.altered_carbon::js::JsValueRef", align 8
  call void @_ZN14altered_carbon2js10JsValueRefC1Ev(%"class.altered_carbon::js::JsValueRef"* %ptr898)
  %ptr899 = alloca %"class.altered_carbon::js::JsValueRef", align 8
  call void @_ZN14altered_carbon2js10JsValueRefC1Ev(%"class.altered_carbon::js::JsValueRef"* %ptr899)
  %ptr900 = alloca %"class.altered_carbon::js::JsValueRef", align 8
  call void @_ZN14altered_carbon2js10JsValueRefC1Ev(%"class.altered_carbon::js::JsValueRef"* %ptr900)
  %ptr904 = alloca %"class.altered_carbon::js::JsValueRef", align 8
  call void @_ZN14altered_carbon2js10JsValueRefC1Ev(%"class.altered_carbon::js::JsValueRef"* %ptr904)
  %ptr908 = alloca %"class.altered_carbon::js::JsValueRef", align 8
  call void @_ZN14altered_carbon2js10JsValueRefC1Ev(%"class.altered_carbon::js::JsValueRef"* %ptr908)
  %ptr909 = alloca %"class.altered_carbon::js::JsValueRef", align 8
  call void @_ZN14altered_carbon2js10JsValueRefC1Ev(%"class.altered_carbon::js::JsValueRef"* %ptr909)
  %ptr910 = alloca %"class.altered_carbon::js::JsValueRef", align 8
  call void @_ZN14altered_carbon2js10JsValueRefC1Ev(%"class.altered_carbon::js::JsValueRef"* %ptr910)
  %ptr914 = alloca %"class.altered_carbon::js::JsValueRef", align 8
  call void @_ZN14altered_carbon2js10JsValueRefC1Ev(%"class.altered_carbon::js::JsValueRef"* %ptr914)
  %ptr918 = alloca %"class.altered_carbon::js::JsValueRef", align 8
  call void @_ZN14altered_carbon2js10JsValueRefC1Ev(%"class.altered_carbon::js::JsValueRef"* %ptr918)
  %ptr919 = alloca %"class.altered_carbon::js::JsValueRef", align 8
  call void @_ZN14altered_carbon2js10JsValueRefC1Ev(%"class.altered_carbon::js::JsValueRef"* %ptr919)
  %ptr920 = alloca %"class.altered_carbon::js::JsValueRef", align 8
  call void @_ZN14altered_carbon2js10JsValueRefC1Ev(%"class.altered_carbon::js::JsValueRef"* %ptr920)
  %ptr924 = alloca %"class.altered_carbon::js::JsValueRef", align 8
  call void @_ZN14altered_carbon2js10JsValueRefC1Ev(%"class.altered_carbon::js::JsValueRef"* %ptr924)
  %ptr928 = alloca %"class.altered_carbon::js::JsValueRef", align 8
  call void @_ZN14altered_carbon2js10JsValueRefC1Ev(%"class.altered_carbon::js::JsValueRef"* %ptr928)
  %ptr929 = alloca %"class.altered_carbon::js::JsValueRef", align 8
  call void @_ZN14altered_carbon2js10JsValueRefC1Ev(%"class.altered_carbon::js::JsValueRef"* %ptr929)
  %ptr930 = alloca %"class.altered_carbon::js::JsValueRef", align 8
  call void @_ZN14altered_carbon2js10JsValueRefC1Ev(%"class.altered_carbon::js::JsValueRef"* %ptr930)
  %ptr934 = alloca %"class.altered_carbon::js::JsValueRef", align 8
  call void @_ZN14altered_carbon2js10JsValueRefC1Ev(%"class.altered_carbon::js::JsValueRef"* %ptr934)
  %ptr935 = alloca %"class.altered_carbon::js::JsValueRef", align 8
  call void @_ZN14altered_carbon2js10JsValueRefC1Ev(%"class.altered_carbon::js::JsValueRef"* %ptr935)
  %ptr939 = alloca %"class.altered_carbon::js::JsValueRef", align 8
  call void @_ZN14altered_carbon2js10JsValueRefC1Ev(%"class.altered_carbon::js::JsValueRef"* %ptr939)
  %ptr943 = alloca %"class.altered_carbon::js::JsValueRef", align 8
  call void @_ZN14altered_carbon2js10JsValueRefC1Ev(%"class.altered_carbon::js::JsValueRef"* %ptr943)
  %ptr944 = alloca %"class.altered_carbon::js::JsValueRef", align 8
  call void @_ZN14altered_carbon2js10JsValueRefC1Ev(%"class.altered_carbon::js::JsValueRef"* %ptr944)
  %ptr945 = alloca %"class.altered_carbon::js::JsValueRef", align 8
  call void @_ZN14altered_carbon2js10JsValueRefC1Ev(%"class.altered_carbon::js::JsValueRef"* %ptr945)
  %ptr949 = alloca %"class.altered_carbon::js::JsValueRef", align 8
  call void @_ZN14altered_carbon2js10JsValueRefC1Ev(%"class.altered_carbon::js::JsValueRef"* %ptr949)
  %ptr953 = alloca %"class.altered_carbon::js::JsValueRef", align 8
  call void @_ZN14altered_carbon2js10JsValueRefC1Ev(%"class.altered_carbon::js::JsValueRef"* %ptr953)
  %ptr954 = alloca %"class.altered_carbon::js::JsValueRef", align 8
  call void @_ZN14altered_carbon2js10JsValueRefC1Ev(%"class.altered_carbon::js::JsValueRef"* %ptr954)
  %ptr955 = alloca %"class.altered_carbon::js::JsValueRef", align 8
  call void @_ZN14altered_carbon2js10JsValueRefC1Ev(%"class.altered_carbon::js::JsValueRef"* %ptr955)
  %ptr959 = alloca %"class.altered_carbon::js::JsValueRef", align 8
  call void @_ZN14altered_carbon2js10JsValueRefC1Ev(%"class.altered_carbon::js::JsValueRef"* %ptr959)
  %ptr963 = alloca %"class.altered_carbon::js::JsValueRef", align 8
  call void @_ZN14altered_carbon2js10JsValueRefC1Ev(%"class.altered_carbon::js::JsValueRef"* %ptr963)
  %ptr964 = alloca %"class.altered_carbon::js::JsValueRef", align 8
  call void @_ZN14altered_carbon2js10JsValueRefC1Ev(%"class.altered_carbon::js::JsValueRef"* %ptr964)
  %ptr965 = alloca %"class.altered_carbon::js::JsValueRef", align 8
  call void @_ZN14altered_carbon2js10JsValueRefC1Ev(%"class.altered_carbon::js::JsValueRef"* %ptr965)
  %ptr969 = alloca %"class.altered_carbon::js::JsValueRef", align 8
  call void @_ZN14altered_carbon2js10JsValueRefC1Ev(%"class.altered_carbon::js::JsValueRef"* %ptr969)
  %ptr973 = alloca %"class.altered_carbon::js::JsValueRef", align 8
  call void @_ZN14altered_carbon2js10JsValueRefC1Ev(%"class.altered_carbon::js::JsValueRef"* %ptr973)
  %ptr974 = alloca %"class.altered_carbon::js::JsValueRef", align 8
  call void @_ZN14altered_carbon2js10JsValueRefC1Ev(%"class.altered_carbon::js::JsValueRef"* %ptr974)
  %ptr975 = alloca %"class.altered_carbon::js::JsValueRef", align 8
  call void @_ZN14altered_carbon2js10JsValueRefC1Ev(%"class.altered_carbon::js::JsValueRef"* %ptr975)
  %ptr979 = alloca %"class.altered_carbon::js::JsValueRef", align 8
  call void @_ZN14altered_carbon2js10JsValueRefC1Ev(%"class.altered_carbon::js::JsValueRef"* %ptr979)
  %ptr983 = alloca %"class.altered_carbon::js::JsValueRef", align 8
  call void @_ZN14altered_carbon2js10JsValueRefC1Ev(%"class.altered_carbon::js::JsValueRef"* %ptr983)
  %ptr984 = alloca %"class.altered_carbon::js::JsValueRef", align 8
  call void @_ZN14altered_carbon2js10JsValueRefC1Ev(%"class.altered_carbon::js::JsValueRef"* %ptr984)
  %ptr985 = alloca %"class.altered_carbon::js::JsValueRef", align 8
  call void @_ZN14altered_carbon2js10JsValueRefC1Ev(%"class.altered_carbon::js::JsValueRef"* %ptr985)
  %ptr989 = alloca %"class.altered_carbon::js::JsValueRef", align 8
  call void @_ZN14altered_carbon2js10JsValueRefC1Ev(%"class.altered_carbon::js::JsValueRef"* %ptr989)
  %ptr990 = alloca %"class.altered_carbon::js::JsValueRef", align 8
  call void @_ZN14altered_carbon2js10JsValueRefC1Ev(%"class.altered_carbon::js::JsValueRef"* %ptr990)
  %ptr994 = alloca %"class.altered_carbon::js::JsValueRef", align 8
  call void @_ZN14altered_carbon2js10JsValueRefC1Ev(%"class.altered_carbon::js::JsValueRef"* %ptr994)
  %ptr998 = alloca %"class.altered_carbon::js::JsValueRef", align 8
  call void @_ZN14altered_carbon2js10JsValueRefC1Ev(%"class.altered_carbon::js::JsValueRef"* %ptr998)
  %ptr999 = alloca %"class.altered_carbon::js::JsValueRef", align 8
  call void @_ZN14altered_carbon2js10JsValueRefC1Ev(%"class.altered_carbon::js::JsValueRef"* %ptr999)
  %ptr1000 = alloca %"class.altered_carbon::js::JsValueRef", align 8
  call void @_ZN14altered_carbon2js10JsValueRefC1Ev(%"class.altered_carbon::js::JsValueRef"* %ptr1000)
  %ptr1004 = alloca %"class.altered_carbon::js::JsValueRef", align 8
  call void @_ZN14altered_carbon2js10JsValueRefC1Ev(%"class.altered_carbon::js::JsValueRef"* %ptr1004)
  %ptr1008 = alloca %"class.altered_carbon::js::JsValueRef", align 8
  call void @_ZN14altered_carbon2js10JsValueRefC1Ev(%"class.altered_carbon::js::JsValueRef"* %ptr1008)
  %ptr1009 = alloca %"class.altered_carbon::js::JsValueRef", align 8
  call void @_ZN14altered_carbon2js10JsValueRefC1Ev(%"class.altered_carbon::js::JsValueRef"* %ptr1009)
  %ptr1010 = alloca %"class.altered_carbon::js::JsValueRef", align 8
  call void @_ZN14altered_carbon2js10JsValueRefC1Ev(%"class.altered_carbon::js::JsValueRef"* %ptr1010)
  %ptr1014 = alloca %"class.altered_carbon::js::JsValueRef", align 8
  call void @_ZN14altered_carbon2js10JsValueRefC1Ev(%"class.altered_carbon::js::JsValueRef"* %ptr1014)
  %ptr1018 = alloca %"class.altered_carbon::js::JsValueRef", align 8
  call void @_ZN14altered_carbon2js10JsValueRefC1Ev(%"class.altered_carbon::js::JsValueRef"* %ptr1018)
  %ptr1019 = alloca %"class.altered_carbon::js::JsValueRef", align 8
  call void @_ZN14altered_carbon2js10JsValueRefC1Ev(%"class.altered_carbon::js::JsValueRef"* %ptr1019)
  %ptr1020 = alloca %"class.altered_carbon::js::JsValueRef", align 8
  call void @_ZN14altered_carbon2js10JsValueRefC1Ev(%"class.altered_carbon::js::JsValueRef"* %ptr1020)
  %ptr1024 = alloca %"class.altered_carbon::js::JsValueRef", align 8
  call void @_ZN14altered_carbon2js10JsValueRefC1Ev(%"class.altered_carbon::js::JsValueRef"* %ptr1024)
  %ptr1028 = alloca %"class.altered_carbon::js::JsValueRef", align 8
  call void @_ZN14altered_carbon2js10JsValueRefC1Ev(%"class.altered_carbon::js::JsValueRef"* %ptr1028)
  %ptr1029 = alloca %"class.altered_carbon::js::JsValueRef", align 8
  call void @_ZN14altered_carbon2js10JsValueRefC1Ev(%"class.altered_carbon::js::JsValueRef"* %ptr1029)
  %ptr1030 = alloca %"class.altered_carbon::js::JsValueRef", align 8
  call void @_ZN14altered_carbon2js10JsValueRefC1Ev(%"class.altered_carbon::js::JsValueRef"* %ptr1030)
  %ptr1034 = alloca %"class.altered_carbon::js::JsValueRef", align 8
  call void @_ZN14altered_carbon2js10JsValueRefC1Ev(%"class.altered_carbon::js::JsValueRef"* %ptr1034)
  %ptr1038 = alloca %"class.altered_carbon::js::JsValueRef", align 8
  call void @_ZN14altered_carbon2js10JsValueRefC1Ev(%"class.altered_carbon::js::JsValueRef"* %ptr1038)
  %ptr1039 = alloca %"class.altered_carbon::js::JsValueRef", align 8
  call void @_ZN14altered_carbon2js10JsValueRefC1Ev(%"class.altered_carbon::js::JsValueRef"* %ptr1039)
  %ptr1040 = alloca %"class.altered_carbon::js::JsValueRef", align 8
  call void @_ZN14altered_carbon2js10JsValueRefC1Ev(%"class.altered_carbon::js::JsValueRef"* %ptr1040)
  %ptr1044 = alloca %"class.altered_carbon::js::JsValueRef", align 8
  call void @_ZN14altered_carbon2js10JsValueRefC1Ev(%"class.altered_carbon::js::JsValueRef"* %ptr1044)
  %ptr1045 = alloca %"class.altered_carbon::js::JsValueRef", align 8
  call void @_ZN14altered_carbon2js10JsValueRefC1Ev(%"class.altered_carbon::js::JsValueRef"* %ptr1045)
  %ptr1049 = alloca %"class.altered_carbon::js::JsValueRef", align 8
  call void @_ZN14altered_carbon2js10JsValueRefC1Ev(%"class.altered_carbon::js::JsValueRef"* %ptr1049)
  %ptr1053 = alloca %"class.altered_carbon::js::JsValueRef", align 8
  call void @_ZN14altered_carbon2js10JsValueRefC1Ev(%"class.altered_carbon::js::JsValueRef"* %ptr1053)
  %ptr1054 = alloca %"class.altered_carbon::js::JsValueRef", align 8
  call void @_ZN14altered_carbon2js10JsValueRefC1Ev(%"class.altered_carbon::js::JsValueRef"* %ptr1054)
  %ptr1055 = alloca %"class.altered_carbon::js::JsValueRef", align 8
  call void @_ZN14altered_carbon2js10JsValueRefC1Ev(%"class.altered_carbon::js::JsValueRef"* %ptr1055)
  %ptr1059 = alloca %"class.altered_carbon::js::JsValueRef", align 8
  call void @_ZN14altered_carbon2js10JsValueRefC1Ev(%"class.altered_carbon::js::JsValueRef"* %ptr1059)
  %ptr1063 = alloca %"class.altered_carbon::js::JsValueRef", align 8
  call void @_ZN14altered_carbon2js10JsValueRefC1Ev(%"class.altered_carbon::js::JsValueRef"* %ptr1063)
  %ptr1064 = alloca %"class.altered_carbon::js::JsValueRef", align 8
  call void @_ZN14altered_carbon2js10JsValueRefC1Ev(%"class.altered_carbon::js::JsValueRef"* %ptr1064)
  %ptr1065 = alloca %"class.altered_carbon::js::JsValueRef", align 8
  call void @_ZN14altered_carbon2js10JsValueRefC1Ev(%"class.altered_carbon::js::JsValueRef"* %ptr1065)
  %ptr1069 = alloca %"class.altered_carbon::js::JsValueRef", align 8
  call void @_ZN14altered_carbon2js10JsValueRefC1Ev(%"class.altered_carbon::js::JsValueRef"* %ptr1069)
  %ptr1073 = alloca %"class.altered_carbon::js::JsValueRef", align 8
  call void @_ZN14altered_carbon2js10JsValueRefC1Ev(%"class.altered_carbon::js::JsValueRef"* %ptr1073)
  %ptr1074 = alloca %"class.altered_carbon::js::JsValueRef", align 8
  call void @_ZN14altered_carbon2js10JsValueRefC1Ev(%"class.altered_carbon::js::JsValueRef"* %ptr1074)
  %ptr1075 = alloca %"class.altered_carbon::js::JsValueRef", align 8
  call void @_ZN14altered_carbon2js10JsValueRefC1Ev(%"class.altered_carbon::js::JsValueRef"* %ptr1075)
  %ptr1079 = alloca %"class.altered_carbon::js::JsValueRef", align 8
  call void @_ZN14altered_carbon2js10JsValueRefC1Ev(%"class.altered_carbon::js::JsValueRef"* %ptr1079)
  %ptr1083 = alloca %"class.altered_carbon::js::JsValueRef", align 8
  call void @_ZN14altered_carbon2js10JsValueRefC1Ev(%"class.altered_carbon::js::JsValueRef"* %ptr1083)
  %ptr1084 = alloca %"class.altered_carbon::js::JsValueRef", align 8
  call void @_ZN14altered_carbon2js10JsValueRefC1Ev(%"class.altered_carbon::js::JsValueRef"* %ptr1084)
  %ptr1085 = alloca %"class.altered_carbon::js::JsValueRef", align 8
  call void @_ZN14altered_carbon2js10JsValueRefC1Ev(%"class.altered_carbon::js::JsValueRef"* %ptr1085)
  %ptr1089 = alloca %"class.altered_carbon::js::JsValueRef", align 8
  call void @_ZN14altered_carbon2js10JsValueRefC1Ev(%"class.altered_carbon::js::JsValueRef"* %ptr1089)
  %ptr1093 = alloca %"class.altered_carbon::js::JsValueRef", align 8
  call void @_ZN14altered_carbon2js10JsValueRefC1Ev(%"class.altered_carbon::js::JsValueRef"* %ptr1093)
  %ptr1094 = alloca %"class.altered_carbon::js::JsValueRef", align 8
  call void @_ZN14altered_carbon2js10JsValueRefC1Ev(%"class.altered_carbon::js::JsValueRef"* %ptr1094)
  %ptr1095 = alloca %"class.altered_carbon::js::JsValueRef", align 8
  call void @_ZN14altered_carbon2js10JsValueRefC1Ev(%"class.altered_carbon::js::JsValueRef"* %ptr1095)
  %ptr1099 = alloca %"class.altered_carbon::js::JsValueRef", align 8
  call void @_ZN14altered_carbon2js10JsValueRefC1Ev(%"class.altered_carbon::js::JsValueRef"* %ptr1099)
  %ptr1100 = alloca %"class.altered_carbon::js::JsValueRef", align 8
  call void @_ZN14altered_carbon2js10JsValueRefC1Ev(%"class.altered_carbon::js::JsValueRef"* %ptr1100)
  %ptr1104 = alloca %"class.altered_carbon::js::JsValueRef", align 8
  call void @_ZN14altered_carbon2js10JsValueRefC1Ev(%"class.altered_carbon::js::JsValueRef"* %ptr1104)
  %ptr1108 = alloca %"class.altered_carbon::js::JsValueRef", align 8
  call void @_ZN14altered_carbon2js10JsValueRefC1Ev(%"class.altered_carbon::js::JsValueRef"* %ptr1108)
  %ptr1109 = alloca %"class.altered_carbon::js::JsValueRef", align 8
  call void @_ZN14altered_carbon2js10JsValueRefC1Ev(%"class.altered_carbon::js::JsValueRef"* %ptr1109)
  %ptr1110 = alloca %"class.altered_carbon::js::JsValueRef", align 8
  call void @_ZN14altered_carbon2js10JsValueRefC1Ev(%"class.altered_carbon::js::JsValueRef"* %ptr1110)
  %ptr1114 = alloca %"class.altered_carbon::js::JsValueRef", align 8
  call void @_ZN14altered_carbon2js10JsValueRefC1Ev(%"class.altered_carbon::js::JsValueRef"* %ptr1114)
  %ptr1118 = alloca %"class.altered_carbon::js::JsValueRef", align 8
  call void @_ZN14altered_carbon2js10JsValueRefC1Ev(%"class.altered_carbon::js::JsValueRef"* %ptr1118)
  %ptr1119 = alloca %"class.altered_carbon::js::JsValueRef", align 8
  call void @_ZN14altered_carbon2js10JsValueRefC1Ev(%"class.altered_carbon::js::JsValueRef"* %ptr1119)
  %ptr1120 = alloca %"class.altered_carbon::js::JsValueRef", align 8
  call void @_ZN14altered_carbon2js10JsValueRefC1Ev(%"class.altered_carbon::js::JsValueRef"* %ptr1120)
  %ptr1124 = alloca %"class.altered_carbon::js::JsValueRef", align 8
  call void @_ZN14altered_carbon2js10JsValueRefC1Ev(%"class.altered_carbon::js::JsValueRef"* %ptr1124)
  %ptr1128 = alloca %"class.altered_carbon::js::JsValueRef", align 8
  call void @_ZN14altered_carbon2js10JsValueRefC1Ev(%"class.altered_carbon::js::JsValueRef"* %ptr1128)
  %ptr1129 = alloca %"class.altered_carbon::js::JsValueRef", align 8
  call void @_ZN14altered_carbon2js10JsValueRefC1Ev(%"class.altered_carbon::js::JsValueRef"* %ptr1129)
  %ptr1130 = alloca %"class.altered_carbon::js::JsValueRef", align 8
  call void @_ZN14altered_carbon2js10JsValueRefC1Ev(%"class.altered_carbon::js::JsValueRef"* %ptr1130)
  %ptr1134 = alloca %"class.altered_carbon::js::JsValueRef", align 8
  call void @_ZN14altered_carbon2js10JsValueRefC1Ev(%"class.altered_carbon::js::JsValueRef"* %ptr1134)
  %ptr1138 = alloca %"class.altered_carbon::js::JsValueRef", align 8
  call void @_ZN14altered_carbon2js10JsValueRefC1Ev(%"class.altered_carbon::js::JsValueRef"* %ptr1138)
  %ptr1139 = alloca %"class.altered_carbon::js::JsValueRef", align 8
  call void @_ZN14altered_carbon2js10JsValueRefC1Ev(%"class.altered_carbon::js::JsValueRef"* %ptr1139)
  %ptr1140 = alloca %"class.altered_carbon::js::JsValueRef", align 8
  call void @_ZN14altered_carbon2js10JsValueRefC1Ev(%"class.altered_carbon::js::JsValueRef"* %ptr1140)
  %ptr1144 = alloca %"class.altered_carbon::js::JsValueRef", align 8
  call void @_ZN14altered_carbon2js10JsValueRefC1Ev(%"class.altered_carbon::js::JsValueRef"* %ptr1144)
  %ptr1148 = alloca %"class.altered_carbon::js::JsValueRef", align 8
  call void @_ZN14altered_carbon2js10JsValueRefC1Ev(%"class.altered_carbon::js::JsValueRef"* %ptr1148)
  %ptr1149 = alloca %"class.altered_carbon::js::JsValueRef", align 8
  call void @_ZN14altered_carbon2js10JsValueRefC1Ev(%"class.altered_carbon::js::JsValueRef"* %ptr1149)
  %ptr1150 = alloca %"class.altered_carbon::js::JsValueRef", align 8
  call void @_ZN14altered_carbon2js10JsValueRefC1Ev(%"class.altered_carbon::js::JsValueRef"* %ptr1150)
  %ptr1154 = alloca %"class.altered_carbon::js::JsValueRef", align 8
  call void @_ZN14altered_carbon2js10JsValueRefC1Ev(%"class.altered_carbon::js::JsValueRef"* %ptr1154)
  %ptr1155 = alloca %"class.altered_carbon::js::JsValueRef", align 8
  call void @_ZN14altered_carbon2js10JsValueRefC1Ev(%"class.altered_carbon::js::JsValueRef"* %ptr1155)
  %ptr1159 = alloca %"class.altered_carbon::js::JsValueRef", align 8
  call void @_ZN14altered_carbon2js10JsValueRefC1Ev(%"class.altered_carbon::js::JsValueRef"* %ptr1159)
  %ptr1163 = alloca %"class.altered_carbon::js::JsValueRef", align 8
  call void @_ZN14altered_carbon2js10JsValueRefC1Ev(%"class.altered_carbon::js::JsValueRef"* %ptr1163)
  %ptr1164 = alloca %"class.altered_carbon::js::JsValueRef", align 8
  call void @_ZN14altered_carbon2js10JsValueRefC1Ev(%"class.altered_carbon::js::JsValueRef"* %ptr1164)
  %ptr1165 = alloca %"class.altered_carbon::js::JsValueRef", align 8
  call void @_ZN14altered_carbon2js10JsValueRefC1Ev(%"class.altered_carbon::js::JsValueRef"* %ptr1165)
  %ptr1169 = alloca %"class.altered_carbon::js::JsValueRef", align 8
  call void @_ZN14altered_carbon2js10JsValueRefC1Ev(%"class.altered_carbon::js::JsValueRef"* %ptr1169)
  %ptr1173 = alloca %"class.altered_carbon::js::JsValueRef", align 8
  call void @_ZN14altered_carbon2js10JsValueRefC1Ev(%"class.altered_carbon::js::JsValueRef"* %ptr1173)
  %ptr1174 = alloca %"class.altered_carbon::js::JsValueRef", align 8
  call void @_ZN14altered_carbon2js10JsValueRefC1Ev(%"class.altered_carbon::js::JsValueRef"* %ptr1174)
  %ptr1175 = alloca %"class.altered_carbon::js::JsValueRef", align 8
  call void @_ZN14altered_carbon2js10JsValueRefC1Ev(%"class.altered_carbon::js::JsValueRef"* %ptr1175)
  %ptr1179 = alloca %"class.altered_carbon::js::JsValueRef", align 8
  call void @_ZN14altered_carbon2js10JsValueRefC1Ev(%"class.altered_carbon::js::JsValueRef"* %ptr1179)
  %ptr1183 = alloca %"class.altered_carbon::js::JsValueRef", align 8
  call void @_ZN14altered_carbon2js10JsValueRefC1Ev(%"class.altered_carbon::js::JsValueRef"* %ptr1183)
  %ptr1184 = alloca %"class.altered_carbon::js::JsValueRef", align 8
  call void @_ZN14altered_carbon2js10JsValueRefC1Ev(%"class.altered_carbon::js::JsValueRef"* %ptr1184)
  %ptr1185 = alloca %"class.altered_carbon::js::JsValueRef", align 8
  call void @_ZN14altered_carbon2js10JsValueRefC1Ev(%"class.altered_carbon::js::JsValueRef"* %ptr1185)
  %ptr1189 = alloca %"class.altered_carbon::js::JsValueRef", align 8
  call void @_ZN14altered_carbon2js10JsValueRefC1Ev(%"class.altered_carbon::js::JsValueRef"* %ptr1189)
  %ptr1193 = alloca %"class.altered_carbon::js::JsValueRef", align 8
  call void @_ZN14altered_carbon2js10JsValueRefC1Ev(%"class.altered_carbon::js::JsValueRef"* %ptr1193)
  %ptr1194 = alloca %"class.altered_carbon::js::JsValueRef", align 8
  call void @_ZN14altered_carbon2js10JsValueRefC1Ev(%"class.altered_carbon::js::JsValueRef"* %ptr1194)
  %ptr1195 = alloca %"class.altered_carbon::js::JsValueRef", align 8
  call void @_ZN14altered_carbon2js10JsValueRefC1Ev(%"class.altered_carbon::js::JsValueRef"* %ptr1195)
  %ptr1199 = alloca %"class.altered_carbon::js::JsValueRef", align 8
  call void @_ZN14altered_carbon2js10JsValueRefC1Ev(%"class.altered_carbon::js::JsValueRef"* %ptr1199)
  %ptr1203 = alloca %"class.altered_carbon::js::JsValueRef", align 8
  call void @_ZN14altered_carbon2js10JsValueRefC1Ev(%"class.altered_carbon::js::JsValueRef"* %ptr1203)
  %ptr1204 = alloca %"class.altered_carbon::js::JsValueRef", align 8
  call void @_ZN14altered_carbon2js10JsValueRefC1Ev(%"class.altered_carbon::js::JsValueRef"* %ptr1204)
  %ptr1205 = alloca %"class.altered_carbon::js::JsValueRef", align 8
  call void @_ZN14altered_carbon2js10JsValueRefC1Ev(%"class.altered_carbon::js::JsValueRef"* %ptr1205)
  %ptr1209 = alloca %"class.altered_carbon::js::JsValueRef", align 8
  call void @_ZN14altered_carbon2js10JsValueRefC1Ev(%"class.altered_carbon::js::JsValueRef"* %ptr1209)
  %ptr1210 = alloca %"class.altered_carbon::js::JsValueRef", align 8
  call void @_ZN14altered_carbon2js10JsValueRefC1Ev(%"class.altered_carbon::js::JsValueRef"* %ptr1210)
  %ptr1214 = alloca %"class.altered_carbon::js::JsValueRef", align 8
  call void @_ZN14altered_carbon2js10JsValueRefC1Ev(%"class.altered_carbon::js::JsValueRef"* %ptr1214)
  %ptr1218 = alloca %"class.altered_carbon::js::JsValueRef", align 8
  call void @_ZN14altered_carbon2js10JsValueRefC1Ev(%"class.altered_carbon::js::JsValueRef"* %ptr1218)
  %ptr1219 = alloca %"class.altered_carbon::js::JsValueRef", align 8
  call void @_ZN14altered_carbon2js10JsValueRefC1Ev(%"class.altered_carbon::js::JsValueRef"* %ptr1219)
  %ptr1220 = alloca %"class.altered_carbon::js::JsValueRef", align 8
  call void @_ZN14altered_carbon2js10JsValueRefC1Ev(%"class.altered_carbon::js::JsValueRef"* %ptr1220)
  %ptr1224 = alloca %"class.altered_carbon::js::JsValueRef", align 8
  call void @_ZN14altered_carbon2js10JsValueRefC1Ev(%"class.altered_carbon::js::JsValueRef"* %ptr1224)
  %ptr1228 = alloca %"class.altered_carbon::js::JsValueRef", align 8
  call void @_ZN14altered_carbon2js10JsValueRefC1Ev(%"class.altered_carbon::js::JsValueRef"* %ptr1228)
  %ptr1229 = alloca %"class.altered_carbon::js::JsValueRef", align 8
  call void @_ZN14altered_carbon2js10JsValueRefC1Ev(%"class.altered_carbon::js::JsValueRef"* %ptr1229)
  %ptr1230 = alloca %"class.altered_carbon::js::JsValueRef", align 8
  call void @_ZN14altered_carbon2js10JsValueRefC1Ev(%"class.altered_carbon::js::JsValueRef"* %ptr1230)
  %ptr1234 = alloca %"class.altered_carbon::js::JsValueRef", align 8
  call void @_ZN14altered_carbon2js10JsValueRefC1Ev(%"class.altered_carbon::js::JsValueRef"* %ptr1234)
  %ptr1238 = alloca %"class.altered_carbon::js::JsValueRef", align 8
  call void @_ZN14altered_carbon2js10JsValueRefC1Ev(%"class.altered_carbon::js::JsValueRef"* %ptr1238)
  %ptr1239 = alloca %"class.altered_carbon::js::JsValueRef", align 8
  call void @_ZN14altered_carbon2js10JsValueRefC1Ev(%"class.altered_carbon::js::JsValueRef"* %ptr1239)
  %ptr1240 = alloca %"class.altered_carbon::js::JsValueRef", align 8
  call void @_ZN14altered_carbon2js10JsValueRefC1Ev(%"class.altered_carbon::js::JsValueRef"* %ptr1240)
  %ptr1244 = alloca %"class.altered_carbon::js::JsValueRef", align 8
  call void @_ZN14altered_carbon2js10JsValueRefC1Ev(%"class.altered_carbon::js::JsValueRef"* %ptr1244)
  %ptr1248 = alloca %"class.altered_carbon::js::JsValueRef", align 8
  call void @_ZN14altered_carbon2js10JsValueRefC1Ev(%"class.altered_carbon::js::JsValueRef"* %ptr1248)
  %ptr1249 = alloca %"class.altered_carbon::js::JsValueRef", align 8
  call void @_ZN14altered_carbon2js10JsValueRefC1Ev(%"class.altered_carbon::js::JsValueRef"* %ptr1249)
  %ptr1250 = alloca %"class.altered_carbon::js::JsValueRef", align 8
  call void @_ZN14altered_carbon2js10JsValueRefC1Ev(%"class.altered_carbon::js::JsValueRef"* %ptr1250)
  %ptr1254 = alloca %"class.altered_carbon::js::JsValueRef", align 8
  call void @_ZN14altered_carbon2js10JsValueRefC1Ev(%"class.altered_carbon::js::JsValueRef"* %ptr1254)
  %ptr1258 = alloca %"class.altered_carbon::js::JsValueRef", align 8
  call void @_ZN14altered_carbon2js10JsValueRefC1Ev(%"class.altered_carbon::js::JsValueRef"* %ptr1258)
  %ptr1259 = alloca %"class.altered_carbon::js::JsValueRef", align 8
  call void @_ZN14altered_carbon2js10JsValueRefC1Ev(%"class.altered_carbon::js::JsValueRef"* %ptr1259)
  %ptr1260 = alloca %"class.altered_carbon::js::JsValueRef", align 8
  call void @_ZN14altered_carbon2js10JsValueRefC1Ev(%"class.altered_carbon::js::JsValueRef"* %ptr1260)
  %ptr1264 = alloca %"class.altered_carbon::js::JsValueRef", align 8
  call void @_ZN14altered_carbon2js10JsValueRefC1Ev(%"class.altered_carbon::js::JsValueRef"* %ptr1264)
  %ptr1265 = alloca %"class.altered_carbon::js::JsValueRef", align 8
  call void @_ZN14altered_carbon2js10JsValueRefC1Ev(%"class.altered_carbon::js::JsValueRef"* %ptr1265)
  %ptr1269 = alloca %"class.altered_carbon::js::JsValueRef", align 8
  call void @_ZN14altered_carbon2js10JsValueRefC1Ev(%"class.altered_carbon::js::JsValueRef"* %ptr1269)
  %ptr1273 = alloca %"class.altered_carbon::js::JsValueRef", align 8
  call void @_ZN14altered_carbon2js10JsValueRefC1Ev(%"class.altered_carbon::js::JsValueRef"* %ptr1273)
  %ptr1274 = alloca %"class.altered_carbon::js::JsValueRef", align 8
  call void @_ZN14altered_carbon2js10JsValueRefC1Ev(%"class.altered_carbon::js::JsValueRef"* %ptr1274)
  %ptr1275 = alloca %"class.altered_carbon::js::JsValueRef", align 8
  call void @_ZN14altered_carbon2js10JsValueRefC1Ev(%"class.altered_carbon::js::JsValueRef"* %ptr1275)
  %ptr1279 = alloca %"class.altered_carbon::js::JsValueRef", align 8
  call void @_ZN14altered_carbon2js10JsValueRefC1Ev(%"class.altered_carbon::js::JsValueRef"* %ptr1279)
  %ptr1283 = alloca %"class.altered_carbon::js::JsValueRef", align 8
  call void @_ZN14altered_carbon2js10JsValueRefC1Ev(%"class.altered_carbon::js::JsValueRef"* %ptr1283)
  %ptr1284 = alloca %"class.altered_carbon::js::JsValueRef", align 8
  call void @_ZN14altered_carbon2js10JsValueRefC1Ev(%"class.altered_carbon::js::JsValueRef"* %ptr1284)
  %ptr1285 = alloca %"class.altered_carbon::js::JsValueRef", align 8
  call void @_ZN14altered_carbon2js10JsValueRefC1Ev(%"class.altered_carbon::js::JsValueRef"* %ptr1285)
  %ptr1289 = alloca %"class.altered_carbon::js::JsValueRef", align 8
  call void @_ZN14altered_carbon2js10JsValueRefC1Ev(%"class.altered_carbon::js::JsValueRef"* %ptr1289)
  %ptr1293 = alloca %"class.altered_carbon::js::JsValueRef", align 8
  call void @_ZN14altered_carbon2js10JsValueRefC1Ev(%"class.altered_carbon::js::JsValueRef"* %ptr1293)
  %ptr1294 = alloca %"class.altered_carbon::js::JsValueRef", align 8
  call void @_ZN14altered_carbon2js10JsValueRefC1Ev(%"class.altered_carbon::js::JsValueRef"* %ptr1294)
  %ptr1295 = alloca %"class.altered_carbon::js::JsValueRef", align 8
  call void @_ZN14altered_carbon2js10JsValueRefC1Ev(%"class.altered_carbon::js::JsValueRef"* %ptr1295)
  %ptr1299 = alloca %"class.altered_carbon::js::JsValueRef", align 8
  call void @_ZN14altered_carbon2js10JsValueRefC1Ev(%"class.altered_carbon::js::JsValueRef"* %ptr1299)
  %ptr1303 = alloca %"class.altered_carbon::js::JsValueRef", align 8
  call void @_ZN14altered_carbon2js10JsValueRefC1Ev(%"class.altered_carbon::js::JsValueRef"* %ptr1303)
  %ptr1304 = alloca %"class.altered_carbon::js::JsValueRef", align 8
  call void @_ZN14altered_carbon2js10JsValueRefC1Ev(%"class.altered_carbon::js::JsValueRef"* %ptr1304)
  %ptr1305 = alloca %"class.altered_carbon::js::JsValueRef", align 8
  call void @_ZN14altered_carbon2js10JsValueRefC1Ev(%"class.altered_carbon::js::JsValueRef"* %ptr1305)
  %ptr1309 = alloca %"class.altered_carbon::js::JsValueRef", align 8
  call void @_ZN14altered_carbon2js10JsValueRefC1Ev(%"class.altered_carbon::js::JsValueRef"* %ptr1309)
  %ptr1313 = alloca %"class.altered_carbon::js::JsValueRef", align 8
  call void @_ZN14altered_carbon2js10JsValueRefC1Ev(%"class.altered_carbon::js::JsValueRef"* %ptr1313)
  %ptr1314 = alloca %"class.altered_carbon::js::JsValueRef", align 8
  call void @_ZN14altered_carbon2js10JsValueRefC1Ev(%"class.altered_carbon::js::JsValueRef"* %ptr1314)
  %ptr1315 = alloca %"class.altered_carbon::js::JsValueRef", align 8
  call void @_ZN14altered_carbon2js10JsValueRefC1Ev(%"class.altered_carbon::js::JsValueRef"* %ptr1315)
  %ptr1319 = alloca %"class.altered_carbon::js::JsValueRef", align 8
  call void @_ZN14altered_carbon2js10JsValueRefC1Ev(%"class.altered_carbon::js::JsValueRef"* %ptr1319)
  %ptr1320 = alloca %"class.altered_carbon::js::JsValueRef", align 8
  call void @_ZN14altered_carbon2js10JsValueRefC1Ev(%"class.altered_carbon::js::JsValueRef"* %ptr1320)
  %ptr1324 = alloca %"class.altered_carbon::js::JsValueRef", align 8
  call void @_ZN14altered_carbon2js10JsValueRefC1Ev(%"class.altered_carbon::js::JsValueRef"* %ptr1324)
  %ptr1328 = alloca %"class.altered_carbon::js::JsValueRef", align 8
  call void @_ZN14altered_carbon2js10JsValueRefC1Ev(%"class.altered_carbon::js::JsValueRef"* %ptr1328)
  %ptr1329 = alloca %"class.altered_carbon::js::JsValueRef", align 8
  call void @_ZN14altered_carbon2js10JsValueRefC1Ev(%"class.altered_carbon::js::JsValueRef"* %ptr1329)
  %ptr1330 = alloca %"class.altered_carbon::js::JsValueRef", align 8
  call void @_ZN14altered_carbon2js10JsValueRefC1Ev(%"class.altered_carbon::js::JsValueRef"* %ptr1330)
  %ptr1334 = alloca %"class.altered_carbon::js::JsValueRef", align 8
  call void @_ZN14altered_carbon2js10JsValueRefC1Ev(%"class.altered_carbon::js::JsValueRef"* %ptr1334)
  %ptr1338 = alloca %"class.altered_carbon::js::JsValueRef", align 8
  call void @_ZN14altered_carbon2js10JsValueRefC1Ev(%"class.altered_carbon::js::JsValueRef"* %ptr1338)
  %ptr1339 = alloca %"class.altered_carbon::js::JsValueRef", align 8
  call void @_ZN14altered_carbon2js10JsValueRefC1Ev(%"class.altered_carbon::js::JsValueRef"* %ptr1339)
  %ptr1340 = alloca %"class.altered_carbon::js::JsValueRef", align 8
  call void @_ZN14altered_carbon2js10JsValueRefC1Ev(%"class.altered_carbon::js::JsValueRef"* %ptr1340)
  %ptr1344 = alloca %"class.altered_carbon::js::JsValueRef", align 8
  call void @_ZN14altered_carbon2js10JsValueRefC1Ev(%"class.altered_carbon::js::JsValueRef"* %ptr1344)
  %ptr1348 = alloca %"class.altered_carbon::js::JsValueRef", align 8
  call void @_ZN14altered_carbon2js10JsValueRefC1Ev(%"class.altered_carbon::js::JsValueRef"* %ptr1348)
  %ptr1349 = alloca %"class.altered_carbon::js::JsValueRef", align 8
  call void @_ZN14altered_carbon2js10JsValueRefC1Ev(%"class.altered_carbon::js::JsValueRef"* %ptr1349)
  %ptr1350 = alloca %"class.altered_carbon::js::JsValueRef", align 8
  call void @_ZN14altered_carbon2js10JsValueRefC1Ev(%"class.altered_carbon::js::JsValueRef"* %ptr1350)
  %ptr1354 = alloca %"class.altered_carbon::js::JsValueRef", align 8
  call void @_ZN14altered_carbon2js10JsValueRefC1Ev(%"class.altered_carbon::js::JsValueRef"* %ptr1354)
  %ptr1358 = alloca %"class.altered_carbon::js::JsValueRef", align 8
  call void @_ZN14altered_carbon2js10JsValueRefC1Ev(%"class.altered_carbon::js::JsValueRef"* %ptr1358)
  %ptr1359 = alloca %"class.altered_carbon::js::JsValueRef", align 8
  call void @_ZN14altered_carbon2js10JsValueRefC1Ev(%"class.altered_carbon::js::JsValueRef"* %ptr1359)
  %ptr1360 = alloca %"class.altered_carbon::js::JsValueRef", align 8
  call void @_ZN14altered_carbon2js10JsValueRefC1Ev(%"class.altered_carbon::js::JsValueRef"* %ptr1360)
  %ptr1364 = alloca %"class.altered_carbon::js::JsValueRef", align 8
  call void @_ZN14altered_carbon2js10JsValueRefC1Ev(%"class.altered_carbon::js::JsValueRef"* %ptr1364)
  %ptr1368 = alloca %"class.altered_carbon::js::JsValueRef", align 8
  call void @_ZN14altered_carbon2js10JsValueRefC1Ev(%"class.altered_carbon::js::JsValueRef"* %ptr1368)
  %ptr1369 = alloca %"class.altered_carbon::js::JsValueRef", align 8
  call void @_ZN14altered_carbon2js10JsValueRefC1Ev(%"class.altered_carbon::js::JsValueRef"* %ptr1369)
  %ptr1370 = alloca %"class.altered_carbon::js::JsValueRef", align 8
  call void @_ZN14altered_carbon2js10JsValueRefC1Ev(%"class.altered_carbon::js::JsValueRef"* %ptr1370)
  %ptr1374 = alloca %"class.altered_carbon::js::JsValueRef", align 8
  call void @_ZN14altered_carbon2js10JsValueRefC1Ev(%"class.altered_carbon::js::JsValueRef"* %ptr1374)
  %ptr1375 = alloca %"class.altered_carbon::js::JsValueRef", align 8
  call void @_ZN14altered_carbon2js10JsValueRefC1Ev(%"class.altered_carbon::js::JsValueRef"* %ptr1375)
  %ptr1379 = alloca %"class.altered_carbon::js::JsValueRef", align 8
  call void @_ZN14altered_carbon2js10JsValueRefC1Ev(%"class.altered_carbon::js::JsValueRef"* %ptr1379)
  %ptr1383 = alloca %"class.altered_carbon::js::JsValueRef", align 8
  call void @_ZN14altered_carbon2js10JsValueRefC1Ev(%"class.altered_carbon::js::JsValueRef"* %ptr1383)
  %ptr1384 = alloca %"class.altered_carbon::js::JsValueRef", align 8
  call void @_ZN14altered_carbon2js10JsValueRefC1Ev(%"class.altered_carbon::js::JsValueRef"* %ptr1384)
  %ptr1385 = alloca %"class.altered_carbon::js::JsValueRef", align 8
  call void @_ZN14altered_carbon2js10JsValueRefC1Ev(%"class.altered_carbon::js::JsValueRef"* %ptr1385)
  %ptr1389 = alloca %"class.altered_carbon::js::JsValueRef", align 8
  call void @_ZN14altered_carbon2js10JsValueRefC1Ev(%"class.altered_carbon::js::JsValueRef"* %ptr1389)
  %ptr1393 = alloca %"class.altered_carbon::js::JsValueRef", align 8
  call void @_ZN14altered_carbon2js10JsValueRefC1Ev(%"class.altered_carbon::js::JsValueRef"* %ptr1393)
  %ptr1394 = alloca %"class.altered_carbon::js::JsValueRef", align 8
  call void @_ZN14altered_carbon2js10JsValueRefC1Ev(%"class.altered_carbon::js::JsValueRef"* %ptr1394)
  %ptr1395 = alloca %"class.altered_carbon::js::JsValueRef", align 8
  call void @_ZN14altered_carbon2js10JsValueRefC1Ev(%"class.altered_carbon::js::JsValueRef"* %ptr1395)
  %ptr1399 = alloca %"class.altered_carbon::js::JsValueRef", align 8
  call void @_ZN14altered_carbon2js10JsValueRefC1Ev(%"class.altered_carbon::js::JsValueRef"* %ptr1399)
  %ptr1403 = alloca %"class.altered_carbon::js::JsValueRef", align 8
  call void @_ZN14altered_carbon2js10JsValueRefC1Ev(%"class.altered_carbon::js::JsValueRef"* %ptr1403)
  %ptr1404 = alloca %"class.altered_carbon::js::JsValueRef", align 8
  call void @_ZN14altered_carbon2js10JsValueRefC1Ev(%"class.altered_carbon::js::JsValueRef"* %ptr1404)
  %ptr1405 = alloca %"class.altered_carbon::js::JsValueRef", align 8
  call void @_ZN14altered_carbon2js10JsValueRefC1Ev(%"class.altered_carbon::js::JsValueRef"* %ptr1405)
  %ptr1409 = alloca %"class.altered_carbon::js::JsValueRef", align 8
  call void @_ZN14altered_carbon2js10JsValueRefC1Ev(%"class.altered_carbon::js::JsValueRef"* %ptr1409)
  %ptr1413 = alloca %"class.altered_carbon::js::JsValueRef", align 8
  call void @_ZN14altered_carbon2js10JsValueRefC1Ev(%"class.altered_carbon::js::JsValueRef"* %ptr1413)
  %ptr1414 = alloca %"class.altered_carbon::js::JsValueRef", align 8
  call void @_ZN14altered_carbon2js10JsValueRefC1Ev(%"class.altered_carbon::js::JsValueRef"* %ptr1414)
  %ptr1415 = alloca %"class.altered_carbon::js::JsValueRef", align 8
  call void @_ZN14altered_carbon2js10JsValueRefC1Ev(%"class.altered_carbon::js::JsValueRef"* %ptr1415)
  %ptr1419 = alloca %"class.altered_carbon::js::JsValueRef", align 8
  call void @_ZN14altered_carbon2js10JsValueRefC1Ev(%"class.altered_carbon::js::JsValueRef"* %ptr1419)
  %ptr1423 = alloca %"class.altered_carbon::js::JsValueRef", align 8
  call void @_ZN14altered_carbon2js10JsValueRefC1Ev(%"class.altered_carbon::js::JsValueRef"* %ptr1423)
  %ptr1424 = alloca %"class.altered_carbon::js::JsValueRef", align 8
  call void @_ZN14altered_carbon2js10JsValueRefC1Ev(%"class.altered_carbon::js::JsValueRef"* %ptr1424)
  %ptr1425 = alloca %"class.altered_carbon::js::JsValueRef", align 8
  call void @_ZN14altered_carbon2js10JsValueRefC1Ev(%"class.altered_carbon::js::JsValueRef"* %ptr1425)
  %ptr1429 = alloca %"class.altered_carbon::js::JsValueRef", align 8
  call void @_ZN14altered_carbon2js10JsValueRefC1Ev(%"class.altered_carbon::js::JsValueRef"* %ptr1429)
  %ptr1430 = alloca %"class.altered_carbon::js::JsValueRef", align 8
  call void @_ZN14altered_carbon2js10JsValueRefC1Ev(%"class.altered_carbon::js::JsValueRef"* %ptr1430)
  %ptr1434 = alloca %"class.altered_carbon::js::JsValueRef", align 8
  call void @_ZN14altered_carbon2js10JsValueRefC1Ev(%"class.altered_carbon::js::JsValueRef"* %ptr1434)
  %ptr1438 = alloca %"class.altered_carbon::js::JsValueRef", align 8
  call void @_ZN14altered_carbon2js10JsValueRefC1Ev(%"class.altered_carbon::js::JsValueRef"* %ptr1438)
  %ptr1439 = alloca %"class.altered_carbon::js::JsValueRef", align 8
  call void @_ZN14altered_carbon2js10JsValueRefC1Ev(%"class.altered_carbon::js::JsValueRef"* %ptr1439)
  %ptr1440 = alloca %"class.altered_carbon::js::JsValueRef", align 8
  call void @_ZN14altered_carbon2js10JsValueRefC1Ev(%"class.altered_carbon::js::JsValueRef"* %ptr1440)
  %ptr1444 = alloca %"class.altered_carbon::js::JsValueRef", align 8
  call void @_ZN14altered_carbon2js10JsValueRefC1Ev(%"class.altered_carbon::js::JsValueRef"* %ptr1444)
  %ptr1448 = alloca %"class.altered_carbon::js::JsValueRef", align 8
  call void @_ZN14altered_carbon2js10JsValueRefC1Ev(%"class.altered_carbon::js::JsValueRef"* %ptr1448)
  %ptr1449 = alloca %"class.altered_carbon::js::JsValueRef", align 8
  call void @_ZN14altered_carbon2js10JsValueRefC1Ev(%"class.altered_carbon::js::JsValueRef"* %ptr1449)
  %ptr1450 = alloca %"class.altered_carbon::js::JsValueRef", align 8
  call void @_ZN14altered_carbon2js10JsValueRefC1Ev(%"class.altered_carbon::js::JsValueRef"* %ptr1450)
  %ptr1454 = alloca %"class.altered_carbon::js::JsValueRef", align 8
  call void @_ZN14altered_carbon2js10JsValueRefC1Ev(%"class.altered_carbon::js::JsValueRef"* %ptr1454)
  %ptr1458 = alloca %"class.altered_carbon::js::JsValueRef", align 8
  call void @_ZN14altered_carbon2js10JsValueRefC1Ev(%"class.altered_carbon::js::JsValueRef"* %ptr1458)
  %ptr1459 = alloca %"class.altered_carbon::js::JsValueRef", align 8
  call void @_ZN14altered_carbon2js10JsValueRefC1Ev(%"class.altered_carbon::js::JsValueRef"* %ptr1459)
  %ptr1460 = alloca %"class.altered_carbon::js::JsValueRef", align 8
  call void @_ZN14altered_carbon2js10JsValueRefC1Ev(%"class.altered_carbon::js::JsValueRef"* %ptr1460)
  %ptr1464 = alloca %"class.altered_carbon::js::JsValueRef", align 8
  call void @_ZN14altered_carbon2js10JsValueRefC1Ev(%"class.altered_carbon::js::JsValueRef"* %ptr1464)
  %ptr1468 = alloca %"class.altered_carbon::js::JsValueRef", align 8
  call void @_ZN14altered_carbon2js10JsValueRefC1Ev(%"class.altered_carbon::js::JsValueRef"* %ptr1468)
  %ptr1469 = alloca %"class.altered_carbon::js::JsValueRef", align 8
  call void @_ZN14altered_carbon2js10JsValueRefC1Ev(%"class.altered_carbon::js::JsValueRef"* %ptr1469)
  %ptr1470 = alloca %"class.altered_carbon::js::JsValueRef", align 8
  call void @_ZN14altered_carbon2js10JsValueRefC1Ev(%"class.altered_carbon::js::JsValueRef"* %ptr1470)
  %ptr1474 = alloca %"class.altered_carbon::js::JsValueRef", align 8
  call void @_ZN14altered_carbon2js10JsValueRefC1Ev(%"class.altered_carbon::js::JsValueRef"* %ptr1474)
  %ptr1478 = alloca %"class.altered_carbon::js::JsValueRef", align 8
  call void @_ZN14altered_carbon2js10JsValueRefC1Ev(%"class.altered_carbon::js::JsValueRef"* %ptr1478)
  %ptr1479 = alloca %"class.altered_carbon::js::JsValueRef", align 8
  call void @_ZN14altered_carbon2js10JsValueRefC1Ev(%"class.altered_carbon::js::JsValueRef"* %ptr1479)
  %ptr1480 = alloca %"class.altered_carbon::js::JsValueRef", align 8
  call void @_ZN14altered_carbon2js10JsValueRefC1Ev(%"class.altered_carbon::js::JsValueRef"* %ptr1480)
  %ptr1484 = alloca %"class.altered_carbon::js::JsValueRef", align 8
  call void @_ZN14altered_carbon2js10JsValueRefC1Ev(%"class.altered_carbon::js::JsValueRef"* %ptr1484)
  %ptr1485 = alloca %"class.altered_carbon::js::JsValueRef", align 8
  call void @_ZN14altered_carbon2js10JsValueRefC1Ev(%"class.altered_carbon::js::JsValueRef"* %ptr1485)
  %ptr1489 = alloca %"class.altered_carbon::js::JsValueRef", align 8
  call void @_ZN14altered_carbon2js10JsValueRefC1Ev(%"class.altered_carbon::js::JsValueRef"* %ptr1489)
  %ptr1493 = alloca %"class.altered_carbon::js::JsValueRef", align 8
  call void @_ZN14altered_carbon2js10JsValueRefC1Ev(%"class.altered_carbon::js::JsValueRef"* %ptr1493)
  %ptr1494 = alloca %"class.altered_carbon::js::JsValueRef", align 8
  call void @_ZN14altered_carbon2js10JsValueRefC1Ev(%"class.altered_carbon::js::JsValueRef"* %ptr1494)
  %ptr1495 = alloca %"class.altered_carbon::js::JsValueRef", align 8
  call void @_ZN14altered_carbon2js10JsValueRefC1Ev(%"class.altered_carbon::js::JsValueRef"* %ptr1495)
  %ptr1499 = alloca %"class.altered_carbon::js::JsValueRef", align 8
  call void @_ZN14altered_carbon2js10JsValueRefC1Ev(%"class.altered_carbon::js::JsValueRef"* %ptr1499)
  %ptr1503 = alloca %"class.altered_carbon::js::JsValueRef", align 8
  call void @_ZN14altered_carbon2js10JsValueRefC1Ev(%"class.altered_carbon::js::JsValueRef"* %ptr1503)
  %ptr1504 = alloca %"class.altered_carbon::js::JsValueRef", align 8
  call void @_ZN14altered_carbon2js10JsValueRefC1Ev(%"class.altered_carbon::js::JsValueRef"* %ptr1504)
  %ptr1505 = alloca %"class.altered_carbon::js::JsValueRef", align 8
  call void @_ZN14altered_carbon2js10JsValueRefC1Ev(%"class.altered_carbon::js::JsValueRef"* %ptr1505)
  %ptr1509 = alloca %"class.altered_carbon::js::JsValueRef", align 8
  call void @_ZN14altered_carbon2js10JsValueRefC1Ev(%"class.altered_carbon::js::JsValueRef"* %ptr1509)
  %ptr1513 = alloca %"class.altered_carbon::js::JsValueRef", align 8
  call void @_ZN14altered_carbon2js10JsValueRefC1Ev(%"class.altered_carbon::js::JsValueRef"* %ptr1513)
  %ptr1514 = alloca %"class.altered_carbon::js::JsValueRef", align 8
  call void @_ZN14altered_carbon2js10JsValueRefC1Ev(%"class.altered_carbon::js::JsValueRef"* %ptr1514)
  %ptr1515 = alloca %"class.altered_carbon::js::JsValueRef", align 8
  call void @_ZN14altered_carbon2js10JsValueRefC1Ev(%"class.altered_carbon::js::JsValueRef"* %ptr1515)
  %ptr1519 = alloca %"class.altered_carbon::js::JsValueRef", align 8
  call void @_ZN14altered_carbon2js10JsValueRefC1Ev(%"class.altered_carbon::js::JsValueRef"* %ptr1519)
  %ptr1523 = alloca %"class.altered_carbon::js::JsValueRef", align 8
  call void @_ZN14altered_carbon2js10JsValueRefC1Ev(%"class.altered_carbon::js::JsValueRef"* %ptr1523)
  %ptr1524 = alloca %"class.altered_carbon::js::JsValueRef", align 8
  call void @_ZN14altered_carbon2js10JsValueRefC1Ev(%"class.altered_carbon::js::JsValueRef"* %ptr1524)
  %ptr1525 = alloca %"class.altered_carbon::js::JsValueRef", align 8
  call void @_ZN14altered_carbon2js10JsValueRefC1Ev(%"class.altered_carbon::js::JsValueRef"* %ptr1525)
  %ptr1529 = alloca %"class.altered_carbon::js::JsValueRef", align 8
  call void @_ZN14altered_carbon2js10JsValueRefC1Ev(%"class.altered_carbon::js::JsValueRef"* %ptr1529)
  %ptr1533 = alloca %"class.altered_carbon::js::JsValueRef", align 8
  call void @_ZN14altered_carbon2js10JsValueRefC1Ev(%"class.altered_carbon::js::JsValueRef"* %ptr1533)
  %ptr1534 = alloca %"class.altered_carbon::js::JsValueRef", align 8
  call void @_ZN14altered_carbon2js10JsValueRefC1Ev(%"class.altered_carbon::js::JsValueRef"* %ptr1534)
  %ptr1535 = alloca %"class.altered_carbon::js::JsValueRef", align 8
  call void @_ZN14altered_carbon2js10JsValueRefC1Ev(%"class.altered_carbon::js::JsValueRef"* %ptr1535)
  %ptr1539 = alloca %"class.altered_carbon::js::JsValueRef", align 8
  call void @_ZN14altered_carbon2js10JsValueRefC1Ev(%"class.altered_carbon::js::JsValueRef"* %ptr1539)
  %ptr1540 = alloca %"class.altered_carbon::js::JsValueRef", align 8
  call void @_ZN14altered_carbon2js10JsValueRefC1Ev(%"class.altered_carbon::js::JsValueRef"* %ptr1540)
  %ptr1544 = alloca %"class.altered_carbon::js::JsValueRef", align 8
  call void @_ZN14altered_carbon2js10JsValueRefC1Ev(%"class.altered_carbon::js::JsValueRef"* %ptr1544)
  %ptr1548 = alloca %"class.altered_carbon::js::JsValueRef", align 8
  call void @_ZN14altered_carbon2js10JsValueRefC1Ev(%"class.altered_carbon::js::JsValueRef"* %ptr1548)
  %ptr1549 = alloca %"class.altered_carbon::js::JsValueRef", align 8
  call void @_ZN14altered_carbon2js10JsValueRefC1Ev(%"class.altered_carbon::js::JsValueRef"* %ptr1549)
  %ptr1550 = alloca %"class.altered_carbon::js::JsValueRef", align 8
  call void @_ZN14altered_carbon2js10JsValueRefC1Ev(%"class.altered_carbon::js::JsValueRef"* %ptr1550)
  %ptr1554 = alloca %"class.altered_carbon::js::JsValueRef", align 8
  call void @_ZN14altered_carbon2js10JsValueRefC1Ev(%"class.altered_carbon::js::JsValueRef"* %ptr1554)
  %ptr1558 = alloca %"class.altered_carbon::js::JsValueRef", align 8
  call void @_ZN14altered_carbon2js10JsValueRefC1Ev(%"class.altered_carbon::js::JsValueRef"* %ptr1558)
  %ptr1559 = alloca %"class.altered_carbon::js::JsValueRef", align 8
  call void @_ZN14altered_carbon2js10JsValueRefC1Ev(%"class.altered_carbon::js::JsValueRef"* %ptr1559)
  %ptr1560 = alloca %"class.altered_carbon::js::JsValueRef", align 8
  call void @_ZN14altered_carbon2js10JsValueRefC1Ev(%"class.altered_carbon::js::JsValueRef"* %ptr1560)
  %ptr1564 = alloca %"class.altered_carbon::js::JsValueRef", align 8
  call void @_ZN14altered_carbon2js10JsValueRefC1Ev(%"class.altered_carbon::js::JsValueRef"* %ptr1564)
  %ptr1568 = alloca %"class.altered_carbon::js::JsValueRef", align 8
  call void @_ZN14altered_carbon2js10JsValueRefC1Ev(%"class.altered_carbon::js::JsValueRef"* %ptr1568)
  %ptr1569 = alloca %"class.altered_carbon::js::JsValueRef", align 8
  call void @_ZN14altered_carbon2js10JsValueRefC1Ev(%"class.altered_carbon::js::JsValueRef"* %ptr1569)
  %ptr1570 = alloca %"class.altered_carbon::js::JsValueRef", align 8
  call void @_ZN14altered_carbon2js10JsValueRefC1Ev(%"class.altered_carbon::js::JsValueRef"* %ptr1570)
  %ptr1574 = alloca %"class.altered_carbon::js::JsValueRef", align 8
  call void @_ZN14altered_carbon2js10JsValueRefC1Ev(%"class.altered_carbon::js::JsValueRef"* %ptr1574)
  %ptr1578 = alloca %"class.altered_carbon::js::JsValueRef", align 8
  call void @_ZN14altered_carbon2js10JsValueRefC1Ev(%"class.altered_carbon::js::JsValueRef"* %ptr1578)
  %ptr1579 = alloca %"class.altered_carbon::js::JsValueRef", align 8
  call void @_ZN14altered_carbon2js10JsValueRefC1Ev(%"class.altered_carbon::js::JsValueRef"* %ptr1579)
  %ptr1580 = alloca %"class.altered_carbon::js::JsValueRef", align 8
  call void @_ZN14altered_carbon2js10JsValueRefC1Ev(%"class.altered_carbon::js::JsValueRef"* %ptr1580)
  %ptr1584 = alloca %"class.altered_carbon::js::JsValueRef", align 8
  call void @_ZN14altered_carbon2js10JsValueRefC1Ev(%"class.altered_carbon::js::JsValueRef"* %ptr1584)
  %ptr1588 = alloca %"class.altered_carbon::js::JsValueRef", align 8
  call void @_ZN14altered_carbon2js10JsValueRefC1Ev(%"class.altered_carbon::js::JsValueRef"* %ptr1588)
  %ptr1589 = alloca %"class.altered_carbon::js::JsValueRef", align 8
  call void @_ZN14altered_carbon2js10JsValueRefC1Ev(%"class.altered_carbon::js::JsValueRef"* %ptr1589)
  %ptr1590 = alloca %"class.altered_carbon::js::JsValueRef", align 8
  call void @_ZN14altered_carbon2js10JsValueRefC1Ev(%"class.altered_carbon::js::JsValueRef"* %ptr1590)
  %ptr1594 = alloca %"class.altered_carbon::js::JsValueRef", align 8
  call void @_ZN14altered_carbon2js10JsValueRefC1Ev(%"class.altered_carbon::js::JsValueRef"* %ptr1594)
  %ptr1595 = alloca %"class.altered_carbon::js::JsValueRef", align 8
  call void @_ZN14altered_carbon2js10JsValueRefC1Ev(%"class.altered_carbon::js::JsValueRef"* %ptr1595)
  %ptr1599 = alloca %"class.altered_carbon::js::JsValueRef", align 8
  call void @_ZN14altered_carbon2js10JsValueRefC1Ev(%"class.altered_carbon::js::JsValueRef"* %ptr1599)
  %ptr1603 = alloca %"class.altered_carbon::js::JsValueRef", align 8
  call void @_ZN14altered_carbon2js10JsValueRefC1Ev(%"class.altered_carbon::js::JsValueRef"* %ptr1603)
  %ptr1604 = alloca %"class.altered_carbon::js::JsValueRef", align 8
  call void @_ZN14altered_carbon2js10JsValueRefC1Ev(%"class.altered_carbon::js::JsValueRef"* %ptr1604)
  %ptr1605 = alloca %"class.altered_carbon::js::JsValueRef", align 8
  call void @_ZN14altered_carbon2js10JsValueRefC1Ev(%"class.altered_carbon::js::JsValueRef"* %ptr1605)
  %ptr1609 = alloca %"class.altered_carbon::js::JsValueRef", align 8
  call void @_ZN14altered_carbon2js10JsValueRefC1Ev(%"class.altered_carbon::js::JsValueRef"* %ptr1609)
  %ptr1613 = alloca %"class.altered_carbon::js::JsValueRef", align 8
  call void @_ZN14altered_carbon2js10JsValueRefC1Ev(%"class.altered_carbon::js::JsValueRef"* %ptr1613)
  %ptr1614 = alloca %"class.altered_carbon::js::JsValueRef", align 8
  call void @_ZN14altered_carbon2js10JsValueRefC1Ev(%"class.altered_carbon::js::JsValueRef"* %ptr1614)
  %ptr1615 = alloca %"class.altered_carbon::js::JsValueRef", align 8
  call void @_ZN14altered_carbon2js10JsValueRefC1Ev(%"class.altered_carbon::js::JsValueRef"* %ptr1615)
  %ptr1619 = alloca %"class.altered_carbon::js::JsValueRef", align 8
  call void @_ZN14altered_carbon2js10JsValueRefC1Ev(%"class.altered_carbon::js::JsValueRef"* %ptr1619)
  %ptr1623 = alloca %"class.altered_carbon::js::JsValueRef", align 8
  call void @_ZN14altered_carbon2js10JsValueRefC1Ev(%"class.altered_carbon::js::JsValueRef"* %ptr1623)
  %ptr1624 = alloca %"class.altered_carbon::js::JsValueRef", align 8
  call void @_ZN14altered_carbon2js10JsValueRefC1Ev(%"class.altered_carbon::js::JsValueRef"* %ptr1624)
  %ptr1625 = alloca %"class.altered_carbon::js::JsValueRef", align 8
  call void @_ZN14altered_carbon2js10JsValueRefC1Ev(%"class.altered_carbon::js::JsValueRef"* %ptr1625)
  %ptr1629 = alloca %"class.altered_carbon::js::JsValueRef", align 8
  call void @_ZN14altered_carbon2js10JsValueRefC1Ev(%"class.altered_carbon::js::JsValueRef"* %ptr1629)
  %ptr1633 = alloca %"class.altered_carbon::js::JsValueRef", align 8
  call void @_ZN14altered_carbon2js10JsValueRefC1Ev(%"class.altered_carbon::js::JsValueRef"* %ptr1633)
  %ptr1634 = alloca %"class.altered_carbon::js::JsValueRef", align 8
  call void @_ZN14altered_carbon2js10JsValueRefC1Ev(%"class.altered_carbon::js::JsValueRef"* %ptr1634)
  %ptr1635 = alloca %"class.altered_carbon::js::JsValueRef", align 8
  call void @_ZN14altered_carbon2js10JsValueRefC1Ev(%"class.altered_carbon::js::JsValueRef"* %ptr1635)
  %ptr1639 = alloca %"class.altered_carbon::js::JsValueRef", align 8
  call void @_ZN14altered_carbon2js10JsValueRefC1Ev(%"class.altered_carbon::js::JsValueRef"* %ptr1639)
  %ptr1643 = alloca %"class.altered_carbon::js::JsValueRef", align 8
  call void @_ZN14altered_carbon2js10JsValueRefC1Ev(%"class.altered_carbon::js::JsValueRef"* %ptr1643)
  %ptr1644 = alloca %"class.altered_carbon::js::JsValueRef", align 8
  call void @_ZN14altered_carbon2js10JsValueRefC1Ev(%"class.altered_carbon::js::JsValueRef"* %ptr1644)
  %ptr1645 = alloca %"class.altered_carbon::js::JsValueRef", align 8
  call void @_ZN14altered_carbon2js10JsValueRefC1Ev(%"class.altered_carbon::js::JsValueRef"* %ptr1645)
  %ptr1649 = alloca %"class.altered_carbon::js::JsValueRef", align 8
  call void @_ZN14altered_carbon2js10JsValueRefC1Ev(%"class.altered_carbon::js::JsValueRef"* %ptr1649)
  %ptr1650 = alloca %"class.altered_carbon::js::JsValueRef", align 8
  call void @_ZN14altered_carbon2js10JsValueRefC1Ev(%"class.altered_carbon::js::JsValueRef"* %ptr1650)
  %ptr1654 = alloca %"class.altered_carbon::js::JsValueRef", align 8
  call void @_ZN14altered_carbon2js10JsValueRefC1Ev(%"class.altered_carbon::js::JsValueRef"* %ptr1654)
  %ptr1658 = alloca %"class.altered_carbon::js::JsValueRef", align 8
  call void @_ZN14altered_carbon2js10JsValueRefC1Ev(%"class.altered_carbon::js::JsValueRef"* %ptr1658)
  %ptr1659 = alloca %"class.altered_carbon::js::JsValueRef", align 8
  call void @_ZN14altered_carbon2js10JsValueRefC1Ev(%"class.altered_carbon::js::JsValueRef"* %ptr1659)
  %ptr1660 = alloca %"class.altered_carbon::js::JsValueRef", align 8
  call void @_ZN14altered_carbon2js10JsValueRefC1Ev(%"class.altered_carbon::js::JsValueRef"* %ptr1660)
  %ptr1664 = alloca %"class.altered_carbon::js::JsValueRef", align 8
  call void @_ZN14altered_carbon2js10JsValueRefC1Ev(%"class.altered_carbon::js::JsValueRef"* %ptr1664)
  %ptr1668 = alloca %"class.altered_carbon::js::JsValueRef", align 8
  call void @_ZN14altered_carbon2js10JsValueRefC1Ev(%"class.altered_carbon::js::JsValueRef"* %ptr1668)
  %ptr1669 = alloca %"class.altered_carbon::js::JsValueRef", align 8
  call void @_ZN14altered_carbon2js10JsValueRefC1Ev(%"class.altered_carbon::js::JsValueRef"* %ptr1669)
  %ptr1670 = alloca %"class.altered_carbon::js::JsValueRef", align 8
  call void @_ZN14altered_carbon2js10JsValueRefC1Ev(%"class.altered_carbon::js::JsValueRef"* %ptr1670)
  %ptr1674 = alloca %"class.altered_carbon::js::JsValueRef", align 8
  call void @_ZN14altered_carbon2js10JsValueRefC1Ev(%"class.altered_carbon::js::JsValueRef"* %ptr1674)
  %ptr1678 = alloca %"class.altered_carbon::js::JsValueRef", align 8
  call void @_ZN14altered_carbon2js10JsValueRefC1Ev(%"class.altered_carbon::js::JsValueRef"* %ptr1678)
  %ptr1679 = alloca %"class.altered_carbon::js::JsValueRef", align 8
  call void @_ZN14altered_carbon2js10JsValueRefC1Ev(%"class.altered_carbon::js::JsValueRef"* %ptr1679)
  %ptr1680 = alloca %"class.altered_carbon::js::JsValueRef", align 8
  call void @_ZN14altered_carbon2js10JsValueRefC1Ev(%"class.altered_carbon::js::JsValueRef"* %ptr1680)
  %ptr1684 = alloca %"class.altered_carbon::js::JsValueRef", align 8
  call void @_ZN14altered_carbon2js10JsValueRefC1Ev(%"class.altered_carbon::js::JsValueRef"* %ptr1684)
  %ptr1688 = alloca %"class.altered_carbon::js::JsValueRef", align 8
  call void @_ZN14altered_carbon2js10JsValueRefC1Ev(%"class.altered_carbon::js::JsValueRef"* %ptr1688)
  %ptr1689 = alloca %"class.altered_carbon::js::JsValueRef", align 8
  call void @_ZN14altered_carbon2js10JsValueRefC1Ev(%"class.altered_carbon::js::JsValueRef"* %ptr1689)
  %ptr1690 = alloca %"class.altered_carbon::js::JsValueRef", align 8
  call void @_ZN14altered_carbon2js10JsValueRefC1Ev(%"class.altered_carbon::js::JsValueRef"* %ptr1690)
  %ptr1694 = alloca %"class.altered_carbon::js::JsValueRef", align 8
  call void @_ZN14altered_carbon2js10JsValueRefC1Ev(%"class.altered_carbon::js::JsValueRef"* %ptr1694)
  %ptr1698 = alloca %"class.altered_carbon::js::JsValueRef", align 8
  call void @_ZN14altered_carbon2js10JsValueRefC1Ev(%"class.altered_carbon::js::JsValueRef"* %ptr1698)
  %ptr1699 = alloca %"class.altered_carbon::js::JsValueRef", align 8
  call void @_ZN14altered_carbon2js10JsValueRefC1Ev(%"class.altered_carbon::js::JsValueRef"* %ptr1699)
  %ptr1700 = alloca %"class.altered_carbon::js::JsValueRef", align 8
  call void @_ZN14altered_carbon2js10JsValueRefC1Ev(%"class.altered_carbon::js::JsValueRef"* %ptr1700)
  %ptr1704 = alloca %"class.altered_carbon::js::JsValueRef", align 8
  call void @_ZN14altered_carbon2js10JsValueRefC1Ev(%"class.altered_carbon::js::JsValueRef"* %ptr1704)
  %ptr1705 = alloca %"class.altered_carbon::js::JsValueRef", align 8
  call void @_ZN14altered_carbon2js10JsValueRefC1Ev(%"class.altered_carbon::js::JsValueRef"* %ptr1705)
  %ptr1709 = alloca %"class.altered_carbon::js::JsValueRef", align 8
  call void @_ZN14altered_carbon2js10JsValueRefC1Ev(%"class.altered_carbon::js::JsValueRef"* %ptr1709)
  %ptr1713 = alloca %"class.altered_carbon::js::JsValueRef", align 8
  call void @_ZN14altered_carbon2js10JsValueRefC1Ev(%"class.altered_carbon::js::JsValueRef"* %ptr1713)
  %ptr1714 = alloca %"class.altered_carbon::js::JsValueRef", align 8
  call void @_ZN14altered_carbon2js10JsValueRefC1Ev(%"class.altered_carbon::js::JsValueRef"* %ptr1714)
  %ptr1715 = alloca %"class.altered_carbon::js::JsValueRef", align 8
  call void @_ZN14altered_carbon2js10JsValueRefC1Ev(%"class.altered_carbon::js::JsValueRef"* %ptr1715)
  %ptr1719 = alloca %"class.altered_carbon::js::JsValueRef", align 8
  call void @_ZN14altered_carbon2js10JsValueRefC1Ev(%"class.altered_carbon::js::JsValueRef"* %ptr1719)
  %ptr1723 = alloca %"class.altered_carbon::js::JsValueRef", align 8
  call void @_ZN14altered_carbon2js10JsValueRefC1Ev(%"class.altered_carbon::js::JsValueRef"* %ptr1723)
  %ptr1724 = alloca %"class.altered_carbon::js::JsValueRef", align 8
  call void @_ZN14altered_carbon2js10JsValueRefC1Ev(%"class.altered_carbon::js::JsValueRef"* %ptr1724)
  %ptr1725 = alloca %"class.altered_carbon::js::JsValueRef", align 8
  call void @_ZN14altered_carbon2js10JsValueRefC1Ev(%"class.altered_carbon::js::JsValueRef"* %ptr1725)
  %ptr1729 = alloca %"class.altered_carbon::js::JsValueRef", align 8
  call void @_ZN14altered_carbon2js10JsValueRefC1Ev(%"class.altered_carbon::js::JsValueRef"* %ptr1729)
  %ptr1733 = alloca %"class.altered_carbon::js::JsValueRef", align 8
  call void @_ZN14altered_carbon2js10JsValueRefC1Ev(%"class.altered_carbon::js::JsValueRef"* %ptr1733)
  %ptr1734 = alloca %"class.altered_carbon::js::JsValueRef", align 8
  call void @_ZN14altered_carbon2js10JsValueRefC1Ev(%"class.altered_carbon::js::JsValueRef"* %ptr1734)
  %ptr1735 = alloca %"class.altered_carbon::js::JsValueRef", align 8
  call void @_ZN14altered_carbon2js10JsValueRefC1Ev(%"class.altered_carbon::js::JsValueRef"* %ptr1735)
  %ptr1739 = alloca %"class.altered_carbon::js::JsValueRef", align 8
  call void @_ZN14altered_carbon2js10JsValueRefC1Ev(%"class.altered_carbon::js::JsValueRef"* %ptr1739)
  %ptr1743 = alloca %"class.altered_carbon::js::JsValueRef", align 8
  call void @_ZN14altered_carbon2js10JsValueRefC1Ev(%"class.altered_carbon::js::JsValueRef"* %ptr1743)
  %ptr1744 = alloca %"class.altered_carbon::js::JsValueRef", align 8
  call void @_ZN14altered_carbon2js10JsValueRefC1Ev(%"class.altered_carbon::js::JsValueRef"* %ptr1744)
  %ptr1745 = alloca %"class.altered_carbon::js::JsValueRef", align 8
  call void @_ZN14altered_carbon2js10JsValueRefC1Ev(%"class.altered_carbon::js::JsValueRef"* %ptr1745)
  %ptr1749 = alloca %"class.altered_carbon::js::JsValueRef", align 8
  call void @_ZN14altered_carbon2js10JsValueRefC1Ev(%"class.altered_carbon::js::JsValueRef"* %ptr1749)
  %ptr1753 = alloca %"class.altered_carbon::js::JsValueRef", align 8
  call void @_ZN14altered_carbon2js10JsValueRefC1Ev(%"class.altered_carbon::js::JsValueRef"* %ptr1753)
  %ptr1754 = alloca %"class.altered_carbon::js::JsValueRef", align 8
  call void @_ZN14altered_carbon2js10JsValueRefC1Ev(%"class.altered_carbon::js::JsValueRef"* %ptr1754)
  %ptr1755 = alloca %"class.altered_carbon::js::JsValueRef", align 8
  call void @_ZN14altered_carbon2js10JsValueRefC1Ev(%"class.altered_carbon::js::JsValueRef"* %ptr1755)
  %ptr1759 = alloca %"class.altered_carbon::js::JsValueRef", align 8
  call void @_ZN14altered_carbon2js10JsValueRefC1Ev(%"class.altered_carbon::js::JsValueRef"* %ptr1759)
  %ptr1760 = alloca %"class.altered_carbon::js::JsValueRef", align 8
  call void @_ZN14altered_carbon2js10JsValueRefC1Ev(%"class.altered_carbon::js::JsValueRef"* %ptr1760)
  %ptr1764 = alloca %"class.altered_carbon::js::JsValueRef", align 8
  call void @_ZN14altered_carbon2js10JsValueRefC1Ev(%"class.altered_carbon::js::JsValueRef"* %ptr1764)
  %ptr1768 = alloca %"class.altered_carbon::js::JsValueRef", align 8
  call void @_ZN14altered_carbon2js10JsValueRefC1Ev(%"class.altered_carbon::js::JsValueRef"* %ptr1768)
  %ptr1769 = alloca %"class.altered_carbon::js::JsValueRef", align 8
  call void @_ZN14altered_carbon2js10JsValueRefC1Ev(%"class.altered_carbon::js::JsValueRef"* %ptr1769)
  %ptr1770 = alloca %"class.altered_carbon::js::JsValueRef", align 8
  call void @_ZN14altered_carbon2js10JsValueRefC1Ev(%"class.altered_carbon::js::JsValueRef"* %ptr1770)
  %ptr1774 = alloca %"class.altered_carbon::js::JsValueRef", align 8
  call void @_ZN14altered_carbon2js10JsValueRefC1Ev(%"class.altered_carbon::js::JsValueRef"* %ptr1774)
  %ptr1778 = alloca %"class.altered_carbon::js::JsValueRef", align 8
  call void @_ZN14altered_carbon2js10JsValueRefC1Ev(%"class.altered_carbon::js::JsValueRef"* %ptr1778)
  %ptr1779 = alloca %"class.altered_carbon::js::JsValueRef", align 8
  call void @_ZN14altered_carbon2js10JsValueRefC1Ev(%"class.altered_carbon::js::JsValueRef"* %ptr1779)
  %ptr1780 = alloca %"class.altered_carbon::js::JsValueRef", align 8
  call void @_ZN14altered_carbon2js10JsValueRefC1Ev(%"class.altered_carbon::js::JsValueRef"* %ptr1780)
  %ptr1784 = alloca %"class.altered_carbon::js::JsValueRef", align 8
  call void @_ZN14altered_carbon2js10JsValueRefC1Ev(%"class.altered_carbon::js::JsValueRef"* %ptr1784)
  %ptr1788 = alloca %"class.altered_carbon::js::JsValueRef", align 8
  call void @_ZN14altered_carbon2js10JsValueRefC1Ev(%"class.altered_carbon::js::JsValueRef"* %ptr1788)
  %ptr1789 = alloca %"class.altered_carbon::js::JsValueRef", align 8
  call void @_ZN14altered_carbon2js10JsValueRefC1Ev(%"class.altered_carbon::js::JsValueRef"* %ptr1789)
  %ptr1790 = alloca %"class.altered_carbon::js::JsValueRef", align 8
  call void @_ZN14altered_carbon2js10JsValueRefC1Ev(%"class.altered_carbon::js::JsValueRef"* %ptr1790)
  %ptr1794 = alloca %"class.altered_carbon::js::JsValueRef", align 8
  call void @_ZN14altered_carbon2js10JsValueRefC1Ev(%"class.altered_carbon::js::JsValueRef"* %ptr1794)
  %ptr1798 = alloca %"class.altered_carbon::js::JsValueRef", align 8
  call void @_ZN14altered_carbon2js10JsValueRefC1Ev(%"class.altered_carbon::js::JsValueRef"* %ptr1798)
  %ptr1799 = alloca %"class.altered_carbon::js::JsValueRef", align 8
  call void @_ZN14altered_carbon2js10JsValueRefC1Ev(%"class.altered_carbon::js::JsValueRef"* %ptr1799)
  %ptr1800 = alloca %"class.altered_carbon::js::JsValueRef", align 8
  call void @_ZN14altered_carbon2js10JsValueRefC1Ev(%"class.altered_carbon::js::JsValueRef"* %ptr1800)
  %ptr1804 = alloca %"class.altered_carbon::js::JsValueRef", align 8
  call void @_ZN14altered_carbon2js10JsValueRefC1Ev(%"class.altered_carbon::js::JsValueRef"* %ptr1804)
  %ptr1808 = alloca %"class.altered_carbon::js::JsValueRef", align 8
  call void @_ZN14altered_carbon2js10JsValueRefC1Ev(%"class.altered_carbon::js::JsValueRef"* %ptr1808)
  %ptr1809 = alloca %"class.altered_carbon::js::JsValueRef", align 8
  call void @_ZN14altered_carbon2js10JsValueRefC1Ev(%"class.altered_carbon::js::JsValueRef"* %ptr1809)
  %ptr1810 = alloca %"class.altered_carbon::js::JsValueRef", align 8
  call void @_ZN14altered_carbon2js10JsValueRefC1Ev(%"class.altered_carbon::js::JsValueRef"* %ptr1810)
  %ptr1814 = alloca %"class.altered_carbon::js::JsValueRef", align 8
  call void @_ZN14altered_carbon2js10JsValueRefC1Ev(%"class.altered_carbon::js::JsValueRef"* %ptr1814)
  %ptr1815 = alloca %"class.altered_carbon::js::JsValueRef", align 8
  call void @_ZN14altered_carbon2js10JsValueRefC1Ev(%"class.altered_carbon::js::JsValueRef"* %ptr1815)
  %ptr1819 = alloca %"class.altered_carbon::js::JsValueRef", align 8
  call void @_ZN14altered_carbon2js10JsValueRefC1Ev(%"class.altered_carbon::js::JsValueRef"* %ptr1819)
  %ptr1823 = alloca %"class.altered_carbon::js::JsValueRef", align 8
  call void @_ZN14altered_carbon2js10JsValueRefC1Ev(%"class.altered_carbon::js::JsValueRef"* %ptr1823)
  %ptr1824 = alloca %"class.altered_carbon::js::JsValueRef", align 8
  call void @_ZN14altered_carbon2js10JsValueRefC1Ev(%"class.altered_carbon::js::JsValueRef"* %ptr1824)
  %ptr1825 = alloca %"class.altered_carbon::js::JsValueRef", align 8
  call void @_ZN14altered_carbon2js10JsValueRefC1Ev(%"class.altered_carbon::js::JsValueRef"* %ptr1825)
  %ptr1829 = alloca %"class.altered_carbon::js::JsValueRef", align 8
  call void @_ZN14altered_carbon2js10JsValueRefC1Ev(%"class.altered_carbon::js::JsValueRef"* %ptr1829)
  %ptr1833 = alloca %"class.altered_carbon::js::JsValueRef", align 8
  call void @_ZN14altered_carbon2js10JsValueRefC1Ev(%"class.altered_carbon::js::JsValueRef"* %ptr1833)
  %ptr1834 = alloca %"class.altered_carbon::js::JsValueRef", align 8
  call void @_ZN14altered_carbon2js10JsValueRefC1Ev(%"class.altered_carbon::js::JsValueRef"* %ptr1834)
  %ptr1835 = alloca %"class.altered_carbon::js::JsValueRef", align 8
  call void @_ZN14altered_carbon2js10JsValueRefC1Ev(%"class.altered_carbon::js::JsValueRef"* %ptr1835)
  %ptr1839 = alloca %"class.altered_carbon::js::JsValueRef", align 8
  call void @_ZN14altered_carbon2js10JsValueRefC1Ev(%"class.altered_carbon::js::JsValueRef"* %ptr1839)
  %ptr1843 = alloca %"class.altered_carbon::js::JsValueRef", align 8
  call void @_ZN14altered_carbon2js10JsValueRefC1Ev(%"class.altered_carbon::js::JsValueRef"* %ptr1843)
  %ptr1844 = alloca %"class.altered_carbon::js::JsValueRef", align 8
  call void @_ZN14altered_carbon2js10JsValueRefC1Ev(%"class.altered_carbon::js::JsValueRef"* %ptr1844)
  %ptr1845 = alloca %"class.altered_carbon::js::JsValueRef", align 8
  call void @_ZN14altered_carbon2js10JsValueRefC1Ev(%"class.altered_carbon::js::JsValueRef"* %ptr1845)
  %ptr1849 = alloca %"class.altered_carbon::js::JsValueRef", align 8
  call void @_ZN14altered_carbon2js10JsValueRefC1Ev(%"class.altered_carbon::js::JsValueRef"* %ptr1849)
  %ptr1853 = alloca %"class.altered_carbon::js::JsValueRef", align 8
  call void @_ZN14altered_carbon2js10JsValueRefC1Ev(%"class.altered_carbon::js::JsValueRef"* %ptr1853)
  %ptr1854 = alloca %"class.altered_carbon::js::JsValueRef", align 8
  call void @_ZN14altered_carbon2js10JsValueRefC1Ev(%"class.altered_carbon::js::JsValueRef"* %ptr1854)
  %ptr1855 = alloca %"class.altered_carbon::js::JsValueRef", align 8
  call void @_ZN14altered_carbon2js10JsValueRefC1Ev(%"class.altered_carbon::js::JsValueRef"* %ptr1855)
  %ptr1859 = alloca %"class.altered_carbon::js::JsValueRef", align 8
  call void @_ZN14altered_carbon2js10JsValueRefC1Ev(%"class.altered_carbon::js::JsValueRef"* %ptr1859)
  %ptr1863 = alloca %"class.altered_carbon::js::JsValueRef", align 8
  call void @_ZN14altered_carbon2js10JsValueRefC1Ev(%"class.altered_carbon::js::JsValueRef"* %ptr1863)
  %ptr1864 = alloca %"class.altered_carbon::js::JsValueRef", align 8
  call void @_ZN14altered_carbon2js10JsValueRefC1Ev(%"class.altered_carbon::js::JsValueRef"* %ptr1864)
  %ptr1865 = alloca %"class.altered_carbon::js::JsValueRef", align 8
  call void @_ZN14altered_carbon2js10JsValueRefC1Ev(%"class.altered_carbon::js::JsValueRef"* %ptr1865)
  %ptr1869 = alloca %"class.altered_carbon::js::JsValueRef", align 8
  call void @_ZN14altered_carbon2js10JsValueRefC1Ev(%"class.altered_carbon::js::JsValueRef"* %ptr1869)
  %ptr1870 = alloca %"class.altered_carbon::js::JsValueRef", align 8
  call void @_ZN14altered_carbon2js10JsValueRefC1Ev(%"class.altered_carbon::js::JsValueRef"* %ptr1870)
  %ptr1874 = alloca %"class.altered_carbon::js::JsValueRef", align 8
  call void @_ZN14altered_carbon2js10JsValueRefC1Ev(%"class.altered_carbon::js::JsValueRef"* %ptr1874)
  %ptr1878 = alloca %"class.altered_carbon::js::JsValueRef", align 8
  call void @_ZN14altered_carbon2js10JsValueRefC1Ev(%"class.altered_carbon::js::JsValueRef"* %ptr1878)
  %ptr1879 = alloca %"class.altered_carbon::js::JsValueRef", align 8
  call void @_ZN14altered_carbon2js10JsValueRefC1Ev(%"class.altered_carbon::js::JsValueRef"* %ptr1879)
  %ptr1880 = alloca %"class.altered_carbon::js::JsValueRef", align 8
  call void @_ZN14altered_carbon2js10JsValueRefC1Ev(%"class.altered_carbon::js::JsValueRef"* %ptr1880)
  %ptr1884 = alloca %"class.altered_carbon::js::JsValueRef", align 8
  call void @_ZN14altered_carbon2js10JsValueRefC1Ev(%"class.altered_carbon::js::JsValueRef"* %ptr1884)
  %ptr1888 = alloca %"class.altered_carbon::js::JsValueRef", align 8
  call void @_ZN14altered_carbon2js10JsValueRefC1Ev(%"class.altered_carbon::js::JsValueRef"* %ptr1888)
  %ptr1889 = alloca %"class.altered_carbon::js::JsValueRef", align 8
  call void @_ZN14altered_carbon2js10JsValueRefC1Ev(%"class.altered_carbon::js::JsValueRef"* %ptr1889)
  %ptr1890 = alloca %"class.altered_carbon::js::JsValueRef", align 8
  call void @_ZN14altered_carbon2js10JsValueRefC1Ev(%"class.altered_carbon::js::JsValueRef"* %ptr1890)
  %ptr1894 = alloca %"class.altered_carbon::js::JsValueRef", align 8
  call void @_ZN14altered_carbon2js10JsValueRefC1Ev(%"class.altered_carbon::js::JsValueRef"* %ptr1894)
  %ptr1898 = alloca %"class.altered_carbon::js::JsValueRef", align 8
  call void @_ZN14altered_carbon2js10JsValueRefC1Ev(%"class.altered_carbon::js::JsValueRef"* %ptr1898)
  %ptr1899 = alloca %"class.altered_carbon::js::JsValueRef", align 8
  call void @_ZN14altered_carbon2js10JsValueRefC1Ev(%"class.altered_carbon::js::JsValueRef"* %ptr1899)
  %ptr1900 = alloca %"class.altered_carbon::js::JsValueRef", align 8
  call void @_ZN14altered_carbon2js10JsValueRefC1Ev(%"class.altered_carbon::js::JsValueRef"* %ptr1900)
  %ptr1904 = alloca %"class.altered_carbon::js::JsValueRef", align 8
  call void @_ZN14altered_carbon2js10JsValueRefC1Ev(%"class.altered_carbon::js::JsValueRef"* %ptr1904)
  %ptr1908 = alloca %"class.altered_carbon::js::JsValueRef", align 8
  call void @_ZN14altered_carbon2js10JsValueRefC1Ev(%"class.altered_carbon::js::JsValueRef"* %ptr1908)
  %ptr1909 = alloca %"class.altered_carbon::js::JsValueRef", align 8
  call void @_ZN14altered_carbon2js10JsValueRefC1Ev(%"class.altered_carbon::js::JsValueRef"* %ptr1909)
  %ptr1910 = alloca %"class.altered_carbon::js::JsValueRef", align 8
  call void @_ZN14altered_carbon2js10JsValueRefC1Ev(%"class.altered_carbon::js::JsValueRef"* %ptr1910)
  %ptr1914 = alloca %"class.altered_carbon::js::JsValueRef", align 8
  call void @_ZN14altered_carbon2js10JsValueRefC1Ev(%"class.altered_carbon::js::JsValueRef"* %ptr1914)
  %ptr1918 = alloca %"class.altered_carbon::js::JsValueRef", align 8
  call void @_ZN14altered_carbon2js10JsValueRefC1Ev(%"class.altered_carbon::js::JsValueRef"* %ptr1918)
  %ptr1919 = alloca %"class.altered_carbon::js::JsValueRef", align 8
  call void @_ZN14altered_carbon2js10JsValueRefC1Ev(%"class.altered_carbon::js::JsValueRef"* %ptr1919)
  %ptr1920 = alloca %"class.altered_carbon::js::JsValueRef", align 8
  call void @_ZN14altered_carbon2js10JsValueRefC1Ev(%"class.altered_carbon::js::JsValueRef"* %ptr1920)
  %ptr1924 = alloca %"class.altered_carbon::js::JsValueRef", align 8
  call void @_ZN14altered_carbon2js10JsValueRefC1Ev(%"class.altered_carbon::js::JsValueRef"* %ptr1924)
  %ptr1925 = alloca %"class.altered_carbon::js::JsValueRef", align 8
  call void @_ZN14altered_carbon2js10JsValueRefC1Ev(%"class.altered_carbon::js::JsValueRef"* %ptr1925)
  %ptr1929 = alloca %"class.altered_carbon::js::JsValueRef", align 8
  call void @_ZN14altered_carbon2js10JsValueRefC1Ev(%"class.altered_carbon::js::JsValueRef"* %ptr1929)
  %ptr1933 = alloca %"class.altered_carbon::js::JsValueRef", align 8
  call void @_ZN14altered_carbon2js10JsValueRefC1Ev(%"class.altered_carbon::js::JsValueRef"* %ptr1933)
  %ptr1934 = alloca %"class.altered_carbon::js::JsValueRef", align 8
  call void @_ZN14altered_carbon2js10JsValueRefC1Ev(%"class.altered_carbon::js::JsValueRef"* %ptr1934)
  %ptr1935 = alloca %"class.altered_carbon::js::JsValueRef", align 8
  call void @_ZN14altered_carbon2js10JsValueRefC1Ev(%"class.altered_carbon::js::JsValueRef"* %ptr1935)
  %ptr1939 = alloca %"class.altered_carbon::js::JsValueRef", align 8
  call void @_ZN14altered_carbon2js10JsValueRefC1Ev(%"class.altered_carbon::js::JsValueRef"* %ptr1939)
  %ptr1943 = alloca %"class.altered_carbon::js::JsValueRef", align 8
  call void @_ZN14altered_carbon2js10JsValueRefC1Ev(%"class.altered_carbon::js::JsValueRef"* %ptr1943)
  %ptr1944 = alloca %"class.altered_carbon::js::JsValueRef", align 8
  call void @_ZN14altered_carbon2js10JsValueRefC1Ev(%"class.altered_carbon::js::JsValueRef"* %ptr1944)
  %ptr1945 = alloca %"class.altered_carbon::js::JsValueRef", align 8
  call void @_ZN14altered_carbon2js10JsValueRefC1Ev(%"class.altered_carbon::js::JsValueRef"* %ptr1945)
  %ptr1949 = alloca %"class.altered_carbon::js::JsValueRef", align 8
  call void @_ZN14altered_carbon2js10JsValueRefC1Ev(%"class.altered_carbon::js::JsValueRef"* %ptr1949)
  %ptr1953 = alloca %"class.altered_carbon::js::JsValueRef", align 8
  call void @_ZN14altered_carbon2js10JsValueRefC1Ev(%"class.altered_carbon::js::JsValueRef"* %ptr1953)
  %ptr1954 = alloca %"class.altered_carbon::js::JsValueRef", align 8
  call void @_ZN14altered_carbon2js10JsValueRefC1Ev(%"class.altered_carbon::js::JsValueRef"* %ptr1954)
  %ptr1955 = alloca %"class.altered_carbon::js::JsValueRef", align 8
  call void @_ZN14altered_carbon2js10JsValueRefC1Ev(%"class.altered_carbon::js::JsValueRef"* %ptr1955)
  %ptr1959 = alloca %"class.altered_carbon::js::JsValueRef", align 8
  call void @_ZN14altered_carbon2js10JsValueRefC1Ev(%"class.altered_carbon::js::JsValueRef"* %ptr1959)
  %ptr1963 = alloca %"class.altered_carbon::js::JsValueRef", align 8
  call void @_ZN14altered_carbon2js10JsValueRefC1Ev(%"class.altered_carbon::js::JsValueRef"* %ptr1963)
  %ptr1964 = alloca %"class.altered_carbon::js::JsValueRef", align 8
  call void @_ZN14altered_carbon2js10JsValueRefC1Ev(%"class.altered_carbon::js::JsValueRef"* %ptr1964)
  %ptr1965 = alloca %"class.altered_carbon::js::JsValueRef", align 8
  call void @_ZN14altered_carbon2js10JsValueRefC1Ev(%"class.altered_carbon::js::JsValueRef"* %ptr1965)
  %ptr1969 = alloca %"class.altered_carbon::js::JsValueRef", align 8
  call void @_ZN14altered_carbon2js10JsValueRefC1Ev(%"class.altered_carbon::js::JsValueRef"* %ptr1969)
  %ptr1973 = alloca %"class.altered_carbon::js::JsValueRef", align 8
  call void @_ZN14altered_carbon2js10JsValueRefC1Ev(%"class.altered_carbon::js::JsValueRef"* %ptr1973)
  %ptr1974 = alloca %"class.altered_carbon::js::JsValueRef", align 8
  call void @_ZN14altered_carbon2js10JsValueRefC1Ev(%"class.altered_carbon::js::JsValueRef"* %ptr1974)
  %ptr1975 = alloca %"class.altered_carbon::js::JsValueRef", align 8
  call void @_ZN14altered_carbon2js10JsValueRefC1Ev(%"class.altered_carbon::js::JsValueRef"* %ptr1975)
  %ptr1979 = alloca %"class.altered_carbon::js::JsValueRef", align 8
  call void @_ZN14altered_carbon2js10JsValueRefC1Ev(%"class.altered_carbon::js::JsValueRef"* %ptr1979)
  %ptr1980 = alloca %"class.altered_carbon::js::JsValueRef", align 8
  call void @_ZN14altered_carbon2js10JsValueRefC1Ev(%"class.altered_carbon::js::JsValueRef"* %ptr1980)
  %ptr1984 = alloca %"class.altered_carbon::js::JsValueRef", align 8
  call void @_ZN14altered_carbon2js10JsValueRefC1Ev(%"class.altered_carbon::js::JsValueRef"* %ptr1984)
  %ptr1988 = alloca %"class.altered_carbon::js::JsValueRef", align 8
  call void @_ZN14altered_carbon2js10JsValueRefC1Ev(%"class.altered_carbon::js::JsValueRef"* %ptr1988)
  %ptr1989 = alloca %"class.altered_carbon::js::JsValueRef", align 8
  call void @_ZN14altered_carbon2js10JsValueRefC1Ev(%"class.altered_carbon::js::JsValueRef"* %ptr1989)
  %ptr1990 = alloca %"class.altered_carbon::js::JsValueRef", align 8
  call void @_ZN14altered_carbon2js10JsValueRefC1Ev(%"class.altered_carbon::js::JsValueRef"* %ptr1990)
  %ptr1994 = alloca %"class.altered_carbon::js::JsValueRef", align 8
  call void @_ZN14altered_carbon2js10JsValueRefC1Ev(%"class.altered_carbon::js::JsValueRef"* %ptr1994)
  %ptr1998 = alloca %"class.altered_carbon::js::JsValueRef", align 8
  call void @_ZN14altered_carbon2js10JsValueRefC1Ev(%"class.altered_carbon::js::JsValueRef"* %ptr1998)
  %ptr1999 = alloca %"class.altered_carbon::js::JsValueRef", align 8
  call void @_ZN14altered_carbon2js10JsValueRefC1Ev(%"class.altered_carbon::js::JsValueRef"* %ptr1999)
  %ptr2000 = alloca %"class.altered_carbon::js::JsValueRef", align 8
  call void @_ZN14altered_carbon2js10JsValueRefC1Ev(%"class.altered_carbon::js::JsValueRef"* %ptr2000)
  %ptr2004 = alloca %"class.altered_carbon::js::JsValueRef", align 8
  call void @_ZN14altered_carbon2js10JsValueRefC1Ev(%"class.altered_carbon::js::JsValueRef"* %ptr2004)
  %ptr2008 = alloca %"class.altered_carbon::js::JsValueRef", align 8
  call void @_ZN14altered_carbon2js10JsValueRefC1Ev(%"class.altered_carbon::js::JsValueRef"* %ptr2008)
  %ptr2009 = alloca %"class.altered_carbon::js::JsValueRef", align 8
  call void @_ZN14altered_carbon2js10JsValueRefC1Ev(%"class.altered_carbon::js::JsValueRef"* %ptr2009)
  %ptr2010 = alloca %"class.altered_carbon::js::JsValueRef", align 8
  call void @_ZN14altered_carbon2js10JsValueRefC1Ev(%"class.altered_carbon::js::JsValueRef"* %ptr2010)
  %ptr2014 = alloca %"class.altered_carbon::js::JsValueRef", align 8
  call void @_ZN14altered_carbon2js10JsValueRefC1Ev(%"class.altered_carbon::js::JsValueRef"* %ptr2014)
  %ptr2018 = alloca %"class.altered_carbon::js::JsValueRef", align 8
  call void @_ZN14altered_carbon2js10JsValueRefC1Ev(%"class.altered_carbon::js::JsValueRef"* %ptr2018)
  %ptr2019 = alloca %"class.altered_carbon::js::JsValueRef", align 8
  call void @_ZN14altered_carbon2js10JsValueRefC1Ev(%"class.altered_carbon::js::JsValueRef"* %ptr2019)
  %ptr2020 = alloca %"class.altered_carbon::js::JsValueRef", align 8
  call void @_ZN14altered_carbon2js10JsValueRefC1Ev(%"class.altered_carbon::js::JsValueRef"* %ptr2020)
  %ptr2024 = alloca %"class.altered_carbon::js::JsValueRef", align 8
  call void @_ZN14altered_carbon2js10JsValueRefC1Ev(%"class.altered_carbon::js::JsValueRef"* %ptr2024)
  %ptr2028 = alloca %"class.altered_carbon::js::JsValueRef", align 8
  call void @_ZN14altered_carbon2js10JsValueRefC1Ev(%"class.altered_carbon::js::JsValueRef"* %ptr2028)
  %ptr2029 = alloca %"class.altered_carbon::js::JsValueRef", align 8
  call void @_ZN14altered_carbon2js10JsValueRefC1Ev(%"class.altered_carbon::js::JsValueRef"* %ptr2029)
  %ptr2030 = alloca %"class.altered_carbon::js::JsValueRef", align 8
  call void @_ZN14altered_carbon2js10JsValueRefC1Ev(%"class.altered_carbon::js::JsValueRef"* %ptr2030)
  %ptr2034 = alloca %"class.altered_carbon::js::JsValueRef", align 8
  call void @_ZN14altered_carbon2js10JsValueRefC1Ev(%"class.altered_carbon::js::JsValueRef"* %ptr2034)
  %ptr2035 = alloca %"class.altered_carbon::js::JsValueRef", align 8
  call void @_ZN14altered_carbon2js10JsValueRefC1Ev(%"class.altered_carbon::js::JsValueRef"* %ptr2035)
  %ptr2039 = alloca %"class.altered_carbon::js::JsValueRef", align 8
  call void @_ZN14altered_carbon2js10JsValueRefC1Ev(%"class.altered_carbon::js::JsValueRef"* %ptr2039)
  %ptr2043 = alloca %"class.altered_carbon::js::JsValueRef", align 8
  call void @_ZN14altered_carbon2js10JsValueRefC1Ev(%"class.altered_carbon::js::JsValueRef"* %ptr2043)
  %ptr2044 = alloca %"class.altered_carbon::js::JsValueRef", align 8
  call void @_ZN14altered_carbon2js10JsValueRefC1Ev(%"class.altered_carbon::js::JsValueRef"* %ptr2044)
  %ptr2045 = alloca %"class.altered_carbon::js::JsValueRef", align 8
  call void @_ZN14altered_carbon2js10JsValueRefC1Ev(%"class.altered_carbon::js::JsValueRef"* %ptr2045)
  %ptr2049 = alloca %"class.altered_carbon::js::JsValueRef", align 8
  call void @_ZN14altered_carbon2js10JsValueRefC1Ev(%"class.altered_carbon::js::JsValueRef"* %ptr2049)
  %ptr2053 = alloca %"class.altered_carbon::js::JsValueRef", align 8
  call void @_ZN14altered_carbon2js10JsValueRefC1Ev(%"class.altered_carbon::js::JsValueRef"* %ptr2053)
  %ptr2054 = alloca %"class.altered_carbon::js::JsValueRef", align 8
  call void @_ZN14altered_carbon2js10JsValueRefC1Ev(%"class.altered_carbon::js::JsValueRef"* %ptr2054)
  %ptr2055 = alloca %"class.altered_carbon::js::JsValueRef", align 8
  call void @_ZN14altered_carbon2js10JsValueRefC1Ev(%"class.altered_carbon::js::JsValueRef"* %ptr2055)
  %ptr2059 = alloca %"class.altered_carbon::js::JsValueRef", align 8
  call void @_ZN14altered_carbon2js10JsValueRefC1Ev(%"class.altered_carbon::js::JsValueRef"* %ptr2059)
  %ptr2063 = alloca %"class.altered_carbon::js::JsValueRef", align 8
  call void @_ZN14altered_carbon2js10JsValueRefC1Ev(%"class.altered_carbon::js::JsValueRef"* %ptr2063)
  %ptr2064 = alloca %"class.altered_carbon::js::JsValueRef", align 8
  call void @_ZN14altered_carbon2js10JsValueRefC1Ev(%"class.altered_carbon::js::JsValueRef"* %ptr2064)
  %ptr2065 = alloca %"class.altered_carbon::js::JsValueRef", align 8
  call void @_ZN14altered_carbon2js10JsValueRefC1Ev(%"class.altered_carbon::js::JsValueRef"* %ptr2065)
  %ptr2069 = alloca %"class.altered_carbon::js::JsValueRef", align 8
  call void @_ZN14altered_carbon2js10JsValueRefC1Ev(%"class.altered_carbon::js::JsValueRef"* %ptr2069)
  %ptr2073 = alloca %"class.altered_carbon::js::JsValueRef", align 8
  call void @_ZN14altered_carbon2js10JsValueRefC1Ev(%"class.altered_carbon::js::JsValueRef"* %ptr2073)
  %ptr2074 = alloca %"class.altered_carbon::js::JsValueRef", align 8
  call void @_ZN14altered_carbon2js10JsValueRefC1Ev(%"class.altered_carbon::js::JsValueRef"* %ptr2074)
  %ptr2075 = alloca %"class.altered_carbon::js::JsValueRef", align 8
  call void @_ZN14altered_carbon2js10JsValueRefC1Ev(%"class.altered_carbon::js::JsValueRef"* %ptr2075)
  %ptr2079 = alloca %"class.altered_carbon::js::JsValueRef", align 8
  call void @_ZN14altered_carbon2js10JsValueRefC1Ev(%"class.altered_carbon::js::JsValueRef"* %ptr2079)
  %ptr2083 = alloca %"class.altered_carbon::js::JsValueRef", align 8
  call void @_ZN14altered_carbon2js10JsValueRefC1Ev(%"class.altered_carbon::js::JsValueRef"* %ptr2083)
  %ptr2084 = alloca %"class.altered_carbon::js::JsValueRef", align 8
  call void @_ZN14altered_carbon2js10JsValueRefC1Ev(%"class.altered_carbon::js::JsValueRef"* %ptr2084)
  %ptr2085 = alloca %"class.altered_carbon::js::JsValueRef", align 8
  call void @_ZN14altered_carbon2js10JsValueRefC1Ev(%"class.altered_carbon::js::JsValueRef"* %ptr2085)
  %ptr2089 = alloca %"class.altered_carbon::js::JsValueRef", align 8
  call void @_ZN14altered_carbon2js10JsValueRefC1Ev(%"class.altered_carbon::js::JsValueRef"* %ptr2089)
  %ptr2090 = alloca %"class.altered_carbon::js::JsValueRef", align 8
  call void @_ZN14altered_carbon2js10JsValueRefC1Ev(%"class.altered_carbon::js::JsValueRef"* %ptr2090)
  %ptr2094 = alloca %"class.altered_carbon::js::JsValueRef", align 8
  call void @_ZN14altered_carbon2js10JsValueRefC1Ev(%"class.altered_carbon::js::JsValueRef"* %ptr2094)
  %ptr2098 = alloca %"class.altered_carbon::js::JsValueRef", align 8
  call void @_ZN14altered_carbon2js10JsValueRefC1Ev(%"class.altered_carbon::js::JsValueRef"* %ptr2098)
  %ptr2099 = alloca %"class.altered_carbon::js::JsValueRef", align 8
  call void @_ZN14altered_carbon2js10JsValueRefC1Ev(%"class.altered_carbon::js::JsValueRef"* %ptr2099)
  %ptr2100 = alloca %"class.altered_carbon::js::JsValueRef", align 8
  call void @_ZN14altered_carbon2js10JsValueRefC1Ev(%"class.altered_carbon::js::JsValueRef"* %ptr2100)
  %ptr2104 = alloca %"class.altered_carbon::js::JsValueRef", align 8
  call void @_ZN14altered_carbon2js10JsValueRefC1Ev(%"class.altered_carbon::js::JsValueRef"* %ptr2104)
  %ptr2108 = alloca %"class.altered_carbon::js::JsValueRef", align 8
  call void @_ZN14altered_carbon2js10JsValueRefC1Ev(%"class.altered_carbon::js::JsValueRef"* %ptr2108)
  %ptr2109 = alloca %"class.altered_carbon::js::JsValueRef", align 8
  call void @_ZN14altered_carbon2js10JsValueRefC1Ev(%"class.altered_carbon::js::JsValueRef"* %ptr2109)
  %ptr2110 = alloca %"class.altered_carbon::js::JsValueRef", align 8
  call void @_ZN14altered_carbon2js10JsValueRefC1Ev(%"class.altered_carbon::js::JsValueRef"* %ptr2110)
  %ptr2114 = alloca %"class.altered_carbon::js::JsValueRef", align 8
  call void @_ZN14altered_carbon2js10JsValueRefC1Ev(%"class.altered_carbon::js::JsValueRef"* %ptr2114)
  %ptr2118 = alloca %"class.altered_carbon::js::JsValueRef", align 8
  call void @_ZN14altered_carbon2js10JsValueRefC1Ev(%"class.altered_carbon::js::JsValueRef"* %ptr2118)
  %ptr2119 = alloca %"class.altered_carbon::js::JsValueRef", align 8
  call void @_ZN14altered_carbon2js10JsValueRefC1Ev(%"class.altered_carbon::js::JsValueRef"* %ptr2119)
  %ptr2120 = alloca %"class.altered_carbon::js::JsValueRef", align 8
  call void @_ZN14altered_carbon2js10JsValueRefC1Ev(%"class.altered_carbon::js::JsValueRef"* %ptr2120)
  %ptr2124 = alloca %"class.altered_carbon::js::JsValueRef", align 8
  call void @_ZN14altered_carbon2js10JsValueRefC1Ev(%"class.altered_carbon::js::JsValueRef"* %ptr2124)
  %ptr2128 = alloca %"class.altered_carbon::js::JsValueRef", align 8
  call void @_ZN14altered_carbon2js10JsValueRefC1Ev(%"class.altered_carbon::js::JsValueRef"* %ptr2128)
  %ptr2129 = alloca %"class.altered_carbon::js::JsValueRef", align 8
  call void @_ZN14altered_carbon2js10JsValueRefC1Ev(%"class.altered_carbon::js::JsValueRef"* %ptr2129)
  %ptr2130 = alloca %"class.altered_carbon::js::JsValueRef", align 8
  call void @_ZN14altered_carbon2js10JsValueRefC1Ev(%"class.altered_carbon::js::JsValueRef"* %ptr2130)
  %ptr2134 = alloca %"class.altered_carbon::js::JsValueRef", align 8
  call void @_ZN14altered_carbon2js10JsValueRefC1Ev(%"class.altered_carbon::js::JsValueRef"* %ptr2134)
  %ptr2138 = alloca %"class.altered_carbon::js::JsValueRef", align 8
  call void @_ZN14altered_carbon2js10JsValueRefC1Ev(%"class.altered_carbon::js::JsValueRef"* %ptr2138)
  %ptr2139 = alloca %"class.altered_carbon::js::JsValueRef", align 8
  call void @_ZN14altered_carbon2js10JsValueRefC1Ev(%"class.altered_carbon::js::JsValueRef"* %ptr2139)
  %ptr2140 = alloca %"class.altered_carbon::js::JsValueRef", align 8
  call void @_ZN14altered_carbon2js10JsValueRefC1Ev(%"class.altered_carbon::js::JsValueRef"* %ptr2140)
  %ptr2144 = alloca %"class.altered_carbon::js::JsValueRef", align 8
  call void @_ZN14altered_carbon2js10JsValueRefC1Ev(%"class.altered_carbon::js::JsValueRef"* %ptr2144)
  %ptr2145 = alloca %"class.altered_carbon::js::JsValueRef", align 8
  call void @_ZN14altered_carbon2js10JsValueRefC1Ev(%"class.altered_carbon::js::JsValueRef"* %ptr2145)
  %ptr2149 = alloca %"class.altered_carbon::js::JsValueRef", align 8
  call void @_ZN14altered_carbon2js10JsValueRefC1Ev(%"class.altered_carbon::js::JsValueRef"* %ptr2149)
  %ptr2153 = alloca %"class.altered_carbon::js::JsValueRef", align 8
  call void @_ZN14altered_carbon2js10JsValueRefC1Ev(%"class.altered_carbon::js::JsValueRef"* %ptr2153)
  %ptr2154 = alloca %"class.altered_carbon::js::JsValueRef", align 8
  call void @_ZN14altered_carbon2js10JsValueRefC1Ev(%"class.altered_carbon::js::JsValueRef"* %ptr2154)
  %ptr2155 = alloca %"class.altered_carbon::js::JsValueRef", align 8
  call void @_ZN14altered_carbon2js10JsValueRefC1Ev(%"class.altered_carbon::js::JsValueRef"* %ptr2155)
  %ptr2159 = alloca %"class.altered_carbon::js::JsValueRef", align 8
  call void @_ZN14altered_carbon2js10JsValueRefC1Ev(%"class.altered_carbon::js::JsValueRef"* %ptr2159)
  %ptr2163 = alloca %"class.altered_carbon::js::JsValueRef", align 8
  call void @_ZN14altered_carbon2js10JsValueRefC1Ev(%"class.altered_carbon::js::JsValueRef"* %ptr2163)
  %ptr2164 = alloca %"class.altered_carbon::js::JsValueRef", align 8
  call void @_ZN14altered_carbon2js10JsValueRefC1Ev(%"class.altered_carbon::js::JsValueRef"* %ptr2164)
  %ptr2165 = alloca %"class.altered_carbon::js::JsValueRef", align 8
  call void @_ZN14altered_carbon2js10JsValueRefC1Ev(%"class.altered_carbon::js::JsValueRef"* %ptr2165)
  %ptr2169 = alloca %"class.altered_carbon::js::JsValueRef", align 8
  call void @_ZN14altered_carbon2js10JsValueRefC1Ev(%"class.altered_carbon::js::JsValueRef"* %ptr2169)
  %ptr2173 = alloca %"class.altered_carbon::js::JsValueRef", align 8
  call void @_ZN14altered_carbon2js10JsValueRefC1Ev(%"class.altered_carbon::js::JsValueRef"* %ptr2173)
  %ptr2174 = alloca %"class.altered_carbon::js::JsValueRef", align 8
  call void @_ZN14altered_carbon2js10JsValueRefC1Ev(%"class.altered_carbon::js::JsValueRef"* %ptr2174)
  %ptr2175 = alloca %"class.altered_carbon::js::JsValueRef", align 8
  call void @_ZN14altered_carbon2js10JsValueRefC1Ev(%"class.altered_carbon::js::JsValueRef"* %ptr2175)
  %ptr2179 = alloca %"class.altered_carbon::js::JsValueRef", align 8
  call void @_ZN14altered_carbon2js10JsValueRefC1Ev(%"class.altered_carbon::js::JsValueRef"* %ptr2179)
  %ptr2183 = alloca %"class.altered_carbon::js::JsValueRef", align 8
  call void @_ZN14altered_carbon2js10JsValueRefC1Ev(%"class.altered_carbon::js::JsValueRef"* %ptr2183)
  %ptr2184 = alloca %"class.altered_carbon::js::JsValueRef", align 8
  call void @_ZN14altered_carbon2js10JsValueRefC1Ev(%"class.altered_carbon::js::JsValueRef"* %ptr2184)
  %ptr2185 = alloca %"class.altered_carbon::js::JsValueRef", align 8
  call void @_ZN14altered_carbon2js10JsValueRefC1Ev(%"class.altered_carbon::js::JsValueRef"* %ptr2185)
  %ptr2189 = alloca %"class.altered_carbon::js::JsValueRef", align 8
  call void @_ZN14altered_carbon2js10JsValueRefC1Ev(%"class.altered_carbon::js::JsValueRef"* %ptr2189)
  %ptr2193 = alloca %"class.altered_carbon::js::JsValueRef", align 8
  call void @_ZN14altered_carbon2js10JsValueRefC1Ev(%"class.altered_carbon::js::JsValueRef"* %ptr2193)
  %ptr2194 = alloca %"class.altered_carbon::js::JsValueRef", align 8
  call void @_ZN14altered_carbon2js10JsValueRefC1Ev(%"class.altered_carbon::js::JsValueRef"* %ptr2194)
  %ptr2195 = alloca %"class.altered_carbon::js::JsValueRef", align 8
  call void @_ZN14altered_carbon2js10JsValueRefC1Ev(%"class.altered_carbon::js::JsValueRef"* %ptr2195)
  %ptr2199 = alloca %"class.altered_carbon::js::JsValueRef", align 8
  call void @_ZN14altered_carbon2js10JsValueRefC1Ev(%"class.altered_carbon::js::JsValueRef"* %ptr2199)
  %ptr2200 = alloca %"class.altered_carbon::js::JsValueRef", align 8
  call void @_ZN14altered_carbon2js10JsValueRefC1Ev(%"class.altered_carbon::js::JsValueRef"* %ptr2200)
  %ptr2204 = alloca %"class.altered_carbon::js::JsValueRef", align 8
  call void @_ZN14altered_carbon2js10JsValueRefC1Ev(%"class.altered_carbon::js::JsValueRef"* %ptr2204)
  %ptr2208 = alloca %"class.altered_carbon::js::JsValueRef", align 8
  call void @_ZN14altered_carbon2js10JsValueRefC1Ev(%"class.altered_carbon::js::JsValueRef"* %ptr2208)
  %ptr2209 = alloca %"class.altered_carbon::js::JsValueRef", align 8
  call void @_ZN14altered_carbon2js10JsValueRefC1Ev(%"class.altered_carbon::js::JsValueRef"* %ptr2209)
  %ptr2210 = alloca %"class.altered_carbon::js::JsValueRef", align 8
  call void @_ZN14altered_carbon2js10JsValueRefC1Ev(%"class.altered_carbon::js::JsValueRef"* %ptr2210)
  %ptr2214 = alloca %"class.altered_carbon::js::JsValueRef", align 8
  call void @_ZN14altered_carbon2js10JsValueRefC1Ev(%"class.altered_carbon::js::JsValueRef"* %ptr2214)
  %ptr2218 = alloca %"class.altered_carbon::js::JsValueRef", align 8
  call void @_ZN14altered_carbon2js10JsValueRefC1Ev(%"class.altered_carbon::js::JsValueRef"* %ptr2218)
  %ptr2219 = alloca %"class.altered_carbon::js::JsValueRef", align 8
  call void @_ZN14altered_carbon2js10JsValueRefC1Ev(%"class.altered_carbon::js::JsValueRef"* %ptr2219)
  %ptr2220 = alloca %"class.altered_carbon::js::JsValueRef", align 8
  call void @_ZN14altered_carbon2js10JsValueRefC1Ev(%"class.altered_carbon::js::JsValueRef"* %ptr2220)
  %ptr2224 = alloca %"class.altered_carbon::js::JsValueRef", align 8
  call void @_ZN14altered_carbon2js10JsValueRefC1Ev(%"class.altered_carbon::js::JsValueRef"* %ptr2224)
  %ptr2228 = alloca %"class.altered_carbon::js::JsValueRef", align 8
  call void @_ZN14altered_carbon2js10JsValueRefC1Ev(%"class.altered_carbon::js::JsValueRef"* %ptr2228)
  %ptr2229 = alloca %"class.altered_carbon::js::JsValueRef", align 8
  call void @_ZN14altered_carbon2js10JsValueRefC1Ev(%"class.altered_carbon::js::JsValueRef"* %ptr2229)
  %ptr2230 = alloca %"class.altered_carbon::js::JsValueRef", align 8
  call void @_ZN14altered_carbon2js10JsValueRefC1Ev(%"class.altered_carbon::js::JsValueRef"* %ptr2230)
  %ptr2234 = alloca %"class.altered_carbon::js::JsValueRef", align 8
  call void @_ZN14altered_carbon2js10JsValueRefC1Ev(%"class.altered_carbon::js::JsValueRef"* %ptr2234)
  %ptr2238 = alloca %"class.altered_carbon::js::JsValueRef", align 8
  call void @_ZN14altered_carbon2js10JsValueRefC1Ev(%"class.altered_carbon::js::JsValueRef"* %ptr2238)
  %ptr2239 = alloca %"class.altered_carbon::js::JsValueRef", align 8
  call void @_ZN14altered_carbon2js10JsValueRefC1Ev(%"class.altered_carbon::js::JsValueRef"* %ptr2239)
  %ptr2240 = alloca %"class.altered_carbon::js::JsValueRef", align 8
  call void @_ZN14altered_carbon2js10JsValueRefC1Ev(%"class.altered_carbon::js::JsValueRef"* %ptr2240)
  %ptr2244 = alloca %"class.altered_carbon::js::JsValueRef", align 8
  call void @_ZN14altered_carbon2js10JsValueRefC1Ev(%"class.altered_carbon::js::JsValueRef"* %ptr2244)
  %ptr2248 = alloca %"class.altered_carbon::js::JsValueRef", align 8
  call void @_ZN14altered_carbon2js10JsValueRefC1Ev(%"class.altered_carbon::js::JsValueRef"* %ptr2248)
  %ptr2249 = alloca %"class.altered_carbon::js::JsValueRef", align 8
  call void @_ZN14altered_carbon2js10JsValueRefC1Ev(%"class.altered_carbon::js::JsValueRef"* %ptr2249)
  %ptr2250 = alloca %"class.altered_carbon::js::JsValueRef", align 8
  call void @_ZN14altered_carbon2js10JsValueRefC1Ev(%"class.altered_carbon::js::JsValueRef"* %ptr2250)
  %ptr2254 = alloca %"class.altered_carbon::js::JsValueRef", align 8
  call void @_ZN14altered_carbon2js10JsValueRefC1Ev(%"class.altered_carbon::js::JsValueRef"* %ptr2254)
  %ptr2255 = alloca %"class.altered_carbon::js::JsValueRef", align 8
  call void @_ZN14altered_carbon2js10JsValueRefC1Ev(%"class.altered_carbon::js::JsValueRef"* %ptr2255)
  %ptr2259 = alloca %"class.altered_carbon::js::JsValueRef", align 8
  call void @_ZN14altered_carbon2js10JsValueRefC1Ev(%"class.altered_carbon::js::JsValueRef"* %ptr2259)
  %ptr2263 = alloca %"class.altered_carbon::js::JsValueRef", align 8
  call void @_ZN14altered_carbon2js10JsValueRefC1Ev(%"class.altered_carbon::js::JsValueRef"* %ptr2263)
  %ptr2264 = alloca %"class.altered_carbon::js::JsValueRef", align 8
  call void @_ZN14altered_carbon2js10JsValueRefC1Ev(%"class.altered_carbon::js::JsValueRef"* %ptr2264)
  %ptr2265 = alloca %"class.altered_carbon::js::JsValueRef", align 8
  call void @_ZN14altered_carbon2js10JsValueRefC1Ev(%"class.altered_carbon::js::JsValueRef"* %ptr2265)
  %ptr2269 = alloca %"class.altered_carbon::js::JsValueRef", align 8
  call void @_ZN14altered_carbon2js10JsValueRefC1Ev(%"class.altered_carbon::js::JsValueRef"* %ptr2269)
  %ptr2273 = alloca %"class.altered_carbon::js::JsValueRef", align 8
  call void @_ZN14altered_carbon2js10JsValueRefC1Ev(%"class.altered_carbon::js::JsValueRef"* %ptr2273)
  %ptr2274 = alloca %"class.altered_carbon::js::JsValueRef", align 8
  call void @_ZN14altered_carbon2js10JsValueRefC1Ev(%"class.altered_carbon::js::JsValueRef"* %ptr2274)
  %ptr2275 = alloca %"class.altered_carbon::js::JsValueRef", align 8
  call void @_ZN14altered_carbon2js10JsValueRefC1Ev(%"class.altered_carbon::js::JsValueRef"* %ptr2275)
  %ptr2279 = alloca %"class.altered_carbon::js::JsValueRef", align 8
  call void @_ZN14altered_carbon2js10JsValueRefC1Ev(%"class.altered_carbon::js::JsValueRef"* %ptr2279)
  %ptr2283 = alloca %"class.altered_carbon::js::JsValueRef", align 8
  call void @_ZN14altered_carbon2js10JsValueRefC1Ev(%"class.altered_carbon::js::JsValueRef"* %ptr2283)
  %ptr2284 = alloca %"class.altered_carbon::js::JsValueRef", align 8
  call void @_ZN14altered_carbon2js10JsValueRefC1Ev(%"class.altered_carbon::js::JsValueRef"* %ptr2284)
  %ptr2285 = alloca %"class.altered_carbon::js::JsValueRef", align 8
  call void @_ZN14altered_carbon2js10JsValueRefC1Ev(%"class.altered_carbon::js::JsValueRef"* %ptr2285)
  %ptr2289 = alloca %"class.altered_carbon::js::JsValueRef", align 8
  call void @_ZN14altered_carbon2js10JsValueRefC1Ev(%"class.altered_carbon::js::JsValueRef"* %ptr2289)
  %ptr2293 = alloca %"class.altered_carbon::js::JsValueRef", align 8
  call void @_ZN14altered_carbon2js10JsValueRefC1Ev(%"class.altered_carbon::js::JsValueRef"* %ptr2293)
  %ptr2294 = alloca %"class.altered_carbon::js::JsValueRef", align 8
  call void @_ZN14altered_carbon2js10JsValueRefC1Ev(%"class.altered_carbon::js::JsValueRef"* %ptr2294)
  %ptr2295 = alloca %"class.altered_carbon::js::JsValueRef", align 8
  call void @_ZN14altered_carbon2js10JsValueRefC1Ev(%"class.altered_carbon::js::JsValueRef"* %ptr2295)
  %ptr2299 = alloca %"class.altered_carbon::js::JsValueRef", align 8
  call void @_ZN14altered_carbon2js10JsValueRefC1Ev(%"class.altered_carbon::js::JsValueRef"* %ptr2299)
  %ptr2303 = alloca %"class.altered_carbon::js::JsValueRef", align 8
  call void @_ZN14altered_carbon2js10JsValueRefC1Ev(%"class.altered_carbon::js::JsValueRef"* %ptr2303)
  %ptr2304 = alloca %"class.altered_carbon::js::JsValueRef", align 8
  call void @_ZN14altered_carbon2js10JsValueRefC1Ev(%"class.altered_carbon::js::JsValueRef"* %ptr2304)
  %ptr2305 = alloca %"class.altered_carbon::js::JsValueRef", align 8
  call void @_ZN14altered_carbon2js10JsValueRefC1Ev(%"class.altered_carbon::js::JsValueRef"* %ptr2305)
  %ptr2309 = alloca %"class.altered_carbon::js::JsValueRef", align 8
  call void @_ZN14altered_carbon2js10JsValueRefC1Ev(%"class.altered_carbon::js::JsValueRef"* %ptr2309)
  %ptr2310 = alloca %"class.altered_carbon::js::JsValueRef", align 8
  call void @_ZN14altered_carbon2js10JsValueRefC1Ev(%"class.altered_carbon::js::JsValueRef"* %ptr2310)
  %ptr2314 = alloca %"class.altered_carbon::js::JsValueRef", align 8
  call void @_ZN14altered_carbon2js10JsValueRefC1Ev(%"class.altered_carbon::js::JsValueRef"* %ptr2314)
  %ptr2318 = alloca %"class.altered_carbon::js::JsValueRef", align 8
  call void @_ZN14altered_carbon2js10JsValueRefC1Ev(%"class.altered_carbon::js::JsValueRef"* %ptr2318)
  %ptr2319 = alloca %"class.altered_carbon::js::JsValueRef", align 8
  call void @_ZN14altered_carbon2js10JsValueRefC1Ev(%"class.altered_carbon::js::JsValueRef"* %ptr2319)
  %ptr2320 = alloca %"class.altered_carbon::js::JsValueRef", align 8
  call void @_ZN14altered_carbon2js10JsValueRefC1Ev(%"class.altered_carbon::js::JsValueRef"* %ptr2320)
  %ptr2324 = alloca %"class.altered_carbon::js::JsValueRef", align 8
  call void @_ZN14altered_carbon2js10JsValueRefC1Ev(%"class.altered_carbon::js::JsValueRef"* %ptr2324)
  %ptr2328 = alloca %"class.altered_carbon::js::JsValueRef", align 8
  call void @_ZN14altered_carbon2js10JsValueRefC1Ev(%"class.altered_carbon::js::JsValueRef"* %ptr2328)
  %ptr2329 = alloca %"class.altered_carbon::js::JsValueRef", align 8
  call void @_ZN14altered_carbon2js10JsValueRefC1Ev(%"class.altered_carbon::js::JsValueRef"* %ptr2329)
  %ptr2330 = alloca %"class.altered_carbon::js::JsValueRef", align 8
  call void @_ZN14altered_carbon2js10JsValueRefC1Ev(%"class.altered_carbon::js::JsValueRef"* %ptr2330)
  %ptr2334 = alloca %"class.altered_carbon::js::JsValueRef", align 8
  call void @_ZN14altered_carbon2js10JsValueRefC1Ev(%"class.altered_carbon::js::JsValueRef"* %ptr2334)
  %ptr2338 = alloca %"class.altered_carbon::js::JsValueRef", align 8
  call void @_ZN14altered_carbon2js10JsValueRefC1Ev(%"class.altered_carbon::js::JsValueRef"* %ptr2338)
  %ptr2339 = alloca %"class.altered_carbon::js::JsValueRef", align 8
  call void @_ZN14altered_carbon2js10JsValueRefC1Ev(%"class.altered_carbon::js::JsValueRef"* %ptr2339)
  %ptr2340 = alloca %"class.altered_carbon::js::JsValueRef", align 8
  call void @_ZN14altered_carbon2js10JsValueRefC1Ev(%"class.altered_carbon::js::JsValueRef"* %ptr2340)
  %ptr2344 = alloca %"class.altered_carbon::js::JsValueRef", align 8
  call void @_ZN14altered_carbon2js10JsValueRefC1Ev(%"class.altered_carbon::js::JsValueRef"* %ptr2344)
  %ptr2348 = alloca %"class.altered_carbon::js::JsValueRef", align 8
  call void @_ZN14altered_carbon2js10JsValueRefC1Ev(%"class.altered_carbon::js::JsValueRef"* %ptr2348)
  %ptr2349 = alloca %"class.altered_carbon::js::JsValueRef", align 8
  call void @_ZN14altered_carbon2js10JsValueRefC1Ev(%"class.altered_carbon::js::JsValueRef"* %ptr2349)
  %ptr2350 = alloca %"class.altered_carbon::js::JsValueRef", align 8
  call void @_ZN14altered_carbon2js10JsValueRefC1Ev(%"class.altered_carbon::js::JsValueRef"* %ptr2350)
  %ptr2354 = alloca %"class.altered_carbon::js::JsValueRef", align 8
  call void @_ZN14altered_carbon2js10JsValueRefC1Ev(%"class.altered_carbon::js::JsValueRef"* %ptr2354)
  %ptr2358 = alloca %"class.altered_carbon::js::JsValueRef", align 8
  call void @_ZN14altered_carbon2js10JsValueRefC1Ev(%"class.altered_carbon::js::JsValueRef"* %ptr2358)
  %ptr2359 = alloca %"class.altered_carbon::js::JsValueRef", align 8
  call void @_ZN14altered_carbon2js10JsValueRefC1Ev(%"class.altered_carbon::js::JsValueRef"* %ptr2359)
  %ptr2360 = alloca %"class.altered_carbon::js::JsValueRef", align 8
  call void @_ZN14altered_carbon2js10JsValueRefC1Ev(%"class.altered_carbon::js::JsValueRef"* %ptr2360)
  %ptr2364 = alloca %"class.altered_carbon::js::JsValueRef", align 8
  call void @_ZN14altered_carbon2js10JsValueRefC1Ev(%"class.altered_carbon::js::JsValueRef"* %ptr2364)
  %ptr2365 = alloca %"class.altered_carbon::js::JsValueRef", align 8
  call void @_ZN14altered_carbon2js10JsValueRefC1Ev(%"class.altered_carbon::js::JsValueRef"* %ptr2365)
  %ptr2369 = alloca %"class.altered_carbon::js::JsValueRef", align 8
  call void @_ZN14altered_carbon2js10JsValueRefC1Ev(%"class.altered_carbon::js::JsValueRef"* %ptr2369)
  %ptr2373 = alloca %"class.altered_carbon::js::JsValueRef", align 8
  call void @_ZN14altered_carbon2js10JsValueRefC1Ev(%"class.altered_carbon::js::JsValueRef"* %ptr2373)
  %ptr2374 = alloca %"class.altered_carbon::js::JsValueRef", align 8
  call void @_ZN14altered_carbon2js10JsValueRefC1Ev(%"class.altered_carbon::js::JsValueRef"* %ptr2374)
  %ptr2375 = alloca %"class.altered_carbon::js::JsValueRef", align 8
  call void @_ZN14altered_carbon2js10JsValueRefC1Ev(%"class.altered_carbon::js::JsValueRef"* %ptr2375)
  %ptr2379 = alloca %"class.altered_carbon::js::JsValueRef", align 8
  call void @_ZN14altered_carbon2js10JsValueRefC1Ev(%"class.altered_carbon::js::JsValueRef"* %ptr2379)
  %ptr2383 = alloca %"class.altered_carbon::js::JsValueRef", align 8
  call void @_ZN14altered_carbon2js10JsValueRefC1Ev(%"class.altered_carbon::js::JsValueRef"* %ptr2383)
  %ptr2384 = alloca %"class.altered_carbon::js::JsValueRef", align 8
  call void @_ZN14altered_carbon2js10JsValueRefC1Ev(%"class.altered_carbon::js::JsValueRef"* %ptr2384)
  %ptr2385 = alloca %"class.altered_carbon::js::JsValueRef", align 8
  call void @_ZN14altered_carbon2js10JsValueRefC1Ev(%"class.altered_carbon::js::JsValueRef"* %ptr2385)
  %ptr2389 = alloca %"class.altered_carbon::js::JsValueRef", align 8
  call void @_ZN14altered_carbon2js10JsValueRefC1Ev(%"class.altered_carbon::js::JsValueRef"* %ptr2389)
  %ptr2393 = alloca %"class.altered_carbon::js::JsValueRef", align 8
  call void @_ZN14altered_carbon2js10JsValueRefC1Ev(%"class.altered_carbon::js::JsValueRef"* %ptr2393)
  %ptr2394 = alloca %"class.altered_carbon::js::JsValueRef", align 8
  call void @_ZN14altered_carbon2js10JsValueRefC1Ev(%"class.altered_carbon::js::JsValueRef"* %ptr2394)
  %ptr2395 = alloca %"class.altered_carbon::js::JsValueRef", align 8
  call void @_ZN14altered_carbon2js10JsValueRefC1Ev(%"class.altered_carbon::js::JsValueRef"* %ptr2395)
  %ptr2399 = alloca %"class.altered_carbon::js::JsValueRef", align 8
  call void @_ZN14altered_carbon2js10JsValueRefC1Ev(%"class.altered_carbon::js::JsValueRef"* %ptr2399)
  %ptr2403 = alloca %"class.altered_carbon::js::JsValueRef", align 8
  call void @_ZN14altered_carbon2js10JsValueRefC1Ev(%"class.altered_carbon::js::JsValueRef"* %ptr2403)
  %ptr2404 = alloca %"class.altered_carbon::js::JsValueRef", align 8
  call void @_ZN14altered_carbon2js10JsValueRefC1Ev(%"class.altered_carbon::js::JsValueRef"* %ptr2404)
  %ptr2405 = alloca %"class.altered_carbon::js::JsValueRef", align 8
  call void @_ZN14altered_carbon2js10JsValueRefC1Ev(%"class.altered_carbon::js::JsValueRef"* %ptr2405)
  %ptr2409 = alloca %"class.altered_carbon::js::JsValueRef", align 8
  call void @_ZN14altered_carbon2js10JsValueRefC1Ev(%"class.altered_carbon::js::JsValueRef"* %ptr2409)
  %ptr2413 = alloca %"class.altered_carbon::js::JsValueRef", align 8
  call void @_ZN14altered_carbon2js10JsValueRefC1Ev(%"class.altered_carbon::js::JsValueRef"* %ptr2413)
  %ptr2414 = alloca %"class.altered_carbon::js::JsValueRef", align 8
  call void @_ZN14altered_carbon2js10JsValueRefC1Ev(%"class.altered_carbon::js::JsValueRef"* %ptr2414)
  %ptr2415 = alloca %"class.altered_carbon::js::JsValueRef", align 8
  call void @_ZN14altered_carbon2js10JsValueRefC1Ev(%"class.altered_carbon::js::JsValueRef"* %ptr2415)
  %ptr2419 = alloca %"class.altered_carbon::js::JsValueRef", align 8
  call void @_ZN14altered_carbon2js10JsValueRefC1Ev(%"class.altered_carbon::js::JsValueRef"* %ptr2419)
  %ptr2420 = alloca %"class.altered_carbon::js::JsValueRef", align 8
  call void @_ZN14altered_carbon2js10JsValueRefC1Ev(%"class.altered_carbon::js::JsValueRef"* %ptr2420)
  %ptr2424 = alloca %"class.altered_carbon::js::JsValueRef", align 8
  call void @_ZN14altered_carbon2js10JsValueRefC1Ev(%"class.altered_carbon::js::JsValueRef"* %ptr2424)
  %ptr2428 = alloca %"class.altered_carbon::js::JsValueRef", align 8
  call void @_ZN14altered_carbon2js10JsValueRefC1Ev(%"class.altered_carbon::js::JsValueRef"* %ptr2428)
  %ptr2429 = alloca %"class.altered_carbon::js::JsValueRef", align 8
  call void @_ZN14altered_carbon2js10JsValueRefC1Ev(%"class.altered_carbon::js::JsValueRef"* %ptr2429)
  %ptr2430 = alloca %"class.altered_carbon::js::JsValueRef", align 8
  call void @_ZN14altered_carbon2js10JsValueRefC1Ev(%"class.altered_carbon::js::JsValueRef"* %ptr2430)
  %ptr2434 = alloca %"class.altered_carbon::js::JsValueRef", align 8
  call void @_ZN14altered_carbon2js10JsValueRefC1Ev(%"class.altered_carbon::js::JsValueRef"* %ptr2434)
  %ptr2438 = alloca %"class.altered_carbon::js::JsValueRef", align 8
  call void @_ZN14altered_carbon2js10JsValueRefC1Ev(%"class.altered_carbon::js::JsValueRef"* %ptr2438)
  %ptr2439 = alloca %"class.altered_carbon::js::JsValueRef", align 8
  call void @_ZN14altered_carbon2js10JsValueRefC1Ev(%"class.altered_carbon::js::JsValueRef"* %ptr2439)
  %ptr2440 = alloca %"class.altered_carbon::js::JsValueRef", align 8
  call void @_ZN14altered_carbon2js10JsValueRefC1Ev(%"class.altered_carbon::js::JsValueRef"* %ptr2440)
  %ptr2444 = alloca %"class.altered_carbon::js::JsValueRef", align 8
  call void @_ZN14altered_carbon2js10JsValueRefC1Ev(%"class.altered_carbon::js::JsValueRef"* %ptr2444)
  %ptr2448 = alloca %"class.altered_carbon::js::JsValueRef", align 8
  call void @_ZN14altered_carbon2js10JsValueRefC1Ev(%"class.altered_carbon::js::JsValueRef"* %ptr2448)
  %ptr2449 = alloca %"class.altered_carbon::js::JsValueRef", align 8
  call void @_ZN14altered_carbon2js10JsValueRefC1Ev(%"class.altered_carbon::js::JsValueRef"* %ptr2449)
  %ptr2450 = alloca %"class.altered_carbon::js::JsValueRef", align 8
  call void @_ZN14altered_carbon2js10JsValueRefC1Ev(%"class.altered_carbon::js::JsValueRef"* %ptr2450)
  %ptr2454 = alloca %"class.altered_carbon::js::JsValueRef", align 8
  call void @_ZN14altered_carbon2js10JsValueRefC1Ev(%"class.altered_carbon::js::JsValueRef"* %ptr2454)
  %ptr2458 = alloca %"class.altered_carbon::js::JsValueRef", align 8
  call void @_ZN14altered_carbon2js10JsValueRefC1Ev(%"class.altered_carbon::js::JsValueRef"* %ptr2458)
  %ptr2459 = alloca %"class.altered_carbon::js::JsValueRef", align 8
  call void @_ZN14altered_carbon2js10JsValueRefC1Ev(%"class.altered_carbon::js::JsValueRef"* %ptr2459)
  %ptr2460 = alloca %"class.altered_carbon::js::JsValueRef", align 8
  call void @_ZN14altered_carbon2js10JsValueRefC1Ev(%"class.altered_carbon::js::JsValueRef"* %ptr2460)
  %ptr2464 = alloca %"class.altered_carbon::js::JsValueRef", align 8
  call void @_ZN14altered_carbon2js10JsValueRefC1Ev(%"class.altered_carbon::js::JsValueRef"* %ptr2464)
  %ptr2468 = alloca %"class.altered_carbon::js::JsValueRef", align 8
  call void @_ZN14altered_carbon2js10JsValueRefC1Ev(%"class.altered_carbon::js::JsValueRef"* %ptr2468)
  %ptr2469 = alloca %"class.altered_carbon::js::JsValueRef", align 8
  call void @_ZN14altered_carbon2js10JsValueRefC1Ev(%"class.altered_carbon::js::JsValueRef"* %ptr2469)
  %ptr2470 = alloca %"class.altered_carbon::js::JsValueRef", align 8
  call void @_ZN14altered_carbon2js10JsValueRefC1Ev(%"class.altered_carbon::js::JsValueRef"* %ptr2470)
  %ptr2474 = alloca %"class.altered_carbon::js::JsValueRef", align 8
  call void @_ZN14altered_carbon2js10JsValueRefC1Ev(%"class.altered_carbon::js::JsValueRef"* %ptr2474)
  %ptr2475 = alloca %"class.altered_carbon::js::JsValueRef", align 8
  call void @_ZN14altered_carbon2js10JsValueRefC1Ev(%"class.altered_carbon::js::JsValueRef"* %ptr2475)
  %ptr2479 = alloca %"class.altered_carbon::js::JsValueRef", align 8
  call void @_ZN14altered_carbon2js10JsValueRefC1Ev(%"class.altered_carbon::js::JsValueRef"* %ptr2479)
  %ptr2483 = alloca %"class.altered_carbon::js::JsValueRef", align 8
  call void @_ZN14altered_carbon2js10JsValueRefC1Ev(%"class.altered_carbon::js::JsValueRef"* %ptr2483)
  %ptr2484 = alloca %"class.altered_carbon::js::JsValueRef", align 8
  call void @_ZN14altered_carbon2js10JsValueRefC1Ev(%"class.altered_carbon::js::JsValueRef"* %ptr2484)
  %ptr2485 = alloca %"class.altered_carbon::js::JsValueRef", align 8
  call void @_ZN14altered_carbon2js10JsValueRefC1Ev(%"class.altered_carbon::js::JsValueRef"* %ptr2485)
  %ptr2489 = alloca %"class.altered_carbon::js::JsValueRef", align 8
  call void @_ZN14altered_carbon2js10JsValueRefC1Ev(%"class.altered_carbon::js::JsValueRef"* %ptr2489)
  %ptr2493 = alloca %"class.altered_carbon::js::JsValueRef", align 8
  call void @_ZN14altered_carbon2js10JsValueRefC1Ev(%"class.altered_carbon::js::JsValueRef"* %ptr2493)
  %ptr2494 = alloca %"class.altered_carbon::js::JsValueRef", align 8
  call void @_ZN14altered_carbon2js10JsValueRefC1Ev(%"class.altered_carbon::js::JsValueRef"* %ptr2494)
  %ptr2495 = alloca %"class.altered_carbon::js::JsValueRef", align 8
  call void @_ZN14altered_carbon2js10JsValueRefC1Ev(%"class.altered_carbon::js::JsValueRef"* %ptr2495)
  %ptr2499 = alloca %"class.altered_carbon::js::JsValueRef", align 8
  call void @_ZN14altered_carbon2js10JsValueRefC1Ev(%"class.altered_carbon::js::JsValueRef"* %ptr2499)
  %ptr2503 = alloca %"class.altered_carbon::js::JsValueRef", align 8
  call void @_ZN14altered_carbon2js10JsValueRefC1Ev(%"class.altered_carbon::js::JsValueRef"* %ptr2503)
  %ptr2504 = alloca %"class.altered_carbon::js::JsValueRef", align 8
  call void @_ZN14altered_carbon2js10JsValueRefC1Ev(%"class.altered_carbon::js::JsValueRef"* %ptr2504)
  %ptr2505 = alloca %"class.altered_carbon::js::JsValueRef", align 8
  call void @_ZN14altered_carbon2js10JsValueRefC1Ev(%"class.altered_carbon::js::JsValueRef"* %ptr2505)
  %ptr2509 = alloca %"class.altered_carbon::js::JsValueRef", align 8
  call void @_ZN14altered_carbon2js10JsValueRefC1Ev(%"class.altered_carbon::js::JsValueRef"* %ptr2509)
  %ptr2513 = alloca %"class.altered_carbon::js::JsValueRef", align 8
  call void @_ZN14altered_carbon2js10JsValueRefC1Ev(%"class.altered_carbon::js::JsValueRef"* %ptr2513)
  %ptr2514 = alloca %"class.altered_carbon::js::JsValueRef", align 8
  call void @_ZN14altered_carbon2js10JsValueRefC1Ev(%"class.altered_carbon::js::JsValueRef"* %ptr2514)
  %ptr2515 = alloca %"class.altered_carbon::js::JsValueRef", align 8
  call void @_ZN14altered_carbon2js10JsValueRefC1Ev(%"class.altered_carbon::js::JsValueRef"* %ptr2515)
  %ptr2519 = alloca %"class.altered_carbon::js::JsValueRef", align 8
  call void @_ZN14altered_carbon2js10JsValueRefC1Ev(%"class.altered_carbon::js::JsValueRef"* %ptr2519)
  %ptr2523 = alloca %"class.altered_carbon::js::JsValueRef", align 8
  call void @_ZN14altered_carbon2js10JsValueRefC1Ev(%"class.altered_carbon::js::JsValueRef"* %ptr2523)
  %ptr2524 = alloca %"class.altered_carbon::js::JsValueRef", align 8
  call void @_ZN14altered_carbon2js10JsValueRefC1Ev(%"class.altered_carbon::js::JsValueRef"* %ptr2524)
  %ptr2525 = alloca %"class.altered_carbon::js::JsValueRef", align 8
  call void @_ZN14altered_carbon2js10JsValueRefC1Ev(%"class.altered_carbon::js::JsValueRef"* %ptr2525)
  %ptr2529 = alloca %"class.altered_carbon::js::JsValueRef", align 8
  call void @_ZN14altered_carbon2js10JsValueRefC1Ev(%"class.altered_carbon::js::JsValueRef"* %ptr2529)
  %ptr2530 = alloca %"class.altered_carbon::js::JsValueRef", align 8
  call void @_ZN14altered_carbon2js10JsValueRefC1Ev(%"class.altered_carbon::js::JsValueRef"* %ptr2530)
  %ptr2534 = alloca %"class.altered_carbon::js::JsValueRef", align 8
  call void @_ZN14altered_carbon2js10JsValueRefC1Ev(%"class.altered_carbon::js::JsValueRef"* %ptr2534)
  %ptr2538 = alloca %"class.altered_carbon::js::JsValueRef", align 8
  call void @_ZN14altered_carbon2js10JsValueRefC1Ev(%"class.altered_carbon::js::JsValueRef"* %ptr2538)
  %ptr2539 = alloca %"class.altered_carbon::js::JsValueRef", align 8
  call void @_ZN14altered_carbon2js10JsValueRefC1Ev(%"class.altered_carbon::js::JsValueRef"* %ptr2539)
  %ptr2540 = alloca %"class.altered_carbon::js::JsValueRef", align 8
  call void @_ZN14altered_carbon2js10JsValueRefC1Ev(%"class.altered_carbon::js::JsValueRef"* %ptr2540)
  %ptr2544 = alloca %"class.altered_carbon::js::JsValueRef", align 8
  call void @_ZN14altered_carbon2js10JsValueRefC1Ev(%"class.altered_carbon::js::JsValueRef"* %ptr2544)
  %ptr2548 = alloca %"class.altered_carbon::js::JsValueRef", align 8
  call void @_ZN14altered_carbon2js10JsValueRefC1Ev(%"class.altered_carbon::js::JsValueRef"* %ptr2548)
  %ptr2549 = alloca %"class.altered_carbon::js::JsValueRef", align 8
  call void @_ZN14altered_carbon2js10JsValueRefC1Ev(%"class.altered_carbon::js::JsValueRef"* %ptr2549)
  %ptr2550 = alloca %"class.altered_carbon::js::JsValueRef", align 8
  call void @_ZN14altered_carbon2js10JsValueRefC1Ev(%"class.altered_carbon::js::JsValueRef"* %ptr2550)
  %ptr2554 = alloca %"class.altered_carbon::js::JsValueRef", align 8
  call void @_ZN14altered_carbon2js10JsValueRefC1Ev(%"class.altered_carbon::js::JsValueRef"* %ptr2554)
  %ptr2558 = alloca %"class.altered_carbon::js::JsValueRef", align 8
  call void @_ZN14altered_carbon2js10JsValueRefC1Ev(%"class.altered_carbon::js::JsValueRef"* %ptr2558)
  %ptr2559 = alloca %"class.altered_carbon::js::JsValueRef", align 8
  call void @_ZN14altered_carbon2js10JsValueRefC1Ev(%"class.altered_carbon::js::JsValueRef"* %ptr2559)
  %ptr2560 = alloca %"class.altered_carbon::js::JsValueRef", align 8
  call void @_ZN14altered_carbon2js10JsValueRefC1Ev(%"class.altered_carbon::js::JsValueRef"* %ptr2560)
  %ptr2564 = alloca %"class.altered_carbon::js::JsValueRef", align 8
  call void @_ZN14altered_carbon2js10JsValueRefC1Ev(%"class.altered_carbon::js::JsValueRef"* %ptr2564)
  %ptr2568 = alloca %"class.altered_carbon::js::JsValueRef", align 8
  call void @_ZN14altered_carbon2js10JsValueRefC1Ev(%"class.altered_carbon::js::JsValueRef"* %ptr2568)
  %ptr2569 = alloca %"class.altered_carbon::js::JsValueRef", align 8
  call void @_ZN14altered_carbon2js10JsValueRefC1Ev(%"class.altered_carbon::js::JsValueRef"* %ptr2569)
  %ptr2570 = alloca %"class.altered_carbon::js::JsValueRef", align 8
  call void @_ZN14altered_carbon2js10JsValueRefC1Ev(%"class.altered_carbon::js::JsValueRef"* %ptr2570)
  %ptr2574 = alloca %"class.altered_carbon::js::JsValueRef", align 8
  call void @_ZN14altered_carbon2js10JsValueRefC1Ev(%"class.altered_carbon::js::JsValueRef"* %ptr2574)
  %ptr2578 = alloca %"class.altered_carbon::js::JsValueRef", align 8
  call void @_ZN14altered_carbon2js10JsValueRefC1Ev(%"class.altered_carbon::js::JsValueRef"* %ptr2578)
  %ptr2579 = alloca %"class.altered_carbon::js::JsValueRef", align 8
  call void @_ZN14altered_carbon2js10JsValueRefC1Ev(%"class.altered_carbon::js::JsValueRef"* %ptr2579)
  %ptr2580 = alloca %"class.altered_carbon::js::JsValueRef", align 8
  call void @_ZN14altered_carbon2js10JsValueRefC1Ev(%"class.altered_carbon::js::JsValueRef"* %ptr2580)
  %ptr2584 = alloca %"class.altered_carbon::js::JsValueRef", align 8
  call void @_ZN14altered_carbon2js10JsValueRefC1Ev(%"class.altered_carbon::js::JsValueRef"* %ptr2584)
  %ptr2585 = alloca %"class.altered_carbon::js::JsValueRef", align 8
  call void @_ZN14altered_carbon2js10JsValueRefC1Ev(%"class.altered_carbon::js::JsValueRef"* %ptr2585)
  %ptr2589 = alloca %"class.altered_carbon::js::JsValueRef", align 8
  call void @_ZN14altered_carbon2js10JsValueRefC1Ev(%"class.altered_carbon::js::JsValueRef"* %ptr2589)
  %ptr2593 = alloca %"class.altered_carbon::js::JsValueRef", align 8
  call void @_ZN14altered_carbon2js10JsValueRefC1Ev(%"class.altered_carbon::js::JsValueRef"* %ptr2593)
  %ptr2594 = alloca %"class.altered_carbon::js::JsValueRef", align 8
  call void @_ZN14altered_carbon2js10JsValueRefC1Ev(%"class.altered_carbon::js::JsValueRef"* %ptr2594)
  %ptr2595 = alloca %"class.altered_carbon::js::JsValueRef", align 8
  call void @_ZN14altered_carbon2js10JsValueRefC1Ev(%"class.altered_carbon::js::JsValueRef"* %ptr2595)
  %ptr2599 = alloca %"class.altered_carbon::js::JsValueRef", align 8
  call void @_ZN14altered_carbon2js10JsValueRefC1Ev(%"class.altered_carbon::js::JsValueRef"* %ptr2599)
  %ptr2603 = alloca %"class.altered_carbon::js::JsValueRef", align 8
  call void @_ZN14altered_carbon2js10JsValueRefC1Ev(%"class.altered_carbon::js::JsValueRef"* %ptr2603)
  %ptr2604 = alloca %"class.altered_carbon::js::JsValueRef", align 8
  call void @_ZN14altered_carbon2js10JsValueRefC1Ev(%"class.altered_carbon::js::JsValueRef"* %ptr2604)
  %ptr2605 = alloca %"class.altered_carbon::js::JsValueRef", align 8
  call void @_ZN14altered_carbon2js10JsValueRefC1Ev(%"class.altered_carbon::js::JsValueRef"* %ptr2605)
  %ptr2609 = alloca %"class.altered_carbon::js::JsValueRef", align 8
  call void @_ZN14altered_carbon2js10JsValueRefC1Ev(%"class.altered_carbon::js::JsValueRef"* %ptr2609)
  %ptr2613 = alloca %"class.altered_carbon::js::JsValueRef", align 8
  call void @_ZN14altered_carbon2js10JsValueRefC1Ev(%"class.altered_carbon::js::JsValueRef"* %ptr2613)
  %ptr2614 = alloca %"class.altered_carbon::js::JsValueRef", align 8
  call void @_ZN14altered_carbon2js10JsValueRefC1Ev(%"class.altered_carbon::js::JsValueRef"* %ptr2614)
  %ptr2615 = alloca %"class.altered_carbon::js::JsValueRef", align 8
  call void @_ZN14altered_carbon2js10JsValueRefC1Ev(%"class.altered_carbon::js::JsValueRef"* %ptr2615)
  %ptr2619 = alloca %"class.altered_carbon::js::JsValueRef", align 8
  call void @_ZN14altered_carbon2js10JsValueRefC1Ev(%"class.altered_carbon::js::JsValueRef"* %ptr2619)
  %ptr2623 = alloca %"class.altered_carbon::js::JsValueRef", align 8
  call void @_ZN14altered_carbon2js10JsValueRefC1Ev(%"class.altered_carbon::js::JsValueRef"* %ptr2623)
  %ptr2624 = alloca %"class.altered_carbon::js::JsValueRef", align 8
  call void @_ZN14altered_carbon2js10JsValueRefC1Ev(%"class.altered_carbon::js::JsValueRef"* %ptr2624)
  %ptr2625 = alloca %"class.altered_carbon::js::JsValueRef", align 8
  call void @_ZN14altered_carbon2js10JsValueRefC1Ev(%"class.altered_carbon::js::JsValueRef"* %ptr2625)
  %ptr2629 = alloca %"class.altered_carbon::js::JsValueRef", align 8
  call void @_ZN14altered_carbon2js10JsValueRefC1Ev(%"class.altered_carbon::js::JsValueRef"* %ptr2629)
  %ptr2633 = alloca %"class.altered_carbon::js::JsValueRef", align 8
  call void @_ZN14altered_carbon2js10JsValueRefC1Ev(%"class.altered_carbon::js::JsValueRef"* %ptr2633)
  %ptr2634 = alloca %"class.altered_carbon::js::JsValueRef", align 8
  call void @_ZN14altered_carbon2js10JsValueRefC1Ev(%"class.altered_carbon::js::JsValueRef"* %ptr2634)
  %ptr2635 = alloca %"class.altered_carbon::js::JsValueRef", align 8
  call void @_ZN14altered_carbon2js10JsValueRefC1Ev(%"class.altered_carbon::js::JsValueRef"* %ptr2635)
  %ptr2639 = alloca %"class.altered_carbon::js::JsValueRef", align 8
  call void @_ZN14altered_carbon2js10JsValueRefC1Ev(%"class.altered_carbon::js::JsValueRef"* %ptr2639)
  %ptr2640 = alloca %"class.altered_carbon::js::JsValueRef", align 8
  call void @_ZN14altered_carbon2js10JsValueRefC1Ev(%"class.altered_carbon::js::JsValueRef"* %ptr2640)
  %ptr2644 = alloca %"class.altered_carbon::js::JsValueRef", align 8
  call void @_ZN14altered_carbon2js10JsValueRefC1Ev(%"class.altered_carbon::js::JsValueRef"* %ptr2644)
  %ptr2648 = alloca %"class.altered_carbon::js::JsValueRef", align 8
  call void @_ZN14altered_carbon2js10JsValueRefC1Ev(%"class.altered_carbon::js::JsValueRef"* %ptr2648)
  %ptr2649 = alloca %"class.altered_carbon::js::JsValueRef", align 8
  call void @_ZN14altered_carbon2js10JsValueRefC1Ev(%"class.altered_carbon::js::JsValueRef"* %ptr2649)
  %ptr2650 = alloca %"class.altered_carbon::js::JsValueRef", align 8
  call void @_ZN14altered_carbon2js10JsValueRefC1Ev(%"class.altered_carbon::js::JsValueRef"* %ptr2650)
  %ptr2654 = alloca %"class.altered_carbon::js::JsValueRef", align 8
  call void @_ZN14altered_carbon2js10JsValueRefC1Ev(%"class.altered_carbon::js::JsValueRef"* %ptr2654)
  %ptr2658 = alloca %"class.altered_carbon::js::JsValueRef", align 8
  call void @_ZN14altered_carbon2js10JsValueRefC1Ev(%"class.altered_carbon::js::JsValueRef"* %ptr2658)
  %ptr2659 = alloca %"class.altered_carbon::js::JsValueRef", align 8
  call void @_ZN14altered_carbon2js10JsValueRefC1Ev(%"class.altered_carbon::js::JsValueRef"* %ptr2659)
  %ptr2660 = alloca %"class.altered_carbon::js::JsValueRef", align 8
  call void @_ZN14altered_carbon2js10JsValueRefC1Ev(%"class.altered_carbon::js::JsValueRef"* %ptr2660)
  %ptr2664 = alloca %"class.altered_carbon::js::JsValueRef", align 8
  call void @_ZN14altered_carbon2js10JsValueRefC1Ev(%"class.altered_carbon::js::JsValueRef"* %ptr2664)
  %ptr2668 = alloca %"class.altered_carbon::js::JsValueRef", align 8
  call void @_ZN14altered_carbon2js10JsValueRefC1Ev(%"class.altered_carbon::js::JsValueRef"* %ptr2668)
  %ptr2669 = alloca %"class.altered_carbon::js::JsValueRef", align 8
  call void @_ZN14altered_carbon2js10JsValueRefC1Ev(%"class.altered_carbon::js::JsValueRef"* %ptr2669)
  %ptr2670 = alloca %"class.altered_carbon::js::JsValueRef", align 8
  call void @_ZN14altered_carbon2js10JsValueRefC1Ev(%"class.altered_carbon::js::JsValueRef"* %ptr2670)
  %ptr2674 = alloca %"class.altered_carbon::js::JsValueRef", align 8
  call void @_ZN14altered_carbon2js10JsValueRefC1Ev(%"class.altered_carbon::js::JsValueRef"* %ptr2674)
  %ptr2678 = alloca %"class.altered_carbon::js::JsValueRef", align 8
  call void @_ZN14altered_carbon2js10JsValueRefC1Ev(%"class.altered_carbon::js::JsValueRef"* %ptr2678)
  %ptr2679 = alloca %"class.altered_carbon::js::JsValueRef", align 8
  call void @_ZN14altered_carbon2js10JsValueRefC1Ev(%"class.altered_carbon::js::JsValueRef"* %ptr2679)
  %ptr2680 = alloca %"class.altered_carbon::js::JsValueRef", align 8
  call void @_ZN14altered_carbon2js10JsValueRefC1Ev(%"class.altered_carbon::js::JsValueRef"* %ptr2680)
  %ptr2684 = alloca %"class.altered_carbon::js::JsValueRef", align 8
  call void @_ZN14altered_carbon2js10JsValueRefC1Ev(%"class.altered_carbon::js::JsValueRef"* %ptr2684)
  %ptr2688 = alloca %"class.altered_carbon::js::JsValueRef", align 8
  call void @_ZN14altered_carbon2js10JsValueRefC1Ev(%"class.altered_carbon::js::JsValueRef"* %ptr2688)
  %ptr2689 = alloca %"class.altered_carbon::js::JsValueRef", align 8
  call void @_ZN14altered_carbon2js10JsValueRefC1Ev(%"class.altered_carbon::js::JsValueRef"* %ptr2689)
  %ptr2690 = alloca %"class.altered_carbon::js::JsValueRef", align 8
  call void @_ZN14altered_carbon2js10JsValueRefC1Ev(%"class.altered_carbon::js::JsValueRef"* %ptr2690)
  %ptr2694 = alloca %"class.altered_carbon::js::JsValueRef", align 8
  call void @_ZN14altered_carbon2js10JsValueRefC1Ev(%"class.altered_carbon::js::JsValueRef"* %ptr2694)
  %ptr2695 = alloca %"class.altered_carbon::js::JsValueRef", align 8
  call void @_ZN14altered_carbon2js10JsValueRefC1Ev(%"class.altered_carbon::js::JsValueRef"* %ptr2695)
  %ptr2699 = alloca %"class.altered_carbon::js::JsValueRef", align 8
  call void @_ZN14altered_carbon2js10JsValueRefC1Ev(%"class.altered_carbon::js::JsValueRef"* %ptr2699)
  %ptr2703 = alloca %"class.altered_carbon::js::JsValueRef", align 8
  call void @_ZN14altered_carbon2js10JsValueRefC1Ev(%"class.altered_carbon::js::JsValueRef"* %ptr2703)
  %ptr2704 = alloca %"class.altered_carbon::js::JsValueRef", align 8
  call void @_ZN14altered_carbon2js10JsValueRefC1Ev(%"class.altered_carbon::js::JsValueRef"* %ptr2704)
  %ptr2705 = alloca %"class.altered_carbon::js::JsValueRef", align 8
  call void @_ZN14altered_carbon2js10JsValueRefC1Ev(%"class.altered_carbon::js::JsValueRef"* %ptr2705)
  %ptr2709 = alloca %"class.altered_carbon::js::JsValueRef", align 8
  call void @_ZN14altered_carbon2js10JsValueRefC1Ev(%"class.altered_carbon::js::JsValueRef"* %ptr2709)
  %ptr2713 = alloca %"class.altered_carbon::js::JsValueRef", align 8
  call void @_ZN14altered_carbon2js10JsValueRefC1Ev(%"class.altered_carbon::js::JsValueRef"* %ptr2713)
  %ptr2714 = alloca %"class.altered_carbon::js::JsValueRef", align 8
  call void @_ZN14altered_carbon2js10JsValueRefC1Ev(%"class.altered_carbon::js::JsValueRef"* %ptr2714)
  %ptr2715 = alloca %"class.altered_carbon::js::JsValueRef", align 8
  call void @_ZN14altered_carbon2js10JsValueRefC1Ev(%"class.altered_carbon::js::JsValueRef"* %ptr2715)
  %ptr2719 = alloca %"class.altered_carbon::js::JsValueRef", align 8
  call void @_ZN14altered_carbon2js10JsValueRefC1Ev(%"class.altered_carbon::js::JsValueRef"* %ptr2719)
  %ptr2723 = alloca %"class.altered_carbon::js::JsValueRef", align 8
  call void @_ZN14altered_carbon2js10JsValueRefC1Ev(%"class.altered_carbon::js::JsValueRef"* %ptr2723)
  %ptr2724 = alloca %"class.altered_carbon::js::JsValueRef", align 8
  call void @_ZN14altered_carbon2js10JsValueRefC1Ev(%"class.altered_carbon::js::JsValueRef"* %ptr2724)
  %ptr2725 = alloca %"class.altered_carbon::js::JsValueRef", align 8
  call void @_ZN14altered_carbon2js10JsValueRefC1Ev(%"class.altered_carbon::js::JsValueRef"* %ptr2725)
  %ptr2729 = alloca %"class.altered_carbon::js::JsValueRef", align 8
  call void @_ZN14altered_carbon2js10JsValueRefC1Ev(%"class.altered_carbon::js::JsValueRef"* %ptr2729)
  %ptr2733 = alloca %"class.altered_carbon::js::JsValueRef", align 8
  call void @_ZN14altered_carbon2js10JsValueRefC1Ev(%"class.altered_carbon::js::JsValueRef"* %ptr2733)
  %ptr2734 = alloca %"class.altered_carbon::js::JsValueRef", align 8
  call void @_ZN14altered_carbon2js10JsValueRefC1Ev(%"class.altered_carbon::js::JsValueRef"* %ptr2734)
  %ptr2735 = alloca %"class.altered_carbon::js::JsValueRef", align 8
  call void @_ZN14altered_carbon2js10JsValueRefC1Ev(%"class.altered_carbon::js::JsValueRef"* %ptr2735)
  %ptr2739 = alloca %"class.altered_carbon::js::JsValueRef", align 8
  call void @_ZN14altered_carbon2js10JsValueRefC1Ev(%"class.altered_carbon::js::JsValueRef"* %ptr2739)
  %ptr2743 = alloca %"class.altered_carbon::js::JsValueRef", align 8
  call void @_ZN14altered_carbon2js10JsValueRefC1Ev(%"class.altered_carbon::js::JsValueRef"* %ptr2743)
  %ptr2744 = alloca %"class.altered_carbon::js::JsValueRef", align 8
  call void @_ZN14altered_carbon2js10JsValueRefC1Ev(%"class.altered_carbon::js::JsValueRef"* %ptr2744)
  %ptr2745 = alloca %"class.altered_carbon::js::JsValueRef", align 8
  call void @_ZN14altered_carbon2js10JsValueRefC1Ev(%"class.altered_carbon::js::JsValueRef"* %ptr2745)
  %ptr2749 = alloca %"class.altered_carbon::js::JsValueRef", align 8
  call void @_ZN14altered_carbon2js10JsValueRefC1Ev(%"class.altered_carbon::js::JsValueRef"* %ptr2749)
  %ptr2750 = alloca %"class.altered_carbon::js::JsValueRef", align 8
  call void @_ZN14altered_carbon2js10JsValueRefC1Ev(%"class.altered_carbon::js::JsValueRef"* %ptr2750)
  %ptr2754 = alloca %"class.altered_carbon::js::JsValueRef", align 8
  call void @_ZN14altered_carbon2js10JsValueRefC1Ev(%"class.altered_carbon::js::JsValueRef"* %ptr2754)
  %ptr2758 = alloca %"class.altered_carbon::js::JsValueRef", align 8
  call void @_ZN14altered_carbon2js10JsValueRefC1Ev(%"class.altered_carbon::js::JsValueRef"* %ptr2758)
  %ptr2759 = alloca %"class.altered_carbon::js::JsValueRef", align 8
  call void @_ZN14altered_carbon2js10JsValueRefC1Ev(%"class.altered_carbon::js::JsValueRef"* %ptr2759)
  %ptr2760 = alloca %"class.altered_carbon::js::JsValueRef", align 8
  call void @_ZN14altered_carbon2js10JsValueRefC1Ev(%"class.altered_carbon::js::JsValueRef"* %ptr2760)
  %ptr2764 = alloca %"class.altered_carbon::js::JsValueRef", align 8
  call void @_ZN14altered_carbon2js10JsValueRefC1Ev(%"class.altered_carbon::js::JsValueRef"* %ptr2764)
  %ptr2768 = alloca %"class.altered_carbon::js::JsValueRef", align 8
  call void @_ZN14altered_carbon2js10JsValueRefC1Ev(%"class.altered_carbon::js::JsValueRef"* %ptr2768)
  %ptr2769 = alloca %"class.altered_carbon::js::JsValueRef", align 8
  call void @_ZN14altered_carbon2js10JsValueRefC1Ev(%"class.altered_carbon::js::JsValueRef"* %ptr2769)
  %ptr2770 = alloca %"class.altered_carbon::js::JsValueRef", align 8
  call void @_ZN14altered_carbon2js10JsValueRefC1Ev(%"class.altered_carbon::js::JsValueRef"* %ptr2770)
  %ptr2774 = alloca %"class.altered_carbon::js::JsValueRef", align 8
  call void @_ZN14altered_carbon2js10JsValueRefC1Ev(%"class.altered_carbon::js::JsValueRef"* %ptr2774)
  %ptr2778 = alloca %"class.altered_carbon::js::JsValueRef", align 8
  call void @_ZN14altered_carbon2js10JsValueRefC1Ev(%"class.altered_carbon::js::JsValueRef"* %ptr2778)
  %ptr2779 = alloca %"class.altered_carbon::js::JsValueRef", align 8
  call void @_ZN14altered_carbon2js10JsValueRefC1Ev(%"class.altered_carbon::js::JsValueRef"* %ptr2779)
  %ptr2780 = alloca %"class.altered_carbon::js::JsValueRef", align 8
  call void @_ZN14altered_carbon2js10JsValueRefC1Ev(%"class.altered_carbon::js::JsValueRef"* %ptr2780)
  %ptr2784 = alloca %"class.altered_carbon::js::JsValueRef", align 8
  call void @_ZN14altered_carbon2js10JsValueRefC1Ev(%"class.altered_carbon::js::JsValueRef"* %ptr2784)
  %ptr2788 = alloca %"class.altered_carbon::js::JsValueRef", align 8
  call void @_ZN14altered_carbon2js10JsValueRefC1Ev(%"class.altered_carbon::js::JsValueRef"* %ptr2788)
  %ptr2789 = alloca %"class.altered_carbon::js::JsValueRef", align 8
  call void @_ZN14altered_carbon2js10JsValueRefC1Ev(%"class.altered_carbon::js::JsValueRef"* %ptr2789)
  %ptr2790 = alloca %"class.altered_carbon::js::JsValueRef", align 8
  call void @_ZN14altered_carbon2js10JsValueRefC1Ev(%"class.altered_carbon::js::JsValueRef"* %ptr2790)
  %ptr2794 = alloca %"class.altered_carbon::js::JsValueRef", align 8
  call void @_ZN14altered_carbon2js10JsValueRefC1Ev(%"class.altered_carbon::js::JsValueRef"* %ptr2794)
  %ptr2798 = alloca %"class.altered_carbon::js::JsValueRef", align 8
  call void @_ZN14altered_carbon2js10JsValueRefC1Ev(%"class.altered_carbon::js::JsValueRef"* %ptr2798)
  %ptr2799 = alloca %"class.altered_carbon::js::JsValueRef", align 8
  call void @_ZN14altered_carbon2js10JsValueRefC1Ev(%"class.altered_carbon::js::JsValueRef"* %ptr2799)
  %ptr2800 = alloca %"class.altered_carbon::js::JsValueRef", align 8
  call void @_ZN14altered_carbon2js10JsValueRefC1Ev(%"class.altered_carbon::js::JsValueRef"* %ptr2800)
  %ptr2804 = alloca %"class.altered_carbon::js::JsValueRef", align 8
  call void @_ZN14altered_carbon2js10JsValueRefC1Ev(%"class.altered_carbon::js::JsValueRef"* %ptr2804)
  %ptr2805 = alloca %"class.altered_carbon::js::JsValueRef", align 8
  call void @_ZN14altered_carbon2js10JsValueRefC1Ev(%"class.altered_carbon::js::JsValueRef"* %ptr2805)
  %ptr2809 = alloca %"class.altered_carbon::js::JsValueRef", align 8
  call void @_ZN14altered_carbon2js10JsValueRefC1Ev(%"class.altered_carbon::js::JsValueRef"* %ptr2809)
  %ptr2813 = alloca %"class.altered_carbon::js::JsValueRef", align 8
  call void @_ZN14altered_carbon2js10JsValueRefC1Ev(%"class.altered_carbon::js::JsValueRef"* %ptr2813)
  %ptr2814 = alloca %"class.altered_carbon::js::JsValueRef", align 8
  call void @_ZN14altered_carbon2js10JsValueRefC1Ev(%"class.altered_carbon::js::JsValueRef"* %ptr2814)
  %ptr2815 = alloca %"class.altered_carbon::js::JsValueRef", align 8
  call void @_ZN14altered_carbon2js10JsValueRefC1Ev(%"class.altered_carbon::js::JsValueRef"* %ptr2815)
  %ptr2819 = alloca %"class.altered_carbon::js::JsValueRef", align 8
  call void @_ZN14altered_carbon2js10JsValueRefC1Ev(%"class.altered_carbon::js::JsValueRef"* %ptr2819)
  %ptr2823 = alloca %"class.altered_carbon::js::JsValueRef", align 8
  call void @_ZN14altered_carbon2js10JsValueRefC1Ev(%"class.altered_carbon::js::JsValueRef"* %ptr2823)
  %ptr2824 = alloca %"class.altered_carbon::js::JsValueRef", align 8
  call void @_ZN14altered_carbon2js10JsValueRefC1Ev(%"class.altered_carbon::js::JsValueRef"* %ptr2824)
  %ptr2825 = alloca %"class.altered_carbon::js::JsValueRef", align 8
  call void @_ZN14altered_carbon2js10JsValueRefC1Ev(%"class.altered_carbon::js::JsValueRef"* %ptr2825)
  %ptr2829 = alloca %"class.altered_carbon::js::JsValueRef", align 8
  call void @_ZN14altered_carbon2js10JsValueRefC1Ev(%"class.altered_carbon::js::JsValueRef"* %ptr2829)
  %ptr2833 = alloca %"class.altered_carbon::js::JsValueRef", align 8
  call void @_ZN14altered_carbon2js10JsValueRefC1Ev(%"class.altered_carbon::js::JsValueRef"* %ptr2833)
  %ptr2834 = alloca %"class.altered_carbon::js::JsValueRef", align 8
  call void @_ZN14altered_carbon2js10JsValueRefC1Ev(%"class.altered_carbon::js::JsValueRef"* %ptr2834)
  %ptr2835 = alloca %"class.altered_carbon::js::JsValueRef", align 8
  call void @_ZN14altered_carbon2js10JsValueRefC1Ev(%"class.altered_carbon::js::JsValueRef"* %ptr2835)
  %ptr2839 = alloca %"class.altered_carbon::js::JsValueRef", align 8
  call void @_ZN14altered_carbon2js10JsValueRefC1Ev(%"class.altered_carbon::js::JsValueRef"* %ptr2839)
  %ptr2843 = alloca %"class.altered_carbon::js::JsValueRef", align 8
  call void @_ZN14altered_carbon2js10JsValueRefC1Ev(%"class.altered_carbon::js::JsValueRef"* %ptr2843)
  %ptr2844 = alloca %"class.altered_carbon::js::JsValueRef", align 8
  call void @_ZN14altered_carbon2js10JsValueRefC1Ev(%"class.altered_carbon::js::JsValueRef"* %ptr2844)
  %ptr2845 = alloca %"class.altered_carbon::js::JsValueRef", align 8
  call void @_ZN14altered_carbon2js10JsValueRefC1Ev(%"class.altered_carbon::js::JsValueRef"* %ptr2845)
  %ptr2849 = alloca %"class.altered_carbon::js::JsValueRef", align 8
  call void @_ZN14altered_carbon2js10JsValueRefC1Ev(%"class.altered_carbon::js::JsValueRef"* %ptr2849)
  %ptr2853 = alloca %"class.altered_carbon::js::JsValueRef", align 8
  call void @_ZN14altered_carbon2js10JsValueRefC1Ev(%"class.altered_carbon::js::JsValueRef"* %ptr2853)
  %ptr2854 = alloca %"class.altered_carbon::js::JsValueRef", align 8
  call void @_ZN14altered_carbon2js10JsValueRefC1Ev(%"class.altered_carbon::js::JsValueRef"* %ptr2854)
  %ptr2855 = alloca %"class.altered_carbon::js::JsValueRef", align 8
  call void @_ZN14altered_carbon2js10JsValueRefC1Ev(%"class.altered_carbon::js::JsValueRef"* %ptr2855)
  %ptr2859 = alloca %"class.altered_carbon::js::JsValueRef", align 8
  call void @_ZN14altered_carbon2js10JsValueRefC1Ev(%"class.altered_carbon::js::JsValueRef"* %ptr2859)
  %ptr2860 = alloca %"class.altered_carbon::js::JsValueRef", align 8
  call void @_ZN14altered_carbon2js10JsValueRefC1Ev(%"class.altered_carbon::js::JsValueRef"* %ptr2860)
  %ptr2864 = alloca %"class.altered_carbon::js::JsValueRef", align 8
  call void @_ZN14altered_carbon2js10JsValueRefC1Ev(%"class.altered_carbon::js::JsValueRef"* %ptr2864)
  %ptr2868 = alloca %"class.altered_carbon::js::JsValueRef", align 8
  call void @_ZN14altered_carbon2js10JsValueRefC1Ev(%"class.altered_carbon::js::JsValueRef"* %ptr2868)
  %ptr2869 = alloca %"class.altered_carbon::js::JsValueRef", align 8
  call void @_ZN14altered_carbon2js10JsValueRefC1Ev(%"class.altered_carbon::js::JsValueRef"* %ptr2869)
  %ptr2870 = alloca %"class.altered_carbon::js::JsValueRef", align 8
  call void @_ZN14altered_carbon2js10JsValueRefC1Ev(%"class.altered_carbon::js::JsValueRef"* %ptr2870)
  %ptr2874 = alloca %"class.altered_carbon::js::JsValueRef", align 8
  call void @_ZN14altered_carbon2js10JsValueRefC1Ev(%"class.altered_carbon::js::JsValueRef"* %ptr2874)
  %ptr2878 = alloca %"class.altered_carbon::js::JsValueRef", align 8
  call void @_ZN14altered_carbon2js10JsValueRefC1Ev(%"class.altered_carbon::js::JsValueRef"* %ptr2878)
  %ptr2879 = alloca %"class.altered_carbon::js::JsValueRef", align 8
  call void @_ZN14altered_carbon2js10JsValueRefC1Ev(%"class.altered_carbon::js::JsValueRef"* %ptr2879)
  %ptr2880 = alloca %"class.altered_carbon::js::JsValueRef", align 8
  call void @_ZN14altered_carbon2js10JsValueRefC1Ev(%"class.altered_carbon::js::JsValueRef"* %ptr2880)
  %ptr2884 = alloca %"class.altered_carbon::js::JsValueRef", align 8
  call void @_ZN14altered_carbon2js10JsValueRefC1Ev(%"class.altered_carbon::js::JsValueRef"* %ptr2884)
  %ptr2888 = alloca %"class.altered_carbon::js::JsValueRef", align 8
  call void @_ZN14altered_carbon2js10JsValueRefC1Ev(%"class.altered_carbon::js::JsValueRef"* %ptr2888)
  %ptr2889 = alloca %"class.altered_carbon::js::JsValueRef", align 8
  call void @_ZN14altered_carbon2js10JsValueRefC1Ev(%"class.altered_carbon::js::JsValueRef"* %ptr2889)
  %ptr2890 = alloca %"class.altered_carbon::js::JsValueRef", align 8
  call void @_ZN14altered_carbon2js10JsValueRefC1Ev(%"class.altered_carbon::js::JsValueRef"* %ptr2890)
  %ptr2894 = alloca %"class.altered_carbon::js::JsValueRef", align 8
  call void @_ZN14altered_carbon2js10JsValueRefC1Ev(%"class.altered_carbon::js::JsValueRef"* %ptr2894)
  %ptr2898 = alloca %"class.altered_carbon::js::JsValueRef", align 8
  call void @_ZN14altered_carbon2js10JsValueRefC1Ev(%"class.altered_carbon::js::JsValueRef"* %ptr2898)
  %ptr2899 = alloca %"class.altered_carbon::js::JsValueRef", align 8
  call void @_ZN14altered_carbon2js10JsValueRefC1Ev(%"class.altered_carbon::js::JsValueRef"* %ptr2899)
  %ptr2900 = alloca %"class.altered_carbon::js::JsValueRef", align 8
  call void @_ZN14altered_carbon2js10JsValueRefC1Ev(%"class.altered_carbon::js::JsValueRef"* %ptr2900)
  %ptr2904 = alloca %"class.altered_carbon::js::JsValueRef", align 8
  call void @_ZN14altered_carbon2js10JsValueRefC1Ev(%"class.altered_carbon::js::JsValueRef"* %ptr2904)
  %ptr2908 = alloca %"class.altered_carbon::js::JsValueRef", align 8
  call void @_ZN14altered_carbon2js10JsValueRefC1Ev(%"class.altered_carbon::js::JsValueRef"* %ptr2908)
  %ptr2909 = alloca %"class.altered_carbon::js::JsValueRef", align 8
  call void @_ZN14altered_carbon2js10JsValueRefC1Ev(%"class.altered_carbon::js::JsValueRef"* %ptr2909)
  %ptr2910 = alloca %"class.altered_carbon::js::JsValueRef", align 8
  call void @_ZN14altered_carbon2js10JsValueRefC1Ev(%"class.altered_carbon::js::JsValueRef"* %ptr2910)
  %ptr2914 = alloca %"class.altered_carbon::js::JsValueRef", align 8
  call void @_ZN14altered_carbon2js10JsValueRefC1Ev(%"class.altered_carbon::js::JsValueRef"* %ptr2914)
  %ptr2915 = alloca %"class.altered_carbon::js::JsValueRef", align 8
  call void @_ZN14altered_carbon2js10JsValueRefC1Ev(%"class.altered_carbon::js::JsValueRef"* %ptr2915)
  %ptr2919 = alloca %"class.altered_carbon::js::JsValueRef", align 8
  call void @_ZN14altered_carbon2js10JsValueRefC1Ev(%"class.altered_carbon::js::JsValueRef"* %ptr2919)
  %ptr2923 = alloca %"class.altered_carbon::js::JsValueRef", align 8
  call void @_ZN14altered_carbon2js10JsValueRefC1Ev(%"class.altered_carbon::js::JsValueRef"* %ptr2923)
  %ptr2924 = alloca %"class.altered_carbon::js::JsValueRef", align 8
  call void @_ZN14altered_carbon2js10JsValueRefC1Ev(%"class.altered_carbon::js::JsValueRef"* %ptr2924)
  %ptr2925 = alloca %"class.altered_carbon::js::JsValueRef", align 8
  call void @_ZN14altered_carbon2js10JsValueRefC1Ev(%"class.altered_carbon::js::JsValueRef"* %ptr2925)
  %ptr2929 = alloca %"class.altered_carbon::js::JsValueRef", align 8
  call void @_ZN14altered_carbon2js10JsValueRefC1Ev(%"class.altered_carbon::js::JsValueRef"* %ptr2929)
  %ptr2933 = alloca %"class.altered_carbon::js::JsValueRef", align 8
  call void @_ZN14altered_carbon2js10JsValueRefC1Ev(%"class.altered_carbon::js::JsValueRef"* %ptr2933)
  %ptr2934 = alloca %"class.altered_carbon::js::JsValueRef", align 8
  call void @_ZN14altered_carbon2js10JsValueRefC1Ev(%"class.altered_carbon::js::JsValueRef"* %ptr2934)
  %ptr2935 = alloca %"class.altered_carbon::js::JsValueRef", align 8
  call void @_ZN14altered_carbon2js10JsValueRefC1Ev(%"class.altered_carbon::js::JsValueRef"* %ptr2935)
  %ptr2939 = alloca %"class.altered_carbon::js::JsValueRef", align 8
  call void @_ZN14altered_carbon2js10JsValueRefC1Ev(%"class.altered_carbon::js::JsValueRef"* %ptr2939)
  %ptr2943 = alloca %"class.altered_carbon::js::JsValueRef", align 8
  call void @_ZN14altered_carbon2js10JsValueRefC1Ev(%"class.altered_carbon::js::JsValueRef"* %ptr2943)
  %ptr2944 = alloca %"class.altered_carbon::js::JsValueRef", align 8
  call void @_ZN14altered_carbon2js10JsValueRefC1Ev(%"class.altered_carbon::js::JsValueRef"* %ptr2944)
  %ptr2945 = alloca %"class.altered_carbon::js::JsValueRef", align 8
  call void @_ZN14altered_carbon2js10JsValueRefC1Ev(%"class.altered_carbon::js::JsValueRef"* %ptr2945)
  %ptr2949 = alloca %"class.altered_carbon::js::JsValueRef", align 8
  call void @_ZN14altered_carbon2js10JsValueRefC1Ev(%"class.altered_carbon::js::JsValueRef"* %ptr2949)
  %ptr2953 = alloca %"class.altered_carbon::js::JsValueRef", align 8
  call void @_ZN14altered_carbon2js10JsValueRefC1Ev(%"class.altered_carbon::js::JsValueRef"* %ptr2953)
  %ptr2954 = alloca %"class.altered_carbon::js::JsValueRef", align 8
  call void @_ZN14altered_carbon2js10JsValueRefC1Ev(%"class.altered_carbon::js::JsValueRef"* %ptr2954)
  %ptr2955 = alloca %"class.altered_carbon::js::JsValueRef", align 8
  call void @_ZN14altered_carbon2js10JsValueRefC1Ev(%"class.altered_carbon::js::JsValueRef"* %ptr2955)
  %ptr2959 = alloca %"class.altered_carbon::js::JsValueRef", align 8
  call void @_ZN14altered_carbon2js10JsValueRefC1Ev(%"class.altered_carbon::js::JsValueRef"* %ptr2959)
  %ptr2963 = alloca %"class.altered_carbon::js::JsValueRef", align 8
  call void @_ZN14altered_carbon2js10JsValueRefC1Ev(%"class.altered_carbon::js::JsValueRef"* %ptr2963)
  %ptr2964 = alloca %"class.altered_carbon::js::JsValueRef", align 8
  call void @_ZN14altered_carbon2js10JsValueRefC1Ev(%"class.altered_carbon::js::JsValueRef"* %ptr2964)
  %ptr2965 = alloca %"class.altered_carbon::js::JsValueRef", align 8
  call void @_ZN14altered_carbon2js10JsValueRefC1Ev(%"class.altered_carbon::js::JsValueRef"* %ptr2965)
  %ptr2969 = alloca %"class.altered_carbon::js::JsValueRef", align 8
  call void @_ZN14altered_carbon2js10JsValueRefC1Ev(%"class.altered_carbon::js::JsValueRef"* %ptr2969)
  %ptr2970 = alloca %"class.altered_carbon::js::JsValueRef", align 8
  call void @_ZN14altered_carbon2js10JsValueRefC1Ev(%"class.altered_carbon::js::JsValueRef"* %ptr2970)
  %ptr2974 = alloca %"class.altered_carbon::js::JsValueRef", align 8
  call void @_ZN14altered_carbon2js10JsValueRefC1Ev(%"class.altered_carbon::js::JsValueRef"* %ptr2974)
  %ptr2978 = alloca %"class.altered_carbon::js::JsValueRef", align 8
  call void @_ZN14altered_carbon2js10JsValueRefC1Ev(%"class.altered_carbon::js::JsValueRef"* %ptr2978)
  %ptr2979 = alloca %"class.altered_carbon::js::JsValueRef", align 8
  call void @_ZN14altered_carbon2js10JsValueRefC1Ev(%"class.altered_carbon::js::JsValueRef"* %ptr2979)
  %ptr2980 = alloca %"class.altered_carbon::js::JsValueRef", align 8
  call void @_ZN14altered_carbon2js10JsValueRefC1Ev(%"class.altered_carbon::js::JsValueRef"* %ptr2980)
  %ptr2984 = alloca %"class.altered_carbon::js::JsValueRef", align 8
  call void @_ZN14altered_carbon2js10JsValueRefC1Ev(%"class.altered_carbon::js::JsValueRef"* %ptr2984)
  %ptr2988 = alloca %"class.altered_carbon::js::JsValueRef", align 8
  call void @_ZN14altered_carbon2js10JsValueRefC1Ev(%"class.altered_carbon::js::JsValueRef"* %ptr2988)
  %ptr2989 = alloca %"class.altered_carbon::js::JsValueRef", align 8
  call void @_ZN14altered_carbon2js10JsValueRefC1Ev(%"class.altered_carbon::js::JsValueRef"* %ptr2989)
  %ptr2990 = alloca %"class.altered_carbon::js::JsValueRef", align 8
  call void @_ZN14altered_carbon2js10JsValueRefC1Ev(%"class.altered_carbon::js::JsValueRef"* %ptr2990)
  %ptr2994 = alloca %"class.altered_carbon::js::JsValueRef", align 8
  call void @_ZN14altered_carbon2js10JsValueRefC1Ev(%"class.altered_carbon::js::JsValueRef"* %ptr2994)
  %ptr2998 = alloca %"class.altered_carbon::js::JsValueRef", align 8
  call void @_ZN14altered_carbon2js10JsValueRefC1Ev(%"class.altered_carbon::js::JsValueRef"* %ptr2998)
  %ptr2999 = alloca %"class.altered_carbon::js::JsValueRef", align 8
  call void @_ZN14altered_carbon2js10JsValueRefC1Ev(%"class.altered_carbon::js::JsValueRef"* %ptr2999)
  %ptr3000 = alloca %"class.altered_carbon::js::JsValueRef", align 8
  call void @_ZN14altered_carbon2js10JsValueRefC1Ev(%"class.altered_carbon::js::JsValueRef"* %ptr3000)
  %ptr3004 = alloca %"class.altered_carbon::js::JsValueRef", align 8
  call void @_ZN14altered_carbon2js10JsValueRefC1Ev(%"class.altered_carbon::js::JsValueRef"* %ptr3004)
  %ptr3008 = alloca %"class.altered_carbon::js::JsValueRef", align 8
  call void @_ZN14altered_carbon2js10JsValueRefC1Ev(%"class.altered_carbon::js::JsValueRef"* %ptr3008)
  %ptr3009 = alloca %"class.altered_carbon::js::JsValueRef", align 8
  call void @_ZN14altered_carbon2js10JsValueRefC1Ev(%"class.altered_carbon::js::JsValueRef"* %ptr3009)
  %ptr3010 = alloca %"class.altered_carbon::js::JsValueRef", align 8
  call void @_ZN14altered_carbon2js10JsValueRefC1Ev(%"class.altered_carbon::js::JsValueRef"* %ptr3010)
  %ptr3014 = alloca %"class.altered_carbon::js::JsValueRef", align 8
  call void @_ZN14altered_carbon2js10JsValueRefC1Ev(%"class.altered_carbon::js::JsValueRef"* %ptr3014)
  %ptr3018 = alloca %"class.altered_carbon::js::JsValueRef", align 8
  call void @_ZN14altered_carbon2js10JsValueRefC1Ev(%"class.altered_carbon::js::JsValueRef"* %ptr3018)
  %ptr3019 = alloca %"class.altered_carbon::js::JsValueRef", align 8
  call void @_ZN14altered_carbon2js10JsValueRefC1Ev(%"class.altered_carbon::js::JsValueRef"* %ptr3019)
  %ptr3020 = alloca %"class.altered_carbon::js::JsValueRef", align 8
  call void @_ZN14altered_carbon2js10JsValueRefC1Ev(%"class.altered_carbon::js::JsValueRef"* %ptr3020)
  %ptr3024 = alloca %"class.altered_carbon::js::JsValueRef", align 8
  call void @_ZN14altered_carbon2js10JsValueRefC1Ev(%"class.altered_carbon::js::JsValueRef"* %ptr3024)
  %ptr3025 = alloca %"class.altered_carbon::js::JsValueRef", align 8
  call void @_ZN14altered_carbon2js10JsValueRefC1Ev(%"class.altered_carbon::js::JsValueRef"* %ptr3025)
  %ptr3029 = alloca %"class.altered_carbon::js::JsValueRef", align 8
  call void @_ZN14altered_carbon2js10JsValueRefC1Ev(%"class.altered_carbon::js::JsValueRef"* %ptr3029)
  %ptr3033 = alloca %"class.altered_carbon::js::JsValueRef", align 8
  call void @_ZN14altered_carbon2js10JsValueRefC1Ev(%"class.altered_carbon::js::JsValueRef"* %ptr3033)
  %ptr3034 = alloca %"class.altered_carbon::js::JsValueRef", align 8
  call void @_ZN14altered_carbon2js10JsValueRefC1Ev(%"class.altered_carbon::js::JsValueRef"* %ptr3034)
  %ptr3035 = alloca %"class.altered_carbon::js::JsValueRef", align 8
  call void @_ZN14altered_carbon2js10JsValueRefC1Ev(%"class.altered_carbon::js::JsValueRef"* %ptr3035)
  %ptr3039 = alloca %"class.altered_carbon::js::JsValueRef", align 8
  call void @_ZN14altered_carbon2js10JsValueRefC1Ev(%"class.altered_carbon::js::JsValueRef"* %ptr3039)
  %ptr3043 = alloca %"class.altered_carbon::js::JsValueRef", align 8
  call void @_ZN14altered_carbon2js10JsValueRefC1Ev(%"class.altered_carbon::js::JsValueRef"* %ptr3043)
  %ptr3044 = alloca %"class.altered_carbon::js::JsValueRef", align 8
  call void @_ZN14altered_carbon2js10JsValueRefC1Ev(%"class.altered_carbon::js::JsValueRef"* %ptr3044)
  %ptr3045 = alloca %"class.altered_carbon::js::JsValueRef", align 8
  call void @_ZN14altered_carbon2js10JsValueRefC1Ev(%"class.altered_carbon::js::JsValueRef"* %ptr3045)
  %ptr3049 = alloca %"class.altered_carbon::js::JsValueRef", align 8
  call void @_ZN14altered_carbon2js10JsValueRefC1Ev(%"class.altered_carbon::js::JsValueRef"* %ptr3049)
  %ptr3053 = alloca %"class.altered_carbon::js::JsValueRef", align 8
  call void @_ZN14altered_carbon2js10JsValueRefC1Ev(%"class.altered_carbon::js::JsValueRef"* %ptr3053)
  %ptr3054 = alloca %"class.altered_carbon::js::JsValueRef", align 8
  call void @_ZN14altered_carbon2js10JsValueRefC1Ev(%"class.altered_carbon::js::JsValueRef"* %ptr3054)
  %ptr3055 = alloca %"class.altered_carbon::js::JsValueRef", align 8
  call void @_ZN14altered_carbon2js10JsValueRefC1Ev(%"class.altered_carbon::js::JsValueRef"* %ptr3055)
  %ptr3059 = alloca %"class.altered_carbon::js::JsValueRef", align 8
  call void @_ZN14altered_carbon2js10JsValueRefC1Ev(%"class.altered_carbon::js::JsValueRef"* %ptr3059)
  %ptr3063 = alloca %"class.altered_carbon::js::JsValueRef", align 8
  call void @_ZN14altered_carbon2js10JsValueRefC1Ev(%"class.altered_carbon::js::JsValueRef"* %ptr3063)
  %ptr3064 = alloca %"class.altered_carbon::js::JsValueRef", align 8
  call void @_ZN14altered_carbon2js10JsValueRefC1Ev(%"class.altered_carbon::js::JsValueRef"* %ptr3064)
  %ptr3065 = alloca %"class.altered_carbon::js::JsValueRef", align 8
  call void @_ZN14altered_carbon2js10JsValueRefC1Ev(%"class.altered_carbon::js::JsValueRef"* %ptr3065)
  %ptr3069 = alloca %"class.altered_carbon::js::JsValueRef", align 8
  call void @_ZN14altered_carbon2js10JsValueRefC1Ev(%"class.altered_carbon::js::JsValueRef"* %ptr3069)
  %ptr3073 = alloca %"class.altered_carbon::js::JsValueRef", align 8
  call void @_ZN14altered_carbon2js10JsValueRefC1Ev(%"class.altered_carbon::js::JsValueRef"* %ptr3073)
  %ptr3074 = alloca %"class.altered_carbon::js::JsValueRef", align 8
  call void @_ZN14altered_carbon2js10JsValueRefC1Ev(%"class.altered_carbon::js::JsValueRef"* %ptr3074)
  %ptr3075 = alloca %"class.altered_carbon::js::JsValueRef", align 8
  call void @_ZN14altered_carbon2js10JsValueRefC1Ev(%"class.altered_carbon::js::JsValueRef"* %ptr3075)
  %ptr3079 = alloca %"class.altered_carbon::js::JsValueRef", align 8
  call void @_ZN14altered_carbon2js10JsValueRefC1Ev(%"class.altered_carbon::js::JsValueRef"* %ptr3079)
  %ptr3080 = alloca %"class.altered_carbon::js::JsValueRef", align 8
  call void @_ZN14altered_carbon2js10JsValueRefC1Ev(%"class.altered_carbon::js::JsValueRef"* %ptr3080)
  %ptr3084 = alloca %"class.altered_carbon::js::JsValueRef", align 8
  call void @_ZN14altered_carbon2js10JsValueRefC1Ev(%"class.altered_carbon::js::JsValueRef"* %ptr3084)
  %ptr3088 = alloca %"class.altered_carbon::js::JsValueRef", align 8
  call void @_ZN14altered_carbon2js10JsValueRefC1Ev(%"class.altered_carbon::js::JsValueRef"* %ptr3088)
  %ptr3089 = alloca %"class.altered_carbon::js::JsValueRef", align 8
  call void @_ZN14altered_carbon2js10JsValueRefC1Ev(%"class.altered_carbon::js::JsValueRef"* %ptr3089)
  %ptr3090 = alloca %"class.altered_carbon::js::JsValueRef", align 8
  call void @_ZN14altered_carbon2js10JsValueRefC1Ev(%"class.altered_carbon::js::JsValueRef"* %ptr3090)
  %ptr3094 = alloca %"class.altered_carbon::js::JsValueRef", align 8
  call void @_ZN14altered_carbon2js10JsValueRefC1Ev(%"class.altered_carbon::js::JsValueRef"* %ptr3094)
  %ptr3098 = alloca %"class.altered_carbon::js::JsValueRef", align 8
  call void @_ZN14altered_carbon2js10JsValueRefC1Ev(%"class.altered_carbon::js::JsValueRef"* %ptr3098)
  %ptr3099 = alloca %"class.altered_carbon::js::JsValueRef", align 8
  call void @_ZN14altered_carbon2js10JsValueRefC1Ev(%"class.altered_carbon::js::JsValueRef"* %ptr3099)
  %ptr3100 = alloca %"class.altered_carbon::js::JsValueRef", align 8
  call void @_ZN14altered_carbon2js10JsValueRefC1Ev(%"class.altered_carbon::js::JsValueRef"* %ptr3100)
  %ptr3104 = alloca %"class.altered_carbon::js::JsValueRef", align 8
  call void @_ZN14altered_carbon2js10JsValueRefC1Ev(%"class.altered_carbon::js::JsValueRef"* %ptr3104)
  %ptr3108 = alloca %"class.altered_carbon::js::JsValueRef", align 8
  call void @_ZN14altered_carbon2js10JsValueRefC1Ev(%"class.altered_carbon::js::JsValueRef"* %ptr3108)
  %ptr3109 = alloca %"class.altered_carbon::js::JsValueRef", align 8
  call void @_ZN14altered_carbon2js10JsValueRefC1Ev(%"class.altered_carbon::js::JsValueRef"* %ptr3109)
  %ptr3110 = alloca %"class.altered_carbon::js::JsValueRef", align 8
  call void @_ZN14altered_carbon2js10JsValueRefC1Ev(%"class.altered_carbon::js::JsValueRef"* %ptr3110)
  %ptr3114 = alloca %"class.altered_carbon::js::JsValueRef", align 8
  call void @_ZN14altered_carbon2js10JsValueRefC1Ev(%"class.altered_carbon::js::JsValueRef"* %ptr3114)
  %ptr3118 = alloca %"class.altered_carbon::js::JsValueRef", align 8
  call void @_ZN14altered_carbon2js10JsValueRefC1Ev(%"class.altered_carbon::js::JsValueRef"* %ptr3118)
  %ptr3119 = alloca %"class.altered_carbon::js::JsValueRef", align 8
  call void @_ZN14altered_carbon2js10JsValueRefC1Ev(%"class.altered_carbon::js::JsValueRef"* %ptr3119)
  %ptr3120 = alloca %"class.altered_carbon::js::JsValueRef", align 8
  call void @_ZN14altered_carbon2js10JsValueRefC1Ev(%"class.altered_carbon::js::JsValueRef"* %ptr3120)
  %ptr3124 = alloca %"class.altered_carbon::js::JsValueRef", align 8
  call void @_ZN14altered_carbon2js10JsValueRefC1Ev(%"class.altered_carbon::js::JsValueRef"* %ptr3124)
  %ptr3128 = alloca %"class.altered_carbon::js::JsValueRef", align 8
  call void @_ZN14altered_carbon2js10JsValueRefC1Ev(%"class.altered_carbon::js::JsValueRef"* %ptr3128)
  %ptr3129 = alloca %"class.altered_carbon::js::JsValueRef", align 8
  call void @_ZN14altered_carbon2js10JsValueRefC1Ev(%"class.altered_carbon::js::JsValueRef"* %ptr3129)
  %ptr3130 = alloca %"class.altered_carbon::js::JsValueRef", align 8
  call void @_ZN14altered_carbon2js10JsValueRefC1Ev(%"class.altered_carbon::js::JsValueRef"* %ptr3130)
  %ptr3134 = alloca %"class.altered_carbon::js::JsValueRef", align 8
  call void @_ZN14altered_carbon2js10JsValueRefC1Ev(%"class.altered_carbon::js::JsValueRef"* %ptr3134)
  %ptr3135 = alloca %"class.altered_carbon::js::JsValueRef", align 8
  call void @_ZN14altered_carbon2js10JsValueRefC1Ev(%"class.altered_carbon::js::JsValueRef"* %ptr3135)
  %ptr3139 = alloca %"class.altered_carbon::js::JsValueRef", align 8
  call void @_ZN14altered_carbon2js10JsValueRefC1Ev(%"class.altered_carbon::js::JsValueRef"* %ptr3139)
  %ptr3143 = alloca %"class.altered_carbon::js::JsValueRef", align 8
  call void @_ZN14altered_carbon2js10JsValueRefC1Ev(%"class.altered_carbon::js::JsValueRef"* %ptr3143)
  %ptr3144 = alloca %"class.altered_carbon::js::JsValueRef", align 8
  call void @_ZN14altered_carbon2js10JsValueRefC1Ev(%"class.altered_carbon::js::JsValueRef"* %ptr3144)
  %ptr3145 = alloca %"class.altered_carbon::js::JsValueRef", align 8
  call void @_ZN14altered_carbon2js10JsValueRefC1Ev(%"class.altered_carbon::js::JsValueRef"* %ptr3145)
  %ptr3149 = alloca %"class.altered_carbon::js::JsValueRef", align 8
  call void @_ZN14altered_carbon2js10JsValueRefC1Ev(%"class.altered_carbon::js::JsValueRef"* %ptr3149)
  %ptr3153 = alloca %"class.altered_carbon::js::JsValueRef", align 8
  call void @_ZN14altered_carbon2js10JsValueRefC1Ev(%"class.altered_carbon::js::JsValueRef"* %ptr3153)
  %ptr3154 = alloca %"class.altered_carbon::js::JsValueRef", align 8
  call void @_ZN14altered_carbon2js10JsValueRefC1Ev(%"class.altered_carbon::js::JsValueRef"* %ptr3154)
  %ptr3155 = alloca %"class.altered_carbon::js::JsValueRef", align 8
  call void @_ZN14altered_carbon2js10JsValueRefC1Ev(%"class.altered_carbon::js::JsValueRef"* %ptr3155)
  %ptr3159 = alloca %"class.altered_carbon::js::JsValueRef", align 8
  call void @_ZN14altered_carbon2js10JsValueRefC1Ev(%"class.altered_carbon::js::JsValueRef"* %ptr3159)
  %ptr3163 = alloca %"class.altered_carbon::js::JsValueRef", align 8
  call void @_ZN14altered_carbon2js10JsValueRefC1Ev(%"class.altered_carbon::js::JsValueRef"* %ptr3163)
  %ptr3164 = alloca %"class.altered_carbon::js::JsValueRef", align 8
  call void @_ZN14altered_carbon2js10JsValueRefC1Ev(%"class.altered_carbon::js::JsValueRef"* %ptr3164)
  %ptr3165 = alloca %"class.altered_carbon::js::JsValueRef", align 8
  call void @_ZN14altered_carbon2js10JsValueRefC1Ev(%"class.altered_carbon::js::JsValueRef"* %ptr3165)
  %ptr3169 = alloca %"class.altered_carbon::js::JsValueRef", align 8
  call void @_ZN14altered_carbon2js10JsValueRefC1Ev(%"class.altered_carbon::js::JsValueRef"* %ptr3169)
  %ptr3173 = alloca %"class.altered_carbon::js::JsValueRef", align 8
  call void @_ZN14altered_carbon2js10JsValueRefC1Ev(%"class.altered_carbon::js::JsValueRef"* %ptr3173)
  %ptr3174 = alloca %"class.altered_carbon::js::JsValueRef", align 8
  call void @_ZN14altered_carbon2js10JsValueRefC1Ev(%"class.altered_carbon::js::JsValueRef"* %ptr3174)
  %ptr3175 = alloca %"class.altered_carbon::js::JsValueRef", align 8
  call void @_ZN14altered_carbon2js10JsValueRefC1Ev(%"class.altered_carbon::js::JsValueRef"* %ptr3175)
  %ptr3179 = alloca %"class.altered_carbon::js::JsValueRef", align 8
  call void @_ZN14altered_carbon2js10JsValueRefC1Ev(%"class.altered_carbon::js::JsValueRef"* %ptr3179)
  %ptr3183 = alloca %"class.altered_carbon::js::JsValueRef", align 8
  call void @_ZN14altered_carbon2js10JsValueRefC1Ev(%"class.altered_carbon::js::JsValueRef"* %ptr3183)
  %ptr3184 = alloca %"class.altered_carbon::js::JsValueRef", align 8
  call void @_ZN14altered_carbon2js10JsValueRefC1Ev(%"class.altered_carbon::js::JsValueRef"* %ptr3184)
  %ptr3185 = alloca %"class.altered_carbon::js::JsValueRef", align 8
  call void @_ZN14altered_carbon2js10JsValueRefC1Ev(%"class.altered_carbon::js::JsValueRef"* %ptr3185)
  %ptr3189 = alloca %"class.altered_carbon::js::JsValueRef", align 8
  call void @_ZN14altered_carbon2js10JsValueRefC1Ev(%"class.altered_carbon::js::JsValueRef"* %ptr3189)
  %ptr3190 = alloca %"class.altered_carbon::js::JsValueRef", align 8
  call void @_ZN14altered_carbon2js10JsValueRefC1Ev(%"class.altered_carbon::js::JsValueRef"* %ptr3190)
  %ptr3194 = alloca %"class.altered_carbon::js::JsValueRef", align 8
  call void @_ZN14altered_carbon2js10JsValueRefC1Ev(%"class.altered_carbon::js::JsValueRef"* %ptr3194)
  %ptr3198 = alloca %"class.altered_carbon::js::JsValueRef", align 8
  call void @_ZN14altered_carbon2js10JsValueRefC1Ev(%"class.altered_carbon::js::JsValueRef"* %ptr3198)
  %ptr3199 = alloca %"class.altered_carbon::js::JsValueRef", align 8
  call void @_ZN14altered_carbon2js10JsValueRefC1Ev(%"class.altered_carbon::js::JsValueRef"* %ptr3199)
  %ptr3200 = alloca %"class.altered_carbon::js::JsValueRef", align 8
  call void @_ZN14altered_carbon2js10JsValueRefC1Ev(%"class.altered_carbon::js::JsValueRef"* %ptr3200)
  %ptr3204 = alloca %"class.altered_carbon::js::JsValueRef", align 8
  call void @_ZN14altered_carbon2js10JsValueRefC1Ev(%"class.altered_carbon::js::JsValueRef"* %ptr3204)
  %ptr3208 = alloca %"class.altered_carbon::js::JsValueRef", align 8
  call void @_ZN14altered_carbon2js10JsValueRefC1Ev(%"class.altered_carbon::js::JsValueRef"* %ptr3208)
  %ptr3209 = alloca %"class.altered_carbon::js::JsValueRef", align 8
  call void @_ZN14altered_carbon2js10JsValueRefC1Ev(%"class.altered_carbon::js::JsValueRef"* %ptr3209)
  %ptr3210 = alloca %"class.altered_carbon::js::JsValueRef", align 8
  call void @_ZN14altered_carbon2js10JsValueRefC1Ev(%"class.altered_carbon::js::JsValueRef"* %ptr3210)
  %ptr3214 = alloca %"class.altered_carbon::js::JsValueRef", align 8
  call void @_ZN14altered_carbon2js10JsValueRefC1Ev(%"class.altered_carbon::js::JsValueRef"* %ptr3214)
  %ptr3218 = alloca %"class.altered_carbon::js::JsValueRef", align 8
  call void @_ZN14altered_carbon2js10JsValueRefC1Ev(%"class.altered_carbon::js::JsValueRef"* %ptr3218)
  %ptr3219 = alloca %"class.altered_carbon::js::JsValueRef", align 8
  call void @_ZN14altered_carbon2js10JsValueRefC1Ev(%"class.altered_carbon::js::JsValueRef"* %ptr3219)
  %ptr3220 = alloca %"class.altered_carbon::js::JsValueRef", align 8
  call void @_ZN14altered_carbon2js10JsValueRefC1Ev(%"class.altered_carbon::js::JsValueRef"* %ptr3220)
  %ptr3224 = alloca %"class.altered_carbon::js::JsValueRef", align 8
  call void @_ZN14altered_carbon2js10JsValueRefC1Ev(%"class.altered_carbon::js::JsValueRef"* %ptr3224)
  %ptr3228 = alloca %"class.altered_carbon::js::JsValueRef", align 8
  call void @_ZN14altered_carbon2js10JsValueRefC1Ev(%"class.altered_carbon::js::JsValueRef"* %ptr3228)
  %ptr3229 = alloca %"class.altered_carbon::js::JsValueRef", align 8
  call void @_ZN14altered_carbon2js10JsValueRefC1Ev(%"class.altered_carbon::js::JsValueRef"* %ptr3229)
  %ptr3230 = alloca %"class.altered_carbon::js::JsValueRef", align 8
  call void @_ZN14altered_carbon2js10JsValueRefC1Ev(%"class.altered_carbon::js::JsValueRef"* %ptr3230)
  %ptr3234 = alloca %"class.altered_carbon::js::JsValueRef", align 8
  call void @_ZN14altered_carbon2js10JsValueRefC1Ev(%"class.altered_carbon::js::JsValueRef"* %ptr3234)
  %ptr3238 = alloca %"class.altered_carbon::js::JsValueRef", align 8
  call void @_ZN14altered_carbon2js10JsValueRefC1Ev(%"class.altered_carbon::js::JsValueRef"* %ptr3238)
  %ptr3239 = alloca %"class.altered_carbon::js::JsValueRef", align 8
  call void @_ZN14altered_carbon2js10JsValueRefC1Ev(%"class.altered_carbon::js::JsValueRef"* %ptr3239)
  %ptr3240 = alloca %"class.altered_carbon::js::JsValueRef", align 8
  call void @_ZN14altered_carbon2js10JsValueRefC1Ev(%"class.altered_carbon::js::JsValueRef"* %ptr3240)
  %ptr3244 = alloca %"class.altered_carbon::js::JsValueRef", align 8
  call void @_ZN14altered_carbon2js10JsValueRefC1Ev(%"class.altered_carbon::js::JsValueRef"* %ptr3244)
  %ptr3245 = alloca %"class.altered_carbon::js::JsValueRef", align 8
  call void @_ZN14altered_carbon2js10JsValueRefC1Ev(%"class.altered_carbon::js::JsValueRef"* %ptr3245)
  %ptr3249 = alloca %"class.altered_carbon::js::JsValueRef", align 8
  call void @_ZN14altered_carbon2js10JsValueRefC1Ev(%"class.altered_carbon::js::JsValueRef"* %ptr3249)
  %ptr3253 = alloca %"class.altered_carbon::js::JsValueRef", align 8
  call void @_ZN14altered_carbon2js10JsValueRefC1Ev(%"class.altered_carbon::js::JsValueRef"* %ptr3253)
  %ptr3254 = alloca %"class.altered_carbon::js::JsValueRef", align 8
  call void @_ZN14altered_carbon2js10JsValueRefC1Ev(%"class.altered_carbon::js::JsValueRef"* %ptr3254)
  %ptr3255 = alloca %"class.altered_carbon::js::JsValueRef", align 8
  call void @_ZN14altered_carbon2js10JsValueRefC1Ev(%"class.altered_carbon::js::JsValueRef"* %ptr3255)
  %ptr3259 = alloca %"class.altered_carbon::js::JsValueRef", align 8
  call void @_ZN14altered_carbon2js10JsValueRefC1Ev(%"class.altered_carbon::js::JsValueRef"* %ptr3259)
  %ptr3263 = alloca %"class.altered_carbon::js::JsValueRef", align 8
  call void @_ZN14altered_carbon2js10JsValueRefC1Ev(%"class.altered_carbon::js::JsValueRef"* %ptr3263)
  %ptr3264 = alloca %"class.altered_carbon::js::JsValueRef", align 8
  call void @_ZN14altered_carbon2js10JsValueRefC1Ev(%"class.altered_carbon::js::JsValueRef"* %ptr3264)
  %ptr3265 = alloca %"class.altered_carbon::js::JsValueRef", align 8
  call void @_ZN14altered_carbon2js10JsValueRefC1Ev(%"class.altered_carbon::js::JsValueRef"* %ptr3265)
  %ptr3269 = alloca %"class.altered_carbon::js::JsValueRef", align 8
  call void @_ZN14altered_carbon2js10JsValueRefC1Ev(%"class.altered_carbon::js::JsValueRef"* %ptr3269)
  %ptr3273 = alloca %"class.altered_carbon::js::JsValueRef", align 8
  call void @_ZN14altered_carbon2js10JsValueRefC1Ev(%"class.altered_carbon::js::JsValueRef"* %ptr3273)
  %ptr3274 = alloca %"class.altered_carbon::js::JsValueRef", align 8
  call void @_ZN14altered_carbon2js10JsValueRefC1Ev(%"class.altered_carbon::js::JsValueRef"* %ptr3274)
  %ptr3275 = alloca %"class.altered_carbon::js::JsValueRef", align 8
  call void @_ZN14altered_carbon2js10JsValueRefC1Ev(%"class.altered_carbon::js::JsValueRef"* %ptr3275)
  %ptr3279 = alloca %"class.altered_carbon::js::JsValueRef", align 8
  call void @_ZN14altered_carbon2js10JsValueRefC1Ev(%"class.altered_carbon::js::JsValueRef"* %ptr3279)
  %ptr3283 = alloca %"class.altered_carbon::js::JsValueRef", align 8
  call void @_ZN14altered_carbon2js10JsValueRefC1Ev(%"class.altered_carbon::js::JsValueRef"* %ptr3283)
  %ptr3284 = alloca %"class.altered_carbon::js::JsValueRef", align 8
  call void @_ZN14altered_carbon2js10JsValueRefC1Ev(%"class.altered_carbon::js::JsValueRef"* %ptr3284)
  %ptr3285 = alloca %"class.altered_carbon::js::JsValueRef", align 8
  call void @_ZN14altered_carbon2js10JsValueRefC1Ev(%"class.altered_carbon::js::JsValueRef"* %ptr3285)
  %ptr3289 = alloca %"class.altered_carbon::js::JsValueRef", align 8
  call void @_ZN14altered_carbon2js10JsValueRefC1Ev(%"class.altered_carbon::js::JsValueRef"* %ptr3289)
  %ptr3293 = alloca %"class.altered_carbon::js::JsValueRef", align 8
  call void @_ZN14altered_carbon2js10JsValueRefC1Ev(%"class.altered_carbon::js::JsValueRef"* %ptr3293)
  %ptr3294 = alloca %"class.altered_carbon::js::JsValueRef", align 8
  call void @_ZN14altered_carbon2js10JsValueRefC1Ev(%"class.altered_carbon::js::JsValueRef"* %ptr3294)
  %ptr3295 = alloca %"class.altered_carbon::js::JsValueRef", align 8
  call void @_ZN14altered_carbon2js10JsValueRefC1Ev(%"class.altered_carbon::js::JsValueRef"* %ptr3295)
  %ptr3299 = alloca %"class.altered_carbon::js::JsValueRef", align 8
  call void @_ZN14altered_carbon2js10JsValueRefC1Ev(%"class.altered_carbon::js::JsValueRef"* %ptr3299)
  %ptr3300 = alloca %"class.altered_carbon::js::JsValueRef", align 8
  call void @_ZN14altered_carbon2js10JsValueRefC1Ev(%"class.altered_carbon::js::JsValueRef"* %ptr3300)
  %ptr3304 = alloca %"class.altered_carbon::js::JsValueRef", align 8
  call void @_ZN14altered_carbon2js10JsValueRefC1Ev(%"class.altered_carbon::js::JsValueRef"* %ptr3304)
  %ptr3308 = alloca %"class.altered_carbon::js::JsValueRef", align 8
  call void @_ZN14altered_carbon2js10JsValueRefC1Ev(%"class.altered_carbon::js::JsValueRef"* %ptr3308)
  %ptr3309 = alloca %"class.altered_carbon::js::JsValueRef", align 8
  call void @_ZN14altered_carbon2js10JsValueRefC1Ev(%"class.altered_carbon::js::JsValueRef"* %ptr3309)
  %ptr3310 = alloca %"class.altered_carbon::js::JsValueRef", align 8
  call void @_ZN14altered_carbon2js10JsValueRefC1Ev(%"class.altered_carbon::js::JsValueRef"* %ptr3310)
  %ptr3314 = alloca %"class.altered_carbon::js::JsValueRef", align 8
  call void @_ZN14altered_carbon2js10JsValueRefC1Ev(%"class.altered_carbon::js::JsValueRef"* %ptr3314)
  %ptr3318 = alloca %"class.altered_carbon::js::JsValueRef", align 8
  call void @_ZN14altered_carbon2js10JsValueRefC1Ev(%"class.altered_carbon::js::JsValueRef"* %ptr3318)
  %ptr3319 = alloca %"class.altered_carbon::js::JsValueRef", align 8
  call void @_ZN14altered_carbon2js10JsValueRefC1Ev(%"class.altered_carbon::js::JsValueRef"* %ptr3319)
  %ptr3320 = alloca %"class.altered_carbon::js::JsValueRef", align 8
  call void @_ZN14altered_carbon2js10JsValueRefC1Ev(%"class.altered_carbon::js::JsValueRef"* %ptr3320)
  %ptr3324 = alloca %"class.altered_carbon::js::JsValueRef", align 8
  call void @_ZN14altered_carbon2js10JsValueRefC1Ev(%"class.altered_carbon::js::JsValueRef"* %ptr3324)
  %ptr3328 = alloca %"class.altered_carbon::js::JsValueRef", align 8
  call void @_ZN14altered_carbon2js10JsValueRefC1Ev(%"class.altered_carbon::js::JsValueRef"* %ptr3328)
  %ptr3329 = alloca %"class.altered_carbon::js::JsValueRef", align 8
  call void @_ZN14altered_carbon2js10JsValueRefC1Ev(%"class.altered_carbon::js::JsValueRef"* %ptr3329)
  %ptr3330 = alloca %"class.altered_carbon::js::JsValueRef", align 8
  call void @_ZN14altered_carbon2js10JsValueRefC1Ev(%"class.altered_carbon::js::JsValueRef"* %ptr3330)
  %ptr3334 = alloca %"class.altered_carbon::js::JsValueRef", align 8
  call void @_ZN14altered_carbon2js10JsValueRefC1Ev(%"class.altered_carbon::js::JsValueRef"* %ptr3334)
  %ptr3338 = alloca %"class.altered_carbon::js::JsValueRef", align 8
  call void @_ZN14altered_carbon2js10JsValueRefC1Ev(%"class.altered_carbon::js::JsValueRef"* %ptr3338)
  %ptr3339 = alloca %"class.altered_carbon::js::JsValueRef", align 8
  call void @_ZN14altered_carbon2js10JsValueRefC1Ev(%"class.altered_carbon::js::JsValueRef"* %ptr3339)
  %ptr3340 = alloca %"class.altered_carbon::js::JsValueRef", align 8
  call void @_ZN14altered_carbon2js10JsValueRefC1Ev(%"class.altered_carbon::js::JsValueRef"* %ptr3340)
  %ptr3344 = alloca %"class.altered_carbon::js::JsValueRef", align 8
  call void @_ZN14altered_carbon2js10JsValueRefC1Ev(%"class.altered_carbon::js::JsValueRef"* %ptr3344)
  %ptr3348 = alloca %"class.altered_carbon::js::JsValueRef", align 8
  call void @_ZN14altered_carbon2js10JsValueRefC1Ev(%"class.altered_carbon::js::JsValueRef"* %ptr3348)
  %ptr3349 = alloca %"class.altered_carbon::js::JsValueRef", align 8
  call void @_ZN14altered_carbon2js10JsValueRefC1Ev(%"class.altered_carbon::js::JsValueRef"* %ptr3349)
  %ptr3350 = alloca %"class.altered_carbon::js::JsValueRef", align 8
  call void @_ZN14altered_carbon2js10JsValueRefC1Ev(%"class.altered_carbon::js::JsValueRef"* %ptr3350)
  %ptr3354 = alloca %"class.altered_carbon::js::JsValueRef", align 8
  call void @_ZN14altered_carbon2js10JsValueRefC1Ev(%"class.altered_carbon::js::JsValueRef"* %ptr3354)
  %ptr3355 = alloca %"class.altered_carbon::js::JsValueRef", align 8
  call void @_ZN14altered_carbon2js10JsValueRefC1Ev(%"class.altered_carbon::js::JsValueRef"* %ptr3355)
  %ptr3359 = alloca %"class.altered_carbon::js::JsValueRef", align 8
  call void @_ZN14altered_carbon2js10JsValueRefC1Ev(%"class.altered_carbon::js::JsValueRef"* %ptr3359)
  %ptr3363 = alloca %"class.altered_carbon::js::JsValueRef", align 8
  call void @_ZN14altered_carbon2js10JsValueRefC1Ev(%"class.altered_carbon::js::JsValueRef"* %ptr3363)
  %ptr3364 = alloca %"class.altered_carbon::js::JsValueRef", align 8
  call void @_ZN14altered_carbon2js10JsValueRefC1Ev(%"class.altered_carbon::js::JsValueRef"* %ptr3364)
  %ptr3365 = alloca %"class.altered_carbon::js::JsValueRef", align 8
  call void @_ZN14altered_carbon2js10JsValueRefC1Ev(%"class.altered_carbon::js::JsValueRef"* %ptr3365)
  %ptr3369 = alloca %"class.altered_carbon::js::JsValueRef", align 8
  call void @_ZN14altered_carbon2js10JsValueRefC1Ev(%"class.altered_carbon::js::JsValueRef"* %ptr3369)
  %ptr3373 = alloca %"class.altered_carbon::js::JsValueRef", align 8
  call void @_ZN14altered_carbon2js10JsValueRefC1Ev(%"class.altered_carbon::js::JsValueRef"* %ptr3373)
  %ptr3374 = alloca %"class.altered_carbon::js::JsValueRef", align 8
  call void @_ZN14altered_carbon2js10JsValueRefC1Ev(%"class.altered_carbon::js::JsValueRef"* %ptr3374)
  %ptr3375 = alloca %"class.altered_carbon::js::JsValueRef", align 8
  call void @_ZN14altered_carbon2js10JsValueRefC1Ev(%"class.altered_carbon::js::JsValueRef"* %ptr3375)
  %ptr3379 = alloca %"class.altered_carbon::js::JsValueRef", align 8
  call void @_ZN14altered_carbon2js10JsValueRefC1Ev(%"class.altered_carbon::js::JsValueRef"* %ptr3379)
  %ptr3383 = alloca %"class.altered_carbon::js::JsValueRef", align 8
  call void @_ZN14altered_carbon2js10JsValueRefC1Ev(%"class.altered_carbon::js::JsValueRef"* %ptr3383)
  %ptr3384 = alloca %"class.altered_carbon::js::JsValueRef", align 8
  call void @_ZN14altered_carbon2js10JsValueRefC1Ev(%"class.altered_carbon::js::JsValueRef"* %ptr3384)
  %ptr3385 = alloca %"class.altered_carbon::js::JsValueRef", align 8
  call void @_ZN14altered_carbon2js10JsValueRefC1Ev(%"class.altered_carbon::js::JsValueRef"* %ptr3385)
  %ptr3389 = alloca %"class.altered_carbon::js::JsValueRef", align 8
  call void @_ZN14altered_carbon2js10JsValueRefC1Ev(%"class.altered_carbon::js::JsValueRef"* %ptr3389)
  %ptr3393 = alloca %"class.altered_carbon::js::JsValueRef", align 8
  call void @_ZN14altered_carbon2js10JsValueRefC1Ev(%"class.altered_carbon::js::JsValueRef"* %ptr3393)
  %ptr3394 = alloca %"class.altered_carbon::js::JsValueRef", align 8
  call void @_ZN14altered_carbon2js10JsValueRefC1Ev(%"class.altered_carbon::js::JsValueRef"* %ptr3394)
  %ptr3395 = alloca %"class.altered_carbon::js::JsValueRef", align 8
  call void @_ZN14altered_carbon2js10JsValueRefC1Ev(%"class.altered_carbon::js::JsValueRef"* %ptr3395)
  %ptr3399 = alloca %"class.altered_carbon::js::JsValueRef", align 8
  call void @_ZN14altered_carbon2js10JsValueRefC1Ev(%"class.altered_carbon::js::JsValueRef"* %ptr3399)
  %ptr3403 = alloca %"class.altered_carbon::js::JsValueRef", align 8
  call void @_ZN14altered_carbon2js10JsValueRefC1Ev(%"class.altered_carbon::js::JsValueRef"* %ptr3403)
  %ptr3404 = alloca %"class.altered_carbon::js::JsValueRef", align 8
  call void @_ZN14altered_carbon2js10JsValueRefC1Ev(%"class.altered_carbon::js::JsValueRef"* %ptr3404)
  %ptr3405 = alloca %"class.altered_carbon::js::JsValueRef", align 8
  call void @_ZN14altered_carbon2js10JsValueRefC1Ev(%"class.altered_carbon::js::JsValueRef"* %ptr3405)
  %ptr3409 = alloca %"class.altered_carbon::js::JsValueRef", align 8
  call void @_ZN14altered_carbon2js10JsValueRefC1Ev(%"class.altered_carbon::js::JsValueRef"* %ptr3409)
  %ptr3410 = alloca %"class.altered_carbon::js::JsValueRef", align 8
  call void @_ZN14altered_carbon2js10JsValueRefC1Ev(%"class.altered_carbon::js::JsValueRef"* %ptr3410)
  %ptr3414 = alloca %"class.altered_carbon::js::JsValueRef", align 8
  call void @_ZN14altered_carbon2js10JsValueRefC1Ev(%"class.altered_carbon::js::JsValueRef"* %ptr3414)
  %ptr3418 = alloca %"class.altered_carbon::js::JsValueRef", align 8
  call void @_ZN14altered_carbon2js10JsValueRefC1Ev(%"class.altered_carbon::js::JsValueRef"* %ptr3418)
  %ptr3419 = alloca %"class.altered_carbon::js::JsValueRef", align 8
  call void @_ZN14altered_carbon2js10JsValueRefC1Ev(%"class.altered_carbon::js::JsValueRef"* %ptr3419)
  %ptr3420 = alloca %"class.altered_carbon::js::JsValueRef", align 8
  call void @_ZN14altered_carbon2js10JsValueRefC1Ev(%"class.altered_carbon::js::JsValueRef"* %ptr3420)
  %ptr3424 = alloca %"class.altered_carbon::js::JsValueRef", align 8
  call void @_ZN14altered_carbon2js10JsValueRefC1Ev(%"class.altered_carbon::js::JsValueRef"* %ptr3424)
  %ptr3428 = alloca %"class.altered_carbon::js::JsValueRef", align 8
  call void @_ZN14altered_carbon2js10JsValueRefC1Ev(%"class.altered_carbon::js::JsValueRef"* %ptr3428)
  %ptr3429 = alloca %"class.altered_carbon::js::JsValueRef", align 8
  call void @_ZN14altered_carbon2js10JsValueRefC1Ev(%"class.altered_carbon::js::JsValueRef"* %ptr3429)
  %ptr3430 = alloca %"class.altered_carbon::js::JsValueRef", align 8
  call void @_ZN14altered_carbon2js10JsValueRefC1Ev(%"class.altered_carbon::js::JsValueRef"* %ptr3430)
  %ptr3434 = alloca %"class.altered_carbon::js::JsValueRef", align 8
  call void @_ZN14altered_carbon2js10JsValueRefC1Ev(%"class.altered_carbon::js::JsValueRef"* %ptr3434)
  %ptr3438 = alloca %"class.altered_carbon::js::JsValueRef", align 8
  call void @_ZN14altered_carbon2js10JsValueRefC1Ev(%"class.altered_carbon::js::JsValueRef"* %ptr3438)
  %ptr3439 = alloca %"class.altered_carbon::js::JsValueRef", align 8
  call void @_ZN14altered_carbon2js10JsValueRefC1Ev(%"class.altered_carbon::js::JsValueRef"* %ptr3439)
  %ptr3440 = alloca %"class.altered_carbon::js::JsValueRef", align 8
  call void @_ZN14altered_carbon2js10JsValueRefC1Ev(%"class.altered_carbon::js::JsValueRef"* %ptr3440)
  %ptr3444 = alloca %"class.altered_carbon::js::JsValueRef", align 8
  call void @_ZN14altered_carbon2js10JsValueRefC1Ev(%"class.altered_carbon::js::JsValueRef"* %ptr3444)
  %ptr3448 = alloca %"class.altered_carbon::js::JsValueRef", align 8
  call void @_ZN14altered_carbon2js10JsValueRefC1Ev(%"class.altered_carbon::js::JsValueRef"* %ptr3448)
  %ptr3449 = alloca %"class.altered_carbon::js::JsValueRef", align 8
  call void @_ZN14altered_carbon2js10JsValueRefC1Ev(%"class.altered_carbon::js::JsValueRef"* %ptr3449)
  %ptr3450 = alloca %"class.altered_carbon::js::JsValueRef", align 8
  call void @_ZN14altered_carbon2js10JsValueRefC1Ev(%"class.altered_carbon::js::JsValueRef"* %ptr3450)
  %ptr3454 = alloca %"class.altered_carbon::js::JsValueRef", align 8
  call void @_ZN14altered_carbon2js10JsValueRefC1Ev(%"class.altered_carbon::js::JsValueRef"* %ptr3454)
  %ptr3458 = alloca %"class.altered_carbon::js::JsValueRef", align 8
  call void @_ZN14altered_carbon2js10JsValueRefC1Ev(%"class.altered_carbon::js::JsValueRef"* %ptr3458)
  %ptr3459 = alloca %"class.altered_carbon::js::JsValueRef", align 8
  call void @_ZN14altered_carbon2js10JsValueRefC1Ev(%"class.altered_carbon::js::JsValueRef"* %ptr3459)
  %ptr3460 = alloca %"class.altered_carbon::js::JsValueRef", align 8
  call void @_ZN14altered_carbon2js10JsValueRefC1Ev(%"class.altered_carbon::js::JsValueRef"* %ptr3460)
  %ptr3464 = alloca %"class.altered_carbon::js::JsValueRef", align 8
  call void @_ZN14altered_carbon2js10JsValueRefC1Ev(%"class.altered_carbon::js::JsValueRef"* %ptr3464)
  %ptr3465 = alloca %"class.altered_carbon::js::JsValueRef", align 8
  call void @_ZN14altered_carbon2js10JsValueRefC1Ev(%"class.altered_carbon::js::JsValueRef"* %ptr3465)
  %ptr3469 = alloca %"class.altered_carbon::js::JsValueRef", align 8
  call void @_ZN14altered_carbon2js10JsValueRefC1Ev(%"class.altered_carbon::js::JsValueRef"* %ptr3469)
  %ptr3473 = alloca %"class.altered_carbon::js::JsValueRef", align 8
  call void @_ZN14altered_carbon2js10JsValueRefC1Ev(%"class.altered_carbon::js::JsValueRef"* %ptr3473)
  %ptr3474 = alloca %"class.altered_carbon::js::JsValueRef", align 8
  call void @_ZN14altered_carbon2js10JsValueRefC1Ev(%"class.altered_carbon::js::JsValueRef"* %ptr3474)
  %ptr3475 = alloca %"class.altered_carbon::js::JsValueRef", align 8
  call void @_ZN14altered_carbon2js10JsValueRefC1Ev(%"class.altered_carbon::js::JsValueRef"* %ptr3475)
  %ptr3479 = alloca %"class.altered_carbon::js::JsValueRef", align 8
  call void @_ZN14altered_carbon2js10JsValueRefC1Ev(%"class.altered_carbon::js::JsValueRef"* %ptr3479)
  %ptr3483 = alloca %"class.altered_carbon::js::JsValueRef", align 8
  call void @_ZN14altered_carbon2js10JsValueRefC1Ev(%"class.altered_carbon::js::JsValueRef"* %ptr3483)
  %ptr3484 = alloca %"class.altered_carbon::js::JsValueRef", align 8
  call void @_ZN14altered_carbon2js10JsValueRefC1Ev(%"class.altered_carbon::js::JsValueRef"* %ptr3484)
  %ptr3485 = alloca %"class.altered_carbon::js::JsValueRef", align 8
  call void @_ZN14altered_carbon2js10JsValueRefC1Ev(%"class.altered_carbon::js::JsValueRef"* %ptr3485)
  %ptr3489 = alloca %"class.altered_carbon::js::JsValueRef", align 8
  call void @_ZN14altered_carbon2js10JsValueRefC1Ev(%"class.altered_carbon::js::JsValueRef"* %ptr3489)
  %ptr3493 = alloca %"class.altered_carbon::js::JsValueRef", align 8
  call void @_ZN14altered_carbon2js10JsValueRefC1Ev(%"class.altered_carbon::js::JsValueRef"* %ptr3493)
  %ptr3494 = alloca %"class.altered_carbon::js::JsValueRef", align 8
  call void @_ZN14altered_carbon2js10JsValueRefC1Ev(%"class.altered_carbon::js::JsValueRef"* %ptr3494)
  %ptr3495 = alloca %"class.altered_carbon::js::JsValueRef", align 8
  call void @_ZN14altered_carbon2js10JsValueRefC1Ev(%"class.altered_carbon::js::JsValueRef"* %ptr3495)
  %ptr3499 = alloca %"class.altered_carbon::js::JsValueRef", align 8
  call void @_ZN14altered_carbon2js10JsValueRefC1Ev(%"class.altered_carbon::js::JsValueRef"* %ptr3499)
  %ptr3503 = alloca %"class.altered_carbon::js::JsValueRef", align 8
  call void @_ZN14altered_carbon2js10JsValueRefC1Ev(%"class.altered_carbon::js::JsValueRef"* %ptr3503)
  %ptr3504 = alloca %"class.altered_carbon::js::JsValueRef", align 8
  call void @_ZN14altered_carbon2js10JsValueRefC1Ev(%"class.altered_carbon::js::JsValueRef"* %ptr3504)
  %ptr3505 = alloca %"class.altered_carbon::js::JsValueRef", align 8
  call void @_ZN14altered_carbon2js10JsValueRefC1Ev(%"class.altered_carbon::js::JsValueRef"* %ptr3505)
  %ptr3509 = alloca %"class.altered_carbon::js::JsValueRef", align 8
  call void @_ZN14altered_carbon2js10JsValueRefC1Ev(%"class.altered_carbon::js::JsValueRef"* %ptr3509)
  %ptr3513 = alloca %"class.altered_carbon::js::JsValueRef", align 8
  call void @_ZN14altered_carbon2js10JsValueRefC1Ev(%"class.altered_carbon::js::JsValueRef"* %ptr3513)
  %ptr3514 = alloca %"class.altered_carbon::js::JsValueRef", align 8
  call void @_ZN14altered_carbon2js10JsValueRefC1Ev(%"class.altered_carbon::js::JsValueRef"* %ptr3514)
  %ptr3515 = alloca %"class.altered_carbon::js::JsValueRef", align 8
  call void @_ZN14altered_carbon2js10JsValueRefC1Ev(%"class.altered_carbon::js::JsValueRef"* %ptr3515)
  %ptr3519 = alloca %"class.altered_carbon::js::JsValueRef", align 8
  call void @_ZN14altered_carbon2js10JsValueRefC1Ev(%"class.altered_carbon::js::JsValueRef"* %ptr3519)
  %ptr3520 = alloca %"class.altered_carbon::js::JsValueRef", align 8
  call void @_ZN14altered_carbon2js10JsValueRefC1Ev(%"class.altered_carbon::js::JsValueRef"* %ptr3520)
  %ptr3524 = alloca %"class.altered_carbon::js::JsValueRef", align 8
  call void @_ZN14altered_carbon2js10JsValueRefC1Ev(%"class.altered_carbon::js::JsValueRef"* %ptr3524)
  %ptr3528 = alloca %"class.altered_carbon::js::JsValueRef", align 8
  call void @_ZN14altered_carbon2js10JsValueRefC1Ev(%"class.altered_carbon::js::JsValueRef"* %ptr3528)
  %ptr3529 = alloca %"class.altered_carbon::js::JsValueRef", align 8
  call void @_ZN14altered_carbon2js10JsValueRefC1Ev(%"class.altered_carbon::js::JsValueRef"* %ptr3529)
  %ptr3530 = alloca %"class.altered_carbon::js::JsValueRef", align 8
  call void @_ZN14altered_carbon2js10JsValueRefC1Ev(%"class.altered_carbon::js::JsValueRef"* %ptr3530)
  %ptr3534 = alloca %"class.altered_carbon::js::JsValueRef", align 8
  call void @_ZN14altered_carbon2js10JsValueRefC1Ev(%"class.altered_carbon::js::JsValueRef"* %ptr3534)
  %ptr3538 = alloca %"class.altered_carbon::js::JsValueRef", align 8
  call void @_ZN14altered_carbon2js10JsValueRefC1Ev(%"class.altered_carbon::js::JsValueRef"* %ptr3538)
  %ptr3539 = alloca %"class.altered_carbon::js::JsValueRef", align 8
  call void @_ZN14altered_carbon2js10JsValueRefC1Ev(%"class.altered_carbon::js::JsValueRef"* %ptr3539)
  %ptr3540 = alloca %"class.altered_carbon::js::JsValueRef", align 8
  call void @_ZN14altered_carbon2js10JsValueRefC1Ev(%"class.altered_carbon::js::JsValueRef"* %ptr3540)
  %ptr3544 = alloca %"class.altered_carbon::js::JsValueRef", align 8
  call void @_ZN14altered_carbon2js10JsValueRefC1Ev(%"class.altered_carbon::js::JsValueRef"* %ptr3544)
  %ptr3548 = alloca %"class.altered_carbon::js::JsValueRef", align 8
  call void @_ZN14altered_carbon2js10JsValueRefC1Ev(%"class.altered_carbon::js::JsValueRef"* %ptr3548)
  %ptr3549 = alloca %"class.altered_carbon::js::JsValueRef", align 8
  call void @_ZN14altered_carbon2js10JsValueRefC1Ev(%"class.altered_carbon::js::JsValueRef"* %ptr3549)
  %ptr3550 = alloca %"class.altered_carbon::js::JsValueRef", align 8
  call void @_ZN14altered_carbon2js10JsValueRefC1Ev(%"class.altered_carbon::js::JsValueRef"* %ptr3550)
  %ptr3554 = alloca %"class.altered_carbon::js::JsValueRef", align 8
  call void @_ZN14altered_carbon2js10JsValueRefC1Ev(%"class.altered_carbon::js::JsValueRef"* %ptr3554)
  %ptr3558 = alloca %"class.altered_carbon::js::JsValueRef", align 8
  call void @_ZN14altered_carbon2js10JsValueRefC1Ev(%"class.altered_carbon::js::JsValueRef"* %ptr3558)
  %ptr3559 = alloca %"class.altered_carbon::js::JsValueRef", align 8
  call void @_ZN14altered_carbon2js10JsValueRefC1Ev(%"class.altered_carbon::js::JsValueRef"* %ptr3559)
  %ptr3560 = alloca %"class.altered_carbon::js::JsValueRef", align 8
  call void @_ZN14altered_carbon2js10JsValueRefC1Ev(%"class.altered_carbon::js::JsValueRef"* %ptr3560)
  %ptr3564 = alloca %"class.altered_carbon::js::JsValueRef", align 8
  call void @_ZN14altered_carbon2js10JsValueRefC1Ev(%"class.altered_carbon::js::JsValueRef"* %ptr3564)
  %ptr3568 = alloca %"class.altered_carbon::js::JsValueRef", align 8
  call void @_ZN14altered_carbon2js10JsValueRefC1Ev(%"class.altered_carbon::js::JsValueRef"* %ptr3568)
  %ptr3569 = alloca %"class.altered_carbon::js::JsValueRef", align 8
  call void @_ZN14altered_carbon2js10JsValueRefC1Ev(%"class.altered_carbon::js::JsValueRef"* %ptr3569)
  %ptr3570 = alloca %"class.altered_carbon::js::JsValueRef", align 8
  call void @_ZN14altered_carbon2js10JsValueRefC1Ev(%"class.altered_carbon::js::JsValueRef"* %ptr3570)
  %ptr3574 = alloca %"class.altered_carbon::js::JsValueRef", align 8
  call void @_ZN14altered_carbon2js10JsValueRefC1Ev(%"class.altered_carbon::js::JsValueRef"* %ptr3574)
  %ptr3575 = alloca %"class.altered_carbon::js::JsValueRef", align 8
  call void @_ZN14altered_carbon2js10JsValueRefC1Ev(%"class.altered_carbon::js::JsValueRef"* %ptr3575)
  %ptr3579 = alloca %"class.altered_carbon::js::JsValueRef", align 8
  call void @_ZN14altered_carbon2js10JsValueRefC1Ev(%"class.altered_carbon::js::JsValueRef"* %ptr3579)
  %ptr3583 = alloca %"class.altered_carbon::js::JsValueRef", align 8
  call void @_ZN14altered_carbon2js10JsValueRefC1Ev(%"class.altered_carbon::js::JsValueRef"* %ptr3583)
  %ptr3584 = alloca %"class.altered_carbon::js::JsValueRef", align 8
  call void @_ZN14altered_carbon2js10JsValueRefC1Ev(%"class.altered_carbon::js::JsValueRef"* %ptr3584)
  %ptr3585 = alloca %"class.altered_carbon::js::JsValueRef", align 8
  call void @_ZN14altered_carbon2js10JsValueRefC1Ev(%"class.altered_carbon::js::JsValueRef"* %ptr3585)
  %ptr3589 = alloca %"class.altered_carbon::js::JsValueRef", align 8
  call void @_ZN14altered_carbon2js10JsValueRefC1Ev(%"class.altered_carbon::js::JsValueRef"* %ptr3589)
  %ptr3593 = alloca %"class.altered_carbon::js::JsValueRef", align 8
  call void @_ZN14altered_carbon2js10JsValueRefC1Ev(%"class.altered_carbon::js::JsValueRef"* %ptr3593)
  %ptr3594 = alloca %"class.altered_carbon::js::JsValueRef", align 8
  call void @_ZN14altered_carbon2js10JsValueRefC1Ev(%"class.altered_carbon::js::JsValueRef"* %ptr3594)
  %ptr3595 = alloca %"class.altered_carbon::js::JsValueRef", align 8
  call void @_ZN14altered_carbon2js10JsValueRefC1Ev(%"class.altered_carbon::js::JsValueRef"* %ptr3595)
  %ptr3599 = alloca %"class.altered_carbon::js::JsValueRef", align 8
  call void @_ZN14altered_carbon2js10JsValueRefC1Ev(%"class.altered_carbon::js::JsValueRef"* %ptr3599)
  %ptr3603 = alloca %"class.altered_carbon::js::JsValueRef", align 8
  call void @_ZN14altered_carbon2js10JsValueRefC1Ev(%"class.altered_carbon::js::JsValueRef"* %ptr3603)
  %ptr3604 = alloca %"class.altered_carbon::js::JsValueRef", align 8
  call void @_ZN14altered_carbon2js10JsValueRefC1Ev(%"class.altered_carbon::js::JsValueRef"* %ptr3604)
  %ptr3605 = alloca %"class.altered_carbon::js::JsValueRef", align 8
  call void @_ZN14altered_carbon2js10JsValueRefC1Ev(%"class.altered_carbon::js::JsValueRef"* %ptr3605)
  %ptr3609 = alloca %"class.altered_carbon::js::JsValueRef", align 8
  call void @_ZN14altered_carbon2js10JsValueRefC1Ev(%"class.altered_carbon::js::JsValueRef"* %ptr3609)
  %ptr3613 = alloca %"class.altered_carbon::js::JsValueRef", align 8
  call void @_ZN14altered_carbon2js10JsValueRefC1Ev(%"class.altered_carbon::js::JsValueRef"* %ptr3613)
  %ptr3614 = alloca %"class.altered_carbon::js::JsValueRef", align 8
  call void @_ZN14altered_carbon2js10JsValueRefC1Ev(%"class.altered_carbon::js::JsValueRef"* %ptr3614)
  %ptr3615 = alloca %"class.altered_carbon::js::JsValueRef", align 8
  call void @_ZN14altered_carbon2js10JsValueRefC1Ev(%"class.altered_carbon::js::JsValueRef"* %ptr3615)
  %ptr3619 = alloca %"class.altered_carbon::js::JsValueRef", align 8
  call void @_ZN14altered_carbon2js10JsValueRefC1Ev(%"class.altered_carbon::js::JsValueRef"* %ptr3619)
  %ptr3623 = alloca %"class.altered_carbon::js::JsValueRef", align 8
  call void @_ZN14altered_carbon2js10JsValueRefC1Ev(%"class.altered_carbon::js::JsValueRef"* %ptr3623)
  %ptr3624 = alloca %"class.altered_carbon::js::JsValueRef", align 8
  call void @_ZN14altered_carbon2js10JsValueRefC1Ev(%"class.altered_carbon::js::JsValueRef"* %ptr3624)
  %ptr3625 = alloca %"class.altered_carbon::js::JsValueRef", align 8
  call void @_ZN14altered_carbon2js10JsValueRefC1Ev(%"class.altered_carbon::js::JsValueRef"* %ptr3625)
  %ptr3629 = alloca %"class.altered_carbon::js::JsValueRef", align 8
  call void @_ZN14altered_carbon2js10JsValueRefC1Ev(%"class.altered_carbon::js::JsValueRef"* %ptr3629)
  %ptr3630 = alloca %"class.altered_carbon::js::JsValueRef", align 8
