	.section	__TEXT,__text,regular,pure_instructions
	.macosx_version_min 10, 14
	.globl	__Z7_scriptPN14altered_carbon2js9JsVariantE ## -- Begin function _Z7_scriptPN14altered_carbon2js9JsVariantE
	.p2align	4, 0x90
__Z7_scriptPN14altered_carbon2js9JsVariantE: ## @_Z7_scriptPN14altered_carbon2js9JsVariantE
	.cfi_startproc
## %bb.0:                               ## %init.bb
	pushq	%r14
	.cfi_def_cfa_offset 16
	pushq	%rbx
	.cfi_def_cfa_offset 24
	subq	$232, %rsp
	.cfi_def_cfa_offset 256
	.cfi_offset %rbx, -24
	.cfi_offset %r14, -16
	movq	%rdi, %r14
	leaq	__ZTVN14altered_carbon2js9JsVariantE_GEP(%rip), %rax
	movq	%rax, 8(%rsp)
	movl	$1, 16(%rsp)
	movq	%rax, 176(%rsp)
	movl	$1, 184(%rsp)
	movq	%rax, 120(%rsp)
	movl	$1, 128(%rsp)
	movq	%rax, 64(%rsp)
	movl	$1, 72(%rsp)
	xorl	%eax, %eax
	testb	%al, %al
	jne	LBB0_12
## %bb.1:                               ## %assign.bb
	movl	$2, 16(%rsp)
	movq	$0, 24(%rsp)
	movq	$0, 32(%rsp)
	movb	$1, 40(%rsp)
	jmp	LBB0_2
LBB0_12:                                ## %fallback.bb
	leaq	8(%rsp), %rdi
	xorl	%esi, %esi
	callq	__ZN14altered_carbon2js9JsVariantaSEx
LBB0_2:                                 ## %assign.bbe
	leaq	120(%rsp), %rbx
	movl	$3, %esi
	movq	%rbx, %rdi
	callq	__ZN14altered_carbon2js9JsVariantaSEx
	leaq	8(%rsp), %rdi
	movq	%rbx, %rsi
	callq	__ZN14altered_carbon2js9JsVariantpLERKS1_
	cmpl	$6, 72(%rsp)
	jg	LBB0_6
## %bb.3:                               ## %assign.bbe
	movl	16(%rsp), %eax
	cmpl	$7, %eax
	jge	LBB0_6
## %bb.4:                               ## %copy.bb
	leal	2(%rax), %ecx
	cmpl	$8, %ecx
	ja	LBB0_6
## %bb.5:                               ## %copy.bb
	leaq	LJTI0_0(%rip), %rdx
	movslq	(%rdx,%rcx,4), %rcx
	addq	%rdx, %rcx
	jmpq	*%rcx
LBB0_8:                                 ## %casenul_unf.bb
	movl	%eax, 72(%rsp)
	jmp	LBB0_11
LBB0_6:                                 ## %fallback.bb10
	leaq	64(%rsp), %rdi
	leaq	8(%rsp), %rsi
	callq	__ZN14altered_carbon2js9JsVariantaSERKS1_
LBB0_11:                                ## %copy.bbe
	leaq	64(%rsp), %rbx
	movq	%r14, %rdi
	movq	%rbx, %rsi
	callq	__ZN14altered_carbon2js9JsVariantaSERKS1_
	movq	%rbx, %rdi
	callq	__ZN14altered_carbon2js9JsVariantD1Ev
	leaq	120(%rsp), %rdi
	callq	__ZN14altered_carbon2js9JsVariantD1Ev
	leaq	176(%rsp), %rdi
	callq	__ZN14altered_carbon2js9JsVariantD1Ev
	leaq	8(%rsp), %rdi
	callq	__ZN14altered_carbon2js9JsVariantD1Ev
	addq	$232, %rsp
	popq	%rbx
	popq	%r14
	retq
LBB0_7:                                 ## %caseerr.bb
	movl	%eax, 72(%rsp)
	movq	24(%rsp), %rax
	movq	%rax, 80(%rsp)
	jmp	LBB0_11
LBB0_10:                                ## %casenum.bb
	movl	%eax, 72(%rsp)
	movq	24(%rsp), %rax
	movsd	32(%rsp), %xmm0         ## xmm0 = mem[0],zero
	movb	40(%rsp), %cl
	movq	%rax, 80(%rsp)
	movsd	%xmm0, 88(%rsp)
	movb	%cl, 96(%rsp)
	jmp	LBB0_11
LBB0_9:                                 ## %casebln.bb
	movl	%eax, 72(%rsp)
	movb	24(%rsp), %al
	movb	%al, 80(%rsp)
	jmp	LBB0_11
	.cfi_endproc
	.p2align	2, 0x90
	.data_region jt32
.set L0_0_set_7, LBB0_7-LJTI0_0
.set L0_0_set_6, LBB0_6-LJTI0_0
.set L0_0_set_8, LBB0_8-LJTI0_0
.set L0_0_set_10, LBB0_10-LJTI0_0
.set L0_0_set_9, LBB0_9-LJTI0_0
LJTI0_0:
	.long	L0_0_set_7
	.long	L0_0_set_6
	.long	L0_0_set_8
	.long	L0_0_set_8
	.long	L0_0_set_10
	.long	L0_0_set_6
	.long	L0_0_set_6
	.long	L0_0_set_6
	.long	L0_0_set_9
	.end_data_region
                                        ## -- End function
	.section	__TEXT,__const
	.globl	__ZTSN14altered_carbon2js9JsVariantE ## @_ZTSN14altered_carbon2js9JsVariantE
	.weak_definition	__ZTSN14altered_carbon2js9JsVariantE
	.p2align	4
__ZTSN14altered_carbon2js9JsVariantE:
	.asciz	"N14altered_carbon2js9JsVariantE"

	.section	__DATA,__const
	.globl	__ZTIN14altered_carbon2js9JsVariantE ## @_ZTIN14altered_carbon2js9JsVariantE
	.weak_definition	__ZTIN14altered_carbon2js9JsVariantE
	.p2align	3
__ZTIN14altered_carbon2js9JsVariantE:
	.quad	__ZTVN10__cxxabiv117__class_type_infoE+16
	.quad	__ZTSN14altered_carbon2js9JsVariantE

	.globl	__ZTVN14altered_carbon2js9JsVariantE ## @_ZTVN14altered_carbon2js9JsVariantE
	.weak_def_can_be_hidden	__ZTVN14altered_carbon2js9JsVariantE
	.p2align	3
__ZTVN14altered_carbon2js9JsVariantE:
	.quad	0
	.quad	__ZTIN14altered_carbon2js9JsVariantE
	.quad	__ZN14altered_carbon2js9JsVariantD1Ev
	.quad	__ZN14altered_carbon2js9JsVariantD0Ev

	.p2align	3               ## @_ZTVN14altered_carbon2js9JsVariantE_GEP
__ZTVN14altered_carbon2js9JsVariantE_GEP:
	.quad	__ZTVN14altered_carbon2js9JsVariantE+16


.subsections_via_symbols
