	.section	__TEXT,__text,regular,pure_instructions
	.macosx_version_min 10, 13
	.section	__TEXT,__literal8,8byte_literals
	.p2align	3               ## -- Begin function _Z7_scriptPN14altered_carbon2js10JsValueRefE
LCPI0_0:
	.quad	4607182418800017408     ## double 1
LCPI0_1:
	.quad	4611686018427387904     ## double 2
LCPI0_2:
	.quad	4613937818241073152     ## double 3
LCPI0_3:
	.quad	4616189618054758400     ## double 4
LCPI0_4:
	.quad	4617315517961601024     ## double 5
LCPI0_5:
	.quad	4618441417868443648     ## double 6
LCPI0_6:
	.quad	4619567317775286272     ## double 7
LCPI0_7:
	.quad	4620693217682128896     ## double 8
LCPI0_8:
	.quad	4621256167635550208     ## double 9
LCPI0_9:
	.quad	4621819117588971520     ## double 10
LCPI0_10:
	.quad	4622382067542392832     ## double 11
	.section	__TEXT,__text,regular,pure_instructions
	.globl	__Z7_scriptPN14altered_carbon2js10JsValueRefE
	.p2align	4, 0x90
__Z7_scriptPN14altered_carbon2js10JsValueRefE: ## @_Z7_scriptPN14altered_carbon2js10JsValueRefE
	.cfi_startproc
## %bb.0:                               ## %init.bb
	pushq	%rbp
	.cfi_def_cfa_offset 16
	pushq	%r15
	.cfi_def_cfa_offset 24
	pushq	%r14
	.cfi_def_cfa_offset 32
	pushq	%r13
	.cfi_def_cfa_offset 40
	pushq	%r12
	.cfi_def_cfa_offset 48
	pushq	%rbx
	.cfi_def_cfa_offset 56
	subq	$73896, %rsp            ## imm = 0x120A8
	.cfi_def_cfa_offset 73952
	.cfi_offset %rbx, -56
	.cfi_offset %r12, -48
	.cfi_offset %r13, -40
	.cfi_offset %r14, -32
	.cfi_offset %r15, -24
	.cfi_offset %rbp, -16
	movq	%rdi, %r14
	leaq	73872(%rsp), %rdi
	callq	__ZN14altered_carbon2js10JsValueRefC1Ev
	leaq	73848(%rsp), %rdi
	callq	__ZN14altered_carbon2js10JsValueRefC1Ev
	leaq	73824(%rsp), %rdi
	callq	__ZN14altered_carbon2js10JsValueRefC1Ev
	leaq	73800(%rsp), %rdi
	callq	__ZN14altered_carbon2js10JsValueRefC1Ev
	leaq	73776(%rsp), %rdi
	callq	__ZN14altered_carbon2js10JsValueRefC1Ev
	leaq	73752(%rsp), %rdi
	callq	__ZN14altered_carbon2js10JsValueRefC1Ev
	leaq	73728(%rsp), %rdi
	callq	__ZN14altered_carbon2js10JsValueRefC1Ev
	leaq	73704(%rsp), %rdi
	callq	__ZN14altered_carbon2js10JsValueRefC1Ev
	leaq	73680(%rsp), %rdi
	callq	__ZN14altered_carbon2js10JsValueRefC1Ev
	leaq	73656(%rsp), %rdi
	callq	__ZN14altered_carbon2js10JsValueRefC1Ev
	leaq	73632(%rsp), %rdi
	callq	__ZN14altered_carbon2js10JsValueRefC1Ev
	leaq	73608(%rsp), %rdi
	callq	__ZN14altered_carbon2js10JsValueRefC1Ev
	leaq	73584(%rsp), %rdi
	callq	__ZN14altered_carbon2js10JsValueRefC1Ev
	leaq	73560(%rsp), %rdi
	callq	__ZN14altered_carbon2js10JsValueRefC1Ev
	leaq	73536(%rsp), %rdi
	callq	__ZN14altered_carbon2js10JsValueRefC1Ev
	leaq	73512(%rsp), %rdi
	callq	__ZN14altered_carbon2js10JsValueRefC1Ev
	leaq	73488(%rsp), %rdi
	callq	__ZN14altered_carbon2js10JsValueRefC1Ev
	leaq	73464(%rsp), %rdi
	callq	__ZN14altered_carbon2js10JsValueRefC1Ev
	leaq	73440(%rsp), %rdi
	callq	__ZN14altered_carbon2js10JsValueRefC1Ev
	leaq	73416(%rsp), %rdi
	callq	__ZN14altered_carbon2js10JsValueRefC1Ev
	leaq	73392(%rsp), %rdi
	callq	__ZN14altered_carbon2js10JsValueRefC1Ev
	leaq	73368(%rsp), %rdi
	callq	__ZN14altered_carbon2js10JsValueRefC1Ev
	leaq	73344(%rsp), %rdi
	callq	__ZN14altered_carbon2js10JsValueRefC1Ev
	leaq	73320(%rsp), %rdi
	callq	__ZN14altered_carbon2js10JsValueRefC1Ev
	leaq	73296(%rsp), %rdi
	callq	__ZN14altered_carbon2js10JsValueRefC1Ev
	leaq	73272(%rsp), %rdi
	callq	__ZN14altered_carbon2js10JsValueRefC1Ev
	leaq	73248(%rsp), %rdi
	callq	__ZN14altered_carbon2js10JsValueRefC1Ev
	leaq	73224(%rsp), %rdi
	callq	__ZN14altered_carbon2js10JsValueRefC1Ev
	leaq	73200(%rsp), %rdi
	callq	__ZN14altered_carbon2js10JsValueRefC1Ev
	leaq	73176(%rsp), %rdi
	callq	__ZN14altered_carbon2js10JsValueRefC1Ev
	leaq	73152(%rsp), %rdi
	callq	__ZN14altered_carbon2js10JsValueRefC1Ev
	leaq	73128(%rsp), %rdi
	callq	__ZN14altered_carbon2js10JsValueRefC1Ev
	leaq	73104(%rsp), %rdi
	callq	__ZN14altered_carbon2js10JsValueRefC1Ev
	leaq	73080(%rsp), %rdi
	callq	__ZN14altered_carbon2js10JsValueRefC1Ev
	leaq	73056(%rsp), %rdi
	callq	__ZN14altered_carbon2js10JsValueRefC1Ev
	leaq	73032(%rsp), %rdi
	callq	__ZN14altered_carbon2js10JsValueRefC1Ev
	leaq	73008(%rsp), %rdi
	callq	__ZN14altered_carbon2js10JsValueRefC1Ev
	leaq	72984(%rsp), %rdi
	callq	__ZN14altered_carbon2js10JsValueRefC1Ev
	leaq	72960(%rsp), %rdi
	callq	__ZN14altered_carbon2js10JsValueRefC1Ev
	leaq	72936(%rsp), %rdi
	callq	__ZN14altered_carbon2js10JsValueRefC1Ev
	leaq	72912(%rsp), %rdi
	callq	__ZN14altered_carbon2js10JsValueRefC1Ev
	leaq	72888(%rsp), %rdi
	callq	__ZN14altered_carbon2js10JsValueRefC1Ev
	leaq	72864(%rsp), %rdi
	callq	__ZN14altered_carbon2js10JsValueRefC1Ev
	leaq	72840(%rsp), %rdi
	callq	__ZN14altered_carbon2js10JsValueRefC1Ev
	leaq	72816(%rsp), %rdi
	callq	__ZN14altered_carbon2js10JsValueRefC1Ev
	leaq	72792(%rsp), %rdi
	callq	__ZN14altered_carbon2js10JsValueRefC1Ev
	leaq	72768(%rsp), %rdi
	callq	__ZN14altered_carbon2js10JsValueRefC1Ev
	leaq	72744(%rsp), %rdi
	callq	__ZN14altered_carbon2js10JsValueRefC1Ev
	leaq	72720(%rsp), %rdi
	callq	__ZN14altered_carbon2js10JsValueRefC1Ev
	leaq	72696(%rsp), %rdi
	callq	__ZN14altered_carbon2js10JsValueRefC1Ev
	leaq	72672(%rsp), %rdi
	callq	__ZN14altered_carbon2js10JsValueRefC1Ev
	leaq	72648(%rsp), %rdi
	callq	__ZN14altered_carbon2js10JsValueRefC1Ev
	leaq	72624(%rsp), %rdi
	callq	__ZN14altered_carbon2js10JsValueRefC1Ev
	leaq	72600(%rsp), %rdi
	callq	__ZN14altered_carbon2js10JsValueRefC1Ev
	leaq	72576(%rsp), %rdi
	callq	__ZN14altered_carbon2js10JsValueRefC1Ev
	leaq	72552(%rsp), %rdi
	callq	__ZN14altered_carbon2js10JsValueRefC1Ev
	leaq	72528(%rsp), %rdi
	callq	__ZN14altered_carbon2js10JsValueRefC1Ev
	leaq	72504(%rsp), %rdi
	callq	__ZN14altered_carbon2js10JsValueRefC1Ev
	leaq	72480(%rsp), %rdi
	callq	__ZN14altered_carbon2js10JsValueRefC1Ev
	leaq	72456(%rsp), %rdi
	callq	__ZN14altered_carbon2js10JsValueRefC1Ev
	leaq	72432(%rsp), %rdi
	callq	__ZN14altered_carbon2js10JsValueRefC1Ev
	leaq	72408(%rsp), %rdi
	callq	__ZN14altered_carbon2js10JsValueRefC1Ev
	leaq	72384(%rsp), %rdi
	callq	__ZN14altered_carbon2js10JsValueRefC1Ev
	leaq	72360(%rsp), %rdi
	callq	__ZN14altered_carbon2js10JsValueRefC1Ev
	leaq	72336(%rsp), %rdi
	callq	__ZN14altered_carbon2js10JsValueRefC1Ev
	leaq	72312(%rsp), %rdi
	callq	__ZN14altered_carbon2js10JsValueRefC1Ev
	leaq	72288(%rsp), %rdi
	callq	__ZN14altered_carbon2js10JsValueRefC1Ev
	leaq	72264(%rsp), %rdi
	callq	__ZN14altered_carbon2js10JsValueRefC1Ev
	leaq	72240(%rsp), %rdi
	callq	__ZN14altered_carbon2js10JsValueRefC1Ev
	leaq	72216(%rsp), %rdi
	callq	__ZN14altered_carbon2js10JsValueRefC1Ev
	leaq	72192(%rsp), %rdi
	callq	__ZN14altered_carbon2js10JsValueRefC1Ev
	leaq	72168(%rsp), %rdi
	callq	__ZN14altered_carbon2js10JsValueRefC1Ev
	leaq	72144(%rsp), %rdi
	callq	__ZN14altered_carbon2js10JsValueRefC1Ev
	leaq	72120(%rsp), %rdi
	callq	__ZN14altered_carbon2js10JsValueRefC1Ev
	leaq	72096(%rsp), %rdi
	callq	__ZN14altered_carbon2js10JsValueRefC1Ev
	leaq	72072(%rsp), %rdi
	callq	__ZN14altered_carbon2js10JsValueRefC1Ev
	leaq	72048(%rsp), %rdi
	callq	__ZN14altered_carbon2js10JsValueRefC1Ev
	leaq	72024(%rsp), %rdi
	callq	__ZN14altered_carbon2js10JsValueRefC1Ev
	leaq	72000(%rsp), %rdi
	callq	__ZN14altered_carbon2js10JsValueRefC1Ev
	leaq	71976(%rsp), %rdi
	callq	__ZN14altered_carbon2js10JsValueRefC1Ev
	leaq	71952(%rsp), %rdi
	callq	__ZN14altered_carbon2js10JsValueRefC1Ev
	leaq	71928(%rsp), %rdi
	callq	__ZN14altered_carbon2js10JsValueRefC1Ev
	leaq	71904(%rsp), %rdi
	callq	__ZN14altered_carbon2js10JsValueRefC1Ev
	leaq	71880(%rsp), %rdi
	callq	__ZN14altered_carbon2js10JsValueRefC1Ev
	leaq	71856(%rsp), %rdi
	callq	__ZN14altered_carbon2js10JsValueRefC1Ev
	leaq	71832(%rsp), %rdi
	callq	__ZN14altered_carbon2js10JsValueRefC1Ev
	leaq	71808(%rsp), %rdi
	callq	__ZN14altered_carbon2js10JsValueRefC1Ev
	leaq	71784(%rsp), %rdi
	callq	__ZN14altered_carbon2js10JsValueRefC1Ev
	leaq	71760(%rsp), %rdi
	callq	__ZN14altered_carbon2js10JsValueRefC1Ev
	leaq	71736(%rsp), %rdi
	callq	__ZN14altered_carbon2js10JsValueRefC1Ev
	leaq	71712(%rsp), %rdi
	callq	__ZN14altered_carbon2js10JsValueRefC1Ev
	leaq	71688(%rsp), %rdi
	callq	__ZN14altered_carbon2js10JsValueRefC1Ev
	leaq	71664(%rsp), %rdi
	callq	__ZN14altered_carbon2js10JsValueRefC1Ev
	leaq	71640(%rsp), %rdi
	callq	__ZN14altered_carbon2js10JsValueRefC1Ev
	leaq	71616(%rsp), %rdi
	callq	__ZN14altered_carbon2js10JsValueRefC1Ev
	leaq	71592(%rsp), %rdi
	callq	__ZN14altered_carbon2js10JsValueRefC1Ev
	leaq	71568(%rsp), %rdi
	callq	__ZN14altered_carbon2js10JsValueRefC1Ev
	leaq	71544(%rsp), %rdi
	callq	__ZN14altered_carbon2js10JsValueRefC1Ev
	leaq	71520(%rsp), %rdi
	callq	__ZN14altered_carbon2js10JsValueRefC1Ev
	leaq	71496(%rsp), %rdi
	callq	__ZN14altered_carbon2js10JsValueRefC1Ev
	leaq	71472(%rsp), %rdi
	callq	__ZN14altered_carbon2js10JsValueRefC1Ev
	leaq	71448(%rsp), %rdi
	callq	__ZN14altered_carbon2js10JsValueRefC1Ev
	leaq	71424(%rsp), %rdi
	callq	__ZN14altered_carbon2js10JsValueRefC1Ev
	leaq	71400(%rsp), %rdi
	callq	__ZN14altered_carbon2js10JsValueRefC1Ev
	leaq	71376(%rsp), %rdi
	callq	__ZN14altered_carbon2js10JsValueRefC1Ev
	leaq	71352(%rsp), %rdi
	callq	__ZN14altered_carbon2js10JsValueRefC1Ev
	leaq	71328(%rsp), %rdi
	callq	__ZN14altered_carbon2js10JsValueRefC1Ev
	leaq	71304(%rsp), %rdi
	callq	__ZN14altered_carbon2js10JsValueRefC1Ev
	leaq	71280(%rsp), %rdi
	callq	__ZN14altered_carbon2js10JsValueRefC1Ev
	leaq	71256(%rsp), %rdi
	callq	__ZN14altered_carbon2js10JsValueRefC1Ev
	leaq	71232(%rsp), %rdi
	callq	__ZN14altered_carbon2js10JsValueRefC1Ev
	leaq	71208(%rsp), %rdi
	callq	__ZN14altered_carbon2js10JsValueRefC1Ev
	leaq	71184(%rsp), %rdi
	callq	__ZN14altered_carbon2js10JsValueRefC1Ev
	leaq	71160(%rsp), %rdi
	callq	__ZN14altered_carbon2js10JsValueRefC1Ev
	leaq	71136(%rsp), %rdi
	callq	__ZN14altered_carbon2js10JsValueRefC1Ev
	leaq	71112(%rsp), %rdi
	callq	__ZN14altered_carbon2js10JsValueRefC1Ev
	leaq	71088(%rsp), %rdi
	callq	__ZN14altered_carbon2js10JsValueRefC1Ev
	leaq	71064(%rsp), %rdi
	callq	__ZN14altered_carbon2js10JsValueRefC1Ev
	leaq	71040(%rsp), %rdi
	callq	__ZN14altered_carbon2js10JsValueRefC1Ev
	leaq	71016(%rsp), %rdi
	callq	__ZN14altered_carbon2js10JsValueRefC1Ev
	leaq	70992(%rsp), %rdi
	callq	__ZN14altered_carbon2js10JsValueRefC1Ev
	leaq	70968(%rsp), %rdi
	callq	__ZN14altered_carbon2js10JsValueRefC1Ev
	leaq	70944(%rsp), %rdi
	callq	__ZN14altered_carbon2js10JsValueRefC1Ev
	leaq	70920(%rsp), %rdi
	callq	__ZN14altered_carbon2js10JsValueRefC1Ev
	leaq	70896(%rsp), %rdi
	callq	__ZN14altered_carbon2js10JsValueRefC1Ev
	leaq	70872(%rsp), %rdi
	callq	__ZN14altered_carbon2js10JsValueRefC1Ev
	leaq	70848(%rsp), %rdi
	callq	__ZN14altered_carbon2js10JsValueRefC1Ev
	leaq	70824(%rsp), %rdi
	callq	__ZN14altered_carbon2js10JsValueRefC1Ev
	leaq	70800(%rsp), %rdi
	callq	__ZN14altered_carbon2js10JsValueRefC1Ev
	leaq	70776(%rsp), %rdi
	callq	__ZN14altered_carbon2js10JsValueRefC1Ev
	leaq	70752(%rsp), %rdi
	callq	__ZN14altered_carbon2js10JsValueRefC1Ev
	leaq	70728(%rsp), %rdi
	callq	__ZN14altered_carbon2js10JsValueRefC1Ev
	leaq	70704(%rsp), %rdi
	callq	__ZN14altered_carbon2js10JsValueRefC1Ev
	leaq	70680(%rsp), %rdi
	callq	__ZN14altered_carbon2js10JsValueRefC1Ev
	leaq	70656(%rsp), %rdi
	callq	__ZN14altered_carbon2js10JsValueRefC1Ev
	leaq	70632(%rsp), %rdi
	callq	__ZN14altered_carbon2js10JsValueRefC1Ev
	leaq	70608(%rsp), %rdi
	callq	__ZN14altered_carbon2js10JsValueRefC1Ev
	leaq	70584(%rsp), %rdi
	callq	__ZN14altered_carbon2js10JsValueRefC1Ev
	leaq	70560(%rsp), %rdi
	callq	__ZN14altered_carbon2js10JsValueRefC1Ev
	leaq	70536(%rsp), %rdi
	callq	__ZN14altered_carbon2js10JsValueRefC1Ev
	leaq	70512(%rsp), %rdi
	callq	__ZN14altered_carbon2js10JsValueRefC1Ev
	leaq	70488(%rsp), %rdi
	callq	__ZN14altered_carbon2js10JsValueRefC1Ev
	leaq	70464(%rsp), %rdi
	callq	__ZN14altered_carbon2js10JsValueRefC1Ev
	leaq	70440(%rsp), %rdi
	callq	__ZN14altered_carbon2js10JsValueRefC1Ev
	leaq	70416(%rsp), %rdi
	callq	__ZN14altered_carbon2js10JsValueRefC1Ev
	leaq	70392(%rsp), %rdi
	callq	__ZN14altered_carbon2js10JsValueRefC1Ev
	leaq	70368(%rsp), %rdi
	callq	__ZN14altered_carbon2js10JsValueRefC1Ev
	leaq	70344(%rsp), %rdi
	callq	__ZN14altered_carbon2js10JsValueRefC1Ev
	leaq	70320(%rsp), %rdi
	callq	__ZN14altered_carbon2js10JsValueRefC1Ev
	leaq	70296(%rsp), %rdi
	callq	__ZN14altered_carbon2js10JsValueRefC1Ev
	leaq	70272(%rsp), %rdi
	callq	__ZN14altered_carbon2js10JsValueRefC1Ev
	leaq	70248(%rsp), %rdi
	callq	__ZN14altered_carbon2js10JsValueRefC1Ev
	leaq	70224(%rsp), %rdi
	callq	__ZN14altered_carbon2js10JsValueRefC1Ev
	leaq	70200(%rsp), %rdi
	callq	__ZN14altered_carbon2js10JsValueRefC1Ev
	leaq	70176(%rsp), %rdi
	callq	__ZN14altered_carbon2js10JsValueRefC1Ev
	leaq	70152(%rsp), %rdi
	callq	__ZN14altered_carbon2js10JsValueRefC1Ev
	leaq	70128(%rsp), %rdi
	callq	__ZN14altered_carbon2js10JsValueRefC1Ev
	leaq	70104(%rsp), %rdi
	callq	__ZN14altered_carbon2js10JsValueRefC1Ev
	leaq	70080(%rsp), %rdi
	callq	__ZN14altered_carbon2js10JsValueRefC1Ev
	leaq	70056(%rsp), %rdi
	callq	__ZN14altered_carbon2js10JsValueRefC1Ev
	leaq	70032(%rsp), %rdi
	callq	__ZN14altered_carbon2js10JsValueRefC1Ev
	leaq	70008(%rsp), %rdi
	callq	__ZN14altered_carbon2js10JsValueRefC1Ev
	leaq	69984(%rsp), %rdi
	callq	__ZN14altered_carbon2js10JsValueRefC1Ev
	leaq	69960(%rsp), %rdi
	callq	__ZN14altered_carbon2js10JsValueRefC1Ev
	leaq	69936(%rsp), %rdi
	callq	__ZN14altered_carbon2js10JsValueRefC1Ev
	leaq	69912(%rsp), %rdi
	callq	__ZN14altered_carbon2js10JsValueRefC1Ev
	leaq	69888(%rsp), %rdi
	callq	__ZN14altered_carbon2js10JsValueRefC1Ev
	leaq	69864(%rsp), %rdi
	callq	__ZN14altered_carbon2js10JsValueRefC1Ev
	leaq	69840(%rsp), %rdi
	callq	__ZN14altered_carbon2js10JsValueRefC1Ev
	leaq	69816(%rsp), %rdi
	callq	__ZN14altered_carbon2js10JsValueRefC1Ev
	leaq	69792(%rsp), %rdi
	callq	__ZN14altered_carbon2js10JsValueRefC1Ev
	leaq	69768(%rsp), %rdi
	callq	__ZN14altered_carbon2js10JsValueRefC1Ev
	leaq	69744(%rsp), %rdi
	callq	__ZN14altered_carbon2js10JsValueRefC1Ev
	leaq	69720(%rsp), %rdi
	callq	__ZN14altered_carbon2js10JsValueRefC1Ev
	leaq	69696(%rsp), %rdi
	callq	__ZN14altered_carbon2js10JsValueRefC1Ev
	leaq	69672(%rsp), %rdi
	callq	__ZN14altered_carbon2js10JsValueRefC1Ev
	leaq	69648(%rsp), %rdi
	callq	__ZN14altered_carbon2js10JsValueRefC1Ev
	leaq	69624(%rsp), %rdi
	callq	__ZN14altered_carbon2js10JsValueRefC1Ev
	leaq	69600(%rsp), %rdi
	callq	__ZN14altered_carbon2js10JsValueRefC1Ev
	leaq	69576(%rsp), %rdi
	callq	__ZN14altered_carbon2js10JsValueRefC1Ev
	leaq	69552(%rsp), %rdi
	callq	__ZN14altered_carbon2js10JsValueRefC1Ev
	leaq	69528(%rsp), %rdi
	callq	__ZN14altered_carbon2js10JsValueRefC1Ev
	leaq	69504(%rsp), %rdi
	callq	__ZN14altered_carbon2js10JsValueRefC1Ev
	leaq	69480(%rsp), %rdi
	callq	__ZN14altered_carbon2js10JsValueRefC1Ev
	leaq	69456(%rsp), %rdi
	callq	__ZN14altered_carbon2js10JsValueRefC1Ev
	leaq	69432(%rsp), %rdi
	callq	__ZN14altered_carbon2js10JsValueRefC1Ev
	leaq	69408(%rsp), %rdi
	callq	__ZN14altered_carbon2js10JsValueRefC1Ev
	leaq	69384(%rsp), %rdi
	callq	__ZN14altered_carbon2js10JsValueRefC1Ev
	leaq	69360(%rsp), %rdi
	callq	__ZN14altered_carbon2js10JsValueRefC1Ev
	leaq	69336(%rsp), %rdi
	callq	__ZN14altered_carbon2js10JsValueRefC1Ev
	leaq	69312(%rsp), %rdi
	callq	__ZN14altered_carbon2js10JsValueRefC1Ev
	leaq	69288(%rsp), %rdi
	callq	__ZN14altered_carbon2js10JsValueRefC1Ev
	leaq	69264(%rsp), %rdi
	callq	__ZN14altered_carbon2js10JsValueRefC1Ev
	leaq	69240(%rsp), %rdi
	callq	__ZN14altered_carbon2js10JsValueRefC1Ev
	leaq	69216(%rsp), %rdi
	callq	__ZN14altered_carbon2js10JsValueRefC1Ev
	leaq	69192(%rsp), %rdi
	callq	__ZN14altered_carbon2js10JsValueRefC1Ev
	leaq	69168(%rsp), %rdi
	callq	__ZN14altered_carbon2js10JsValueRefC1Ev
	leaq	69144(%rsp), %rdi
	callq	__ZN14altered_carbon2js10JsValueRefC1Ev
	leaq	69120(%rsp), %rdi
	callq	__ZN14altered_carbon2js10JsValueRefC1Ev
	leaq	69096(%rsp), %rdi
	callq	__ZN14altered_carbon2js10JsValueRefC1Ev
	leaq	69072(%rsp), %rdi
	callq	__ZN14altered_carbon2js10JsValueRefC1Ev
	leaq	69048(%rsp), %rdi
	callq	__ZN14altered_carbon2js10JsValueRefC1Ev
	leaq	69024(%rsp), %rdi
	callq	__ZN14altered_carbon2js10JsValueRefC1Ev
	leaq	69000(%rsp), %rdi
	callq	__ZN14altered_carbon2js10JsValueRefC1Ev
	leaq	68976(%rsp), %rdi
	callq	__ZN14altered_carbon2js10JsValueRefC1Ev
	leaq	68952(%rsp), %rdi
	callq	__ZN14altered_carbon2js10JsValueRefC1Ev
	leaq	68928(%rsp), %rdi
	callq	__ZN14altered_carbon2js10JsValueRefC1Ev
	leaq	68904(%rsp), %rdi
	callq	__ZN14altered_carbon2js10JsValueRefC1Ev
	leaq	68880(%rsp), %rdi
	callq	__ZN14altered_carbon2js10JsValueRefC1Ev
	leaq	68856(%rsp), %rdi
	callq	__ZN14altered_carbon2js10JsValueRefC1Ev
	leaq	68832(%rsp), %rdi
	callq	__ZN14altered_carbon2js10JsValueRefC1Ev
	leaq	68808(%rsp), %rdi
	callq	__ZN14altered_carbon2js10JsValueRefC1Ev
	leaq	68784(%rsp), %rdi
	callq	__ZN14altered_carbon2js10JsValueRefC1Ev
	leaq	68760(%rsp), %rdi
	callq	__ZN14altered_carbon2js10JsValueRefC1Ev
	leaq	68736(%rsp), %rdi
	callq	__ZN14altered_carbon2js10JsValueRefC1Ev
	leaq	68712(%rsp), %rdi
	callq	__ZN14altered_carbon2js10JsValueRefC1Ev
	leaq	68688(%rsp), %rdi
	callq	__ZN14altered_carbon2js10JsValueRefC1Ev
	leaq	68664(%rsp), %rdi
	callq	__ZN14altered_carbon2js10JsValueRefC1Ev
	leaq	68640(%rsp), %rdi
	callq	__ZN14altered_carbon2js10JsValueRefC1Ev
	leaq	68616(%rsp), %rdi
	callq	__ZN14altered_carbon2js10JsValueRefC1Ev
	leaq	68592(%rsp), %rdi
	callq	__ZN14altered_carbon2js10JsValueRefC1Ev
	leaq	68568(%rsp), %rdi
	callq	__ZN14altered_carbon2js10JsValueRefC1Ev
	leaq	68544(%rsp), %rdi
	callq	__ZN14altered_carbon2js10JsValueRefC1Ev
	leaq	68520(%rsp), %rdi
	callq	__ZN14altered_carbon2js10JsValueRefC1Ev
	leaq	68496(%rsp), %rdi
	callq	__ZN14altered_carbon2js10JsValueRefC1Ev
	leaq	68472(%rsp), %rdi
	callq	__ZN14altered_carbon2js10JsValueRefC1Ev
	leaq	68448(%rsp), %rdi
	callq	__ZN14altered_carbon2js10JsValueRefC1Ev
	leaq	68424(%rsp), %rdi
	callq	__ZN14altered_carbon2js10JsValueRefC1Ev
	leaq	68400(%rsp), %rdi
	callq	__ZN14altered_carbon2js10JsValueRefC1Ev
	leaq	68376(%rsp), %rdi
	callq	__ZN14altered_carbon2js10JsValueRefC1Ev
	leaq	68352(%rsp), %rdi
	callq	__ZN14altered_carbon2js10JsValueRefC1Ev
	leaq	68328(%rsp), %rdi
	callq	__ZN14altered_carbon2js10JsValueRefC1Ev
	leaq	68304(%rsp), %rdi
	callq	__ZN14altered_carbon2js10JsValueRefC1Ev
	leaq	68280(%rsp), %rdi
	callq	__ZN14altered_carbon2js10JsValueRefC1Ev
	leaq	68256(%rsp), %rdi
	callq	__ZN14altered_carbon2js10JsValueRefC1Ev
	leaq	68232(%rsp), %rdi
	callq	__ZN14altered_carbon2js10JsValueRefC1Ev
	leaq	68208(%rsp), %rdi
	callq	__ZN14altered_carbon2js10JsValueRefC1Ev
	leaq	68184(%rsp), %rdi
	callq	__ZN14altered_carbon2js10JsValueRefC1Ev
	leaq	68160(%rsp), %rdi
	callq	__ZN14altered_carbon2js10JsValueRefC1Ev
	leaq	68136(%rsp), %rdi
	callq	__ZN14altered_carbon2js10JsValueRefC1Ev
	leaq	68112(%rsp), %rdi
	callq	__ZN14altered_carbon2js10JsValueRefC1Ev
	leaq	68088(%rsp), %rdi
	callq	__ZN14altered_carbon2js10JsValueRefC1Ev
	leaq	68064(%rsp), %rdi
	callq	__ZN14altered_carbon2js10JsValueRefC1Ev
	leaq	68040(%rsp), %rdi
	callq	__ZN14altered_carbon2js10JsValueRefC1Ev
	leaq	68016(%rsp), %rdi
	callq	__ZN14altered_carbon2js10JsValueRefC1Ev
	leaq	67992(%rsp), %rdi
	callq	__ZN14altered_carbon2js10JsValueRefC1Ev
	leaq	67968(%rsp), %rdi
	callq	__ZN14altered_carbon2js10JsValueRefC1Ev
	leaq	67944(%rsp), %rdi
	callq	__ZN14altered_carbon2js10JsValueRefC1Ev
	leaq	67920(%rsp), %rdi
	callq	__ZN14altered_carbon2js10JsValueRefC1Ev
	leaq	67896(%rsp), %rdi
	callq	__ZN14altered_carbon2js10JsValueRefC1Ev
	leaq	67872(%rsp), %rdi
	callq	__ZN14altered_carbon2js10JsValueRefC1Ev
	leaq	67848(%rsp), %rdi
	callq	__ZN14altered_carbon2js10JsValueRefC1Ev
	leaq	67824(%rsp), %rdi
	callq	__ZN14altered_carbon2js10JsValueRefC1Ev
	leaq	67800(%rsp), %rdi
	callq	__ZN14altered_carbon2js10JsValueRefC1Ev
	leaq	67776(%rsp), %rdi
	callq	__ZN14altered_carbon2js10JsValueRefC1Ev
	leaq	67752(%rsp), %rdi
	callq	__ZN14altered_carbon2js10JsValueRefC1Ev
	leaq	67728(%rsp), %rdi
	callq	__ZN14altered_carbon2js10JsValueRefC1Ev
	leaq	67704(%rsp), %rdi
	callq	__ZN14altered_carbon2js10JsValueRefC1Ev
	leaq	67680(%rsp), %rdi
	callq	__ZN14altered_carbon2js10JsValueRefC1Ev
	leaq	67656(%rsp), %rdi
	callq	__ZN14altered_carbon2js10JsValueRefC1Ev
	leaq	67632(%rsp), %rdi
	callq	__ZN14altered_carbon2js10JsValueRefC1Ev
	leaq	67608(%rsp), %rdi
	callq	__ZN14altered_carbon2js10JsValueRefC1Ev
	leaq	67584(%rsp), %rdi
	callq	__ZN14altered_carbon2js10JsValueRefC1Ev
	leaq	67560(%rsp), %rdi
	callq	__ZN14altered_carbon2js10JsValueRefC1Ev
	leaq	67536(%rsp), %rdi
	callq	__ZN14altered_carbon2js10JsValueRefC1Ev
	leaq	67512(%rsp), %rdi
	callq	__ZN14altered_carbon2js10JsValueRefC1Ev
	leaq	67488(%rsp), %rdi
	callq	__ZN14altered_carbon2js10JsValueRefC1Ev
	leaq	67464(%rsp), %rdi
	callq	__ZN14altered_carbon2js10JsValueRefC1Ev
	leaq	67440(%rsp), %rdi
	callq	__ZN14altered_carbon2js10JsValueRefC1Ev
	leaq	67416(%rsp), %rdi
	callq	__ZN14altered_carbon2js10JsValueRefC1Ev
	leaq	67392(%rsp), %rdi
	callq	__ZN14altered_carbon2js10JsValueRefC1Ev
	leaq	67368(%rsp), %rdi
	callq	__ZN14altered_carbon2js10JsValueRefC1Ev
	leaq	67344(%rsp), %rdi
	callq	__ZN14altered_carbon2js10JsValueRefC1Ev
	leaq	67320(%rsp), %rdi
	callq	__ZN14altered_carbon2js10JsValueRefC1Ev
	leaq	67296(%rsp), %rdi
	callq	__ZN14altered_carbon2js10JsValueRefC1Ev
	leaq	67272(%rsp), %rdi
	callq	__ZN14altered_carbon2js10JsValueRefC1Ev
	leaq	67248(%rsp), %rdi
	callq	__ZN14altered_carbon2js10JsValueRefC1Ev
	leaq	67224(%rsp), %rdi
	callq	__ZN14altered_carbon2js10JsValueRefC1Ev
	leaq	67200(%rsp), %rdi
	callq	__ZN14altered_carbon2js10JsValueRefC1Ev
	leaq	67176(%rsp), %rdi
	callq	__ZN14altered_carbon2js10JsValueRefC1Ev
	leaq	67152(%rsp), %rdi
	callq	__ZN14altered_carbon2js10JsValueRefC1Ev
	leaq	67128(%rsp), %rdi
	callq	__ZN14altered_carbon2js10JsValueRefC1Ev
	leaq	67104(%rsp), %rdi
	callq	__ZN14altered_carbon2js10JsValueRefC1Ev
	leaq	67080(%rsp), %rdi
	callq	__ZN14altered_carbon2js10JsValueRefC1Ev
	leaq	67056(%rsp), %rdi
	callq	__ZN14altered_carbon2js10JsValueRefC1Ev
	leaq	67032(%rsp), %rdi
	callq	__ZN14altered_carbon2js10JsValueRefC1Ev
	leaq	67008(%rsp), %rdi
	callq	__ZN14altered_carbon2js10JsValueRefC1Ev
	leaq	66984(%rsp), %rdi
	callq	__ZN14altered_carbon2js10JsValueRefC1Ev
	leaq	66960(%rsp), %rdi
	callq	__ZN14altered_carbon2js10JsValueRefC1Ev
	leaq	66936(%rsp), %rdi
	callq	__ZN14altered_carbon2js10JsValueRefC1Ev
	leaq	66912(%rsp), %rdi
	callq	__ZN14altered_carbon2js10JsValueRefC1Ev
	leaq	66888(%rsp), %rdi
	callq	__ZN14altered_carbon2js10JsValueRefC1Ev
	leaq	66864(%rsp), %rdi
	callq	__ZN14altered_carbon2js10JsValueRefC1Ev
	leaq	66840(%rsp), %rdi
	callq	__ZN14altered_carbon2js10JsValueRefC1Ev
	leaq	66816(%rsp), %rdi
	callq	__ZN14altered_carbon2js10JsValueRefC1Ev
	leaq	66792(%rsp), %rdi
	callq	__ZN14altered_carbon2js10JsValueRefC1Ev
	leaq	66768(%rsp), %rdi
	callq	__ZN14altered_carbon2js10JsValueRefC1Ev
	leaq	66744(%rsp), %rdi
	callq	__ZN14altered_carbon2js10JsValueRefC1Ev
	leaq	66720(%rsp), %rdi
	callq	__ZN14altered_carbon2js10JsValueRefC1Ev
	leaq	66696(%rsp), %rdi
	callq	__ZN14altered_carbon2js10JsValueRefC1Ev
	leaq	66672(%rsp), %rdi
	callq	__ZN14altered_carbon2js10JsValueRefC1Ev
	leaq	66648(%rsp), %rdi
	callq	__ZN14altered_carbon2js10JsValueRefC1Ev
	leaq	66624(%rsp), %rdi
	callq	__ZN14altered_carbon2js10JsValueRefC1Ev
	leaq	66600(%rsp), %rdi
	callq	__ZN14altered_carbon2js10JsValueRefC1Ev
	leaq	66576(%rsp), %rdi
	callq	__ZN14altered_carbon2js10JsValueRefC1Ev
	leaq	66552(%rsp), %rdi
	callq	__ZN14altered_carbon2js10JsValueRefC1Ev
	leaq	66528(%rsp), %rdi
	callq	__ZN14altered_carbon2js10JsValueRefC1Ev
	leaq	66504(%rsp), %rdi
	callq	__ZN14altered_carbon2js10JsValueRefC1Ev
	leaq	66480(%rsp), %rdi
	callq	__ZN14altered_carbon2js10JsValueRefC1Ev
	leaq	66456(%rsp), %rdi
	callq	__ZN14altered_carbon2js10JsValueRefC1Ev
	leaq	66432(%rsp), %rdi
	callq	__ZN14altered_carbon2js10JsValueRefC1Ev
	leaq	66408(%rsp), %rdi
	callq	__ZN14altered_carbon2js10JsValueRefC1Ev
	leaq	66384(%rsp), %rdi
	callq	__ZN14altered_carbon2js10JsValueRefC1Ev
	leaq	66360(%rsp), %rdi
	callq	__ZN14altered_carbon2js10JsValueRefC1Ev
	leaq	66336(%rsp), %rdi
	callq	__ZN14altered_carbon2js10JsValueRefC1Ev
	leaq	66312(%rsp), %rdi
	callq	__ZN14altered_carbon2js10JsValueRefC1Ev
	leaq	66288(%rsp), %rdi
	callq	__ZN14altered_carbon2js10JsValueRefC1Ev
	leaq	66264(%rsp), %rdi
	callq	__ZN14altered_carbon2js10JsValueRefC1Ev
	leaq	66240(%rsp), %rdi
	callq	__ZN14altered_carbon2js10JsValueRefC1Ev
	leaq	66216(%rsp), %rdi
	callq	__ZN14altered_carbon2js10JsValueRefC1Ev
	leaq	66192(%rsp), %rdi
	callq	__ZN14altered_carbon2js10JsValueRefC1Ev
	leaq	66168(%rsp), %rdi
	callq	__ZN14altered_carbon2js10JsValueRefC1Ev
	leaq	66144(%rsp), %rdi
	callq	__ZN14altered_carbon2js10JsValueRefC1Ev
	leaq	66120(%rsp), %rdi
	callq	__ZN14altered_carbon2js10JsValueRefC1Ev
	leaq	66096(%rsp), %rdi
	callq	__ZN14altered_carbon2js10JsValueRefC1Ev
	leaq	66072(%rsp), %rdi
	callq	__ZN14altered_carbon2js10JsValueRefC1Ev
	leaq	66048(%rsp), %rdi
	callq	__ZN14altered_carbon2js10JsValueRefC1Ev
	leaq	66024(%rsp), %rdi
	callq	__ZN14altered_carbon2js10JsValueRefC1Ev
	leaq	66000(%rsp), %rdi
	callq	__ZN14altered_carbon2js10JsValueRefC1Ev
	leaq	65976(%rsp), %rdi
	callq	__ZN14altered_carbon2js10JsValueRefC1Ev
	leaq	65952(%rsp), %rdi
	callq	__ZN14altered_carbon2js10JsValueRefC1Ev
	leaq	65928(%rsp), %rdi
	callq	__ZN14altered_carbon2js10JsValueRefC1Ev
	leaq	65904(%rsp), %rdi
	callq	__ZN14altered_carbon2js10JsValueRefC1Ev
	leaq	65880(%rsp), %rdi
	callq	__ZN14altered_carbon2js10JsValueRefC1Ev
	leaq	65856(%rsp), %rdi
	callq	__ZN14altered_carbon2js10JsValueRefC1Ev
	leaq	65832(%rsp), %rdi
	callq	__ZN14altered_carbon2js10JsValueRefC1Ev
	leaq	65808(%rsp), %rdi
	callq	__ZN14altered_carbon2js10JsValueRefC1Ev
	leaq	65784(%rsp), %rdi
	callq	__ZN14altered_carbon2js10JsValueRefC1Ev
	leaq	65760(%rsp), %rdi
	callq	__ZN14altered_carbon2js10JsValueRefC1Ev
	leaq	65736(%rsp), %rdi
	callq	__ZN14altered_carbon2js10JsValueRefC1Ev
	leaq	65712(%rsp), %rdi
	callq	__ZN14altered_carbon2js10JsValueRefC1Ev
	leaq	65688(%rsp), %rdi
	callq	__ZN14altered_carbon2js10JsValueRefC1Ev
	leaq	65664(%rsp), %rdi
	callq	__ZN14altered_carbon2js10JsValueRefC1Ev
	leaq	65640(%rsp), %rdi
	callq	__ZN14altered_carbon2js10JsValueRefC1Ev
	leaq	65616(%rsp), %rdi
	callq	__ZN14altered_carbon2js10JsValueRefC1Ev
	leaq	65592(%rsp), %rdi
	callq	__ZN14altered_carbon2js10JsValueRefC1Ev
	leaq	65568(%rsp), %rdi
	callq	__ZN14altered_carbon2js10JsValueRefC1Ev
	leaq	65544(%rsp), %rdi
	callq	__ZN14altered_carbon2js10JsValueRefC1Ev
	leaq	65520(%rsp), %rdi
	callq	__ZN14altered_carbon2js10JsValueRefC1Ev
	leaq	65496(%rsp), %rdi
	callq	__ZN14altered_carbon2js10JsValueRefC1Ev
	leaq	65472(%rsp), %rdi
	callq	__ZN14altered_carbon2js10JsValueRefC1Ev
	leaq	65448(%rsp), %rdi
	callq	__ZN14altered_carbon2js10JsValueRefC1Ev
	leaq	65424(%rsp), %rdi
	callq	__ZN14altered_carbon2js10JsValueRefC1Ev
	leaq	65400(%rsp), %rdi
	callq	__ZN14altered_carbon2js10JsValueRefC1Ev
	leaq	65376(%rsp), %rdi
	callq	__ZN14altered_carbon2js10JsValueRefC1Ev
	leaq	65352(%rsp), %rdi
	callq	__ZN14altered_carbon2js10JsValueRefC1Ev
	leaq	65328(%rsp), %rdi
	callq	__ZN14altered_carbon2js10JsValueRefC1Ev
	leaq	65304(%rsp), %rdi
	callq	__ZN14altered_carbon2js10JsValueRefC1Ev
	leaq	65280(%rsp), %rdi
	callq	__ZN14altered_carbon2js10JsValueRefC1Ev
	leaq	65256(%rsp), %rdi
	callq	__ZN14altered_carbon2js10JsValueRefC1Ev
	leaq	65232(%rsp), %rdi
	callq	__ZN14altered_carbon2js10JsValueRefC1Ev
	leaq	65208(%rsp), %rdi
	callq	__ZN14altered_carbon2js10JsValueRefC1Ev
	leaq	65184(%rsp), %rdi
	callq	__ZN14altered_carbon2js10JsValueRefC1Ev
	leaq	65160(%rsp), %rdi
	callq	__ZN14altered_carbon2js10JsValueRefC1Ev
	leaq	65136(%rsp), %rdi
	callq	__ZN14altered_carbon2js10JsValueRefC1Ev
	leaq	65112(%rsp), %rdi
	callq	__ZN14altered_carbon2js10JsValueRefC1Ev
	leaq	65088(%rsp), %rdi
	callq	__ZN14altered_carbon2js10JsValueRefC1Ev
	leaq	65064(%rsp), %rdi
	callq	__ZN14altered_carbon2js10JsValueRefC1Ev
	leaq	65040(%rsp), %rdi
	callq	__ZN14altered_carbon2js10JsValueRefC1Ev
	leaq	65016(%rsp), %rdi
	callq	__ZN14altered_carbon2js10JsValueRefC1Ev
	leaq	64992(%rsp), %rdi
	callq	__ZN14altered_carbon2js10JsValueRefC1Ev
	leaq	64968(%rsp), %rdi
	callq	__ZN14altered_carbon2js10JsValueRefC1Ev
	leaq	64944(%rsp), %rdi
	callq	__ZN14altered_carbon2js10JsValueRefC1Ev
	leaq	64920(%rsp), %rdi
	callq	__ZN14altered_carbon2js10JsValueRefC1Ev
	leaq	64896(%rsp), %rdi
	callq	__ZN14altered_carbon2js10JsValueRefC1Ev
	leaq	64872(%rsp), %rdi
	callq	__ZN14altered_carbon2js10JsValueRefC1Ev
	leaq	64848(%rsp), %rdi
	callq	__ZN14altered_carbon2js10JsValueRefC1Ev
	leaq	64824(%rsp), %rdi
	callq	__ZN14altered_carbon2js10JsValueRefC1Ev
	leaq	64800(%rsp), %rdi
	callq	__ZN14altered_carbon2js10JsValueRefC1Ev
	leaq	64776(%rsp), %rdi
	callq	__ZN14altered_carbon2js10JsValueRefC1Ev
	leaq	64752(%rsp), %rdi
	callq	__ZN14altered_carbon2js10JsValueRefC1Ev
	leaq	64728(%rsp), %rdi
	callq	__ZN14altered_carbon2js10JsValueRefC1Ev
	leaq	64704(%rsp), %rdi
	callq	__ZN14altered_carbon2js10JsValueRefC1Ev
	leaq	64680(%rsp), %rdi
	callq	__ZN14altered_carbon2js10JsValueRefC1Ev
	leaq	64656(%rsp), %rdi
	callq	__ZN14altered_carbon2js10JsValueRefC1Ev
	leaq	64632(%rsp), %rdi
	callq	__ZN14altered_carbon2js10JsValueRefC1Ev
	leaq	64608(%rsp), %rdi
	callq	__ZN14altered_carbon2js10JsValueRefC1Ev
	leaq	64584(%rsp), %rdi
	callq	__ZN14altered_carbon2js10JsValueRefC1Ev
	leaq	64560(%rsp), %rdi
	callq	__ZN14altered_carbon2js10JsValueRefC1Ev
	leaq	64536(%rsp), %rdi
	callq	__ZN14altered_carbon2js10JsValueRefC1Ev
	leaq	64512(%rsp), %rdi
	callq	__ZN14altered_carbon2js10JsValueRefC1Ev
	leaq	64488(%rsp), %rdi
	callq	__ZN14altered_carbon2js10JsValueRefC1Ev
	leaq	64464(%rsp), %rdi
	callq	__ZN14altered_carbon2js10JsValueRefC1Ev
	leaq	64440(%rsp), %rdi
	callq	__ZN14altered_carbon2js10JsValueRefC1Ev
	leaq	64416(%rsp), %rdi
	callq	__ZN14altered_carbon2js10JsValueRefC1Ev
	leaq	64392(%rsp), %rdi
	callq	__ZN14altered_carbon2js10JsValueRefC1Ev
	leaq	64368(%rsp), %rdi
	callq	__ZN14altered_carbon2js10JsValueRefC1Ev
	leaq	64344(%rsp), %rdi
	callq	__ZN14altered_carbon2js10JsValueRefC1Ev
	leaq	64320(%rsp), %rdi
	callq	__ZN14altered_carbon2js10JsValueRefC1Ev
	leaq	64296(%rsp), %rdi
	callq	__ZN14altered_carbon2js10JsValueRefC1Ev
	leaq	64272(%rsp), %rdi
	callq	__ZN14altered_carbon2js10JsValueRefC1Ev
	leaq	64248(%rsp), %rdi
	callq	__ZN14altered_carbon2js10JsValueRefC1Ev
	leaq	64224(%rsp), %rdi
	callq	__ZN14altered_carbon2js10JsValueRefC1Ev
	leaq	64200(%rsp), %rdi
	callq	__ZN14altered_carbon2js10JsValueRefC1Ev
	leaq	64176(%rsp), %rdi
	callq	__ZN14altered_carbon2js10JsValueRefC1Ev
	leaq	64152(%rsp), %rdi
	callq	__ZN14altered_carbon2js10JsValueRefC1Ev
	leaq	64128(%rsp), %rdi
	callq	__ZN14altered_carbon2js10JsValueRefC1Ev
	leaq	64104(%rsp), %rdi
	callq	__ZN14altered_carbon2js10JsValueRefC1Ev
	leaq	64080(%rsp), %rdi
	callq	__ZN14altered_carbon2js10JsValueRefC1Ev
	leaq	64056(%rsp), %rdi
	callq	__ZN14altered_carbon2js10JsValueRefC1Ev
	leaq	64032(%rsp), %rdi
	callq	__ZN14altered_carbon2js10JsValueRefC1Ev
	leaq	64008(%rsp), %rdi
	callq	__ZN14altered_carbon2js10JsValueRefC1Ev
	leaq	63984(%rsp), %rdi
	callq	__ZN14altered_carbon2js10JsValueRefC1Ev
	leaq	63960(%rsp), %rdi
	callq	__ZN14altered_carbon2js10JsValueRefC1Ev
	leaq	63936(%rsp), %rdi
	callq	__ZN14altered_carbon2js10JsValueRefC1Ev
	leaq	63912(%rsp), %rdi
	callq	__ZN14altered_carbon2js10JsValueRefC1Ev
	leaq	63888(%rsp), %rdi
	callq	__ZN14altered_carbon2js10JsValueRefC1Ev
	leaq	63864(%rsp), %rdi
	callq	__ZN14altered_carbon2js10JsValueRefC1Ev
	leaq	63840(%rsp), %rdi
	callq	__ZN14altered_carbon2js10JsValueRefC1Ev
	leaq	63816(%rsp), %rdi
	callq	__ZN14altered_carbon2js10JsValueRefC1Ev
	leaq	63792(%rsp), %rdi
	callq	__ZN14altered_carbon2js10JsValueRefC1Ev
	leaq	63768(%rsp), %rdi
	callq	__ZN14altered_carbon2js10JsValueRefC1Ev
	leaq	63744(%rsp), %rdi
	callq	__ZN14altered_carbon2js10JsValueRefC1Ev
	leaq	63720(%rsp), %rdi
	callq	__ZN14altered_carbon2js10JsValueRefC1Ev
	leaq	63696(%rsp), %rdi
	callq	__ZN14altered_carbon2js10JsValueRefC1Ev
	leaq	63672(%rsp), %rdi
	callq	__ZN14altered_carbon2js10JsValueRefC1Ev
	leaq	63648(%rsp), %rdi
	callq	__ZN14altered_carbon2js10JsValueRefC1Ev
	leaq	63624(%rsp), %rdi
	callq	__ZN14altered_carbon2js10JsValueRefC1Ev
	leaq	63600(%rsp), %rdi
	callq	__ZN14altered_carbon2js10JsValueRefC1Ev
	leaq	63576(%rsp), %rdi
	callq	__ZN14altered_carbon2js10JsValueRefC1Ev
	leaq	63552(%rsp), %rdi
	callq	__ZN14altered_carbon2js10JsValueRefC1Ev
	leaq	63528(%rsp), %rdi
	callq	__ZN14altered_carbon2js10JsValueRefC1Ev
	leaq	63504(%rsp), %rdi
	callq	__ZN14altered_carbon2js10JsValueRefC1Ev
	leaq	63480(%rsp), %rdi
	callq	__ZN14altered_carbon2js10JsValueRefC1Ev
	leaq	63456(%rsp), %rdi
	callq	__ZN14altered_carbon2js10JsValueRefC1Ev
	leaq	63432(%rsp), %rdi
	callq	__ZN14altered_carbon2js10JsValueRefC1Ev
	leaq	63408(%rsp), %rdi
	callq	__ZN14altered_carbon2js10JsValueRefC1Ev
	leaq	63384(%rsp), %rdi
	callq	__ZN14altered_carbon2js10JsValueRefC1Ev
	leaq	63360(%rsp), %rdi
	callq	__ZN14altered_carbon2js10JsValueRefC1Ev
	leaq	63336(%rsp), %rdi
	callq	__ZN14altered_carbon2js10JsValueRefC1Ev
	leaq	63312(%rsp), %rdi
	callq	__ZN14altered_carbon2js10JsValueRefC1Ev
	leaq	63288(%rsp), %rdi
	callq	__ZN14altered_carbon2js10JsValueRefC1Ev
	leaq	63264(%rsp), %rdi
	callq	__ZN14altered_carbon2js10JsValueRefC1Ev
	leaq	63240(%rsp), %rdi
	callq	__ZN14altered_carbon2js10JsValueRefC1Ev
	leaq	63216(%rsp), %rdi
	callq	__ZN14altered_carbon2js10JsValueRefC1Ev
	leaq	63192(%rsp), %rdi
	callq	__ZN14altered_carbon2js10JsValueRefC1Ev
	leaq	63168(%rsp), %rdi
	callq	__ZN14altered_carbon2js10JsValueRefC1Ev
	leaq	63144(%rsp), %rdi
	callq	__ZN14altered_carbon2js10JsValueRefC1Ev
	leaq	63120(%rsp), %rdi
	callq	__ZN14altered_carbon2js10JsValueRefC1Ev
	leaq	63096(%rsp), %rdi
	callq	__ZN14altered_carbon2js10JsValueRefC1Ev
	leaq	63072(%rsp), %rdi
	callq	__ZN14altered_carbon2js10JsValueRefC1Ev
	leaq	63048(%rsp), %rdi
	callq	__ZN14altered_carbon2js10JsValueRefC1Ev
	leaq	63024(%rsp), %rdi
	callq	__ZN14altered_carbon2js10JsValueRefC1Ev
	leaq	63000(%rsp), %rdi
	callq	__ZN14altered_carbon2js10JsValueRefC1Ev
	leaq	62976(%rsp), %rdi
	callq	__ZN14altered_carbon2js10JsValueRefC1Ev
	leaq	62952(%rsp), %rdi
	callq	__ZN14altered_carbon2js10JsValueRefC1Ev
	leaq	62928(%rsp), %rdi
	callq	__ZN14altered_carbon2js10JsValueRefC1Ev
	leaq	62904(%rsp), %rdi
	callq	__ZN14altered_carbon2js10JsValueRefC1Ev
	leaq	62880(%rsp), %rdi
	callq	__ZN14altered_carbon2js10JsValueRefC1Ev
	leaq	62856(%rsp), %rdi
	callq	__ZN14altered_carbon2js10JsValueRefC1Ev
	leaq	62832(%rsp), %rdi
	callq	__ZN14altered_carbon2js10JsValueRefC1Ev
	leaq	62808(%rsp), %rdi
	callq	__ZN14altered_carbon2js10JsValueRefC1Ev
	leaq	62784(%rsp), %rdi
	callq	__ZN14altered_carbon2js10JsValueRefC1Ev
	leaq	62760(%rsp), %rdi
	callq	__ZN14altered_carbon2js10JsValueRefC1Ev
	leaq	62736(%rsp), %rdi
	callq	__ZN14altered_carbon2js10JsValueRefC1Ev
	leaq	62712(%rsp), %rdi
	callq	__ZN14altered_carbon2js10JsValueRefC1Ev
	leaq	62688(%rsp), %rdi
	callq	__ZN14altered_carbon2js10JsValueRefC1Ev
	leaq	62664(%rsp), %rdi
	callq	__ZN14altered_carbon2js10JsValueRefC1Ev
	leaq	62640(%rsp), %rdi
	callq	__ZN14altered_carbon2js10JsValueRefC1Ev
	leaq	62616(%rsp), %rdi
	callq	__ZN14altered_carbon2js10JsValueRefC1Ev
	leaq	62592(%rsp), %rdi
	callq	__ZN14altered_carbon2js10JsValueRefC1Ev
	leaq	62568(%rsp), %rdi
	callq	__ZN14altered_carbon2js10JsValueRefC1Ev
	leaq	62544(%rsp), %rdi
	callq	__ZN14altered_carbon2js10JsValueRefC1Ev
	leaq	62520(%rsp), %rdi
	callq	__ZN14altered_carbon2js10JsValueRefC1Ev
	leaq	62496(%rsp), %rdi
	callq	__ZN14altered_carbon2js10JsValueRefC1Ev
	leaq	62472(%rsp), %rdi
	callq	__ZN14altered_carbon2js10JsValueRefC1Ev
	leaq	62448(%rsp), %rdi
	callq	__ZN14altered_carbon2js10JsValueRefC1Ev
	leaq	62424(%rsp), %rdi
	callq	__ZN14altered_carbon2js10JsValueRefC1Ev
	leaq	62400(%rsp), %rdi
	callq	__ZN14altered_carbon2js10JsValueRefC1Ev
	leaq	62376(%rsp), %rdi
	callq	__ZN14altered_carbon2js10JsValueRefC1Ev
	leaq	62352(%rsp), %rdi
	callq	__ZN14altered_carbon2js10JsValueRefC1Ev
	leaq	62328(%rsp), %rdi
	callq	__ZN14altered_carbon2js10JsValueRefC1Ev
	leaq	62304(%rsp), %rdi
	callq	__ZN14altered_carbon2js10JsValueRefC1Ev
	leaq	62280(%rsp), %rdi
	callq	__ZN14altered_carbon2js10JsValueRefC1Ev
	leaq	62256(%rsp), %rdi
	callq	__ZN14altered_carbon2js10JsValueRefC1Ev
	leaq	62232(%rsp), %rdi
	callq	__ZN14altered_carbon2js10JsValueRefC1Ev
	leaq	62208(%rsp), %rdi
	callq	__ZN14altered_carbon2js10JsValueRefC1Ev
	leaq	62184(%rsp), %rdi
	callq	__ZN14altered_carbon2js10JsValueRefC1Ev
	leaq	62160(%rsp), %rdi
	callq	__ZN14altered_carbon2js10JsValueRefC1Ev
	leaq	62136(%rsp), %rdi
	callq	__ZN14altered_carbon2js10JsValueRefC1Ev
	leaq	62112(%rsp), %rdi
	callq	__ZN14altered_carbon2js10JsValueRefC1Ev
	leaq	62088(%rsp), %rdi
	callq	__ZN14altered_carbon2js10JsValueRefC1Ev
	leaq	62064(%rsp), %rdi
	callq	__ZN14altered_carbon2js10JsValueRefC1Ev
	leaq	62040(%rsp), %rdi
	callq	__ZN14altered_carbon2js10JsValueRefC1Ev
	leaq	62016(%rsp), %rdi
	callq	__ZN14altered_carbon2js10JsValueRefC1Ev
	leaq	61992(%rsp), %rdi
	callq	__ZN14altered_carbon2js10JsValueRefC1Ev
	leaq	61968(%rsp), %rdi
	callq	__ZN14altered_carbon2js10JsValueRefC1Ev
	leaq	61944(%rsp), %rdi
	callq	__ZN14altered_carbon2js10JsValueRefC1Ev
	leaq	61920(%rsp), %rdi
	callq	__ZN14altered_carbon2js10JsValueRefC1Ev
	leaq	61896(%rsp), %rdi
	callq	__ZN14altered_carbon2js10JsValueRefC1Ev
	leaq	61872(%rsp), %rdi
	callq	__ZN14altered_carbon2js10JsValueRefC1Ev
	leaq	61848(%rsp), %rdi
	callq	__ZN14altered_carbon2js10JsValueRefC1Ev
	leaq	61824(%rsp), %rdi
	callq	__ZN14altered_carbon2js10JsValueRefC1Ev
	leaq	61800(%rsp), %rdi
	callq	__ZN14altered_carbon2js10JsValueRefC1Ev
	leaq	61776(%rsp), %rdi
	callq	__ZN14altered_carbon2js10JsValueRefC1Ev
	leaq	61752(%rsp), %rdi
	callq	__ZN14altered_carbon2js10JsValueRefC1Ev
	leaq	61728(%rsp), %rdi
	callq	__ZN14altered_carbon2js10JsValueRefC1Ev
	leaq	61704(%rsp), %rdi
	callq	__ZN14altered_carbon2js10JsValueRefC1Ev
	leaq	61680(%rsp), %rdi
	callq	__ZN14altered_carbon2js10JsValueRefC1Ev
	leaq	61656(%rsp), %rdi
	callq	__ZN14altered_carbon2js10JsValueRefC1Ev
	leaq	61632(%rsp), %rdi
	callq	__ZN14altered_carbon2js10JsValueRefC1Ev
	leaq	61608(%rsp), %rdi
	callq	__ZN14altered_carbon2js10JsValueRefC1Ev
	leaq	61584(%rsp), %rdi
	callq	__ZN14altered_carbon2js10JsValueRefC1Ev
	leaq	61560(%rsp), %rdi
	callq	__ZN14altered_carbon2js10JsValueRefC1Ev
	leaq	61536(%rsp), %rdi
	callq	__ZN14altered_carbon2js10JsValueRefC1Ev
	leaq	61512(%rsp), %rdi
	callq	__ZN14altered_carbon2js10JsValueRefC1Ev
	leaq	61488(%rsp), %rdi
	callq	__ZN14altered_carbon2js10JsValueRefC1Ev
	leaq	61464(%rsp), %rdi
	callq	__ZN14altered_carbon2js10JsValueRefC1Ev
	leaq	61440(%rsp), %rdi
	callq	__ZN14altered_carbon2js10JsValueRefC1Ev
	leaq	61416(%rsp), %rdi
	callq	__ZN14altered_carbon2js10JsValueRefC1Ev
	leaq	61392(%rsp), %rdi
	callq	__ZN14altered_carbon2js10JsValueRefC1Ev
	leaq	61368(%rsp), %rdi
	callq	__ZN14altered_carbon2js10JsValueRefC1Ev
	leaq	61344(%rsp), %rdi
	callq	__ZN14altered_carbon2js10JsValueRefC1Ev
	leaq	61320(%rsp), %rdi
	callq	__ZN14altered_carbon2js10JsValueRefC1Ev
	leaq	61296(%rsp), %rdi
	callq	__ZN14altered_carbon2js10JsValueRefC1Ev
	leaq	61272(%rsp), %rdi
	callq	__ZN14altered_carbon2js10JsValueRefC1Ev
	leaq	61248(%rsp), %rdi
	callq	__ZN14altered_carbon2js10JsValueRefC1Ev
	leaq	61224(%rsp), %rdi
	callq	__ZN14altered_carbon2js10JsValueRefC1Ev
	leaq	61200(%rsp), %rdi
	callq	__ZN14altered_carbon2js10JsValueRefC1Ev
	leaq	61176(%rsp), %rdi
	callq	__ZN14altered_carbon2js10JsValueRefC1Ev
	leaq	61152(%rsp), %rdi
	callq	__ZN14altered_carbon2js10JsValueRefC1Ev
	leaq	61128(%rsp), %rdi
	callq	__ZN14altered_carbon2js10JsValueRefC1Ev
	leaq	61104(%rsp), %rdi
	callq	__ZN14altered_carbon2js10JsValueRefC1Ev
	leaq	61080(%rsp), %rdi
	callq	__ZN14altered_carbon2js10JsValueRefC1Ev
	leaq	61056(%rsp), %rdi
	callq	__ZN14altered_carbon2js10JsValueRefC1Ev
	leaq	61032(%rsp), %rdi
	callq	__ZN14altered_carbon2js10JsValueRefC1Ev
	leaq	61008(%rsp), %rdi
	callq	__ZN14altered_carbon2js10JsValueRefC1Ev
	leaq	60984(%rsp), %rdi
	callq	__ZN14altered_carbon2js10JsValueRefC1Ev
	leaq	60960(%rsp), %rdi
	callq	__ZN14altered_carbon2js10JsValueRefC1Ev
	leaq	60936(%rsp), %rdi
	callq	__ZN14altered_carbon2js10JsValueRefC1Ev
	leaq	60912(%rsp), %rdi
	callq	__ZN14altered_carbon2js10JsValueRefC1Ev
	leaq	60888(%rsp), %rdi
	callq	__ZN14altered_carbon2js10JsValueRefC1Ev
	leaq	60864(%rsp), %rdi
	callq	__ZN14altered_carbon2js10JsValueRefC1Ev
	leaq	60840(%rsp), %rdi
	callq	__ZN14altered_carbon2js10JsValueRefC1Ev
	leaq	60816(%rsp), %rdi
	callq	__ZN14altered_carbon2js10JsValueRefC1Ev
	leaq	60792(%rsp), %rdi
	callq	__ZN14altered_carbon2js10JsValueRefC1Ev
	leaq	60768(%rsp), %rdi
	callq	__ZN14altered_carbon2js10JsValueRefC1Ev
	leaq	60744(%rsp), %rdi
	callq	__ZN14altered_carbon2js10JsValueRefC1Ev
	leaq	60720(%rsp), %rdi
	callq	__ZN14altered_carbon2js10JsValueRefC1Ev
	leaq	60696(%rsp), %rdi
	callq	__ZN14altered_carbon2js10JsValueRefC1Ev
	leaq	60672(%rsp), %rdi
	callq	__ZN14altered_carbon2js10JsValueRefC1Ev
	leaq	60648(%rsp), %rdi
	callq	__ZN14altered_carbon2js10JsValueRefC1Ev
	leaq	60624(%rsp), %rdi
	callq	__ZN14altered_carbon2js10JsValueRefC1Ev
	leaq	60600(%rsp), %rdi
	callq	__ZN14altered_carbon2js10JsValueRefC1Ev
	leaq	60576(%rsp), %rdi
	callq	__ZN14altered_carbon2js10JsValueRefC1Ev
	leaq	60552(%rsp), %rdi
	callq	__ZN14altered_carbon2js10JsValueRefC1Ev
	leaq	60528(%rsp), %rdi
	callq	__ZN14altered_carbon2js10JsValueRefC1Ev
	leaq	60504(%rsp), %rdi
	callq	__ZN14altered_carbon2js10JsValueRefC1Ev
	leaq	60480(%rsp), %rdi
	callq	__ZN14altered_carbon2js10JsValueRefC1Ev
	leaq	60456(%rsp), %rdi
	callq	__ZN14altered_carbon2js10JsValueRefC1Ev
	leaq	60432(%rsp), %rdi
	callq	__ZN14altered_carbon2js10JsValueRefC1Ev
	leaq	60408(%rsp), %rdi
	callq	__ZN14altered_carbon2js10JsValueRefC1Ev
	leaq	60384(%rsp), %rdi
	callq	__ZN14altered_carbon2js10JsValueRefC1Ev
	leaq	60360(%rsp), %rdi
	callq	__ZN14altered_carbon2js10JsValueRefC1Ev
	leaq	60336(%rsp), %rdi
	callq	__ZN14altered_carbon2js10JsValueRefC1Ev
	leaq	60312(%rsp), %rdi
	callq	__ZN14altered_carbon2js10JsValueRefC1Ev
	leaq	60288(%rsp), %rdi
	callq	__ZN14altered_carbon2js10JsValueRefC1Ev
	leaq	60264(%rsp), %rdi
	callq	__ZN14altered_carbon2js10JsValueRefC1Ev
	leaq	60240(%rsp), %rdi
	callq	__ZN14altered_carbon2js10JsValueRefC1Ev
	leaq	60216(%rsp), %rdi
	callq	__ZN14altered_carbon2js10JsValueRefC1Ev
	leaq	60192(%rsp), %rdi
	callq	__ZN14altered_carbon2js10JsValueRefC1Ev
	leaq	60168(%rsp), %rdi
	callq	__ZN14altered_carbon2js10JsValueRefC1Ev
	leaq	60144(%rsp), %rdi
	callq	__ZN14altered_carbon2js10JsValueRefC1Ev
	leaq	60120(%rsp), %rdi
	callq	__ZN14altered_carbon2js10JsValueRefC1Ev
	leaq	60096(%rsp), %rdi
	callq	__ZN14altered_carbon2js10JsValueRefC1Ev
	leaq	60072(%rsp), %rdi
	callq	__ZN14altered_carbon2js10JsValueRefC1Ev
	leaq	60048(%rsp), %rdi
	callq	__ZN14altered_carbon2js10JsValueRefC1Ev
	leaq	60024(%rsp), %rdi
	callq	__ZN14altered_carbon2js10JsValueRefC1Ev
	leaq	60000(%rsp), %rdi
	callq	__ZN14altered_carbon2js10JsValueRefC1Ev
	leaq	59976(%rsp), %rdi
	callq	__ZN14altered_carbon2js10JsValueRefC1Ev
	leaq	59952(%rsp), %rdi
	callq	__ZN14altered_carbon2js10JsValueRefC1Ev
	leaq	59928(%rsp), %rdi
	callq	__ZN14altered_carbon2js10JsValueRefC1Ev
	leaq	59904(%rsp), %rdi
	callq	__ZN14altered_carbon2js10JsValueRefC1Ev
	leaq	59880(%rsp), %rdi
	callq	__ZN14altered_carbon2js10JsValueRefC1Ev
	leaq	59856(%rsp), %rdi
	callq	__ZN14altered_carbon2js10JsValueRefC1Ev
	leaq	59832(%rsp), %rdi
	callq	__ZN14altered_carbon2js10JsValueRefC1Ev
	leaq	59808(%rsp), %rdi
	callq	__ZN14altered_carbon2js10JsValueRefC1Ev
	leaq	59784(%rsp), %rdi
	callq	__ZN14altered_carbon2js10JsValueRefC1Ev
	leaq	59760(%rsp), %rdi
	callq	__ZN14altered_carbon2js10JsValueRefC1Ev
	leaq	59736(%rsp), %rdi
	callq	__ZN14altered_carbon2js10JsValueRefC1Ev
	leaq	59712(%rsp), %rdi
	callq	__ZN14altered_carbon2js10JsValueRefC1Ev
	leaq	59688(%rsp), %rdi
	callq	__ZN14altered_carbon2js10JsValueRefC1Ev
	leaq	59664(%rsp), %rdi
	callq	__ZN14altered_carbon2js10JsValueRefC1Ev
	leaq	59640(%rsp), %rdi
	callq	__ZN14altered_carbon2js10JsValueRefC1Ev
	leaq	59616(%rsp), %rdi
	callq	__ZN14altered_carbon2js10JsValueRefC1Ev
	leaq	59592(%rsp), %rdi
	callq	__ZN14altered_carbon2js10JsValueRefC1Ev
	leaq	59568(%rsp), %rdi
	callq	__ZN14altered_carbon2js10JsValueRefC1Ev
	leaq	59544(%rsp), %rdi
	callq	__ZN14altered_carbon2js10JsValueRefC1Ev
	leaq	59520(%rsp), %rdi
	callq	__ZN14altered_carbon2js10JsValueRefC1Ev
	leaq	59496(%rsp), %rdi
	callq	__ZN14altered_carbon2js10JsValueRefC1Ev
	leaq	59472(%rsp), %rdi
	callq	__ZN14altered_carbon2js10JsValueRefC1Ev
	leaq	59448(%rsp), %rdi
	callq	__ZN14altered_carbon2js10JsValueRefC1Ev
	leaq	59424(%rsp), %rdi
	callq	__ZN14altered_carbon2js10JsValueRefC1Ev
	leaq	59400(%rsp), %rdi
	callq	__ZN14altered_carbon2js10JsValueRefC1Ev
	leaq	59376(%rsp), %rdi
	callq	__ZN14altered_carbon2js10JsValueRefC1Ev
	leaq	59352(%rsp), %rdi
	callq	__ZN14altered_carbon2js10JsValueRefC1Ev
	leaq	59328(%rsp), %rdi
	callq	__ZN14altered_carbon2js10JsValueRefC1Ev
	leaq	59304(%rsp), %rdi
	callq	__ZN14altered_carbon2js10JsValueRefC1Ev
	leaq	59280(%rsp), %rdi
	callq	__ZN14altered_carbon2js10JsValueRefC1Ev
	leaq	59256(%rsp), %rdi
	callq	__ZN14altered_carbon2js10JsValueRefC1Ev
	leaq	59232(%rsp), %rdi
	callq	__ZN14altered_carbon2js10JsValueRefC1Ev
	leaq	59208(%rsp), %rdi
	callq	__ZN14altered_carbon2js10JsValueRefC1Ev
	leaq	59184(%rsp), %rdi
	callq	__ZN14altered_carbon2js10JsValueRefC1Ev
	leaq	59160(%rsp), %rdi
	callq	__ZN14altered_carbon2js10JsValueRefC1Ev
	leaq	59136(%rsp), %rdi
	callq	__ZN14altered_carbon2js10JsValueRefC1Ev
	leaq	59112(%rsp), %rdi
	callq	__ZN14altered_carbon2js10JsValueRefC1Ev
	leaq	59088(%rsp), %rdi
	callq	__ZN14altered_carbon2js10JsValueRefC1Ev
	leaq	59064(%rsp), %rdi
	callq	__ZN14altered_carbon2js10JsValueRefC1Ev
	leaq	59040(%rsp), %rdi
	callq	__ZN14altered_carbon2js10JsValueRefC1Ev
	leaq	59016(%rsp), %rdi
	callq	__ZN14altered_carbon2js10JsValueRefC1Ev
	leaq	58992(%rsp), %rdi
	callq	__ZN14altered_carbon2js10JsValueRefC1Ev
	leaq	58968(%rsp), %rdi
	callq	__ZN14altered_carbon2js10JsValueRefC1Ev
	leaq	58944(%rsp), %rdi
	callq	__ZN14altered_carbon2js10JsValueRefC1Ev
	leaq	58920(%rsp), %rdi
	callq	__ZN14altered_carbon2js10JsValueRefC1Ev
	leaq	58896(%rsp), %rdi
	callq	__ZN14altered_carbon2js10JsValueRefC1Ev
	leaq	58872(%rsp), %rdi
	callq	__ZN14altered_carbon2js10JsValueRefC1Ev
	leaq	58848(%rsp), %rdi
	callq	__ZN14altered_carbon2js10JsValueRefC1Ev
	leaq	58824(%rsp), %rdi
	callq	__ZN14altered_carbon2js10JsValueRefC1Ev
	leaq	58800(%rsp), %rdi
	callq	__ZN14altered_carbon2js10JsValueRefC1Ev
	leaq	58776(%rsp), %rdi
	callq	__ZN14altered_carbon2js10JsValueRefC1Ev
	leaq	58752(%rsp), %rdi
	callq	__ZN14altered_carbon2js10JsValueRefC1Ev
	leaq	58728(%rsp), %rdi
	callq	__ZN14altered_carbon2js10JsValueRefC1Ev
	leaq	58704(%rsp), %rdi
	callq	__ZN14altered_carbon2js10JsValueRefC1Ev
	leaq	58680(%rsp), %rdi
	callq	__ZN14altered_carbon2js10JsValueRefC1Ev
	leaq	58656(%rsp), %rdi
	callq	__ZN14altered_carbon2js10JsValueRefC1Ev
	leaq	58632(%rsp), %rdi
	callq	__ZN14altered_carbon2js10JsValueRefC1Ev
	leaq	58608(%rsp), %rdi
	callq	__ZN14altered_carbon2js10JsValueRefC1Ev
	leaq	58584(%rsp), %rdi
	callq	__ZN14altered_carbon2js10JsValueRefC1Ev
	leaq	58560(%rsp), %rdi
	callq	__ZN14altered_carbon2js10JsValueRefC1Ev
	leaq	58536(%rsp), %rdi
	callq	__ZN14altered_carbon2js10JsValueRefC1Ev
	leaq	58512(%rsp), %rdi
	callq	__ZN14altered_carbon2js10JsValueRefC1Ev
	leaq	58488(%rsp), %rdi
	callq	__ZN14altered_carbon2js10JsValueRefC1Ev
	leaq	58464(%rsp), %rdi
	callq	__ZN14altered_carbon2js10JsValueRefC1Ev
	leaq	58440(%rsp), %rdi
	callq	__ZN14altered_carbon2js10JsValueRefC1Ev
	leaq	58416(%rsp), %rdi
	callq	__ZN14altered_carbon2js10JsValueRefC1Ev
	leaq	58392(%rsp), %rdi
	callq	__ZN14altered_carbon2js10JsValueRefC1Ev
	leaq	58368(%rsp), %rdi
	callq	__ZN14altered_carbon2js10JsValueRefC1Ev
	leaq	58344(%rsp), %rdi
	callq	__ZN14altered_carbon2js10JsValueRefC1Ev
	leaq	58320(%rsp), %rdi
	callq	__ZN14altered_carbon2js10JsValueRefC1Ev
	leaq	58296(%rsp), %rdi
	callq	__ZN14altered_carbon2js10JsValueRefC1Ev
	leaq	58272(%rsp), %rdi
	callq	__ZN14altered_carbon2js10JsValueRefC1Ev
	leaq	58248(%rsp), %rdi
	callq	__ZN14altered_carbon2js10JsValueRefC1Ev
	leaq	58224(%rsp), %rdi
	callq	__ZN14altered_carbon2js10JsValueRefC1Ev
	leaq	58200(%rsp), %rdi
	callq	__ZN14altered_carbon2js10JsValueRefC1Ev
	leaq	58176(%rsp), %rdi
	callq	__ZN14altered_carbon2js10JsValueRefC1Ev
	leaq	58152(%rsp), %rdi
	callq	__ZN14altered_carbon2js10JsValueRefC1Ev
	leaq	58128(%rsp), %rdi
	callq	__ZN14altered_carbon2js10JsValueRefC1Ev
	leaq	58104(%rsp), %rdi
	callq	__ZN14altered_carbon2js10JsValueRefC1Ev
	leaq	58080(%rsp), %rdi
	callq	__ZN14altered_carbon2js10JsValueRefC1Ev
	leaq	58056(%rsp), %rdi
	callq	__ZN14altered_carbon2js10JsValueRefC1Ev
	leaq	58032(%rsp), %rdi
	callq	__ZN14altered_carbon2js10JsValueRefC1Ev
	leaq	58008(%rsp), %rdi
	callq	__ZN14altered_carbon2js10JsValueRefC1Ev
	leaq	57984(%rsp), %rdi
	callq	__ZN14altered_carbon2js10JsValueRefC1Ev
	leaq	57960(%rsp), %rdi
	callq	__ZN14altered_carbon2js10JsValueRefC1Ev
	leaq	57936(%rsp), %rdi
	callq	__ZN14altered_carbon2js10JsValueRefC1Ev
	leaq	57912(%rsp), %rdi
	callq	__ZN14altered_carbon2js10JsValueRefC1Ev
	leaq	57888(%rsp), %rdi
	callq	__ZN14altered_carbon2js10JsValueRefC1Ev
	leaq	57864(%rsp), %rdi
	callq	__ZN14altered_carbon2js10JsValueRefC1Ev
	leaq	57840(%rsp), %rdi
	callq	__ZN14altered_carbon2js10JsValueRefC1Ev
	leaq	57816(%rsp), %rdi
	callq	__ZN14altered_carbon2js10JsValueRefC1Ev
	leaq	57792(%rsp), %rdi
	callq	__ZN14altered_carbon2js10JsValueRefC1Ev
	leaq	57768(%rsp), %rdi
	callq	__ZN14altered_carbon2js10JsValueRefC1Ev
	leaq	57744(%rsp), %rdi
	callq	__ZN14altered_carbon2js10JsValueRefC1Ev
	leaq	57720(%rsp), %rdi
	callq	__ZN14altered_carbon2js10JsValueRefC1Ev
	leaq	57696(%rsp), %rdi
	callq	__ZN14altered_carbon2js10JsValueRefC1Ev
	leaq	57672(%rsp), %rdi
	callq	__ZN14altered_carbon2js10JsValueRefC1Ev
	leaq	57648(%rsp), %rdi
	callq	__ZN14altered_carbon2js10JsValueRefC1Ev
	leaq	57624(%rsp), %rdi
	callq	__ZN14altered_carbon2js10JsValueRefC1Ev
	leaq	57600(%rsp), %rdi
	callq	__ZN14altered_carbon2js10JsValueRefC1Ev
	leaq	57576(%rsp), %rdi
	callq	__ZN14altered_carbon2js10JsValueRefC1Ev
	leaq	57552(%rsp), %rdi
	callq	__ZN14altered_carbon2js10JsValueRefC1Ev
	leaq	57528(%rsp), %rdi
	callq	__ZN14altered_carbon2js10JsValueRefC1Ev
	leaq	57504(%rsp), %rdi
	callq	__ZN14altered_carbon2js10JsValueRefC1Ev
	leaq	57480(%rsp), %rdi
	callq	__ZN14altered_carbon2js10JsValueRefC1Ev
	leaq	57456(%rsp), %rdi
	callq	__ZN14altered_carbon2js10JsValueRefC1Ev
	leaq	57432(%rsp), %rdi
	callq	__ZN14altered_carbon2js10JsValueRefC1Ev
	leaq	57408(%rsp), %rdi
	callq	__ZN14altered_carbon2js10JsValueRefC1Ev
	leaq	57384(%rsp), %rdi
	callq	__ZN14altered_carbon2js10JsValueRefC1Ev
	leaq	57360(%rsp), %rdi
	callq	__ZN14altered_carbon2js10JsValueRefC1Ev
	leaq	57336(%rsp), %rdi
	callq	__ZN14altered_carbon2js10JsValueRefC1Ev
	leaq	57312(%rsp), %rdi
	callq	__ZN14altered_carbon2js10JsValueRefC1Ev
	leaq	57288(%rsp), %rdi
	callq	__ZN14altered_carbon2js10JsValueRefC1Ev
	leaq	57264(%rsp), %rdi
	callq	__ZN14altered_carbon2js10JsValueRefC1Ev
	leaq	57240(%rsp), %rdi
	callq	__ZN14altered_carbon2js10JsValueRefC1Ev
	leaq	57216(%rsp), %rdi
	callq	__ZN14altered_carbon2js10JsValueRefC1Ev
	leaq	57192(%rsp), %rdi
	callq	__ZN14altered_carbon2js10JsValueRefC1Ev
	leaq	57168(%rsp), %rdi
	callq	__ZN14altered_carbon2js10JsValueRefC1Ev
	leaq	57144(%rsp), %rdi
	callq	__ZN14altered_carbon2js10JsValueRefC1Ev
	leaq	57120(%rsp), %rdi
	callq	__ZN14altered_carbon2js10JsValueRefC1Ev
	leaq	57096(%rsp), %rdi
	callq	__ZN14altered_carbon2js10JsValueRefC1Ev
	leaq	57072(%rsp), %rdi
	callq	__ZN14altered_carbon2js10JsValueRefC1Ev
	leaq	57048(%rsp), %rdi
	callq	__ZN14altered_carbon2js10JsValueRefC1Ev
	leaq	57024(%rsp), %rdi
	callq	__ZN14altered_carbon2js10JsValueRefC1Ev
	leaq	57000(%rsp), %rdi
	callq	__ZN14altered_carbon2js10JsValueRefC1Ev
	leaq	56976(%rsp), %rdi
	callq	__ZN14altered_carbon2js10JsValueRefC1Ev
	leaq	56952(%rsp), %rdi
	callq	__ZN14altered_carbon2js10JsValueRefC1Ev
	leaq	56928(%rsp), %rdi
	callq	__ZN14altered_carbon2js10JsValueRefC1Ev
	leaq	56904(%rsp), %rdi
	callq	__ZN14altered_carbon2js10JsValueRefC1Ev
	leaq	56880(%rsp), %rdi
	callq	__ZN14altered_carbon2js10JsValueRefC1Ev
	leaq	56856(%rsp), %rdi
	callq	__ZN14altered_carbon2js10JsValueRefC1Ev
	leaq	56832(%rsp), %rdi
	callq	__ZN14altered_carbon2js10JsValueRefC1Ev
	leaq	56808(%rsp), %rdi
	callq	__ZN14altered_carbon2js10JsValueRefC1Ev
	leaq	56784(%rsp), %rdi
	callq	__ZN14altered_carbon2js10JsValueRefC1Ev
	leaq	56760(%rsp), %rdi
	callq	__ZN14altered_carbon2js10JsValueRefC1Ev
	leaq	56736(%rsp), %rdi
	callq	__ZN14altered_carbon2js10JsValueRefC1Ev
	leaq	56712(%rsp), %rdi
	callq	__ZN14altered_carbon2js10JsValueRefC1Ev
	leaq	56688(%rsp), %rdi
	callq	__ZN14altered_carbon2js10JsValueRefC1Ev
	leaq	56664(%rsp), %rdi
	callq	__ZN14altered_carbon2js10JsValueRefC1Ev
	leaq	56640(%rsp), %rdi
	callq	__ZN14altered_carbon2js10JsValueRefC1Ev
	leaq	56616(%rsp), %rdi
	callq	__ZN14altered_carbon2js10JsValueRefC1Ev
	leaq	56592(%rsp), %rdi
	callq	__ZN14altered_carbon2js10JsValueRefC1Ev
	leaq	56568(%rsp), %rdi
	callq	__ZN14altered_carbon2js10JsValueRefC1Ev
	leaq	56544(%rsp), %rdi
	callq	__ZN14altered_carbon2js10JsValueRefC1Ev
	leaq	56520(%rsp), %rdi
	callq	__ZN14altered_carbon2js10JsValueRefC1Ev
	leaq	56496(%rsp), %rdi
	callq	__ZN14altered_carbon2js10JsValueRefC1Ev
	leaq	56472(%rsp), %rdi
	callq	__ZN14altered_carbon2js10JsValueRefC1Ev
	leaq	56448(%rsp), %rdi
	callq	__ZN14altered_carbon2js10JsValueRefC1Ev
	leaq	56424(%rsp), %rdi
	callq	__ZN14altered_carbon2js10JsValueRefC1Ev
	leaq	56400(%rsp), %rdi
	callq	__ZN14altered_carbon2js10JsValueRefC1Ev
	leaq	56376(%rsp), %rdi
	callq	__ZN14altered_carbon2js10JsValueRefC1Ev
	leaq	56352(%rsp), %rdi
	callq	__ZN14altered_carbon2js10JsValueRefC1Ev
	leaq	56328(%rsp), %rdi
	callq	__ZN14altered_carbon2js10JsValueRefC1Ev
	leaq	56304(%rsp), %rdi
	callq	__ZN14altered_carbon2js10JsValueRefC1Ev
	leaq	56280(%rsp), %rdi
	callq	__ZN14altered_carbon2js10JsValueRefC1Ev
	leaq	56256(%rsp), %rdi
	callq	__ZN14altered_carbon2js10JsValueRefC1Ev
	leaq	56232(%rsp), %rdi
	callq	__ZN14altered_carbon2js10JsValueRefC1Ev
	leaq	56208(%rsp), %rdi
	callq	__ZN14altered_carbon2js10JsValueRefC1Ev
	leaq	56184(%rsp), %rdi
	callq	__ZN14altered_carbon2js10JsValueRefC1Ev
	leaq	56160(%rsp), %rdi
	callq	__ZN14altered_carbon2js10JsValueRefC1Ev
	leaq	56136(%rsp), %rdi
	callq	__ZN14altered_carbon2js10JsValueRefC1Ev
	leaq	56112(%rsp), %rdi
	callq	__ZN14altered_carbon2js10JsValueRefC1Ev
	leaq	56088(%rsp), %rdi
	callq	__ZN14altered_carbon2js10JsValueRefC1Ev
	leaq	56064(%rsp), %rdi
	callq	__ZN14altered_carbon2js10JsValueRefC1Ev
	leaq	56040(%rsp), %rdi
	callq	__ZN14altered_carbon2js10JsValueRefC1Ev
	leaq	56016(%rsp), %rdi
	callq	__ZN14altered_carbon2js10JsValueRefC1Ev
	leaq	55992(%rsp), %rdi
	callq	__ZN14altered_carbon2js10JsValueRefC1Ev
	leaq	55968(%rsp), %rdi
	callq	__ZN14altered_carbon2js10JsValueRefC1Ev
	leaq	55944(%rsp), %rdi
	callq	__ZN14altered_carbon2js10JsValueRefC1Ev
	leaq	55920(%rsp), %rdi
	callq	__ZN14altered_carbon2js10JsValueRefC1Ev
	leaq	55896(%rsp), %rdi
	callq	__ZN14altered_carbon2js10JsValueRefC1Ev
	leaq	55872(%rsp), %rdi
	callq	__ZN14altered_carbon2js10JsValueRefC1Ev
	leaq	55848(%rsp), %rdi
	callq	__ZN14altered_carbon2js10JsValueRefC1Ev
	leaq	55824(%rsp), %rdi
	callq	__ZN14altered_carbon2js10JsValueRefC1Ev
	leaq	55800(%rsp), %rdi
	callq	__ZN14altered_carbon2js10JsValueRefC1Ev
	leaq	55776(%rsp), %rdi
	callq	__ZN14altered_carbon2js10JsValueRefC1Ev
	leaq	55752(%rsp), %rdi
	callq	__ZN14altered_carbon2js10JsValueRefC1Ev
	leaq	55728(%rsp), %rdi
	callq	__ZN14altered_carbon2js10JsValueRefC1Ev
	leaq	55704(%rsp), %rdi
	callq	__ZN14altered_carbon2js10JsValueRefC1Ev
	leaq	55680(%rsp), %rdi
	callq	__ZN14altered_carbon2js10JsValueRefC1Ev
	leaq	55656(%rsp), %rdi
	callq	__ZN14altered_carbon2js10JsValueRefC1Ev
	leaq	55632(%rsp), %rdi
	callq	__ZN14altered_carbon2js10JsValueRefC1Ev
	leaq	55608(%rsp), %rdi
	callq	__ZN14altered_carbon2js10JsValueRefC1Ev
	leaq	55584(%rsp), %rdi
	callq	__ZN14altered_carbon2js10JsValueRefC1Ev
	leaq	55560(%rsp), %rdi
	callq	__ZN14altered_carbon2js10JsValueRefC1Ev
	leaq	55536(%rsp), %rdi
	callq	__ZN14altered_carbon2js10JsValueRefC1Ev
	leaq	55512(%rsp), %rdi
	callq	__ZN14altered_carbon2js10JsValueRefC1Ev
	leaq	55488(%rsp), %rdi
	callq	__ZN14altered_carbon2js10JsValueRefC1Ev
	leaq	55464(%rsp), %rdi
	callq	__ZN14altered_carbon2js10JsValueRefC1Ev
	leaq	55440(%rsp), %rdi
	callq	__ZN14altered_carbon2js10JsValueRefC1Ev
	leaq	55416(%rsp), %rdi
	callq	__ZN14altered_carbon2js10JsValueRefC1Ev
	leaq	55392(%rsp), %rdi
	callq	__ZN14altered_carbon2js10JsValueRefC1Ev
	leaq	55368(%rsp), %rdi
	callq	__ZN14altered_carbon2js10JsValueRefC1Ev
	leaq	55344(%rsp), %rdi
	callq	__ZN14altered_carbon2js10JsValueRefC1Ev
	leaq	55320(%rsp), %rdi
	callq	__ZN14altered_carbon2js10JsValueRefC1Ev
	leaq	55296(%rsp), %rdi
	callq	__ZN14altered_carbon2js10JsValueRefC1Ev
	leaq	55272(%rsp), %rdi
	callq	__ZN14altered_carbon2js10JsValueRefC1Ev
	leaq	55248(%rsp), %rdi
	callq	__ZN14altered_carbon2js10JsValueRefC1Ev
	leaq	55224(%rsp), %rdi
	callq	__ZN14altered_carbon2js10JsValueRefC1Ev
	leaq	55200(%rsp), %rdi
	callq	__ZN14altered_carbon2js10JsValueRefC1Ev
	leaq	55176(%rsp), %rdi
	callq	__ZN14altered_carbon2js10JsValueRefC1Ev
	leaq	55152(%rsp), %rdi
	callq	__ZN14altered_carbon2js10JsValueRefC1Ev
	leaq	55128(%rsp), %rdi
	callq	__ZN14altered_carbon2js10JsValueRefC1Ev
	leaq	55104(%rsp), %rdi
	callq	__ZN14altered_carbon2js10JsValueRefC1Ev
	leaq	55080(%rsp), %rdi
	callq	__ZN14altered_carbon2js10JsValueRefC1Ev
	leaq	55056(%rsp), %rdi
	callq	__ZN14altered_carbon2js10JsValueRefC1Ev
	leaq	55032(%rsp), %rdi
	callq	__ZN14altered_carbon2js10JsValueRefC1Ev
	leaq	55008(%rsp), %rdi
	callq	__ZN14altered_carbon2js10JsValueRefC1Ev
	leaq	54984(%rsp), %rdi
	callq	__ZN14altered_carbon2js10JsValueRefC1Ev
	leaq	54960(%rsp), %rdi
	callq	__ZN14altered_carbon2js10JsValueRefC1Ev
	leaq	54936(%rsp), %rdi
	callq	__ZN14altered_carbon2js10JsValueRefC1Ev
	leaq	54912(%rsp), %rdi
	callq	__ZN14altered_carbon2js10JsValueRefC1Ev
	leaq	54888(%rsp), %rdi
	callq	__ZN14altered_carbon2js10JsValueRefC1Ev
	leaq	54864(%rsp), %rdi
	callq	__ZN14altered_carbon2js10JsValueRefC1Ev
	leaq	54840(%rsp), %rdi
	callq	__ZN14altered_carbon2js10JsValueRefC1Ev
	leaq	54816(%rsp), %rdi
	callq	__ZN14altered_carbon2js10JsValueRefC1Ev
	leaq	54792(%rsp), %rdi
	callq	__ZN14altered_carbon2js10JsValueRefC1Ev
	leaq	54768(%rsp), %rdi
	callq	__ZN14altered_carbon2js10JsValueRefC1Ev
	leaq	54744(%rsp), %rdi
	callq	__ZN14altered_carbon2js10JsValueRefC1Ev
	leaq	54720(%rsp), %rdi
	callq	__ZN14altered_carbon2js10JsValueRefC1Ev
	leaq	54696(%rsp), %rdi
	callq	__ZN14altered_carbon2js10JsValueRefC1Ev
	leaq	54672(%rsp), %rdi
	callq	__ZN14altered_carbon2js10JsValueRefC1Ev
	leaq	54648(%rsp), %rdi
	callq	__ZN14altered_carbon2js10JsValueRefC1Ev
	leaq	54624(%rsp), %rdi
	callq	__ZN14altered_carbon2js10JsValueRefC1Ev
	leaq	54600(%rsp), %rdi
	callq	__ZN14altered_carbon2js10JsValueRefC1Ev
	leaq	54576(%rsp), %rdi
	callq	__ZN14altered_carbon2js10JsValueRefC1Ev
	leaq	54552(%rsp), %rdi
	callq	__ZN14altered_carbon2js10JsValueRefC1Ev
	leaq	54528(%rsp), %rdi
	callq	__ZN14altered_carbon2js10JsValueRefC1Ev
	leaq	54504(%rsp), %rdi
	callq	__ZN14altered_carbon2js10JsValueRefC1Ev
	leaq	54480(%rsp), %rdi
	callq	__ZN14altered_carbon2js10JsValueRefC1Ev
	leaq	54456(%rsp), %rdi
	callq	__ZN14altered_carbon2js10JsValueRefC1Ev
	leaq	54432(%rsp), %rdi
	callq	__ZN14altered_carbon2js10JsValueRefC1Ev
	leaq	54408(%rsp), %rdi
	callq	__ZN14altered_carbon2js10JsValueRefC1Ev
	leaq	54384(%rsp), %rdi
	callq	__ZN14altered_carbon2js10JsValueRefC1Ev
	leaq	54360(%rsp), %rdi
	callq	__ZN14altered_carbon2js10JsValueRefC1Ev
	leaq	54336(%rsp), %rdi
	callq	__ZN14altered_carbon2js10JsValueRefC1Ev
	leaq	54312(%rsp), %rdi
	callq	__ZN14altered_carbon2js10JsValueRefC1Ev
	leaq	54288(%rsp), %rdi
	callq	__ZN14altered_carbon2js10JsValueRefC1Ev
	leaq	54264(%rsp), %rdi
	callq	__ZN14altered_carbon2js10JsValueRefC1Ev
	leaq	54240(%rsp), %rdi
	callq	__ZN14altered_carbon2js10JsValueRefC1Ev
	leaq	54216(%rsp), %rdi
	callq	__ZN14altered_carbon2js10JsValueRefC1Ev
	leaq	54192(%rsp), %rdi
	callq	__ZN14altered_carbon2js10JsValueRefC1Ev
	leaq	54168(%rsp), %rdi
	callq	__ZN14altered_carbon2js10JsValueRefC1Ev
	leaq	54144(%rsp), %rdi
	callq	__ZN14altered_carbon2js10JsValueRefC1Ev
	leaq	54120(%rsp), %rdi
	callq	__ZN14altered_carbon2js10JsValueRefC1Ev
	leaq	54096(%rsp), %rdi
	callq	__ZN14altered_carbon2js10JsValueRefC1Ev
	leaq	54072(%rsp), %rdi
	callq	__ZN14altered_carbon2js10JsValueRefC1Ev
	leaq	54048(%rsp), %rdi
	callq	__ZN14altered_carbon2js10JsValueRefC1Ev
	leaq	54024(%rsp), %rdi
	callq	__ZN14altered_carbon2js10JsValueRefC1Ev
	leaq	54000(%rsp), %rdi
	callq	__ZN14altered_carbon2js10JsValueRefC1Ev
	leaq	53976(%rsp), %rdi
	callq	__ZN14altered_carbon2js10JsValueRefC1Ev
	leaq	53952(%rsp), %rdi
	callq	__ZN14altered_carbon2js10JsValueRefC1Ev
	leaq	53928(%rsp), %rdi
	callq	__ZN14altered_carbon2js10JsValueRefC1Ev
	leaq	53904(%rsp), %rdi
	callq	__ZN14altered_carbon2js10JsValueRefC1Ev
	leaq	53880(%rsp), %rdi
	callq	__ZN14altered_carbon2js10JsValueRefC1Ev
	leaq	53856(%rsp), %rdi
	callq	__ZN14altered_carbon2js10JsValueRefC1Ev
	leaq	53832(%rsp), %rdi
	callq	__ZN14altered_carbon2js10JsValueRefC1Ev
	leaq	53808(%rsp), %rdi
	callq	__ZN14altered_carbon2js10JsValueRefC1Ev
	leaq	53784(%rsp), %rdi
	callq	__ZN14altered_carbon2js10JsValueRefC1Ev
	leaq	53760(%rsp), %rdi
	callq	__ZN14altered_carbon2js10JsValueRefC1Ev
	leaq	53736(%rsp), %rdi
	callq	__ZN14altered_carbon2js10JsValueRefC1Ev
	leaq	53712(%rsp), %rdi
	callq	__ZN14altered_carbon2js10JsValueRefC1Ev
	leaq	53688(%rsp), %rdi
	callq	__ZN14altered_carbon2js10JsValueRefC1Ev
	leaq	53664(%rsp), %rdi
	callq	__ZN14altered_carbon2js10JsValueRefC1Ev
	leaq	53640(%rsp), %rdi
	callq	__ZN14altered_carbon2js10JsValueRefC1Ev
	leaq	53616(%rsp), %rdi
	callq	__ZN14altered_carbon2js10JsValueRefC1Ev
	leaq	53592(%rsp), %rdi
	callq	__ZN14altered_carbon2js10JsValueRefC1Ev
	leaq	53568(%rsp), %rdi
	callq	__ZN14altered_carbon2js10JsValueRefC1Ev
	leaq	53544(%rsp), %rdi
	callq	__ZN14altered_carbon2js10JsValueRefC1Ev
	leaq	53520(%rsp), %rdi
	callq	__ZN14altered_carbon2js10JsValueRefC1Ev
	leaq	53496(%rsp), %rdi
	callq	__ZN14altered_carbon2js10JsValueRefC1Ev
	leaq	53472(%rsp), %rdi
	callq	__ZN14altered_carbon2js10JsValueRefC1Ev
	leaq	53448(%rsp), %rdi
	callq	__ZN14altered_carbon2js10JsValueRefC1Ev
	leaq	53424(%rsp), %rdi
	callq	__ZN14altered_carbon2js10JsValueRefC1Ev
	leaq	53400(%rsp), %rdi
	callq	__ZN14altered_carbon2js10JsValueRefC1Ev
	leaq	53376(%rsp), %rdi
	callq	__ZN14altered_carbon2js10JsValueRefC1Ev
	leaq	53352(%rsp), %rdi
	callq	__ZN14altered_carbon2js10JsValueRefC1Ev
	leaq	53328(%rsp), %rdi
	callq	__ZN14altered_carbon2js10JsValueRefC1Ev
	leaq	53304(%rsp), %rdi
	callq	__ZN14altered_carbon2js10JsValueRefC1Ev
	leaq	53280(%rsp), %rdi
	callq	__ZN14altered_carbon2js10JsValueRefC1Ev
	leaq	53256(%rsp), %rdi
	callq	__ZN14altered_carbon2js10JsValueRefC1Ev
	leaq	53232(%rsp), %rdi
	callq	__ZN14altered_carbon2js10JsValueRefC1Ev
	leaq	53208(%rsp), %rdi
	callq	__ZN14altered_carbon2js10JsValueRefC1Ev
	leaq	53184(%rsp), %rdi
	callq	__ZN14altered_carbon2js10JsValueRefC1Ev
	leaq	53160(%rsp), %rdi
	callq	__ZN14altered_carbon2js10JsValueRefC1Ev
	leaq	53136(%rsp), %rdi
	callq	__ZN14altered_carbon2js10JsValueRefC1Ev
	leaq	53112(%rsp), %rdi
	callq	__ZN14altered_carbon2js10JsValueRefC1Ev
	leaq	53088(%rsp), %rdi
	callq	__ZN14altered_carbon2js10JsValueRefC1Ev
	leaq	53064(%rsp), %rdi
	callq	__ZN14altered_carbon2js10JsValueRefC1Ev
	leaq	53040(%rsp), %rdi
	callq	__ZN14altered_carbon2js10JsValueRefC1Ev
	leaq	53016(%rsp), %rdi
	callq	__ZN14altered_carbon2js10JsValueRefC1Ev
	leaq	52992(%rsp), %rdi
	callq	__ZN14altered_carbon2js10JsValueRefC1Ev
	leaq	52968(%rsp), %rdi
	callq	__ZN14altered_carbon2js10JsValueRefC1Ev
	leaq	52944(%rsp), %rdi
	callq	__ZN14altered_carbon2js10JsValueRefC1Ev
	leaq	52920(%rsp), %rdi
	callq	__ZN14altered_carbon2js10JsValueRefC1Ev
	leaq	52896(%rsp), %rdi
	callq	__ZN14altered_carbon2js10JsValueRefC1Ev
	leaq	52872(%rsp), %rdi
	callq	__ZN14altered_carbon2js10JsValueRefC1Ev
	leaq	52848(%rsp), %rdi
	callq	__ZN14altered_carbon2js10JsValueRefC1Ev
	leaq	52824(%rsp), %rdi
	callq	__ZN14altered_carbon2js10JsValueRefC1Ev
	leaq	52800(%rsp), %rdi
	callq	__ZN14altered_carbon2js10JsValueRefC1Ev
	leaq	52776(%rsp), %rdi
	callq	__ZN14altered_carbon2js10JsValueRefC1Ev
	leaq	52752(%rsp), %rdi
	callq	__ZN14altered_carbon2js10JsValueRefC1Ev
	leaq	52728(%rsp), %rdi
	callq	__ZN14altered_carbon2js10JsValueRefC1Ev
	leaq	52704(%rsp), %rdi
	callq	__ZN14altered_carbon2js10JsValueRefC1Ev
	leaq	52680(%rsp), %rdi
	callq	__ZN14altered_carbon2js10JsValueRefC1Ev
	leaq	52656(%rsp), %rdi
	callq	__ZN14altered_carbon2js10JsValueRefC1Ev
	leaq	52632(%rsp), %rdi
	callq	__ZN14altered_carbon2js10JsValueRefC1Ev
	leaq	52608(%rsp), %rdi
	callq	__ZN14altered_carbon2js10JsValueRefC1Ev
	leaq	52584(%rsp), %rdi
	callq	__ZN14altered_carbon2js10JsValueRefC1Ev
	leaq	52560(%rsp), %rdi
	callq	__ZN14altered_carbon2js10JsValueRefC1Ev
	leaq	52536(%rsp), %rdi
	callq	__ZN14altered_carbon2js10JsValueRefC1Ev
	leaq	52512(%rsp), %rdi
	callq	__ZN14altered_carbon2js10JsValueRefC1Ev
	leaq	52488(%rsp), %rdi
	callq	__ZN14altered_carbon2js10JsValueRefC1Ev
	leaq	52464(%rsp), %rdi
	callq	__ZN14altered_carbon2js10JsValueRefC1Ev
	leaq	52440(%rsp), %rdi
	callq	__ZN14altered_carbon2js10JsValueRefC1Ev
	leaq	52416(%rsp), %rdi
	callq	__ZN14altered_carbon2js10JsValueRefC1Ev
	leaq	52392(%rsp), %rdi
	callq	__ZN14altered_carbon2js10JsValueRefC1Ev
	leaq	52368(%rsp), %rdi
	callq	__ZN14altered_carbon2js10JsValueRefC1Ev
	leaq	52344(%rsp), %rdi
	callq	__ZN14altered_carbon2js10JsValueRefC1Ev
	leaq	52320(%rsp), %rdi
	callq	__ZN14altered_carbon2js10JsValueRefC1Ev
	leaq	52296(%rsp), %rdi
	callq	__ZN14altered_carbon2js10JsValueRefC1Ev
	leaq	52272(%rsp), %rdi
	callq	__ZN14altered_carbon2js10JsValueRefC1Ev
	leaq	52248(%rsp), %rdi
	callq	__ZN14altered_carbon2js10JsValueRefC1Ev
	leaq	52224(%rsp), %rdi
	callq	__ZN14altered_carbon2js10JsValueRefC1Ev
	leaq	52200(%rsp), %rdi
	callq	__ZN14altered_carbon2js10JsValueRefC1Ev
	leaq	52176(%rsp), %rdi
	callq	__ZN14altered_carbon2js10JsValueRefC1Ev
	leaq	52152(%rsp), %rdi
	callq	__ZN14altered_carbon2js10JsValueRefC1Ev
	leaq	52128(%rsp), %rdi
	callq	__ZN14altered_carbon2js10JsValueRefC1Ev
	leaq	52104(%rsp), %rdi
	callq	__ZN14altered_carbon2js10JsValueRefC1Ev
	leaq	52080(%rsp), %rdi
	callq	__ZN14altered_carbon2js10JsValueRefC1Ev
	leaq	52056(%rsp), %rdi
	callq	__ZN14altered_carbon2js10JsValueRefC1Ev
	leaq	52032(%rsp), %rdi
	callq	__ZN14altered_carbon2js10JsValueRefC1Ev
	leaq	52008(%rsp), %rdi
	callq	__ZN14altered_carbon2js10JsValueRefC1Ev
	leaq	51984(%rsp), %rdi
	callq	__ZN14altered_carbon2js10JsValueRefC1Ev
	leaq	51960(%rsp), %rdi
	callq	__ZN14altered_carbon2js10JsValueRefC1Ev
	leaq	51936(%rsp), %rdi
	callq	__ZN14altered_carbon2js10JsValueRefC1Ev
	leaq	51912(%rsp), %rdi
	callq	__ZN14altered_carbon2js10JsValueRefC1Ev
	leaq	51888(%rsp), %rdi
	callq	__ZN14altered_carbon2js10JsValueRefC1Ev
	leaq	51864(%rsp), %rdi
	callq	__ZN14altered_carbon2js10JsValueRefC1Ev
	leaq	51840(%rsp), %rdi
	callq	__ZN14altered_carbon2js10JsValueRefC1Ev
	leaq	51816(%rsp), %rdi
	callq	__ZN14altered_carbon2js10JsValueRefC1Ev
	leaq	51792(%rsp), %rdi
	callq	__ZN14altered_carbon2js10JsValueRefC1Ev
	leaq	51768(%rsp), %rdi
	callq	__ZN14altered_carbon2js10JsValueRefC1Ev
	leaq	51744(%rsp), %rdi
	callq	__ZN14altered_carbon2js10JsValueRefC1Ev
	leaq	51720(%rsp), %rdi
	callq	__ZN14altered_carbon2js10JsValueRefC1Ev
	leaq	51696(%rsp), %rdi
	callq	__ZN14altered_carbon2js10JsValueRefC1Ev
	leaq	51672(%rsp), %rdi
	callq	__ZN14altered_carbon2js10JsValueRefC1Ev
	leaq	51648(%rsp), %rdi
	callq	__ZN14altered_carbon2js10JsValueRefC1Ev
	leaq	51624(%rsp), %rdi
	callq	__ZN14altered_carbon2js10JsValueRefC1Ev
	leaq	51600(%rsp), %rdi
	callq	__ZN14altered_carbon2js10JsValueRefC1Ev
	leaq	51576(%rsp), %rdi
	callq	__ZN14altered_carbon2js10JsValueRefC1Ev
	leaq	51552(%rsp), %rdi
	callq	__ZN14altered_carbon2js10JsValueRefC1Ev
	leaq	51528(%rsp), %rdi
	callq	__ZN14altered_carbon2js10JsValueRefC1Ev
	leaq	51504(%rsp), %rdi
	callq	__ZN14altered_carbon2js10JsValueRefC1Ev
	leaq	51480(%rsp), %rdi
	callq	__ZN14altered_carbon2js10JsValueRefC1Ev
	leaq	51456(%rsp), %rdi
	callq	__ZN14altered_carbon2js10JsValueRefC1Ev
	leaq	51432(%rsp), %rdi
	callq	__ZN14altered_carbon2js10JsValueRefC1Ev
	leaq	51408(%rsp), %rdi
	callq	__ZN14altered_carbon2js10JsValueRefC1Ev
	leaq	51384(%rsp), %rdi
	callq	__ZN14altered_carbon2js10JsValueRefC1Ev
	leaq	51360(%rsp), %rdi
	callq	__ZN14altered_carbon2js10JsValueRefC1Ev
	leaq	51336(%rsp), %rdi
	callq	__ZN14altered_carbon2js10JsValueRefC1Ev
	leaq	51312(%rsp), %rdi
	callq	__ZN14altered_carbon2js10JsValueRefC1Ev
	leaq	51288(%rsp), %rdi
	callq	__ZN14altered_carbon2js10JsValueRefC1Ev
	leaq	51264(%rsp), %rdi
	callq	__ZN14altered_carbon2js10JsValueRefC1Ev
	leaq	51240(%rsp), %rdi
	callq	__ZN14altered_carbon2js10JsValueRefC1Ev
	leaq	51216(%rsp), %rdi
	callq	__ZN14altered_carbon2js10JsValueRefC1Ev
	leaq	51192(%rsp), %rdi
	callq	__ZN14altered_carbon2js10JsValueRefC1Ev
	leaq	51168(%rsp), %rdi
	callq	__ZN14altered_carbon2js10JsValueRefC1Ev
	leaq	51144(%rsp), %rdi
	callq	__ZN14altered_carbon2js10JsValueRefC1Ev
	leaq	51120(%rsp), %rdi
	callq	__ZN14altered_carbon2js10JsValueRefC1Ev
	leaq	51096(%rsp), %rdi
	callq	__ZN14altered_carbon2js10JsValueRefC1Ev
	leaq	51072(%rsp), %rdi
	callq	__ZN14altered_carbon2js10JsValueRefC1Ev
	leaq	51048(%rsp), %rdi
	callq	__ZN14altered_carbon2js10JsValueRefC1Ev
	leaq	51024(%rsp), %rdi
	callq	__ZN14altered_carbon2js10JsValueRefC1Ev
	leaq	51000(%rsp), %rdi
	callq	__ZN14altered_carbon2js10JsValueRefC1Ev
	leaq	50976(%rsp), %rdi
	callq	__ZN14altered_carbon2js10JsValueRefC1Ev
	leaq	50952(%rsp), %rdi
	callq	__ZN14altered_carbon2js10JsValueRefC1Ev
	leaq	50928(%rsp), %rdi
	callq	__ZN14altered_carbon2js10JsValueRefC1Ev
	leaq	50904(%rsp), %rdi
	callq	__ZN14altered_carbon2js10JsValueRefC1Ev
	leaq	50880(%rsp), %rdi
	callq	__ZN14altered_carbon2js10JsValueRefC1Ev
	leaq	50856(%rsp), %rdi
	callq	__ZN14altered_carbon2js10JsValueRefC1Ev
	leaq	50832(%rsp), %rdi
	callq	__ZN14altered_carbon2js10JsValueRefC1Ev
	leaq	50808(%rsp), %rdi
	callq	__ZN14altered_carbon2js10JsValueRefC1Ev
	leaq	50784(%rsp), %rdi
	callq	__ZN14altered_carbon2js10JsValueRefC1Ev
	leaq	50760(%rsp), %rdi
	callq	__ZN14altered_carbon2js10JsValueRefC1Ev
	leaq	50736(%rsp), %rdi
	callq	__ZN14altered_carbon2js10JsValueRefC1Ev
	leaq	50712(%rsp), %rdi
	callq	__ZN14altered_carbon2js10JsValueRefC1Ev
	leaq	50688(%rsp), %rdi
	callq	__ZN14altered_carbon2js10JsValueRefC1Ev
	leaq	50664(%rsp), %rdi
	callq	__ZN14altered_carbon2js10JsValueRefC1Ev
	leaq	50640(%rsp), %rdi
	callq	__ZN14altered_carbon2js10JsValueRefC1Ev
	leaq	50616(%rsp), %rdi
	callq	__ZN14altered_carbon2js10JsValueRefC1Ev
	leaq	50592(%rsp), %rdi
	callq	__ZN14altered_carbon2js10JsValueRefC1Ev
	leaq	50568(%rsp), %rdi
	callq	__ZN14altered_carbon2js10JsValueRefC1Ev
	leaq	50544(%rsp), %rdi
	callq	__ZN14altered_carbon2js10JsValueRefC1Ev
	leaq	50520(%rsp), %rdi
	callq	__ZN14altered_carbon2js10JsValueRefC1Ev
	leaq	50496(%rsp), %rdi
	callq	__ZN14altered_carbon2js10JsValueRefC1Ev
	leaq	50472(%rsp), %rdi
	callq	__ZN14altered_carbon2js10JsValueRefC1Ev
	leaq	50448(%rsp), %rdi
	callq	__ZN14altered_carbon2js10JsValueRefC1Ev
	leaq	50424(%rsp), %rdi
	callq	__ZN14altered_carbon2js10JsValueRefC1Ev
	leaq	50400(%rsp), %rdi
	callq	__ZN14altered_carbon2js10JsValueRefC1Ev
	leaq	50376(%rsp), %rdi
	callq	__ZN14altered_carbon2js10JsValueRefC1Ev
	leaq	50352(%rsp), %rdi
	callq	__ZN14altered_carbon2js10JsValueRefC1Ev
	leaq	50328(%rsp), %rdi
	callq	__ZN14altered_carbon2js10JsValueRefC1Ev
	leaq	50304(%rsp), %rdi
	callq	__ZN14altered_carbon2js10JsValueRefC1Ev
	leaq	50280(%rsp), %rdi
	callq	__ZN14altered_carbon2js10JsValueRefC1Ev
	leaq	50256(%rsp), %rdi
	callq	__ZN14altered_carbon2js10JsValueRefC1Ev
	leaq	50232(%rsp), %rdi
	callq	__ZN14altered_carbon2js10JsValueRefC1Ev
	leaq	50208(%rsp), %rdi
	callq	__ZN14altered_carbon2js10JsValueRefC1Ev
	leaq	50184(%rsp), %rdi
	callq	__ZN14altered_carbon2js10JsValueRefC1Ev
	leaq	50160(%rsp), %rdi
	callq	__ZN14altered_carbon2js10JsValueRefC1Ev
	leaq	50136(%rsp), %rdi
	callq	__ZN14altered_carbon2js10JsValueRefC1Ev
	leaq	50112(%rsp), %rdi
	callq	__ZN14altered_carbon2js10JsValueRefC1Ev
	leaq	50088(%rsp), %rdi
	callq	__ZN14altered_carbon2js10JsValueRefC1Ev
	leaq	50064(%rsp), %rdi
	callq	__ZN14altered_carbon2js10JsValueRefC1Ev
	leaq	50040(%rsp), %rdi
	callq	__ZN14altered_carbon2js10JsValueRefC1Ev
	leaq	50016(%rsp), %rdi
	callq	__ZN14altered_carbon2js10JsValueRefC1Ev
	leaq	49992(%rsp), %rdi
	callq	__ZN14altered_carbon2js10JsValueRefC1Ev
	leaq	49968(%rsp), %rdi
	callq	__ZN14altered_carbon2js10JsValueRefC1Ev
	leaq	49944(%rsp), %rdi
	callq	__ZN14altered_carbon2js10JsValueRefC1Ev
	leaq	49920(%rsp), %rdi
	callq	__ZN14altered_carbon2js10JsValueRefC1Ev
	leaq	49896(%rsp), %rdi
	callq	__ZN14altered_carbon2js10JsValueRefC1Ev
	leaq	49872(%rsp), %rdi
	callq	__ZN14altered_carbon2js10JsValueRefC1Ev
	leaq	49848(%rsp), %rdi
	callq	__ZN14altered_carbon2js10JsValueRefC1Ev
	leaq	49824(%rsp), %rdi
	callq	__ZN14altered_carbon2js10JsValueRefC1Ev
	leaq	49800(%rsp), %rdi
	callq	__ZN14altered_carbon2js10JsValueRefC1Ev
	leaq	49776(%rsp), %rdi
	callq	__ZN14altered_carbon2js10JsValueRefC1Ev
	leaq	49752(%rsp), %rdi
	callq	__ZN14altered_carbon2js10JsValueRefC1Ev
	leaq	49728(%rsp), %rdi
	callq	__ZN14altered_carbon2js10JsValueRefC1Ev
	leaq	49704(%rsp), %rdi
	callq	__ZN14altered_carbon2js10JsValueRefC1Ev
	leaq	49680(%rsp), %rdi
	callq	__ZN14altered_carbon2js10JsValueRefC1Ev
	leaq	49656(%rsp), %rdi
	callq	__ZN14altered_carbon2js10JsValueRefC1Ev
	leaq	49632(%rsp), %rdi
	callq	__ZN14altered_carbon2js10JsValueRefC1Ev
	leaq	49608(%rsp), %rdi
	callq	__ZN14altered_carbon2js10JsValueRefC1Ev
	leaq	49584(%rsp), %rdi
	callq	__ZN14altered_carbon2js10JsValueRefC1Ev
	leaq	49560(%rsp), %rdi
	callq	__ZN14altered_carbon2js10JsValueRefC1Ev
	leaq	49536(%rsp), %rdi
	callq	__ZN14altered_carbon2js10JsValueRefC1Ev
	leaq	49512(%rsp), %rdi
	callq	__ZN14altered_carbon2js10JsValueRefC1Ev
	leaq	49488(%rsp), %rdi
	callq	__ZN14altered_carbon2js10JsValueRefC1Ev
	leaq	49464(%rsp), %rdi
	callq	__ZN14altered_carbon2js10JsValueRefC1Ev
	leaq	49440(%rsp), %rdi
	callq	__ZN14altered_carbon2js10JsValueRefC1Ev
	leaq	49416(%rsp), %rdi
	callq	__ZN14altered_carbon2js10JsValueRefC1Ev
	leaq	49392(%rsp), %rdi
	callq	__ZN14altered_carbon2js10JsValueRefC1Ev
	leaq	49368(%rsp), %rdi
	callq	__ZN14altered_carbon2js10JsValueRefC1Ev
	leaq	49344(%rsp), %rdi
	callq	__ZN14altered_carbon2js10JsValueRefC1Ev
	leaq	49320(%rsp), %rdi
	callq	__ZN14altered_carbon2js10JsValueRefC1Ev
	leaq	49296(%rsp), %rdi
	callq	__ZN14altered_carbon2js10JsValueRefC1Ev
	leaq	49272(%rsp), %rdi
	callq	__ZN14altered_carbon2js10JsValueRefC1Ev
	leaq	49248(%rsp), %rdi
	callq	__ZN14altered_carbon2js10JsValueRefC1Ev
	leaq	49224(%rsp), %rdi
	callq	__ZN14altered_carbon2js10JsValueRefC1Ev
	leaq	49200(%rsp), %rdi
	callq	__ZN14altered_carbon2js10JsValueRefC1Ev
	leaq	49176(%rsp), %rdi
	callq	__ZN14altered_carbon2js10JsValueRefC1Ev
	leaq	49152(%rsp), %rdi
	callq	__ZN14altered_carbon2js10JsValueRefC1Ev
	leaq	49128(%rsp), %rdi
	callq	__ZN14altered_carbon2js10JsValueRefC1Ev
	leaq	49104(%rsp), %rdi
	callq	__ZN14altered_carbon2js10JsValueRefC1Ev
	leaq	49080(%rsp), %rdi
	callq	__ZN14altered_carbon2js10JsValueRefC1Ev
	leaq	49056(%rsp), %rdi
	callq	__ZN14altered_carbon2js10JsValueRefC1Ev
	leaq	49032(%rsp), %rdi
	callq	__ZN14altered_carbon2js10JsValueRefC1Ev
	leaq	49008(%rsp), %rdi
	callq	__ZN14altered_carbon2js10JsValueRefC1Ev
	leaq	48984(%rsp), %rdi
	callq	__ZN14altered_carbon2js10JsValueRefC1Ev
	leaq	48960(%rsp), %rdi
	callq	__ZN14altered_carbon2js10JsValueRefC1Ev
	leaq	48936(%rsp), %rdi
	callq	__ZN14altered_carbon2js10JsValueRefC1Ev
	leaq	48912(%rsp), %rdi
	callq	__ZN14altered_carbon2js10JsValueRefC1Ev
	leaq	48888(%rsp), %rdi
	callq	__ZN14altered_carbon2js10JsValueRefC1Ev
	leaq	48864(%rsp), %rdi
	callq	__ZN14altered_carbon2js10JsValueRefC1Ev
	leaq	48840(%rsp), %rdi
	callq	__ZN14altered_carbon2js10JsValueRefC1Ev
	leaq	48816(%rsp), %rdi
	callq	__ZN14altered_carbon2js10JsValueRefC1Ev
	leaq	48792(%rsp), %rdi
	callq	__ZN14altered_carbon2js10JsValueRefC1Ev
	leaq	48768(%rsp), %rdi
	callq	__ZN14altered_carbon2js10JsValueRefC1Ev
	leaq	48744(%rsp), %rdi
	callq	__ZN14altered_carbon2js10JsValueRefC1Ev
	leaq	48720(%rsp), %rdi
	callq	__ZN14altered_carbon2js10JsValueRefC1Ev
	leaq	48696(%rsp), %rdi
	callq	__ZN14altered_carbon2js10JsValueRefC1Ev
	leaq	48672(%rsp), %rdi
	callq	__ZN14altered_carbon2js10JsValueRefC1Ev
	leaq	48648(%rsp), %rdi
	callq	__ZN14altered_carbon2js10JsValueRefC1Ev
	leaq	48624(%rsp), %rdi
	callq	__ZN14altered_carbon2js10JsValueRefC1Ev
	leaq	48600(%rsp), %rdi
	callq	__ZN14altered_carbon2js10JsValueRefC1Ev
	leaq	48576(%rsp), %rdi
	callq	__ZN14altered_carbon2js10JsValueRefC1Ev
	leaq	48552(%rsp), %rdi
	callq	__ZN14altered_carbon2js10JsValueRefC1Ev
	leaq	48528(%rsp), %rdi
	callq	__ZN14altered_carbon2js10JsValueRefC1Ev
	leaq	48504(%rsp), %rdi
	callq	__ZN14altered_carbon2js10JsValueRefC1Ev
	leaq	48480(%rsp), %rdi
	callq	__ZN14altered_carbon2js10JsValueRefC1Ev
	leaq	48456(%rsp), %rdi
	callq	__ZN14altered_carbon2js10JsValueRefC1Ev
	leaq	48432(%rsp), %rdi
	callq	__ZN14altered_carbon2js10JsValueRefC1Ev
	leaq	48408(%rsp), %rdi
	callq	__ZN14altered_carbon2js10JsValueRefC1Ev
	leaq	48384(%rsp), %rdi
	callq	__ZN14altered_carbon2js10JsValueRefC1Ev
	leaq	48360(%rsp), %rdi
	callq	__ZN14altered_carbon2js10JsValueRefC1Ev
	leaq	48336(%rsp), %rdi
	callq	__ZN14altered_carbon2js10JsValueRefC1Ev
	leaq	48312(%rsp), %rdi
	callq	__ZN14altered_carbon2js10JsValueRefC1Ev
	leaq	48288(%rsp), %rdi
	callq	__ZN14altered_carbon2js10JsValueRefC1Ev
	leaq	48264(%rsp), %rdi
	callq	__ZN14altered_carbon2js10JsValueRefC1Ev
	leaq	48240(%rsp), %rdi
	callq	__ZN14altered_carbon2js10JsValueRefC1Ev
	leaq	48216(%rsp), %rdi
	callq	__ZN14altered_carbon2js10JsValueRefC1Ev
	leaq	48192(%rsp), %rdi
	callq	__ZN14altered_carbon2js10JsValueRefC1Ev
	leaq	48168(%rsp), %rdi
	callq	__ZN14altered_carbon2js10JsValueRefC1Ev
	leaq	48144(%rsp), %rdi
	callq	__ZN14altered_carbon2js10JsValueRefC1Ev
	leaq	48120(%rsp), %rdi
	callq	__ZN14altered_carbon2js10JsValueRefC1Ev
	leaq	48096(%rsp), %rdi
	callq	__ZN14altered_carbon2js10JsValueRefC1Ev
	leaq	48072(%rsp), %rdi
	callq	__ZN14altered_carbon2js10JsValueRefC1Ev
	leaq	48048(%rsp), %rdi
	callq	__ZN14altered_carbon2js10JsValueRefC1Ev
	leaq	48024(%rsp), %rdi
	callq	__ZN14altered_carbon2js10JsValueRefC1Ev
	leaq	48000(%rsp), %rdi
	callq	__ZN14altered_carbon2js10JsValueRefC1Ev
	leaq	47976(%rsp), %rdi
	callq	__ZN14altered_carbon2js10JsValueRefC1Ev
	leaq	47952(%rsp), %rdi
	callq	__ZN14altered_carbon2js10JsValueRefC1Ev
	leaq	47928(%rsp), %rdi
	callq	__ZN14altered_carbon2js10JsValueRefC1Ev
	leaq	47904(%rsp), %rdi
	callq	__ZN14altered_carbon2js10JsValueRefC1Ev
	leaq	47880(%rsp), %rdi
	callq	__ZN14altered_carbon2js10JsValueRefC1Ev
	leaq	47856(%rsp), %rdi
	callq	__ZN14altered_carbon2js10JsValueRefC1Ev
	leaq	47832(%rsp), %rdi
	callq	__ZN14altered_carbon2js10JsValueRefC1Ev
	leaq	47808(%rsp), %rdi
	callq	__ZN14altered_carbon2js10JsValueRefC1Ev
	leaq	47784(%rsp), %rdi
	callq	__ZN14altered_carbon2js10JsValueRefC1Ev
	leaq	47760(%rsp), %rdi
	callq	__ZN14altered_carbon2js10JsValueRefC1Ev
	leaq	47736(%rsp), %rdi
	callq	__ZN14altered_carbon2js10JsValueRefC1Ev
	leaq	47712(%rsp), %rdi
	callq	__ZN14altered_carbon2js10JsValueRefC1Ev
	leaq	47688(%rsp), %rdi
	callq	__ZN14altered_carbon2js10JsValueRefC1Ev
	leaq	47664(%rsp), %rdi
	callq	__ZN14altered_carbon2js10JsValueRefC1Ev
	leaq	47640(%rsp), %rdi
	callq	__ZN14altered_carbon2js10JsValueRefC1Ev
	leaq	47616(%rsp), %rdi
	callq	__ZN14altered_carbon2js10JsValueRefC1Ev
	leaq	47592(%rsp), %rdi
	callq	__ZN14altered_carbon2js10JsValueRefC1Ev
	leaq	47568(%rsp), %rdi
	callq	__ZN14altered_carbon2js10JsValueRefC1Ev
	leaq	47544(%rsp), %rdi
	callq	__ZN14altered_carbon2js10JsValueRefC1Ev
	leaq	47520(%rsp), %rdi
	callq	__ZN14altered_carbon2js10JsValueRefC1Ev
	leaq	47496(%rsp), %rdi
	callq	__ZN14altered_carbon2js10JsValueRefC1Ev
	leaq	47472(%rsp), %rdi
	callq	__ZN14altered_carbon2js10JsValueRefC1Ev
	leaq	47448(%rsp), %rdi
	callq	__ZN14altered_carbon2js10JsValueRefC1Ev
	leaq	47424(%rsp), %rdi
	callq	__ZN14altered_carbon2js10JsValueRefC1Ev
	leaq	47400(%rsp), %rdi
	callq	__ZN14altered_carbon2js10JsValueRefC1Ev
	leaq	47376(%rsp), %rdi
	callq	__ZN14altered_carbon2js10JsValueRefC1Ev
	leaq	47352(%rsp), %rdi
	callq	__ZN14altered_carbon2js10JsValueRefC1Ev
	leaq	47328(%rsp), %rdi
	callq	__ZN14altered_carbon2js10JsValueRefC1Ev
	leaq	47304(%rsp), %rdi
	callq	__ZN14altered_carbon2js10JsValueRefC1Ev
	leaq	47280(%rsp), %rdi
	callq	__ZN14altered_carbon2js10JsValueRefC1Ev
	leaq	47256(%rsp), %rdi
	callq	__ZN14altered_carbon2js10JsValueRefC1Ev
	leaq	47232(%rsp), %rdi
	callq	__ZN14altered_carbon2js10JsValueRefC1Ev
	leaq	47208(%rsp), %rdi
	callq	__ZN14altered_carbon2js10JsValueRefC1Ev
	leaq	47184(%rsp), %rdi
	callq	__ZN14altered_carbon2js10JsValueRefC1Ev
	leaq	47160(%rsp), %rdi
	callq	__ZN14altered_carbon2js10JsValueRefC1Ev
	leaq	47136(%rsp), %rdi
	callq	__ZN14altered_carbon2js10JsValueRefC1Ev
	leaq	47112(%rsp), %rdi
	callq	__ZN14altered_carbon2js10JsValueRefC1Ev
	leaq	47088(%rsp), %rdi
	callq	__ZN14altered_carbon2js10JsValueRefC1Ev
	leaq	47064(%rsp), %rdi
	callq	__ZN14altered_carbon2js10JsValueRefC1Ev
	leaq	47040(%rsp), %rdi
	callq	__ZN14altered_carbon2js10JsValueRefC1Ev
	leaq	47016(%rsp), %rdi
	callq	__ZN14altered_carbon2js10JsValueRefC1Ev
	leaq	46992(%rsp), %rdi
	callq	__ZN14altered_carbon2js10JsValueRefC1Ev
	leaq	46968(%rsp), %rdi
	callq	__ZN14altered_carbon2js10JsValueRefC1Ev
	leaq	46944(%rsp), %rdi
	callq	__ZN14altered_carbon2js10JsValueRefC1Ev
	leaq	46920(%rsp), %rdi
	callq	__ZN14altered_carbon2js10JsValueRefC1Ev
	leaq	46896(%rsp), %rdi
	callq	__ZN14altered_carbon2js10JsValueRefC1Ev
	leaq	46872(%rsp), %rdi
	callq	__ZN14altered_carbon2js10JsValueRefC1Ev
	leaq	46848(%rsp), %rdi
	callq	__ZN14altered_carbon2js10JsValueRefC1Ev
	leaq	46824(%rsp), %rdi
	callq	__ZN14altered_carbon2js10JsValueRefC1Ev
	leaq	46800(%rsp), %rdi
	callq	__ZN14altered_carbon2js10JsValueRefC1Ev
	leaq	46776(%rsp), %rdi
	callq	__ZN14altered_carbon2js10JsValueRefC1Ev
	leaq	46752(%rsp), %rdi
	callq	__ZN14altered_carbon2js10JsValueRefC1Ev
	leaq	46728(%rsp), %rdi
	callq	__ZN14altered_carbon2js10JsValueRefC1Ev
	leaq	46704(%rsp), %rdi
	callq	__ZN14altered_carbon2js10JsValueRefC1Ev
	leaq	46680(%rsp), %rdi
	callq	__ZN14altered_carbon2js10JsValueRefC1Ev
	leaq	46656(%rsp), %rdi
	callq	__ZN14altered_carbon2js10JsValueRefC1Ev
	leaq	46632(%rsp), %rdi
	callq	__ZN14altered_carbon2js10JsValueRefC1Ev
	leaq	46608(%rsp), %rdi
	callq	__ZN14altered_carbon2js10JsValueRefC1Ev
	leaq	46584(%rsp), %rdi
	callq	__ZN14altered_carbon2js10JsValueRefC1Ev
	leaq	46560(%rsp), %rdi
	callq	__ZN14altered_carbon2js10JsValueRefC1Ev
	leaq	46536(%rsp), %rdi
	callq	__ZN14altered_carbon2js10JsValueRefC1Ev
	leaq	46512(%rsp), %rdi
	callq	__ZN14altered_carbon2js10JsValueRefC1Ev
	leaq	46488(%rsp), %rdi
	callq	__ZN14altered_carbon2js10JsValueRefC1Ev
	leaq	46464(%rsp), %rdi
	callq	__ZN14altered_carbon2js10JsValueRefC1Ev
	leaq	46440(%rsp), %rdi
	callq	__ZN14altered_carbon2js10JsValueRefC1Ev
	leaq	46416(%rsp), %rdi
	callq	__ZN14altered_carbon2js10JsValueRefC1Ev
	leaq	46392(%rsp), %rdi
	callq	__ZN14altered_carbon2js10JsValueRefC1Ev
	leaq	46368(%rsp), %rdi
	callq	__ZN14altered_carbon2js10JsValueRefC1Ev
	leaq	46344(%rsp), %rdi
	callq	__ZN14altered_carbon2js10JsValueRefC1Ev
	leaq	46320(%rsp), %rdi
	callq	__ZN14altered_carbon2js10JsValueRefC1Ev
	leaq	46296(%rsp), %rdi
	callq	__ZN14altered_carbon2js10JsValueRefC1Ev
	leaq	46272(%rsp), %rdi
	callq	__ZN14altered_carbon2js10JsValueRefC1Ev
	leaq	46248(%rsp), %rdi
	callq	__ZN14altered_carbon2js10JsValueRefC1Ev
	leaq	46224(%rsp), %rdi
	callq	__ZN14altered_carbon2js10JsValueRefC1Ev
	leaq	46200(%rsp), %rdi
	callq	__ZN14altered_carbon2js10JsValueRefC1Ev
	leaq	46176(%rsp), %rdi
	callq	__ZN14altered_carbon2js10JsValueRefC1Ev
	leaq	46152(%rsp), %rdi
	callq	__ZN14altered_carbon2js10JsValueRefC1Ev
	leaq	46128(%rsp), %rdi
	callq	__ZN14altered_carbon2js10JsValueRefC1Ev
	leaq	46104(%rsp), %rdi
	callq	__ZN14altered_carbon2js10JsValueRefC1Ev
	leaq	46080(%rsp), %rdi
	callq	__ZN14altered_carbon2js10JsValueRefC1Ev
	leaq	46056(%rsp), %rdi
	callq	__ZN14altered_carbon2js10JsValueRefC1Ev
	leaq	46032(%rsp), %rdi
	callq	__ZN14altered_carbon2js10JsValueRefC1Ev
	leaq	46008(%rsp), %rdi
	callq	__ZN14altered_carbon2js10JsValueRefC1Ev
	leaq	45984(%rsp), %rdi
	callq	__ZN14altered_carbon2js10JsValueRefC1Ev
	leaq	45960(%rsp), %rdi
	callq	__ZN14altered_carbon2js10JsValueRefC1Ev
	leaq	45936(%rsp), %rdi
	callq	__ZN14altered_carbon2js10JsValueRefC1Ev
	leaq	45912(%rsp), %rdi
	callq	__ZN14altered_carbon2js10JsValueRefC1Ev
	leaq	45888(%rsp), %rdi
	callq	__ZN14altered_carbon2js10JsValueRefC1Ev
	leaq	45864(%rsp), %rdi
	callq	__ZN14altered_carbon2js10JsValueRefC1Ev
	leaq	45840(%rsp), %rdi
	callq	__ZN14altered_carbon2js10JsValueRefC1Ev
	leaq	45816(%rsp), %rdi
	callq	__ZN14altered_carbon2js10JsValueRefC1Ev
	leaq	45792(%rsp), %rdi
	callq	__ZN14altered_carbon2js10JsValueRefC1Ev
	leaq	45768(%rsp), %rdi
	callq	__ZN14altered_carbon2js10JsValueRefC1Ev
	leaq	45744(%rsp), %rdi
	callq	__ZN14altered_carbon2js10JsValueRefC1Ev
	leaq	45720(%rsp), %rdi
	callq	__ZN14altered_carbon2js10JsValueRefC1Ev
	leaq	45696(%rsp), %rdi
	callq	__ZN14altered_carbon2js10JsValueRefC1Ev
	leaq	45672(%rsp), %rdi
	callq	__ZN14altered_carbon2js10JsValueRefC1Ev
	leaq	45648(%rsp), %rdi
	callq	__ZN14altered_carbon2js10JsValueRefC1Ev
	leaq	45624(%rsp), %rdi
	callq	__ZN14altered_carbon2js10JsValueRefC1Ev
	leaq	45600(%rsp), %rdi
	callq	__ZN14altered_carbon2js10JsValueRefC1Ev
	leaq	45576(%rsp), %rdi
	callq	__ZN14altered_carbon2js10JsValueRefC1Ev
	leaq	45552(%rsp), %rdi
	callq	__ZN14altered_carbon2js10JsValueRefC1Ev
	leaq	45528(%rsp), %rdi
	callq	__ZN14altered_carbon2js10JsValueRefC1Ev
	leaq	45504(%rsp), %rdi
	callq	__ZN14altered_carbon2js10JsValueRefC1Ev
	leaq	45480(%rsp), %rdi
	callq	__ZN14altered_carbon2js10JsValueRefC1Ev
	leaq	45456(%rsp), %rdi
	callq	__ZN14altered_carbon2js10JsValueRefC1Ev
	leaq	45432(%rsp), %rdi
	callq	__ZN14altered_carbon2js10JsValueRefC1Ev
	leaq	45408(%rsp), %rdi
	callq	__ZN14altered_carbon2js10JsValueRefC1Ev
	leaq	45384(%rsp), %rdi
	callq	__ZN14altered_carbon2js10JsValueRefC1Ev
	leaq	45360(%rsp), %rdi
	callq	__ZN14altered_carbon2js10JsValueRefC1Ev
	leaq	45336(%rsp), %rdi
	callq	__ZN14altered_carbon2js10JsValueRefC1Ev
	leaq	45312(%rsp), %rdi
	callq	__ZN14altered_carbon2js10JsValueRefC1Ev
	leaq	45288(%rsp), %rdi
	callq	__ZN14altered_carbon2js10JsValueRefC1Ev
	leaq	45264(%rsp), %rdi
	callq	__ZN14altered_carbon2js10JsValueRefC1Ev
	leaq	45240(%rsp), %rdi
	callq	__ZN14altered_carbon2js10JsValueRefC1Ev
	leaq	45216(%rsp), %rdi
	callq	__ZN14altered_carbon2js10JsValueRefC1Ev
	leaq	45192(%rsp), %rdi
	callq	__ZN14altered_carbon2js10JsValueRefC1Ev
	leaq	45168(%rsp), %rdi
	callq	__ZN14altered_carbon2js10JsValueRefC1Ev
	leaq	45144(%rsp), %rdi
	callq	__ZN14altered_carbon2js10JsValueRefC1Ev
	leaq	45120(%rsp), %rdi
	callq	__ZN14altered_carbon2js10JsValueRefC1Ev
	leaq	45096(%rsp), %rdi
	callq	__ZN14altered_carbon2js10JsValueRefC1Ev
	leaq	45072(%rsp), %rdi
	callq	__ZN14altered_carbon2js10JsValueRefC1Ev
	leaq	45048(%rsp), %rdi
	callq	__ZN14altered_carbon2js10JsValueRefC1Ev
	leaq	45024(%rsp), %rdi
	callq	__ZN14altered_carbon2js10JsValueRefC1Ev
	leaq	45000(%rsp), %rdi
	callq	__ZN14altered_carbon2js10JsValueRefC1Ev
	leaq	44976(%rsp), %rdi
	callq	__ZN14altered_carbon2js10JsValueRefC1Ev
	leaq	44952(%rsp), %rdi
	callq	__ZN14altered_carbon2js10JsValueRefC1Ev
	leaq	44928(%rsp), %rdi
	callq	__ZN14altered_carbon2js10JsValueRefC1Ev
	leaq	44904(%rsp), %rdi
	callq	__ZN14altered_carbon2js10JsValueRefC1Ev
	leaq	44880(%rsp), %rdi
	callq	__ZN14altered_carbon2js10JsValueRefC1Ev
	leaq	44856(%rsp), %rdi
	callq	__ZN14altered_carbon2js10JsValueRefC1Ev
	leaq	44832(%rsp), %rdi
	callq	__ZN14altered_carbon2js10JsValueRefC1Ev
	leaq	44808(%rsp), %rdi
	callq	__ZN14altered_carbon2js10JsValueRefC1Ev
	leaq	44784(%rsp), %rdi
	callq	__ZN14altered_carbon2js10JsValueRefC1Ev
	leaq	44760(%rsp), %rdi
	callq	__ZN14altered_carbon2js10JsValueRefC1Ev
	leaq	44736(%rsp), %rdi
	callq	__ZN14altered_carbon2js10JsValueRefC1Ev
	leaq	44712(%rsp), %rdi
	callq	__ZN14altered_carbon2js10JsValueRefC1Ev
	leaq	44688(%rsp), %rdi
	callq	__ZN14altered_carbon2js10JsValueRefC1Ev
	leaq	44664(%rsp), %rdi
	callq	__ZN14altered_carbon2js10JsValueRefC1Ev
	leaq	44640(%rsp), %rdi
	callq	__ZN14altered_carbon2js10JsValueRefC1Ev
	leaq	44616(%rsp), %rdi
	callq	__ZN14altered_carbon2js10JsValueRefC1Ev
	leaq	44592(%rsp), %rdi
	callq	__ZN14altered_carbon2js10JsValueRefC1Ev
	leaq	44568(%rsp), %rdi
	callq	__ZN14altered_carbon2js10JsValueRefC1Ev
	leaq	44544(%rsp), %rdi
	callq	__ZN14altered_carbon2js10JsValueRefC1Ev
	leaq	44520(%rsp), %rdi
	callq	__ZN14altered_carbon2js10JsValueRefC1Ev
	leaq	44496(%rsp), %rdi
	callq	__ZN14altered_carbon2js10JsValueRefC1Ev
	leaq	44472(%rsp), %rdi
	callq	__ZN14altered_carbon2js10JsValueRefC1Ev
	leaq	44448(%rsp), %rdi
	callq	__ZN14altered_carbon2js10JsValueRefC1Ev
	leaq	44424(%rsp), %rdi
	callq	__ZN14altered_carbon2js10JsValueRefC1Ev
	leaq	44400(%rsp), %rdi
	callq	__ZN14altered_carbon2js10JsValueRefC1Ev
	leaq	44376(%rsp), %rdi
	callq	__ZN14altered_carbon2js10JsValueRefC1Ev
	leaq	44352(%rsp), %rdi
	callq	__ZN14altered_carbon2js10JsValueRefC1Ev
	leaq	44328(%rsp), %rdi
	callq	__ZN14altered_carbon2js10JsValueRefC1Ev
	leaq	44304(%rsp), %rdi
	callq	__ZN14altered_carbon2js10JsValueRefC1Ev
	leaq	44280(%rsp), %rdi
	callq	__ZN14altered_carbon2js10JsValueRefC1Ev
	leaq	44256(%rsp), %rdi
	callq	__ZN14altered_carbon2js10JsValueRefC1Ev
	leaq	44232(%rsp), %rdi
	callq	__ZN14altered_carbon2js10JsValueRefC1Ev
	leaq	44208(%rsp), %rdi
	callq	__ZN14altered_carbon2js10JsValueRefC1Ev
	leaq	44184(%rsp), %rdi
	callq	__ZN14altered_carbon2js10JsValueRefC1Ev
	leaq	44160(%rsp), %rdi
	callq	__ZN14altered_carbon2js10JsValueRefC1Ev
	leaq	44136(%rsp), %rdi
	callq	__ZN14altered_carbon2js10JsValueRefC1Ev
	leaq	44112(%rsp), %rdi
	callq	__ZN14altered_carbon2js10JsValueRefC1Ev
	leaq	44088(%rsp), %rdi
	callq	__ZN14altered_carbon2js10JsValueRefC1Ev
	leaq	44064(%rsp), %rdi
	callq	__ZN14altered_carbon2js10JsValueRefC1Ev
	leaq	44040(%rsp), %rdi
	callq	__ZN14altered_carbon2js10JsValueRefC1Ev
	leaq	44016(%rsp), %rdi
	callq	__ZN14altered_carbon2js10JsValueRefC1Ev
	leaq	43992(%rsp), %rdi
	callq	__ZN14altered_carbon2js10JsValueRefC1Ev
	leaq	43968(%rsp), %rdi
	callq	__ZN14altered_carbon2js10JsValueRefC1Ev
	leaq	43944(%rsp), %rdi
	callq	__ZN14altered_carbon2js10JsValueRefC1Ev
	leaq	43920(%rsp), %rdi
	callq	__ZN14altered_carbon2js10JsValueRefC1Ev
	leaq	43896(%rsp), %rdi
	callq	__ZN14altered_carbon2js10JsValueRefC1Ev
	leaq	43872(%rsp), %rdi
	callq	__ZN14altered_carbon2js10JsValueRefC1Ev
	leaq	43848(%rsp), %rdi
	callq	__ZN14altered_carbon2js10JsValueRefC1Ev
	leaq	43824(%rsp), %rdi
	callq	__ZN14altered_carbon2js10JsValueRefC1Ev
	leaq	43800(%rsp), %rdi
	callq	__ZN14altered_carbon2js10JsValueRefC1Ev
	leaq	43776(%rsp), %rdi
	callq	__ZN14altered_carbon2js10JsValueRefC1Ev
	leaq	43752(%rsp), %rdi
	callq	__ZN14altered_carbon2js10JsValueRefC1Ev
	leaq	43728(%rsp), %rdi
	callq	__ZN14altered_carbon2js10JsValueRefC1Ev
	leaq	43704(%rsp), %rdi
	callq	__ZN14altered_carbon2js10JsValueRefC1Ev
	leaq	43680(%rsp), %rdi
	callq	__ZN14altered_carbon2js10JsValueRefC1Ev
	leaq	43656(%rsp), %rdi
	callq	__ZN14altered_carbon2js10JsValueRefC1Ev
	leaq	43632(%rsp), %rdi
	callq	__ZN14altered_carbon2js10JsValueRefC1Ev
	leaq	43608(%rsp), %rdi
	callq	__ZN14altered_carbon2js10JsValueRefC1Ev
	leaq	43584(%rsp), %rdi
	callq	__ZN14altered_carbon2js10JsValueRefC1Ev
	leaq	43560(%rsp), %rdi
	callq	__ZN14altered_carbon2js10JsValueRefC1Ev
	leaq	43536(%rsp), %rdi
	callq	__ZN14altered_carbon2js10JsValueRefC1Ev
	leaq	43512(%rsp), %rdi
	callq	__ZN14altered_carbon2js10JsValueRefC1Ev
	leaq	43488(%rsp), %rdi
	callq	__ZN14altered_carbon2js10JsValueRefC1Ev
	leaq	43464(%rsp), %rdi
	callq	__ZN14altered_carbon2js10JsValueRefC1Ev
	leaq	43440(%rsp), %rdi
	callq	__ZN14altered_carbon2js10JsValueRefC1Ev
	leaq	43416(%rsp), %rdi
	callq	__ZN14altered_carbon2js10JsValueRefC1Ev
	leaq	43392(%rsp), %rdi
	callq	__ZN14altered_carbon2js10JsValueRefC1Ev
	leaq	43368(%rsp), %rdi
	callq	__ZN14altered_carbon2js10JsValueRefC1Ev
	leaq	43344(%rsp), %rdi
	callq	__ZN14altered_carbon2js10JsValueRefC1Ev
	leaq	43320(%rsp), %rdi
	callq	__ZN14altered_carbon2js10JsValueRefC1Ev
	leaq	43296(%rsp), %rdi
	callq	__ZN14altered_carbon2js10JsValueRefC1Ev
	leaq	43272(%rsp), %rdi
	callq	__ZN14altered_carbon2js10JsValueRefC1Ev
	leaq	43248(%rsp), %rdi
	callq	__ZN14altered_carbon2js10JsValueRefC1Ev
	leaq	43224(%rsp), %rdi
	callq	__ZN14altered_carbon2js10JsValueRefC1Ev
	leaq	43200(%rsp), %rdi
	callq	__ZN14altered_carbon2js10JsValueRefC1Ev
	leaq	43176(%rsp), %rdi
	callq	__ZN14altered_carbon2js10JsValueRefC1Ev
	leaq	43152(%rsp), %rdi
	callq	__ZN14altered_carbon2js10JsValueRefC1Ev
	leaq	43128(%rsp), %rdi
	callq	__ZN14altered_carbon2js10JsValueRefC1Ev
	leaq	43104(%rsp), %rdi
	callq	__ZN14altered_carbon2js10JsValueRefC1Ev
	leaq	43080(%rsp), %rdi
	callq	__ZN14altered_carbon2js10JsValueRefC1Ev
	leaq	43056(%rsp), %rdi
	callq	__ZN14altered_carbon2js10JsValueRefC1Ev
	leaq	43032(%rsp), %rdi
	callq	__ZN14altered_carbon2js10JsValueRefC1Ev
	leaq	43008(%rsp), %rdi
	callq	__ZN14altered_carbon2js10JsValueRefC1Ev
	leaq	42984(%rsp), %rdi
	callq	__ZN14altered_carbon2js10JsValueRefC1Ev
	leaq	42960(%rsp), %rdi
	callq	__ZN14altered_carbon2js10JsValueRefC1Ev
	leaq	42936(%rsp), %rdi
	callq	__ZN14altered_carbon2js10JsValueRefC1Ev
	leaq	42912(%rsp), %rdi
	callq	__ZN14altered_carbon2js10JsValueRefC1Ev
	leaq	42888(%rsp), %rdi
	callq	__ZN14altered_carbon2js10JsValueRefC1Ev
	leaq	42864(%rsp), %rdi
	callq	__ZN14altered_carbon2js10JsValueRefC1Ev
	leaq	42840(%rsp), %rdi
	callq	__ZN14altered_carbon2js10JsValueRefC1Ev
	leaq	42816(%rsp), %rdi
	callq	__ZN14altered_carbon2js10JsValueRefC1Ev
	leaq	42792(%rsp), %rdi
	callq	__ZN14altered_carbon2js10JsValueRefC1Ev
	leaq	42768(%rsp), %rdi
	callq	__ZN14altered_carbon2js10JsValueRefC1Ev
	leaq	42744(%rsp), %rdi
	callq	__ZN14altered_carbon2js10JsValueRefC1Ev
	leaq	42720(%rsp), %rdi
	callq	__ZN14altered_carbon2js10JsValueRefC1Ev
	leaq	42696(%rsp), %rdi
	callq	__ZN14altered_carbon2js10JsValueRefC1Ev
	leaq	42672(%rsp), %rdi
	callq	__ZN14altered_carbon2js10JsValueRefC1Ev
	leaq	42648(%rsp), %rdi
	callq	__ZN14altered_carbon2js10JsValueRefC1Ev
	leaq	42624(%rsp), %rdi
	callq	__ZN14altered_carbon2js10JsValueRefC1Ev
	leaq	42600(%rsp), %rdi
	callq	__ZN14altered_carbon2js10JsValueRefC1Ev
	leaq	42576(%rsp), %rdi
	callq	__ZN14altered_carbon2js10JsValueRefC1Ev
	leaq	42552(%rsp), %rdi
	callq	__ZN14altered_carbon2js10JsValueRefC1Ev
	leaq	42528(%rsp), %rdi
	callq	__ZN14altered_carbon2js10JsValueRefC1Ev
	leaq	42504(%rsp), %rdi
	callq	__ZN14altered_carbon2js10JsValueRefC1Ev
	leaq	42480(%rsp), %rdi
	callq	__ZN14altered_carbon2js10JsValueRefC1Ev
	leaq	42456(%rsp), %rdi
	callq	__ZN14altered_carbon2js10JsValueRefC1Ev
	leaq	42432(%rsp), %rdi
	callq	__ZN14altered_carbon2js10JsValueRefC1Ev
	leaq	42408(%rsp), %rdi
	callq	__ZN14altered_carbon2js10JsValueRefC1Ev
	leaq	42384(%rsp), %rdi
	callq	__ZN14altered_carbon2js10JsValueRefC1Ev
	leaq	42360(%rsp), %rdi
	callq	__ZN14altered_carbon2js10JsValueRefC1Ev
	leaq	42336(%rsp), %rdi
	callq	__ZN14altered_carbon2js10JsValueRefC1Ev
	leaq	42312(%rsp), %rdi
	callq	__ZN14altered_carbon2js10JsValueRefC1Ev
	leaq	42288(%rsp), %rdi
	callq	__ZN14altered_carbon2js10JsValueRefC1Ev
	leaq	42264(%rsp), %rdi
	callq	__ZN14altered_carbon2js10JsValueRefC1Ev
	leaq	42240(%rsp), %rdi
	callq	__ZN14altered_carbon2js10JsValueRefC1Ev
	leaq	42216(%rsp), %rdi
	callq	__ZN14altered_carbon2js10JsValueRefC1Ev
	leaq	42192(%rsp), %rdi
	callq	__ZN14altered_carbon2js10JsValueRefC1Ev
	leaq	42168(%rsp), %rdi
	callq	__ZN14altered_carbon2js10JsValueRefC1Ev
	leaq	42144(%rsp), %rdi
	callq	__ZN14altered_carbon2js10JsValueRefC1Ev
	leaq	42120(%rsp), %rdi
	callq	__ZN14altered_carbon2js10JsValueRefC1Ev
	leaq	42096(%rsp), %rdi
	callq	__ZN14altered_carbon2js10JsValueRefC1Ev
	leaq	42072(%rsp), %rdi
	callq	__ZN14altered_carbon2js10JsValueRefC1Ev
	leaq	42048(%rsp), %rdi
	callq	__ZN14altered_carbon2js10JsValueRefC1Ev
	leaq	42024(%rsp), %rdi
	callq	__ZN14altered_carbon2js10JsValueRefC1Ev
	leaq	42000(%rsp), %rdi
	callq	__ZN14altered_carbon2js10JsValueRefC1Ev
	leaq	41976(%rsp), %rdi
	callq	__ZN14altered_carbon2js10JsValueRefC1Ev
	leaq	41952(%rsp), %rdi
	callq	__ZN14altered_carbon2js10JsValueRefC1Ev
	leaq	41928(%rsp), %rdi
	callq	__ZN14altered_carbon2js10JsValueRefC1Ev
	leaq	41904(%rsp), %rdi
	callq	__ZN14altered_carbon2js10JsValueRefC1Ev
	leaq	41880(%rsp), %rdi
	callq	__ZN14altered_carbon2js10JsValueRefC1Ev
	leaq	41856(%rsp), %rdi
	callq	__ZN14altered_carbon2js10JsValueRefC1Ev
	leaq	41832(%rsp), %rdi
	callq	__ZN14altered_carbon2js10JsValueRefC1Ev
	leaq	41808(%rsp), %rdi
	callq	__ZN14altered_carbon2js10JsValueRefC1Ev
	leaq	41784(%rsp), %rdi
	callq	__ZN14altered_carbon2js10JsValueRefC1Ev
	leaq	41760(%rsp), %rdi
	callq	__ZN14altered_carbon2js10JsValueRefC1Ev
	leaq	41736(%rsp), %rdi
	callq	__ZN14altered_carbon2js10JsValueRefC1Ev
	leaq	41712(%rsp), %rdi
	callq	__ZN14altered_carbon2js10JsValueRefC1Ev
	leaq	41688(%rsp), %rdi
	callq	__ZN14altered_carbon2js10JsValueRefC1Ev
	leaq	41664(%rsp), %rdi
	callq	__ZN14altered_carbon2js10JsValueRefC1Ev
	leaq	41640(%rsp), %rdi
	callq	__ZN14altered_carbon2js10JsValueRefC1Ev
	leaq	41616(%rsp), %rdi
	callq	__ZN14altered_carbon2js10JsValueRefC1Ev
	leaq	41592(%rsp), %rdi
	callq	__ZN14altered_carbon2js10JsValueRefC1Ev
	leaq	41568(%rsp), %rdi
	callq	__ZN14altered_carbon2js10JsValueRefC1Ev
	leaq	41544(%rsp), %rdi
	callq	__ZN14altered_carbon2js10JsValueRefC1Ev
	leaq	41520(%rsp), %rdi
	callq	__ZN14altered_carbon2js10JsValueRefC1Ev
	leaq	41496(%rsp), %rdi
	callq	__ZN14altered_carbon2js10JsValueRefC1Ev
	leaq	41472(%rsp), %rdi
	callq	__ZN14altered_carbon2js10JsValueRefC1Ev
	leaq	41448(%rsp), %rdi
	callq	__ZN14altered_carbon2js10JsValueRefC1Ev
	leaq	41424(%rsp), %rdi
	callq	__ZN14altered_carbon2js10JsValueRefC1Ev
	leaq	41400(%rsp), %rdi
	callq	__ZN14altered_carbon2js10JsValueRefC1Ev
	leaq	41376(%rsp), %rdi
	callq	__ZN14altered_carbon2js10JsValueRefC1Ev
	leaq	41352(%rsp), %rdi
	callq	__ZN14altered_carbon2js10JsValueRefC1Ev
	leaq	41328(%rsp), %rdi
	callq	__ZN14altered_carbon2js10JsValueRefC1Ev
	leaq	41304(%rsp), %rdi
	callq	__ZN14altered_carbon2js10JsValueRefC1Ev
	leaq	41280(%rsp), %rdi
	callq	__ZN14altered_carbon2js10JsValueRefC1Ev
	leaq	41256(%rsp), %rdi
	callq	__ZN14altered_carbon2js10JsValueRefC1Ev
	leaq	41232(%rsp), %rdi
	callq	__ZN14altered_carbon2js10JsValueRefC1Ev
	leaq	41208(%rsp), %rdi
	callq	__ZN14altered_carbon2js10JsValueRefC1Ev
	leaq	41184(%rsp), %rdi
	callq	__ZN14altered_carbon2js10JsValueRefC1Ev
	leaq	41160(%rsp), %rdi
	callq	__ZN14altered_carbon2js10JsValueRefC1Ev
	leaq	41136(%rsp), %rdi
	callq	__ZN14altered_carbon2js10JsValueRefC1Ev
	leaq	41112(%rsp), %rdi
	callq	__ZN14altered_carbon2js10JsValueRefC1Ev
	leaq	41088(%rsp), %rdi
	callq	__ZN14altered_carbon2js10JsValueRefC1Ev
	leaq	41064(%rsp), %rdi
	callq	__ZN14altered_carbon2js10JsValueRefC1Ev
	leaq	41040(%rsp), %rdi
	callq	__ZN14altered_carbon2js10JsValueRefC1Ev
	leaq	41016(%rsp), %rdi
	callq	__ZN14altered_carbon2js10JsValueRefC1Ev
	leaq	40992(%rsp), %rdi
	callq	__ZN14altered_carbon2js10JsValueRefC1Ev
	leaq	40968(%rsp), %rdi
	callq	__ZN14altered_carbon2js10JsValueRefC1Ev
	leaq	40944(%rsp), %rdi
	callq	__ZN14altered_carbon2js10JsValueRefC1Ev
	leaq	40920(%rsp), %rdi
	callq	__ZN14altered_carbon2js10JsValueRefC1Ev
	leaq	40896(%rsp), %rdi
	callq	__ZN14altered_carbon2js10JsValueRefC1Ev
	leaq	40872(%rsp), %rdi
	callq	__ZN14altered_carbon2js10JsValueRefC1Ev
	leaq	40848(%rsp), %rdi
	callq	__ZN14altered_carbon2js10JsValueRefC1Ev
	leaq	40824(%rsp), %rdi
	callq	__ZN14altered_carbon2js10JsValueRefC1Ev
	leaq	40800(%rsp), %rdi
	callq	__ZN14altered_carbon2js10JsValueRefC1Ev
	leaq	40776(%rsp), %rdi
	callq	__ZN14altered_carbon2js10JsValueRefC1Ev
	leaq	40752(%rsp), %rdi
	callq	__ZN14altered_carbon2js10JsValueRefC1Ev
	leaq	40728(%rsp), %rdi
	callq	__ZN14altered_carbon2js10JsValueRefC1Ev
	leaq	40704(%rsp), %rdi
	callq	__ZN14altered_carbon2js10JsValueRefC1Ev
	leaq	40680(%rsp), %rdi
	callq	__ZN14altered_carbon2js10JsValueRefC1Ev
	leaq	40656(%rsp), %rdi
	callq	__ZN14altered_carbon2js10JsValueRefC1Ev
	leaq	40632(%rsp), %rdi
	callq	__ZN14altered_carbon2js10JsValueRefC1Ev
	leaq	40608(%rsp), %rdi
	callq	__ZN14altered_carbon2js10JsValueRefC1Ev
	leaq	40584(%rsp), %rdi
	callq	__ZN14altered_carbon2js10JsValueRefC1Ev
	leaq	40560(%rsp), %rdi
	callq	__ZN14altered_carbon2js10JsValueRefC1Ev
	leaq	40536(%rsp), %rdi
	callq	__ZN14altered_carbon2js10JsValueRefC1Ev
	leaq	40512(%rsp), %rdi
	callq	__ZN14altered_carbon2js10JsValueRefC1Ev
	leaq	40488(%rsp), %rdi
	callq	__ZN14altered_carbon2js10JsValueRefC1Ev
	leaq	40464(%rsp), %rdi
	callq	__ZN14altered_carbon2js10JsValueRefC1Ev
	leaq	40440(%rsp), %rdi
	callq	__ZN14altered_carbon2js10JsValueRefC1Ev
	leaq	40416(%rsp), %rdi
	callq	__ZN14altered_carbon2js10JsValueRefC1Ev
	leaq	40392(%rsp), %rdi
	callq	__ZN14altered_carbon2js10JsValueRefC1Ev
	leaq	40368(%rsp), %rdi
	callq	__ZN14altered_carbon2js10JsValueRefC1Ev
	leaq	40344(%rsp), %rdi
	callq	__ZN14altered_carbon2js10JsValueRefC1Ev
	leaq	40320(%rsp), %rdi
	callq	__ZN14altered_carbon2js10JsValueRefC1Ev
	leaq	40296(%rsp), %rdi
	callq	__ZN14altered_carbon2js10JsValueRefC1Ev
	leaq	40272(%rsp), %rdi
	callq	__ZN14altered_carbon2js10JsValueRefC1Ev
	leaq	40248(%rsp), %rdi
	callq	__ZN14altered_carbon2js10JsValueRefC1Ev
	leaq	40224(%rsp), %rdi
	callq	__ZN14altered_carbon2js10JsValueRefC1Ev
	leaq	40200(%rsp), %rdi
	callq	__ZN14altered_carbon2js10JsValueRefC1Ev
	leaq	40176(%rsp), %rdi
	callq	__ZN14altered_carbon2js10JsValueRefC1Ev
	leaq	40152(%rsp), %rdi
	callq	__ZN14altered_carbon2js10JsValueRefC1Ev
	leaq	40128(%rsp), %rdi
	callq	__ZN14altered_carbon2js10JsValueRefC1Ev
	leaq	40104(%rsp), %rdi
	callq	__ZN14altered_carbon2js10JsValueRefC1Ev
	leaq	40080(%rsp), %rdi
	callq	__ZN14altered_carbon2js10JsValueRefC1Ev
	leaq	40056(%rsp), %rdi
	callq	__ZN14altered_carbon2js10JsValueRefC1Ev
	leaq	40032(%rsp), %rdi
	callq	__ZN14altered_carbon2js10JsValueRefC1Ev
	leaq	40008(%rsp), %rdi
	callq	__ZN14altered_carbon2js10JsValueRefC1Ev
	leaq	39984(%rsp), %rdi
	callq	__ZN14altered_carbon2js10JsValueRefC1Ev
	leaq	39960(%rsp), %rdi
	callq	__ZN14altered_carbon2js10JsValueRefC1Ev
	leaq	39936(%rsp), %rdi
	callq	__ZN14altered_carbon2js10JsValueRefC1Ev
	leaq	39912(%rsp), %rdi
	callq	__ZN14altered_carbon2js10JsValueRefC1Ev
	leaq	39888(%rsp), %rdi
	callq	__ZN14altered_carbon2js10JsValueRefC1Ev
	leaq	39864(%rsp), %rdi
	callq	__ZN14altered_carbon2js10JsValueRefC1Ev
	leaq	39840(%rsp), %rdi
	callq	__ZN14altered_carbon2js10JsValueRefC1Ev
	leaq	39816(%rsp), %rdi
	callq	__ZN14altered_carbon2js10JsValueRefC1Ev
	leaq	39792(%rsp), %rdi
	callq	__ZN14altered_carbon2js10JsValueRefC1Ev
	leaq	39768(%rsp), %rdi
	callq	__ZN14altered_carbon2js10JsValueRefC1Ev
	leaq	39744(%rsp), %rdi
	callq	__ZN14altered_carbon2js10JsValueRefC1Ev
	leaq	39720(%rsp), %rdi
	callq	__ZN14altered_carbon2js10JsValueRefC1Ev
	leaq	39696(%rsp), %rdi
	callq	__ZN14altered_carbon2js10JsValueRefC1Ev
	leaq	39672(%rsp), %rdi
	callq	__ZN14altered_carbon2js10JsValueRefC1Ev
	leaq	39648(%rsp), %rdi
	callq	__ZN14altered_carbon2js10JsValueRefC1Ev
	leaq	39624(%rsp), %rdi
	callq	__ZN14altered_carbon2js10JsValueRefC1Ev
	leaq	39600(%rsp), %rdi
	callq	__ZN14altered_carbon2js10JsValueRefC1Ev
	leaq	39576(%rsp), %rdi
	callq	__ZN14altered_carbon2js10JsValueRefC1Ev
	leaq	39552(%rsp), %rdi
	callq	__ZN14altered_carbon2js10JsValueRefC1Ev
	leaq	39528(%rsp), %rdi
	callq	__ZN14altered_carbon2js10JsValueRefC1Ev
	leaq	39504(%rsp), %rdi
	callq	__ZN14altered_carbon2js10JsValueRefC1Ev
	leaq	39480(%rsp), %rdi
	callq	__ZN14altered_carbon2js10JsValueRefC1Ev
	leaq	39456(%rsp), %rdi
	callq	__ZN14altered_carbon2js10JsValueRefC1Ev
	leaq	39432(%rsp), %rdi
	callq	__ZN14altered_carbon2js10JsValueRefC1Ev
	leaq	39408(%rsp), %rdi
	callq	__ZN14altered_carbon2js10JsValueRefC1Ev
	leaq	39384(%rsp), %rdi
	callq	__ZN14altered_carbon2js10JsValueRefC1Ev
	leaq	39360(%rsp), %rdi
	callq	__ZN14altered_carbon2js10JsValueRefC1Ev
	leaq	39336(%rsp), %rdi
	callq	__ZN14altered_carbon2js10JsValueRefC1Ev
	leaq	39312(%rsp), %rdi
	callq	__ZN14altered_carbon2js10JsValueRefC1Ev
	leaq	39288(%rsp), %rdi
	callq	__ZN14altered_carbon2js10JsValueRefC1Ev
	leaq	39264(%rsp), %rdi
	callq	__ZN14altered_carbon2js10JsValueRefC1Ev
	leaq	39240(%rsp), %rdi
	callq	__ZN14altered_carbon2js10JsValueRefC1Ev
	leaq	39216(%rsp), %rdi
	callq	__ZN14altered_carbon2js10JsValueRefC1Ev
	leaq	39192(%rsp), %rdi
	callq	__ZN14altered_carbon2js10JsValueRefC1Ev
	leaq	39168(%rsp), %rdi
	callq	__ZN14altered_carbon2js10JsValueRefC1Ev
	leaq	39144(%rsp), %rdi
	callq	__ZN14altered_carbon2js10JsValueRefC1Ev
	leaq	39120(%rsp), %rdi
	callq	__ZN14altered_carbon2js10JsValueRefC1Ev
	leaq	39096(%rsp), %rdi
	callq	__ZN14altered_carbon2js10JsValueRefC1Ev
	leaq	39072(%rsp), %rdi
	callq	__ZN14altered_carbon2js10JsValueRefC1Ev
	leaq	39048(%rsp), %rdi
	callq	__ZN14altered_carbon2js10JsValueRefC1Ev
	leaq	39024(%rsp), %rdi
	callq	__ZN14altered_carbon2js10JsValueRefC1Ev
	leaq	39000(%rsp), %rdi
	callq	__ZN14altered_carbon2js10JsValueRefC1Ev
	leaq	38976(%rsp), %rdi
	callq	__ZN14altered_carbon2js10JsValueRefC1Ev
	leaq	38952(%rsp), %rdi
	callq	__ZN14altered_carbon2js10JsValueRefC1Ev
	leaq	38928(%rsp), %rdi
	callq	__ZN14altered_carbon2js10JsValueRefC1Ev
	leaq	38904(%rsp), %rdi
	callq	__ZN14altered_carbon2js10JsValueRefC1Ev
	leaq	38880(%rsp), %rdi
	callq	__ZN14altered_carbon2js10JsValueRefC1Ev
	leaq	38856(%rsp), %rdi
	callq	__ZN14altered_carbon2js10JsValueRefC1Ev
	leaq	38832(%rsp), %rdi
	callq	__ZN14altered_carbon2js10JsValueRefC1Ev
	leaq	38808(%rsp), %rdi
	callq	__ZN14altered_carbon2js10JsValueRefC1Ev
	leaq	38784(%rsp), %rdi
	callq	__ZN14altered_carbon2js10JsValueRefC1Ev
	leaq	38760(%rsp), %rdi
	callq	__ZN14altered_carbon2js10JsValueRefC1Ev
	leaq	38736(%rsp), %rdi
	callq	__ZN14altered_carbon2js10JsValueRefC1Ev
	leaq	38712(%rsp), %rdi
	callq	__ZN14altered_carbon2js10JsValueRefC1Ev
	leaq	38688(%rsp), %rdi
	callq	__ZN14altered_carbon2js10JsValueRefC1Ev
	leaq	38664(%rsp), %rdi
	callq	__ZN14altered_carbon2js10JsValueRefC1Ev
	leaq	38640(%rsp), %rdi
	callq	__ZN14altered_carbon2js10JsValueRefC1Ev
	leaq	38616(%rsp), %rdi
	callq	__ZN14altered_carbon2js10JsValueRefC1Ev
	leaq	38592(%rsp), %rdi
	callq	__ZN14altered_carbon2js10JsValueRefC1Ev
	leaq	38568(%rsp), %rdi
	callq	__ZN14altered_carbon2js10JsValueRefC1Ev
	leaq	38544(%rsp), %rdi
	callq	__ZN14altered_carbon2js10JsValueRefC1Ev
	leaq	38520(%rsp), %rdi
	callq	__ZN14altered_carbon2js10JsValueRefC1Ev
	leaq	38496(%rsp), %rdi
	callq	__ZN14altered_carbon2js10JsValueRefC1Ev
	leaq	38472(%rsp), %rdi
	callq	__ZN14altered_carbon2js10JsValueRefC1Ev
	leaq	38448(%rsp), %rdi
	callq	__ZN14altered_carbon2js10JsValueRefC1Ev
	leaq	38424(%rsp), %rdi
	callq	__ZN14altered_carbon2js10JsValueRefC1Ev
	leaq	38400(%rsp), %rdi
	callq	__ZN14altered_carbon2js10JsValueRefC1Ev
	leaq	38376(%rsp), %rdi
	callq	__ZN14altered_carbon2js10JsValueRefC1Ev
	leaq	38352(%rsp), %rdi
	callq	__ZN14altered_carbon2js10JsValueRefC1Ev
	leaq	38328(%rsp), %rdi
	callq	__ZN14altered_carbon2js10JsValueRefC1Ev
	leaq	38304(%rsp), %rdi
	callq	__ZN14altered_carbon2js10JsValueRefC1Ev
	leaq	38280(%rsp), %rdi
	callq	__ZN14altered_carbon2js10JsValueRefC1Ev
	leaq	38256(%rsp), %rdi
	callq	__ZN14altered_carbon2js10JsValueRefC1Ev
	leaq	38232(%rsp), %rdi
	callq	__ZN14altered_carbon2js10JsValueRefC1Ev
	leaq	38208(%rsp), %rdi
	callq	__ZN14altered_carbon2js10JsValueRefC1Ev
	leaq	38184(%rsp), %rdi
	callq	__ZN14altered_carbon2js10JsValueRefC1Ev
	leaq	38160(%rsp), %rdi
	callq	__ZN14altered_carbon2js10JsValueRefC1Ev
	leaq	38136(%rsp), %rdi
	callq	__ZN14altered_carbon2js10JsValueRefC1Ev
	leaq	38112(%rsp), %rdi
	callq	__ZN14altered_carbon2js10JsValueRefC1Ev
	leaq	38088(%rsp), %rdi
	callq	__ZN14altered_carbon2js10JsValueRefC1Ev
	leaq	38064(%rsp), %rdi
	callq	__ZN14altered_carbon2js10JsValueRefC1Ev
	leaq	38040(%rsp), %rdi
	callq	__ZN14altered_carbon2js10JsValueRefC1Ev
	leaq	38016(%rsp), %rdi
	callq	__ZN14altered_carbon2js10JsValueRefC1Ev
	leaq	37992(%rsp), %rdi
	callq	__ZN14altered_carbon2js10JsValueRefC1Ev
	leaq	37968(%rsp), %rdi
	callq	__ZN14altered_carbon2js10JsValueRefC1Ev
	leaq	37944(%rsp), %rdi
	callq	__ZN14altered_carbon2js10JsValueRefC1Ev
	leaq	37920(%rsp), %rdi
	callq	__ZN14altered_carbon2js10JsValueRefC1Ev
	leaq	37896(%rsp), %rdi
	callq	__ZN14altered_carbon2js10JsValueRefC1Ev
	leaq	37872(%rsp), %rdi
	callq	__ZN14altered_carbon2js10JsValueRefC1Ev
	leaq	37848(%rsp), %rdi
	callq	__ZN14altered_carbon2js10JsValueRefC1Ev
	leaq	37824(%rsp), %rdi
	callq	__ZN14altered_carbon2js10JsValueRefC1Ev
	leaq	37800(%rsp), %rdi
	callq	__ZN14altered_carbon2js10JsValueRefC1Ev
	leaq	37776(%rsp), %rdi
	callq	__ZN14altered_carbon2js10JsValueRefC1Ev
	leaq	37752(%rsp), %rdi
	callq	__ZN14altered_carbon2js10JsValueRefC1Ev
	leaq	37728(%rsp), %rdi
	callq	__ZN14altered_carbon2js10JsValueRefC1Ev
	leaq	37704(%rsp), %rdi
	callq	__ZN14altered_carbon2js10JsValueRefC1Ev
	leaq	37680(%rsp), %rdi
	callq	__ZN14altered_carbon2js10JsValueRefC1Ev
	leaq	37656(%rsp), %rdi
	callq	__ZN14altered_carbon2js10JsValueRefC1Ev
	leaq	37632(%rsp), %rdi
	callq	__ZN14altered_carbon2js10JsValueRefC1Ev
	leaq	37608(%rsp), %rdi
	callq	__ZN14altered_carbon2js10JsValueRefC1Ev
	leaq	37584(%rsp), %rdi
	callq	__ZN14altered_carbon2js10JsValueRefC1Ev
	leaq	37560(%rsp), %rdi
	callq	__ZN14altered_carbon2js10JsValueRefC1Ev
	leaq	37536(%rsp), %rdi
	callq	__ZN14altered_carbon2js10JsValueRefC1Ev
	leaq	37512(%rsp), %rdi
	callq	__ZN14altered_carbon2js10JsValueRefC1Ev
	leaq	37488(%rsp), %rdi
	callq	__ZN14altered_carbon2js10JsValueRefC1Ev
	leaq	37464(%rsp), %rdi
	callq	__ZN14altered_carbon2js10JsValueRefC1Ev
	leaq	37440(%rsp), %rdi
	callq	__ZN14altered_carbon2js10JsValueRefC1Ev
	leaq	37416(%rsp), %rdi
	callq	__ZN14altered_carbon2js10JsValueRefC1Ev
	leaq	37392(%rsp), %rdi
	callq	__ZN14altered_carbon2js10JsValueRefC1Ev
	leaq	37368(%rsp), %rdi
	callq	__ZN14altered_carbon2js10JsValueRefC1Ev
	leaq	37344(%rsp), %rdi
	callq	__ZN14altered_carbon2js10JsValueRefC1Ev
	leaq	37320(%rsp), %rdi
	callq	__ZN14altered_carbon2js10JsValueRefC1Ev
	leaq	37296(%rsp), %rdi
	callq	__ZN14altered_carbon2js10JsValueRefC1Ev
	leaq	37272(%rsp), %rdi
	callq	__ZN14altered_carbon2js10JsValueRefC1Ev
	leaq	37248(%rsp), %rdi
	callq	__ZN14altered_carbon2js10JsValueRefC1Ev
	leaq	37224(%rsp), %rdi
	callq	__ZN14altered_carbon2js10JsValueRefC1Ev
	leaq	37200(%rsp), %rdi
	callq	__ZN14altered_carbon2js10JsValueRefC1Ev
	leaq	37176(%rsp), %rdi
	callq	__ZN14altered_carbon2js10JsValueRefC1Ev
	leaq	37152(%rsp), %rdi
	callq	__ZN14altered_carbon2js10JsValueRefC1Ev
	leaq	37128(%rsp), %rdi
	callq	__ZN14altered_carbon2js10JsValueRefC1Ev
	leaq	37104(%rsp), %rdi
	callq	__ZN14altered_carbon2js10JsValueRefC1Ev
	leaq	37080(%rsp), %rdi
	callq	__ZN14altered_carbon2js10JsValueRefC1Ev
	leaq	37056(%rsp), %rdi
	callq	__ZN14altered_carbon2js10JsValueRefC1Ev
	leaq	37032(%rsp), %rdi
	callq	__ZN14altered_carbon2js10JsValueRefC1Ev
	leaq	37008(%rsp), %rdi
	callq	__ZN14altered_carbon2js10JsValueRefC1Ev
	leaq	36984(%rsp), %rdi
	callq	__ZN14altered_carbon2js10JsValueRefC1Ev
	leaq	36960(%rsp), %rdi
	callq	__ZN14altered_carbon2js10JsValueRefC1Ev
	leaq	36936(%rsp), %rdi
	callq	__ZN14altered_carbon2js10JsValueRefC1Ev
	leaq	36912(%rsp), %rdi
	callq	__ZN14altered_carbon2js10JsValueRefC1Ev
	leaq	36888(%rsp), %rdi
	callq	__ZN14altered_carbon2js10JsValueRefC1Ev
	leaq	36864(%rsp), %rdi
	callq	__ZN14altered_carbon2js10JsValueRefC1Ev
	leaq	36840(%rsp), %rdi
	callq	__ZN14altered_carbon2js10JsValueRefC1Ev
	leaq	36816(%rsp), %rdi
	callq	__ZN14altered_carbon2js10JsValueRefC1Ev
	leaq	36792(%rsp), %rdi
	callq	__ZN14altered_carbon2js10JsValueRefC1Ev
	leaq	36768(%rsp), %rdi
	callq	__ZN14altered_carbon2js10JsValueRefC1Ev
	leaq	36744(%rsp), %rdi
	callq	__ZN14altered_carbon2js10JsValueRefC1Ev
	leaq	36720(%rsp), %rdi
	callq	__ZN14altered_carbon2js10JsValueRefC1Ev
	leaq	36696(%rsp), %rdi
	callq	__ZN14altered_carbon2js10JsValueRefC1Ev
	leaq	36672(%rsp), %rdi
	callq	__ZN14altered_carbon2js10JsValueRefC1Ev
	leaq	36648(%rsp), %rdi
	callq	__ZN14altered_carbon2js10JsValueRefC1Ev
	leaq	36624(%rsp), %rdi
	callq	__ZN14altered_carbon2js10JsValueRefC1Ev
	leaq	36600(%rsp), %rdi
	callq	__ZN14altered_carbon2js10JsValueRefC1Ev
	leaq	36576(%rsp), %rdi
	callq	__ZN14altered_carbon2js10JsValueRefC1Ev
	leaq	36552(%rsp), %rdi
	callq	__ZN14altered_carbon2js10JsValueRefC1Ev
	leaq	36528(%rsp), %rdi
	callq	__ZN14altered_carbon2js10JsValueRefC1Ev
	leaq	36504(%rsp), %rdi
	callq	__ZN14altered_carbon2js10JsValueRefC1Ev
	leaq	36480(%rsp), %rdi
	callq	__ZN14altered_carbon2js10JsValueRefC1Ev
	leaq	36456(%rsp), %rdi
	callq	__ZN14altered_carbon2js10JsValueRefC1Ev
	leaq	36432(%rsp), %rdi
	callq	__ZN14altered_carbon2js10JsValueRefC1Ev
	leaq	36408(%rsp), %rdi
	callq	__ZN14altered_carbon2js10JsValueRefC1Ev
	leaq	36384(%rsp), %rdi
	callq	__ZN14altered_carbon2js10JsValueRefC1Ev
	leaq	36360(%rsp), %rdi
	callq	__ZN14altered_carbon2js10JsValueRefC1Ev
	leaq	36336(%rsp), %rdi
	callq	__ZN14altered_carbon2js10JsValueRefC1Ev
	leaq	36312(%rsp), %rdi
	callq	__ZN14altered_carbon2js10JsValueRefC1Ev
	leaq	36288(%rsp), %rdi
	callq	__ZN14altered_carbon2js10JsValueRefC1Ev
	leaq	36264(%rsp), %rdi
	callq	__ZN14altered_carbon2js10JsValueRefC1Ev
	leaq	36240(%rsp), %rdi
	callq	__ZN14altered_carbon2js10JsValueRefC1Ev
	leaq	36216(%rsp), %rdi
	callq	__ZN14altered_carbon2js10JsValueRefC1Ev
	leaq	36192(%rsp), %rdi
	callq	__ZN14altered_carbon2js10JsValueRefC1Ev
	leaq	36168(%rsp), %rdi
	callq	__ZN14altered_carbon2js10JsValueRefC1Ev
	leaq	36144(%rsp), %rdi
	callq	__ZN14altered_carbon2js10JsValueRefC1Ev
	leaq	36120(%rsp), %rdi
	callq	__ZN14altered_carbon2js10JsValueRefC1Ev
	leaq	36096(%rsp), %rdi
	callq	__ZN14altered_carbon2js10JsValueRefC1Ev
	leaq	36072(%rsp), %rdi
	callq	__ZN14altered_carbon2js10JsValueRefC1Ev
	leaq	36048(%rsp), %rdi
	callq	__ZN14altered_carbon2js10JsValueRefC1Ev
	leaq	36024(%rsp), %rdi
	callq	__ZN14altered_carbon2js10JsValueRefC1Ev
	leaq	36000(%rsp), %rdi
	callq	__ZN14altered_carbon2js10JsValueRefC1Ev
	leaq	35976(%rsp), %rdi
	callq	__ZN14altered_carbon2js10JsValueRefC1Ev
	leaq	35952(%rsp), %rdi
	callq	__ZN14altered_carbon2js10JsValueRefC1Ev
	leaq	35928(%rsp), %rdi
	callq	__ZN14altered_carbon2js10JsValueRefC1Ev
	leaq	35904(%rsp), %rdi
	callq	__ZN14altered_carbon2js10JsValueRefC1Ev
	leaq	35880(%rsp), %rdi
	callq	__ZN14altered_carbon2js10JsValueRefC1Ev
	leaq	35856(%rsp), %rdi
	callq	__ZN14altered_carbon2js10JsValueRefC1Ev
	leaq	35832(%rsp), %rdi
	callq	__ZN14altered_carbon2js10JsValueRefC1Ev
	leaq	35808(%rsp), %rdi
	callq	__ZN14altered_carbon2js10JsValueRefC1Ev
	leaq	35784(%rsp), %rdi
	callq	__ZN14altered_carbon2js10JsValueRefC1Ev
	leaq	35760(%rsp), %rdi
	callq	__ZN14altered_carbon2js10JsValueRefC1Ev
	leaq	35736(%rsp), %rdi
	callq	__ZN14altered_carbon2js10JsValueRefC1Ev
	leaq	35712(%rsp), %rdi
	callq	__ZN14altered_carbon2js10JsValueRefC1Ev
	leaq	35688(%rsp), %rdi
	callq	__ZN14altered_carbon2js10JsValueRefC1Ev
	leaq	35664(%rsp), %rdi
	callq	__ZN14altered_carbon2js10JsValueRefC1Ev
	leaq	35640(%rsp), %rdi
	callq	__ZN14altered_carbon2js10JsValueRefC1Ev
	leaq	35616(%rsp), %rdi
	callq	__ZN14altered_carbon2js10JsValueRefC1Ev
	leaq	35592(%rsp), %rdi
	callq	__ZN14altered_carbon2js10JsValueRefC1Ev
	leaq	35568(%rsp), %rdi
	callq	__ZN14altered_carbon2js10JsValueRefC1Ev
	leaq	35544(%rsp), %rdi
	callq	__ZN14altered_carbon2js10JsValueRefC1Ev
	leaq	35520(%rsp), %rdi
	callq	__ZN14altered_carbon2js10JsValueRefC1Ev
	leaq	35496(%rsp), %rdi
	callq	__ZN14altered_carbon2js10JsValueRefC1Ev
	leaq	35472(%rsp), %rdi
	callq	__ZN14altered_carbon2js10JsValueRefC1Ev
	leaq	35448(%rsp), %rdi
	callq	__ZN14altered_carbon2js10JsValueRefC1Ev
	leaq	35424(%rsp), %rdi
	callq	__ZN14altered_carbon2js10JsValueRefC1Ev
	leaq	35400(%rsp), %rdi
	callq	__ZN14altered_carbon2js10JsValueRefC1Ev
	leaq	35376(%rsp), %rdi
	callq	__ZN14altered_carbon2js10JsValueRefC1Ev
	leaq	35352(%rsp), %rdi
	callq	__ZN14altered_carbon2js10JsValueRefC1Ev
	leaq	35328(%rsp), %rdi
	callq	__ZN14altered_carbon2js10JsValueRefC1Ev
	leaq	35304(%rsp), %rdi
	callq	__ZN14altered_carbon2js10JsValueRefC1Ev
	leaq	35280(%rsp), %rdi
	callq	__ZN14altered_carbon2js10JsValueRefC1Ev
	leaq	35256(%rsp), %rdi
	callq	__ZN14altered_carbon2js10JsValueRefC1Ev
	leaq	35232(%rsp), %rdi
	callq	__ZN14altered_carbon2js10JsValueRefC1Ev
	leaq	35208(%rsp), %rdi
	callq	__ZN14altered_carbon2js10JsValueRefC1Ev
	leaq	35184(%rsp), %rdi
	callq	__ZN14altered_carbon2js10JsValueRefC1Ev
	leaq	35160(%rsp), %rdi
	callq	__ZN14altered_carbon2js10JsValueRefC1Ev
	leaq	35136(%rsp), %rdi
	callq	__ZN14altered_carbon2js10JsValueRefC1Ev
	leaq	35112(%rsp), %rdi
	callq	__ZN14altered_carbon2js10JsValueRefC1Ev
	leaq	35088(%rsp), %rdi
	callq	__ZN14altered_carbon2js10JsValueRefC1Ev
	leaq	35064(%rsp), %rdi
	callq	__ZN14altered_carbon2js10JsValueRefC1Ev
	leaq	35040(%rsp), %rdi
	callq	__ZN14altered_carbon2js10JsValueRefC1Ev
	leaq	35016(%rsp), %rdi
	callq	__ZN14altered_carbon2js10JsValueRefC1Ev
	leaq	34992(%rsp), %rdi
	callq	__ZN14altered_carbon2js10JsValueRefC1Ev
	leaq	34968(%rsp), %rdi
	callq	__ZN14altered_carbon2js10JsValueRefC1Ev
	leaq	34944(%rsp), %rdi
	callq	__ZN14altered_carbon2js10JsValueRefC1Ev
	leaq	34920(%rsp), %rdi
	callq	__ZN14altered_carbon2js10JsValueRefC1Ev
	leaq	34896(%rsp), %rdi
	callq	__ZN14altered_carbon2js10JsValueRefC1Ev
	leaq	34872(%rsp), %rdi
	callq	__ZN14altered_carbon2js10JsValueRefC1Ev
	leaq	34848(%rsp), %rdi
	callq	__ZN14altered_carbon2js10JsValueRefC1Ev
	leaq	34824(%rsp), %rdi
	callq	__ZN14altered_carbon2js10JsValueRefC1Ev
	leaq	34800(%rsp), %rdi
	callq	__ZN14altered_carbon2js10JsValueRefC1Ev
	leaq	34776(%rsp), %rdi
	callq	__ZN14altered_carbon2js10JsValueRefC1Ev
	leaq	34752(%rsp), %rdi
	callq	__ZN14altered_carbon2js10JsValueRefC1Ev
	leaq	34728(%rsp), %rdi
	callq	__ZN14altered_carbon2js10JsValueRefC1Ev
	leaq	34704(%rsp), %rdi
	callq	__ZN14altered_carbon2js10JsValueRefC1Ev
	leaq	34680(%rsp), %rdi
	callq	__ZN14altered_carbon2js10JsValueRefC1Ev
	leaq	34656(%rsp), %rdi
	callq	__ZN14altered_carbon2js10JsValueRefC1Ev
	leaq	34632(%rsp), %rdi
	callq	__ZN14altered_carbon2js10JsValueRefC1Ev
	leaq	34608(%rsp), %rdi
	callq	__ZN14altered_carbon2js10JsValueRefC1Ev
	leaq	34584(%rsp), %rdi
	callq	__ZN14altered_carbon2js10JsValueRefC1Ev
	leaq	34560(%rsp), %rdi
	callq	__ZN14altered_carbon2js10JsValueRefC1Ev
	leaq	34536(%rsp), %rdi
	callq	__ZN14altered_carbon2js10JsValueRefC1Ev
	leaq	34512(%rsp), %rdi
	callq	__ZN14altered_carbon2js10JsValueRefC1Ev
	leaq	34488(%rsp), %rdi
	callq	__ZN14altered_carbon2js10JsValueRefC1Ev
	leaq	34464(%rsp), %rdi
	callq	__ZN14altered_carbon2js10JsValueRefC1Ev
	leaq	34440(%rsp), %rdi
	callq	__ZN14altered_carbon2js10JsValueRefC1Ev
	leaq	34416(%rsp), %rdi
	callq	__ZN14altered_carbon2js10JsValueRefC1Ev
	leaq	34392(%rsp), %rdi
	callq	__ZN14altered_carbon2js10JsValueRefC1Ev
	leaq	34368(%rsp), %rdi
	callq	__ZN14altered_carbon2js10JsValueRefC1Ev
	leaq	34344(%rsp), %rdi
	callq	__ZN14altered_carbon2js10JsValueRefC1Ev
	leaq	34320(%rsp), %rdi
	callq	__ZN14altered_carbon2js10JsValueRefC1Ev
	leaq	34296(%rsp), %rdi
	callq	__ZN14altered_carbon2js10JsValueRefC1Ev
	leaq	34272(%rsp), %rdi
	callq	__ZN14altered_carbon2js10JsValueRefC1Ev
	leaq	34248(%rsp), %rdi
	callq	__ZN14altered_carbon2js10JsValueRefC1Ev
	leaq	34224(%rsp), %rdi
	callq	__ZN14altered_carbon2js10JsValueRefC1Ev
	leaq	34200(%rsp), %rdi
	callq	__ZN14altered_carbon2js10JsValueRefC1Ev
	leaq	34176(%rsp), %rdi
	callq	__ZN14altered_carbon2js10JsValueRefC1Ev
	leaq	34152(%rsp), %rdi
	callq	__ZN14altered_carbon2js10JsValueRefC1Ev
	leaq	34128(%rsp), %rdi
	callq	__ZN14altered_carbon2js10JsValueRefC1Ev
	leaq	34104(%rsp), %rdi
	callq	__ZN14altered_carbon2js10JsValueRefC1Ev
	leaq	34080(%rsp), %rdi
	callq	__ZN14altered_carbon2js10JsValueRefC1Ev
	leaq	34056(%rsp), %rdi
	callq	__ZN14altered_carbon2js10JsValueRefC1Ev
	leaq	34032(%rsp), %rdi
	callq	__ZN14altered_carbon2js10JsValueRefC1Ev
	leaq	34008(%rsp), %rdi
	callq	__ZN14altered_carbon2js10JsValueRefC1Ev
	leaq	33984(%rsp), %rdi
	callq	__ZN14altered_carbon2js10JsValueRefC1Ev
	leaq	33960(%rsp), %rdi
	callq	__ZN14altered_carbon2js10JsValueRefC1Ev
	leaq	33936(%rsp), %rdi
	callq	__ZN14altered_carbon2js10JsValueRefC1Ev
	leaq	33912(%rsp), %rdi
	callq	__ZN14altered_carbon2js10JsValueRefC1Ev
	leaq	33888(%rsp), %rdi
	callq	__ZN14altered_carbon2js10JsValueRefC1Ev
	leaq	33864(%rsp), %rdi
	callq	__ZN14altered_carbon2js10JsValueRefC1Ev
	leaq	33840(%rsp), %rdi
	callq	__ZN14altered_carbon2js10JsValueRefC1Ev
	leaq	33816(%rsp), %rdi
	callq	__ZN14altered_carbon2js10JsValueRefC1Ev
	leaq	33792(%rsp), %rdi
	callq	__ZN14altered_carbon2js10JsValueRefC1Ev
	leaq	33768(%rsp), %rdi
	callq	__ZN14altered_carbon2js10JsValueRefC1Ev
	leaq	33744(%rsp), %rdi
	callq	__ZN14altered_carbon2js10JsValueRefC1Ev
	leaq	33720(%rsp), %rdi
	callq	__ZN14altered_carbon2js10JsValueRefC1Ev
	leaq	33696(%rsp), %rdi
	callq	__ZN14altered_carbon2js10JsValueRefC1Ev
	leaq	33672(%rsp), %rdi
	callq	__ZN14altered_carbon2js10JsValueRefC1Ev
	leaq	33648(%rsp), %rdi
	callq	__ZN14altered_carbon2js10JsValueRefC1Ev
	leaq	33624(%rsp), %rdi
	callq	__ZN14altered_carbon2js10JsValueRefC1Ev
	leaq	33600(%rsp), %rdi
	callq	__ZN14altered_carbon2js10JsValueRefC1Ev
	leaq	33576(%rsp), %rdi
	callq	__ZN14altered_carbon2js10JsValueRefC1Ev
	leaq	33552(%rsp), %rdi
	callq	__ZN14altered_carbon2js10JsValueRefC1Ev
	leaq	33528(%rsp), %rdi
	callq	__ZN14altered_carbon2js10JsValueRefC1Ev
	leaq	33504(%rsp), %rdi
	callq	__ZN14altered_carbon2js10JsValueRefC1Ev
	leaq	33480(%rsp), %rdi
	callq	__ZN14altered_carbon2js10JsValueRefC1Ev
	leaq	33456(%rsp), %rdi
	callq	__ZN14altered_carbon2js10JsValueRefC1Ev
	leaq	33432(%rsp), %rdi
	callq	__ZN14altered_carbon2js10JsValueRefC1Ev
	leaq	33408(%rsp), %rdi
	callq	__ZN14altered_carbon2js10JsValueRefC1Ev
	leaq	33384(%rsp), %rdi
	callq	__ZN14altered_carbon2js10JsValueRefC1Ev
	leaq	33360(%rsp), %rdi
	callq	__ZN14altered_carbon2js10JsValueRefC1Ev
	leaq	33336(%rsp), %rdi
	callq	__ZN14altered_carbon2js10JsValueRefC1Ev
	leaq	33312(%rsp), %rdi
	callq	__ZN14altered_carbon2js10JsValueRefC1Ev
	leaq	33288(%rsp), %rdi
	callq	__ZN14altered_carbon2js10JsValueRefC1Ev
	leaq	33264(%rsp), %rdi
	callq	__ZN14altered_carbon2js10JsValueRefC1Ev
	leaq	33240(%rsp), %rdi
	callq	__ZN14altered_carbon2js10JsValueRefC1Ev
	leaq	33216(%rsp), %rdi
	callq	__ZN14altered_carbon2js10JsValueRefC1Ev
	leaq	33192(%rsp), %rdi
	callq	__ZN14altered_carbon2js10JsValueRefC1Ev
	leaq	33168(%rsp), %rdi
	callq	__ZN14altered_carbon2js10JsValueRefC1Ev
	leaq	33144(%rsp), %rdi
	callq	__ZN14altered_carbon2js10JsValueRefC1Ev
	leaq	33120(%rsp), %rdi
	callq	__ZN14altered_carbon2js10JsValueRefC1Ev
	leaq	33096(%rsp), %rdi
	callq	__ZN14altered_carbon2js10JsValueRefC1Ev
	leaq	33072(%rsp), %rdi
	callq	__ZN14altered_carbon2js10JsValueRefC1Ev
	leaq	33048(%rsp), %rdi
	callq	__ZN14altered_carbon2js10JsValueRefC1Ev
	leaq	33024(%rsp), %rdi
	callq	__ZN14altered_carbon2js10JsValueRefC1Ev
	leaq	33000(%rsp), %rdi
	callq	__ZN14altered_carbon2js10JsValueRefC1Ev
	leaq	32976(%rsp), %rdi
	callq	__ZN14altered_carbon2js10JsValueRefC1Ev
	leaq	32952(%rsp), %rdi
	callq	__ZN14altered_carbon2js10JsValueRefC1Ev
	leaq	32928(%rsp), %rdi
	callq	__ZN14altered_carbon2js10JsValueRefC1Ev
	leaq	32904(%rsp), %rdi
	callq	__ZN14altered_carbon2js10JsValueRefC1Ev
	leaq	32880(%rsp), %rdi
	callq	__ZN14altered_carbon2js10JsValueRefC1Ev
	leaq	32856(%rsp), %rdi
	callq	__ZN14altered_carbon2js10JsValueRefC1Ev
	leaq	32832(%rsp), %rdi
	callq	__ZN14altered_carbon2js10JsValueRefC1Ev
	leaq	32808(%rsp), %rdi
	callq	__ZN14altered_carbon2js10JsValueRefC1Ev
	leaq	32784(%rsp), %rdi
	callq	__ZN14altered_carbon2js10JsValueRefC1Ev
	leaq	32760(%rsp), %rdi
	callq	__ZN14altered_carbon2js10JsValueRefC1Ev
	leaq	32736(%rsp), %rdi
	callq	__ZN14altered_carbon2js10JsValueRefC1Ev
	leaq	32712(%rsp), %rdi
	callq	__ZN14altered_carbon2js10JsValueRefC1Ev
	leaq	32688(%rsp), %rdi
	callq	__ZN14altered_carbon2js10JsValueRefC1Ev
	leaq	32664(%rsp), %rdi
	callq	__ZN14altered_carbon2js10JsValueRefC1Ev
	leaq	32640(%rsp), %rdi
	callq	__ZN14altered_carbon2js10JsValueRefC1Ev
	leaq	32616(%rsp), %rdi
	callq	__ZN14altered_carbon2js10JsValueRefC1Ev
	leaq	32592(%rsp), %rdi
	callq	__ZN14altered_carbon2js10JsValueRefC1Ev
	leaq	32568(%rsp), %rdi
	callq	__ZN14altered_carbon2js10JsValueRefC1Ev
	leaq	32544(%rsp), %rdi
	callq	__ZN14altered_carbon2js10JsValueRefC1Ev
	leaq	32520(%rsp), %rdi
	callq	__ZN14altered_carbon2js10JsValueRefC1Ev
	leaq	32496(%rsp), %rdi
	callq	__ZN14altered_carbon2js10JsValueRefC1Ev
	leaq	32472(%rsp), %rdi
	callq	__ZN14altered_carbon2js10JsValueRefC1Ev
	leaq	32448(%rsp), %rdi
	callq	__ZN14altered_carbon2js10JsValueRefC1Ev
	leaq	32424(%rsp), %rdi
	callq	__ZN14altered_carbon2js10JsValueRefC1Ev
	leaq	32400(%rsp), %rdi
	callq	__ZN14altered_carbon2js10JsValueRefC1Ev
	leaq	32376(%rsp), %rdi
	callq	__ZN14altered_carbon2js10JsValueRefC1Ev
	leaq	32352(%rsp), %rdi
	callq	__ZN14altered_carbon2js10JsValueRefC1Ev
	leaq	32328(%rsp), %rdi
	callq	__ZN14altered_carbon2js10JsValueRefC1Ev
	leaq	32304(%rsp), %rdi
	callq	__ZN14altered_carbon2js10JsValueRefC1Ev
	leaq	32280(%rsp), %rdi
	callq	__ZN14altered_carbon2js10JsValueRefC1Ev
	leaq	32256(%rsp), %rdi
	callq	__ZN14altered_carbon2js10JsValueRefC1Ev
	leaq	32232(%rsp), %rdi
	callq	__ZN14altered_carbon2js10JsValueRefC1Ev
	leaq	32208(%rsp), %rdi
	callq	__ZN14altered_carbon2js10JsValueRefC1Ev
	leaq	32184(%rsp), %rdi
	callq	__ZN14altered_carbon2js10JsValueRefC1Ev
	leaq	32160(%rsp), %rdi
	callq	__ZN14altered_carbon2js10JsValueRefC1Ev
	leaq	32136(%rsp), %rdi
	callq	__ZN14altered_carbon2js10JsValueRefC1Ev
	leaq	32112(%rsp), %rdi
	callq	__ZN14altered_carbon2js10JsValueRefC1Ev
	leaq	32088(%rsp), %rdi
	callq	__ZN14altered_carbon2js10JsValueRefC1Ev
	leaq	32064(%rsp), %rdi
	callq	__ZN14altered_carbon2js10JsValueRefC1Ev
	leaq	32040(%rsp), %rdi
	callq	__ZN14altered_carbon2js10JsValueRefC1Ev
	leaq	32016(%rsp), %rdi
	callq	__ZN14altered_carbon2js10JsValueRefC1Ev
	leaq	31992(%rsp), %rdi
	callq	__ZN14altered_carbon2js10JsValueRefC1Ev
	leaq	31968(%rsp), %rdi
	callq	__ZN14altered_carbon2js10JsValueRefC1Ev
	leaq	31944(%rsp), %rdi
	callq	__ZN14altered_carbon2js10JsValueRefC1Ev
	leaq	31920(%rsp), %rdi
	callq	__ZN14altered_carbon2js10JsValueRefC1Ev
	leaq	31896(%rsp), %rdi
	callq	__ZN14altered_carbon2js10JsValueRefC1Ev
	leaq	31872(%rsp), %rdi
	callq	__ZN14altered_carbon2js10JsValueRefC1Ev
	leaq	31848(%rsp), %rdi
	callq	__ZN14altered_carbon2js10JsValueRefC1Ev
	leaq	31824(%rsp), %rdi
	callq	__ZN14altered_carbon2js10JsValueRefC1Ev
	leaq	31800(%rsp), %rdi
	callq	__ZN14altered_carbon2js10JsValueRefC1Ev
	leaq	31776(%rsp), %rdi
	callq	__ZN14altered_carbon2js10JsValueRefC1Ev
	leaq	31752(%rsp), %rdi
	callq	__ZN14altered_carbon2js10JsValueRefC1Ev
	leaq	31728(%rsp), %rdi
	callq	__ZN14altered_carbon2js10JsValueRefC1Ev
	leaq	31704(%rsp), %rdi
	callq	__ZN14altered_carbon2js10JsValueRefC1Ev
	leaq	31680(%rsp), %rdi
	callq	__ZN14altered_carbon2js10JsValueRefC1Ev
	leaq	31656(%rsp), %rdi
	callq	__ZN14altered_carbon2js10JsValueRefC1Ev
	leaq	31632(%rsp), %rdi
	callq	__ZN14altered_carbon2js10JsValueRefC1Ev
	leaq	31608(%rsp), %rdi
	callq	__ZN14altered_carbon2js10JsValueRefC1Ev
	leaq	31584(%rsp), %rdi
	callq	__ZN14altered_carbon2js10JsValueRefC1Ev
	leaq	31560(%rsp), %rdi
	callq	__ZN14altered_carbon2js10JsValueRefC1Ev
	leaq	31536(%rsp), %rdi
	callq	__ZN14altered_carbon2js10JsValueRefC1Ev
	leaq	31512(%rsp), %rdi
	callq	__ZN14altered_carbon2js10JsValueRefC1Ev
	leaq	31488(%rsp), %rdi
	callq	__ZN14altered_carbon2js10JsValueRefC1Ev
	leaq	31464(%rsp), %rdi
	callq	__ZN14altered_carbon2js10JsValueRefC1Ev
	leaq	31440(%rsp), %rdi
	callq	__ZN14altered_carbon2js10JsValueRefC1Ev
	leaq	31416(%rsp), %rdi
	callq	__ZN14altered_carbon2js10JsValueRefC1Ev
	leaq	31392(%rsp), %rdi
	callq	__ZN14altered_carbon2js10JsValueRefC1Ev
	leaq	31368(%rsp), %rdi
	callq	__ZN14altered_carbon2js10JsValueRefC1Ev
	leaq	31344(%rsp), %rdi
	callq	__ZN14altered_carbon2js10JsValueRefC1Ev
	leaq	31320(%rsp), %rdi
	callq	__ZN14altered_carbon2js10JsValueRefC1Ev
	leaq	31296(%rsp), %rdi
	callq	__ZN14altered_carbon2js10JsValueRefC1Ev
	leaq	31272(%rsp), %rdi
	callq	__ZN14altered_carbon2js10JsValueRefC1Ev
	leaq	31248(%rsp), %rdi
	callq	__ZN14altered_carbon2js10JsValueRefC1Ev
	leaq	31224(%rsp), %rdi
	callq	__ZN14altered_carbon2js10JsValueRefC1Ev
	leaq	31200(%rsp), %rdi
	callq	__ZN14altered_carbon2js10JsValueRefC1Ev
	leaq	31176(%rsp), %rdi
	callq	__ZN14altered_carbon2js10JsValueRefC1Ev
	leaq	31152(%rsp), %rdi
	callq	__ZN14altered_carbon2js10JsValueRefC1Ev
	leaq	31128(%rsp), %rdi
	callq	__ZN14altered_carbon2js10JsValueRefC1Ev
	leaq	31104(%rsp), %rdi
	callq	__ZN14altered_carbon2js10JsValueRefC1Ev
	leaq	31080(%rsp), %rdi
	callq	__ZN14altered_carbon2js10JsValueRefC1Ev
	leaq	31056(%rsp), %rdi
	callq	__ZN14altered_carbon2js10JsValueRefC1Ev
	leaq	31032(%rsp), %rdi
	callq	__ZN14altered_carbon2js10JsValueRefC1Ev
	leaq	31008(%rsp), %rdi
	callq	__ZN14altered_carbon2js10JsValueRefC1Ev
	leaq	30984(%rsp), %rdi
	callq	__ZN14altered_carbon2js10JsValueRefC1Ev
	leaq	30960(%rsp), %rdi
	callq	__ZN14altered_carbon2js10JsValueRefC1Ev
	leaq	30936(%rsp), %rdi
	callq	__ZN14altered_carbon2js10JsValueRefC1Ev
	leaq	30912(%rsp), %rdi
	callq	__ZN14altered_carbon2js10JsValueRefC1Ev
	leaq	30888(%rsp), %rdi
	callq	__ZN14altered_carbon2js10JsValueRefC1Ev
	leaq	30864(%rsp), %rdi
	callq	__ZN14altered_carbon2js10JsValueRefC1Ev
	leaq	30840(%rsp), %rdi
	callq	__ZN14altered_carbon2js10JsValueRefC1Ev
	leaq	30816(%rsp), %rdi
	callq	__ZN14altered_carbon2js10JsValueRefC1Ev
	leaq	30792(%rsp), %rdi
	callq	__ZN14altered_carbon2js10JsValueRefC1Ev
	leaq	30768(%rsp), %rdi
	callq	__ZN14altered_carbon2js10JsValueRefC1Ev
	leaq	30744(%rsp), %rdi
	callq	__ZN14altered_carbon2js10JsValueRefC1Ev
	leaq	30720(%rsp), %rdi
	callq	__ZN14altered_carbon2js10JsValueRefC1Ev
	leaq	30696(%rsp), %rdi
	callq	__ZN14altered_carbon2js10JsValueRefC1Ev
	leaq	30672(%rsp), %rdi
	callq	__ZN14altered_carbon2js10JsValueRefC1Ev
	leaq	30648(%rsp), %rdi
	callq	__ZN14altered_carbon2js10JsValueRefC1Ev
	leaq	30624(%rsp), %rdi
	callq	__ZN14altered_carbon2js10JsValueRefC1Ev
	leaq	30600(%rsp), %rdi
	callq	__ZN14altered_carbon2js10JsValueRefC1Ev
	leaq	30576(%rsp), %rdi
	callq	__ZN14altered_carbon2js10JsValueRefC1Ev
	leaq	30552(%rsp), %rdi
	callq	__ZN14altered_carbon2js10JsValueRefC1Ev
	leaq	30528(%rsp), %rdi
	callq	__ZN14altered_carbon2js10JsValueRefC1Ev
	leaq	30504(%rsp), %rdi
	callq	__ZN14altered_carbon2js10JsValueRefC1Ev
	leaq	30480(%rsp), %rdi
	callq	__ZN14altered_carbon2js10JsValueRefC1Ev
	leaq	30456(%rsp), %rdi
	callq	__ZN14altered_carbon2js10JsValueRefC1Ev
	leaq	30432(%rsp), %rdi
	callq	__ZN14altered_carbon2js10JsValueRefC1Ev
	leaq	30408(%rsp), %rdi
	callq	__ZN14altered_carbon2js10JsValueRefC1Ev
	leaq	30384(%rsp), %rdi
	callq	__ZN14altered_carbon2js10JsValueRefC1Ev
	leaq	30360(%rsp), %rdi
	callq	__ZN14altered_carbon2js10JsValueRefC1Ev
	leaq	30336(%rsp), %rdi
	callq	__ZN14altered_carbon2js10JsValueRefC1Ev
	leaq	30312(%rsp), %rdi
	callq	__ZN14altered_carbon2js10JsValueRefC1Ev
	leaq	30288(%rsp), %rdi
	callq	__ZN14altered_carbon2js10JsValueRefC1Ev
	leaq	30264(%rsp), %rdi
	callq	__ZN14altered_carbon2js10JsValueRefC1Ev
	leaq	30240(%rsp), %rdi
	callq	__ZN14altered_carbon2js10JsValueRefC1Ev
	leaq	30216(%rsp), %rdi
	callq	__ZN14altered_carbon2js10JsValueRefC1Ev
	leaq	30192(%rsp), %rdi
	callq	__ZN14altered_carbon2js10JsValueRefC1Ev
	leaq	30168(%rsp), %rdi
	callq	__ZN14altered_carbon2js10JsValueRefC1Ev
	leaq	30144(%rsp), %rdi
	callq	__ZN14altered_carbon2js10JsValueRefC1Ev
	leaq	30120(%rsp), %rdi
	callq	__ZN14altered_carbon2js10JsValueRefC1Ev
	leaq	30096(%rsp), %rdi
	callq	__ZN14altered_carbon2js10JsValueRefC1Ev
	leaq	30072(%rsp), %rdi
	callq	__ZN14altered_carbon2js10JsValueRefC1Ev
	leaq	30048(%rsp), %rdi
	callq	__ZN14altered_carbon2js10JsValueRefC1Ev
	leaq	30024(%rsp), %rdi
	callq	__ZN14altered_carbon2js10JsValueRefC1Ev
	leaq	30000(%rsp), %rdi
	callq	__ZN14altered_carbon2js10JsValueRefC1Ev
	leaq	29976(%rsp), %rdi
	callq	__ZN14altered_carbon2js10JsValueRefC1Ev
	leaq	29952(%rsp), %rdi
	callq	__ZN14altered_carbon2js10JsValueRefC1Ev
	leaq	29928(%rsp), %rdi
	callq	__ZN14altered_carbon2js10JsValueRefC1Ev
	leaq	29904(%rsp), %rdi
	callq	__ZN14altered_carbon2js10JsValueRefC1Ev
	leaq	29880(%rsp), %rdi
	callq	__ZN14altered_carbon2js10JsValueRefC1Ev
	leaq	29856(%rsp), %rdi
	callq	__ZN14altered_carbon2js10JsValueRefC1Ev
	leaq	29832(%rsp), %rdi
	callq	__ZN14altered_carbon2js10JsValueRefC1Ev
	leaq	29808(%rsp), %rdi
	callq	__ZN14altered_carbon2js10JsValueRefC1Ev
	leaq	29784(%rsp), %rdi
	callq	__ZN14altered_carbon2js10JsValueRefC1Ev
	leaq	29760(%rsp), %rdi
	callq	__ZN14altered_carbon2js10JsValueRefC1Ev
	leaq	29736(%rsp), %rdi
	callq	__ZN14altered_carbon2js10JsValueRefC1Ev
	leaq	29712(%rsp), %rdi
	callq	__ZN14altered_carbon2js10JsValueRefC1Ev
	leaq	29688(%rsp), %rdi
	callq	__ZN14altered_carbon2js10JsValueRefC1Ev
	leaq	29664(%rsp), %rdi
	callq	__ZN14altered_carbon2js10JsValueRefC1Ev
	leaq	29640(%rsp), %rdi
	callq	__ZN14altered_carbon2js10JsValueRefC1Ev
	leaq	29616(%rsp), %rdi
	callq	__ZN14altered_carbon2js10JsValueRefC1Ev
	leaq	29592(%rsp), %rdi
	callq	__ZN14altered_carbon2js10JsValueRefC1Ev
	leaq	29568(%rsp), %rdi
	callq	__ZN14altered_carbon2js10JsValueRefC1Ev
	leaq	29544(%rsp), %rdi
	callq	__ZN14altered_carbon2js10JsValueRefC1Ev
	leaq	29520(%rsp), %rdi
	callq	__ZN14altered_carbon2js10JsValueRefC1Ev
	leaq	29496(%rsp), %rdi
	callq	__ZN14altered_carbon2js10JsValueRefC1Ev
	leaq	29472(%rsp), %rdi
	callq	__ZN14altered_carbon2js10JsValueRefC1Ev
	leaq	29448(%rsp), %rdi
	callq	__ZN14altered_carbon2js10JsValueRefC1Ev
	leaq	29424(%rsp), %rdi
	callq	__ZN14altered_carbon2js10JsValueRefC1Ev
	leaq	29400(%rsp), %rdi
	callq	__ZN14altered_carbon2js10JsValueRefC1Ev
	leaq	29376(%rsp), %rdi
	callq	__ZN14altered_carbon2js10JsValueRefC1Ev
	leaq	29352(%rsp), %rdi
	callq	__ZN14altered_carbon2js10JsValueRefC1Ev
	leaq	29328(%rsp), %rdi
	callq	__ZN14altered_carbon2js10JsValueRefC1Ev
	leaq	29304(%rsp), %rdi
	callq	__ZN14altered_carbon2js10JsValueRefC1Ev
	leaq	29280(%rsp), %rdi
	callq	__ZN14altered_carbon2js10JsValueRefC1Ev
	leaq	29256(%rsp), %rdi
	callq	__ZN14altered_carbon2js10JsValueRefC1Ev
	leaq	29232(%rsp), %rdi
	callq	__ZN14altered_carbon2js10JsValueRefC1Ev
	leaq	29208(%rsp), %rdi
	callq	__ZN14altered_carbon2js10JsValueRefC1Ev
	leaq	29184(%rsp), %rdi
	callq	__ZN14altered_carbon2js10JsValueRefC1Ev
	leaq	29160(%rsp), %rdi
	callq	__ZN14altered_carbon2js10JsValueRefC1Ev
	leaq	29136(%rsp), %rdi
	callq	__ZN14altered_carbon2js10JsValueRefC1Ev
	leaq	29112(%rsp), %rdi
	callq	__ZN14altered_carbon2js10JsValueRefC1Ev
	leaq	29088(%rsp), %rdi
	callq	__ZN14altered_carbon2js10JsValueRefC1Ev
	leaq	29064(%rsp), %rdi
	callq	__ZN14altered_carbon2js10JsValueRefC1Ev
	leaq	29040(%rsp), %rdi
	callq	__ZN14altered_carbon2js10JsValueRefC1Ev
	leaq	29016(%rsp), %rdi
	callq	__ZN14altered_carbon2js10JsValueRefC1Ev
	leaq	28992(%rsp), %rdi
	callq	__ZN14altered_carbon2js10JsValueRefC1Ev
	leaq	28968(%rsp), %rdi
	callq	__ZN14altered_carbon2js10JsValueRefC1Ev
	leaq	28944(%rsp), %rdi
	callq	__ZN14altered_carbon2js10JsValueRefC1Ev
	leaq	28920(%rsp), %rdi
	callq	__ZN14altered_carbon2js10JsValueRefC1Ev
	leaq	28896(%rsp), %rdi
	callq	__ZN14altered_carbon2js10JsValueRefC1Ev
	leaq	28872(%rsp), %rdi
	callq	__ZN14altered_carbon2js10JsValueRefC1Ev
	leaq	28848(%rsp), %rdi
	callq	__ZN14altered_carbon2js10JsValueRefC1Ev
	leaq	28824(%rsp), %rdi
	callq	__ZN14altered_carbon2js10JsValueRefC1Ev
	leaq	28800(%rsp), %rdi
	callq	__ZN14altered_carbon2js10JsValueRefC1Ev
	leaq	28776(%rsp), %rdi
	callq	__ZN14altered_carbon2js10JsValueRefC1Ev
	leaq	28752(%rsp), %rdi
	callq	__ZN14altered_carbon2js10JsValueRefC1Ev
	leaq	28728(%rsp), %rdi
	callq	__ZN14altered_carbon2js10JsValueRefC1Ev
	leaq	28704(%rsp), %rdi
	callq	__ZN14altered_carbon2js10JsValueRefC1Ev
	leaq	28680(%rsp), %rdi
	callq	__ZN14altered_carbon2js10JsValueRefC1Ev
	leaq	28656(%rsp), %rdi
	callq	__ZN14altered_carbon2js10JsValueRefC1Ev
	leaq	28632(%rsp), %rdi
	callq	__ZN14altered_carbon2js10JsValueRefC1Ev
	leaq	28608(%rsp), %rdi
	callq	__ZN14altered_carbon2js10JsValueRefC1Ev
	leaq	28584(%rsp), %rdi
	callq	__ZN14altered_carbon2js10JsValueRefC1Ev
	leaq	28560(%rsp), %rdi
	callq	__ZN14altered_carbon2js10JsValueRefC1Ev
	leaq	28536(%rsp), %rdi
	callq	__ZN14altered_carbon2js10JsValueRefC1Ev
	leaq	28512(%rsp), %rdi
	callq	__ZN14altered_carbon2js10JsValueRefC1Ev
	leaq	28488(%rsp), %rdi
	callq	__ZN14altered_carbon2js10JsValueRefC1Ev
	leaq	28464(%rsp), %rdi
	callq	__ZN14altered_carbon2js10JsValueRefC1Ev
	leaq	28440(%rsp), %rdi
	callq	__ZN14altered_carbon2js10JsValueRefC1Ev
	leaq	28416(%rsp), %rdi
	callq	__ZN14altered_carbon2js10JsValueRefC1Ev
	leaq	28392(%rsp), %rdi
	callq	__ZN14altered_carbon2js10JsValueRefC1Ev
	leaq	28368(%rsp), %rdi
	callq	__ZN14altered_carbon2js10JsValueRefC1Ev
	leaq	28344(%rsp), %rdi
	callq	__ZN14altered_carbon2js10JsValueRefC1Ev
	leaq	28320(%rsp), %rdi
	callq	__ZN14altered_carbon2js10JsValueRefC1Ev
	leaq	28296(%rsp), %rdi
	callq	__ZN14altered_carbon2js10JsValueRefC1Ev
	leaq	28272(%rsp), %rdi
	callq	__ZN14altered_carbon2js10JsValueRefC1Ev
	leaq	28248(%rsp), %rdi
	callq	__ZN14altered_carbon2js10JsValueRefC1Ev
	leaq	28224(%rsp), %rdi
	callq	__ZN14altered_carbon2js10JsValueRefC1Ev
	leaq	28200(%rsp), %rdi
	callq	__ZN14altered_carbon2js10JsValueRefC1Ev
	leaq	28176(%rsp), %rdi
	callq	__ZN14altered_carbon2js10JsValueRefC1Ev
	leaq	28152(%rsp), %rdi
	callq	__ZN14altered_carbon2js10JsValueRefC1Ev
	leaq	28128(%rsp), %rdi
	callq	__ZN14altered_carbon2js10JsValueRefC1Ev
	leaq	28104(%rsp), %rdi
	callq	__ZN14altered_carbon2js10JsValueRefC1Ev
	leaq	28080(%rsp), %rdi
	callq	__ZN14altered_carbon2js10JsValueRefC1Ev
	leaq	28056(%rsp), %rdi
	callq	__ZN14altered_carbon2js10JsValueRefC1Ev
	leaq	28032(%rsp), %rdi
	callq	__ZN14altered_carbon2js10JsValueRefC1Ev
	leaq	28008(%rsp), %rdi
	callq	__ZN14altered_carbon2js10JsValueRefC1Ev
	leaq	27984(%rsp), %rdi
	callq	__ZN14altered_carbon2js10JsValueRefC1Ev
	leaq	27960(%rsp), %rdi
	callq	__ZN14altered_carbon2js10JsValueRefC1Ev
	leaq	27936(%rsp), %rdi
	callq	__ZN14altered_carbon2js10JsValueRefC1Ev
	leaq	27912(%rsp), %rdi
	callq	__ZN14altered_carbon2js10JsValueRefC1Ev
	leaq	27888(%rsp), %rdi
	callq	__ZN14altered_carbon2js10JsValueRefC1Ev
	leaq	27864(%rsp), %rdi
	callq	__ZN14altered_carbon2js10JsValueRefC1Ev
	leaq	27840(%rsp), %rdi
	callq	__ZN14altered_carbon2js10JsValueRefC1Ev
	leaq	27816(%rsp), %rdi
	callq	__ZN14altered_carbon2js10JsValueRefC1Ev
	leaq	27792(%rsp), %rdi
	callq	__ZN14altered_carbon2js10JsValueRefC1Ev
	leaq	27768(%rsp), %rdi
	callq	__ZN14altered_carbon2js10JsValueRefC1Ev
	leaq	27744(%rsp), %rdi
	callq	__ZN14altered_carbon2js10JsValueRefC1Ev
	leaq	27720(%rsp), %rdi
	callq	__ZN14altered_carbon2js10JsValueRefC1Ev
	leaq	27696(%rsp), %rdi
	callq	__ZN14altered_carbon2js10JsValueRefC1Ev
	leaq	27672(%rsp), %rdi
	callq	__ZN14altered_carbon2js10JsValueRefC1Ev
	leaq	27648(%rsp), %rdi
	callq	__ZN14altered_carbon2js10JsValueRefC1Ev
	leaq	27624(%rsp), %rdi
	callq	__ZN14altered_carbon2js10JsValueRefC1Ev
	leaq	27600(%rsp), %rdi
	callq	__ZN14altered_carbon2js10JsValueRefC1Ev
	leaq	27576(%rsp), %rdi
	callq	__ZN14altered_carbon2js10JsValueRefC1Ev
	leaq	27552(%rsp), %rdi
	callq	__ZN14altered_carbon2js10JsValueRefC1Ev
	leaq	27528(%rsp), %rdi
	callq	__ZN14altered_carbon2js10JsValueRefC1Ev
	leaq	27504(%rsp), %rdi
	callq	__ZN14altered_carbon2js10JsValueRefC1Ev
	leaq	27480(%rsp), %rdi
	callq	__ZN14altered_carbon2js10JsValueRefC1Ev
	leaq	27456(%rsp), %rdi
	callq	__ZN14altered_carbon2js10JsValueRefC1Ev
	leaq	27432(%rsp), %rdi
	callq	__ZN14altered_carbon2js10JsValueRefC1Ev
	leaq	27408(%rsp), %rdi
	callq	__ZN14altered_carbon2js10JsValueRefC1Ev
	leaq	27384(%rsp), %rdi
	callq	__ZN14altered_carbon2js10JsValueRefC1Ev
	leaq	27360(%rsp), %rdi
	callq	__ZN14altered_carbon2js10JsValueRefC1Ev
	leaq	27336(%rsp), %rdi
	callq	__ZN14altered_carbon2js10JsValueRefC1Ev
	leaq	27312(%rsp), %rdi
	callq	__ZN14altered_carbon2js10JsValueRefC1Ev
	leaq	27288(%rsp), %rdi
	callq	__ZN14altered_carbon2js10JsValueRefC1Ev
	leaq	27264(%rsp), %rdi
	callq	__ZN14altered_carbon2js10JsValueRefC1Ev
	leaq	27240(%rsp), %rdi
	callq	__ZN14altered_carbon2js10JsValueRefC1Ev
	leaq	27216(%rsp), %rdi
	callq	__ZN14altered_carbon2js10JsValueRefC1Ev
	leaq	27192(%rsp), %rdi
	callq	__ZN14altered_carbon2js10JsValueRefC1Ev
	leaq	27168(%rsp), %rdi
	callq	__ZN14altered_carbon2js10JsValueRefC1Ev
	leaq	27144(%rsp), %rdi
	callq	__ZN14altered_carbon2js10JsValueRefC1Ev
	leaq	27120(%rsp), %rdi
	callq	__ZN14altered_carbon2js10JsValueRefC1Ev
	leaq	27096(%rsp), %rdi
	callq	__ZN14altered_carbon2js10JsValueRefC1Ev
	leaq	27072(%rsp), %rdi
	callq	__ZN14altered_carbon2js10JsValueRefC1Ev
	leaq	27048(%rsp), %rdi
	callq	__ZN14altered_carbon2js10JsValueRefC1Ev
	leaq	27024(%rsp), %rdi
	callq	__ZN14altered_carbon2js10JsValueRefC1Ev
	leaq	27000(%rsp), %rdi
	callq	__ZN14altered_carbon2js10JsValueRefC1Ev
	leaq	26976(%rsp), %rdi
	callq	__ZN14altered_carbon2js10JsValueRefC1Ev
	leaq	26952(%rsp), %rdi
	callq	__ZN14altered_carbon2js10JsValueRefC1Ev
	leaq	26928(%rsp), %rdi
	callq	__ZN14altered_carbon2js10JsValueRefC1Ev
	leaq	26904(%rsp), %rdi
	callq	__ZN14altered_carbon2js10JsValueRefC1Ev
	leaq	26880(%rsp), %rdi
	callq	__ZN14altered_carbon2js10JsValueRefC1Ev
	leaq	26856(%rsp), %rdi
	callq	__ZN14altered_carbon2js10JsValueRefC1Ev
	leaq	26832(%rsp), %rdi
	callq	__ZN14altered_carbon2js10JsValueRefC1Ev
	leaq	26808(%rsp), %rdi
	callq	__ZN14altered_carbon2js10JsValueRefC1Ev
	leaq	26784(%rsp), %rdi
	callq	__ZN14altered_carbon2js10JsValueRefC1Ev
	leaq	26760(%rsp), %rdi
	callq	__ZN14altered_carbon2js10JsValueRefC1Ev
	leaq	26736(%rsp), %rdi
	callq	__ZN14altered_carbon2js10JsValueRefC1Ev
	leaq	26712(%rsp), %rdi
	callq	__ZN14altered_carbon2js10JsValueRefC1Ev
	leaq	26688(%rsp), %rdi
	callq	__ZN14altered_carbon2js10JsValueRefC1Ev
	leaq	26664(%rsp), %rdi
	callq	__ZN14altered_carbon2js10JsValueRefC1Ev
	leaq	26640(%rsp), %rdi
	callq	__ZN14altered_carbon2js10JsValueRefC1Ev
	leaq	26616(%rsp), %rdi
	callq	__ZN14altered_carbon2js10JsValueRefC1Ev
	leaq	26592(%rsp), %rdi
	callq	__ZN14altered_carbon2js10JsValueRefC1Ev
	leaq	26568(%rsp), %rdi
	callq	__ZN14altered_carbon2js10JsValueRefC1Ev
	leaq	26544(%rsp), %rdi
	callq	__ZN14altered_carbon2js10JsValueRefC1Ev
	leaq	26520(%rsp), %rdi
	callq	__ZN14altered_carbon2js10JsValueRefC1Ev
	leaq	26496(%rsp), %rdi
	callq	__ZN14altered_carbon2js10JsValueRefC1Ev
	leaq	26472(%rsp), %rdi
	callq	__ZN14altered_carbon2js10JsValueRefC1Ev
	leaq	26448(%rsp), %rdi
	callq	__ZN14altered_carbon2js10JsValueRefC1Ev
	leaq	26424(%rsp), %rdi
	callq	__ZN14altered_carbon2js10JsValueRefC1Ev
	leaq	26400(%rsp), %rdi
	callq	__ZN14altered_carbon2js10JsValueRefC1Ev
	leaq	26376(%rsp), %rdi
	callq	__ZN14altered_carbon2js10JsValueRefC1Ev
	leaq	26352(%rsp), %rdi
	callq	__ZN14altered_carbon2js10JsValueRefC1Ev
	leaq	26328(%rsp), %rdi
	callq	__ZN14altered_carbon2js10JsValueRefC1Ev
	leaq	26304(%rsp), %rdi
	callq	__ZN14altered_carbon2js10JsValueRefC1Ev
	leaq	26280(%rsp), %rdi
	callq	__ZN14altered_carbon2js10JsValueRefC1Ev
	leaq	26256(%rsp), %rdi
	callq	__ZN14altered_carbon2js10JsValueRefC1Ev
	leaq	26232(%rsp), %rdi
	callq	__ZN14altered_carbon2js10JsValueRefC1Ev
	leaq	26208(%rsp), %rdi
	callq	__ZN14altered_carbon2js10JsValueRefC1Ev
	leaq	26184(%rsp), %rdi
	callq	__ZN14altered_carbon2js10JsValueRefC1Ev
	leaq	26160(%rsp), %rdi
	callq	__ZN14altered_carbon2js10JsValueRefC1Ev
	leaq	26136(%rsp), %rdi
	callq	__ZN14altered_carbon2js10JsValueRefC1Ev
	leaq	26112(%rsp), %rdi
	callq	__ZN14altered_carbon2js10JsValueRefC1Ev
	leaq	26088(%rsp), %rdi
	callq	__ZN14altered_carbon2js10JsValueRefC1Ev
	leaq	26064(%rsp), %rdi
	callq	__ZN14altered_carbon2js10JsValueRefC1Ev
	leaq	26040(%rsp), %rdi
	callq	__ZN14altered_carbon2js10JsValueRefC1Ev
	leaq	26016(%rsp), %rdi
	callq	__ZN14altered_carbon2js10JsValueRefC1Ev
	leaq	25992(%rsp), %rdi
	callq	__ZN14altered_carbon2js10JsValueRefC1Ev
	leaq	25968(%rsp), %rdi
	callq	__ZN14altered_carbon2js10JsValueRefC1Ev
	leaq	25944(%rsp), %rdi
	callq	__ZN14altered_carbon2js10JsValueRefC1Ev
	leaq	25920(%rsp), %rdi
	callq	__ZN14altered_carbon2js10JsValueRefC1Ev
	leaq	25896(%rsp), %rdi
	callq	__ZN14altered_carbon2js10JsValueRefC1Ev
	leaq	25872(%rsp), %rdi
	callq	__ZN14altered_carbon2js10JsValueRefC1Ev
	leaq	25848(%rsp), %rdi
	callq	__ZN14altered_carbon2js10JsValueRefC1Ev
	leaq	25824(%rsp), %rdi
	callq	__ZN14altered_carbon2js10JsValueRefC1Ev
	leaq	25800(%rsp), %rdi
	callq	__ZN14altered_carbon2js10JsValueRefC1Ev
	leaq	25776(%rsp), %rdi
	callq	__ZN14altered_carbon2js10JsValueRefC1Ev
	leaq	25752(%rsp), %rdi
	callq	__ZN14altered_carbon2js10JsValueRefC1Ev
	leaq	25728(%rsp), %rdi
	callq	__ZN14altered_carbon2js10JsValueRefC1Ev
	leaq	25704(%rsp), %rdi
	callq	__ZN14altered_carbon2js10JsValueRefC1Ev
	leaq	25680(%rsp), %rdi
	callq	__ZN14altered_carbon2js10JsValueRefC1Ev
	leaq	25656(%rsp), %rdi
	callq	__ZN14altered_carbon2js10JsValueRefC1Ev
	leaq	25632(%rsp), %rdi
	callq	__ZN14altered_carbon2js10JsValueRefC1Ev
	leaq	25608(%rsp), %rdi
	callq	__ZN14altered_carbon2js10JsValueRefC1Ev
	leaq	25584(%rsp), %rdi
	callq	__ZN14altered_carbon2js10JsValueRefC1Ev
	leaq	25560(%rsp), %rdi
	callq	__ZN14altered_carbon2js10JsValueRefC1Ev
	leaq	25536(%rsp), %rdi
	callq	__ZN14altered_carbon2js10JsValueRefC1Ev
	leaq	25512(%rsp), %rdi
	callq	__ZN14altered_carbon2js10JsValueRefC1Ev
	leaq	25488(%rsp), %rdi
	callq	__ZN14altered_carbon2js10JsValueRefC1Ev
	leaq	25464(%rsp), %rdi
	callq	__ZN14altered_carbon2js10JsValueRefC1Ev
	leaq	25440(%rsp), %rdi
	callq	__ZN14altered_carbon2js10JsValueRefC1Ev
	leaq	25416(%rsp), %rdi
	callq	__ZN14altered_carbon2js10JsValueRefC1Ev
	leaq	25392(%rsp), %rdi
	callq	__ZN14altered_carbon2js10JsValueRefC1Ev
	leaq	25368(%rsp), %rdi
	callq	__ZN14altered_carbon2js10JsValueRefC1Ev
	leaq	25344(%rsp), %rdi
	callq	__ZN14altered_carbon2js10JsValueRefC1Ev
	leaq	25320(%rsp), %rdi
	callq	__ZN14altered_carbon2js10JsValueRefC1Ev
	leaq	25296(%rsp), %rdi
	callq	__ZN14altered_carbon2js10JsValueRefC1Ev
	leaq	25272(%rsp), %rdi
	callq	__ZN14altered_carbon2js10JsValueRefC1Ev
	leaq	25248(%rsp), %rdi
	callq	__ZN14altered_carbon2js10JsValueRefC1Ev
	leaq	25224(%rsp), %rdi
	callq	__ZN14altered_carbon2js10JsValueRefC1Ev
	leaq	25200(%rsp), %rdi
	callq	__ZN14altered_carbon2js10JsValueRefC1Ev
	leaq	25176(%rsp), %rdi
	callq	__ZN14altered_carbon2js10JsValueRefC1Ev
	leaq	25152(%rsp), %rdi
	callq	__ZN14altered_carbon2js10JsValueRefC1Ev
	leaq	25128(%rsp), %rdi
	callq	__ZN14altered_carbon2js10JsValueRefC1Ev
	leaq	25104(%rsp), %rdi
	callq	__ZN14altered_carbon2js10JsValueRefC1Ev
	leaq	25080(%rsp), %rdi
	callq	__ZN14altered_carbon2js10JsValueRefC1Ev
	leaq	25056(%rsp), %rdi
	callq	__ZN14altered_carbon2js10JsValueRefC1Ev
	leaq	25032(%rsp), %rdi
	callq	__ZN14altered_carbon2js10JsValueRefC1Ev
	leaq	25008(%rsp), %rdi
	callq	__ZN14altered_carbon2js10JsValueRefC1Ev
	leaq	24984(%rsp), %rdi
	callq	__ZN14altered_carbon2js10JsValueRefC1Ev
	leaq	24960(%rsp), %rdi
	callq	__ZN14altered_carbon2js10JsValueRefC1Ev
	leaq	24936(%rsp), %rdi
	callq	__ZN14altered_carbon2js10JsValueRefC1Ev
	leaq	24912(%rsp), %rdi
	callq	__ZN14altered_carbon2js10JsValueRefC1Ev
	leaq	24888(%rsp), %rdi
	callq	__ZN14altered_carbon2js10JsValueRefC1Ev
	leaq	24864(%rsp), %rdi
	callq	__ZN14altered_carbon2js10JsValueRefC1Ev
	leaq	24840(%rsp), %rdi
	callq	__ZN14altered_carbon2js10JsValueRefC1Ev
	leaq	24816(%rsp), %rdi
	callq	__ZN14altered_carbon2js10JsValueRefC1Ev
	leaq	24792(%rsp), %rdi
	callq	__ZN14altered_carbon2js10JsValueRefC1Ev
	leaq	24768(%rsp), %rdi
	callq	__ZN14altered_carbon2js10JsValueRefC1Ev
	leaq	24744(%rsp), %rdi
	callq	__ZN14altered_carbon2js10JsValueRefC1Ev
	leaq	24720(%rsp), %rdi
	callq	__ZN14altered_carbon2js10JsValueRefC1Ev
	leaq	24696(%rsp), %rdi
	callq	__ZN14altered_carbon2js10JsValueRefC1Ev
	leaq	24672(%rsp), %rdi
	callq	__ZN14altered_carbon2js10JsValueRefC1Ev
	leaq	24648(%rsp), %rdi
	callq	__ZN14altered_carbon2js10JsValueRefC1Ev
	leaq	24624(%rsp), %rdi
	callq	__ZN14altered_carbon2js10JsValueRefC1Ev
	leaq	24600(%rsp), %rdi
	callq	__ZN14altered_carbon2js10JsValueRefC1Ev
	leaq	24576(%rsp), %rdi
	callq	__ZN14altered_carbon2js10JsValueRefC1Ev
	leaq	24552(%rsp), %rdi
	callq	__ZN14altered_carbon2js10JsValueRefC1Ev
	leaq	24528(%rsp), %rdi
	callq	__ZN14altered_carbon2js10JsValueRefC1Ev
	leaq	24504(%rsp), %rdi
	callq	__ZN14altered_carbon2js10JsValueRefC1Ev
	leaq	24480(%rsp), %rdi
	callq	__ZN14altered_carbon2js10JsValueRefC1Ev
	leaq	24456(%rsp), %rdi
	callq	__ZN14altered_carbon2js10JsValueRefC1Ev
	leaq	24432(%rsp), %rdi
	callq	__ZN14altered_carbon2js10JsValueRefC1Ev
	leaq	24408(%rsp), %rdi
	callq	__ZN14altered_carbon2js10JsValueRefC1Ev
	leaq	24384(%rsp), %rdi
	callq	__ZN14altered_carbon2js10JsValueRefC1Ev
	leaq	24360(%rsp), %rdi
	callq	__ZN14altered_carbon2js10JsValueRefC1Ev
	leaq	24336(%rsp), %rdi
	callq	__ZN14altered_carbon2js10JsValueRefC1Ev
	leaq	24312(%rsp), %rdi
	callq	__ZN14altered_carbon2js10JsValueRefC1Ev
	leaq	24288(%rsp), %rdi
	callq	__ZN14altered_carbon2js10JsValueRefC1Ev
	leaq	24264(%rsp), %rdi
	callq	__ZN14altered_carbon2js10JsValueRefC1Ev
	leaq	24240(%rsp), %rdi
	callq	__ZN14altered_carbon2js10JsValueRefC1Ev
	leaq	24216(%rsp), %rdi
	callq	__ZN14altered_carbon2js10JsValueRefC1Ev
	leaq	24192(%rsp), %rdi
	callq	__ZN14altered_carbon2js10JsValueRefC1Ev
	leaq	24168(%rsp), %rdi
	callq	__ZN14altered_carbon2js10JsValueRefC1Ev
	leaq	24144(%rsp), %rdi
	callq	__ZN14altered_carbon2js10JsValueRefC1Ev
	leaq	24120(%rsp), %rdi
	callq	__ZN14altered_carbon2js10JsValueRefC1Ev
	leaq	24096(%rsp), %rdi
	callq	__ZN14altered_carbon2js10JsValueRefC1Ev
	leaq	24072(%rsp), %rdi
	callq	__ZN14altered_carbon2js10JsValueRefC1Ev
	leaq	24048(%rsp), %rdi
	callq	__ZN14altered_carbon2js10JsValueRefC1Ev
	leaq	24024(%rsp), %rdi
	callq	__ZN14altered_carbon2js10JsValueRefC1Ev
	leaq	24000(%rsp), %rdi
	callq	__ZN14altered_carbon2js10JsValueRefC1Ev
	leaq	23976(%rsp), %rdi
	callq	__ZN14altered_carbon2js10JsValueRefC1Ev
	leaq	23952(%rsp), %rdi
	callq	__ZN14altered_carbon2js10JsValueRefC1Ev
	leaq	23928(%rsp), %rdi
	callq	__ZN14altered_carbon2js10JsValueRefC1Ev
	leaq	23904(%rsp), %rdi
	callq	__ZN14altered_carbon2js10JsValueRefC1Ev
	leaq	23880(%rsp), %rdi
	callq	__ZN14altered_carbon2js10JsValueRefC1Ev
	leaq	23856(%rsp), %rdi
	callq	__ZN14altered_carbon2js10JsValueRefC1Ev
	leaq	23832(%rsp), %rdi
	callq	__ZN14altered_carbon2js10JsValueRefC1Ev
	leaq	23808(%rsp), %rdi
	callq	__ZN14altered_carbon2js10JsValueRefC1Ev
	leaq	23784(%rsp), %rdi
	callq	__ZN14altered_carbon2js10JsValueRefC1Ev
	leaq	23760(%rsp), %rdi
	callq	__ZN14altered_carbon2js10JsValueRefC1Ev
	leaq	23736(%rsp), %rdi
	callq	__ZN14altered_carbon2js10JsValueRefC1Ev
	leaq	23712(%rsp), %rdi
	callq	__ZN14altered_carbon2js10JsValueRefC1Ev
	leaq	23688(%rsp), %rdi
	callq	__ZN14altered_carbon2js10JsValueRefC1Ev
	leaq	23664(%rsp), %rdi
	callq	__ZN14altered_carbon2js10JsValueRefC1Ev
	leaq	23640(%rsp), %rdi
	callq	__ZN14altered_carbon2js10JsValueRefC1Ev
	leaq	23616(%rsp), %rdi
	callq	__ZN14altered_carbon2js10JsValueRefC1Ev
	leaq	23592(%rsp), %rdi
	callq	__ZN14altered_carbon2js10JsValueRefC1Ev
	leaq	23568(%rsp), %rdi
	callq	__ZN14altered_carbon2js10JsValueRefC1Ev
	leaq	23544(%rsp), %rdi
	callq	__ZN14altered_carbon2js10JsValueRefC1Ev
	leaq	23520(%rsp), %rdi
	callq	__ZN14altered_carbon2js10JsValueRefC1Ev
	leaq	23496(%rsp), %rdi
	callq	__ZN14altered_carbon2js10JsValueRefC1Ev
	leaq	23472(%rsp), %rdi
	callq	__ZN14altered_carbon2js10JsValueRefC1Ev
	leaq	23448(%rsp), %rdi
	callq	__ZN14altered_carbon2js10JsValueRefC1Ev
	leaq	23424(%rsp), %rdi
	callq	__ZN14altered_carbon2js10JsValueRefC1Ev
	leaq	23400(%rsp), %rdi
	callq	__ZN14altered_carbon2js10JsValueRefC1Ev
	leaq	23376(%rsp), %rdi
	callq	__ZN14altered_carbon2js10JsValueRefC1Ev
	leaq	23352(%rsp), %rdi
	callq	__ZN14altered_carbon2js10JsValueRefC1Ev
	leaq	23328(%rsp), %rdi
	callq	__ZN14altered_carbon2js10JsValueRefC1Ev
	leaq	23304(%rsp), %rdi
	callq	__ZN14altered_carbon2js10JsValueRefC1Ev
	leaq	23280(%rsp), %rdi
	callq	__ZN14altered_carbon2js10JsValueRefC1Ev
	leaq	23256(%rsp), %rdi
	callq	__ZN14altered_carbon2js10JsValueRefC1Ev
	leaq	23232(%rsp), %rdi
	callq	__ZN14altered_carbon2js10JsValueRefC1Ev
	leaq	23208(%rsp), %rdi
	callq	__ZN14altered_carbon2js10JsValueRefC1Ev
	leaq	23184(%rsp), %rdi
	callq	__ZN14altered_carbon2js10JsValueRefC1Ev
	leaq	23160(%rsp), %rdi
	callq	__ZN14altered_carbon2js10JsValueRefC1Ev
	leaq	23136(%rsp), %rdi
	callq	__ZN14altered_carbon2js10JsValueRefC1Ev
	leaq	23112(%rsp), %rdi
	callq	__ZN14altered_carbon2js10JsValueRefC1Ev
	leaq	23088(%rsp), %rdi
	callq	__ZN14altered_carbon2js10JsValueRefC1Ev
	leaq	23064(%rsp), %rdi
	callq	__ZN14altered_carbon2js10JsValueRefC1Ev
	leaq	23040(%rsp), %rdi
	callq	__ZN14altered_carbon2js10JsValueRefC1Ev
	leaq	23016(%rsp), %rdi
	callq	__ZN14altered_carbon2js10JsValueRefC1Ev
	leaq	22992(%rsp), %rdi
	callq	__ZN14altered_carbon2js10JsValueRefC1Ev
	leaq	22968(%rsp), %rdi
	callq	__ZN14altered_carbon2js10JsValueRefC1Ev
	leaq	22944(%rsp), %rdi
	callq	__ZN14altered_carbon2js10JsValueRefC1Ev
	leaq	22920(%rsp), %rdi
	callq	__ZN14altered_carbon2js10JsValueRefC1Ev
	leaq	22896(%rsp), %rdi
	callq	__ZN14altered_carbon2js10JsValueRefC1Ev
	leaq	22872(%rsp), %rdi
	callq	__ZN14altered_carbon2js10JsValueRefC1Ev
	leaq	22848(%rsp), %rdi
	callq	__ZN14altered_carbon2js10JsValueRefC1Ev
	leaq	22824(%rsp), %rdi
	callq	__ZN14altered_carbon2js10JsValueRefC1Ev
	leaq	22800(%rsp), %rdi
	callq	__ZN14altered_carbon2js10JsValueRefC1Ev
	leaq	22776(%rsp), %rdi
	callq	__ZN14altered_carbon2js10JsValueRefC1Ev
	leaq	22752(%rsp), %rdi
	callq	__ZN14altered_carbon2js10JsValueRefC1Ev
	leaq	22728(%rsp), %rdi
	callq	__ZN14altered_carbon2js10JsValueRefC1Ev
	leaq	22704(%rsp), %rdi
	callq	__ZN14altered_carbon2js10JsValueRefC1Ev
	leaq	22680(%rsp), %rdi
	callq	__ZN14altered_carbon2js10JsValueRefC1Ev
	leaq	22656(%rsp), %rdi
	callq	__ZN14altered_carbon2js10JsValueRefC1Ev
	leaq	22632(%rsp), %rdi
	callq	__ZN14altered_carbon2js10JsValueRefC1Ev
	leaq	22608(%rsp), %rdi
	callq	__ZN14altered_carbon2js10JsValueRefC1Ev
	leaq	22584(%rsp), %rdi
	callq	__ZN14altered_carbon2js10JsValueRefC1Ev
	leaq	22560(%rsp), %rdi
	callq	__ZN14altered_carbon2js10JsValueRefC1Ev
	leaq	22536(%rsp), %rdi
	callq	__ZN14altered_carbon2js10JsValueRefC1Ev
	leaq	22512(%rsp), %rdi
	callq	__ZN14altered_carbon2js10JsValueRefC1Ev
	leaq	22488(%rsp), %rdi
	callq	__ZN14altered_carbon2js10JsValueRefC1Ev
	leaq	22464(%rsp), %rdi
	callq	__ZN14altered_carbon2js10JsValueRefC1Ev
	leaq	22440(%rsp), %rdi
	callq	__ZN14altered_carbon2js10JsValueRefC1Ev
	leaq	22416(%rsp), %rdi
	callq	__ZN14altered_carbon2js10JsValueRefC1Ev
	leaq	22392(%rsp), %rdi
	callq	__ZN14altered_carbon2js10JsValueRefC1Ev
	leaq	22368(%rsp), %rdi
	callq	__ZN14altered_carbon2js10JsValueRefC1Ev
	leaq	22344(%rsp), %rdi
	callq	__ZN14altered_carbon2js10JsValueRefC1Ev
	leaq	22320(%rsp), %rdi
	callq	__ZN14altered_carbon2js10JsValueRefC1Ev
	leaq	22296(%rsp), %rdi
	callq	__ZN14altered_carbon2js10JsValueRefC1Ev
	leaq	22272(%rsp), %rdi
	callq	__ZN14altered_carbon2js10JsValueRefC1Ev
	leaq	22248(%rsp), %rdi
	callq	__ZN14altered_carbon2js10JsValueRefC1Ev
	leaq	22224(%rsp), %rdi
	callq	__ZN14altered_carbon2js10JsValueRefC1Ev
	leaq	22200(%rsp), %rdi
	callq	__ZN14altered_carbon2js10JsValueRefC1Ev
	leaq	22176(%rsp), %rdi
	callq	__ZN14altered_carbon2js10JsValueRefC1Ev
	leaq	22152(%rsp), %rdi
	callq	__ZN14altered_carbon2js10JsValueRefC1Ev
	leaq	22128(%rsp), %rdi
	callq	__ZN14altered_carbon2js10JsValueRefC1Ev
	leaq	22104(%rsp), %rdi
	callq	__ZN14altered_carbon2js10JsValueRefC1Ev
	leaq	22080(%rsp), %rdi
	callq	__ZN14altered_carbon2js10JsValueRefC1Ev
	leaq	22056(%rsp), %rdi
	callq	__ZN14altered_carbon2js10JsValueRefC1Ev
	leaq	22032(%rsp), %rdi
	callq	__ZN14altered_carbon2js10JsValueRefC1Ev
	leaq	22008(%rsp), %rdi
	callq	__ZN14altered_carbon2js10JsValueRefC1Ev
	leaq	21984(%rsp), %rdi
	callq	__ZN14altered_carbon2js10JsValueRefC1Ev
	leaq	21960(%rsp), %rdi
	callq	__ZN14altered_carbon2js10JsValueRefC1Ev
	leaq	21936(%rsp), %rdi
	callq	__ZN14altered_carbon2js10JsValueRefC1Ev
	leaq	21912(%rsp), %rdi
	callq	__ZN14altered_carbon2js10JsValueRefC1Ev
	leaq	21888(%rsp), %rdi
	callq	__ZN14altered_carbon2js10JsValueRefC1Ev
	leaq	21864(%rsp), %rdi
	callq	__ZN14altered_carbon2js10JsValueRefC1Ev
	leaq	21840(%rsp), %rdi
	callq	__ZN14altered_carbon2js10JsValueRefC1Ev
	leaq	21816(%rsp), %rdi
	callq	__ZN14altered_carbon2js10JsValueRefC1Ev
	leaq	21792(%rsp), %rdi
	callq	__ZN14altered_carbon2js10JsValueRefC1Ev
	leaq	21768(%rsp), %rdi
	callq	__ZN14altered_carbon2js10JsValueRefC1Ev
	leaq	21744(%rsp), %rdi
	callq	__ZN14altered_carbon2js10JsValueRefC1Ev
	leaq	21720(%rsp), %rdi
	callq	__ZN14altered_carbon2js10JsValueRefC1Ev
	leaq	21696(%rsp), %rdi
	callq	__ZN14altered_carbon2js10JsValueRefC1Ev
	leaq	21672(%rsp), %rdi
	callq	__ZN14altered_carbon2js10JsValueRefC1Ev
	leaq	21648(%rsp), %rdi
	callq	__ZN14altered_carbon2js10JsValueRefC1Ev
	leaq	21624(%rsp), %rdi
	callq	__ZN14altered_carbon2js10JsValueRefC1Ev
	leaq	21600(%rsp), %rdi
	callq	__ZN14altered_carbon2js10JsValueRefC1Ev
	leaq	21576(%rsp), %rdi
	callq	__ZN14altered_carbon2js10JsValueRefC1Ev
	leaq	21552(%rsp), %rdi
	callq	__ZN14altered_carbon2js10JsValueRefC1Ev
	leaq	21528(%rsp), %rdi
	callq	__ZN14altered_carbon2js10JsValueRefC1Ev
	leaq	21504(%rsp), %rdi
	callq	__ZN14altered_carbon2js10JsValueRefC1Ev
	leaq	21480(%rsp), %rdi
	callq	__ZN14altered_carbon2js10JsValueRefC1Ev
	leaq	21456(%rsp), %rdi
	callq	__ZN14altered_carbon2js10JsValueRefC1Ev
	leaq	21432(%rsp), %rdi
	callq	__ZN14altered_carbon2js10JsValueRefC1Ev
	leaq	21408(%rsp), %rdi
	callq	__ZN14altered_carbon2js10JsValueRefC1Ev
	leaq	21384(%rsp), %rdi
	callq	__ZN14altered_carbon2js10JsValueRefC1Ev
	leaq	21360(%rsp), %rdi
	callq	__ZN14altered_carbon2js10JsValueRefC1Ev
	leaq	21336(%rsp), %rdi
	callq	__ZN14altered_carbon2js10JsValueRefC1Ev
	leaq	21312(%rsp), %rdi
	callq	__ZN14altered_carbon2js10JsValueRefC1Ev
	leaq	21288(%rsp), %rdi
	callq	__ZN14altered_carbon2js10JsValueRefC1Ev
	leaq	21264(%rsp), %rdi
	callq	__ZN14altered_carbon2js10JsValueRefC1Ev
	leaq	21240(%rsp), %rdi
	callq	__ZN14altered_carbon2js10JsValueRefC1Ev
	leaq	21216(%rsp), %rdi
	callq	__ZN14altered_carbon2js10JsValueRefC1Ev
	leaq	21192(%rsp), %rdi
	callq	__ZN14altered_carbon2js10JsValueRefC1Ev
	leaq	21168(%rsp), %rdi
	callq	__ZN14altered_carbon2js10JsValueRefC1Ev
	leaq	21144(%rsp), %rdi
	callq	__ZN14altered_carbon2js10JsValueRefC1Ev
	leaq	21120(%rsp), %rdi
	callq	__ZN14altered_carbon2js10JsValueRefC1Ev
	leaq	21096(%rsp), %rdi
	callq	__ZN14altered_carbon2js10JsValueRefC1Ev
	leaq	21072(%rsp), %rdi
	callq	__ZN14altered_carbon2js10JsValueRefC1Ev
	leaq	21048(%rsp), %rdi
	callq	__ZN14altered_carbon2js10JsValueRefC1Ev
	leaq	21024(%rsp), %rdi
	callq	__ZN14altered_carbon2js10JsValueRefC1Ev
	leaq	21000(%rsp), %rdi
	callq	__ZN14altered_carbon2js10JsValueRefC1Ev
	leaq	20976(%rsp), %rdi
	callq	__ZN14altered_carbon2js10JsValueRefC1Ev
	leaq	20952(%rsp), %rdi
	callq	__ZN14altered_carbon2js10JsValueRefC1Ev
	leaq	20928(%rsp), %rdi
	callq	__ZN14altered_carbon2js10JsValueRefC1Ev
	leaq	20904(%rsp), %rdi
	callq	__ZN14altered_carbon2js10JsValueRefC1Ev
	leaq	20880(%rsp), %rdi
	callq	__ZN14altered_carbon2js10JsValueRefC1Ev
	leaq	20856(%rsp), %rdi
	callq	__ZN14altered_carbon2js10JsValueRefC1Ev
	leaq	20832(%rsp), %rdi
	callq	__ZN14altered_carbon2js10JsValueRefC1Ev
	leaq	20808(%rsp), %rdi
	callq	__ZN14altered_carbon2js10JsValueRefC1Ev
	leaq	20784(%rsp), %rdi
	callq	__ZN14altered_carbon2js10JsValueRefC1Ev
	leaq	20760(%rsp), %rdi
	callq	__ZN14altered_carbon2js10JsValueRefC1Ev
	leaq	20736(%rsp), %rdi
	callq	__ZN14altered_carbon2js10JsValueRefC1Ev
	leaq	20712(%rsp), %rdi
	callq	__ZN14altered_carbon2js10JsValueRefC1Ev
	leaq	20688(%rsp), %rdi
	callq	__ZN14altered_carbon2js10JsValueRefC1Ev
	leaq	20664(%rsp), %rdi
	callq	__ZN14altered_carbon2js10JsValueRefC1Ev
	leaq	20640(%rsp), %rdi
	callq	__ZN14altered_carbon2js10JsValueRefC1Ev
	leaq	20616(%rsp), %rdi
	callq	__ZN14altered_carbon2js10JsValueRefC1Ev
	leaq	20592(%rsp), %rdi
	callq	__ZN14altered_carbon2js10JsValueRefC1Ev
	leaq	20568(%rsp), %rdi
	callq	__ZN14altered_carbon2js10JsValueRefC1Ev
	leaq	20544(%rsp), %rdi
	callq	__ZN14altered_carbon2js10JsValueRefC1Ev
	leaq	20520(%rsp), %rdi
	callq	__ZN14altered_carbon2js10JsValueRefC1Ev
	leaq	20496(%rsp), %rdi
	callq	__ZN14altered_carbon2js10JsValueRefC1Ev
	leaq	20472(%rsp), %rdi
	callq	__ZN14altered_carbon2js10JsValueRefC1Ev
	leaq	20448(%rsp), %rdi
	callq	__ZN14altered_carbon2js10JsValueRefC1Ev
	leaq	20424(%rsp), %rdi
	callq	__ZN14altered_carbon2js10JsValueRefC1Ev
	leaq	20400(%rsp), %rdi
	callq	__ZN14altered_carbon2js10JsValueRefC1Ev
	leaq	20376(%rsp), %rdi
	callq	__ZN14altered_carbon2js10JsValueRefC1Ev
	leaq	20352(%rsp), %rdi
	callq	__ZN14altered_carbon2js10JsValueRefC1Ev
	leaq	20328(%rsp), %rdi
	callq	__ZN14altered_carbon2js10JsValueRefC1Ev
	leaq	20304(%rsp), %rdi
	callq	__ZN14altered_carbon2js10JsValueRefC1Ev
	leaq	20280(%rsp), %rdi
	callq	__ZN14altered_carbon2js10JsValueRefC1Ev
	leaq	20256(%rsp), %rdi
	callq	__ZN14altered_carbon2js10JsValueRefC1Ev
	leaq	20232(%rsp), %rdi
	callq	__ZN14altered_carbon2js10JsValueRefC1Ev
	leaq	20208(%rsp), %rdi
	callq	__ZN14altered_carbon2js10JsValueRefC1Ev
	leaq	20184(%rsp), %rdi
	callq	__ZN14altered_carbon2js10JsValueRefC1Ev
	leaq	20160(%rsp), %rdi
	callq	__ZN14altered_carbon2js10JsValueRefC1Ev
	leaq	20136(%rsp), %rdi
	callq	__ZN14altered_carbon2js10JsValueRefC1Ev
	leaq	20112(%rsp), %rdi
	callq	__ZN14altered_carbon2js10JsValueRefC1Ev
	leaq	20088(%rsp), %rdi
	callq	__ZN14altered_carbon2js10JsValueRefC1Ev
	leaq	20064(%rsp), %rdi
	callq	__ZN14altered_carbon2js10JsValueRefC1Ev
	leaq	20040(%rsp), %rdi
	callq	__ZN14altered_carbon2js10JsValueRefC1Ev
	leaq	20016(%rsp), %rdi
	callq	__ZN14altered_carbon2js10JsValueRefC1Ev
	leaq	19992(%rsp), %rdi
	callq	__ZN14altered_carbon2js10JsValueRefC1Ev
	leaq	19968(%rsp), %rdi
	callq	__ZN14altered_carbon2js10JsValueRefC1Ev
	leaq	19944(%rsp), %rdi
	callq	__ZN14altered_carbon2js10JsValueRefC1Ev
	leaq	19920(%rsp), %rdi
	callq	__ZN14altered_carbon2js10JsValueRefC1Ev
	leaq	19896(%rsp), %rdi
	callq	__ZN14altered_carbon2js10JsValueRefC1Ev
	leaq	19872(%rsp), %rdi
	callq	__ZN14altered_carbon2js10JsValueRefC1Ev
	leaq	19848(%rsp), %rdi
	callq	__ZN14altered_carbon2js10JsValueRefC1Ev
	leaq	19824(%rsp), %rdi
	callq	__ZN14altered_carbon2js10JsValueRefC1Ev
	leaq	19800(%rsp), %rdi
	callq	__ZN14altered_carbon2js10JsValueRefC1Ev
	leaq	19776(%rsp), %rdi
	callq	__ZN14altered_carbon2js10JsValueRefC1Ev
	leaq	19752(%rsp), %rdi
	callq	__ZN14altered_carbon2js10JsValueRefC1Ev
	leaq	19728(%rsp), %rdi
	callq	__ZN14altered_carbon2js10JsValueRefC1Ev
	leaq	19704(%rsp), %rdi
	callq	__ZN14altered_carbon2js10JsValueRefC1Ev
	leaq	19680(%rsp), %rdi
	callq	__ZN14altered_carbon2js10JsValueRefC1Ev
	leaq	19656(%rsp), %rdi
	callq	__ZN14altered_carbon2js10JsValueRefC1Ev
	leaq	19632(%rsp), %rdi
	callq	__ZN14altered_carbon2js10JsValueRefC1Ev
	leaq	19608(%rsp), %rdi
	callq	__ZN14altered_carbon2js10JsValueRefC1Ev
	leaq	19584(%rsp), %rdi
	callq	__ZN14altered_carbon2js10JsValueRefC1Ev
	leaq	19560(%rsp), %rdi
	callq	__ZN14altered_carbon2js10JsValueRefC1Ev
	leaq	19536(%rsp), %rdi
	callq	__ZN14altered_carbon2js10JsValueRefC1Ev
	leaq	19512(%rsp), %rdi
	callq	__ZN14altered_carbon2js10JsValueRefC1Ev
	leaq	19488(%rsp), %rdi
	callq	__ZN14altered_carbon2js10JsValueRefC1Ev
	leaq	19464(%rsp), %rdi
	callq	__ZN14altered_carbon2js10JsValueRefC1Ev
	leaq	19440(%rsp), %rdi
	callq	__ZN14altered_carbon2js10JsValueRefC1Ev
	leaq	19416(%rsp), %rdi
	callq	__ZN14altered_carbon2js10JsValueRefC1Ev
	leaq	19392(%rsp), %rdi
	callq	__ZN14altered_carbon2js10JsValueRefC1Ev
	leaq	19368(%rsp), %rdi
	callq	__ZN14altered_carbon2js10JsValueRefC1Ev
	leaq	19344(%rsp), %rdi
	callq	__ZN14altered_carbon2js10JsValueRefC1Ev
	leaq	19320(%rsp), %rdi
	callq	__ZN14altered_carbon2js10JsValueRefC1Ev
	leaq	19296(%rsp), %rdi
	callq	__ZN14altered_carbon2js10JsValueRefC1Ev
	leaq	19272(%rsp), %rdi
	callq	__ZN14altered_carbon2js10JsValueRefC1Ev
	leaq	19248(%rsp), %rdi
	callq	__ZN14altered_carbon2js10JsValueRefC1Ev
	leaq	19224(%rsp), %rdi
	callq	__ZN14altered_carbon2js10JsValueRefC1Ev
	leaq	19200(%rsp), %rdi
	callq	__ZN14altered_carbon2js10JsValueRefC1Ev
	leaq	19176(%rsp), %rdi
	callq	__ZN14altered_carbon2js10JsValueRefC1Ev
	leaq	19152(%rsp), %rdi
	callq	__ZN14altered_carbon2js10JsValueRefC1Ev
	leaq	19128(%rsp), %rdi
	callq	__ZN14altered_carbon2js10JsValueRefC1Ev
	leaq	19104(%rsp), %rdi
	callq	__ZN14altered_carbon2js10JsValueRefC1Ev
	leaq	19080(%rsp), %rdi
	callq	__ZN14altered_carbon2js10JsValueRefC1Ev
	leaq	19056(%rsp), %rdi
	callq	__ZN14altered_carbon2js10JsValueRefC1Ev
	leaq	19032(%rsp), %rdi
	callq	__ZN14altered_carbon2js10JsValueRefC1Ev
	leaq	19008(%rsp), %rdi
	callq	__ZN14altered_carbon2js10JsValueRefC1Ev
	leaq	18984(%rsp), %rdi
	callq	__ZN14altered_carbon2js10JsValueRefC1Ev
	leaq	18960(%rsp), %rdi
	callq	__ZN14altered_carbon2js10JsValueRefC1Ev
	leaq	18936(%rsp), %rdi
	callq	__ZN14altered_carbon2js10JsValueRefC1Ev
	leaq	18912(%rsp), %rdi
	callq	__ZN14altered_carbon2js10JsValueRefC1Ev
	leaq	18888(%rsp), %rdi
	callq	__ZN14altered_carbon2js10JsValueRefC1Ev
	leaq	18864(%rsp), %rdi
	callq	__ZN14altered_carbon2js10JsValueRefC1Ev
	leaq	18840(%rsp), %rdi
	callq	__ZN14altered_carbon2js10JsValueRefC1Ev
	leaq	18816(%rsp), %rdi
	callq	__ZN14altered_carbon2js10JsValueRefC1Ev
	leaq	18792(%rsp), %rdi
	callq	__ZN14altered_carbon2js10JsValueRefC1Ev
	leaq	18768(%rsp), %rdi
	callq	__ZN14altered_carbon2js10JsValueRefC1Ev
	leaq	18744(%rsp), %rdi
	callq	__ZN14altered_carbon2js10JsValueRefC1Ev
	leaq	18720(%rsp), %rdi
	callq	__ZN14altered_carbon2js10JsValueRefC1Ev
	leaq	18696(%rsp), %rdi
	callq	__ZN14altered_carbon2js10JsValueRefC1Ev
	leaq	18672(%rsp), %rdi
	callq	__ZN14altered_carbon2js10JsValueRefC1Ev
	leaq	18648(%rsp), %rdi
	callq	__ZN14altered_carbon2js10JsValueRefC1Ev
	leaq	18624(%rsp), %rdi
	callq	__ZN14altered_carbon2js10JsValueRefC1Ev
	leaq	18600(%rsp), %rdi
	callq	__ZN14altered_carbon2js10JsValueRefC1Ev
	leaq	18576(%rsp), %rdi
	callq	__ZN14altered_carbon2js10JsValueRefC1Ev
	leaq	18552(%rsp), %rdi
	callq	__ZN14altered_carbon2js10JsValueRefC1Ev
	leaq	18528(%rsp), %rdi
	callq	__ZN14altered_carbon2js10JsValueRefC1Ev
	leaq	18504(%rsp), %rdi
	callq	__ZN14altered_carbon2js10JsValueRefC1Ev
	leaq	18480(%rsp), %rdi
	callq	__ZN14altered_carbon2js10JsValueRefC1Ev
	leaq	18456(%rsp), %rdi
	callq	__ZN14altered_carbon2js10JsValueRefC1Ev
	leaq	18432(%rsp), %rdi
	callq	__ZN14altered_carbon2js10JsValueRefC1Ev
	leaq	18408(%rsp), %rdi
	callq	__ZN14altered_carbon2js10JsValueRefC1Ev
	leaq	18384(%rsp), %rdi
	callq	__ZN14altered_carbon2js10JsValueRefC1Ev
	leaq	18360(%rsp), %rdi
	callq	__ZN14altered_carbon2js10JsValueRefC1Ev
	leaq	18336(%rsp), %rdi
	callq	__ZN14altered_carbon2js10JsValueRefC1Ev
	leaq	18312(%rsp), %rdi
	callq	__ZN14altered_carbon2js10JsValueRefC1Ev
	leaq	18288(%rsp), %rdi
	callq	__ZN14altered_carbon2js10JsValueRefC1Ev
	leaq	18264(%rsp), %rdi
	callq	__ZN14altered_carbon2js10JsValueRefC1Ev
	leaq	18240(%rsp), %rdi
	callq	__ZN14altered_carbon2js10JsValueRefC1Ev
	leaq	18216(%rsp), %rdi
	callq	__ZN14altered_carbon2js10JsValueRefC1Ev
	leaq	18192(%rsp), %rdi
	callq	__ZN14altered_carbon2js10JsValueRefC1Ev
	leaq	18168(%rsp), %rdi
	callq	__ZN14altered_carbon2js10JsValueRefC1Ev
	leaq	18144(%rsp), %rdi
	callq	__ZN14altered_carbon2js10JsValueRefC1Ev
	leaq	18120(%rsp), %rdi
	callq	__ZN14altered_carbon2js10JsValueRefC1Ev
	leaq	18096(%rsp), %rdi
	callq	__ZN14altered_carbon2js10JsValueRefC1Ev
	leaq	18072(%rsp), %rdi
	callq	__ZN14altered_carbon2js10JsValueRefC1Ev
	leaq	18048(%rsp), %rdi
	callq	__ZN14altered_carbon2js10JsValueRefC1Ev
	leaq	18024(%rsp), %rdi
	callq	__ZN14altered_carbon2js10JsValueRefC1Ev
	leaq	18000(%rsp), %rdi
	callq	__ZN14altered_carbon2js10JsValueRefC1Ev
	leaq	17976(%rsp), %rdi
	callq	__ZN14altered_carbon2js10JsValueRefC1Ev
	leaq	17952(%rsp), %rdi
	callq	__ZN14altered_carbon2js10JsValueRefC1Ev
	leaq	17928(%rsp), %rdi
	callq	__ZN14altered_carbon2js10JsValueRefC1Ev
	leaq	17904(%rsp), %rdi
	callq	__ZN14altered_carbon2js10JsValueRefC1Ev
	leaq	17880(%rsp), %rdi
	callq	__ZN14altered_carbon2js10JsValueRefC1Ev
	leaq	17856(%rsp), %rdi
	callq	__ZN14altered_carbon2js10JsValueRefC1Ev
	leaq	17832(%rsp), %rdi
	callq	__ZN14altered_carbon2js10JsValueRefC1Ev
	leaq	17808(%rsp), %rdi
	callq	__ZN14altered_carbon2js10JsValueRefC1Ev
	leaq	17784(%rsp), %rdi
	callq	__ZN14altered_carbon2js10JsValueRefC1Ev
	leaq	17760(%rsp), %rdi
	callq	__ZN14altered_carbon2js10JsValueRefC1Ev
	leaq	17736(%rsp), %rdi
	callq	__ZN14altered_carbon2js10JsValueRefC1Ev
	leaq	17712(%rsp), %rdi
	callq	__ZN14altered_carbon2js10JsValueRefC1Ev
	leaq	17688(%rsp), %rdi
	callq	__ZN14altered_carbon2js10JsValueRefC1Ev
	leaq	17664(%rsp), %rdi
	callq	__ZN14altered_carbon2js10JsValueRefC1Ev
	leaq	17640(%rsp), %rdi
	callq	__ZN14altered_carbon2js10JsValueRefC1Ev
	leaq	17616(%rsp), %rdi
	callq	__ZN14altered_carbon2js10JsValueRefC1Ev
	leaq	17592(%rsp), %rdi
	callq	__ZN14altered_carbon2js10JsValueRefC1Ev
	leaq	17568(%rsp), %rdi
	callq	__ZN14altered_carbon2js10JsValueRefC1Ev
	leaq	17544(%rsp), %rdi
	callq	__ZN14altered_carbon2js10JsValueRefC1Ev
	leaq	17520(%rsp), %rdi
	callq	__ZN14altered_carbon2js10JsValueRefC1Ev
	leaq	17496(%rsp), %rdi
	callq	__ZN14altered_carbon2js10JsValueRefC1Ev
	leaq	17472(%rsp), %rdi
	callq	__ZN14altered_carbon2js10JsValueRefC1Ev
	leaq	17448(%rsp), %rdi
	callq	__ZN14altered_carbon2js10JsValueRefC1Ev
	leaq	17424(%rsp), %rdi
	callq	__ZN14altered_carbon2js10JsValueRefC1Ev
	leaq	17400(%rsp), %rdi
	callq	__ZN14altered_carbon2js10JsValueRefC1Ev
	leaq	17376(%rsp), %rdi
	callq	__ZN14altered_carbon2js10JsValueRefC1Ev
	leaq	17352(%rsp), %rdi
	callq	__ZN14altered_carbon2js10JsValueRefC1Ev
	leaq	17328(%rsp), %rdi
	callq	__ZN14altered_carbon2js10JsValueRefC1Ev
	leaq	17304(%rsp), %rdi
	callq	__ZN14altered_carbon2js10JsValueRefC1Ev
	leaq	17280(%rsp), %rdi
	callq	__ZN14altered_carbon2js10JsValueRefC1Ev
	leaq	17256(%rsp), %rdi
	callq	__ZN14altered_carbon2js10JsValueRefC1Ev
	leaq	17232(%rsp), %rdi
	callq	__ZN14altered_carbon2js10JsValueRefC1Ev
	leaq	17208(%rsp), %rdi
	callq	__ZN14altered_carbon2js10JsValueRefC1Ev
	leaq	17184(%rsp), %rdi
	callq	__ZN14altered_carbon2js10JsValueRefC1Ev
	leaq	17160(%rsp), %rdi
	callq	__ZN14altered_carbon2js10JsValueRefC1Ev
	leaq	17136(%rsp), %rdi
	callq	__ZN14altered_carbon2js10JsValueRefC1Ev
	leaq	17112(%rsp), %rdi
	callq	__ZN14altered_carbon2js10JsValueRefC1Ev
	leaq	17088(%rsp), %rdi
	callq	__ZN14altered_carbon2js10JsValueRefC1Ev
	leaq	17064(%rsp), %rdi
	callq	__ZN14altered_carbon2js10JsValueRefC1Ev
	leaq	17040(%rsp), %rdi
	callq	__ZN14altered_carbon2js10JsValueRefC1Ev
	leaq	17016(%rsp), %rdi
	callq	__ZN14altered_carbon2js10JsValueRefC1Ev
	leaq	16992(%rsp), %rdi
	callq	__ZN14altered_carbon2js10JsValueRefC1Ev
	leaq	16968(%rsp), %rdi
	callq	__ZN14altered_carbon2js10JsValueRefC1Ev
	leaq	16944(%rsp), %rdi
	callq	__ZN14altered_carbon2js10JsValueRefC1Ev
	leaq	16920(%rsp), %rdi
	callq	__ZN14altered_carbon2js10JsValueRefC1Ev
	leaq	16896(%rsp), %rdi
	callq	__ZN14altered_carbon2js10JsValueRefC1Ev
	leaq	16872(%rsp), %rdi
	callq	__ZN14altered_carbon2js10JsValueRefC1Ev
	leaq	16848(%rsp), %rdi
	callq	__ZN14altered_carbon2js10JsValueRefC1Ev
	leaq	16824(%rsp), %rdi
	callq	__ZN14altered_carbon2js10JsValueRefC1Ev
	leaq	16800(%rsp), %rdi
	callq	__ZN14altered_carbon2js10JsValueRefC1Ev
	leaq	16776(%rsp), %rdi
	callq	__ZN14altered_carbon2js10JsValueRefC1Ev
	leaq	16752(%rsp), %rdi
	callq	__ZN14altered_carbon2js10JsValueRefC1Ev
	leaq	16728(%rsp), %rdi
	callq	__ZN14altered_carbon2js10JsValueRefC1Ev
	leaq	16704(%rsp), %rdi
	callq	__ZN14altered_carbon2js10JsValueRefC1Ev
	leaq	16680(%rsp), %rdi
	callq	__ZN14altered_carbon2js10JsValueRefC1Ev
	leaq	16656(%rsp), %rdi
	callq	__ZN14altered_carbon2js10JsValueRefC1Ev
	leaq	16632(%rsp), %rdi
	callq	__ZN14altered_carbon2js10JsValueRefC1Ev
	leaq	16608(%rsp), %rdi
	callq	__ZN14altered_carbon2js10JsValueRefC1Ev
	leaq	16584(%rsp), %rdi
	callq	__ZN14altered_carbon2js10JsValueRefC1Ev
	leaq	16560(%rsp), %rdi
	callq	__ZN14altered_carbon2js10JsValueRefC1Ev
	leaq	16536(%rsp), %rdi
	callq	__ZN14altered_carbon2js10JsValueRefC1Ev
	leaq	16512(%rsp), %rdi
	callq	__ZN14altered_carbon2js10JsValueRefC1Ev
	leaq	16488(%rsp), %rdi
	callq	__ZN14altered_carbon2js10JsValueRefC1Ev
	leaq	16464(%rsp), %rdi
	callq	__ZN14altered_carbon2js10JsValueRefC1Ev
	leaq	16440(%rsp), %rdi
	callq	__ZN14altered_carbon2js10JsValueRefC1Ev
	leaq	16416(%rsp), %rdi
	callq	__ZN14altered_carbon2js10JsValueRefC1Ev
	leaq	16392(%rsp), %rdi
	callq	__ZN14altered_carbon2js10JsValueRefC1Ev
	leaq	16368(%rsp), %rdi
	callq	__ZN14altered_carbon2js10JsValueRefC1Ev
	leaq	16344(%rsp), %rdi
	callq	__ZN14altered_carbon2js10JsValueRefC1Ev
	leaq	16320(%rsp), %rdi
	callq	__ZN14altered_carbon2js10JsValueRefC1Ev
	leaq	16296(%rsp), %rdi
	callq	__ZN14altered_carbon2js10JsValueRefC1Ev
	leaq	16272(%rsp), %rdi
	callq	__ZN14altered_carbon2js10JsValueRefC1Ev
	leaq	16248(%rsp), %rdi
	callq	__ZN14altered_carbon2js10JsValueRefC1Ev
	leaq	16224(%rsp), %rdi
	callq	__ZN14altered_carbon2js10JsValueRefC1Ev
	leaq	16200(%rsp), %rdi
	callq	__ZN14altered_carbon2js10JsValueRefC1Ev
	leaq	16176(%rsp), %rdi
	callq	__ZN14altered_carbon2js10JsValueRefC1Ev
	leaq	16152(%rsp), %rdi
	callq	__ZN14altered_carbon2js10JsValueRefC1Ev
	leaq	16128(%rsp), %rdi
	callq	__ZN14altered_carbon2js10JsValueRefC1Ev
	leaq	16104(%rsp), %rdi
	callq	__ZN14altered_carbon2js10JsValueRefC1Ev
	leaq	16080(%rsp), %rdi
	callq	__ZN14altered_carbon2js10JsValueRefC1Ev
	leaq	16056(%rsp), %rdi
	callq	__ZN14altered_carbon2js10JsValueRefC1Ev
	leaq	16032(%rsp), %rdi
	callq	__ZN14altered_carbon2js10JsValueRefC1Ev
	leaq	16008(%rsp), %rdi
	callq	__ZN14altered_carbon2js10JsValueRefC1Ev
	leaq	15984(%rsp), %rdi
	callq	__ZN14altered_carbon2js10JsValueRefC1Ev
	leaq	15960(%rsp), %rdi
	callq	__ZN14altered_carbon2js10JsValueRefC1Ev
	leaq	15936(%rsp), %rdi
	callq	__ZN14altered_carbon2js10JsValueRefC1Ev
	leaq	15912(%rsp), %rdi
	callq	__ZN14altered_carbon2js10JsValueRefC1Ev
	leaq	15888(%rsp), %rdi
	callq	__ZN14altered_carbon2js10JsValueRefC1Ev
	leaq	15864(%rsp), %rdi
	callq	__ZN14altered_carbon2js10JsValueRefC1Ev
	leaq	15840(%rsp), %rdi
	callq	__ZN14altered_carbon2js10JsValueRefC1Ev
	leaq	15816(%rsp), %rdi
	callq	__ZN14altered_carbon2js10JsValueRefC1Ev
	leaq	15792(%rsp), %rdi
	callq	__ZN14altered_carbon2js10JsValueRefC1Ev
	leaq	15768(%rsp), %rdi
	callq	__ZN14altered_carbon2js10JsValueRefC1Ev
	leaq	15744(%rsp), %rdi
	callq	__ZN14altered_carbon2js10JsValueRefC1Ev
	leaq	15720(%rsp), %rdi
	callq	__ZN14altered_carbon2js10JsValueRefC1Ev
	leaq	15696(%rsp), %rdi
	callq	__ZN14altered_carbon2js10JsValueRefC1Ev
	leaq	15672(%rsp), %rdi
	callq	__ZN14altered_carbon2js10JsValueRefC1Ev
	leaq	15648(%rsp), %rdi
	callq	__ZN14altered_carbon2js10JsValueRefC1Ev
	leaq	15624(%rsp), %rdi
	callq	__ZN14altered_carbon2js10JsValueRefC1Ev
	leaq	15600(%rsp), %rdi
	callq	__ZN14altered_carbon2js10JsValueRefC1Ev
	leaq	15576(%rsp), %rdi
	callq	__ZN14altered_carbon2js10JsValueRefC1Ev
	leaq	15552(%rsp), %rdi
	callq	__ZN14altered_carbon2js10JsValueRefC1Ev
	leaq	15528(%rsp), %rdi
	callq	__ZN14altered_carbon2js10JsValueRefC1Ev
	leaq	15504(%rsp), %rdi
	callq	__ZN14altered_carbon2js10JsValueRefC1Ev
	leaq	15480(%rsp), %rdi
	callq	__ZN14altered_carbon2js10JsValueRefC1Ev
	leaq	15456(%rsp), %rdi
	callq	__ZN14altered_carbon2js10JsValueRefC1Ev
	leaq	15432(%rsp), %rdi
	callq	__ZN14altered_carbon2js10JsValueRefC1Ev
	leaq	15408(%rsp), %rdi
	callq	__ZN14altered_carbon2js10JsValueRefC1Ev
	leaq	15384(%rsp), %rdi
	callq	__ZN14altered_carbon2js10JsValueRefC1Ev
	leaq	15360(%rsp), %rdi
	callq	__ZN14altered_carbon2js10JsValueRefC1Ev
	leaq	15336(%rsp), %rdi
	callq	__ZN14altered_carbon2js10JsValueRefC1Ev
	leaq	15312(%rsp), %rdi
	callq	__ZN14altered_carbon2js10JsValueRefC1Ev
	leaq	15288(%rsp), %rdi
	callq	__ZN14altered_carbon2js10JsValueRefC1Ev
	leaq	15264(%rsp), %rdi
	callq	__ZN14altered_carbon2js10JsValueRefC1Ev
	leaq	15240(%rsp), %rdi
	callq	__ZN14altered_carbon2js10JsValueRefC1Ev
	leaq	15216(%rsp), %rdi
	callq	__ZN14altered_carbon2js10JsValueRefC1Ev
	leaq	15192(%rsp), %rdi
	callq	__ZN14altered_carbon2js10JsValueRefC1Ev
	leaq	15168(%rsp), %rdi
	callq	__ZN14altered_carbon2js10JsValueRefC1Ev
	leaq	15144(%rsp), %rdi
	callq	__ZN14altered_carbon2js10JsValueRefC1Ev
	leaq	15120(%rsp), %rdi
	callq	__ZN14altered_carbon2js10JsValueRefC1Ev
	leaq	15096(%rsp), %rdi
	callq	__ZN14altered_carbon2js10JsValueRefC1Ev
	leaq	15072(%rsp), %rdi
	callq	__ZN14altered_carbon2js10JsValueRefC1Ev
	leaq	15048(%rsp), %rdi
	callq	__ZN14altered_carbon2js10JsValueRefC1Ev
	leaq	15024(%rsp), %rdi
	callq	__ZN14altered_carbon2js10JsValueRefC1Ev
	leaq	15000(%rsp), %rdi
	callq	__ZN14altered_carbon2js10JsValueRefC1Ev
	leaq	14976(%rsp), %rdi
	callq	__ZN14altered_carbon2js10JsValueRefC1Ev
	leaq	14952(%rsp), %rdi
	callq	__ZN14altered_carbon2js10JsValueRefC1Ev
	leaq	14928(%rsp), %rdi
	callq	__ZN14altered_carbon2js10JsValueRefC1Ev
	leaq	14904(%rsp), %rdi
	callq	__ZN14altered_carbon2js10JsValueRefC1Ev
	leaq	14880(%rsp), %rdi
	callq	__ZN14altered_carbon2js10JsValueRefC1Ev
	leaq	14856(%rsp), %rdi
	callq	__ZN14altered_carbon2js10JsValueRefC1Ev
	leaq	14832(%rsp), %rdi
	callq	__ZN14altered_carbon2js10JsValueRefC1Ev
	leaq	14808(%rsp), %rdi
	callq	__ZN14altered_carbon2js10JsValueRefC1Ev
	leaq	14784(%rsp), %rdi
	callq	__ZN14altered_carbon2js10JsValueRefC1Ev
	leaq	14760(%rsp), %rdi
	callq	__ZN14altered_carbon2js10JsValueRefC1Ev
	leaq	14736(%rsp), %rdi
	callq	__ZN14altered_carbon2js10JsValueRefC1Ev
	leaq	14712(%rsp), %rdi
	callq	__ZN14altered_carbon2js10JsValueRefC1Ev
	leaq	14688(%rsp), %rdi
	callq	__ZN14altered_carbon2js10JsValueRefC1Ev
	leaq	14664(%rsp), %rdi
	callq	__ZN14altered_carbon2js10JsValueRefC1Ev
	leaq	14640(%rsp), %rdi
	callq	__ZN14altered_carbon2js10JsValueRefC1Ev
	leaq	14616(%rsp), %rdi
	callq	__ZN14altered_carbon2js10JsValueRefC1Ev
	leaq	14592(%rsp), %rdi
	callq	__ZN14altered_carbon2js10JsValueRefC1Ev
	leaq	14568(%rsp), %rdi
	callq	__ZN14altered_carbon2js10JsValueRefC1Ev
	leaq	14544(%rsp), %rdi
	callq	__ZN14altered_carbon2js10JsValueRefC1Ev
	leaq	14520(%rsp), %rdi
	callq	__ZN14altered_carbon2js10JsValueRefC1Ev
	leaq	14496(%rsp), %rdi
	callq	__ZN14altered_carbon2js10JsValueRefC1Ev
	leaq	14472(%rsp), %rdi
	callq	__ZN14altered_carbon2js10JsValueRefC1Ev
	leaq	14448(%rsp), %rdi
	callq	__ZN14altered_carbon2js10JsValueRefC1Ev
	leaq	14424(%rsp), %rdi
	callq	__ZN14altered_carbon2js10JsValueRefC1Ev
	leaq	14400(%rsp), %rdi
	callq	__ZN14altered_carbon2js10JsValueRefC1Ev
	leaq	14376(%rsp), %rdi
	callq	__ZN14altered_carbon2js10JsValueRefC1Ev
	leaq	14352(%rsp), %rdi
	callq	__ZN14altered_carbon2js10JsValueRefC1Ev
	leaq	14328(%rsp), %rdi
	callq	__ZN14altered_carbon2js10JsValueRefC1Ev
	leaq	14304(%rsp), %rdi
	callq	__ZN14altered_carbon2js10JsValueRefC1Ev
	leaq	14280(%rsp), %rdi
	callq	__ZN14altered_carbon2js10JsValueRefC1Ev
	leaq	14256(%rsp), %rdi
	callq	__ZN14altered_carbon2js10JsValueRefC1Ev
	leaq	14232(%rsp), %rdi
	callq	__ZN14altered_carbon2js10JsValueRefC1Ev
	leaq	14208(%rsp), %rdi
	callq	__ZN14altered_carbon2js10JsValueRefC1Ev
	leaq	14184(%rsp), %rdi
	callq	__ZN14altered_carbon2js10JsValueRefC1Ev
	leaq	14160(%rsp), %rdi
	callq	__ZN14altered_carbon2js10JsValueRefC1Ev
	leaq	14136(%rsp), %rdi
	callq	__ZN14altered_carbon2js10JsValueRefC1Ev
	leaq	14112(%rsp), %rdi
	callq	__ZN14altered_carbon2js10JsValueRefC1Ev
	leaq	14088(%rsp), %rdi
	callq	__ZN14altered_carbon2js10JsValueRefC1Ev
	leaq	14064(%rsp), %rdi
	callq	__ZN14altered_carbon2js10JsValueRefC1Ev
	leaq	14040(%rsp), %rdi
	callq	__ZN14altered_carbon2js10JsValueRefC1Ev
	leaq	14016(%rsp), %rdi
	callq	__ZN14altered_carbon2js10JsValueRefC1Ev
	leaq	13992(%rsp), %rdi
	callq	__ZN14altered_carbon2js10JsValueRefC1Ev
	leaq	13968(%rsp), %rdi
	callq	__ZN14altered_carbon2js10JsValueRefC1Ev
	leaq	13944(%rsp), %rdi
	callq	__ZN14altered_carbon2js10JsValueRefC1Ev
	leaq	13920(%rsp), %rdi
	callq	__ZN14altered_carbon2js10JsValueRefC1Ev
	leaq	13896(%rsp), %rdi
	callq	__ZN14altered_carbon2js10JsValueRefC1Ev
	leaq	13872(%rsp), %rdi
	callq	__ZN14altered_carbon2js10JsValueRefC1Ev
	leaq	13848(%rsp), %rdi
	callq	__ZN14altered_carbon2js10JsValueRefC1Ev
	leaq	13824(%rsp), %rdi
	callq	__ZN14altered_carbon2js10JsValueRefC1Ev
	leaq	13800(%rsp), %rdi
	callq	__ZN14altered_carbon2js10JsValueRefC1Ev
	leaq	13776(%rsp), %rdi
	callq	__ZN14altered_carbon2js10JsValueRefC1Ev
	leaq	13752(%rsp), %rdi
	callq	__ZN14altered_carbon2js10JsValueRefC1Ev
	leaq	13728(%rsp), %rdi
	callq	__ZN14altered_carbon2js10JsValueRefC1Ev
	leaq	13704(%rsp), %rdi
	callq	__ZN14altered_carbon2js10JsValueRefC1Ev
	leaq	13680(%rsp), %rdi
	callq	__ZN14altered_carbon2js10JsValueRefC1Ev
	leaq	13656(%rsp), %rdi
	callq	__ZN14altered_carbon2js10JsValueRefC1Ev
	leaq	13632(%rsp), %rdi
	callq	__ZN14altered_carbon2js10JsValueRefC1Ev
	leaq	13608(%rsp), %rdi
	callq	__ZN14altered_carbon2js10JsValueRefC1Ev
	leaq	13584(%rsp), %rdi
	callq	__ZN14altered_carbon2js10JsValueRefC1Ev
	leaq	13560(%rsp), %rdi
	callq	__ZN14altered_carbon2js10JsValueRefC1Ev
	leaq	13536(%rsp), %rdi
	callq	__ZN14altered_carbon2js10JsValueRefC1Ev
	leaq	13512(%rsp), %rdi
	callq	__ZN14altered_carbon2js10JsValueRefC1Ev
	leaq	13488(%rsp), %rdi
	callq	__ZN14altered_carbon2js10JsValueRefC1Ev
	leaq	13464(%rsp), %rdi
	callq	__ZN14altered_carbon2js10JsValueRefC1Ev
	leaq	13440(%rsp), %rdi
	callq	__ZN14altered_carbon2js10JsValueRefC1Ev
	leaq	13416(%rsp), %rdi
	callq	__ZN14altered_carbon2js10JsValueRefC1Ev
	leaq	13392(%rsp), %rdi
	callq	__ZN14altered_carbon2js10JsValueRefC1Ev
	leaq	13368(%rsp), %rdi
	callq	__ZN14altered_carbon2js10JsValueRefC1Ev
	leaq	13344(%rsp), %rdi
	callq	__ZN14altered_carbon2js10JsValueRefC1Ev
	leaq	13320(%rsp), %rdi
	callq	__ZN14altered_carbon2js10JsValueRefC1Ev
	leaq	13296(%rsp), %rdi
	callq	__ZN14altered_carbon2js10JsValueRefC1Ev
	leaq	13272(%rsp), %rdi
	callq	__ZN14altered_carbon2js10JsValueRefC1Ev
	leaq	13248(%rsp), %rdi
	callq	__ZN14altered_carbon2js10JsValueRefC1Ev
	leaq	13224(%rsp), %rdi
	callq	__ZN14altered_carbon2js10JsValueRefC1Ev
	leaq	13200(%rsp), %rdi
	callq	__ZN14altered_carbon2js10JsValueRefC1Ev
	leaq	13176(%rsp), %rdi
	callq	__ZN14altered_carbon2js10JsValueRefC1Ev
	leaq	13152(%rsp), %rdi
	callq	__ZN14altered_carbon2js10JsValueRefC1Ev
	leaq	13128(%rsp), %rdi
	callq	__ZN14altered_carbon2js10JsValueRefC1Ev
	leaq	13104(%rsp), %rdi
	callq	__ZN14altered_carbon2js10JsValueRefC1Ev
	leaq	13080(%rsp), %rdi
	callq	__ZN14altered_carbon2js10JsValueRefC1Ev
	leaq	13056(%rsp), %rdi
	callq	__ZN14altered_carbon2js10JsValueRefC1Ev
	leaq	13032(%rsp), %rdi
	callq	__ZN14altered_carbon2js10JsValueRefC1Ev
	leaq	13008(%rsp), %rdi
	callq	__ZN14altered_carbon2js10JsValueRefC1Ev
	leaq	12984(%rsp), %rdi
	callq	__ZN14altered_carbon2js10JsValueRefC1Ev
	leaq	12960(%rsp), %rdi
	callq	__ZN14altered_carbon2js10JsValueRefC1Ev
	leaq	12936(%rsp), %rdi
	callq	__ZN14altered_carbon2js10JsValueRefC1Ev
	leaq	12912(%rsp), %rdi
	callq	__ZN14altered_carbon2js10JsValueRefC1Ev
	leaq	12888(%rsp), %rdi
	callq	__ZN14altered_carbon2js10JsValueRefC1Ev
	leaq	12864(%rsp), %rdi
	callq	__ZN14altered_carbon2js10JsValueRefC1Ev
	leaq	12840(%rsp), %rdi
	callq	__ZN14altered_carbon2js10JsValueRefC1Ev
	leaq	12816(%rsp), %rdi
	callq	__ZN14altered_carbon2js10JsValueRefC1Ev
	leaq	12792(%rsp), %rdi
	callq	__ZN14altered_carbon2js10JsValueRefC1Ev
	leaq	12768(%rsp), %rdi
	callq	__ZN14altered_carbon2js10JsValueRefC1Ev
	leaq	12744(%rsp), %rdi
	callq	__ZN14altered_carbon2js10JsValueRefC1Ev
	leaq	12720(%rsp), %rdi
	callq	__ZN14altered_carbon2js10JsValueRefC1Ev
	leaq	12696(%rsp), %rdi
	callq	__ZN14altered_carbon2js10JsValueRefC1Ev
	leaq	12672(%rsp), %rdi
	callq	__ZN14altered_carbon2js10JsValueRefC1Ev
	leaq	12648(%rsp), %rdi
	callq	__ZN14altered_carbon2js10JsValueRefC1Ev
	leaq	12624(%rsp), %rdi
	callq	__ZN14altered_carbon2js10JsValueRefC1Ev
	leaq	12600(%rsp), %rdi
	callq	__ZN14altered_carbon2js10JsValueRefC1Ev
	leaq	12576(%rsp), %rdi
	callq	__ZN14altered_carbon2js10JsValueRefC1Ev
	leaq	12552(%rsp), %rdi
	callq	__ZN14altered_carbon2js10JsValueRefC1Ev
	leaq	12528(%rsp), %rdi
	callq	__ZN14altered_carbon2js10JsValueRefC1Ev
	leaq	12504(%rsp), %rdi
	callq	__ZN14altered_carbon2js10JsValueRefC1Ev
	leaq	12480(%rsp), %rdi
	callq	__ZN14altered_carbon2js10JsValueRefC1Ev
	leaq	12456(%rsp), %rdi
	callq	__ZN14altered_carbon2js10JsValueRefC1Ev
	leaq	12432(%rsp), %rdi
	callq	__ZN14altered_carbon2js10JsValueRefC1Ev
	leaq	12408(%rsp), %rdi
	callq	__ZN14altered_carbon2js10JsValueRefC1Ev
	leaq	12384(%rsp), %rdi
	callq	__ZN14altered_carbon2js10JsValueRefC1Ev
	leaq	12360(%rsp), %rdi
	callq	__ZN14altered_carbon2js10JsValueRefC1Ev
	leaq	12336(%rsp), %rdi
	callq	__ZN14altered_carbon2js10JsValueRefC1Ev
	leaq	12312(%rsp), %rdi
	callq	__ZN14altered_carbon2js10JsValueRefC1Ev
	leaq	12288(%rsp), %rdi
	callq	__ZN14altered_carbon2js10JsValueRefC1Ev
	leaq	12264(%rsp), %rdi
	callq	__ZN14altered_carbon2js10JsValueRefC1Ev
	leaq	12240(%rsp), %rdi
	callq	__ZN14altered_carbon2js10JsValueRefC1Ev
	leaq	12216(%rsp), %rdi
	callq	__ZN14altered_carbon2js10JsValueRefC1Ev
	leaq	12192(%rsp), %rdi
	callq	__ZN14altered_carbon2js10JsValueRefC1Ev
	leaq	12168(%rsp), %rdi
	callq	__ZN14altered_carbon2js10JsValueRefC1Ev
	leaq	12144(%rsp), %rdi
	callq	__ZN14altered_carbon2js10JsValueRefC1Ev
	leaq	12120(%rsp), %rdi
	callq	__ZN14altered_carbon2js10JsValueRefC1Ev
	leaq	12096(%rsp), %rdi
	callq	__ZN14altered_carbon2js10JsValueRefC1Ev
	leaq	12072(%rsp), %rdi
	callq	__ZN14altered_carbon2js10JsValueRefC1Ev
	leaq	12048(%rsp), %rdi
	callq	__ZN14altered_carbon2js10JsValueRefC1Ev
	leaq	12024(%rsp), %rdi
	callq	__ZN14altered_carbon2js10JsValueRefC1Ev
	leaq	12000(%rsp), %rdi
	callq	__ZN14altered_carbon2js10JsValueRefC1Ev
	leaq	11976(%rsp), %rdi
	callq	__ZN14altered_carbon2js10JsValueRefC1Ev
	leaq	11952(%rsp), %rdi
	callq	__ZN14altered_carbon2js10JsValueRefC1Ev
	leaq	11928(%rsp), %rdi
	callq	__ZN14altered_carbon2js10JsValueRefC1Ev
	leaq	11904(%rsp), %rdi
	callq	__ZN14altered_carbon2js10JsValueRefC1Ev
	leaq	11880(%rsp), %rdi
	callq	__ZN14altered_carbon2js10JsValueRefC1Ev
	leaq	11856(%rsp), %rdi
	callq	__ZN14altered_carbon2js10JsValueRefC1Ev
	leaq	11832(%rsp), %rdi
	callq	__ZN14altered_carbon2js10JsValueRefC1Ev
	leaq	11808(%rsp), %rdi
	callq	__ZN14altered_carbon2js10JsValueRefC1Ev
	leaq	11784(%rsp), %rdi
	callq	__ZN14altered_carbon2js10JsValueRefC1Ev
	leaq	11760(%rsp), %rdi
	callq	__ZN14altered_carbon2js10JsValueRefC1Ev
	leaq	11736(%rsp), %rdi
	callq	__ZN14altered_carbon2js10JsValueRefC1Ev
	leaq	11712(%rsp), %rdi
	callq	__ZN14altered_carbon2js10JsValueRefC1Ev
	leaq	11688(%rsp), %rdi
	callq	__ZN14altered_carbon2js10JsValueRefC1Ev
	leaq	11664(%rsp), %rdi
	callq	__ZN14altered_carbon2js10JsValueRefC1Ev
	leaq	11640(%rsp), %rdi
	callq	__ZN14altered_carbon2js10JsValueRefC1Ev
	leaq	11616(%rsp), %rdi
	callq	__ZN14altered_carbon2js10JsValueRefC1Ev
	leaq	11592(%rsp), %rdi
	callq	__ZN14altered_carbon2js10JsValueRefC1Ev
	leaq	11568(%rsp), %rdi
	callq	__ZN14altered_carbon2js10JsValueRefC1Ev
	leaq	11544(%rsp), %rdi
	callq	__ZN14altered_carbon2js10JsValueRefC1Ev
	leaq	11520(%rsp), %rdi
	callq	__ZN14altered_carbon2js10JsValueRefC1Ev
	leaq	11496(%rsp), %rdi
	callq	__ZN14altered_carbon2js10JsValueRefC1Ev
	leaq	11472(%rsp), %rdi
	callq	__ZN14altered_carbon2js10JsValueRefC1Ev
	leaq	11448(%rsp), %rdi
	callq	__ZN14altered_carbon2js10JsValueRefC1Ev
	leaq	11424(%rsp), %rdi
	callq	__ZN14altered_carbon2js10JsValueRefC1Ev
	leaq	11400(%rsp), %rdi
	callq	__ZN14altered_carbon2js10JsValueRefC1Ev
	leaq	11376(%rsp), %rdi
	callq	__ZN14altered_carbon2js10JsValueRefC1Ev
	leaq	11352(%rsp), %rdi
	callq	__ZN14altered_carbon2js10JsValueRefC1Ev
	leaq	11328(%rsp), %rdi
	callq	__ZN14altered_carbon2js10JsValueRefC1Ev
	leaq	11304(%rsp), %rdi
	callq	__ZN14altered_carbon2js10JsValueRefC1Ev
	leaq	11280(%rsp), %rdi
	callq	__ZN14altered_carbon2js10JsValueRefC1Ev
	leaq	11256(%rsp), %rdi
	callq	__ZN14altered_carbon2js10JsValueRefC1Ev
	leaq	11232(%rsp), %rdi
	callq	__ZN14altered_carbon2js10JsValueRefC1Ev
	leaq	11208(%rsp), %rdi
	callq	__ZN14altered_carbon2js10JsValueRefC1Ev
	leaq	11184(%rsp), %rdi
	callq	__ZN14altered_carbon2js10JsValueRefC1Ev
	leaq	11160(%rsp), %rdi
	callq	__ZN14altered_carbon2js10JsValueRefC1Ev
	leaq	11136(%rsp), %rdi
	callq	__ZN14altered_carbon2js10JsValueRefC1Ev
	leaq	11112(%rsp), %rdi
	callq	__ZN14altered_carbon2js10JsValueRefC1Ev
	leaq	11088(%rsp), %rdi
	callq	__ZN14altered_carbon2js10JsValueRefC1Ev
	leaq	11064(%rsp), %rdi
	callq	__ZN14altered_carbon2js10JsValueRefC1Ev
	leaq	11040(%rsp), %rdi
	callq	__ZN14altered_carbon2js10JsValueRefC1Ev
	leaq	11016(%rsp), %rdi
	callq	__ZN14altered_carbon2js10JsValueRefC1Ev
	leaq	10992(%rsp), %rdi
	callq	__ZN14altered_carbon2js10JsValueRefC1Ev
	leaq	10968(%rsp), %rdi
	callq	__ZN14altered_carbon2js10JsValueRefC1Ev
	leaq	10944(%rsp), %rdi
	callq	__ZN14altered_carbon2js10JsValueRefC1Ev
	leaq	10920(%rsp), %rdi
	callq	__ZN14altered_carbon2js10JsValueRefC1Ev
	leaq	10896(%rsp), %rdi
	callq	__ZN14altered_carbon2js10JsValueRefC1Ev
	leaq	10872(%rsp), %rdi
	callq	__ZN14altered_carbon2js10JsValueRefC1Ev
	leaq	10848(%rsp), %rdi
	callq	__ZN14altered_carbon2js10JsValueRefC1Ev
	leaq	10824(%rsp), %rdi
	callq	__ZN14altered_carbon2js10JsValueRefC1Ev
	leaq	10800(%rsp), %rdi
	callq	__ZN14altered_carbon2js10JsValueRefC1Ev
	leaq	10776(%rsp), %rdi
	callq	__ZN14altered_carbon2js10JsValueRefC1Ev
	leaq	10752(%rsp), %rdi
	callq	__ZN14altered_carbon2js10JsValueRefC1Ev
	leaq	10728(%rsp), %rdi
	callq	__ZN14altered_carbon2js10JsValueRefC1Ev
	leaq	10704(%rsp), %rdi
	callq	__ZN14altered_carbon2js10JsValueRefC1Ev
	leaq	10680(%rsp), %rdi
	callq	__ZN14altered_carbon2js10JsValueRefC1Ev
	leaq	10656(%rsp), %rdi
	callq	__ZN14altered_carbon2js10JsValueRefC1Ev
	leaq	10632(%rsp), %rdi
	callq	__ZN14altered_carbon2js10JsValueRefC1Ev
	leaq	10608(%rsp), %rdi
	callq	__ZN14altered_carbon2js10JsValueRefC1Ev
	leaq	10584(%rsp), %rdi
	callq	__ZN14altered_carbon2js10JsValueRefC1Ev
	leaq	10560(%rsp), %rdi
	callq	__ZN14altered_carbon2js10JsValueRefC1Ev
	leaq	10536(%rsp), %rdi
	callq	__ZN14altered_carbon2js10JsValueRefC1Ev
	leaq	10512(%rsp), %rdi
	callq	__ZN14altered_carbon2js10JsValueRefC1Ev
	leaq	10488(%rsp), %rdi
	callq	__ZN14altered_carbon2js10JsValueRefC1Ev
	leaq	10464(%rsp), %rdi
	callq	__ZN14altered_carbon2js10JsValueRefC1Ev
	leaq	10440(%rsp), %rdi
	callq	__ZN14altered_carbon2js10JsValueRefC1Ev
	leaq	10416(%rsp), %rdi
	callq	__ZN14altered_carbon2js10JsValueRefC1Ev
	leaq	10392(%rsp), %rdi
	callq	__ZN14altered_carbon2js10JsValueRefC1Ev
	leaq	10368(%rsp), %rdi
	callq	__ZN14altered_carbon2js10JsValueRefC1Ev
	leaq	10344(%rsp), %rdi
	callq	__ZN14altered_carbon2js10JsValueRefC1Ev
	leaq	10320(%rsp), %rdi
	callq	__ZN14altered_carbon2js10JsValueRefC1Ev
	leaq	10296(%rsp), %rdi
	callq	__ZN14altered_carbon2js10JsValueRefC1Ev
	leaq	10272(%rsp), %rdi
	callq	__ZN14altered_carbon2js10JsValueRefC1Ev
	leaq	10248(%rsp), %rdi
	callq	__ZN14altered_carbon2js10JsValueRefC1Ev
	leaq	10224(%rsp), %rdi
	callq	__ZN14altered_carbon2js10JsValueRefC1Ev
	leaq	10200(%rsp), %rdi
	callq	__ZN14altered_carbon2js10JsValueRefC1Ev
	leaq	10176(%rsp), %rdi
	callq	__ZN14altered_carbon2js10JsValueRefC1Ev
	leaq	10152(%rsp), %rdi
	callq	__ZN14altered_carbon2js10JsValueRefC1Ev
	leaq	10128(%rsp), %rdi
	callq	__ZN14altered_carbon2js10JsValueRefC1Ev
	leaq	10104(%rsp), %rdi
	callq	__ZN14altered_carbon2js10JsValueRefC1Ev
	leaq	10080(%rsp), %rdi
	callq	__ZN14altered_carbon2js10JsValueRefC1Ev
	leaq	10056(%rsp), %rdi
	callq	__ZN14altered_carbon2js10JsValueRefC1Ev
	leaq	10032(%rsp), %rdi
	callq	__ZN14altered_carbon2js10JsValueRefC1Ev
	leaq	10008(%rsp), %rdi
	callq	__ZN14altered_carbon2js10JsValueRefC1Ev
	leaq	9984(%rsp), %rdi
	callq	__ZN14altered_carbon2js10JsValueRefC1Ev
	leaq	9960(%rsp), %rdi
	callq	__ZN14altered_carbon2js10JsValueRefC1Ev
	leaq	9936(%rsp), %rdi
	callq	__ZN14altered_carbon2js10JsValueRefC1Ev
	leaq	9912(%rsp), %rdi
	callq	__ZN14altered_carbon2js10JsValueRefC1Ev
	leaq	9888(%rsp), %rdi
	callq	__ZN14altered_carbon2js10JsValueRefC1Ev
	leaq	9864(%rsp), %rdi
	callq	__ZN14altered_carbon2js10JsValueRefC1Ev
	leaq	9840(%rsp), %rdi
	callq	__ZN14altered_carbon2js10JsValueRefC1Ev
	leaq	9816(%rsp), %rdi
	callq	__ZN14altered_carbon2js10JsValueRefC1Ev
	leaq	9792(%rsp), %rdi
	callq	__ZN14altered_carbon2js10JsValueRefC1Ev
	leaq	9768(%rsp), %rdi
	callq	__ZN14altered_carbon2js10JsValueRefC1Ev
	leaq	9744(%rsp), %rdi
	callq	__ZN14altered_carbon2js10JsValueRefC1Ev
	leaq	9720(%rsp), %rdi
	callq	__ZN14altered_carbon2js10JsValueRefC1Ev
	leaq	9696(%rsp), %rdi
	callq	__ZN14altered_carbon2js10JsValueRefC1Ev
	leaq	9672(%rsp), %rdi
	callq	__ZN14altered_carbon2js10JsValueRefC1Ev
	leaq	9648(%rsp), %rdi
	callq	__ZN14altered_carbon2js10JsValueRefC1Ev
	leaq	9624(%rsp), %rdi
	callq	__ZN14altered_carbon2js10JsValueRefC1Ev
	leaq	9600(%rsp), %rdi
	callq	__ZN14altered_carbon2js10JsValueRefC1Ev
	leaq	9576(%rsp), %rdi
	callq	__ZN14altered_carbon2js10JsValueRefC1Ev
	leaq	9552(%rsp), %rdi
	callq	__ZN14altered_carbon2js10JsValueRefC1Ev
	leaq	9528(%rsp), %rdi
	callq	__ZN14altered_carbon2js10JsValueRefC1Ev
	leaq	9504(%rsp), %rdi
	callq	__ZN14altered_carbon2js10JsValueRefC1Ev
	leaq	9480(%rsp), %rdi
	callq	__ZN14altered_carbon2js10JsValueRefC1Ev
	leaq	9456(%rsp), %rdi
	callq	__ZN14altered_carbon2js10JsValueRefC1Ev
	leaq	9432(%rsp), %rdi
	callq	__ZN14altered_carbon2js10JsValueRefC1Ev
	leaq	9408(%rsp), %rdi
	callq	__ZN14altered_carbon2js10JsValueRefC1Ev
	leaq	9384(%rsp), %rdi
	callq	__ZN14altered_carbon2js10JsValueRefC1Ev
	leaq	9360(%rsp), %rdi
	callq	__ZN14altered_carbon2js10JsValueRefC1Ev
	leaq	9336(%rsp), %rdi
	callq	__ZN14altered_carbon2js10JsValueRefC1Ev
	leaq	9312(%rsp), %rdi
	callq	__ZN14altered_carbon2js10JsValueRefC1Ev
	leaq	9288(%rsp), %rdi
	callq	__ZN14altered_carbon2js10JsValueRefC1Ev
	leaq	9264(%rsp), %rdi
	callq	__ZN14altered_carbon2js10JsValueRefC1Ev
	leaq	9240(%rsp), %rdi
	callq	__ZN14altered_carbon2js10JsValueRefC1Ev
	leaq	9216(%rsp), %rdi
	callq	__ZN14altered_carbon2js10JsValueRefC1Ev
	leaq	9192(%rsp), %rdi
	callq	__ZN14altered_carbon2js10JsValueRefC1Ev
	leaq	9168(%rsp), %rdi
	callq	__ZN14altered_carbon2js10JsValueRefC1Ev
	leaq	9144(%rsp), %rdi
	callq	__ZN14altered_carbon2js10JsValueRefC1Ev
	leaq	9120(%rsp), %rdi
	callq	__ZN14altered_carbon2js10JsValueRefC1Ev
	leaq	9096(%rsp), %rdi
	callq	__ZN14altered_carbon2js10JsValueRefC1Ev
	leaq	9072(%rsp), %rdi
	callq	__ZN14altered_carbon2js10JsValueRefC1Ev
	leaq	9048(%rsp), %rdi
	callq	__ZN14altered_carbon2js10JsValueRefC1Ev
	leaq	9024(%rsp), %rdi
	callq	__ZN14altered_carbon2js10JsValueRefC1Ev
	leaq	9000(%rsp), %rdi
	callq	__ZN14altered_carbon2js10JsValueRefC1Ev
	leaq	8976(%rsp), %rdi
	callq	__ZN14altered_carbon2js10JsValueRefC1Ev
	leaq	8952(%rsp), %rdi
	callq	__ZN14altered_carbon2js10JsValueRefC1Ev
	leaq	8928(%rsp), %rdi
	callq	__ZN14altered_carbon2js10JsValueRefC1Ev
	leaq	8904(%rsp), %rdi
	callq	__ZN14altered_carbon2js10JsValueRefC1Ev
	leaq	8880(%rsp), %rdi
	callq	__ZN14altered_carbon2js10JsValueRefC1Ev
	leaq	8856(%rsp), %rdi
	callq	__ZN14altered_carbon2js10JsValueRefC1Ev
	leaq	8832(%rsp), %rdi
	callq	__ZN14altered_carbon2js10JsValueRefC1Ev
	leaq	8808(%rsp), %rdi
	callq	__ZN14altered_carbon2js10JsValueRefC1Ev
	leaq	8784(%rsp), %rdi
	callq	__ZN14altered_carbon2js10JsValueRefC1Ev
	leaq	8760(%rsp), %rdi
	callq	__ZN14altered_carbon2js10JsValueRefC1Ev
	leaq	8736(%rsp), %rdi
	callq	__ZN14altered_carbon2js10JsValueRefC1Ev
	leaq	8712(%rsp), %rdi
	callq	__ZN14altered_carbon2js10JsValueRefC1Ev
	leaq	8688(%rsp), %rdi
	callq	__ZN14altered_carbon2js10JsValueRefC1Ev
	leaq	8664(%rsp), %rdi
	callq	__ZN14altered_carbon2js10JsValueRefC1Ev
	leaq	8640(%rsp), %rdi
	callq	__ZN14altered_carbon2js10JsValueRefC1Ev
	leaq	8616(%rsp), %rdi
	callq	__ZN14altered_carbon2js10JsValueRefC1Ev
	leaq	8592(%rsp), %rdi
	callq	__ZN14altered_carbon2js10JsValueRefC1Ev
	leaq	8568(%rsp), %rdi
	callq	__ZN14altered_carbon2js10JsValueRefC1Ev
	leaq	8544(%rsp), %rdi
	callq	__ZN14altered_carbon2js10JsValueRefC1Ev
	leaq	8520(%rsp), %rdi
	callq	__ZN14altered_carbon2js10JsValueRefC1Ev
	leaq	8496(%rsp), %rdi
	callq	__ZN14altered_carbon2js10JsValueRefC1Ev
	leaq	8472(%rsp), %rdi
	callq	__ZN14altered_carbon2js10JsValueRefC1Ev
	leaq	8448(%rsp), %rdi
	callq	__ZN14altered_carbon2js10JsValueRefC1Ev
	leaq	8424(%rsp), %rdi
	callq	__ZN14altered_carbon2js10JsValueRefC1Ev
	leaq	8400(%rsp), %rdi
	callq	__ZN14altered_carbon2js10JsValueRefC1Ev
	leaq	8376(%rsp), %rdi
	callq	__ZN14altered_carbon2js10JsValueRefC1Ev
	leaq	8352(%rsp), %rdi
	callq	__ZN14altered_carbon2js10JsValueRefC1Ev
	leaq	8328(%rsp), %rdi
	callq	__ZN14altered_carbon2js10JsValueRefC1Ev
	leaq	8304(%rsp), %rdi
	callq	__ZN14altered_carbon2js10JsValueRefC1Ev
	leaq	8280(%rsp), %rdi
	callq	__ZN14altered_carbon2js10JsValueRefC1Ev
	leaq	8256(%rsp), %rdi
	callq	__ZN14altered_carbon2js10JsValueRefC1Ev
	leaq	8232(%rsp), %rdi
	callq	__ZN14altered_carbon2js10JsValueRefC1Ev
	leaq	8208(%rsp), %rdi
	callq	__ZN14altered_carbon2js10JsValueRefC1Ev
	leaq	8184(%rsp), %rdi
	callq	__ZN14altered_carbon2js10JsValueRefC1Ev
	leaq	8160(%rsp), %rdi
	callq	__ZN14altered_carbon2js10JsValueRefC1Ev
	leaq	8136(%rsp), %rdi
	callq	__ZN14altered_carbon2js10JsValueRefC1Ev
	leaq	8112(%rsp), %rdi
	callq	__ZN14altered_carbon2js10JsValueRefC1Ev
	leaq	8088(%rsp), %rdi
	callq	__ZN14altered_carbon2js10JsValueRefC1Ev
	leaq	8064(%rsp), %rdi
	callq	__ZN14altered_carbon2js10JsValueRefC1Ev
	leaq	8040(%rsp), %rdi
	callq	__ZN14altered_carbon2js10JsValueRefC1Ev
	leaq	8016(%rsp), %rdi
	callq	__ZN14altered_carbon2js10JsValueRefC1Ev
	leaq	7992(%rsp), %rdi
	callq	__ZN14altered_carbon2js10JsValueRefC1Ev
	leaq	7968(%rsp), %rdi
	callq	__ZN14altered_carbon2js10JsValueRefC1Ev
	leaq	7944(%rsp), %rdi
	callq	__ZN14altered_carbon2js10JsValueRefC1Ev
	leaq	7920(%rsp), %rdi
	callq	__ZN14altered_carbon2js10JsValueRefC1Ev
	leaq	7896(%rsp), %rdi
	callq	__ZN14altered_carbon2js10JsValueRefC1Ev
	leaq	7872(%rsp), %rdi
	callq	__ZN14altered_carbon2js10JsValueRefC1Ev
	leaq	7848(%rsp), %rdi
	callq	__ZN14altered_carbon2js10JsValueRefC1Ev
	leaq	7824(%rsp), %rdi
	callq	__ZN14altered_carbon2js10JsValueRefC1Ev
	leaq	7800(%rsp), %rdi
	callq	__ZN14altered_carbon2js10JsValueRefC1Ev
	leaq	7776(%rsp), %rdi
	callq	__ZN14altered_carbon2js10JsValueRefC1Ev
	leaq	7752(%rsp), %rdi
	callq	__ZN14altered_carbon2js10JsValueRefC1Ev
	leaq	7728(%rsp), %rdi
	callq	__ZN14altered_carbon2js10JsValueRefC1Ev
	leaq	7704(%rsp), %rdi
	callq	__ZN14altered_carbon2js10JsValueRefC1Ev
	leaq	7680(%rsp), %rdi
	callq	__ZN14altered_carbon2js10JsValueRefC1Ev
	leaq	7656(%rsp), %rdi
	callq	__ZN14altered_carbon2js10JsValueRefC1Ev
	leaq	7632(%rsp), %rdi
	callq	__ZN14altered_carbon2js10JsValueRefC1Ev
	leaq	7608(%rsp), %rdi
	callq	__ZN14altered_carbon2js10JsValueRefC1Ev
	leaq	7584(%rsp), %rdi
	callq	__ZN14altered_carbon2js10JsValueRefC1Ev
	leaq	7560(%rsp), %rdi
	callq	__ZN14altered_carbon2js10JsValueRefC1Ev
	leaq	7536(%rsp), %rdi
	callq	__ZN14altered_carbon2js10JsValueRefC1Ev
	leaq	7512(%rsp), %rdi
	callq	__ZN14altered_carbon2js10JsValueRefC1Ev
	leaq	7488(%rsp), %rdi
	callq	__ZN14altered_carbon2js10JsValueRefC1Ev
	leaq	7464(%rsp), %rdi
	callq	__ZN14altered_carbon2js10JsValueRefC1Ev
	leaq	7440(%rsp), %rdi
	callq	__ZN14altered_carbon2js10JsValueRefC1Ev
	leaq	7416(%rsp), %rdi
	callq	__ZN14altered_carbon2js10JsValueRefC1Ev
	leaq	7392(%rsp), %rdi
	callq	__ZN14altered_carbon2js10JsValueRefC1Ev
	leaq	7368(%rsp), %rdi
	callq	__ZN14altered_carbon2js10JsValueRefC1Ev
	leaq	7344(%rsp), %rdi
	callq	__ZN14altered_carbon2js10JsValueRefC1Ev
	leaq	7320(%rsp), %rdi
	callq	__ZN14altered_carbon2js10JsValueRefC1Ev
	leaq	7296(%rsp), %rdi
	callq	__ZN14altered_carbon2js10JsValueRefC1Ev
	leaq	7272(%rsp), %rdi
	callq	__ZN14altered_carbon2js10JsValueRefC1Ev
	leaq	7248(%rsp), %rdi
	callq	__ZN14altered_carbon2js10JsValueRefC1Ev
	leaq	7224(%rsp), %rdi
	callq	__ZN14altered_carbon2js10JsValueRefC1Ev
	leaq	7200(%rsp), %rdi
	callq	__ZN14altered_carbon2js10JsValueRefC1Ev
	leaq	7176(%rsp), %rdi
	callq	__ZN14altered_carbon2js10JsValueRefC1Ev
	leaq	7152(%rsp), %rdi
	callq	__ZN14altered_carbon2js10JsValueRefC1Ev
	leaq	7128(%rsp), %rdi
	callq	__ZN14altered_carbon2js10JsValueRefC1Ev
	leaq	7104(%rsp), %rdi
	callq	__ZN14altered_carbon2js10JsValueRefC1Ev
	leaq	7080(%rsp), %rdi
	callq	__ZN14altered_carbon2js10JsValueRefC1Ev
	leaq	7056(%rsp), %rdi
	callq	__ZN14altered_carbon2js10JsValueRefC1Ev
	leaq	7032(%rsp), %rdi
	callq	__ZN14altered_carbon2js10JsValueRefC1Ev
	leaq	7008(%rsp), %rdi
	callq	__ZN14altered_carbon2js10JsValueRefC1Ev
	leaq	6984(%rsp), %rdi
	callq	__ZN14altered_carbon2js10JsValueRefC1Ev
	leaq	6960(%rsp), %rdi
	callq	__ZN14altered_carbon2js10JsValueRefC1Ev
	leaq	6936(%rsp), %rdi
	callq	__ZN14altered_carbon2js10JsValueRefC1Ev
	leaq	6912(%rsp), %rdi
	callq	__ZN14altered_carbon2js10JsValueRefC1Ev
	leaq	6888(%rsp), %rdi
	callq	__ZN14altered_carbon2js10JsValueRefC1Ev
	leaq	6864(%rsp), %rdi
	callq	__ZN14altered_carbon2js10JsValueRefC1Ev
	leaq	6840(%rsp), %rdi
	callq	__ZN14altered_carbon2js10JsValueRefC1Ev
	leaq	6816(%rsp), %rdi
	callq	__ZN14altered_carbon2js10JsValueRefC1Ev
	leaq	6792(%rsp), %rdi
	callq	__ZN14altered_carbon2js10JsValueRefC1Ev
	leaq	6768(%rsp), %rdi
	callq	__ZN14altered_carbon2js10JsValueRefC1Ev
	leaq	6744(%rsp), %rdi
	callq	__ZN14altered_carbon2js10JsValueRefC1Ev
	leaq	6720(%rsp), %rdi
	callq	__ZN14altered_carbon2js10JsValueRefC1Ev
	leaq	6696(%rsp), %rdi
	callq	__ZN14altered_carbon2js10JsValueRefC1Ev
	leaq	6672(%rsp), %rdi
	callq	__ZN14altered_carbon2js10JsValueRefC1Ev
	leaq	6648(%rsp), %rdi
	callq	__ZN14altered_carbon2js10JsValueRefC1Ev
	leaq	6624(%rsp), %rdi
	callq	__ZN14altered_carbon2js10JsValueRefC1Ev
	leaq	6600(%rsp), %rdi
	callq	__ZN14altered_carbon2js10JsValueRefC1Ev
	leaq	6576(%rsp), %rdi
	callq	__ZN14altered_carbon2js10JsValueRefC1Ev
	leaq	6552(%rsp), %rdi
	callq	__ZN14altered_carbon2js10JsValueRefC1Ev
	leaq	6528(%rsp), %rdi
	callq	__ZN14altered_carbon2js10JsValueRefC1Ev
	leaq	6504(%rsp), %rdi
	callq	__ZN14altered_carbon2js10JsValueRefC1Ev
	leaq	6480(%rsp), %rdi
	callq	__ZN14altered_carbon2js10JsValueRefC1Ev
	leaq	6456(%rsp), %rdi
	callq	__ZN14altered_carbon2js10JsValueRefC1Ev
	leaq	6432(%rsp), %rdi
	callq	__ZN14altered_carbon2js10JsValueRefC1Ev
	leaq	6408(%rsp), %rdi
	callq	__ZN14altered_carbon2js10JsValueRefC1Ev
	leaq	6384(%rsp), %rdi
	callq	__ZN14altered_carbon2js10JsValueRefC1Ev
	leaq	6360(%rsp), %rdi
	callq	__ZN14altered_carbon2js10JsValueRefC1Ev
	leaq	6336(%rsp), %rdi
	callq	__ZN14altered_carbon2js10JsValueRefC1Ev
	leaq	6312(%rsp), %rdi
	callq	__ZN14altered_carbon2js10JsValueRefC1Ev
	leaq	6288(%rsp), %rdi
	callq	__ZN14altered_carbon2js10JsValueRefC1Ev
	leaq	6264(%rsp), %rdi
	callq	__ZN14altered_carbon2js10JsValueRefC1Ev
	leaq	6240(%rsp), %rdi
	callq	__ZN14altered_carbon2js10JsValueRefC1Ev
	leaq	6216(%rsp), %rdi
	callq	__ZN14altered_carbon2js10JsValueRefC1Ev
	leaq	6192(%rsp), %rdi
	callq	__ZN14altered_carbon2js10JsValueRefC1Ev
	leaq	6168(%rsp), %rdi
	callq	__ZN14altered_carbon2js10JsValueRefC1Ev
	leaq	6144(%rsp), %rdi
	callq	__ZN14altered_carbon2js10JsValueRefC1Ev
	leaq	6120(%rsp), %rdi
	callq	__ZN14altered_carbon2js10JsValueRefC1Ev
	leaq	6096(%rsp), %rdi
	callq	__ZN14altered_carbon2js10JsValueRefC1Ev
	leaq	6072(%rsp), %rdi
	callq	__ZN14altered_carbon2js10JsValueRefC1Ev
	leaq	6048(%rsp), %rdi
	callq	__ZN14altered_carbon2js10JsValueRefC1Ev
	leaq	6024(%rsp), %rdi
	callq	__ZN14altered_carbon2js10JsValueRefC1Ev
	leaq	6000(%rsp), %rdi
	callq	__ZN14altered_carbon2js10JsValueRefC1Ev
	leaq	5976(%rsp), %rdi
	callq	__ZN14altered_carbon2js10JsValueRefC1Ev
	leaq	5952(%rsp), %rdi
	callq	__ZN14altered_carbon2js10JsValueRefC1Ev
	leaq	5928(%rsp), %rdi
	callq	__ZN14altered_carbon2js10JsValueRefC1Ev
	leaq	5904(%rsp), %rdi
	callq	__ZN14altered_carbon2js10JsValueRefC1Ev
	leaq	5880(%rsp), %rdi
	callq	__ZN14altered_carbon2js10JsValueRefC1Ev
	leaq	5856(%rsp), %rdi
	callq	__ZN14altered_carbon2js10JsValueRefC1Ev
	leaq	5832(%rsp), %rdi
	callq	__ZN14altered_carbon2js10JsValueRefC1Ev
	leaq	5808(%rsp), %rdi
	callq	__ZN14altered_carbon2js10JsValueRefC1Ev
	leaq	5784(%rsp), %rdi
	callq	__ZN14altered_carbon2js10JsValueRefC1Ev
	leaq	5760(%rsp), %rdi
	callq	__ZN14altered_carbon2js10JsValueRefC1Ev
	leaq	5736(%rsp), %rdi
	callq	__ZN14altered_carbon2js10JsValueRefC1Ev
	leaq	5712(%rsp), %rdi
	callq	__ZN14altered_carbon2js10JsValueRefC1Ev
	leaq	5688(%rsp), %rdi
	callq	__ZN14altered_carbon2js10JsValueRefC1Ev
	leaq	5664(%rsp), %rdi
	callq	__ZN14altered_carbon2js10JsValueRefC1Ev
	leaq	5640(%rsp), %rdi
	callq	__ZN14altered_carbon2js10JsValueRefC1Ev
	leaq	5616(%rsp), %rdi
	callq	__ZN14altered_carbon2js10JsValueRefC1Ev
	leaq	5592(%rsp), %rdi
	callq	__ZN14altered_carbon2js10JsValueRefC1Ev
	leaq	5568(%rsp), %rdi
	callq	__ZN14altered_carbon2js10JsValueRefC1Ev
	leaq	5544(%rsp), %rdi
	callq	__ZN14altered_carbon2js10JsValueRefC1Ev
	leaq	5520(%rsp), %rdi
	callq	__ZN14altered_carbon2js10JsValueRefC1Ev
	leaq	5496(%rsp), %rdi
	callq	__ZN14altered_carbon2js10JsValueRefC1Ev
	leaq	5472(%rsp), %rdi
	callq	__ZN14altered_carbon2js10JsValueRefC1Ev
	leaq	5448(%rsp), %rdi
	callq	__ZN14altered_carbon2js10JsValueRefC1Ev
	leaq	5424(%rsp), %rdi
	callq	__ZN14altered_carbon2js10JsValueRefC1Ev
	leaq	5400(%rsp), %rdi
	callq	__ZN14altered_carbon2js10JsValueRefC1Ev
	leaq	5376(%rsp), %rdi
	callq	__ZN14altered_carbon2js10JsValueRefC1Ev
	leaq	5352(%rsp), %rdi
	callq	__ZN14altered_carbon2js10JsValueRefC1Ev
	leaq	5328(%rsp), %rdi
	callq	__ZN14altered_carbon2js10JsValueRefC1Ev
	leaq	5304(%rsp), %rdi
	callq	__ZN14altered_carbon2js10JsValueRefC1Ev
	leaq	5280(%rsp), %rdi
	callq	__ZN14altered_carbon2js10JsValueRefC1Ev
	leaq	5256(%rsp), %rdi
	callq	__ZN14altered_carbon2js10JsValueRefC1Ev
	leaq	5232(%rsp), %rdi
	callq	__ZN14altered_carbon2js10JsValueRefC1Ev
	leaq	5208(%rsp), %rdi
	callq	__ZN14altered_carbon2js10JsValueRefC1Ev
	leaq	5184(%rsp), %rdi
	callq	__ZN14altered_carbon2js10JsValueRefC1Ev
	leaq	5160(%rsp), %rdi
	callq	__ZN14altered_carbon2js10JsValueRefC1Ev
	leaq	5136(%rsp), %rdi
	callq	__ZN14altered_carbon2js10JsValueRefC1Ev
	leaq	5112(%rsp), %rdi
	callq	__ZN14altered_carbon2js10JsValueRefC1Ev
	leaq	5088(%rsp), %rdi
	callq	__ZN14altered_carbon2js10JsValueRefC1Ev
	leaq	5064(%rsp), %rdi
	callq	__ZN14altered_carbon2js10JsValueRefC1Ev
	leaq	5040(%rsp), %rdi
	callq	__ZN14altered_carbon2js10JsValueRefC1Ev
	leaq	5016(%rsp), %rdi
	callq	__ZN14altered_carbon2js10JsValueRefC1Ev
	leaq	4992(%rsp), %rdi
	callq	__ZN14altered_carbon2js10JsValueRefC1Ev
	leaq	4968(%rsp), %rdi
	callq	__ZN14altered_carbon2js10JsValueRefC1Ev
	leaq	4944(%rsp), %rdi
	callq	__ZN14altered_carbon2js10JsValueRefC1Ev
	leaq	4920(%rsp), %rdi
	callq	__ZN14altered_carbon2js10JsValueRefC1Ev
	leaq	4896(%rsp), %rdi
	callq	__ZN14altered_carbon2js10JsValueRefC1Ev
	leaq	4872(%rsp), %rdi
	callq	__ZN14altered_carbon2js10JsValueRefC1Ev
	leaq	4848(%rsp), %rdi
	callq	__ZN14altered_carbon2js10JsValueRefC1Ev
	leaq	4824(%rsp), %rdi
	callq	__ZN14altered_carbon2js10JsValueRefC1Ev
	leaq	4800(%rsp), %rdi
	callq	__ZN14altered_carbon2js10JsValueRefC1Ev
	leaq	4776(%rsp), %rdi
	callq	__ZN14altered_carbon2js10JsValueRefC1Ev
	leaq	4752(%rsp), %rdi
	callq	__ZN14altered_carbon2js10JsValueRefC1Ev
	leaq	4728(%rsp), %rdi
	callq	__ZN14altered_carbon2js10JsValueRefC1Ev
	leaq	4704(%rsp), %rdi
	callq	__ZN14altered_carbon2js10JsValueRefC1Ev
	leaq	4680(%rsp), %rdi
	callq	__ZN14altered_carbon2js10JsValueRefC1Ev
	leaq	4656(%rsp), %rdi
	callq	__ZN14altered_carbon2js10JsValueRefC1Ev
	leaq	4632(%rsp), %rdi
	callq	__ZN14altered_carbon2js10JsValueRefC1Ev
	leaq	4608(%rsp), %rdi
	callq	__ZN14altered_carbon2js10JsValueRefC1Ev
	leaq	4584(%rsp), %rdi
	callq	__ZN14altered_carbon2js10JsValueRefC1Ev
	leaq	4560(%rsp), %rdi
	callq	__ZN14altered_carbon2js10JsValueRefC1Ev
	leaq	4536(%rsp), %rdi
	callq	__ZN14altered_carbon2js10JsValueRefC1Ev
	leaq	4512(%rsp), %rdi
	callq	__ZN14altered_carbon2js10JsValueRefC1Ev
	leaq	4488(%rsp), %rdi
	callq	__ZN14altered_carbon2js10JsValueRefC1Ev
	leaq	4464(%rsp), %rdi
	callq	__ZN14altered_carbon2js10JsValueRefC1Ev
	leaq	4440(%rsp), %rdi
	callq	__ZN14altered_carbon2js10JsValueRefC1Ev
	leaq	4416(%rsp), %rdi
	callq	__ZN14altered_carbon2js10JsValueRefC1Ev
	leaq	4392(%rsp), %rdi
	callq	__ZN14altered_carbon2js10JsValueRefC1Ev
	leaq	4368(%rsp), %rdi
	callq	__ZN14altered_carbon2js10JsValueRefC1Ev
	leaq	4344(%rsp), %rdi
	callq	__ZN14altered_carbon2js10JsValueRefC1Ev
	leaq	4320(%rsp), %rdi
	callq	__ZN14altered_carbon2js10JsValueRefC1Ev
	leaq	4296(%rsp), %rdi
	callq	__ZN14altered_carbon2js10JsValueRefC1Ev
	leaq	4272(%rsp), %rdi
	callq	__ZN14altered_carbon2js10JsValueRefC1Ev
	leaq	4248(%rsp), %rdi
	callq	__ZN14altered_carbon2js10JsValueRefC1Ev
	leaq	4224(%rsp), %rdi
	callq	__ZN14altered_carbon2js10JsValueRefC1Ev
	leaq	4200(%rsp), %rdi
	callq	__ZN14altered_carbon2js10JsValueRefC1Ev
	leaq	4176(%rsp), %rdi
	callq	__ZN14altered_carbon2js10JsValueRefC1Ev
	leaq	4152(%rsp), %rdi
	callq	__ZN14altered_carbon2js10JsValueRefC1Ev
	leaq	4128(%rsp), %rdi
	callq	__ZN14altered_carbon2js10JsValueRefC1Ev
	leaq	4104(%rsp), %rdi
	callq	__ZN14altered_carbon2js10JsValueRefC1Ev
	leaq	4080(%rsp), %rdi
	callq	__ZN14altered_carbon2js10JsValueRefC1Ev
	leaq	4056(%rsp), %rdi
	callq	__ZN14altered_carbon2js10JsValueRefC1Ev
	leaq	4032(%rsp), %rdi
	callq	__ZN14altered_carbon2js10JsValueRefC1Ev
	leaq	4008(%rsp), %rdi
	callq	__ZN14altered_carbon2js10JsValueRefC1Ev
	leaq	3984(%rsp), %rdi
	callq	__ZN14altered_carbon2js10JsValueRefC1Ev
	leaq	3960(%rsp), %rdi
	callq	__ZN14altered_carbon2js10JsValueRefC1Ev
	leaq	3936(%rsp), %rdi
	callq	__ZN14altered_carbon2js10JsValueRefC1Ev
	leaq	3912(%rsp), %rdi
	callq	__ZN14altered_carbon2js10JsValueRefC1Ev
	leaq	3888(%rsp), %rdi
	callq	__ZN14altered_carbon2js10JsValueRefC1Ev
	leaq	3864(%rsp), %rdi
	callq	__ZN14altered_carbon2js10JsValueRefC1Ev
	leaq	3840(%rsp), %rdi
	callq	__ZN14altered_carbon2js10JsValueRefC1Ev
	leaq	3816(%rsp), %rdi
	callq	__ZN14altered_carbon2js10JsValueRefC1Ev
	leaq	3792(%rsp), %rdi
	callq	__ZN14altered_carbon2js10JsValueRefC1Ev
	leaq	3768(%rsp), %rdi
	callq	__ZN14altered_carbon2js10JsValueRefC1Ev
	leaq	3744(%rsp), %rdi
	callq	__ZN14altered_carbon2js10JsValueRefC1Ev
	leaq	3720(%rsp), %rdi
	callq	__ZN14altered_carbon2js10JsValueRefC1Ev
	leaq	3696(%rsp), %rdi
	callq	__ZN14altered_carbon2js10JsValueRefC1Ev
	leaq	3672(%rsp), %rdi
	callq	__ZN14altered_carbon2js10JsValueRefC1Ev
	leaq	3648(%rsp), %rdi
	callq	__ZN14altered_carbon2js10JsValueRefC1Ev
	leaq	3624(%rsp), %rdi
	callq	__ZN14altered_carbon2js10JsValueRefC1Ev
	leaq	3600(%rsp), %rdi
	callq	__ZN14altered_carbon2js10JsValueRefC1Ev
	leaq	3576(%rsp), %rdi
	callq	__ZN14altered_carbon2js10JsValueRefC1Ev
	leaq	3552(%rsp), %rdi
	callq	__ZN14altered_carbon2js10JsValueRefC1Ev
	leaq	3528(%rsp), %rdi
	callq	__ZN14altered_carbon2js10JsValueRefC1Ev
	leaq	3504(%rsp), %rdi
	callq	__ZN14altered_carbon2js10JsValueRefC1Ev
	leaq	3480(%rsp), %rdi
	callq	__ZN14altered_carbon2js10JsValueRefC1Ev
	leaq	3456(%rsp), %rdi
	callq	__ZN14altered_carbon2js10JsValueRefC1Ev
	leaq	3432(%rsp), %rdi
	callq	__ZN14altered_carbon2js10JsValueRefC1Ev
	leaq	3408(%rsp), %rdi
	callq	__ZN14altered_carbon2js10JsValueRefC1Ev
	leaq	3384(%rsp), %rdi
	callq	__ZN14altered_carbon2js10JsValueRefC1Ev
	leaq	3360(%rsp), %rdi
	callq	__ZN14altered_carbon2js10JsValueRefC1Ev
	leaq	3336(%rsp), %rdi
	callq	__ZN14altered_carbon2js10JsValueRefC1Ev
	leaq	3312(%rsp), %rdi
	callq	__ZN14altered_carbon2js10JsValueRefC1Ev
	leaq	3288(%rsp), %rdi
	callq	__ZN14altered_carbon2js10JsValueRefC1Ev
	leaq	3264(%rsp), %rdi
	callq	__ZN14altered_carbon2js10JsValueRefC1Ev
	leaq	3240(%rsp), %rdi
	callq	__ZN14altered_carbon2js10JsValueRefC1Ev
	leaq	3216(%rsp), %rdi
	callq	__ZN14altered_carbon2js10JsValueRefC1Ev
	leaq	3192(%rsp), %rdi
	callq	__ZN14altered_carbon2js10JsValueRefC1Ev
	leaq	3168(%rsp), %rdi
	callq	__ZN14altered_carbon2js10JsValueRefC1Ev
	leaq	3144(%rsp), %rdi
	callq	__ZN14altered_carbon2js10JsValueRefC1Ev
	leaq	3120(%rsp), %rdi
	callq	__ZN14altered_carbon2js10JsValueRefC1Ev
	leaq	3096(%rsp), %rdi
	callq	__ZN14altered_carbon2js10JsValueRefC1Ev
	leaq	3072(%rsp), %rdi
	callq	__ZN14altered_carbon2js10JsValueRefC1Ev
	leaq	3048(%rsp), %rdi
	callq	__ZN14altered_carbon2js10JsValueRefC1Ev
	leaq	3024(%rsp), %rdi
	callq	__ZN14altered_carbon2js10JsValueRefC1Ev
	leaq	3000(%rsp), %rdi
	callq	__ZN14altered_carbon2js10JsValueRefC1Ev
	leaq	2976(%rsp), %rdi
	callq	__ZN14altered_carbon2js10JsValueRefC1Ev
	leaq	2952(%rsp), %rdi
	callq	__ZN14altered_carbon2js10JsValueRefC1Ev
	leaq	2928(%rsp), %rdi
	callq	__ZN14altered_carbon2js10JsValueRefC1Ev
	leaq	2904(%rsp), %rdi
	callq	__ZN14altered_carbon2js10JsValueRefC1Ev
	leaq	2880(%rsp), %rdi
	callq	__ZN14altered_carbon2js10JsValueRefC1Ev
	leaq	2856(%rsp), %rdi
	callq	__ZN14altered_carbon2js10JsValueRefC1Ev
	leaq	2832(%rsp), %rdi
	callq	__ZN14altered_carbon2js10JsValueRefC1Ev
	leaq	2808(%rsp), %rdi
	callq	__ZN14altered_carbon2js10JsValueRefC1Ev
	leaq	2784(%rsp), %rdi
	callq	__ZN14altered_carbon2js10JsValueRefC1Ev
	leaq	2760(%rsp), %rdi
	callq	__ZN14altered_carbon2js10JsValueRefC1Ev
	leaq	2736(%rsp), %rdi
	callq	__ZN14altered_carbon2js10JsValueRefC1Ev
	leaq	2712(%rsp), %rdi
	callq	__ZN14altered_carbon2js10JsValueRefC1Ev
	leaq	2688(%rsp), %rdi
	callq	__ZN14altered_carbon2js10JsValueRefC1Ev
	leaq	2664(%rsp), %rdi
	callq	__ZN14altered_carbon2js10JsValueRefC1Ev
	leaq	2640(%rsp), %rdi
	callq	__ZN14altered_carbon2js10JsValueRefC1Ev
	leaq	2616(%rsp), %rdi
	callq	__ZN14altered_carbon2js10JsValueRefC1Ev
	leaq	2592(%rsp), %rdi
	callq	__ZN14altered_carbon2js10JsValueRefC1Ev
	leaq	2568(%rsp), %rdi
	callq	__ZN14altered_carbon2js10JsValueRefC1Ev
	leaq	2544(%rsp), %rdi
	callq	__ZN14altered_carbon2js10JsValueRefC1Ev
	leaq	2520(%rsp), %rdi
	callq	__ZN14altered_carbon2js10JsValueRefC1Ev
	leaq	2496(%rsp), %rdi
	callq	__ZN14altered_carbon2js10JsValueRefC1Ev
	leaq	2472(%rsp), %rdi
	callq	__ZN14altered_carbon2js10JsValueRefC1Ev
	leaq	2448(%rsp), %rdi
	callq	__ZN14altered_carbon2js10JsValueRefC1Ev
	leaq	2424(%rsp), %rdi
	callq	__ZN14altered_carbon2js10JsValueRefC1Ev
	leaq	2400(%rsp), %rdi
	callq	__ZN14altered_carbon2js10JsValueRefC1Ev
	leaq	2376(%rsp), %rdi
	callq	__ZN14altered_carbon2js10JsValueRefC1Ev
	leaq	2352(%rsp), %rdi
	callq	__ZN14altered_carbon2js10JsValueRefC1Ev
	leaq	2328(%rsp), %rdi
	callq	__ZN14altered_carbon2js10JsValueRefC1Ev
	leaq	2304(%rsp), %rdi
	callq	__ZN14altered_carbon2js10JsValueRefC1Ev
	leaq	2280(%rsp), %rdi
	callq	__ZN14altered_carbon2js10JsValueRefC1Ev
	leaq	2256(%rsp), %rdi
	callq	__ZN14altered_carbon2js10JsValueRefC1Ev
	leaq	2232(%rsp), %rdi
	callq	__ZN14altered_carbon2js10JsValueRefC1Ev
	leaq	2208(%rsp), %rdi
	callq	__ZN14altered_carbon2js10JsValueRefC1Ev
	leaq	2184(%rsp), %rdi
	callq	__ZN14altered_carbon2js10JsValueRefC1Ev
	leaq	2160(%rsp), %rdi
	callq	__ZN14altered_carbon2js10JsValueRefC1Ev
	leaq	2136(%rsp), %rdi
	callq	__ZN14altered_carbon2js10JsValueRefC1Ev
	leaq	2112(%rsp), %rdi
	callq	__ZN14altered_carbon2js10JsValueRefC1Ev
	leaq	2088(%rsp), %rdi
	callq	__ZN14altered_carbon2js10JsValueRefC1Ev
	leaq	2064(%rsp), %rdi
	callq	__ZN14altered_carbon2js10JsValueRefC1Ev
	leaq	2040(%rsp), %rdi
	callq	__ZN14altered_carbon2js10JsValueRefC1Ev
	leaq	2016(%rsp), %rdi
	callq	__ZN14altered_carbon2js10JsValueRefC1Ev
	leaq	1992(%rsp), %rdi
	callq	__ZN14altered_carbon2js10JsValueRefC1Ev
	leaq	1968(%rsp), %rdi
	callq	__ZN14altered_carbon2js10JsValueRefC1Ev
	leaq	1944(%rsp), %rdi
	callq	__ZN14altered_carbon2js10JsValueRefC1Ev
	leaq	1920(%rsp), %rdi
	callq	__ZN14altered_carbon2js10JsValueRefC1Ev
	leaq	1896(%rsp), %rdi
	callq	__ZN14altered_carbon2js10JsValueRefC1Ev
	leaq	1872(%rsp), %rdi
	callq	__ZN14altered_carbon2js10JsValueRefC1Ev
	leaq	1848(%rsp), %rdi
	callq	__ZN14altered_carbon2js10JsValueRefC1Ev
	leaq	1824(%rsp), %rdi
	callq	__ZN14altered_carbon2js10JsValueRefC1Ev
	leaq	1800(%rsp), %rdi
	callq	__ZN14altered_carbon2js10JsValueRefC1Ev
	leaq	1776(%rsp), %rdi
	callq	__ZN14altered_carbon2js10JsValueRefC1Ev
	leaq	1752(%rsp), %rdi
	callq	__ZN14altered_carbon2js10JsValueRefC1Ev
	leaq	1728(%rsp), %rdi
	callq	__ZN14altered_carbon2js10JsValueRefC1Ev
	leaq	1704(%rsp), %rdi
	callq	__ZN14altered_carbon2js10JsValueRefC1Ev
	leaq	1680(%rsp), %rdi
	callq	__ZN14altered_carbon2js10JsValueRefC1Ev
	leaq	1656(%rsp), %rdi
	callq	__ZN14altered_carbon2js10JsValueRefC1Ev
	leaq	1632(%rsp), %rdi
	callq	__ZN14altered_carbon2js10JsValueRefC1Ev
	leaq	1608(%rsp), %rdi
	callq	__ZN14altered_carbon2js10JsValueRefC1Ev
	leaq	1584(%rsp), %rdi
	callq	__ZN14altered_carbon2js10JsValueRefC1Ev
	leaq	1560(%rsp), %rdi
	callq	__ZN14altered_carbon2js10JsValueRefC1Ev
	leaq	1536(%rsp), %rdi
	callq	__ZN14altered_carbon2js10JsValueRefC1Ev
	leaq	1512(%rsp), %rdi
	callq	__ZN14altered_carbon2js10JsValueRefC1Ev
	leaq	1488(%rsp), %rdi
	callq	__ZN14altered_carbon2js10JsValueRefC1Ev
	leaq	1464(%rsp), %rdi
	callq	__ZN14altered_carbon2js10JsValueRefC1Ev
	leaq	1440(%rsp), %rdi
	callq	__ZN14altered_carbon2js10JsValueRefC1Ev
	leaq	1416(%rsp), %rdi
	callq	__ZN14altered_carbon2js10JsValueRefC1Ev
	leaq	1392(%rsp), %rdi
	callq	__ZN14altered_carbon2js10JsValueRefC1Ev
	leaq	1368(%rsp), %rdi
	callq	__ZN14altered_carbon2js10JsValueRefC1Ev
	leaq	1344(%rsp), %rdi
	callq	__ZN14altered_carbon2js10JsValueRefC1Ev
	leaq	1320(%rsp), %rdi
	callq	__ZN14altered_carbon2js10JsValueRefC1Ev
	leaq	1296(%rsp), %rdi
	callq	__ZN14altered_carbon2js10JsValueRefC1Ev
	leaq	1272(%rsp), %rdi
	callq	__ZN14altered_carbon2js10JsValueRefC1Ev
	leaq	1248(%rsp), %rdi
	callq	__ZN14altered_carbon2js10JsValueRefC1Ev
	leaq	1224(%rsp), %rdi
	callq	__ZN14altered_carbon2js10JsValueRefC1Ev
	leaq	1200(%rsp), %rdi
	callq	__ZN14altered_carbon2js10JsValueRefC1Ev
	leaq	1176(%rsp), %rdi
	callq	__ZN14altered_carbon2js10JsValueRefC1Ev
	leaq	1152(%rsp), %rdi
	callq	__ZN14altered_carbon2js10JsValueRefC1Ev
	leaq	1128(%rsp), %rdi
	callq	__ZN14altered_carbon2js10JsValueRefC1Ev
	leaq	1104(%rsp), %rdi
	callq	__ZN14altered_carbon2js10JsValueRefC1Ev
	leaq	1080(%rsp), %rdi
	callq	__ZN14altered_carbon2js10JsValueRefC1Ev
	leaq	1056(%rsp), %rdi
	callq	__ZN14altered_carbon2js10JsValueRefC1Ev
	leaq	1032(%rsp), %rdi
	callq	__ZN14altered_carbon2js10JsValueRefC1Ev
	leaq	1008(%rsp), %rdi
	callq	__ZN14altered_carbon2js10JsValueRefC1Ev
	leaq	984(%rsp), %rdi
	callq	__ZN14altered_carbon2js10JsValueRefC1Ev
	leaq	960(%rsp), %rdi
	callq	__ZN14altered_carbon2js10JsValueRefC1Ev
	leaq	936(%rsp), %rdi
	callq	__ZN14altered_carbon2js10JsValueRefC1Ev
	leaq	912(%rsp), %rdi
	callq	__ZN14altered_carbon2js10JsValueRefC1Ev
	leaq	888(%rsp), %rdi
	callq	__ZN14altered_carbon2js10JsValueRefC1Ev
	leaq	864(%rsp), %rdi
	callq	__ZN14altered_carbon2js10JsValueRefC1Ev
	leaq	840(%rsp), %rdi
	callq	__ZN14altered_carbon2js10JsValueRefC1Ev
	leaq	816(%rsp), %rdi
	callq	__ZN14altered_carbon2js10JsValueRefC1Ev
	leaq	792(%rsp), %rdi
	callq	__ZN14altered_carbon2js10JsValueRefC1Ev
	leaq	768(%rsp), %rdi
	callq	__ZN14altered_carbon2js10JsValueRefC1Ev
	leaq	744(%rsp), %rdi
	callq	__ZN14altered_carbon2js10JsValueRefC1Ev
	leaq	720(%rsp), %rdi
	callq	__ZN14altered_carbon2js10JsValueRefC1Ev
	leaq	696(%rsp), %rdi
	callq	__ZN14altered_carbon2js10JsValueRefC1Ev
	leaq	672(%rsp), %rdi
	callq	__ZN14altered_carbon2js10JsValueRefC1Ev
	leaq	648(%rsp), %rdi
	callq	__ZN14altered_carbon2js10JsValueRefC1Ev
	leaq	624(%rsp), %rdi
	callq	__ZN14altered_carbon2js10JsValueRefC1Ev
	leaq	600(%rsp), %rdi
	callq	__ZN14altered_carbon2js10JsValueRefC1Ev
	leaq	576(%rsp), %rdi
	callq	__ZN14altered_carbon2js10JsValueRefC1Ev
	leaq	552(%rsp), %rdi
	callq	__ZN14altered_carbon2js10JsValueRefC1Ev
	leaq	528(%rsp), %rdi
	callq	__ZN14altered_carbon2js10JsValueRefC1Ev
	leaq	504(%rsp), %rdi
	callq	__ZN14altered_carbon2js10JsValueRefC1Ev
	leaq	480(%rsp), %rdi
	callq	__ZN14altered_carbon2js10JsValueRefC1Ev
	leaq	456(%rsp), %rdi
	callq	__ZN14altered_carbon2js10JsValueRefC1Ev
	leaq	432(%rsp), %rdi
	callq	__ZN14altered_carbon2js10JsValueRefC1Ev
	leaq	408(%rsp), %rdi
	callq	__ZN14altered_carbon2js10JsValueRefC1Ev
	leaq	384(%rsp), %rdi
	callq	__ZN14altered_carbon2js10JsValueRefC1Ev
	leaq	360(%rsp), %rdi
	callq	__ZN14altered_carbon2js10JsValueRefC1Ev
	leaq	336(%rsp), %rdi
	callq	__ZN14altered_carbon2js10JsValueRefC1Ev
	leaq	312(%rsp), %rdi
	callq	__ZN14altered_carbon2js10JsValueRefC1Ev
	leaq	288(%rsp), %rdi
	callq	__ZN14altered_carbon2js10JsValueRefC1Ev
	leaq	264(%rsp), %rdi
	callq	__ZN14altered_carbon2js10JsValueRefC1Ev
	leaq	240(%rsp), %rdi
	callq	__ZN14altered_carbon2js10JsValueRefC1Ev
	leaq	216(%rsp), %rdi
	callq	__ZN14altered_carbon2js10JsValueRefC1Ev
	leaq	192(%rsp), %rdi
	callq	__ZN14altered_carbon2js10JsValueRefC1Ev
	leaq	168(%rsp), %rdi
	callq	__ZN14altered_carbon2js10JsValueRefC1Ev
	leaq	144(%rsp), %rdi
	callq	__ZN14altered_carbon2js10JsValueRefC1Ev
	leaq	120(%rsp), %rdi
	callq	__ZN14altered_carbon2js10JsValueRefC1Ev
	leaq	96(%rsp), %rdi
	callq	__ZN14altered_carbon2js10JsValueRefC1Ev
	leaq	72(%rsp), %rdi
	callq	__ZN14altered_carbon2js10JsValueRefC1Ev
	leaq	48(%rsp), %rdi
	callq	__ZN14altered_carbon2js10JsValueRefC1Ev
	leaq	24(%rsp), %rdi
	callq	__ZN14altered_carbon2js10JsValueRefC1Ev
	movq	%rsp, %rdi
	callq	__ZN14altered_carbon2js10JsValueRefC1Ev
	movl	$40, %edi
	callq	__Znwm
	movq	%rax, %rbx
	movsd	LCPI0_0(%rip), %xmm0    ## xmm0 = mem[0],zero
	movq	%rax, %rdi
	callq	__ZN14altered_carbon2js10ACJsNumberC1Ed
	leaq	73872(%rsp), %r12
	movq	%r12, %rdi
	movq	%rbx, %rsi
	callq	__ZN14altered_carbon2js10JsValueRefC1EPNS0_9ACJsValueE
	movl	$40, %edi
	callq	__Znwm
	movq	%rax, %rbx
	movsd	LCPI0_1(%rip), %xmm0    ## xmm0 = mem[0],zero
	movq	%rax, %rdi
	callq	__ZN14altered_carbon2js10ACJsNumberC1Ed
	leaq	73848(%rsp), %r15
	movq	%r15, %rdi
	movq	%rbx, %rsi
	callq	__ZN14altered_carbon2js10JsValueRefC1EPNS0_9ACJsValueE
	movl	$40, %edi
	callq	__Znwm
	movq	%rax, %rbx
	movsd	LCPI0_2(%rip), %xmm0    ## xmm0 = mem[0],zero
	movq	%rax, %rdi
	callq	__ZN14altered_carbon2js10ACJsNumberC1Ed
	leaq	73824(%rsp), %r13
	movq	%r13, %rdi
	movq	%rbx, %rsi
	callq	__ZN14altered_carbon2js10JsValueRefC1EPNS0_9ACJsValueE
	leaq	73800(%rsp), %rbx
	movl	$122, %esi
	movq	%rbx, %rdi
	movq	%r15, %rdx
	movq	%r13, %rcx
	callq	__ZN14altered_carbon2js8binaryOpEPNS0_10JsValueRefEiRS1_S3_
	leaq	73776(%rsp), %r15
	movl	$119, %esi
	movq	%r15, %rdi
	movq	%r12, %rdx
	movq	%rbx, %rcx
	callq	__ZN14altered_carbon2js8binaryOpEPNS0_10JsValueRefEiRS1_S3_
	movl	$40, %edi
	callq	__Znwm
	movq	%rax, %rbx
	movsd	LCPI0_3(%rip), %xmm0    ## xmm0 = mem[0],zero
	movq	%rax, %rdi
	callq	__ZN14altered_carbon2js10ACJsNumberC1Ed
	leaq	73752(%rsp), %r12
	movq	%r12, %rdi
	movq	%rbx, %rsi
	callq	__ZN14altered_carbon2js10JsValueRefC1EPNS0_9ACJsValueE
	movl	$40, %edi
	callq	__Znwm
	movq	%rax, %rbx
	movsd	LCPI0_4(%rip), %xmm0    ## xmm0 = mem[0],zero
	movq	%rax, %rdi
	callq	__ZN14altered_carbon2js10ACJsNumberC1Ed
	leaq	73728(%rsp), %r13
	movq	%r13, %rdi
	movq	%rbx, %rsi
	callq	__ZN14altered_carbon2js10JsValueRefC1EPNS0_9ACJsValueE
	leaq	73704(%rsp), %rbp
	movl	$122, %esi
	movq	%rbp, %rdi
	movq	%r12, %rdx
	movq	%r13, %rcx
	callq	__ZN14altered_carbon2js8binaryOpEPNS0_10JsValueRefEiRS1_S3_
	leaq	73680(%rsp), %r12
	movl	$119, %esi
	movq	%r12, %rdi
	movq	%r15, %rdx
	movq	%rbp, %rcx
	callq	__ZN14altered_carbon2js8binaryOpEPNS0_10JsValueRefEiRS1_S3_
	movl	$40, %edi
	callq	__Znwm
	movq	%rax, %rbp
	movsd	LCPI0_5(%rip), %xmm0    ## xmm0 = mem[0],zero
	movq	%rax, %rdi
	callq	__ZN14altered_carbon2js10ACJsNumberC1Ed
	leaq	73656(%rsp), %r15
	movq	%r15, %rdi
	movq	%rbp, %rsi
	callq	__ZN14altered_carbon2js10JsValueRefC1EPNS0_9ACJsValueE
	movl	$40, %edi
	callq	__Znwm
	movq	%rax, %rbp
	movsd	LCPI0_6(%rip), %xmm0    ## xmm0 = mem[0],zero
	movq	%rax, %rdi
	callq	__ZN14altered_carbon2js10ACJsNumberC1Ed
	leaq	73632(%rsp), %rbx
	movq	%rbx, %rdi
	movq	%rbp, %rsi
	callq	__ZN14altered_carbon2js10JsValueRefC1EPNS0_9ACJsValueE
	leaq	73608(%rsp), %rbp
	movl	$122, %esi
	movq	%rbp, %rdi
	movq	%r15, %rdx
	movq	%rbx, %rcx
	callq	__ZN14altered_carbon2js8binaryOpEPNS0_10JsValueRefEiRS1_S3_
	leaq	73584(%rsp), %r15
	movl	$119, %esi
	movq	%r15, %rdi
	movq	%r12, %rdx
	movq	%rbp, %rcx
	callq	__ZN14altered_carbon2js8binaryOpEPNS0_10JsValueRefEiRS1_S3_
	movl	$40, %edi
	callq	__Znwm
	movq	%rax, %rbx
	movsd	LCPI0_7(%rip), %xmm0    ## xmm0 = mem[0],zero
	movq	%rax, %rdi
	callq	__ZN14altered_carbon2js10ACJsNumberC1Ed
	leaq	73560(%rsp), %r12
	movq	%r12, %rdi
	movq	%rbx, %rsi
	callq	__ZN14altered_carbon2js10JsValueRefC1EPNS0_9ACJsValueE
	movl	$40, %edi
	callq	__Znwm
	movq	%rax, %rbx
	movsd	LCPI0_8(%rip), %xmm0    ## xmm0 = mem[0],zero
	movq	%rax, %rdi
	callq	__ZN14altered_carbon2js10ACJsNumberC1Ed
	leaq	73536(%rsp), %rbp
	movq	%rbp, %rdi
	movq	%rbx, %rsi
	callq	__ZN14altered_carbon2js10JsValueRefC1EPNS0_9ACJsValueE
	leaq	73512(%rsp), %rbx
	movl	$122, %esi
	movq	%rbx, %rdi
	movq	%r12, %rdx
	movq	%rbp, %rcx
	callq	__ZN14altered_carbon2js8binaryOpEPNS0_10JsValueRefEiRS1_S3_
	leaq	73488(%rsp), %r12
	movl	$119, %esi
	movq	%r12, %rdi
	movq	%r15, %rdx
	movq	%rbx, %rcx
	callq	__ZN14altered_carbon2js8binaryOpEPNS0_10JsValueRefEiRS1_S3_
	movl	$40, %edi
	callq	__Znwm
	movq	%rax, %rbx
	movsd	LCPI0_9(%rip), %xmm0    ## xmm0 = mem[0],zero
	movq	%rax, %rdi
	callq	__ZN14altered_carbon2js10ACJsNumberC1Ed
	leaq	73464(%rsp), %r15
	movq	%r15, %rdi
	movq	%rbx, %rsi
	callq	__ZN14altered_carbon2js10JsValueRefC1EPNS0_9ACJsValueE
	movl	$40, %edi
	callq	__Znwm
	movq	%rax, %rbx
	movsd	LCPI0_10(%rip), %xmm0   ## xmm0 = mem[0],zero
	movq	%rax, %rdi
	callq	__ZN14altered_carbon2js10ACJsNumberC1Ed
	leaq	73440(%rsp), %rbp
	movq	%rbp, %rdi
	movq	%rbx, %rsi
	callq	__ZN14altered_carbon2js10JsValueRefC1EPNS0_9ACJsValueE
	leaq	73416(%rsp), %rbx
	movl	$122, %esi
	movq	%rbx, %rdi
	movq	%r15, %rdx
	movq	%rbp, %rcx
	callq	__ZN14altered_carbon2js8binaryOpEPNS0_10JsValueRefEiRS1_S3_
	leaq	73392(%rsp), %r15
	movl	$119, %esi
	movq	%r15, %rdi
	movq	%r12, %rdx
	movq	%rbx, %rcx
	callq	__ZN14altered_carbon2js8binaryOpEPNS0_10JsValueRefEiRS1_S3_
	movl	$40, %edi
	callq	__Znwm
	movq	%rax, %rbx
	movq	%rax, %rdi
	movsd	LCPI0_0(%rip), %xmm0    ## xmm0 = mem[0],zero
	callq	__ZN14altered_carbon2js10ACJsNumberC1Ed
	leaq	73368(%rsp), %rbp
	movq	%rbp, %rdi
	movq	%rbx, %rsi
	callq	__ZN14altered_carbon2js10JsValueRefC1EPNS0_9ACJsValueE
	leaq	73344(%rsp), %r12
	movl	$119, %esi
	movq	%r12, %rdi
	movq	%r15, %rdx
	movq	%rbp, %rcx
	callq	__ZN14altered_carbon2js8binaryOpEPNS0_10JsValueRefEiRS1_S3_
	movl	$40, %edi
	callq	__Znwm
	movq	%rax, %rbp
	movq	%rax, %rdi
	movsd	LCPI0_1(%rip), %xmm0    ## xmm0 = mem[0],zero
	callq	__ZN14altered_carbon2js10ACJsNumberC1Ed
	leaq	73320(%rsp), %r15
	movq	%r15, %rdi
	movq	%rbp, %rsi
	callq	__ZN14altered_carbon2js10JsValueRefC1EPNS0_9ACJsValueE
	movl	$40, %edi
	callq	__Znwm
	movq	%rax, %rbp
	movq	%rax, %rdi
	movsd	LCPI0_2(%rip), %xmm0    ## xmm0 = mem[0],zero
	callq	__ZN14altered_carbon2js10ACJsNumberC1Ed
	leaq	73296(%rsp), %rbx
	movq	%rbx, %rdi
	movq	%rbp, %rsi
	callq	__ZN14altered_carbon2js10JsValueRefC1EPNS0_9ACJsValueE
	leaq	73272(%rsp), %rbp
	movl	$122, %esi
	movq	%rbp, %rdi
	movq	%r15, %rdx
	movq	%rbx, %rcx
	callq	__ZN14altered_carbon2js8binaryOpEPNS0_10JsValueRefEiRS1_S3_
	leaq	73248(%rsp), %r15
	movl	$119, %esi
	movq	%r15, %rdi
	movq	%r12, %rdx
	movq	%rbp, %rcx
	callq	__ZN14altered_carbon2js8binaryOpEPNS0_10JsValueRefEiRS1_S3_
	movl	$40, %edi
	callq	__Znwm
	movq	%rax, %rbx
	movq	%rax, %rdi
	movsd	LCPI0_3(%rip), %xmm0    ## xmm0 = mem[0],zero
	callq	__ZN14altered_carbon2js10ACJsNumberC1Ed
	leaq	73224(%rsp), %r12
	movq	%r12, %rdi
	movq	%rbx, %rsi
	callq	__ZN14altered_carbon2js10JsValueRefC1EPNS0_9ACJsValueE
	movl	$40, %edi
	callq	__Znwm
	movq	%rax, %rbx
	movq	%rax, %rdi
	movsd	LCPI0_4(%rip), %xmm0    ## xmm0 = mem[0],zero
	callq	__ZN14altered_carbon2js10ACJsNumberC1Ed
	leaq	73200(%rsp), %rbp
	movq	%rbp, %rdi
	movq	%rbx, %rsi
	callq	__ZN14altered_carbon2js10JsValueRefC1EPNS0_9ACJsValueE
	leaq	73176(%rsp), %rbx
	movl	$122, %esi
	movq	%rbx, %rdi
	movq	%r12, %rdx
	movq	%rbp, %rcx
	callq	__ZN14altered_carbon2js8binaryOpEPNS0_10JsValueRefEiRS1_S3_
	leaq	73152(%rsp), %r12
	movl	$119, %esi
	movq	%r12, %rdi
	movq	%r15, %rdx
	movq	%rbx, %rcx
	callq	__ZN14altered_carbon2js8binaryOpEPNS0_10JsValueRefEiRS1_S3_
	movl	$40, %edi
	callq	__Znwm
	movq	%rax, %rbx
	movq	%rax, %rdi
	movsd	LCPI0_5(%rip), %xmm0    ## xmm0 = mem[0],zero
	callq	__ZN14altered_carbon2js10ACJsNumberC1Ed
	leaq	73128(%rsp), %r15
	movq	%r15, %rdi
	movq	%rbx, %rsi
	callq	__ZN14altered_carbon2js10JsValueRefC1EPNS0_9ACJsValueE
	movl	$40, %edi
	callq	__Znwm
	movq	%rax, %rbx
	movq	%rax, %rdi
	movsd	LCPI0_6(%rip), %xmm0    ## xmm0 = mem[0],zero
	callq	__ZN14altered_carbon2js10ACJsNumberC1Ed
	leaq	73104(%rsp), %rbp
	movq	%rbp, %rdi
	movq	%rbx, %rsi
	callq	__ZN14altered_carbon2js10JsValueRefC1EPNS0_9ACJsValueE
	leaq	73080(%rsp), %rbx
	movl	$122, %esi
	movq	%rbx, %rdi
	movq	%r15, %rdx
	movq	%rbp, %rcx
	callq	__ZN14altered_carbon2js8binaryOpEPNS0_10JsValueRefEiRS1_S3_
	leaq	73056(%rsp), %r15
	movl	$119, %esi
	movq	%r15, %rdi
	movq	%r12, %rdx
	movq	%rbx, %rcx
	callq	__ZN14altered_carbon2js8binaryOpEPNS0_10JsValueRefEiRS1_S3_
	movl	$40, %edi
	callq	__Znwm
	movq	%rax, %rbx
	movq	%rax, %rdi
	movsd	LCPI0_7(%rip), %xmm0    ## xmm0 = mem[0],zero
	callq	__ZN14altered_carbon2js10ACJsNumberC1Ed
	leaq	73032(%rsp), %r12
	movq	%r12, %rdi
	movq	%rbx, %rsi
	callq	__ZN14altered_carbon2js10JsValueRefC1EPNS0_9ACJsValueE
	movl	$40, %edi
	callq	__Znwm
	movq	%rax, %rbx
	movq	%rax, %rdi
	movsd	LCPI0_8(%rip), %xmm0    ## xmm0 = mem[0],zero
	callq	__ZN14altered_carbon2js10ACJsNumberC1Ed
	leaq	73008(%rsp), %rbp
	movq	%rbp, %rdi
	movq	%rbx, %rsi
	callq	__ZN14altered_carbon2js10JsValueRefC1EPNS0_9ACJsValueE
	leaq	72984(%rsp), %rbx
	movl	$122, %esi
	movq	%rbx, %rdi
	movq	%r12, %rdx
	movq	%rbp, %rcx
	callq	__ZN14altered_carbon2js8binaryOpEPNS0_10JsValueRefEiRS1_S3_
	leaq	72960(%rsp), %r12
	movl	$119, %esi
	movq	%r12, %rdi
	movq	%r15, %rdx
	movq	%rbx, %rcx
	callq	__ZN14altered_carbon2js8binaryOpEPNS0_10JsValueRefEiRS1_S3_
	movl	$40, %edi
	callq	__Znwm
	movq	%rax, %rbx
	movq	%rax, %rdi
	movsd	LCPI0_9(%rip), %xmm0    ## xmm0 = mem[0],zero
	callq	__ZN14altered_carbon2js10ACJsNumberC1Ed
	leaq	72936(%rsp), %r15
	movq	%r15, %rdi
	movq	%rbx, %rsi
	callq	__ZN14altered_carbon2js10JsValueRefC1EPNS0_9ACJsValueE
	movl	$40, %edi
	callq	__Znwm
	movq	%rax, %rbx
	movq	%rax, %rdi
	movsd	LCPI0_10(%rip), %xmm0   ## xmm0 = mem[0],zero
	callq	__ZN14altered_carbon2js10ACJsNumberC1Ed
	leaq	72912(%rsp), %rbp
	movq	%rbp, %rdi
	movq	%rbx, %rsi
	callq	__ZN14altered_carbon2js10JsValueRefC1EPNS0_9ACJsValueE
	leaq	72888(%rsp), %rbx
	movl	$122, %esi
	movq	%rbx, %rdi
	movq	%r15, %rdx
	movq	%rbp, %rcx
	callq	__ZN14altered_carbon2js8binaryOpEPNS0_10JsValueRefEiRS1_S3_
	leaq	72864(%rsp), %r15
	movl	$119, %esi
	movq	%r15, %rdi
	movq	%r12, %rdx
	movq	%rbx, %rcx
	callq	__ZN14altered_carbon2js8binaryOpEPNS0_10JsValueRefEiRS1_S3_
	movl	$40, %edi
	callq	__Znwm
	movq	%rax, %rbx
	movq	%rax, %rdi
	movsd	LCPI0_0(%rip), %xmm0    ## xmm0 = mem[0],zero
	callq	__ZN14altered_carbon2js10ACJsNumberC1Ed
	leaq	72840(%rsp), %rbp
	movq	%rbp, %rdi
	movq	%rbx, %rsi
	callq	__ZN14altered_carbon2js10JsValueRefC1EPNS0_9ACJsValueE
	leaq	72816(%rsp), %r12
	movl	$119, %esi
	movq	%r12, %rdi
	movq	%r15, %rdx
	movq	%rbp, %rcx
	callq	__ZN14altered_carbon2js8binaryOpEPNS0_10JsValueRefEiRS1_S3_
	movl	$40, %edi
	callq	__Znwm
	movq	%rax, %rbp
	movq	%rax, %rdi
	movsd	LCPI0_1(%rip), %xmm0    ## xmm0 = mem[0],zero
	callq	__ZN14altered_carbon2js10ACJsNumberC1Ed
	leaq	72792(%rsp), %r15
	movq	%r15, %rdi
	movq	%rbp, %rsi
	callq	__ZN14altered_carbon2js10JsValueRefC1EPNS0_9ACJsValueE
	movl	$40, %edi
	callq	__Znwm
	movq	%rax, %rbp
	movq	%rax, %rdi
	movsd	LCPI0_2(%rip), %xmm0    ## xmm0 = mem[0],zero
	callq	__ZN14altered_carbon2js10ACJsNumberC1Ed
	leaq	72768(%rsp), %rbx
	movq	%rbx, %rdi
	movq	%rbp, %rsi
	callq	__ZN14altered_carbon2js10JsValueRefC1EPNS0_9ACJsValueE
	leaq	72744(%rsp), %rbp
	movl	$122, %esi
	movq	%rbp, %rdi
	movq	%r15, %rdx
	movq	%rbx, %rcx
	callq	__ZN14altered_carbon2js8binaryOpEPNS0_10JsValueRefEiRS1_S3_
	leaq	72720(%rsp), %r15
	movl	$119, %esi
	movq	%r15, %rdi
	movq	%r12, %rdx
	movq	%rbp, %rcx
	callq	__ZN14altered_carbon2js8binaryOpEPNS0_10JsValueRefEiRS1_S3_
	movl	$40, %edi
	callq	__Znwm
	movq	%rax, %rbx
	movq	%rax, %rdi
	movsd	LCPI0_3(%rip), %xmm0    ## xmm0 = mem[0],zero
	callq	__ZN14altered_carbon2js10ACJsNumberC1Ed
	leaq	72696(%rsp), %r12
	movq	%r12, %rdi
	movq	%rbx, %rsi
	callq	__ZN14altered_carbon2js10JsValueRefC1EPNS0_9ACJsValueE
	movl	$40, %edi
	callq	__Znwm
	movq	%rax, %rbx
	movq	%rax, %rdi
	movsd	LCPI0_4(%rip), %xmm0    ## xmm0 = mem[0],zero
	callq	__ZN14altered_carbon2js10ACJsNumberC1Ed
	leaq	72672(%rsp), %rbp
	movq	%rbp, %rdi
	movq	%rbx, %rsi
	callq	__ZN14altered_carbon2js10JsValueRefC1EPNS0_9ACJsValueE
	leaq	72648(%rsp), %rbx
	movl	$122, %esi
	movq	%rbx, %rdi
	movq	%r12, %rdx
	movq	%rbp, %rcx
	callq	__ZN14altered_carbon2js8binaryOpEPNS0_10JsValueRefEiRS1_S3_
	leaq	72624(%rsp), %r12
	movl	$119, %esi
	movq	%r12, %rdi
	movq	%r15, %rdx
	movq	%rbx, %rcx
	callq	__ZN14altered_carbon2js8binaryOpEPNS0_10JsValueRefEiRS1_S3_
	movl	$40, %edi
	callq	__Znwm
	movq	%rax, %rbx
	movq	%rax, %rdi
	movsd	LCPI0_5(%rip), %xmm0    ## xmm0 = mem[0],zero
	callq	__ZN14altered_carbon2js10ACJsNumberC1Ed
	leaq	72600(%rsp), %r15
	movq	%r15, %rdi
	movq	%rbx, %rsi
	callq	__ZN14altered_carbon2js10JsValueRefC1EPNS0_9ACJsValueE
	movl	$40, %edi
	callq	__Znwm
	movq	%rax, %rbx
	movq	%rax, %rdi
	movsd	LCPI0_6(%rip), %xmm0    ## xmm0 = mem[0],zero
	callq	__ZN14altered_carbon2js10ACJsNumberC1Ed
	leaq	72576(%rsp), %rbp
	movq	%rbp, %rdi
	movq	%rbx, %rsi
	callq	__ZN14altered_carbon2js10JsValueRefC1EPNS0_9ACJsValueE
	leaq	72552(%rsp), %rbx
	movl	$122, %esi
	movq	%rbx, %rdi
	movq	%r15, %rdx
	movq	%rbp, %rcx
	callq	__ZN14altered_carbon2js8binaryOpEPNS0_10JsValueRefEiRS1_S3_
	leaq	72528(%rsp), %r15
	movl	$119, %esi
	movq	%r15, %rdi
	movq	%r12, %rdx
	movq	%rbx, %rcx
	callq	__ZN14altered_carbon2js8binaryOpEPNS0_10JsValueRefEiRS1_S3_
	movl	$40, %edi
	callq	__Znwm
	movq	%rax, %rbx
	movq	%rax, %rdi
	movsd	LCPI0_7(%rip), %xmm0    ## xmm0 = mem[0],zero
	callq	__ZN14altered_carbon2js10ACJsNumberC1Ed
	leaq	72504(%rsp), %r12
	movq	%r12, %rdi
	movq	%rbx, %rsi
	callq	__ZN14altered_carbon2js10JsValueRefC1EPNS0_9ACJsValueE
	movl	$40, %edi
	callq	__Znwm
	movq	%rax, %rbx
	movq	%rax, %rdi
	movsd	LCPI0_8(%rip), %xmm0    ## xmm0 = mem[0],zero
	callq	__ZN14altered_carbon2js10ACJsNumberC1Ed
	leaq	72480(%rsp), %rbp
	movq	%rbp, %rdi
	movq	%rbx, %rsi
	callq	__ZN14altered_carbon2js10JsValueRefC1EPNS0_9ACJsValueE
	leaq	72456(%rsp), %rbx
	movl	$122, %esi
	movq	%rbx, %rdi
	movq	%r12, %rdx
	movq	%rbp, %rcx
	callq	__ZN14altered_carbon2js8binaryOpEPNS0_10JsValueRefEiRS1_S3_
	leaq	72432(%rsp), %r12
	movl	$119, %esi
	movq	%r12, %rdi
	movq	%r15, %rdx
	movq	%rbx, %rcx
	callq	__ZN14altered_carbon2js8binaryOpEPNS0_10JsValueRefEiRS1_S3_
	movl	$40, %edi
	callq	__Znwm
	movq	%rax, %rbx
	movq	%rax, %rdi
	movsd	LCPI0_9(%rip), %xmm0    ## xmm0 = mem[0],zero
	callq	__ZN14altered_carbon2js10ACJsNumberC1Ed
	leaq	72408(%rsp), %r15
	movq	%r15, %rdi
	movq	%rbx, %rsi
	callq	__ZN14altered_carbon2js10JsValueRefC1EPNS0_9ACJsValueE
	movl	$40, %edi
	callq	__Znwm
	movq	%rax, %rbx
	movq	%rax, %rdi
	movsd	LCPI0_10(%rip), %xmm0   ## xmm0 = mem[0],zero
	callq	__ZN14altered_carbon2js10ACJsNumberC1Ed
	leaq	72384(%rsp), %rbp
	movq	%rbp, %rdi
	movq	%rbx, %rsi
	callq	__ZN14altered_carbon2js10JsValueRefC1EPNS0_9ACJsValueE
	leaq	72360(%rsp), %rbx
	movl	$122, %esi
	movq	%rbx, %rdi
	movq	%r15, %rdx
	movq	%rbp, %rcx
	callq	__ZN14altered_carbon2js8binaryOpEPNS0_10JsValueRefEiRS1_S3_
	leaq	72336(%rsp), %r15
	movl	$119, %esi
	movq	%r15, %rdi
	movq	%r12, %rdx
	movq	%rbx, %rcx
	callq	__ZN14altered_carbon2js8binaryOpEPNS0_10JsValueRefEiRS1_S3_
	movl	$40, %edi
	callq	__Znwm
	movq	%rax, %rbx
	movq	%rax, %rdi
	movsd	LCPI0_0(%rip), %xmm0    ## xmm0 = mem[0],zero
	callq	__ZN14altered_carbon2js10ACJsNumberC1Ed
	leaq	72312(%rsp), %rbp
	movq	%rbp, %rdi
	movq	%rbx, %rsi
	callq	__ZN14altered_carbon2js10JsValueRefC1EPNS0_9ACJsValueE
	leaq	72288(%rsp), %r12
	movl	$119, %esi
	movq	%r12, %rdi
	movq	%r15, %rdx
	movq	%rbp, %rcx
	callq	__ZN14altered_carbon2js8binaryOpEPNS0_10JsValueRefEiRS1_S3_
	movl	$40, %edi
	callq	__Znwm
	movq	%rax, %rbp
	movq	%rax, %rdi
	movsd	LCPI0_1(%rip), %xmm0    ## xmm0 = mem[0],zero
	callq	__ZN14altered_carbon2js10ACJsNumberC1Ed
	leaq	72264(%rsp), %r15
	movq	%r15, %rdi
	movq	%rbp, %rsi
	callq	__ZN14altered_carbon2js10JsValueRefC1EPNS0_9ACJsValueE
	movl	$40, %edi
	callq	__Znwm
	movq	%rax, %rbp
	movq	%rax, %rdi
	movsd	LCPI0_2(%rip), %xmm0    ## xmm0 = mem[0],zero
	callq	__ZN14altered_carbon2js10ACJsNumberC1Ed
	leaq	72240(%rsp), %rbx
	movq	%rbx, %rdi
	movq	%rbp, %rsi
	callq	__ZN14altered_carbon2js10JsValueRefC1EPNS0_9ACJsValueE
	leaq	72216(%rsp), %rbp
	movl	$122, %esi
	movq	%rbp, %rdi
	movq	%r15, %rdx
	movq	%rbx, %rcx
	callq	__ZN14altered_carbon2js8binaryOpEPNS0_10JsValueRefEiRS1_S3_
	leaq	72192(%rsp), %r15
	movl	$119, %esi
	movq	%r15, %rdi
	movq	%r12, %rdx
	movq	%rbp, %rcx
	callq	__ZN14altered_carbon2js8binaryOpEPNS0_10JsValueRefEiRS1_S3_
	movl	$40, %edi
	callq	__Znwm
	movq	%rax, %rbx
	movq	%rax, %rdi
	movsd	LCPI0_3(%rip), %xmm0    ## xmm0 = mem[0],zero
	callq	__ZN14altered_carbon2js10ACJsNumberC1Ed
	leaq	72168(%rsp), %r12
	movq	%r12, %rdi
	movq	%rbx, %rsi
	callq	__ZN14altered_carbon2js10JsValueRefC1EPNS0_9ACJsValueE
	movl	$40, %edi
	callq	__Znwm
	movq	%rax, %rbx
	movq	%rax, %rdi
	movsd	LCPI0_4(%rip), %xmm0    ## xmm0 = mem[0],zero
	callq	__ZN14altered_carbon2js10ACJsNumberC1Ed
	leaq	72144(%rsp), %rbp
	movq	%rbp, %rdi
	movq	%rbx, %rsi
	callq	__ZN14altered_carbon2js10JsValueRefC1EPNS0_9ACJsValueE
	leaq	72120(%rsp), %rbx
	movl	$122, %esi
	movq	%rbx, %rdi
	movq	%r12, %rdx
	movq	%rbp, %rcx
	callq	__ZN14altered_carbon2js8binaryOpEPNS0_10JsValueRefEiRS1_S3_
	leaq	72096(%rsp), %r12
	movl	$119, %esi
	movq	%r12, %rdi
	movq	%r15, %rdx
	movq	%rbx, %rcx
	callq	__ZN14altered_carbon2js8binaryOpEPNS0_10JsValueRefEiRS1_S3_
	movl	$40, %edi
	callq	__Znwm
	movq	%rax, %rbx
	movq	%rax, %rdi
	movsd	LCPI0_5(%rip), %xmm0    ## xmm0 = mem[0],zero
	callq	__ZN14altered_carbon2js10ACJsNumberC1Ed
	leaq	72072(%rsp), %r15
	movq	%r15, %rdi
	movq	%rbx, %rsi
	callq	__ZN14altered_carbon2js10JsValueRefC1EPNS0_9ACJsValueE
	movl	$40, %edi
	callq	__Znwm
	movq	%rax, %rbx
	movq	%rax, %rdi
	movsd	LCPI0_6(%rip), %xmm0    ## xmm0 = mem[0],zero
	callq	__ZN14altered_carbon2js10ACJsNumberC1Ed
	leaq	72048(%rsp), %rbp
	movq	%rbp, %rdi
	movq	%rbx, %rsi
	callq	__ZN14altered_carbon2js10JsValueRefC1EPNS0_9ACJsValueE
	leaq	72024(%rsp), %rbx
	movl	$122, %esi
	movq	%rbx, %rdi
	movq	%r15, %rdx
	movq	%rbp, %rcx
	callq	__ZN14altered_carbon2js8binaryOpEPNS0_10JsValueRefEiRS1_S3_
	leaq	72000(%rsp), %r15
	movl	$119, %esi
	movq	%r15, %rdi
	movq	%r12, %rdx
	movq	%rbx, %rcx
	callq	__ZN14altered_carbon2js8binaryOpEPNS0_10JsValueRefEiRS1_S3_
	movl	$40, %edi
	callq	__Znwm
	movq	%rax, %rbx
	movq	%rax, %rdi
	movsd	LCPI0_7(%rip), %xmm0    ## xmm0 = mem[0],zero
	callq	__ZN14altered_carbon2js10ACJsNumberC1Ed
	leaq	71976(%rsp), %r12
	movq	%r12, %rdi
	movq	%rbx, %rsi
	callq	__ZN14altered_carbon2js10JsValueRefC1EPNS0_9ACJsValueE
	movl	$40, %edi
	callq	__Znwm
	movq	%rax, %rbx
	movq	%rax, %rdi
	movsd	LCPI0_8(%rip), %xmm0    ## xmm0 = mem[0],zero
	callq	__ZN14altered_carbon2js10ACJsNumberC1Ed
	leaq	71952(%rsp), %rbp
	movq	%rbp, %rdi
	movq	%rbx, %rsi
	callq	__ZN14altered_carbon2js10JsValueRefC1EPNS0_9ACJsValueE
	leaq	71928(%rsp), %rbx
	movl	$122, %esi
	movq	%rbx, %rdi
	movq	%r12, %rdx
	movq	%rbp, %rcx
	callq	__ZN14altered_carbon2js8binaryOpEPNS0_10JsValueRefEiRS1_S3_
	leaq	71904(%rsp), %r12
	movl	$119, %esi
	movq	%r12, %rdi
	movq	%r15, %rdx
	movq	%rbx, %rcx
	callq	__ZN14altered_carbon2js8binaryOpEPNS0_10JsValueRefEiRS1_S3_
	movl	$40, %edi
	callq	__Znwm
	movq	%rax, %rbx
	movq	%rax, %rdi
	movsd	LCPI0_9(%rip), %xmm0    ## xmm0 = mem[0],zero
	callq	__ZN14altered_carbon2js10ACJsNumberC1Ed
	leaq	71880(%rsp), %r15
	movq	%r15, %rdi
	movq	%rbx, %rsi
	callq	__ZN14altered_carbon2js10JsValueRefC1EPNS0_9ACJsValueE
	movl	$40, %edi
	callq	__Znwm
	movq	%rax, %rbx
	movq	%rax, %rdi
	movsd	LCPI0_10(%rip), %xmm0   ## xmm0 = mem[0],zero
	callq	__ZN14altered_carbon2js10ACJsNumberC1Ed
	leaq	71856(%rsp), %rbp
	movq	%rbp, %rdi
	movq	%rbx, %rsi
	callq	__ZN14altered_carbon2js10JsValueRefC1EPNS0_9ACJsValueE
	leaq	71832(%rsp), %rbx
	movl	$122, %esi
	movq	%rbx, %rdi
	movq	%r15, %rdx
	movq	%rbp, %rcx
	callq	__ZN14altered_carbon2js8binaryOpEPNS0_10JsValueRefEiRS1_S3_
	leaq	71808(%rsp), %r15
	movl	$119, %esi
	movq	%r15, %rdi
	movq	%r12, %rdx
	movq	%rbx, %rcx
	callq	__ZN14altered_carbon2js8binaryOpEPNS0_10JsValueRefEiRS1_S3_
	movl	$40, %edi
	callq	__Znwm
	movq	%rax, %rbx
	movq	%rax, %rdi
	movsd	LCPI0_0(%rip), %xmm0    ## xmm0 = mem[0],zero
	callq	__ZN14altered_carbon2js10ACJsNumberC1Ed
	leaq	71784(%rsp), %rbp
	movq	%rbp, %rdi
	movq	%rbx, %rsi
	callq	__ZN14altered_carbon2js10JsValueRefC1EPNS0_9ACJsValueE
	leaq	71760(%rsp), %r12
	movl	$119, %esi
	movq	%r12, %rdi
	movq	%r15, %rdx
	movq	%rbp, %rcx
	callq	__ZN14altered_carbon2js8binaryOpEPNS0_10JsValueRefEiRS1_S3_
	movl	$40, %edi
	callq	__Znwm
	movq	%rax, %rbp
	movq	%rax, %rdi
	movsd	LCPI0_1(%rip), %xmm0    ## xmm0 = mem[0],zero
	callq	__ZN14altered_carbon2js10ACJsNumberC1Ed
	leaq	71736(%rsp), %r15
	movq	%r15, %rdi
	movq	%rbp, %rsi
	callq	__ZN14altered_carbon2js10JsValueRefC1EPNS0_9ACJsValueE
	movl	$40, %edi
	callq	__Znwm
	movq	%rax, %rbp
	movq	%rax, %rdi
	movsd	LCPI0_2(%rip), %xmm0    ## xmm0 = mem[0],zero
	callq	__ZN14altered_carbon2js10ACJsNumberC1Ed
	leaq	71712(%rsp), %rbx
	movq	%rbx, %rdi
	movq	%rbp, %rsi
	callq	__ZN14altered_carbon2js10JsValueRefC1EPNS0_9ACJsValueE
	leaq	71688(%rsp), %rbp
	movl	$122, %esi
	movq	%rbp, %rdi
	movq	%r15, %rdx
	movq	%rbx, %rcx
	callq	__ZN14altered_carbon2js8binaryOpEPNS0_10JsValueRefEiRS1_S3_
	leaq	71664(%rsp), %r15
	movl	$119, %esi
	movq	%r15, %rdi
	movq	%r12, %rdx
	movq	%rbp, %rcx
	callq	__ZN14altered_carbon2js8binaryOpEPNS0_10JsValueRefEiRS1_S3_
	movl	$40, %edi
	callq	__Znwm
	movq	%rax, %rbx
	movq	%rax, %rdi
	movsd	LCPI0_3(%rip), %xmm0    ## xmm0 = mem[0],zero
	callq	__ZN14altered_carbon2js10ACJsNumberC1Ed
	leaq	71640(%rsp), %r12
	movq	%r12, %rdi
	movq	%rbx, %rsi
	callq	__ZN14altered_carbon2js10JsValueRefC1EPNS0_9ACJsValueE
	movl	$40, %edi
	callq	__Znwm
	movq	%rax, %rbx
	movq	%rax, %rdi
	movsd	LCPI0_4(%rip), %xmm0    ## xmm0 = mem[0],zero
	callq	__ZN14altered_carbon2js10ACJsNumberC1Ed
	leaq	71616(%rsp), %rbp
	movq	%rbp, %rdi
	movq	%rbx, %rsi
	callq	__ZN14altered_carbon2js10JsValueRefC1EPNS0_9ACJsValueE
	leaq	71592(%rsp), %rbx
	movl	$122, %esi
	movq	%rbx, %rdi
	movq	%r12, %rdx
	movq	%rbp, %rcx
	callq	__ZN14altered_carbon2js8binaryOpEPNS0_10JsValueRefEiRS1_S3_
	leaq	71568(%rsp), %r12
	movl	$119, %esi
	movq	%r12, %rdi
	movq	%r15, %rdx
	movq	%rbx, %rcx
	callq	__ZN14altered_carbon2js8binaryOpEPNS0_10JsValueRefEiRS1_S3_
	movl	$40, %edi
	callq	__Znwm
	movq	%rax, %rbx
	movq	%rax, %rdi
	movsd	LCPI0_5(%rip), %xmm0    ## xmm0 = mem[0],zero
	callq	__ZN14altered_carbon2js10ACJsNumberC1Ed
	leaq	71544(%rsp), %r15
	movq	%r15, %rdi
	movq	%rbx, %rsi
	callq	__ZN14altered_carbon2js10JsValueRefC1EPNS0_9ACJsValueE
	movl	$40, %edi
	callq	__Znwm
	movq	%rax, %rbx
	movq	%rax, %rdi
	movsd	LCPI0_6(%rip), %xmm0    ## xmm0 = mem[0],zero
	callq	__ZN14altered_carbon2js10ACJsNumberC1Ed
	leaq	71520(%rsp), %rbp
	movq	%rbp, %rdi
	movq	%rbx, %rsi
	callq	__ZN14altered_carbon2js10JsValueRefC1EPNS0_9ACJsValueE
	leaq	71496(%rsp), %rbx
	movl	$122, %esi
	movq	%rbx, %rdi
	movq	%r15, %rdx
	movq	%rbp, %rcx
	callq	__ZN14altered_carbon2js8binaryOpEPNS0_10JsValueRefEiRS1_S3_
	leaq	71472(%rsp), %r15
	movl	$119, %esi
	movq	%r15, %rdi
	movq	%r12, %rdx
	movq	%rbx, %rcx
	callq	__ZN14altered_carbon2js8binaryOpEPNS0_10JsValueRefEiRS1_S3_
	movl	$40, %edi
	callq	__Znwm
	movq	%rax, %rbx
	movq	%rax, %rdi
	movsd	LCPI0_7(%rip), %xmm0    ## xmm0 = mem[0],zero
	callq	__ZN14altered_carbon2js10ACJsNumberC1Ed
	leaq	71448(%rsp), %r12
	movq	%r12, %rdi
	movq	%rbx, %rsi
	callq	__ZN14altered_carbon2js10JsValueRefC1EPNS0_9ACJsValueE
	movl	$40, %edi
	callq	__Znwm
	movq	%rax, %rbx
	movq	%rax, %rdi
	movsd	LCPI0_8(%rip), %xmm0    ## xmm0 = mem[0],zero
	callq	__ZN14altered_carbon2js10ACJsNumberC1Ed
	leaq	71424(%rsp), %rbp
	movq	%rbp, %rdi
	movq	%rbx, %rsi
	callq	__ZN14altered_carbon2js10JsValueRefC1EPNS0_9ACJsValueE
	leaq	71400(%rsp), %rbx
	movl	$122, %esi
	movq	%rbx, %rdi
	movq	%r12, %rdx
	movq	%rbp, %rcx
	callq	__ZN14altered_carbon2js8binaryOpEPNS0_10JsValueRefEiRS1_S3_
	leaq	71376(%rsp), %r12
	movl	$119, %esi
	movq	%r12, %rdi
	movq	%r15, %rdx
	movq	%rbx, %rcx
	callq	__ZN14altered_carbon2js8binaryOpEPNS0_10JsValueRefEiRS1_S3_
	movl	$40, %edi
	callq	__Znwm
	movq	%rax, %rbx
	movq	%rax, %rdi
	movsd	LCPI0_9(%rip), %xmm0    ## xmm0 = mem[0],zero
	callq	__ZN14altered_carbon2js10ACJsNumberC1Ed
	leaq	71352(%rsp), %r15
	movq	%r15, %rdi
	movq	%rbx, %rsi
	callq	__ZN14altered_carbon2js10JsValueRefC1EPNS0_9ACJsValueE
	movl	$40, %edi
	callq	__Znwm
	movq	%rax, %rbx
	movq	%rax, %rdi
	movsd	LCPI0_10(%rip), %xmm0   ## xmm0 = mem[0],zero
	callq	__ZN14altered_carbon2js10ACJsNumberC1Ed
	leaq	71328(%rsp), %rbp
	movq	%rbp, %rdi
	movq	%rbx, %rsi
	callq	__ZN14altered_carbon2js10JsValueRefC1EPNS0_9ACJsValueE
	leaq	71304(%rsp), %rbx
	movl	$122, %esi
	movq	%rbx, %rdi
	movq	%r15, %rdx
	movq	%rbp, %rcx
	callq	__ZN14altered_carbon2js8binaryOpEPNS0_10JsValueRefEiRS1_S3_
	leaq	71280(%rsp), %r15
	movl	$119, %esi
	movq	%r15, %rdi
	movq	%r12, %rdx
	movq	%rbx, %rcx
	callq	__ZN14altered_carbon2js8binaryOpEPNS0_10JsValueRefEiRS1_S3_
	movl	$40, %edi
	callq	__Znwm
	movq	%rax, %rbx
	movq	%rax, %rdi
	movsd	LCPI0_0(%rip), %xmm0    ## xmm0 = mem[0],zero
	callq	__ZN14altered_carbon2js10ACJsNumberC1Ed
	leaq	71256(%rsp), %rbp
	movq	%rbp, %rdi
	movq	%rbx, %rsi
	callq	__ZN14altered_carbon2js10JsValueRefC1EPNS0_9ACJsValueE
	leaq	71232(%rsp), %r12
	movl	$119, %esi
	movq	%r12, %rdi
	movq	%r15, %rdx
	movq	%rbp, %rcx
	callq	__ZN14altered_carbon2js8binaryOpEPNS0_10JsValueRefEiRS1_S3_
	movl	$40, %edi
	callq	__Znwm
	movq	%rax, %rbp
	movq	%rax, %rdi
	movsd	LCPI0_1(%rip), %xmm0    ## xmm0 = mem[0],zero
	callq	__ZN14altered_carbon2js10ACJsNumberC1Ed
	leaq	71208(%rsp), %r15
	movq	%r15, %rdi
	movq	%rbp, %rsi
	callq	__ZN14altered_carbon2js10JsValueRefC1EPNS0_9ACJsValueE
	movl	$40, %edi
	callq	__Znwm
	movq	%rax, %rbp
	movq	%rax, %rdi
	movsd	LCPI0_2(%rip), %xmm0    ## xmm0 = mem[0],zero
	callq	__ZN14altered_carbon2js10ACJsNumberC1Ed
	leaq	71184(%rsp), %rbx
	movq	%rbx, %rdi
	movq	%rbp, %rsi
	callq	__ZN14altered_carbon2js10JsValueRefC1EPNS0_9ACJsValueE
	leaq	71160(%rsp), %rbp
	movl	$122, %esi
	movq	%rbp, %rdi
	movq	%r15, %rdx
	movq	%rbx, %rcx
	callq	__ZN14altered_carbon2js8binaryOpEPNS0_10JsValueRefEiRS1_S3_
	leaq	71136(%rsp), %r15
	movl	$119, %esi
	movq	%r15, %rdi
	movq	%r12, %rdx
	movq	%rbp, %rcx
	callq	__ZN14altered_carbon2js8binaryOpEPNS0_10JsValueRefEiRS1_S3_
	movl	$40, %edi
	callq	__Znwm
	movq	%rax, %rbx
	movq	%rax, %rdi
	movsd	LCPI0_3(%rip), %xmm0    ## xmm0 = mem[0],zero
	callq	__ZN14altered_carbon2js10ACJsNumberC1Ed
	leaq	71112(%rsp), %r12
	movq	%r12, %rdi
	movq	%rbx, %rsi
	callq	__ZN14altered_carbon2js10JsValueRefC1EPNS0_9ACJsValueE
	movl	$40, %edi
	callq	__Znwm
	movq	%rax, %rbx
	movq	%rax, %rdi
	movsd	LCPI0_4(%rip), %xmm0    ## xmm0 = mem[0],zero
	callq	__ZN14altered_carbon2js10ACJsNumberC1Ed
	leaq	71088(%rsp), %rbp
	movq	%rbp, %rdi
	movq	%rbx, %rsi
	callq	__ZN14altered_carbon2js10JsValueRefC1EPNS0_9ACJsValueE
	leaq	71064(%rsp), %rbx
	movl	$122, %esi
	movq	%rbx, %rdi
	movq	%r12, %rdx
	movq	%rbp, %rcx
	callq	__ZN14altered_carbon2js8binaryOpEPNS0_10JsValueRefEiRS1_S3_
	leaq	71040(%rsp), %r12
	movl	$119, %esi
	movq	%r12, %rdi
	movq	%r15, %rdx
	movq	%rbx, %rcx
	callq	__ZN14altered_carbon2js8binaryOpEPNS0_10JsValueRefEiRS1_S3_
	movl	$40, %edi
	callq	__Znwm
	movq	%rax, %rbx
	movq	%rax, %rdi
	movsd	LCPI0_5(%rip), %xmm0    ## xmm0 = mem[0],zero
	callq	__ZN14altered_carbon2js10ACJsNumberC1Ed
	leaq	71016(%rsp), %r15
	movq	%r15, %rdi
	movq	%rbx, %rsi
	callq	__ZN14altered_carbon2js10JsValueRefC1EPNS0_9ACJsValueE
	movl	$40, %edi
	callq	__Znwm
	movq	%rax, %rbx
	movq	%rax, %rdi
	movsd	LCPI0_6(%rip), %xmm0    ## xmm0 = mem[0],zero
	callq	__ZN14altered_carbon2js10ACJsNumberC1Ed
	leaq	70992(%rsp), %rbp
	movq	%rbp, %rdi
	movq	%rbx, %rsi
	callq	__ZN14altered_carbon2js10JsValueRefC1EPNS0_9ACJsValueE
	leaq	70968(%rsp), %rbx
	movl	$122, %esi
	movq	%rbx, %rdi
	movq	%r15, %rdx
	movq	%rbp, %rcx
	callq	__ZN14altered_carbon2js8binaryOpEPNS0_10JsValueRefEiRS1_S3_
	leaq	70944(%rsp), %r15
	movl	$119, %esi
	movq	%r15, %rdi
	movq	%r12, %rdx
	movq	%rbx, %rcx
	callq	__ZN14altered_carbon2js8binaryOpEPNS0_10JsValueRefEiRS1_S3_
	movl	$40, %edi
	callq	__Znwm
	movq	%rax, %rbx
	movq	%rax, %rdi
	movsd	LCPI0_7(%rip), %xmm0    ## xmm0 = mem[0],zero
	callq	__ZN14altered_carbon2js10ACJsNumberC1Ed
	leaq	70920(%rsp), %r12
	movq	%r12, %rdi
	movq	%rbx, %rsi
	callq	__ZN14altered_carbon2js10JsValueRefC1EPNS0_9ACJsValueE
	movl	$40, %edi
	callq	__Znwm
	movq	%rax, %rbx
	movq	%rax, %rdi
	movsd	LCPI0_8(%rip), %xmm0    ## xmm0 = mem[0],zero
	callq	__ZN14altered_carbon2js10ACJsNumberC1Ed
	leaq	70896(%rsp), %rbp
	movq	%rbp, %rdi
	movq	%rbx, %rsi
	callq	__ZN14altered_carbon2js10JsValueRefC1EPNS0_9ACJsValueE
	leaq	70872(%rsp), %rbx
	movl	$122, %esi
	movq	%rbx, %rdi
	movq	%r12, %rdx
	movq	%rbp, %rcx
	callq	__ZN14altered_carbon2js8binaryOpEPNS0_10JsValueRefEiRS1_S3_
	leaq	70848(%rsp), %r12
	movl	$119, %esi
	movq	%r12, %rdi
	movq	%r15, %rdx
	movq	%rbx, %rcx
	callq	__ZN14altered_carbon2js8binaryOpEPNS0_10JsValueRefEiRS1_S3_
	movl	$40, %edi
	callq	__Znwm
	movq	%rax, %rbx
	movq	%rax, %rdi
	movsd	LCPI0_9(%rip), %xmm0    ## xmm0 = mem[0],zero
	callq	__ZN14altered_carbon2js10ACJsNumberC1Ed
	leaq	70824(%rsp), %r15
	movq	%r15, %rdi
	movq	%rbx, %rsi
	callq	__ZN14altered_carbon2js10JsValueRefC1EPNS0_9ACJsValueE
	movl	$40, %edi
	callq	__Znwm
	movq	%rax, %rbx
	movq	%rax, %rdi
	movsd	LCPI0_10(%rip), %xmm0   ## xmm0 = mem[0],zero
	callq	__ZN14altered_carbon2js10ACJsNumberC1Ed
	leaq	70800(%rsp), %rbp
	movq	%rbp, %rdi
	movq	%rbx, %rsi
	callq	__ZN14altered_carbon2js10JsValueRefC1EPNS0_9ACJsValueE
	leaq	70776(%rsp), %rbx
	movl	$122, %esi
	movq	%rbx, %rdi
	movq	%r15, %rdx
	movq	%rbp, %rcx
	callq	__ZN14altered_carbon2js8binaryOpEPNS0_10JsValueRefEiRS1_S3_
	leaq	70752(%rsp), %r15
	movl	$119, %esi
	movq	%r15, %rdi
	movq	%r12, %rdx
	movq	%rbx, %rcx
	callq	__ZN14altered_carbon2js8binaryOpEPNS0_10JsValueRefEiRS1_S3_
	movl	$40, %edi
	callq	__Znwm
	movq	%rax, %rbx
	movq	%rax, %rdi
	movsd	LCPI0_0(%rip), %xmm0    ## xmm0 = mem[0],zero
	callq	__ZN14altered_carbon2js10ACJsNumberC1Ed
	leaq	70728(%rsp), %rbp
	movq	%rbp, %rdi
	movq	%rbx, %rsi
	callq	__ZN14altered_carbon2js10JsValueRefC1EPNS0_9ACJsValueE
	leaq	70704(%rsp), %r12
	movl	$119, %esi
	movq	%r12, %rdi
	movq	%r15, %rdx
	movq	%rbp, %rcx
	callq	__ZN14altered_carbon2js8binaryOpEPNS0_10JsValueRefEiRS1_S3_
	movl	$40, %edi
	callq	__Znwm
	movq	%rax, %rbp
	movq	%rax, %rdi
	movsd	LCPI0_1(%rip), %xmm0    ## xmm0 = mem[0],zero
	callq	__ZN14altered_carbon2js10ACJsNumberC1Ed
	leaq	70680(%rsp), %r15
	movq	%r15, %rdi
	movq	%rbp, %rsi
	callq	__ZN14altered_carbon2js10JsValueRefC1EPNS0_9ACJsValueE
	movl	$40, %edi
	callq	__Znwm
	movq	%rax, %rbp
	movq	%rax, %rdi
	movsd	LCPI0_2(%rip), %xmm0    ## xmm0 = mem[0],zero
	callq	__ZN14altered_carbon2js10ACJsNumberC1Ed
	leaq	70656(%rsp), %rbx
	movq	%rbx, %rdi
	movq	%rbp, %rsi
	callq	__ZN14altered_carbon2js10JsValueRefC1EPNS0_9ACJsValueE
	leaq	70632(%rsp), %rbp
	movl	$122, %esi
	movq	%rbp, %rdi
	movq	%r15, %rdx
	movq	%rbx, %rcx
	callq	__ZN14altered_carbon2js8binaryOpEPNS0_10JsValueRefEiRS1_S3_
	leaq	70608(%rsp), %r15
	movl	$119, %esi
	movq	%r15, %rdi
	movq	%r12, %rdx
