	.section	__TEXT,__text,regular,pure_instructions
	.macosx_version_min 10, 14
	.globl	__Z7_scriptPN14altered_carbon2js9JsVariantE ## -- Begin function _Z7_scriptPN14altered_carbon2js9JsVariantE
	.p2align	4, 0x90
__Z7_scriptPN14altered_carbon2js9JsVariantE: ## @_Z7_scriptPN14altered_carbon2js9JsVariantE
	.cfi_startproc
## %bb.0:                               ## %init.bb
	pushq	%r14
	.cfi_def_cfa_offset 16
	pushq	%rbx
	.cfi_def_cfa_offset 24
	subq	$120, %rsp
	.cfi_def_cfa_offset 144
	.cfi_offset %rbx, -24
	.cfi_offset %r14, -16
	movq	%rdi, %r14
	leaq	__ZTVN14altered_carbon2js9JsVariantE_GEP(%rip), %rax
	movq	%rax, 64(%rsp)
	movl	$1, 72(%rsp)
	movq	%rax, 8(%rsp)
	movl	$1, 16(%rsp)
	leaq	64(%rsp), %rbx
	movl	$1, %esi
	movq	%rbx, %rdi
	callq	__ZN14altered_carbon2js9JsVariantaSEx
	movq	%rbx, %rdi
	callq	__ZNK14altered_carbon2js9JsVariant9asBooleanEv
	testb	%al, %al
	jne	LBB0_2
## %bb.1:                               ## %ret.rhs
	leaq	8(%rsp), %rbx
	xorl	%esi, %esi
	movq	%rbx, %rdi
	callq	__ZN14altered_carbon2js9JsVariantaSEb
LBB0_2:                                 ## %ret.op
	movq	%r14, %rdi
	movq	%rbx, %rsi
	callq	__ZN14altered_carbon2js9JsVariantaSERKS1_
	leaq	8(%rsp), %rdi
	callq	__ZN14altered_carbon2js9JsVariantD1Ev
	leaq	64(%rsp), %rdi
	callq	__ZN14altered_carbon2js9JsVariantD1Ev
	addq	$120, %rsp
	popq	%rbx
	popq	%r14
	retq
	.cfi_endproc
                                        ## -- End function
	.section	__TEXT,__const
	.globl	__ZTSN14altered_carbon2js9JsVariantE ## @_ZTSN14altered_carbon2js9JsVariantE
	.weak_definition	__ZTSN14altered_carbon2js9JsVariantE
	.p2align	4
__ZTSN14altered_carbon2js9JsVariantE:
	.asciz	"N14altered_carbon2js9JsVariantE"

	.section	__DATA,__const
	.globl	__ZTIN14altered_carbon2js9JsVariantE ## @_ZTIN14altered_carbon2js9JsVariantE
	.weak_definition	__ZTIN14altered_carbon2js9JsVariantE
	.p2align	3
__ZTIN14altered_carbon2js9JsVariantE:
	.quad	__ZTVN10__cxxabiv117__class_type_infoE+16
	.quad	__ZTSN14altered_carbon2js9JsVariantE

	.globl	__ZTVN14altered_carbon2js9JsVariantE ## @_ZTVN14altered_carbon2js9JsVariantE
	.weak_def_can_be_hidden	__ZTVN14altered_carbon2js9JsVariantE
	.p2align	3
__ZTVN14altered_carbon2js9JsVariantE:
	.quad	0
	.quad	__ZTIN14altered_carbon2js9JsVariantE
	.quad	__ZN14altered_carbon2js9JsVariantD1Ev
	.quad	__ZN14altered_carbon2js9JsVariantD0Ev

	.p2align	3               ## @_ZTVN14altered_carbon2js9JsVariantE_GEP
__ZTVN14altered_carbon2js9JsVariantE_GEP:
	.quad	__ZTVN14altered_carbon2js9JsVariantE+16


.subsections_via_symbols
