	.section	__TEXT,__text,regular,pure_instructions
	.macosx_version_min 10, 13
	.globl	__Z7_scriptPN14altered_carbon2js9JsVariantE ## -- Begin function _Z7_scriptPN14altered_carbon2js9JsVariantE
	.p2align	4, 0x90
__Z7_scriptPN14altered_carbon2js9JsVariantE: ## @_Z7_scriptPN14altered_carbon2js9JsVariantE
	.cfi_startproc
## %bb.0:                               ## %init.bb
	pushq	%r15
	.cfi_def_cfa_offset 16
	pushq	%r14
	.cfi_def_cfa_offset 24
	pushq	%rbx
	.cfi_def_cfa_offset 32
	subq	$672, %rsp              ## imm = 0x2A0
	.cfi_def_cfa_offset 704
	.cfi_offset %rbx, -32
	.cfi_offset %r14, -24
	.cfi_offset %r15, -16
	movq	%rdi, %r14
	movq	__ZTVN14altered_carbon2js9JsVariantE@GOTPCREL(%rip), %rax
	addq	$16, %rax
	movq	%rax, 560(%rsp)
	movl	$1, 568(%rsp)
	movq	%rax, 504(%rsp)
	movl	$1, 512(%rsp)
	movq	%rax, 448(%rsp)
	movl	$1, 456(%rsp)
	movq	%rax, (%rsp)
	movl	$1, 8(%rsp)
	movq	%rax, 392(%rsp)
	movl	$1, 400(%rsp)
	movq	%rax, 616(%rsp)
	movl	$1, 624(%rsp)
	movq	%rax, 336(%rsp)
	movl	$1, 344(%rsp)
	movq	%rax, 280(%rsp)
	movl	$1, 288(%rsp)
	movq	%rax, 224(%rsp)
	movl	$1, 232(%rsp)
	movq	%rax, 56(%rsp)
	movl	$1, 64(%rsp)
	movq	%rax, 168(%rsp)
	movl	$1, 176(%rsp)
	movq	%rax, 112(%rsp)
	movl	$1, 120(%rsp)
	leaq	560(%rsp), %r15
	movl	$1, %esi
	movq	%r15, %rdi
	callq	__ZN14altered_carbon2js9JsVariantaSEx
	leaq	504(%rsp), %rbx
	movl	$2, %esi
	movq	%rbx, %rdi
	callq	__ZN14altered_carbon2js9JsVariantaSEx
	leaq	448(%rsp), %rsi
	movq	%r15, %rdi
	movq	%rbx, %rdx
	callq	__ZNK14altered_carbon2js9JsVariant3addEPS1_RKS1_
	movq	%rsp, %r15
	movq	%r15, %rdi
	movq	%rax, %rsi
	callq	__ZN14altered_carbon2js9JsVariantaSERKS1_
	leaq	392(%rsp), %rbx
	xorl	%esi, %esi
	movq	%rbx, %rdi
	callq	__ZN14altered_carbon2js9JsVariantaSEx
	movq	%r15, %rdi
	movq	%rbx, %rsi
	callq	__ZNK14altered_carbon2js9JsVariantgtERKS1_
	movzbl	%al, %esi
	leaq	336(%rsp), %rbx
	movq	%rbx, %rdi
	callq	__ZN14altered_carbon2js9JsVariantC1Eb
	movq	%rbx, %rdi
	callq	__ZNK14altered_carbon2js9JsVariant9asBooleanEv
	testb	%al, %al
	je	LBB0_2
## %bb.1:                               ## %ret.lhs
	leaq	280(%rsp), %rbx
	movl	$1, %esi
	movq	%rbx, %rdi
	callq	__ZN14altered_carbon2js9JsVariantaSEx
	leaq	224(%rsp), %rsi
	movq	%rsp, %rdx
	movq	%rbx, %rdi
	callq	__ZNK14altered_carbon2js9JsVariant3subEPS1_RKS1_
	jmp	LBB0_3
LBB0_2:                                 ## %ret.rhs
	leaq	168(%rsp), %rbx
	movl	$1, %esi
	movq	%rbx, %rdi
	callq	__ZN14altered_carbon2js9JsVariantaSEx
	leaq	112(%rsp), %rsi
	movq	%rsp, %rdx
	movq	%rbx, %rdi
	callq	__ZNK14altered_carbon2js9JsVariant3addEPS1_RKS1_
LBB0_3:                                 ## %ret.op
	leaq	56(%rsp), %rdi
	movq	%rax, %rsi
	callq	__ZN14altered_carbon2js9JsVariantaSERKS1_
	leaq	56(%rsp), %rbx
	movq	%r14, %rdi
	movq	%rbx, %rsi
	callq	__ZN14altered_carbon2js9JsVariantaSERKS1_
	leaq	112(%rsp), %rdi
	callq	__ZN14altered_carbon2js9JsVariantD1Ev
	leaq	168(%rsp), %rdi
	callq	__ZN14altered_carbon2js9JsVariantD1Ev
	movq	%rbx, %rdi
	callq	__ZN14altered_carbon2js9JsVariantD1Ev
	leaq	224(%rsp), %rdi
	callq	__ZN14altered_carbon2js9JsVariantD1Ev
	leaq	280(%rsp), %rdi
	callq	__ZN14altered_carbon2js9JsVariantD1Ev
	leaq	336(%rsp), %rdi
	callq	__ZN14altered_carbon2js9JsVariantD1Ev
	leaq	616(%rsp), %rdi
	callq	__ZN14altered_carbon2js9JsVariantD1Ev
	leaq	392(%rsp), %rdi
	callq	__ZN14altered_carbon2js9JsVariantD1Ev
	movq	%rsp, %rdi
	callq	__ZN14altered_carbon2js9JsVariantD1Ev
	leaq	448(%rsp), %rdi
	callq	__ZN14altered_carbon2js9JsVariantD1Ev
	leaq	504(%rsp), %rdi
	callq	__ZN14altered_carbon2js9JsVariantD1Ev
	leaq	560(%rsp), %rdi
	callq	__ZN14altered_carbon2js9JsVariantD1Ev
	addq	$672, %rsp              ## imm = 0x2A0
	popq	%rbx
	popq	%r14
	popq	%r15
	retq
	.cfi_endproc
                                        ## -- End function
	.section	__TEXT,__const
	.globl	__ZTSN14altered_carbon2js9JsVariantE ## @_ZTSN14altered_carbon2js9JsVariantE
	.weak_definition	__ZTSN14altered_carbon2js9JsVariantE
	.p2align	4
__ZTSN14altered_carbon2js9JsVariantE:
	.asciz	"N14altered_carbon2js9JsVariantE"

	.section	__DATA,__const
	.globl	__ZTIN14altered_carbon2js9JsVariantE ## @_ZTIN14altered_carbon2js9JsVariantE
	.weak_definition	__ZTIN14altered_carbon2js9JsVariantE
	.p2align	3
__ZTIN14altered_carbon2js9JsVariantE:
	.quad	__ZTVN10__cxxabiv117__class_type_infoE+16
	.quad	__ZTSN14altered_carbon2js9JsVariantE

	.globl	__ZTVN14altered_carbon2js9JsVariantE ## @_ZTVN14altered_carbon2js9JsVariantE
	.weak_def_can_be_hidden	__ZTVN14altered_carbon2js9JsVariantE
	.p2align	3
__ZTVN14altered_carbon2js9JsVariantE:
	.quad	0
	.quad	__ZTIN14altered_carbon2js9JsVariantE
	.quad	__ZN14altered_carbon2js9JsVariantD1Ev
	.quad	__ZN14altered_carbon2js9JsVariantD0Ev


.subsections_via_symbols
