	.section	__TEXT,__text,regular,pure_instructions
	.macosx_version_min 10, 14
	.globl	__Z7_scriptPN14altered_carbon2js9JsVariantE ## -- Begin function _Z7_scriptPN14altered_carbon2js9JsVariantE
	.p2align	4, 0x90
__Z7_scriptPN14altered_carbon2js9JsVariantE: ## @_Z7_scriptPN14altered_carbon2js9JsVariantE
	.cfi_startproc
## %bb.0:                               ## %init.bb
	pushq	%r15
	.cfi_def_cfa_offset 16
	pushq	%r14
	.cfi_def_cfa_offset 24
	pushq	%r12
	.cfi_def_cfa_offset 32
	pushq	%rbx
	.cfi_def_cfa_offset 40
	subq	$376, %rsp              ## imm = 0x178
	.cfi_def_cfa_offset 416
	.cfi_offset %rbx, -40
	.cfi_offset %r12, -32
	.cfi_offset %r14, -24
	.cfi_offset %r15, -16
	movq	%rdi, %r14
	leaq	__ZTVN14altered_carbon2js9JsVariantE_GEP(%rip), %rbx
	movq	%rbx, 208(%rsp)
	movl	$1, 216(%rsp)
	movq	%rbx, 152(%rsp)
	movl	$1, 160(%rsp)
	movq	%rbx, 320(%rsp)
	movl	$1, 328(%rsp)
	movq	%rbx, 264(%rsp)
	movl	$1, 272(%rsp)
	movq	%rbx, 56(%rsp)
	movl	$1, 64(%rsp)
	movq	%rbx, (%rsp)
	movl	$1, 8(%rsp)
	leaq	208(%rsp), %rdi
	movl	$1, %esi
	callq	__ZN14altered_carbon2js9JsVariantaSEx
	leaq	152(%rsp), %rdi
	movl	$2, %esi
	callq	__ZN14altered_carbon2js9JsVariantaSEx
	movl	$232, %edi
	callq	__Znam
	movq	$4, (%rax)
	leaq	8(%rax), %r12
	addq	$232, %rax
	movq	%r12, %rcx
	.p2align	4, 0x90
LBB0_1:                                 ## %initarr.bb
                                        ## =>This Inner Loop Header: Depth=1
	movq	%rbx, (%rcx)
	movl	$1, 8(%rcx)
	addq	$56, %rcx
	cmpq	%rax, %rcx
	jne	LBB0_1
## %bb.2:                               ## %initarr.bbe
	leaq	208(%rsp), %rsi
	movq	%r12, %rdi
	callq	__ZN14altered_carbon2js9JsVariantaSERKS1_
	movq	%r12, 112(%rsp)
	leaq	56(%r12), %r15
	leaq	152(%rsp), %rsi
	movq	%r15, %rdi
	callq	__ZN14altered_carbon2js9JsVariantaSERKS1_
	movq	%r15, 120(%rsp)
	leaq	112(%r12), %r15
	leaq	320(%rsp), %rsi
	movq	%r15, %rdi
	callq	__ZN14altered_carbon2js9JsVariantaSERKS1_
	movq	%r15, 128(%rsp)
	addq	$168, %r12
	leaq	264(%rsp), %rsi
	movq	%r12, %rdi
	callq	__ZN14altered_carbon2js9JsVariantaSERKS1_
	movq	%r12, 136(%rsp)
	leaq	56(%rsp), %rdi
	leaq	112(%rsp), %rsi
	movl	$4, %edx
	callq	__ZN14altered_carbon2js9JsVariantaSEN4llvm8ArrayRefIPS1_EE
	cmpl	$6, 8(%rsp)
	jg	LBB0_6
## %bb.3:                               ## %initarr.bbe
	movl	64(%rsp), %eax
	cmpl	$6, %eax
	jg	LBB0_6
## %bb.4:                               ## %copy.bb
	leal	2(%rax), %ecx
	cmpl	$8, %ecx
	ja	LBB0_6
## %bb.5:                               ## %copy.bb
	leaq	LJTI0_0(%rip), %rdx
	movslq	(%rdx,%rcx,4), %rcx
	addq	%rdx, %rcx
	jmpq	*%rcx
LBB0_8:                                 ## %casenul_unf.bb
	movl	%eax, 8(%rsp)
	jmp	LBB0_11
LBB0_6:                                 ## %fallback.bb
	movq	%rsp, %rdi
	leaq	56(%rsp), %rsi
	callq	__ZN14altered_carbon2js9JsVariantaSERKS1_
LBB0_11:                                ## %copy.bbe
	movq	%rsp, %rbx
	movq	%r14, %rdi
	movq	%rbx, %rsi
	callq	__ZN14altered_carbon2js9JsVariantaSERKS1_
	movq	%rbx, %rdi
	callq	__ZN14altered_carbon2js9JsVariantD1Ev
	leaq	56(%rsp), %rdi
	callq	__ZN14altered_carbon2js9JsVariantD1Ev
	leaq	264(%rsp), %rdi
	callq	__ZN14altered_carbon2js9JsVariantD1Ev
	leaq	320(%rsp), %rdi
	callq	__ZN14altered_carbon2js9JsVariantD1Ev
	leaq	152(%rsp), %rdi
	callq	__ZN14altered_carbon2js9JsVariantD1Ev
	leaq	208(%rsp), %rdi
	callq	__ZN14altered_carbon2js9JsVariantD1Ev
	addq	$376, %rsp              ## imm = 0x178
	popq	%rbx
	popq	%r12
	popq	%r14
	popq	%r15
	retq
LBB0_7:                                 ## %caseerr.bb
	movl	%eax, 8(%rsp)
	movq	72(%rsp), %rax
	movq	%rax, 16(%rsp)
	jmp	LBB0_11
LBB0_10:                                ## %casenum.bb
	movl	%eax, 8(%rsp)
	movq	72(%rsp), %rax
	movsd	80(%rsp), %xmm0         ## xmm0 = mem[0],zero
	movb	88(%rsp), %cl
	movq	%rax, 16(%rsp)
	movsd	%xmm0, 24(%rsp)
	movb	%cl, 32(%rsp)
	jmp	LBB0_11
LBB0_9:                                 ## %casebln.bb
	movl	%eax, 8(%rsp)
	movb	72(%rsp), %al
	movb	%al, 16(%rsp)
	jmp	LBB0_11
	.cfi_endproc
	.p2align	2, 0x90
	.data_region jt32
.set L0_0_set_7, LBB0_7-LJTI0_0
.set L0_0_set_6, LBB0_6-LJTI0_0
.set L0_0_set_8, LBB0_8-LJTI0_0
.set L0_0_set_10, LBB0_10-LJTI0_0
.set L0_0_set_9, LBB0_9-LJTI0_0
LJTI0_0:
	.long	L0_0_set_7
	.long	L0_0_set_6
	.long	L0_0_set_8
	.long	L0_0_set_8
	.long	L0_0_set_10
	.long	L0_0_set_6
	.long	L0_0_set_6
	.long	L0_0_set_6
	.long	L0_0_set_9
	.end_data_region
                                        ## -- End function
	.section	__TEXT,__const
	.globl	__ZTSN14altered_carbon2js9JsVariantE ## @_ZTSN14altered_carbon2js9JsVariantE
	.weak_definition	__ZTSN14altered_carbon2js9JsVariantE
	.p2align	4
__ZTSN14altered_carbon2js9JsVariantE:
	.asciz	"N14altered_carbon2js9JsVariantE"

	.section	__DATA,__const
	.globl	__ZTIN14altered_carbon2js9JsVariantE ## @_ZTIN14altered_carbon2js9JsVariantE
	.weak_definition	__ZTIN14altered_carbon2js9JsVariantE
	.p2align	3
__ZTIN14altered_carbon2js9JsVariantE:
	.quad	__ZTVN10__cxxabiv117__class_type_infoE+16
	.quad	__ZTSN14altered_carbon2js9JsVariantE

	.globl	__ZTVN14altered_carbon2js9JsVariantE ## @_ZTVN14altered_carbon2js9JsVariantE
	.weak_def_can_be_hidden	__ZTVN14altered_carbon2js9JsVariantE
	.p2align	3
__ZTVN14altered_carbon2js9JsVariantE:
	.quad	0
	.quad	__ZTIN14altered_carbon2js9JsVariantE
	.quad	__ZN14altered_carbon2js9JsVariantD1Ev
	.quad	__ZN14altered_carbon2js9JsVariantD0Ev

	.p2align	3               ## @_ZTVN14altered_carbon2js9JsVariantE_GEP
__ZTVN14altered_carbon2js9JsVariantE_GEP:
	.quad	__ZTVN14altered_carbon2js9JsVariantE+16


.subsections_via_symbols
