	.section	__TEXT,__text,regular,pure_instructions
	.macosx_version_min 10, 14
	.section	__TEXT,__literal8,8byte_literals
	.p2align	3               ## -- Begin function _Z7_scriptPN14altered_carbon2js9JsVariantE
LCPI0_0:
	.quad	9218868437227405312     ## double +Inf
	.section	__TEXT,__text,regular,pure_instructions
	.globl	__Z7_scriptPN14altered_carbon2js9JsVariantE
	.p2align	4, 0x90
__Z7_scriptPN14altered_carbon2js9JsVariantE: ## @_Z7_scriptPN14altered_carbon2js9JsVariantE
	.cfi_startproc
## %bb.0:                               ## %init.bb
	pushq	%r15
	.cfi_def_cfa_offset 16
	pushq	%r14
	.cfi_def_cfa_offset 24
	pushq	%rbx
	.cfi_def_cfa_offset 32
	subq	$176, %rsp
	.cfi_def_cfa_offset 208
	.cfi_offset %rbx, -32
	.cfi_offset %r14, -24
	.cfi_offset %r15, -16
	leaq	__ZTVN14altered_carbon2js9JsVariantE_GEP(%rip), %rax
	movq	%rax, 120(%rsp)
	movl	$1, 128(%rsp)
	movq	%rax, 64(%rsp)
	movl	$1, 72(%rsp)
	movq	%rax, 8(%rsp)
	movl	$1, 16(%rsp)
	movq	%rdi, %r14
	leaq	120(%rsp), %r15
	movl	$1, %esi
	movq	%r15, %rdi
	callq	__ZN14altered_carbon2js9JsVariantaSEx
	leaq	64(%rsp), %rbx
	movsd	LCPI0_0(%rip), %xmm0    ## xmm0 = mem[0],zero
	movq	%rbx, %rdi
	callq	__ZN14altered_carbon2js9JsVariantaSEd
	leaq	8(%rsp), %rsi
	movq	%r15, %rdi
	movq	%rbx, %rdx
	callq	__ZNK14altered_carbon2js9JsVariant3ltsEPS1_RKS1_
	movq	%r14, %rdi
	movq	%rax, %rsi
	callq	__ZN14altered_carbon2js9JsVariantaSERKS1_
	leaq	8(%rsp), %rdi
	callq	__ZN14altered_carbon2js9JsVariantD1Ev
	leaq	64(%rsp), %rdi
	callq	__ZN14altered_carbon2js9JsVariantD1Ev
	leaq	120(%rsp), %rdi
	callq	__ZN14altered_carbon2js9JsVariantD1Ev
	addq	$176, %rsp
	popq	%rbx
	popq	%r14
	popq	%r15
	retq
	.cfi_endproc
                                        ## -- End function
	.section	__TEXT,__const
	.globl	__ZTSN14altered_carbon2js9JsVariantE ## @_ZTSN14altered_carbon2js9JsVariantE
	.weak_definition	__ZTSN14altered_carbon2js9JsVariantE
	.p2align	4
__ZTSN14altered_carbon2js9JsVariantE:
	.asciz	"N14altered_carbon2js9JsVariantE"

	.section	__DATA,__const
	.globl	__ZTIN14altered_carbon2js9JsVariantE ## @_ZTIN14altered_carbon2js9JsVariantE
	.weak_definition	__ZTIN14altered_carbon2js9JsVariantE
	.p2align	3
__ZTIN14altered_carbon2js9JsVariantE:
	.quad	__ZTVN10__cxxabiv117__class_type_infoE+16
	.quad	__ZTSN14altered_carbon2js9JsVariantE

	.globl	__ZTVN14altered_carbon2js9JsVariantE ## @_ZTVN14altered_carbon2js9JsVariantE
	.weak_def_can_be_hidden	__ZTVN14altered_carbon2js9JsVariantE
	.p2align	3
__ZTVN14altered_carbon2js9JsVariantE:
	.quad	0
	.quad	__ZTIN14altered_carbon2js9JsVariantE
	.quad	__ZN14altered_carbon2js9JsVariantD1Ev
	.quad	__ZN14altered_carbon2js9JsVariantD0Ev

	.p2align	3               ## @_ZTVN14altered_carbon2js9JsVariantE_GEP
__ZTVN14altered_carbon2js9JsVariantE_GEP:
	.quad	__ZTVN14altered_carbon2js9JsVariantE+16


.subsections_via_symbols
