	.section	__TEXT,__text,regular,pure_instructions
	.macosx_version_min 10, 14
	.section	__TEXT,__literal8,8byte_literals
	.p2align	3               ## -- Begin function _Z7_scriptPN14altered_carbon2js9JsVariantE
LCPI0_0:
	.quad	9218868437227405312     ## double +Inf
	.section	__TEXT,__text,regular,pure_instructions
	.globl	__Z7_scriptPN14altered_carbon2js9JsVariantE
	.p2align	4, 0x90
__Z7_scriptPN14altered_carbon2js9JsVariantE: ## @_Z7_scriptPN14altered_carbon2js9JsVariantE
	.cfi_startproc
## %bb.0:                               ## %init.bb
	pushq	%r14
	.cfi_def_cfa_offset 16
	pushq	%rbx
	.cfi_def_cfa_offset 24
	subq	$280, %rsp              ## imm = 0x118
	.cfi_def_cfa_offset 304
	.cfi_offset %rbx, -24
	.cfi_offset %r14, -16
	movq	%rdi, %r14
	leaq	__ZTVN14altered_carbon2js9JsVariantE_GEP(%rip), %rax
	movq	%rax, 224(%rsp)
	movl	$1, 232(%rsp)
	movq	%rax, 56(%rsp)
	movl	$1, 64(%rsp)
	movq	%rax, (%rsp)
	movl	$1, 8(%rsp)
	movq	%rax, 168(%rsp)
	movl	$1, 176(%rsp)
	movq	%rax, 112(%rsp)
	movl	$1, 120(%rsp)
	leaq	224(%rsp), %rbx
	movsd	LCPI0_0(%rip), %xmm0    ## xmm0 = mem[0],zero
	movq	%rbx, %rdi
	callq	__ZN14altered_carbon2js9JsVariantaSEd
	leaq	56(%rsp), %rdi
	movq	%rbx, %rsi
	callq	__ZN14altered_carbon2js9JsVariantngEv
	cmpl	$6, 8(%rsp)
	jg	LBB0_4
## %bb.1:                               ## %init.bb
	movl	64(%rsp), %eax
	cmpl	$6, %eax
	jg	LBB0_4
## %bb.2:                               ## %copy.bb
	leal	2(%rax), %ecx
	cmpl	$8, %ecx
	ja	LBB0_4
## %bb.3:                               ## %copy.bb
	leaq	LJTI0_0(%rip), %rdx
	movslq	(%rdx,%rcx,4), %rcx
	addq	%rdx, %rcx
	jmpq	*%rcx
LBB0_6:                                 ## %casenul_unf.bb
	movl	%eax, 8(%rsp)
	jmp	LBB0_9
LBB0_4:                                 ## %fallback.bb
	movq	%rsp, %rdi
	leaq	56(%rsp), %rsi
	callq	__ZN14altered_carbon2js9JsVariantaSERKS1_
LBB0_9:                                 ## %copy.bbe
	leaq	168(%rsp), %rbx
	xorl	%esi, %esi
	movq	%rbx, %rdi
	callq	__ZN14altered_carbon2js9JsVariantaSEx
	movq	%rsp, %rdi
	movq	%rbx, %rsi
	callq	__ZNK14altered_carbon2js9JsVariantltERKS1_
	cmpl	$7, 120(%rsp)
	jge	LBB0_12
## %bb.10:                              ## %assign.bb
	movl	$6, 120(%rsp)
	movb	%al, 128(%rsp)
	jmp	LBB0_11
LBB0_12:                                ## %fallback.bb5
	movzbl	%al, %esi
	leaq	112(%rsp), %rdi
	callq	__ZN14altered_carbon2js9JsVariantaSEb
LBB0_11:                                ## %assign.bbe
	leaq	112(%rsp), %rbx
	movq	%r14, %rdi
	movq	%rbx, %rsi
	callq	__ZN14altered_carbon2js9JsVariantaSERKS1_
	movq	%rbx, %rdi
	callq	__ZN14altered_carbon2js9JsVariantD1Ev
	leaq	168(%rsp), %rdi
	callq	__ZN14altered_carbon2js9JsVariantD1Ev
	movq	%rsp, %rdi
	callq	__ZN14altered_carbon2js9JsVariantD1Ev
	leaq	56(%rsp), %rdi
	callq	__ZN14altered_carbon2js9JsVariantD1Ev
	leaq	224(%rsp), %rdi
	callq	__ZN14altered_carbon2js9JsVariantD1Ev
	addq	$280, %rsp              ## imm = 0x118
	popq	%rbx
	popq	%r14
	retq
LBB0_5:                                 ## %caseerr.bb
	movl	%eax, 8(%rsp)
	movq	72(%rsp), %rax
	movq	%rax, 16(%rsp)
	jmp	LBB0_9
LBB0_8:                                 ## %casenum.bb
	movl	%eax, 8(%rsp)
	movq	72(%rsp), %rax
	movsd	80(%rsp), %xmm0         ## xmm0 = mem[0],zero
	movb	88(%rsp), %cl
	movq	%rax, 16(%rsp)
	movsd	%xmm0, 24(%rsp)
	movb	%cl, 32(%rsp)
	jmp	LBB0_9
LBB0_7:                                 ## %casebln.bb
	movl	%eax, 8(%rsp)
	movb	72(%rsp), %al
	movb	%al, 16(%rsp)
	jmp	LBB0_9
	.cfi_endproc
	.p2align	2, 0x90
	.data_region jt32
.set L0_0_set_5, LBB0_5-LJTI0_0
.set L0_0_set_4, LBB0_4-LJTI0_0
.set L0_0_set_6, LBB0_6-LJTI0_0
.set L0_0_set_8, LBB0_8-LJTI0_0
.set L0_0_set_7, LBB0_7-LJTI0_0
LJTI0_0:
	.long	L0_0_set_5
	.long	L0_0_set_4
	.long	L0_0_set_6
	.long	L0_0_set_6
	.long	L0_0_set_8
	.long	L0_0_set_4
	.long	L0_0_set_4
	.long	L0_0_set_4
	.long	L0_0_set_7
	.end_data_region
                                        ## -- End function
	.section	__TEXT,__const
	.globl	__ZTSN14altered_carbon2js9JsVariantE ## @_ZTSN14altered_carbon2js9JsVariantE
	.weak_definition	__ZTSN14altered_carbon2js9JsVariantE
	.p2align	4
__ZTSN14altered_carbon2js9JsVariantE:
	.asciz	"N14altered_carbon2js9JsVariantE"

	.section	__DATA,__const
	.globl	__ZTIN14altered_carbon2js9JsVariantE ## @_ZTIN14altered_carbon2js9JsVariantE
	.weak_definition	__ZTIN14altered_carbon2js9JsVariantE
	.p2align	3
__ZTIN14altered_carbon2js9JsVariantE:
	.quad	__ZTVN10__cxxabiv117__class_type_infoE+16
	.quad	__ZTSN14altered_carbon2js9JsVariantE

	.globl	__ZTVN14altered_carbon2js9JsVariantE ## @_ZTVN14altered_carbon2js9JsVariantE
	.weak_def_can_be_hidden	__ZTVN14altered_carbon2js9JsVariantE
	.p2align	3
__ZTVN14altered_carbon2js9JsVariantE:
	.quad	0
	.quad	__ZTIN14altered_carbon2js9JsVariantE
	.quad	__ZN14altered_carbon2js9JsVariantD1Ev
	.quad	__ZN14altered_carbon2js9JsVariantD0Ev

	.p2align	3               ## @_ZTVN14altered_carbon2js9JsVariantE_GEP
__ZTVN14altered_carbon2js9JsVariantE_GEP:
	.quad	__ZTVN14altered_carbon2js9JsVariantE+16


.subsections_via_symbols
