; ModuleID = '/Users/ejiang/Projects/lls/ac/script73.js'
source_filename = "/Users/ejiang/Projects/lls/ac/script73.js"

%"cls.acjs::JsVariant" = type { i32 (...)**, i32, %union.anon.6 }
%union.anon.6 = type { %"cls.acjs::JsVariantFunc", [24 x i8] }
%"cls.acjs::JsVariantFunc" = type { void (%"cls.acjs::JsVariant"*, %"cls.acjs::JsVariant"*, %"cls.acjs::JsVariant"**, i64)*, i32* }
%"str.acjs::JsVariantIterator" = type { %"cls.acjs::RefCountedPtr", %"cls.acjs::RBTreeNode"*, i32, i32 }
%"cls.acjs::RefCountedPtr" = type { %"cls.acjs::RefCounted"* }
%"cls.acjs::RefCounted" = type { %"cls.acjs::JsVariantArray", %"str.acjs::RefCounter" }
%"cls.acjs::JsVariantArray" = type { i32 (...)**, %"cls.acjs::RBTreeNode"* }
%"str.acjs::RefCounter" = type { %"struct.std::__1::__atomic" }
%"struct.std::__1::__atomic" = type { %"struct.std::__1::__atomic_base.9" }
%"struct.std::__1::__atomic_base.9" = type { %"struct.std::__1::__atomic_base" }
%"struct.std::__1::__atomic_base" = type { i64 }
%"cls.acjs::RBTreeNode" = type { i32 (...)**, i32, i32, i32, i32, %"cls.acjs::RBTreeNode"*, %"cls.acjs::RBTreeNode"*, %"cls.acjs::RBTreeNode"*, %"struct.std::__1::__vector" }
%"struct.std::__1::__vector" = type { %"struct.std::__1::__vector_base" }
%"struct.std::__1::__vector_base" = type { %"cls.acjs::JsVariant"**, %"cls.acjs::JsVariant"**, %"class.std::__1::__compressed_pair.8" }
%"class.std::__1::__compressed_pair.8" = type { %"struct.std::__1::__compressed_pair_elem.7" }
%"struct.std::__1::__compressed_pair_elem.7" = type { %"cls.acjs::JsVariant"** }
%"cls.acjs::JsVariantNumber" = type <{ i64, double, i8, [16 x i8] }>

@_ZTVN10__cxxabiv117__class_type_infoE = external global i8*
@_ZTSN14altered_carbon2js9JsVariantE = linkonce_odr constant [32 x i8] c"N14altered_carbon2js9JsVariantE\00"
@_ZTIN14altered_carbon2js9JsVariantE = linkonce_odr constant { i8*, i8* } { i8* bitcast (i8** getelementptr inbounds (i8*, i8** @_ZTVN10__cxxabiv117__class_type_infoE, i64 2) to i8*), i8* getelementptr inbounds ([32 x i8], [32 x i8]* @_ZTSN14altered_carbon2js9JsVariantE, i32 0, i32 0) }
@_ZTVN14altered_carbon2js9JsVariantE = linkonce_odr unnamed_addr constant { [4 x i8*] } { [4 x i8*] [i8* null, i8* bitcast ({ i8*, i8* }* @_ZTIN14altered_carbon2js9JsVariantE to i8*), i8* bitcast (void (%"cls.acjs::JsVariant"*)* @_ZN14altered_carbon2js9JsVariantD1Ev to i8*), i8* bitcast (void (%"cls.acjs::JsVariant"*)* @_ZN14altered_carbon2js9JsVariantD0Ev to i8*)] }, align 8
@_ZTVN14altered_carbon2js9JsVariantE_GEP = internal constant i8** getelementptr inbounds ({ [4 x i8*] }, { [4 x i8*] }* @_ZTVN14altered_carbon2js9JsVariantE, i32 0, inrange i32 0, i32 2)
@_ZN14altered_carbon2js11JsConstants9UndefinedE = external constant %"cls.acjs::JsVariant"
@_ZN14altered_carbon2js11JsConstants4NullE = external constant %"cls.acjs::JsVariant"
@_ZN14altered_carbon2js11JsConstants3NaNE = external constant %"cls.acjs::JsVariant"
@_ZN14altered_carbon2js11JsConstants8InfinityE = external constant %"cls.acjs::JsVariant"
@_ZN14altered_carbon2js11JsConstants9TypeErrorE = external constant %"cls.acjs::JsVariant"
@_ZN14altered_carbon2js11JsConstants16NullPointerErrorE = external constant %"cls.acjs::JsVariant"
@_ZN14altered_carbon2js11JsConstants3EndE = external constant %"str.acjs::JsVariantIterator"
@_ZN14altered_carbon2js11JsConstants4REndE = external constant %"str.acjs::JsVariantIterator"

declare void @_ZN14altered_carbon2js9JsVariantD1Ev(%"cls.acjs::JsVariant"*)

declare void @_ZN14altered_carbon2js9JsVariantD0Ev(%"cls.acjs::JsVariant"*)

declare dereferenceable(56) %"cls.acjs::JsVariant"* @_ZNK14altered_carbon2js9JsVariant3bwaEPS1_RKS1_(%"cls.acjs::JsVariant"*, %"cls.acjs::JsVariant"*, %"cls.acjs::JsVariant"* dereferenceable(56))

declare dereferenceable(56) %"cls.acjs::JsVariant"* @_ZNK14altered_carbon2js9JsVariant3bwxEPS1_RKS1_(%"cls.acjs::JsVariant"*, %"cls.acjs::JsVariant"*, %"cls.acjs::JsVariant"* dereferenceable(56))

declare zeroext i1 @_ZNK14altered_carbon2js9JsVarianteqERKS1_(%"cls.acjs::JsVariant"*, %"cls.acjs::JsVariant"* dereferenceable(56))

declare zeroext i1 @_ZNK14altered_carbon2js9JsVariantneERKS1_(%"cls.acjs::JsVariant"*, %"cls.acjs::JsVariant"* dereferenceable(56))

declare zeroext i1 @_ZNK14altered_carbon2js9JsVariant4eqvtERKS1_(%"cls.acjs::JsVariant"*, %"cls.acjs::JsVariant"* dereferenceable(56))

declare zeroext i1 @_ZNK14altered_carbon2js9JsVariant4nevtERKS1_(%"cls.acjs::JsVariant"*, %"cls.acjs::JsVariant"* dereferenceable(56))

declare zeroext i1 @_ZNK14altered_carbon2js9JsVariantltERKS1_(%"cls.acjs::JsVariant"*, %"cls.acjs::JsVariant"* dereferenceable(56))

declare zeroext i1 @_ZNK14altered_carbon2js9JsVariantgtERKS1_(%"cls.acjs::JsVariant"*, %"cls.acjs::JsVariant"* dereferenceable(56))

declare zeroext i1 @_ZNK14altered_carbon2js9JsVariantleERKS1_(%"cls.acjs::JsVariant"*, %"cls.acjs::JsVariant"* dereferenceable(56))

declare zeroext i1 @_ZNK14altered_carbon2js9JsVariantgeERKS1_(%"cls.acjs::JsVariant"*, %"cls.acjs::JsVariant"* dereferenceable(56))

declare dereferenceable(56) %"cls.acjs::JsVariant"* @_ZNK14altered_carbon2js9JsVariant3ltsEPS1_RKS1_(%"cls.acjs::JsVariant"*, %"cls.acjs::JsVariant"*, %"cls.acjs::JsVariant"* dereferenceable(56))

declare dereferenceable(56) %"cls.acjs::JsVariant"* @_ZNK14altered_carbon2js9JsVariant3rtsEPS1_RKS1_(%"cls.acjs::JsVariant"*, %"cls.acjs::JsVariant"*, %"cls.acjs::JsVariant"* dereferenceable(56))

declare dereferenceable(56) %"cls.acjs::JsVariant"* @_ZNK14altered_carbon2js9JsVariant3rszEPS1_RKS1_(%"cls.acjs::JsVariant"*, %"cls.acjs::JsVariant"*, %"cls.acjs::JsVariant"* dereferenceable(56))

declare dereferenceable(56) %"cls.acjs::JsVariant"* @_ZNK14altered_carbon2js9JsVariant3addEPS1_RKS1_(%"cls.acjs::JsVariant"*, %"cls.acjs::JsVariant"*, %"cls.acjs::JsVariant"* dereferenceable(56))

declare void @_ZN14altered_carbon2js9JsVariantpsEv(%"cls.acjs::JsVariant"* noalias sret, %"cls.acjs::JsVariant"*)

declare dereferenceable(56) %"cls.acjs::JsVariant"* @_ZNK14altered_carbon2js9JsVariant3subEPS1_RKS1_(%"cls.acjs::JsVariant"*, %"cls.acjs::JsVariant"*, %"cls.acjs::JsVariant"* dereferenceable(56))

declare void @_ZN14altered_carbon2js9JsVariantngEv(%"cls.acjs::JsVariant"* noalias sret, %"cls.acjs::JsVariant"*)

declare dereferenceable(56) %"cls.acjs::JsVariant"* @_ZNK14altered_carbon2js9JsVariant3mulEPS1_RKS1_(%"cls.acjs::JsVariant"*, %"cls.acjs::JsVariant"*, %"cls.acjs::JsVariant"* dereferenceable(56))

declare dereferenceable(56) %"cls.acjs::JsVariant"* @_ZNK14altered_carbon2js9JsVariant3divEPS1_RKS1_(%"cls.acjs::JsVariant"*, %"cls.acjs::JsVariant"*, %"cls.acjs::JsVariant"* dereferenceable(56))

declare dereferenceable(56) %"cls.acjs::JsVariant"* @_ZNK14altered_carbon2js9JsVariant3modEPS1_RKS1_(%"cls.acjs::JsVariant"*, %"cls.acjs::JsVariant"*, %"cls.acjs::JsVariant"* dereferenceable(56))

declare void @_ZN14altered_carbon2js9JsVariantcoEv(%"cls.acjs::JsVariant"* noalias sret, %"cls.acjs::JsVariant"*)

declare void @_ZN14altered_carbon2js9JsVariantppEi(%"cls.acjs::JsVariant"* noalias sret, %"cls.acjs::JsVariant"*, i32)

declare dereferenceable(56) %"cls.acjs::JsVariant"* @_ZN14altered_carbon2js9JsVariantppEv(%"cls.acjs::JsVariant"*)

declare void @_ZN14altered_carbon2js9JsVariantmmEi(%"cls.acjs::JsVariant"* noalias sret, %"cls.acjs::JsVariant"*, i32)

declare dereferenceable(56) %"cls.acjs::JsVariant"* @_ZN14altered_carbon2js9JsVariantmmEv(%"cls.acjs::JsVariant"*)

declare dereferenceable(56) %"cls.acjs::JsVariant"* @_ZN14altered_carbon2js9JsVariantaSERKS1_(%"cls.acjs::JsVariant"*, %"cls.acjs::JsVariant"* dereferenceable(56))

declare dereferenceable(56) %"cls.acjs::JsVariant"* @_ZN14altered_carbon2js9JsVariantpLERKS1_(%"cls.acjs::JsVariant"*, %"cls.acjs::JsVariant"* dereferenceable(56))

declare dereferenceable(56) %"cls.acjs::JsVariant"* @_ZN14altered_carbon2js9JsVariantmIERKS1_(%"cls.acjs::JsVariant"*, %"cls.acjs::JsVariant"* dereferenceable(56))

declare dereferenceable(56) %"cls.acjs::JsVariant"* @_ZN14altered_carbon2js9JsVariantmLERKS1_(%"cls.acjs::JsVariant"*, %"cls.acjs::JsVariant"* dereferenceable(56))

declare dereferenceable(56) %"cls.acjs::JsVariant"* @_ZN14altered_carbon2js9JsVariantdVERKS1_(%"cls.acjs::JsVariant"*, %"cls.acjs::JsVariant"* dereferenceable(56))

declare dereferenceable(56) %"cls.acjs::JsVariant"* @_ZN14altered_carbon2js9JsVariantrMERKS1_(%"cls.acjs::JsVariant"*, %"cls.acjs::JsVariant"* dereferenceable(56))

declare dereferenceable(56) %"cls.acjs::JsVariant"* @_ZN14altered_carbon2js9JsVariantlSERKS1_(%"cls.acjs::JsVariant"*, %"cls.acjs::JsVariant"* dereferenceable(56))

declare dereferenceable(56) %"cls.acjs::JsVariant"* @_ZN14altered_carbon2js9JsVariantrSERKS1_(%"cls.acjs::JsVariant"*, %"cls.acjs::JsVariant"* dereferenceable(56))

declare dereferenceable(56) %"cls.acjs::JsVariant"* @_ZN14altered_carbon2js9JsVariant4arszERKS1_(%"cls.acjs::JsVariant"*, %"cls.acjs::JsVariant"* dereferenceable(56))

declare dereferenceable(56) %"cls.acjs::JsVariant"* @_ZN14altered_carbon2js9JsVariantaNERKS1_(%"cls.acjs::JsVariant"*, %"cls.acjs::JsVariant"* dereferenceable(56))

declare dereferenceable(56) %"cls.acjs::JsVariant"* @_ZN14altered_carbon2js9JsVariantoRERKS1_(%"cls.acjs::JsVariant"*, %"cls.acjs::JsVariant"* dereferenceable(56))

declare dereferenceable(56) %"cls.acjs::JsVariant"* @_ZN14altered_carbon2js9JsVarianteOERKS1_(%"cls.acjs::JsVariant"*, %"cls.acjs::JsVariant"* dereferenceable(56))

define void @_Z7_scriptPN14altered_carbon2js9JsVariantE(%"cls.acjs::JsVariant"*) {
init.bb:
  %vptr = alloca %"cls.acjs::JsVariant", align 8
  %1 = bitcast %"cls.acjs::JsVariant"* %vptr to i32 (...)***
  store i32 (...)** bitcast (i8*** @_ZTVN14altered_carbon2js9JsVariantE_GEP to i32 (...)**), i32 (...)*** %1, align 8
  %2 = getelementptr inbounds %"cls.acjs::JsVariant", %"cls.acjs::JsVariant"* %vptr, i32 0, i32 1
  store i32 1, i32* %2, align 8
  %vptr1 = alloca %"cls.acjs::JsVariant", align 8
  %3 = bitcast %"cls.acjs::JsVariant"* %vptr1 to i32 (...)***
  store i32 (...)** bitcast (i8*** @_ZTVN14altered_carbon2js9JsVariantE_GEP to i32 (...)**), i32 (...)*** %3, align 8
  %4 = getelementptr inbounds %"cls.acjs::JsVariant", %"cls.acjs::JsVariant"* %vptr1, i32 0, i32 1
  store i32 1, i32* %4, align 8
  %vptr5 = alloca %"cls.acjs::JsVariant", align 8
  %5 = bitcast %"cls.acjs::JsVariant"* %vptr5 to i32 (...)***
  store i32 (...)** bitcast (i8*** @_ZTVN14altered_carbon2js9JsVariantE_GEP to i32 (...)**), i32 (...)*** %5, align 8
  %6 = getelementptr inbounds %"cls.acjs::JsVariant", %"cls.acjs::JsVariant"* %vptr5, i32 0, i32 1
  store i32 1, i32* %6, align 8
  %vptr14 = alloca %"cls.acjs::JsVariant", align 8
  %7 = bitcast %"cls.acjs::JsVariant"* %vptr14 to i32 (...)***
  store i32 (...)** bitcast (i8*** @_ZTVN14altered_carbon2js9JsVariantE_GEP to i32 (...)**), i32 (...)*** %7, align 8
  %8 = getelementptr inbounds %"cls.acjs::JsVariant", %"cls.acjs::JsVariant"* %vptr14, i32 0, i32 1
  store i32 1, i32* %8, align 8
  %vptr15 = alloca %"cls.acjs::JsVariant", align 8
  %9 = bitcast %"cls.acjs::JsVariant"* %vptr15 to i32 (...)***
  store i32 (...)** bitcast (i8*** @_ZTVN14altered_carbon2js9JsVariantE_GEP to i32 (...)**), i32 (...)*** %9, align 8
  %10 = getelementptr inbounds %"cls.acjs::JsVariant", %"cls.acjs::JsVariant"* %vptr15, i32 0, i32 1
  store i32 1, i32* %10, align 8
  %vptr16 = alloca %"cls.acjs::JsVariant", align 8
  %11 = bitcast %"cls.acjs::JsVariant"* %vptr16 to i32 (...)***
  store i32 (...)** bitcast (i8*** @_ZTVN14altered_carbon2js9JsVariantE_GEP to i32 (...)**), i32 (...)*** %11, align 8
  %12 = getelementptr inbounds %"cls.acjs::JsVariant", %"cls.acjs::JsVariant"* %vptr16, i32 0, i32 1
  store i32 1, i32* %12, align 8
  %vptr17 = alloca %"cls.acjs::JsVariant", align 8
  %13 = bitcast %"cls.acjs::JsVariant"* %vptr17 to i32 (...)***
  store i32 (...)** bitcast (i8*** @_ZTVN14altered_carbon2js9JsVariantE_GEP to i32 (...)**), i32 (...)*** %13, align 8
  %14 = getelementptr inbounds %"cls.acjs::JsVariant", %"cls.acjs::JsVariant"* %vptr17, i32 0, i32 1
  store i32 1, i32* %14, align 8
  %vptr18 = alloca %"cls.acjs::JsVariant", align 8
  %15 = bitcast %"cls.acjs::JsVariant"* %vptr18 to i32 (...)***
  store i32 (...)** bitcast (i8*** @_ZTVN14altered_carbon2js9JsVariantE_GEP to i32 (...)**), i32 (...)*** %15, align 8
  %16 = getelementptr inbounds %"cls.acjs::JsVariant", %"cls.acjs::JsVariant"* %vptr18, i32 0, i32 1
  store i32 1, i32* %16, align 8
  br label %exec.bb

exec.bb:                                          ; preds = %init.bb
  %17 = getelementptr inbounds %"cls.acjs::JsVariant", %"cls.acjs::JsVariant"* %vptr, i32 0, i32 1
  %18 = load i32, i32* %17, align 8
  %19 = icmp sle i32 %18, 6
  br i1 %19, label %assign.bb, label %fallback.bb

exit.bb:                                          ; preds = %copy.bbe
  %20 = call %"cls.acjs::JsVariant"* @_ZN14altered_carbon2js9JsVariantaSERKS1_(%"cls.acjs::JsVariant"* %0, %"cls.acjs::JsVariant"* dereferenceable(56) %vptr18)
  call void @_ZN14altered_carbon2js9JsVariantD1Ev(%"cls.acjs::JsVariant"* %vptr18)
  call void @_ZN14altered_carbon2js9JsVariantD1Ev(%"cls.acjs::JsVariant"* %vptr17)
  call void @_ZN14altered_carbon2js9JsVariantD1Ev(%"cls.acjs::JsVariant"* %vptr16)
  call void @_ZN14altered_carbon2js9JsVariantD1Ev(%"cls.acjs::JsVariant"* %vptr15)
  call void @_ZN14altered_carbon2js9JsVariantD1Ev(%"cls.acjs::JsVariant"* %vptr14)
  call void @_ZN14altered_carbon2js9JsVariantD1Ev(%"cls.acjs::JsVariant"* %vptr5)
  call void @_ZN14altered_carbon2js9JsVariantD1Ev(%"cls.acjs::JsVariant"* %vptr1)
  call void @_ZN14altered_carbon2js9JsVariantD1Ev(%"cls.acjs::JsVariant"* %vptr)
  ret void

assign.bb:                                        ; preds = %exec.bb
  store i32 2, i32* %17, align 8
  %21 = getelementptr inbounds %"cls.acjs::JsVariant", %"cls.acjs::JsVariant"* %vptr, i32 0, i32 2
  %22 = bitcast %union.anon.6* %21 to %"cls.acjs::JsVariantNumber"*
  %23 = getelementptr inbounds %"cls.acjs::JsVariantNumber", %"cls.acjs::JsVariantNumber"* %22, i32 0, i32 0
  %24 = getelementptr inbounds %"cls.acjs::JsVariantNumber", %"cls.acjs::JsVariantNumber"* %22, i32 0, i32 1
  %25 = getelementptr inbounds %"cls.acjs::JsVariantNumber", %"cls.acjs::JsVariantNumber"* %22, i32 0, i32 2
  store i64 0, i64* %23, align 8
  store double 0.000000e+00, double* %24, align 8
  store i8 1, i8* %25, align 8
  br label %assign.bbe

assign.bbe:                                       ; preds = %fallback.bb, %assign.bb
  %assignee = phi %"cls.acjs::JsVariant"* [ %vptr, %assign.bb ], [ %vptr, %fallback.bb ]
  %26 = getelementptr inbounds %"cls.acjs::JsVariant", %"cls.acjs::JsVariant"* %vptr1, i32 0, i32 1
  %27 = load i32, i32* %26, align 8
  %28 = icmp sle i32 %27, 6
  br i1 %28, label %assign.bb2, label %fallback.bb3

fallback.bb:                                      ; preds = %exec.bb
  %29 = call %"cls.acjs::JsVariant"* @_ZN14altered_carbon2js9JsVariantaSEx(%"cls.acjs::JsVariant"* %vptr, i64 0)
  br label %assign.bbe

assign.bb2:                                       ; preds = %assign.bbe
  store i32 2, i32* %26, align 8
  %30 = getelementptr inbounds %"cls.acjs::JsVariant", %"cls.acjs::JsVariant"* %vptr1, i32 0, i32 2
  %31 = bitcast %union.anon.6* %30 to %"cls.acjs::JsVariantNumber"*
  %32 = getelementptr inbounds %"cls.acjs::JsVariantNumber", %"cls.acjs::JsVariantNumber"* %31, i32 0, i32 0
  %33 = getelementptr inbounds %"cls.acjs::JsVariantNumber", %"cls.acjs::JsVariantNumber"* %31, i32 0, i32 1
  %34 = getelementptr inbounds %"cls.acjs::JsVariantNumber", %"cls.acjs::JsVariantNumber"* %31, i32 0, i32 2
  store i64 0, i64* %32, align 8
  store double 0.000000e+00, double* %33, align 8
  store i8 1, i8* %34, align 8
  br label %assign.bb2e

assign.bb2e:                                      ; preds = %fallback.bb3, %assign.bb2
  %assignee4 = phi %"cls.acjs::JsVariant"* [ %vptr1, %assign.bb2 ], [ %vptr1, %fallback.bb3 ]
  br label %cond.bb

fallback.bb3:                                     ; preds = %assign.bbe
  %35 = call %"cls.acjs::JsVariant"* @_ZN14altered_carbon2js9JsVariantaSEx(%"cls.acjs::JsVariant"* %vptr1, i64 0)
  br label %assign.bb2e

lpalloc.bb:                                       ; preds = %cond.bb
  br label %for.bb

for.bb:                                           ; preds = %lpalloc.bb
  %36 = getelementptr inbounds %"cls.acjs::JsVariant", %"cls.acjs::JsVariant"* %vptr5, i32 0, i32 1
  %37 = load i32, i32* %36, align 8
  %38 = icmp sle i32 %37, 6
  br i1 %38, label %assign.bb6, label %fallback.bb7

lpinc.bb:                                         ; preds = %lpexit.bb12
  %39 = call %"cls.acjs::JsVariant"* @_ZN14altered_carbon2js9JsVariantppEv(%"cls.acjs::JsVariant"* %vptr1)
  br label %cond.bb

lpexit.bb:                                        ; preds = %cond.bb
  %40 = getelementptr inbounds %"cls.acjs::JsVariant", %"cls.acjs::JsVariant"* %vptr18, i32 0, i32 1
  %41 = load i32, i32* %40, align 8
  %42 = icmp sle i32 %41, 6
  %43 = getelementptr inbounds %"cls.acjs::JsVariant", %"cls.acjs::JsVariant"* %vptr, i32 0, i32 1
  %44 = load i32, i32* %43, align 8
  %45 = icmp sle i32 %44, 6
  %46 = and i1 %42, %45
  br i1 %46, label %copy.bb, label %fallback.bb19

cond.bb:                                          ; preds = %assign.bb2e, %lpinc.bb
  %47 = call %"cls.acjs::JsVariant"* @_ZN14altered_carbon2js9JsVariantaSEx(%"cls.acjs::JsVariant"* %vptr17, i64 100)
  %48 = call i1 @_ZNK14altered_carbon2js9JsVariantltERKS1_(%"cls.acjs::JsVariant"* %vptr1, %"cls.acjs::JsVariant"* %vptr17)
  br i1 %48, label %lpalloc.bb, label %lpexit.bb

assign.bb6:                                       ; preds = %for.bb
  store i32 2, i32* %36, align 8
  %49 = getelementptr inbounds %"cls.acjs::JsVariant", %"cls.acjs::JsVariant"* %vptr5, i32 0, i32 2
  %50 = bitcast %union.anon.6* %49 to %"cls.acjs::JsVariantNumber"*
  %51 = getelementptr inbounds %"cls.acjs::JsVariantNumber", %"cls.acjs::JsVariantNumber"* %50, i32 0, i32 0
  %52 = getelementptr inbounds %"cls.acjs::JsVariantNumber", %"cls.acjs::JsVariantNumber"* %50, i32 0, i32 1
  %53 = getelementptr inbounds %"cls.acjs::JsVariantNumber", %"cls.acjs::JsVariantNumber"* %50, i32 0, i32 2
  store i64 0, i64* %51, align 8
  store double 0.000000e+00, double* %52, align 8
  store i8 1, i8* %53, align 8
  br label %assign.bb6e

assign.bb6e:                                      ; preds = %fallback.bb7, %assign.bb6
  %assignee8 = phi %"cls.acjs::JsVariant"* [ %vptr5, %assign.bb6 ], [ %vptr5, %fallback.bb7 ]
  br label %cond.bb13

fallback.bb7:                                     ; preds = %for.bb
  %54 = call %"cls.acjs::JsVariant"* @_ZN14altered_carbon2js9JsVariantaSEx(%"cls.acjs::JsVariant"* %vptr5, i64 0)
  br label %assign.bb6e

lpalloc.bb9:                                      ; preds = %cond.bb13
  br label %for.bb10

for.bb10:                                         ; preds = %lpalloc.bb9
  %55 = call %"cls.acjs::JsVariant"* @_ZNK14altered_carbon2js9JsVariant3addEPS1_RKS1_(%"cls.acjs::JsVariant"* %vptr1, %"cls.acjs::JsVariant"* %vptr14, %"cls.acjs::JsVariant"* %vptr5)
  %56 = call %"cls.acjs::JsVariant"* @_ZN14altered_carbon2js9JsVariantpLERKS1_(%"cls.acjs::JsVariant"* %vptr, %"cls.acjs::JsVariant"* %55)
  br label %lpinc.bb11

lpinc.bb11:                                       ; preds = %for.bb10
  call void @_ZN14altered_carbon2js9JsVariantppEi(%"cls.acjs::JsVariant"* %vptr15, %"cls.acjs::JsVariant"* %vptr5, i32 0)
  br label %cond.bb13

lpexit.bb12:                                      ; preds = %cond.bb13
  br label %lpinc.bb

cond.bb13:                                        ; preds = %assign.bb6e, %lpinc.bb11
  %57 = call %"cls.acjs::JsVariant"* @_ZN14altered_carbon2js9JsVariantaSEx(%"cls.acjs::JsVariant"* %vptr16, i64 100)
  %58 = call i1 @_ZNK14altered_carbon2js9JsVariantltERKS1_(%"cls.acjs::JsVariant"* %vptr5, %"cls.acjs::JsVariant"* %vptr16)
  br i1 %58, label %lpalloc.bb9, label %lpexit.bb12

copy.bb:                                          ; preds = %lpexit.bb
  switch i32 %44, label %fallback.bb19 [
    i32 -2, label %caseerr.bb
    i32 0, label %casenul_unf.bb
    i32 1, label %casenul_unf.bb
    i32 6, label %casebln.bb
    i32 2, label %casenum.bb
  ]

copy.bbe:                                         ; preds = %fallback.bb19, %casenum.bb, %casebln.bb, %casenul_unf.bb, %caseerr.bb
  br label %exit.bb

fallback.bb19:                                    ; preds = %copy.bb, %lpexit.bb
  %59 = call %"cls.acjs::JsVariant"* @_ZN14altered_carbon2js9JsVariantaSERKS1_(%"cls.acjs::JsVariant"* %vptr18, %"cls.acjs::JsVariant"* %vptr)
  br label %copy.bbe

caseerr.bb:                                       ; preds = %copy.bb
  store i32 %44, i32* %40, align 8
  %60 = getelementptr inbounds %"cls.acjs::JsVariant", %"cls.acjs::JsVariant"* %vptr, i32 0, i32 2
  %61 = bitcast %union.anon.6* %60 to i8**
  %62 = load i8*, i8** %61, align 8
  %63 = getelementptr inbounds %"cls.acjs::JsVariant", %"cls.acjs::JsVariant"* %vptr18, i32 0, i32 2
  %64 = bitcast %union.anon.6* %63 to i8**
  store i8* %62, i8** %64, align 8
  br label %copy.bbe

casenul_unf.bb:                                   ; preds = %copy.bb, %copy.bb
  store i32 %44, i32* %40, align 8
  br label %copy.bbe

casebln.bb:                                       ; preds = %copy.bb
  store i32 %44, i32* %40, align 8
  %65 = getelementptr inbounds %"cls.acjs::JsVariant", %"cls.acjs::JsVariant"* %vptr, i32 0, i32 2
  %66 = bitcast %union.anon.6* %65 to i8*
  %67 = load i8, i8* %66, align 8
  %68 = getelementptr inbounds %"cls.acjs::JsVariant", %"cls.acjs::JsVariant"* %vptr18, i32 0, i32 2
  %69 = bitcast %union.anon.6* %68 to i8*
  store i8 %67, i8* %69, align 1
  br label %copy.bbe

casenum.bb:                                       ; preds = %copy.bb
  store i32 %44, i32* %40, align 8
  %70 = getelementptr inbounds %"cls.acjs::JsVariant", %"cls.acjs::JsVariant"* %vptr, i32 0, i32 2
  %71 = bitcast %union.anon.6* %70 to %"cls.acjs::JsVariantNumber"*
  %72 = getelementptr inbounds %"cls.acjs::JsVariantNumber", %"cls.acjs::JsVariantNumber"* %71, i32 0, i32 0
  %73 = load i64, i64* %72, align 8
  %74 = getelementptr inbounds %"cls.acjs::JsVariantNumber", %"cls.acjs::JsVariantNumber"* %71, i32 0, i32 1
  %75 = load double, double* %74, align 8
  %76 = getelementptr inbounds %"cls.acjs::JsVariantNumber", %"cls.acjs::JsVariantNumber"* %71, i32 0, i32 2
  %77 = load i8, i8* %76, align 8
  %78 = getelementptr inbounds %"cls.acjs::JsVariant", %"cls.acjs::JsVariant"* %vptr18, i32 0, i32 2
  %79 = bitcast %union.anon.6* %78 to %"cls.acjs::JsVariantNumber"*
  %80 = getelementptr inbounds %"cls.acjs::JsVariantNumber", %"cls.acjs::JsVariantNumber"* %79, i32 0, i32 0
  store i64 %73, i64* %80, align 8
  %81 = getelementptr inbounds %"cls.acjs::JsVariantNumber", %"cls.acjs::JsVariantNumber"* %79, i32 0, i32 1
  store double %75, double* %81, align 8
  %82 = getelementptr inbounds %"cls.acjs::JsVariantNumber", %"cls.acjs::JsVariantNumber"* %79, i32 0, i32 2
  store i8 %77, i8* %82, align 8
  br label %copy.bbe
}

declare %"cls.acjs::JsVariant"* @_ZN14altered_carbon2js9JsVariantaSEx(%"cls.acjs::JsVariant"*, i64)
