	.section	__TEXT,__text,regular,pure_instructions
	.macosx_version_min 10, 14
	.globl	__Z7_scriptPN14altered_carbon2js9JsVariantE ## -- Begin function _Z7_scriptPN14altered_carbon2js9JsVariantE
	.p2align	4, 0x90
__Z7_scriptPN14altered_carbon2js9JsVariantE: ## @_Z7_scriptPN14altered_carbon2js9JsVariantE
	.cfi_startproc
## %bb.0:                               ## %init.bb
	pushq	%r14
	.cfi_def_cfa_offset 16
	pushq	%rbx
	.cfi_def_cfa_offset 24
	subq	$120, %rsp
	.cfi_def_cfa_offset 144
	.cfi_offset %rbx, -24
	.cfi_offset %r14, -16
	movq	%rdi, %r14
	leaq	__ZTVN14altered_carbon2js9JsVariantE_GEP(%rip), %rax
	movq	%rax, 8(%rsp)
	movl	$15, 16(%rsp)
	movq	%rax, 64(%rsp)
	movl	$1, 72(%rsp)
	leaq	__ZN3_js6_anon0EPN14altered_carbon2js9JsVariantEN4llvm8ArrayRefIS3_EE(%rip), %rax
	movq	%rax, 24(%rsp)
	leaq	l_.wstr.143(%rip), %rax
	movq	%rax, 32(%rsp)
	xorl	%eax, %eax
	testb	%al, %al
	jne	LBB0_1
## %bb.2:                               ## %npe.bb
	leaq	8(%rsp), %rax
	cmpq	$-16, %rax
	je	LBB0_3
## %bb.5:                               ## %call.bb
	leaq	64(%rsp), %rbx
	movq	%rsp, %rdx
	xorl	%esi, %esi
	xorl	%ecx, %ecx
	movq	%rbx, %rdi
	callq	*24(%rsp)
	jmp	LBB0_4
LBB0_1:
	movq	__ZN14altered_carbon2js11JsConstants9TypeErrorE@GOTPCREL(%rip), %rbx
	jmp	LBB0_4
LBB0_3:
	movq	__ZN14altered_carbon2js11JsConstants16NullPointerErrorE@GOTPCREL(%rip), %rbx
LBB0_4:                                 ## %npe.bbe
	movq	%r14, %rdi
	movq	%rbx, %rsi
	callq	__ZN14altered_carbon2js9JsVariantaSERKS1_
	leaq	64(%rsp), %rdi
	callq	__ZN14altered_carbon2js9JsVariantD1Ev
	leaq	8(%rsp), %rdi
	callq	__ZN14altered_carbon2js9JsVariantD1Ev
	addq	$120, %rsp
	popq	%rbx
	popq	%r14
	retq
	.cfi_endproc
                                        ## -- End function
	.globl	__ZN3_js6_anon0EPN14altered_carbon2js9JsVariantEN4llvm8ArrayRefIS3_EE ## -- Begin function _ZN3_js6_anon0EPN14altered_carbon2js9JsVariantEN4llvm8ArrayRefIS3_EE
	.p2align	4, 0x90
__ZN3_js6_anon0EPN14altered_carbon2js9JsVariantEN4llvm8ArrayRefIS3_EE: ## @_ZN3_js6_anon0EPN14altered_carbon2js9JsVariantEN4llvm8ArrayRefIS3_EE
	.cfi_startproc
## %bb.0:                               ## %init.bb
	pushq	%rbx
	.cfi_def_cfa_offset 16
	subq	$15680, %rsp            ## imm = 0x3D40
	.cfi_def_cfa_offset 15696
	.cfi_offset %rbx, -16
	movq	%rdi, %rbx
	leaq	__ZTVN14altered_carbon2js9JsVariantE_GEP(%rip), %rax
	movq	%rax, 15512(%rsp)
	movl	$1, 15520(%rsp)
	movq	%rax, 7728(%rsp)
	movl	$1, 7736(%rsp)
	movq	%rax, 15456(%rsp)
	movl	$1, 15464(%rsp)
	movq	%rax, 7672(%rsp)
	movl	$1, 7680(%rsp)
	movq	%rax, 15400(%rsp)
	movl	$1, 15408(%rsp)
	movq	%rax, 7616(%rsp)
	movl	$1, 7624(%rsp)
	movq	%rax, 15344(%rsp)
	movl	$1, 15352(%rsp)
	movq	%rax, 7560(%rsp)
	movl	$1, 7568(%rsp)
	movq	%rax, 15288(%rsp)
	movl	$1, 15296(%rsp)
	movq	%rax, 7504(%rsp)
	movl	$1, 7512(%rsp)
	movq	%rax, 15232(%rsp)
	movl	$1, 15240(%rsp)
	movq	%rax, 7448(%rsp)
	movl	$1, 7456(%rsp)
	movq	%rax, 15176(%rsp)
	movl	$1, 15184(%rsp)
	movq	%rax, 7392(%rsp)
	movl	$1, 7400(%rsp)
	movq	%rax, 15120(%rsp)
	movl	$1, 15128(%rsp)
	movq	%rax, 7336(%rsp)
	movl	$1, 7344(%rsp)
	movq	%rax, 15064(%rsp)
	movl	$1, 15072(%rsp)
	movq	%rax, 7280(%rsp)
	movl	$1, 7288(%rsp)
	movq	%rax, 15008(%rsp)
	movl	$1, 15016(%rsp)
	movq	%rax, 7224(%rsp)
	movl	$1, 7232(%rsp)
	movq	%rax, 14952(%rsp)
	movl	$1, 14960(%rsp)
	movq	%rax, 7168(%rsp)
	movl	$1, 7176(%rsp)
	movq	%rax, 14896(%rsp)
	movl	$1, 14904(%rsp)
	movq	%rax, 7112(%rsp)
	movl	$1, 7120(%rsp)
	movq	%rax, 14840(%rsp)
	movl	$1, 14848(%rsp)
	movq	%rax, 7056(%rsp)
	movl	$1, 7064(%rsp)
	movq	%rax, 14784(%rsp)
	movl	$1, 14792(%rsp)
	movq	%rax, 7000(%rsp)
	movl	$1, 7008(%rsp)
	movq	%rax, 14728(%rsp)
	movl	$1, 14736(%rsp)
	movq	%rax, 6944(%rsp)
	movl	$1, 6952(%rsp)
	movq	%rax, 14672(%rsp)
	movl	$1, 14680(%rsp)
	movq	%rax, 6888(%rsp)
	movl	$1, 6896(%rsp)
	movq	%rax, 14616(%rsp)
	movl	$1, 14624(%rsp)
	movq	%rax, 6832(%rsp)
	movl	$1, 6840(%rsp)
	movq	%rax, 14560(%rsp)
	movl	$1, 14568(%rsp)
	movq	%rax, 6776(%rsp)
	movl	$1, 6784(%rsp)
	movq	%rax, 14504(%rsp)
	movl	$1, 14512(%rsp)
	movq	%rax, 6720(%rsp)
	movl	$1, 6728(%rsp)
	movq	%rax, 14448(%rsp)
	movl	$1, 14456(%rsp)
	movq	%rax, 6664(%rsp)
	movl	$1, 6672(%rsp)
	movq	%rax, 14392(%rsp)
	movl	$1, 14400(%rsp)
	movq	%rax, 6608(%rsp)
	movl	$1, 6616(%rsp)
	movq	%rax, 14336(%rsp)
	movl	$1, 14344(%rsp)
	movq	%rax, 6552(%rsp)
	movl	$1, 6560(%rsp)
	movq	%rax, 14280(%rsp)
	movl	$1, 14288(%rsp)
	movq	%rax, 6496(%rsp)
	movl	$1, 6504(%rsp)
	movq	%rax, 14224(%rsp)
	movl	$1, 14232(%rsp)
	movq	%rax, 6440(%rsp)
	movl	$1, 6448(%rsp)
	movq	%rax, 14168(%rsp)
	movl	$1, 14176(%rsp)
	movq	%rax, 6384(%rsp)
	movl	$1, 6392(%rsp)
	movq	%rax, 14112(%rsp)
	movl	$1, 14120(%rsp)
	movq	%rax, 6328(%rsp)
	movl	$1, 6336(%rsp)
	movq	%rax, 14056(%rsp)
	movl	$1, 14064(%rsp)
	movq	%rax, 6272(%rsp)
	movl	$1, 6280(%rsp)
	movq	%rax, 14000(%rsp)
	movl	$1, 14008(%rsp)
	movq	%rax, 6216(%rsp)
	movl	$1, 6224(%rsp)
	movq	%rax, 13944(%rsp)
	movl	$1, 13952(%rsp)
	movq	%rax, 6160(%rsp)
	movl	$1, 6168(%rsp)
	movq	%rax, 13888(%rsp)
	movl	$1, 13896(%rsp)
	movq	%rax, 6104(%rsp)
	movl	$1, 6112(%rsp)
	movq	%rax, 13832(%rsp)
	movl	$1, 13840(%rsp)
	movq	%rax, 6048(%rsp)
	movl	$1, 6056(%rsp)
	movq	%rax, 13776(%rsp)
	movl	$1, 13784(%rsp)
	movq	%rax, 5992(%rsp)
	movl	$1, 6000(%rsp)
	movq	%rax, 13720(%rsp)
	movl	$1, 13728(%rsp)
	movq	%rax, 5936(%rsp)
	movl	$1, 5944(%rsp)
	movq	%rax, 13664(%rsp)
	movl	$1, 13672(%rsp)
	movq	%rax, 5880(%rsp)
	movl	$1, 5888(%rsp)
	movq	%rax, 13608(%rsp)
	movl	$1, 13616(%rsp)
	movq	%rax, 5824(%rsp)
	movl	$1, 5832(%rsp)
	movq	%rax, 13552(%rsp)
	movl	$1, 13560(%rsp)
	movq	%rax, 5768(%rsp)
	movl	$1, 5776(%rsp)
	movq	%rax, 13496(%rsp)
	movl	$1, 13504(%rsp)
	movq	%rax, 5712(%rsp)
	movl	$1, 5720(%rsp)
	movq	%rax, 13440(%rsp)
	movl	$1, 13448(%rsp)
	movq	%rax, 5656(%rsp)
	movl	$1, 5664(%rsp)
	movq	%rax, 13384(%rsp)
	movl	$1, 13392(%rsp)
	movq	%rax, 5600(%rsp)
	movl	$1, 5608(%rsp)
	movq	%rax, 13328(%rsp)
	movl	$1, 13336(%rsp)
	movq	%rax, 5544(%rsp)
	movl	$1, 5552(%rsp)
	movq	%rax, 13272(%rsp)
	movl	$1, 13280(%rsp)
	movq	%rax, 5488(%rsp)
	movl	$1, 5496(%rsp)
	movq	%rax, 13216(%rsp)
	movl	$1, 13224(%rsp)
	movq	%rax, 5432(%rsp)
	movl	$1, 5440(%rsp)
	movq	%rax, 13160(%rsp)
	movl	$1, 13168(%rsp)
	movq	%rax, 5376(%rsp)
	movl	$1, 5384(%rsp)
	movq	%rax, 13104(%rsp)
	movl	$1, 13112(%rsp)
	movq	%rax, 5320(%rsp)
	movl	$1, 5328(%rsp)
	movq	%rax, 13048(%rsp)
	movl	$1, 13056(%rsp)
	movq	%rax, 5264(%rsp)
	movl	$1, 5272(%rsp)
	movq	%rax, 12992(%rsp)
	movl	$1, 13000(%rsp)
	movq	%rax, 5208(%rsp)
	movl	$1, 5216(%rsp)
	movq	%rax, 12936(%rsp)
	movl	$1, 12944(%rsp)
	movq	%rax, 5152(%rsp)
	movl	$1, 5160(%rsp)
	movq	%rax, 12880(%rsp)
	movl	$1, 12888(%rsp)
	movq	%rax, 5096(%rsp)
	movl	$1, 5104(%rsp)
	movq	%rax, 12824(%rsp)
	movl	$1, 12832(%rsp)
	movq	%rax, 5040(%rsp)
	movl	$1, 5048(%rsp)
	movq	%rax, 12768(%rsp)
	movl	$1, 12776(%rsp)
	movq	%rax, 4984(%rsp)
	movl	$1, 4992(%rsp)
	movq	%rax, 12712(%rsp)
	movl	$1, 12720(%rsp)
	movq	%rax, 4928(%rsp)
	movl	$1, 4936(%rsp)
	movq	%rax, 12656(%rsp)
	movl	$1, 12664(%rsp)
	movq	%rax, 4872(%rsp)
	movl	$1, 4880(%rsp)
	movq	%rax, 12600(%rsp)
	movl	$1, 12608(%rsp)
	movq	%rax, 4816(%rsp)
	movl	$1, 4824(%rsp)
	movq	%rax, 12544(%rsp)
	movl	$1, 12552(%rsp)
	movq	%rax, 4760(%rsp)
	movl	$1, 4768(%rsp)
	movq	%rax, 12488(%rsp)
	movl	$1, 12496(%rsp)
	movq	%rax, 4704(%rsp)
	movl	$1, 4712(%rsp)
	movq	%rax, 12432(%rsp)
	movl	$1, 12440(%rsp)
	movq	%rax, 4648(%rsp)
	movl	$1, 4656(%rsp)
	movq	%rax, 12376(%rsp)
	movl	$1, 12384(%rsp)
	movq	%rax, 4592(%rsp)
	movl	$1, 4600(%rsp)
	movq	%rax, 12320(%rsp)
	movl	$1, 12328(%rsp)
	movq	%rax, 4536(%rsp)
	movl	$1, 4544(%rsp)
	movq	%rax, 12264(%rsp)
	movl	$1, 12272(%rsp)
	movq	%rax, 4480(%rsp)
	movl	$1, 4488(%rsp)
	movq	%rax, 12208(%rsp)
	movl	$1, 12216(%rsp)
	movq	%rax, 4424(%rsp)
	movl	$1, 4432(%rsp)
	movq	%rax, 12152(%rsp)
	movl	$1, 12160(%rsp)
	movq	%rax, 4368(%rsp)
	movl	$1, 4376(%rsp)
	movq	%rax, 12096(%rsp)
	movl	$1, 12104(%rsp)
	movq	%rax, 4312(%rsp)
	movl	$1, 4320(%rsp)
	movq	%rax, 12040(%rsp)
	movl	$1, 12048(%rsp)
	movq	%rax, 4256(%rsp)
	movl	$1, 4264(%rsp)
	movq	%rax, 11984(%rsp)
	movl	$1, 11992(%rsp)
	movq	%rax, 4200(%rsp)
	movl	$1, 4208(%rsp)
	movq	%rax, 11928(%rsp)
	movl	$1, 11936(%rsp)
	movq	%rax, 4144(%rsp)
	movl	$1, 4152(%rsp)
	movq	%rax, 11872(%rsp)
	movl	$1, 11880(%rsp)
	movq	%rax, 4088(%rsp)
	movl	$1, 4096(%rsp)
	movq	%rax, 11816(%rsp)
	movl	$1, 11824(%rsp)
	movq	%rax, 4032(%rsp)
	movl	$1, 4040(%rsp)
	movq	%rax, 11760(%rsp)
	movl	$1, 11768(%rsp)
	movq	%rax, 3976(%rsp)
	movl	$1, 3984(%rsp)
	movq	%rax, 11704(%rsp)
	movl	$1, 11712(%rsp)
	movq	%rax, 3920(%rsp)
	movl	$1, 3928(%rsp)
	movq	%rax, 11648(%rsp)
	movl	$1, 11656(%rsp)
	movq	%rax, 3864(%rsp)
	movl	$1, 3872(%rsp)
	movq	%rax, 11592(%rsp)
	movl	$1, 11600(%rsp)
	movq	%rax, 3808(%rsp)
	movl	$1, 3816(%rsp)
	movq	%rax, 11536(%rsp)
	movl	$1, 11544(%rsp)
	movq	%rax, 3752(%rsp)
	movl	$1, 3760(%rsp)
	movq	%rax, 11480(%rsp)
	movl	$1, 11488(%rsp)
	movq	%rax, 3696(%rsp)
	movl	$1, 3704(%rsp)
	movq	%rax, 11424(%rsp)
	movl	$1, 11432(%rsp)
	movq	%rax, 3640(%rsp)
	movl	$1, 3648(%rsp)
	movq	%rax, 11368(%rsp)
	movl	$1, 11376(%rsp)
	movq	%rax, 3584(%rsp)
	movl	$1, 3592(%rsp)
	movq	%rax, 11312(%rsp)
	movl	$1, 11320(%rsp)
	movq	%rax, 3528(%rsp)
	movl	$1, 3536(%rsp)
	movq	%rax, 11256(%rsp)
	movl	$1, 11264(%rsp)
	movq	%rax, 3472(%rsp)
	movl	$1, 3480(%rsp)
	movq	%rax, 11200(%rsp)
	movl	$1, 11208(%rsp)
	movq	%rax, 3416(%rsp)
	movl	$1, 3424(%rsp)
	movq	%rax, 11144(%rsp)
	movl	$1, 11152(%rsp)
	movq	%rax, 3360(%rsp)
	movl	$1, 3368(%rsp)
	movq	%rax, 11088(%rsp)
	movl	$1, 11096(%rsp)
	movq	%rax, 3304(%rsp)
	movl	$1, 3312(%rsp)
	movq	%rax, 11032(%rsp)
	movl	$1, 11040(%rsp)
	movq	%rax, 3248(%rsp)
	movl	$1, 3256(%rsp)
	movq	%rax, 10976(%rsp)
	movl	$1, 10984(%rsp)
	movq	%rax, 3192(%rsp)
	movl	$1, 3200(%rsp)
	movq	%rax, 10920(%rsp)
	movl	$1, 10928(%rsp)
	movq	%rax, 3136(%rsp)
	movl	$1, 3144(%rsp)
	movq	%rax, 10864(%rsp)
	movl	$1, 10872(%rsp)
	movq	%rax, 3080(%rsp)
	movl	$1, 3088(%rsp)
	movq	%rax, 10808(%rsp)
	movl	$1, 10816(%rsp)
	movq	%rax, 3024(%rsp)
	movl	$1, 3032(%rsp)
	movq	%rax, 10752(%rsp)
	movl	$1, 10760(%rsp)
	movq	%rax, 2968(%rsp)
	movl	$1, 2976(%rsp)
	movq	%rax, 10696(%rsp)
	movl	$1, 10704(%rsp)
	movq	%rax, 2912(%rsp)
	movl	$1, 2920(%rsp)
	movq	%rax, 10640(%rsp)
	movl	$1, 10648(%rsp)
	movq	%rax, 2856(%rsp)
	movl	$1, 2864(%rsp)
	movq	%rax, 10584(%rsp)
	movl	$1, 10592(%rsp)
	movq	%rax, 2800(%rsp)
	movl	$1, 2808(%rsp)
	movq	%rax, 10528(%rsp)
	movl	$1, 10536(%rsp)
	movq	%rax, 2744(%rsp)
	movl	$1, 2752(%rsp)
	movq	%rax, 10472(%rsp)
	movl	$1, 10480(%rsp)
	movq	%rax, 2688(%rsp)
	movl	$1, 2696(%rsp)
	movq	%rax, 10416(%rsp)
	movl	$1, 10424(%rsp)
	movq	%rax, 2632(%rsp)
	movl	$1, 2640(%rsp)
	movq	%rax, 10360(%rsp)
	movl	$1, 10368(%rsp)
	movq	%rax, 2576(%rsp)
	movl	$1, 2584(%rsp)
	movq	%rax, 10304(%rsp)
	movl	$1, 10312(%rsp)
	movq	%rax, 2520(%rsp)
	movl	$1, 2528(%rsp)
	movq	%rax, 10248(%rsp)
	movl	$1, 10256(%rsp)
	movq	%rax, 2464(%rsp)
	movl	$1, 2472(%rsp)
	movq	%rax, 10192(%rsp)
	movl	$1, 10200(%rsp)
	movq	%rax, 2408(%rsp)
	movl	$1, 2416(%rsp)
	movq	%rax, 10136(%rsp)
	movl	$1, 10144(%rsp)
	movq	%rax, 2352(%rsp)
	movl	$1, 2360(%rsp)
	movq	%rax, 10080(%rsp)
	movl	$1, 10088(%rsp)
	movq	%rax, 2296(%rsp)
	movl	$1, 2304(%rsp)
	movq	%rax, 10024(%rsp)
	movl	$1, 10032(%rsp)
	movq	%rax, 2240(%rsp)
	movl	$1, 2248(%rsp)
	movq	%rax, 9968(%rsp)
	movl	$1, 9976(%rsp)
	movq	%rax, 2184(%rsp)
	movl	$1, 2192(%rsp)
	movq	%rax, 9912(%rsp)
	movl	$1, 9920(%rsp)
	movq	%rax, 2128(%rsp)
	movl	$1, 2136(%rsp)
	movq	%rax, 9856(%rsp)
	movl	$1, 9864(%rsp)
	movq	%rax, 2072(%rsp)
	movl	$1, 2080(%rsp)
	movq	%rax, 9800(%rsp)
	movl	$1, 9808(%rsp)
	movq	%rax, 2016(%rsp)
	movl	$1, 2024(%rsp)
	movq	%rax, 9744(%rsp)
	movl	$1, 9752(%rsp)
	movq	%rax, 1960(%rsp)
	movl	$1, 1968(%rsp)
	movq	%rax, 9688(%rsp)
	movl	$1, 9696(%rsp)
	movq	%rax, 1904(%rsp)
	movl	$1, 1912(%rsp)
	movq	%rax, 9632(%rsp)
	movl	$1, 9640(%rsp)
	movq	%rax, 1848(%rsp)
	movl	$1, 1856(%rsp)
	movq	%rax, 9576(%rsp)
	movl	$1, 9584(%rsp)
	movq	%rax, 1792(%rsp)
	movl	$1, 1800(%rsp)
	movq	%rax, 9520(%rsp)
	movl	$1, 9528(%rsp)
	movq	%rax, 1736(%rsp)
	movl	$1, 1744(%rsp)
	movq	%rax, 9464(%rsp)
	movl	$1, 9472(%rsp)
	movq	%rax, 1680(%rsp)
	movl	$1, 1688(%rsp)
	movq	%rax, 9408(%rsp)
	movl	$1, 9416(%rsp)
	movq	%rax, 1624(%rsp)
	movl	$1, 1632(%rsp)
	movq	%rax, 9352(%rsp)
	movl	$1, 9360(%rsp)
	movq	%rax, 1568(%rsp)
	movl	$1, 1576(%rsp)
	movq	%rax, 9296(%rsp)
	movl	$1, 9304(%rsp)
	movq	%rax, 1512(%rsp)
	movl	$1, 1520(%rsp)
	movq	%rax, 9240(%rsp)
	movl	$1, 9248(%rsp)
	movq	%rax, 1456(%rsp)
	movl	$1, 1464(%rsp)
	movq	%rax, 9184(%rsp)
	movl	$1, 9192(%rsp)
	movq	%rax, 1400(%rsp)
	movl	$1, 1408(%rsp)
	movq	%rax, 9128(%rsp)
	movl	$1, 9136(%rsp)
	movq	%rax, 1344(%rsp)
	movl	$1, 1352(%rsp)
	movq	%rax, 9072(%rsp)
	movl	$1, 9080(%rsp)
	movq	%rax, 1288(%rsp)
	movl	$1, 1296(%rsp)
	movq	%rax, 9016(%rsp)
	movl	$1, 9024(%rsp)
	movq	%rax, 1232(%rsp)
	movl	$1, 1240(%rsp)
	movq	%rax, 8960(%rsp)
	movl	$1, 8968(%rsp)
	movq	%rax, 1176(%rsp)
	movl	$1, 1184(%rsp)
	movq	%rax, 8904(%rsp)
	movl	$1, 8912(%rsp)
	movq	%rax, 1120(%rsp)
	movl	$1, 1128(%rsp)
	movq	%rax, 8848(%rsp)
	movl	$1, 8856(%rsp)
	movq	%rax, 1064(%rsp)
	movl	$1, 1072(%rsp)
	movq	%rax, 8792(%rsp)
	movl	$1, 8800(%rsp)
	movq	%rax, 1008(%rsp)
	movl	$1, 1016(%rsp)
	movq	%rax, 8736(%rsp)
	movl	$1, 8744(%rsp)
	movq	%rax, 952(%rsp)
	movl	$1, 960(%rsp)
	movq	%rax, 8680(%rsp)
	movl	$1, 8688(%rsp)
	movq	%rax, 896(%rsp)
	movl	$1, 904(%rsp)
	movq	%rax, 8624(%rsp)
	movl	$1, 8632(%rsp)
	movq	%rax, 840(%rsp)
	movl	$1, 848(%rsp)
	movq	%rax, 8568(%rsp)
	movl	$1, 8576(%rsp)
	movq	%rax, 784(%rsp)
	movl	$1, 792(%rsp)
	movq	%rax, 8512(%rsp)
	movl	$1, 8520(%rsp)
	movq	%rax, 728(%rsp)
	movl	$1, 736(%rsp)
	movq	%rax, 8456(%rsp)
	movl	$1, 8464(%rsp)
	movq	%rax, 672(%rsp)
	movl	$1, 680(%rsp)
	movq	%rax, 8400(%rsp)
	movl	$1, 8408(%rsp)
	movq	%rax, 616(%rsp)
	movl	$1, 624(%rsp)
	movq	%rax, 8344(%rsp)
	movl	$1, 8352(%rsp)
	movq	%rax, 560(%rsp)
	movl	$1, 568(%rsp)
	movq	%rax, 8288(%rsp)
	movl	$1, 8296(%rsp)
	movq	%rax, 504(%rsp)
	movl	$1, 512(%rsp)
	movq	%rax, 8232(%rsp)
	movl	$1, 8240(%rsp)
	movq	%rax, 448(%rsp)
	movl	$1, 456(%rsp)
	movq	%rax, 8176(%rsp)
	movl	$1, 8184(%rsp)
	movq	%rax, 392(%rsp)
	movl	$1, 400(%rsp)
	movq	%rax, 8120(%rsp)
	movl	$1, 8128(%rsp)
	movq	%rax, 336(%rsp)
	movl	$1, 344(%rsp)
	movq	%rax, 8064(%rsp)
	movl	$1, 8072(%rsp)
	movq	%rax, 280(%rsp)
	movl	$1, 288(%rsp)
	movq	%rax, 8008(%rsp)
	movl	$1, 8016(%rsp)
	movq	%rax, 224(%rsp)
	movl	$1, 232(%rsp)
	movq	%rax, 7952(%rsp)
	movl	$1, 7960(%rsp)
	movq	%rax, 168(%rsp)
	movl	$1, 176(%rsp)
	movq	%rax, 7896(%rsp)
	movl	$1, 7904(%rsp)
	movq	%rax, 112(%rsp)
	movl	$1, 120(%rsp)
	movq	%rax, 7840(%rsp)
	movl	$1, 7848(%rsp)
	movq	%rax, 56(%rsp)
	movl	$1, 64(%rsp)
	movq	%rax, 7784(%rsp)
	movl	$1, 7792(%rsp)
	movq	%rax, (%rsp)
	movl	$1, 8(%rsp)
	movq	%rax, 15624(%rsp)
	movl	$15, 15632(%rsp)
	movq	%rax, 15568(%rsp)
	movl	$15, 15576(%rsp)
	leaq	l_.wstr(%rip), %rsi
	leaq	15512(%rsp), %rdi
	callq	__ZN14altered_carbon2js9JsVariantaSEPKw
	cmpl	$6, 7736(%rsp)
	jg	LBB1_4
## %bb.1:                               ## %init.bb
	movl	15520(%rsp), %eax
	cmpl	$6, %eax
	jg	LBB1_4
## %bb.2:                               ## %copy.bb
	leal	2(%rax), %ecx
	cmpl	$8, %ecx
	ja	LBB1_4
## %bb.3:                               ## %copy.bb
	leaq	LJTI1_0(%rip), %rdx
	movslq	(%rdx,%rcx,4), %rcx
	addq	%rdx, %rcx
	jmpq	*%rcx
LBB1_10:                                ## %casenul_unf.bb
	movl	%eax, 7736(%rsp)
	jmp	LBB1_5
LBB1_4:                                 ## %fallback.bb
	leaq	7728(%rsp), %rdi
	leaq	15512(%rsp), %rsi
	callq	__ZN14altered_carbon2js9JsVariantaSERKS1_
LBB1_5:                                 ## %copy.bbe
	leaq	l_.wstr.1(%rip), %rsi
	leaq	15456(%rsp), %rdi
	callq	__ZN14altered_carbon2js9JsVariantaSEPKw
	cmpl	$6, 7680(%rsp)
	jg	LBB1_13
## %bb.6:                               ## %copy.bbe
	movl	15464(%rsp), %eax
	cmpl	$7, %eax
	jge	LBB1_13
## %bb.7:                               ## %copy.bb4
	leal	2(%rax), %ecx
	cmpl	$8, %ecx
	ja	LBB1_13
## %bb.8:                               ## %copy.bb4
	leaq	LJTI1_1(%rip), %rdx
	movslq	(%rdx,%rcx,4), %rcx
	addq	%rdx, %rcx
	jmpq	*%rcx
LBB1_19:                                ## %casenul_unf.bb7
	movl	%eax, 7680(%rsp)
	jmp	LBB1_14
LBB1_13:                                ## %fallback.bb5
	leaq	7672(%rsp), %rdi
	leaq	15456(%rsp), %rsi
	callq	__ZN14altered_carbon2js9JsVariantaSERKS1_
LBB1_14:                                ## %copy.bb4e
	leaq	l_.wstr.2(%rip), %rsi
	leaq	15400(%rsp), %rdi
	callq	__ZN14altered_carbon2js9JsVariantaSEPKw
	cmpl	$6, 7624(%rsp)
	jg	LBB1_22
## %bb.15:                              ## %copy.bb4e
	movl	15408(%rsp), %eax
	cmpl	$7, %eax
	jge	LBB1_22
## %bb.16:                              ## %copy.bb12
	leal	2(%rax), %ecx
	cmpl	$8, %ecx
	ja	LBB1_22
## %bb.17:                              ## %copy.bb12
	leaq	LJTI1_2(%rip), %rdx
	movslq	(%rdx,%rcx,4), %rcx
	addq	%rdx, %rcx
	jmpq	*%rcx
LBB1_28:                                ## %casenul_unf.bb15
	movl	%eax, 7624(%rsp)
	jmp	LBB1_23
LBB1_22:                                ## %fallback.bb13
	leaq	7616(%rsp), %rdi
	leaq	15400(%rsp), %rsi
	callq	__ZN14altered_carbon2js9JsVariantaSERKS1_
LBB1_23:                                ## %copy.bb12e
	leaq	l_.wstr.3(%rip), %rsi
	leaq	15344(%rsp), %rdi
	callq	__ZN14altered_carbon2js9JsVariantaSEPKw
	cmpl	$6, 7568(%rsp)
	jg	LBB1_31
## %bb.24:                              ## %copy.bb12e
	movl	15352(%rsp), %eax
	cmpl	$7, %eax
	jge	LBB1_31
## %bb.25:                              ## %copy.bb20
	leal	2(%rax), %ecx
	cmpl	$8, %ecx
	ja	LBB1_31
## %bb.26:                              ## %copy.bb20
	leaq	LJTI1_3(%rip), %rdx
	movslq	(%rdx,%rcx,4), %rcx
	addq	%rdx, %rcx
	jmpq	*%rcx
LBB1_37:                                ## %casenul_unf.bb23
	movl	%eax, 7568(%rsp)
	jmp	LBB1_32
LBB1_31:                                ## %fallback.bb21
	leaq	7560(%rsp), %rdi
	leaq	15344(%rsp), %rsi
	callq	__ZN14altered_carbon2js9JsVariantaSERKS1_
LBB1_32:                                ## %copy.bb20e
	leaq	l_.wstr.4(%rip), %rsi
	leaq	15288(%rsp), %rdi
	callq	__ZN14altered_carbon2js9JsVariantaSEPKw
	cmpl	$6, 7512(%rsp)
	jg	LBB1_40
## %bb.33:                              ## %copy.bb20e
	movl	15296(%rsp), %eax
	cmpl	$7, %eax
	jge	LBB1_40
## %bb.34:                              ## %copy.bb28
	leal	2(%rax), %ecx
	cmpl	$8, %ecx
	ja	LBB1_40
## %bb.35:                              ## %copy.bb28
	leaq	LJTI1_4(%rip), %rdx
	movslq	(%rdx,%rcx,4), %rcx
	addq	%rdx, %rcx
	jmpq	*%rcx
LBB1_46:                                ## %casenul_unf.bb31
	movl	%eax, 7512(%rsp)
	jmp	LBB1_41
LBB1_40:                                ## %fallback.bb29
	leaq	7504(%rsp), %rdi
	leaq	15288(%rsp), %rsi
	callq	__ZN14altered_carbon2js9JsVariantaSERKS1_
LBB1_41:                                ## %copy.bb28e
	leaq	l_.wstr.5(%rip), %rsi
	leaq	15232(%rsp), %rdi
	callq	__ZN14altered_carbon2js9JsVariantaSEPKw
	cmpl	$6, 7456(%rsp)
	jg	LBB1_49
## %bb.42:                              ## %copy.bb28e
	movl	15240(%rsp), %eax
	cmpl	$7, %eax
	jge	LBB1_49
## %bb.43:                              ## %copy.bb36
	leal	2(%rax), %ecx
	cmpl	$8, %ecx
	ja	LBB1_49
## %bb.44:                              ## %copy.bb36
	leaq	LJTI1_5(%rip), %rdx
	movslq	(%rdx,%rcx,4), %rcx
	addq	%rdx, %rcx
	jmpq	*%rcx
LBB1_55:                                ## %casenul_unf.bb39
	movl	%eax, 7456(%rsp)
	jmp	LBB1_50
LBB1_49:                                ## %fallback.bb37
	leaq	7448(%rsp), %rdi
	leaq	15232(%rsp), %rsi
	callq	__ZN14altered_carbon2js9JsVariantaSERKS1_
LBB1_50:                                ## %copy.bb36e
	leaq	l_.wstr.6(%rip), %rsi
	leaq	15176(%rsp), %rdi
	callq	__ZN14altered_carbon2js9JsVariantaSEPKw
	cmpl	$6, 7400(%rsp)
	jg	LBB1_58
## %bb.51:                              ## %copy.bb36e
	movl	15184(%rsp), %eax
	cmpl	$7, %eax
	jge	LBB1_58
## %bb.52:                              ## %copy.bb44
	leal	2(%rax), %ecx
	cmpl	$8, %ecx
	ja	LBB1_58
## %bb.53:                              ## %copy.bb44
	leaq	LJTI1_6(%rip), %rdx
	movslq	(%rdx,%rcx,4), %rcx
	addq	%rdx, %rcx
	jmpq	*%rcx
LBB1_64:                                ## %casenul_unf.bb47
	movl	%eax, 7400(%rsp)
	jmp	LBB1_59
LBB1_58:                                ## %fallback.bb45
	leaq	7392(%rsp), %rdi
	leaq	15176(%rsp), %rsi
	callq	__ZN14altered_carbon2js9JsVariantaSERKS1_
LBB1_59:                                ## %copy.bb44e
	leaq	l_.wstr.7(%rip), %rsi
	leaq	15120(%rsp), %rdi
	callq	__ZN14altered_carbon2js9JsVariantaSEPKw
	cmpl	$6, 7344(%rsp)
	jg	LBB1_67
## %bb.60:                              ## %copy.bb44e
	movl	15128(%rsp), %eax
	cmpl	$7, %eax
	jge	LBB1_67
## %bb.61:                              ## %copy.bb52
	leal	2(%rax), %ecx
	cmpl	$8, %ecx
	ja	LBB1_67
## %bb.62:                              ## %copy.bb52
	leaq	LJTI1_7(%rip), %rdx
	movslq	(%rdx,%rcx,4), %rcx
	addq	%rdx, %rcx
	jmpq	*%rcx
LBB1_73:                                ## %casenul_unf.bb55
	movl	%eax, 7344(%rsp)
	jmp	LBB1_68
LBB1_67:                                ## %fallback.bb53
	leaq	7336(%rsp), %rdi
	leaq	15120(%rsp), %rsi
	callq	__ZN14altered_carbon2js9JsVariantaSERKS1_
LBB1_68:                                ## %copy.bb52e
	leaq	l_.wstr.8(%rip), %rsi
	leaq	15064(%rsp), %rdi
	callq	__ZN14altered_carbon2js9JsVariantaSEPKw
	cmpl	$6, 7288(%rsp)
	jg	LBB1_76
## %bb.69:                              ## %copy.bb52e
	movl	15072(%rsp), %eax
	cmpl	$7, %eax
	jge	LBB1_76
## %bb.70:                              ## %copy.bb60
	leal	2(%rax), %ecx
	cmpl	$8, %ecx
	ja	LBB1_76
## %bb.71:                              ## %copy.bb60
	leaq	LJTI1_8(%rip), %rdx
	movslq	(%rdx,%rcx,4), %rcx
	addq	%rdx, %rcx
	jmpq	*%rcx
LBB1_82:                                ## %casenul_unf.bb63
	movl	%eax, 7288(%rsp)
	jmp	LBB1_77
LBB1_76:                                ## %fallback.bb61
	leaq	7280(%rsp), %rdi
	leaq	15064(%rsp), %rsi
	callq	__ZN14altered_carbon2js9JsVariantaSERKS1_
LBB1_77:                                ## %copy.bb60e
	leaq	l_.wstr.9(%rip), %rsi
	leaq	15008(%rsp), %rdi
	callq	__ZN14altered_carbon2js9JsVariantaSEPKw
	cmpl	$6, 7232(%rsp)
	jg	LBB1_85
## %bb.78:                              ## %copy.bb60e
	movl	15016(%rsp), %eax
	cmpl	$7, %eax
	jge	LBB1_85
## %bb.79:                              ## %copy.bb68
	leal	2(%rax), %ecx
	cmpl	$8, %ecx
	ja	LBB1_85
## %bb.80:                              ## %copy.bb68
	leaq	LJTI1_9(%rip), %rdx
	movslq	(%rdx,%rcx,4), %rcx
	addq	%rdx, %rcx
	jmpq	*%rcx
LBB1_91:                                ## %casenul_unf.bb71
	movl	%eax, 7232(%rsp)
	jmp	LBB1_86
LBB1_85:                                ## %fallback.bb69
	leaq	7224(%rsp), %rdi
	leaq	15008(%rsp), %rsi
	callq	__ZN14altered_carbon2js9JsVariantaSERKS1_
LBB1_86:                                ## %copy.bb68e
	leaq	l_.wstr.10(%rip), %rsi
	leaq	14952(%rsp), %rdi
	callq	__ZN14altered_carbon2js9JsVariantaSEPKw
	cmpl	$6, 7176(%rsp)
	jg	LBB1_94
## %bb.87:                              ## %copy.bb68e
	movl	14960(%rsp), %eax
	cmpl	$7, %eax
	jge	LBB1_94
## %bb.88:                              ## %copy.bb76
	leal	2(%rax), %ecx
	cmpl	$8, %ecx
	ja	LBB1_94
## %bb.89:                              ## %copy.bb76
	leaq	LJTI1_10(%rip), %rdx
	movslq	(%rdx,%rcx,4), %rcx
	addq	%rdx, %rcx
	jmpq	*%rcx
LBB1_100:                               ## %casenul_unf.bb79
	movl	%eax, 7176(%rsp)
	jmp	LBB1_95
LBB1_94:                                ## %fallback.bb77
	leaq	7168(%rsp), %rdi
	leaq	14952(%rsp), %rsi
	callq	__ZN14altered_carbon2js9JsVariantaSERKS1_
LBB1_95:                                ## %copy.bb76e
	leaq	l_.wstr.11(%rip), %rsi
	leaq	14896(%rsp), %rdi
	callq	__ZN14altered_carbon2js9JsVariantaSEPKw
	cmpl	$6, 7120(%rsp)
	jg	LBB1_103
## %bb.96:                              ## %copy.bb76e
	movl	14904(%rsp), %eax
	cmpl	$7, %eax
	jge	LBB1_103
## %bb.97:                              ## %copy.bb84
	leal	2(%rax), %ecx
	cmpl	$8, %ecx
	ja	LBB1_103
## %bb.98:                              ## %copy.bb84
	leaq	LJTI1_11(%rip), %rdx
	movslq	(%rdx,%rcx,4), %rcx
	addq	%rdx, %rcx
	jmpq	*%rcx
LBB1_109:                               ## %casenul_unf.bb87
	movl	%eax, 7120(%rsp)
	jmp	LBB1_104
LBB1_103:                               ## %fallback.bb85
	leaq	7112(%rsp), %rdi
	leaq	14896(%rsp), %rsi
	callq	__ZN14altered_carbon2js9JsVariantaSERKS1_
LBB1_104:                               ## %copy.bb84e
	leaq	l_.wstr.12(%rip), %rsi
	leaq	14840(%rsp), %rdi
	callq	__ZN14altered_carbon2js9JsVariantaSEPKw
	cmpl	$6, 7064(%rsp)
	jg	LBB1_112
## %bb.105:                             ## %copy.bb84e
	movl	14848(%rsp), %eax
	cmpl	$7, %eax
	jge	LBB1_112
## %bb.106:                             ## %copy.bb92
	leal	2(%rax), %ecx
	cmpl	$8, %ecx
	ja	LBB1_112
## %bb.107:                             ## %copy.bb92
	leaq	LJTI1_12(%rip), %rdx
	movslq	(%rdx,%rcx,4), %rcx
	addq	%rdx, %rcx
	jmpq	*%rcx
LBB1_118:                               ## %casenul_unf.bb95
	movl	%eax, 7064(%rsp)
	jmp	LBB1_113
LBB1_112:                               ## %fallback.bb93
	leaq	7056(%rsp), %rdi
	leaq	14840(%rsp), %rsi
	callq	__ZN14altered_carbon2js9JsVariantaSERKS1_
LBB1_113:                               ## %copy.bb92e
	leaq	l_.wstr.13(%rip), %rsi
	leaq	14784(%rsp), %rdi
	callq	__ZN14altered_carbon2js9JsVariantaSEPKw
	cmpl	$6, 7008(%rsp)
	jg	LBB1_121
## %bb.114:                             ## %copy.bb92e
	movl	14792(%rsp), %eax
	cmpl	$7, %eax
	jge	LBB1_121
## %bb.115:                             ## %copy.bb100
	leal	2(%rax), %ecx
	cmpl	$8, %ecx
	ja	LBB1_121
## %bb.116:                             ## %copy.bb100
	leaq	LJTI1_13(%rip), %rdx
	movslq	(%rdx,%rcx,4), %rcx
	addq	%rdx, %rcx
	jmpq	*%rcx
LBB1_127:                               ## %casenul_unf.bb103
	movl	%eax, 7008(%rsp)
	jmp	LBB1_122
LBB1_121:                               ## %fallback.bb101
	leaq	7000(%rsp), %rdi
	leaq	14784(%rsp), %rsi
	callq	__ZN14altered_carbon2js9JsVariantaSERKS1_
LBB1_122:                               ## %copy.bb100e
	leaq	l_.wstr.14(%rip), %rsi
	leaq	14728(%rsp), %rdi
	callq	__ZN14altered_carbon2js9JsVariantaSEPKw
	cmpl	$6, 6952(%rsp)
	jg	LBB1_130
## %bb.123:                             ## %copy.bb100e
	movl	14736(%rsp), %eax
	cmpl	$7, %eax
	jge	LBB1_130
## %bb.124:                             ## %copy.bb108
	leal	2(%rax), %ecx
	cmpl	$8, %ecx
	ja	LBB1_130
## %bb.125:                             ## %copy.bb108
	leaq	LJTI1_14(%rip), %rdx
	movslq	(%rdx,%rcx,4), %rcx
	addq	%rdx, %rcx
	jmpq	*%rcx
LBB1_136:                               ## %casenul_unf.bb111
	movl	%eax, 6952(%rsp)
	jmp	LBB1_131
LBB1_130:                               ## %fallback.bb109
	leaq	6944(%rsp), %rdi
	leaq	14728(%rsp), %rsi
	callq	__ZN14altered_carbon2js9JsVariantaSERKS1_
LBB1_131:                               ## %copy.bb108e
	leaq	l_.wstr.15(%rip), %rsi
	leaq	14672(%rsp), %rdi
	callq	__ZN14altered_carbon2js9JsVariantaSEPKw
	cmpl	$6, 6896(%rsp)
	jg	LBB1_139
## %bb.132:                             ## %copy.bb108e
	movl	14680(%rsp), %eax
	cmpl	$7, %eax
	jge	LBB1_139
## %bb.133:                             ## %copy.bb116
	leal	2(%rax), %ecx
	cmpl	$8, %ecx
	ja	LBB1_139
## %bb.134:                             ## %copy.bb116
	leaq	LJTI1_15(%rip), %rdx
	movslq	(%rdx,%rcx,4), %rcx
	addq	%rdx, %rcx
	jmpq	*%rcx
LBB1_145:                               ## %casenul_unf.bb119
	movl	%eax, 6896(%rsp)
	jmp	LBB1_140
LBB1_139:                               ## %fallback.bb117
	leaq	6888(%rsp), %rdi
	leaq	14672(%rsp), %rsi
	callq	__ZN14altered_carbon2js9JsVariantaSERKS1_
LBB1_140:                               ## %copy.bb116e
	leaq	l_.wstr.16(%rip), %rsi
	leaq	14616(%rsp), %rdi
	callq	__ZN14altered_carbon2js9JsVariantaSEPKw
	cmpl	$6, 6840(%rsp)
	jg	LBB1_148
## %bb.141:                             ## %copy.bb116e
	movl	14624(%rsp), %eax
	cmpl	$7, %eax
	jge	LBB1_148
## %bb.142:                             ## %copy.bb124
	leal	2(%rax), %ecx
	cmpl	$8, %ecx
	ja	LBB1_148
## %bb.143:                             ## %copy.bb124
	leaq	LJTI1_16(%rip), %rdx
	movslq	(%rdx,%rcx,4), %rcx
	addq	%rdx, %rcx
	jmpq	*%rcx
LBB1_154:                               ## %casenul_unf.bb127
	movl	%eax, 6840(%rsp)
	jmp	LBB1_149
LBB1_148:                               ## %fallback.bb125
	leaq	6832(%rsp), %rdi
	leaq	14616(%rsp), %rsi
	callq	__ZN14altered_carbon2js9JsVariantaSERKS1_
LBB1_149:                               ## %copy.bb124e
	leaq	l_.wstr.17(%rip), %rsi
	leaq	14560(%rsp), %rdi
	callq	__ZN14altered_carbon2js9JsVariantaSEPKw
	cmpl	$6, 6784(%rsp)
	jg	LBB1_157
## %bb.150:                             ## %copy.bb124e
	movl	14568(%rsp), %eax
	cmpl	$7, %eax
	jge	LBB1_157
## %bb.151:                             ## %copy.bb132
	leal	2(%rax), %ecx
	cmpl	$8, %ecx
	ja	LBB1_157
## %bb.152:                             ## %copy.bb132
	leaq	LJTI1_17(%rip), %rdx
	movslq	(%rdx,%rcx,4), %rcx
	addq	%rdx, %rcx
	jmpq	*%rcx
LBB1_163:                               ## %casenul_unf.bb135
	movl	%eax, 6784(%rsp)
	jmp	LBB1_158
LBB1_157:                               ## %fallback.bb133
	leaq	6776(%rsp), %rdi
	leaq	14560(%rsp), %rsi
	callq	__ZN14altered_carbon2js9JsVariantaSERKS1_
LBB1_158:                               ## %copy.bb132e
	leaq	l_.wstr.18(%rip), %rsi
	leaq	14504(%rsp), %rdi
	callq	__ZN14altered_carbon2js9JsVariantaSEPKw
	cmpl	$6, 6728(%rsp)
	jg	LBB1_166
## %bb.159:                             ## %copy.bb132e
	movl	14512(%rsp), %eax
	cmpl	$7, %eax
	jge	LBB1_166
## %bb.160:                             ## %copy.bb140
	leal	2(%rax), %ecx
	cmpl	$8, %ecx
	ja	LBB1_166
## %bb.161:                             ## %copy.bb140
	leaq	LJTI1_18(%rip), %rdx
	movslq	(%rdx,%rcx,4), %rcx
	addq	%rdx, %rcx
	jmpq	*%rcx
LBB1_172:                               ## %casenul_unf.bb143
	movl	%eax, 6728(%rsp)
	jmp	LBB1_167
LBB1_166:                               ## %fallback.bb141
	leaq	6720(%rsp), %rdi
	leaq	14504(%rsp), %rsi
	callq	__ZN14altered_carbon2js9JsVariantaSERKS1_
LBB1_167:                               ## %copy.bb140e
	leaq	l_.wstr.19(%rip), %rsi
	leaq	14448(%rsp), %rdi
	callq	__ZN14altered_carbon2js9JsVariantaSEPKw
	cmpl	$6, 6672(%rsp)
	jg	LBB1_175
## %bb.168:                             ## %copy.bb140e
	movl	14456(%rsp), %eax
	cmpl	$7, %eax
	jge	LBB1_175
## %bb.169:                             ## %copy.bb148
	leal	2(%rax), %ecx
	cmpl	$8, %ecx
	ja	LBB1_175
## %bb.170:                             ## %copy.bb148
	leaq	LJTI1_19(%rip), %rdx
	movslq	(%rdx,%rcx,4), %rcx
	addq	%rdx, %rcx
	jmpq	*%rcx
LBB1_181:                               ## %casenul_unf.bb151
	movl	%eax, 6672(%rsp)
	jmp	LBB1_176
LBB1_175:                               ## %fallback.bb149
	leaq	6664(%rsp), %rdi
	leaq	14448(%rsp), %rsi
	callq	__ZN14altered_carbon2js9JsVariantaSERKS1_
LBB1_176:                               ## %copy.bb148e
	leaq	l_.wstr.20(%rip), %rsi
	leaq	14392(%rsp), %rdi
	callq	__ZN14altered_carbon2js9JsVariantaSEPKw
	cmpl	$6, 6616(%rsp)
	jg	LBB1_184
## %bb.177:                             ## %copy.bb148e
	movl	14400(%rsp), %eax
	cmpl	$7, %eax
	jge	LBB1_184
## %bb.178:                             ## %copy.bb156
	leal	2(%rax), %ecx
	cmpl	$8, %ecx
	ja	LBB1_184
## %bb.179:                             ## %copy.bb156
	leaq	LJTI1_20(%rip), %rdx
	movslq	(%rdx,%rcx,4), %rcx
	addq	%rdx, %rcx
	jmpq	*%rcx
LBB1_190:                               ## %casenul_unf.bb159
	movl	%eax, 6616(%rsp)
	jmp	LBB1_185
LBB1_184:                               ## %fallback.bb157
	leaq	6608(%rsp), %rdi
	leaq	14392(%rsp), %rsi
	callq	__ZN14altered_carbon2js9JsVariantaSERKS1_
LBB1_185:                               ## %copy.bb156e
	leaq	l_.wstr.21(%rip), %rsi
	leaq	14336(%rsp), %rdi
	callq	__ZN14altered_carbon2js9JsVariantaSEPKw
	cmpl	$6, 6560(%rsp)
	jg	LBB1_193
## %bb.186:                             ## %copy.bb156e
	movl	14344(%rsp), %eax
	cmpl	$7, %eax
	jge	LBB1_193
## %bb.187:                             ## %copy.bb164
	leal	2(%rax), %ecx
	cmpl	$8, %ecx
	ja	LBB1_193
## %bb.188:                             ## %copy.bb164
	leaq	LJTI1_21(%rip), %rdx
	movslq	(%rdx,%rcx,4), %rcx
	addq	%rdx, %rcx
	jmpq	*%rcx
LBB1_199:                               ## %casenul_unf.bb167
	movl	%eax, 6560(%rsp)
	jmp	LBB1_194
LBB1_193:                               ## %fallback.bb165
	leaq	6552(%rsp), %rdi
	leaq	14336(%rsp), %rsi
	callq	__ZN14altered_carbon2js9JsVariantaSERKS1_
LBB1_194:                               ## %copy.bb164e
	leaq	l_.wstr.22(%rip), %rsi
	leaq	14280(%rsp), %rdi
	callq	__ZN14altered_carbon2js9JsVariantaSEPKw
	cmpl	$6, 6504(%rsp)
	jg	LBB1_202
## %bb.195:                             ## %copy.bb164e
	movl	14288(%rsp), %eax
	cmpl	$7, %eax
	jge	LBB1_202
## %bb.196:                             ## %copy.bb172
	leal	2(%rax), %ecx
	cmpl	$8, %ecx
	ja	LBB1_202
## %bb.197:                             ## %copy.bb172
	leaq	LJTI1_22(%rip), %rdx
	movslq	(%rdx,%rcx,4), %rcx
	addq	%rdx, %rcx
	jmpq	*%rcx
LBB1_208:                               ## %casenul_unf.bb175
	movl	%eax, 6504(%rsp)
	jmp	LBB1_203
LBB1_202:                               ## %fallback.bb173
	leaq	6496(%rsp), %rdi
	leaq	14280(%rsp), %rsi
	callq	__ZN14altered_carbon2js9JsVariantaSERKS1_
LBB1_203:                               ## %copy.bb172e
	leaq	l_.wstr.23(%rip), %rsi
	leaq	14224(%rsp), %rdi
	callq	__ZN14altered_carbon2js9JsVariantaSEPKw
	cmpl	$6, 6448(%rsp)
	jg	LBB1_211
## %bb.204:                             ## %copy.bb172e
	movl	14232(%rsp), %eax
	cmpl	$7, %eax
	jge	LBB1_211
## %bb.205:                             ## %copy.bb180
	leal	2(%rax), %ecx
	cmpl	$8, %ecx
	ja	LBB1_211
## %bb.206:                             ## %copy.bb180
	leaq	LJTI1_23(%rip), %rdx
	movslq	(%rdx,%rcx,4), %rcx
	addq	%rdx, %rcx
	jmpq	*%rcx
LBB1_217:                               ## %casenul_unf.bb183
	movl	%eax, 6448(%rsp)
	jmp	LBB1_212
LBB1_211:                               ## %fallback.bb181
	leaq	6440(%rsp), %rdi
	leaq	14224(%rsp), %rsi
	callq	__ZN14altered_carbon2js9JsVariantaSERKS1_
LBB1_212:                               ## %copy.bb180e
	leaq	l_.wstr.24(%rip), %rsi
	leaq	14168(%rsp), %rdi
	callq	__ZN14altered_carbon2js9JsVariantaSEPKw
	cmpl	$6, 6392(%rsp)
	jg	LBB1_220
## %bb.213:                             ## %copy.bb180e
	movl	14176(%rsp), %eax
	cmpl	$7, %eax
	jge	LBB1_220
## %bb.214:                             ## %copy.bb188
	leal	2(%rax), %ecx
	cmpl	$8, %ecx
	ja	LBB1_220
## %bb.215:                             ## %copy.bb188
	leaq	LJTI1_24(%rip), %rdx
	movslq	(%rdx,%rcx,4), %rcx
	addq	%rdx, %rcx
	jmpq	*%rcx
LBB1_226:                               ## %casenul_unf.bb191
	movl	%eax, 6392(%rsp)
	jmp	LBB1_221
LBB1_220:                               ## %fallback.bb189
	leaq	6384(%rsp), %rdi
	leaq	14168(%rsp), %rsi
	callq	__ZN14altered_carbon2js9JsVariantaSERKS1_
LBB1_221:                               ## %copy.bb188e
	leaq	l_.wstr.25(%rip), %rsi
	leaq	14112(%rsp), %rdi
	callq	__ZN14altered_carbon2js9JsVariantaSEPKw
	cmpl	$6, 6336(%rsp)
	jg	LBB1_229
## %bb.222:                             ## %copy.bb188e
	movl	14120(%rsp), %eax
	cmpl	$7, %eax
	jge	LBB1_229
## %bb.223:                             ## %copy.bb196
	leal	2(%rax), %ecx
	cmpl	$8, %ecx
	ja	LBB1_229
## %bb.224:                             ## %copy.bb196
	leaq	LJTI1_25(%rip), %rdx
	movslq	(%rdx,%rcx,4), %rcx
	addq	%rdx, %rcx
	jmpq	*%rcx
LBB1_235:                               ## %casenul_unf.bb199
	movl	%eax, 6336(%rsp)
	jmp	LBB1_230
LBB1_229:                               ## %fallback.bb197
	leaq	6328(%rsp), %rdi
	leaq	14112(%rsp), %rsi
	callq	__ZN14altered_carbon2js9JsVariantaSERKS1_
LBB1_230:                               ## %copy.bb196e
	leaq	l_.wstr.26(%rip), %rsi
	leaq	14056(%rsp), %rdi
	callq	__ZN14altered_carbon2js9JsVariantaSEPKw
	cmpl	$6, 6280(%rsp)
	jg	LBB1_238
## %bb.231:                             ## %copy.bb196e
	movl	14064(%rsp), %eax
	cmpl	$7, %eax
	jge	LBB1_238
## %bb.232:                             ## %copy.bb204
	leal	2(%rax), %ecx
	cmpl	$8, %ecx
	ja	LBB1_238
## %bb.233:                             ## %copy.bb204
	leaq	LJTI1_26(%rip), %rdx
	movslq	(%rdx,%rcx,4), %rcx
	addq	%rdx, %rcx
	jmpq	*%rcx
LBB1_244:                               ## %casenul_unf.bb207
	movl	%eax, 6280(%rsp)
	jmp	LBB1_239
LBB1_238:                               ## %fallback.bb205
	leaq	6272(%rsp), %rdi
	leaq	14056(%rsp), %rsi
	callq	__ZN14altered_carbon2js9JsVariantaSERKS1_
LBB1_239:                               ## %copy.bb204e
	leaq	l_.wstr.27(%rip), %rsi
	leaq	14000(%rsp), %rdi
	callq	__ZN14altered_carbon2js9JsVariantaSEPKw
	cmpl	$6, 6224(%rsp)
	jg	LBB1_247
## %bb.240:                             ## %copy.bb204e
	movl	14008(%rsp), %eax
	cmpl	$7, %eax
	jge	LBB1_247
## %bb.241:                             ## %copy.bb212
	leal	2(%rax), %ecx
	cmpl	$8, %ecx
	ja	LBB1_247
## %bb.242:                             ## %copy.bb212
	leaq	LJTI1_27(%rip), %rdx
	movslq	(%rdx,%rcx,4), %rcx
	addq	%rdx, %rcx
	jmpq	*%rcx
LBB1_253:                               ## %casenul_unf.bb215
	movl	%eax, 6224(%rsp)
	jmp	LBB1_248
LBB1_247:                               ## %fallback.bb213
	leaq	6216(%rsp), %rdi
	leaq	14000(%rsp), %rsi
	callq	__ZN14altered_carbon2js9JsVariantaSERKS1_
LBB1_248:                               ## %copy.bb212e
	leaq	l_.wstr.28(%rip), %rsi
	leaq	13944(%rsp), %rdi
	callq	__ZN14altered_carbon2js9JsVariantaSEPKw
	cmpl	$6, 6168(%rsp)
	jg	LBB1_256
## %bb.249:                             ## %copy.bb212e
	movl	13952(%rsp), %eax
	cmpl	$7, %eax
	jge	LBB1_256
## %bb.250:                             ## %copy.bb220
	leal	2(%rax), %ecx
	cmpl	$8, %ecx
	ja	LBB1_256
## %bb.251:                             ## %copy.bb220
	leaq	LJTI1_28(%rip), %rdx
	movslq	(%rdx,%rcx,4), %rcx
	addq	%rdx, %rcx
	jmpq	*%rcx
LBB1_262:                               ## %casenul_unf.bb223
	movl	%eax, 6168(%rsp)
	jmp	LBB1_257
LBB1_256:                               ## %fallback.bb221
	leaq	6160(%rsp), %rdi
	leaq	13944(%rsp), %rsi
	callq	__ZN14altered_carbon2js9JsVariantaSERKS1_
LBB1_257:                               ## %copy.bb220e
	leaq	l_.wstr.29(%rip), %rsi
	leaq	13888(%rsp), %rdi
	callq	__ZN14altered_carbon2js9JsVariantaSEPKw
	cmpl	$6, 6112(%rsp)
	jg	LBB1_265
## %bb.258:                             ## %copy.bb220e
	movl	13896(%rsp), %eax
	cmpl	$7, %eax
	jge	LBB1_265
## %bb.259:                             ## %copy.bb228
	leal	2(%rax), %ecx
	cmpl	$8, %ecx
	ja	LBB1_265
## %bb.260:                             ## %copy.bb228
	leaq	LJTI1_29(%rip), %rdx
	movslq	(%rdx,%rcx,4), %rcx
	addq	%rdx, %rcx
	jmpq	*%rcx
LBB1_271:                               ## %casenul_unf.bb231
	movl	%eax, 6112(%rsp)
	jmp	LBB1_266
LBB1_265:                               ## %fallback.bb229
	leaq	6104(%rsp), %rdi
	leaq	13888(%rsp), %rsi
	callq	__ZN14altered_carbon2js9JsVariantaSERKS1_
LBB1_266:                               ## %copy.bb228e
	leaq	l_.wstr.30(%rip), %rsi
	leaq	13832(%rsp), %rdi
	callq	__ZN14altered_carbon2js9JsVariantaSEPKw
	cmpl	$6, 6056(%rsp)
	jg	LBB1_274
## %bb.267:                             ## %copy.bb228e
	movl	13840(%rsp), %eax
	cmpl	$7, %eax
	jge	LBB1_274
## %bb.268:                             ## %copy.bb236
	leal	2(%rax), %ecx
	cmpl	$8, %ecx
	ja	LBB1_274
## %bb.269:                             ## %copy.bb236
	leaq	LJTI1_30(%rip), %rdx
	movslq	(%rdx,%rcx,4), %rcx
	addq	%rdx, %rcx
	jmpq	*%rcx
LBB1_280:                               ## %casenul_unf.bb239
	movl	%eax, 6056(%rsp)
	jmp	LBB1_275
LBB1_274:                               ## %fallback.bb237
	leaq	6048(%rsp), %rdi
	leaq	13832(%rsp), %rsi
	callq	__ZN14altered_carbon2js9JsVariantaSERKS1_
LBB1_275:                               ## %copy.bb236e
	leaq	l_.wstr.31(%rip), %rsi
	leaq	13776(%rsp), %rdi
	callq	__ZN14altered_carbon2js9JsVariantaSEPKw
	cmpl	$6, 6000(%rsp)
	jg	LBB1_283
## %bb.276:                             ## %copy.bb236e
	movl	13784(%rsp), %eax
	cmpl	$7, %eax
	jge	LBB1_283
## %bb.277:                             ## %copy.bb244
	leal	2(%rax), %ecx
	cmpl	$8, %ecx
	ja	LBB1_283
## %bb.278:                             ## %copy.bb244
	leaq	LJTI1_31(%rip), %rdx
	movslq	(%rdx,%rcx,4), %rcx
	addq	%rdx, %rcx
	jmpq	*%rcx
LBB1_289:                               ## %casenul_unf.bb247
	movl	%eax, 6000(%rsp)
	jmp	LBB1_284
LBB1_283:                               ## %fallback.bb245
	leaq	5992(%rsp), %rdi
	leaq	13776(%rsp), %rsi
	callq	__ZN14altered_carbon2js9JsVariantaSERKS1_
LBB1_284:                               ## %copy.bb244e
	leaq	l_.wstr.32(%rip), %rsi
	leaq	13720(%rsp), %rdi
	callq	__ZN14altered_carbon2js9JsVariantaSEPKw
	cmpl	$6, 5944(%rsp)
	jg	LBB1_292
## %bb.285:                             ## %copy.bb244e
	movl	13728(%rsp), %eax
	cmpl	$7, %eax
	jge	LBB1_292
## %bb.286:                             ## %copy.bb252
	leal	2(%rax), %ecx
	cmpl	$8, %ecx
	ja	LBB1_292
## %bb.287:                             ## %copy.bb252
	leaq	LJTI1_32(%rip), %rdx
	movslq	(%rdx,%rcx,4), %rcx
	addq	%rdx, %rcx
	jmpq	*%rcx
LBB1_298:                               ## %casenul_unf.bb255
	movl	%eax, 5944(%rsp)
	jmp	LBB1_293
LBB1_292:                               ## %fallback.bb253
	leaq	5936(%rsp), %rdi
	leaq	13720(%rsp), %rsi
	callq	__ZN14altered_carbon2js9JsVariantaSERKS1_
LBB1_293:                               ## %copy.bb252e
	leaq	l_.wstr.33(%rip), %rsi
	leaq	13664(%rsp), %rdi
	callq	__ZN14altered_carbon2js9JsVariantaSEPKw
	cmpl	$6, 5888(%rsp)
	jg	LBB1_301
## %bb.294:                             ## %copy.bb252e
	movl	13672(%rsp), %eax
	cmpl	$7, %eax
	jge	LBB1_301
## %bb.295:                             ## %copy.bb260
	leal	2(%rax), %ecx
	cmpl	$8, %ecx
	ja	LBB1_301
## %bb.296:                             ## %copy.bb260
	leaq	LJTI1_33(%rip), %rdx
	movslq	(%rdx,%rcx,4), %rcx
	addq	%rdx, %rcx
	jmpq	*%rcx
LBB1_307:                               ## %casenul_unf.bb263
	movl	%eax, 5888(%rsp)
	jmp	LBB1_302
LBB1_301:                               ## %fallback.bb261
	leaq	5880(%rsp), %rdi
	leaq	13664(%rsp), %rsi
	callq	__ZN14altered_carbon2js9JsVariantaSERKS1_
LBB1_302:                               ## %copy.bb260e
	leaq	l_.wstr.34(%rip), %rsi
	leaq	13608(%rsp), %rdi
	callq	__ZN14altered_carbon2js9JsVariantaSEPKw
	cmpl	$6, 5832(%rsp)
	jg	LBB1_310
## %bb.303:                             ## %copy.bb260e
	movl	13616(%rsp), %eax
	cmpl	$7, %eax
	jge	LBB1_310
## %bb.304:                             ## %copy.bb268
	leal	2(%rax), %ecx
	cmpl	$8, %ecx
	ja	LBB1_310
## %bb.305:                             ## %copy.bb268
	leaq	LJTI1_34(%rip), %rdx
	movslq	(%rdx,%rcx,4), %rcx
	addq	%rdx, %rcx
	jmpq	*%rcx
LBB1_316:                               ## %casenul_unf.bb271
	movl	%eax, 5832(%rsp)
	jmp	LBB1_311
LBB1_310:                               ## %fallback.bb269
	leaq	5824(%rsp), %rdi
	leaq	13608(%rsp), %rsi
	callq	__ZN14altered_carbon2js9JsVariantaSERKS1_
LBB1_311:                               ## %copy.bb268e
	leaq	l_.wstr.35(%rip), %rsi
	leaq	13552(%rsp), %rdi
	callq	__ZN14altered_carbon2js9JsVariantaSEPKw
	cmpl	$6, 5776(%rsp)
	jg	LBB1_319
## %bb.312:                             ## %copy.bb268e
	movl	13560(%rsp), %eax
	cmpl	$7, %eax
	jge	LBB1_319
## %bb.313:                             ## %copy.bb276
	leal	2(%rax), %ecx
	cmpl	$8, %ecx
	ja	LBB1_319
## %bb.314:                             ## %copy.bb276
	leaq	LJTI1_35(%rip), %rdx
	movslq	(%rdx,%rcx,4), %rcx
	addq	%rdx, %rcx
	jmpq	*%rcx
LBB1_325:                               ## %casenul_unf.bb279
	movl	%eax, 5776(%rsp)
	jmp	LBB1_320
LBB1_319:                               ## %fallback.bb277
	leaq	5768(%rsp), %rdi
	leaq	13552(%rsp), %rsi
	callq	__ZN14altered_carbon2js9JsVariantaSERKS1_
LBB1_320:                               ## %copy.bb276e
	leaq	l_.wstr.36(%rip), %rsi
	leaq	13496(%rsp), %rdi
	callq	__ZN14altered_carbon2js9JsVariantaSEPKw
	cmpl	$6, 5720(%rsp)
	jg	LBB1_328
## %bb.321:                             ## %copy.bb276e
	movl	13504(%rsp), %eax
	cmpl	$7, %eax
	jge	LBB1_328
## %bb.322:                             ## %copy.bb284
	leal	2(%rax), %ecx
	cmpl	$8, %ecx
	ja	LBB1_328
## %bb.323:                             ## %copy.bb284
	leaq	LJTI1_36(%rip), %rdx
	movslq	(%rdx,%rcx,4), %rcx
	addq	%rdx, %rcx
	jmpq	*%rcx
LBB1_334:                               ## %casenul_unf.bb287
	movl	%eax, 5720(%rsp)
	jmp	LBB1_329
LBB1_328:                               ## %fallback.bb285
	leaq	5712(%rsp), %rdi
	leaq	13496(%rsp), %rsi
	callq	__ZN14altered_carbon2js9JsVariantaSERKS1_
LBB1_329:                               ## %copy.bb284e
	leaq	l_.wstr.37(%rip), %rsi
	leaq	13440(%rsp), %rdi
	callq	__ZN14altered_carbon2js9JsVariantaSEPKw
	cmpl	$6, 5664(%rsp)
	jg	LBB1_337
## %bb.330:                             ## %copy.bb284e
	movl	13448(%rsp), %eax
	cmpl	$7, %eax
	jge	LBB1_337
## %bb.331:                             ## %copy.bb292
	leal	2(%rax), %ecx
	cmpl	$8, %ecx
	ja	LBB1_337
## %bb.332:                             ## %copy.bb292
	leaq	LJTI1_37(%rip), %rdx
	movslq	(%rdx,%rcx,4), %rcx
	addq	%rdx, %rcx
	jmpq	*%rcx
LBB1_343:                               ## %casenul_unf.bb295
	movl	%eax, 5664(%rsp)
	jmp	LBB1_338
LBB1_337:                               ## %fallback.bb293
	leaq	5656(%rsp), %rdi
	leaq	13440(%rsp), %rsi
	callq	__ZN14altered_carbon2js9JsVariantaSERKS1_
LBB1_338:                               ## %copy.bb292e
	leaq	l_.wstr.38(%rip), %rsi
	leaq	13384(%rsp), %rdi
	callq	__ZN14altered_carbon2js9JsVariantaSEPKw
	cmpl	$6, 5608(%rsp)
	jg	LBB1_346
## %bb.339:                             ## %copy.bb292e
	movl	13392(%rsp), %eax
	cmpl	$7, %eax
	jge	LBB1_346
## %bb.340:                             ## %copy.bb300
	leal	2(%rax), %ecx
	cmpl	$8, %ecx
	ja	LBB1_346
## %bb.341:                             ## %copy.bb300
	leaq	LJTI1_38(%rip), %rdx
	movslq	(%rdx,%rcx,4), %rcx
	addq	%rdx, %rcx
	jmpq	*%rcx
LBB1_352:                               ## %casenul_unf.bb303
	movl	%eax, 5608(%rsp)
	jmp	LBB1_347
LBB1_346:                               ## %fallback.bb301
	leaq	5600(%rsp), %rdi
	leaq	13384(%rsp), %rsi
	callq	__ZN14altered_carbon2js9JsVariantaSERKS1_
LBB1_347:                               ## %copy.bb300e
	leaq	l_.wstr.39(%rip), %rsi
	leaq	13328(%rsp), %rdi
	callq	__ZN14altered_carbon2js9JsVariantaSEPKw
	cmpl	$6, 5552(%rsp)
	jg	LBB1_355
## %bb.348:                             ## %copy.bb300e
	movl	13336(%rsp), %eax
	cmpl	$7, %eax
	jge	LBB1_355
## %bb.349:                             ## %copy.bb308
	leal	2(%rax), %ecx
	cmpl	$8, %ecx
	ja	LBB1_355
## %bb.350:                             ## %copy.bb308
	leaq	LJTI1_39(%rip), %rdx
	movslq	(%rdx,%rcx,4), %rcx
	addq	%rdx, %rcx
	jmpq	*%rcx
LBB1_361:                               ## %casenul_unf.bb311
	movl	%eax, 5552(%rsp)
	jmp	LBB1_356
LBB1_355:                               ## %fallback.bb309
	leaq	5544(%rsp), %rdi
	leaq	13328(%rsp), %rsi
	callq	__ZN14altered_carbon2js9JsVariantaSERKS1_
LBB1_356:                               ## %copy.bb308e
	leaq	l_.wstr.40(%rip), %rsi
	leaq	13272(%rsp), %rdi
	callq	__ZN14altered_carbon2js9JsVariantaSEPKw
	cmpl	$6, 5496(%rsp)
	jg	LBB1_364
## %bb.357:                             ## %copy.bb308e
	movl	13280(%rsp), %eax
	cmpl	$7, %eax
	jge	LBB1_364
## %bb.358:                             ## %copy.bb316
	leal	2(%rax), %ecx
	cmpl	$8, %ecx
	ja	LBB1_364
## %bb.359:                             ## %copy.bb316
	leaq	LJTI1_40(%rip), %rdx
	movslq	(%rdx,%rcx,4), %rcx
	addq	%rdx, %rcx
	jmpq	*%rcx
LBB1_370:                               ## %casenul_unf.bb319
	movl	%eax, 5496(%rsp)
	jmp	LBB1_365
LBB1_364:                               ## %fallback.bb317
	leaq	5488(%rsp), %rdi
	leaq	13272(%rsp), %rsi
	callq	__ZN14altered_carbon2js9JsVariantaSERKS1_
LBB1_365:                               ## %copy.bb316e
	leaq	l_.wstr.41(%rip), %rsi
	leaq	13216(%rsp), %rdi
	callq	__ZN14altered_carbon2js9JsVariantaSEPKw
	cmpl	$6, 5440(%rsp)
	jg	LBB1_373
## %bb.366:                             ## %copy.bb316e
	movl	13224(%rsp), %eax
	cmpl	$7, %eax
	jge	LBB1_373
## %bb.367:                             ## %copy.bb324
	leal	2(%rax), %ecx
	cmpl	$8, %ecx
	ja	LBB1_373
## %bb.368:                             ## %copy.bb324
	leaq	LJTI1_41(%rip), %rdx
	movslq	(%rdx,%rcx,4), %rcx
	addq	%rdx, %rcx
	jmpq	*%rcx
LBB1_379:                               ## %casenul_unf.bb327
	movl	%eax, 5440(%rsp)
	jmp	LBB1_374
LBB1_373:                               ## %fallback.bb325
	leaq	5432(%rsp), %rdi
	leaq	13216(%rsp), %rsi
	callq	__ZN14altered_carbon2js9JsVariantaSERKS1_
LBB1_374:                               ## %copy.bb324e
	leaq	l_.wstr.42(%rip), %rsi
	leaq	13160(%rsp), %rdi
	callq	__ZN14altered_carbon2js9JsVariantaSEPKw
	cmpl	$6, 5384(%rsp)
	jg	LBB1_382
## %bb.375:                             ## %copy.bb324e
	movl	13168(%rsp), %eax
	cmpl	$7, %eax
	jge	LBB1_382
## %bb.376:                             ## %copy.bb332
	leal	2(%rax), %ecx
	cmpl	$8, %ecx
	ja	LBB1_382
## %bb.377:                             ## %copy.bb332
	leaq	LJTI1_42(%rip), %rdx
	movslq	(%rdx,%rcx,4), %rcx
	addq	%rdx, %rcx
	jmpq	*%rcx
LBB1_388:                               ## %casenul_unf.bb335
	movl	%eax, 5384(%rsp)
	jmp	LBB1_383
LBB1_382:                               ## %fallback.bb333
	leaq	5376(%rsp), %rdi
	leaq	13160(%rsp), %rsi
	callq	__ZN14altered_carbon2js9JsVariantaSERKS1_
LBB1_383:                               ## %copy.bb332e
	leaq	l_.wstr.43(%rip), %rsi
	leaq	13104(%rsp), %rdi
	callq	__ZN14altered_carbon2js9JsVariantaSEPKw
	cmpl	$6, 5328(%rsp)
	jg	LBB1_391
## %bb.384:                             ## %copy.bb332e
	movl	13112(%rsp), %eax
	cmpl	$7, %eax
	jge	LBB1_391
## %bb.385:                             ## %copy.bb340
	leal	2(%rax), %ecx
	cmpl	$8, %ecx
	ja	LBB1_391
## %bb.386:                             ## %copy.bb340
	leaq	LJTI1_43(%rip), %rdx
	movslq	(%rdx,%rcx,4), %rcx
	addq	%rdx, %rcx
	jmpq	*%rcx
LBB1_397:                               ## %casenul_unf.bb343
	movl	%eax, 5328(%rsp)
	jmp	LBB1_392
LBB1_391:                               ## %fallback.bb341
	leaq	5320(%rsp), %rdi
	leaq	13104(%rsp), %rsi
	callq	__ZN14altered_carbon2js9JsVariantaSERKS1_
LBB1_392:                               ## %copy.bb340e
	leaq	l_.wstr.44(%rip), %rsi
	leaq	13048(%rsp), %rdi
	callq	__ZN14altered_carbon2js9JsVariantaSEPKw
	cmpl	$6, 5272(%rsp)
	jg	LBB1_400
## %bb.393:                             ## %copy.bb340e
	movl	13056(%rsp), %eax
	cmpl	$7, %eax
	jge	LBB1_400
## %bb.394:                             ## %copy.bb348
	leal	2(%rax), %ecx
	cmpl	$8, %ecx
	ja	LBB1_400
## %bb.395:                             ## %copy.bb348
	leaq	LJTI1_44(%rip), %rdx
	movslq	(%rdx,%rcx,4), %rcx
	addq	%rdx, %rcx
	jmpq	*%rcx
LBB1_406:                               ## %casenul_unf.bb351
	movl	%eax, 5272(%rsp)
	jmp	LBB1_401
LBB1_400:                               ## %fallback.bb349
	leaq	5264(%rsp), %rdi
	leaq	13048(%rsp), %rsi
	callq	__ZN14altered_carbon2js9JsVariantaSERKS1_
LBB1_401:                               ## %copy.bb348e
	leaq	l_.wstr.45(%rip), %rsi
	leaq	12992(%rsp), %rdi
	callq	__ZN14altered_carbon2js9JsVariantaSEPKw
	cmpl	$6, 5216(%rsp)
	jg	LBB1_409
## %bb.402:                             ## %copy.bb348e
	movl	13000(%rsp), %eax
	cmpl	$7, %eax
	jge	LBB1_409
## %bb.403:                             ## %copy.bb356
	leal	2(%rax), %ecx
	cmpl	$8, %ecx
	ja	LBB1_409
## %bb.404:                             ## %copy.bb356
	leaq	LJTI1_45(%rip), %rdx
	movslq	(%rdx,%rcx,4), %rcx
	addq	%rdx, %rcx
	jmpq	*%rcx
LBB1_415:                               ## %casenul_unf.bb359
	movl	%eax, 5216(%rsp)
	jmp	LBB1_410
LBB1_409:                               ## %fallback.bb357
	leaq	5208(%rsp), %rdi
	leaq	12992(%rsp), %rsi
	callq	__ZN14altered_carbon2js9JsVariantaSERKS1_
LBB1_410:                               ## %copy.bb356e
	leaq	l_.wstr.46(%rip), %rsi
	leaq	12936(%rsp), %rdi
	callq	__ZN14altered_carbon2js9JsVariantaSEPKw
	cmpl	$6, 5160(%rsp)
	jg	LBB1_418
## %bb.411:                             ## %copy.bb356e
	movl	12944(%rsp), %eax
	cmpl	$7, %eax
	jge	LBB1_418
## %bb.412:                             ## %copy.bb364
	leal	2(%rax), %ecx
	cmpl	$8, %ecx
	ja	LBB1_418
## %bb.413:                             ## %copy.bb364
	leaq	LJTI1_46(%rip), %rdx
	movslq	(%rdx,%rcx,4), %rcx
	addq	%rdx, %rcx
	jmpq	*%rcx
LBB1_424:                               ## %casenul_unf.bb367
	movl	%eax, 5160(%rsp)
	jmp	LBB1_419
LBB1_418:                               ## %fallback.bb365
	leaq	5152(%rsp), %rdi
	leaq	12936(%rsp), %rsi
	callq	__ZN14altered_carbon2js9JsVariantaSERKS1_
LBB1_419:                               ## %copy.bb364e
	leaq	l_.wstr.47(%rip), %rsi
	leaq	12880(%rsp), %rdi
	callq	__ZN14altered_carbon2js9JsVariantaSEPKw
	cmpl	$6, 5104(%rsp)
	jg	LBB1_427
## %bb.420:                             ## %copy.bb364e
	movl	12888(%rsp), %eax
	cmpl	$7, %eax
	jge	LBB1_427
## %bb.421:                             ## %copy.bb372
	leal	2(%rax), %ecx
	cmpl	$8, %ecx
	ja	LBB1_427
## %bb.422:                             ## %copy.bb372
	leaq	LJTI1_47(%rip), %rdx
	movslq	(%rdx,%rcx,4), %rcx
	addq	%rdx, %rcx
	jmpq	*%rcx
LBB1_433:                               ## %casenul_unf.bb375
	movl	%eax, 5104(%rsp)
	jmp	LBB1_428
LBB1_427:                               ## %fallback.bb373
	leaq	5096(%rsp), %rdi
	leaq	12880(%rsp), %rsi
	callq	__ZN14altered_carbon2js9JsVariantaSERKS1_
LBB1_428:                               ## %copy.bb372e
	leaq	l_.wstr.48(%rip), %rsi
	leaq	12824(%rsp), %rdi
	callq	__ZN14altered_carbon2js9JsVariantaSEPKw
	cmpl	$6, 5048(%rsp)
	jg	LBB1_436
## %bb.429:                             ## %copy.bb372e
	movl	12832(%rsp), %eax
	cmpl	$7, %eax
	jge	LBB1_436
## %bb.430:                             ## %copy.bb380
	leal	2(%rax), %ecx
	cmpl	$8, %ecx
	ja	LBB1_436
## %bb.431:                             ## %copy.bb380
	leaq	LJTI1_48(%rip), %rdx
	movslq	(%rdx,%rcx,4), %rcx
	addq	%rdx, %rcx
	jmpq	*%rcx
LBB1_442:                               ## %casenul_unf.bb383
	movl	%eax, 5048(%rsp)
	jmp	LBB1_437
LBB1_436:                               ## %fallback.bb381
	leaq	5040(%rsp), %rdi
	leaq	12824(%rsp), %rsi
	callq	__ZN14altered_carbon2js9JsVariantaSERKS1_
LBB1_437:                               ## %copy.bb380e
	leaq	l_.wstr.49(%rip), %rsi
	leaq	12768(%rsp), %rdi
	callq	__ZN14altered_carbon2js9JsVariantaSEPKw
	cmpl	$6, 4992(%rsp)
	jg	LBB1_445
## %bb.438:                             ## %copy.bb380e
	movl	12776(%rsp), %eax
	cmpl	$7, %eax
	jge	LBB1_445
## %bb.439:                             ## %copy.bb388
	leal	2(%rax), %ecx
	cmpl	$8, %ecx
	ja	LBB1_445
## %bb.440:                             ## %copy.bb388
	leaq	LJTI1_49(%rip), %rdx
	movslq	(%rdx,%rcx,4), %rcx
	addq	%rdx, %rcx
	jmpq	*%rcx
LBB1_451:                               ## %casenul_unf.bb391
	movl	%eax, 4992(%rsp)
	jmp	LBB1_446
LBB1_445:                               ## %fallback.bb389
	leaq	4984(%rsp), %rdi
	leaq	12768(%rsp), %rsi
	callq	__ZN14altered_carbon2js9JsVariantaSERKS1_
LBB1_446:                               ## %copy.bb388e
	leaq	l_.wstr.50(%rip), %rsi
	leaq	12712(%rsp), %rdi
	callq	__ZN14altered_carbon2js9JsVariantaSEPKw
	cmpl	$6, 4936(%rsp)
	jg	LBB1_454
## %bb.447:                             ## %copy.bb388e
	movl	12720(%rsp), %eax
	cmpl	$7, %eax
	jge	LBB1_454
## %bb.448:                             ## %copy.bb396
	leal	2(%rax), %ecx
	cmpl	$8, %ecx
	ja	LBB1_454
## %bb.449:                             ## %copy.bb396
	leaq	LJTI1_50(%rip), %rdx
	movslq	(%rdx,%rcx,4), %rcx
	addq	%rdx, %rcx
	jmpq	*%rcx
LBB1_460:                               ## %casenul_unf.bb399
	movl	%eax, 4936(%rsp)
	jmp	LBB1_455
LBB1_454:                               ## %fallback.bb397
	leaq	4928(%rsp), %rdi
	leaq	12712(%rsp), %rsi
	callq	__ZN14altered_carbon2js9JsVariantaSERKS1_
LBB1_455:                               ## %copy.bb396e
	leaq	l_.wstr.51(%rip), %rsi
	leaq	12656(%rsp), %rdi
	callq	__ZN14altered_carbon2js9JsVariantaSEPKw
	cmpl	$6, 4880(%rsp)
	jg	LBB1_463
## %bb.456:                             ## %copy.bb396e
	movl	12664(%rsp), %eax
	cmpl	$7, %eax
	jge	LBB1_463
## %bb.457:                             ## %copy.bb404
	leal	2(%rax), %ecx
	cmpl	$8, %ecx
	ja	LBB1_463
## %bb.458:                             ## %copy.bb404
	leaq	LJTI1_51(%rip), %rdx
	movslq	(%rdx,%rcx,4), %rcx
	addq	%rdx, %rcx
	jmpq	*%rcx
LBB1_469:                               ## %casenul_unf.bb407
	movl	%eax, 4880(%rsp)
	jmp	LBB1_464
LBB1_463:                               ## %fallback.bb405
	leaq	4872(%rsp), %rdi
	leaq	12656(%rsp), %rsi
	callq	__ZN14altered_carbon2js9JsVariantaSERKS1_
LBB1_464:                               ## %copy.bb404e
	leaq	l_.wstr.52(%rip), %rsi
	leaq	12600(%rsp), %rdi
	callq	__ZN14altered_carbon2js9JsVariantaSEPKw
	cmpl	$6, 4824(%rsp)
	jg	LBB1_472
## %bb.465:                             ## %copy.bb404e
	movl	12608(%rsp), %eax
	cmpl	$7, %eax
	jge	LBB1_472
## %bb.466:                             ## %copy.bb412
	leal	2(%rax), %ecx
	cmpl	$8, %ecx
	ja	LBB1_472
## %bb.467:                             ## %copy.bb412
	leaq	LJTI1_52(%rip), %rdx
	movslq	(%rdx,%rcx,4), %rcx
	addq	%rdx, %rcx
	jmpq	*%rcx
LBB1_478:                               ## %casenul_unf.bb415
	movl	%eax, 4824(%rsp)
	jmp	LBB1_473
LBB1_472:                               ## %fallback.bb413
	leaq	4816(%rsp), %rdi
	leaq	12600(%rsp), %rsi
	callq	__ZN14altered_carbon2js9JsVariantaSERKS1_
LBB1_473:                               ## %copy.bb412e
	leaq	l_.wstr.53(%rip), %rsi
	leaq	12544(%rsp), %rdi
	callq	__ZN14altered_carbon2js9JsVariantaSEPKw
	cmpl	$6, 4768(%rsp)
	jg	LBB1_481
## %bb.474:                             ## %copy.bb412e
	movl	12552(%rsp), %eax
	cmpl	$7, %eax
	jge	LBB1_481
## %bb.475:                             ## %copy.bb420
	leal	2(%rax), %ecx
	cmpl	$8, %ecx
	ja	LBB1_481
## %bb.476:                             ## %copy.bb420
	leaq	LJTI1_53(%rip), %rdx
	movslq	(%rdx,%rcx,4), %rcx
	addq	%rdx, %rcx
	jmpq	*%rcx
LBB1_487:                               ## %casenul_unf.bb423
	movl	%eax, 4768(%rsp)
	jmp	LBB1_482
LBB1_481:                               ## %fallback.bb421
	leaq	4760(%rsp), %rdi
	leaq	12544(%rsp), %rsi
	callq	__ZN14altered_carbon2js9JsVariantaSERKS1_
LBB1_482:                               ## %copy.bb420e
	leaq	l_.wstr.54(%rip), %rsi
	leaq	12488(%rsp), %rdi
	callq	__ZN14altered_carbon2js9JsVariantaSEPKw
	cmpl	$6, 4712(%rsp)
	jg	LBB1_490
## %bb.483:                             ## %copy.bb420e
	movl	12496(%rsp), %eax
	cmpl	$7, %eax
	jge	LBB1_490
## %bb.484:                             ## %copy.bb428
	leal	2(%rax), %ecx
	cmpl	$8, %ecx
	ja	LBB1_490
## %bb.485:                             ## %copy.bb428
	leaq	LJTI1_54(%rip), %rdx
	movslq	(%rdx,%rcx,4), %rcx
	addq	%rdx, %rcx
	jmpq	*%rcx
LBB1_496:                               ## %casenul_unf.bb431
	movl	%eax, 4712(%rsp)
	jmp	LBB1_491
LBB1_490:                               ## %fallback.bb429
	leaq	4704(%rsp), %rdi
	leaq	12488(%rsp), %rsi
	callq	__ZN14altered_carbon2js9JsVariantaSERKS1_
LBB1_491:                               ## %copy.bb428e
	leaq	l_.wstr.55(%rip), %rsi
	leaq	12432(%rsp), %rdi
	callq	__ZN14altered_carbon2js9JsVariantaSEPKw
	cmpl	$6, 4656(%rsp)
	jg	LBB1_499
## %bb.492:                             ## %copy.bb428e
	movl	12440(%rsp), %eax
	cmpl	$7, %eax
	jge	LBB1_499
## %bb.493:                             ## %copy.bb436
	leal	2(%rax), %ecx
	cmpl	$8, %ecx
	ja	LBB1_499
## %bb.494:                             ## %copy.bb436
	leaq	LJTI1_55(%rip), %rdx
	movslq	(%rdx,%rcx,4), %rcx
	addq	%rdx, %rcx
	jmpq	*%rcx
LBB1_505:                               ## %casenul_unf.bb439
	movl	%eax, 4656(%rsp)
	jmp	LBB1_500
LBB1_499:                               ## %fallback.bb437
	leaq	4648(%rsp), %rdi
	leaq	12432(%rsp), %rsi
	callq	__ZN14altered_carbon2js9JsVariantaSERKS1_
LBB1_500:                               ## %copy.bb436e
	leaq	l_.wstr.56(%rip), %rsi
	leaq	12376(%rsp), %rdi
	callq	__ZN14altered_carbon2js9JsVariantaSEPKw
	cmpl	$6, 4600(%rsp)
	jg	LBB1_508
## %bb.501:                             ## %copy.bb436e
	movl	12384(%rsp), %eax
	cmpl	$7, %eax
	jge	LBB1_508
## %bb.502:                             ## %copy.bb444
	leal	2(%rax), %ecx
	cmpl	$8, %ecx
	ja	LBB1_508
## %bb.503:                             ## %copy.bb444
	leaq	LJTI1_56(%rip), %rdx
	movslq	(%rdx,%rcx,4), %rcx
	addq	%rdx, %rcx
	jmpq	*%rcx
LBB1_514:                               ## %casenul_unf.bb447
	movl	%eax, 4600(%rsp)
	jmp	LBB1_509
LBB1_508:                               ## %fallback.bb445
	leaq	4592(%rsp), %rdi
	leaq	12376(%rsp), %rsi
	callq	__ZN14altered_carbon2js9JsVariantaSERKS1_
LBB1_509:                               ## %copy.bb444e
	leaq	l_.wstr.57(%rip), %rsi
	leaq	12320(%rsp), %rdi
	callq	__ZN14altered_carbon2js9JsVariantaSEPKw
	cmpl	$6, 4544(%rsp)
	jg	LBB1_517
## %bb.510:                             ## %copy.bb444e
	movl	12328(%rsp), %eax
	cmpl	$7, %eax
	jge	LBB1_517
## %bb.511:                             ## %copy.bb452
	leal	2(%rax), %ecx
	cmpl	$8, %ecx
	ja	LBB1_517
## %bb.512:                             ## %copy.bb452
	leaq	LJTI1_57(%rip), %rdx
	movslq	(%rdx,%rcx,4), %rcx
	addq	%rdx, %rcx
	jmpq	*%rcx
LBB1_523:                               ## %casenul_unf.bb455
	movl	%eax, 4544(%rsp)
	jmp	LBB1_518
LBB1_517:                               ## %fallback.bb453
	leaq	4536(%rsp), %rdi
	leaq	12320(%rsp), %rsi
	callq	__ZN14altered_carbon2js9JsVariantaSERKS1_
LBB1_518:                               ## %copy.bb452e
	leaq	l_.wstr.58(%rip), %rsi
	leaq	12264(%rsp), %rdi
	callq	__ZN14altered_carbon2js9JsVariantaSEPKw
	cmpl	$6, 4488(%rsp)
	jg	LBB1_526
## %bb.519:                             ## %copy.bb452e
	movl	12272(%rsp), %eax
	cmpl	$7, %eax
	jge	LBB1_526
## %bb.520:                             ## %copy.bb460
	leal	2(%rax), %ecx
	cmpl	$8, %ecx
	ja	LBB1_526
## %bb.521:                             ## %copy.bb460
	leaq	LJTI1_58(%rip), %rdx
	movslq	(%rdx,%rcx,4), %rcx
	addq	%rdx, %rcx
	jmpq	*%rcx
LBB1_532:                               ## %casenul_unf.bb463
	movl	%eax, 4488(%rsp)
	jmp	LBB1_527
LBB1_526:                               ## %fallback.bb461
	leaq	4480(%rsp), %rdi
	leaq	12264(%rsp), %rsi
	callq	__ZN14altered_carbon2js9JsVariantaSERKS1_
LBB1_527:                               ## %copy.bb460e
	leaq	l_.wstr.59(%rip), %rsi
	leaq	12208(%rsp), %rdi
	callq	__ZN14altered_carbon2js9JsVariantaSEPKw
	cmpl	$6, 4432(%rsp)
	jg	LBB1_535
## %bb.528:                             ## %copy.bb460e
	movl	12216(%rsp), %eax
	cmpl	$7, %eax
	jge	LBB1_535
## %bb.529:                             ## %copy.bb468
	leal	2(%rax), %ecx
	cmpl	$8, %ecx
	ja	LBB1_535
## %bb.530:                             ## %copy.bb468
	leaq	LJTI1_59(%rip), %rdx
	movslq	(%rdx,%rcx,4), %rcx
	addq	%rdx, %rcx
	jmpq	*%rcx
LBB1_541:                               ## %casenul_unf.bb471
	movl	%eax, 4432(%rsp)
	jmp	LBB1_536
LBB1_535:                               ## %fallback.bb469
	leaq	4424(%rsp), %rdi
	leaq	12208(%rsp), %rsi
	callq	__ZN14altered_carbon2js9JsVariantaSERKS1_
LBB1_536:                               ## %copy.bb468e
	leaq	l_.wstr.60(%rip), %rsi
	leaq	12152(%rsp), %rdi
	callq	__ZN14altered_carbon2js9JsVariantaSEPKw
	cmpl	$6, 4376(%rsp)
	jg	LBB1_544
## %bb.537:                             ## %copy.bb468e
	movl	12160(%rsp), %eax
	cmpl	$7, %eax
	jge	LBB1_544
## %bb.538:                             ## %copy.bb476
	leal	2(%rax), %ecx
	cmpl	$8, %ecx
	ja	LBB1_544
## %bb.539:                             ## %copy.bb476
	leaq	LJTI1_60(%rip), %rdx
	movslq	(%rdx,%rcx,4), %rcx
	addq	%rdx, %rcx
	jmpq	*%rcx
LBB1_550:                               ## %casenul_unf.bb479
	movl	%eax, 4376(%rsp)
	jmp	LBB1_545
LBB1_544:                               ## %fallback.bb477
	leaq	4368(%rsp), %rdi
	leaq	12152(%rsp), %rsi
	callq	__ZN14altered_carbon2js9JsVariantaSERKS1_
LBB1_545:                               ## %copy.bb476e
	leaq	l_.wstr.61(%rip), %rsi
	leaq	12096(%rsp), %rdi
	callq	__ZN14altered_carbon2js9JsVariantaSEPKw
	cmpl	$6, 4320(%rsp)
	jg	LBB1_553
## %bb.546:                             ## %copy.bb476e
	movl	12104(%rsp), %eax
	cmpl	$7, %eax
	jge	LBB1_553
## %bb.547:                             ## %copy.bb484
	leal	2(%rax), %ecx
	cmpl	$8, %ecx
	ja	LBB1_553
## %bb.548:                             ## %copy.bb484
	leaq	LJTI1_61(%rip), %rdx
	movslq	(%rdx,%rcx,4), %rcx
	addq	%rdx, %rcx
	jmpq	*%rcx
LBB1_559:                               ## %casenul_unf.bb487
	movl	%eax, 4320(%rsp)
	jmp	LBB1_554
LBB1_553:                               ## %fallback.bb485
	leaq	4312(%rsp), %rdi
	leaq	12096(%rsp), %rsi
	callq	__ZN14altered_carbon2js9JsVariantaSERKS1_
LBB1_554:                               ## %copy.bb484e
	leaq	l_.wstr.62(%rip), %rsi
	leaq	12040(%rsp), %rdi
	callq	__ZN14altered_carbon2js9JsVariantaSEPKw
	cmpl	$6, 4264(%rsp)
	jg	LBB1_562
## %bb.555:                             ## %copy.bb484e
	movl	12048(%rsp), %eax
	cmpl	$7, %eax
	jge	LBB1_562
## %bb.556:                             ## %copy.bb492
	leal	2(%rax), %ecx
	cmpl	$8, %ecx
	ja	LBB1_562
## %bb.557:                             ## %copy.bb492
	leaq	LJTI1_62(%rip), %rdx
	movslq	(%rdx,%rcx,4), %rcx
	addq	%rdx, %rcx
	jmpq	*%rcx
LBB1_568:                               ## %casenul_unf.bb495
	movl	%eax, 4264(%rsp)
	jmp	LBB1_563
LBB1_562:                               ## %fallback.bb493
	leaq	4256(%rsp), %rdi
	leaq	12040(%rsp), %rsi
	callq	__ZN14altered_carbon2js9JsVariantaSERKS1_
LBB1_563:                               ## %copy.bb492e
	leaq	l_.wstr.63(%rip), %rsi
	leaq	11984(%rsp), %rdi
	callq	__ZN14altered_carbon2js9JsVariantaSEPKw
	cmpl	$6, 4208(%rsp)
	jg	LBB1_571
## %bb.564:                             ## %copy.bb492e
	movl	11992(%rsp), %eax
	cmpl	$7, %eax
	jge	LBB1_571
## %bb.565:                             ## %copy.bb500
	leal	2(%rax), %ecx
	cmpl	$8, %ecx
	ja	LBB1_571
## %bb.566:                             ## %copy.bb500
	leaq	LJTI1_63(%rip), %rdx
	movslq	(%rdx,%rcx,4), %rcx
	addq	%rdx, %rcx
	jmpq	*%rcx
LBB1_577:                               ## %casenul_unf.bb503
	movl	%eax, 4208(%rsp)
	jmp	LBB1_572
LBB1_571:                               ## %fallback.bb501
	leaq	4200(%rsp), %rdi
	leaq	11984(%rsp), %rsi
	callq	__ZN14altered_carbon2js9JsVariantaSERKS1_
LBB1_572:                               ## %copy.bb500e
	leaq	l_.wstr.64(%rip), %rsi
	leaq	11928(%rsp), %rdi
	callq	__ZN14altered_carbon2js9JsVariantaSEPKw
	cmpl	$6, 4152(%rsp)
	jg	LBB1_580
## %bb.573:                             ## %copy.bb500e
	movl	11936(%rsp), %eax
	cmpl	$7, %eax
	jge	LBB1_580
## %bb.574:                             ## %copy.bb508
	leal	2(%rax), %ecx
	cmpl	$8, %ecx
	ja	LBB1_580
## %bb.575:                             ## %copy.bb508
	leaq	LJTI1_64(%rip), %rdx
	movslq	(%rdx,%rcx,4), %rcx
	addq	%rdx, %rcx
	jmpq	*%rcx
LBB1_586:                               ## %casenul_unf.bb511
	movl	%eax, 4152(%rsp)
	jmp	LBB1_581
LBB1_580:                               ## %fallback.bb509
	leaq	4144(%rsp), %rdi
	leaq	11928(%rsp), %rsi
	callq	__ZN14altered_carbon2js9JsVariantaSERKS1_
LBB1_581:                               ## %copy.bb508e
	leaq	l_.wstr.65(%rip), %rsi
	leaq	11872(%rsp), %rdi
	callq	__ZN14altered_carbon2js9JsVariantaSEPKw
	cmpl	$6, 4096(%rsp)
	jg	LBB1_589
## %bb.582:                             ## %copy.bb508e
	movl	11880(%rsp), %eax
	cmpl	$7, %eax
	jge	LBB1_589
## %bb.583:                             ## %copy.bb516
	leal	2(%rax), %ecx
	cmpl	$8, %ecx
	ja	LBB1_589
## %bb.584:                             ## %copy.bb516
	leaq	LJTI1_65(%rip), %rdx
	movslq	(%rdx,%rcx,4), %rcx
	addq	%rdx, %rcx
	jmpq	*%rcx
LBB1_595:                               ## %casenul_unf.bb519
	movl	%eax, 4096(%rsp)
	jmp	LBB1_590
LBB1_589:                               ## %fallback.bb517
	leaq	4088(%rsp), %rdi
	leaq	11872(%rsp), %rsi
	callq	__ZN14altered_carbon2js9JsVariantaSERKS1_
LBB1_590:                               ## %copy.bb516e
	leaq	l_.wstr.66(%rip), %rsi
	leaq	11816(%rsp), %rdi
	callq	__ZN14altered_carbon2js9JsVariantaSEPKw
	cmpl	$6, 4040(%rsp)
	jg	LBB1_598
## %bb.591:                             ## %copy.bb516e
	movl	11824(%rsp), %eax
	cmpl	$7, %eax
	jge	LBB1_598
## %bb.592:                             ## %copy.bb524
	leal	2(%rax), %ecx
	cmpl	$8, %ecx
	ja	LBB1_598
## %bb.593:                             ## %copy.bb524
	leaq	LJTI1_66(%rip), %rdx
	movslq	(%rdx,%rcx,4), %rcx
	addq	%rdx, %rcx
	jmpq	*%rcx
LBB1_604:                               ## %casenul_unf.bb527
	movl	%eax, 4040(%rsp)
	jmp	LBB1_599
LBB1_598:                               ## %fallback.bb525
	leaq	4032(%rsp), %rdi
	leaq	11816(%rsp), %rsi
	callq	__ZN14altered_carbon2js9JsVariantaSERKS1_
LBB1_599:                               ## %copy.bb524e
	leaq	l_.wstr.67(%rip), %rsi
	leaq	11760(%rsp), %rdi
	callq	__ZN14altered_carbon2js9JsVariantaSEPKw
	cmpl	$6, 3984(%rsp)
	jg	LBB1_607
## %bb.600:                             ## %copy.bb524e
	movl	11768(%rsp), %eax
	cmpl	$7, %eax
	jge	LBB1_607
## %bb.601:                             ## %copy.bb532
	leal	2(%rax), %ecx
	cmpl	$8, %ecx
	ja	LBB1_607
## %bb.602:                             ## %copy.bb532
	leaq	LJTI1_67(%rip), %rdx
	movslq	(%rdx,%rcx,4), %rcx
	addq	%rdx, %rcx
	jmpq	*%rcx
LBB1_613:                               ## %casenul_unf.bb535
	movl	%eax, 3984(%rsp)
	jmp	LBB1_608
LBB1_607:                               ## %fallback.bb533
	leaq	3976(%rsp), %rdi
	leaq	11760(%rsp), %rsi
	callq	__ZN14altered_carbon2js9JsVariantaSERKS1_
LBB1_608:                               ## %copy.bb532e
	leaq	l_.wstr.68(%rip), %rsi
	leaq	11704(%rsp), %rdi
	callq	__ZN14altered_carbon2js9JsVariantaSEPKw
	cmpl	$6, 3928(%rsp)
	jg	LBB1_616
## %bb.609:                             ## %copy.bb532e
	movl	11712(%rsp), %eax
	cmpl	$7, %eax
	jge	LBB1_616
## %bb.610:                             ## %copy.bb540
	leal	2(%rax), %ecx
	cmpl	$8, %ecx
	ja	LBB1_616
## %bb.611:                             ## %copy.bb540
	leaq	LJTI1_68(%rip), %rdx
	movslq	(%rdx,%rcx,4), %rcx
	addq	%rdx, %rcx
	jmpq	*%rcx
LBB1_622:                               ## %casenul_unf.bb543
	movl	%eax, 3928(%rsp)
	jmp	LBB1_617
LBB1_616:                               ## %fallback.bb541
	leaq	3920(%rsp), %rdi
	leaq	11704(%rsp), %rsi
	callq	__ZN14altered_carbon2js9JsVariantaSERKS1_
LBB1_617:                               ## %copy.bb540e
	leaq	l_.wstr.69(%rip), %rsi
	leaq	11648(%rsp), %rdi
	callq	__ZN14altered_carbon2js9JsVariantaSEPKw
	cmpl	$6, 3872(%rsp)
	jg	LBB1_625
## %bb.618:                             ## %copy.bb540e
	movl	11656(%rsp), %eax
	cmpl	$7, %eax
	jge	LBB1_625
## %bb.619:                             ## %copy.bb548
	leal	2(%rax), %ecx
	cmpl	$8, %ecx
	ja	LBB1_625
## %bb.620:                             ## %copy.bb548
	leaq	LJTI1_69(%rip), %rdx
	movslq	(%rdx,%rcx,4), %rcx
	addq	%rdx, %rcx
	jmpq	*%rcx
LBB1_631:                               ## %casenul_unf.bb551
	movl	%eax, 3872(%rsp)
	jmp	LBB1_626
LBB1_625:                               ## %fallback.bb549
	leaq	3864(%rsp), %rdi
	leaq	11648(%rsp), %rsi
	callq	__ZN14altered_carbon2js9JsVariantaSERKS1_
LBB1_626:                               ## %copy.bb548e
	leaq	l_.wstr.70(%rip), %rsi
	leaq	11592(%rsp), %rdi
	callq	__ZN14altered_carbon2js9JsVariantaSEPKw
	cmpl	$6, 3816(%rsp)
	jg	LBB1_634
## %bb.627:                             ## %copy.bb548e
	movl	11600(%rsp), %eax
	cmpl	$7, %eax
	jge	LBB1_634
## %bb.628:                             ## %copy.bb556
	leal	2(%rax), %ecx
	cmpl	$8, %ecx
	ja	LBB1_634
## %bb.629:                             ## %copy.bb556
	leaq	LJTI1_70(%rip), %rdx
	movslq	(%rdx,%rcx,4), %rcx
	addq	%rdx, %rcx
	jmpq	*%rcx
LBB1_640:                               ## %casenul_unf.bb559
	movl	%eax, 3816(%rsp)
	jmp	LBB1_635
LBB1_634:                               ## %fallback.bb557
	leaq	3808(%rsp), %rdi
	leaq	11592(%rsp), %rsi
	callq	__ZN14altered_carbon2js9JsVariantaSERKS1_
LBB1_635:                               ## %copy.bb556e
	leaq	l_.wstr.71(%rip), %rsi
	leaq	11536(%rsp), %rdi
	callq	__ZN14altered_carbon2js9JsVariantaSEPKw
	cmpl	$6, 3760(%rsp)
	jg	LBB1_643
## %bb.636:                             ## %copy.bb556e
	movl	11544(%rsp), %eax
	cmpl	$7, %eax
	jge	LBB1_643
## %bb.637:                             ## %copy.bb564
	leal	2(%rax), %ecx
	cmpl	$8, %ecx
	ja	LBB1_643
## %bb.638:                             ## %copy.bb564
	leaq	LJTI1_71(%rip), %rdx
	movslq	(%rdx,%rcx,4), %rcx
	addq	%rdx, %rcx
	jmpq	*%rcx
LBB1_649:                               ## %casenul_unf.bb567
	movl	%eax, 3760(%rsp)
	jmp	LBB1_644
LBB1_643:                               ## %fallback.bb565
	leaq	3752(%rsp), %rdi
	leaq	11536(%rsp), %rsi
	callq	__ZN14altered_carbon2js9JsVariantaSERKS1_
LBB1_644:                               ## %copy.bb564e
	leaq	l_.wstr.72(%rip), %rsi
	leaq	11480(%rsp), %rdi
	callq	__ZN14altered_carbon2js9JsVariantaSEPKw
	cmpl	$6, 3704(%rsp)
	jg	LBB1_652
## %bb.645:                             ## %copy.bb564e
	movl	11488(%rsp), %eax
	cmpl	$7, %eax
	jge	LBB1_652
## %bb.646:                             ## %copy.bb572
	leal	2(%rax), %ecx
	cmpl	$8, %ecx
	ja	LBB1_652
## %bb.647:                             ## %copy.bb572
	leaq	LJTI1_72(%rip), %rdx
	movslq	(%rdx,%rcx,4), %rcx
	addq	%rdx, %rcx
	jmpq	*%rcx
LBB1_658:                               ## %casenul_unf.bb575
	movl	%eax, 3704(%rsp)
	jmp	LBB1_653
LBB1_652:                               ## %fallback.bb573
	leaq	3696(%rsp), %rdi
	leaq	11480(%rsp), %rsi
	callq	__ZN14altered_carbon2js9JsVariantaSERKS1_
LBB1_653:                               ## %copy.bb572e
	leaq	l_.wstr.73(%rip), %rsi
	leaq	11424(%rsp), %rdi
	callq	__ZN14altered_carbon2js9JsVariantaSEPKw
	cmpl	$6, 3648(%rsp)
	jg	LBB1_661
## %bb.654:                             ## %copy.bb572e
	movl	11432(%rsp), %eax
	cmpl	$7, %eax
	jge	LBB1_661
## %bb.655:                             ## %copy.bb580
	leal	2(%rax), %ecx
	cmpl	$8, %ecx
	ja	LBB1_661
## %bb.656:                             ## %copy.bb580
	leaq	LJTI1_73(%rip), %rdx
	movslq	(%rdx,%rcx,4), %rcx
	addq	%rdx, %rcx
	jmpq	*%rcx
LBB1_667:                               ## %casenul_unf.bb583
	movl	%eax, 3648(%rsp)
	jmp	LBB1_662
LBB1_661:                               ## %fallback.bb581
	leaq	3640(%rsp), %rdi
	leaq	11424(%rsp), %rsi
	callq	__ZN14altered_carbon2js9JsVariantaSERKS1_
LBB1_662:                               ## %copy.bb580e
	leaq	l_.wstr.74(%rip), %rsi
	leaq	11368(%rsp), %rdi
	callq	__ZN14altered_carbon2js9JsVariantaSEPKw
	cmpl	$6, 3592(%rsp)
	jg	LBB1_670
## %bb.663:                             ## %copy.bb580e
	movl	11376(%rsp), %eax
	cmpl	$7, %eax
	jge	LBB1_670
## %bb.664:                             ## %copy.bb588
	leal	2(%rax), %ecx
	cmpl	$8, %ecx
	ja	LBB1_670
## %bb.665:                             ## %copy.bb588
	leaq	LJTI1_74(%rip), %rdx
	movslq	(%rdx,%rcx,4), %rcx
	addq	%rdx, %rcx
	jmpq	*%rcx
LBB1_676:                               ## %casenul_unf.bb591
	movl	%eax, 3592(%rsp)
	jmp	LBB1_671
LBB1_670:                               ## %fallback.bb589
	leaq	3584(%rsp), %rdi
	leaq	11368(%rsp), %rsi
	callq	__ZN14altered_carbon2js9JsVariantaSERKS1_
LBB1_671:                               ## %copy.bb588e
	leaq	l_.wstr.75(%rip), %rsi
	leaq	11312(%rsp), %rdi
	callq	__ZN14altered_carbon2js9JsVariantaSEPKw
	cmpl	$6, 3536(%rsp)
	jg	LBB1_679
## %bb.672:                             ## %copy.bb588e
	movl	11320(%rsp), %eax
	cmpl	$7, %eax
	jge	LBB1_679
## %bb.673:                             ## %copy.bb596
	leal	2(%rax), %ecx
	cmpl	$8, %ecx
	ja	LBB1_679
## %bb.674:                             ## %copy.bb596
	leaq	LJTI1_75(%rip), %rdx
	movslq	(%rdx,%rcx,4), %rcx
	addq	%rdx, %rcx
	jmpq	*%rcx
LBB1_685:                               ## %casenul_unf.bb599
	movl	%eax, 3536(%rsp)
	jmp	LBB1_680
LBB1_679:                               ## %fallback.bb597
	leaq	3528(%rsp), %rdi
	leaq	11312(%rsp), %rsi
	callq	__ZN14altered_carbon2js9JsVariantaSERKS1_
LBB1_680:                               ## %copy.bb596e
	leaq	l_.wstr.76(%rip), %rsi
	leaq	11256(%rsp), %rdi
	callq	__ZN14altered_carbon2js9JsVariantaSEPKw
	cmpl	$6, 3480(%rsp)
	jg	LBB1_688
## %bb.681:                             ## %copy.bb596e
	movl	11264(%rsp), %eax
	cmpl	$7, %eax
	jge	LBB1_688
## %bb.682:                             ## %copy.bb604
	leal	2(%rax), %ecx
	cmpl	$8, %ecx
	ja	LBB1_688
## %bb.683:                             ## %copy.bb604
	leaq	LJTI1_76(%rip), %rdx
	movslq	(%rdx,%rcx,4), %rcx
	addq	%rdx, %rcx
	jmpq	*%rcx
LBB1_694:                               ## %casenul_unf.bb607
	movl	%eax, 3480(%rsp)
	jmp	LBB1_689
LBB1_688:                               ## %fallback.bb605
	leaq	3472(%rsp), %rdi
	leaq	11256(%rsp), %rsi
	callq	__ZN14altered_carbon2js9JsVariantaSERKS1_
LBB1_689:                               ## %copy.bb604e
	leaq	l_.wstr.77(%rip), %rsi
	leaq	11200(%rsp), %rdi
	callq	__ZN14altered_carbon2js9JsVariantaSEPKw
	cmpl	$6, 3424(%rsp)
	jg	LBB1_697
## %bb.690:                             ## %copy.bb604e
	movl	11208(%rsp), %eax
	cmpl	$7, %eax
	jge	LBB1_697
## %bb.691:                             ## %copy.bb612
	leal	2(%rax), %ecx
	cmpl	$8, %ecx
	ja	LBB1_697
## %bb.692:                             ## %copy.bb612
	leaq	LJTI1_77(%rip), %rdx
	movslq	(%rdx,%rcx,4), %rcx
	addq	%rdx, %rcx
	jmpq	*%rcx
LBB1_703:                               ## %casenul_unf.bb615
	movl	%eax, 3424(%rsp)
	jmp	LBB1_698
LBB1_697:                               ## %fallback.bb613
	leaq	3416(%rsp), %rdi
	leaq	11200(%rsp), %rsi
	callq	__ZN14altered_carbon2js9JsVariantaSERKS1_
LBB1_698:                               ## %copy.bb612e
	leaq	l_.wstr.78(%rip), %rsi
	leaq	11144(%rsp), %rdi
	callq	__ZN14altered_carbon2js9JsVariantaSEPKw
	cmpl	$6, 3368(%rsp)
	jg	LBB1_706
## %bb.699:                             ## %copy.bb612e
	movl	11152(%rsp), %eax
	cmpl	$7, %eax
	jge	LBB1_706
## %bb.700:                             ## %copy.bb620
	leal	2(%rax), %ecx
	cmpl	$8, %ecx
	ja	LBB1_706
## %bb.701:                             ## %copy.bb620
	leaq	LJTI1_78(%rip), %rdx
	movslq	(%rdx,%rcx,4), %rcx
	addq	%rdx, %rcx
	jmpq	*%rcx
LBB1_712:                               ## %casenul_unf.bb623
	movl	%eax, 3368(%rsp)
	jmp	LBB1_707
LBB1_706:                               ## %fallback.bb621
	leaq	3360(%rsp), %rdi
	leaq	11144(%rsp), %rsi
	callq	__ZN14altered_carbon2js9JsVariantaSERKS1_
LBB1_707:                               ## %copy.bb620e
	leaq	l_.wstr.79(%rip), %rsi
	leaq	11088(%rsp), %rdi
	callq	__ZN14altered_carbon2js9JsVariantaSEPKw
	cmpl	$6, 3312(%rsp)
	jg	LBB1_715
## %bb.708:                             ## %copy.bb620e
	movl	11096(%rsp), %eax
	cmpl	$7, %eax
	jge	LBB1_715
## %bb.709:                             ## %copy.bb628
	leal	2(%rax), %ecx
	cmpl	$8, %ecx
	ja	LBB1_715
## %bb.710:                             ## %copy.bb628
	leaq	LJTI1_79(%rip), %rdx
	movslq	(%rdx,%rcx,4), %rcx
	addq	%rdx, %rcx
	jmpq	*%rcx
LBB1_721:                               ## %casenul_unf.bb631
	movl	%eax, 3312(%rsp)
	jmp	LBB1_716
LBB1_715:                               ## %fallback.bb629
	leaq	3304(%rsp), %rdi
	leaq	11088(%rsp), %rsi
	callq	__ZN14altered_carbon2js9JsVariantaSERKS1_
LBB1_716:                               ## %copy.bb628e
	leaq	l_.wstr.80(%rip), %rsi
	leaq	11032(%rsp), %rdi
	callq	__ZN14altered_carbon2js9JsVariantaSEPKw
	cmpl	$6, 3256(%rsp)
	jg	LBB1_724
## %bb.717:                             ## %copy.bb628e
	movl	11040(%rsp), %eax
	cmpl	$7, %eax
	jge	LBB1_724
## %bb.718:                             ## %copy.bb636
	leal	2(%rax), %ecx
	cmpl	$8, %ecx
	ja	LBB1_724
## %bb.719:                             ## %copy.bb636
	leaq	LJTI1_80(%rip), %rdx
	movslq	(%rdx,%rcx,4), %rcx
	addq	%rdx, %rcx
	jmpq	*%rcx
LBB1_730:                               ## %casenul_unf.bb639
	movl	%eax, 3256(%rsp)
	jmp	LBB1_725
LBB1_724:                               ## %fallback.bb637
	leaq	3248(%rsp), %rdi
	leaq	11032(%rsp), %rsi
	callq	__ZN14altered_carbon2js9JsVariantaSERKS1_
LBB1_725:                               ## %copy.bb636e
	leaq	l_.wstr.81(%rip), %rsi
	leaq	10976(%rsp), %rdi
	callq	__ZN14altered_carbon2js9JsVariantaSEPKw
	cmpl	$6, 3200(%rsp)
	jg	LBB1_733
## %bb.726:                             ## %copy.bb636e
	movl	10984(%rsp), %eax
	cmpl	$7, %eax
	jge	LBB1_733
## %bb.727:                             ## %copy.bb644
	leal	2(%rax), %ecx
	cmpl	$8, %ecx
	ja	LBB1_733
## %bb.728:                             ## %copy.bb644
	leaq	LJTI1_81(%rip), %rdx
	movslq	(%rdx,%rcx,4), %rcx
	addq	%rdx, %rcx
	jmpq	*%rcx
LBB1_739:                               ## %casenul_unf.bb647
	movl	%eax, 3200(%rsp)
	jmp	LBB1_734
LBB1_733:                               ## %fallback.bb645
	leaq	3192(%rsp), %rdi
	leaq	10976(%rsp), %rsi
	callq	__ZN14altered_carbon2js9JsVariantaSERKS1_
LBB1_734:                               ## %copy.bb644e
	leaq	l_.wstr.82(%rip), %rsi
	leaq	10920(%rsp), %rdi
	callq	__ZN14altered_carbon2js9JsVariantaSEPKw
	cmpl	$6, 3144(%rsp)
	jg	LBB1_742
## %bb.735:                             ## %copy.bb644e
	movl	10928(%rsp), %eax
	cmpl	$7, %eax
	jge	LBB1_742
## %bb.736:                             ## %copy.bb652
	leal	2(%rax), %ecx
	cmpl	$8, %ecx
	ja	LBB1_742
## %bb.737:                             ## %copy.bb652
	leaq	LJTI1_82(%rip), %rdx
	movslq	(%rdx,%rcx,4), %rcx
	addq	%rdx, %rcx
	jmpq	*%rcx
LBB1_748:                               ## %casenul_unf.bb655
	movl	%eax, 3144(%rsp)
	jmp	LBB1_743
LBB1_742:                               ## %fallback.bb653
	leaq	3136(%rsp), %rdi
	leaq	10920(%rsp), %rsi
	callq	__ZN14altered_carbon2js9JsVariantaSERKS1_
LBB1_743:                               ## %copy.bb652e
	leaq	l_.wstr.83(%rip), %rsi
	leaq	10864(%rsp), %rdi
	callq	__ZN14altered_carbon2js9JsVariantaSEPKw
	cmpl	$6, 3088(%rsp)
	jg	LBB1_751
## %bb.744:                             ## %copy.bb652e
	movl	10872(%rsp), %eax
	cmpl	$7, %eax
	jge	LBB1_751
## %bb.745:                             ## %copy.bb660
	leal	2(%rax), %ecx
	cmpl	$8, %ecx
	ja	LBB1_751
## %bb.746:                             ## %copy.bb660
	leaq	LJTI1_83(%rip), %rdx
	movslq	(%rdx,%rcx,4), %rcx
	addq	%rdx, %rcx
	jmpq	*%rcx
LBB1_757:                               ## %casenul_unf.bb663
	movl	%eax, 3088(%rsp)
	jmp	LBB1_752
LBB1_751:                               ## %fallback.bb661
	leaq	3080(%rsp), %rdi
	leaq	10864(%rsp), %rsi
	callq	__ZN14altered_carbon2js9JsVariantaSERKS1_
LBB1_752:                               ## %copy.bb660e
	leaq	l_.wstr.84(%rip), %rsi
	leaq	10808(%rsp), %rdi
	callq	__ZN14altered_carbon2js9JsVariantaSEPKw
	cmpl	$6, 3032(%rsp)
	jg	LBB1_760
## %bb.753:                             ## %copy.bb660e
	movl	10816(%rsp), %eax
	cmpl	$7, %eax
	jge	LBB1_760
## %bb.754:                             ## %copy.bb668
	leal	2(%rax), %ecx
	cmpl	$8, %ecx
	ja	LBB1_760
## %bb.755:                             ## %copy.bb668
	leaq	LJTI1_84(%rip), %rdx
	movslq	(%rdx,%rcx,4), %rcx
	addq	%rdx, %rcx
	jmpq	*%rcx
LBB1_766:                               ## %casenul_unf.bb671
	movl	%eax, 3032(%rsp)
	jmp	LBB1_761
LBB1_760:                               ## %fallback.bb669
	leaq	3024(%rsp), %rdi
	leaq	10808(%rsp), %rsi
	callq	__ZN14altered_carbon2js9JsVariantaSERKS1_
LBB1_761:                               ## %copy.bb668e
	leaq	l_.wstr.85(%rip), %rsi
	leaq	10752(%rsp), %rdi
	callq	__ZN14altered_carbon2js9JsVariantaSEPKw
	cmpl	$6, 2976(%rsp)
	jg	LBB1_769
## %bb.762:                             ## %copy.bb668e
	movl	10760(%rsp), %eax
	cmpl	$7, %eax
	jge	LBB1_769
## %bb.763:                             ## %copy.bb676
	leal	2(%rax), %ecx
	cmpl	$8, %ecx
	ja	LBB1_769
## %bb.764:                             ## %copy.bb676
	leaq	LJTI1_85(%rip), %rdx
	movslq	(%rdx,%rcx,4), %rcx
	addq	%rdx, %rcx
	jmpq	*%rcx
LBB1_775:                               ## %casenul_unf.bb679
	movl	%eax, 2976(%rsp)
	jmp	LBB1_770
LBB1_769:                               ## %fallback.bb677
	leaq	2968(%rsp), %rdi
	leaq	10752(%rsp), %rsi
	callq	__ZN14altered_carbon2js9JsVariantaSERKS1_
LBB1_770:                               ## %copy.bb676e
	leaq	l_.wstr.86(%rip), %rsi
	leaq	10696(%rsp), %rdi
	callq	__ZN14altered_carbon2js9JsVariantaSEPKw
	cmpl	$6, 2920(%rsp)
	jg	LBB1_778
## %bb.771:                             ## %copy.bb676e
	movl	10704(%rsp), %eax
	cmpl	$7, %eax
	jge	LBB1_778
## %bb.772:                             ## %copy.bb684
	leal	2(%rax), %ecx
	cmpl	$8, %ecx
	ja	LBB1_778
## %bb.773:                             ## %copy.bb684
	leaq	LJTI1_86(%rip), %rdx
	movslq	(%rdx,%rcx,4), %rcx
	addq	%rdx, %rcx
	jmpq	*%rcx
LBB1_784:                               ## %casenul_unf.bb687
	movl	%eax, 2920(%rsp)
	jmp	LBB1_779
LBB1_778:                               ## %fallback.bb685
	leaq	2912(%rsp), %rdi
	leaq	10696(%rsp), %rsi
	callq	__ZN14altered_carbon2js9JsVariantaSERKS1_
LBB1_779:                               ## %copy.bb684e
	leaq	l_.wstr.87(%rip), %rsi
	leaq	10640(%rsp), %rdi
	callq	__ZN14altered_carbon2js9JsVariantaSEPKw
	cmpl	$6, 2864(%rsp)
	jg	LBB1_787
## %bb.780:                             ## %copy.bb684e
	movl	10648(%rsp), %eax
	cmpl	$7, %eax
	jge	LBB1_787
## %bb.781:                             ## %copy.bb692
	leal	2(%rax), %ecx
	cmpl	$8, %ecx
	ja	LBB1_787
## %bb.782:                             ## %copy.bb692
	leaq	LJTI1_87(%rip), %rdx
	movslq	(%rdx,%rcx,4), %rcx
	addq	%rdx, %rcx
	jmpq	*%rcx
LBB1_793:                               ## %casenul_unf.bb695
	movl	%eax, 2864(%rsp)
	jmp	LBB1_788
LBB1_787:                               ## %fallback.bb693
	leaq	2856(%rsp), %rdi
	leaq	10640(%rsp), %rsi
	callq	__ZN14altered_carbon2js9JsVariantaSERKS1_
LBB1_788:                               ## %copy.bb692e
	leaq	l_.wstr.88(%rip), %rsi
	leaq	10584(%rsp), %rdi
	callq	__ZN14altered_carbon2js9JsVariantaSEPKw
	cmpl	$6, 2808(%rsp)
	jg	LBB1_796
## %bb.789:                             ## %copy.bb692e
	movl	10592(%rsp), %eax
	cmpl	$7, %eax
	jge	LBB1_796
## %bb.790:                             ## %copy.bb700
	leal	2(%rax), %ecx
	cmpl	$8, %ecx
	ja	LBB1_796
## %bb.791:                             ## %copy.bb700
	leaq	LJTI1_88(%rip), %rdx
	movslq	(%rdx,%rcx,4), %rcx
	addq	%rdx, %rcx
	jmpq	*%rcx
LBB1_802:                               ## %casenul_unf.bb703
	movl	%eax, 2808(%rsp)
	jmp	LBB1_797
LBB1_796:                               ## %fallback.bb701
	leaq	2800(%rsp), %rdi
	leaq	10584(%rsp), %rsi
	callq	__ZN14altered_carbon2js9JsVariantaSERKS1_
LBB1_797:                               ## %copy.bb700e
	leaq	l_.wstr.89(%rip), %rsi
	leaq	10528(%rsp), %rdi
	callq	__ZN14altered_carbon2js9JsVariantaSEPKw
	cmpl	$6, 2752(%rsp)
	jg	LBB1_805
## %bb.798:                             ## %copy.bb700e
	movl	10536(%rsp), %eax
	cmpl	$7, %eax
	jge	LBB1_805
## %bb.799:                             ## %copy.bb708
	leal	2(%rax), %ecx
	cmpl	$8, %ecx
	ja	LBB1_805
## %bb.800:                             ## %copy.bb708
	leaq	LJTI1_89(%rip), %rdx
	movslq	(%rdx,%rcx,4), %rcx
	addq	%rdx, %rcx
	jmpq	*%rcx
LBB1_811:                               ## %casenul_unf.bb711
	movl	%eax, 2752(%rsp)
	jmp	LBB1_806
LBB1_805:                               ## %fallback.bb709
	leaq	2744(%rsp), %rdi
	leaq	10528(%rsp), %rsi
	callq	__ZN14altered_carbon2js9JsVariantaSERKS1_
LBB1_806:                               ## %copy.bb708e
	leaq	l_.wstr.90(%rip), %rsi
	leaq	10472(%rsp), %rdi
	callq	__ZN14altered_carbon2js9JsVariantaSEPKw
	cmpl	$6, 2696(%rsp)
	jg	LBB1_814
## %bb.807:                             ## %copy.bb708e
	movl	10480(%rsp), %eax
	cmpl	$7, %eax
	jge	LBB1_814
## %bb.808:                             ## %copy.bb716
	leal	2(%rax), %ecx
	cmpl	$8, %ecx
	ja	LBB1_814
## %bb.809:                             ## %copy.bb716
	leaq	LJTI1_90(%rip), %rdx
	movslq	(%rdx,%rcx,4), %rcx
	addq	%rdx, %rcx
	jmpq	*%rcx
LBB1_820:                               ## %casenul_unf.bb719
	movl	%eax, 2696(%rsp)
	jmp	LBB1_815
LBB1_814:                               ## %fallback.bb717
	leaq	2688(%rsp), %rdi
	leaq	10472(%rsp), %rsi
	callq	__ZN14altered_carbon2js9JsVariantaSERKS1_
LBB1_815:                               ## %copy.bb716e
	leaq	l_.wstr.91(%rip), %rsi
	leaq	10416(%rsp), %rdi
	callq	__ZN14altered_carbon2js9JsVariantaSEPKw
	cmpl	$6, 2640(%rsp)
	jg	LBB1_823
## %bb.816:                             ## %copy.bb716e
	movl	10424(%rsp), %eax
	cmpl	$7, %eax
	jge	LBB1_823
## %bb.817:                             ## %copy.bb724
	leal	2(%rax), %ecx
	cmpl	$8, %ecx
	ja	LBB1_823
## %bb.818:                             ## %copy.bb724
	leaq	LJTI1_91(%rip), %rdx
	movslq	(%rdx,%rcx,4), %rcx
	addq	%rdx, %rcx
	jmpq	*%rcx
LBB1_829:                               ## %casenul_unf.bb727
	movl	%eax, 2640(%rsp)
	jmp	LBB1_824
LBB1_823:                               ## %fallback.bb725
	leaq	2632(%rsp), %rdi
	leaq	10416(%rsp), %rsi
	callq	__ZN14altered_carbon2js9JsVariantaSERKS1_
LBB1_824:                               ## %copy.bb724e
	leaq	l_.wstr.92(%rip), %rsi
	leaq	10360(%rsp), %rdi
	callq	__ZN14altered_carbon2js9JsVariantaSEPKw
	cmpl	$6, 2584(%rsp)
	jg	LBB1_832
## %bb.825:                             ## %copy.bb724e
	movl	10368(%rsp), %eax
	cmpl	$7, %eax
	jge	LBB1_832
## %bb.826:                             ## %copy.bb732
	leal	2(%rax), %ecx
	cmpl	$8, %ecx
	ja	LBB1_832
## %bb.827:                             ## %copy.bb732
	leaq	LJTI1_92(%rip), %rdx
	movslq	(%rdx,%rcx,4), %rcx
	addq	%rdx, %rcx
	jmpq	*%rcx
LBB1_838:                               ## %casenul_unf.bb735
	movl	%eax, 2584(%rsp)
	jmp	LBB1_833
LBB1_832:                               ## %fallback.bb733
	leaq	2576(%rsp), %rdi
	leaq	10360(%rsp), %rsi
	callq	__ZN14altered_carbon2js9JsVariantaSERKS1_
LBB1_833:                               ## %copy.bb732e
	leaq	l_.wstr.93(%rip), %rsi
	leaq	10304(%rsp), %rdi
	callq	__ZN14altered_carbon2js9JsVariantaSEPKw
	cmpl	$6, 2528(%rsp)
	jg	LBB1_841
## %bb.834:                             ## %copy.bb732e
	movl	10312(%rsp), %eax
	cmpl	$7, %eax
	jge	LBB1_841
## %bb.835:                             ## %copy.bb740
	leal	2(%rax), %ecx
	cmpl	$8, %ecx
	ja	LBB1_841
## %bb.836:                             ## %copy.bb740
	leaq	LJTI1_93(%rip), %rdx
	movslq	(%rdx,%rcx,4), %rcx
	addq	%rdx, %rcx
	jmpq	*%rcx
LBB1_847:                               ## %casenul_unf.bb743
	movl	%eax, 2528(%rsp)
	jmp	LBB1_842
LBB1_841:                               ## %fallback.bb741
	leaq	2520(%rsp), %rdi
	leaq	10304(%rsp), %rsi
	callq	__ZN14altered_carbon2js9JsVariantaSERKS1_
LBB1_842:                               ## %copy.bb740e
	leaq	l_.wstr.94(%rip), %rsi
	leaq	10248(%rsp), %rdi
	callq	__ZN14altered_carbon2js9JsVariantaSEPKw
	cmpl	$6, 2472(%rsp)
	jg	LBB1_850
## %bb.843:                             ## %copy.bb740e
	movl	10256(%rsp), %eax
	cmpl	$7, %eax
	jge	LBB1_850
## %bb.844:                             ## %copy.bb748
	leal	2(%rax), %ecx
	cmpl	$8, %ecx
	ja	LBB1_850
## %bb.845:                             ## %copy.bb748
	leaq	LJTI1_94(%rip), %rdx
	movslq	(%rdx,%rcx,4), %rcx
	addq	%rdx, %rcx
	jmpq	*%rcx
LBB1_856:                               ## %casenul_unf.bb751
	movl	%eax, 2472(%rsp)
	jmp	LBB1_851
LBB1_850:                               ## %fallback.bb749
	leaq	2464(%rsp), %rdi
	leaq	10248(%rsp), %rsi
	callq	__ZN14altered_carbon2js9JsVariantaSERKS1_
LBB1_851:                               ## %copy.bb748e
	leaq	l_.wstr.95(%rip), %rsi
	leaq	10192(%rsp), %rdi
	callq	__ZN14altered_carbon2js9JsVariantaSEPKw
	cmpl	$6, 2416(%rsp)
	jg	LBB1_859
## %bb.852:                             ## %copy.bb748e
	movl	10200(%rsp), %eax
	cmpl	$7, %eax
	jge	LBB1_859
## %bb.853:                             ## %copy.bb756
	leal	2(%rax), %ecx
	cmpl	$8, %ecx
	ja	LBB1_859
## %bb.854:                             ## %copy.bb756
	leaq	LJTI1_95(%rip), %rdx
	movslq	(%rdx,%rcx,4), %rcx
	addq	%rdx, %rcx
	jmpq	*%rcx
LBB1_865:                               ## %casenul_unf.bb759
	movl	%eax, 2416(%rsp)
	jmp	LBB1_860
LBB1_859:                               ## %fallback.bb757
	leaq	2408(%rsp), %rdi
	leaq	10192(%rsp), %rsi
	callq	__ZN14altered_carbon2js9JsVariantaSERKS1_
LBB1_860:                               ## %copy.bb756e
	leaq	l_.wstr.96(%rip), %rsi
	leaq	10136(%rsp), %rdi
	callq	__ZN14altered_carbon2js9JsVariantaSEPKw
	cmpl	$6, 2360(%rsp)
	jg	LBB1_868
## %bb.861:                             ## %copy.bb756e
	movl	10144(%rsp), %eax
	cmpl	$7, %eax
	jge	LBB1_868
## %bb.862:                             ## %copy.bb764
	leal	2(%rax), %ecx
	cmpl	$8, %ecx
	ja	LBB1_868
## %bb.863:                             ## %copy.bb764
	leaq	LJTI1_96(%rip), %rdx
	movslq	(%rdx,%rcx,4), %rcx
	addq	%rdx, %rcx
	jmpq	*%rcx
LBB1_874:                               ## %casenul_unf.bb767
	movl	%eax, 2360(%rsp)
	jmp	LBB1_869
LBB1_868:                               ## %fallback.bb765
	leaq	2352(%rsp), %rdi
	leaq	10136(%rsp), %rsi
	callq	__ZN14altered_carbon2js9JsVariantaSERKS1_
LBB1_869:                               ## %copy.bb764e
	leaq	l_.wstr.97(%rip), %rsi
	leaq	10080(%rsp), %rdi
	callq	__ZN14altered_carbon2js9JsVariantaSEPKw
	cmpl	$6, 2304(%rsp)
	jg	LBB1_877
## %bb.870:                             ## %copy.bb764e
	movl	10088(%rsp), %eax
	cmpl	$7, %eax
	jge	LBB1_877
## %bb.871:                             ## %copy.bb772
	leal	2(%rax), %ecx
	cmpl	$8, %ecx
	ja	LBB1_877
## %bb.872:                             ## %copy.bb772
	leaq	LJTI1_97(%rip), %rdx
	movslq	(%rdx,%rcx,4), %rcx
	addq	%rdx, %rcx
	jmpq	*%rcx
LBB1_883:                               ## %casenul_unf.bb775
	movl	%eax, 2304(%rsp)
	jmp	LBB1_878
LBB1_877:                               ## %fallback.bb773
	leaq	2296(%rsp), %rdi
	leaq	10080(%rsp), %rsi
	callq	__ZN14altered_carbon2js9JsVariantaSERKS1_
LBB1_878:                               ## %copy.bb772e
	leaq	l_.wstr.98(%rip), %rsi
	leaq	10024(%rsp), %rdi
	callq	__ZN14altered_carbon2js9JsVariantaSEPKw
	cmpl	$6, 2248(%rsp)
	jg	LBB1_886
## %bb.879:                             ## %copy.bb772e
	movl	10032(%rsp), %eax
	cmpl	$7, %eax
	jge	LBB1_886
## %bb.880:                             ## %copy.bb780
	leal	2(%rax), %ecx
	cmpl	$8, %ecx
	ja	LBB1_886
## %bb.881:                             ## %copy.bb780
	leaq	LJTI1_98(%rip), %rdx
	movslq	(%rdx,%rcx,4), %rcx
	addq	%rdx, %rcx
	jmpq	*%rcx
LBB1_892:                               ## %casenul_unf.bb783
	movl	%eax, 2248(%rsp)
	jmp	LBB1_887
LBB1_886:                               ## %fallback.bb781
	leaq	2240(%rsp), %rdi
	leaq	10024(%rsp), %rsi
	callq	__ZN14altered_carbon2js9JsVariantaSERKS1_
LBB1_887:                               ## %copy.bb780e
	leaq	l_.wstr.99(%rip), %rsi
	leaq	9968(%rsp), %rdi
	callq	__ZN14altered_carbon2js9JsVariantaSEPKw
	cmpl	$6, 2192(%rsp)
	jg	LBB1_895
## %bb.888:                             ## %copy.bb780e
	movl	9976(%rsp), %eax
	cmpl	$7, %eax
	jge	LBB1_895
## %bb.889:                             ## %copy.bb788
	leal	2(%rax), %ecx
	cmpl	$8, %ecx
	ja	LBB1_895
## %bb.890:                             ## %copy.bb788
	leaq	LJTI1_99(%rip), %rdx
	movslq	(%rdx,%rcx,4), %rcx
	addq	%rdx, %rcx
	jmpq	*%rcx
LBB1_901:                               ## %casenul_unf.bb791
	movl	%eax, 2192(%rsp)
	jmp	LBB1_896
LBB1_895:                               ## %fallback.bb789
	leaq	2184(%rsp), %rdi
	leaq	9968(%rsp), %rsi
	callq	__ZN14altered_carbon2js9JsVariantaSERKS1_
LBB1_896:                               ## %copy.bb788e
	leaq	l_.wstr.100(%rip), %rsi
	leaq	9912(%rsp), %rdi
	callq	__ZN14altered_carbon2js9JsVariantaSEPKw
	cmpl	$6, 2136(%rsp)
	jg	LBB1_904
## %bb.897:                             ## %copy.bb788e
	movl	9920(%rsp), %eax
	cmpl	$7, %eax
	jge	LBB1_904
## %bb.898:                             ## %copy.bb796
	leal	2(%rax), %ecx
	cmpl	$8, %ecx
	ja	LBB1_904
## %bb.899:                             ## %copy.bb796
	leaq	LJTI1_100(%rip), %rdx
	movslq	(%rdx,%rcx,4), %rcx
	addq	%rdx, %rcx
	jmpq	*%rcx
LBB1_910:                               ## %casenul_unf.bb799
	movl	%eax, 2136(%rsp)
	jmp	LBB1_905
LBB1_904:                               ## %fallback.bb797
	leaq	2128(%rsp), %rdi
	leaq	9912(%rsp), %rsi
	callq	__ZN14altered_carbon2js9JsVariantaSERKS1_
LBB1_905:                               ## %copy.bb796e
	leaq	l_.wstr.101(%rip), %rsi
	leaq	9856(%rsp), %rdi
	callq	__ZN14altered_carbon2js9JsVariantaSEPKw
	cmpl	$6, 2080(%rsp)
	jg	LBB1_913
## %bb.906:                             ## %copy.bb796e
	movl	9864(%rsp), %eax
	cmpl	$7, %eax
	jge	LBB1_913
## %bb.907:                             ## %copy.bb804
	leal	2(%rax), %ecx
	cmpl	$8, %ecx
	ja	LBB1_913
## %bb.908:                             ## %copy.bb804
	leaq	LJTI1_101(%rip), %rdx
	movslq	(%rdx,%rcx,4), %rcx
	addq	%rdx, %rcx
	jmpq	*%rcx
LBB1_919:                               ## %casenul_unf.bb807
	movl	%eax, 2080(%rsp)
	jmp	LBB1_914
LBB1_913:                               ## %fallback.bb805
	leaq	2072(%rsp), %rdi
	leaq	9856(%rsp), %rsi
	callq	__ZN14altered_carbon2js9JsVariantaSERKS1_
LBB1_914:                               ## %copy.bb804e
	leaq	l_.wstr.102(%rip), %rsi
	leaq	9800(%rsp), %rdi
	callq	__ZN14altered_carbon2js9JsVariantaSEPKw
	cmpl	$6, 2024(%rsp)
	jg	LBB1_922
## %bb.915:                             ## %copy.bb804e
	movl	9808(%rsp), %eax
	cmpl	$7, %eax
	jge	LBB1_922
## %bb.916:                             ## %copy.bb812
	leal	2(%rax), %ecx
	cmpl	$8, %ecx
	ja	LBB1_922
## %bb.917:                             ## %copy.bb812
	leaq	LJTI1_102(%rip), %rdx
	movslq	(%rdx,%rcx,4), %rcx
	addq	%rdx, %rcx
	jmpq	*%rcx
LBB1_928:                               ## %casenul_unf.bb815
	movl	%eax, 2024(%rsp)
	jmp	LBB1_923
LBB1_922:                               ## %fallback.bb813
	leaq	2016(%rsp), %rdi
	leaq	9800(%rsp), %rsi
	callq	__ZN14altered_carbon2js9JsVariantaSERKS1_
LBB1_923:                               ## %copy.bb812e
	leaq	l_.wstr.103(%rip), %rsi
	leaq	9744(%rsp), %rdi
	callq	__ZN14altered_carbon2js9JsVariantaSEPKw
	cmpl	$6, 1968(%rsp)
	jg	LBB1_931
## %bb.924:                             ## %copy.bb812e
	movl	9752(%rsp), %eax
	cmpl	$7, %eax
	jge	LBB1_931
## %bb.925:                             ## %copy.bb820
	leal	2(%rax), %ecx
	cmpl	$8, %ecx
	ja	LBB1_931
## %bb.926:                             ## %copy.bb820
	leaq	LJTI1_103(%rip), %rdx
	movslq	(%rdx,%rcx,4), %rcx
	addq	%rdx, %rcx
	jmpq	*%rcx
LBB1_937:                               ## %casenul_unf.bb823
	movl	%eax, 1968(%rsp)
	jmp	LBB1_932
LBB1_931:                               ## %fallback.bb821
	leaq	1960(%rsp), %rdi
	leaq	9744(%rsp), %rsi
	callq	__ZN14altered_carbon2js9JsVariantaSERKS1_
LBB1_932:                               ## %copy.bb820e
	leaq	l_.wstr.104(%rip), %rsi
	leaq	9688(%rsp), %rdi
	callq	__ZN14altered_carbon2js9JsVariantaSEPKw
	cmpl	$6, 1912(%rsp)
	jg	LBB1_940
## %bb.933:                             ## %copy.bb820e
	movl	9696(%rsp), %eax
	cmpl	$7, %eax
	jge	LBB1_940
## %bb.934:                             ## %copy.bb828
	leal	2(%rax), %ecx
	cmpl	$8, %ecx
	ja	LBB1_940
## %bb.935:                             ## %copy.bb828
	leaq	LJTI1_104(%rip), %rdx
	movslq	(%rdx,%rcx,4), %rcx
	addq	%rdx, %rcx
	jmpq	*%rcx
LBB1_946:                               ## %casenul_unf.bb831
	movl	%eax, 1912(%rsp)
	jmp	LBB1_941
LBB1_940:                               ## %fallback.bb829
	leaq	1904(%rsp), %rdi
	leaq	9688(%rsp), %rsi
	callq	__ZN14altered_carbon2js9JsVariantaSERKS1_
LBB1_941:                               ## %copy.bb828e
	leaq	l_.wstr.105(%rip), %rsi
	leaq	9632(%rsp), %rdi
	callq	__ZN14altered_carbon2js9JsVariantaSEPKw
	cmpl	$6, 1856(%rsp)
	jg	LBB1_949
## %bb.942:                             ## %copy.bb828e
	movl	9640(%rsp), %eax
	cmpl	$7, %eax
	jge	LBB1_949
## %bb.943:                             ## %copy.bb836
	leal	2(%rax), %ecx
	cmpl	$8, %ecx
	ja	LBB1_949
## %bb.944:                             ## %copy.bb836
	leaq	LJTI1_105(%rip), %rdx
	movslq	(%rdx,%rcx,4), %rcx
	addq	%rdx, %rcx
	jmpq	*%rcx
LBB1_955:                               ## %casenul_unf.bb839
	movl	%eax, 1856(%rsp)
	jmp	LBB1_950
LBB1_949:                               ## %fallback.bb837
	leaq	1848(%rsp), %rdi
	leaq	9632(%rsp), %rsi
	callq	__ZN14altered_carbon2js9JsVariantaSERKS1_
LBB1_950:                               ## %copy.bb836e
	leaq	l_.wstr.106(%rip), %rsi
	leaq	9576(%rsp), %rdi
	callq	__ZN14altered_carbon2js9JsVariantaSEPKw
	cmpl	$6, 1800(%rsp)
	jg	LBB1_958
## %bb.951:                             ## %copy.bb836e
	movl	9584(%rsp), %eax
	cmpl	$7, %eax
	jge	LBB1_958
## %bb.952:                             ## %copy.bb844
	leal	2(%rax), %ecx
	cmpl	$8, %ecx
	ja	LBB1_958
## %bb.953:                             ## %copy.bb844
	leaq	LJTI1_106(%rip), %rdx
	movslq	(%rdx,%rcx,4), %rcx
	addq	%rdx, %rcx
	jmpq	*%rcx
LBB1_964:                               ## %casenul_unf.bb847
	movl	%eax, 1800(%rsp)
	jmp	LBB1_959
LBB1_958:                               ## %fallback.bb845
	leaq	1792(%rsp), %rdi
	leaq	9576(%rsp), %rsi
	callq	__ZN14altered_carbon2js9JsVariantaSERKS1_
LBB1_959:                               ## %copy.bb844e
	leaq	l_.wstr.107(%rip), %rsi
	leaq	9520(%rsp), %rdi
	callq	__ZN14altered_carbon2js9JsVariantaSEPKw
	cmpl	$6, 1744(%rsp)
	jg	LBB1_967
## %bb.960:                             ## %copy.bb844e
	movl	9528(%rsp), %eax
	cmpl	$7, %eax
	jge	LBB1_967
## %bb.961:                             ## %copy.bb852
	leal	2(%rax), %ecx
	cmpl	$8, %ecx
	ja	LBB1_967
## %bb.962:                             ## %copy.bb852
	leaq	LJTI1_107(%rip), %rdx
	movslq	(%rdx,%rcx,4), %rcx
	addq	%rdx, %rcx
	jmpq	*%rcx
LBB1_973:                               ## %casenul_unf.bb855
	movl	%eax, 1744(%rsp)
	jmp	LBB1_968
LBB1_967:                               ## %fallback.bb853
	leaq	1736(%rsp), %rdi
	leaq	9520(%rsp), %rsi
	callq	__ZN14altered_carbon2js9JsVariantaSERKS1_
LBB1_968:                               ## %copy.bb852e
	leaq	l_.wstr.108(%rip), %rsi
	leaq	9464(%rsp), %rdi
	callq	__ZN14altered_carbon2js9JsVariantaSEPKw
	cmpl	$6, 1688(%rsp)
	jg	LBB1_976
## %bb.969:                             ## %copy.bb852e
	movl	9472(%rsp), %eax
	cmpl	$7, %eax
	jge	LBB1_976
## %bb.970:                             ## %copy.bb860
	leal	2(%rax), %ecx
	cmpl	$8, %ecx
	ja	LBB1_976
## %bb.971:                             ## %copy.bb860
	leaq	LJTI1_108(%rip), %rdx
	movslq	(%rdx,%rcx,4), %rcx
	addq	%rdx, %rcx
	jmpq	*%rcx
LBB1_982:                               ## %casenul_unf.bb863
	movl	%eax, 1688(%rsp)
	jmp	LBB1_977
LBB1_976:                               ## %fallback.bb861
	leaq	1680(%rsp), %rdi
	leaq	9464(%rsp), %rsi
	callq	__ZN14altered_carbon2js9JsVariantaSERKS1_
LBB1_977:                               ## %copy.bb860e
	leaq	l_.wstr.109(%rip), %rsi
	leaq	9408(%rsp), %rdi
	callq	__ZN14altered_carbon2js9JsVariantaSEPKw
	cmpl	$6, 1632(%rsp)
	jg	LBB1_985
## %bb.978:                             ## %copy.bb860e
	movl	9416(%rsp), %eax
	cmpl	$7, %eax
	jge	LBB1_985
## %bb.979:                             ## %copy.bb868
	leal	2(%rax), %ecx
	cmpl	$8, %ecx
	ja	LBB1_985
## %bb.980:                             ## %copy.bb868
	leaq	LJTI1_109(%rip), %rdx
	movslq	(%rdx,%rcx,4), %rcx
	addq	%rdx, %rcx
	jmpq	*%rcx
LBB1_991:                               ## %casenul_unf.bb871
	movl	%eax, 1632(%rsp)
	jmp	LBB1_986
LBB1_985:                               ## %fallback.bb869
	leaq	1624(%rsp), %rdi
	leaq	9408(%rsp), %rsi
	callq	__ZN14altered_carbon2js9JsVariantaSERKS1_
LBB1_986:                               ## %copy.bb868e
	leaq	l_.wstr.110(%rip), %rsi
	leaq	9352(%rsp), %rdi
	callq	__ZN14altered_carbon2js9JsVariantaSEPKw
	cmpl	$6, 1576(%rsp)
	jg	LBB1_994
## %bb.987:                             ## %copy.bb868e
	movl	9360(%rsp), %eax
	cmpl	$7, %eax
	jge	LBB1_994
## %bb.988:                             ## %copy.bb876
	leal	2(%rax), %ecx
	cmpl	$8, %ecx
	ja	LBB1_994
## %bb.989:                             ## %copy.bb876
	leaq	LJTI1_110(%rip), %rdx
	movslq	(%rdx,%rcx,4), %rcx
	addq	%rdx, %rcx
	jmpq	*%rcx
LBB1_1000:                              ## %casenul_unf.bb879
	movl	%eax, 1576(%rsp)
	jmp	LBB1_995
LBB1_994:                               ## %fallback.bb877
	leaq	1568(%rsp), %rdi
	leaq	9352(%rsp), %rsi
	callq	__ZN14altered_carbon2js9JsVariantaSERKS1_
LBB1_995:                               ## %copy.bb876e
	leaq	l_.wstr.111(%rip), %rsi
	leaq	9296(%rsp), %rdi
	callq	__ZN14altered_carbon2js9JsVariantaSEPKw
	cmpl	$6, 1520(%rsp)
	jg	LBB1_1003
## %bb.996:                             ## %copy.bb876e
	movl	9304(%rsp), %eax
	cmpl	$7, %eax
	jge	LBB1_1003
## %bb.997:                             ## %copy.bb884
	leal	2(%rax), %ecx
	cmpl	$8, %ecx
	ja	LBB1_1003
## %bb.998:                             ## %copy.bb884
	leaq	LJTI1_111(%rip), %rdx
	movslq	(%rdx,%rcx,4), %rcx
	addq	%rdx, %rcx
	jmpq	*%rcx
LBB1_1009:                              ## %casenul_unf.bb887
	movl	%eax, 1520(%rsp)
	jmp	LBB1_1004
LBB1_1003:                              ## %fallback.bb885
	leaq	1512(%rsp), %rdi
	leaq	9296(%rsp), %rsi
	callq	__ZN14altered_carbon2js9JsVariantaSERKS1_
LBB1_1004:                              ## %copy.bb884e
	leaq	l_.wstr.112(%rip), %rsi
	leaq	9240(%rsp), %rdi
	callq	__ZN14altered_carbon2js9JsVariantaSEPKw
	cmpl	$6, 1464(%rsp)
	jg	LBB1_1012
## %bb.1005:                            ## %copy.bb884e
	movl	9248(%rsp), %eax
	cmpl	$7, %eax
	jge	LBB1_1012
## %bb.1006:                            ## %copy.bb892
	leal	2(%rax), %ecx
	cmpl	$8, %ecx
	ja	LBB1_1012
## %bb.1007:                            ## %copy.bb892
	leaq	LJTI1_112(%rip), %rdx
	movslq	(%rdx,%rcx,4), %rcx
	addq	%rdx, %rcx
	jmpq	*%rcx
LBB1_1018:                              ## %casenul_unf.bb895
	movl	%eax, 1464(%rsp)
	jmp	LBB1_1013
LBB1_1012:                              ## %fallback.bb893
	leaq	1456(%rsp), %rdi
	leaq	9240(%rsp), %rsi
	callq	__ZN14altered_carbon2js9JsVariantaSERKS1_
LBB1_1013:                              ## %copy.bb892e
	leaq	l_.wstr.113(%rip), %rsi
	leaq	9184(%rsp), %rdi
	callq	__ZN14altered_carbon2js9JsVariantaSEPKw
	cmpl	$6, 1408(%rsp)
	jg	LBB1_1021
## %bb.1014:                            ## %copy.bb892e
	movl	9192(%rsp), %eax
	cmpl	$7, %eax
	jge	LBB1_1021
## %bb.1015:                            ## %copy.bb900
	leal	2(%rax), %ecx
	cmpl	$8, %ecx
	ja	LBB1_1021
## %bb.1016:                            ## %copy.bb900
	leaq	LJTI1_113(%rip), %rdx
	movslq	(%rdx,%rcx,4), %rcx
	addq	%rdx, %rcx
	jmpq	*%rcx
LBB1_1027:                              ## %casenul_unf.bb903
	movl	%eax, 1408(%rsp)
	jmp	LBB1_1022
LBB1_1021:                              ## %fallback.bb901
	leaq	1400(%rsp), %rdi
	leaq	9184(%rsp), %rsi
	callq	__ZN14altered_carbon2js9JsVariantaSERKS1_
LBB1_1022:                              ## %copy.bb900e
	leaq	l_.wstr.114(%rip), %rsi
	leaq	9128(%rsp), %rdi
	callq	__ZN14altered_carbon2js9JsVariantaSEPKw
	cmpl	$6, 1352(%rsp)
	jg	LBB1_1030
## %bb.1023:                            ## %copy.bb900e
	movl	9136(%rsp), %eax
	cmpl	$7, %eax
	jge	LBB1_1030
## %bb.1024:                            ## %copy.bb908
	leal	2(%rax), %ecx
	cmpl	$8, %ecx
	ja	LBB1_1030
## %bb.1025:                            ## %copy.bb908
	leaq	LJTI1_114(%rip), %rdx
	movslq	(%rdx,%rcx,4), %rcx
	addq	%rdx, %rcx
	jmpq	*%rcx
LBB1_1036:                              ## %casenul_unf.bb911
	movl	%eax, 1352(%rsp)
	jmp	LBB1_1031
LBB1_1030:                              ## %fallback.bb909
	leaq	1344(%rsp), %rdi
	leaq	9128(%rsp), %rsi
	callq	__ZN14altered_carbon2js9JsVariantaSERKS1_
LBB1_1031:                              ## %copy.bb908e
	leaq	l_.wstr.115(%rip), %rsi
	leaq	9072(%rsp), %rdi
	callq	__ZN14altered_carbon2js9JsVariantaSEPKw
	cmpl	$6, 1296(%rsp)
	jg	LBB1_1039
## %bb.1032:                            ## %copy.bb908e
	movl	9080(%rsp), %eax
	cmpl	$7, %eax
	jge	LBB1_1039
## %bb.1033:                            ## %copy.bb916
	leal	2(%rax), %ecx
	cmpl	$8, %ecx
	ja	LBB1_1039
## %bb.1034:                            ## %copy.bb916
	leaq	LJTI1_115(%rip), %rdx
	movslq	(%rdx,%rcx,4), %rcx
	addq	%rdx, %rcx
	jmpq	*%rcx
LBB1_1045:                              ## %casenul_unf.bb919
	movl	%eax, 1296(%rsp)
	jmp	LBB1_1040
LBB1_1039:                              ## %fallback.bb917
	leaq	1288(%rsp), %rdi
	leaq	9072(%rsp), %rsi
	callq	__ZN14altered_carbon2js9JsVariantaSERKS1_
LBB1_1040:                              ## %copy.bb916e
	leaq	l_.wstr.116(%rip), %rsi
	leaq	9016(%rsp), %rdi
	callq	__ZN14altered_carbon2js9JsVariantaSEPKw
	cmpl	$6, 1240(%rsp)
	jg	LBB1_1048
## %bb.1041:                            ## %copy.bb916e
	movl	9024(%rsp), %eax
	cmpl	$7, %eax
	jge	LBB1_1048
## %bb.1042:                            ## %copy.bb924
	leal	2(%rax), %ecx
	cmpl	$8, %ecx
	ja	LBB1_1048
## %bb.1043:                            ## %copy.bb924
	leaq	LJTI1_116(%rip), %rdx
	movslq	(%rdx,%rcx,4), %rcx
	addq	%rdx, %rcx
	jmpq	*%rcx
LBB1_1054:                              ## %casenul_unf.bb927
	movl	%eax, 1240(%rsp)
	jmp	LBB1_1049
LBB1_1048:                              ## %fallback.bb925
	leaq	1232(%rsp), %rdi
	leaq	9016(%rsp), %rsi
	callq	__ZN14altered_carbon2js9JsVariantaSERKS1_
LBB1_1049:                              ## %copy.bb924e
	leaq	l_.wstr.117(%rip), %rsi
	leaq	8960(%rsp), %rdi
	callq	__ZN14altered_carbon2js9JsVariantaSEPKw
	cmpl	$6, 1184(%rsp)
	jg	LBB1_1057
## %bb.1050:                            ## %copy.bb924e
	movl	8968(%rsp), %eax
	cmpl	$7, %eax
	jge	LBB1_1057
## %bb.1051:                            ## %copy.bb932
	leal	2(%rax), %ecx
	cmpl	$8, %ecx
	ja	LBB1_1057
## %bb.1052:                            ## %copy.bb932
	leaq	LJTI1_117(%rip), %rdx
	movslq	(%rdx,%rcx,4), %rcx
	addq	%rdx, %rcx
	jmpq	*%rcx
LBB1_1063:                              ## %casenul_unf.bb935
	movl	%eax, 1184(%rsp)
	jmp	LBB1_1058
LBB1_1057:                              ## %fallback.bb933
	leaq	1176(%rsp), %rdi
	leaq	8960(%rsp), %rsi
	callq	__ZN14altered_carbon2js9JsVariantaSERKS1_
LBB1_1058:                              ## %copy.bb932e
	leaq	l_.wstr.118(%rip), %rsi
	leaq	8904(%rsp), %rdi
	callq	__ZN14altered_carbon2js9JsVariantaSEPKw
	cmpl	$6, 1128(%rsp)
	jg	LBB1_1066
## %bb.1059:                            ## %copy.bb932e
	movl	8912(%rsp), %eax
	cmpl	$7, %eax
	jge	LBB1_1066
## %bb.1060:                            ## %copy.bb940
	leal	2(%rax), %ecx
	cmpl	$8, %ecx
	ja	LBB1_1066
## %bb.1061:                            ## %copy.bb940
	leaq	LJTI1_118(%rip), %rdx
	movslq	(%rdx,%rcx,4), %rcx
	addq	%rdx, %rcx
	jmpq	*%rcx
LBB1_1072:                              ## %casenul_unf.bb943
	movl	%eax, 1128(%rsp)
	jmp	LBB1_1067
LBB1_1066:                              ## %fallback.bb941
	leaq	1120(%rsp), %rdi
	leaq	8904(%rsp), %rsi
	callq	__ZN14altered_carbon2js9JsVariantaSERKS1_
LBB1_1067:                              ## %copy.bb940e
	leaq	l_.wstr.119(%rip), %rsi
	leaq	8848(%rsp), %rdi
	callq	__ZN14altered_carbon2js9JsVariantaSEPKw
	cmpl	$6, 1072(%rsp)
	jg	LBB1_1075
## %bb.1068:                            ## %copy.bb940e
	movl	8856(%rsp), %eax
	cmpl	$7, %eax
	jge	LBB1_1075
## %bb.1069:                            ## %copy.bb948
	leal	2(%rax), %ecx
	cmpl	$8, %ecx
	ja	LBB1_1075
## %bb.1070:                            ## %copy.bb948
	leaq	LJTI1_119(%rip), %rdx
	movslq	(%rdx,%rcx,4), %rcx
	addq	%rdx, %rcx
	jmpq	*%rcx
LBB1_1081:                              ## %casenul_unf.bb951
	movl	%eax, 1072(%rsp)
	jmp	LBB1_1076
LBB1_1075:                              ## %fallback.bb949
	leaq	1064(%rsp), %rdi
	leaq	8848(%rsp), %rsi
	callq	__ZN14altered_carbon2js9JsVariantaSERKS1_
LBB1_1076:                              ## %copy.bb948e
	leaq	l_.wstr.120(%rip), %rsi
	leaq	8792(%rsp), %rdi
	callq	__ZN14altered_carbon2js9JsVariantaSEPKw
	cmpl	$6, 1016(%rsp)
	jg	LBB1_1084
## %bb.1077:                            ## %copy.bb948e
	movl	8800(%rsp), %eax
	cmpl	$7, %eax
	jge	LBB1_1084
## %bb.1078:                            ## %copy.bb956
	leal	2(%rax), %ecx
	cmpl	$8, %ecx
	ja	LBB1_1084
## %bb.1079:                            ## %copy.bb956
	leaq	LJTI1_120(%rip), %rdx
	movslq	(%rdx,%rcx,4), %rcx
	addq	%rdx, %rcx
	jmpq	*%rcx
LBB1_1090:                              ## %casenul_unf.bb959
	movl	%eax, 1016(%rsp)
	jmp	LBB1_1085
LBB1_1084:                              ## %fallback.bb957
	leaq	1008(%rsp), %rdi
	leaq	8792(%rsp), %rsi
	callq	__ZN14altered_carbon2js9JsVariantaSERKS1_
LBB1_1085:                              ## %copy.bb956e
	leaq	l_.wstr.121(%rip), %rsi
	leaq	8736(%rsp), %rdi
	callq	__ZN14altered_carbon2js9JsVariantaSEPKw
	cmpl	$6, 960(%rsp)
	jg	LBB1_1093
## %bb.1086:                            ## %copy.bb956e
	movl	8744(%rsp), %eax
	cmpl	$7, %eax
	jge	LBB1_1093
## %bb.1087:                            ## %copy.bb964
	leal	2(%rax), %ecx
	cmpl	$8, %ecx
	ja	LBB1_1093
## %bb.1088:                            ## %copy.bb964
	leaq	LJTI1_121(%rip), %rdx
	movslq	(%rdx,%rcx,4), %rcx
	addq	%rdx, %rcx
	jmpq	*%rcx
LBB1_1099:                              ## %casenul_unf.bb967
	movl	%eax, 960(%rsp)
	jmp	LBB1_1094
LBB1_1093:                              ## %fallback.bb965
	leaq	952(%rsp), %rdi
	leaq	8736(%rsp), %rsi
	callq	__ZN14altered_carbon2js9JsVariantaSERKS1_
LBB1_1094:                              ## %copy.bb964e
	leaq	l_.wstr.122(%rip), %rsi
	leaq	8680(%rsp), %rdi
	callq	__ZN14altered_carbon2js9JsVariantaSEPKw
	cmpl	$6, 904(%rsp)
	jg	LBB1_1102
## %bb.1095:                            ## %copy.bb964e
	movl	8688(%rsp), %eax
	cmpl	$7, %eax
	jge	LBB1_1102
## %bb.1096:                            ## %copy.bb972
	leal	2(%rax), %ecx
	cmpl	$8, %ecx
	ja	LBB1_1102
## %bb.1097:                            ## %copy.bb972
	leaq	LJTI1_122(%rip), %rdx
	movslq	(%rdx,%rcx,4), %rcx
	addq	%rdx, %rcx
	jmpq	*%rcx
LBB1_1108:                              ## %casenul_unf.bb975
	movl	%eax, 904(%rsp)
	jmp	LBB1_1103
LBB1_1102:                              ## %fallback.bb973
	leaq	896(%rsp), %rdi
	leaq	8680(%rsp), %rsi
	callq	__ZN14altered_carbon2js9JsVariantaSERKS1_
LBB1_1103:                              ## %copy.bb972e
	leaq	l_.wstr.123(%rip), %rsi
	leaq	8624(%rsp), %rdi
	callq	__ZN14altered_carbon2js9JsVariantaSEPKw
	cmpl	$6, 848(%rsp)
	jg	LBB1_1111
## %bb.1104:                            ## %copy.bb972e
	movl	8632(%rsp), %eax
	cmpl	$7, %eax
	jge	LBB1_1111
## %bb.1105:                            ## %copy.bb980
	leal	2(%rax), %ecx
	cmpl	$8, %ecx
	ja	LBB1_1111
## %bb.1106:                            ## %copy.bb980
	leaq	LJTI1_123(%rip), %rdx
	movslq	(%rdx,%rcx,4), %rcx
	addq	%rdx, %rcx
	jmpq	*%rcx
LBB1_1117:                              ## %casenul_unf.bb983
	movl	%eax, 848(%rsp)
	jmp	LBB1_1112
LBB1_1111:                              ## %fallback.bb981
	leaq	840(%rsp), %rdi
	leaq	8624(%rsp), %rsi
	callq	__ZN14altered_carbon2js9JsVariantaSERKS1_
LBB1_1112:                              ## %copy.bb980e
	leaq	l_.wstr.124(%rip), %rsi
	leaq	8568(%rsp), %rdi
	callq	__ZN14altered_carbon2js9JsVariantaSEPKw
	cmpl	$6, 792(%rsp)
	jg	LBB1_1120
## %bb.1113:                            ## %copy.bb980e
	movl	8576(%rsp), %eax
	cmpl	$7, %eax
	jge	LBB1_1120
## %bb.1114:                            ## %copy.bb988
	leal	2(%rax), %ecx
	cmpl	$8, %ecx
	ja	LBB1_1120
## %bb.1115:                            ## %copy.bb988
	leaq	LJTI1_124(%rip), %rdx
	movslq	(%rdx,%rcx,4), %rcx
	addq	%rdx, %rcx
	jmpq	*%rcx
LBB1_1126:                              ## %casenul_unf.bb991
	movl	%eax, 792(%rsp)
	jmp	LBB1_1121
LBB1_1120:                              ## %fallback.bb989
	leaq	784(%rsp), %rdi
	leaq	8568(%rsp), %rsi
	callq	__ZN14altered_carbon2js9JsVariantaSERKS1_
LBB1_1121:                              ## %copy.bb988e
	leaq	l_.wstr.125(%rip), %rsi
	leaq	8512(%rsp), %rdi
	callq	__ZN14altered_carbon2js9JsVariantaSEPKw
	cmpl	$6, 736(%rsp)
	jg	LBB1_1129
## %bb.1122:                            ## %copy.bb988e
	movl	8520(%rsp), %eax
	cmpl	$7, %eax
	jge	LBB1_1129
## %bb.1123:                            ## %copy.bb996
	leal	2(%rax), %ecx
	cmpl	$8, %ecx
	ja	LBB1_1129
## %bb.1124:                            ## %copy.bb996
	leaq	LJTI1_125(%rip), %rdx
	movslq	(%rdx,%rcx,4), %rcx
	addq	%rdx, %rcx
	jmpq	*%rcx
LBB1_1135:                              ## %casenul_unf.bb999
	movl	%eax, 736(%rsp)
	jmp	LBB1_1130
LBB1_1129:                              ## %fallback.bb997
	leaq	728(%rsp), %rdi
	leaq	8512(%rsp), %rsi
	callq	__ZN14altered_carbon2js9JsVariantaSERKS1_
LBB1_1130:                              ## %copy.bb996e
	leaq	l_.wstr.126(%rip), %rsi
	leaq	8456(%rsp), %rdi
	callq	__ZN14altered_carbon2js9JsVariantaSEPKw
	cmpl	$6, 680(%rsp)
	jg	LBB1_1138
## %bb.1131:                            ## %copy.bb996e
	movl	8464(%rsp), %eax
	cmpl	$7, %eax
	jge	LBB1_1138
## %bb.1132:                            ## %copy.bb1004
	leal	2(%rax), %ecx
	cmpl	$8, %ecx
	ja	LBB1_1138
## %bb.1133:                            ## %copy.bb1004
	leaq	LJTI1_126(%rip), %rdx
	movslq	(%rdx,%rcx,4), %rcx
	addq	%rdx, %rcx
	jmpq	*%rcx
LBB1_1144:                              ## %casenul_unf.bb1007
	movl	%eax, 680(%rsp)
	jmp	LBB1_1139
LBB1_1138:                              ## %fallback.bb1005
	leaq	672(%rsp), %rdi
	leaq	8456(%rsp), %rsi
	callq	__ZN14altered_carbon2js9JsVariantaSERKS1_
LBB1_1139:                              ## %copy.bb1004e
	leaq	l_.wstr.127(%rip), %rsi
	leaq	8400(%rsp), %rdi
	callq	__ZN14altered_carbon2js9JsVariantaSEPKw
	cmpl	$6, 624(%rsp)
	jg	LBB1_1147
## %bb.1140:                            ## %copy.bb1004e
	movl	8408(%rsp), %eax
	cmpl	$7, %eax
	jge	LBB1_1147
## %bb.1141:                            ## %copy.bb1012
	leal	2(%rax), %ecx
	cmpl	$8, %ecx
	ja	LBB1_1147
## %bb.1142:                            ## %copy.bb1012
	leaq	LJTI1_127(%rip), %rdx
	movslq	(%rdx,%rcx,4), %rcx
	addq	%rdx, %rcx
	jmpq	*%rcx
LBB1_1153:                              ## %casenul_unf.bb1015
	movl	%eax, 624(%rsp)
	jmp	LBB1_1148
LBB1_1147:                              ## %fallback.bb1013
	leaq	616(%rsp), %rdi
	leaq	8400(%rsp), %rsi
	callq	__ZN14altered_carbon2js9JsVariantaSERKS1_
LBB1_1148:                              ## %copy.bb1012e
	leaq	l_.wstr.128(%rip), %rsi
	leaq	8344(%rsp), %rdi
	callq	__ZN14altered_carbon2js9JsVariantaSEPKw
	cmpl	$6, 568(%rsp)
	jg	LBB1_1156
## %bb.1149:                            ## %copy.bb1012e
	movl	8352(%rsp), %eax
	cmpl	$7, %eax
	jge	LBB1_1156
## %bb.1150:                            ## %copy.bb1020
	leal	2(%rax), %ecx
	cmpl	$8, %ecx
	ja	LBB1_1156
## %bb.1151:                            ## %copy.bb1020
	leaq	LJTI1_128(%rip), %rdx
	movslq	(%rdx,%rcx,4), %rcx
	addq	%rdx, %rcx
	jmpq	*%rcx
LBB1_1162:                              ## %casenul_unf.bb1023
	movl	%eax, 568(%rsp)
	jmp	LBB1_1157
LBB1_1156:                              ## %fallback.bb1021
	leaq	560(%rsp), %rdi
	leaq	8344(%rsp), %rsi
	callq	__ZN14altered_carbon2js9JsVariantaSERKS1_
LBB1_1157:                              ## %copy.bb1020e
	leaq	l_.wstr.129(%rip), %rsi
	leaq	8288(%rsp), %rdi
	callq	__ZN14altered_carbon2js9JsVariantaSEPKw
	cmpl	$6, 512(%rsp)
	jg	LBB1_1165
## %bb.1158:                            ## %copy.bb1020e
	movl	8296(%rsp), %eax
	cmpl	$7, %eax
	jge	LBB1_1165
## %bb.1159:                            ## %copy.bb1028
	leal	2(%rax), %ecx
	cmpl	$8, %ecx
	ja	LBB1_1165
## %bb.1160:                            ## %copy.bb1028
	leaq	LJTI1_129(%rip), %rdx
	movslq	(%rdx,%rcx,4), %rcx
	addq	%rdx, %rcx
	jmpq	*%rcx
LBB1_1171:                              ## %casenul_unf.bb1031
	movl	%eax, 512(%rsp)
	jmp	LBB1_1166
LBB1_1165:                              ## %fallback.bb1029
	leaq	504(%rsp), %rdi
	leaq	8288(%rsp), %rsi
	callq	__ZN14altered_carbon2js9JsVariantaSERKS1_
LBB1_1166:                              ## %copy.bb1028e
	leaq	l_.wstr.130(%rip), %rsi
	leaq	8232(%rsp), %rdi
	callq	__ZN14altered_carbon2js9JsVariantaSEPKw
	cmpl	$6, 456(%rsp)
	jg	LBB1_1174
## %bb.1167:                            ## %copy.bb1028e
	movl	8240(%rsp), %eax
	cmpl	$7, %eax
	jge	LBB1_1174
## %bb.1168:                            ## %copy.bb1036
	leal	2(%rax), %ecx
	cmpl	$8, %ecx
	ja	LBB1_1174
## %bb.1169:                            ## %copy.bb1036
	leaq	LJTI1_130(%rip), %rdx
	movslq	(%rdx,%rcx,4), %rcx
	addq	%rdx, %rcx
	jmpq	*%rcx
LBB1_1180:                              ## %casenul_unf.bb1039
	movl	%eax, 456(%rsp)
	jmp	LBB1_1175
LBB1_1174:                              ## %fallback.bb1037
	leaq	448(%rsp), %rdi
	leaq	8232(%rsp), %rsi
	callq	__ZN14altered_carbon2js9JsVariantaSERKS1_
LBB1_1175:                              ## %copy.bb1036e
	leaq	l_.wstr.131(%rip), %rsi
	leaq	8176(%rsp), %rdi
	callq	__ZN14altered_carbon2js9JsVariantaSEPKw
	cmpl	$6, 400(%rsp)
	jg	LBB1_1183
## %bb.1176:                            ## %copy.bb1036e
	movl	8184(%rsp), %eax
	cmpl	$7, %eax
	jge	LBB1_1183
## %bb.1177:                            ## %copy.bb1044
	leal	2(%rax), %ecx
	cmpl	$8, %ecx
	ja	LBB1_1183
## %bb.1178:                            ## %copy.bb1044
	leaq	LJTI1_131(%rip), %rdx
	movslq	(%rdx,%rcx,4), %rcx
	addq	%rdx, %rcx
	jmpq	*%rcx
LBB1_1189:                              ## %casenul_unf.bb1047
	movl	%eax, 400(%rsp)
	jmp	LBB1_1184
LBB1_1183:                              ## %fallback.bb1045
	leaq	392(%rsp), %rdi
	leaq	8176(%rsp), %rsi
	callq	__ZN14altered_carbon2js9JsVariantaSERKS1_
LBB1_1184:                              ## %copy.bb1044e
	leaq	l_.wstr.132(%rip), %rsi
	leaq	8120(%rsp), %rdi
	callq	__ZN14altered_carbon2js9JsVariantaSEPKw
	cmpl	$6, 344(%rsp)
	jg	LBB1_1192
## %bb.1185:                            ## %copy.bb1044e
	movl	8128(%rsp), %eax
	cmpl	$7, %eax
	jge	LBB1_1192
## %bb.1186:                            ## %copy.bb1052
	leal	2(%rax), %ecx
	cmpl	$8, %ecx
	ja	LBB1_1192
## %bb.1187:                            ## %copy.bb1052
	leaq	LJTI1_132(%rip), %rdx
	movslq	(%rdx,%rcx,4), %rcx
	addq	%rdx, %rcx
	jmpq	*%rcx
LBB1_1198:                              ## %casenul_unf.bb1055
	movl	%eax, 344(%rsp)
	jmp	LBB1_1193
LBB1_1192:                              ## %fallback.bb1053
	leaq	336(%rsp), %rdi
	leaq	8120(%rsp), %rsi
	callq	__ZN14altered_carbon2js9JsVariantaSERKS1_
LBB1_1193:                              ## %copy.bb1052e
	leaq	l_.wstr.133(%rip), %rsi
	leaq	8064(%rsp), %rdi
	callq	__ZN14altered_carbon2js9JsVariantaSEPKw
	cmpl	$6, 288(%rsp)
	jg	LBB1_1201
## %bb.1194:                            ## %copy.bb1052e
	movl	8072(%rsp), %eax
	cmpl	$7, %eax
	jge	LBB1_1201
## %bb.1195:                            ## %copy.bb1060
	leal	2(%rax), %ecx
	cmpl	$8, %ecx
	ja	LBB1_1201
## %bb.1196:                            ## %copy.bb1060
	leaq	LJTI1_133(%rip), %rdx
	movslq	(%rdx,%rcx,4), %rcx
	addq	%rdx, %rcx
	jmpq	*%rcx
LBB1_1207:                              ## %casenul_unf.bb1063
	movl	%eax, 288(%rsp)
	jmp	LBB1_1202
LBB1_1201:                              ## %fallback.bb1061
	leaq	280(%rsp), %rdi
	leaq	8064(%rsp), %rsi
	callq	__ZN14altered_carbon2js9JsVariantaSERKS1_
LBB1_1202:                              ## %copy.bb1060e
	leaq	l_.wstr.134(%rip), %rsi
	leaq	8008(%rsp), %rdi
	callq	__ZN14altered_carbon2js9JsVariantaSEPKw
	cmpl	$6, 232(%rsp)
	jg	LBB1_1210
## %bb.1203:                            ## %copy.bb1060e
	movl	8016(%rsp), %eax
	cmpl	$7, %eax
	jge	LBB1_1210
## %bb.1204:                            ## %copy.bb1068
	leal	2(%rax), %ecx
	cmpl	$8, %ecx
	ja	LBB1_1210
## %bb.1205:                            ## %copy.bb1068
	leaq	LJTI1_134(%rip), %rdx
	movslq	(%rdx,%rcx,4), %rcx
	addq	%rdx, %rcx
	jmpq	*%rcx
LBB1_1216:                              ## %casenul_unf.bb1071
	movl	%eax, 232(%rsp)
	jmp	LBB1_1211
LBB1_1210:                              ## %fallback.bb1069
	leaq	224(%rsp), %rdi
	leaq	8008(%rsp), %rsi
	callq	__ZN14altered_carbon2js9JsVariantaSERKS1_
LBB1_1211:                              ## %copy.bb1068e
	leaq	l_.wstr.135(%rip), %rsi
	leaq	7952(%rsp), %rdi
	callq	__ZN14altered_carbon2js9JsVariantaSEPKw
	cmpl	$6, 176(%rsp)
	jg	LBB1_1219
## %bb.1212:                            ## %copy.bb1068e
	movl	7960(%rsp), %eax
	cmpl	$7, %eax
	jge	LBB1_1219
## %bb.1213:                            ## %copy.bb1076
	leal	2(%rax), %ecx
	cmpl	$8, %ecx
	ja	LBB1_1219
## %bb.1214:                            ## %copy.bb1076
	leaq	LJTI1_135(%rip), %rdx
	movslq	(%rdx,%rcx,4), %rcx
	addq	%rdx, %rcx
	jmpq	*%rcx
LBB1_1225:                              ## %casenul_unf.bb1079
	movl	%eax, 176(%rsp)
	jmp	LBB1_1220
LBB1_1219:                              ## %fallback.bb1077
	leaq	168(%rsp), %rdi
	leaq	7952(%rsp), %rsi
	callq	__ZN14altered_carbon2js9JsVariantaSERKS1_
LBB1_1220:                              ## %copy.bb1076e
	leaq	l_.wstr.136(%rip), %rsi
	leaq	7896(%rsp), %rdi
	callq	__ZN14altered_carbon2js9JsVariantaSEPKw
	cmpl	$6, 120(%rsp)
	jg	LBB1_1228
## %bb.1221:                            ## %copy.bb1076e
	movl	7904(%rsp), %eax
	cmpl	$7, %eax
	jge	LBB1_1228
## %bb.1222:                            ## %copy.bb1084
	leal	2(%rax), %ecx
	cmpl	$8, %ecx
	ja	LBB1_1228
## %bb.1223:                            ## %copy.bb1084
	leaq	LJTI1_136(%rip), %rdx
	movslq	(%rdx,%rcx,4), %rcx
	addq	%rdx, %rcx
	jmpq	*%rcx
LBB1_1234:                              ## %casenul_unf.bb1087
	movl	%eax, 120(%rsp)
	jmp	LBB1_1229
LBB1_1228:                              ## %fallback.bb1085
	leaq	112(%rsp), %rdi
	leaq	7896(%rsp), %rsi
	callq	__ZN14altered_carbon2js9JsVariantaSERKS1_
LBB1_1229:                              ## %copy.bb1084e
	leaq	l_.wstr.137(%rip), %rsi
	leaq	7840(%rsp), %rdi
	callq	__ZN14altered_carbon2js9JsVariantaSEPKw
	cmpl	$6, 64(%rsp)
	jg	LBB1_1237
## %bb.1230:                            ## %copy.bb1084e
	movl	7848(%rsp), %eax
	cmpl	$7, %eax
	jge	LBB1_1237
## %bb.1231:                            ## %copy.bb1092
	leal	2(%rax), %ecx
	cmpl	$8, %ecx
	ja	LBB1_1237
## %bb.1232:                            ## %copy.bb1092
	leaq	LJTI1_137(%rip), %rdx
	movslq	(%rdx,%rcx,4), %rcx
	addq	%rdx, %rcx
	jmpq	*%rcx
LBB1_1243:                              ## %casenul_unf.bb1095
	movl	%eax, 64(%rsp)
	jmp	LBB1_1238
LBB1_1237:                              ## %fallback.bb1093
	leaq	56(%rsp), %rdi
	leaq	7840(%rsp), %rsi
	callq	__ZN14altered_carbon2js9JsVariantaSERKS1_
LBB1_1238:                              ## %copy.bb1092e
	leaq	l_.wstr.138(%rip), %rsi
	leaq	7784(%rsp), %rdi
	callq	__ZN14altered_carbon2js9JsVariantaSEPKw
	cmpl	$6, 8(%rsp)
	jg	LBB1_1246
## %bb.1239:                            ## %copy.bb1092e
	movl	7792(%rsp), %eax
	cmpl	$7, %eax
	jge	LBB1_1246
## %bb.1240:                            ## %copy.bb1100
	leal	2(%rax), %ecx
	cmpl	$8, %ecx
	ja	LBB1_1246
## %bb.1241:                            ## %copy.bb1100
	leaq	LJTI1_138(%rip), %rdx
	movslq	(%rdx,%rcx,4), %rcx
	addq	%rdx, %rcx
	jmpq	*%rcx
LBB1_1248:                              ## %casenul_unf.bb1103
	movl	%eax, 8(%rsp)
	jmp	LBB1_1251
LBB1_1246:                              ## %fallback.bb1101
	movq	%rsp, %rdi
	leaq	7784(%rsp), %rsi
	callq	__ZN14altered_carbon2js9JsVariantaSERKS1_
LBB1_1251:                              ## %copy.bb1100e
	leaq	__ZN3_js2TcEPN14altered_carbon2js9JsVariantEN4llvm8ArrayRefIS3_EE(%rip), %rax
	movq	%rax, 15640(%rsp)
	leaq	l_.wstr.140(%rip), %rax
	movq	%rax, 15648(%rsp)
	leaq	__ZN3_js1qEPN14altered_carbon2js9JsVariantEN4llvm8ArrayRefIS3_EE(%rip), %rax
	movq	%rax, 15584(%rsp)
	leaq	l_.wstr.142(%rip), %rax
	movq	%rax, 15592(%rsp)
	leaq	15568(%rsp), %rdi
	callq	__ZN14altered_carbon2js9JsVariantD1Ev
	leaq	15624(%rsp), %rdi
	callq	__ZN14altered_carbon2js9JsVariantD1Ev
	movq	%rsp, %rdi
	callq	__ZN14altered_carbon2js9JsVariantD1Ev
	leaq	7784(%rsp), %rdi
	callq	__ZN14altered_carbon2js9JsVariantD1Ev
	leaq	56(%rsp), %rdi
	callq	__ZN14altered_carbon2js9JsVariantD1Ev
	leaq	7840(%rsp), %rdi
	callq	__ZN14altered_carbon2js9JsVariantD1Ev
	leaq	112(%rsp), %rdi
	callq	__ZN14altered_carbon2js9JsVariantD1Ev
	leaq	7896(%rsp), %rdi
	callq	__ZN14altered_carbon2js9JsVariantD1Ev
	leaq	168(%rsp), %rdi
	callq	__ZN14altered_carbon2js9JsVariantD1Ev
	leaq	7952(%rsp), %rdi
	callq	__ZN14altered_carbon2js9JsVariantD1Ev
	leaq	224(%rsp), %rdi
	callq	__ZN14altered_carbon2js9JsVariantD1Ev
	leaq	8008(%rsp), %rdi
	callq	__ZN14altered_carbon2js9JsVariantD1Ev
	leaq	280(%rsp), %rdi
	callq	__ZN14altered_carbon2js9JsVariantD1Ev
	leaq	8064(%rsp), %rdi
	callq	__ZN14altered_carbon2js9JsVariantD1Ev
	leaq	336(%rsp), %rdi
	callq	__ZN14altered_carbon2js9JsVariantD1Ev
	leaq	8120(%rsp), %rdi
	callq	__ZN14altered_carbon2js9JsVariantD1Ev
	leaq	392(%rsp), %rdi
	callq	__ZN14altered_carbon2js9JsVariantD1Ev
	leaq	8176(%rsp), %rdi
	callq	__ZN14altered_carbon2js9JsVariantD1Ev
	leaq	448(%rsp), %rdi
	callq	__ZN14altered_carbon2js9JsVariantD1Ev
	leaq	8232(%rsp), %rdi
	callq	__ZN14altered_carbon2js9JsVariantD1Ev
	leaq	504(%rsp), %rdi
	callq	__ZN14altered_carbon2js9JsVariantD1Ev
	leaq	8288(%rsp), %rdi
	callq	__ZN14altered_carbon2js9JsVariantD1Ev
	leaq	560(%rsp), %rdi
	callq	__ZN14altered_carbon2js9JsVariantD1Ev
	leaq	8344(%rsp), %rdi
	callq	__ZN14altered_carbon2js9JsVariantD1Ev
	leaq	616(%rsp), %rdi
	callq	__ZN14altered_carbon2js9JsVariantD1Ev
	leaq	8400(%rsp), %rdi
	callq	__ZN14altered_carbon2js9JsVariantD1Ev
	leaq	672(%rsp), %rdi
	callq	__ZN14altered_carbon2js9JsVariantD1Ev
	leaq	8456(%rsp), %rdi
	callq	__ZN14altered_carbon2js9JsVariantD1Ev
	leaq	728(%rsp), %rdi
	callq	__ZN14altered_carbon2js9JsVariantD1Ev
	leaq	8512(%rsp), %rdi
	callq	__ZN14altered_carbon2js9JsVariantD1Ev
	leaq	784(%rsp), %rdi
	callq	__ZN14altered_carbon2js9JsVariantD1Ev
	leaq	8568(%rsp), %rdi
	callq	__ZN14altered_carbon2js9JsVariantD1Ev
	leaq	840(%rsp), %rdi
	callq	__ZN14altered_carbon2js9JsVariantD1Ev
	leaq	8624(%rsp), %rdi
	callq	__ZN14altered_carbon2js9JsVariantD1Ev
	leaq	896(%rsp), %rdi
	callq	__ZN14altered_carbon2js9JsVariantD1Ev
	leaq	8680(%rsp), %rdi
	callq	__ZN14altered_carbon2js9JsVariantD1Ev
	leaq	952(%rsp), %rdi
	callq	__ZN14altered_carbon2js9JsVariantD1Ev
	leaq	8736(%rsp), %rdi
	callq	__ZN14altered_carbon2js9JsVariantD1Ev
	leaq	1008(%rsp), %rdi
	callq	__ZN14altered_carbon2js9JsVariantD1Ev
	leaq	8792(%rsp), %rdi
	callq	__ZN14altered_carbon2js9JsVariantD1Ev
	leaq	1064(%rsp), %rdi
	callq	__ZN14altered_carbon2js9JsVariantD1Ev
	leaq	8848(%rsp), %rdi
	callq	__ZN14altered_carbon2js9JsVariantD1Ev
	leaq	1120(%rsp), %rdi
	callq	__ZN14altered_carbon2js9JsVariantD1Ev
	leaq	8904(%rsp), %rdi
	callq	__ZN14altered_carbon2js9JsVariantD1Ev
	leaq	1176(%rsp), %rdi
	callq	__ZN14altered_carbon2js9JsVariantD1Ev
	leaq	8960(%rsp), %rdi
	callq	__ZN14altered_carbon2js9JsVariantD1Ev
	leaq	1232(%rsp), %rdi
	callq	__ZN14altered_carbon2js9JsVariantD1Ev
	leaq	9016(%rsp), %rdi
	callq	__ZN14altered_carbon2js9JsVariantD1Ev
	leaq	1288(%rsp), %rdi
	callq	__ZN14altered_carbon2js9JsVariantD1Ev
	leaq	9072(%rsp), %rdi
	callq	__ZN14altered_carbon2js9JsVariantD1Ev
	leaq	1344(%rsp), %rdi
	callq	__ZN14altered_carbon2js9JsVariantD1Ev
	leaq	9128(%rsp), %rdi
	callq	__ZN14altered_carbon2js9JsVariantD1Ev
	leaq	1400(%rsp), %rdi
	callq	__ZN14altered_carbon2js9JsVariantD1Ev
	leaq	9184(%rsp), %rdi
	callq	__ZN14altered_carbon2js9JsVariantD1Ev
	leaq	1456(%rsp), %rdi
	callq	__ZN14altered_carbon2js9JsVariantD1Ev
	leaq	9240(%rsp), %rdi
	callq	__ZN14altered_carbon2js9JsVariantD1Ev
	leaq	1512(%rsp), %rdi
	callq	__ZN14altered_carbon2js9JsVariantD1Ev
	leaq	9296(%rsp), %rdi
	callq	__ZN14altered_carbon2js9JsVariantD1Ev
	leaq	1568(%rsp), %rdi
	callq	__ZN14altered_carbon2js9JsVariantD1Ev
	leaq	9352(%rsp), %rdi
	callq	__ZN14altered_carbon2js9JsVariantD1Ev
	leaq	1624(%rsp), %rdi
	callq	__ZN14altered_carbon2js9JsVariantD1Ev
	leaq	9408(%rsp), %rdi
	callq	__ZN14altered_carbon2js9JsVariantD1Ev
	leaq	1680(%rsp), %rdi
	callq	__ZN14altered_carbon2js9JsVariantD1Ev
	leaq	9464(%rsp), %rdi
	callq	__ZN14altered_carbon2js9JsVariantD1Ev
	leaq	1736(%rsp), %rdi
	callq	__ZN14altered_carbon2js9JsVariantD1Ev
	leaq	9520(%rsp), %rdi
	callq	__ZN14altered_carbon2js9JsVariantD1Ev
	leaq	1792(%rsp), %rdi
	callq	__ZN14altered_carbon2js9JsVariantD1Ev
	leaq	9576(%rsp), %rdi
	callq	__ZN14altered_carbon2js9JsVariantD1Ev
	leaq	1848(%rsp), %rdi
	callq	__ZN14altered_carbon2js9JsVariantD1Ev
	leaq	9632(%rsp), %rdi
	callq	__ZN14altered_carbon2js9JsVariantD1Ev
	leaq	1904(%rsp), %rdi
	callq	__ZN14altered_carbon2js9JsVariantD1Ev
	leaq	9688(%rsp), %rdi
	callq	__ZN14altered_carbon2js9JsVariantD1Ev
	leaq	1960(%rsp), %rdi
	callq	__ZN14altered_carbon2js9JsVariantD1Ev
	leaq	9744(%rsp), %rdi
	callq	__ZN14altered_carbon2js9JsVariantD1Ev
	leaq	2016(%rsp), %rdi
	callq	__ZN14altered_carbon2js9JsVariantD1Ev
	leaq	9800(%rsp), %rdi
	callq	__ZN14altered_carbon2js9JsVariantD1Ev
	leaq	2072(%rsp), %rdi
	callq	__ZN14altered_carbon2js9JsVariantD1Ev
	leaq	9856(%rsp), %rdi
	callq	__ZN14altered_carbon2js9JsVariantD1Ev
	leaq	2128(%rsp), %rdi
	callq	__ZN14altered_carbon2js9JsVariantD1Ev
	leaq	9912(%rsp), %rdi
	callq	__ZN14altered_carbon2js9JsVariantD1Ev
	leaq	2184(%rsp), %rdi
	callq	__ZN14altered_carbon2js9JsVariantD1Ev
	leaq	9968(%rsp), %rdi
	callq	__ZN14altered_carbon2js9JsVariantD1Ev
	leaq	2240(%rsp), %rdi
	callq	__ZN14altered_carbon2js9JsVariantD1Ev
	leaq	10024(%rsp), %rdi
	callq	__ZN14altered_carbon2js9JsVariantD1Ev
	leaq	2296(%rsp), %rdi
	callq	__ZN14altered_carbon2js9JsVariantD1Ev
	leaq	10080(%rsp), %rdi
	callq	__ZN14altered_carbon2js9JsVariantD1Ev
	leaq	2352(%rsp), %rdi
	callq	__ZN14altered_carbon2js9JsVariantD1Ev
	leaq	10136(%rsp), %rdi
	callq	__ZN14altered_carbon2js9JsVariantD1Ev
	leaq	2408(%rsp), %rdi
	callq	__ZN14altered_carbon2js9JsVariantD1Ev
	leaq	10192(%rsp), %rdi
	callq	__ZN14altered_carbon2js9JsVariantD1Ev
	leaq	2464(%rsp), %rdi
	callq	__ZN14altered_carbon2js9JsVariantD1Ev
	leaq	10248(%rsp), %rdi
	callq	__ZN14altered_carbon2js9JsVariantD1Ev
	leaq	2520(%rsp), %rdi
	callq	__ZN14altered_carbon2js9JsVariantD1Ev
	leaq	10304(%rsp), %rdi
	callq	__ZN14altered_carbon2js9JsVariantD1Ev
	leaq	2576(%rsp), %rdi
	callq	__ZN14altered_carbon2js9JsVariantD1Ev
	leaq	10360(%rsp), %rdi
	callq	__ZN14altered_carbon2js9JsVariantD1Ev
	leaq	2632(%rsp), %rdi
	callq	__ZN14altered_carbon2js9JsVariantD1Ev
	leaq	10416(%rsp), %rdi
	callq	__ZN14altered_carbon2js9JsVariantD1Ev
	leaq	2688(%rsp), %rdi
	callq	__ZN14altered_carbon2js9JsVariantD1Ev
	leaq	10472(%rsp), %rdi
	callq	__ZN14altered_carbon2js9JsVariantD1Ev
	leaq	2744(%rsp), %rdi
	callq	__ZN14altered_carbon2js9JsVariantD1Ev
	leaq	10528(%rsp), %rdi
	callq	__ZN14altered_carbon2js9JsVariantD1Ev
	leaq	2800(%rsp), %rdi
	callq	__ZN14altered_carbon2js9JsVariantD1Ev
	leaq	10584(%rsp), %rdi
	callq	__ZN14altered_carbon2js9JsVariantD1Ev
	leaq	2856(%rsp), %rdi
	callq	__ZN14altered_carbon2js9JsVariantD1Ev
	leaq	10640(%rsp), %rdi
	callq	__ZN14altered_carbon2js9JsVariantD1Ev
	leaq	2912(%rsp), %rdi
	callq	__ZN14altered_carbon2js9JsVariantD1Ev
	leaq	10696(%rsp), %rdi
	callq	__ZN14altered_carbon2js9JsVariantD1Ev
	leaq	2968(%rsp), %rdi
	callq	__ZN14altered_carbon2js9JsVariantD1Ev
	leaq	10752(%rsp), %rdi
	callq	__ZN14altered_carbon2js9JsVariantD1Ev
	leaq	3024(%rsp), %rdi
	callq	__ZN14altered_carbon2js9JsVariantD1Ev
	leaq	10808(%rsp), %rdi
	callq	__ZN14altered_carbon2js9JsVariantD1Ev
	leaq	3080(%rsp), %rdi
	callq	__ZN14altered_carbon2js9JsVariantD1Ev
	leaq	10864(%rsp), %rdi
	callq	__ZN14altered_carbon2js9JsVariantD1Ev
	leaq	3136(%rsp), %rdi
	callq	__ZN14altered_carbon2js9JsVariantD1Ev
	leaq	10920(%rsp), %rdi
	callq	__ZN14altered_carbon2js9JsVariantD1Ev
	leaq	3192(%rsp), %rdi
	callq	__ZN14altered_carbon2js9JsVariantD1Ev
	leaq	10976(%rsp), %rdi
	callq	__ZN14altered_carbon2js9JsVariantD1Ev
	leaq	3248(%rsp), %rdi
	callq	__ZN14altered_carbon2js9JsVariantD1Ev
	leaq	11032(%rsp), %rdi
	callq	__ZN14altered_carbon2js9JsVariantD1Ev
	leaq	3304(%rsp), %rdi
	callq	__ZN14altered_carbon2js9JsVariantD1Ev
	leaq	11088(%rsp), %rdi
	callq	__ZN14altered_carbon2js9JsVariantD1Ev
	leaq	3360(%rsp), %rdi
	callq	__ZN14altered_carbon2js9JsVariantD1Ev
	leaq	11144(%rsp), %rdi
	callq	__ZN14altered_carbon2js9JsVariantD1Ev
	leaq	3416(%rsp), %rdi
	callq	__ZN14altered_carbon2js9JsVariantD1Ev
	leaq	11200(%rsp), %rdi
	callq	__ZN14altered_carbon2js9JsVariantD1Ev
	leaq	3472(%rsp), %rdi
	callq	__ZN14altered_carbon2js9JsVariantD1Ev
	leaq	11256(%rsp), %rdi
	callq	__ZN14altered_carbon2js9JsVariantD1Ev
	leaq	3528(%rsp), %rdi
	callq	__ZN14altered_carbon2js9JsVariantD1Ev
	leaq	11312(%rsp), %rdi
	callq	__ZN14altered_carbon2js9JsVariantD1Ev
	leaq	3584(%rsp), %rdi
	callq	__ZN14altered_carbon2js9JsVariantD1Ev
	leaq	11368(%rsp), %rdi
	callq	__ZN14altered_carbon2js9JsVariantD1Ev
	leaq	3640(%rsp), %rdi
	callq	__ZN14altered_carbon2js9JsVariantD1Ev
	leaq	11424(%rsp), %rdi
	callq	__ZN14altered_carbon2js9JsVariantD1Ev
	leaq	3696(%rsp), %rdi
	callq	__ZN14altered_carbon2js9JsVariantD1Ev
	leaq	11480(%rsp), %rdi
	callq	__ZN14altered_carbon2js9JsVariantD1Ev
	leaq	3752(%rsp), %rdi
	callq	__ZN14altered_carbon2js9JsVariantD1Ev
	leaq	11536(%rsp), %rdi
	callq	__ZN14altered_carbon2js9JsVariantD1Ev
	leaq	3808(%rsp), %rdi
	callq	__ZN14altered_carbon2js9JsVariantD1Ev
	leaq	11592(%rsp), %rdi
	callq	__ZN14altered_carbon2js9JsVariantD1Ev
	leaq	3864(%rsp), %rdi
	callq	__ZN14altered_carbon2js9JsVariantD1Ev
	leaq	11648(%rsp), %rdi
	callq	__ZN14altered_carbon2js9JsVariantD1Ev
	leaq	3920(%rsp), %rdi
	callq	__ZN14altered_carbon2js9JsVariantD1Ev
	leaq	11704(%rsp), %rdi
	callq	__ZN14altered_carbon2js9JsVariantD1Ev
	leaq	3976(%rsp), %rdi
	callq	__ZN14altered_carbon2js9JsVariantD1Ev
	leaq	11760(%rsp), %rdi
	callq	__ZN14altered_carbon2js9JsVariantD1Ev
	leaq	4032(%rsp), %rdi
	callq	__ZN14altered_carbon2js9JsVariantD1Ev
	leaq	11816(%rsp), %rdi
	callq	__ZN14altered_carbon2js9JsVariantD1Ev
	leaq	4088(%rsp), %rdi
	callq	__ZN14altered_carbon2js9JsVariantD1Ev
	leaq	11872(%rsp), %rdi
	callq	__ZN14altered_carbon2js9JsVariantD1Ev
	leaq	4144(%rsp), %rdi
	callq	__ZN14altered_carbon2js9JsVariantD1Ev
	leaq	11928(%rsp), %rdi
	callq	__ZN14altered_carbon2js9JsVariantD1Ev
	leaq	4200(%rsp), %rdi
	callq	__ZN14altered_carbon2js9JsVariantD1Ev
	leaq	11984(%rsp), %rdi
	callq	__ZN14altered_carbon2js9JsVariantD1Ev
	leaq	4256(%rsp), %rdi
	callq	__ZN14altered_carbon2js9JsVariantD1Ev
	leaq	12040(%rsp), %rdi
	callq	__ZN14altered_carbon2js9JsVariantD1Ev
	leaq	4312(%rsp), %rdi
	callq	__ZN14altered_carbon2js9JsVariantD1Ev
	leaq	12096(%rsp), %rdi
	callq	__ZN14altered_carbon2js9JsVariantD1Ev
	leaq	4368(%rsp), %rdi
	callq	__ZN14altered_carbon2js9JsVariantD1Ev
	leaq	12152(%rsp), %rdi
	callq	__ZN14altered_carbon2js9JsVariantD1Ev
	leaq	4424(%rsp), %rdi
	callq	__ZN14altered_carbon2js9JsVariantD1Ev
	leaq	12208(%rsp), %rdi
	callq	__ZN14altered_carbon2js9JsVariantD1Ev
	leaq	4480(%rsp), %rdi
	callq	__ZN14altered_carbon2js9JsVariantD1Ev
	leaq	12264(%rsp), %rdi
	callq	__ZN14altered_carbon2js9JsVariantD1Ev
	leaq	4536(%rsp), %rdi
	callq	__ZN14altered_carbon2js9JsVariantD1Ev
	leaq	12320(%rsp), %rdi
	callq	__ZN14altered_carbon2js9JsVariantD1Ev
	leaq	4592(%rsp), %rdi
	callq	__ZN14altered_carbon2js9JsVariantD1Ev
	leaq	12376(%rsp), %rdi
	callq	__ZN14altered_carbon2js9JsVariantD1Ev
	leaq	4648(%rsp), %rdi
	callq	__ZN14altered_carbon2js9JsVariantD1Ev
	leaq	12432(%rsp), %rdi
	callq	__ZN14altered_carbon2js9JsVariantD1Ev
	leaq	4704(%rsp), %rdi
	callq	__ZN14altered_carbon2js9JsVariantD1Ev
	leaq	12488(%rsp), %rdi
	callq	__ZN14altered_carbon2js9JsVariantD1Ev
	leaq	4760(%rsp), %rdi
	callq	__ZN14altered_carbon2js9JsVariantD1Ev
	leaq	12544(%rsp), %rdi
	callq	__ZN14altered_carbon2js9JsVariantD1Ev
	leaq	4816(%rsp), %rdi
	callq	__ZN14altered_carbon2js9JsVariantD1Ev
	leaq	12600(%rsp), %rdi
	callq	__ZN14altered_carbon2js9JsVariantD1Ev
	leaq	4872(%rsp), %rdi
	callq	__ZN14altered_carbon2js9JsVariantD1Ev
	leaq	12656(%rsp), %rdi
	callq	__ZN14altered_carbon2js9JsVariantD1Ev
	leaq	4928(%rsp), %rdi
	callq	__ZN14altered_carbon2js9JsVariantD1Ev
	leaq	12712(%rsp), %rdi
	callq	__ZN14altered_carbon2js9JsVariantD1Ev
	leaq	4984(%rsp), %rdi
	callq	__ZN14altered_carbon2js9JsVariantD1Ev
	leaq	12768(%rsp), %rdi
	callq	__ZN14altered_carbon2js9JsVariantD1Ev
	leaq	5040(%rsp), %rdi
	callq	__ZN14altered_carbon2js9JsVariantD1Ev
	leaq	12824(%rsp), %rdi
	callq	__ZN14altered_carbon2js9JsVariantD1Ev
	leaq	5096(%rsp), %rdi
	callq	__ZN14altered_carbon2js9JsVariantD1Ev
	leaq	12880(%rsp), %rdi
	callq	__ZN14altered_carbon2js9JsVariantD1Ev
	leaq	5152(%rsp), %rdi
	callq	__ZN14altered_carbon2js9JsVariantD1Ev
	leaq	12936(%rsp), %rdi
	callq	__ZN14altered_carbon2js9JsVariantD1Ev
	leaq	5208(%rsp), %rdi
	callq	__ZN14altered_carbon2js9JsVariantD1Ev
	leaq	12992(%rsp), %rdi
	callq	__ZN14altered_carbon2js9JsVariantD1Ev
	leaq	5264(%rsp), %rdi
	callq	__ZN14altered_carbon2js9JsVariantD1Ev
	leaq	13048(%rsp), %rdi
	callq	__ZN14altered_carbon2js9JsVariantD1Ev
	leaq	5320(%rsp), %rdi
	callq	__ZN14altered_carbon2js9JsVariantD1Ev
	leaq	13104(%rsp), %rdi
	callq	__ZN14altered_carbon2js9JsVariantD1Ev
	leaq	5376(%rsp), %rdi
	callq	__ZN14altered_carbon2js9JsVariantD1Ev
	leaq	13160(%rsp), %rdi
	callq	__ZN14altered_carbon2js9JsVariantD1Ev
	leaq	5432(%rsp), %rdi
	callq	__ZN14altered_carbon2js9JsVariantD1Ev
	leaq	13216(%rsp), %rdi
	callq	__ZN14altered_carbon2js9JsVariantD1Ev
	leaq	5488(%rsp), %rdi
	callq	__ZN14altered_carbon2js9JsVariantD1Ev
	leaq	13272(%rsp), %rdi
	callq	__ZN14altered_carbon2js9JsVariantD1Ev
	leaq	5544(%rsp), %rdi
	callq	__ZN14altered_carbon2js9JsVariantD1Ev
	leaq	13328(%rsp), %rdi
	callq	__ZN14altered_carbon2js9JsVariantD1Ev
	leaq	5600(%rsp), %rdi
	callq	__ZN14altered_carbon2js9JsVariantD1Ev
	leaq	13384(%rsp), %rdi
	callq	__ZN14altered_carbon2js9JsVariantD1Ev
	leaq	5656(%rsp), %rdi
	callq	__ZN14altered_carbon2js9JsVariantD1Ev
	leaq	13440(%rsp), %rdi
	callq	__ZN14altered_carbon2js9JsVariantD1Ev
	leaq	5712(%rsp), %rdi
	callq	__ZN14altered_carbon2js9JsVariantD1Ev
	leaq	13496(%rsp), %rdi
	callq	__ZN14altered_carbon2js9JsVariantD1Ev
	leaq	5768(%rsp), %rdi
	callq	__ZN14altered_carbon2js9JsVariantD1Ev
	leaq	13552(%rsp), %rdi
	callq	__ZN14altered_carbon2js9JsVariantD1Ev
	leaq	5824(%rsp), %rdi
	callq	__ZN14altered_carbon2js9JsVariantD1Ev
	leaq	13608(%rsp), %rdi
	callq	__ZN14altered_carbon2js9JsVariantD1Ev
	leaq	5880(%rsp), %rdi
	callq	__ZN14altered_carbon2js9JsVariantD1Ev
	leaq	13664(%rsp), %rdi
	callq	__ZN14altered_carbon2js9JsVariantD1Ev
	leaq	5936(%rsp), %rdi
	callq	__ZN14altered_carbon2js9JsVariantD1Ev
	leaq	13720(%rsp), %rdi
	callq	__ZN14altered_carbon2js9JsVariantD1Ev
	leaq	5992(%rsp), %rdi
	callq	__ZN14altered_carbon2js9JsVariantD1Ev
	leaq	13776(%rsp), %rdi
	callq	__ZN14altered_carbon2js9JsVariantD1Ev
	leaq	6048(%rsp), %rdi
	callq	__ZN14altered_carbon2js9JsVariantD1Ev
	leaq	13832(%rsp), %rdi
	callq	__ZN14altered_carbon2js9JsVariantD1Ev
	leaq	6104(%rsp), %rdi
	callq	__ZN14altered_carbon2js9JsVariantD1Ev
	leaq	13888(%rsp), %rdi
	callq	__ZN14altered_carbon2js9JsVariantD1Ev
	leaq	6160(%rsp), %rdi
	callq	__ZN14altered_carbon2js9JsVariantD1Ev
	leaq	13944(%rsp), %rdi
	callq	__ZN14altered_carbon2js9JsVariantD1Ev
	leaq	6216(%rsp), %rdi
	callq	__ZN14altered_carbon2js9JsVariantD1Ev
	leaq	14000(%rsp), %rdi
	callq	__ZN14altered_carbon2js9JsVariantD1Ev
	leaq	6272(%rsp), %rdi
	callq	__ZN14altered_carbon2js9JsVariantD1Ev
	leaq	14056(%rsp), %rdi
	callq	__ZN14altered_carbon2js9JsVariantD1Ev
	leaq	6328(%rsp), %rdi
	callq	__ZN14altered_carbon2js9JsVariantD1Ev
	leaq	14112(%rsp), %rdi
	callq	__ZN14altered_carbon2js9JsVariantD1Ev
	leaq	6384(%rsp), %rdi
	callq	__ZN14altered_carbon2js9JsVariantD1Ev
	leaq	14168(%rsp), %rdi
	callq	__ZN14altered_carbon2js9JsVariantD1Ev
	leaq	6440(%rsp), %rdi
	callq	__ZN14altered_carbon2js9JsVariantD1Ev
	leaq	14224(%rsp), %rdi
	callq	__ZN14altered_carbon2js9JsVariantD1Ev
	leaq	6496(%rsp), %rdi
	callq	__ZN14altered_carbon2js9JsVariantD1Ev
	leaq	14280(%rsp), %rdi
	callq	__ZN14altered_carbon2js9JsVariantD1Ev
	leaq	6552(%rsp), %rdi
	callq	__ZN14altered_carbon2js9JsVariantD1Ev
	leaq	14336(%rsp), %rdi
	callq	__ZN14altered_carbon2js9JsVariantD1Ev
	leaq	6608(%rsp), %rdi
	callq	__ZN14altered_carbon2js9JsVariantD1Ev
	leaq	14392(%rsp), %rdi
	callq	__ZN14altered_carbon2js9JsVariantD1Ev
	leaq	6664(%rsp), %rdi
	callq	__ZN14altered_carbon2js9JsVariantD1Ev
	leaq	14448(%rsp), %rdi
	callq	__ZN14altered_carbon2js9JsVariantD1Ev
	leaq	6720(%rsp), %rdi
	callq	__ZN14altered_carbon2js9JsVariantD1Ev
	leaq	14504(%rsp), %rdi
	callq	__ZN14altered_carbon2js9JsVariantD1Ev
	leaq	6776(%rsp), %rdi
	callq	__ZN14altered_carbon2js9JsVariantD1Ev
	leaq	14560(%rsp), %rdi
	callq	__ZN14altered_carbon2js9JsVariantD1Ev
	leaq	6832(%rsp), %rdi
	callq	__ZN14altered_carbon2js9JsVariantD1Ev
	leaq	14616(%rsp), %rdi
	callq	__ZN14altered_carbon2js9JsVariantD1Ev
	leaq	6888(%rsp), %rdi
	callq	__ZN14altered_carbon2js9JsVariantD1Ev
	leaq	14672(%rsp), %rdi
	callq	__ZN14altered_carbon2js9JsVariantD1Ev
	leaq	6944(%rsp), %rdi
	callq	__ZN14altered_carbon2js9JsVariantD1Ev
	leaq	14728(%rsp), %rdi
	callq	__ZN14altered_carbon2js9JsVariantD1Ev
	leaq	7000(%rsp), %rdi
	callq	__ZN14altered_carbon2js9JsVariantD1Ev
	leaq	14784(%rsp), %rdi
	callq	__ZN14altered_carbon2js9JsVariantD1Ev
	leaq	7056(%rsp), %rdi
	callq	__ZN14altered_carbon2js9JsVariantD1Ev
	leaq	14840(%rsp), %rdi
	callq	__ZN14altered_carbon2js9JsVariantD1Ev
	leaq	7112(%rsp), %rdi
	callq	__ZN14altered_carbon2js9JsVariantD1Ev
	leaq	14896(%rsp), %rdi
	callq	__ZN14altered_carbon2js9JsVariantD1Ev
	leaq	7168(%rsp), %rdi
	callq	__ZN14altered_carbon2js9JsVariantD1Ev
	leaq	14952(%rsp), %rdi
	callq	__ZN14altered_carbon2js9JsVariantD1Ev
	leaq	7224(%rsp), %rdi
	callq	__ZN14altered_carbon2js9JsVariantD1Ev
	leaq	15008(%rsp), %rdi
	callq	__ZN14altered_carbon2js9JsVariantD1Ev
	leaq	7280(%rsp), %rdi
	callq	__ZN14altered_carbon2js9JsVariantD1Ev
	leaq	15064(%rsp), %rdi
	callq	__ZN14altered_carbon2js9JsVariantD1Ev
	leaq	7336(%rsp), %rdi
	callq	__ZN14altered_carbon2js9JsVariantD1Ev
	leaq	15120(%rsp), %rdi
	callq	__ZN14altered_carbon2js9JsVariantD1Ev
	leaq	7392(%rsp), %rdi
	callq	__ZN14altered_carbon2js9JsVariantD1Ev
	leaq	15176(%rsp), %rdi
	callq	__ZN14altered_carbon2js9JsVariantD1Ev
	leaq	7448(%rsp), %rdi
	callq	__ZN14altered_carbon2js9JsVariantD1Ev
	leaq	15232(%rsp), %rdi
	callq	__ZN14altered_carbon2js9JsVariantD1Ev
	leaq	7504(%rsp), %rdi
	callq	__ZN14altered_carbon2js9JsVariantD1Ev
	leaq	15288(%rsp), %rdi
	callq	__ZN14altered_carbon2js9JsVariantD1Ev
	leaq	7560(%rsp), %rdi
	callq	__ZN14altered_carbon2js9JsVariantD1Ev
	leaq	15344(%rsp), %rdi
	callq	__ZN14altered_carbon2js9JsVariantD1Ev
	leaq	7616(%rsp), %rdi
	callq	__ZN14altered_carbon2js9JsVariantD1Ev
	leaq	15400(%rsp), %rdi
	callq	__ZN14altered_carbon2js9JsVariantD1Ev
	leaq	7672(%rsp), %rdi
	callq	__ZN14altered_carbon2js9JsVariantD1Ev
	leaq	15456(%rsp), %rdi
	callq	__ZN14altered_carbon2js9JsVariantD1Ev
	leaq	7728(%rsp), %rdi
	callq	__ZN14altered_carbon2js9JsVariantD1Ev
	leaq	15512(%rsp), %rdi
	callq	__ZN14altered_carbon2js9JsVariantD1Ev
	movq	%rbx, %rax
	addq	$15680, %rsp            ## imm = 0x3D40
	popq	%rbx
	retq
LBB1_9:                                 ## %caseerr.bb
	movl	%eax, 7736(%rsp)
	movq	15528(%rsp), %rax
	movq	%rax, 7744(%rsp)
	jmp	LBB1_5
LBB1_12:                                ## %casenum.bb
	movl	%eax, 7736(%rsp)
	movq	15528(%rsp), %rax
	movsd	15536(%rsp), %xmm0      ## xmm0 = mem[0],zero
	movb	15544(%rsp), %cl
	movq	%rax, 7744(%rsp)
	movsd	%xmm0, 7752(%rsp)
	movb	%cl, 7760(%rsp)
	jmp	LBB1_5
LBB1_11:                                ## %casebln.bb
	movl	%eax, 7736(%rsp)
	movb	15528(%rsp), %al
	movb	%al, 7744(%rsp)
	jmp	LBB1_5
LBB1_18:                                ## %caseerr.bb6
	movl	%eax, 7680(%rsp)
	movq	15472(%rsp), %rax
	movq	%rax, 7688(%rsp)
	jmp	LBB1_14
LBB1_21:                                ## %casenum.bb9
	movl	%eax, 7680(%rsp)
	movq	15472(%rsp), %rax
	movsd	15480(%rsp), %xmm0      ## xmm0 = mem[0],zero
	movb	15488(%rsp), %cl
	movq	%rax, 7688(%rsp)
	movsd	%xmm0, 7696(%rsp)
	movb	%cl, 7704(%rsp)
	jmp	LBB1_14
LBB1_20:                                ## %casebln.bb8
	movl	%eax, 7680(%rsp)
	movb	15472(%rsp), %al
	movb	%al, 7688(%rsp)
	jmp	LBB1_14
LBB1_27:                                ## %caseerr.bb14
	movl	%eax, 7624(%rsp)
	movq	15416(%rsp), %rax
	movq	%rax, 7632(%rsp)
	jmp	LBB1_23
LBB1_30:                                ## %casenum.bb17
	movl	%eax, 7624(%rsp)
	movq	15416(%rsp), %rax
	movsd	15424(%rsp), %xmm0      ## xmm0 = mem[0],zero
	movb	15432(%rsp), %cl
	movq	%rax, 7632(%rsp)
	movsd	%xmm0, 7640(%rsp)
	movb	%cl, 7648(%rsp)
	jmp	LBB1_23
LBB1_29:                                ## %casebln.bb16
	movl	%eax, 7624(%rsp)
	movb	15416(%rsp), %al
	movb	%al, 7632(%rsp)
	jmp	LBB1_23
LBB1_36:                                ## %caseerr.bb22
	movl	%eax, 7568(%rsp)
	movq	15360(%rsp), %rax
	movq	%rax, 7576(%rsp)
	jmp	LBB1_32
LBB1_39:                                ## %casenum.bb25
	movl	%eax, 7568(%rsp)
	movq	15360(%rsp), %rax
	movsd	15368(%rsp), %xmm0      ## xmm0 = mem[0],zero
	movb	15376(%rsp), %cl
	movq	%rax, 7576(%rsp)
	movsd	%xmm0, 7584(%rsp)
	movb	%cl, 7592(%rsp)
	jmp	LBB1_32
LBB1_38:                                ## %casebln.bb24
	movl	%eax, 7568(%rsp)
	movb	15360(%rsp), %al
	movb	%al, 7576(%rsp)
	jmp	LBB1_32
LBB1_45:                                ## %caseerr.bb30
	movl	%eax, 7512(%rsp)
	movq	15304(%rsp), %rax
	movq	%rax, 7520(%rsp)
	jmp	LBB1_41
LBB1_48:                                ## %casenum.bb33
	movl	%eax, 7512(%rsp)
	movq	15304(%rsp), %rax
	movsd	15312(%rsp), %xmm0      ## xmm0 = mem[0],zero
	movb	15320(%rsp), %cl
	movq	%rax, 7520(%rsp)
	movsd	%xmm0, 7528(%rsp)
	movb	%cl, 7536(%rsp)
	jmp	LBB1_41
LBB1_47:                                ## %casebln.bb32
	movl	%eax, 7512(%rsp)
	movb	15304(%rsp), %al
	movb	%al, 7520(%rsp)
	jmp	LBB1_41
LBB1_54:                                ## %caseerr.bb38
	movl	%eax, 7456(%rsp)
	movq	15248(%rsp), %rax
	movq	%rax, 7464(%rsp)
	jmp	LBB1_50
LBB1_57:                                ## %casenum.bb41
	movl	%eax, 7456(%rsp)
	movq	15248(%rsp), %rax
	movsd	15256(%rsp), %xmm0      ## xmm0 = mem[0],zero
	movb	15264(%rsp), %cl
	movq	%rax, 7464(%rsp)
	movsd	%xmm0, 7472(%rsp)
	movb	%cl, 7480(%rsp)
	jmp	LBB1_50
LBB1_56:                                ## %casebln.bb40
	movl	%eax, 7456(%rsp)
	movb	15248(%rsp), %al
	movb	%al, 7464(%rsp)
	jmp	LBB1_50
LBB1_63:                                ## %caseerr.bb46
	movl	%eax, 7400(%rsp)
	movq	15192(%rsp), %rax
	movq	%rax, 7408(%rsp)
	jmp	LBB1_59
LBB1_66:                                ## %casenum.bb49
	movl	%eax, 7400(%rsp)
	movq	15192(%rsp), %rax
	movsd	15200(%rsp), %xmm0      ## xmm0 = mem[0],zero
	movb	15208(%rsp), %cl
	movq	%rax, 7408(%rsp)
	movsd	%xmm0, 7416(%rsp)
	movb	%cl, 7424(%rsp)
	jmp	LBB1_59
LBB1_65:                                ## %casebln.bb48
	movl	%eax, 7400(%rsp)
	movb	15192(%rsp), %al
	movb	%al, 7408(%rsp)
	jmp	LBB1_59
LBB1_72:                                ## %caseerr.bb54
	movl	%eax, 7344(%rsp)
	movq	15136(%rsp), %rax
	movq	%rax, 7352(%rsp)
	jmp	LBB1_68
LBB1_75:                                ## %casenum.bb57
	movl	%eax, 7344(%rsp)
	movq	15136(%rsp), %rax
	movsd	15144(%rsp), %xmm0      ## xmm0 = mem[0],zero
	movb	15152(%rsp), %cl
	movq	%rax, 7352(%rsp)
	movsd	%xmm0, 7360(%rsp)
	movb	%cl, 7368(%rsp)
	jmp	LBB1_68
LBB1_74:                                ## %casebln.bb56
	movl	%eax, 7344(%rsp)
	movb	15136(%rsp), %al
	movb	%al, 7352(%rsp)
	jmp	LBB1_68
LBB1_81:                                ## %caseerr.bb62
	movl	%eax, 7288(%rsp)
	movq	15080(%rsp), %rax
	movq	%rax, 7296(%rsp)
	jmp	LBB1_77
LBB1_84:                                ## %casenum.bb65
	movl	%eax, 7288(%rsp)
	movq	15080(%rsp), %rax
	movsd	15088(%rsp), %xmm0      ## xmm0 = mem[0],zero
	movb	15096(%rsp), %cl
	movq	%rax, 7296(%rsp)
	movsd	%xmm0, 7304(%rsp)
	movb	%cl, 7312(%rsp)
	jmp	LBB1_77
LBB1_83:                                ## %casebln.bb64
	movl	%eax, 7288(%rsp)
	movb	15080(%rsp), %al
	movb	%al, 7296(%rsp)
	jmp	LBB1_77
LBB1_90:                                ## %caseerr.bb70
	movl	%eax, 7232(%rsp)
	movq	15024(%rsp), %rax
	movq	%rax, 7240(%rsp)
	jmp	LBB1_86
LBB1_93:                                ## %casenum.bb73
	movl	%eax, 7232(%rsp)
	movq	15024(%rsp), %rax
	movsd	15032(%rsp), %xmm0      ## xmm0 = mem[0],zero
	movb	15040(%rsp), %cl
	movq	%rax, 7240(%rsp)
	movsd	%xmm0, 7248(%rsp)
	movb	%cl, 7256(%rsp)
	jmp	LBB1_86
LBB1_92:                                ## %casebln.bb72
	movl	%eax, 7232(%rsp)
	movb	15024(%rsp), %al
	movb	%al, 7240(%rsp)
	jmp	LBB1_86
LBB1_99:                                ## %caseerr.bb78
	movl	%eax, 7176(%rsp)
	movq	14968(%rsp), %rax
	movq	%rax, 7184(%rsp)
	jmp	LBB1_95
LBB1_102:                               ## %casenum.bb81
	movl	%eax, 7176(%rsp)
	movq	14968(%rsp), %rax
	movsd	14976(%rsp), %xmm0      ## xmm0 = mem[0],zero
	movb	14984(%rsp), %cl
	movq	%rax, 7184(%rsp)
	movsd	%xmm0, 7192(%rsp)
	movb	%cl, 7200(%rsp)
	jmp	LBB1_95
LBB1_101:                               ## %casebln.bb80
	movl	%eax, 7176(%rsp)
	movb	14968(%rsp), %al
	movb	%al, 7184(%rsp)
	jmp	LBB1_95
LBB1_108:                               ## %caseerr.bb86
	movl	%eax, 7120(%rsp)
	movq	14912(%rsp), %rax
	movq	%rax, 7128(%rsp)
	jmp	LBB1_104
LBB1_111:                               ## %casenum.bb89
	movl	%eax, 7120(%rsp)
	movq	14912(%rsp), %rax
	movsd	14920(%rsp), %xmm0      ## xmm0 = mem[0],zero
	movb	14928(%rsp), %cl
	movq	%rax, 7128(%rsp)
	movsd	%xmm0, 7136(%rsp)
	movb	%cl, 7144(%rsp)
	jmp	LBB1_104
LBB1_110:                               ## %casebln.bb88
	movl	%eax, 7120(%rsp)
	movb	14912(%rsp), %al
	movb	%al, 7128(%rsp)
	jmp	LBB1_104
LBB1_117:                               ## %caseerr.bb94
	movl	%eax, 7064(%rsp)
	movq	14856(%rsp), %rax
	movq	%rax, 7072(%rsp)
	jmp	LBB1_113
LBB1_120:                               ## %casenum.bb97
	movl	%eax, 7064(%rsp)
	movq	14856(%rsp), %rax
	movsd	14864(%rsp), %xmm0      ## xmm0 = mem[0],zero
	movb	14872(%rsp), %cl
	movq	%rax, 7072(%rsp)
	movsd	%xmm0, 7080(%rsp)
	movb	%cl, 7088(%rsp)
	jmp	LBB1_113
LBB1_119:                               ## %casebln.bb96
	movl	%eax, 7064(%rsp)
	movb	14856(%rsp), %al
	movb	%al, 7072(%rsp)
	jmp	LBB1_113
LBB1_126:                               ## %caseerr.bb102
	movl	%eax, 7008(%rsp)
	movq	14800(%rsp), %rax
	movq	%rax, 7016(%rsp)
	jmp	LBB1_122
LBB1_129:                               ## %casenum.bb105
	movl	%eax, 7008(%rsp)
	movq	14800(%rsp), %rax
	movsd	14808(%rsp), %xmm0      ## xmm0 = mem[0],zero
	movb	14816(%rsp), %cl
	movq	%rax, 7016(%rsp)
	movsd	%xmm0, 7024(%rsp)
	movb	%cl, 7032(%rsp)
	jmp	LBB1_122
LBB1_128:                               ## %casebln.bb104
	movl	%eax, 7008(%rsp)
	movb	14800(%rsp), %al
	movb	%al, 7016(%rsp)
	jmp	LBB1_122
LBB1_135:                               ## %caseerr.bb110
	movl	%eax, 6952(%rsp)
	movq	14744(%rsp), %rax
	movq	%rax, 6960(%rsp)
	jmp	LBB1_131
LBB1_138:                               ## %casenum.bb113
	movl	%eax, 6952(%rsp)
	movq	14744(%rsp), %rax
	movsd	14752(%rsp), %xmm0      ## xmm0 = mem[0],zero
	movb	14760(%rsp), %cl
	movq	%rax, 6960(%rsp)
	movsd	%xmm0, 6968(%rsp)
	movb	%cl, 6976(%rsp)
	jmp	LBB1_131
LBB1_137:                               ## %casebln.bb112
	movl	%eax, 6952(%rsp)
	movb	14744(%rsp), %al
	movb	%al, 6960(%rsp)
	jmp	LBB1_131
LBB1_144:                               ## %caseerr.bb118
	movl	%eax, 6896(%rsp)
	movq	14688(%rsp), %rax
	movq	%rax, 6904(%rsp)
	jmp	LBB1_140
LBB1_147:                               ## %casenum.bb121
	movl	%eax, 6896(%rsp)
	movq	14688(%rsp), %rax
	movsd	14696(%rsp), %xmm0      ## xmm0 = mem[0],zero
	movb	14704(%rsp), %cl
	movq	%rax, 6904(%rsp)
	movsd	%xmm0, 6912(%rsp)
	movb	%cl, 6920(%rsp)
	jmp	LBB1_140
LBB1_146:                               ## %casebln.bb120
	movl	%eax, 6896(%rsp)
	movb	14688(%rsp), %al
	movb	%al, 6904(%rsp)
	jmp	LBB1_140
LBB1_153:                               ## %caseerr.bb126
	movl	%eax, 6840(%rsp)
	movq	14632(%rsp), %rax
	movq	%rax, 6848(%rsp)
	jmp	LBB1_149
LBB1_156:                               ## %casenum.bb129
	movl	%eax, 6840(%rsp)
	movq	14632(%rsp), %rax
	movsd	14640(%rsp), %xmm0      ## xmm0 = mem[0],zero
	movb	14648(%rsp), %cl
	movq	%rax, 6848(%rsp)
	movsd	%xmm0, 6856(%rsp)
	movb	%cl, 6864(%rsp)
	jmp	LBB1_149
LBB1_155:                               ## %casebln.bb128
	movl	%eax, 6840(%rsp)
	movb	14632(%rsp), %al
	movb	%al, 6848(%rsp)
	jmp	LBB1_149
LBB1_162:                               ## %caseerr.bb134
	movl	%eax, 6784(%rsp)
	movq	14576(%rsp), %rax
	movq	%rax, 6792(%rsp)
	jmp	LBB1_158
LBB1_165:                               ## %casenum.bb137
	movl	%eax, 6784(%rsp)
	movq	14576(%rsp), %rax
	movsd	14584(%rsp), %xmm0      ## xmm0 = mem[0],zero
	movb	14592(%rsp), %cl
	movq	%rax, 6792(%rsp)
	movsd	%xmm0, 6800(%rsp)
	movb	%cl, 6808(%rsp)
	jmp	LBB1_158
LBB1_164:                               ## %casebln.bb136
	movl	%eax, 6784(%rsp)
	movb	14576(%rsp), %al
	movb	%al, 6792(%rsp)
	jmp	LBB1_158
LBB1_171:                               ## %caseerr.bb142
	movl	%eax, 6728(%rsp)
	movq	14520(%rsp), %rax
	movq	%rax, 6736(%rsp)
	jmp	LBB1_167
LBB1_174:                               ## %casenum.bb145
	movl	%eax, 6728(%rsp)
	movq	14520(%rsp), %rax
	movsd	14528(%rsp), %xmm0      ## xmm0 = mem[0],zero
	movb	14536(%rsp), %cl
	movq	%rax, 6736(%rsp)
	movsd	%xmm0, 6744(%rsp)
	movb	%cl, 6752(%rsp)
	jmp	LBB1_167
LBB1_173:                               ## %casebln.bb144
	movl	%eax, 6728(%rsp)
	movb	14520(%rsp), %al
	movb	%al, 6736(%rsp)
	jmp	LBB1_167
LBB1_180:                               ## %caseerr.bb150
	movl	%eax, 6672(%rsp)
	movq	14464(%rsp), %rax
	movq	%rax, 6680(%rsp)
	jmp	LBB1_176
LBB1_183:                               ## %casenum.bb153
	movl	%eax, 6672(%rsp)
	movq	14464(%rsp), %rax
	movsd	14472(%rsp), %xmm0      ## xmm0 = mem[0],zero
	movb	14480(%rsp), %cl
	movq	%rax, 6680(%rsp)
	movsd	%xmm0, 6688(%rsp)
	movb	%cl, 6696(%rsp)
	jmp	LBB1_176
LBB1_182:                               ## %casebln.bb152
	movl	%eax, 6672(%rsp)
	movb	14464(%rsp), %al
	movb	%al, 6680(%rsp)
	jmp	LBB1_176
LBB1_189:                               ## %caseerr.bb158
	movl	%eax, 6616(%rsp)
	movq	14408(%rsp), %rax
	movq	%rax, 6624(%rsp)
	jmp	LBB1_185
LBB1_192:                               ## %casenum.bb161
	movl	%eax, 6616(%rsp)
	movq	14408(%rsp), %rax
	movsd	14416(%rsp), %xmm0      ## xmm0 = mem[0],zero
	movb	14424(%rsp), %cl
	movq	%rax, 6624(%rsp)
	movsd	%xmm0, 6632(%rsp)
	movb	%cl, 6640(%rsp)
	jmp	LBB1_185
LBB1_191:                               ## %casebln.bb160
	movl	%eax, 6616(%rsp)
	movb	14408(%rsp), %al
	movb	%al, 6624(%rsp)
	jmp	LBB1_185
LBB1_198:                               ## %caseerr.bb166
	movl	%eax, 6560(%rsp)
	movq	14352(%rsp), %rax
	movq	%rax, 6568(%rsp)
	jmp	LBB1_194
LBB1_201:                               ## %casenum.bb169
	movl	%eax, 6560(%rsp)
	movq	14352(%rsp), %rax
	movsd	14360(%rsp), %xmm0      ## xmm0 = mem[0],zero
	movb	14368(%rsp), %cl
	movq	%rax, 6568(%rsp)
	movsd	%xmm0, 6576(%rsp)
	movb	%cl, 6584(%rsp)
	jmp	LBB1_194
LBB1_200:                               ## %casebln.bb168
	movl	%eax, 6560(%rsp)
	movb	14352(%rsp), %al
	movb	%al, 6568(%rsp)
	jmp	LBB1_194
LBB1_207:                               ## %caseerr.bb174
	movl	%eax, 6504(%rsp)
	movq	14296(%rsp), %rax
	movq	%rax, 6512(%rsp)
	jmp	LBB1_203
LBB1_210:                               ## %casenum.bb177
	movl	%eax, 6504(%rsp)
	movq	14296(%rsp), %rax
	movsd	14304(%rsp), %xmm0      ## xmm0 = mem[0],zero
	movb	14312(%rsp), %cl
	movq	%rax, 6512(%rsp)
	movsd	%xmm0, 6520(%rsp)
	movb	%cl, 6528(%rsp)
	jmp	LBB1_203
LBB1_209:                               ## %casebln.bb176
	movl	%eax, 6504(%rsp)
	movb	14296(%rsp), %al
	movb	%al, 6512(%rsp)
	jmp	LBB1_203
LBB1_216:                               ## %caseerr.bb182
	movl	%eax, 6448(%rsp)
	movq	14240(%rsp), %rax
	movq	%rax, 6456(%rsp)
	jmp	LBB1_212
LBB1_219:                               ## %casenum.bb185
	movl	%eax, 6448(%rsp)
	movq	14240(%rsp), %rax
	movsd	14248(%rsp), %xmm0      ## xmm0 = mem[0],zero
	movb	14256(%rsp), %cl
	movq	%rax, 6456(%rsp)
	movsd	%xmm0, 6464(%rsp)
	movb	%cl, 6472(%rsp)
	jmp	LBB1_212
LBB1_218:                               ## %casebln.bb184
	movl	%eax, 6448(%rsp)
	movb	14240(%rsp), %al
	movb	%al, 6456(%rsp)
	jmp	LBB1_212
LBB1_225:                               ## %caseerr.bb190
	movl	%eax, 6392(%rsp)
	movq	14184(%rsp), %rax
	movq	%rax, 6400(%rsp)
	jmp	LBB1_221
LBB1_228:                               ## %casenum.bb193
	movl	%eax, 6392(%rsp)
	movq	14184(%rsp), %rax
	movsd	14192(%rsp), %xmm0      ## xmm0 = mem[0],zero
	movb	14200(%rsp), %cl
	movq	%rax, 6400(%rsp)
	movsd	%xmm0, 6408(%rsp)
	movb	%cl, 6416(%rsp)
	jmp	LBB1_221
LBB1_227:                               ## %casebln.bb192
	movl	%eax, 6392(%rsp)
	movb	14184(%rsp), %al
	movb	%al, 6400(%rsp)
	jmp	LBB1_221
LBB1_234:                               ## %caseerr.bb198
	movl	%eax, 6336(%rsp)
	movq	14128(%rsp), %rax
	movq	%rax, 6344(%rsp)
	jmp	LBB1_230
LBB1_237:                               ## %casenum.bb201
	movl	%eax, 6336(%rsp)
	movq	14128(%rsp), %rax
	movsd	14136(%rsp), %xmm0      ## xmm0 = mem[0],zero
	movb	14144(%rsp), %cl
	movq	%rax, 6344(%rsp)
	movsd	%xmm0, 6352(%rsp)
	movb	%cl, 6360(%rsp)
	jmp	LBB1_230
LBB1_236:                               ## %casebln.bb200
	movl	%eax, 6336(%rsp)
	movb	14128(%rsp), %al
	movb	%al, 6344(%rsp)
	jmp	LBB1_230
LBB1_243:                               ## %caseerr.bb206
	movl	%eax, 6280(%rsp)
	movq	14072(%rsp), %rax
	movq	%rax, 6288(%rsp)
	jmp	LBB1_239
LBB1_246:                               ## %casenum.bb209
	movl	%eax, 6280(%rsp)
	movq	14072(%rsp), %rax
	movsd	14080(%rsp), %xmm0      ## xmm0 = mem[0],zero
	movb	14088(%rsp), %cl
	movq	%rax, 6288(%rsp)
	movsd	%xmm0, 6296(%rsp)
	movb	%cl, 6304(%rsp)
	jmp	LBB1_239
LBB1_245:                               ## %casebln.bb208
	movl	%eax, 6280(%rsp)
	movb	14072(%rsp), %al
	movb	%al, 6288(%rsp)
	jmp	LBB1_239
LBB1_252:                               ## %caseerr.bb214
	movl	%eax, 6224(%rsp)
	movq	14016(%rsp), %rax
	movq	%rax, 6232(%rsp)
	jmp	LBB1_248
LBB1_255:                               ## %casenum.bb217
	movl	%eax, 6224(%rsp)
	movq	14016(%rsp), %rax
	movsd	14024(%rsp), %xmm0      ## xmm0 = mem[0],zero
	movb	14032(%rsp), %cl
	movq	%rax, 6232(%rsp)
	movsd	%xmm0, 6240(%rsp)
	movb	%cl, 6248(%rsp)
	jmp	LBB1_248
LBB1_254:                               ## %casebln.bb216
	movl	%eax, 6224(%rsp)
	movb	14016(%rsp), %al
	movb	%al, 6232(%rsp)
	jmp	LBB1_248
LBB1_261:                               ## %caseerr.bb222
	movl	%eax, 6168(%rsp)
	movq	13960(%rsp), %rax
	movq	%rax, 6176(%rsp)
	jmp	LBB1_257
LBB1_264:                               ## %casenum.bb225
	movl	%eax, 6168(%rsp)
	movq	13960(%rsp), %rax
	movsd	13968(%rsp), %xmm0      ## xmm0 = mem[0],zero
	movb	13976(%rsp), %cl
	movq	%rax, 6176(%rsp)
	movsd	%xmm0, 6184(%rsp)
	movb	%cl, 6192(%rsp)
	jmp	LBB1_257
LBB1_263:                               ## %casebln.bb224
	movl	%eax, 6168(%rsp)
	movb	13960(%rsp), %al
	movb	%al, 6176(%rsp)
	jmp	LBB1_257
LBB1_270:                               ## %caseerr.bb230
	movl	%eax, 6112(%rsp)
	movq	13904(%rsp), %rax
	movq	%rax, 6120(%rsp)
	jmp	LBB1_266
LBB1_273:                               ## %casenum.bb233
	movl	%eax, 6112(%rsp)
	movq	13904(%rsp), %rax
	movsd	13912(%rsp), %xmm0      ## xmm0 = mem[0],zero
	movb	13920(%rsp), %cl
	movq	%rax, 6120(%rsp)
	movsd	%xmm0, 6128(%rsp)
	movb	%cl, 6136(%rsp)
	jmp	LBB1_266
LBB1_272:                               ## %casebln.bb232
	movl	%eax, 6112(%rsp)
	movb	13904(%rsp), %al
	movb	%al, 6120(%rsp)
	jmp	LBB1_266
LBB1_279:                               ## %caseerr.bb238
	movl	%eax, 6056(%rsp)
	movq	13848(%rsp), %rax
	movq	%rax, 6064(%rsp)
	jmp	LBB1_275
LBB1_282:                               ## %casenum.bb241
	movl	%eax, 6056(%rsp)
	movq	13848(%rsp), %rax
	movsd	13856(%rsp), %xmm0      ## xmm0 = mem[0],zero
	movb	13864(%rsp), %cl
	movq	%rax, 6064(%rsp)
	movsd	%xmm0, 6072(%rsp)
	movb	%cl, 6080(%rsp)
	jmp	LBB1_275
LBB1_281:                               ## %casebln.bb240
	movl	%eax, 6056(%rsp)
	movb	13848(%rsp), %al
	movb	%al, 6064(%rsp)
	jmp	LBB1_275
LBB1_288:                               ## %caseerr.bb246
	movl	%eax, 6000(%rsp)
	movq	13792(%rsp), %rax
	movq	%rax, 6008(%rsp)
	jmp	LBB1_284
LBB1_291:                               ## %casenum.bb249
	movl	%eax, 6000(%rsp)
	movq	13792(%rsp), %rax
	movsd	13800(%rsp), %xmm0      ## xmm0 = mem[0],zero
	movb	13808(%rsp), %cl
	movq	%rax, 6008(%rsp)
	movsd	%xmm0, 6016(%rsp)
	movb	%cl, 6024(%rsp)
	jmp	LBB1_284
LBB1_290:                               ## %casebln.bb248
	movl	%eax, 6000(%rsp)
	movb	13792(%rsp), %al
	movb	%al, 6008(%rsp)
	jmp	LBB1_284
LBB1_297:                               ## %caseerr.bb254
	movl	%eax, 5944(%rsp)
	movq	13736(%rsp), %rax
	movq	%rax, 5952(%rsp)
	jmp	LBB1_293
LBB1_300:                               ## %casenum.bb257
	movl	%eax, 5944(%rsp)
	movq	13736(%rsp), %rax
	movsd	13744(%rsp), %xmm0      ## xmm0 = mem[0],zero
	movb	13752(%rsp), %cl
	movq	%rax, 5952(%rsp)
	movsd	%xmm0, 5960(%rsp)
	movb	%cl, 5968(%rsp)
	jmp	LBB1_293
LBB1_299:                               ## %casebln.bb256
	movl	%eax, 5944(%rsp)
	movb	13736(%rsp), %al
	movb	%al, 5952(%rsp)
	jmp	LBB1_293
LBB1_306:                               ## %caseerr.bb262
	movl	%eax, 5888(%rsp)
	movq	13680(%rsp), %rax
	movq	%rax, 5896(%rsp)
	jmp	LBB1_302
LBB1_309:                               ## %casenum.bb265
	movl	%eax, 5888(%rsp)
	movq	13680(%rsp), %rax
	movsd	13688(%rsp), %xmm0      ## xmm0 = mem[0],zero
	movb	13696(%rsp), %cl
	movq	%rax, 5896(%rsp)
	movsd	%xmm0, 5904(%rsp)
	movb	%cl, 5912(%rsp)
	jmp	LBB1_302
LBB1_308:                               ## %casebln.bb264
	movl	%eax, 5888(%rsp)
	movb	13680(%rsp), %al
	movb	%al, 5896(%rsp)
	jmp	LBB1_302
LBB1_315:                               ## %caseerr.bb270
	movl	%eax, 5832(%rsp)
	movq	13624(%rsp), %rax
	movq	%rax, 5840(%rsp)
	jmp	LBB1_311
LBB1_318:                               ## %casenum.bb273
	movl	%eax, 5832(%rsp)
	movq	13624(%rsp), %rax
	movsd	13632(%rsp), %xmm0      ## xmm0 = mem[0],zero
	movb	13640(%rsp), %cl
	movq	%rax, 5840(%rsp)
	movsd	%xmm0, 5848(%rsp)
	movb	%cl, 5856(%rsp)
	jmp	LBB1_311
LBB1_317:                               ## %casebln.bb272
	movl	%eax, 5832(%rsp)
	movb	13624(%rsp), %al
	movb	%al, 5840(%rsp)
	jmp	LBB1_311
LBB1_324:                               ## %caseerr.bb278
	movl	%eax, 5776(%rsp)
	movq	13568(%rsp), %rax
	movq	%rax, 5784(%rsp)
	jmp	LBB1_320
LBB1_327:                               ## %casenum.bb281
	movl	%eax, 5776(%rsp)
	movq	13568(%rsp), %rax
	movsd	13576(%rsp), %xmm0      ## xmm0 = mem[0],zero
	movb	13584(%rsp), %cl
	movq	%rax, 5784(%rsp)
	movsd	%xmm0, 5792(%rsp)
	movb	%cl, 5800(%rsp)
	jmp	LBB1_320
LBB1_326:                               ## %casebln.bb280
	movl	%eax, 5776(%rsp)
	movb	13568(%rsp), %al
	movb	%al, 5784(%rsp)
	jmp	LBB1_320
LBB1_333:                               ## %caseerr.bb286
	movl	%eax, 5720(%rsp)
	movq	13512(%rsp), %rax
	movq	%rax, 5728(%rsp)
	jmp	LBB1_329
LBB1_336:                               ## %casenum.bb289
	movl	%eax, 5720(%rsp)
	movq	13512(%rsp), %rax
	movsd	13520(%rsp), %xmm0      ## xmm0 = mem[0],zero
	movb	13528(%rsp), %cl
	movq	%rax, 5728(%rsp)
	movsd	%xmm0, 5736(%rsp)
	movb	%cl, 5744(%rsp)
	jmp	LBB1_329
LBB1_335:                               ## %casebln.bb288
	movl	%eax, 5720(%rsp)
	movb	13512(%rsp), %al
	movb	%al, 5728(%rsp)
	jmp	LBB1_329
LBB1_342:                               ## %caseerr.bb294
	movl	%eax, 5664(%rsp)
	movq	13456(%rsp), %rax
	movq	%rax, 5672(%rsp)
	jmp	LBB1_338
LBB1_345:                               ## %casenum.bb297
	movl	%eax, 5664(%rsp)
	movq	13456(%rsp), %rax
	movsd	13464(%rsp), %xmm0      ## xmm0 = mem[0],zero
	movb	13472(%rsp), %cl
	movq	%rax, 5672(%rsp)
	movsd	%xmm0, 5680(%rsp)
	movb	%cl, 5688(%rsp)
	jmp	LBB1_338
LBB1_344:                               ## %casebln.bb296
	movl	%eax, 5664(%rsp)
	movb	13456(%rsp), %al
	movb	%al, 5672(%rsp)
	jmp	LBB1_338
LBB1_351:                               ## %caseerr.bb302
	movl	%eax, 5608(%rsp)
	movq	13400(%rsp), %rax
	movq	%rax, 5616(%rsp)
	jmp	LBB1_347
LBB1_354:                               ## %casenum.bb305
	movl	%eax, 5608(%rsp)
	movq	13400(%rsp), %rax
	movsd	13408(%rsp), %xmm0      ## xmm0 = mem[0],zero
	movb	13416(%rsp), %cl
	movq	%rax, 5616(%rsp)
	movsd	%xmm0, 5624(%rsp)
	movb	%cl, 5632(%rsp)
	jmp	LBB1_347
LBB1_353:                               ## %casebln.bb304
	movl	%eax, 5608(%rsp)
	movb	13400(%rsp), %al
	movb	%al, 5616(%rsp)
	jmp	LBB1_347
LBB1_360:                               ## %caseerr.bb310
	movl	%eax, 5552(%rsp)
	movq	13344(%rsp), %rax
	movq	%rax, 5560(%rsp)
	jmp	LBB1_356
LBB1_363:                               ## %casenum.bb313
	movl	%eax, 5552(%rsp)
	movq	13344(%rsp), %rax
	movsd	13352(%rsp), %xmm0      ## xmm0 = mem[0],zero
	movb	13360(%rsp), %cl
	movq	%rax, 5560(%rsp)
	movsd	%xmm0, 5568(%rsp)
	movb	%cl, 5576(%rsp)
	jmp	LBB1_356
LBB1_362:                               ## %casebln.bb312
	movl	%eax, 5552(%rsp)
	movb	13344(%rsp), %al
	movb	%al, 5560(%rsp)
	jmp	LBB1_356
LBB1_369:                               ## %caseerr.bb318
	movl	%eax, 5496(%rsp)
	movq	13288(%rsp), %rax
	movq	%rax, 5504(%rsp)
	jmp	LBB1_365
LBB1_372:                               ## %casenum.bb321
	movl	%eax, 5496(%rsp)
	movq	13288(%rsp), %rax
	movsd	13296(%rsp), %xmm0      ## xmm0 = mem[0],zero
	movb	13304(%rsp), %cl
	movq	%rax, 5504(%rsp)
	movsd	%xmm0, 5512(%rsp)
	movb	%cl, 5520(%rsp)
	jmp	LBB1_365
LBB1_371:                               ## %casebln.bb320
	movl	%eax, 5496(%rsp)
	movb	13288(%rsp), %al
	movb	%al, 5504(%rsp)
	jmp	LBB1_365
LBB1_378:                               ## %caseerr.bb326
	movl	%eax, 5440(%rsp)
	movq	13232(%rsp), %rax
	movq	%rax, 5448(%rsp)
	jmp	LBB1_374
LBB1_381:                               ## %casenum.bb329
	movl	%eax, 5440(%rsp)
	movq	13232(%rsp), %rax
	movsd	13240(%rsp), %xmm0      ## xmm0 = mem[0],zero
	movb	13248(%rsp), %cl
	movq	%rax, 5448(%rsp)
	movsd	%xmm0, 5456(%rsp)
	movb	%cl, 5464(%rsp)
	jmp	LBB1_374
LBB1_380:                               ## %casebln.bb328
	movl	%eax, 5440(%rsp)
	movb	13232(%rsp), %al
	movb	%al, 5448(%rsp)
	jmp	LBB1_374
LBB1_387:                               ## %caseerr.bb334
	movl	%eax, 5384(%rsp)
	movq	13176(%rsp), %rax
	movq	%rax, 5392(%rsp)
	jmp	LBB1_383
LBB1_390:                               ## %casenum.bb337
	movl	%eax, 5384(%rsp)
	movq	13176(%rsp), %rax
	movsd	13184(%rsp), %xmm0      ## xmm0 = mem[0],zero
	movb	13192(%rsp), %cl
	movq	%rax, 5392(%rsp)
	movsd	%xmm0, 5400(%rsp)
	movb	%cl, 5408(%rsp)
	jmp	LBB1_383
LBB1_389:                               ## %casebln.bb336
	movl	%eax, 5384(%rsp)
	movb	13176(%rsp), %al
	movb	%al, 5392(%rsp)
	jmp	LBB1_383
LBB1_396:                               ## %caseerr.bb342
	movl	%eax, 5328(%rsp)
	movq	13120(%rsp), %rax
	movq	%rax, 5336(%rsp)
	jmp	LBB1_392
LBB1_399:                               ## %casenum.bb345
	movl	%eax, 5328(%rsp)
	movq	13120(%rsp), %rax
	movsd	13128(%rsp), %xmm0      ## xmm0 = mem[0],zero
	movb	13136(%rsp), %cl
	movq	%rax, 5336(%rsp)
	movsd	%xmm0, 5344(%rsp)
	movb	%cl, 5352(%rsp)
	jmp	LBB1_392
LBB1_398:                               ## %casebln.bb344
	movl	%eax, 5328(%rsp)
	movb	13120(%rsp), %al
	movb	%al, 5336(%rsp)
	jmp	LBB1_392
LBB1_405:                               ## %caseerr.bb350
	movl	%eax, 5272(%rsp)
	movq	13064(%rsp), %rax
	movq	%rax, 5280(%rsp)
	jmp	LBB1_401
LBB1_408:                               ## %casenum.bb353
	movl	%eax, 5272(%rsp)
	movq	13064(%rsp), %rax
	movsd	13072(%rsp), %xmm0      ## xmm0 = mem[0],zero
	movb	13080(%rsp), %cl
	movq	%rax, 5280(%rsp)
	movsd	%xmm0, 5288(%rsp)
	movb	%cl, 5296(%rsp)
	jmp	LBB1_401
LBB1_407:                               ## %casebln.bb352
	movl	%eax, 5272(%rsp)
	movb	13064(%rsp), %al
	movb	%al, 5280(%rsp)
	jmp	LBB1_401
LBB1_414:                               ## %caseerr.bb358
	movl	%eax, 5216(%rsp)
	movq	13008(%rsp), %rax
	movq	%rax, 5224(%rsp)
	jmp	LBB1_410
LBB1_417:                               ## %casenum.bb361
	movl	%eax, 5216(%rsp)
	movq	13008(%rsp), %rax
	movsd	13016(%rsp), %xmm0      ## xmm0 = mem[0],zero
	movb	13024(%rsp), %cl
	movq	%rax, 5224(%rsp)
	movsd	%xmm0, 5232(%rsp)
	movb	%cl, 5240(%rsp)
	jmp	LBB1_410
LBB1_416:                               ## %casebln.bb360
	movl	%eax, 5216(%rsp)
	movb	13008(%rsp), %al
	movb	%al, 5224(%rsp)
	jmp	LBB1_410
LBB1_423:                               ## %caseerr.bb366
	movl	%eax, 5160(%rsp)
	movq	12952(%rsp), %rax
	movq	%rax, 5168(%rsp)
	jmp	LBB1_419
LBB1_426:                               ## %casenum.bb369
	movl	%eax, 5160(%rsp)
	movq	12952(%rsp), %rax
	movsd	12960(%rsp), %xmm0      ## xmm0 = mem[0],zero
	movb	12968(%rsp), %cl
	movq	%rax, 5168(%rsp)
	movsd	%xmm0, 5176(%rsp)
	movb	%cl, 5184(%rsp)
	jmp	LBB1_419
LBB1_425:                               ## %casebln.bb368
	movl	%eax, 5160(%rsp)
	movb	12952(%rsp), %al
	movb	%al, 5168(%rsp)
	jmp	LBB1_419
LBB1_432:                               ## %caseerr.bb374
	movl	%eax, 5104(%rsp)
	movq	12896(%rsp), %rax
	movq	%rax, 5112(%rsp)
	jmp	LBB1_428
LBB1_435:                               ## %casenum.bb377
	movl	%eax, 5104(%rsp)
	movq	12896(%rsp), %rax
	movsd	12904(%rsp), %xmm0      ## xmm0 = mem[0],zero
	movb	12912(%rsp), %cl
	movq	%rax, 5112(%rsp)
	movsd	%xmm0, 5120(%rsp)
	movb	%cl, 5128(%rsp)
	jmp	LBB1_428
LBB1_434:                               ## %casebln.bb376
	movl	%eax, 5104(%rsp)
	movb	12896(%rsp), %al
	movb	%al, 5112(%rsp)
	jmp	LBB1_428
LBB1_441:                               ## %caseerr.bb382
	movl	%eax, 5048(%rsp)
	movq	12840(%rsp), %rax
	movq	%rax, 5056(%rsp)
	jmp	LBB1_437
LBB1_444:                               ## %casenum.bb385
	movl	%eax, 5048(%rsp)
	movq	12840(%rsp), %rax
	movsd	12848(%rsp), %xmm0      ## xmm0 = mem[0],zero
	movb	12856(%rsp), %cl
	movq	%rax, 5056(%rsp)
	movsd	%xmm0, 5064(%rsp)
	movb	%cl, 5072(%rsp)
	jmp	LBB1_437
LBB1_443:                               ## %casebln.bb384
	movl	%eax, 5048(%rsp)
	movb	12840(%rsp), %al
	movb	%al, 5056(%rsp)
	jmp	LBB1_437
LBB1_450:                               ## %caseerr.bb390
	movl	%eax, 4992(%rsp)
	movq	12784(%rsp), %rax
	movq	%rax, 5000(%rsp)
	jmp	LBB1_446
LBB1_453:                               ## %casenum.bb393
	movl	%eax, 4992(%rsp)
	movq	12784(%rsp), %rax
	movsd	12792(%rsp), %xmm0      ## xmm0 = mem[0],zero
	movb	12800(%rsp), %cl
	movq	%rax, 5000(%rsp)
	movsd	%xmm0, 5008(%rsp)
	movb	%cl, 5016(%rsp)
	jmp	LBB1_446
LBB1_452:                               ## %casebln.bb392
	movl	%eax, 4992(%rsp)
	movb	12784(%rsp), %al
	movb	%al, 5000(%rsp)
	jmp	LBB1_446
LBB1_459:                               ## %caseerr.bb398
	movl	%eax, 4936(%rsp)
	movq	12728(%rsp), %rax
	movq	%rax, 4944(%rsp)
	jmp	LBB1_455
LBB1_462:                               ## %casenum.bb401
	movl	%eax, 4936(%rsp)
	movq	12728(%rsp), %rax
	movsd	12736(%rsp), %xmm0      ## xmm0 = mem[0],zero
	movb	12744(%rsp), %cl
	movq	%rax, 4944(%rsp)
	movsd	%xmm0, 4952(%rsp)
	movb	%cl, 4960(%rsp)
	jmp	LBB1_455
LBB1_461:                               ## %casebln.bb400
	movl	%eax, 4936(%rsp)
	movb	12728(%rsp), %al
	movb	%al, 4944(%rsp)
	jmp	LBB1_455
LBB1_468:                               ## %caseerr.bb406
	movl	%eax, 4880(%rsp)
	movq	12672(%rsp), %rax
	movq	%rax, 4888(%rsp)
	jmp	LBB1_464
LBB1_471:                               ## %casenum.bb409
	movl	%eax, 4880(%rsp)
	movq	12672(%rsp), %rax
	movsd	12680(%rsp), %xmm0      ## xmm0 = mem[0],zero
	movb	12688(%rsp), %cl
	movq	%rax, 4888(%rsp)
	movsd	%xmm0, 4896(%rsp)
	movb	%cl, 4904(%rsp)
	jmp	LBB1_464
LBB1_470:                               ## %casebln.bb408
	movl	%eax, 4880(%rsp)
	movb	12672(%rsp), %al
	movb	%al, 4888(%rsp)
	jmp	LBB1_464
LBB1_477:                               ## %caseerr.bb414
	movl	%eax, 4824(%rsp)
	movq	12616(%rsp), %rax
	movq	%rax, 4832(%rsp)
	jmp	LBB1_473
LBB1_480:                               ## %casenum.bb417
	movl	%eax, 4824(%rsp)
	movq	12616(%rsp), %rax
	movsd	12624(%rsp), %xmm0      ## xmm0 = mem[0],zero
	movb	12632(%rsp), %cl
	movq	%rax, 4832(%rsp)
	movsd	%xmm0, 4840(%rsp)
	movb	%cl, 4848(%rsp)
	jmp	LBB1_473
LBB1_479:                               ## %casebln.bb416
	movl	%eax, 4824(%rsp)
	movb	12616(%rsp), %al
	movb	%al, 4832(%rsp)
	jmp	LBB1_473
LBB1_486:                               ## %caseerr.bb422
	movl	%eax, 4768(%rsp)
	movq	12560(%rsp), %rax
	movq	%rax, 4776(%rsp)
	jmp	LBB1_482
LBB1_489:                               ## %casenum.bb425
	movl	%eax, 4768(%rsp)
	movq	12560(%rsp), %rax
	movsd	12568(%rsp), %xmm0      ## xmm0 = mem[0],zero
	movb	12576(%rsp), %cl
	movq	%rax, 4776(%rsp)
	movsd	%xmm0, 4784(%rsp)
	movb	%cl, 4792(%rsp)
	jmp	LBB1_482
LBB1_488:                               ## %casebln.bb424
	movl	%eax, 4768(%rsp)
	movb	12560(%rsp), %al
	movb	%al, 4776(%rsp)
	jmp	LBB1_482
LBB1_495:                               ## %caseerr.bb430
	movl	%eax, 4712(%rsp)
	movq	12504(%rsp), %rax
	movq	%rax, 4720(%rsp)
	jmp	LBB1_491
LBB1_498:                               ## %casenum.bb433
	movl	%eax, 4712(%rsp)
	movq	12504(%rsp), %rax
	movsd	12512(%rsp), %xmm0      ## xmm0 = mem[0],zero
	movb	12520(%rsp), %cl
	movq	%rax, 4720(%rsp)
	movsd	%xmm0, 4728(%rsp)
	movb	%cl, 4736(%rsp)
	jmp	LBB1_491
LBB1_497:                               ## %casebln.bb432
	movl	%eax, 4712(%rsp)
	movb	12504(%rsp), %al
	movb	%al, 4720(%rsp)
	jmp	LBB1_491
LBB1_504:                               ## %caseerr.bb438
	movl	%eax, 4656(%rsp)
	movq	12448(%rsp), %rax
	movq	%rax, 4664(%rsp)
	jmp	LBB1_500
LBB1_507:                               ## %casenum.bb441
	movl	%eax, 4656(%rsp)
	movq	12448(%rsp), %rax
	movsd	12456(%rsp), %xmm0      ## xmm0 = mem[0],zero
	movb	12464(%rsp), %cl
	movq	%rax, 4664(%rsp)
	movsd	%xmm0, 4672(%rsp)
	movb	%cl, 4680(%rsp)
	jmp	LBB1_500
LBB1_506:                               ## %casebln.bb440
	movl	%eax, 4656(%rsp)
	movb	12448(%rsp), %al
	movb	%al, 4664(%rsp)
	jmp	LBB1_500
LBB1_513:                               ## %caseerr.bb446
	movl	%eax, 4600(%rsp)
	movq	12392(%rsp), %rax
	movq	%rax, 4608(%rsp)
	jmp	LBB1_509
LBB1_516:                               ## %casenum.bb449
	movl	%eax, 4600(%rsp)
	movq	12392(%rsp), %rax
	movsd	12400(%rsp), %xmm0      ## xmm0 = mem[0],zero
	movb	12408(%rsp), %cl
	movq	%rax, 4608(%rsp)
	movsd	%xmm0, 4616(%rsp)
	movb	%cl, 4624(%rsp)
	jmp	LBB1_509
LBB1_515:                               ## %casebln.bb448
	movl	%eax, 4600(%rsp)
	movb	12392(%rsp), %al
	movb	%al, 4608(%rsp)
	jmp	LBB1_509
LBB1_522:                               ## %caseerr.bb454
	movl	%eax, 4544(%rsp)
	movq	12336(%rsp), %rax
	movq	%rax, 4552(%rsp)
	jmp	LBB1_518
LBB1_525:                               ## %casenum.bb457
	movl	%eax, 4544(%rsp)
	movq	12336(%rsp), %rax
	movsd	12344(%rsp), %xmm0      ## xmm0 = mem[0],zero
	movb	12352(%rsp), %cl
	movq	%rax, 4552(%rsp)
	movsd	%xmm0, 4560(%rsp)
	movb	%cl, 4568(%rsp)
	jmp	LBB1_518
LBB1_524:                               ## %casebln.bb456
	movl	%eax, 4544(%rsp)
	movb	12336(%rsp), %al
	movb	%al, 4552(%rsp)
	jmp	LBB1_518
LBB1_531:                               ## %caseerr.bb462
	movl	%eax, 4488(%rsp)
	movq	12280(%rsp), %rax
	movq	%rax, 4496(%rsp)
	jmp	LBB1_527
LBB1_534:                               ## %casenum.bb465
	movl	%eax, 4488(%rsp)
	movq	12280(%rsp), %rax
	movsd	12288(%rsp), %xmm0      ## xmm0 = mem[0],zero
	movb	12296(%rsp), %cl
	movq	%rax, 4496(%rsp)
	movsd	%xmm0, 4504(%rsp)
	movb	%cl, 4512(%rsp)
	jmp	LBB1_527
LBB1_533:                               ## %casebln.bb464
	movl	%eax, 4488(%rsp)
	movb	12280(%rsp), %al
	movb	%al, 4496(%rsp)
	jmp	LBB1_527
LBB1_540:                               ## %caseerr.bb470
	movl	%eax, 4432(%rsp)
	movq	12224(%rsp), %rax
	movq	%rax, 4440(%rsp)
	jmp	LBB1_536
LBB1_543:                               ## %casenum.bb473
	movl	%eax, 4432(%rsp)
	movq	12224(%rsp), %rax
	movsd	12232(%rsp), %xmm0      ## xmm0 = mem[0],zero
	movb	12240(%rsp), %cl
	movq	%rax, 4440(%rsp)
	movsd	%xmm0, 4448(%rsp)
	movb	%cl, 4456(%rsp)
	jmp	LBB1_536
LBB1_542:                               ## %casebln.bb472
	movl	%eax, 4432(%rsp)
	movb	12224(%rsp), %al
	movb	%al, 4440(%rsp)
	jmp	LBB1_536
LBB1_549:                               ## %caseerr.bb478
	movl	%eax, 4376(%rsp)
	movq	12168(%rsp), %rax
	movq	%rax, 4384(%rsp)
	jmp	LBB1_545
LBB1_552:                               ## %casenum.bb481
	movl	%eax, 4376(%rsp)
	movq	12168(%rsp), %rax
	movsd	12176(%rsp), %xmm0      ## xmm0 = mem[0],zero
	movb	12184(%rsp), %cl
	movq	%rax, 4384(%rsp)
	movsd	%xmm0, 4392(%rsp)
	movb	%cl, 4400(%rsp)
	jmp	LBB1_545
LBB1_551:                               ## %casebln.bb480
	movl	%eax, 4376(%rsp)
	movb	12168(%rsp), %al
	movb	%al, 4384(%rsp)
	jmp	LBB1_545
LBB1_558:                               ## %caseerr.bb486
	movl	%eax, 4320(%rsp)
	movq	12112(%rsp), %rax
	movq	%rax, 4328(%rsp)
	jmp	LBB1_554
LBB1_561:                               ## %casenum.bb489
	movl	%eax, 4320(%rsp)
	movq	12112(%rsp), %rax
	movsd	12120(%rsp), %xmm0      ## xmm0 = mem[0],zero
	movb	12128(%rsp), %cl
	movq	%rax, 4328(%rsp)
	movsd	%xmm0, 4336(%rsp)
	movb	%cl, 4344(%rsp)
	jmp	LBB1_554
LBB1_560:                               ## %casebln.bb488
	movl	%eax, 4320(%rsp)
	movb	12112(%rsp), %al
	movb	%al, 4328(%rsp)
	jmp	LBB1_554
LBB1_567:                               ## %caseerr.bb494
	movl	%eax, 4264(%rsp)
	movq	12056(%rsp), %rax
	movq	%rax, 4272(%rsp)
	jmp	LBB1_563
LBB1_570:                               ## %casenum.bb497
	movl	%eax, 4264(%rsp)
	movq	12056(%rsp), %rax
	movsd	12064(%rsp), %xmm0      ## xmm0 = mem[0],zero
	movb	12072(%rsp), %cl
	movq	%rax, 4272(%rsp)
	movsd	%xmm0, 4280(%rsp)
	movb	%cl, 4288(%rsp)
	jmp	LBB1_563
LBB1_569:                               ## %casebln.bb496
	movl	%eax, 4264(%rsp)
	movb	12056(%rsp), %al
	movb	%al, 4272(%rsp)
	jmp	LBB1_563
LBB1_576:                               ## %caseerr.bb502
	movl	%eax, 4208(%rsp)
	movq	12000(%rsp), %rax
	movq	%rax, 4216(%rsp)
	jmp	LBB1_572
LBB1_579:                               ## %casenum.bb505
	movl	%eax, 4208(%rsp)
	movq	12000(%rsp), %rax
	movsd	12008(%rsp), %xmm0      ## xmm0 = mem[0],zero
	movb	12016(%rsp), %cl
	movq	%rax, 4216(%rsp)
	movsd	%xmm0, 4224(%rsp)
	movb	%cl, 4232(%rsp)
	jmp	LBB1_572
LBB1_578:                               ## %casebln.bb504
	movl	%eax, 4208(%rsp)
	movb	12000(%rsp), %al
	movb	%al, 4216(%rsp)
	jmp	LBB1_572
LBB1_585:                               ## %caseerr.bb510
	movl	%eax, 4152(%rsp)
	movq	11944(%rsp), %rax
	movq	%rax, 4160(%rsp)
	jmp	LBB1_581
LBB1_588:                               ## %casenum.bb513
	movl	%eax, 4152(%rsp)
	movq	11944(%rsp), %rax
	movsd	11952(%rsp), %xmm0      ## xmm0 = mem[0],zero
	movb	11960(%rsp), %cl
	movq	%rax, 4160(%rsp)
	movsd	%xmm0, 4168(%rsp)
	movb	%cl, 4176(%rsp)
	jmp	LBB1_581
LBB1_587:                               ## %casebln.bb512
	movl	%eax, 4152(%rsp)
	movb	11944(%rsp), %al
	movb	%al, 4160(%rsp)
	jmp	LBB1_581
LBB1_594:                               ## %caseerr.bb518
	movl	%eax, 4096(%rsp)
	movq	11888(%rsp), %rax
	movq	%rax, 4104(%rsp)
	jmp	LBB1_590
LBB1_597:                               ## %casenum.bb521
	movl	%eax, 4096(%rsp)
	movq	11888(%rsp), %rax
	movsd	11896(%rsp), %xmm0      ## xmm0 = mem[0],zero
	movb	11904(%rsp), %cl
	movq	%rax, 4104(%rsp)
	movsd	%xmm0, 4112(%rsp)
	movb	%cl, 4120(%rsp)
	jmp	LBB1_590
LBB1_596:                               ## %casebln.bb520
	movl	%eax, 4096(%rsp)
	movb	11888(%rsp), %al
	movb	%al, 4104(%rsp)
	jmp	LBB1_590
LBB1_603:                               ## %caseerr.bb526
	movl	%eax, 4040(%rsp)
	movq	11832(%rsp), %rax
	movq	%rax, 4048(%rsp)
	jmp	LBB1_599
LBB1_606:                               ## %casenum.bb529
	movl	%eax, 4040(%rsp)
	movq	11832(%rsp), %rax
	movsd	11840(%rsp), %xmm0      ## xmm0 = mem[0],zero
	movb	11848(%rsp), %cl
	movq	%rax, 4048(%rsp)
	movsd	%xmm0, 4056(%rsp)
	movb	%cl, 4064(%rsp)
	jmp	LBB1_599
LBB1_605:                               ## %casebln.bb528
	movl	%eax, 4040(%rsp)
	movb	11832(%rsp), %al
	movb	%al, 4048(%rsp)
	jmp	LBB1_599
LBB1_612:                               ## %caseerr.bb534
	movl	%eax, 3984(%rsp)
	movq	11776(%rsp), %rax
	movq	%rax, 3992(%rsp)
	jmp	LBB1_608
LBB1_615:                               ## %casenum.bb537
	movl	%eax, 3984(%rsp)
	movq	11776(%rsp), %rax
	movsd	11784(%rsp), %xmm0      ## xmm0 = mem[0],zero
	movb	11792(%rsp), %cl
	movq	%rax, 3992(%rsp)
	movsd	%xmm0, 4000(%rsp)
	movb	%cl, 4008(%rsp)
	jmp	LBB1_608
LBB1_614:                               ## %casebln.bb536
	movl	%eax, 3984(%rsp)
	movb	11776(%rsp), %al
	movb	%al, 3992(%rsp)
	jmp	LBB1_608
LBB1_621:                               ## %caseerr.bb542
	movl	%eax, 3928(%rsp)
	movq	11720(%rsp), %rax
	movq	%rax, 3936(%rsp)
	jmp	LBB1_617
LBB1_624:                               ## %casenum.bb545
	movl	%eax, 3928(%rsp)
	movq	11720(%rsp), %rax
	movsd	11728(%rsp), %xmm0      ## xmm0 = mem[0],zero
	movb	11736(%rsp), %cl
	movq	%rax, 3936(%rsp)
	movsd	%xmm0, 3944(%rsp)
	movb	%cl, 3952(%rsp)
	jmp	LBB1_617
LBB1_623:                               ## %casebln.bb544
	movl	%eax, 3928(%rsp)
	movb	11720(%rsp), %al
	movb	%al, 3936(%rsp)
	jmp	LBB1_617
LBB1_630:                               ## %caseerr.bb550
	movl	%eax, 3872(%rsp)
	movq	11664(%rsp), %rax
	movq	%rax, 3880(%rsp)
	jmp	LBB1_626
LBB1_633:                               ## %casenum.bb553
	movl	%eax, 3872(%rsp)
	movq	11664(%rsp), %rax
	movsd	11672(%rsp), %xmm0      ## xmm0 = mem[0],zero
	movb	11680(%rsp), %cl
	movq	%rax, 3880(%rsp)
	movsd	%xmm0, 3888(%rsp)
	movb	%cl, 3896(%rsp)
	jmp	LBB1_626
LBB1_632:                               ## %casebln.bb552
	movl	%eax, 3872(%rsp)
	movb	11664(%rsp), %al
	movb	%al, 3880(%rsp)
	jmp	LBB1_626
LBB1_639:                               ## %caseerr.bb558
	movl	%eax, 3816(%rsp)
	movq	11608(%rsp), %rax
	movq	%rax, 3824(%rsp)
	jmp	LBB1_635
LBB1_642:                               ## %casenum.bb561
	movl	%eax, 3816(%rsp)
	movq	11608(%rsp), %rax
	movsd	11616(%rsp), %xmm0      ## xmm0 = mem[0],zero
	movb	11624(%rsp), %cl
	movq	%rax, 3824(%rsp)
	movsd	%xmm0, 3832(%rsp)
	movb	%cl, 3840(%rsp)
	jmp	LBB1_635
LBB1_641:                               ## %casebln.bb560
	movl	%eax, 3816(%rsp)
	movb	11608(%rsp), %al
	movb	%al, 3824(%rsp)
	jmp	LBB1_635
LBB1_648:                               ## %caseerr.bb566
	movl	%eax, 3760(%rsp)
	movq	11552(%rsp), %rax
	movq	%rax, 3768(%rsp)
	jmp	LBB1_644
LBB1_651:                               ## %casenum.bb569
	movl	%eax, 3760(%rsp)
	movq	11552(%rsp), %rax
	movsd	11560(%rsp), %xmm0      ## xmm0 = mem[0],zero
	movb	11568(%rsp), %cl
	movq	%rax, 3768(%rsp)
	movsd	%xmm0, 3776(%rsp)
	movb	%cl, 3784(%rsp)
	jmp	LBB1_644
LBB1_650:                               ## %casebln.bb568
	movl	%eax, 3760(%rsp)
	movb	11552(%rsp), %al
	movb	%al, 3768(%rsp)
	jmp	LBB1_644
LBB1_657:                               ## %caseerr.bb574
	movl	%eax, 3704(%rsp)
	movq	11496(%rsp), %rax
	movq	%rax, 3712(%rsp)
	jmp	LBB1_653
LBB1_660:                               ## %casenum.bb577
	movl	%eax, 3704(%rsp)
	movq	11496(%rsp), %rax
	movsd	11504(%rsp), %xmm0      ## xmm0 = mem[0],zero
	movb	11512(%rsp), %cl
	movq	%rax, 3712(%rsp)
	movsd	%xmm0, 3720(%rsp)
	movb	%cl, 3728(%rsp)
	jmp	LBB1_653
LBB1_659:                               ## %casebln.bb576
	movl	%eax, 3704(%rsp)
	movb	11496(%rsp), %al
	movb	%al, 3712(%rsp)
	jmp	LBB1_653
LBB1_666:                               ## %caseerr.bb582
	movl	%eax, 3648(%rsp)
	movq	11440(%rsp), %rax
	movq	%rax, 3656(%rsp)
	jmp	LBB1_662
LBB1_669:                               ## %casenum.bb585
	movl	%eax, 3648(%rsp)
	movq	11440(%rsp), %rax
	movsd	11448(%rsp), %xmm0      ## xmm0 = mem[0],zero
	movb	11456(%rsp), %cl
	movq	%rax, 3656(%rsp)
	movsd	%xmm0, 3664(%rsp)
	movb	%cl, 3672(%rsp)
	jmp	LBB1_662
LBB1_668:                               ## %casebln.bb584
	movl	%eax, 3648(%rsp)
	movb	11440(%rsp), %al
	movb	%al, 3656(%rsp)
	jmp	LBB1_662
LBB1_675:                               ## %caseerr.bb590
	movl	%eax, 3592(%rsp)
	movq	11384(%rsp), %rax
	movq	%rax, 3600(%rsp)
	jmp	LBB1_671
LBB1_678:                               ## %casenum.bb593
	movl	%eax, 3592(%rsp)
	movq	11384(%rsp), %rax
	movsd	11392(%rsp), %xmm0      ## xmm0 = mem[0],zero
	movb	11400(%rsp), %cl
	movq	%rax, 3600(%rsp)
	movsd	%xmm0, 3608(%rsp)
	movb	%cl, 3616(%rsp)
	jmp	LBB1_671
LBB1_677:                               ## %casebln.bb592
	movl	%eax, 3592(%rsp)
	movb	11384(%rsp), %al
	movb	%al, 3600(%rsp)
	jmp	LBB1_671
LBB1_684:                               ## %caseerr.bb598
	movl	%eax, 3536(%rsp)
	movq	11328(%rsp), %rax
	movq	%rax, 3544(%rsp)
	jmp	LBB1_680
LBB1_687:                               ## %casenum.bb601
	movl	%eax, 3536(%rsp)
	movq	11328(%rsp), %rax
	movsd	11336(%rsp), %xmm0      ## xmm0 = mem[0],zero
	movb	11344(%rsp), %cl
	movq	%rax, 3544(%rsp)
	movsd	%xmm0, 3552(%rsp)
	movb	%cl, 3560(%rsp)
	jmp	LBB1_680
LBB1_686:                               ## %casebln.bb600
	movl	%eax, 3536(%rsp)
	movb	11328(%rsp), %al
	movb	%al, 3544(%rsp)
	jmp	LBB1_680
LBB1_693:                               ## %caseerr.bb606
	movl	%eax, 3480(%rsp)
	movq	11272(%rsp), %rax
	movq	%rax, 3488(%rsp)
	jmp	LBB1_689
LBB1_696:                               ## %casenum.bb609
	movl	%eax, 3480(%rsp)
	movq	11272(%rsp), %rax
	movsd	11280(%rsp), %xmm0      ## xmm0 = mem[0],zero
	movb	11288(%rsp), %cl
	movq	%rax, 3488(%rsp)
	movsd	%xmm0, 3496(%rsp)
	movb	%cl, 3504(%rsp)
	jmp	LBB1_689
LBB1_695:                               ## %casebln.bb608
	movl	%eax, 3480(%rsp)
	movb	11272(%rsp), %al
	movb	%al, 3488(%rsp)
	jmp	LBB1_689
LBB1_702:                               ## %caseerr.bb614
	movl	%eax, 3424(%rsp)
	movq	11216(%rsp), %rax
	movq	%rax, 3432(%rsp)
	jmp	LBB1_698
LBB1_705:                               ## %casenum.bb617
	movl	%eax, 3424(%rsp)
	movq	11216(%rsp), %rax
	movsd	11224(%rsp), %xmm0      ## xmm0 = mem[0],zero
	movb	11232(%rsp), %cl
	movq	%rax, 3432(%rsp)
	movsd	%xmm0, 3440(%rsp)
	movb	%cl, 3448(%rsp)
	jmp	LBB1_698
LBB1_704:                               ## %casebln.bb616
	movl	%eax, 3424(%rsp)
	movb	11216(%rsp), %al
	movb	%al, 3432(%rsp)
	jmp	LBB1_698
LBB1_711:                               ## %caseerr.bb622
	movl	%eax, 3368(%rsp)
	movq	11160(%rsp), %rax
	movq	%rax, 3376(%rsp)
	jmp	LBB1_707
LBB1_714:                               ## %casenum.bb625
	movl	%eax, 3368(%rsp)
	movq	11160(%rsp), %rax
	movsd	11168(%rsp), %xmm0      ## xmm0 = mem[0],zero
	movb	11176(%rsp), %cl
	movq	%rax, 3376(%rsp)
	movsd	%xmm0, 3384(%rsp)
	movb	%cl, 3392(%rsp)
	jmp	LBB1_707
LBB1_713:                               ## %casebln.bb624
	movl	%eax, 3368(%rsp)
	movb	11160(%rsp), %al
	movb	%al, 3376(%rsp)
	jmp	LBB1_707
LBB1_720:                               ## %caseerr.bb630
	movl	%eax, 3312(%rsp)
	movq	11104(%rsp), %rax
	movq	%rax, 3320(%rsp)
	jmp	LBB1_716
LBB1_723:                               ## %casenum.bb633
	movl	%eax, 3312(%rsp)
	movq	11104(%rsp), %rax
	movsd	11112(%rsp), %xmm0      ## xmm0 = mem[0],zero
	movb	11120(%rsp), %cl
	movq	%rax, 3320(%rsp)
	movsd	%xmm0, 3328(%rsp)
	movb	%cl, 3336(%rsp)
	jmp	LBB1_716
LBB1_722:                               ## %casebln.bb632
	movl	%eax, 3312(%rsp)
	movb	11104(%rsp), %al
	movb	%al, 3320(%rsp)
	jmp	LBB1_716
LBB1_729:                               ## %caseerr.bb638
	movl	%eax, 3256(%rsp)
	movq	11048(%rsp), %rax
	movq	%rax, 3264(%rsp)
	jmp	LBB1_725
LBB1_732:                               ## %casenum.bb641
	movl	%eax, 3256(%rsp)
	movq	11048(%rsp), %rax
	movsd	11056(%rsp), %xmm0      ## xmm0 = mem[0],zero
	movb	11064(%rsp), %cl
	movq	%rax, 3264(%rsp)
	movsd	%xmm0, 3272(%rsp)
	movb	%cl, 3280(%rsp)
	jmp	LBB1_725
LBB1_731:                               ## %casebln.bb640
	movl	%eax, 3256(%rsp)
	movb	11048(%rsp), %al
	movb	%al, 3264(%rsp)
	jmp	LBB1_725
LBB1_738:                               ## %caseerr.bb646
	movl	%eax, 3200(%rsp)
	movq	10992(%rsp), %rax
	movq	%rax, 3208(%rsp)
	jmp	LBB1_734
LBB1_741:                               ## %casenum.bb649
	movl	%eax, 3200(%rsp)
	movq	10992(%rsp), %rax
	movsd	11000(%rsp), %xmm0      ## xmm0 = mem[0],zero
	movb	11008(%rsp), %cl
	movq	%rax, 3208(%rsp)
	movsd	%xmm0, 3216(%rsp)
	movb	%cl, 3224(%rsp)
	jmp	LBB1_734
LBB1_740:                               ## %casebln.bb648
	movl	%eax, 3200(%rsp)
	movb	10992(%rsp), %al
	movb	%al, 3208(%rsp)
	jmp	LBB1_734
LBB1_747:                               ## %caseerr.bb654
	movl	%eax, 3144(%rsp)
	movq	10936(%rsp), %rax
	movq	%rax, 3152(%rsp)
	jmp	LBB1_743
LBB1_750:                               ## %casenum.bb657
	movl	%eax, 3144(%rsp)
	movq	10936(%rsp), %rax
	movsd	10944(%rsp), %xmm0      ## xmm0 = mem[0],zero
	movb	10952(%rsp), %cl
	movq	%rax, 3152(%rsp)
	movsd	%xmm0, 3160(%rsp)
	movb	%cl, 3168(%rsp)
	jmp	LBB1_743
LBB1_749:                               ## %casebln.bb656
	movl	%eax, 3144(%rsp)
	movb	10936(%rsp), %al
	movb	%al, 3152(%rsp)
	jmp	LBB1_743
LBB1_756:                               ## %caseerr.bb662
	movl	%eax, 3088(%rsp)
	movq	10880(%rsp), %rax
	movq	%rax, 3096(%rsp)
	jmp	LBB1_752
LBB1_759:                               ## %casenum.bb665
	movl	%eax, 3088(%rsp)
	movq	10880(%rsp), %rax
	movsd	10888(%rsp), %xmm0      ## xmm0 = mem[0],zero
	movb	10896(%rsp), %cl
	movq	%rax, 3096(%rsp)
	movsd	%xmm0, 3104(%rsp)
	movb	%cl, 3112(%rsp)
	jmp	LBB1_752
LBB1_758:                               ## %casebln.bb664
	movl	%eax, 3088(%rsp)
	movb	10880(%rsp), %al
	movb	%al, 3096(%rsp)
	jmp	LBB1_752
LBB1_765:                               ## %caseerr.bb670
	movl	%eax, 3032(%rsp)
	movq	10824(%rsp), %rax
	movq	%rax, 3040(%rsp)
	jmp	LBB1_761
LBB1_768:                               ## %casenum.bb673
	movl	%eax, 3032(%rsp)
	movq	10824(%rsp), %rax
	movsd	10832(%rsp), %xmm0      ## xmm0 = mem[0],zero
	movb	10840(%rsp), %cl
	movq	%rax, 3040(%rsp)
	movsd	%xmm0, 3048(%rsp)
	movb	%cl, 3056(%rsp)
	jmp	LBB1_761
LBB1_767:                               ## %casebln.bb672
	movl	%eax, 3032(%rsp)
	movb	10824(%rsp), %al
	movb	%al, 3040(%rsp)
	jmp	LBB1_761
LBB1_774:                               ## %caseerr.bb678
	movl	%eax, 2976(%rsp)
	movq	10768(%rsp), %rax
	movq	%rax, 2984(%rsp)
	jmp	LBB1_770
LBB1_777:                               ## %casenum.bb681
	movl	%eax, 2976(%rsp)
	movq	10768(%rsp), %rax
	movsd	10776(%rsp), %xmm0      ## xmm0 = mem[0],zero
	movb	10784(%rsp), %cl
	movq	%rax, 2984(%rsp)
	movsd	%xmm0, 2992(%rsp)
	movb	%cl, 3000(%rsp)
	jmp	LBB1_770
LBB1_776:                               ## %casebln.bb680
	movl	%eax, 2976(%rsp)
	movb	10768(%rsp), %al
	movb	%al, 2984(%rsp)
	jmp	LBB1_770
LBB1_783:                               ## %caseerr.bb686
	movl	%eax, 2920(%rsp)
	movq	10712(%rsp), %rax
	movq	%rax, 2928(%rsp)
	jmp	LBB1_779
LBB1_786:                               ## %casenum.bb689
	movl	%eax, 2920(%rsp)
	movq	10712(%rsp), %rax
	movsd	10720(%rsp), %xmm0      ## xmm0 = mem[0],zero
	movb	10728(%rsp), %cl
	movq	%rax, 2928(%rsp)
	movsd	%xmm0, 2936(%rsp)
	movb	%cl, 2944(%rsp)
	jmp	LBB1_779
LBB1_785:                               ## %casebln.bb688
	movl	%eax, 2920(%rsp)
	movb	10712(%rsp), %al
	movb	%al, 2928(%rsp)
	jmp	LBB1_779
LBB1_792:                               ## %caseerr.bb694
	movl	%eax, 2864(%rsp)
	movq	10656(%rsp), %rax
	movq	%rax, 2872(%rsp)
	jmp	LBB1_788
LBB1_795:                               ## %casenum.bb697
	movl	%eax, 2864(%rsp)
	movq	10656(%rsp), %rax
	movsd	10664(%rsp), %xmm0      ## xmm0 = mem[0],zero
	movb	10672(%rsp), %cl
	movq	%rax, 2872(%rsp)
	movsd	%xmm0, 2880(%rsp)
	movb	%cl, 2888(%rsp)
	jmp	LBB1_788
LBB1_794:                               ## %casebln.bb696
	movl	%eax, 2864(%rsp)
	movb	10656(%rsp), %al
	movb	%al, 2872(%rsp)
	jmp	LBB1_788
LBB1_801:                               ## %caseerr.bb702
	movl	%eax, 2808(%rsp)
	movq	10600(%rsp), %rax
	movq	%rax, 2816(%rsp)
	jmp	LBB1_797
LBB1_804:                               ## %casenum.bb705
	movl	%eax, 2808(%rsp)
	movq	10600(%rsp), %rax
	movsd	10608(%rsp), %xmm0      ## xmm0 = mem[0],zero
	movb	10616(%rsp), %cl
	movq	%rax, 2816(%rsp)
	movsd	%xmm0, 2824(%rsp)
	movb	%cl, 2832(%rsp)
	jmp	LBB1_797
LBB1_803:                               ## %casebln.bb704
	movl	%eax, 2808(%rsp)
	movb	10600(%rsp), %al
	movb	%al, 2816(%rsp)
	jmp	LBB1_797
LBB1_810:                               ## %caseerr.bb710
	movl	%eax, 2752(%rsp)
	movq	10544(%rsp), %rax
	movq	%rax, 2760(%rsp)
	jmp	LBB1_806
LBB1_813:                               ## %casenum.bb713
	movl	%eax, 2752(%rsp)
	movq	10544(%rsp), %rax
	movsd	10552(%rsp), %xmm0      ## xmm0 = mem[0],zero
	movb	10560(%rsp), %cl
	movq	%rax, 2760(%rsp)
	movsd	%xmm0, 2768(%rsp)
	movb	%cl, 2776(%rsp)
	jmp	LBB1_806
LBB1_812:                               ## %casebln.bb712
	movl	%eax, 2752(%rsp)
	movb	10544(%rsp), %al
	movb	%al, 2760(%rsp)
	jmp	LBB1_806
LBB1_819:                               ## %caseerr.bb718
	movl	%eax, 2696(%rsp)
	movq	10488(%rsp), %rax
	movq	%rax, 2704(%rsp)
	jmp	LBB1_815
LBB1_822:                               ## %casenum.bb721
	movl	%eax, 2696(%rsp)
	movq	10488(%rsp), %rax
	movsd	10496(%rsp), %xmm0      ## xmm0 = mem[0],zero
	movb	10504(%rsp), %cl
	movq	%rax, 2704(%rsp)
	movsd	%xmm0, 2712(%rsp)
	movb	%cl, 2720(%rsp)
	jmp	LBB1_815
LBB1_821:                               ## %casebln.bb720
	movl	%eax, 2696(%rsp)
	movb	10488(%rsp), %al
	movb	%al, 2704(%rsp)
	jmp	LBB1_815
LBB1_828:                               ## %caseerr.bb726
	movl	%eax, 2640(%rsp)
	movq	10432(%rsp), %rax
	movq	%rax, 2648(%rsp)
	jmp	LBB1_824
LBB1_831:                               ## %casenum.bb729
	movl	%eax, 2640(%rsp)
	movq	10432(%rsp), %rax
	movsd	10440(%rsp), %xmm0      ## xmm0 = mem[0],zero
	movb	10448(%rsp), %cl
	movq	%rax, 2648(%rsp)
	movsd	%xmm0, 2656(%rsp)
	movb	%cl, 2664(%rsp)
	jmp	LBB1_824
LBB1_830:                               ## %casebln.bb728
	movl	%eax, 2640(%rsp)
	movb	10432(%rsp), %al
	movb	%al, 2648(%rsp)
	jmp	LBB1_824
LBB1_837:                               ## %caseerr.bb734
	movl	%eax, 2584(%rsp)
	movq	10376(%rsp), %rax
	movq	%rax, 2592(%rsp)
	jmp	LBB1_833
LBB1_840:                               ## %casenum.bb737
	movl	%eax, 2584(%rsp)
	movq	10376(%rsp), %rax
	movsd	10384(%rsp), %xmm0      ## xmm0 = mem[0],zero
	movb	10392(%rsp), %cl
	movq	%rax, 2592(%rsp)
	movsd	%xmm0, 2600(%rsp)
	movb	%cl, 2608(%rsp)
	jmp	LBB1_833
LBB1_839:                               ## %casebln.bb736
	movl	%eax, 2584(%rsp)
	movb	10376(%rsp), %al
	movb	%al, 2592(%rsp)
	jmp	LBB1_833
LBB1_846:                               ## %caseerr.bb742
	movl	%eax, 2528(%rsp)
	movq	10320(%rsp), %rax
	movq	%rax, 2536(%rsp)
	jmp	LBB1_842
LBB1_849:                               ## %casenum.bb745
	movl	%eax, 2528(%rsp)
	movq	10320(%rsp), %rax
	movsd	10328(%rsp), %xmm0      ## xmm0 = mem[0],zero
	movb	10336(%rsp), %cl
	movq	%rax, 2536(%rsp)
	movsd	%xmm0, 2544(%rsp)
	movb	%cl, 2552(%rsp)
	jmp	LBB1_842
LBB1_848:                               ## %casebln.bb744
	movl	%eax, 2528(%rsp)
	movb	10320(%rsp), %al
	movb	%al, 2536(%rsp)
	jmp	LBB1_842
LBB1_855:                               ## %caseerr.bb750
	movl	%eax, 2472(%rsp)
	movq	10264(%rsp), %rax
	movq	%rax, 2480(%rsp)
	jmp	LBB1_851
LBB1_858:                               ## %casenum.bb753
	movl	%eax, 2472(%rsp)
	movq	10264(%rsp), %rax
	movsd	10272(%rsp), %xmm0      ## xmm0 = mem[0],zero
	movb	10280(%rsp), %cl
	movq	%rax, 2480(%rsp)
	movsd	%xmm0, 2488(%rsp)
	movb	%cl, 2496(%rsp)
	jmp	LBB1_851
LBB1_857:                               ## %casebln.bb752
	movl	%eax, 2472(%rsp)
	movb	10264(%rsp), %al
	movb	%al, 2480(%rsp)
	jmp	LBB1_851
LBB1_864:                               ## %caseerr.bb758
	movl	%eax, 2416(%rsp)
	movq	10208(%rsp), %rax
	movq	%rax, 2424(%rsp)
	jmp	LBB1_860
LBB1_867:                               ## %casenum.bb761
	movl	%eax, 2416(%rsp)
	movq	10208(%rsp), %rax
	movsd	10216(%rsp), %xmm0      ## xmm0 = mem[0],zero
	movb	10224(%rsp), %cl
	movq	%rax, 2424(%rsp)
	movsd	%xmm0, 2432(%rsp)
	movb	%cl, 2440(%rsp)
	jmp	LBB1_860
LBB1_866:                               ## %casebln.bb760
	movl	%eax, 2416(%rsp)
	movb	10208(%rsp), %al
	movb	%al, 2424(%rsp)
	jmp	LBB1_860
LBB1_873:                               ## %caseerr.bb766
	movl	%eax, 2360(%rsp)
	movq	10152(%rsp), %rax
	movq	%rax, 2368(%rsp)
	jmp	LBB1_869
LBB1_876:                               ## %casenum.bb769
	movl	%eax, 2360(%rsp)
	movq	10152(%rsp), %rax
	movsd	10160(%rsp), %xmm0      ## xmm0 = mem[0],zero
	movb	10168(%rsp), %cl
	movq	%rax, 2368(%rsp)
	movsd	%xmm0, 2376(%rsp)
	movb	%cl, 2384(%rsp)
	jmp	LBB1_869
LBB1_875:                               ## %casebln.bb768
	movl	%eax, 2360(%rsp)
	movb	10152(%rsp), %al
	movb	%al, 2368(%rsp)
	jmp	LBB1_869
LBB1_882:                               ## %caseerr.bb774
	movl	%eax, 2304(%rsp)
	movq	10096(%rsp), %rax
	movq	%rax, 2312(%rsp)
	jmp	LBB1_878
LBB1_885:                               ## %casenum.bb777
	movl	%eax, 2304(%rsp)
	movq	10096(%rsp), %rax
	movsd	10104(%rsp), %xmm0      ## xmm0 = mem[0],zero
	movb	10112(%rsp), %cl
	movq	%rax, 2312(%rsp)
	movsd	%xmm0, 2320(%rsp)
	movb	%cl, 2328(%rsp)
	jmp	LBB1_878
LBB1_884:                               ## %casebln.bb776
	movl	%eax, 2304(%rsp)
	movb	10096(%rsp), %al
	movb	%al, 2312(%rsp)
	jmp	LBB1_878
LBB1_891:                               ## %caseerr.bb782
	movl	%eax, 2248(%rsp)
	movq	10040(%rsp), %rax
	movq	%rax, 2256(%rsp)
	jmp	LBB1_887
LBB1_894:                               ## %casenum.bb785
	movl	%eax, 2248(%rsp)
	movq	10040(%rsp), %rax
	movsd	10048(%rsp), %xmm0      ## xmm0 = mem[0],zero
	movb	10056(%rsp), %cl
	movq	%rax, 2256(%rsp)
	movsd	%xmm0, 2264(%rsp)
	movb	%cl, 2272(%rsp)
	jmp	LBB1_887
LBB1_893:                               ## %casebln.bb784
	movl	%eax, 2248(%rsp)
	movb	10040(%rsp), %al
	movb	%al, 2256(%rsp)
	jmp	LBB1_887
LBB1_900:                               ## %caseerr.bb790
	movl	%eax, 2192(%rsp)
	movq	9984(%rsp), %rax
	movq	%rax, 2200(%rsp)
	jmp	LBB1_896
LBB1_903:                               ## %casenum.bb793
	movl	%eax, 2192(%rsp)
	movq	9984(%rsp), %rax
	movsd	9992(%rsp), %xmm0       ## xmm0 = mem[0],zero
	movb	10000(%rsp), %cl
	movq	%rax, 2200(%rsp)
	movsd	%xmm0, 2208(%rsp)
	movb	%cl, 2216(%rsp)
	jmp	LBB1_896
LBB1_902:                               ## %casebln.bb792
	movl	%eax, 2192(%rsp)
	movb	9984(%rsp), %al
	movb	%al, 2200(%rsp)
	jmp	LBB1_896
LBB1_909:                               ## %caseerr.bb798
	movl	%eax, 2136(%rsp)
	movq	9928(%rsp), %rax
	movq	%rax, 2144(%rsp)
	jmp	LBB1_905
LBB1_912:                               ## %casenum.bb801
	movl	%eax, 2136(%rsp)
	movq	9928(%rsp), %rax
	movsd	9936(%rsp), %xmm0       ## xmm0 = mem[0],zero
	movb	9944(%rsp), %cl
	movq	%rax, 2144(%rsp)
	movsd	%xmm0, 2152(%rsp)
	movb	%cl, 2160(%rsp)
	jmp	LBB1_905
LBB1_911:                               ## %casebln.bb800
	movl	%eax, 2136(%rsp)
	movb	9928(%rsp), %al
	movb	%al, 2144(%rsp)
	jmp	LBB1_905
LBB1_918:                               ## %caseerr.bb806
	movl	%eax, 2080(%rsp)
	movq	9872(%rsp), %rax
	movq	%rax, 2088(%rsp)
	jmp	LBB1_914
LBB1_921:                               ## %casenum.bb809
	movl	%eax, 2080(%rsp)
	movq	9872(%rsp), %rax
	movsd	9880(%rsp), %xmm0       ## xmm0 = mem[0],zero
	movb	9888(%rsp), %cl
	movq	%rax, 2088(%rsp)
	movsd	%xmm0, 2096(%rsp)
	movb	%cl, 2104(%rsp)
	jmp	LBB1_914
LBB1_920:                               ## %casebln.bb808
	movl	%eax, 2080(%rsp)
	movb	9872(%rsp), %al
	movb	%al, 2088(%rsp)
	jmp	LBB1_914
LBB1_927:                               ## %caseerr.bb814
	movl	%eax, 2024(%rsp)
	movq	9816(%rsp), %rax
	movq	%rax, 2032(%rsp)
	jmp	LBB1_923
LBB1_930:                               ## %casenum.bb817
	movl	%eax, 2024(%rsp)
	movq	9816(%rsp), %rax
	movsd	9824(%rsp), %xmm0       ## xmm0 = mem[0],zero
	movb	9832(%rsp), %cl
	movq	%rax, 2032(%rsp)
	movsd	%xmm0, 2040(%rsp)
	movb	%cl, 2048(%rsp)
	jmp	LBB1_923
LBB1_929:                               ## %casebln.bb816
	movl	%eax, 2024(%rsp)
	movb	9816(%rsp), %al
	movb	%al, 2032(%rsp)
	jmp	LBB1_923
LBB1_936:                               ## %caseerr.bb822
	movl	%eax, 1968(%rsp)
	movq	9760(%rsp), %rax
	movq	%rax, 1976(%rsp)
	jmp	LBB1_932
LBB1_939:                               ## %casenum.bb825
	movl	%eax, 1968(%rsp)
	movq	9760(%rsp), %rax
	movsd	9768(%rsp), %xmm0       ## xmm0 = mem[0],zero
	movb	9776(%rsp), %cl
	movq	%rax, 1976(%rsp)
	movsd	%xmm0, 1984(%rsp)
	movb	%cl, 1992(%rsp)
	jmp	LBB1_932
LBB1_938:                               ## %casebln.bb824
	movl	%eax, 1968(%rsp)
	movb	9760(%rsp), %al
	movb	%al, 1976(%rsp)
	jmp	LBB1_932
LBB1_945:                               ## %caseerr.bb830
	movl	%eax, 1912(%rsp)
	movq	9704(%rsp), %rax
	movq	%rax, 1920(%rsp)
	jmp	LBB1_941
LBB1_948:                               ## %casenum.bb833
	movl	%eax, 1912(%rsp)
	movq	9704(%rsp), %rax
	movsd	9712(%rsp), %xmm0       ## xmm0 = mem[0],zero
	movb	9720(%rsp), %cl
	movq	%rax, 1920(%rsp)
	movsd	%xmm0, 1928(%rsp)
	movb	%cl, 1936(%rsp)
	jmp	LBB1_941
LBB1_947:                               ## %casebln.bb832
	movl	%eax, 1912(%rsp)
	movb	9704(%rsp), %al
	movb	%al, 1920(%rsp)
	jmp	LBB1_941
LBB1_954:                               ## %caseerr.bb838
	movl	%eax, 1856(%rsp)
	movq	9648(%rsp), %rax
	movq	%rax, 1864(%rsp)
	jmp	LBB1_950
LBB1_957:                               ## %casenum.bb841
	movl	%eax, 1856(%rsp)
	movq	9648(%rsp), %rax
	movsd	9656(%rsp), %xmm0       ## xmm0 = mem[0],zero
	movb	9664(%rsp), %cl
	movq	%rax, 1864(%rsp)
	movsd	%xmm0, 1872(%rsp)
	movb	%cl, 1880(%rsp)
	jmp	LBB1_950
LBB1_956:                               ## %casebln.bb840
	movl	%eax, 1856(%rsp)
	movb	9648(%rsp), %al
	movb	%al, 1864(%rsp)
	jmp	LBB1_950
LBB1_963:                               ## %caseerr.bb846
	movl	%eax, 1800(%rsp)
	movq	9592(%rsp), %rax
	movq	%rax, 1808(%rsp)
	jmp	LBB1_959
LBB1_966:                               ## %casenum.bb849
	movl	%eax, 1800(%rsp)
	movq	9592(%rsp), %rax
	movsd	9600(%rsp), %xmm0       ## xmm0 = mem[0],zero
	movb	9608(%rsp), %cl
	movq	%rax, 1808(%rsp)
	movsd	%xmm0, 1816(%rsp)
	movb	%cl, 1824(%rsp)
	jmp	LBB1_959
LBB1_965:                               ## %casebln.bb848
	movl	%eax, 1800(%rsp)
	movb	9592(%rsp), %al
	movb	%al, 1808(%rsp)
	jmp	LBB1_959
LBB1_972:                               ## %caseerr.bb854
	movl	%eax, 1744(%rsp)
	movq	9536(%rsp), %rax
	movq	%rax, 1752(%rsp)
	jmp	LBB1_968
LBB1_975:                               ## %casenum.bb857
	movl	%eax, 1744(%rsp)
	movq	9536(%rsp), %rax
	movsd	9544(%rsp), %xmm0       ## xmm0 = mem[0],zero
	movb	9552(%rsp), %cl
	movq	%rax, 1752(%rsp)
	movsd	%xmm0, 1760(%rsp)
	movb	%cl, 1768(%rsp)
	jmp	LBB1_968
LBB1_974:                               ## %casebln.bb856
	movl	%eax, 1744(%rsp)
	movb	9536(%rsp), %al
	movb	%al, 1752(%rsp)
	jmp	LBB1_968
LBB1_981:                               ## %caseerr.bb862
	movl	%eax, 1688(%rsp)
	movq	9480(%rsp), %rax
	movq	%rax, 1696(%rsp)
	jmp	LBB1_977
LBB1_984:                               ## %casenum.bb865
	movl	%eax, 1688(%rsp)
	movq	9480(%rsp), %rax
	movsd	9488(%rsp), %xmm0       ## xmm0 = mem[0],zero
	movb	9496(%rsp), %cl
	movq	%rax, 1696(%rsp)
	movsd	%xmm0, 1704(%rsp)
	movb	%cl, 1712(%rsp)
	jmp	LBB1_977
LBB1_983:                               ## %casebln.bb864
	movl	%eax, 1688(%rsp)
	movb	9480(%rsp), %al
	movb	%al, 1696(%rsp)
	jmp	LBB1_977
LBB1_990:                               ## %caseerr.bb870
	movl	%eax, 1632(%rsp)
	movq	9424(%rsp), %rax
	movq	%rax, 1640(%rsp)
	jmp	LBB1_986
LBB1_993:                               ## %casenum.bb873
	movl	%eax, 1632(%rsp)
	movq	9424(%rsp), %rax
	movsd	9432(%rsp), %xmm0       ## xmm0 = mem[0],zero
	movb	9440(%rsp), %cl
	movq	%rax, 1640(%rsp)
	movsd	%xmm0, 1648(%rsp)
	movb	%cl, 1656(%rsp)
	jmp	LBB1_986
LBB1_992:                               ## %casebln.bb872
	movl	%eax, 1632(%rsp)
	movb	9424(%rsp), %al
	movb	%al, 1640(%rsp)
	jmp	LBB1_986
LBB1_999:                               ## %caseerr.bb878
	movl	%eax, 1576(%rsp)
	movq	9368(%rsp), %rax
	movq	%rax, 1584(%rsp)
	jmp	LBB1_995
LBB1_1002:                              ## %casenum.bb881
	movl	%eax, 1576(%rsp)
	movq	9368(%rsp), %rax
	movsd	9376(%rsp), %xmm0       ## xmm0 = mem[0],zero
	movb	9384(%rsp), %cl
	movq	%rax, 1584(%rsp)
	movsd	%xmm0, 1592(%rsp)
	movb	%cl, 1600(%rsp)
	jmp	LBB1_995
LBB1_1001:                              ## %casebln.bb880
	movl	%eax, 1576(%rsp)
	movb	9368(%rsp), %al
	movb	%al, 1584(%rsp)
	jmp	LBB1_995
LBB1_1008:                              ## %caseerr.bb886
	movl	%eax, 1520(%rsp)
	movq	9312(%rsp), %rax
	movq	%rax, 1528(%rsp)
	jmp	LBB1_1004
LBB1_1011:                              ## %casenum.bb889
	movl	%eax, 1520(%rsp)
	movq	9312(%rsp), %rax
	movsd	9320(%rsp), %xmm0       ## xmm0 = mem[0],zero
	movb	9328(%rsp), %cl
	movq	%rax, 1528(%rsp)
	movsd	%xmm0, 1536(%rsp)
	movb	%cl, 1544(%rsp)
	jmp	LBB1_1004
LBB1_1010:                              ## %casebln.bb888
	movl	%eax, 1520(%rsp)
	movb	9312(%rsp), %al
	movb	%al, 1528(%rsp)
	jmp	LBB1_1004
LBB1_1017:                              ## %caseerr.bb894
	movl	%eax, 1464(%rsp)
	movq	9256(%rsp), %rax
	movq	%rax, 1472(%rsp)
	jmp	LBB1_1013
LBB1_1020:                              ## %casenum.bb897
	movl	%eax, 1464(%rsp)
	movq	9256(%rsp), %rax
	movsd	9264(%rsp), %xmm0       ## xmm0 = mem[0],zero
	movb	9272(%rsp), %cl
	movq	%rax, 1472(%rsp)
	movsd	%xmm0, 1480(%rsp)
	movb	%cl, 1488(%rsp)
	jmp	LBB1_1013
LBB1_1019:                              ## %casebln.bb896
	movl	%eax, 1464(%rsp)
	movb	9256(%rsp), %al
	movb	%al, 1472(%rsp)
	jmp	LBB1_1013
LBB1_1026:                              ## %caseerr.bb902
	movl	%eax, 1408(%rsp)
	movq	9200(%rsp), %rax
	movq	%rax, 1416(%rsp)
	jmp	LBB1_1022
LBB1_1029:                              ## %casenum.bb905
	movl	%eax, 1408(%rsp)
	movq	9200(%rsp), %rax
	movsd	9208(%rsp), %xmm0       ## xmm0 = mem[0],zero
	movb	9216(%rsp), %cl
	movq	%rax, 1416(%rsp)
	movsd	%xmm0, 1424(%rsp)
	movb	%cl, 1432(%rsp)
	jmp	LBB1_1022
LBB1_1028:                              ## %casebln.bb904
	movl	%eax, 1408(%rsp)
	movb	9200(%rsp), %al
	movb	%al, 1416(%rsp)
	jmp	LBB1_1022
LBB1_1035:                              ## %caseerr.bb910
	movl	%eax, 1352(%rsp)
	movq	9144(%rsp), %rax
	movq	%rax, 1360(%rsp)
	jmp	LBB1_1031
LBB1_1038:                              ## %casenum.bb913
	movl	%eax, 1352(%rsp)
	movq	9144(%rsp), %rax
	movsd	9152(%rsp), %xmm0       ## xmm0 = mem[0],zero
	movb	9160(%rsp), %cl
	movq	%rax, 1360(%rsp)
	movsd	%xmm0, 1368(%rsp)
	movb	%cl, 1376(%rsp)
	jmp	LBB1_1031
LBB1_1037:                              ## %casebln.bb912
	movl	%eax, 1352(%rsp)
	movb	9144(%rsp), %al
	movb	%al, 1360(%rsp)
	jmp	LBB1_1031
LBB1_1044:                              ## %caseerr.bb918
	movl	%eax, 1296(%rsp)
	movq	9088(%rsp), %rax
	movq	%rax, 1304(%rsp)
	jmp	LBB1_1040
LBB1_1047:                              ## %casenum.bb921
	movl	%eax, 1296(%rsp)
	movq	9088(%rsp), %rax
	movsd	9096(%rsp), %xmm0       ## xmm0 = mem[0],zero
	movb	9104(%rsp), %cl
	movq	%rax, 1304(%rsp)
	movsd	%xmm0, 1312(%rsp)
	movb	%cl, 1320(%rsp)
	jmp	LBB1_1040
LBB1_1046:                              ## %casebln.bb920
	movl	%eax, 1296(%rsp)
	movb	9088(%rsp), %al
	movb	%al, 1304(%rsp)
	jmp	LBB1_1040
LBB1_1053:                              ## %caseerr.bb926
	movl	%eax, 1240(%rsp)
	movq	9032(%rsp), %rax
	movq	%rax, 1248(%rsp)
	jmp	LBB1_1049
LBB1_1056:                              ## %casenum.bb929
	movl	%eax, 1240(%rsp)
	movq	9032(%rsp), %rax
	movsd	9040(%rsp), %xmm0       ## xmm0 = mem[0],zero
	movb	9048(%rsp), %cl
	movq	%rax, 1248(%rsp)
	movsd	%xmm0, 1256(%rsp)
	movb	%cl, 1264(%rsp)
	jmp	LBB1_1049
LBB1_1055:                              ## %casebln.bb928
	movl	%eax, 1240(%rsp)
	movb	9032(%rsp), %al
	movb	%al, 1248(%rsp)
	jmp	LBB1_1049
LBB1_1062:                              ## %caseerr.bb934
	movl	%eax, 1184(%rsp)
	movq	8976(%rsp), %rax
	movq	%rax, 1192(%rsp)
	jmp	LBB1_1058
LBB1_1065:                              ## %casenum.bb937
	movl	%eax, 1184(%rsp)
	movq	8976(%rsp), %rax
	movsd	8984(%rsp), %xmm0       ## xmm0 = mem[0],zero
	movb	8992(%rsp), %cl
	movq	%rax, 1192(%rsp)
	movsd	%xmm0, 1200(%rsp)
	movb	%cl, 1208(%rsp)
	jmp	LBB1_1058
LBB1_1064:                              ## %casebln.bb936
	movl	%eax, 1184(%rsp)
	movb	8976(%rsp), %al
	movb	%al, 1192(%rsp)
	jmp	LBB1_1058
LBB1_1071:                              ## %caseerr.bb942
	movl	%eax, 1128(%rsp)
	movq	8920(%rsp), %rax
	movq	%rax, 1136(%rsp)
	jmp	LBB1_1067
LBB1_1074:                              ## %casenum.bb945
	movl	%eax, 1128(%rsp)
	movq	8920(%rsp), %rax
	movsd	8928(%rsp), %xmm0       ## xmm0 = mem[0],zero
	movb	8936(%rsp), %cl
	movq	%rax, 1136(%rsp)
	movsd	%xmm0, 1144(%rsp)
	movb	%cl, 1152(%rsp)
	jmp	LBB1_1067
LBB1_1073:                              ## %casebln.bb944
	movl	%eax, 1128(%rsp)
	movb	8920(%rsp), %al
	movb	%al, 1136(%rsp)
	jmp	LBB1_1067
LBB1_1080:                              ## %caseerr.bb950
	movl	%eax, 1072(%rsp)
	movq	8864(%rsp), %rax
	movq	%rax, 1080(%rsp)
	jmp	LBB1_1076
LBB1_1083:                              ## %casenum.bb953
	movl	%eax, 1072(%rsp)
	movq	8864(%rsp), %rax
	movsd	8872(%rsp), %xmm0       ## xmm0 = mem[0],zero
	movb	8880(%rsp), %cl
	movq	%rax, 1080(%rsp)
	movsd	%xmm0, 1088(%rsp)
	movb	%cl, 1096(%rsp)
	jmp	LBB1_1076
LBB1_1082:                              ## %casebln.bb952
	movl	%eax, 1072(%rsp)
	movb	8864(%rsp), %al
	movb	%al, 1080(%rsp)
	jmp	LBB1_1076
LBB1_1089:                              ## %caseerr.bb958
	movl	%eax, 1016(%rsp)
	movq	8808(%rsp), %rax
	movq	%rax, 1024(%rsp)
	jmp	LBB1_1085
LBB1_1092:                              ## %casenum.bb961
	movl	%eax, 1016(%rsp)
	movq	8808(%rsp), %rax
	movsd	8816(%rsp), %xmm0       ## xmm0 = mem[0],zero
	movb	8824(%rsp), %cl
	movq	%rax, 1024(%rsp)
	movsd	%xmm0, 1032(%rsp)
	movb	%cl, 1040(%rsp)
	jmp	LBB1_1085
LBB1_1091:                              ## %casebln.bb960
	movl	%eax, 1016(%rsp)
	movb	8808(%rsp), %al
	movb	%al, 1024(%rsp)
	jmp	LBB1_1085
LBB1_1098:                              ## %caseerr.bb966
	movl	%eax, 960(%rsp)
	movq	8752(%rsp), %rax
	movq	%rax, 968(%rsp)
	jmp	LBB1_1094
LBB1_1101:                              ## %casenum.bb969
	movl	%eax, 960(%rsp)
	movq	8752(%rsp), %rax
	movsd	8760(%rsp), %xmm0       ## xmm0 = mem[0],zero
	movb	8768(%rsp), %cl
	movq	%rax, 968(%rsp)
	movsd	%xmm0, 976(%rsp)
	movb	%cl, 984(%rsp)
	jmp	LBB1_1094
LBB1_1100:                              ## %casebln.bb968
	movl	%eax, 960(%rsp)
	movb	8752(%rsp), %al
	movb	%al, 968(%rsp)
	jmp	LBB1_1094
LBB1_1107:                              ## %caseerr.bb974
	movl	%eax, 904(%rsp)
	movq	8696(%rsp), %rax
	movq	%rax, 912(%rsp)
	jmp	LBB1_1103
LBB1_1110:                              ## %casenum.bb977
	movl	%eax, 904(%rsp)
	movq	8696(%rsp), %rax
	movsd	8704(%rsp), %xmm0       ## xmm0 = mem[0],zero
	movb	8712(%rsp), %cl
	movq	%rax, 912(%rsp)
	movsd	%xmm0, 920(%rsp)
	movb	%cl, 928(%rsp)
	jmp	LBB1_1103
LBB1_1109:                              ## %casebln.bb976
	movl	%eax, 904(%rsp)
	movb	8696(%rsp), %al
	movb	%al, 912(%rsp)
	jmp	LBB1_1103
LBB1_1116:                              ## %caseerr.bb982
	movl	%eax, 848(%rsp)
	movq	8640(%rsp), %rax
	movq	%rax, 856(%rsp)
	jmp	LBB1_1112
LBB1_1119:                              ## %casenum.bb985
	movl	%eax, 848(%rsp)
	movq	8640(%rsp), %rax
	movsd	8648(%rsp), %xmm0       ## xmm0 = mem[0],zero
	movb	8656(%rsp), %cl
	movq	%rax, 856(%rsp)
	movsd	%xmm0, 864(%rsp)
	movb	%cl, 872(%rsp)
	jmp	LBB1_1112
LBB1_1118:                              ## %casebln.bb984
	movl	%eax, 848(%rsp)
	movb	8640(%rsp), %al
	movb	%al, 856(%rsp)
	jmp	LBB1_1112
LBB1_1125:                              ## %caseerr.bb990
	movl	%eax, 792(%rsp)
	movq	8584(%rsp), %rax
	movq	%rax, 800(%rsp)
	jmp	LBB1_1121
LBB1_1128:                              ## %casenum.bb993
	movl	%eax, 792(%rsp)
	movq	8584(%rsp), %rax
	movsd	8592(%rsp), %xmm0       ## xmm0 = mem[0],zero
	movb	8600(%rsp), %cl
	movq	%rax, 800(%rsp)
	movsd	%xmm0, 808(%rsp)
	movb	%cl, 816(%rsp)
	jmp	LBB1_1121
LBB1_1127:                              ## %casebln.bb992
	movl	%eax, 792(%rsp)
	movb	8584(%rsp), %al
	movb	%al, 800(%rsp)
	jmp	LBB1_1121
LBB1_1134:                              ## %caseerr.bb998
	movl	%eax, 736(%rsp)
	movq	8528(%rsp), %rax
	movq	%rax, 744(%rsp)
	jmp	LBB1_1130
LBB1_1137:                              ## %casenum.bb1001
	movl	%eax, 736(%rsp)
	movq	8528(%rsp), %rax
	movsd	8536(%rsp), %xmm0       ## xmm0 = mem[0],zero
	movb	8544(%rsp), %cl
	movq	%rax, 744(%rsp)
	movsd	%xmm0, 752(%rsp)
	movb	%cl, 760(%rsp)
	jmp	LBB1_1130
LBB1_1136:                              ## %casebln.bb1000
	movl	%eax, 736(%rsp)
	movb	8528(%rsp), %al
	movb	%al, 744(%rsp)
	jmp	LBB1_1130
LBB1_1143:                              ## %caseerr.bb1006
	movl	%eax, 680(%rsp)
	movq	8472(%rsp), %rax
	movq	%rax, 688(%rsp)
	jmp	LBB1_1139
LBB1_1146:                              ## %casenum.bb1009
	movl	%eax, 680(%rsp)
	movq	8472(%rsp), %rax
	movsd	8480(%rsp), %xmm0       ## xmm0 = mem[0],zero
	movb	8488(%rsp), %cl
	movq	%rax, 688(%rsp)
	movsd	%xmm0, 696(%rsp)
	movb	%cl, 704(%rsp)
	jmp	LBB1_1139
LBB1_1145:                              ## %casebln.bb1008
	movl	%eax, 680(%rsp)
	movb	8472(%rsp), %al
	movb	%al, 688(%rsp)
	jmp	LBB1_1139
LBB1_1152:                              ## %caseerr.bb1014
	movl	%eax, 624(%rsp)
	movq	8416(%rsp), %rax
	movq	%rax, 632(%rsp)
	jmp	LBB1_1148
LBB1_1155:                              ## %casenum.bb1017
	movl	%eax, 624(%rsp)
	movq	8416(%rsp), %rax
	movsd	8424(%rsp), %xmm0       ## xmm0 = mem[0],zero
	movb	8432(%rsp), %cl
	movq	%rax, 632(%rsp)
	movsd	%xmm0, 640(%rsp)
	movb	%cl, 648(%rsp)
	jmp	LBB1_1148
LBB1_1154:                              ## %casebln.bb1016
	movl	%eax, 624(%rsp)
	movb	8416(%rsp), %al
	movb	%al, 632(%rsp)
	jmp	LBB1_1148
LBB1_1161:                              ## %caseerr.bb1022
	movl	%eax, 568(%rsp)
	movq	8360(%rsp), %rax
	movq	%rax, 576(%rsp)
	jmp	LBB1_1157
LBB1_1164:                              ## %casenum.bb1025
	movl	%eax, 568(%rsp)
	movq	8360(%rsp), %rax
	movsd	8368(%rsp), %xmm0       ## xmm0 = mem[0],zero
	movb	8376(%rsp), %cl
	movq	%rax, 576(%rsp)
	movsd	%xmm0, 584(%rsp)
	movb	%cl, 592(%rsp)
	jmp	LBB1_1157
LBB1_1163:                              ## %casebln.bb1024
	movl	%eax, 568(%rsp)
	movb	8360(%rsp), %al
	movb	%al, 576(%rsp)
	jmp	LBB1_1157
LBB1_1170:                              ## %caseerr.bb1030
	movl	%eax, 512(%rsp)
	movq	8304(%rsp), %rax
	movq	%rax, 520(%rsp)
	jmp	LBB1_1166
LBB1_1173:                              ## %casenum.bb1033
	movl	%eax, 512(%rsp)
	movq	8304(%rsp), %rax
	movsd	8312(%rsp), %xmm0       ## xmm0 = mem[0],zero
	movb	8320(%rsp), %cl
	movq	%rax, 520(%rsp)
	movsd	%xmm0, 528(%rsp)
	movb	%cl, 536(%rsp)
	jmp	LBB1_1166
LBB1_1172:                              ## %casebln.bb1032
	movl	%eax, 512(%rsp)
	movb	8304(%rsp), %al
	movb	%al, 520(%rsp)
	jmp	LBB1_1166
LBB1_1179:                              ## %caseerr.bb1038
	movl	%eax, 456(%rsp)
	movq	8248(%rsp), %rax
	movq	%rax, 464(%rsp)
	jmp	LBB1_1175
LBB1_1182:                              ## %casenum.bb1041
	movl	%eax, 456(%rsp)
	movq	8248(%rsp), %rax
	movsd	8256(%rsp), %xmm0       ## xmm0 = mem[0],zero
	movb	8264(%rsp), %cl
	movq	%rax, 464(%rsp)
	movsd	%xmm0, 472(%rsp)
	movb	%cl, 480(%rsp)
	jmp	LBB1_1175
LBB1_1181:                              ## %casebln.bb1040
	movl	%eax, 456(%rsp)
	movb	8248(%rsp), %al
	movb	%al, 464(%rsp)
	jmp	LBB1_1175
LBB1_1188:                              ## %caseerr.bb1046
	movl	%eax, 400(%rsp)
	movq	8192(%rsp), %rax
	movq	%rax, 408(%rsp)
	jmp	LBB1_1184
LBB1_1191:                              ## %casenum.bb1049
	movl	%eax, 400(%rsp)
	movq	8192(%rsp), %rax
	movsd	8200(%rsp), %xmm0       ## xmm0 = mem[0],zero
	movb	8208(%rsp), %cl
	movq	%rax, 408(%rsp)
	movsd	%xmm0, 416(%rsp)
	movb	%cl, 424(%rsp)
	jmp	LBB1_1184
LBB1_1190:                              ## %casebln.bb1048
	movl	%eax, 400(%rsp)
	movb	8192(%rsp), %al
	movb	%al, 408(%rsp)
	jmp	LBB1_1184
LBB1_1197:                              ## %caseerr.bb1054
	movl	%eax, 344(%rsp)
	movq	8136(%rsp), %rax
	movq	%rax, 352(%rsp)
	jmp	LBB1_1193
LBB1_1200:                              ## %casenum.bb1057
	movl	%eax, 344(%rsp)
	movq	8136(%rsp), %rax
	movsd	8144(%rsp), %xmm0       ## xmm0 = mem[0],zero
	movb	8152(%rsp), %cl
	movq	%rax, 352(%rsp)
	movsd	%xmm0, 360(%rsp)
	movb	%cl, 368(%rsp)
	jmp	LBB1_1193
LBB1_1199:                              ## %casebln.bb1056
	movl	%eax, 344(%rsp)
	movb	8136(%rsp), %al
	movb	%al, 352(%rsp)
	jmp	LBB1_1193
LBB1_1206:                              ## %caseerr.bb1062
	movl	%eax, 288(%rsp)
	movq	8080(%rsp), %rax
	movq	%rax, 296(%rsp)
	jmp	LBB1_1202
LBB1_1209:                              ## %casenum.bb1065
	movl	%eax, 288(%rsp)
	movq	8080(%rsp), %rax
	movsd	8088(%rsp), %xmm0       ## xmm0 = mem[0],zero
	movb	8096(%rsp), %cl
	movq	%rax, 296(%rsp)
	movsd	%xmm0, 304(%rsp)
	movb	%cl, 312(%rsp)
	jmp	LBB1_1202
LBB1_1208:                              ## %casebln.bb1064
	movl	%eax, 288(%rsp)
	movb	8080(%rsp), %al
	movb	%al, 296(%rsp)
	jmp	LBB1_1202
LBB1_1215:                              ## %caseerr.bb1070
	movl	%eax, 232(%rsp)
	movq	8024(%rsp), %rax
	movq	%rax, 240(%rsp)
	jmp	LBB1_1211
LBB1_1218:                              ## %casenum.bb1073
	movl	%eax, 232(%rsp)
	movq	8024(%rsp), %rax
	movsd	8032(%rsp), %xmm0       ## xmm0 = mem[0],zero
	movb	8040(%rsp), %cl
	movq	%rax, 240(%rsp)
	movsd	%xmm0, 248(%rsp)
	movb	%cl, 256(%rsp)
	jmp	LBB1_1211
LBB1_1217:                              ## %casebln.bb1072
	movl	%eax, 232(%rsp)
	movb	8024(%rsp), %al
	movb	%al, 240(%rsp)
	jmp	LBB1_1211
LBB1_1224:                              ## %caseerr.bb1078
	movl	%eax, 176(%rsp)
	movq	7968(%rsp), %rax
	movq	%rax, 184(%rsp)
	jmp	LBB1_1220
LBB1_1227:                              ## %casenum.bb1081
	movl	%eax, 176(%rsp)
	movq	7968(%rsp), %rax
	movsd	7976(%rsp), %xmm0       ## xmm0 = mem[0],zero
	movb	7984(%rsp), %cl
	movq	%rax, 184(%rsp)
	movsd	%xmm0, 192(%rsp)
	movb	%cl, 200(%rsp)
	jmp	LBB1_1220
LBB1_1226:                              ## %casebln.bb1080
	movl	%eax, 176(%rsp)
	movb	7968(%rsp), %al
	movb	%al, 184(%rsp)
	jmp	LBB1_1220
LBB1_1233:                              ## %caseerr.bb1086
	movl	%eax, 120(%rsp)
	movq	7912(%rsp), %rax
	movq	%rax, 128(%rsp)
	jmp	LBB1_1229
LBB1_1236:                              ## %casenum.bb1089
	movl	%eax, 120(%rsp)
	movq	7912(%rsp), %rax
	movsd	7920(%rsp), %xmm0       ## xmm0 = mem[0],zero
	movb	7928(%rsp), %cl
	movq	%rax, 128(%rsp)
	movsd	%xmm0, 136(%rsp)
	movb	%cl, 144(%rsp)
	jmp	LBB1_1229
LBB1_1235:                              ## %casebln.bb1088
	movl	%eax, 120(%rsp)
	movb	7912(%rsp), %al
	movb	%al, 128(%rsp)
	jmp	LBB1_1229
LBB1_1242:                              ## %caseerr.bb1094
	movl	%eax, 64(%rsp)
	movq	7856(%rsp), %rax
	movq	%rax, 72(%rsp)
	jmp	LBB1_1238
LBB1_1245:                              ## %casenum.bb1097
	movl	%eax, 64(%rsp)
	movq	7856(%rsp), %rax
	movsd	7864(%rsp), %xmm0       ## xmm0 = mem[0],zero
	movb	7872(%rsp), %cl
	movq	%rax, 72(%rsp)
	movsd	%xmm0, 80(%rsp)
	movb	%cl, 88(%rsp)
	jmp	LBB1_1238
LBB1_1244:                              ## %casebln.bb1096
	movl	%eax, 64(%rsp)
	movb	7856(%rsp), %al
	movb	%al, 72(%rsp)
	jmp	LBB1_1238
LBB1_1247:                              ## %caseerr.bb1102
	movl	%eax, 8(%rsp)
	movq	7800(%rsp), %rax
	movq	%rax, 16(%rsp)
	jmp	LBB1_1251
LBB1_1250:                              ## %casenum.bb1105
	movl	%eax, 8(%rsp)
	movq	7800(%rsp), %rax
	movsd	7808(%rsp), %xmm0       ## xmm0 = mem[0],zero
	movb	7816(%rsp), %cl
	movq	%rax, 16(%rsp)
	movsd	%xmm0, 24(%rsp)
	movb	%cl, 32(%rsp)
	jmp	LBB1_1251
LBB1_1249:                              ## %casebln.bb1104
	movl	%eax, 8(%rsp)
	movb	7800(%rsp), %al
	movb	%al, 16(%rsp)
	jmp	LBB1_1251
	.cfi_endproc
	.p2align	2, 0x90
	.data_region jt32
.set L1_0_set_9, LBB1_9-LJTI1_0
.set L1_0_set_4, LBB1_4-LJTI1_0
.set L1_0_set_10, LBB1_10-LJTI1_0
.set L1_0_set_12, LBB1_12-LJTI1_0
.set L1_0_set_11, LBB1_11-LJTI1_0
LJTI1_0:
	.long	L1_0_set_9
	.long	L1_0_set_4
	.long	L1_0_set_10
	.long	L1_0_set_10
	.long	L1_0_set_12
	.long	L1_0_set_4
	.long	L1_0_set_4
	.long	L1_0_set_4
	.long	L1_0_set_11
.set L1_1_set_18, LBB1_18-LJTI1_1
.set L1_1_set_13, LBB1_13-LJTI1_1
.set L1_1_set_19, LBB1_19-LJTI1_1
.set L1_1_set_21, LBB1_21-LJTI1_1
.set L1_1_set_20, LBB1_20-LJTI1_1
LJTI1_1:
	.long	L1_1_set_18
	.long	L1_1_set_13
	.long	L1_1_set_19
	.long	L1_1_set_19
	.long	L1_1_set_21
	.long	L1_1_set_13
	.long	L1_1_set_13
	.long	L1_1_set_13
	.long	L1_1_set_20
.set L1_2_set_27, LBB1_27-LJTI1_2
.set L1_2_set_22, LBB1_22-LJTI1_2
.set L1_2_set_28, LBB1_28-LJTI1_2
.set L1_2_set_30, LBB1_30-LJTI1_2
.set L1_2_set_29, LBB1_29-LJTI1_2
LJTI1_2:
	.long	L1_2_set_27
	.long	L1_2_set_22
	.long	L1_2_set_28
	.long	L1_2_set_28
	.long	L1_2_set_30
	.long	L1_2_set_22
	.long	L1_2_set_22
	.long	L1_2_set_22
	.long	L1_2_set_29
.set L1_3_set_36, LBB1_36-LJTI1_3
.set L1_3_set_31, LBB1_31-LJTI1_3
.set L1_3_set_37, LBB1_37-LJTI1_3
.set L1_3_set_39, LBB1_39-LJTI1_3
.set L1_3_set_38, LBB1_38-LJTI1_3
LJTI1_3:
	.long	L1_3_set_36
	.long	L1_3_set_31
	.long	L1_3_set_37
	.long	L1_3_set_37
	.long	L1_3_set_39
	.long	L1_3_set_31
	.long	L1_3_set_31
	.long	L1_3_set_31
	.long	L1_3_set_38
.set L1_4_set_45, LBB1_45-LJTI1_4
.set L1_4_set_40, LBB1_40-LJTI1_4
.set L1_4_set_46, LBB1_46-LJTI1_4
.set L1_4_set_48, LBB1_48-LJTI1_4
.set L1_4_set_47, LBB1_47-LJTI1_4
LJTI1_4:
	.long	L1_4_set_45
	.long	L1_4_set_40
	.long	L1_4_set_46
	.long	L1_4_set_46
	.long	L1_4_set_48
	.long	L1_4_set_40
	.long	L1_4_set_40
	.long	L1_4_set_40
	.long	L1_4_set_47
.set L1_5_set_54, LBB1_54-LJTI1_5
.set L1_5_set_49, LBB1_49-LJTI1_5
.set L1_5_set_55, LBB1_55-LJTI1_5
.set L1_5_set_57, LBB1_57-LJTI1_5
.set L1_5_set_56, LBB1_56-LJTI1_5
LJTI1_5:
	.long	L1_5_set_54
	.long	L1_5_set_49
	.long	L1_5_set_55
	.long	L1_5_set_55
	.long	L1_5_set_57
	.long	L1_5_set_49
	.long	L1_5_set_49
	.long	L1_5_set_49
	.long	L1_5_set_56
.set L1_6_set_63, LBB1_63-LJTI1_6
.set L1_6_set_58, LBB1_58-LJTI1_6
.set L1_6_set_64, LBB1_64-LJTI1_6
.set L1_6_set_66, LBB1_66-LJTI1_6
.set L1_6_set_65, LBB1_65-LJTI1_6
LJTI1_6:
	.long	L1_6_set_63
	.long	L1_6_set_58
	.long	L1_6_set_64
	.long	L1_6_set_64
	.long	L1_6_set_66
	.long	L1_6_set_58
	.long	L1_6_set_58
	.long	L1_6_set_58
	.long	L1_6_set_65
.set L1_7_set_72, LBB1_72-LJTI1_7
.set L1_7_set_67, LBB1_67-LJTI1_7
.set L1_7_set_73, LBB1_73-LJTI1_7
.set L1_7_set_75, LBB1_75-LJTI1_7
.set L1_7_set_74, LBB1_74-LJTI1_7
LJTI1_7:
	.long	L1_7_set_72
	.long	L1_7_set_67
	.long	L1_7_set_73
	.long	L1_7_set_73
	.long	L1_7_set_75
	.long	L1_7_set_67
	.long	L1_7_set_67
	.long	L1_7_set_67
	.long	L1_7_set_74
.set L1_8_set_81, LBB1_81-LJTI1_8
.set L1_8_set_76, LBB1_76-LJTI1_8
.set L1_8_set_82, LBB1_82-LJTI1_8
.set L1_8_set_84, LBB1_84-LJTI1_8
.set L1_8_set_83, LBB1_83-LJTI1_8
LJTI1_8:
	.long	L1_8_set_81
	.long	L1_8_set_76
	.long	L1_8_set_82
	.long	L1_8_set_82
	.long	L1_8_set_84
	.long	L1_8_set_76
	.long	L1_8_set_76
	.long	L1_8_set_76
	.long	L1_8_set_83
.set L1_9_set_90, LBB1_90-LJTI1_9
.set L1_9_set_85, LBB1_85-LJTI1_9
.set L1_9_set_91, LBB1_91-LJTI1_9
.set L1_9_set_93, LBB1_93-LJTI1_9
.set L1_9_set_92, LBB1_92-LJTI1_9
LJTI1_9:
	.long	L1_9_set_90
	.long	L1_9_set_85
	.long	L1_9_set_91
	.long	L1_9_set_91
	.long	L1_9_set_93
	.long	L1_9_set_85
	.long	L1_9_set_85
	.long	L1_9_set_85
	.long	L1_9_set_92
.set L1_10_set_99, LBB1_99-LJTI1_10
.set L1_10_set_94, LBB1_94-LJTI1_10
.set L1_10_set_100, LBB1_100-LJTI1_10
.set L1_10_set_102, LBB1_102-LJTI1_10
.set L1_10_set_101, LBB1_101-LJTI1_10
LJTI1_10:
	.long	L1_10_set_99
	.long	L1_10_set_94
	.long	L1_10_set_100
	.long	L1_10_set_100
	.long	L1_10_set_102
	.long	L1_10_set_94
	.long	L1_10_set_94
	.long	L1_10_set_94
	.long	L1_10_set_101
.set L1_11_set_108, LBB1_108-LJTI1_11
.set L1_11_set_103, LBB1_103-LJTI1_11
.set L1_11_set_109, LBB1_109-LJTI1_11
.set L1_11_set_111, LBB1_111-LJTI1_11
.set L1_11_set_110, LBB1_110-LJTI1_11
LJTI1_11:
	.long	L1_11_set_108
	.long	L1_11_set_103
	.long	L1_11_set_109
	.long	L1_11_set_109
	.long	L1_11_set_111
	.long	L1_11_set_103
	.long	L1_11_set_103
	.long	L1_11_set_103
	.long	L1_11_set_110
.set L1_12_set_117, LBB1_117-LJTI1_12
.set L1_12_set_112, LBB1_112-LJTI1_12
.set L1_12_set_118, LBB1_118-LJTI1_12
.set L1_12_set_120, LBB1_120-LJTI1_12
.set L1_12_set_119, LBB1_119-LJTI1_12
LJTI1_12:
	.long	L1_12_set_117
	.long	L1_12_set_112
	.long	L1_12_set_118
	.long	L1_12_set_118
	.long	L1_12_set_120
	.long	L1_12_set_112
	.long	L1_12_set_112
	.long	L1_12_set_112
	.long	L1_12_set_119
.set L1_13_set_126, LBB1_126-LJTI1_13
.set L1_13_set_121, LBB1_121-LJTI1_13
.set L1_13_set_127, LBB1_127-LJTI1_13
.set L1_13_set_129, LBB1_129-LJTI1_13
.set L1_13_set_128, LBB1_128-LJTI1_13
LJTI1_13:
	.long	L1_13_set_126
	.long	L1_13_set_121
	.long	L1_13_set_127
	.long	L1_13_set_127
	.long	L1_13_set_129
	.long	L1_13_set_121
	.long	L1_13_set_121
	.long	L1_13_set_121
	.long	L1_13_set_128
.set L1_14_set_135, LBB1_135-LJTI1_14
.set L1_14_set_130, LBB1_130-LJTI1_14
.set L1_14_set_136, LBB1_136-LJTI1_14
.set L1_14_set_138, LBB1_138-LJTI1_14
.set L1_14_set_137, LBB1_137-LJTI1_14
LJTI1_14:
	.long	L1_14_set_135
	.long	L1_14_set_130
	.long	L1_14_set_136
	.long	L1_14_set_136
	.long	L1_14_set_138
	.long	L1_14_set_130
	.long	L1_14_set_130
	.long	L1_14_set_130
	.long	L1_14_set_137
.set L1_15_set_144, LBB1_144-LJTI1_15
.set L1_15_set_139, LBB1_139-LJTI1_15
.set L1_15_set_145, LBB1_145-LJTI1_15
.set L1_15_set_147, LBB1_147-LJTI1_15
.set L1_15_set_146, LBB1_146-LJTI1_15
LJTI1_15:
	.long	L1_15_set_144
	.long	L1_15_set_139
	.long	L1_15_set_145
	.long	L1_15_set_145
	.long	L1_15_set_147
	.long	L1_15_set_139
	.long	L1_15_set_139
	.long	L1_15_set_139
	.long	L1_15_set_146
.set L1_16_set_153, LBB1_153-LJTI1_16
.set L1_16_set_148, LBB1_148-LJTI1_16
.set L1_16_set_154, LBB1_154-LJTI1_16
.set L1_16_set_156, LBB1_156-LJTI1_16
.set L1_16_set_155, LBB1_155-LJTI1_16
LJTI1_16:
	.long	L1_16_set_153
	.long	L1_16_set_148
	.long	L1_16_set_154
	.long	L1_16_set_154
	.long	L1_16_set_156
	.long	L1_16_set_148
	.long	L1_16_set_148
	.long	L1_16_set_148
	.long	L1_16_set_155
.set L1_17_set_162, LBB1_162-LJTI1_17
.set L1_17_set_157, LBB1_157-LJTI1_17
.set L1_17_set_163, LBB1_163-LJTI1_17
.set L1_17_set_165, LBB1_165-LJTI1_17
.set L1_17_set_164, LBB1_164-LJTI1_17
LJTI1_17:
	.long	L1_17_set_162
	.long	L1_17_set_157
	.long	L1_17_set_163
	.long	L1_17_set_163
	.long	L1_17_set_165
	.long	L1_17_set_157
	.long	L1_17_set_157
	.long	L1_17_set_157
	.long	L1_17_set_164
.set L1_18_set_171, LBB1_171-LJTI1_18
.set L1_18_set_166, LBB1_166-LJTI1_18
.set L1_18_set_172, LBB1_172-LJTI1_18
.set L1_18_set_174, LBB1_174-LJTI1_18
.set L1_18_set_173, LBB1_173-LJTI1_18
LJTI1_18:
	.long	L1_18_set_171
	.long	L1_18_set_166
	.long	L1_18_set_172
	.long	L1_18_set_172
	.long	L1_18_set_174
	.long	L1_18_set_166
	.long	L1_18_set_166
	.long	L1_18_set_166
	.long	L1_18_set_173
.set L1_19_set_180, LBB1_180-LJTI1_19
.set L1_19_set_175, LBB1_175-LJTI1_19
.set L1_19_set_181, LBB1_181-LJTI1_19
.set L1_19_set_183, LBB1_183-LJTI1_19
.set L1_19_set_182, LBB1_182-LJTI1_19
LJTI1_19:
	.long	L1_19_set_180
	.long	L1_19_set_175
	.long	L1_19_set_181
	.long	L1_19_set_181
	.long	L1_19_set_183
	.long	L1_19_set_175
	.long	L1_19_set_175
	.long	L1_19_set_175
	.long	L1_19_set_182
.set L1_20_set_189, LBB1_189-LJTI1_20
.set L1_20_set_184, LBB1_184-LJTI1_20
.set L1_20_set_190, LBB1_190-LJTI1_20
.set L1_20_set_192, LBB1_192-LJTI1_20
.set L1_20_set_191, LBB1_191-LJTI1_20
LJTI1_20:
	.long	L1_20_set_189
	.long	L1_20_set_184
	.long	L1_20_set_190
	.long	L1_20_set_190
	.long	L1_20_set_192
	.long	L1_20_set_184
	.long	L1_20_set_184
	.long	L1_20_set_184
	.long	L1_20_set_191
.set L1_21_set_198, LBB1_198-LJTI1_21
.set L1_21_set_193, LBB1_193-LJTI1_21
.set L1_21_set_199, LBB1_199-LJTI1_21
.set L1_21_set_201, LBB1_201-LJTI1_21
.set L1_21_set_200, LBB1_200-LJTI1_21
LJTI1_21:
	.long	L1_21_set_198
	.long	L1_21_set_193
	.long	L1_21_set_199
	.long	L1_21_set_199
	.long	L1_21_set_201
	.long	L1_21_set_193
	.long	L1_21_set_193
	.long	L1_21_set_193
	.long	L1_21_set_200
.set L1_22_set_207, LBB1_207-LJTI1_22
.set L1_22_set_202, LBB1_202-LJTI1_22
.set L1_22_set_208, LBB1_208-LJTI1_22
.set L1_22_set_210, LBB1_210-LJTI1_22
.set L1_22_set_209, LBB1_209-LJTI1_22
LJTI1_22:
	.long	L1_22_set_207
	.long	L1_22_set_202
	.long	L1_22_set_208
	.long	L1_22_set_208
	.long	L1_22_set_210
	.long	L1_22_set_202
	.long	L1_22_set_202
	.long	L1_22_set_202
	.long	L1_22_set_209
.set L1_23_set_216, LBB1_216-LJTI1_23
.set L1_23_set_211, LBB1_211-LJTI1_23
.set L1_23_set_217, LBB1_217-LJTI1_23
.set L1_23_set_219, LBB1_219-LJTI1_23
.set L1_23_set_218, LBB1_218-LJTI1_23
LJTI1_23:
	.long	L1_23_set_216
	.long	L1_23_set_211
	.long	L1_23_set_217
	.long	L1_23_set_217
	.long	L1_23_set_219
	.long	L1_23_set_211
	.long	L1_23_set_211
	.long	L1_23_set_211
	.long	L1_23_set_218
.set L1_24_set_225, LBB1_225-LJTI1_24
.set L1_24_set_220, LBB1_220-LJTI1_24
.set L1_24_set_226, LBB1_226-LJTI1_24
.set L1_24_set_228, LBB1_228-LJTI1_24
.set L1_24_set_227, LBB1_227-LJTI1_24
LJTI1_24:
	.long	L1_24_set_225
	.long	L1_24_set_220
	.long	L1_24_set_226
	.long	L1_24_set_226
	.long	L1_24_set_228
	.long	L1_24_set_220
	.long	L1_24_set_220
	.long	L1_24_set_220
	.long	L1_24_set_227
.set L1_25_set_234, LBB1_234-LJTI1_25
.set L1_25_set_229, LBB1_229-LJTI1_25
.set L1_25_set_235, LBB1_235-LJTI1_25
.set L1_25_set_237, LBB1_237-LJTI1_25
.set L1_25_set_236, LBB1_236-LJTI1_25
LJTI1_25:
	.long	L1_25_set_234
	.long	L1_25_set_229
	.long	L1_25_set_235
	.long	L1_25_set_235
	.long	L1_25_set_237
	.long	L1_25_set_229
	.long	L1_25_set_229
	.long	L1_25_set_229
	.long	L1_25_set_236
.set L1_26_set_243, LBB1_243-LJTI1_26
.set L1_26_set_238, LBB1_238-LJTI1_26
.set L1_26_set_244, LBB1_244-LJTI1_26
.set L1_26_set_246, LBB1_246-LJTI1_26
.set L1_26_set_245, LBB1_245-LJTI1_26
LJTI1_26:
	.long	L1_26_set_243
	.long	L1_26_set_238
	.long	L1_26_set_244
	.long	L1_26_set_244
	.long	L1_26_set_246
	.long	L1_26_set_238
	.long	L1_26_set_238
	.long	L1_26_set_238
	.long	L1_26_set_245
.set L1_27_set_252, LBB1_252-LJTI1_27
.set L1_27_set_247, LBB1_247-LJTI1_27
.set L1_27_set_253, LBB1_253-LJTI1_27
.set L1_27_set_255, LBB1_255-LJTI1_27
.set L1_27_set_254, LBB1_254-LJTI1_27
LJTI1_27:
	.long	L1_27_set_252
	.long	L1_27_set_247
	.long	L1_27_set_253
	.long	L1_27_set_253
	.long	L1_27_set_255
	.long	L1_27_set_247
	.long	L1_27_set_247
	.long	L1_27_set_247
	.long	L1_27_set_254
.set L1_28_set_261, LBB1_261-LJTI1_28
.set L1_28_set_256, LBB1_256-LJTI1_28
.set L1_28_set_262, LBB1_262-LJTI1_28
.set L1_28_set_264, LBB1_264-LJTI1_28
.set L1_28_set_263, LBB1_263-LJTI1_28
LJTI1_28:
	.long	L1_28_set_261
	.long	L1_28_set_256
	.long	L1_28_set_262
	.long	L1_28_set_262
	.long	L1_28_set_264
	.long	L1_28_set_256
	.long	L1_28_set_256
	.long	L1_28_set_256
	.long	L1_28_set_263
.set L1_29_set_270, LBB1_270-LJTI1_29
.set L1_29_set_265, LBB1_265-LJTI1_29
.set L1_29_set_271, LBB1_271-LJTI1_29
.set L1_29_set_273, LBB1_273-LJTI1_29
.set L1_29_set_272, LBB1_272-LJTI1_29
LJTI1_29:
	.long	L1_29_set_270
	.long	L1_29_set_265
	.long	L1_29_set_271
	.long	L1_29_set_271
	.long	L1_29_set_273
	.long	L1_29_set_265
	.long	L1_29_set_265
	.long	L1_29_set_265
	.long	L1_29_set_272
.set L1_30_set_279, LBB1_279-LJTI1_30
.set L1_30_set_274, LBB1_274-LJTI1_30
.set L1_30_set_280, LBB1_280-LJTI1_30
.set L1_30_set_282, LBB1_282-LJTI1_30
.set L1_30_set_281, LBB1_281-LJTI1_30
LJTI1_30:
	.long	L1_30_set_279
	.long	L1_30_set_274
	.long	L1_30_set_280
	.long	L1_30_set_280
	.long	L1_30_set_282
	.long	L1_30_set_274
	.long	L1_30_set_274
	.long	L1_30_set_274
	.long	L1_30_set_281
.set L1_31_set_288, LBB1_288-LJTI1_31
.set L1_31_set_283, LBB1_283-LJTI1_31
.set L1_31_set_289, LBB1_289-LJTI1_31
.set L1_31_set_291, LBB1_291-LJTI1_31
.set L1_31_set_290, LBB1_290-LJTI1_31
LJTI1_31:
	.long	L1_31_set_288
	.long	L1_31_set_283
	.long	L1_31_set_289
	.long	L1_31_set_289
	.long	L1_31_set_291
	.long	L1_31_set_283
	.long	L1_31_set_283
	.long	L1_31_set_283
	.long	L1_31_set_290
.set L1_32_set_297, LBB1_297-LJTI1_32
.set L1_32_set_292, LBB1_292-LJTI1_32
.set L1_32_set_298, LBB1_298-LJTI1_32
.set L1_32_set_300, LBB1_300-LJTI1_32
.set L1_32_set_299, LBB1_299-LJTI1_32
LJTI1_32:
	.long	L1_32_set_297
	.long	L1_32_set_292
	.long	L1_32_set_298
	.long	L1_32_set_298
	.long	L1_32_set_300
	.long	L1_32_set_292
	.long	L1_32_set_292
	.long	L1_32_set_292
	.long	L1_32_set_299
.set L1_33_set_306, LBB1_306-LJTI1_33
.set L1_33_set_301, LBB1_301-LJTI1_33
.set L1_33_set_307, LBB1_307-LJTI1_33
.set L1_33_set_309, LBB1_309-LJTI1_33
.set L1_33_set_308, LBB1_308-LJTI1_33
LJTI1_33:
	.long	L1_33_set_306
	.long	L1_33_set_301
	.long	L1_33_set_307
	.long	L1_33_set_307
	.long	L1_33_set_309
	.long	L1_33_set_301
	.long	L1_33_set_301
	.long	L1_33_set_301
	.long	L1_33_set_308
.set L1_34_set_315, LBB1_315-LJTI1_34
.set L1_34_set_310, LBB1_310-LJTI1_34
.set L1_34_set_316, LBB1_316-LJTI1_34
.set L1_34_set_318, LBB1_318-LJTI1_34
.set L1_34_set_317, LBB1_317-LJTI1_34
LJTI1_34:
	.long	L1_34_set_315
	.long	L1_34_set_310
	.long	L1_34_set_316
	.long	L1_34_set_316
	.long	L1_34_set_318
	.long	L1_34_set_310
	.long	L1_34_set_310
	.long	L1_34_set_310
	.long	L1_34_set_317
.set L1_35_set_324, LBB1_324-LJTI1_35
.set L1_35_set_319, LBB1_319-LJTI1_35
.set L1_35_set_325, LBB1_325-LJTI1_35
.set L1_35_set_327, LBB1_327-LJTI1_35
.set L1_35_set_326, LBB1_326-LJTI1_35
LJTI1_35:
	.long	L1_35_set_324
	.long	L1_35_set_319
	.long	L1_35_set_325
	.long	L1_35_set_325
	.long	L1_35_set_327
	.long	L1_35_set_319
	.long	L1_35_set_319
	.long	L1_35_set_319
	.long	L1_35_set_326
.set L1_36_set_333, LBB1_333-LJTI1_36
.set L1_36_set_328, LBB1_328-LJTI1_36
.set L1_36_set_334, LBB1_334-LJTI1_36
.set L1_36_set_336, LBB1_336-LJTI1_36
.set L1_36_set_335, LBB1_335-LJTI1_36
LJTI1_36:
	.long	L1_36_set_333
	.long	L1_36_set_328
	.long	L1_36_set_334
	.long	L1_36_set_334
	.long	L1_36_set_336
	.long	L1_36_set_328
	.long	L1_36_set_328
	.long	L1_36_set_328
	.long	L1_36_set_335
.set L1_37_set_342, LBB1_342-LJTI1_37
.set L1_37_set_337, LBB1_337-LJTI1_37
.set L1_37_set_343, LBB1_343-LJTI1_37
.set L1_37_set_345, LBB1_345-LJTI1_37
.set L1_37_set_344, LBB1_344-LJTI1_37
LJTI1_37:
	.long	L1_37_set_342
	.long	L1_37_set_337
	.long	L1_37_set_343
	.long	L1_37_set_343
	.long	L1_37_set_345
	.long	L1_37_set_337
	.long	L1_37_set_337
	.long	L1_37_set_337
	.long	L1_37_set_344
.set L1_38_set_351, LBB1_351-LJTI1_38
.set L1_38_set_346, LBB1_346-LJTI1_38
.set L1_38_set_352, LBB1_352-LJTI1_38
.set L1_38_set_354, LBB1_354-LJTI1_38
.set L1_38_set_353, LBB1_353-LJTI1_38
LJTI1_38:
	.long	L1_38_set_351
	.long	L1_38_set_346
	.long	L1_38_set_352
	.long	L1_38_set_352
	.long	L1_38_set_354
	.long	L1_38_set_346
	.long	L1_38_set_346
	.long	L1_38_set_346
	.long	L1_38_set_353
.set L1_39_set_360, LBB1_360-LJTI1_39
.set L1_39_set_355, LBB1_355-LJTI1_39
.set L1_39_set_361, LBB1_361-LJTI1_39
.set L1_39_set_363, LBB1_363-LJTI1_39
.set L1_39_set_362, LBB1_362-LJTI1_39
LJTI1_39:
	.long	L1_39_set_360
	.long	L1_39_set_355
	.long	L1_39_set_361
	.long	L1_39_set_361
	.long	L1_39_set_363
	.long	L1_39_set_355
	.long	L1_39_set_355
	.long	L1_39_set_355
	.long	L1_39_set_362
.set L1_40_set_369, LBB1_369-LJTI1_40
.set L1_40_set_364, LBB1_364-LJTI1_40
.set L1_40_set_370, LBB1_370-LJTI1_40
.set L1_40_set_372, LBB1_372-LJTI1_40
.set L1_40_set_371, LBB1_371-LJTI1_40
LJTI1_40:
	.long	L1_40_set_369
	.long	L1_40_set_364
	.long	L1_40_set_370
	.long	L1_40_set_370
	.long	L1_40_set_372
	.long	L1_40_set_364
	.long	L1_40_set_364
	.long	L1_40_set_364
	.long	L1_40_set_371
.set L1_41_set_378, LBB1_378-LJTI1_41
.set L1_41_set_373, LBB1_373-LJTI1_41
.set L1_41_set_379, LBB1_379-LJTI1_41
.set L1_41_set_381, LBB1_381-LJTI1_41
.set L1_41_set_380, LBB1_380-LJTI1_41
LJTI1_41:
	.long	L1_41_set_378
	.long	L1_41_set_373
	.long	L1_41_set_379
	.long	L1_41_set_379
	.long	L1_41_set_381
	.long	L1_41_set_373
	.long	L1_41_set_373
	.long	L1_41_set_373
	.long	L1_41_set_380
.set L1_42_set_387, LBB1_387-LJTI1_42
.set L1_42_set_382, LBB1_382-LJTI1_42
.set L1_42_set_388, LBB1_388-LJTI1_42
.set L1_42_set_390, LBB1_390-LJTI1_42
.set L1_42_set_389, LBB1_389-LJTI1_42
LJTI1_42:
	.long	L1_42_set_387
	.long	L1_42_set_382
	.long	L1_42_set_388
	.long	L1_42_set_388
	.long	L1_42_set_390
	.long	L1_42_set_382
	.long	L1_42_set_382
	.long	L1_42_set_382
	.long	L1_42_set_389
.set L1_43_set_396, LBB1_396-LJTI1_43
.set L1_43_set_391, LBB1_391-LJTI1_43
.set L1_43_set_397, LBB1_397-LJTI1_43
.set L1_43_set_399, LBB1_399-LJTI1_43
.set L1_43_set_398, LBB1_398-LJTI1_43
LJTI1_43:
	.long	L1_43_set_396
	.long	L1_43_set_391
	.long	L1_43_set_397
	.long	L1_43_set_397
	.long	L1_43_set_399
	.long	L1_43_set_391
	.long	L1_43_set_391
	.long	L1_43_set_391
	.long	L1_43_set_398
.set L1_44_set_405, LBB1_405-LJTI1_44
.set L1_44_set_400, LBB1_400-LJTI1_44
.set L1_44_set_406, LBB1_406-LJTI1_44
.set L1_44_set_408, LBB1_408-LJTI1_44
.set L1_44_set_407, LBB1_407-LJTI1_44
LJTI1_44:
	.long	L1_44_set_405
	.long	L1_44_set_400
	.long	L1_44_set_406
	.long	L1_44_set_406
	.long	L1_44_set_408
	.long	L1_44_set_400
	.long	L1_44_set_400
	.long	L1_44_set_400
	.long	L1_44_set_407
.set L1_45_set_414, LBB1_414-LJTI1_45
.set L1_45_set_409, LBB1_409-LJTI1_45
.set L1_45_set_415, LBB1_415-LJTI1_45
.set L1_45_set_417, LBB1_417-LJTI1_45
.set L1_45_set_416, LBB1_416-LJTI1_45
LJTI1_45:
	.long	L1_45_set_414
	.long	L1_45_set_409
	.long	L1_45_set_415
	.long	L1_45_set_415
	.long	L1_45_set_417
	.long	L1_45_set_409
	.long	L1_45_set_409
	.long	L1_45_set_409
	.long	L1_45_set_416
.set L1_46_set_423, LBB1_423-LJTI1_46
.set L1_46_set_418, LBB1_418-LJTI1_46
.set L1_46_set_424, LBB1_424-LJTI1_46
.set L1_46_set_426, LBB1_426-LJTI1_46
.set L1_46_set_425, LBB1_425-LJTI1_46
LJTI1_46:
	.long	L1_46_set_423
	.long	L1_46_set_418
	.long	L1_46_set_424
	.long	L1_46_set_424
	.long	L1_46_set_426
	.long	L1_46_set_418
	.long	L1_46_set_418
	.long	L1_46_set_418
	.long	L1_46_set_425
.set L1_47_set_432, LBB1_432-LJTI1_47
.set L1_47_set_427, LBB1_427-LJTI1_47
.set L1_47_set_433, LBB1_433-LJTI1_47
.set L1_47_set_435, LBB1_435-LJTI1_47
.set L1_47_set_434, LBB1_434-LJTI1_47
LJTI1_47:
	.long	L1_47_set_432
	.long	L1_47_set_427
	.long	L1_47_set_433
	.long	L1_47_set_433
	.long	L1_47_set_435
	.long	L1_47_set_427
	.long	L1_47_set_427
	.long	L1_47_set_427
	.long	L1_47_set_434
.set L1_48_set_441, LBB1_441-LJTI1_48
.set L1_48_set_436, LBB1_436-LJTI1_48
.set L1_48_set_442, LBB1_442-LJTI1_48
.set L1_48_set_444, LBB1_444-LJTI1_48
.set L1_48_set_443, LBB1_443-LJTI1_48
LJTI1_48:
	.long	L1_48_set_441
	.long	L1_48_set_436
	.long	L1_48_set_442
	.long	L1_48_set_442
	.long	L1_48_set_444
	.long	L1_48_set_436
	.long	L1_48_set_436
	.long	L1_48_set_436
	.long	L1_48_set_443
.set L1_49_set_450, LBB1_450-LJTI1_49
.set L1_49_set_445, LBB1_445-LJTI1_49
.set L1_49_set_451, LBB1_451-LJTI1_49
.set L1_49_set_453, LBB1_453-LJTI1_49
.set L1_49_set_452, LBB1_452-LJTI1_49
LJTI1_49:
	.long	L1_49_set_450
	.long	L1_49_set_445
	.long	L1_49_set_451
	.long	L1_49_set_451
	.long	L1_49_set_453
	.long	L1_49_set_445
	.long	L1_49_set_445
	.long	L1_49_set_445
	.long	L1_49_set_452
.set L1_50_set_459, LBB1_459-LJTI1_50
.set L1_50_set_454, LBB1_454-LJTI1_50
.set L1_50_set_460, LBB1_460-LJTI1_50
.set L1_50_set_462, LBB1_462-LJTI1_50
.set L1_50_set_461, LBB1_461-LJTI1_50
LJTI1_50:
	.long	L1_50_set_459
	.long	L1_50_set_454
	.long	L1_50_set_460
	.long	L1_50_set_460
	.long	L1_50_set_462
	.long	L1_50_set_454
	.long	L1_50_set_454
	.long	L1_50_set_454
	.long	L1_50_set_461
.set L1_51_set_468, LBB1_468-LJTI1_51
.set L1_51_set_463, LBB1_463-LJTI1_51
.set L1_51_set_469, LBB1_469-LJTI1_51
.set L1_51_set_471, LBB1_471-LJTI1_51
.set L1_51_set_470, LBB1_470-LJTI1_51
LJTI1_51:
	.long	L1_51_set_468
	.long	L1_51_set_463
	.long	L1_51_set_469
	.long	L1_51_set_469
	.long	L1_51_set_471
	.long	L1_51_set_463
	.long	L1_51_set_463
	.long	L1_51_set_463
	.long	L1_51_set_470
.set L1_52_set_477, LBB1_477-LJTI1_52
.set L1_52_set_472, LBB1_472-LJTI1_52
.set L1_52_set_478, LBB1_478-LJTI1_52
.set L1_52_set_480, LBB1_480-LJTI1_52
.set L1_52_set_479, LBB1_479-LJTI1_52
LJTI1_52:
	.long	L1_52_set_477
	.long	L1_52_set_472
	.long	L1_52_set_478
	.long	L1_52_set_478
	.long	L1_52_set_480
	.long	L1_52_set_472
	.long	L1_52_set_472
	.long	L1_52_set_472
	.long	L1_52_set_479
.set L1_53_set_486, LBB1_486-LJTI1_53
.set L1_53_set_481, LBB1_481-LJTI1_53
.set L1_53_set_487, LBB1_487-LJTI1_53
.set L1_53_set_489, LBB1_489-LJTI1_53
.set L1_53_set_488, LBB1_488-LJTI1_53
LJTI1_53:
	.long	L1_53_set_486
	.long	L1_53_set_481
	.long	L1_53_set_487
	.long	L1_53_set_487
	.long	L1_53_set_489
	.long	L1_53_set_481
	.long	L1_53_set_481
	.long	L1_53_set_481
	.long	L1_53_set_488
.set L1_54_set_495, LBB1_495-LJTI1_54
.set L1_54_set_490, LBB1_490-LJTI1_54
.set L1_54_set_496, LBB1_496-LJTI1_54
.set L1_54_set_498, LBB1_498-LJTI1_54
.set L1_54_set_497, LBB1_497-LJTI1_54
LJTI1_54:
	.long	L1_54_set_495
	.long	L1_54_set_490
	.long	L1_54_set_496
	.long	L1_54_set_496
	.long	L1_54_set_498
	.long	L1_54_set_490
	.long	L1_54_set_490
	.long	L1_54_set_490
	.long	L1_54_set_497
.set L1_55_set_504, LBB1_504-LJTI1_55
.set L1_55_set_499, LBB1_499-LJTI1_55
.set L1_55_set_505, LBB1_505-LJTI1_55
.set L1_55_set_507, LBB1_507-LJTI1_55
.set L1_55_set_506, LBB1_506-LJTI1_55
LJTI1_55:
	.long	L1_55_set_504
	.long	L1_55_set_499
	.long	L1_55_set_505
	.long	L1_55_set_505
	.long	L1_55_set_507
	.long	L1_55_set_499
	.long	L1_55_set_499
	.long	L1_55_set_499
	.long	L1_55_set_506
.set L1_56_set_513, LBB1_513-LJTI1_56
.set L1_56_set_508, LBB1_508-LJTI1_56
.set L1_56_set_514, LBB1_514-LJTI1_56
.set L1_56_set_516, LBB1_516-LJTI1_56
.set L1_56_set_515, LBB1_515-LJTI1_56
LJTI1_56:
	.long	L1_56_set_513
	.long	L1_56_set_508
	.long	L1_56_set_514
	.long	L1_56_set_514
	.long	L1_56_set_516
	.long	L1_56_set_508
	.long	L1_56_set_508
	.long	L1_56_set_508
	.long	L1_56_set_515
.set L1_57_set_522, LBB1_522-LJTI1_57
.set L1_57_set_517, LBB1_517-LJTI1_57
.set L1_57_set_523, LBB1_523-LJTI1_57
.set L1_57_set_525, LBB1_525-LJTI1_57
.set L1_57_set_524, LBB1_524-LJTI1_57
LJTI1_57:
	.long	L1_57_set_522
	.long	L1_57_set_517
	.long	L1_57_set_523
	.long	L1_57_set_523
	.long	L1_57_set_525
	.long	L1_57_set_517
	.long	L1_57_set_517
	.long	L1_57_set_517
	.long	L1_57_set_524
.set L1_58_set_531, LBB1_531-LJTI1_58
.set L1_58_set_526, LBB1_526-LJTI1_58
.set L1_58_set_532, LBB1_532-LJTI1_58
.set L1_58_set_534, LBB1_534-LJTI1_58
.set L1_58_set_533, LBB1_533-LJTI1_58
LJTI1_58:
	.long	L1_58_set_531
	.long	L1_58_set_526
	.long	L1_58_set_532
	.long	L1_58_set_532
	.long	L1_58_set_534
	.long	L1_58_set_526
	.long	L1_58_set_526
	.long	L1_58_set_526
	.long	L1_58_set_533
.set L1_59_set_540, LBB1_540-LJTI1_59
.set L1_59_set_535, LBB1_535-LJTI1_59
.set L1_59_set_541, LBB1_541-LJTI1_59
.set L1_59_set_543, LBB1_543-LJTI1_59
.set L1_59_set_542, LBB1_542-LJTI1_59
LJTI1_59:
	.long	L1_59_set_540
	.long	L1_59_set_535
	.long	L1_59_set_541
	.long	L1_59_set_541
	.long	L1_59_set_543
	.long	L1_59_set_535
	.long	L1_59_set_535
	.long	L1_59_set_535
	.long	L1_59_set_542
.set L1_60_set_549, LBB1_549-LJTI1_60
.set L1_60_set_544, LBB1_544-LJTI1_60
.set L1_60_set_550, LBB1_550-LJTI1_60
.set L1_60_set_552, LBB1_552-LJTI1_60
.set L1_60_set_551, LBB1_551-LJTI1_60
LJTI1_60:
	.long	L1_60_set_549
	.long	L1_60_set_544
	.long	L1_60_set_550
	.long	L1_60_set_550
	.long	L1_60_set_552
	.long	L1_60_set_544
	.long	L1_60_set_544
	.long	L1_60_set_544
	.long	L1_60_set_551
.set L1_61_set_558, LBB1_558-LJTI1_61
.set L1_61_set_553, LBB1_553-LJTI1_61
.set L1_61_set_559, LBB1_559-LJTI1_61
.set L1_61_set_561, LBB1_561-LJTI1_61
.set L1_61_set_560, LBB1_560-LJTI1_61
LJTI1_61:
	.long	L1_61_set_558
	.long	L1_61_set_553
	.long	L1_61_set_559
	.long	L1_61_set_559
	.long	L1_61_set_561
	.long	L1_61_set_553
	.long	L1_61_set_553
	.long	L1_61_set_553
	.long	L1_61_set_560
.set L1_62_set_567, LBB1_567-LJTI1_62
.set L1_62_set_562, LBB1_562-LJTI1_62
.set L1_62_set_568, LBB1_568-LJTI1_62
.set L1_62_set_570, LBB1_570-LJTI1_62
.set L1_62_set_569, LBB1_569-LJTI1_62
LJTI1_62:
	.long	L1_62_set_567
	.long	L1_62_set_562
	.long	L1_62_set_568
	.long	L1_62_set_568
	.long	L1_62_set_570
	.long	L1_62_set_562
	.long	L1_62_set_562
	.long	L1_62_set_562
	.long	L1_62_set_569
.set L1_63_set_576, LBB1_576-LJTI1_63
.set L1_63_set_571, LBB1_571-LJTI1_63
.set L1_63_set_577, LBB1_577-LJTI1_63
.set L1_63_set_579, LBB1_579-LJTI1_63
.set L1_63_set_578, LBB1_578-LJTI1_63
LJTI1_63:
	.long	L1_63_set_576
	.long	L1_63_set_571
	.long	L1_63_set_577
	.long	L1_63_set_577
	.long	L1_63_set_579
	.long	L1_63_set_571
	.long	L1_63_set_571
	.long	L1_63_set_571
	.long	L1_63_set_578
.set L1_64_set_585, LBB1_585-LJTI1_64
.set L1_64_set_580, LBB1_580-LJTI1_64
.set L1_64_set_586, LBB1_586-LJTI1_64
.set L1_64_set_588, LBB1_588-LJTI1_64
.set L1_64_set_587, LBB1_587-LJTI1_64
LJTI1_64:
	.long	L1_64_set_585
	.long	L1_64_set_580
	.long	L1_64_set_586
	.long	L1_64_set_586
	.long	L1_64_set_588
	.long	L1_64_set_580
	.long	L1_64_set_580
	.long	L1_64_set_580
	.long	L1_64_set_587
.set L1_65_set_594, LBB1_594-LJTI1_65
.set L1_65_set_589, LBB1_589-LJTI1_65
.set L1_65_set_595, LBB1_595-LJTI1_65
.set L1_65_set_597, LBB1_597-LJTI1_65
.set L1_65_set_596, LBB1_596-LJTI1_65
LJTI1_65:
	.long	L1_65_set_594
	.long	L1_65_set_589
	.long	L1_65_set_595
	.long	L1_65_set_595
	.long	L1_65_set_597
	.long	L1_65_set_589
	.long	L1_65_set_589
	.long	L1_65_set_589
	.long	L1_65_set_596
.set L1_66_set_603, LBB1_603-LJTI1_66
.set L1_66_set_598, LBB1_598-LJTI1_66
.set L1_66_set_604, LBB1_604-LJTI1_66
.set L1_66_set_606, LBB1_606-LJTI1_66
.set L1_66_set_605, LBB1_605-LJTI1_66
LJTI1_66:
	.long	L1_66_set_603
	.long	L1_66_set_598
	.long	L1_66_set_604
	.long	L1_66_set_604
	.long	L1_66_set_606
	.long	L1_66_set_598
	.long	L1_66_set_598
	.long	L1_66_set_598
	.long	L1_66_set_605
.set L1_67_set_612, LBB1_612-LJTI1_67
.set L1_67_set_607, LBB1_607-LJTI1_67
.set L1_67_set_613, LBB1_613-LJTI1_67
.set L1_67_set_615, LBB1_615-LJTI1_67
.set L1_67_set_614, LBB1_614-LJTI1_67
LJTI1_67:
	.long	L1_67_set_612
	.long	L1_67_set_607
	.long	L1_67_set_613
	.long	L1_67_set_613
	.long	L1_67_set_615
	.long	L1_67_set_607
	.long	L1_67_set_607
	.long	L1_67_set_607
	.long	L1_67_set_614
.set L1_68_set_621, LBB1_621-LJTI1_68
.set L1_68_set_616, LBB1_616-LJTI1_68
.set L1_68_set_622, LBB1_622-LJTI1_68
.set L1_68_set_624, LBB1_624-LJTI1_68
.set L1_68_set_623, LBB1_623-LJTI1_68
LJTI1_68:
	.long	L1_68_set_621
	.long	L1_68_set_616
	.long	L1_68_set_622
	.long	L1_68_set_622
	.long	L1_68_set_624
	.long	L1_68_set_616
	.long	L1_68_set_616
	.long	L1_68_set_616
	.long	L1_68_set_623
.set L1_69_set_630, LBB1_630-LJTI1_69
.set L1_69_set_625, LBB1_625-LJTI1_69
.set L1_69_set_631, LBB1_631-LJTI1_69
.set L1_69_set_633, LBB1_633-LJTI1_69
.set L1_69_set_632, LBB1_632-LJTI1_69
LJTI1_69:
	.long	L1_69_set_630
	.long	L1_69_set_625
	.long	L1_69_set_631
	.long	L1_69_set_631
	.long	L1_69_set_633
	.long	L1_69_set_625
	.long	L1_69_set_625
	.long	L1_69_set_625
	.long	L1_69_set_632
.set L1_70_set_639, LBB1_639-LJTI1_70
.set L1_70_set_634, LBB1_634-LJTI1_70
.set L1_70_set_640, LBB1_640-LJTI1_70
.set L1_70_set_642, LBB1_642-LJTI1_70
.set L1_70_set_641, LBB1_641-LJTI1_70
LJTI1_70:
	.long	L1_70_set_639
	.long	L1_70_set_634
	.long	L1_70_set_640
	.long	L1_70_set_640
	.long	L1_70_set_642
	.long	L1_70_set_634
	.long	L1_70_set_634
	.long	L1_70_set_634
	.long	L1_70_set_641
.set L1_71_set_648, LBB1_648-LJTI1_71
.set L1_71_set_643, LBB1_643-LJTI1_71
.set L1_71_set_649, LBB1_649-LJTI1_71
.set L1_71_set_651, LBB1_651-LJTI1_71
.set L1_71_set_650, LBB1_650-LJTI1_71
LJTI1_71:
	.long	L1_71_set_648
	.long	L1_71_set_643
	.long	L1_71_set_649
	.long	L1_71_set_649
	.long	L1_71_set_651
	.long	L1_71_set_643
	.long	L1_71_set_643
	.long	L1_71_set_643
	.long	L1_71_set_650
.set L1_72_set_657, LBB1_657-LJTI1_72
.set L1_72_set_652, LBB1_652-LJTI1_72
.set L1_72_set_658, LBB1_658-LJTI1_72
.set L1_72_set_660, LBB1_660-LJTI1_72
.set L1_72_set_659, LBB1_659-LJTI1_72
LJTI1_72:
	.long	L1_72_set_657
	.long	L1_72_set_652
	.long	L1_72_set_658
	.long	L1_72_set_658
	.long	L1_72_set_660
	.long	L1_72_set_652
	.long	L1_72_set_652
	.long	L1_72_set_652
	.long	L1_72_set_659
.set L1_73_set_666, LBB1_666-LJTI1_73
.set L1_73_set_661, LBB1_661-LJTI1_73
.set L1_73_set_667, LBB1_667-LJTI1_73
.set L1_73_set_669, LBB1_669-LJTI1_73
.set L1_73_set_668, LBB1_668-LJTI1_73
LJTI1_73:
	.long	L1_73_set_666
	.long	L1_73_set_661
	.long	L1_73_set_667
	.long	L1_73_set_667
	.long	L1_73_set_669
	.long	L1_73_set_661
	.long	L1_73_set_661
	.long	L1_73_set_661
	.long	L1_73_set_668
.set L1_74_set_675, LBB1_675-LJTI1_74
.set L1_74_set_670, LBB1_670-LJTI1_74
.set L1_74_set_676, LBB1_676-LJTI1_74
.set L1_74_set_678, LBB1_678-LJTI1_74
.set L1_74_set_677, LBB1_677-LJTI1_74
LJTI1_74:
	.long	L1_74_set_675
	.long	L1_74_set_670
	.long	L1_74_set_676
	.long	L1_74_set_676
	.long	L1_74_set_678
	.long	L1_74_set_670
	.long	L1_74_set_670
	.long	L1_74_set_670
	.long	L1_74_set_677
.set L1_75_set_684, LBB1_684-LJTI1_75
.set L1_75_set_679, LBB1_679-LJTI1_75
.set L1_75_set_685, LBB1_685-LJTI1_75
.set L1_75_set_687, LBB1_687-LJTI1_75
.set L1_75_set_686, LBB1_686-LJTI1_75
LJTI1_75:
	.long	L1_75_set_684
	.long	L1_75_set_679
	.long	L1_75_set_685
	.long	L1_75_set_685
	.long	L1_75_set_687
	.long	L1_75_set_679
	.long	L1_75_set_679
	.long	L1_75_set_679
	.long	L1_75_set_686
.set L1_76_set_693, LBB1_693-LJTI1_76
.set L1_76_set_688, LBB1_688-LJTI1_76
.set L1_76_set_694, LBB1_694-LJTI1_76
.set L1_76_set_696, LBB1_696-LJTI1_76
.set L1_76_set_695, LBB1_695-LJTI1_76
LJTI1_76:
	.long	L1_76_set_693
	.long	L1_76_set_688
	.long	L1_76_set_694
	.long	L1_76_set_694
