; ModuleID = 'test130.js'
source_filename = "test130.js"

%"cls.acjs::JsVariant" = type { i32 (...)**, i32, %union.anon.6 }
%union.anon.6 = type { %"cls.acjs::JsVariantFunc", [24 x i8] }
%"cls.acjs::JsVariantFunc" = type { void (%"cls.acjs::JsVariant"*, %"cls.acjs::JsVariant"*, %"cls.acjs::JsVariant"**, i64)*, i32* }
%"cls.acjs::JsVariantNumber" = type <{ i64, double, i8, [16 x i8] }>

@_ZTVN10__cxxabiv117__class_type_infoE = external global i8*
@_ZTSN14altered_carbon2js9JsVariantE = linkonce_odr constant [32 x i8] c"N14altered_carbon2js9JsVariantE\00"
@_ZTIN14altered_carbon2js9JsVariantE = linkonce_odr constant { i8*, i8* } { i8* bitcast (i8** getelementptr inbounds (i8*, i8** @_ZTVN10__cxxabiv117__class_type_infoE, i64 2) to i8*), i8* getelementptr inbounds ([32 x i8], [32 x i8]* @_ZTSN14altered_carbon2js9JsVariantE, i32 0, i32 0) }
@_ZTVN14altered_carbon2js9JsVariantE = linkonce_odr unnamed_addr constant { [4 x i8*] } { [4 x i8*] [i8* null, i8* bitcast ({ i8*, i8* }* @_ZTIN14altered_carbon2js9JsVariantE to i8*), i8* bitcast (void (%"cls.acjs::JsVariant"*)* @_ZN14altered_carbon2js9JsVariantD1Ev to i8*), i8* bitcast (void (%"cls.acjs::JsVariant"*)* @_ZN14altered_carbon2js9JsVariantD0Ev to i8*)] }, align 8
@_ZN14altered_carbon2js11JsConstants9UndefinedE = external constant %"cls.acjs::JsVariant"
@_ZN14altered_carbon2js11JsConstants4NullE = external constant %"cls.acjs::JsVariant"
@_ZN14altered_carbon2js11JsConstants3NaNE = external constant %"cls.acjs::JsVariant"
@_ZN14altered_carbon2js11JsConstants8InfinityE = external constant %"cls.acjs::JsVariant"
@_ZN14altered_carbon2js11JsConstants9TypeErrorE = external constant %"cls.acjs::JsVariant"
@_ZN14altered_carbon2js11JsConstants16NullPointerErrorE = external constant %"cls.acjs::JsVariant"

declare void @_ZN14altered_carbon2js9JsVariantD1Ev(%"cls.acjs::JsVariant"*)

declare void @_ZN14altered_carbon2js9JsVariantD0Ev(%"cls.acjs::JsVariant"*)

declare dereferenceable(56) %"cls.acjs::JsVariant"* @_ZNK14altered_carbon2js9JsVariant3bwaEPS1_RKS1_(%"cls.acjs::JsVariant"*, %"cls.acjs::JsVariant"*, %"cls.acjs::JsVariant"* dereferenceable(56))

declare dereferenceable(56) %"cls.acjs::JsVariant"* @_ZNK14altered_carbon2js9JsVariant3bwxEPS1_RKS1_(%"cls.acjs::JsVariant"*, %"cls.acjs::JsVariant"*, %"cls.acjs::JsVariant"* dereferenceable(56))

declare zeroext i1 @_ZNK14altered_carbon2js9JsVarianteqERKS1_(%"cls.acjs::JsVariant"*, %"cls.acjs::JsVariant"* dereferenceable(56))

declare zeroext i1 @_ZNK14altered_carbon2js9JsVariantneERKS1_(%"cls.acjs::JsVariant"*, %"cls.acjs::JsVariant"* dereferenceable(56))

declare zeroext i1 @_ZNK14altered_carbon2js9JsVariant4eqvtERKS1_(%"cls.acjs::JsVariant"*, %"cls.acjs::JsVariant"* dereferenceable(56))

declare zeroext i1 @_ZNK14altered_carbon2js9JsVariant4nevtERKS1_(%"cls.acjs::JsVariant"*, %"cls.acjs::JsVariant"* dereferenceable(56))

declare zeroext i1 @_ZNK14altered_carbon2js9JsVariantltERKS1_(%"cls.acjs::JsVariant"*, %"cls.acjs::JsVariant"* dereferenceable(56))

declare zeroext i1 @_ZNK14altered_carbon2js9JsVariantgtERKS1_(%"cls.acjs::JsVariant"*, %"cls.acjs::JsVariant"* dereferenceable(56))

declare zeroext i1 @_ZNK14altered_carbon2js9JsVariantleERKS1_(%"cls.acjs::JsVariant"*, %"cls.acjs::JsVariant"* dereferenceable(56))

declare zeroext i1 @_ZNK14altered_carbon2js9JsVariantgeERKS1_(%"cls.acjs::JsVariant"*, %"cls.acjs::JsVariant"* dereferenceable(56))

declare dereferenceable(56) %"cls.acjs::JsVariant"* @_ZNK14altered_carbon2js9JsVariant3ltsEPS1_RKS1_(%"cls.acjs::JsVariant"*, %"cls.acjs::JsVariant"*, %"cls.acjs::JsVariant"* dereferenceable(56))

declare dereferenceable(56) %"cls.acjs::JsVariant"* @_ZNK14altered_carbon2js9JsVariant3rtsEPS1_RKS1_(%"cls.acjs::JsVariant"*, %"cls.acjs::JsVariant"*, %"cls.acjs::JsVariant"* dereferenceable(56))

declare dereferenceable(56) %"cls.acjs::JsVariant"* @_ZNK14altered_carbon2js9JsVariant3rszEPS1_RKS1_(%"cls.acjs::JsVariant"*, %"cls.acjs::JsVariant"*, %"cls.acjs::JsVariant"* dereferenceable(56))

declare dereferenceable(56) %"cls.acjs::JsVariant"* @_ZNK14altered_carbon2js9JsVariant3addEPS1_RKS1_(%"cls.acjs::JsVariant"*, %"cls.acjs::JsVariant"*, %"cls.acjs::JsVariant"* dereferenceable(56))

declare void @_ZN14altered_carbon2js9JsVariantpsEv(%"cls.acjs::JsVariant"* noalias sret, %"cls.acjs::JsVariant"*)

declare dereferenceable(56) %"cls.acjs::JsVariant"* @_ZNK14altered_carbon2js9JsVariant3subEPS1_RKS1_(%"cls.acjs::JsVariant"*, %"cls.acjs::JsVariant"*, %"cls.acjs::JsVariant"* dereferenceable(56))

declare void @_ZN14altered_carbon2js9JsVariantngEv(%"cls.acjs::JsVariant"* noalias sret, %"cls.acjs::JsVariant"*)

declare dereferenceable(56) %"cls.acjs::JsVariant"* @_ZNK14altered_carbon2js9JsVariant3mulEPS1_RKS1_(%"cls.acjs::JsVariant"*, %"cls.acjs::JsVariant"*, %"cls.acjs::JsVariant"* dereferenceable(56))

declare dereferenceable(56) %"cls.acjs::JsVariant"* @_ZNK14altered_carbon2js9JsVariant3divEPS1_RKS1_(%"cls.acjs::JsVariant"*, %"cls.acjs::JsVariant"*, %"cls.acjs::JsVariant"* dereferenceable(56))

declare dereferenceable(56) %"cls.acjs::JsVariant"* @_ZNK14altered_carbon2js9JsVariant3modEPS1_RKS1_(%"cls.acjs::JsVariant"*, %"cls.acjs::JsVariant"*, %"cls.acjs::JsVariant"* dereferenceable(56))

declare void @_ZN14altered_carbon2js9JsVariantcoEv(%"cls.acjs::JsVariant"* noalias sret, %"cls.acjs::JsVariant"*)

declare void @_ZN14altered_carbon2js9JsVariantppEi(%"cls.acjs::JsVariant"* noalias sret, %"cls.acjs::JsVariant"*, i32)

declare dereferenceable(56) %"cls.acjs::JsVariant"* @_ZN14altered_carbon2js9JsVariantppEv(%"cls.acjs::JsVariant"*)

declare void @_ZN14altered_carbon2js9JsVariantmmEi(%"cls.acjs::JsVariant"* noalias sret, %"cls.acjs::JsVariant"*, i32)

declare dereferenceable(56) %"cls.acjs::JsVariant"* @_ZN14altered_carbon2js9JsVariantmmEv(%"cls.acjs::JsVariant"*)

declare dereferenceable(56) %"cls.acjs::JsVariant"* @_ZN14altered_carbon2js9JsVariantaSERKS1_(%"cls.acjs::JsVariant"*, %"cls.acjs::JsVariant"* dereferenceable(56))

declare dereferenceable(56) %"cls.acjs::JsVariant"* @_ZN14altered_carbon2js9JsVariantpLERKS1_(%"cls.acjs::JsVariant"*, %"cls.acjs::JsVariant"* dereferenceable(56))

declare dereferenceable(56) %"cls.acjs::JsVariant"* @_ZN14altered_carbon2js9JsVariantmIERKS1_(%"cls.acjs::JsVariant"*, %"cls.acjs::JsVariant"* dereferenceable(56))

declare dereferenceable(56) %"cls.acjs::JsVariant"* @_ZN14altered_carbon2js9JsVariantmLERKS1_(%"cls.acjs::JsVariant"*, %"cls.acjs::JsVariant"* dereferenceable(56))

declare dereferenceable(56) %"cls.acjs::JsVariant"* @_ZN14altered_carbon2js9JsVariantdVERKS1_(%"cls.acjs::JsVariant"*, %"cls.acjs::JsVariant"* dereferenceable(56))

declare dereferenceable(56) %"cls.acjs::JsVariant"* @_ZN14altered_carbon2js9JsVariantrMERKS1_(%"cls.acjs::JsVariant"*, %"cls.acjs::JsVariant"* dereferenceable(56))

declare dereferenceable(56) %"cls.acjs::JsVariant"* @_ZN14altered_carbon2js9JsVariantlSERKS1_(%"cls.acjs::JsVariant"*, %"cls.acjs::JsVariant"* dereferenceable(56))

declare dereferenceable(56) %"cls.acjs::JsVariant"* @_ZN14altered_carbon2js9JsVariantrSERKS1_(%"cls.acjs::JsVariant"*, %"cls.acjs::JsVariant"* dereferenceable(56))

declare dereferenceable(56) %"cls.acjs::JsVariant"* @_ZN14altered_carbon2js9JsVariant4arszERKS1_(%"cls.acjs::JsVariant"*, %"cls.acjs::JsVariant"* dereferenceable(56))

declare dereferenceable(56) %"cls.acjs::JsVariant"* @_ZN14altered_carbon2js9JsVariantaNERKS1_(%"cls.acjs::JsVariant"*, %"cls.acjs::JsVariant"* dereferenceable(56))

declare dereferenceable(56) %"cls.acjs::JsVariant"* @_ZN14altered_carbon2js9JsVariantoRERKS1_(%"cls.acjs::JsVariant"*, %"cls.acjs::JsVariant"* dereferenceable(56))

declare dereferenceable(56) %"cls.acjs::JsVariant"* @_ZN14altered_carbon2js9JsVarianteOERKS1_(%"cls.acjs::JsVariant"*, %"cls.acjs::JsVariant"* dereferenceable(56))

define void @_Z7_scriptPN14altered_carbon2js9JsVariantE(%"cls.acjs::JsVariant"*) {
init.bb:
  %ptr = alloca %"cls.acjs::JsVariant", align 8
  %1 = bitcast %"cls.acjs::JsVariant"* %ptr to i32 (...)***
  store i32 (...)** bitcast (i8** getelementptr inbounds ({ [4 x i8*] }, { [4 x i8*] }* @_ZTVN14altered_carbon2js9JsVariantE, i32 0, inrange i32 0, i32 2) to i32 (...)**), i32 (...)*** %1, align 8
  %2 = getelementptr inbounds %"cls.acjs::JsVariant", %"cls.acjs::JsVariant"* %ptr, i32 0, i32 1
  store i32 1, i32* %2, align 8
  %ptr1 = alloca %"cls.acjs::JsVariant", align 8
  %3 = bitcast %"cls.acjs::JsVariant"* %ptr1 to i32 (...)***
  store i32 (...)** bitcast (i8** getelementptr inbounds ({ [4 x i8*] }, { [4 x i8*] }* @_ZTVN14altered_carbon2js9JsVariantE, i32 0, inrange i32 0, i32 2) to i32 (...)**), i32 (...)*** %3, align 8
  %4 = getelementptr inbounds %"cls.acjs::JsVariant", %"cls.acjs::JsVariant"* %ptr1, i32 0, i32 1
  store i32 1, i32* %4, align 8
  %ptr2 = alloca %"cls.acjs::JsVariant", align 8
  %5 = bitcast %"cls.acjs::JsVariant"* %ptr2 to i32 (...)***
  store i32 (...)** bitcast (i8** getelementptr inbounds ({ [4 x i8*] }, { [4 x i8*] }* @_ZTVN14altered_carbon2js9JsVariantE, i32 0, inrange i32 0, i32 2) to i32 (...)**), i32 (...)*** %5, align 8
  %6 = getelementptr inbounds %"cls.acjs::JsVariant", %"cls.acjs::JsVariant"* %ptr2, i32 0, i32 1
  store i32 1, i32* %6, align 8
  br label %exec.bb

exec.bb:                                          ; preds = %init.bb
  %7 = getelementptr inbounds %"cls.acjs::JsVariant", %"cls.acjs::JsVariant"* %ptr, i32 0, i32 1
  %8 = load i32, i32* %7, align 8
  %9 = icmp sle i32 %8, 6
  br i1 %9, label %assign.bb, label %fallback.bb

exit.bb:                                          ; preds = %copy.bbe
  %10 = call %"cls.acjs::JsVariant"* @_ZN14altered_carbon2js9JsVariantaSERKS1_(%"cls.acjs::JsVariant"* %0, %"cls.acjs::JsVariant"* dereferenceable(56) %ptr2)
  call void @_ZN14altered_carbon2js9JsVariantD1Ev(%"cls.acjs::JsVariant"* %ptr2)
  call void @_ZN14altered_carbon2js9JsVariantD1Ev(%"cls.acjs::JsVariant"* %ptr1)
  call void @_ZN14altered_carbon2js9JsVariantD1Ev(%"cls.acjs::JsVariant"* %ptr)
  ret void

assign.bb:                                        ; preds = %exec.bb
  store i32 2, i32* %7, align 8
  %11 = getelementptr inbounds %"cls.acjs::JsVariant", %"cls.acjs::JsVariant"* %ptr, i32 0, i32 2
  %12 = bitcast %union.anon.6* %11 to %"cls.acjs::JsVariantNumber"*
  %13 = getelementptr inbounds %"cls.acjs::JsVariantNumber", %"cls.acjs::JsVariantNumber"* %12, i32 0, i32 0
  %14 = getelementptr inbounds %"cls.acjs::JsVariantNumber", %"cls.acjs::JsVariantNumber"* %12, i32 0, i32 1
  %15 = getelementptr inbounds %"cls.acjs::JsVariantNumber", %"cls.acjs::JsVariantNumber"* %12, i32 0, i32 2
  store i64 1, i64* %13, align 8
  store double 1.000000e+00, double* %14, align 8
  store i8 1, i8* %15, align 8
  br label %assign.bbe

assign.bbe:                                       ; preds = %fallback.bb, %assign.bb
  %assignee = phi %"cls.acjs::JsVariant"* [ %ptr, %assign.bb ], [ %ptr, %fallback.bb ]
  %16 = call %"cls.acjs::JsVariant"* @_ZN14altered_carbon2js9JsVariantaSEx(%"cls.acjs::JsVariant"* %ptr1, i64 1)
  %17 = call %"cls.acjs::JsVariant"* @_ZN14altered_carbon2js9JsVariantpLERKS1_(%"cls.acjs::JsVariant"* %ptr, %"cls.acjs::JsVariant"* %ptr1)
  %18 = getelementptr inbounds %"cls.acjs::JsVariant", %"cls.acjs::JsVariant"* %ptr2, i32 0, i32 1
  %19 = load i32, i32* %18, align 8
  %20 = icmp sle i32 %19, 6
  %21 = getelementptr inbounds %"cls.acjs::JsVariant", %"cls.acjs::JsVariant"* %ptr, i32 0, i32 1
  %22 = load i32, i32* %21, align 8
  %23 = icmp sle i32 %22, 6
  %24 = and i1 %20, %23
  br i1 %24, label %copy.bb, label %fallback.bb3

fallback.bb:                                      ; preds = %exec.bb
  %25 = call %"cls.acjs::JsVariant"* @_ZN14altered_carbon2js9JsVariantaSEx(%"cls.acjs::JsVariant"* %ptr, i64 1)
  br label %assign.bbe

copy.bb:                                          ; preds = %assign.bbe
  switch i32 %22, label %fallback.bb3 [
    i32 -2, label %caseerr.bb
    i32 0, label %casenul_unf.bb
    i32 1, label %casenul_unf.bb
    i32 6, label %casebln.bb
    i32 2, label %casenum.bb
  ]

copy.bbe:                                         ; preds = %fallback.bb3, %casenum.bb, %casebln.bb, %casenul_unf.bb, %caseerr.bb
  br label %exit.bb

fallback.bb3:                                     ; preds = %copy.bb, %assign.bbe
  %26 = call %"cls.acjs::JsVariant"* @_ZN14altered_carbon2js9JsVariantaSERKS1_(%"cls.acjs::JsVariant"* %ptr2, %"cls.acjs::JsVariant"* %ptr)
  br label %copy.bbe

caseerr.bb:                                       ; preds = %copy.bb
  store i32 %22, i32* %18, align 8
  %27 = getelementptr inbounds %"cls.acjs::JsVariant", %"cls.acjs::JsVariant"* %ptr, i32 0, i32 2
  %28 = bitcast %union.anon.6* %27 to i8**
  %29 = load i8*, i8** %28, align 8
  %30 = getelementptr inbounds %"cls.acjs::JsVariant", %"cls.acjs::JsVariant"* %ptr2, i32 0, i32 2
  %31 = bitcast %union.anon.6* %30 to i8**
  store i8* %29, i8** %31, align 8
  br label %copy.bbe

casenul_unf.bb:                                   ; preds = %copy.bb, %copy.bb
  store i32 %22, i32* %18, align 8
  br label %copy.bbe

casebln.bb:                                       ; preds = %copy.bb
  store i32 %22, i32* %18, align 8
  %32 = getelementptr inbounds %"cls.acjs::JsVariant", %"cls.acjs::JsVariant"* %ptr, i32 0, i32 2
  %33 = bitcast %union.anon.6* %32 to i8*
  %34 = load i8, i8* %33, align 8
  %35 = getelementptr inbounds %"cls.acjs::JsVariant", %"cls.acjs::JsVariant"* %ptr2, i32 0, i32 2
  %36 = bitcast %union.anon.6* %35 to i8*
  store i8 %34, i8* %36, align 1
  br label %copy.bbe

casenum.bb:                                       ; preds = %copy.bb
  store i32 %22, i32* %18, align 8
  %37 = getelementptr inbounds %"cls.acjs::JsVariant", %"cls.acjs::JsVariant"* %ptr, i32 0, i32 2
  %38 = bitcast %union.anon.6* %37 to %"cls.acjs::JsVariantNumber"*
  %39 = getelementptr inbounds %"cls.acjs::JsVariantNumber", %"cls.acjs::JsVariantNumber"* %38, i32 0, i32 0
  %40 = load i64, i64* %39, align 8
  %41 = getelementptr inbounds %"cls.acjs::JsVariantNumber", %"cls.acjs::JsVariantNumber"* %38, i32 0, i32 1
  %42 = load double, double* %41, align 8
  %43 = getelementptr inbounds %"cls.acjs::JsVariantNumber", %"cls.acjs::JsVariantNumber"* %38, i32 0, i32 2
  %44 = load i8, i8* %43, align 8
  %45 = getelementptr inbounds %"cls.acjs::JsVariant", %"cls.acjs::JsVariant"* %ptr2, i32 0, i32 2
  %46 = bitcast %union.anon.6* %45 to %"cls.acjs::JsVariantNumber"*
  %47 = getelementptr inbounds %"cls.acjs::JsVariantNumber", %"cls.acjs::JsVariantNumber"* %46, i32 0, i32 0
  store i64 %40, i64* %47, align 8
  %48 = getelementptr inbounds %"cls.acjs::JsVariantNumber", %"cls.acjs::JsVariantNumber"* %46, i32 0, i32 1
  store double %42, double* %48, align 8
  %49 = getelementptr inbounds %"cls.acjs::JsVariantNumber", %"cls.acjs::JsVariantNumber"* %46, i32 0, i32 2
  store i8 %44, i8* %49, align 8
  br label %copy.bbe
}

declare %"cls.acjs::JsVariant"* @_ZN14altered_carbon2js9JsVariantaSEx(%"cls.acjs::JsVariant"*, i64)
