; ModuleID = 'temp.bc'
source_filename = "ac_vm_jsvariant.cc"
target datalayout = "e-m:o-i64:64-f80:128-n8:16:32:64-S128"
target triple = "x86_64-apple-macosx10.13.0"

%"class.altered_carbon::js::JsVariant" = type { i32 (...)**, i32, %union.anon }
%union.anon = type { %"struct.altered_carbon::js::JsVariantFunc", [16 x i8] }
%"struct.altered_carbon::js::JsVariantFunc" = type { void (%"class.altered_carbon::js::JsVariant"*, %"class.altered_carbon::js::JsVariant"*, %"class.altered_carbon::js::JsVariant"**, i64)*, i32*, %"class.altered_carbon::js::RefCounted.13"* }
%"class.altered_carbon::js::RefCounted.13" = type { %"class.altered_carbon::js::JsVariantObject", %"struct.altered_carbon::js::RefCounter" }
%"class.altered_carbon::js::JsVariantObject" = type { %"class.std::__1::basic_string", %"class.std::__1::map" }
%"class.std::__1::basic_string" = type { %"class.std::__1::__compressed_pair" }
%"class.std::__1::__compressed_pair" = type { %"struct.std::__1::__compressed_pair_elem" }
%"struct.std::__1::__compressed_pair_elem" = type { %"struct.std::__1::basic_string<wchar_t, std::__1::char_traits<wchar_t>, std::__1::allocator<wchar_t> >::__rep" }
%"struct.std::__1::basic_string<wchar_t, std::__1::char_traits<wchar_t>, std::__1::allocator<wchar_t> >::__rep" = type { %union.anon.0 }
%union.anon.0 = type { %"struct.std::__1::basic_string<wchar_t, std::__1::char_traits<wchar_t>, std::__1::allocator<wchar_t> >::__long" }
%"struct.std::__1::basic_string<wchar_t, std::__1::char_traits<wchar_t>, std::__1::allocator<wchar_t> >::__long" = type { i64, i64, i32* }
%"class.std::__1::map" = type { %"class.std::__1::__tree" }
%"class.std::__1::__tree" = type { %"class.std::__1::__tree_end_node"*, %"class.std::__1::__compressed_pair.14", %"class.std::__1::__compressed_pair.19" }
%"class.std::__1::__tree_end_node" = type { %"class.std::__1::__tree_node_base"* }
%"class.std::__1::__tree_node_base" = type <{ %"class.std::__1::__tree_end_node", %"class.std::__1::__tree_node_base"*, %"class.std::__1::__tree_end_node"*, i8, [7 x i8] }>
%"class.std::__1::__compressed_pair.14" = type { %"struct.std::__1::__compressed_pair_elem.15" }
%"struct.std::__1::__compressed_pair_elem.15" = type { %"class.std::__1::__tree_end_node" }
%"class.std::__1::__compressed_pair.19" = type { %"struct.std::__1::__compressed_pair_elem.20" }
%"struct.std::__1::__compressed_pair_elem.20" = type { i64 }
%"struct.altered_carbon::js::RefCounter" = type { %"struct.std::__1::atomic" }
%"struct.std::__1::atomic" = type { %"struct.std::__1::__atomic_base" }
%"struct.std::__1::__atomic_base" = type { %"struct.std::__1::__atomic_base.3" }
%"struct.std::__1::__atomic_base.3" = type { i64 }
%"struct.altered_carbon::js::JsVariantIterator" = type { %"class.altered_carbon::js::RefCountedPtr.22", %"class.altered_carbon::js::RBTreeNode"*, i32, i32 }
%"class.altered_carbon::js::RefCountedPtr.22" = type { %"class.altered_carbon::js::RefCounted.23"* }
%"class.altered_carbon::js::RefCounted.23" = type { %"class.altered_carbon::js::JsVariantArray", %"struct.altered_carbon::js::RefCounter" }
%"class.altered_carbon::js::JsVariantArray" = type { i32 (...)**, %"class.altered_carbon::js::RBTreeNode"*, %"class.altered_carbon::js::RefCounted.13"* }
%"class.altered_carbon::js::RBTreeNode" = type { i32 (...)**, i32, i32, i32, i32, %"class.altered_carbon::js::RBTreeNode"*, %"class.altered_carbon::js::RBTreeNode"*, %"class.altered_carbon::js::RBTreeNode"*, %"class.std::__1::vector" }
%"class.std::__1::vector" = type { %"class.std::__1::__vector_base" }
%"class.std::__1::__vector_base" = type { %"class.altered_carbon::js::JsVariant"**, %"class.altered_carbon::js::JsVariant"**, %"class.std::__1::__compressed_pair.24" }
%"class.std::__1::__compressed_pair.24" = type { %"struct.std::__1::__compressed_pair_elem.25" }
%"struct.std::__1::__compressed_pair_elem.25" = type { %"class.altered_carbon::js::JsVariant"** }
%"class.std::__1::locale::id" = type <{ %"struct.std::__1::once_flag", i32, [4 x i8] }>
%"struct.std::__1::once_flag" = type { i64 }
%"class.std::__1::basic_ostream" = type { i32 (...)**, %"class.std::__1::basic_ios.base" }
%"class.std::__1::basic_ios.base" = type <{ %"class.std::__1::ios_base", %"class.std::__1::basic_ostream"*, i32 }>
%"class.std::__1::ios_base" = type { i32 (...)**, i32, i64, i64, i32, i32, i8*, i8*, void (i32, %"class.std::__1::ios_base"*, i32)**, i32*, i64, i64, i64*, i64, i64, i8**, i64, i64 }
%"struct.std::__1::__compressed_pair_elem.35" = type { i8 }
%"class.std::__1::__compressed_pair.33" = type { %"struct.std::__1::__compressed_pair_elem.34" }
%"struct.std::__1::__compressed_pair_elem.34" = type { %"class.altered_carbon::js::RefCounted.23"* }
%"struct.std::__1::default_delete.36" = type { i8 }
%"class.std::__1::unique_ptr.32" = type { %"class.std::__1::__compressed_pair.33" }
%"struct.std::__1::__compressed_pair_elem.31" = type { i8 }
%"class.std::__1::__compressed_pair.29" = type { %"struct.std::__1::__compressed_pair_elem.30" }
%"struct.std::__1::__compressed_pair_elem.30" = type { %"class.altered_carbon::js::RefCounted"* }
%"class.altered_carbon::js::RefCounted" = type { %"class.std::__1::basic_string", %"struct.altered_carbon::js::RefCounter" }
%"struct.std::__1::default_delete" = type { i8 }
%"class.std::__1::unique_ptr" = type { %"class.std::__1::__compressed_pair.29" }
%"class.altered_carbon::js::RefCountedPtr" = type { %"class.altered_carbon::js::RefCounted"* }
%"class.altered_carbon::js::RefCountedPtr.12" = type { %"class.altered_carbon::js::RefCounted.13"* }
%"class.std::__1::allocator" = type { i8 }
%"struct.std::__1::__compressed_pair_elem.2" = type { i8 }
%"class.std::__1::__basic_string_common" = type { i8 }
%"struct.altered_carbon::js::JsVariantNumber" = type <{ i64, double, i8, [7 x i8] }>
%"class.altered_carbon::js::ACLexRegex" = type <{ i32 (...)**, %"class.std::__1::basic_string.4", i8, i8, i8, [5 x i8] }>
%"class.std::__1::basic_string.4" = type { %"class.std::__1::__compressed_pair.5" }
%"class.std::__1::__compressed_pair.5" = type { %"struct.std::__1::__compressed_pair_elem.6" }
%"struct.std::__1::__compressed_pair_elem.6" = type { %"struct.std::__1::basic_string<char, std::__1::char_traits<char>, std::__1::allocator<char> >::__rep" }
%"struct.std::__1::basic_string<char, std::__1::char_traits<char>, std::__1::allocator<char> >::__rep" = type { %union.anon.7 }
%union.anon.7 = type { %"struct.std::__1::basic_string<char, std::__1::char_traits<char>, std::__1::allocator<char> >::__long" }
%"struct.std::__1::basic_string<char, std::__1::char_traits<char>, std::__1::allocator<char> >::__long" = type { i64, i64, i8* }
%"struct.std::__1::basic_string<wchar_t, std::__1::char_traits<wchar_t>, std::__1::allocator<wchar_t> >::__short" = type { %union.anon.1, [5 x i32] }
%union.anon.1 = type { i32 }
%"class.llvm::ArrayRef" = type { %"class.altered_carbon::js::JsVariant"**, i64 }
%"class.std::__1::basic_string_view" = type { i32*, i64 }
%"struct.std::__1::__less" = type { i8 }
%"struct.std::__1::__compressed_pair_elem.42" = type { %"class.altered_carbon::js::RBTreeNode"* }
%"class.std::__1::__compressed_pair.41" = type { %"struct.std::__1::__compressed_pair_elem.42" }
%"class.std::__1::unique_ptr.40" = type { %"class.std::__1::__compressed_pair.41" }
%"struct.std::__1::__compressed_pair_elem.43" = type { i8 }
%"struct.std::__1::default_delete.44" = type { i8 }
%"struct.std::__1::__compressed_pair_elem.26" = type { i8 }
%"class.std::__1::allocator.27" = type { i8 }
%"struct.std::__1::integral_constant" = type { i8 }
%"struct.std::__1::__has_construct" = type { i8 }
%"struct.std::__1::vector<altered_carbon::js::JsVariant *, std::__1::allocator<altered_carbon::js::JsVariant *> >::__RAII_IncreaseAnnotator" = type { i8 }
%"struct.std::__1::__has_construct.51" = type { i8 }
%"class.std::__1::__wrap_iter" = type { %"class.altered_carbon::js::JsVariant"** }
%"class.std::__1::__wrap_iter.38" = type { %"class.altered_carbon::js::JsVariant"** }
%"struct.std::__1::__has_destroy" = type { i8 }
%"class.llvm::Value" = type opaque
%"class.llvm::ArrayRef.39" = type { %"class.llvm::Value"**, i64 }
%"class.std::__1::__vector_base_common" = type { i8 }
%"class.std::__1::ctype" = type <{ %"class.std::__1::locale::facet", i32*, i8, [7 x i8] }>
%"class.std::__1::locale::facet" = type { %"class.std::__1::__shared_count" }
%"class.std::__1::__shared_count" = type { i32 (...)**, i64 }
%"class.std::__1::locale" = type { %"class.std::__1::locale::__imp"* }
%"class.std::__1::locale::__imp" = type opaque
%"class.std::__1::basic_ios" = type <{ %"class.std::__1::ios_base", %"class.std::__1::basic_ostream"*, i32, [4 x i8] }>
%"class.std::__1::ostreambuf_iterator" = type { %"class.std::__1::basic_streambuf"* }
%"class.std::__1::basic_streambuf" = type { i32 (...)**, %"class.std::__1::locale", i8*, i8*, i8*, i8*, i8*, i8* }
%"class.std::__1::basic_ostream<char, std::__1::char_traits<char> >::sentry" = type { i8, %"class.std::__1::basic_ostream"* }
%"struct.std::__1::iterator" = type { i8 }
%"class.std::__1::allocator.10" = type { i8 }
%"struct.std::__1::__compressed_pair_elem.9" = type { i8 }
%"struct.std::__1::basic_string<char, std::__1::char_traits<char>, std::__1::allocator<char> >::__short" = type { %union.anon.8, [23 x i8] }
%union.anon.8 = type { i8 }
%"class.std::__1::__tree_node" = type { %"class.std::__1::__tree_node_base.base", %"union.std::__1::__value_type" }
%"class.std::__1::__tree_node_base.base" = type <{ %"class.std::__1::__tree_end_node", %"class.std::__1::__tree_node_base"*, %"class.std::__1::__tree_end_node"*, i8 }>
%"union.std::__1::__value_type" = type { %"struct.std::__1::pair" }
%"struct.std::__1::pair" = type { %"class.std::__1::basic_string", %"class.altered_carbon::js::JsVariant"* }
%"struct.std::__1::__compressed_pair_elem.16" = type { i8 }
%"class.std::__1::allocator.17" = type { i8 }
%"struct.std::__1::integral_constant.47" = type { i8 }
%"struct.std::__1::__has_destroy.48" = type { i8 }
%"struct.std::__1::__split_buffer" = type { %"class.altered_carbon::js::JsVariant"**, %"class.altered_carbon::js::JsVariant"**, %"class.altered_carbon::js::JsVariant"**, %"class.std::__1::__compressed_pair.49" }
%"class.std::__1::__compressed_pair.49" = type { %"struct.std::__1::__compressed_pair_elem.25", %"struct.std::__1::__compressed_pair_elem.50" }
%"struct.std::__1::__compressed_pair_elem.50" = type { %"class.std::__1::allocator.27"* }
%"struct.std::__1::__has_max_size" = type { i8 }
%"class.std::__1::__split_buffer_common" = type { i8 }

@_ZTVN14altered_carbon2js9JsVariantE = unnamed_addr constant { [4 x i8*] } { [4 x i8*] [i8* null, i8* bitcast ({ i8*, i8* }* @_ZTIN14altered_carbon2js9JsVariantE to i8*), i8* bitcast (void (%"class.altered_carbon::js::JsVariant"*)* @_ZN14altered_carbon2js9JsVariantD1Ev to i8*), i8* bitcast (void (%"class.altered_carbon::js::JsVariant"*)* @_ZN14altered_carbon2js9JsVariantD0Ev to i8*)] }, align 8
@.str = private unnamed_addr constant [1 x i32] zeroinitializer, align 4
@__func__._ZN14altered_carbon2js9JsVariantC2ENS1_13JsVariantTypeEPS1_ = private unnamed_addr constant [10 x i8] c"JsVariant\00", align 1
@.str.1 = private unnamed_addr constant [19 x i8] c"ac_vm_jsvariant.cc\00", align 1
@.str.2 = private unnamed_addr constant [4 x i8] c"!!v\00", align 1
@.str.3 = private unnamed_addr constant [47 x i8] c"false && \22Invalid construction of a new array\22\00", align 1
@.str.4 = private unnamed_addr constant [48 x i8] c"false && \22Invalid construction of a new object\22\00", align 1
@.str.5 = private unnamed_addr constant [6 x i8] c"false\00", align 1
@.str.6 = private unnamed_addr constant [17 x i8] c"!!v.wst_r_.get()\00", align 1
@.str.7 = private unnamed_addr constant [6 x i8] c"[ACJ]\00", align 1
@.str.8 = private unnamed_addr constant [6 x i8] c"empty\00", align 1
@.str.9 = private unnamed_addr constant [10 x i8] c"undefined\00", align 1
@.str.10 = private unnamed_addr constant [5 x i8] c"null\00", align 1
@.str.11 = private unnamed_addr constant [5 x i8] c"true\00", align 1
@.str.12 = private unnamed_addr constant [4 x i8] c"(I)\00", align 1
@.str.13 = private unnamed_addr constant [4 x i8] c"(R)\00", align 1
@.str.14 = private unnamed_addr constant [20 x i8] c"(JSSTRING length = \00", align 1
@.str.15 = private unnamed_addr constant [2 x i8] c")\00", align 1
@.str.16 = private unnamed_addr constant [11 x i8] c"(JSERROR: \00", align 1
@.str.17 = private unnamed_addr constant [5 x i8] c"func\00", align 1
@.str.18 = private unnamed_addr constant [6 x i8] c"...()\00", align 1
@.str.19 = private unnamed_addr constant [14 x i8] c"*anonymous*()\00", align 1
@.str.20 = private unnamed_addr constant [3 x i8] c"{}\00", align 1
@.str.21 = private unnamed_addr constant [25 x i8] c"Object shouldn't be null\00", align 1
@__func__._ZNK14altered_carbon2js9JsVariant4dumpERNSt3__113basic_ostreamIcNS2_11char_traitsIcEEEE = private unnamed_addr constant [5 x i8] c"dump\00", align 1
@.str.22 = private unnamed_addr constant [45 x i8] c"!!obj_r_.get() && \22Object shouldn't be null\22\00", align 1
@.str.23 = private unnamed_addr constant [3 x i8] c"[]\00", align 1
@.str.24 = private unnamed_addr constant [33 x i8] c"JsVariantArray shouldn't be null\00", align 1
@.str.25 = private unnamed_addr constant [53 x i8] c"!!arr_r_.get() && \22JsVariantArray shouldn't be null\22\00", align 1
@__func__._ZN14altered_carbon2js9JsVariantaSERKS1_ = private unnamed_addr constant [10 x i8] c"operator=\00", align 1
@__func__._ZNK14altered_carbon2js9JsVariant9asBooleanEv = private unnamed_addr constant [10 x i8] c"asBoolean\00", align 1
@.str.26 = private unnamed_addr constant [50 x i8] c"false && \22empty jsvariant shouldn't be evaluated\22\00", align 1
@__func__._ZN14altered_carbon2js9JsVariant4convEi = private unnamed_addr constant [5 x i8] c"conv\00", align 1
@.str.27 = private unnamed_addr constant [34 x i8] c"false && \22Unsupported conversion\22\00", align 1
@_ZN14altered_carbon2js11JsConstants3NaNE = global %"class.altered_carbon::js::JsVariant" zeroinitializer, align 8
@.str.28 = private unnamed_addr constant [28 x i8] c"false && \22Unsupported type\22\00", align 1
@_ZN14altered_carbon2js11JsConstants12UndefinedStrE = global %"class.altered_carbon::js::JsVariant" zeroinitializer, align 8
@_ZN14altered_carbon2js11JsConstants7NullStrE = global %"class.altered_carbon::js::JsVariant" zeroinitializer, align 8
@_ZN14altered_carbon2js11JsConstants7TrueStrE = global %"class.altered_carbon::js::JsVariant" zeroinitializer, align 8
@_ZN14altered_carbon2js11JsConstants8FalseStrE = global %"class.altered_carbon::js::JsVariant" zeroinitializer, align 8
@.str.29 = private unnamed_addr constant [32 x i8] c"false && \22Unsupport conversion\22\00", align 1
@__func__._ZNK14altered_carbon2js9JsVarianteqERKS1_ = private unnamed_addr constant [11 x i8] c"operator==\00", align 1
@__func__._ZNK14altered_carbon2js9JsVariantneERKS1_ = private unnamed_addr constant [11 x i8] c"operator!=\00", align 1
@__func__._ZNK14altered_carbon2js9JsVariantgtERKS1_ = private unnamed_addr constant [10 x i8] c"operator>\00", align 1
@__func__._ZNK14altered_carbon2js9JsVariantltERKS1_ = private unnamed_addr constant [10 x i8] c"operator<\00", align 1
@__func__._ZNK14altered_carbon2js9JsVariantgeERKS1_ = private unnamed_addr constant [11 x i8] c"operator>=\00", align 1
@__func__._ZNK14altered_carbon2js9JsVariantleERKS1_ = private unnamed_addr constant [11 x i8] c"operator<=\00", align 1
@__func__._ZNK14altered_carbon2js9JsVariantixEj = private unnamed_addr constant [11 x i8] c"operator[]\00", align 1
@.str.30 = private unnamed_addr constant [15 x i8] c"!!arr_r_.get()\00", align 1
@_ZN14altered_carbon2js11JsConstants9UndefinedE = global %"class.altered_carbon::js::JsVariant" zeroinitializer, align 8
@.str.31 = private unnamed_addr constant [43 x i8] c"false && \22Number parsing is not supported\22\00", align 1
@.str.32 = private unnamed_addr constant [36 x i8] c"false && \22Unsupported object deref\22\00", align 1
@.str.33 = private unnamed_addr constant [22 x i8] c"type_ == JS_ARRAY_REF\00", align 1
@.str.34 = private unnamed_addr constant [22 x i8] c"Invalid array section\00", align 1
@__func__._ZNK14altered_carbon2js14JsVariantArray4nextEPNS0_17JsVariantIteratorE = private unnamed_addr constant [5 x i8] c"next\00", align 1
@.str.35 = private unnamed_addr constant [34 x i8] c"!!node && \22Invalid array section\22\00", align 1
@__func__._ZNK14altered_carbon2js14JsVariantArray4lastEPNS0_17JsVariantIteratorE = private unnamed_addr constant [5 x i8] c"last\00", align 1
@.str.36 = private unnamed_addr constant [35 x i8] c"false && \22Invalid iterator status\22\00", align 1
@.str.37 = private unnamed_addr constant [33 x i8] c"false && \22Invalid iterator type\22\00", align 1
@__func__._ZNK14altered_carbon2js17JsVariantIteratordeEv = private unnamed_addr constant [10 x i8] c"operator*\00", align 1
@.str.38 = private unnamed_addr constant [27 x i8] c"!!arr_r_.get() && !!jsn_p_\00", align 1
@__func__._ZNK14altered_carbon2js17JsVariantIteratorptEv = private unnamed_addr constant [11 x i8] c"operator->\00", align 1
@.str.39 = private unnamed_addr constant [50 x i8] c"its_v_ == ITER_FORWARD || its_v_ == ITER_BACKWARD\00", align 1
@.str.40 = private unnamed_addr constant [3 x i8] c"=>\00", align 1
@.str.41 = private unnamed_addr constant [3 x i8] c"<=\00", align 1
@.str.42 = private unnamed_addr constant [8 x i8] c"=>(end)\00", align 1
@.str.43 = private unnamed_addr constant [9 x i8] c"(rend)<=\00", align 1
@__func__._ZN14altered_carbon2js10RBTreeNodeINS0_9JsVariantEE6assignEjjN4llvm8ArrayRefIPS2_EE = private unnamed_addr constant [7 x i8] c"assign\00", align 1
@.str.44 = private unnamed_addr constant [51 x i8] c"min_index >= min_index_ && max_index <= max_index_\00", align 1
@__func__._ZN14altered_carbon2js10RBTreeNodeINS0_9JsVariantEE10assign_newEjjPS2_ = private unnamed_addr constant [11 x i8] c"assign_new\00", align 1
@.str.45 = private unnamed_addr constant [48 x i8] c"seg_start[i].type() == JsVariant::JS_UNASSIGNED\00", align 1
@.str.46 = private unnamed_addr constant [2 x i8] c"{\00", align 1
@.str.47 = private unnamed_addr constant [9 x i8] c"Empty X \00", align 1
@.str.48 = private unnamed_addr constant [3 x i8] c", \00", align 1
@.str.49 = private unnamed_addr constant [2 x i8] c":\00", align 1
@.str.50 = private unnamed_addr constant [2 x i8] c"}\00", align 1
@_ZTVN14altered_carbon2js14JsVariantArrayE = linkonce_odr unnamed_addr constant { [4 x i8*] } { [4 x i8*] [i8* null, i8* bitcast ({ i8*, i8* }* @_ZTIN14altered_carbon2js14JsVariantArrayE to i8*), i8* bitcast (void (%"class.altered_carbon::js::JsVariantArray"*)* @_ZN14altered_carbon2js14JsVariantArrayD1Ev to i8*), i8* bitcast (void (%"class.altered_carbon::js::JsVariantArray"*)* @_ZN14altered_carbon2js14JsVariantArrayD0Ev to i8*)] }, align 8
@.str.51 = private unnamed_addr constant [5 x i8] c"{L} \00", align 1
@.str.52 = private unnamed_addr constant [3 x i8] c"{*\00", align 1
@.str.53 = private unnamed_addr constant [4 x i8] c"RED\00", align 1
@.str.54 = private unnamed_addr constant [6 x i8] c"BLACK\00", align 1
@.str.55 = private unnamed_addr constant [4 x i8] c"*} \00", align 1
@.str.56 = private unnamed_addr constant [6 x i8] c"\0A{R} \00", align 1
@.str.57 = private unnamed_addr constant [7 x i8] c"{nil} \00", align 1
@.str.58 = private unnamed_addr constant [15 x i8] c"digraph BST {\0A\00", align 1
@.str.59 = private unnamed_addr constant [3 x i8] c"}\0A\00", align 1
@__func__._ZN14altered_carbon2js14JsVariantArray21insertVariantIntervalEjjN4llvm8ArrayRefIPNS0_9JsVariantEEENS0_10RBTreeNodeIS4_E10AllocStyleE = private unnamed_addr constant [22 x i8] c"insertVariantInterval\00", align 1
@.str.60 = private unnamed_addr constant [29 x i8] c"vars.size() == max - min + 1\00", align 1
@.str.61 = private unnamed_addr constant [65 x i8] c"max < matched_node->min_index_ || min > matched_node->max_index_\00", align 1
@__func__._ZN14altered_carbon2js14JsVariantArray10deleteNodeEPNS0_10RBTreeNodeINS0_9JsVariantEEE = private unnamed_addr constant [11 x i8] c"deleteNode\00", align 1
@.str.62 = private unnamed_addr constant [50 x i8] c"orig->left_ == replace || orig->right_ == replace\00", align 1
@__dso_handle = external hidden global i8
@_ZN14altered_carbon2js11JsConstants4NullE = global %"class.altered_carbon::js::JsVariant" zeroinitializer, align 8
@.str.65 = private unnamed_addr constant [1 x i8] zeroinitializer, align 1
@_ZN14altered_carbon2js11JsConstants9TypeErrorE = global %"class.altered_carbon::js::JsVariant" zeroinitializer, align 8
@.str.67 = private unnamed_addr constant [10 x i8] c"TypeError\00", align 1
@_ZN14altered_carbon2js11JsConstants8InfinityE = global %"class.altered_carbon::js::JsVariant" zeroinitializer, align 8
@_ZN14altered_carbon2js11JsConstants16NegativeInfinityE = global %"class.altered_carbon::js::JsVariant" zeroinitializer, align 8
@_ZN14altered_carbon2js11JsConstants16NullPointerErrorE = global %"class.altered_carbon::js::JsVariant" zeroinitializer, align 8
@.str.71 = private unnamed_addr constant [17 x i8] c"NullPointerError\00", align 1
@.str.73 = private unnamed_addr constant [10 x i32] [i32 117, i32 110, i32 100, i32 101, i32 102, i32 105, i32 110, i32 101, i32 100, i32 0], align 4
@.str.75 = private unnamed_addr constant [5 x i32] [i32 110, i32 117, i32 108, i32 108, i32 0], align 4
@.str.77 = private unnamed_addr constant [5 x i32] [i32 116, i32 114, i32 117, i32 101, i32 0], align 4
@.str.79 = private unnamed_addr constant [6 x i32] [i32 102, i32 97, i32 108, i32 115, i32 101, i32 0], align 4
@_ZN14altered_carbon2js11JsConstants3EndE = global %"struct.altered_carbon::js::JsVariantIterator" zeroinitializer, align 8
@_ZN14altered_carbon2js11JsConstants4REndE = global %"struct.altered_carbon::js::JsVariantIterator" zeroinitializer, align 8
@_ZTVN10__cxxabiv117__class_type_infoE = external global i8*
@_ZTSN14altered_carbon2js9JsVariantE = constant [32 x i8] c"N14altered_carbon2js9JsVariantE\00"
@_ZTIN14altered_carbon2js9JsVariantE = constant { i8*, i8* } { i8* bitcast (i8** getelementptr inbounds (i8*, i8** @_ZTVN10__cxxabiv117__class_type_infoE, i64 2) to i8*), i8* getelementptr inbounds ([32 x i8], [32 x i8]* @_ZTSN14altered_carbon2js9JsVariantE, i32 0, i32 0) }
@_ZTSN14altered_carbon2js14JsVariantArrayE = linkonce_odr constant [38 x i8] c"N14altered_carbon2js14JsVariantArrayE\00"
@_ZTIN14altered_carbon2js14JsVariantArrayE = linkonce_odr constant { i8*, i8* } { i8* bitcast (i8** getelementptr inbounds (i8*, i8** @_ZTVN10__cxxabiv117__class_type_infoE, i64 2) to i8*), i8* getelementptr inbounds ([38 x i8], [38 x i8]* @_ZTSN14altered_carbon2js14JsVariantArrayE, i32 0, i32 0) }
@_ZN14altered_carbon2jsL13EMPTY_WSTRINGE = internal constant [1 x i32] zeroinitializer, align 4
@.str.82 = private unnamed_addr constant [2 x i8] c"(\00", align 1
@.str.83 = private unnamed_addr constant [17 x i8] c" [Object object]\00", align 1
@.str.84 = private unnamed_addr constant [81 x i8] c" [ shape=circle fontcolor=white color=black fillcolor=red width=1 style=filled ]\00", align 1
@.str.85 = private unnamed_addr constant [83 x i8] c" [ shape=circle fontcolor=white color=black fillcolor=black width=1 style=filled ]\00", align 1
@.str.86 = private unnamed_addr constant [2 x i8] c"\0A\00", align 1
@.str.87 = private unnamed_addr constant [2 x i8] c"l\00", align 1
@.str.88 = private unnamed_addr constant [2 x i8] c"r\00", align 1
@.str.89 = private unnamed_addr constant [2 x i8] c"_\00", align 1
@.str.90 = private unnamed_addr constant [4 x i8] c"nil\00", align 1
@.str.91 = private unnamed_addr constant [106 x i8] c" [ shape=rectangle fontcolor=red color=black fillcolor=black height=.25 width=.5 label=nil style=filled ]\00", align 1
@.str.92 = private unnamed_addr constant [5 x i8] c" -> \00", align 1
@.str.93 = private unnamed_addr constant [5 x i8] c"nil\0A\00", align 1
@_ZNSt3__15ctypeIcE2idE = external global %"class.std::__1::locale::id", align 8
@_ZTVN14altered_carbon2js10RefCountedINS0_14JsVariantArrayEEE = linkonce_odr unnamed_addr constant { [4 x i8*] } { [4 x i8*] [i8* null, i8* bitcast ({ i8*, i8*, i32, i32, i8*, i64, i8*, i64 }* @_ZTIN14altered_carbon2js10RefCountedINS0_14JsVariantArrayEEE to i8*), i8* bitcast (void (%"class.altered_carbon::js::RefCounted.23"*)* @_ZN14altered_carbon2js10RefCountedINS0_14JsVariantArrayEED1Ev to i8*), i8* bitcast (void (%"class.altered_carbon::js::RefCounted.23"*)* @_ZN14altered_carbon2js10RefCountedINS0_14JsVariantArrayEED0Ev to i8*)] }, align 8
@_ZTVN10__cxxabiv121__vmi_class_type_infoE = external global i8*
@_ZTSN14altered_carbon2js10RefCountedINS0_14JsVariantArrayEEE = linkonce_odr constant [57 x i8] c"N14altered_carbon2js10RefCountedINS0_14JsVariantArrayEEE\00"
@_ZTSN14altered_carbon2js10RefCounterE = linkonce_odr constant [34 x i8] c"N14altered_carbon2js10RefCounterE\00"
@_ZTIN14altered_carbon2js10RefCounterE = linkonce_odr constant { i8*, i8* } { i8* bitcast (i8** getelementptr inbounds (i8*, i8** @_ZTVN10__cxxabiv117__class_type_infoE, i64 2) to i8*), i8* getelementptr inbounds ([34 x i8], [34 x i8]* @_ZTSN14altered_carbon2js10RefCounterE, i32 0, i32 0) }
@_ZTIN14altered_carbon2js10RefCountedINS0_14JsVariantArrayEEE = linkonce_odr constant { i8*, i8*, i32, i32, i8*, i64, i8*, i64 } { i8* bitcast (i8** getelementptr inbounds (i8*, i8** @_ZTVN10__cxxabiv121__vmi_class_type_infoE, i64 2) to i8*), i8* getelementptr inbounds ([57 x i8], [57 x i8]* @_ZTSN14altered_carbon2js10RefCountedINS0_14JsVariantArrayEEE, i32 0, i32 0), i32 0, i32 2, i8* bitcast ({ i8*, i8* }* @_ZTIN14altered_carbon2js14JsVariantArrayE to i8*), i64 2, i8* bitcast ({ i8*, i8* }* @_ZTIN14altered_carbon2js10RefCounterE to i8*), i64 6144 }
@__func__._ZN14altered_carbon2js13RefCountedPtrINS0_15JsVariantObjectEEC2EPNS0_10RefCountedIS2_EE = private unnamed_addr constant [14 x i8] c"RefCountedPtr\00", align 1
@.str.94 = private unnamed_addr constant [20 x i8] c"./ac_vm_jsvariant.h\00", align 1
@.str.95 = private unnamed_addr constant [4 x i8] c"!!p\00", align 1
@_ZNSt3__14cerrE = external global %"class.std::__1::basic_ostream", align 8
@.str.96 = private unnamed_addr constant [19 x i8] c"copy on write: yes\00", align 1
@.str.97 = private unnamed_addr constant [18 x i8] c"copy on write: no\00", align 1
@.str.98 = private unnamed_addr constant [36 x i8] c"i >= 0 && i < member_values_.size()\00", align 1
@.str.99 = private unnamed_addr constant [68 x i8] c"allocator<T>::allocate(size_t n) 'n' exceeds maximum supported size\00", align 1
@_ZTVN14altered_carbon2js10RBTreeNodeINS0_9JsVariantEEE = linkonce_odr unnamed_addr constant { [4 x i8*] } { [4 x i8*] [i8* null, i8* bitcast ({ i8*, i8* }* @_ZTIN14altered_carbon2js10RBTreeNodeINS0_9JsVariantEEE to i8*), i8* bitcast (void (%"class.altered_carbon::js::RBTreeNode"*)* @_ZN14altered_carbon2js10RBTreeNodeINS0_9JsVariantEED1Ev to i8*), i8* bitcast (void (%"class.altered_carbon::js::RBTreeNode"*)* @_ZN14altered_carbon2js10RBTreeNodeINS0_9JsVariantEED0Ev to i8*)] }, align 8
@__func__._ZN14altered_carbon2js10RBTreeNodeINS0_9JsVariantEEC2EjjN4llvm8ArrayRefIPS2_EENS3_10AllocStyleE = private unnamed_addr constant [11 x i8] c"RBTreeNode\00", align 1
@.str.100 = private unnamed_addr constant [40 x i8] c"v.size() == (max_index - min_index + 1)\00", align 1
@_ZTSN14altered_carbon2js10RBTreeNodeINS0_9JsVariantEEE = linkonce_odr constant [51 x i8] c"N14altered_carbon2js10RBTreeNodeINS0_9JsVariantEEE\00"
@_ZTIN14altered_carbon2js10RBTreeNodeINS0_9JsVariantEEE = linkonce_odr constant { i8*, i8* } { i8* bitcast (i8** getelementptr inbounds (i8*, i8** @_ZTVN10__cxxabiv117__class_type_infoE, i64 2) to i8*), i8* getelementptr inbounds ([51 x i8], [51 x i8]* @_ZTSN14altered_carbon2js10RBTreeNodeINS0_9JsVariantEEE, i32 0, i32 0) }
@llvm.global_ctors = appending global [1 x { i32, void ()*, i8* }] [{ i32, void ()*, i8* } { i32 65535, void ()* @_GLOBAL__sub_I_ac_vm_jsvariant.cc, i8* null }]

; Function Attrs: noinline nounwind optnone ssp uwtable
define void @_ZN14altered_carbon2js9JsVariantC2ENS1_13JsVariantTypeE(%"class.altered_carbon::js::JsVariant"*, i32) unnamed_addr #0 align 2 {
  %3 = alloca %"struct.std::__1::__compressed_pair_elem.35"*, align 8
  %4 = alloca %"class.std::__1::__compressed_pair.33"*, align 8
  %5 = alloca %"struct.std::__1::__compressed_pair_elem.34"*, align 8
  %6 = alloca %"class.std::__1::__compressed_pair.33"*, align 8
  %7 = alloca %"struct.std::__1::default_delete.36"*, align 8
  %8 = alloca %"class.altered_carbon::js::RefCounted.23"*, align 8
  %9 = alloca %"struct.std::__1::__compressed_pair_elem.34"*, align 8
  %10 = alloca %"class.std::__1::__compressed_pair.33"*, align 8
  %11 = alloca %"class.std::__1::unique_ptr.32"*, align 8
  %12 = alloca %"class.altered_carbon::js::RefCounted.23"*, align 8
  %13 = alloca %"class.altered_carbon::js::RefCounted.23"*, align 8
  %14 = alloca %"class.std::__1::unique_ptr.32"*, align 8
  %15 = alloca %"class.std::__1::unique_ptr.32"*, align 8
  %16 = alloca %"struct.std::__1::__compressed_pair_elem.34"*, align 8
  %17 = alloca %"class.std::__1::__compressed_pair.33"*, align 8
  %18 = alloca %"struct.std::__1::__compressed_pair_elem.34"*, align 8
  %19 = alloca %"class.std::__1::__compressed_pair.33"*, align 8
  %20 = alloca %"class.std::__1::unique_ptr.32"*, align 8
  %21 = alloca %"class.altered_carbon::js::RefCounted.23"*, align 8
  %22 = alloca %"struct.std::__1::__compressed_pair_elem.31"*, align 8
  %23 = alloca %"class.std::__1::__compressed_pair.29"*, align 8
  %24 = alloca %"struct.std::__1::__compressed_pair_elem.30"*, align 8
  %25 = alloca %"class.std::__1::__compressed_pair.29"*, align 8
  %26 = alloca %"struct.std::__1::default_delete"*, align 8
  %27 = alloca %"class.altered_carbon::js::RefCounted"*, align 8
  %28 = alloca %"struct.std::__1::__compressed_pair_elem.30"*, align 8
  %29 = alloca %"class.std::__1::__compressed_pair.29"*, align 8
  %30 = alloca %"class.std::__1::unique_ptr"*, align 8
  %31 = alloca %"class.altered_carbon::js::RefCounted"*, align 8
  %32 = alloca %"class.altered_carbon::js::RefCounted"*, align 8
  %33 = alloca %"class.std::__1::unique_ptr"*, align 8
  %34 = alloca %"class.std::__1::unique_ptr"*, align 8
  %35 = alloca %"struct.std::__1::__compressed_pair_elem.30"*, align 8
  %36 = alloca %"class.std::__1::__compressed_pair.29"*, align 8
  %37 = alloca %"struct.std::__1::__compressed_pair_elem.30"*, align 8
  %38 = alloca %"class.std::__1::__compressed_pair.29"*, align 8
  %39 = alloca %"class.std::__1::unique_ptr"*, align 8
  %40 = alloca %"class.altered_carbon::js::RefCounted"*, align 8
  %41 = alloca %"class.altered_carbon::js::JsVariant"*, align 8
  %42 = alloca i32, align 4
  %43 = alloca %"class.std::__1::unique_ptr", align 8
  %44 = alloca %"class.std::__1::unique_ptr.32", align 8
  store %"class.altered_carbon::js::JsVariant"* %0, %"class.altered_carbon::js::JsVariant"** %41, align 8
  store i32 %1, i32* %42, align 4
  %45 = load %"class.altered_carbon::js::JsVariant"*, %"class.altered_carbon::js::JsVariant"** %41, align 8
  %46 = bitcast %"class.altered_carbon::js::JsVariant"* %45 to i32 (...)***
  store i32 (...)** bitcast (i8** getelementptr inbounds ({ [4 x i8*] }, { [4 x i8*] }* @_ZTVN14altered_carbon2js9JsVariantE, i32 0, inrange i32 0, i32 2) to i32 (...)**), i32 (...)*** %46, align 8
  %47 = getelementptr inbounds %"class.altered_carbon::js::JsVariant", %"class.altered_carbon::js::JsVariant"* %45, i32 0, i32 1
  %48 = load i32, i32* %42, align 4
  store i32 %48, i32* %47, align 8
  %49 = getelementptr inbounds %"class.altered_carbon::js::JsVariant", %"class.altered_carbon::js::JsVariant"* %45, i32 0, i32 1
  %50 = load i32, i32* %49, align 8
  switch i32 %50, label %160 [
    i32 10, label %51
    i32 15, label %98
    i32 13, label %101
    i32 11, label %101
    i32 14, label %104
    i32 12, label %107
    i32 16, label %157
  ]

; <label>:51:                                     ; preds = %2
  %52 = getelementptr inbounds %"class.altered_carbon::js::JsVariant", %"class.altered_carbon::js::JsVariant"* %45, i32 0, i32 2
  %53 = bitcast %union.anon* %52 to %"class.altered_carbon::js::RefCountedPtr"*
  call void @_ZN4llvm11make_uniqueIN14altered_carbon2js10RefCountedINSt3__112basic_stringIwNS4_11char_traitsIwEENS4_9allocatorIwEEEEEEJRA1_KwEEENS4_9enable_ifIXntsr3std8is_arrayIT_EE5valueENS4_10unique_ptrISG_NS4_14default_deleteISG_EEEEE4typeEDpOT0_(%"class.std::__1::unique_ptr"* sret %43, [1 x i32]* dereferenceable(4) @.str)
  store %"class.std::__1::unique_ptr"* %43, %"class.std::__1::unique_ptr"** %39, align 8
  %54 = load %"class.std::__1::unique_ptr"*, %"class.std::__1::unique_ptr"** %39, align 8
  %55 = getelementptr inbounds %"class.std::__1::unique_ptr", %"class.std::__1::unique_ptr"* %54, i32 0, i32 0
  store %"class.std::__1::__compressed_pair.29"* %55, %"class.std::__1::__compressed_pair.29"** %38, align 8
  %56 = load %"class.std::__1::__compressed_pair.29"*, %"class.std::__1::__compressed_pair.29"** %38, align 8
  %57 = bitcast %"class.std::__1::__compressed_pair.29"* %56 to %"struct.std::__1::__compressed_pair_elem.30"*
  store %"struct.std::__1::__compressed_pair_elem.30"* %57, %"struct.std::__1::__compressed_pair_elem.30"** %37, align 8
  %58 = load %"struct.std::__1::__compressed_pair_elem.30"*, %"struct.std::__1::__compressed_pair_elem.30"** %37, align 8
  %59 = getelementptr inbounds %"struct.std::__1::__compressed_pair_elem.30", %"struct.std::__1::__compressed_pair_elem.30"* %58, i32 0, i32 0
  %60 = load %"class.altered_carbon::js::RefCounted"*, %"class.altered_carbon::js::RefCounted"** %59, align 8
  store %"class.altered_carbon::js::RefCounted"* %60, %"class.altered_carbon::js::RefCounted"** %40, align 8
  %61 = getelementptr inbounds %"class.std::__1::unique_ptr", %"class.std::__1::unique_ptr"* %54, i32 0, i32 0
  store %"class.std::__1::__compressed_pair.29"* %61, %"class.std::__1::__compressed_pair.29"** %36, align 8
  %62 = load %"class.std::__1::__compressed_pair.29"*, %"class.std::__1::__compressed_pair.29"** %36, align 8
  %63 = bitcast %"class.std::__1::__compressed_pair.29"* %62 to %"struct.std::__1::__compressed_pair_elem.30"*
  store %"struct.std::__1::__compressed_pair_elem.30"* %63, %"struct.std::__1::__compressed_pair_elem.30"** %35, align 8
  %64 = load %"struct.std::__1::__compressed_pair_elem.30"*, %"struct.std::__1::__compressed_pair_elem.30"** %35, align 8
  %65 = getelementptr inbounds %"struct.std::__1::__compressed_pair_elem.30", %"struct.std::__1::__compressed_pair_elem.30"* %64, i32 0, i32 0
  store %"class.altered_carbon::js::RefCounted"* null, %"class.altered_carbon::js::RefCounted"** %65, align 8
  %66 = load %"class.altered_carbon::js::RefCounted"*, %"class.altered_carbon::js::RefCounted"** %40, align 8
  call void @_ZN14altered_carbon2js13RefCountedPtrINSt3__112basic_stringIwNS2_11char_traitsIwEENS2_9allocatorIwEEEEE5resetEPNS0_10RefCountedIS8_EEb(%"class.altered_carbon::js::RefCountedPtr"* %53, %"class.altered_carbon::js::RefCounted"* %66, i1 zeroext true)
  store %"class.std::__1::unique_ptr"* %43, %"class.std::__1::unique_ptr"** %34, align 8
  %67 = load %"class.std::__1::unique_ptr"*, %"class.std::__1::unique_ptr"** %34, align 8
  store %"class.std::__1::unique_ptr"* %67, %"class.std::__1::unique_ptr"** %33, align 8
  %68 = load %"class.std::__1::unique_ptr"*, %"class.std::__1::unique_ptr"** %33, align 8
  store %"class.std::__1::unique_ptr"* %68, %"class.std::__1::unique_ptr"** %30, align 8
  store %"class.altered_carbon::js::RefCounted"* null, %"class.altered_carbon::js::RefCounted"** %31, align 8
  %69 = load %"class.std::__1::unique_ptr"*, %"class.std::__1::unique_ptr"** %30, align 8
  %70 = getelementptr inbounds %"class.std::__1::unique_ptr", %"class.std::__1::unique_ptr"* %69, i32 0, i32 0
  store %"class.std::__1::__compressed_pair.29"* %70, %"class.std::__1::__compressed_pair.29"** %29, align 8
  %71 = load %"class.std::__1::__compressed_pair.29"*, %"class.std::__1::__compressed_pair.29"** %29, align 8
  %72 = bitcast %"class.std::__1::__compressed_pair.29"* %71 to %"struct.std::__1::__compressed_pair_elem.30"*
  store %"struct.std::__1::__compressed_pair_elem.30"* %72, %"struct.std::__1::__compressed_pair_elem.30"** %28, align 8
  %73 = load %"struct.std::__1::__compressed_pair_elem.30"*, %"struct.std::__1::__compressed_pair_elem.30"** %28, align 8
  %74 = getelementptr inbounds %"struct.std::__1::__compressed_pair_elem.30", %"struct.std::__1::__compressed_pair_elem.30"* %73, i32 0, i32 0
  %75 = load %"class.altered_carbon::js::RefCounted"*, %"class.altered_carbon::js::RefCounted"** %74, align 8
  store %"class.altered_carbon::js::RefCounted"* %75, %"class.altered_carbon::js::RefCounted"** %32, align 8
  %76 = load %"class.altered_carbon::js::RefCounted"*, %"class.altered_carbon::js::RefCounted"** %31, align 8
  %77 = getelementptr inbounds %"class.std::__1::unique_ptr", %"class.std::__1::unique_ptr"* %69, i32 0, i32 0
  store %"class.std::__1::__compressed_pair.29"* %77, %"class.std::__1::__compressed_pair.29"** %25, align 8
  %78 = load %"class.std::__1::__compressed_pair.29"*, %"class.std::__1::__compressed_pair.29"** %25, align 8
  %79 = bitcast %"class.std::__1::__compressed_pair.29"* %78 to %"struct.std::__1::__compressed_pair_elem.30"*
  store %"struct.std::__1::__compressed_pair_elem.30"* %79, %"struct.std::__1::__compressed_pair_elem.30"** %24, align 8
  %80 = load %"struct.std::__1::__compressed_pair_elem.30"*, %"struct.std::__1::__compressed_pair_elem.30"** %24, align 8
  %81 = getelementptr inbounds %"struct.std::__1::__compressed_pair_elem.30", %"struct.std::__1::__compressed_pair_elem.30"* %80, i32 0, i32 0
  store %"class.altered_carbon::js::RefCounted"* %76, %"class.altered_carbon::js::RefCounted"** %81, align 8
  %82 = load %"class.altered_carbon::js::RefCounted"*, %"class.altered_carbon::js::RefCounted"** %32, align 8
  %83 = icmp ne %"class.altered_carbon::js::RefCounted"* %82, null
  br i1 %83, label %84, label %97

; <label>:84:                                     ; preds = %51
  %85 = getelementptr inbounds %"class.std::__1::unique_ptr", %"class.std::__1::unique_ptr"* %69, i32 0, i32 0
  store %"class.std::__1::__compressed_pair.29"* %85, %"class.std::__1::__compressed_pair.29"** %23, align 8
  %86 = load %"class.std::__1::__compressed_pair.29"*, %"class.std::__1::__compressed_pair.29"** %23, align 8
  %87 = bitcast %"class.std::__1::__compressed_pair.29"* %86 to %"struct.std::__1::__compressed_pair_elem.31"*
  store %"struct.std::__1::__compressed_pair_elem.31"* %87, %"struct.std::__1::__compressed_pair_elem.31"** %22, align 8
  %88 = load %"struct.std::__1::__compressed_pair_elem.31"*, %"struct.std::__1::__compressed_pair_elem.31"** %22, align 8
  %89 = bitcast %"struct.std::__1::__compressed_pair_elem.31"* %88 to %"struct.std::__1::default_delete"*
  %90 = load %"class.altered_carbon::js::RefCounted"*, %"class.altered_carbon::js::RefCounted"** %32, align 8
  store %"struct.std::__1::default_delete"* %89, %"struct.std::__1::default_delete"** %26, align 8
  store %"class.altered_carbon::js::RefCounted"* %90, %"class.altered_carbon::js::RefCounted"** %27, align 8
  %91 = load %"struct.std::__1::default_delete"*, %"struct.std::__1::default_delete"** %26, align 8
  %92 = load %"class.altered_carbon::js::RefCounted"*, %"class.altered_carbon::js::RefCounted"** %27, align 8
  %93 = icmp eq %"class.altered_carbon::js::RefCounted"* %92, null
  br i1 %93, label %96, label %94

; <label>:94:                                     ; preds = %84
  call void @_ZN14altered_carbon2js10RefCountedINSt3__112basic_stringIwNS2_11char_traitsIwEENS2_9allocatorIwEEEEED1Ev(%"class.altered_carbon::js::RefCounted"* %92) #8
  %95 = bitcast %"class.altered_carbon::js::RefCounted"* %92 to i8*
  call void @_ZdlPv(i8* %95) #12
  br label %96

; <label>:96:                                     ; preds = %94, %84
  br label %97

; <label>:97:                                     ; preds = %51, %96
  br label %161

; <label>:98:                                     ; preds = %2
  %99 = getelementptr inbounds %"class.altered_carbon::js::JsVariant", %"class.altered_carbon::js::JsVariant"* %45, i32 0, i32 2
  %100 = bitcast %union.anon* %99 to %"struct.altered_carbon::js::JsVariantFunc"*
  call void @_ZN14altered_carbon2js13JsVariantFunc5resetEb(%"struct.altered_carbon::js::JsVariantFunc"* %100, i1 zeroext true)
  br label %161

; <label>:101:                                    ; preds = %2, %2
  %102 = getelementptr inbounds %"class.altered_carbon::js::JsVariant", %"class.altered_carbon::js::JsVariant"* %45, i32 0, i32 2
  %103 = bitcast %union.anon* %102 to %"class.altered_carbon::js::RefCountedPtr.12"*
  call void @_ZN14altered_carbon2js13RefCountedPtrINS0_15JsVariantObjectEE5resetEb(%"class.altered_carbon::js::RefCountedPtr.12"* %103, i1 zeroext true)
  br label %161

; <label>:104:                                    ; preds = %2
  %105 = getelementptr inbounds %"class.altered_carbon::js::JsVariant", %"class.altered_carbon::js::JsVariant"* %45, i32 0, i32 2
  %106 = bitcast %union.anon* %105 to %"class.altered_carbon::js::RefCountedPtr.22"*
  call void @_ZN14altered_carbon2js13RefCountedPtrINS0_14JsVariantArrayEE5resetEb(%"class.altered_carbon::js::RefCountedPtr.22"* %106, i1 zeroext true)
  br label %161

; <label>:107:                                    ; preds = %2
  %108 = getelementptr inbounds %"class.altered_carbon::js::JsVariant", %"class.altered_carbon::js::JsVariant"* %45, i32 0, i32 2
  %109 = bitcast %union.anon* %108 to %"class.altered_carbon::js::RefCountedPtr.22"*
  call void @_ZN4llvm11make_uniqueIN14altered_carbon2js10RefCountedINS2_14JsVariantArrayEEEJEEENSt3__19enable_ifIXntsr3std8is_arrayIT_EE5valueENS6_10unique_ptrIS8_NS6_14default_deleteIS8_EEEEE4typeEDpOT0_(%"class.std::__1::unique_ptr.32"* sret %44)
  store %"class.std::__1::unique_ptr.32"* %44, %"class.std::__1::unique_ptr.32"** %20, align 8
  %110 = load %"class.std::__1::unique_ptr.32"*, %"class.std::__1::unique_ptr.32"** %20, align 8
  %111 = getelementptr inbounds %"class.std::__1::unique_ptr.32", %"class.std::__1::unique_ptr.32"* %110, i32 0, i32 0
  store %"class.std::__1::__compressed_pair.33"* %111, %"class.std::__1::__compressed_pair.33"** %19, align 8
  %112 = load %"class.std::__1::__compressed_pair.33"*, %"class.std::__1::__compressed_pair.33"** %19, align 8
  %113 = bitcast %"class.std::__1::__compressed_pair.33"* %112 to %"struct.std::__1::__compressed_pair_elem.34"*
  store %"struct.std::__1::__compressed_pair_elem.34"* %113, %"struct.std::__1::__compressed_pair_elem.34"** %18, align 8
  %114 = load %"struct.std::__1::__compressed_pair_elem.34"*, %"struct.std::__1::__compressed_pair_elem.34"** %18, align 8
  %115 = getelementptr inbounds %"struct.std::__1::__compressed_pair_elem.34", %"struct.std::__1::__compressed_pair_elem.34"* %114, i32 0, i32 0
  %116 = load %"class.altered_carbon::js::RefCounted.23"*, %"class.altered_carbon::js::RefCounted.23"** %115, align 8
  store %"class.altered_carbon::js::RefCounted.23"* %116, %"class.altered_carbon::js::RefCounted.23"** %21, align 8
  %117 = getelementptr inbounds %"class.std::__1::unique_ptr.32", %"class.std::__1::unique_ptr.32"* %110, i32 0, i32 0
  store %"class.std::__1::__compressed_pair.33"* %117, %"class.std::__1::__compressed_pair.33"** %17, align 8
  %118 = load %"class.std::__1::__compressed_pair.33"*, %"class.std::__1::__compressed_pair.33"** %17, align 8
  %119 = bitcast %"class.std::__1::__compressed_pair.33"* %118 to %"struct.std::__1::__compressed_pair_elem.34"*
  store %"struct.std::__1::__compressed_pair_elem.34"* %119, %"struct.std::__1::__compressed_pair_elem.34"** %16, align 8
  %120 = load %"struct.std::__1::__compressed_pair_elem.34"*, %"struct.std::__1::__compressed_pair_elem.34"** %16, align 8
  %121 = getelementptr inbounds %"struct.std::__1::__compressed_pair_elem.34", %"struct.std::__1::__compressed_pair_elem.34"* %120, i32 0, i32 0
  store %"class.altered_carbon::js::RefCounted.23"* null, %"class.altered_carbon::js::RefCounted.23"** %121, align 8
  %122 = load %"class.altered_carbon::js::RefCounted.23"*, %"class.altered_carbon::js::RefCounted.23"** %21, align 8
  call void @_ZN14altered_carbon2js13RefCountedPtrINS0_14JsVariantArrayEE5resetEPNS0_10RefCountedIS2_EEb(%"class.altered_carbon::js::RefCountedPtr.22"* %109, %"class.altered_carbon::js::RefCounted.23"* %122, i1 zeroext true)
  store %"class.std::__1::unique_ptr.32"* %44, %"class.std::__1::unique_ptr.32"** %15, align 8
  %123 = load %"class.std::__1::unique_ptr.32"*, %"class.std::__1::unique_ptr.32"** %15, align 8
  store %"class.std::__1::unique_ptr.32"* %123, %"class.std::__1::unique_ptr.32"** %14, align 8
  %124 = load %"class.std::__1::unique_ptr.32"*, %"class.std::__1::unique_ptr.32"** %14, align 8
  store %"class.std::__1::unique_ptr.32"* %124, %"class.std::__1::unique_ptr.32"** %11, align 8
  store %"class.altered_carbon::js::RefCounted.23"* null, %"class.altered_carbon::js::RefCounted.23"** %12, align 8
  %125 = load %"class.std::__1::unique_ptr.32"*, %"class.std::__1::unique_ptr.32"** %11, align 8
  %126 = getelementptr inbounds %"class.std::__1::unique_ptr.32", %"class.std::__1::unique_ptr.32"* %125, i32 0, i32 0
  store %"class.std::__1::__compressed_pair.33"* %126, %"class.std::__1::__compressed_pair.33"** %10, align 8
  %127 = load %"class.std::__1::__compressed_pair.33"*, %"class.std::__1::__compressed_pair.33"** %10, align 8
  %128 = bitcast %"class.std::__1::__compressed_pair.33"* %127 to %"struct.std::__1::__compressed_pair_elem.34"*
  store %"struct.std::__1::__compressed_pair_elem.34"* %128, %"struct.std::__1::__compressed_pair_elem.34"** %9, align 8
  %129 = load %"struct.std::__1::__compressed_pair_elem.34"*, %"struct.std::__1::__compressed_pair_elem.34"** %9, align 8
  %130 = getelementptr inbounds %"struct.std::__1::__compressed_pair_elem.34", %"struct.std::__1::__compressed_pair_elem.34"* %129, i32 0, i32 0
  %131 = load %"class.altered_carbon::js::RefCounted.23"*, %"class.altered_carbon::js::RefCounted.23"** %130, align 8
  store %"class.altered_carbon::js::RefCounted.23"* %131, %"class.altered_carbon::js::RefCounted.23"** %13, align 8
  %132 = load %"class.altered_carbon::js::RefCounted.23"*, %"class.altered_carbon::js::RefCounted.23"** %12, align 8
  %133 = getelementptr inbounds %"class.std::__1::unique_ptr.32", %"class.std::__1::unique_ptr.32"* %125, i32 0, i32 0
  store %"class.std::__1::__compressed_pair.33"* %133, %"class.std::__1::__compressed_pair.33"** %6, align 8
  %134 = load %"class.std::__1::__compressed_pair.33"*, %"class.std::__1::__compressed_pair.33"** %6, align 8
  %135 = bitcast %"class.std::__1::__compressed_pair.33"* %134 to %"struct.std::__1::__compressed_pair_elem.34"*
  store %"struct.std::__1::__compressed_pair_elem.34"* %135, %"struct.std::__1::__compressed_pair_elem.34"** %5, align 8
  %136 = load %"struct.std::__1::__compressed_pair_elem.34"*, %"struct.std::__1::__compressed_pair_elem.34"** %5, align 8
  %137 = getelementptr inbounds %"struct.std::__1::__compressed_pair_elem.34", %"struct.std::__1::__compressed_pair_elem.34"* %136, i32 0, i32 0
  store %"class.altered_carbon::js::RefCounted.23"* %132, %"class.altered_carbon::js::RefCounted.23"** %137, align 8
  %138 = load %"class.altered_carbon::js::RefCounted.23"*, %"class.altered_carbon::js::RefCounted.23"** %13, align 8
  %139 = icmp ne %"class.altered_carbon::js::RefCounted.23"* %138, null
  br i1 %139, label %140, label %156

; <label>:140:                                    ; preds = %107
  %141 = getelementptr inbounds %"class.std::__1::unique_ptr.32", %"class.std::__1::unique_ptr.32"* %125, i32 0, i32 0
  store %"class.std::__1::__compressed_pair.33"* %141, %"class.std::__1::__compressed_pair.33"** %4, align 8
  %142 = load %"class.std::__1::__compressed_pair.33"*, %"class.std::__1::__compressed_pair.33"** %4, align 8
  %143 = bitcast %"class.std::__1::__compressed_pair.33"* %142 to %"struct.std::__1::__compressed_pair_elem.35"*
  store %"struct.std::__1::__compressed_pair_elem.35"* %143, %"struct.std::__1::__compressed_pair_elem.35"** %3, align 8
  %144 = load %"struct.std::__1::__compressed_pair_elem.35"*, %"struct.std::__1::__compressed_pair_elem.35"** %3, align 8
  %145 = bitcast %"struct.std::__1::__compressed_pair_elem.35"* %144 to %"struct.std::__1::default_delete.36"*
  %146 = load %"class.altered_carbon::js::RefCounted.23"*, %"class.altered_carbon::js::RefCounted.23"** %13, align 8
  store %"struct.std::__1::default_delete.36"* %145, %"struct.std::__1::default_delete.36"** %7, align 8
  store %"class.altered_carbon::js::RefCounted.23"* %146, %"class.altered_carbon::js::RefCounted.23"** %8, align 8
  %147 = load %"struct.std::__1::default_delete.36"*, %"struct.std::__1::default_delete.36"** %7, align 8
  %148 = load %"class.altered_carbon::js::RefCounted.23"*, %"class.altered_carbon::js::RefCounted.23"** %8, align 8
  %149 = icmp eq %"class.altered_carbon::js::RefCounted.23"* %148, null
  br i1 %149, label %155, label %150

; <label>:150:                                    ; preds = %140
  %151 = bitcast %"class.altered_carbon::js::RefCounted.23"* %148 to void (%"class.altered_carbon::js::RefCounted.23"*)***
  %152 = load void (%"class.altered_carbon::js::RefCounted.23"*)**, void (%"class.altered_carbon::js::RefCounted.23"*)*** %151, align 8
  %153 = getelementptr inbounds void (%"class.altered_carbon::js::RefCounted.23"*)*, void (%"class.altered_carbon::js::RefCounted.23"*)** %152, i64 1
  %154 = load void (%"class.altered_carbon::js::RefCounted.23"*)*, void (%"class.altered_carbon::js::RefCounted.23"*)** %153, align 8
  call void %154(%"class.altered_carbon::js::RefCounted.23"* %148) #8
  br label %155

; <label>:155:                                    ; preds = %150, %140
  br label %156

; <label>:156:                                    ; preds = %107, %155
  br label %161

; <label>:157:                                    ; preds = %2
  %158 = getelementptr inbounds %"class.altered_carbon::js::JsVariant", %"class.altered_carbon::js::JsVariant"* %45, i32 0, i32 2
  %159 = bitcast %union.anon* %158 to %"struct.altered_carbon::js::JsVariantIterator"*
  call void @_ZN14altered_carbon2js17JsVariantIterator5resetEb(%"struct.altered_carbon::js::JsVariantIterator"* %159, i1 zeroext true)
  br label %161

; <label>:160:                                    ; preds = %2
  br label %161

; <label>:161:                                    ; preds = %160, %157, %156, %104, %101, %98, %97
  ret void
}

; Function Attrs: noinline nounwind optnone ssp uwtable
define linkonce_odr hidden void @_ZN14altered_carbon2js13RefCountedPtrINSt3__112basic_stringIwNS2_11char_traitsIwEENS2_9allocatorIwEEEEE5resetEPNS0_10RefCountedIS8_EEb(%"class.altered_carbon::js::RefCountedPtr"*, %"class.altered_carbon::js::RefCounted"*, i1 zeroext) #0 align 2 {
  %4 = alloca %"struct.std::__1::__atomic_base"*, align 8
  %5 = alloca i64, align 8
  %6 = alloca i32, align 4
  %7 = alloca i64, align 8
  %8 = alloca i64, align 8
  %9 = alloca %"class.altered_carbon::js::RefCountedPtr"*, align 8
  %10 = alloca %"class.altered_carbon::js::RefCounted"*, align 8
  %11 = alloca i8, align 1
  store %"class.altered_carbon::js::RefCountedPtr"* %0, %"class.altered_carbon::js::RefCountedPtr"** %9, align 8
  store %"class.altered_carbon::js::RefCounted"* %1, %"class.altered_carbon::js::RefCounted"** %10, align 8
  %12 = zext i1 %2 to i8
  store i8 %12, i8* %11, align 1
  %13 = load %"class.altered_carbon::js::RefCountedPtr"*, %"class.altered_carbon::js::RefCountedPtr"** %9, align 8
  %14 = load i8, i8* %11, align 1
  %15 = trunc i8 %14 to i1
  call void @_ZN14altered_carbon2js13RefCountedPtrINSt3__112basic_stringIwNS2_11char_traitsIwEENS2_9allocatorIwEEEEE5resetEb(%"class.altered_carbon::js::RefCountedPtr"* %13, i1 zeroext %15)
  %16 = load %"class.altered_carbon::js::RefCounted"*, %"class.altered_carbon::js::RefCounted"** %10, align 8
  %17 = getelementptr inbounds %"class.altered_carbon::js::RefCountedPtr", %"class.altered_carbon::js::RefCountedPtr"* %13, i32 0, i32 0
  store %"class.altered_carbon::js::RefCounted"* %16, %"class.altered_carbon::js::RefCounted"** %17, align 8
  %18 = getelementptr inbounds %"class.altered_carbon::js::RefCountedPtr", %"class.altered_carbon::js::RefCountedPtr"* %13, i32 0, i32 0
  %19 = load %"class.altered_carbon::js::RefCounted"*, %"class.altered_carbon::js::RefCounted"** %18, align 8
  %20 = icmp ne %"class.altered_carbon::js::RefCounted"* %19, null
  br i1 %20, label %21, label %51

; <label>:21:                                     ; preds = %3
  %22 = getelementptr inbounds %"class.altered_carbon::js::RefCountedPtr", %"class.altered_carbon::js::RefCountedPtr"* %13, i32 0, i32 0
  %23 = load %"class.altered_carbon::js::RefCounted"*, %"class.altered_carbon::js::RefCounted"** %22, align 8
  %24 = bitcast %"class.altered_carbon::js::RefCounted"* %23 to i8*
  %25 = getelementptr inbounds i8, i8* %24, i64 24
  %26 = bitcast i8* %25 to %"struct.altered_carbon::js::RefCounter"*
  %27 = getelementptr inbounds %"struct.altered_carbon::js::RefCounter", %"struct.altered_carbon::js::RefCounter"* %26, i32 0, i32 0
  %28 = bitcast %"struct.std::__1::atomic"* %27 to %"struct.std::__1::__atomic_base"*
  store %"struct.std::__1::__atomic_base"* %28, %"struct.std::__1::__atomic_base"** %4, align 8
  store i64 1, i64* %5, align 8
  store i32 5, i32* %6, align 4
  %29 = load %"struct.std::__1::__atomic_base"*, %"struct.std::__1::__atomic_base"** %4, align 8
  %30 = bitcast %"struct.std::__1::__atomic_base"* %29 to %"struct.std::__1::__atomic_base.3"*
  %31 = getelementptr inbounds %"struct.std::__1::__atomic_base.3", %"struct.std::__1::__atomic_base.3"* %30, i32 0, i32 0
  %32 = load i32, i32* %6, align 4
  %33 = load i64, i64* %5, align 8
  store i64 %33, i64* %7, align 8
  switch i32 %32, label %34 [
    i32 1, label %37
    i32 2, label %37
    i32 3, label %40
    i32 4, label %43
    i32 5, label %46
  ]

; <label>:34:                                     ; preds = %21
  %35 = load i64, i64* %7, align 8
  %36 = atomicrmw add i64* %31, i64 %35 monotonic
  store i64 %36, i64* %8, align 8
  br label %49

; <label>:37:                                     ; preds = %21, %21
  %38 = load i64, i64* %7, align 8
  %39 = atomicrmw add i64* %31, i64 %38 acquire
  store i64 %39, i64* %8, align 8
  br label %49

; <label>:40:                                     ; preds = %21
  %41 = load i64, i64* %7, align 8
  %42 = atomicrmw add i64* %31, i64 %41 release
  store i64 %42, i64* %8, align 8
  br label %49

; <label>:43:                                     ; preds = %21
  %44 = load i64, i64* %7, align 8
  %45 = atomicrmw add i64* %31, i64 %44 acq_rel
  store i64 %45, i64* %8, align 8
  br label %49

; <label>:46:                                     ; preds = %21
  %47 = load i64, i64* %7, align 8
  %48 = atomicrmw add i64* %31, i64 %47 seq_cst
  store i64 %48, i64* %8, align 8
  br label %49

; <label>:49:                                     ; preds = %34, %37, %40, %43, %46
  %50 = load i64, i64* %8, align 8
  br label %51

; <label>:51:                                     ; preds = %49, %3
  ret void
}

; Function Attrs: noinline nounwind optnone ssp uwtable
define linkonce_odr void @_ZN4llvm11make_uniqueIN14altered_carbon2js10RefCountedINSt3__112basic_stringIwNS4_11char_traitsIwEENS4_9allocatorIwEEEEEEJRA1_KwEEENS4_9enable_ifIXntsr3std8is_arrayIT_EE5valueENS4_10unique_ptrISG_NS4_14default_deleteISG_EEEEE4typeEDpOT0_(%"class.std::__1::unique_ptr"* noalias sret, [1 x i32]* dereferenceable(4)) #0 {
  %3 = alloca %"class.std::__1::allocator"*, align 8
  %4 = alloca %"struct.std::__1::__compressed_pair_elem.2"*, align 8
  %5 = alloca %"struct.std::__1::__compressed_pair_elem"*, align 8
  %6 = alloca %"class.std::__1::__compressed_pair"*, align 8
  %7 = alloca %"class.std::__1::__compressed_pair"*, align 8
  %8 = alloca %"class.std::__1::basic_string"*, align 8
  %9 = alloca i32*, align 8
  %10 = alloca %"class.std::__1::basic_string"*, align 8
  %11 = alloca i32*, align 8
  %12 = alloca %"class.altered_carbon::js::RefCounted"**, align 8
  %13 = alloca %"struct.std::__1::__compressed_pair_elem.30"*, align 8
  %14 = alloca %"class.altered_carbon::js::RefCounted"**, align 8
  %15 = alloca %"class.altered_carbon::js::RefCounted"**, align 8
  %16 = alloca %"class.std::__1::__compressed_pair.29"*, align 8
  %17 = alloca %"class.altered_carbon::js::RefCounted"**, align 8
  %18 = alloca %"class.std::__1::__compressed_pair.29"*, align 8
  %19 = alloca %"class.altered_carbon::js::RefCounted"**, align 8
  %20 = alloca %"class.std::__1::unique_ptr"*, align 8
  %21 = alloca %"class.altered_carbon::js::RefCounted"*, align 8
  %22 = alloca %"class.std::__1::unique_ptr"*, align 8
  %23 = alloca %"class.altered_carbon::js::RefCounted"*, align 8
  %24 = alloca [1 x i32]*, align 8
  %25 = alloca [1 x i32]*, align 8
  %26 = alloca %"class.std::__1::basic_string", align 8
  store [1 x i32]* %1, [1 x i32]** %25, align 8
  %27 = call i8* @_Znwm(i64 32) #13
  %28 = bitcast i8* %27 to %"class.altered_carbon::js::RefCounted"*
  %29 = load [1 x i32]*, [1 x i32]** %25, align 8
  store [1 x i32]* %29, [1 x i32]** %24, align 8
  %30 = load [1 x i32]*, [1 x i32]** %24, align 8
  %31 = getelementptr inbounds [1 x i32], [1 x i32]* %30, i32 0, i32 0
  store %"class.std::__1::basic_string"* %26, %"class.std::__1::basic_string"** %10, align 8
  store i32* %31, i32** %11, align 8
  %32 = load %"class.std::__1::basic_string"*, %"class.std::__1::basic_string"** %10, align 8
  %33 = load i32*, i32** %11, align 8
  store %"class.std::__1::basic_string"* %32, %"class.std::__1::basic_string"** %8, align 8
  store i32* %33, i32** %9, align 8
  %34 = load %"class.std::__1::basic_string"*, %"class.std::__1::basic_string"** %8, align 8
  %35 = bitcast %"class.std::__1::basic_string"* %34 to %"class.std::__1::__basic_string_common"*
  %36 = getelementptr inbounds %"class.std::__1::basic_string", %"class.std::__1::basic_string"* %34, i32 0, i32 0
  store %"class.std::__1::__compressed_pair"* %36, %"class.std::__1::__compressed_pair"** %7, align 8
  %37 = load %"class.std::__1::__compressed_pair"*, %"class.std::__1::__compressed_pair"** %7, align 8
  store %"class.std::__1::__compressed_pair"* %37, %"class.std::__1::__compressed_pair"** %6, align 8
  %38 = load %"class.std::__1::__compressed_pair"*, %"class.std::__1::__compressed_pair"** %6, align 8
  %39 = bitcast %"class.std::__1::__compressed_pair"* %38 to %"struct.std::__1::__compressed_pair_elem"*
  store %"struct.std::__1::__compressed_pair_elem"* %39, %"struct.std::__1::__compressed_pair_elem"** %5, align 8
  %40 = load %"struct.std::__1::__compressed_pair_elem"*, %"struct.std::__1::__compressed_pair_elem"** %5, align 8
  %41 = getelementptr inbounds %"struct.std::__1::__compressed_pair_elem", %"struct.std::__1::__compressed_pair_elem"* %40, i32 0, i32 0
  %42 = bitcast %"struct.std::__1::basic_string<wchar_t, std::__1::char_traits<wchar_t>, std::__1::allocator<wchar_t> >::__rep"* %41 to i8*
  call void @llvm.memset.p0i8.i64(i8* align 8 %42, i8 0, i64 24, i1 false)
  %43 = bitcast %"class.std::__1::__compressed_pair"* %38 to %"struct.std::__1::__compressed_pair_elem.2"*
  store %"struct.std::__1::__compressed_pair_elem.2"* %43, %"struct.std::__1::__compressed_pair_elem.2"** %4, align 8
  %44 = load %"struct.std::__1::__compressed_pair_elem.2"*, %"struct.std::__1::__compressed_pair_elem.2"** %4, align 8
  %45 = bitcast %"struct.std::__1::__compressed_pair_elem.2"* %44 to %"class.std::__1::allocator"*
  store %"class.std::__1::allocator"* %45, %"class.std::__1::allocator"** %3, align 8
  %46 = load %"class.std::__1::allocator"*, %"class.std::__1::allocator"** %3, align 8
  %47 = load i32*, i32** %9, align 8
  %48 = load i32*, i32** %9, align 8
  %49 = call i64 @_ZNSt3__111char_traitsIwE6lengthEPKw(i32* %48) #8
  call void @_ZNSt3__112basic_stringIwNS_11char_traitsIwEENS_9allocatorIwEEE6__initEPKwm(%"class.std::__1::basic_string"* %34, i32* %47, i64 %49) #8
  call void @_ZN14altered_carbon2js10RefCountedINSt3__112basic_stringIwNS2_11char_traitsIwEENS2_9allocatorIwEEEEEC1ERKS8_(%"class.altered_carbon::js::RefCounted"* %28, %"class.std::__1::basic_string"* dereferenceable(24) %26)
  store %"class.std::__1::unique_ptr"* %0, %"class.std::__1::unique_ptr"** %22, align 8
  store %"class.altered_carbon::js::RefCounted"* %28, %"class.altered_carbon::js::RefCounted"** %23, align 8
  %50 = load %"class.std::__1::unique_ptr"*, %"class.std::__1::unique_ptr"** %22, align 8
  %51 = load %"class.altered_carbon::js::RefCounted"*, %"class.altered_carbon::js::RefCounted"** %23, align 8
  store %"class.std::__1::unique_ptr"* %50, %"class.std::__1::unique_ptr"** %20, align 8
  store %"class.altered_carbon::js::RefCounted"* %51, %"class.altered_carbon::js::RefCounted"** %21, align 8
  %52 = load %"class.std::__1::unique_ptr"*, %"class.std::__1::unique_ptr"** %20, align 8
  %53 = getelementptr inbounds %"class.std::__1::unique_ptr", %"class.std::__1::unique_ptr"* %52, i32 0, i32 0
  store %"class.std::__1::__compressed_pair.29"* %53, %"class.std::__1::__compressed_pair.29"** %18, align 8
  store %"class.altered_carbon::js::RefCounted"** %21, %"class.altered_carbon::js::RefCounted"*** %19, align 8
  %54 = load %"class.std::__1::__compressed_pair.29"*, %"class.std::__1::__compressed_pair.29"** %18, align 8
  %55 = load %"class.altered_carbon::js::RefCounted"**, %"class.altered_carbon::js::RefCounted"*** %19, align 8
  store %"class.std::__1::__compressed_pair.29"* %54, %"class.std::__1::__compressed_pair.29"** %16, align 8
  store %"class.altered_carbon::js::RefCounted"** %55, %"class.altered_carbon::js::RefCounted"*** %17, align 8
  %56 = load %"class.std::__1::__compressed_pair.29"*, %"class.std::__1::__compressed_pair.29"** %16, align 8
  %57 = bitcast %"class.std::__1::__compressed_pair.29"* %56 to %"struct.std::__1::__compressed_pair_elem.30"*
  %58 = load %"class.altered_carbon::js::RefCounted"**, %"class.altered_carbon::js::RefCounted"*** %17, align 8
  store %"class.altered_carbon::js::RefCounted"** %58, %"class.altered_carbon::js::RefCounted"*** %15, align 8
  %59 = load %"class.altered_carbon::js::RefCounted"**, %"class.altered_carbon::js::RefCounted"*** %15, align 8
  store %"struct.std::__1::__compressed_pair_elem.30"* %57, %"struct.std::__1::__compressed_pair_elem.30"** %13, align 8
  store %"class.altered_carbon::js::RefCounted"** %59, %"class.altered_carbon::js::RefCounted"*** %14, align 8
  %60 = load %"struct.std::__1::__compressed_pair_elem.30"*, %"struct.std::__1::__compressed_pair_elem.30"** %13, align 8
  %61 = getelementptr inbounds %"struct.std::__1::__compressed_pair_elem.30", %"struct.std::__1::__compressed_pair_elem.30"* %60, i32 0, i32 0
  %62 = load %"class.altered_carbon::js::RefCounted"**, %"class.altered_carbon::js::RefCounted"*** %14, align 8
  store %"class.altered_carbon::js::RefCounted"** %62, %"class.altered_carbon::js::RefCounted"*** %12, align 8
  %63 = load %"class.altered_carbon::js::RefCounted"**, %"class.altered_carbon::js::RefCounted"*** %12, align 8
  %64 = load %"class.altered_carbon::js::RefCounted"*, %"class.altered_carbon::js::RefCounted"** %63, align 8
  store %"class.altered_carbon::js::RefCounted"* %64, %"class.altered_carbon::js::RefCounted"** %61, align 8
  %65 = bitcast %"class.std::__1::__compressed_pair.29"* %56 to %"struct.std::__1::__compressed_pair_elem.31"*
  call void @_ZNSt3__112basic_stringIwNS_11char_traitsIwEENS_9allocatorIwEEED1Ev(%"class.std::__1::basic_string"* %26) #8
  ret void
}

; Function Attrs: noinline nounwind optnone ssp uwtable
define linkonce_odr hidden void @_ZN14altered_carbon2js13JsVariantFunc5resetEb(%"struct.altered_carbon::js::JsVariantFunc"*, i1 zeroext) #0 align 2 {
  %3 = alloca %"struct.altered_carbon::js::JsVariantFunc"*, align 8
  %4 = alloca i8, align 1
  store %"struct.altered_carbon::js::JsVariantFunc"* %0, %"struct.altered_carbon::js::JsVariantFunc"** %3, align 8
  %5 = zext i1 %1 to i8
  store i8 %5, i8* %4, align 1
  %6 = load %"struct.altered_carbon::js::JsVariantFunc"*, %"struct.altered_carbon::js::JsVariantFunc"** %3, align 8
  %7 = getelementptr inbounds %"struct.altered_carbon::js::JsVariantFunc", %"struct.altered_carbon::js::JsVariantFunc"* %6, i32 0, i32 0
  store void (%"class.altered_carbon::js::JsVariant"*, %"class.altered_carbon::js::JsVariant"*, %"class.altered_carbon::js::JsVariant"**, i64)* null, void (%"class.altered_carbon::js::JsVariant"*, %"class.altered_carbon::js::JsVariant"*, %"class.altered_carbon::js::JsVariant"**, i64)** %7, align 8
  %8 = getelementptr inbounds %"struct.altered_carbon::js::JsVariantFunc", %"struct.altered_carbon::js::JsVariantFunc"* %6, i32 0, i32 1
  store i32* getelementptr inbounds ([1 x i32], [1 x i32]* @_ZN14altered_carbon2jsL13EMPTY_WSTRINGE, i32 0, i32 0), i32** %8, align 8
  ret void
}

; Function Attrs: noinline nounwind optnone ssp uwtable
define linkonce_odr hidden void @_ZN14altered_carbon2js13RefCountedPtrINS0_15JsVariantObjectEE5resetEb(%"class.altered_carbon::js::RefCountedPtr.12"*, i1 zeroext) #0 align 2 {
  %3 = alloca %"struct.std::__1::__atomic_base"*, align 8
  %4 = alloca i64, align 8
  %5 = alloca i32, align 4
  %6 = alloca i64, align 8
  %7 = alloca i64, align 8
  %8 = alloca %"class.altered_carbon::js::RefCountedPtr.12"*, align 8
  %9 = alloca i8, align 1
  store %"class.altered_carbon::js::RefCountedPtr.12"* %0, %"class.altered_carbon::js::RefCountedPtr.12"** %8, align 8
  %10 = zext i1 %1 to i8
  store i8 %10, i8* %9, align 1
  %11 = load %"class.altered_carbon::js::RefCountedPtr.12"*, %"class.altered_carbon::js::RefCountedPtr.12"** %8, align 8
  %12 = load i8, i8* %9, align 1
  %13 = trunc i8 %12 to i1
  br i1 %13, label %56, label %14

; <label>:14:                                     ; preds = %2
  %15 = getelementptr inbounds %"class.altered_carbon::js::RefCountedPtr.12", %"class.altered_carbon::js::RefCountedPtr.12"* %11, i32 0, i32 0
  %16 = load %"class.altered_carbon::js::RefCounted.13"*, %"class.altered_carbon::js::RefCounted.13"** %15, align 8
  %17 = icmp ne %"class.altered_carbon::js::RefCounted.13"* %16, null
  br i1 %17, label %18, label %56

; <label>:18:                                     ; preds = %14
  %19 = getelementptr inbounds %"class.altered_carbon::js::RefCountedPtr.12", %"class.altered_carbon::js::RefCountedPtr.12"* %11, i32 0, i32 0
  %20 = load %"class.altered_carbon::js::RefCounted.13"*, %"class.altered_carbon::js::RefCounted.13"** %19, align 8
  %21 = bitcast %"class.altered_carbon::js::RefCounted.13"* %20 to i8*
  %22 = getelementptr inbounds i8, i8* %21, i64 48
  %23 = bitcast i8* %22 to %"struct.altered_carbon::js::RefCounter"*
  %24 = getelementptr inbounds %"struct.altered_carbon::js::RefCounter", %"struct.altered_carbon::js::RefCounter"* %23, i32 0, i32 0
  %25 = bitcast %"struct.std::__1::atomic"* %24 to %"struct.std::__1::__atomic_base"*
  store %"struct.std::__1::__atomic_base"* %25, %"struct.std::__1::__atomic_base"** %3, align 8
  store i64 1, i64* %4, align 8
  store i32 5, i32* %5, align 4
  %26 = load %"struct.std::__1::__atomic_base"*, %"struct.std::__1::__atomic_base"** %3, align 8
  %27 = bitcast %"struct.std::__1::__atomic_base"* %26 to %"struct.std::__1::__atomic_base.3"*
  %28 = getelementptr inbounds %"struct.std::__1::__atomic_base.3", %"struct.std::__1::__atomic_base.3"* %27, i32 0, i32 0
  %29 = load i32, i32* %5, align 4
  %30 = load i64, i64* %4, align 8
  store i64 %30, i64* %6, align 8
  switch i32 %29, label %31 [
    i32 1, label %34
    i32 2, label %34
    i32 3, label %37
    i32 4, label %40
    i32 5, label %43
  ]

; <label>:31:                                     ; preds = %18
  %32 = load i64, i64* %6, align 8
  %33 = atomicrmw sub i64* %28, i64 %32 monotonic
  store i64 %33, i64* %7, align 8
  br label %46

; <label>:34:                                     ; preds = %18, %18
  %35 = load i64, i64* %6, align 8
  %36 = atomicrmw sub i64* %28, i64 %35 acquire
  store i64 %36, i64* %7, align 8
  br label %46

; <label>:37:                                     ; preds = %18
  %38 = load i64, i64* %6, align 8
  %39 = atomicrmw sub i64* %28, i64 %38 release
  store i64 %39, i64* %7, align 8
  br label %46

; <label>:40:                                     ; preds = %18
  %41 = load i64, i64* %6, align 8
  %42 = atomicrmw sub i64* %28, i64 %41 acq_rel
  store i64 %42, i64* %7, align 8
  br label %46

; <label>:43:                                     ; preds = %18
  %44 = load i64, i64* %6, align 8
  %45 = atomicrmw sub i64* %28, i64 %44 seq_cst
  store i64 %45, i64* %7, align 8
  br label %46

; <label>:46:                                     ; preds = %31, %34, %37, %40, %43
  %47 = load i64, i64* %7, align 8
  %48 = icmp eq i64 %47, 1
  br i1 %48, label %49, label %56

; <label>:49:                                     ; preds = %46
  %50 = getelementptr inbounds %"class.altered_carbon::js::RefCountedPtr.12", %"class.altered_carbon::js::RefCountedPtr.12"* %11, i32 0, i32 0
  %51 = load %"class.altered_carbon::js::RefCounted.13"*, %"class.altered_carbon::js::RefCounted.13"** %50, align 8
  %52 = icmp eq %"class.altered_carbon::js::RefCounted.13"* %51, null
  br i1 %52, label %55, label %53

; <label>:53:                                     ; preds = %49
  call void @_ZN14altered_carbon2js10RefCountedINS0_15JsVariantObjectEED1Ev(%"class.altered_carbon::js::RefCounted.13"* %51) #8
  %54 = bitcast %"class.altered_carbon::js::RefCounted.13"* %51 to i8*
  call void @_ZdlPv(i8* %54) #12
  br label %55

; <label>:55:                                     ; preds = %53, %49
  br label %56

; <label>:56:                                     ; preds = %55, %46, %14, %2
  %57 = getelementptr inbounds %"class.altered_carbon::js::RefCountedPtr.12", %"class.altered_carbon::js::RefCountedPtr.12"* %11, i32 0, i32 0
  store %"class.altered_carbon::js::RefCounted.13"* null, %"class.altered_carbon::js::RefCounted.13"** %57, align 8
  ret void
}

; Function Attrs: noinline nounwind optnone ssp uwtable
define linkonce_odr hidden void @_ZN14altered_carbon2js13RefCountedPtrINS0_14JsVariantArrayEE5resetEb(%"class.altered_carbon::js::RefCountedPtr.22"*, i1 zeroext) #0 align 2 {
  %3 = alloca %"struct.std::__1::__atomic_base"*, align 8
  %4 = alloca i64, align 8
  %5 = alloca i32, align 4
  %6 = alloca i64, align 8
  %7 = alloca i64, align 8
  %8 = alloca %"class.altered_carbon::js::RefCountedPtr.22"*, align 8
  %9 = alloca i8, align 1
  store %"class.altered_carbon::js::RefCountedPtr.22"* %0, %"class.altered_carbon::js::RefCountedPtr.22"** %8, align 8
  %10 = zext i1 %1 to i8
  store i8 %10, i8* %9, align 1
  %11 = load %"class.altered_carbon::js::RefCountedPtr.22"*, %"class.altered_carbon::js::RefCountedPtr.22"** %8, align 8
  %12 = load i8, i8* %9, align 1
  %13 = trunc i8 %12 to i1
  br i1 %13, label %59, label %14

; <label>:14:                                     ; preds = %2
  %15 = getelementptr inbounds %"class.altered_carbon::js::RefCountedPtr.22", %"class.altered_carbon::js::RefCountedPtr.22"* %11, i32 0, i32 0
  %16 = load %"class.altered_carbon::js::RefCounted.23"*, %"class.altered_carbon::js::RefCounted.23"** %15, align 8
  %17 = icmp ne %"class.altered_carbon::js::RefCounted.23"* %16, null
  br i1 %17, label %18, label %59

; <label>:18:                                     ; preds = %14
  %19 = getelementptr inbounds %"class.altered_carbon::js::RefCountedPtr.22", %"class.altered_carbon::js::RefCountedPtr.22"* %11, i32 0, i32 0
  %20 = load %"class.altered_carbon::js::RefCounted.23"*, %"class.altered_carbon::js::RefCounted.23"** %19, align 8
  %21 = bitcast %"class.altered_carbon::js::RefCounted.23"* %20 to i8*
  %22 = getelementptr inbounds i8, i8* %21, i64 24
  %23 = bitcast i8* %22 to %"struct.altered_carbon::js::RefCounter"*
  %24 = getelementptr inbounds %"struct.altered_carbon::js::RefCounter", %"struct.altered_carbon::js::RefCounter"* %23, i32 0, i32 0
  %25 = bitcast %"struct.std::__1::atomic"* %24 to %"struct.std::__1::__atomic_base"*
  store %"struct.std::__1::__atomic_base"* %25, %"struct.std::__1::__atomic_base"** %3, align 8
  store i64 1, i64* %4, align 8
  store i32 5, i32* %5, align 4
  %26 = load %"struct.std::__1::__atomic_base"*, %"struct.std::__1::__atomic_base"** %3, align 8
  %27 = bitcast %"struct.std::__1::__atomic_base"* %26 to %"struct.std::__1::__atomic_base.3"*
  %28 = getelementptr inbounds %"struct.std::__1::__atomic_base.3", %"struct.std::__1::__atomic_base.3"* %27, i32 0, i32 0
  %29 = load i32, i32* %5, align 4
  %30 = load i64, i64* %4, align 8
  store i64 %30, i64* %6, align 8
  switch i32 %29, label %31 [
    i32 1, label %34
    i32 2, label %34
    i32 3, label %37
    i32 4, label %40
    i32 5, label %43
  ]

; <label>:31:                                     ; preds = %18
  %32 = load i64, i64* %6, align 8
  %33 = atomicrmw sub i64* %28, i64 %32 monotonic
  store i64 %33, i64* %7, align 8
  br label %46

; <label>:34:                                     ; preds = %18, %18
  %35 = load i64, i64* %6, align 8
  %36 = atomicrmw sub i64* %28, i64 %35 acquire
  store i64 %36, i64* %7, align 8
  br label %46

; <label>:37:                                     ; preds = %18
  %38 = load i64, i64* %6, align 8
  %39 = atomicrmw sub i64* %28, i64 %38 release
  store i64 %39, i64* %7, align 8
  br label %46

; <label>:40:                                     ; preds = %18
  %41 = load i64, i64* %6, align 8
  %42 = atomicrmw sub i64* %28, i64 %41 acq_rel
  store i64 %42, i64* %7, align 8
  br label %46

; <label>:43:                                     ; preds = %18
  %44 = load i64, i64* %6, align 8
  %45 = atomicrmw sub i64* %28, i64 %44 seq_cst
  store i64 %45, i64* %7, align 8
  br label %46

; <label>:46:                                     ; preds = %31, %34, %37, %40, %43
  %47 = load i64, i64* %7, align 8
  %48 = icmp eq i64 %47, 1
  br i1 %48, label %49, label %59

; <label>:49:                                     ; preds = %46
  %50 = getelementptr inbounds %"class.altered_carbon::js::RefCountedPtr.22", %"class.altered_carbon::js::RefCountedPtr.22"* %11, i32 0, i32 0
  %51 = load %"class.altered_carbon::js::RefCounted.23"*, %"class.altered_carbon::js::RefCounted.23"** %50, align 8
  %52 = icmp eq %"class.altered_carbon::js::RefCounted.23"* %51, null
  br i1 %52, label %58, label %53

; <label>:53:                                     ; preds = %49
  %54 = bitcast %"class.altered_carbon::js::RefCounted.23"* %51 to void (%"class.altered_carbon::js::RefCounted.23"*)***
  %55 = load void (%"class.altered_carbon::js::RefCounted.23"*)**, void (%"class.altered_carbon::js::RefCounted.23"*)*** %54, align 8
  %56 = getelementptr inbounds void (%"class.altered_carbon::js::RefCounted.23"*)*, void (%"class.altered_carbon::js::RefCounted.23"*)** %55, i64 1
  %57 = load void (%"class.altered_carbon::js::RefCounted.23"*)*, void (%"class.altered_carbon::js::RefCounted.23"*)** %56, align 8
  call void %57(%"class.altered_carbon::js::RefCounted.23"* %51) #8
  br label %58

; <label>:58:                                     ; preds = %53, %49
  br label %59

; <label>:59:                                     ; preds = %58, %46, %14, %2
  %60 = getelementptr inbounds %"class.altered_carbon::js::RefCountedPtr.22", %"class.altered_carbon::js::RefCountedPtr.22"* %11, i32 0, i32 0
  store %"class.altered_carbon::js::RefCounted.23"* null, %"class.altered_carbon::js::RefCounted.23"** %60, align 8
  ret void
}

; Function Attrs: noinline nounwind optnone ssp uwtable
define linkonce_odr hidden void @_ZN14altered_carbon2js13RefCountedPtrINS0_14JsVariantArrayEE5resetEPNS0_10RefCountedIS2_EEb(%"class.altered_carbon::js::RefCountedPtr.22"*, %"class.altered_carbon::js::RefCounted.23"*, i1 zeroext) #0 align 2 {
  %4 = alloca %"struct.std::__1::__atomic_base"*, align 8
  %5 = alloca i64, align 8
  %6 = alloca i32, align 4
  %7 = alloca i64, align 8
  %8 = alloca i64, align 8
  %9 = alloca %"class.altered_carbon::js::RefCountedPtr.22"*, align 8
  %10 = alloca %"class.altered_carbon::js::RefCounted.23"*, align 8
  %11 = alloca i8, align 1
  store %"class.altered_carbon::js::RefCountedPtr.22"* %0, %"class.altered_carbon::js::RefCountedPtr.22"** %9, align 8
  store %"class.altered_carbon::js::RefCounted.23"* %1, %"class.altered_carbon::js::RefCounted.23"** %10, align 8
  %12 = zext i1 %2 to i8
  store i8 %12, i8* %11, align 1
  %13 = load %"class.altered_carbon::js::RefCountedPtr.22"*, %"class.altered_carbon::js::RefCountedPtr.22"** %9, align 8
  %14 = load i8, i8* %11, align 1
  %15 = trunc i8 %14 to i1
  call void @_ZN14altered_carbon2js13RefCountedPtrINS0_14JsVariantArrayEE5resetEb(%"class.altered_carbon::js::RefCountedPtr.22"* %13, i1 zeroext %15)
  %16 = load %"class.altered_carbon::js::RefCounted.23"*, %"class.altered_carbon::js::RefCounted.23"** %10, align 8
  %17 = getelementptr inbounds %"class.altered_carbon::js::RefCountedPtr.22", %"class.altered_carbon::js::RefCountedPtr.22"* %13, i32 0, i32 0
  store %"class.altered_carbon::js::RefCounted.23"* %16, %"class.altered_carbon::js::RefCounted.23"** %17, align 8
  %18 = getelementptr inbounds %"class.altered_carbon::js::RefCountedPtr.22", %"class.altered_carbon::js::RefCountedPtr.22"* %13, i32 0, i32 0
  %19 = load %"class.altered_carbon::js::RefCounted.23"*, %"class.altered_carbon::js::RefCounted.23"** %18, align 8
  %20 = icmp ne %"class.altered_carbon::js::RefCounted.23"* %19, null
  br i1 %20, label %21, label %51

; <label>:21:                                     ; preds = %3
  %22 = getelementptr inbounds %"class.altered_carbon::js::RefCountedPtr.22", %"class.altered_carbon::js::RefCountedPtr.22"* %13, i32 0, i32 0
  %23 = load %"class.altered_carbon::js::RefCounted.23"*, %"class.altered_carbon::js::RefCounted.23"** %22, align 8
  %24 = bitcast %"class.altered_carbon::js::RefCounted.23"* %23 to i8*
  %25 = getelementptr inbounds i8, i8* %24, i64 24
  %26 = bitcast i8* %25 to %"struct.altered_carbon::js::RefCounter"*
  %27 = getelementptr inbounds %"struct.altered_carbon::js::RefCounter", %"struct.altered_carbon::js::RefCounter"* %26, i32 0, i32 0
  %28 = bitcast %"struct.std::__1::atomic"* %27 to %"struct.std::__1::__atomic_base"*
  store %"struct.std::__1::__atomic_base"* %28, %"struct.std::__1::__atomic_base"** %4, align 8
  store i64 1, i64* %5, align 8
  store i32 5, i32* %6, align 4
  %29 = load %"struct.std::__1::__atomic_base"*, %"struct.std::__1::__atomic_base"** %4, align 8
  %30 = bitcast %"struct.std::__1::__atomic_base"* %29 to %"struct.std::__1::__atomic_base.3"*
  %31 = getelementptr inbounds %"struct.std::__1::__atomic_base.3", %"struct.std::__1::__atomic_base.3"* %30, i32 0, i32 0
  %32 = load i32, i32* %6, align 4
  %33 = load i64, i64* %5, align 8
  store i64 %33, i64* %7, align 8
  switch i32 %32, label %34 [
    i32 1, label %37
    i32 2, label %37
    i32 3, label %40
    i32 4, label %43
    i32 5, label %46
  ]

; <label>:34:                                     ; preds = %21
  %35 = load i64, i64* %7, align 8
  %36 = atomicrmw add i64* %31, i64 %35 monotonic
  store i64 %36, i64* %8, align 8
  br label %49

; <label>:37:                                     ; preds = %21, %21
  %38 = load i64, i64* %7, align 8
  %39 = atomicrmw add i64* %31, i64 %38 acquire
  store i64 %39, i64* %8, align 8
  br label %49

; <label>:40:                                     ; preds = %21
  %41 = load i64, i64* %7, align 8
  %42 = atomicrmw add i64* %31, i64 %41 release
  store i64 %42, i64* %8, align 8
  br label %49

; <label>:43:                                     ; preds = %21
  %44 = load i64, i64* %7, align 8
  %45 = atomicrmw add i64* %31, i64 %44 acq_rel
  store i64 %45, i64* %8, align 8
  br label %49

; <label>:46:                                     ; preds = %21
  %47 = load i64, i64* %7, align 8
  %48 = atomicrmw add i64* %31, i64 %47 seq_cst
  store i64 %48, i64* %8, align 8
  br label %49

; <label>:49:                                     ; preds = %34, %37, %40, %43, %46
  %50 = load i64, i64* %8, align 8
  br label %51

; <label>:51:                                     ; preds = %49, %3
  ret void
}

; Function Attrs: noinline nounwind optnone ssp uwtable
define linkonce_odr void @_ZN4llvm11make_uniqueIN14altered_carbon2js10RefCountedINS2_14JsVariantArrayEEEJEEENSt3__19enable_ifIXntsr3std8is_arrayIT_EE5valueENS6_10unique_ptrIS8_NS6_14default_deleteIS8_EEEEE4typeEDpOT0_(%"class.std::__1::unique_ptr.32"* noalias sret) #0 {
  %2 = alloca %"class.altered_carbon::js::RefCounted.23"**, align 8
  %3 = alloca %"struct.std::__1::__compressed_pair_elem.34"*, align 8
  %4 = alloca %"class.altered_carbon::js::RefCounted.23"**, align 8
  %5 = alloca %"class.altered_carbon::js::RefCounted.23"**, align 8
  %6 = alloca %"class.std::__1::__compressed_pair.33"*, align 8
  %7 = alloca %"class.altered_carbon::js::RefCounted.23"**, align 8
  %8 = alloca %"class.std::__1::__compressed_pair.33"*, align 8
  %9 = alloca %"class.altered_carbon::js::RefCounted.23"**, align 8
  %10 = alloca %"class.std::__1::unique_ptr.32"*, align 8
  %11 = alloca %"class.altered_carbon::js::RefCounted.23"*, align 8
  %12 = alloca %"class.std::__1::unique_ptr.32"*, align 8
  %13 = alloca %"class.altered_carbon::js::RefCounted.23"*, align 8
  %14 = call i8* @_Znwm(i64 32) #13
  %15 = bitcast i8* %14 to %"class.altered_carbon::js::RefCounted.23"*
  call void @_ZN14altered_carbon2js10RefCountedINS0_14JsVariantArrayEEC1Ev(%"class.altered_carbon::js::RefCounted.23"* %15)
  store %"class.std::__1::unique_ptr.32"* %0, %"class.std::__1::unique_ptr.32"** %12, align 8
  store %"class.altered_carbon::js::RefCounted.23"* %15, %"class.altered_carbon::js::RefCounted.23"** %13, align 8
  %16 = load %"class.std::__1::unique_ptr.32"*, %"class.std::__1::unique_ptr.32"** %12, align 8
  %17 = load %"class.altered_carbon::js::RefCounted.23"*, %"class.altered_carbon::js::RefCounted.23"** %13, align 8
  store %"class.std::__1::unique_ptr.32"* %16, %"class.std::__1::unique_ptr.32"** %10, align 8
  store %"class.altered_carbon::js::RefCounted.23"* %17, %"class.altered_carbon::js::RefCounted.23"** %11, align 8
  %18 = load %"class.std::__1::unique_ptr.32"*, %"class.std::__1::unique_ptr.32"** %10, align 8
  %19 = getelementptr inbounds %"class.std::__1::unique_ptr.32", %"class.std::__1::unique_ptr.32"* %18, i32 0, i32 0
  store %"class.std::__1::__compressed_pair.33"* %19, %"class.std::__1::__compressed_pair.33"** %8, align 8
  store %"class.altered_carbon::js::RefCounted.23"** %11, %"class.altered_carbon::js::RefCounted.23"*** %9, align 8
  %20 = load %"class.std::__1::__compressed_pair.33"*, %"class.std::__1::__compressed_pair.33"** %8, align 8
  %21 = load %"class.altered_carbon::js::RefCounted.23"**, %"class.altered_carbon::js::RefCounted.23"*** %9, align 8
  store %"class.std::__1::__compressed_pair.33"* %20, %"class.std::__1::__compressed_pair.33"** %6, align 8
  store %"class.altered_carbon::js::RefCounted.23"** %21, %"class.altered_carbon::js::RefCounted.23"*** %7, align 8
  %22 = load %"class.std::__1::__compressed_pair.33"*, %"class.std::__1::__compressed_pair.33"** %6, align 8
  %23 = bitcast %"class.std::__1::__compressed_pair.33"* %22 to %"struct.std::__1::__compressed_pair_elem.34"*
  %24 = load %"class.altered_carbon::js::RefCounted.23"**, %"class.altered_carbon::js::RefCounted.23"*** %7, align 8
  store %"class.altered_carbon::js::RefCounted.23"** %24, %"class.altered_carbon::js::RefCounted.23"*** %5, align 8
  %25 = load %"class.altered_carbon::js::RefCounted.23"**, %"class.altered_carbon::js::RefCounted.23"*** %5, align 8
  store %"struct.std::__1::__compressed_pair_elem.34"* %23, %"struct.std::__1::__compressed_pair_elem.34"** %3, align 8
  store %"class.altered_carbon::js::RefCounted.23"** %25, %"class.altered_carbon::js::RefCounted.23"*** %4, align 8
  %26 = load %"struct.std::__1::__compressed_pair_elem.34"*, %"struct.std::__1::__compressed_pair_elem.34"** %3, align 8
  %27 = getelementptr inbounds %"struct.std::__1::__compressed_pair_elem.34", %"struct.std::__1::__compressed_pair_elem.34"* %26, i32 0, i32 0
  %28 = load %"class.altered_carbon::js::RefCounted.23"**, %"class.altered_carbon::js::RefCounted.23"*** %4, align 8
  store %"class.altered_carbon::js::RefCounted.23"** %28, %"class.altered_carbon::js::RefCounted.23"*** %2, align 8
  %29 = load %"class.altered_carbon::js::RefCounted.23"**, %"class.altered_carbon::js::RefCounted.23"*** %2, align 8
  %30 = load %"class.altered_carbon::js::RefCounted.23"*, %"class.altered_carbon::js::RefCounted.23"** %29, align 8
  store %"class.altered_carbon::js::RefCounted.23"* %30, %"class.altered_carbon::js::RefCounted.23"** %27, align 8
  %31 = bitcast %"class.std::__1::__compressed_pair.33"* %22 to %"struct.std::__1::__compressed_pair_elem.35"*
  ret void
}

; Function Attrs: noinline nounwind optnone ssp uwtable
define void @_ZN14altered_carbon2js17JsVariantIterator5resetEb(%"struct.altered_carbon::js::JsVariantIterator"*, i1 zeroext) #0 align 2 {
  %3 = alloca %"struct.altered_carbon::js::JsVariantIterator"*, align 8
  %4 = alloca i8, align 1
  store %"struct.altered_carbon::js::JsVariantIterator"* %0, %"struct.altered_carbon::js::JsVariantIterator"** %3, align 8
  %5 = zext i1 %1 to i8
  store i8 %5, i8* %4, align 1
  %6 = load %"struct.altered_carbon::js::JsVariantIterator"*, %"struct.altered_carbon::js::JsVariantIterator"** %3, align 8
  %7 = getelementptr inbounds %"struct.altered_carbon::js::JsVariantIterator", %"struct.altered_carbon::js::JsVariantIterator"* %6, i32 0, i32 0
  %8 = load i8, i8* %4, align 1
  %9 = trunc i8 %8 to i1
  call void @_ZN14altered_carbon2js13RefCountedPtrINS0_14JsVariantArrayEE5resetEb(%"class.altered_carbon::js::RefCountedPtr.22"* %7, i1 zeroext %9)
  %10 = getelementptr inbounds %"struct.altered_carbon::js::JsVariantIterator", %"struct.altered_carbon::js::JsVariantIterator"* %6, i32 0, i32 1
  store %"class.altered_carbon::js::RBTreeNode"* null, %"class.altered_carbon::js::RBTreeNode"** %10, align 8
  %11 = getelementptr inbounds %"struct.altered_carbon::js::JsVariantIterator", %"struct.altered_carbon::js::JsVariantIterator"* %6, i32 0, i32 2
  store i32 0, i32* %11, align 8
  %12 = getelementptr inbounds %"struct.altered_carbon::js::JsVariantIterator", %"struct.altered_carbon::js::JsVariantIterator"* %6, i32 0, i32 3
  store i32 3, i32* %12, align 4
  ret void
}

; Function Attrs: noinline nounwind optnone ssp uwtable
define void @_ZN14altered_carbon2js9JsVariantC1ENS1_13JsVariantTypeE(%"class.altered_carbon::js::JsVariant"*, i32) unnamed_addr #0 align 2 {
  %3 = alloca %"class.altered_carbon::js::JsVariant"*, align 8
  %4 = alloca i32, align 4
  store %"class.altered_carbon::js::JsVariant"* %0, %"class.altered_carbon::js::JsVariant"** %3, align 8
  store i32 %1, i32* %4, align 4
  %5 = load %"class.altered_carbon::js::JsVariant"*, %"class.altered_carbon::js::JsVariant"** %3, align 8
  %6 = load i32, i32* %4, align 4
  call void @_ZN14altered_carbon2js9JsVariantC2ENS1_13JsVariantTypeE(%"class.altered_carbon::js::JsVariant"* %5, i32 %6)
  ret void
}

; Function Attrs: noinline nounwind optnone ssp uwtable
define void @_ZN14altered_carbon2js9JsVariantC2ENS1_13JsVariantTypeEPS1_(%"class.altered_carbon::js::JsVariant"*, i32, %"class.altered_carbon::js::JsVariant"*) unnamed_addr #0 align 2 {
  %4 = alloca %"class.altered_carbon::js::JsVariant"*, align 8
  %5 = alloca i32, align 4
  %6 = alloca %"class.altered_carbon::js::JsVariant"*, align 8
  store %"class.altered_carbon::js::JsVariant"* %0, %"class.altered_carbon::js::JsVariant"** %4, align 8
  store i32 %1, i32* %5, align 4
  store %"class.altered_carbon::js::JsVariant"* %2, %"class.altered_carbon::js::JsVariant"** %6, align 8
  %7 = load %"class.altered_carbon::js::JsVariant"*, %"class.altered_carbon::js::JsVariant"** %4, align 8
  %8 = bitcast %"class.altered_carbon::js::JsVariant"* %7 to i32 (...)***
  store i32 (...)** bitcast (i8** getelementptr inbounds ({ [4 x i8*] }, { [4 x i8*] }* @_ZTVN14altered_carbon2js9JsVariantE, i32 0, inrange i32 0, i32 2) to i32 (...)**), i32 (...)*** %8, align 8
  %9 = getelementptr inbounds %"class.altered_carbon::js::JsVariant", %"class.altered_carbon::js::JsVariant"* %7, i32 0, i32 1
  %10 = load i32, i32* %5, align 4
  store i32 %10, i32* %9, align 8
  %11 = getelementptr inbounds %"class.altered_carbon::js::JsVariant", %"class.altered_carbon::js::JsVariant"* %7, i32 0, i32 2
  %12 = bitcast %union.anon* %11 to %"class.altered_carbon::js::RefCountedPtr.12"*
  call void @_ZN14altered_carbon2js13RefCountedPtrINS0_15JsVariantObjectEEC1EPNS0_10RefCountedIS2_EE(%"class.altered_carbon::js::RefCountedPtr.12"* %12, %"class.altered_carbon::js::RefCounted.13"* null)
  %13 = getelementptr inbounds %"class.altered_carbon::js::JsVariant", %"class.altered_carbon::js::JsVariant"* %7, i32 0, i32 1
  %14 = load i32, i32* %13, align 8
  switch i32 %14, label %63 [
    i32 7, label %15
    i32 12, label %19
    i32 11, label %41
  ]

; <label>:15:                                     ; preds = %3
  %16 = load %"class.altered_carbon::js::JsVariant"*, %"class.altered_carbon::js::JsVariant"** %6, align 8
  %17 = getelementptr inbounds %"class.altered_carbon::js::JsVariant", %"class.altered_carbon::js::JsVariant"* %7, i32 0, i32 2
  %18 = bitcast %union.anon* %17 to %"class.altered_carbon::js::JsVariant"**
  store %"class.altered_carbon::js::JsVariant"* %16, %"class.altered_carbon::js::JsVariant"** %18, align 8
  br label %64

; <label>:19:                                     ; preds = %3
  %20 = load %"class.altered_carbon::js::JsVariant"*, %"class.altered_carbon::js::JsVariant"** %6, align 8
  %21 = icmp ne %"class.altered_carbon::js::JsVariant"* %20, null
  %22 = xor i1 %21, true
  %23 = xor i1 %22, true
  %24 = xor i1 %23, true
  br i1 %24, label %25, label %27

; <label>:25:                                     ; preds = %19
  call void @__assert_rtn(i8* getelementptr inbounds ([10 x i8], [10 x i8]* @__func__._ZN14altered_carbon2js9JsVariantC2ENS1_13JsVariantTypeEPS1_, i32 0, i32 0), i8* getelementptr inbounds ([19 x i8], [19 x i8]* @.str.1, i32 0, i32 0), i32 92, i8* getelementptr inbounds ([4 x i8], [4 x i8]* @.str.2, i32 0, i32 0)) #14
  unreachable
                                                  ; No predecessors!
  br label %28

; <label>:27:                                     ; preds = %19
  br label %28

; <label>:28:                                     ; preds = %27, %26
  %29 = load %"class.altered_carbon::js::JsVariant"*, %"class.altered_carbon::js::JsVariant"** %6, align 8
  %30 = getelementptr inbounds %"class.altered_carbon::js::JsVariant", %"class.altered_carbon::js::JsVariant"* %29, i32 0, i32 1
  %31 = load i32, i32* %30, align 8
  %32 = icmp eq i32 %31, 12
  br i1 %32, label %33, label %39

; <label>:33:                                     ; preds = %28
  %34 = getelementptr inbounds %"class.altered_carbon::js::JsVariant", %"class.altered_carbon::js::JsVariant"* %7, i32 0, i32 2
  %35 = bitcast %union.anon* %34 to %"class.altered_carbon::js::RefCountedPtr.22"*
  %36 = load %"class.altered_carbon::js::JsVariant"*, %"class.altered_carbon::js::JsVariant"** %6, align 8
  %37 = getelementptr inbounds %"class.altered_carbon::js::JsVariant", %"class.altered_carbon::js::JsVariant"* %36, i32 0, i32 2
  %38 = bitcast %union.anon* %37 to %"class.altered_carbon::js::RefCountedPtr.22"*
  call void @_ZN14altered_carbon2js13RefCountedPtrINS0_14JsVariantArrayEE5resetERKS3_b(%"class.altered_carbon::js::RefCountedPtr.22"* %35, %"class.altered_carbon::js::RefCountedPtr.22"* dereferenceable(8) %38, i1 zeroext false)
  br label %40

; <label>:39:                                     ; preds = %28
  call void @__assert_rtn(i8* getelementptr inbounds ([10 x i8], [10 x i8]* @__func__._ZN14altered_carbon2js9JsVariantC2ENS1_13JsVariantTypeEPS1_, i32 0, i32 0), i8* getelementptr inbounds ([19 x i8], [19 x i8]* @.str.1, i32 0, i32 0), i32 96, i8* getelementptr inbounds ([47 x i8], [47 x i8]* @.str.3, i32 0, i32 0)) #14
  unreachable

; <label>:40:                                     ; preds = %33
  br label %41

; <label>:41:                                     ; preds = %3, %40
  %42 = load %"class.altered_carbon::js::JsVariant"*, %"class.altered_carbon::js::JsVariant"** %6, align 8
  %43 = icmp ne %"class.altered_carbon::js::JsVariant"* %42, null
  %44 = xor i1 %43, true
  %45 = xor i1 %44, true
  %46 = xor i1 %45, true
  br i1 %46, label %47, label %49

; <label>:47:                                     ; preds = %41
  call void @__assert_rtn(i8* getelementptr inbounds ([10 x i8], [10 x i8]* @__func__._ZN14altered_carbon2js9JsVariantC2ENS1_13JsVariantTypeEPS1_, i32 0, i32 0), i8* getelementptr inbounds ([19 x i8], [19 x i8]* @.str.1, i32 0, i32 0), i32 99, i8* getelementptr inbounds ([4 x i8], [4 x i8]* @.str.2, i32 0, i32 0)) #14
  unreachable
                                                  ; No predecessors!
  br label %50

; <label>:49:                                     ; preds = %41
  br label %50

; <label>:50:                                     ; preds = %49, %48
  %51 = load %"class.altered_carbon::js::JsVariant"*, %"class.altered_carbon::js::JsVariant"** %6, align 8
  %52 = getelementptr inbounds %"class.altered_carbon::js::JsVariant", %"class.altered_carbon::js::JsVariant"* %51, i32 0, i32 1
  %53 = load i32, i32* %52, align 8
  %54 = icmp eq i32 %53, 11
  br i1 %54, label %55, label %61

; <label>:55:                                     ; preds = %50
  %56 = getelementptr inbounds %"class.altered_carbon::js::JsVariant", %"class.altered_carbon::js::JsVariant"* %7, i32 0, i32 2
  %57 = bitcast %union.anon* %56 to %"class.altered_carbon::js::RefCountedPtr.12"*
  %58 = load %"class.altered_carbon::js::JsVariant"*, %"class.altered_carbon::js::JsVariant"** %6, align 8
  %59 = getelementptr inbounds %"class.altered_carbon::js::JsVariant", %"class.altered_carbon::js::JsVariant"* %58, i32 0, i32 2
  %60 = bitcast %union.anon* %59 to %"class.altered_carbon::js::RefCountedPtr.12"*
  call void @_ZN14altered_carbon2js13RefCountedPtrINS0_15JsVariantObjectEE5resetERKS3_b(%"class.altered_carbon::js::RefCountedPtr.12"* %57, %"class.altered_carbon::js::RefCountedPtr.12"* dereferenceable(8) %60, i1 zeroext false)
  br label %62

; <label>:61:                                     ; preds = %50
  call void @__assert_rtn(i8* getelementptr inbounds ([10 x i8], [10 x i8]* @__func__._ZN14altered_carbon2js9JsVariantC2ENS1_13JsVariantTypeEPS1_, i32 0, i32 0), i8* getelementptr inbounds ([19 x i8], [19 x i8]* @.str.1, i32 0, i32 0), i32 103, i8* getelementptr inbounds ([48 x i8], [48 x i8]* @.str.4, i32 0, i32 0)) #14
  unreachable

; <label>:62:                                     ; preds = %55
  br label %64

; <label>:63:                                     ; preds = %3
  call void @__assert_rtn(i8* getelementptr inbounds ([10 x i8], [10 x i8]* @__func__._ZN14altered_carbon2js9JsVariantC2ENS1_13JsVariantTypeEPS1_, i32 0, i32 0), i8* getelementptr inbounds ([19 x i8], [19 x i8]* @.str.1, i32 0, i32 0), i32 107, i8* getelementptr inbounds ([6 x i8], [6 x i8]* @.str.5, i32 0, i32 0)) #14
  unreachable

; <label>:64:                                     ; preds = %62, %15
  ret void
}

; Function Attrs: noinline nounwind optnone ssp uwtable
define linkonce_odr hidden void @_ZN14altered_carbon2js13RefCountedPtrINS0_15JsVariantObjectEEC1EPNS0_10RefCountedIS2_EE(%"class.altered_carbon::js::RefCountedPtr.12"*, %"class.altered_carbon::js::RefCounted.13"*) unnamed_addr #0 align 2 {
  %3 = alloca %"class.altered_carbon::js::RefCountedPtr.12"*, align 8
  %4 = alloca %"class.altered_carbon::js::RefCounted.13"*, align 8
  store %"class.altered_carbon::js::RefCountedPtr.12"* %0, %"class.altered_carbon::js::RefCountedPtr.12"** %3, align 8
  store %"class.altered_carbon::js::RefCounted.13"* %1, %"class.altered_carbon::js::RefCounted.13"** %4, align 8
  %5 = load %"class.altered_carbon::js::RefCountedPtr.12"*, %"class.altered_carbon::js::RefCountedPtr.12"** %3, align 8
  %6 = load %"class.altered_carbon::js::RefCounted.13"*, %"class.altered_carbon::js::RefCounted.13"** %4, align 8
  call void @_ZN14altered_carbon2js13RefCountedPtrINS0_15JsVariantObjectEEC2EPNS0_10RefCountedIS2_EE(%"class.altered_carbon::js::RefCountedPtr.12"* %5, %"class.altered_carbon::js::RefCounted.13"* %6)
  ret void
}

; Function Attrs: noreturn
declare void @__assert_rtn(i8*, i8*, i32, i8*) #1

; Function Attrs: noinline nounwind optnone ssp uwtable
define linkonce_odr hidden void @_ZN14altered_carbon2js13RefCountedPtrINS0_14JsVariantArrayEE5resetERKS3_b(%"class.altered_carbon::js::RefCountedPtr.22"*, %"class.altered_carbon::js::RefCountedPtr.22"* dereferenceable(8), i1 zeroext) #0 align 2 {
  %4 = alloca %"struct.std::__1::__atomic_base"*, align 8
  %5 = alloca i64, align 8
  %6 = alloca i32, align 4
  %7 = alloca i64, align 8
  %8 = alloca i64, align 8
  %9 = alloca %"class.altered_carbon::js::RefCountedPtr.22"*, align 8
  %10 = alloca %"class.altered_carbon::js::RefCountedPtr.22"*, align 8
  %11 = alloca i8, align 1
  store %"class.altered_carbon::js::RefCountedPtr.22"* %0, %"class.altered_carbon::js::RefCountedPtr.22"** %9, align 8
  store %"class.altered_carbon::js::RefCountedPtr.22"* %1, %"class.altered_carbon::js::RefCountedPtr.22"** %10, align 8
  %12 = zext i1 %2 to i8
  store i8 %12, i8* %11, align 1
  %13 = load %"class.altered_carbon::js::RefCountedPtr.22"*, %"class.altered_carbon::js::RefCountedPtr.22"** %9, align 8
  %14 = load i8, i8* %11, align 1
  %15 = trunc i8 %14 to i1
  call void @_ZN14altered_carbon2js13RefCountedPtrINS0_14JsVariantArrayEE5resetEb(%"class.altered_carbon::js::RefCountedPtr.22"* %13, i1 zeroext %15)
  %16 = load %"class.altered_carbon::js::RefCountedPtr.22"*, %"class.altered_carbon::js::RefCountedPtr.22"** %10, align 8
  %17 = getelementptr inbounds %"class.altered_carbon::js::RefCountedPtr.22", %"class.altered_carbon::js::RefCountedPtr.22"* %16, i32 0, i32 0
  %18 = load %"class.altered_carbon::js::RefCounted.23"*, %"class.altered_carbon::js::RefCounted.23"** %17, align 8
  %19 = getelementptr inbounds %"class.altered_carbon::js::RefCountedPtr.22", %"class.altered_carbon::js::RefCountedPtr.22"* %13, i32 0, i32 0
  store %"class.altered_carbon::js::RefCounted.23"* %18, %"class.altered_carbon::js::RefCounted.23"** %19, align 8
  %20 = getelementptr inbounds %"class.altered_carbon::js::RefCountedPtr.22", %"class.altered_carbon::js::RefCountedPtr.22"* %13, i32 0, i32 0
  %21 = load %"class.altered_carbon::js::RefCounted.23"*, %"class.altered_carbon::js::RefCounted.23"** %20, align 8
  %22 = icmp ne %"class.altered_carbon::js::RefCounted.23"* %21, null
  br i1 %22, label %23, label %53

; <label>:23:                                     ; preds = %3
  %24 = getelementptr inbounds %"class.altered_carbon::js::RefCountedPtr.22", %"class.altered_carbon::js::RefCountedPtr.22"* %13, i32 0, i32 0
  %25 = load %"class.altered_carbon::js::RefCounted.23"*, %"class.altered_carbon::js::RefCounted.23"** %24, align 8
  %26 = bitcast %"class.altered_carbon::js::RefCounted.23"* %25 to i8*
  %27 = getelementptr inbounds i8, i8* %26, i64 24
  %28 = bitcast i8* %27 to %"struct.altered_carbon::js::RefCounter"*
  %29 = getelementptr inbounds %"struct.altered_carbon::js::RefCounter", %"struct.altered_carbon::js::RefCounter"* %28, i32 0, i32 0
  %30 = bitcast %"struct.std::__1::atomic"* %29 to %"struct.std::__1::__atomic_base"*
  store %"struct.std::__1::__atomic_base"* %30, %"struct.std::__1::__atomic_base"** %4, align 8
  store i64 1, i64* %5, align 8
  store i32 5, i32* %6, align 4
  %31 = load %"struct.std::__1::__atomic_base"*, %"struct.std::__1::__atomic_base"** %4, align 8
  %32 = bitcast %"struct.std::__1::__atomic_base"* %31 to %"struct.std::__1::__atomic_base.3"*
  %33 = getelementptr inbounds %"struct.std::__1::__atomic_base.3", %"struct.std::__1::__atomic_base.3"* %32, i32 0, i32 0
  %34 = load i32, i32* %6, align 4
  %35 = load i64, i64* %5, align 8
  store i64 %35, i64* %7, align 8
  switch i32 %34, label %36 [
    i32 1, label %39
    i32 2, label %39
    i32 3, label %42
    i32 4, label %45
    i32 5, label %48
  ]

; <label>:36:                                     ; preds = %23
  %37 = load i64, i64* %7, align 8
  %38 = atomicrmw add i64* %33, i64 %37 monotonic
  store i64 %38, i64* %8, align 8
  br label %51

; <label>:39:                                     ; preds = %23, %23
  %40 = load i64, i64* %7, align 8
  %41 = atomicrmw add i64* %33, i64 %40 acquire
  store i64 %41, i64* %8, align 8
  br label %51

; <label>:42:                                     ; preds = %23
  %43 = load i64, i64* %7, align 8
  %44 = atomicrmw add i64* %33, i64 %43 release
  store i64 %44, i64* %8, align 8
  br label %51

; <label>:45:                                     ; preds = %23
  %46 = load i64, i64* %7, align 8
  %47 = atomicrmw add i64* %33, i64 %46 acq_rel
  store i64 %47, i64* %8, align 8
  br label %51

; <label>:48:                                     ; preds = %23
  %49 = load i64, i64* %7, align 8
  %50 = atomicrmw add i64* %33, i64 %49 seq_cst
  store i64 %50, i64* %8, align 8
  br label %51

; <label>:51:                                     ; preds = %36, %39, %42, %45, %48
  %52 = load i64, i64* %8, align 8
  br label %53

; <label>:53:                                     ; preds = %51, %3
  ret void
}

; Function Attrs: noinline nounwind optnone ssp uwtable
define linkonce_odr hidden void @_ZN14altered_carbon2js13RefCountedPtrINS0_15JsVariantObjectEE5resetERKS3_b(%"class.altered_carbon::js::RefCountedPtr.12"*, %"class.altered_carbon::js::RefCountedPtr.12"* dereferenceable(8), i1 zeroext) #0 align 2 {
  %4 = alloca %"struct.std::__1::__atomic_base"*, align 8
  %5 = alloca i64, align 8
  %6 = alloca i32, align 4
  %7 = alloca i64, align 8
  %8 = alloca i64, align 8
  %9 = alloca %"class.altered_carbon::js::RefCountedPtr.12"*, align 8
  %10 = alloca %"class.altered_carbon::js::RefCountedPtr.12"*, align 8
  %11 = alloca i8, align 1
  store %"class.altered_carbon::js::RefCountedPtr.12"* %0, %"class.altered_carbon::js::RefCountedPtr.12"** %9, align 8
  store %"class.altered_carbon::js::RefCountedPtr.12"* %1, %"class.altered_carbon::js::RefCountedPtr.12"** %10, align 8
  %12 = zext i1 %2 to i8
  store i8 %12, i8* %11, align 1
  %13 = load %"class.altered_carbon::js::RefCountedPtr.12"*, %"class.altered_carbon::js::RefCountedPtr.12"** %9, align 8
  %14 = load i8, i8* %11, align 1
  %15 = trunc i8 %14 to i1
  call void @_ZN14altered_carbon2js13RefCountedPtrINS0_15JsVariantObjectEE5resetEb(%"class.altered_carbon::js::RefCountedPtr.12"* %13, i1 zeroext %15)
  %16 = load %"class.altered_carbon::js::RefCountedPtr.12"*, %"class.altered_carbon::js::RefCountedPtr.12"** %10, align 8
  %17 = getelementptr inbounds %"class.altered_carbon::js::RefCountedPtr.12", %"class.altered_carbon::js::RefCountedPtr.12"* %16, i32 0, i32 0
  %18 = load %"class.altered_carbon::js::RefCounted.13"*, %"class.altered_carbon::js::RefCounted.13"** %17, align 8
  %19 = getelementptr inbounds %"class.altered_carbon::js::RefCountedPtr.12", %"class.altered_carbon::js::RefCountedPtr.12"* %13, i32 0, i32 0
  store %"class.altered_carbon::js::RefCounted.13"* %18, %"class.altered_carbon::js::RefCounted.13"** %19, align 8
  %20 = getelementptr inbounds %"class.altered_carbon::js::RefCountedPtr.12", %"class.altered_carbon::js::RefCountedPtr.12"* %13, i32 0, i32 0
  %21 = load %"class.altered_carbon::js::RefCounted.13"*, %"class.altered_carbon::js::RefCounted.13"** %20, align 8
  %22 = icmp ne %"class.altered_carbon::js::RefCounted.13"* %21, null
  br i1 %22, label %23, label %53

; <label>:23:                                     ; preds = %3
  %24 = getelementptr inbounds %"class.altered_carbon::js::RefCountedPtr.12", %"class.altered_carbon::js::RefCountedPtr.12"* %13, i32 0, i32 0
  %25 = load %"class.altered_carbon::js::RefCounted.13"*, %"class.altered_carbon::js::RefCounted.13"** %24, align 8
  %26 = bitcast %"class.altered_carbon::js::RefCounted.13"* %25 to i8*
  %27 = getelementptr inbounds i8, i8* %26, i64 48
  %28 = bitcast i8* %27 to %"struct.altered_carbon::js::RefCounter"*
  %29 = getelementptr inbounds %"struct.altered_carbon::js::RefCounter", %"struct.altered_carbon::js::RefCounter"* %28, i32 0, i32 0
  %30 = bitcast %"struct.std::__1::atomic"* %29 to %"struct.std::__1::__atomic_base"*
  store %"struct.std::__1::__atomic_base"* %30, %"struct.std::__1::__atomic_base"** %4, align 8
  store i64 1, i64* %5, align 8
  store i32 5, i32* %6, align 4
  %31 = load %"struct.std::__1::__atomic_base"*, %"struct.std::__1::__atomic_base"** %4, align 8
  %32 = bitcast %"struct.std::__1::__atomic_base"* %31 to %"struct.std::__1::__atomic_base.3"*
  %33 = getelementptr inbounds %"struct.std::__1::__atomic_base.3", %"struct.std::__1::__atomic_base.3"* %32, i32 0, i32 0
  %34 = load i32, i32* %6, align 4
  %35 = load i64, i64* %5, align 8
  store i64 %35, i64* %7, align 8
  switch i32 %34, label %36 [
    i32 1, label %39
    i32 2, label %39
    i32 3, label %42
    i32 4, label %45
    i32 5, label %48
  ]

; <label>:36:                                     ; preds = %23
  %37 = load i64, i64* %7, align 8
  %38 = atomicrmw add i64* %33, i64 %37 monotonic
  store i64 %38, i64* %8, align 8
  br label %51

; <label>:39:                                     ; preds = %23, %23
  %40 = load i64, i64* %7, align 8
  %41 = atomicrmw add i64* %33, i64 %40 acquire
  store i64 %41, i64* %8, align 8
  br label %51

; <label>:42:                                     ; preds = %23
  %43 = load i64, i64* %7, align 8
  %44 = atomicrmw add i64* %33, i64 %43 release
  store i64 %44, i64* %8, align 8
  br label %51

; <label>:45:                                     ; preds = %23
  %46 = load i64, i64* %7, align 8
  %47 = atomicrmw add i64* %33, i64 %46 acq_rel
  store i64 %47, i64* %8, align 8
  br label %51

; <label>:48:                                     ; preds = %23
  %49 = load i64, i64* %7, align 8
  %50 = atomicrmw add i64* %33, i64 %49 seq_cst
  store i64 %50, i64* %8, align 8
  br label %51

; <label>:51:                                     ; preds = %36, %39, %42, %45, %48
  %52 = load i64, i64* %8, align 8
  br label %53

; <label>:53:                                     ; preds = %51, %3
  ret void
}

; Function Attrs: noinline nounwind optnone ssp uwtable
define void @_ZN14altered_carbon2js9JsVariantC1ENS1_13JsVariantTypeEPS1_(%"class.altered_carbon::js::JsVariant"*, i32, %"class.altered_carbon::js::JsVariant"*) unnamed_addr #0 align 2 {
  %4 = alloca %"class.altered_carbon::js::JsVariant"*, align 8
  %5 = alloca i32, align 4
  %6 = alloca %"class.altered_carbon::js::JsVariant"*, align 8
  store %"class.altered_carbon::js::JsVariant"* %0, %"class.altered_carbon::js::JsVariant"** %4, align 8
  store i32 %1, i32* %5, align 4
  store %"class.altered_carbon::js::JsVariant"* %2, %"class.altered_carbon::js::JsVariant"** %6, align 8
  %7 = load %"class.altered_carbon::js::JsVariant"*, %"class.altered_carbon::js::JsVariant"** %4, align 8
  %8 = load i32, i32* %5, align 4
  %9 = load %"class.altered_carbon::js::JsVariant"*, %"class.altered_carbon::js::JsVariant"** %6, align 8
  call void @_ZN14altered_carbon2js9JsVariantC2ENS1_13JsVariantTypeEPS1_(%"class.altered_carbon::js::JsVariant"* %7, i32 %8, %"class.altered_carbon::js::JsVariant"* %9)
  ret void
}

; Function Attrs: noinline nounwind optnone ssp uwtable
define void @_ZN14altered_carbon2js9JsVariantC2ERKS1_(%"class.altered_carbon::js::JsVariant"*, %"class.altered_carbon::js::JsVariant"* dereferenceable(56)) unnamed_addr #0 align 2 {
  %3 = alloca %"struct.std::__1::__compressed_pair_elem.31"*, align 8
  %4 = alloca %"class.std::__1::__compressed_pair.29"*, align 8
  %5 = alloca %"struct.std::__1::__compressed_pair_elem.30"*, align 8
  %6 = alloca %"class.std::__1::__compressed_pair.29"*, align 8
  %7 = alloca %"struct.std::__1::default_delete"*, align 8
  %8 = alloca %"class.altered_carbon::js::RefCounted"*, align 8
  %9 = alloca %"struct.std::__1::__compressed_pair_elem.30"*, align 8
  %10 = alloca %"class.std::__1::__compressed_pair.29"*, align 8
  %11 = alloca %"class.std::__1::unique_ptr"*, align 8
  %12 = alloca %"class.altered_carbon::js::RefCounted"*, align 8
  %13 = alloca %"class.altered_carbon::js::RefCounted"*, align 8
  %14 = alloca %"class.std::__1::unique_ptr"*, align 8
  %15 = alloca %"class.std::__1::unique_ptr"*, align 8
  %16 = alloca %"struct.std::__1::__compressed_pair_elem.30"*, align 8
  %17 = alloca %"class.std::__1::__compressed_pair.29"*, align 8
  %18 = alloca %"struct.std::__1::__compressed_pair_elem.30"*, align 8
  %19 = alloca %"class.std::__1::__compressed_pair.29"*, align 8
  %20 = alloca %"class.std::__1::unique_ptr"*, align 8
  %21 = alloca %"class.altered_carbon::js::RefCounted"*, align 8
  %22 = alloca %"class.altered_carbon::js::JsVariant"*, align 8
  %23 = alloca %"class.altered_carbon::js::JsVariant"*, align 8
  %24 = alloca %"class.std::__1::unique_ptr", align 8
  store %"class.altered_carbon::js::JsVariant"* %0, %"class.altered_carbon::js::JsVariant"** %22, align 8
  store %"class.altered_carbon::js::JsVariant"* %1, %"class.altered_carbon::js::JsVariant"** %23, align 8
  %25 = load %"class.altered_carbon::js::JsVariant"*, %"class.altered_carbon::js::JsVariant"** %22, align 8
  %26 = bitcast %"class.altered_carbon::js::JsVariant"* %25 to i32 (...)***
  store i32 (...)** bitcast (i8** getelementptr inbounds ({ [4 x i8*] }, { [4 x i8*] }* @_ZTVN14altered_carbon2js9JsVariantE, i32 0, inrange i32 0, i32 2) to i32 (...)**), i32 (...)*** %26, align 8
  %27 = getelementptr inbounds %"class.altered_carbon::js::JsVariant", %"class.altered_carbon::js::JsVariant"* %25, i32 0, i32 1
  %28 = load %"class.altered_carbon::js::JsVariant"*, %"class.altered_carbon::js::JsVariant"** %23, align 8
  %29 = getelementptr inbounds %"class.altered_carbon::js::JsVariant", %"class.altered_carbon::js::JsVariant"* %28, i32 0, i32 1
  %30 = load i32, i32* %29, align 8
  store i32 %30, i32* %27, align 8
  br label %31

; <label>:31:                                     ; preds = %2
  %32 = getelementptr inbounds %"class.altered_carbon::js::JsVariant", %"class.altered_carbon::js::JsVariant"* %25, i32 0, i32 1
  %33 = load i32, i32* %32, align 8
  %34 = icmp eq i32 %33, 2
  br i1 %34, label %35, label %43

; <label>:35:                                     ; preds = %31
  %36 = load %"class.altered_carbon::js::JsVariant"*, %"class.altered_carbon::js::JsVariant"** %23, align 8
  %37 = getelementptr inbounds %"class.altered_carbon::js::JsVariant", %"class.altered_carbon::js::JsVariant"* %36, i32 0, i32 2
  %38 = bitcast %union.anon* %37 to %"struct.altered_carbon::js::JsVariantNumber"*
  %39 = getelementptr inbounds %"class.altered_carbon::js::JsVariant", %"class.altered_carbon::js::JsVariant"* %25, i32 0, i32 2
  %40 = bitcast %union.anon* %39 to %"struct.altered_carbon::js::JsVariantNumber"*
  %41 = bitcast %"struct.altered_carbon::js::JsVariantNumber"* %40 to i8*
  %42 = bitcast %"struct.altered_carbon::js::JsVariantNumber"* %38 to i8*
  call void @llvm.memcpy.p0i8.p0i8.i64(i8* align 8 %41, i8* align 8 %42, i64 17, i1 false)
  br label %180

; <label>:43:                                     ; preds = %31
  %44 = getelementptr inbounds %"class.altered_carbon::js::JsVariant", %"class.altered_carbon::js::JsVariant"* %25, i32 0, i32 1
  %45 = load i32, i32* %44, align 8
  switch i32 %45, label %178 [
    i32 -2, label %46
    i32 5, label %53
    i32 6, label %60
    i32 10, label %69
    i32 7, label %135
    i32 13, label %142
    i32 11, label %142
    i32 14, label %151
    i32 12, label %151
    i32 15, label %160
    i32 16, label %169
  ]

; <label>:46:                                     ; preds = %43
  %47 = load %"class.altered_carbon::js::JsVariant"*, %"class.altered_carbon::js::JsVariant"** %23, align 8
  %48 = getelementptr inbounds %"class.altered_carbon::js::JsVariant", %"class.altered_carbon::js::JsVariant"* %47, i32 0, i32 2
  %49 = bitcast %union.anon* %48 to i8**
  %50 = load i8*, i8** %49, align 8
  %51 = getelementptr inbounds %"class.altered_carbon::js::JsVariant", %"class.altered_carbon::js::JsVariant"* %25, i32 0, i32 2
  %52 = bitcast %union.anon* %51 to i8**
  store i8* %50, i8** %52, align 8
  br label %179

; <label>:53:                                     ; preds = %43
  %54 = load %"class.altered_carbon::js::JsVariant"*, %"class.altered_carbon::js::JsVariant"** %23, align 8
  %55 = getelementptr inbounds %"class.altered_carbon::js::JsVariant", %"class.altered_carbon::js::JsVariant"* %54, i32 0, i32 2
  %56 = bitcast %union.anon* %55 to %"class.altered_carbon::js::ACLexRegex"*
  %57 = getelementptr inbounds %"class.altered_carbon::js::JsVariant", %"class.altered_carbon::js::JsVariant"* %25, i32 0, i32 2
  %58 = bitcast %union.anon* %57 to %"class.altered_carbon::js::ACLexRegex"*
  %59 = call dereferenceable(40) %"class.altered_carbon::js::ACLexRegex"* @_ZN14altered_carbon2js10ACLexRegexaSERKS1_(%"class.altered_carbon::js::ACLexRegex"* %58, %"class.altered_carbon::js::ACLexRegex"* dereferenceable(40) %56)
  br label %179

; <label>:60:                                     ; preds = %43
  %61 = load %"class.altered_carbon::js::JsVariant"*, %"class.altered_carbon::js::JsVariant"** %23, align 8
  %62 = getelementptr inbounds %"class.altered_carbon::js::JsVariant", %"class.altered_carbon::js::JsVariant"* %61, i32 0, i32 2
  %63 = bitcast %union.anon* %62 to i8*
  %64 = load i8, i8* %63, align 8
  %65 = trunc i8 %64 to i1
  %66 = getelementptr inbounds %"class.altered_carbon::js::JsVariant", %"class.altered_carbon::js::JsVariant"* %25, i32 0, i32 2
  %67 = bitcast %union.anon* %66 to i8*
  %68 = zext i1 %65 to i8
  store i8 %68, i8* %67, align 8
  br label %179

; <label>:69:                                     ; preds = %43
  call void @_ZN4llvm11make_uniqueIN14altered_carbon2js10RefCountedINSt3__112basic_stringIwNS4_11char_traitsIwEENS4_9allocatorIwEEEEEEJRA1_KwEEENS4_9enable_ifIXntsr3std8is_arrayIT_EE5valueENS4_10unique_ptrISG_NS4_14default_deleteISG_EEEEE4typeEDpOT0_(%"class.std::__1::unique_ptr"* sret %24, [1 x i32]* dereferenceable(4) @.str)
  store %"class.std::__1::unique_ptr"* %24, %"class.std::__1::unique_ptr"** %20, align 8
  %70 = load %"class.std::__1::unique_ptr"*, %"class.std::__1::unique_ptr"** %20, align 8
  %71 = getelementptr inbounds %"class.std::__1::unique_ptr", %"class.std::__1::unique_ptr"* %70, i32 0, i32 0
  store %"class.std::__1::__compressed_pair.29"* %71, %"class.std::__1::__compressed_pair.29"** %19, align 8
  %72 = load %"class.std::__1::__compressed_pair.29"*, %"class.std::__1::__compressed_pair.29"** %19, align 8
  %73 = bitcast %"class.std::__1::__compressed_pair.29"* %72 to %"struct.std::__1::__compressed_pair_elem.30"*
  store %"struct.std::__1::__compressed_pair_elem.30"* %73, %"struct.std::__1::__compressed_pair_elem.30"** %18, align 8
  %74 = load %"struct.std::__1::__compressed_pair_elem.30"*, %"struct.std::__1::__compressed_pair_elem.30"** %18, align 8
  %75 = getelementptr inbounds %"struct.std::__1::__compressed_pair_elem.30", %"struct.std::__1::__compressed_pair_elem.30"* %74, i32 0, i32 0
  %76 = load %"class.altered_carbon::js::RefCounted"*, %"class.altered_carbon::js::RefCounted"** %75, align 8
  store %"class.altered_carbon::js::RefCounted"* %76, %"class.altered_carbon::js::RefCounted"** %21, align 8
  %77 = getelementptr inbounds %"class.std::__1::unique_ptr", %"class.std::__1::unique_ptr"* %70, i32 0, i32 0
  store %"class.std::__1::__compressed_pair.29"* %77, %"class.std::__1::__compressed_pair.29"** %17, align 8
  %78 = load %"class.std::__1::__compressed_pair.29"*, %"class.std::__1::__compressed_pair.29"** %17, align 8
  %79 = bitcast %"class.std::__1::__compressed_pair.29"* %78 to %"struct.std::__1::__compressed_pair_elem.30"*
  store %"struct.std::__1::__compressed_pair_elem.30"* %79, %"struct.std::__1::__compressed_pair_elem.30"** %16, align 8
  %80 = load %"struct.std::__1::__compressed_pair_elem.30"*, %"struct.std::__1::__compressed_pair_elem.30"** %16, align 8
  %81 = getelementptr inbounds %"struct.std::__1::__compressed_pair_elem.30", %"struct.std::__1::__compressed_pair_elem.30"* %80, i32 0, i32 0
  store %"class.altered_carbon::js::RefCounted"* null, %"class.altered_carbon::js::RefCounted"** %81, align 8
  %82 = load %"class.altered_carbon::js::RefCounted"*, %"class.altered_carbon::js::RefCounted"** %21, align 8
  %83 = getelementptr inbounds %"class.altered_carbon::js::JsVariant", %"class.altered_carbon::js::JsVariant"* %25, i32 0, i32 2
  %84 = bitcast %union.anon* %83 to %"class.altered_carbon::js::RefCountedPtr"*
  %85 = call dereferenceable(8) %"class.altered_carbon::js::RefCountedPtr"* @_ZN14altered_carbon2js13RefCountedPtrINSt3__112basic_stringIwNS2_11char_traitsIwEENS2_9allocatorIwEEEEEaSEPNS0_10RefCountedIS8_EE(%"class.altered_carbon::js::RefCountedPtr"* %84, %"class.altered_carbon::js::RefCounted"* %82)
  store %"class.std::__1::unique_ptr"* %24, %"class.std::__1::unique_ptr"** %15, align 8
  %86 = load %"class.std::__1::unique_ptr"*, %"class.std::__1::unique_ptr"** %15, align 8
  store %"class.std::__1::unique_ptr"* %86, %"class.std::__1::unique_ptr"** %14, align 8
  %87 = load %"class.std::__1::unique_ptr"*, %"class.std::__1::unique_ptr"** %14, align 8
  store %"class.std::__1::unique_ptr"* %87, %"class.std::__1::unique_ptr"** %11, align 8
  store %"class.altered_carbon::js::RefCounted"* null, %"class.altered_carbon::js::RefCounted"** %12, align 8
  %88 = load %"class.std::__1::unique_ptr"*, %"class.std::__1::unique_ptr"** %11, align 8
  %89 = getelementptr inbounds %"class.std::__1::unique_ptr", %"class.std::__1::unique_ptr"* %88, i32 0, i32 0
  store %"class.std::__1::__compressed_pair.29"* %89, %"class.std::__1::__compressed_pair.29"** %10, align 8
  %90 = load %"class.std::__1::__compressed_pair.29"*, %"class.std::__1::__compressed_pair.29"** %10, align 8
  %91 = bitcast %"class.std::__1::__compressed_pair.29"* %90 to %"struct.std::__1::__compressed_pair_elem.30"*
  store %"struct.std::__1::__compressed_pair_elem.30"* %91, %"struct.std::__1::__compressed_pair_elem.30"** %9, align 8
  %92 = load %"struct.std::__1::__compressed_pair_elem.30"*, %"struct.std::__1::__compressed_pair_elem.30"** %9, align 8
  %93 = getelementptr inbounds %"struct.std::__1::__compressed_pair_elem.30", %"struct.std::__1::__compressed_pair_elem.30"* %92, i32 0, i32 0
  %94 = load %"class.altered_carbon::js::RefCounted"*, %"class.altered_carbon::js::RefCounted"** %93, align 8
  store %"class.altered_carbon::js::RefCounted"* %94, %"class.altered_carbon::js::RefCounted"** %13, align 8
  %95 = load %"class.altered_carbon::js::RefCounted"*, %"class.altered_carbon::js::RefCounted"** %12, align 8
  %96 = getelementptr inbounds %"class.std::__1::unique_ptr", %"class.std::__1::unique_ptr"* %88, i32 0, i32 0
  store %"class.std::__1::__compressed_pair.29"* %96, %"class.std::__1::__compressed_pair.29"** %6, align 8
  %97 = load %"class.std::__1::__compressed_pair.29"*, %"class.std::__1::__compressed_pair.29"** %6, align 8
  %98 = bitcast %"class.std::__1::__compressed_pair.29"* %97 to %"struct.std::__1::__compressed_pair_elem.30"*
  store %"struct.std::__1::__compressed_pair_elem.30"* %98, %"struct.std::__1::__compressed_pair_elem.30"** %5, align 8
  %99 = load %"struct.std::__1::__compressed_pair_elem.30"*, %"struct.std::__1::__compressed_pair_elem.30"** %5, align 8
  %100 = getelementptr inbounds %"struct.std::__1::__compressed_pair_elem.30", %"struct.std::__1::__compressed_pair_elem.30"* %99, i32 0, i32 0
  store %"class.altered_carbon::js::RefCounted"* %95, %"class.altered_carbon::js::RefCounted"** %100, align 8
  %101 = load %"class.altered_carbon::js::RefCounted"*, %"class.altered_carbon::js::RefCounted"** %13, align 8
  %102 = icmp ne %"class.altered_carbon::js::RefCounted"* %101, null
  br i1 %102, label %103, label %116

; <label>:103:                                    ; preds = %69
  %104 = getelementptr inbounds %"class.std::__1::unique_ptr", %"class.std::__1::unique_ptr"* %88, i32 0, i32 0
  store %"class.std::__1::__compressed_pair.29"* %104, %"class.std::__1::__compressed_pair.29"** %4, align 8
  %105 = load %"class.std::__1::__compressed_pair.29"*, %"class.std::__1::__compressed_pair.29"** %4, align 8
  %106 = bitcast %"class.std::__1::__compressed_pair.29"* %105 to %"struct.std::__1::__compressed_pair_elem.31"*
  store %"struct.std::__1::__compressed_pair_elem.31"* %106, %"struct.std::__1::__compressed_pair_elem.31"** %3, align 8
  %107 = load %"struct.std::__1::__compressed_pair_elem.31"*, %"struct.std::__1::__compressed_pair_elem.31"** %3, align 8
  %108 = bitcast %"struct.std::__1::__compressed_pair_elem.31"* %107 to %"struct.std::__1::default_delete"*
  %109 = load %"class.altered_carbon::js::RefCounted"*, %"class.altered_carbon::js::RefCounted"** %13, align 8
  store %"struct.std::__1::default_delete"* %108, %"struct.std::__1::default_delete"** %7, align 8
  store %"class.altered_carbon::js::RefCounted"* %109, %"class.altered_carbon::js::RefCounted"** %8, align 8
  %110 = load %"struct.std::__1::default_delete"*, %"struct.std::__1::default_delete"** %7, align 8
  %111 = load %"class.altered_carbon::js::RefCounted"*, %"class.altered_carbon::js::RefCounted"** %8, align 8
  %112 = icmp eq %"class.altered_carbon::js::RefCounted"* %111, null
  br i1 %112, label %115, label %113

; <label>:113:                                    ; preds = %103
  call void @_ZN14altered_carbon2js10RefCountedINSt3__112basic_stringIwNS2_11char_traitsIwEENS2_9allocatorIwEEEEED1Ev(%"class.altered_carbon::js::RefCounted"* %111) #8
  %114 = bitcast %"class.altered_carbon::js::RefCounted"* %111 to i8*
  call void @_ZdlPv(i8* %114) #12
  br label %115

; <label>:115:                                    ; preds = %113, %103
  br label %116

; <label>:116:                                    ; preds = %69, %115
  %117 = load %"class.altered_carbon::js::JsVariant"*, %"class.altered_carbon::js::JsVariant"** %23, align 8
  %118 = getelementptr inbounds %"class.altered_carbon::js::JsVariant", %"class.altered_carbon::js::JsVariant"* %117, i32 0, i32 2
  %119 = bitcast %union.anon* %118 to %"class.altered_carbon::js::RefCountedPtr"*
  %120 = call %"class.altered_carbon::js::RefCounted"* @_ZNK14altered_carbon2js13RefCountedPtrINSt3__112basic_stringIwNS2_11char_traitsIwEENS2_9allocatorIwEEEEE3getEv(%"class.altered_carbon::js::RefCountedPtr"* %119)
  %121 = icmp ne %"class.altered_carbon::js::RefCounted"* %120, null
  %122 = xor i1 %121, true
  %123 = xor i1 %122, true
  %124 = xor i1 %123, true
  br i1 %124, label %125, label %127

; <label>:125:                                    ; preds = %116
  call void @__assert_rtn(i8* getelementptr inbounds ([10 x i8], [10 x i8]* @__func__._ZN14altered_carbon2js9JsVariantC2ENS1_13JsVariantTypeEPS1_, i32 0, i32 0), i8* getelementptr inbounds ([19 x i8], [19 x i8]* @.str.1, i32 0, i32 0), i32 146, i8* getelementptr inbounds ([17 x i8], [17 x i8]* @.str.6, i32 0, i32 0)) #14
  unreachable
                                                  ; No predecessors!
  br label %128

; <label>:127:                                    ; preds = %116
  br label %128

; <label>:128:                                    ; preds = %127, %126
  %129 = load %"class.altered_carbon::js::JsVariant"*, %"class.altered_carbon::js::JsVariant"** %23, align 8
  %130 = getelementptr inbounds %"class.altered_carbon::js::JsVariant", %"class.altered_carbon::js::JsVariant"* %129, i32 0, i32 2
  %131 = bitcast %union.anon* %130 to %"class.altered_carbon::js::RefCountedPtr"*
  %132 = getelementptr inbounds %"class.altered_carbon::js::JsVariant", %"class.altered_carbon::js::JsVariant"* %25, i32 0, i32 2
  %133 = bitcast %union.anon* %132 to %"class.altered_carbon::js::RefCountedPtr"*
  %134 = call dereferenceable(8) %"class.altered_carbon::js::RefCountedPtr"* @_ZN14altered_carbon2js13RefCountedPtrINSt3__112basic_stringIwNS2_11char_traitsIwEENS2_9allocatorIwEEEEEaSERKS9_(%"class.altered_carbon::js::RefCountedPtr"* %133, %"class.altered_carbon::js::RefCountedPtr"* dereferenceable(8) %131)
  br label %179

; <label>:135:                                    ; preds = %43
  %136 = load %"class.altered_carbon::js::JsVariant"*, %"class.altered_carbon::js::JsVariant"** %23, align 8
  %137 = getelementptr inbounds %"class.altered_carbon::js::JsVariant", %"class.altered_carbon::js::JsVariant"* %136, i32 0, i32 2
  %138 = bitcast %union.anon* %137 to %"class.altered_carbon::js::JsVariant"**
  %139 = load %"class.altered_carbon::js::JsVariant"*, %"class.altered_carbon::js::JsVariant"** %138, align 8
  %140 = getelementptr inbounds %"class.altered_carbon::js::JsVariant", %"class.altered_carbon::js::JsVariant"* %25, i32 0, i32 2
  %141 = bitcast %union.anon* %140 to %"class.altered_carbon::js::JsVariant"**
  store %"class.altered_carbon::js::JsVariant"* %139, %"class.altered_carbon::js::JsVariant"** %141, align 8
  br label %179

; <label>:142:                                    ; preds = %43, %43
  %143 = getelementptr inbounds %"class.altered_carbon::js::JsVariant", %"class.altered_carbon::js::JsVariant"* %25, i32 0, i32 2
  %144 = bitcast %union.anon* %143 to %"class.altered_carbon::js::RefCountedPtr.12"*
  call void @_ZN14altered_carbon2js13RefCountedPtrINS0_15JsVariantObjectEE5resetEb(%"class.altered_carbon::js::RefCountedPtr.12"* %144, i1 zeroext true)
  %145 = load %"class.altered_carbon::js::JsVariant"*, %"class.altered_carbon::js::JsVariant"** %23, align 8
  %146 = getelementptr inbounds %"class.altered_carbon::js::JsVariant", %"class.altered_carbon::js::JsVariant"* %145, i32 0, i32 2
  %147 = bitcast %union.anon* %146 to %"class.altered_carbon::js::RefCountedPtr.12"*
  %148 = getelementptr inbounds %"class.altered_carbon::js::JsVariant", %"class.altered_carbon::js::JsVariant"* %25, i32 0, i32 2
  %149 = bitcast %union.anon* %148 to %"class.altered_carbon::js::RefCountedPtr.12"*
  %150 = call dereferenceable(8) %"class.altered_carbon::js::RefCountedPtr.12"* @_ZN14altered_carbon2js13RefCountedPtrINS0_15JsVariantObjectEEaSERKS3_(%"class.altered_carbon::js::RefCountedPtr.12"* %149, %"class.altered_carbon::js::RefCountedPtr.12"* dereferenceable(8) %147)
  br label %179

; <label>:151:                                    ; preds = %43, %43
  %152 = getelementptr inbounds %"class.altered_carbon::js::JsVariant", %"class.altered_carbon::js::JsVariant"* %25, i32 0, i32 2
  %153 = bitcast %union.anon* %152 to %"class.altered_carbon::js::RefCountedPtr.22"*
  call void @_ZN14altered_carbon2js13RefCountedPtrINS0_14JsVariantArrayEE5resetEb(%"class.altered_carbon::js::RefCountedPtr.22"* %153, i1 zeroext true)
  %154 = load %"class.altered_carbon::js::JsVariant"*, %"class.altered_carbon::js::JsVariant"** %23, align 8
  %155 = getelementptr inbounds %"class.altered_carbon::js::JsVariant", %"class.altered_carbon::js::JsVariant"* %154, i32 0, i32 2
  %156 = bitcast %union.anon* %155 to %"class.altered_carbon::js::RefCountedPtr.22"*
  %157 = getelementptr inbounds %"class.altered_carbon::js::JsVariant", %"class.altered_carbon::js::JsVariant"* %25, i32 0, i32 2
  %158 = bitcast %union.anon* %157 to %"class.altered_carbon::js::RefCountedPtr.22"*
  %159 = call dereferenceable(8) %"class.altered_carbon::js::RefCountedPtr.22"* @_ZN14altered_carbon2js13RefCountedPtrINS0_14JsVariantArrayEEaSERKS3_(%"class.altered_carbon::js::RefCountedPtr.22"* %158, %"class.altered_carbon::js::RefCountedPtr.22"* dereferenceable(8) %156)
  br label %179

; <label>:160:                                    ; preds = %43
  %161 = getelementptr inbounds %"class.altered_carbon::js::JsVariant", %"class.altered_carbon::js::JsVariant"* %25, i32 0, i32 2
  %162 = bitcast %union.anon* %161 to %"struct.altered_carbon::js::JsVariantFunc"*
  call void @_ZN14altered_carbon2js13JsVariantFunc5resetEb(%"struct.altered_carbon::js::JsVariantFunc"* %162, i1 zeroext true)
  %163 = load %"class.altered_carbon::js::JsVariant"*, %"class.altered_carbon::js::JsVariant"** %23, align 8
  %164 = getelementptr inbounds %"class.altered_carbon::js::JsVariant", %"class.altered_carbon::js::JsVariant"* %163, i32 0, i32 2
  %165 = bitcast %union.anon* %164 to %"struct.altered_carbon::js::JsVariantFunc"*
  %166 = getelementptr inbounds %"class.altered_carbon::js::JsVariant", %"class.altered_carbon::js::JsVariant"* %25, i32 0, i32 2
  %167 = bitcast %union.anon* %166 to %"struct.altered_carbon::js::JsVariantFunc"*
  %168 = call dereferenceable(24) %"struct.altered_carbon::js::JsVariantFunc"* @_ZN14altered_carbon2js13JsVariantFuncaSERKS1_(%"struct.altered_carbon::js::JsVariantFunc"* %167, %"struct.altered_carbon::js::JsVariantFunc"* dereferenceable(24) %165)
  br label %179

; <label>:169:                                    ; preds = %43
  %170 = getelementptr inbounds %"class.altered_carbon::js::JsVariant", %"class.altered_carbon::js::JsVariant"* %25, i32 0, i32 2
  %171 = bitcast %union.anon* %170 to %"struct.altered_carbon::js::JsVariantIterator"*
  call void @_ZN14altered_carbon2js17JsVariantIterator5resetEb(%"struct.altered_carbon::js::JsVariantIterator"* %171, i1 zeroext true)
  %172 = load %"class.altered_carbon::js::JsVariant"*, %"class.altered_carbon::js::JsVariant"** %23, align 8
  %173 = getelementptr inbounds %"class.altered_carbon::js::JsVariant", %"class.altered_carbon::js::JsVariant"* %172, i32 0, i32 2
  %174 = bitcast %union.anon* %173 to %"struct.altered_carbon::js::JsVariantIterator"*
  %175 = getelementptr inbounds %"class.altered_carbon::js::JsVariant", %"class.altered_carbon::js::JsVariant"* %25, i32 0, i32 2
  %176 = bitcast %union.anon* %175 to %"struct.altered_carbon::js::JsVariantIterator"*
  %177 = call dereferenceable(24) %"struct.altered_carbon::js::JsVariantIterator"* @_ZN14altered_carbon2js17JsVariantIteratoraSERKS1_(%"struct.altered_carbon::js::JsVariantIterator"* %176, %"struct.altered_carbon::js::JsVariantIterator"* dereferenceable(24) %174)
  br label %179

; <label>:178:                                    ; preds = %43
  br label %179

; <label>:179:                                    ; preds = %178, %169, %160, %151, %142, %135, %128, %60, %53, %46
  br label %180

; <label>:180:                                    ; preds = %179, %35
  ret void
}

; Function Attrs: noinline nounwind optnone ssp uwtable
define linkonce_odr hidden dereferenceable(40) %"class.altered_carbon::js::ACLexRegex"* @_ZN14altered_carbon2js10ACLexRegexaSERKS1_(%"class.altered_carbon::js::ACLexRegex"*, %"class.altered_carbon::js::ACLexRegex"* dereferenceable(40)) #0 align 2 {
  %3 = alloca %"class.altered_carbon::js::ACLexRegex"*, align 8
  %4 = alloca %"class.altered_carbon::js::ACLexRegex"*, align 8
  store %"class.altered_carbon::js::ACLexRegex"* %0, %"class.altered_carbon::js::ACLexRegex"** %3, align 8
  store %"class.altered_carbon::js::ACLexRegex"* %1, %"class.altered_carbon::js::ACLexRegex"** %4, align 8
  %5 = load %"class.altered_carbon::js::ACLexRegex"*, %"class.altered_carbon::js::ACLexRegex"** %3, align 8
  %6 = getelementptr inbounds %"class.altered_carbon::js::ACLexRegex", %"class.altered_carbon::js::ACLexRegex"* %5, i32 0, i32 1
  %7 = load %"class.altered_carbon::js::ACLexRegex"*, %"class.altered_carbon::js::ACLexRegex"** %4, align 8
  %8 = getelementptr inbounds %"class.altered_carbon::js::ACLexRegex", %"class.altered_carbon::js::ACLexRegex"* %7, i32 0, i32 1
  %9 = call dereferenceable(24) %"class.std::__1::basic_string.4"* @_ZNSt3__112basic_stringIcNS_11char_traitsIcEENS_9allocatorIcEEEaSERKS5_(%"class.std::__1::basic_string.4"* %6, %"class.std::__1::basic_string.4"* dereferenceable(24) %8)
  %10 = getelementptr inbounds %"class.altered_carbon::js::ACLexRegex", %"class.altered_carbon::js::ACLexRegex"* %5, i32 0, i32 2
  %11 = load %"class.altered_carbon::js::ACLexRegex"*, %"class.altered_carbon::js::ACLexRegex"** %4, align 8
  %12 = getelementptr inbounds %"class.altered_carbon::js::ACLexRegex", %"class.altered_carbon::js::ACLexRegex"* %11, i32 0, i32 2
  call void @llvm.memcpy.p0i8.p0i8.i64(i8* align 8 %10, i8* align 8 %12, i64 3, i1 false)
  ret %"class.altered_carbon::js::ACLexRegex"* %5
}

; Function Attrs: noinline nounwind optnone ssp uwtable
define linkonce_odr hidden dereferenceable(8) %"class.altered_carbon::js::RefCountedPtr"* @_ZN14altered_carbon2js13RefCountedPtrINSt3__112basic_stringIwNS2_11char_traitsIwEENS2_9allocatorIwEEEEEaSEPNS0_10RefCountedIS8_EE(%"class.altered_carbon::js::RefCountedPtr"*, %"class.altered_carbon::js::RefCounted"*) #0 align 2 {
  %3 = alloca %"struct.std::__1::__atomic_base"*, align 8
  %4 = alloca i64, align 8
  %5 = alloca i32, align 4
  %6 = alloca i64, align 8
  %7 = alloca i64, align 8
  %8 = alloca %"struct.std::__1::__atomic_base"*, align 8
  %9 = alloca i64, align 8
  %10 = alloca i32, align 4
  %11 = alloca i64, align 8
  %12 = alloca i64, align 8
  %13 = alloca %"class.altered_carbon::js::RefCountedPtr"*, align 8
  %14 = alloca %"class.altered_carbon::js::RefCounted"*, align 8
  %15 = alloca %"class.altered_carbon::js::RefCounted"*, align 8
  store %"class.altered_carbon::js::RefCountedPtr"* %0, %"class.altered_carbon::js::RefCountedPtr"** %13, align 8
  store %"class.altered_carbon::js::RefCounted"* %1, %"class.altered_carbon::js::RefCounted"** %14, align 8
  %16 = load %"class.altered_carbon::js::RefCountedPtr"*, %"class.altered_carbon::js::RefCountedPtr"** %13, align 8
  %17 = getelementptr inbounds %"class.altered_carbon::js::RefCountedPtr", %"class.altered_carbon::js::RefCountedPtr"* %16, i32 0, i32 0
  %18 = load %"class.altered_carbon::js::RefCounted"*, %"class.altered_carbon::js::RefCounted"** %17, align 8
  store %"class.altered_carbon::js::RefCounted"* %18, %"class.altered_carbon::js::RefCounted"** %15, align 8
  %19 = load %"class.altered_carbon::js::RefCounted"*, %"class.altered_carbon::js::RefCounted"** %14, align 8
  %20 = getelementptr inbounds %"class.altered_carbon::js::RefCountedPtr", %"class.altered_carbon::js::RefCountedPtr"* %16, i32 0, i32 0
  store %"class.altered_carbon::js::RefCounted"* %19, %"class.altered_carbon::js::RefCounted"** %20, align 8
  %21 = getelementptr inbounds %"class.altered_carbon::js::RefCountedPtr", %"class.altered_carbon::js::RefCountedPtr"* %16, i32 0, i32 0
  %22 = load %"class.altered_carbon::js::RefCounted"*, %"class.altered_carbon::js::RefCounted"** %21, align 8
  %23 = icmp ne %"class.altered_carbon::js::RefCounted"* %22, null
  br i1 %23, label %24, label %54

; <label>:24:                                     ; preds = %2
  %25 = getelementptr inbounds %"class.altered_carbon::js::RefCountedPtr", %"class.altered_carbon::js::RefCountedPtr"* %16, i32 0, i32 0
  %26 = load %"class.altered_carbon::js::RefCounted"*, %"class.altered_carbon::js::RefCounted"** %25, align 8
  %27 = bitcast %"class.altered_carbon::js::RefCounted"* %26 to i8*
  %28 = getelementptr inbounds i8, i8* %27, i64 24
  %29 = bitcast i8* %28 to %"struct.altered_carbon::js::RefCounter"*
  %30 = getelementptr inbounds %"struct.altered_carbon::js::RefCounter", %"struct.altered_carbon::js::RefCounter"* %29, i32 0, i32 0
  %31 = bitcast %"struct.std::__1::atomic"* %30 to %"struct.std::__1::__atomic_base"*
  store %"struct.std::__1::__atomic_base"* %31, %"struct.std::__1::__atomic_base"** %8, align 8
  store i64 1, i64* %9, align 8
  store i32 5, i32* %10, align 4
  %32 = load %"struct.std::__1::__atomic_base"*, %"struct.std::__1::__atomic_base"** %8, align 8
  %33 = bitcast %"struct.std::__1::__atomic_base"* %32 to %"struct.std::__1::__atomic_base.3"*
  %34 = getelementptr inbounds %"struct.std::__1::__atomic_base.3", %"struct.std::__1::__atomic_base.3"* %33, i32 0, i32 0
  %35 = load i32, i32* %10, align 4
  %36 = load i64, i64* %9, align 8
  store i64 %36, i64* %11, align 8
  switch i32 %35, label %37 [
    i32 1, label %40
    i32 2, label %40
    i32 3, label %43
    i32 4, label %46
    i32 5, label %49
  ]

; <label>:37:                                     ; preds = %24
  %38 = load i64, i64* %11, align 8
  %39 = atomicrmw add i64* %34, i64 %38 monotonic
  store i64 %39, i64* %12, align 8
  br label %52

; <label>:40:                                     ; preds = %24, %24
  %41 = load i64, i64* %11, align 8
  %42 = atomicrmw add i64* %34, i64 %41 acquire
  store i64 %42, i64* %12, align 8
  br label %52

; <label>:43:                                     ; preds = %24
  %44 = load i64, i64* %11, align 8
  %45 = atomicrmw add i64* %34, i64 %44 release
  store i64 %45, i64* %12, align 8
  br label %52

; <label>:46:                                     ; preds = %24
  %47 = load i64, i64* %11, align 8
  %48 = atomicrmw add i64* %34, i64 %47 acq_rel
  store i64 %48, i64* %12, align 8
  br label %52

; <label>:49:                                     ; preds = %24
  %50 = load i64, i64* %11, align 8
  %51 = atomicrmw add i64* %34, i64 %50 seq_cst
  store i64 %51, i64* %12, align 8
  br label %52

; <label>:52:                                     ; preds = %37, %40, %43, %46, %49
  %53 = load i64, i64* %12, align 8
  br label %54

; <label>:54:                                     ; preds = %52, %2
  %55 = load %"class.altered_carbon::js::RefCounted"*, %"class.altered_carbon::js::RefCounted"** %15, align 8
  %56 = icmp ne %"class.altered_carbon::js::RefCounted"* %55, null
  br i1 %56, label %57, label %93

; <label>:57:                                     ; preds = %54
  %58 = load %"class.altered_carbon::js::RefCounted"*, %"class.altered_carbon::js::RefCounted"** %15, align 8
  %59 = bitcast %"class.altered_carbon::js::RefCounted"* %58 to i8*
  %60 = getelementptr inbounds i8, i8* %59, i64 24
  %61 = bitcast i8* %60 to %"struct.altered_carbon::js::RefCounter"*
  %62 = getelementptr inbounds %"struct.altered_carbon::js::RefCounter", %"struct.altered_carbon::js::RefCounter"* %61, i32 0, i32 0
  %63 = bitcast %"struct.std::__1::atomic"* %62 to %"struct.std::__1::__atomic_base"*
  store %"struct.std::__1::__atomic_base"* %63, %"struct.std::__1::__atomic_base"** %3, align 8
  store i64 1, i64* %4, align 8
  store i32 5, i32* %5, align 4
  %64 = load %"struct.std::__1::__atomic_base"*, %"struct.std::__1::__atomic_base"** %3, align 8
  %65 = bitcast %"struct.std::__1::__atomic_base"* %64 to %"struct.std::__1::__atomic_base.3"*
  %66 = getelementptr inbounds %"struct.std::__1::__atomic_base.3", %"struct.std::__1::__atomic_base.3"* %65, i32 0, i32 0
  %67 = load i32, i32* %5, align 4
  %68 = load i64, i64* %4, align 8
  store i64 %68, i64* %6, align 8
  switch i32 %67, label %69 [
    i32 1, label %72
    i32 2, label %72
    i32 3, label %75
    i32 4, label %78
    i32 5, label %81
  ]

; <label>:69:                                     ; preds = %57
  %70 = load i64, i64* %6, align 8
  %71 = atomicrmw sub i64* %66, i64 %70 monotonic
  store i64 %71, i64* %7, align 8
  br label %84

; <label>:72:                                     ; preds = %57, %57
  %73 = load i64, i64* %6, align 8
  %74 = atomicrmw sub i64* %66, i64 %73 acquire
  store i64 %74, i64* %7, align 8
  br label %84

; <label>:75:                                     ; preds = %57
  %76 = load i64, i64* %6, align 8
  %77 = atomicrmw sub i64* %66, i64 %76 release
  store i64 %77, i64* %7, align 8
  br label %84

; <label>:78:                                     ; preds = %57
  %79 = load i64, i64* %6, align 8
  %80 = atomicrmw sub i64* %66, i64 %79 acq_rel
  store i64 %80, i64* %7, align 8
  br label %84

; <label>:81:                                     ; preds = %57
  %82 = load i64, i64* %6, align 8
  %83 = atomicrmw sub i64* %66, i64 %82 seq_cst
  store i64 %83, i64* %7, align 8
  br label %84

; <label>:84:                                     ; preds = %69, %72, %75, %78, %81
  %85 = load i64, i64* %7, align 8
  %86 = icmp eq i64 %85, 1
  br i1 %86, label %87, label %93

; <label>:87:                                     ; preds = %84
  %88 = load %"class.altered_carbon::js::RefCounted"*, %"class.altered_carbon::js::RefCounted"** %15, align 8
  %89 = icmp eq %"class.altered_carbon::js::RefCounted"* %88, null
  br i1 %89, label %92, label %90

; <label>:90:                                     ; preds = %87
  call void @_ZN14altered_carbon2js10RefCountedINSt3__112basic_stringIwNS2_11char_traitsIwEENS2_9allocatorIwEEEEED1Ev(%"class.altered_carbon::js::RefCounted"* %88) #8
  %91 = bitcast %"class.altered_carbon::js::RefCounted"* %88 to i8*
  call void @_ZdlPv(i8* %91) #12
  br label %92

; <label>:92:                                     ; preds = %90, %87
  br label %93

; <label>:93:                                     ; preds = %92, %84, %54
  ret %"class.altered_carbon::js::RefCountedPtr"* %16
}

; Function Attrs: noinline nounwind optnone ssp uwtable
define linkonce_odr hidden %"class.altered_carbon::js::RefCounted"* @_ZNK14altered_carbon2js13RefCountedPtrINSt3__112basic_stringIwNS2_11char_traitsIwEENS2_9allocatorIwEEEEE3getEv(%"class.altered_carbon::js::RefCountedPtr"*) #0 align 2 {
  %2 = alloca %"class.altered_carbon::js::RefCountedPtr"*, align 8
  store %"class.altered_carbon::js::RefCountedPtr"* %0, %"class.altered_carbon::js::RefCountedPtr"** %2, align 8
  %3 = load %"class.altered_carbon::js::RefCountedPtr"*, %"class.altered_carbon::js::RefCountedPtr"** %2, align 8
  %4 = getelementptr inbounds %"class.altered_carbon::js::RefCountedPtr", %"class.altered_carbon::js::RefCountedPtr"* %3, i32 0, i32 0
  %5 = load %"class.altered_carbon::js::RefCounted"*, %"class.altered_carbon::js::RefCounted"** %4, align 8
  ret %"class.altered_carbon::js::RefCounted"* %5
}

; Function Attrs: noinline nounwind optnone ssp uwtable
define linkonce_odr hidden dereferenceable(8) %"class.altered_carbon::js::RefCountedPtr"* @_ZN14altered_carbon2js13RefCountedPtrINSt3__112basic_stringIwNS2_11char_traitsIwEENS2_9allocatorIwEEEEEaSERKS9_(%"class.altered_carbon::js::RefCountedPtr"*, %"class.altered_carbon::js::RefCountedPtr"* dereferenceable(8)) #0 align 2 {
  %3 = alloca %"struct.std::__1::__atomic_base"*, align 8
  %4 = alloca i64, align 8
  %5 = alloca i32, align 4
  %6 = alloca i64, align 8
  %7 = alloca i64, align 8
  %8 = alloca %"struct.std::__1::__atomic_base"*, align 8
  %9 = alloca i64, align 8
  %10 = alloca i32, align 4
  %11 = alloca i64, align 8
  %12 = alloca i64, align 8
  %13 = alloca %"class.altered_carbon::js::RefCountedPtr"*, align 8
  %14 = alloca %"class.altered_carbon::js::RefCountedPtr"*, align 8
  %15 = alloca %"class.altered_carbon::js::RefCounted"*, align 8
  store %"class.altered_carbon::js::RefCountedPtr"* %0, %"class.altered_carbon::js::RefCountedPtr"** %13, align 8
  store %"class.altered_carbon::js::RefCountedPtr"* %1, %"class.altered_carbon::js::RefCountedPtr"** %14, align 8
  %16 = load %"class.altered_carbon::js::RefCountedPtr"*, %"class.altered_carbon::js::RefCountedPtr"** %13, align 8
  %17 = getelementptr inbounds %"class.altered_carbon::js::RefCountedPtr", %"class.altered_carbon::js::RefCountedPtr"* %16, i32 0, i32 0
  %18 = load %"class.altered_carbon::js::RefCounted"*, %"class.altered_carbon::js::RefCounted"** %17, align 8
  store %"class.altered_carbon::js::RefCounted"* %18, %"class.altered_carbon::js::RefCounted"** %15, align 8
  %19 = load %"class.altered_carbon::js::RefCountedPtr"*, %"class.altered_carbon::js::RefCountedPtr"** %14, align 8
  %20 = getelementptr inbounds %"class.altered_carbon::js::RefCountedPtr", %"class.altered_carbon::js::RefCountedPtr"* %19, i32 0, i32 0
  %21 = load %"class.altered_carbon::js::RefCounted"*, %"class.altered_carbon::js::RefCounted"** %20, align 8
  %22 = getelementptr inbounds %"class.altered_carbon::js::RefCountedPtr", %"class.altered_carbon::js::RefCountedPtr"* %16, i32 0, i32 0
  store %"class.altered_carbon::js::RefCounted"* %21, %"class.altered_carbon::js::RefCounted"** %22, align 8
  %23 = getelementptr inbounds %"class.altered_carbon::js::RefCountedPtr", %"class.altered_carbon::js::RefCountedPtr"* %16, i32 0, i32 0
  %24 = load %"class.altered_carbon::js::RefCounted"*, %"class.altered_carbon::js::RefCounted"** %23, align 8
  %25 = icmp ne %"class.altered_carbon::js::RefCounted"* %24, null
  br i1 %25, label %26, label %56

; <label>:26:                                     ; preds = %2
  %27 = getelementptr inbounds %"class.altered_carbon::js::RefCountedPtr", %"class.altered_carbon::js::RefCountedPtr"* %16, i32 0, i32 0
  %28 = load %"class.altered_carbon::js::RefCounted"*, %"class.altered_carbon::js::RefCounted"** %27, align 8
  %29 = bitcast %"class.altered_carbon::js::RefCounted"* %28 to i8*
  %30 = getelementptr inbounds i8, i8* %29, i64 24
  %31 = bitcast i8* %30 to %"struct.altered_carbon::js::RefCounter"*
  %32 = getelementptr inbounds %"struct.altered_carbon::js::RefCounter", %"struct.altered_carbon::js::RefCounter"* %31, i32 0, i32 0
  %33 = bitcast %"struct.std::__1::atomic"* %32 to %"struct.std::__1::__atomic_base"*
  store %"struct.std::__1::__atomic_base"* %33, %"struct.std::__1::__atomic_base"** %8, align 8
  store i64 1, i64* %9, align 8
  store i32 5, i32* %10, align 4
  %34 = load %"struct.std::__1::__atomic_base"*, %"struct.std::__1::__atomic_base"** %8, align 8
  %35 = bitcast %"struct.std::__1::__atomic_base"* %34 to %"struct.std::__1::__atomic_base.3"*
  %36 = getelementptr inbounds %"struct.std::__1::__atomic_base.3", %"struct.std::__1::__atomic_base.3"* %35, i32 0, i32 0
  %37 = load i32, i32* %10, align 4
  %38 = load i64, i64* %9, align 8
  store i64 %38, i64* %11, align 8
  switch i32 %37, label %39 [
    i32 1, label %42
    i32 2, label %42
    i32 3, label %45
    i32 4, label %48
    i32 5, label %51
  ]

; <label>:39:                                     ; preds = %26
  %40 = load i64, i64* %11, align 8
  %41 = atomicrmw add i64* %36, i64 %40 monotonic
  store i64 %41, i64* %12, align 8
  br label %54

; <label>:42:                                     ; preds = %26, %26
  %43 = load i64, i64* %11, align 8
  %44 = atomicrmw add i64* %36, i64 %43 acquire
  store i64 %44, i64* %12, align 8
  br label %54

; <label>:45:                                     ; preds = %26
  %46 = load i64, i64* %11, align 8
  %47 = atomicrmw add i64* %36, i64 %46 release
  store i64 %47, i64* %12, align 8
  br label %54

; <label>:48:                                     ; preds = %26
  %49 = load i64, i64* %11, align 8
  %50 = atomicrmw add i64* %36, i64 %49 acq_rel
  store i64 %50, i64* %12, align 8
  br label %54

; <label>:51:                                     ; preds = %26
  %52 = load i64, i64* %11, align 8
  %53 = atomicrmw add i64* %36, i64 %52 seq_cst
  store i64 %53, i64* %12, align 8
  br label %54

; <label>:54:                                     ; preds = %39, %42, %45, %48, %51
  %55 = load i64, i64* %12, align 8
  br label %56

; <label>:56:                                     ; preds = %54, %2
  %57 = load %"class.altered_carbon::js::RefCounted"*, %"class.altered_carbon::js::RefCounted"** %15, align 8
  %58 = icmp ne %"class.altered_carbon::js::RefCounted"* %57, null
  br i1 %58, label %59, label %95

; <label>:59:                                     ; preds = %56
  %60 = load %"class.altered_carbon::js::RefCounted"*, %"class.altered_carbon::js::RefCounted"** %15, align 8
  %61 = bitcast %"class.altered_carbon::js::RefCounted"* %60 to i8*
  %62 = getelementptr inbounds i8, i8* %61, i64 24
  %63 = bitcast i8* %62 to %"struct.altered_carbon::js::RefCounter"*
  %64 = getelementptr inbounds %"struct.altered_carbon::js::RefCounter", %"struct.altered_carbon::js::RefCounter"* %63, i32 0, i32 0
  %65 = bitcast %"struct.std::__1::atomic"* %64 to %"struct.std::__1::__atomic_base"*
  store %"struct.std::__1::__atomic_base"* %65, %"struct.std::__1::__atomic_base"** %3, align 8
  store i64 1, i64* %4, align 8
  store i32 5, i32* %5, align 4
  %66 = load %"struct.std::__1::__atomic_base"*, %"struct.std::__1::__atomic_base"** %3, align 8
  %67 = bitcast %"struct.std::__1::__atomic_base"* %66 to %"struct.std::__1::__atomic_base.3"*
  %68 = getelementptr inbounds %"struct.std::__1::__atomic_base.3", %"struct.std::__1::__atomic_base.3"* %67, i32 0, i32 0
  %69 = load i32, i32* %5, align 4
  %70 = load i64, i64* %4, align 8
  store i64 %70, i64* %6, align 8
  switch i32 %69, label %71 [
    i32 1, label %74
    i32 2, label %74
    i32 3, label %77
    i32 4, label %80
    i32 5, label %83
  ]

; <label>:71:                                     ; preds = %59
  %72 = load i64, i64* %6, align 8
  %73 = atomicrmw sub i64* %68, i64 %72 monotonic
  store i64 %73, i64* %7, align 8
  br label %86

; <label>:74:                                     ; preds = %59, %59
  %75 = load i64, i64* %6, align 8
  %76 = atomicrmw sub i64* %68, i64 %75 acquire
  store i64 %76, i64* %7, align 8
  br label %86

; <label>:77:                                     ; preds = %59
  %78 = load i64, i64* %6, align 8
  %79 = atomicrmw sub i64* %68, i64 %78 release
  store i64 %79, i64* %7, align 8
  br label %86

; <label>:80:                                     ; preds = %59
  %81 = load i64, i64* %6, align 8
  %82 = atomicrmw sub i64* %68, i64 %81 acq_rel
  store i64 %82, i64* %7, align 8
  br label %86

; <label>:83:                                     ; preds = %59
  %84 = load i64, i64* %6, align 8
  %85 = atomicrmw sub i64* %68, i64 %84 seq_cst
  store i64 %85, i64* %7, align 8
  br label %86

; <label>:86:                                     ; preds = %71, %74, %77, %80, %83
  %87 = load i64, i64* %7, align 8
  %88 = icmp eq i64 %87, 1
  br i1 %88, label %89, label %95

; <label>:89:                                     ; preds = %86
  %90 = load %"class.altered_carbon::js::RefCounted"*, %"class.altered_carbon::js::RefCounted"** %15, align 8
  %91 = icmp eq %"class.altered_carbon::js::RefCounted"* %90, null
  br i1 %91, label %94, label %92

; <label>:92:                                     ; preds = %89
  call void @_ZN14altered_carbon2js10RefCountedINSt3__112basic_stringIwNS2_11char_traitsIwEENS2_9allocatorIwEEEEED1Ev(%"class.altered_carbon::js::RefCounted"* %90) #8
  %93 = bitcast %"class.altered_carbon::js::RefCounted"* %90 to i8*
  call void @_ZdlPv(i8* %93) #12
  br label %94

; <label>:94:                                     ; preds = %92, %89
  br label %95

; <label>:95:                                     ; preds = %94, %86, %56
  ret %"class.altered_carbon::js::RefCountedPtr"* %16
}

; Function Attrs: noinline nounwind optnone ssp uwtable
define linkonce_odr hidden dereferenceable(8) %"class.altered_carbon::js::RefCountedPtr.12"* @_ZN14altered_carbon2js13RefCountedPtrINS0_15JsVariantObjectEEaSERKS3_(%"class.altered_carbon::js::RefCountedPtr.12"*, %"class.altered_carbon::js::RefCountedPtr.12"* dereferenceable(8)) #0 align 2 {
  %3 = alloca %"struct.std::__1::__atomic_base"*, align 8
  %4 = alloca i64, align 8
  %5 = alloca i32, align 4
  %6 = alloca i64, align 8
  %7 = alloca i64, align 8
  %8 = alloca %"struct.std::__1::__atomic_base"*, align 8
  %9 = alloca i64, align 8
  %10 = alloca i32, align 4
  %11 = alloca i64, align 8
  %12 = alloca i64, align 8
  %13 = alloca %"class.altered_carbon::js::RefCountedPtr.12"*, align 8
  %14 = alloca %"class.altered_carbon::js::RefCountedPtr.12"*, align 8
  %15 = alloca %"class.altered_carbon::js::RefCounted.13"*, align 8
  store %"class.altered_carbon::js::RefCountedPtr.12"* %0, %"class.altered_carbon::js::RefCountedPtr.12"** %13, align 8
  store %"class.altered_carbon::js::RefCountedPtr.12"* %1, %"class.altered_carbon::js::RefCountedPtr.12"** %14, align 8
  %16 = load %"class.altered_carbon::js::RefCountedPtr.12"*, %"class.altered_carbon::js::RefCountedPtr.12"** %13, align 8
  %17 = getelementptr inbounds %"class.altered_carbon::js::RefCountedPtr.12", %"class.altered_carbon::js::RefCountedPtr.12"* %16, i32 0, i32 0
  %18 = load %"class.altered_carbon::js::RefCounted.13"*, %"class.altered_carbon::js::RefCounted.13"** %17, align 8
  store %"class.altered_carbon::js::RefCounted.13"* %18, %"class.altered_carbon::js::RefCounted.13"** %15, align 8
  %19 = load %"class.altered_carbon::js::RefCountedPtr.12"*, %"class.altered_carbon::js::RefCountedPtr.12"** %14, align 8
  %20 = getelementptr inbounds %"class.altered_carbon::js::RefCountedPtr.12", %"class.altered_carbon::js::RefCountedPtr.12"* %19, i32 0, i32 0
  %21 = load %"class.altered_carbon::js::RefCounted.13"*, %"class.altered_carbon::js::RefCounted.13"** %20, align 8
  %22 = getelementptr inbounds %"class.altered_carbon::js::RefCountedPtr.12", %"class.altered_carbon::js::RefCountedPtr.12"* %16, i32 0, i32 0
  store %"class.altered_carbon::js::RefCounted.13"* %21, %"class.altered_carbon::js::RefCounted.13"** %22, align 8
  %23 = getelementptr inbounds %"class.altered_carbon::js::RefCountedPtr.12", %"class.altered_carbon::js::RefCountedPtr.12"* %16, i32 0, i32 0
  %24 = load %"class.altered_carbon::js::RefCounted.13"*, %"class.altered_carbon::js::RefCounted.13"** %23, align 8
  %25 = icmp ne %"class.altered_carbon::js::RefCounted.13"* %24, null
  br i1 %25, label %26, label %56

; <label>:26:                                     ; preds = %2
  %27 = getelementptr inbounds %"class.altered_carbon::js::RefCountedPtr.12", %"class.altered_carbon::js::RefCountedPtr.12"* %16, i32 0, i32 0
  %28 = load %"class.altered_carbon::js::RefCounted.13"*, %"class.altered_carbon::js::RefCounted.13"** %27, align 8
  %29 = bitcast %"class.altered_carbon::js::RefCounted.13"* %28 to i8*
  %30 = getelementptr inbounds i8, i8* %29, i64 48
  %31 = bitcast i8* %30 to %"struct.altered_carbon::js::RefCounter"*
  %32 = getelementptr inbounds %"struct.altered_carbon::js::RefCounter", %"struct.altered_carbon::js::RefCounter"* %31, i32 0, i32 0
  %33 = bitcast %"struct.std::__1::atomic"* %32 to %"struct.std::__1::__atomic_base"*
  store %"struct.std::__1::__atomic_base"* %33, %"struct.std::__1::__atomic_base"** %8, align 8
  store i64 1, i64* %9, align 8
  store i32 5, i32* %10, align 4
  %34 = load %"struct.std::__1::__atomic_base"*, %"struct.std::__1::__atomic_base"** %8, align 8
  %35 = bitcast %"struct.std::__1::__atomic_base"* %34 to %"struct.std::__1::__atomic_base.3"*
  %36 = getelementptr inbounds %"struct.std::__1::__atomic_base.3", %"struct.std::__1::__atomic_base.3"* %35, i32 0, i32 0
  %37 = load i32, i32* %10, align 4
  %38 = load i64, i64* %9, align 8
  store i64 %38, i64* %11, align 8
  switch i32 %37, label %39 [
    i32 1, label %42
    i32 2, label %42
    i32 3, label %45
    i32 4, label %48
    i32 5, label %51
  ]

; <label>:39:                                     ; preds = %26
  %40 = load i64, i64* %11, align 8
  %41 = atomicrmw add i64* %36, i64 %40 monotonic
  store i64 %41, i64* %12, align 8
  br label %54

; <label>:42:                                     ; preds = %26, %26
  %43 = load i64, i64* %11, align 8
  %44 = atomicrmw add i64* %36, i64 %43 acquire
  store i64 %44, i64* %12, align 8
  br label %54

; <label>:45:                                     ; preds = %26
  %46 = load i64, i64* %11, align 8
  %47 = atomicrmw add i64* %36, i64 %46 release
  store i64 %47, i64* %12, align 8
  br label %54

; <label>:48:                                     ; preds = %26
  %49 = load i64, i64* %11, align 8
  %50 = atomicrmw add i64* %36, i64 %49 acq_rel
  store i64 %50, i64* %12, align 8
  br label %54

; <label>:51:                                     ; preds = %26
  %52 = load i64, i64* %11, align 8
  %53 = atomicrmw add i64* %36, i64 %52 seq_cst
  store i64 %53, i64* %12, align 8
  br label %54

; <label>:54:                                     ; preds = %39, %42, %45, %48, %51
  %55 = load i64, i64* %12, align 8
  br label %56

; <label>:56:                                     ; preds = %54, %2
  %57 = load %"class.altered_carbon::js::RefCounted.13"*, %"class.altered_carbon::js::RefCounted.13"** %15, align 8
  %58 = icmp ne %"class.altered_carbon::js::RefCounted.13"* %57, null
  br i1 %58, label %59, label %95

; <label>:59:                                     ; preds = %56
  %60 = load %"class.altered_carbon::js::RefCounted.13"*, %"class.altered_carbon::js::RefCounted.13"** %15, align 8
  %61 = bitcast %"class.altered_carbon::js::RefCounted.13"* %60 to i8*
  %62 = getelementptr inbounds i8, i8* %61, i64 48
  %63 = bitcast i8* %62 to %"struct.altered_carbon::js::RefCounter"*
  %64 = getelementptr inbounds %"struct.altered_carbon::js::RefCounter", %"struct.altered_carbon::js::RefCounter"* %63, i32 0, i32 0
  %65 = bitcast %"struct.std::__1::atomic"* %64 to %"struct.std::__1::__atomic_base"*
  store %"struct.std::__1::__atomic_base"* %65, %"struct.std::__1::__atomic_base"** %3, align 8
  store i64 1, i64* %4, align 8
  store i32 5, i32* %5, align 4
  %66 = load %"struct.std::__1::__atomic_base"*, %"struct.std::__1::__atomic_base"** %3, align 8
  %67 = bitcast %"struct.std::__1::__atomic_base"* %66 to %"struct.std::__1::__atomic_base.3"*
  %68 = getelementptr inbounds %"struct.std::__1::__atomic_base.3", %"struct.std::__1::__atomic_base.3"* %67, i32 0, i32 0
  %69 = load i32, i32* %5, align 4
  %70 = load i64, i64* %4, align 8
  store i64 %70, i64* %6, align 8
  switch i32 %69, label %71 [
    i32 1, label %74
    i32 2, label %74
    i32 3, label %77
    i32 4, label %80
    i32 5, label %83
  ]

; <label>:71:                                     ; preds = %59
  %72 = load i64, i64* %6, align 8
  %73 = atomicrmw sub i64* %68, i64 %72 monotonic
  store i64 %73, i64* %7, align 8
  br label %86

; <label>:74:                                     ; preds = %59, %59
  %75 = load i64, i64* %6, align 8
  %76 = atomicrmw sub i64* %68, i64 %75 acquire
  store i64 %76, i64* %7, align 8
  br label %86

; <label>:77:                                     ; preds = %59
  %78 = load i64, i64* %6, align 8
  %79 = atomicrmw sub i64* %68, i64 %78 release
  store i64 %79, i64* %7, align 8
  br label %86

; <label>:80:                                     ; preds = %59
  %81 = load i64, i64* %6, align 8
  %82 = atomicrmw sub i64* %68, i64 %81 acq_rel
  store i64 %82, i64* %7, align 8
  br label %86

; <label>:83:                                     ; preds = %59
  %84 = load i64, i64* %6, align 8
  %85 = atomicrmw sub i64* %68, i64 %84 seq_cst
  store i64 %85, i64* %7, align 8
  br label %86

; <label>:86:                                     ; preds = %71, %74, %77, %80, %83
  %87 = load i64, i64* %7, align 8
  %88 = icmp eq i64 %87, 1
  br i1 %88, label %89, label %95

; <label>:89:                                     ; preds = %86
  %90 = load %"class.altered_carbon::js::RefCounted.13"*, %"class.altered_carbon::js::RefCounted.13"** %15, align 8
  %91 = icmp eq %"class.altered_carbon::js::RefCounted.13"* %90, null
  br i1 %91, label %94, label %92

; <label>:92:                                     ; preds = %89
  call void @_ZN14altered_carbon2js10RefCountedINS0_15JsVariantObjectEED1Ev(%"class.altered_carbon::js::RefCounted.13"* %90) #8
  %93 = bitcast %"class.altered_carbon::js::RefCounted.13"* %90 to i8*
  call void @_ZdlPv(i8* %93) #12
  br label %94

; <label>:94:                                     ; preds = %92, %89
  br label %95

; <label>:95:                                     ; preds = %94, %86, %56
  ret %"class.altered_carbon::js::RefCountedPtr.12"* %16
}

; Function Attrs: noinline nounwind optnone ssp uwtable
define linkonce_odr hidden dereferenceable(8) %"class.altered_carbon::js::RefCountedPtr.22"* @_ZN14altered_carbon2js13RefCountedPtrINS0_14JsVariantArrayEEaSERKS3_(%"class.altered_carbon::js::RefCountedPtr.22"*, %"class.altered_carbon::js::RefCountedPtr.22"* dereferenceable(8)) #0 align 2 {
  %3 = alloca %"struct.std::__1::__atomic_base"*, align 8
  %4 = alloca i64, align 8
  %5 = alloca i32, align 4
  %6 = alloca i64, align 8
  %7 = alloca i64, align 8
  %8 = alloca %"struct.std::__1::__atomic_base"*, align 8
  %9 = alloca i64, align 8
  %10 = alloca i32, align 4
  %11 = alloca i64, align 8
  %12 = alloca i64, align 8
  %13 = alloca %"class.altered_carbon::js::RefCountedPtr.22"*, align 8
  %14 = alloca %"class.altered_carbon::js::RefCountedPtr.22"*, align 8
  %15 = alloca %"class.altered_carbon::js::RefCounted.23"*, align 8
  store %"class.altered_carbon::js::RefCountedPtr.22"* %0, %"class.altered_carbon::js::RefCountedPtr.22"** %13, align 8
  store %"class.altered_carbon::js::RefCountedPtr.22"* %1, %"class.altered_carbon::js::RefCountedPtr.22"** %14, align 8
  %16 = load %"class.altered_carbon::js::RefCountedPtr.22"*, %"class.altered_carbon::js::RefCountedPtr.22"** %13, align 8
  %17 = getelementptr inbounds %"class.altered_carbon::js::RefCountedPtr.22", %"class.altered_carbon::js::RefCountedPtr.22"* %16, i32 0, i32 0
  %18 = load %"class.altered_carbon::js::RefCounted.23"*, %"class.altered_carbon::js::RefCounted.23"** %17, align 8
  store %"class.altered_carbon::js::RefCounted.23"* %18, %"class.altered_carbon::js::RefCounted.23"** %15, align 8
  %19 = load %"class.altered_carbon::js::RefCountedPtr.22"*, %"class.altered_carbon::js::RefCountedPtr.22"** %14, align 8
  %20 = getelementptr inbounds %"class.altered_carbon::js::RefCountedPtr.22", %"class.altered_carbon::js::RefCountedPtr.22"* %19, i32 0, i32 0
  %21 = load %"class.altered_carbon::js::RefCounted.23"*, %"class.altered_carbon::js::RefCounted.23"** %20, align 8
  %22 = getelementptr inbounds %"class.altered_carbon::js::RefCountedPtr.22", %"class.altered_carbon::js::RefCountedPtr.22"* %16, i32 0, i32 0
  store %"class.altered_carbon::js::RefCounted.23"* %21, %"class.altered_carbon::js::RefCounted.23"** %22, align 8
  %23 = getelementptr inbounds %"class.altered_carbon::js::RefCountedPtr.22", %"class.altered_carbon::js::RefCountedPtr.22"* %16, i32 0, i32 0
  %24 = load %"class.altered_carbon::js::RefCounted.23"*, %"class.altered_carbon::js::RefCounted.23"** %23, align 8
  %25 = icmp ne %"class.altered_carbon::js::RefCounted.23"* %24, null
  br i1 %25, label %26, label %56

; <label>:26:                                     ; preds = %2
  %27 = getelementptr inbounds %"class.altered_carbon::js::RefCountedPtr.22", %"class.altered_carbon::js::RefCountedPtr.22"* %16, i32 0, i32 0
  %28 = load %"class.altered_carbon::js::RefCounted.23"*, %"class.altered_carbon::js::RefCounted.23"** %27, align 8
  %29 = bitcast %"class.altered_carbon::js::RefCounted.23"* %28 to i8*
  %30 = getelementptr inbounds i8, i8* %29, i64 24
  %31 = bitcast i8* %30 to %"struct.altered_carbon::js::RefCounter"*
  %32 = getelementptr inbounds %"struct.altered_carbon::js::RefCounter", %"struct.altered_carbon::js::RefCounter"* %31, i32 0, i32 0
  %33 = bitcast %"struct.std::__1::atomic"* %32 to %"struct.std::__1::__atomic_base"*
  store %"struct.std::__1::__atomic_base"* %33, %"struct.std::__1::__atomic_base"** %8, align 8
  store i64 1, i64* %9, align 8
  store i32 5, i32* %10, align 4
  %34 = load %"struct.std::__1::__atomic_base"*, %"struct.std::__1::__atomic_base"** %8, align 8
  %35 = bitcast %"struct.std::__1::__atomic_base"* %34 to %"struct.std::__1::__atomic_base.3"*
  %36 = getelementptr inbounds %"struct.std::__1::__atomic_base.3", %"struct.std::__1::__atomic_base.3"* %35, i32 0, i32 0
  %37 = load i32, i32* %10, align 4
  %38 = load i64, i64* %9, align 8
  store i64 %38, i64* %11, align 8
  switch i32 %37, label %39 [
    i32 1, label %42
    i32 2, label %42
    i32 3, label %45
    i32 4, label %48
    i32 5, label %51
  ]

; <label>:39:                                     ; preds = %26
  %40 = load i64, i64* %11, align 8
  %41 = atomicrmw add i64* %36, i64 %40 monotonic
  store i64 %41, i64* %12, align 8
  br label %54

; <label>:42:                                     ; preds = %26, %26
  %43 = load i64, i64* %11, align 8
  %44 = atomicrmw add i64* %36, i64 %43 acquire
  store i64 %44, i64* %12, align 8
  br label %54

; <label>:45:                                     ; preds = %26
  %46 = load i64, i64* %11, align 8
  %47 = atomicrmw add i64* %36, i64 %46 release
  store i64 %47, i64* %12, align 8
  br label %54

; <label>:48:                                     ; preds = %26
  %49 = load i64, i64* %11, align 8
  %50 = atomicrmw add i64* %36, i64 %49 acq_rel
  store i64 %50, i64* %12, align 8
  br label %54

; <label>:51:                                     ; preds = %26
  %52 = load i64, i64* %11, align 8
  %53 = atomicrmw add i64* %36, i64 %52 seq_cst
  store i64 %53, i64* %12, align 8
  br label %54

; <label>:54:                                     ; preds = %39, %42, %45, %48, %51
  %55 = load i64, i64* %12, align 8
  br label %56

; <label>:56:                                     ; preds = %54, %2
  %57 = load %"class.altered_carbon::js::RefCounted.23"*, %"class.altered_carbon::js::RefCounted.23"** %15, align 8
  %58 = icmp ne %"class.altered_carbon::js::RefCounted.23"* %57, null
  br i1 %58, label %59, label %98

; <label>:59:                                     ; preds = %56
  %60 = load %"class.altered_carbon::js::RefCounted.23"*, %"class.altered_carbon::js::RefCounted.23"** %15, align 8
  %61 = bitcast %"class.altered_carbon::js::RefCounted.23"* %60 to i8*
  %62 = getelementptr inbounds i8, i8* %61, i64 24
  %63 = bitcast i8* %62 to %"struct.altered_carbon::js::RefCounter"*
  %64 = getelementptr inbounds %"struct.altered_carbon::js::RefCounter", %"struct.altered_carbon::js::RefCounter"* %63, i32 0, i32 0
  %65 = bitcast %"struct.std::__1::atomic"* %64 to %"struct.std::__1::__atomic_base"*
  store %"struct.std::__1::__atomic_base"* %65, %"struct.std::__1::__atomic_base"** %3, align 8
  store i64 1, i64* %4, align 8
  store i32 5, i32* %5, align 4
  %66 = load %"struct.std::__1::__atomic_base"*, %"struct.std::__1::__atomic_base"** %3, align 8
  %67 = bitcast %"struct.std::__1::__atomic_base"* %66 to %"struct.std::__1::__atomic_base.3"*
  %68 = getelementptr inbounds %"struct.std::__1::__atomic_base.3", %"struct.std::__1::__atomic_base.3"* %67, i32 0, i32 0
  %69 = load i32, i32* %5, align 4
  %70 = load i64, i64* %4, align 8
  store i64 %70, i64* %6, align 8
  switch i32 %69, label %71 [
    i32 1, label %74
    i32 2, label %74
    i32 3, label %77
    i32 4, label %80
    i32 5, label %83
  ]

; <label>:71:                                     ; preds = %59
  %72 = load i64, i64* %6, align 8
  %73 = atomicrmw sub i64* %68, i64 %72 monotonic
  store i64 %73, i64* %7, align 8
  br label %86

; <label>:74:                                     ; preds = %59, %59
  %75 = load i64, i64* %6, align 8
  %76 = atomicrmw sub i64* %68, i64 %75 acquire
  store i64 %76, i64* %7, align 8
  br label %86

; <label>:77:                                     ; preds = %59
  %78 = load i64, i64* %6, align 8
  %79 = atomicrmw sub i64* %68, i64 %78 release
  store i64 %79, i64* %7, align 8
  br label %86

; <label>:80:                                     ; preds = %59
  %81 = load i64, i64* %6, align 8
  %82 = atomicrmw sub i64* %68, i64 %81 acq_rel
  store i64 %82, i64* %7, align 8
  br label %86

; <label>:83:                                     ; preds = %59
  %84 = load i64, i64* %6, align 8
  %85 = atomicrmw sub i64* %68, i64 %84 seq_cst
  store i64 %85, i64* %7, align 8
  br label %86

; <label>:86:                                     ; preds = %71, %74, %77, %80, %83
  %87 = load i64, i64* %7, align 8
  %88 = icmp eq i64 %87, 1
  br i1 %88, label %89, label %98

; <label>:89:                                     ; preds = %86
  %90 = load %"class.altered_carbon::js::RefCounted.23"*, %"class.altered_carbon::js::RefCounted.23"** %15, align 8
  %91 = icmp eq %"class.altered_carbon::js::RefCounted.23"* %90, null
  br i1 %91, label %97, label %92

; <label>:92:                                     ; preds = %89
  %93 = bitcast %"class.altered_carbon::js::RefCounted.23"* %90 to void (%"class.altered_carbon::js::RefCounted.23"*)***
  %94 = load void (%"class.altered_carbon::js::RefCounted.23"*)**, void (%"class.altered_carbon::js::RefCounted.23"*)*** %93, align 8
  %95 = getelementptr inbounds void (%"class.altered_carbon::js::RefCounted.23"*)*, void (%"class.altered_carbon::js::RefCounted.23"*)** %94, i64 1
  %96 = load void (%"class.altered_carbon::js::RefCounted.23"*)*, void (%"class.altered_carbon::js::RefCounted.23"*)** %95, align 8
  call void %96(%"class.altered_carbon::js::RefCounted.23"* %90) #8
  br label %97

; <label>:97:                                     ; preds = %92, %89
  br label %98

; <label>:98:                                     ; preds = %97, %86, %56
  ret %"class.altered_carbon::js::RefCountedPtr.22"* %16
}

; Function Attrs: noinline nounwind optnone ssp uwtable
define linkonce_odr hidden dereferenceable(24) %"struct.altered_carbon::js::JsVariantFunc"* @_ZN14altered_carbon2js13JsVariantFuncaSERKS1_(%"struct.altered_carbon::js::JsVariantFunc"*, %"struct.altered_carbon::js::JsVariantFunc"* dereferenceable(24)) #0 align 2 {
  %3 = alloca %"struct.altered_carbon::js::JsVariantFunc"*, align 8
  %4 = alloca %"struct.altered_carbon::js::JsVariantFunc"*, align 8
  store %"struct.altered_carbon::js::JsVariantFunc"* %0, %"struct.altered_carbon::js::JsVariantFunc"** %3, align 8
  store %"struct.altered_carbon::js::JsVariantFunc"* %1, %"struct.altered_carbon::js::JsVariantFunc"** %4, align 8
  %5 = load %"struct.altered_carbon::js::JsVariantFunc"*, %"struct.altered_carbon::js::JsVariantFunc"** %3, align 8
  %6 = load %"struct.altered_carbon::js::JsVariantFunc"*, %"struct.altered_carbon::js::JsVariantFunc"** %4, align 8
  call void @_ZN14altered_carbon2js13JsVariantFunc6assignERKS1_(%"struct.altered_carbon::js::JsVariantFunc"* %5, %"struct.altered_carbon::js::JsVariantFunc"* dereferenceable(24) %6)
  ret %"struct.altered_carbon::js::JsVariantFunc"* %5
}

; Function Attrs: noinline nounwind optnone ssp uwtable
define linkonce_odr hidden dereferenceable(24) %"struct.altered_carbon::js::JsVariantIterator"* @_ZN14altered_carbon2js17JsVariantIteratoraSERKS1_(%"struct.altered_carbon::js::JsVariantIterator"*, %"struct.altered_carbon::js::JsVariantIterator"* dereferenceable(24)) #0 align 2 {
  %3 = alloca %"struct.altered_carbon::js::JsVariantIterator"*, align 8
  %4 = alloca %"struct.altered_carbon::js::JsVariantIterator"*, align 8
  store %"struct.altered_carbon::js::JsVariantIterator"* %0, %"struct.altered_carbon::js::JsVariantIterator"** %3, align 8
  store %"struct.altered_carbon::js::JsVariantIterator"* %1, %"struct.altered_carbon::js::JsVariantIterator"** %4, align 8
  %5 = load %"struct.altered_carbon::js::JsVariantIterator"*, %"struct.altered_carbon::js::JsVariantIterator"** %3, align 8
  %6 = load %"struct.altered_carbon::js::JsVariantIterator"*, %"struct.altered_carbon::js::JsVariantIterator"** %4, align 8
  %7 = getelementptr inbounds %"struct.altered_carbon::js::JsVariantIterator", %"struct.altered_carbon::js::JsVariantIterator"* %6, i32 0, i32 0
  %8 = getelementptr inbounds %"struct.altered_carbon::js::JsVariantIterator", %"struct.altered_carbon::js::JsVariantIterator"* %5, i32 0, i32 0
  %9 = call dereferenceable(8) %"class.altered_carbon::js::RefCountedPtr.22"* @_ZN14altered_carbon2js13RefCountedPtrINS0_14JsVariantArrayEEaSERKS3_(%"class.altered_carbon::js::RefCountedPtr.22"* %8, %"class.altered_carbon::js::RefCountedPtr.22"* dereferenceable(8) %7)
  %10 = load %"struct.altered_carbon::js::JsVariantIterator"*, %"struct.altered_carbon::js::JsVariantIterator"** %4, align 8
  %11 = getelementptr inbounds %"struct.altered_carbon::js::JsVariantIterator", %"struct.altered_carbon::js::JsVariantIterator"* %10, i32 0, i32 1
  %12 = load %"class.altered_carbon::js::RBTreeNode"*, %"class.altered_carbon::js::RBTreeNode"** %11, align 8
  %13 = getelementptr inbounds %"struct.altered_carbon::js::JsVariantIterator", %"struct.altered_carbon::js::JsVariantIterator"* %5, i32 0, i32 1
  store %"class.altered_carbon::js::RBTreeNode"* %12, %"class.altered_carbon::js::RBTreeNode"** %13, align 8
  %14 = load %"struct.altered_carbon::js::JsVariantIterator"*, %"struct.altered_carbon::js::JsVariantIterator"** %4, align 8
  %15 = getelementptr inbounds %"struct.altered_carbon::js::JsVariantIterator", %"struct.altered_carbon::js::JsVariantIterator"* %14, i32 0, i32 2
  %16 = load i32, i32* %15, align 8
  %17 = getelementptr inbounds %"struct.altered_carbon::js::JsVariantIterator", %"struct.altered_carbon::js::JsVariantIterator"* %5, i32 0, i32 2
  store i32 %16, i32* %17, align 8
  %18 = load %"struct.altered_carbon::js::JsVariantIterator"*, %"struct.altered_carbon::js::JsVariantIterator"** %4, align 8
  %19 = getelementptr inbounds %"struct.altered_carbon::js::JsVariantIterator", %"struct.altered_carbon::js::JsVariantIterator"* %18, i32 0, i32 3
  %20 = load i32, i32* %19, align 4
  %21 = getelementptr inbounds %"struct.altered_carbon::js::JsVariantIterator", %"struct.altered_carbon::js::JsVariantIterator"* %5, i32 0, i32 3
  store i32 %20, i32* %21, align 4
  ret %"struct.altered_carbon::js::JsVariantIterator"* %5
}

; Function Attrs: noinline nounwind optnone ssp uwtable
define void @_ZN14altered_carbon2js9JsVariantC1ERKS1_(%"class.altered_carbon::js::JsVariant"*, %"class.altered_carbon::js::JsVariant"* dereferenceable(56)) unnamed_addr #0 align 2 {
  %3 = alloca %"class.altered_carbon::js::JsVariant"*, align 8
  %4 = alloca %"class.altered_carbon::js::JsVariant"*, align 8
  store %"class.altered_carbon::js::JsVariant"* %0, %"class.altered_carbon::js::JsVariant"** %3, align 8
  store %"class.altered_carbon::js::JsVariant"* %1, %"class.altered_carbon::js::JsVariant"** %4, align 8
  %5 = load %"class.altered_carbon::js::JsVariant"*, %"class.altered_carbon::js::JsVariant"** %3, align 8
  %6 = load %"class.altered_carbon::js::JsVariant"*, %"class.altered_carbon::js::JsVariant"** %4, align 8
  call void @_ZN14altered_carbon2js9JsVariantC2ERKS1_(%"class.altered_carbon::js::JsVariant"* %5, %"class.altered_carbon::js::JsVariant"* dereferenceable(56) %6)
  ret void
}

; Function Attrs: noinline nounwind optnone ssp uwtable
define void @_ZN14altered_carbon2js9JsVariantC2ERKNS0_15JsVariantNumberE(%"class.altered_carbon::js::JsVariant"*, %"struct.altered_carbon::js::JsVariantNumber"* dereferenceable(24)) unnamed_addr #0 align 2 {
  %3 = alloca %"class.altered_carbon::js::JsVariant"*, align 8
  %4 = alloca %"struct.altered_carbon::js::JsVariantNumber"*, align 8
  store %"class.altered_carbon::js::JsVariant"* %0, %"class.altered_carbon::js::JsVariant"** %3, align 8
  store %"struct.altered_carbon::js::JsVariantNumber"* %1, %"struct.altered_carbon::js::JsVariantNumber"** %4, align 8
  %5 = load %"class.altered_carbon::js::JsVariant"*, %"class.altered_carbon::js::JsVariant"** %3, align 8
  %6 = bitcast %"class.altered_carbon::js::JsVariant"* %5 to i32 (...)***
  store i32 (...)** bitcast (i8** getelementptr inbounds ({ [4 x i8*] }, { [4 x i8*] }* @_ZTVN14altered_carbon2js9JsVariantE, i32 0, inrange i32 0, i32 2) to i32 (...)**), i32 (...)*** %6, align 8
  %7 = getelementptr inbounds %"class.altered_carbon::js::JsVariant", %"class.altered_carbon::js::JsVariant"* %5, i32 0, i32 1
  store i32 2, i32* %7, align 8
  %8 = getelementptr inbounds %"class.altered_carbon::js::JsVariant", %"class.altered_carbon::js::JsVariant"* %5, i32 0, i32 2
  %9 = bitcast %union.anon* %8 to %"struct.altered_carbon::js::JsVariantNumber"*
  %10 = load %"struct.altered_carbon::js::JsVariantNumber"*, %"struct.altered_carbon::js::JsVariantNumber"** %4, align 8
  %11 = bitcast %"struct.altered_carbon::js::JsVariantNumber"* %9 to i8*
  %12 = bitcast %"struct.altered_carbon::js::JsVariantNumber"* %10 to i8*
  call void @llvm.memcpy.p0i8.p0i8.i64(i8* align 8 %11, i8* align 8 %12, i64 24, i1 false)
  ret void
}

; Function Attrs: noinline nounwind optnone ssp uwtable
define void @_ZN14altered_carbon2js9JsVariantC1ERKNS0_15JsVariantNumberE(%"class.altered_carbon::js::JsVariant"*, %"struct.altered_carbon::js::JsVariantNumber"* dereferenceable(24)) unnamed_addr #0 align 2 {
  %3 = alloca %"class.altered_carbon::js::JsVariant"*, align 8
  %4 = alloca %"struct.altered_carbon::js::JsVariantNumber"*, align 8
  store %"class.altered_carbon::js::JsVariant"* %0, %"class.altered_carbon::js::JsVariant"** %3, align 8
  store %"struct.altered_carbon::js::JsVariantNumber"* %1, %"struct.altered_carbon::js::JsVariantNumber"** %4, align 8
  %5 = load %"class.altered_carbon::js::JsVariant"*, %"class.altered_carbon::js::JsVariant"** %3, align 8
  %6 = load %"struct.altered_carbon::js::JsVariantNumber"*, %"struct.altered_carbon::js::JsVariantNumber"** %4, align 8
  call void @_ZN14altered_carbon2js9JsVariantC2ERKNS0_15JsVariantNumberE(%"class.altered_carbon::js::JsVariant"* %5, %"struct.altered_carbon::js::JsVariantNumber"* dereferenceable(24) %6)
  ret void
}

; Function Attrs: noinline nounwind optnone ssp uwtable
define void @_ZN14altered_carbon2js9JsVariantC2ERKS1_NS1_13JsVariantTypeE(%"class.altered_carbon::js::JsVariant"*, %"class.altered_carbon::js::JsVariant"* dereferenceable(56), i32) unnamed_addr #0 align 2 {
  %4 = alloca %"struct.std::__1::__compressed_pair_elem.31"*, align 8
  %5 = alloca %"class.std::__1::__compressed_pair.29"*, align 8
  %6 = alloca %"struct.std::__1::__compressed_pair_elem.30"*, align 8
  %7 = alloca %"class.std::__1::__compressed_pair.29"*, align 8
  %8 = alloca %"struct.std::__1::default_delete"*, align 8
  %9 = alloca %"class.altered_carbon::js::RefCounted"*, align 8
  %10 = alloca %"struct.std::__1::__compressed_pair_elem.30"*, align 8
  %11 = alloca %"class.std::__1::__compressed_pair.29"*, align 8
  %12 = alloca %"class.std::__1::unique_ptr"*, align 8
  %13 = alloca %"class.altered_carbon::js::RefCounted"*, align 8
  %14 = alloca %"class.altered_carbon::js::RefCounted"*, align 8
  %15 = alloca %"class.std::__1::unique_ptr"*, align 8
  %16 = alloca %"class.std::__1::unique_ptr"*, align 8
  %17 = alloca %"struct.std::__1::__compressed_pair_elem.30"*, align 8
  %18 = alloca %"class.std::__1::__compressed_pair.29"*, align 8
  %19 = alloca %"struct.std::__1::__compressed_pair_elem.30"*, align 8
  %20 = alloca %"class.std::__1::__compressed_pair.29"*, align 8
  %21 = alloca %"class.std::__1::unique_ptr"*, align 8
  %22 = alloca %"class.altered_carbon::js::RefCounted"*, align 8
  %23 = alloca %"class.altered_carbon::js::JsVariant"*, align 8
  %24 = alloca %"class.altered_carbon::js::JsVariant"*, align 8
  %25 = alloca i32, align 4
  %26 = alloca %"class.std::__1::unique_ptr", align 8
  store %"class.altered_carbon::js::JsVariant"* %0, %"class.altered_carbon::js::JsVariant"** %23, align 8
  store %"class.altered_carbon::js::JsVariant"* %1, %"class.altered_carbon::js::JsVariant"** %24, align 8
  store i32 %2, i32* %25, align 4
  %27 = load %"class.altered_carbon::js::JsVariant"*, %"class.altered_carbon::js::JsVariant"** %23, align 8
  %28 = bitcast %"class.altered_carbon::js::JsVariant"* %27 to i32 (...)***
  store i32 (...)** bitcast (i8** getelementptr inbounds ({ [4 x i8*] }, { [4 x i8*] }* @_ZTVN14altered_carbon2js9JsVariantE, i32 0, inrange i32 0, i32 2) to i32 (...)**), i32 (...)*** %28, align 8
  %29 = getelementptr inbounds %"class.altered_carbon::js::JsVariant", %"class.altered_carbon::js::JsVariant"* %27, i32 0, i32 1
  %30 = load %"class.altered_carbon::js::JsVariant"*, %"class.altered_carbon::js::JsVariant"** %24, align 8
  %31 = getelementptr inbounds %"class.altered_carbon::js::JsVariant", %"class.altered_carbon::js::JsVariant"* %30, i32 0, i32 1
  %32 = load i32, i32* %31, align 8
  store i32 %32, i32* %29, align 8
  br label %33

; <label>:33:                                     ; preds = %3
  %34 = getelementptr inbounds %"class.altered_carbon::js::JsVariant", %"class.altered_carbon::js::JsVariant"* %27, i32 0, i32 1
  %35 = load i32, i32* %34, align 8
  %36 = icmp eq i32 %35, 2
  br i1 %36, label %37, label %45

; <label>:37:                                     ; preds = %33
  %38 = load %"class.altered_carbon::js::JsVariant"*, %"class.altered_carbon::js::JsVariant"** %24, align 8
  %39 = getelementptr inbounds %"class.altered_carbon::js::JsVariant", %"class.altered_carbon::js::JsVariant"* %38, i32 0, i32 2
  %40 = bitcast %union.anon* %39 to %"struct.altered_carbon::js::JsVariantNumber"*
  %41 = getelementptr inbounds %"class.altered_carbon::js::JsVariant", %"class.altered_carbon::js::JsVariant"* %27, i32 0, i32 2
  %42 = bitcast %union.anon* %41 to %"struct.altered_carbon::js::JsVariantNumber"*
  %43 = bitcast %"struct.altered_carbon::js::JsVariantNumber"* %42 to i8*
  %44 = bitcast %"struct.altered_carbon::js::JsVariantNumber"* %40 to i8*
  call void @llvm.memcpy.p0i8.p0i8.i64(i8* align 8 %43, i8* align 8 %44, i64 17, i1 false)
  br label %182

; <label>:45:                                     ; preds = %33
  %46 = getelementptr inbounds %"class.altered_carbon::js::JsVariant", %"class.altered_carbon::js::JsVariant"* %27, i32 0, i32 1
  %47 = load i32, i32* %46, align 8
  switch i32 %47, label %180 [
    i32 -2, label %48
    i32 5, label %55
    i32 6, label %62
    i32 10, label %71
    i32 7, label %137
    i32 13, label %144
    i32 11, label %144
    i32 14, label %153
    i32 12, label %153
    i32 15, label %162
    i32 16, label %171
  ]

; <label>:48:                                     ; preds = %45
  %49 = load %"class.altered_carbon::js::JsVariant"*, %"class.altered_carbon::js::JsVariant"** %24, align 8
  %50 = getelementptr inbounds %"class.altered_carbon::js::JsVariant", %"class.altered_carbon::js::JsVariant"* %49, i32 0, i32 2
  %51 = bitcast %union.anon* %50 to i8**
  %52 = load i8*, i8** %51, align 8
  %53 = getelementptr inbounds %"class.altered_carbon::js::JsVariant", %"class.altered_carbon::js::JsVariant"* %27, i32 0, i32 2
  %54 = bitcast %union.anon* %53 to i8**
  store i8* %52, i8** %54, align 8
  br label %181

; <label>:55:                                     ; preds = %45
  %56 = load %"class.altered_carbon::js::JsVariant"*, %"class.altered_carbon::js::JsVariant"** %24, align 8
  %57 = getelementptr inbounds %"class.altered_carbon::js::JsVariant", %"class.altered_carbon::js::JsVariant"* %56, i32 0, i32 2
  %58 = bitcast %union.anon* %57 to %"class.altered_carbon::js::ACLexRegex"*
  %59 = getelementptr inbounds %"class.altered_carbon::js::JsVariant", %"class.altered_carbon::js::JsVariant"* %27, i32 0, i32 2
  %60 = bitcast %union.anon* %59 to %"class.altered_carbon::js::ACLexRegex"*
  %61 = call dereferenceable(40) %"class.altered_carbon::js::ACLexRegex"* @_ZN14altered_carbon2js10ACLexRegexaSERKS1_(%"class.altered_carbon::js::ACLexRegex"* %60, %"class.altered_carbon::js::ACLexRegex"* dereferenceable(40) %58)
  br label %181

; <label>:62:                                     ; preds = %45
  %63 = load %"class.altered_carbon::js::JsVariant"*, %"class.altered_carbon::js::JsVariant"** %24, align 8
  %64 = getelementptr inbounds %"class.altered_carbon::js::JsVariant", %"class.altered_carbon::js::JsVariant"* %63, i32 0, i32 2
  %65 = bitcast %union.anon* %64 to i8*
  %66 = load i8, i8* %65, align 8
  %67 = trunc i8 %66 to i1
  %68 = getelementptr inbounds %"class.altered_carbon::js::JsVariant", %"class.altered_carbon::js::JsVariant"* %27, i32 0, i32 2
  %69 = bitcast %union.anon* %68 to i8*
  %70 = zext i1 %67 to i8
  store i8 %70, i8* %69, align 8
  br label %181

; <label>:71:                                     ; preds = %45
  call void @_ZN4llvm11make_uniqueIN14altered_carbon2js10RefCountedINSt3__112basic_stringIwNS4_11char_traitsIwEENS4_9allocatorIwEEEEEEJRA1_KwEEENS4_9enable_ifIXntsr3std8is_arrayIT_EE5valueENS4_10unique_ptrISG_NS4_14default_deleteISG_EEEEE4typeEDpOT0_(%"class.std::__1::unique_ptr"* sret %26, [1 x i32]* dereferenceable(4) @.str)
  store %"class.std::__1::unique_ptr"* %26, %"class.std::__1::unique_ptr"** %21, align 8
  %72 = load %"class.std::__1::unique_ptr"*, %"class.std::__1::unique_ptr"** %21, align 8
  %73 = getelementptr inbounds %"class.std::__1::unique_ptr", %"class.std::__1::unique_ptr"* %72, i32 0, i32 0
  store %"class.std::__1::__compressed_pair.29"* %73, %"class.std::__1::__compressed_pair.29"** %20, align 8
  %74 = load %"class.std::__1::__compressed_pair.29"*, %"class.std::__1::__compressed_pair.29"** %20, align 8
  %75 = bitcast %"class.std::__1::__compressed_pair.29"* %74 to %"struct.std::__1::__compressed_pair_elem.30"*
  store %"struct.std::__1::__compressed_pair_elem.30"* %75, %"struct.std::__1::__compressed_pair_elem.30"** %19, align 8
  %76 = load %"struct.std::__1::__compressed_pair_elem.30"*, %"struct.std::__1::__compressed_pair_elem.30"** %19, align 8
  %77 = getelementptr inbounds %"struct.std::__1::__compressed_pair_elem.30", %"struct.std::__1::__compressed_pair_elem.30"* %76, i32 0, i32 0
  %78 = load %"class.altered_carbon::js::RefCounted"*, %"class.altered_carbon::js::RefCounted"** %77, align 8
  store %"class.altered_carbon::js::RefCounted"* %78, %"class.altered_carbon::js::RefCounted"** %22, align 8
  %79 = getelementptr inbounds %"class.std::__1::unique_ptr", %"class.std::__1::unique_ptr"* %72, i32 0, i32 0
  store %"class.std::__1::__compressed_pair.29"* %79, %"class.std::__1::__compressed_pair.29"** %18, align 8
  %80 = load %"class.std::__1::__compressed_pair.29"*, %"class.std::__1::__compressed_pair.29"** %18, align 8
  %81 = bitcast %"class.std::__1::__compressed_pair.29"* %80 to %"struct.std::__1::__compressed_pair_elem.30"*
  store %"struct.std::__1::__compressed_pair_elem.30"* %81, %"struct.std::__1::__compressed_pair_elem.30"** %17, align 8
  %82 = load %"struct.std::__1::__compressed_pair_elem.30"*, %"struct.std::__1::__compressed_pair_elem.30"** %17, align 8
  %83 = getelementptr inbounds %"struct.std::__1::__compressed_pair_elem.30", %"struct.std::__1::__compressed_pair_elem.30"* %82, i32 0, i32 0
  store %"class.altered_carbon::js::RefCounted"* null, %"class.altered_carbon::js::RefCounted"** %83, align 8
  %84 = load %"class.altered_carbon::js::RefCounted"*, %"class.altered_carbon::js::RefCounted"** %22, align 8
  %85 = getelementptr inbounds %"class.altered_carbon::js::JsVariant", %"class.altered_carbon::js::JsVariant"* %27, i32 0, i32 2
  %86 = bitcast %union.anon* %85 to %"class.altered_carbon::js::RefCountedPtr"*
  %87 = call dereferenceable(8) %"class.altered_carbon::js::RefCountedPtr"* @_ZN14altered_carbon2js13RefCountedPtrINSt3__112basic_stringIwNS2_11char_traitsIwEENS2_9allocatorIwEEEEEaSEPNS0_10RefCountedIS8_EE(%"class.altered_carbon::js::RefCountedPtr"* %86, %"class.altered_carbon::js::RefCounted"* %84)
  store %"class.std::__1::unique_ptr"* %26, %"class.std::__1::unique_ptr"** %16, align 8
  %88 = load %"class.std::__1::unique_ptr"*, %"class.std::__1::unique_ptr"** %16, align 8
  store %"class.std::__1::unique_ptr"* %88, %"class.std::__1::unique_ptr"** %15, align 8
  %89 = load %"class.std::__1::unique_ptr"*, %"class.std::__1::unique_ptr"** %15, align 8
  store %"class.std::__1::unique_ptr"* %89, %"class.std::__1::unique_ptr"** %12, align 8
  store %"class.altered_carbon::js::RefCounted"* null, %"class.altered_carbon::js::RefCounted"** %13, align 8
  %90 = load %"class.std::__1::unique_ptr"*, %"class.std::__1::unique_ptr"** %12, align 8
  %91 = getelementptr inbounds %"class.std::__1::unique_ptr", %"class.std::__1::unique_ptr"* %90, i32 0, i32 0
  store %"class.std::__1::__compressed_pair.29"* %91, %"class.std::__1::__compressed_pair.29"** %11, align 8
  %92 = load %"class.std::__1::__compressed_pair.29"*, %"class.std::__1::__compressed_pair.29"** %11, align 8
  %93 = bitcast %"class.std::__1::__compressed_pair.29"* %92 to %"struct.std::__1::__compressed_pair_elem.30"*
  store %"struct.std::__1::__compressed_pair_elem.30"* %93, %"struct.std::__1::__compressed_pair_elem.30"** %10, align 8
  %94 = load %"struct.std::__1::__compressed_pair_elem.30"*, %"struct.std::__1::__compressed_pair_elem.30"** %10, align 8
  %95 = getelementptr inbounds %"struct.std::__1::__compressed_pair_elem.30", %"struct.std::__1::__compressed_pair_elem.30"* %94, i32 0, i32 0
  %96 = load %"class.altered_carbon::js::RefCounted"*, %"class.altered_carbon::js::RefCounted"** %95, align 8
  store %"class.altered_carbon::js::RefCounted"* %96, %"class.altered_carbon::js::RefCounted"** %14, align 8
  %97 = load %"class.altered_carbon::js::RefCounted"*, %"class.altered_carbon::js::RefCounted"** %13, align 8
  %98 = getelementptr inbounds %"class.std::__1::unique_ptr", %"class.std::__1::unique_ptr"* %90, i32 0, i32 0
  store %"class.std::__1::__compressed_pair.29"* %98, %"class.std::__1::__compressed_pair.29"** %7, align 8
  %99 = load %"class.std::__1::__compressed_pair.29"*, %"class.std::__1::__compressed_pair.29"** %7, align 8
  %100 = bitcast %"class.std::__1::__compressed_pair.29"* %99 to %"struct.std::__1::__compressed_pair_elem.30"*
  store %"struct.std::__1::__compressed_pair_elem.30"* %100, %"struct.std::__1::__compressed_pair_elem.30"** %6, align 8
  %101 = load %"struct.std::__1::__compressed_pair_elem.30"*, %"struct.std::__1::__compressed_pair_elem.30"** %6, align 8
  %102 = getelementptr inbounds %"struct.std::__1::__compressed_pair_elem.30", %"struct.std::__1::__compressed_pair_elem.30"* %101, i32 0, i32 0
  store %"class.altered_carbon::js::RefCounted"* %97, %"class.altered_carbon::js::RefCounted"** %102, align 8
  %103 = load %"class.altered_carbon::js::RefCounted"*, %"class.altered_carbon::js::RefCounted"** %14, align 8
  %104 = icmp ne %"class.altered_carbon::js::RefCounted"* %103, null
  br i1 %104, label %105, label %118

; <label>:105:                                    ; preds = %71
  %106 = getelementptr inbounds %"class.std::__1::unique_ptr", %"class.std::__1::unique_ptr"* %90, i32 0, i32 0
  store %"class.std::__1::__compressed_pair.29"* %106, %"class.std::__1::__compressed_pair.29"** %5, align 8
  %107 = load %"class.std::__1::__compressed_pair.29"*, %"class.std::__1::__compressed_pair.29"** %5, align 8
  %108 = bitcast %"class.std::__1::__compressed_pair.29"* %107 to %"struct.std::__1::__compressed_pair_elem.31"*
  store %"struct.std::__1::__compressed_pair_elem.31"* %108, %"struct.std::__1::__compressed_pair_elem.31"** %4, align 8
  %109 = load %"struct.std::__1::__compressed_pair_elem.31"*, %"struct.std::__1::__compressed_pair_elem.31"** %4, align 8
  %110 = bitcast %"struct.std::__1::__compressed_pair_elem.31"* %109 to %"struct.std::__1::default_delete"*
  %111 = load %"class.altered_carbon::js::RefCounted"*, %"class.altered_carbon::js::RefCounted"** %14, align 8
  store %"struct.std::__1::default_delete"* %110, %"struct.std::__1::default_delete"** %8, align 8
  store %"class.altered_carbon::js::RefCounted"* %111, %"class.altered_carbon::js::RefCounted"** %9, align 8
  %112 = load %"struct.std::__1::default_delete"*, %"struct.std::__1::default_delete"** %8, align 8
  %113 = load %"class.altered_carbon::js::RefCounted"*, %"class.altered_carbon::js::RefCounted"** %9, align 8
  %114 = icmp eq %"class.altered_carbon::js::RefCounted"* %113, null
  br i1 %114, label %117, label %115

; <label>:115:                                    ; preds = %105
  call void @_ZN14altered_carbon2js10RefCountedINSt3__112basic_stringIwNS2_11char_traitsIwEENS2_9allocatorIwEEEEED1Ev(%"class.altered_carbon::js::RefCounted"* %113) #8
  %116 = bitcast %"class.altered_carbon::js::RefCounted"* %113 to i8*
  call void @_ZdlPv(i8* %116) #12
  br label %117

; <label>:117:                                    ; preds = %115, %105
  br label %118

; <label>:118:                                    ; preds = %71, %117
  %119 = load %"class.altered_carbon::js::JsVariant"*, %"class.altered_carbon::js::JsVariant"** %24, align 8
  %120 = getelementptr inbounds %"class.altered_carbon::js::JsVariant", %"class.altered_carbon::js::JsVariant"* %119, i32 0, i32 2
  %121 = bitcast %union.anon* %120 to %"class.altered_carbon::js::RefCountedPtr"*
  %122 = call %"class.altered_carbon::js::RefCounted"* @_ZNK14altered_carbon2js13RefCountedPtrINSt3__112basic_stringIwNS2_11char_traitsIwEENS2_9allocatorIwEEEEE3getEv(%"class.altered_carbon::js::RefCountedPtr"* %121)
  %123 = icmp ne %"class.altered_carbon::js::RefCounted"* %122, null
  %124 = xor i1 %123, true
  %125 = xor i1 %124, true
  %126 = xor i1 %125, true
  br i1 %126, label %127, label %129

; <label>:127:                                    ; preds = %118
  call void @__assert_rtn(i8* getelementptr inbounds ([10 x i8], [10 x i8]* @__func__._ZN14altered_carbon2js9JsVariantC2ENS1_13JsVariantTypeEPS1_, i32 0, i32 0), i8* getelementptr inbounds ([19 x i8], [19 x i8]* @.str.1, i32 0, i32 0), i32 153, i8* getelementptr inbounds ([17 x i8], [17 x i8]* @.str.6, i32 0, i32 0)) #14
  unreachable
                                                  ; No predecessors!
  br label %130

; <label>:129:                                    ; preds = %118
  br label %130

; <label>:130:                                    ; preds = %129, %128
  %131 = load %"class.altered_carbon::js::JsVariant"*, %"class.altered_carbon::js::JsVariant"** %24, align 8
  %132 = getelementptr inbounds %"class.altered_carbon::js::JsVariant", %"class.altered_carbon::js::JsVariant"* %131, i32 0, i32 2
  %133 = bitcast %union.anon* %132 to %"class.altered_carbon::js::RefCountedPtr"*
  %134 = getelementptr inbounds %"class.altered_carbon::js::JsVariant", %"class.altered_carbon::js::JsVariant"* %27, i32 0, i32 2
  %135 = bitcast %union.anon* %134 to %"class.altered_carbon::js::RefCountedPtr"*
  %136 = call dereferenceable(8) %"class.altered_carbon::js::RefCountedPtr"* @_ZN14altered_carbon2js13RefCountedPtrINSt3__112basic_stringIwNS2_11char_traitsIwEENS2_9allocatorIwEEEEEaSERKS9_(%"class.altered_carbon::js::RefCountedPtr"* %135, %"class.altered_carbon::js::RefCountedPtr"* dereferenceable(8) %133)
  br label %181

; <label>:137:                                    ; preds = %45
  %138 = load %"class.altered_carbon::js::JsVariant"*, %"class.altered_carbon::js::JsVariant"** %24, align 8
  %139 = getelementptr inbounds %"class.altered_carbon::js::JsVariant", %"class.altered_carbon::js::JsVariant"* %138, i32 0, i32 2
  %140 = bitcast %union.anon* %139 to %"class.altered_carbon::js::JsVariant"**
  %141 = load %"class.altered_carbon::js::JsVariant"*, %"class.altered_carbon::js::JsVariant"** %140, align 8
  %142 = getelementptr inbounds %"class.altered_carbon::js::JsVariant", %"class.altered_carbon::js::JsVariant"* %27, i32 0, i32 2
  %143 = bitcast %union.anon* %142 to %"class.altered_carbon::js::JsVariant"**
  store %"class.altered_carbon::js::JsVariant"* %141, %"class.altered_carbon::js::JsVariant"** %143, align 8
  br label %181

; <label>:144:                                    ; preds = %45, %45
  %145 = getelementptr inbounds %"class.altered_carbon::js::JsVariant", %"class.altered_carbon::js::JsVariant"* %27, i32 0, i32 2
  %146 = bitcast %union.anon* %145 to %"class.altered_carbon::js::RefCountedPtr.12"*
  call void @_ZN14altered_carbon2js13RefCountedPtrINS0_15JsVariantObjectEE5resetEb(%"class.altered_carbon::js::RefCountedPtr.12"* %146, i1 zeroext true)
  %147 = load %"class.altered_carbon::js::JsVariant"*, %"class.altered_carbon::js::JsVariant"** %24, align 8
  %148 = getelementptr inbounds %"class.altered_carbon::js::JsVariant", %"class.altered_carbon::js::JsVariant"* %147, i32 0, i32 2
  %149 = bitcast %union.anon* %148 to %"class.altered_carbon::js::RefCountedPtr.12"*
  %150 = getelementptr inbounds %"class.altered_carbon::js::JsVariant", %"class.altered_carbon::js::JsVariant"* %27, i32 0, i32 2
  %151 = bitcast %union.anon* %150 to %"class.altered_carbon::js::RefCountedPtr.12"*
  %152 = call dereferenceable(8) %"class.altered_carbon::js::RefCountedPtr.12"* @_ZN14altered_carbon2js13RefCountedPtrINS0_15JsVariantObjectEEaSERKS3_(%"class.altered_carbon::js::RefCountedPtr.12"* %151, %"class.altered_carbon::js::RefCountedPtr.12"* dereferenceable(8) %149)
  br label %181

; <label>:153:                                    ; preds = %45, %45
  %154 = getelementptr inbounds %"class.altered_carbon::js::JsVariant", %"class.altered_carbon::js::JsVariant"* %27, i32 0, i32 2
  %155 = bitcast %union.anon* %154 to %"class.altered_carbon::js::RefCountedPtr.22"*
  call void @_ZN14altered_carbon2js13RefCountedPtrINS0_14JsVariantArrayEE5resetEb(%"class.altered_carbon::js::RefCountedPtr.22"* %155, i1 zeroext true)
  %156 = load %"class.altered_carbon::js::JsVariant"*, %"class.altered_carbon::js::JsVariant"** %24, align 8
  %157 = getelementptr inbounds %"class.altered_carbon::js::JsVariant", %"class.altered_carbon::js::JsVariant"* %156, i32 0, i32 2
  %158 = bitcast %union.anon* %157 to %"class.altered_carbon::js::RefCountedPtr.22"*
  %159 = getelementptr inbounds %"class.altered_carbon::js::JsVariant", %"class.altered_carbon::js::JsVariant"* %27, i32 0, i32 2
  %160 = bitcast %union.anon* %159 to %"class.altered_carbon::js::RefCountedPtr.22"*
  %161 = call dereferenceable(8) %"class.altered_carbon::js::RefCountedPtr.22"* @_ZN14altered_carbon2js13RefCountedPtrINS0_14JsVariantArrayEEaSERKS3_(%"class.altered_carbon::js::RefCountedPtr.22"* %160, %"class.altered_carbon::js::RefCountedPtr.22"* dereferenceable(8) %158)
  br label %181

; <label>:162:                                    ; preds = %45
  %163 = getelementptr inbounds %"class.altered_carbon::js::JsVariant", %"class.altered_carbon::js::JsVariant"* %27, i32 0, i32 2
  %164 = bitcast %union.anon* %163 to %"struct.altered_carbon::js::JsVariantFunc"*
  call void @_ZN14altered_carbon2js13JsVariantFunc5resetEb(%"struct.altered_carbon::js::JsVariantFunc"* %164, i1 zeroext true)
  %165 = load %"class.altered_carbon::js::JsVariant"*, %"class.altered_carbon::js::JsVariant"** %24, align 8
  %166 = getelementptr inbounds %"class.altered_carbon::js::JsVariant", %"class.altered_carbon::js::JsVariant"* %165, i32 0, i32 2
  %167 = bitcast %union.anon* %166 to %"struct.altered_carbon::js::JsVariantFunc"*
  %168 = getelementptr inbounds %"class.altered_carbon::js::JsVariant", %"class.altered_carbon::js::JsVariant"* %27, i32 0, i32 2
  %169 = bitcast %union.anon* %168 to %"struct.altered_carbon::js::JsVariantFunc"*
  %170 = call dereferenceable(24) %"struct.altered_carbon::js::JsVariantFunc"* @_ZN14altered_carbon2js13JsVariantFuncaSERKS1_(%"struct.altered_carbon::js::JsVariantFunc"* %169, %"struct.altered_carbon::js::JsVariantFunc"* dereferenceable(24) %167)
  br label %181

; <label>:171:                                    ; preds = %45
  %172 = getelementptr inbounds %"class.altered_carbon::js::JsVariant", %"class.altered_carbon::js::JsVariant"* %27, i32 0, i32 2
  %173 = bitcast %union.anon* %172 to %"struct.altered_carbon::js::JsVariantIterator"*
  call void @_ZN14altered_carbon2js17JsVariantIterator5resetEb(%"struct.altered_carbon::js::JsVariantIterator"* %173, i1 zeroext true)
  %174 = load %"class.altered_carbon::js::JsVariant"*, %"class.altered_carbon::js::JsVariant"** %24, align 8
  %175 = getelementptr inbounds %"class.altered_carbon::js::JsVariant", %"class.altered_carbon::js::JsVariant"* %174, i32 0, i32 2
  %176 = bitcast %union.anon* %175 to %"struct.altered_carbon::js::JsVariantIterator"*
  %177 = getelementptr inbounds %"class.altered_carbon::js::JsVariant", %"class.altered_carbon::js::JsVariant"* %27, i32 0, i32 2
  %178 = bitcast %union.anon* %177 to %"struct.altered_carbon::js::JsVariantIterator"*
  %179 = call dereferenceable(24) %"struct.altered_carbon::js::JsVariantIterator"* @_ZN14altered_carbon2js17JsVariantIteratoraSERKS1_(%"struct.altered_carbon::js::JsVariantIterator"* %178, %"struct.altered_carbon::js::JsVariantIterator"* dereferenceable(24) %176)
  br label %181

; <label>:180:                                    ; preds = %45
  br label %181

; <label>:181:                                    ; preds = %180, %171, %162, %153, %144, %137, %130, %62, %55, %48
  br label %182

; <label>:182:                                    ; preds = %181, %37
  %183 = load i32, i32* %25, align 4
  %184 = call dereferenceable(56) %"class.altered_carbon::js::JsVariant"* @_ZN14altered_carbon2js9JsVariant4convEi(%"class.altered_carbon::js::JsVariant"* %27, i32 %183)
  ret void
}

; Function Attrs: noinline nounwind optnone ssp uwtable
define dereferenceable(56) %"class.altered_carbon::js::JsVariant"* @_ZN14altered_carbon2js9JsVariant4convEi(%"class.altered_carbon::js::JsVariant"*, i32) #0 align 2 {
  %3 = alloca %"struct.std::__1::__compressed_pair_elem"*, align 8
  %4 = alloca %"class.std::__1::__compressed_pair"*, align 8
  %5 = alloca %"class.std::__1::basic_string"*, align 8
  %6 = alloca %"struct.std::__1::__compressed_pair_elem"*, align 8
  %7 = alloca %"class.std::__1::__compressed_pair"*, align 8
  %8 = alloca %"class.std::__1::basic_string"*, align 8
  %9 = alloca %"struct.std::__1::__compressed_pair_elem"*, align 8
  %10 = alloca %"class.std::__1::__compressed_pair"*, align 8
  %11 = alloca %"class.std::__1::basic_string"*, align 8
  %12 = alloca %"class.std::__1::basic_string"*, align 8
  %13 = alloca %"class.std::__1::basic_string"*, align 8
  %14 = alloca %"struct.std::__1::__compressed_pair_elem"*, align 8
  %15 = alloca %"class.std::__1::__compressed_pair"*, align 8
  %16 = alloca %"class.std::__1::basic_string"*, align 8
  %17 = alloca %"struct.std::__1::__compressed_pair_elem"*, align 8
  %18 = alloca %"class.std::__1::__compressed_pair"*, align 8
  %19 = alloca %"class.std::__1::basic_string"*, align 8
  %20 = alloca %"struct.std::__1::__compressed_pair_elem"*, align 8
  %21 = alloca %"class.std::__1::__compressed_pair"*, align 8
  %22 = alloca %"class.std::__1::basic_string"*, align 8
  %23 = alloca %"class.std::__1::basic_string"*, align 8
  %24 = alloca %"class.std::__1::basic_string"*, align 8
  %25 = alloca double, align 8
  %26 = alloca %"class.altered_carbon::js::JsVariant"*, align 8
  %27 = alloca %"class.altered_carbon::js::JsVariant"*, align 8
  %28 = alloca i32, align 4
  %29 = alloca i8, align 1
  store %"class.altered_carbon::js::JsVariant"* %0, %"class.altered_carbon::js::JsVariant"** %27, align 8
  store i32 %1, i32* %28, align 4
  %30 = load %"class.altered_carbon::js::JsVariant"*, %"class.altered_carbon::js::JsVariant"** %27, align 8
  %31 = load i32, i32* %28, align 4
  %32 = getelementptr inbounds %"class.altered_carbon::js::JsVariant", %"class.altered_carbon::js::JsVariant"* %30, i32 0, i32 1
  %33 = load i32, i32* %32, align 8
  %34 = icmp eq i32 %31, %33
  br i1 %34, label %35, label %36

; <label>:35:                                     ; preds = %2
  store %"class.altered_carbon::js::JsVariant"* %30, %"class.altered_carbon::js::JsVariant"** %26, align 8
  br label %330

; <label>:36:                                     ; preds = %2
  store i8 0, i8* %29, align 1
  %37 = load i32, i32* %28, align 4
  switch i32 %37, label %328 [
    i32 6, label %38
    i32 2, label %176
    i32 10, label %279
  ]

; <label>:38:                                     ; preds = %36
  %39 = getelementptr inbounds %"class.altered_carbon::js::JsVariant", %"class.altered_carbon::js::JsVariant"* %30, i32 0, i32 1
  %40 = load i32, i32* %39, align 8
  switch i32 %40, label %174 [
    i32 1, label %41
    i32 0, label %41
    i32 2, label %46
    i32 10, label %77
    i32 15, label %152
    i32 12, label %152
    i32 11, label %152
  ]

; <label>:41:                                     ; preds = %38, %38
  %42 = load i32, i32* %28, align 4
  %43 = getelementptr inbounds %"class.altered_carbon::js::JsVariant", %"class.altered_carbon::js::JsVariant"* %30, i32 0, i32 1
  store i32 %42, i32* %43, align 8
  %44 = getelementptr inbounds %"class.altered_carbon::js::JsVariant", %"class.altered_carbon::js::JsVariant"* %30, i32 0, i32 2
  %45 = bitcast %union.anon* %44 to i8*
  store i8 0, i8* %45, align 8
  br label %175

; <label>:46:                                     ; preds = %38
  %47 = load i32, i32* %28, align 4
  %48 = getelementptr inbounds %"class.altered_carbon::js::JsVariant", %"class.altered_carbon::js::JsVariant"* %30, i32 0, i32 1
  store i32 %47, i32* %48, align 8
  %49 = getelementptr inbounds %"class.altered_carbon::js::JsVariant", %"class.altered_carbon::js::JsVariant"* %30, i32 0, i32 2
  %50 = bitcast %union.anon* %49 to %"struct.altered_carbon::js::JsVariantNumber"*
  %51 = getelementptr inbounds %"struct.altered_carbon::js::JsVariantNumber", %"struct.altered_carbon::js::JsVariantNumber"* %50, i32 0, i32 2
  %52 = load i8, i8* %51, align 8
  %53 = trunc i8 %52 to i1
  br i1 %53, label %54, label %60

; <label>:54:                                     ; preds = %46
  %55 = getelementptr inbounds %"class.altered_carbon::js::JsVariant", %"class.altered_carbon::js::JsVariant"* %30, i32 0, i32 2
  %56 = bitcast %union.anon* %55 to %"struct.altered_carbon::js::JsVariantNumber"*
  %57 = getelementptr inbounds %"struct.altered_carbon::js::JsVariantNumber", %"struct.altered_carbon::js::JsVariantNumber"* %56, i32 0, i32 0
  %58 = load i64, i64* %57, align 8
  %59 = icmp ne i64 %58, 0
  br label %72

; <label>:60:                                     ; preds = %46
  %61 = call zeroext i1 @_ZNK14altered_carbon2js9JsVariant5isNaNEv(%"class.altered_carbon::js::JsVariant"* %30)
  br i1 %61, label %70, label %62

; <label>:62:                                     ; preds = %60
  %63 = getelementptr inbounds %"class.altered_carbon::js::JsVariant", %"class.altered_carbon::js::JsVariant"* %30, i32 0, i32 2
  %64 = bitcast %union.anon* %63 to %"struct.altered_carbon::js::JsVariantNumber"*
  %65 = getelementptr inbounds %"struct.altered_carbon::js::JsVariantNumber", %"struct.altered_carbon::js::JsVariantNumber"* %64, i32 0, i32 1
  %66 = load double, double* %65, align 8
  store double %66, double* %25, align 8
  %67 = load double, double* %25, align 8
  %68 = call double @fabs(double %67) #15
  %69 = fcmp ogt double %68, 0.000000e+00
  br label %70

; <label>:70:                                     ; preds = %62, %60
  %71 = phi i1 [ false, %60 ], [ %69, %62 ]
  br label %72

; <label>:72:                                     ; preds = %70, %54
  %73 = phi i1 [ %59, %54 ], [ %71, %70 ]
  %74 = getelementptr inbounds %"class.altered_carbon::js::JsVariant", %"class.altered_carbon::js::JsVariant"* %30, i32 0, i32 2
  %75 = bitcast %union.anon* %74 to i8*
  %76 = zext i1 %73 to i8
  store i8 %76, i8* %75, align 8
  br label %175

; <label>:77:                                     ; preds = %38
  %78 = getelementptr inbounds %"class.altered_carbon::js::JsVariant", %"class.altered_carbon::js::JsVariant"* %30, i32 0, i32 2
  %79 = bitcast %union.anon* %78 to %"class.altered_carbon::js::RefCountedPtr"*
  %80 = call %"class.altered_carbon::js::RefCounted"* @_ZNK14altered_carbon2js13RefCountedPtrINSt3__112basic_stringIwNS2_11char_traitsIwEENS2_9allocatorIwEEEEEptEv(%"class.altered_carbon::js::RefCountedPtr"* %79)
  %81 = bitcast %"class.altered_carbon::js::RefCounted"* %80 to %"class.std::__1::basic_string"*
  store %"class.std::__1::basic_string"* %81, %"class.std::__1::basic_string"** %24, align 8
  %82 = load %"class.std::__1::basic_string"*, %"class.std::__1::basic_string"** %24, align 8
  store %"class.std::__1::basic_string"* %82, %"class.std::__1::basic_string"** %23, align 8
  %83 = load %"class.std::__1::basic_string"*, %"class.std::__1::basic_string"** %23, align 8
  store %"class.std::__1::basic_string"* %83, %"class.std::__1::basic_string"** %22, align 8
  %84 = load %"class.std::__1::basic_string"*, %"class.std::__1::basic_string"** %22, align 8
  %85 = getelementptr inbounds %"class.std::__1::basic_string", %"class.std::__1::basic_string"* %84, i32 0, i32 0
  store %"class.std::__1::__compressed_pair"* %85, %"class.std::__1::__compressed_pair"** %21, align 8
  %86 = load %"class.std::__1::__compressed_pair"*, %"class.std::__1::__compressed_pair"** %21, align 8
  %87 = bitcast %"class.std::__1::__compressed_pair"* %86 to %"struct.std::__1::__compressed_pair_elem"*
  store %"struct.std::__1::__compressed_pair_elem"* %87, %"struct.std::__1::__compressed_pair_elem"** %20, align 8
  %88 = load %"struct.std::__1::__compressed_pair_elem"*, %"struct.std::__1::__compressed_pair_elem"** %20, align 8
  %89 = getelementptr inbounds %"struct.std::__1::__compressed_pair_elem", %"struct.std::__1::__compressed_pair_elem"* %88, i32 0, i32 0
  %90 = getelementptr inbounds %"struct.std::__1::basic_string<wchar_t, std::__1::char_traits<wchar_t>, std::__1::allocator<wchar_t> >::__rep", %"struct.std::__1::basic_string<wchar_t, std::__1::char_traits<wchar_t>, std::__1::allocator<wchar_t> >::__rep"* %89, i32 0, i32 0
  %91 = bitcast %union.anon.0* %90 to %"struct.std::__1::basic_string<wchar_t, std::__1::char_traits<wchar_t>, std::__1::allocator<wchar_t> >::__short"*
  %92 = getelementptr inbounds %"struct.std::__1::basic_string<wchar_t, std::__1::char_traits<wchar_t>, std::__1::allocator<wchar_t> >::__short", %"struct.std::__1::basic_string<wchar_t, std::__1::char_traits<wchar_t>, std::__1::allocator<wchar_t> >::__short"* %91, i32 0, i32 0
  %93 = bitcast %union.anon.1* %92 to i8*
  %94 = load i8, i8* %93, align 8
  %95 = zext i8 %94 to i64
  %96 = and i64 %95, 1
  %97 = icmp ne i64 %96, 0
  br i1 %97, label %98, label %109

; <label>:98:                                     ; preds = %77
  store %"class.std::__1::basic_string"* %83, %"class.std::__1::basic_string"** %16, align 8
  %99 = load %"class.std::__1::basic_string"*, %"class.std::__1::basic_string"** %16, align 8
  %100 = getelementptr inbounds %"class.std::__1::basic_string", %"class.std::__1::basic_string"* %99, i32 0, i32 0
  store %"class.std::__1::__compressed_pair"* %100, %"class.std::__1::__compressed_pair"** %15, align 8
  %101 = load %"class.std::__1::__compressed_pair"*, %"class.std::__1::__compressed_pair"** %15, align 8
  %102 = bitcast %"class.std::__1::__compressed_pair"* %101 to %"struct.std::__1::__compressed_pair_elem"*
  store %"struct.std::__1::__compressed_pair_elem"* %102, %"struct.std::__1::__compressed_pair_elem"** %14, align 8
  %103 = load %"struct.std::__1::__compressed_pair_elem"*, %"struct.std::__1::__compressed_pair_elem"** %14, align 8
  %104 = getelementptr inbounds %"struct.std::__1::__compressed_pair_elem", %"struct.std::__1::__compressed_pair_elem"* %103, i32 0, i32 0
  %105 = getelementptr inbounds %"struct.std::__1::basic_string<wchar_t, std::__1::char_traits<wchar_t>, std::__1::allocator<wchar_t> >::__rep", %"struct.std::__1::basic_string<wchar_t, std::__1::char_traits<wchar_t>, std::__1::allocator<wchar_t> >::__rep"* %104, i32 0, i32 0
  %106 = bitcast %union.anon.0* %105 to %"struct.std::__1::basic_string<wchar_t, std::__1::char_traits<wchar_t>, std::__1::allocator<wchar_t> >::__long"*
  %107 = getelementptr inbounds %"struct.std::__1::basic_string<wchar_t, std::__1::char_traits<wchar_t>, std::__1::allocator<wchar_t> >::__long", %"struct.std::__1::basic_string<wchar_t, std::__1::char_traits<wchar_t>, std::__1::allocator<wchar_t> >::__long"* %106, i32 0, i32 1
  %108 = load i64, i64* %107, align 8
  br label %124

; <label>:109:                                    ; preds = %77
  store %"class.std::__1::basic_string"* %83, %"class.std::__1::basic_string"** %19, align 8
  %110 = load %"class.std::__1::basic_string"*, %"class.std::__1::basic_string"** %19, align 8
  %111 = getelementptr inbounds %"class.std::__1::basic_string", %"class.std::__1::basic_string"* %110, i32 0, i32 0
  store %"class.std::__1::__compressed_pair"* %111, %"class.std::__1::__compressed_pair"** %18, align 8
  %112 = load %"class.std::__1::__compressed_pair"*, %"class.std::__1::__compressed_pair"** %18, align 8
  %113 = bitcast %"class.std::__1::__compressed_pair"* %112 to %"struct.std::__1::__compressed_pair_elem"*
  store %"struct.std::__1::__compressed_pair_elem"* %113, %"struct.std::__1::__compressed_pair_elem"** %17, align 8
  %114 = load %"struct.std::__1::__compressed_pair_elem"*, %"struct.std::__1::__compressed_pair_elem"** %17, align 8
  %115 = getelementptr inbounds %"struct.std::__1::__compressed_pair_elem", %"struct.std::__1::__compressed_pair_elem"* %114, i32 0, i32 0
  %116 = getelementptr inbounds %"struct.std::__1::basic_string<wchar_t, std::__1::char_traits<wchar_t>, std::__1::allocator<wchar_t> >::__rep", %"struct.std::__1::basic_string<wchar_t, std::__1::char_traits<wchar_t>, std::__1::allocator<wchar_t> >::__rep"* %115, i32 0, i32 0
  %117 = bitcast %union.anon.0* %116 to %"struct.std::__1::basic_string<wchar_t, std::__1::char_traits<wchar_t>, std::__1::allocator<wchar_t> >::__short"*
  %118 = getelementptr inbounds %"struct.std::__1::basic_string<wchar_t, std::__1::char_traits<wchar_t>, std::__1::allocator<wchar_t> >::__short", %"struct.std::__1::basic_string<wchar_t, std::__1::char_traits<wchar_t>, std::__1::allocator<wchar_t> >::__short"* %117, i32 0, i32 0
  %119 = bitcast %union.anon.1* %118 to i8*
  %120 = load i8, i8* %119, align 8
  %121 = zext i8 %120 to i32
  %122 = ashr i32 %121, 1
  %123 = sext i32 %122 to i64
  br label %124

; <label>:124:                                    ; preds = %98, %109
  %125 = phi i64 [ %108, %98 ], [ %123, %109 ]
  %126 = icmp ugt i64 %125, 0
  %127 = zext i1 %126 to i8
  store i8 %127, i8* %29, align 1
  br label %128

; <label>:128:                                    ; preds = %124
  %129 = getelementptr inbounds %"class.altered_carbon::js::JsVariant", %"class.altered_carbon::js::JsVariant"* %30, i32 0, i32 1
  %130 = load i32, i32* %129, align 8
  %131 = icmp sge i32 %130, 10
  br i1 %131, label %135, label %132

; <label>:132:                                    ; preds = %128
  %133 = load i32, i32* %28, align 4
  %134 = icmp sge i32 %133, 10
  br i1 %134, label %135, label %143

; <label>:135:                                    ; preds = %132, %128
  %136 = getelementptr inbounds %"class.altered_carbon::js::JsVariant", %"class.altered_carbon::js::JsVariant"* %30, i32 0, i32 1
  %137 = load i32, i32* %136, align 8
  %138 = load i32, i32* %28, align 4
  %139 = icmp ne i32 %137, %138
  br i1 %139, label %140, label %143

; <label>:140:                                    ; preds = %135
  %141 = load i32, i32* %28, align 4
  %142 = call zeroext i1 @_ZN14altered_carbon2js9JsVariant11freePayloadEi(%"class.altered_carbon::js::JsVariant"* %30, i32 %141)
  br label %143

; <label>:143:                                    ; preds = %140, %135, %132
  %144 = load i32, i32* %28, align 4
  %145 = getelementptr inbounds %"class.altered_carbon::js::JsVariant", %"class.altered_carbon::js::JsVariant"* %30, i32 0, i32 1
  store i32 %144, i32* %145, align 8
  br label %146

; <label>:146:                                    ; preds = %143
  %147 = load i8, i8* %29, align 1
  %148 = trunc i8 %147 to i1
  %149 = getelementptr inbounds %"class.altered_carbon::js::JsVariant", %"class.altered_carbon::js::JsVariant"* %30, i32 0, i32 2
  %150 = bitcast %union.anon* %149 to i8*
  %151 = zext i1 %148 to i8
  store i8 %151, i8* %150, align 8
  br label %175

; <label>:152:                                    ; preds = %38, %38, %38
  br label %153

; <label>:153:                                    ; preds = %152
  %154 = getelementptr inbounds %"class.altered_carbon::js::JsVariant", %"class.altered_carbon::js::JsVariant"* %30, i32 0, i32 1
  %155 = load i32, i32* %154, align 8
  %156 = icmp sge i32 %155, 10
  br i1 %156, label %160, label %157

; <label>:157:                                    ; preds = %153
  %158 = load i32, i32* %28, align 4
  %159 = icmp sge i32 %158, 10
  br i1 %159, label %160, label %168

; <label>:160:                                    ; preds = %157, %153
  %161 = getelementptr inbounds %"class.altered_carbon::js::JsVariant", %"class.altered_carbon::js::JsVariant"* %30, i32 0, i32 1
  %162 = load i32, i32* %161, align 8
  %163 = load i32, i32* %28, align 4
  %164 = icmp ne i32 %162, %163
  br i1 %164, label %165, label %168

; <label>:165:                                    ; preds = %160
  %166 = load i32, i32* %28, align 4
  %167 = call zeroext i1 @_ZN14altered_carbon2js9JsVariant11freePayloadEi(%"class.altered_carbon::js::JsVariant"* %30, i32 %166)
  br label %168

; <label>:168:                                    ; preds = %165, %160, %157
  %169 = load i32, i32* %28, align 4
  %170 = getelementptr inbounds %"class.altered_carbon::js::JsVariant", %"class.altered_carbon::js::JsVariant"* %30, i32 0, i32 1
  store i32 %169, i32* %170, align 8
  br label %171

; <label>:171:                                    ; preds = %168
  %172 = getelementptr inbounds %"class.altered_carbon::js::JsVariant", %"class.altered_carbon::js::JsVariant"* %30, i32 0, i32 2
  %173 = bitcast %union.anon* %172 to i8*
  store i8 1, i8* %173, align 8
  br label %175

; <label>:174:                                    ; preds = %38
  call void @__assert_rtn(i8* getelementptr inbounds ([5 x i8], [5 x i8]* @__func__._ZN14altered_carbon2js9JsVariant4convEi, i32 0, i32 0), i8* getelementptr inbounds ([19 x i8], [19 x i8]* @.str.1, i32 0, i32 0), i32 292, i8* getelementptr inbounds ([34 x i8], [34 x i8]* @.str.27, i32 0, i32 0)) #14
  unreachable

; <label>:175:                                    ; preds = %171, %146, %72, %41
  br label %329

; <label>:176:                                    ; preds = %36
  %177 = getelementptr inbounds %"class.altered_carbon::js::JsVariant", %"class.altered_carbon::js::JsVariant"* %30, i32 0, i32 1
  %178 = load i32, i32* %177, align 8
  switch i32 %178, label %277 [
    i32 1, label %179
    i32 0, label %184
    i32 6, label %195
    i32 10, label %214
    i32 15, label %273
    i32 12, label %273
    i32 11, label %273
  ]

; <label>:179:                                    ; preds = %176
  %180 = getelementptr inbounds %"class.altered_carbon::js::JsVariant", %"class.altered_carbon::js::JsVariant"* %30, i32 0, i32 1
  store i32 2, i32* %180, align 8
  %181 = getelementptr inbounds %"class.altered_carbon::js::JsVariant", %"class.altered_carbon::js::JsVariant"* %30, i32 0, i32 2
  %182 = bitcast %union.anon* %181 to %"struct.altered_carbon::js::JsVariantNumber"*
  %183 = bitcast %"struct.altered_carbon::js::JsVariantNumber"* %182 to i8*
  call void @llvm.memcpy.p0i8.p0i8.i64(i8* align 8 %183, i8* align 8 bitcast (%union.anon* getelementptr inbounds (%"class.altered_carbon::js::JsVariant", %"class.altered_carbon::js::JsVariant"* @_ZN14altered_carbon2js11JsConstants3NaNE, i32 0, i32 2) to i8*), i64 17, i1 false)
  br label %278

; <label>:184:                                    ; preds = %176
  %185 = getelementptr inbounds %"class.altered_carbon::js::JsVariant", %"class.altered_carbon::js::JsVariant"* %30, i32 0, i32 1
  store i32 2, i32* %185, align 8
  %186 = getelementptr inbounds %"class.altered_carbon::js::JsVariant", %"class.altered_carbon::js::JsVariant"* %30, i32 0, i32 2
  %187 = bitcast %union.anon* %186 to %"struct.altered_carbon::js::JsVariantNumber"*
  %188 = getelementptr inbounds %"struct.altered_carbon::js::JsVariantNumber", %"struct.altered_carbon::js::JsVariantNumber"* %187, i32 0, i32 0
  store i64 0, i64* %188, align 8
  %189 = getelementptr inbounds %"class.altered_carbon::js::JsVariant", %"class.altered_carbon::js::JsVariant"* %30, i32 0, i32 2
  %190 = bitcast %union.anon* %189 to %"struct.altered_carbon::js::JsVariantNumber"*
  %191 = getelementptr inbounds %"struct.altered_carbon::js::JsVariantNumber", %"struct.altered_carbon::js::JsVariantNumber"* %190, i32 0, i32 1
  store double 0.000000e+00, double* %191, align 8
  %192 = getelementptr inbounds %"class.altered_carbon::js::JsVariant", %"class.altered_carbon::js::JsVariant"* %30, i32 0, i32 2
  %193 = bitcast %union.anon* %192 to %"struct.altered_carbon::js::JsVariantNumber"*
  %194 = getelementptr inbounds %"struct.altered_carbon::js::JsVariantNumber", %"struct.altered_carbon::js::JsVariantNumber"* %193, i32 0, i32 2
  store i8 0, i8* %194, align 8
  br label %278

; <label>:195:                                    ; preds = %176
  %196 = getelementptr inbounds %"class.altered_carbon::js::JsVariant", %"class.altered_carbon::js::JsVariant"* %30, i32 0, i32 1
  store i32 2, i32* %196, align 8
  %197 = getelementptr inbounds %"class.altered_carbon::js::JsVariant", %"class.altered_carbon::js::JsVariant"* %30, i32 0, i32 2
  %198 = bitcast %union.anon* %197 to i8*
  %199 = load i8, i8* %198, align 8
  %200 = trunc i8 %199 to i1
  %201 = zext i1 %200 to i64
  %202 = select i1 %200, i32 1, i32 0
  %203 = sext i32 %202 to i64
  %204 = getelementptr inbounds %"class.altered_carbon::js::JsVariant", %"class.altered_carbon::js::JsVariant"* %30, i32 0, i32 2
  %205 = bitcast %union.anon* %204 to %"struct.altered_carbon::js::JsVariantNumber"*
  %206 = getelementptr inbounds %"struct.altered_carbon::js::JsVariantNumber", %"struct.altered_carbon::js::JsVariantNumber"* %205, i32 0, i32 0
  store i64 %203, i64* %206, align 8
  %207 = sitofp i64 %203 to double
  %208 = getelementptr inbounds %"class.altered_carbon::js::JsVariant", %"class.altered_carbon::js::JsVariant"* %30, i32 0, i32 2
  %209 = bitcast %union.anon* %208 to %"struct.altered_carbon::js::JsVariantNumber"*
  %210 = getelementptr inbounds %"struct.altered_carbon::js::JsVariantNumber", %"struct.altered_carbon::js::JsVariantNumber"* %209, i32 0, i32 1
  store double %207, double* %210, align 8
  %211 = getelementptr inbounds %"class.altered_carbon::js::JsVariant", %"class.altered_carbon::js::JsVariant"* %30, i32 0, i32 2
  %212 = bitcast %union.anon* %211 to %"struct.altered_carbon::js::JsVariantNumber"*
  %213 = getelementptr inbounds %"struct.altered_carbon::js::JsVariantNumber", %"struct.altered_carbon::js::JsVariantNumber"* %212, i32 0, i32 2
  store i8 1, i8* %213, align 8
  br label %278

; <label>:214:                                    ; preds = %176
  %215 = getelementptr inbounds %"class.altered_carbon::js::JsVariant", %"class.altered_carbon::js::JsVariant"* %30, i32 0, i32 2
  %216 = bitcast %union.anon* %215 to %"struct.altered_carbon::js::JsVariantNumber"*
  %217 = getelementptr inbounds %"struct.altered_carbon::js::JsVariantNumber", %"struct.altered_carbon::js::JsVariantNumber"* %216, i32 0, i32 2
  store i8 1, i8* %217, align 8
  %218 = getelementptr inbounds %"class.altered_carbon::js::JsVariant", %"class.altered_carbon::js::JsVariant"* %30, i32 0, i32 2
  %219 = bitcast %union.anon* %218 to %"class.altered_carbon::js::RefCountedPtr"*
  %220 = call %"class.altered_carbon::js::RefCounted"* @_ZNK14altered_carbon2js13RefCountedPtrINSt3__112basic_stringIwNS2_11char_traitsIwEENS2_9allocatorIwEEEEEptEv(%"class.altered_carbon::js::RefCountedPtr"* %219)
  %221 = bitcast %"class.altered_carbon::js::RefCounted"* %220 to %"class.std::__1::basic_string"*
  store %"class.std::__1::basic_string"* %221, %"class.std::__1::basic_string"** %13, align 8
  %222 = load %"class.std::__1::basic_string"*, %"class.std::__1::basic_string"** %13, align 8
  store %"class.std::__1::basic_string"* %222, %"class.std::__1::basic_string"** %12, align 8
  %223 = load %"class.std::__1::basic_string"*, %"class.std::__1::basic_string"** %12, align 8
  store %"class.std::__1::basic_string"* %223, %"class.std::__1::basic_string"** %11, align 8
  %224 = load %"class.std::__1::basic_string"*, %"class.std::__1::basic_string"** %11, align 8
  %225 = getelementptr inbounds %"class.std::__1::basic_string", %"class.std::__1::basic_string"* %224, i32 0, i32 0
  store %"class.std::__1::__compressed_pair"* %225, %"class.std::__1::__compressed_pair"** %10, align 8
  %226 = load %"class.std::__1::__compressed_pair"*, %"class.std::__1::__compressed_pair"** %10, align 8
  %227 = bitcast %"class.std::__1::__compressed_pair"* %226 to %"struct.std::__1::__compressed_pair_elem"*
  store %"struct.std::__1::__compressed_pair_elem"* %227, %"struct.std::__1::__compressed_pair_elem"** %9, align 8
  %228 = load %"struct.std::__1::__compressed_pair_elem"*, %"struct.std::__1::__compressed_pair_elem"** %9, align 8
  %229 = getelementptr inbounds %"struct.std::__1::__compressed_pair_elem", %"struct.std::__1::__compressed_pair_elem"* %228, i32 0, i32 0
  %230 = getelementptr inbounds %"struct.std::__1::basic_string<wchar_t, std::__1::char_traits<wchar_t>, std::__1::allocator<wchar_t> >::__rep", %"struct.std::__1::basic_string<wchar_t, std::__1::char_traits<wchar_t>, std::__1::allocator<wchar_t> >::__rep"* %229, i32 0, i32 0
  %231 = bitcast %union.anon.0* %230 to %"struct.std::__1::basic_string<wchar_t, std::__1::char_traits<wchar_t>, std::__1::allocator<wchar_t> >::__short"*
  %232 = getelementptr inbounds %"struct.std::__1::basic_string<wchar_t, std::__1::char_traits<wchar_t>, std::__1::allocator<wchar_t> >::__short", %"struct.std::__1::basic_string<wchar_t, std::__1::char_traits<wchar_t>, std::__1::allocator<wchar_t> >::__short"* %231, i32 0, i32 0
  %233 = bitcast %union.anon.1* %232 to i8*
  %234 = load i8, i8* %233, align 8
  %235 = zext i8 %234 to i64
  %236 = and i64 %235, 1
  %237 = icmp ne i64 %236, 0
  br i1 %237, label %238, label %249

; <label>:238:                                    ; preds = %214
  store %"class.std::__1::basic_string"* %223, %"class.std::__1::basic_string"** %5, align 8
  %239 = load %"class.std::__1::basic_string"*, %"class.std::__1::basic_string"** %5, align 8
  %240 = getelementptr inbounds %"class.std::__1::basic_string", %"class.std::__1::basic_string"* %239, i32 0, i32 0
  store %"class.std::__1::__compressed_pair"* %240, %"class.std::__1::__compressed_pair"** %4, align 8
  %241 = load %"class.std::__1::__compressed_pair"*, %"class.std::__1::__compressed_pair"** %4, align 8
  %242 = bitcast %"class.std::__1::__compressed_pair"* %241 to %"struct.std::__1::__compressed_pair_elem"*
  store %"struct.std::__1::__compressed_pair_elem"* %242, %"struct.std::__1::__compressed_pair_elem"** %3, align 8
  %243 = load %"struct.std::__1::__compressed_pair_elem"*, %"struct.std::__1::__compressed_pair_elem"** %3, align 8
  %244 = getelementptr inbounds %"struct.std::__1::__compressed_pair_elem", %"struct.std::__1::__compressed_pair_elem"* %243, i32 0, i32 0
  %245 = getelementptr inbounds %"struct.std::__1::basic_string<wchar_t, std::__1::char_traits<wchar_t>, std::__1::allocator<wchar_t> >::__rep", %"struct.std::__1::basic_string<wchar_t, std::__1::char_traits<wchar_t>, std::__1::allocator<wchar_t> >::__rep"* %244, i32 0, i32 0
  %246 = bitcast %union.anon.0* %245 to %"struct.std::__1::basic_string<wchar_t, std::__1::char_traits<wchar_t>, std::__1::allocator<wchar_t> >::__long"*
  %247 = getelementptr inbounds %"struct.std::__1::basic_string<wchar_t, std::__1::char_traits<wchar_t>, std::__1::allocator<wchar_t> >::__long", %"struct.std::__1::basic_string<wchar_t, std::__1::char_traits<wchar_t>, std::__1::allocator<wchar_t> >::__long"* %246, i32 0, i32 1
  %248 = load i64, i64* %247, align 8
  br label %264

; <label>:249:                                    ; preds = %214
  store %"class.std::__1::basic_string"* %223, %"class.std::__1::basic_string"** %8, align 8
  %250 = load %"class.std::__1::basic_string"*, %"class.std::__1::basic_string"** %8, align 8
  %251 = getelementptr inbounds %"class.std::__1::basic_string", %"class.std::__1::basic_string"* %250, i32 0, i32 0
  store %"class.std::__1::__compressed_pair"* %251, %"class.std::__1::__compressed_pair"** %7, align 8
  %252 = load %"class.std::__1::__compressed_pair"*, %"class.std::__1::__compressed_pair"** %7, align 8
  %253 = bitcast %"class.std::__1::__compressed_pair"* %252 to %"struct.std::__1::__compressed_pair_elem"*
  store %"struct.std::__1::__compressed_pair_elem"* %253, %"struct.std::__1::__compressed_pair_elem"** %6, align 8
  %254 = load %"struct.std::__1::__compressed_pair_elem"*, %"struct.std::__1::__compressed_pair_elem"** %6, align 8
  %255 = getelementptr inbounds %"struct.std::__1::__compressed_pair_elem", %"struct.std::__1::__compressed_pair_elem"* %254, i32 0, i32 0
  %256 = getelementptr inbounds %"struct.std::__1::basic_string<wchar_t, std::__1::char_traits<wchar_t>, std::__1::allocator<wchar_t> >::__rep", %"struct.std::__1::basic_string<wchar_t, std::__1::char_traits<wchar_t>, std::__1::allocator<wchar_t> >::__rep"* %255, i32 0, i32 0
  %257 = bitcast %union.anon.0* %256 to %"struct.std::__1::basic_string<wchar_t, std::__1::char_traits<wchar_t>, std::__1::allocator<wchar_t> >::__short"*
  %258 = getelementptr inbounds %"struct.std::__1::basic_string<wchar_t, std::__1::char_traits<wchar_t>, std::__1::allocator<wchar_t> >::__short", %"struct.std::__1::basic_string<wchar_t, std::__1::char_traits<wchar_t>, std::__1::allocator<wchar_t> >::__short"* %257, i32 0, i32 0
  %259 = bitcast %union.anon.1* %258 to i8*
  %260 = load i8, i8* %259, align 8
  %261 = zext i8 %260 to i32
  %262 = ashr i32 %261, 1
  %263 = sext i32 %262 to i64
  br label %264

; <label>:264:                                    ; preds = %238, %249
  %265 = phi i64 [ %248, %238 ], [ %263, %249 ]
  %266 = getelementptr inbounds %"class.altered_carbon::js::JsVariant", %"class.altered_carbon::js::JsVariant"* %30, i32 0, i32 2
  %267 = bitcast %union.anon* %266 to %"struct.altered_carbon::js::JsVariantNumber"*
  %268 = getelementptr inbounds %"struct.altered_carbon::js::JsVariantNumber", %"struct.altered_carbon::js::JsVariantNumber"* %267, i32 0, i32 0
  store i64 %265, i64* %268, align 8
  %269 = sitofp i64 %265 to double
  %270 = getelementptr inbounds %"class.altered_carbon::js::JsVariant", %"class.altered_carbon::js::JsVariant"* %30, i32 0, i32 2
  %271 = bitcast %union.anon* %270 to %"struct.altered_carbon::js::JsVariantNumber"*
  %272 = getelementptr inbounds %"struct.altered_carbon::js::JsVariantNumber", %"struct.altered_carbon::js::JsVariantNumber"* %271, i32 0, i32 1
  store double %269, double* %272, align 8
  br label %278

; <label>:273:                                    ; preds = %176, %176, %176
  %274 = getelementptr inbounds %"class.altered_carbon::js::JsVariant", %"class.altered_carbon::js::JsVariant"* %30, i32 0, i32 2
  %275 = bitcast %union.anon* %274 to %"struct.altered_carbon::js::JsVariantNumber"*
  %276 = bitcast %"struct.altered_carbon::js::JsVariantNumber"* %275 to i8*
  call void @llvm.memcpy.p0i8.p0i8.i64(i8* align 8 %276, i8* align 8 bitcast (%union.anon* getelementptr inbounds (%"class.altered_carbon::js::JsVariant", %"class.altered_carbon::js::JsVariant"* @_ZN14altered_carbon2js11JsConstants3NaNE, i32 0, i32 2) to i8*), i64 17, i1 false)
  br label %278

; <label>:277:                                    ; preds = %176
  call void @__assert_rtn(i8* getelementptr inbounds ([5 x i8], [5 x i8]* @__func__._ZN14altered_carbon2js9JsVariant4convEi, i32 0, i32 0), i8* getelementptr inbounds ([19 x i8], [19 x i8]* @.str.1, i32 0, i32 0), i32 329, i8* getelementptr inbounds ([28 x i8], [28 x i8]* @.str.28, i32 0, i32 0)) #14
  unreachable

; <label>:278:                                    ; preds = %273, %264, %195, %184, %179
  br label %329

; <label>:279:                                    ; preds = %36
  %280 = getelementptr inbounds %"class.altered_carbon::js::JsVariant", %"class.altered_carbon::js::JsVariant"* %30, i32 0, i32 1
  %281 = load i32, i32* %280, align 8
  switch i32 %281, label %326 [
    i32 1, label %282
    i32 0, label %287
    i32 6, label %292
    i32 2, label %305
    i32 15, label %306
    i32 12, label %306
    i32 11, label %306
  ]

; <label>:282:                                    ; preds = %279
  %283 = getelementptr inbounds %"class.altered_carbon::js::JsVariant", %"class.altered_carbon::js::JsVariant"* %30, i32 0, i32 1
  store i32 10, i32* %283, align 8
  %284 = getelementptr inbounds %"class.altered_carbon::js::JsVariant", %"class.altered_carbon::js::JsVariant"* %30, i32 0, i32 2
  %285 = bitcast %union.anon* %284 to %"class.altered_carbon::js::RefCountedPtr"*
  %286 = call dereferenceable(8) %"class.altered_carbon::js::RefCountedPtr"* @_ZN14altered_carbon2js13RefCountedPtrINSt3__112basic_stringIwNS2_11char_traitsIwEENS2_9allocatorIwEEEEEaSERKS9_(%"class.altered_carbon::js::RefCountedPtr"* %285, %"class.altered_carbon::js::RefCountedPtr"* dereferenceable(8) bitcast (%union.anon* getelementptr inbounds (%"class.altered_carbon::js::JsVariant", %"class.altered_carbon::js::JsVariant"* @_ZN14altered_carbon2js11JsConstants12UndefinedStrE, i32 0, i32 2) to %"class.altered_carbon::js::RefCountedPtr"*))
  br label %327

; <label>:287:                                    ; preds = %279
  %288 = getelementptr inbounds %"class.altered_carbon::js::JsVariant", %"class.altered_carbon::js::JsVariant"* %30, i32 0, i32 1
  store i32 10, i32* %288, align 8
  %289 = getelementptr inbounds %"class.altered_carbon::js::JsVariant", %"class.altered_carbon::js::JsVariant"* %30, i32 0, i32 2
  %290 = bitcast %union.anon* %289 to %"class.altered_carbon::js::RefCountedPtr"*
  %291 = call dereferenceable(8) %"class.altered_carbon::js::RefCountedPtr"* @_ZN14altered_carbon2js13RefCountedPtrINSt3__112basic_stringIwNS2_11char_traitsIwEENS2_9allocatorIwEEEEEaSERKS9_(%"class.altered_carbon::js::RefCountedPtr"* %290, %"class.altered_carbon::js::RefCountedPtr"* dereferenceable(8) bitcast (%union.anon* getelementptr inbounds (%"class.altered_carbon::js::JsVariant", %"class.altered_carbon::js::JsVariant"* @_ZN14altered_carbon2js11JsConstants7NullStrE, i32 0, i32 2) to %"class.altered_carbon::js::RefCountedPtr"*))
  br label %327

; <label>:292:                                    ; preds = %279
  %293 = getelementptr inbounds %"class.altered_carbon::js::JsVariant", %"class.altered_carbon::js::JsVariant"* %30, i32 0, i32 1
  store i32 10, i32* %293, align 8
  %294 = getelementptr inbounds %"class.altered_carbon::js::JsVariant", %"class.altered_carbon::js::JsVariant"* %30, i32 0, i32 2
  %295 = bitcast %union.anon* %294 to i8*
  %296 = load i8, i8* %295, align 8
  %297 = trunc i8 %296 to i1
  br i1 %297, label %298, label %299

; <label>:298:                                    ; preds = %292
  br label %300

; <label>:299:                                    ; preds = %292
  br label %300

; <label>:300:                                    ; preds = %299, %298
  %301 = phi %"class.altered_carbon::js::RefCountedPtr"* [ bitcast (%union.anon* getelementptr inbounds (%"class.altered_carbon::js::JsVariant", %"class.altered_carbon::js::JsVariant"* @_ZN14altered_carbon2js11JsConstants7TrueStrE, i32 0, i32 2) to %"class.altered_carbon::js::RefCountedPtr"*), %298 ], [ bitcast (%union.anon* getelementptr inbounds (%"class.altered_carbon::js::JsVariant", %"class.altered_carbon::js::JsVariant"* @_ZN14altered_carbon2js11JsConstants8FalseStrE, i32 0, i32 2) to %"class.altered_carbon::js::RefCountedPtr"*), %299 ]
  %302 = getelementptr inbounds %"class.altered_carbon::js::JsVariant", %"class.altered_carbon::js::JsVariant"* %30, i32 0, i32 2
  %303 = bitcast %union.anon* %302 to %"class.altered_carbon::js::RefCountedPtr"*
  %304 = call dereferenceable(8) %"class.altered_carbon::js::RefCountedPtr"* @_ZN14altered_carbon2js13RefCountedPtrINSt3__112basic_stringIwNS2_11char_traitsIwEENS2_9allocatorIwEEEEEaSERKS9_(%"class.altered_carbon::js::RefCountedPtr"* %303, %"class.altered_carbon::js::RefCountedPtr"* dereferenceable(8) %301)
  br label %327

; <label>:305:                                    ; preds = %279
  call void @__assert_rtn(i8* getelementptr inbounds ([5 x i8], [5 x i8]* @__func__._ZN14altered_carbon2js9JsVariant4convEi, i32 0, i32 0), i8* getelementptr inbounds ([19 x i8], [19 x i8]* @.str.1, i32 0, i32 0), i32 354, i8* getelementptr inbounds ([6 x i8], [6 x i8]* @.str.5, i32 0, i32 0)) #14
  unreachable

; <label>:306:                                    ; preds = %279, %279, %279
  br label %307

; <label>:307:                                    ; preds = %306
  %308 = getelementptr inbounds %"class.altered_carbon::js::JsVariant", %"class.altered_carbon::js::JsVariant"* %30, i32 0, i32 1
  %309 = load i32, i32* %308, align 8
  %310 = icmp sge i32 %309, 10
  br i1 %310, label %314, label %311

; <label>:311:                                    ; preds = %307
  %312 = load i32, i32* %28, align 4
  %313 = icmp sge i32 %312, 10
  br i1 %313, label %314, label %322

; <label>:314:                                    ; preds = %311, %307
  %315 = getelementptr inbounds %"class.altered_carbon::js::JsVariant", %"class.altered_carbon::js::JsVariant"* %30, i32 0, i32 1
  %316 = load i32, i32* %315, align 8
  %317 = load i32, i32* %28, align 4
  %318 = icmp ne i32 %316, %317
  br i1 %318, label %319, label %322

; <label>:319:                                    ; preds = %314
  %320 = load i32, i32* %28, align 4
  %321 = call zeroext i1 @_ZN14altered_carbon2js9JsVariant11freePayloadEi(%"class.altered_carbon::js::JsVariant"* %30, i32 %320)
  br label %322

; <label>:322:                                    ; preds = %319, %314, %311
  %323 = load i32, i32* %28, align 4
  %324 = getelementptr inbounds %"class.altered_carbon::js::JsVariant", %"class.altered_carbon::js::JsVariant"* %30, i32 0, i32 1
  store i32 %323, i32* %324, align 8
  br label %325

; <label>:325:                                    ; preds = %322
  call void @__assert_rtn(i8* getelementptr inbounds ([5 x i8], [5 x i8]* @__func__._ZN14altered_carbon2js9JsVariant4convEi, i32 0, i32 0), i8* getelementptr inbounds ([19 x i8], [19 x i8]* @.str.1, i32 0, i32 0), i32 360, i8* getelementptr inbounds ([32 x i8], [32 x i8]* @.str.29, i32 0, i32 0)) #14
  unreachable

; <label>:326:                                    ; preds = %279
  call void @__assert_rtn(i8* getelementptr inbounds ([5 x i8], [5 x i8]* @__func__._ZN14altered_carbon2js9JsVariant4convEi, i32 0, i32 0), i8* getelementptr inbounds ([19 x i8], [19 x i8]* @.str.1, i32 0, i32 0), i32 364, i8* getelementptr inbounds ([6 x i8], [6 x i8]* @.str.5, i32 0, i32 0)) #14
  unreachable

; <label>:327:                                    ; preds = %300, %287, %282
  br label %329

; <label>:328:                                    ; preds = %36
  call void @__assert_rtn(i8* getelementptr inbounds ([5 x i8], [5 x i8]* @__func__._ZN14altered_carbon2js9JsVariant4convEi, i32 0, i32 0), i8* getelementptr inbounds ([19 x i8], [19 x i8]* @.str.1, i32 0, i32 0), i32 369, i8* getelementptr inbounds ([34 x i8], [34 x i8]* @.str.27, i32 0, i32 0)) #14
  unreachable

; <label>:329:                                    ; preds = %327, %278, %175
  store %"class.altered_carbon::js::JsVariant"* %30, %"class.altered_carbon::js::JsVariant"** %26, align 8
  br label %330

; <label>:330:                                    ; preds = %329, %35
  %331 = load %"class.altered_carbon::js::JsVariant"*, %"class.altered_carbon::js::JsVariant"** %26, align 8
  ret %"class.altered_carbon::js::JsVariant"* %331
}

; Function Attrs: noinline nounwind optnone ssp uwtable
define void @_ZN14altered_carbon2js9JsVariantC1ERKS1_NS1_13JsVariantTypeE(%"class.altered_carbon::js::JsVariant"*, %"class.altered_carbon::js::JsVariant"* dereferenceable(56), i32) unnamed_addr #0 align 2 {
  %4 = alloca %"class.altered_carbon::js::JsVariant"*, align 8
  %5 = alloca %"class.altered_carbon::js::JsVariant"*, align 8
  %6 = alloca i32, align 4
  store %"class.altered_carbon::js::JsVariant"* %0, %"class.altered_carbon::js::JsVariant"** %4, align 8
  store %"class.altered_carbon::js::JsVariant"* %1, %"class.altered_carbon::js::JsVariant"** %5, align 8
  store i32 %2, i32* %6, align 4
  %7 = load %"class.altered_carbon::js::JsVariant"*, %"class.altered_carbon::js::JsVariant"** %4, align 8
  %8 = load %"class.altered_carbon::js::JsVariant"*, %"class.altered_carbon::js::JsVariant"** %5, align 8
  %9 = load i32, i32* %6, align 4
  call void @_ZN14altered_carbon2js9JsVariantC2ERKS1_NS1_13JsVariantTypeE(%"class.altered_carbon::js::JsVariant"* %7, %"class.altered_carbon::js::JsVariant"* dereferenceable(56) %8, i32 %9)
  ret void
}

; Function Attrs: noinline nounwind optnone ssp uwtable
define void @_ZN14altered_carbon2js9JsVariantC2ENS1_13JsVariantTypeEPKc(%"class.altered_carbon::js::JsVariant"*, i32, i8*) unnamed_addr #0 align 2 {
  %4 = alloca %"class.altered_carbon::js::JsVariant"*, align 8
  %5 = alloca i32, align 4
  %6 = alloca i8*, align 8
  store %"class.altered_carbon::js::JsVariant"* %0, %"class.altered_carbon::js::JsVariant"** %4, align 8
  store i32 %1, i32* %5, align 4
  store i8* %2, i8** %6, align 8
  %7 = load %"class.altered_carbon::js::JsVariant"*, %"class.altered_carbon::js::JsVariant"** %4, align 8
  %8 = bitcast %"class.altered_carbon::js::JsVariant"* %7 to i32 (...)***
  store i32 (...)** bitcast (i8** getelementptr inbounds ({ [4 x i8*] }, { [4 x i8*] }* @_ZTVN14altered_carbon2js9JsVariantE, i32 0, inrange i32 0, i32 2) to i32 (...)**), i32 (...)*** %8, align 8
  %9 = getelementptr inbounds %"class.altered_carbon::js::JsVariant", %"class.altered_carbon::js::JsVariant"* %7, i32 0, i32 1
  %10 = load i32, i32* %5, align 4
  store i32 %10, i32* %9, align 8
  %11 = getelementptr inbounds %"class.altered_carbon::js::JsVariant", %"class.altered_carbon::js::JsVariant"* %7, i32 0, i32 2
  %12 = bitcast %union.anon* %11 to i8**
  %13 = load i8*, i8** %6, align 8
  store i8* %13, i8** %12, align 8
  ret void
}

; Function Attrs: noinline nounwind optnone ssp uwtable
define void @_ZN14altered_carbon2js9JsVariantC1ENS1_13JsVariantTypeEPKc(%"class.altered_carbon::js::JsVariant"*, i32, i8*) unnamed_addr #0 align 2 {
  %4 = alloca %"class.altered_carbon::js::JsVariant"*, align 8
  %5 = alloca i32, align 4
  %6 = alloca i8*, align 8
  store %"class.altered_carbon::js::JsVariant"* %0, %"class.altered_carbon::js::JsVariant"** %4, align 8
  store i32 %1, i32* %5, align 4
  store i8* %2, i8** %6, align 8
  %7 = load %"class.altered_carbon::js::JsVariant"*, %"class.altered_carbon::js::JsVariant"** %4, align 8
  %8 = load i32, i32* %5, align 4
  %9 = load i8*, i8** %6, align 8
  call void @_ZN14altered_carbon2js9JsVariantC2ENS1_13JsVariantTypeEPKc(%"class.altered_carbon::js::JsVariant"* %7, i32 %8, i8* %9)
  ret void
}

; Function Attrs: noinline nounwind optnone ssp uwtable
define void @_ZN14altered_carbon2js9JsVariantD2Ev(%"class.altered_carbon::js::JsVariant"*) unnamed_addr #0 align 2 {
  %2 = alloca %"class.altered_carbon::js::JsVariant"*, align 8
  store %"class.altered_carbon::js::JsVariant"* %0, %"class.altered_carbon::js::JsVariant"** %2, align 8
  %3 = load %"class.altered_carbon::js::JsVariant"*, %"class.altered_carbon::js::JsVariant"** %2, align 8
  %4 = bitcast %"class.altered_carbon::js::JsVariant"* %3 to i32 (...)***
  store i32 (...)** bitcast (i8** getelementptr inbounds ({ [4 x i8*] }, { [4 x i8*] }* @_ZTVN14altered_carbon2js9JsVariantE, i32 0, inrange i32 0, i32 2) to i32 (...)**), i32 (...)*** %4, align 8
  br label %5

; <label>:5:                                      ; preds = %1
  %6 = getelementptr inbounds %"class.altered_carbon::js::JsVariant", %"class.altered_carbon::js::JsVariant"* %3, i32 0, i32 1
  %7 = load i32, i32* %6, align 8
  %8 = icmp sge i32 %7, 10
  br i1 %8, label %9, label %15

; <label>:9:                                      ; preds = %5
  %10 = getelementptr inbounds %"class.altered_carbon::js::JsVariant", %"class.altered_carbon::js::JsVariant"* %3, i32 0, i32 1
  %11 = load i32, i32* %10, align 8
  %12 = icmp ne i32 %11, -2
  br i1 %12, label %13, label %15

; <label>:13:                                     ; preds = %9
  %14 = call zeroext i1 @_ZN14altered_carbon2js9JsVariant11freePayloadEi(%"class.altered_carbon::js::JsVariant"* %3, i32 -2)
  br label %15

; <label>:15:                                     ; preds = %13, %9, %5
  %16 = getelementptr inbounds %"class.altered_carbon::js::JsVariant", %"class.altered_carbon::js::JsVariant"* %3, i32 0, i32 1
  store i32 -2, i32* %16, align 8
  br label %17

; <label>:17:                                     ; preds = %15
  ret void
}

; Function Attrs: noinline nounwind optnone ssp uwtable
define zeroext i1 @_ZN14altered_carbon2js9JsVariant11freePayloadEi(%"class.altered_carbon::js::JsVariant"*, i32) #0 align 2 {
  %3 = alloca %"struct.std::__1::__compressed_pair_elem.31"*, align 8
  %4 = alloca %"class.std::__1::__compressed_pair.29"*, align 8
  %5 = alloca %"struct.std::__1::__compressed_pair_elem.30"*, align 8
  %6 = alloca %"class.std::__1::__compressed_pair.29"*, align 8
  %7 = alloca %"struct.std::__1::default_delete"*, align 8
  %8 = alloca %"class.altered_carbon::js::RefCounted"*, align 8
  %9 = alloca %"struct.std::__1::__compressed_pair_elem.30"*, align 8
  %10 = alloca %"class.std::__1::__compressed_pair.29"*, align 8
  %11 = alloca %"class.std::__1::unique_ptr"*, align 8
  %12 = alloca %"class.altered_carbon::js::RefCounted"*, align 8
  %13 = alloca %"class.altered_carbon::js::RefCounted"*, align 8
  %14 = alloca %"class.std::__1::unique_ptr"*, align 8
  %15 = alloca %"class.std::__1::unique_ptr"*, align 8
  %16 = alloca %"struct.std::__1::__compressed_pair_elem.30"*, align 8
  %17 = alloca %"class.std::__1::__compressed_pair.29"*, align 8
  %18 = alloca %"struct.std::__1::__compressed_pair_elem.30"*, align 8
  %19 = alloca %"class.std::__1::__compressed_pair.29"*, align 8
  %20 = alloca %"class.std::__1::unique_ptr"*, align 8
  %21 = alloca %"class.altered_carbon::js::RefCounted"*, align 8
  %22 = alloca %"class.altered_carbon::js::JsVariant"*, align 8
  %23 = alloca i32, align 4
  %24 = alloca %"class.std::__1::unique_ptr", align 8
  store %"class.altered_carbon::js::JsVariant"* %0, %"class.altered_carbon::js::JsVariant"** %22, align 8
  store i32 %1, i32* %23, align 4
  %25 = load %"class.altered_carbon::js::JsVariant"*, %"class.altered_carbon::js::JsVariant"** %22, align 8
  %26 = getelementptr inbounds %"class.altered_carbon::js::JsVariant", %"class.altered_carbon::js::JsVariant"* %25, i32 0, i32 1
  %27 = load i32, i32* %26, align 8
  switch i32 %27, label %43 [
    i32 10, label %28
    i32 15, label %31
    i32 11, label %34
    i32 12, label %37
    i32 16, label %40
  ]

; <label>:28:                                     ; preds = %2
  %29 = getelementptr inbounds %"class.altered_carbon::js::JsVariant", %"class.altered_carbon::js::JsVariant"* %25, i32 0, i32 2
  %30 = bitcast %union.anon* %29 to %"class.altered_carbon::js::RefCountedPtr"*
  call void @_ZN14altered_carbon2js13RefCountedPtrINSt3__112basic_stringIwNS2_11char_traitsIwEENS2_9allocatorIwEEEEE5resetEb(%"class.altered_carbon::js::RefCountedPtr"* %30, i1 zeroext false)
  br label %44

; <label>:31:                                     ; preds = %2
  %32 = getelementptr inbounds %"class.altered_carbon::js::JsVariant", %"class.altered_carbon::js::JsVariant"* %25, i32 0, i32 2
  %33 = bitcast %union.anon* %32 to %"struct.altered_carbon::js::JsVariantFunc"*
  call void @_ZN14altered_carbon2js13JsVariantFunc5resetEb(%"struct.altered_carbon::js::JsVariantFunc"* %33, i1 zeroext false)
  br label %44

; <label>:34:                                     ; preds = %2
  %35 = getelementptr inbounds %"class.altered_carbon::js::JsVariant", %"class.altered_carbon::js::JsVariant"* %25, i32 0, i32 2
  %36 = bitcast %union.anon* %35 to %"class.altered_carbon::js::RefCountedPtr.12"*
  call void @_ZN14altered_carbon2js13RefCountedPtrINS0_15JsVariantObjectEE5resetEb(%"class.altered_carbon::js::RefCountedPtr.12"* %36, i1 zeroext false)
  br label %44

; <label>:37:                                     ; preds = %2
  %38 = getelementptr inbounds %"class.altered_carbon::js::JsVariant", %"class.altered_carbon::js::JsVariant"* %25, i32 0, i32 2
  %39 = bitcast %union.anon* %38 to %"class.altered_carbon::js::RefCountedPtr.22"*
  call void @_ZN14altered_carbon2js13RefCountedPtrINS0_14JsVariantArrayEE5resetEb(%"class.altered_carbon::js::RefCountedPtr.22"* %39, i1 zeroext false)
  br label %44

; <label>:40:                                     ; preds = %2
  %41 = getelementptr inbounds %"class.altered_carbon::js::JsVariant", %"class.altered_carbon::js::JsVariant"* %25, i32 0, i32 2
  %42 = bitcast %union.anon* %41 to %"struct.altered_carbon::js::JsVariantIterator"*
  call void @_ZN14altered_carbon2js17JsVariantIterator5resetEb(%"struct.altered_carbon::js::JsVariantIterator"* %42, i1 zeroext false)
  br label %44

; <label>:43:                                     ; preds = %2
  br label %44

; <label>:44:                                     ; preds = %43, %40, %37, %34, %31, %28
  %45 = load i32, i32* %23, align 4
  switch i32 %45, label %105 [
    i32 10, label %46
    i32 15, label %93
    i32 13, label %96
    i32 11, label %96
    i32 14, label %99
    i32 12, label %99
    i32 16, label %102
  ]

; <label>:46:                                     ; preds = %44
  %47 = getelementptr inbounds %"class.altered_carbon::js::JsVariant", %"class.altered_carbon::js::JsVariant"* %25, i32 0, i32 2
  %48 = bitcast %union.anon* %47 to %"class.altered_carbon::js::RefCountedPtr"*
  call void @_ZN4llvm11make_uniqueIN14altered_carbon2js10RefCountedINSt3__112basic_stringIwNS4_11char_traitsIwEENS4_9allocatorIwEEEEEEJRA1_KwEEENS4_9enable_ifIXntsr3std8is_arrayIT_EE5valueENS4_10unique_ptrISG_NS4_14default_deleteISG_EEEEE4typeEDpOT0_(%"class.std::__1::unique_ptr"* sret %24, [1 x i32]* dereferenceable(4) @.str)
  store %"class.std::__1::unique_ptr"* %24, %"class.std::__1::unique_ptr"** %20, align 8
  %49 = load %"class.std::__1::unique_ptr"*, %"class.std::__1::unique_ptr"** %20, align 8
  %50 = getelementptr inbounds %"class.std::__1::unique_ptr", %"class.std::__1::unique_ptr"* %49, i32 0, i32 0
  store %"class.std::__1::__compressed_pair.29"* %50, %"class.std::__1::__compressed_pair.29"** %19, align 8
  %51 = load %"class.std::__1::__compressed_pair.29"*, %"class.std::__1::__compressed_pair.29"** %19, align 8
  %52 = bitcast %"class.std::__1::__compressed_pair.29"* %51 to %"struct.std::__1::__compressed_pair_elem.30"*
  store %"struct.std::__1::__compressed_pair_elem.30"* %52, %"struct.std::__1::__compressed_pair_elem.30"** %18, align 8
  %53 = load %"struct.std::__1::__compressed_pair_elem.30"*, %"struct.std::__1::__compressed_pair_elem.30"** %18, align 8
  %54 = getelementptr inbounds %"struct.std::__1::__compressed_pair_elem.30", %"struct.std::__1::__compressed_pair_elem.30"* %53, i32 0, i32 0
  %55 = load %"class.altered_carbon::js::RefCounted"*, %"class.altered_carbon::js::RefCounted"** %54, align 8
  store %"class.altered_carbon::js::RefCounted"* %55, %"class.altered_carbon::js::RefCounted"** %21, align 8
  %56 = getelementptr inbounds %"class.std::__1::unique_ptr", %"class.std::__1::unique_ptr"* %49, i32 0, i32 0
  store %"class.std::__1::__compressed_pair.29"* %56, %"class.std::__1::__compressed_pair.29"** %17, align 8
  %57 = load %"class.std::__1::__compressed_pair.29"*, %"class.std::__1::__compressed_pair.29"** %17, align 8
  %58 = bitcast %"class.std::__1::__compressed_pair.29"* %57 to %"struct.std::__1::__compressed_pair_elem.30"*
  store %"struct.std::__1::__compressed_pair_elem.30"* %58, %"struct.std::__1::__compressed_pair_elem.30"** %16, align 8
  %59 = load %"struct.std::__1::__compressed_pair_elem.30"*, %"struct.std::__1::__compressed_pair_elem.30"** %16, align 8
