; ModuleID = 'temp.bc'
source_filename = "ac_vm_jsvalue_var.cc"
target datalayout = "e-m:o-i64:64-f80:128-n8:16:32:64-S128"
target triple = "x86_64-apple-macosx10.13.0"

%"class.altered_carbon::js::JsValueVar" = type { i32 (...)**, i32, %union.anon }
%union.anon = type { %"class.altered_carbon::js::ACLexNumber", [16 x i8] }
%"class.altered_carbon::js::ACLexNumber" = type { i32 (...)**, i8, %union.anon.1 }
%union.anon.1 = type { double }

@_ZTVN14altered_carbon2js10JsValueVarE = linkonce_odr unnamed_addr constant { [4 x i8*] } { [4 x i8*] [i8* null, i8* bitcast ({ i8*, i8* }* @_ZTIN14altered_carbon2js10JsValueVarE to i8*), i8* bitcast (void (%"class.altered_carbon::js::JsValueVar"*)* @_ZN14altered_carbon2js10JsValueVarD1Ev to i8*), i8* bitcast (void (%"class.altered_carbon::js::JsValueVar"*)* @_ZN14altered_carbon2js10JsValueVarD0Ev to i8*)] }, align 8
@_ZTVN10__cxxabiv117__class_type_infoE = external global i8*
@_ZTSN14altered_carbon2js10JsValueVarE = linkonce_odr constant [34 x i8] c"N14altered_carbon2js10JsValueVarE\00"
@_ZTIN14altered_carbon2js10JsValueVarE = linkonce_odr constant { i8*, i8* } { i8* bitcast (i8** getelementptr inbounds (i8*, i8** @_ZTVN10__cxxabiv117__class_type_infoE, i64 2) to i8*), i8* getelementptr inbounds ([34 x i8], [34 x i8]* @_ZTSN14altered_carbon2js10JsValueVarE, i32 0, i32 0) }

; Function Attrs: noinline nounwind optnone ssp uwtable
define void @_ZN14altered_carbon2js10JsValueVarC2Ev(%"class.altered_carbon::js::JsValueVar"*) unnamed_addr #0 align 2 !dbg !4168 {
  %2 = alloca %"class.altered_carbon::js::JsValueVar"*, align 8
  store %"class.altered_carbon::js::JsValueVar"* %0, %"class.altered_carbon::js::JsValueVar"** %2, align 8
  call void @llvm.dbg.declare(metadata %"class.altered_carbon::js::JsValueVar"** %2, metadata !4169, metadata !DIExpression()), !dbg !4171
  %3 = load %"class.altered_carbon::js::JsValueVar"*, %"class.altered_carbon::js::JsValueVar"** %2, align 8
  %4 = bitcast %"class.altered_carbon::js::JsValueVar"* %3 to i32 (...)***, !dbg !4172
  store i32 (...)** bitcast (i8** getelementptr inbounds ({ [4 x i8*] }, { [4 x i8*] }* @_ZTVN14altered_carbon2js10JsValueVarE, i32 0, inrange i32 0, i32 2) to i32 (...)**), i32 (...)*** %4, align 8, !dbg !4172
  %5 = getelementptr inbounds %"class.altered_carbon::js::JsValueVar", %"class.altered_carbon::js::JsValueVar"* %3, i32 0, i32 1, !dbg !4173
  store i32 0, i32* %5, align 8, !dbg !4173
  %6 = getelementptr inbounds %"class.altered_carbon::js::JsValueVar", %"class.altered_carbon::js::JsValueVar"* %3, i32 0, i32 2, !dbg !4174
  %7 = bitcast %union.anon* %6 to %"class.altered_carbon::js::ACLexNumber"*, !dbg !4174
  call void @_ZN14altered_carbon2js11ACLexNumberC1Ex(%"class.altered_carbon::js::ACLexNumber"* %7, i64 0), !dbg !4174
  ret void, !dbg !4175
}

; Function Attrs: nounwind readnone speculatable
declare void @llvm.dbg.declare(metadata, metadata, metadata) #1

declare void @_ZN14altered_carbon2js11ACLexNumberC1Ex(%"class.altered_carbon::js::ACLexNumber"*, i64) unnamed_addr #2

; Function Attrs: noinline nounwind optnone ssp uwtable
define void @_ZN14altered_carbon2js10JsValueVarC1Ev(%"class.altered_carbon::js::JsValueVar"*) unnamed_addr #0 align 2 !dbg !4176 {
  %2 = alloca %"class.altered_carbon::js::JsValueVar"*, align 8
  store %"class.altered_carbon::js::JsValueVar"* %0, %"class.altered_carbon::js::JsValueVar"** %2, align 8
  call void @llvm.dbg.declare(metadata %"class.altered_carbon::js::JsValueVar"** %2, metadata !4177, metadata !DIExpression()), !dbg !4178
  %3 = load %"class.altered_carbon::js::JsValueVar"*, %"class.altered_carbon::js::JsValueVar"** %2, align 8
  call void @_ZN14altered_carbon2js10JsValueVarC2Ev(%"class.altered_carbon::js::JsValueVar"* %3), !dbg !4179
  ret void, !dbg !4180
}

; Function Attrs: noinline nounwind optnone ssp uwtable
define linkonce_odr hidden void @_ZN14altered_carbon2js10JsValueVarD1Ev(%"class.altered_carbon::js::JsValueVar"*) unnamed_addr #0 align 2 !dbg !4181 {
  %2 = alloca %"class.altered_carbon::js::JsValueVar"*, align 8
  store %"class.altered_carbon::js::JsValueVar"* %0, %"class.altered_carbon::js::JsValueVar"** %2, align 8
  call void @llvm.dbg.declare(metadata %"class.altered_carbon::js::JsValueVar"** %2, metadata !4182, metadata !DIExpression()), !dbg !4183
  %3 = load %"class.altered_carbon::js::JsValueVar"*, %"class.altered_carbon::js::JsValueVar"** %2, align 8
  call void @_ZN14altered_carbon2js10JsValueVarD2Ev(%"class.altered_carbon::js::JsValueVar"* %3) #4, !dbg !4184
  ret void, !dbg !4185
}

; Function Attrs: noinline nounwind optnone ssp uwtable
define linkonce_odr hidden void @_ZN14altered_carbon2js10JsValueVarD0Ev(%"class.altered_carbon::js::JsValueVar"*) unnamed_addr #0 align 2 !dbg !4186 {
  %2 = alloca %"class.altered_carbon::js::JsValueVar"*, align 8
  store %"class.altered_carbon::js::JsValueVar"* %0, %"class.altered_carbon::js::JsValueVar"** %2, align 8
  call void @llvm.dbg.declare(metadata %"class.altered_carbon::js::JsValueVar"** %2, metadata !4187, metadata !DIExpression()), !dbg !4188
  %3 = load %"class.altered_carbon::js::JsValueVar"*, %"class.altered_carbon::js::JsValueVar"** %2, align 8
  call void @_ZN14altered_carbon2js10JsValueVarD1Ev(%"class.altered_carbon::js::JsValueVar"* %3) #4, !dbg !4189
  %4 = bitcast %"class.altered_carbon::js::JsValueVar"* %3 to i8*, !dbg !4189
  call void @_ZdlPv(i8* %4) #5, !dbg !4189
  ret void, !dbg !4190
}

; Function Attrs: noinline nounwind optnone ssp uwtable
define linkonce_odr hidden void @_ZN14altered_carbon2js10JsValueVarD2Ev(%"class.altered_carbon::js::JsValueVar"*) unnamed_addr #0 align 2 !dbg !4191 {
  %2 = alloca %"class.altered_carbon::js::JsValueVar"*, align 8
  store %"class.altered_carbon::js::JsValueVar"* %0, %"class.altered_carbon::js::JsValueVar"** %2, align 8
  call void @llvm.dbg.declare(metadata %"class.altered_carbon::js::JsValueVar"** %2, metadata !4192, metadata !DIExpression()), !dbg !4193
  %3 = load %"class.altered_carbon::js::JsValueVar"*, %"class.altered_carbon::js::JsValueVar"** %2, align 8
  %4 = bitcast %"class.altered_carbon::js::JsValueVar"* %3 to i32 (...)***, !dbg !4194
  store i32 (...)** bitcast (i8** getelementptr inbounds ({ [4 x i8*] }, { [4 x i8*] }* @_ZTVN14altered_carbon2js10JsValueVarE, i32 0, inrange i32 0, i32 2) to i32 (...)**), i32 (...)*** %4, align 8, !dbg !4194
  ret void, !dbg !4195
}

; Function Attrs: nobuiltin nounwind
declare void @_ZdlPv(i8*) #3

attributes #0 = { noinline nounwind optnone ssp uwtable "correctly-rounded-divide-sqrt-fp-math"="false" "disable-tail-calls"="false" "less-precise-fpmad"="false" "no-frame-pointer-elim"="true" "no-frame-pointer-elim-non-leaf" "no-infs-fp-math"="false" "no-jump-tables"="false" "no-nans-fp-math"="false" "no-signed-zeros-fp-math"="false" "no-trapping-math"="false" "stack-protector-buffer-size"="8" "target-cpu"="penryn" "target-features"="+cx16,+fxsr,+mmx,+sse,+sse2,+sse3,+sse4.1,+ssse3,+x87" "unsafe-fp-math"="false" "use-soft-float"="false" }
attributes #1 = { nounwind readnone speculatable }
attributes #2 = { "correctly-rounded-divide-sqrt-fp-math"="false" "disable-tail-calls"="false" "less-precise-fpmad"="false" "no-frame-pointer-elim"="true" "no-frame-pointer-elim-non-leaf" "no-infs-fp-math"="false" "no-nans-fp-math"="false" "no-signed-zeros-fp-math"="false" "no-trapping-math"="false" "stack-protector-buffer-size"="8" "target-cpu"="penryn" "target-features"="+cx16,+fxsr,+mmx,+sse,+sse2,+sse3,+sse4.1,+ssse3,+x87" "unsafe-fp-math"="false" "use-soft-float"="false" }
attributes #3 = { nobuiltin nounwind "correctly-rounded-divide-sqrt-fp-math"="false" "disable-tail-calls"="false" "less-precise-fpmad"="false" "no-frame-pointer-elim"="true" "no-frame-pointer-elim-non-leaf" "no-infs-fp-math"="false" "no-nans-fp-math"="false" "no-signed-zeros-fp-math"="false" "no-trapping-math"="false" "stack-protector-buffer-size"="8" "target-cpu"="penryn" "target-features"="+cx16,+fxsr,+mmx,+sse,+sse2,+sse3,+sse4.1,+ssse3,+x87" "unsafe-fp-math"="false" "use-soft-float"="false" }
attributes #4 = { nounwind }
attributes #5 = { builtin nounwind }

!llvm.dbg.cu = !{!0}
!llvm.module.flags = !{!4163, !4164, !4165, !4166}
!llvm.ident = !{!4167}

!0 = distinct !DICompileUnit(language: DW_LANG_C_plus_plus, file: !1, producer: "Apple LLVM version 9.1.0 (clang-902.0.39.2)", isOptimized: false, runtimeVersion: 0, emissionKind: FullDebug, enums: !2, retainedTypes: !2955, imports: !2956)
!1 = !DIFile(filename: "ac_vm_jsvalue_var.cc", directory: "/Users/ejiang/Projects/lls/ac")
!2 = !{!3, !33, !132, !1359, !2928}
!3 = !DICompositeType(tag: DW_TAG_enumeration_type, name: "JsValueVarType", scope: !5, file: !4, line: 14, size: 32, elements: !2945, identifier: "_ZTSN14altered_carbon2js10JsValueVar14JsValueVarTypeE")
!4 = !DIFile(filename: "./ac_vm_jsvalue_var.h", directory: "/Users/ejiang/Projects/lls/ac")
!5 = distinct !DICompositeType(tag: DW_TAG_class_type, name: "JsValueVar", scope: !6, file: !4, line: 12, size: 448, elements: !8, vtableHolder: !5, identifier: "_ZTSN14altered_carbon2js10JsValueVarE")
!6 = !DINamespace(name: "js", scope: !7)
!7 = !DINamespace(name: "altered_carbon", scope: null)
!8 = !{!9, !15, !16, !2940, !2944}
!9 = !DIDerivedType(tag: DW_TAG_member, name: "_vptr$JsValueVar", scope: !4, file: !4, baseType: !10, size: 64, flags: DIFlagArtificial)
!10 = !DIDerivedType(tag: DW_TAG_pointer_type, baseType: !11, size: 64)
!11 = !DIDerivedType(tag: DW_TAG_pointer_type, name: "__vtbl_ptr_type", baseType: !12, size: 64)
!12 = !DISubroutineType(types: !13)
!13 = !{!14}
!14 = !DIBasicType(name: "int", size: 32, encoding: DW_ATE_signed)
!15 = !DIDerivedType(tag: DW_TAG_member, name: "type_", scope: !5, file: !4, line: 26, baseType: !3, size: 32, offset: 64)
!16 = !DIDerivedType(tag: DW_TAG_member, scope: !5, file: !4, line: 27, baseType: !17, size: 320, offset: 128)
!17 = distinct !DICompositeType(tag: DW_TAG_union_type, scope: !5, file: !4, line: 27, size: 320, elements: !18, identifier: "_ZTSN14altered_carbon2js10JsValueVarUt_E")
!18 = !{!19, !1803, !1942, !1980, !2060, !2061, !2896, !2917}
!19 = !DIDerivedType(tag: DW_TAG_member, name: "object_ref_", scope: !17, file: !4, line: 28, baseType: !20, size: 128)
!20 = distinct !DICompositeType(tag: DW_TAG_class_type, name: "shared_ptr<altered_carbon::js::ACJsValue>", scope: !22, file: !21, line: 3640, size: 128, elements: !24, templateParams: !1784, identifier: "_ZTSNSt3__110shared_ptrIN14altered_carbon2js9ACJsValueEEE")
!21 = !DIFile(filename: "/Applications/Xcode.app/Contents/Developer/Toolchains/XcodeDefault.xctoolchain/usr/include/c++/v1/memory", directory: "/Users/ejiang/Projects/lls/ac")
!22 = !DINamespace(name: "__1", scope: !23, exportSymbols: true)
!23 = !DINamespace(name: "std", scope: null)
!24 = !{!25, !1682, !1744, !1748, !1754, !1759, !1763, !1764, !1768, !1771, !1774, !1775, !1779, !1789, !1790, !1793, !1796, !1797, !1800}
!25 = !DIDerivedType(tag: DW_TAG_member, name: "__ptr_", scope: !20, file: !21, line: 3649, baseType: !26, size: 64)
!26 = !DIDerivedType(tag: DW_TAG_pointer_type, baseType: !27, size: 64)
!27 = !DIDerivedType(tag: DW_TAG_typedef, name: "element_type", scope: !20, file: !21, line: 3643, baseType: !28)
!28 = distinct !DICompositeType(tag: DW_TAG_class_type, name: "ACJsValue", scope: !6, file: !29, line: 74, size: 128, elements: !30, vtableHolder: !28, identifier: "_ZTSN14altered_carbon2js9ACJsValueE")
!29 = !DIFile(filename: "./ac_vm_jsvalue.h", directory: "/Users/ejiang/Projects/lls/ac")
!30 = !{!31, !32, !51, !56, !59, !1602, !1605, !1606, !1611, !1612, !1613, !1614, !1615, !1616, !1617, !1618, !1619, !1620, !1623, !1624, !1625, !1626, !1627, !1628, !1629, !1630, !1631, !1632, !1635, !1636, !1637, !1638, !1639, !1640, !1641, !1642, !1643, !1644, !1647, !1648, !1651, !1652, !1653, !1656, !1657, !1661, !1662, !1663, !1664, !1665, !1666, !1667, !1668, !1669, !1670, !1671, !1672, !1673, !1674, !1675, !1676, !1677, !1678, !1679}
!31 = !DIDerivedType(tag: DW_TAG_member, name: "_vptr$ACJsValue", scope: !29, file: !29, baseType: !10, size: 64, flags: DIFlagArtificial)
!32 = !DIDerivedType(tag: DW_TAG_member, name: "type_", scope: !28, file: !29, line: 96, baseType: !33, size: 32, offset: 64, flags: DIFlagProtected)
!33 = !DICompositeType(tag: DW_TAG_enumeration_type, name: "JsValueType", scope: !28, file: !29, line: 76, size: 32, elements: !34, identifier: "_ZTSN14altered_carbon2js9ACJsValue11JsValueTypeE")
!34 = !{!35, !36, !37, !38, !39, !40, !41, !42, !43, !44, !45, !46, !47, !48, !49, !50}
!35 = !DIEnumerator(name: "JS_VALUE_ERROR", value: -2)
!36 = !DIEnumerator(name: "JS_UNDEFINED", value: -1)
!37 = !DIEnumerator(name: "JS_NULL", value: 0)
!38 = !DIEnumerator(name: "JS_BOOLEAN", value: 1)
!39 = !DIEnumerator(name: "JS_NUMBER", value: 2)
!40 = !DIEnumerator(name: "JS_REGEXP", value: 3)
!41 = !DIEnumerator(name: "JS_STRING", value: 4)
!42 = !DIEnumerator(name: "JS_BOOLEAN_OBJ", value: 11)
!43 = !DIEnumerator(name: "JS_NUMBER_OBJ", value: 12)
!44 = !DIEnumerator(name: "JS_REGEXP_OBJ", value: 13)
!45 = !DIEnumerator(name: "JS_STRING_OBJ", value: 14)
!46 = !DIEnumerator(name: "JS_ARRAY", value: 20)
!47 = !DIEnumerator(name: "JS_CLASS", value: 21)
!48 = !DIEnumerator(name: "JS_FUNCTION", value: 22)
!49 = !DIEnumerator(name: "JS_PB", value: 23)
!50 = !DIEnumerator(name: "JS_XML", value: 24)
!51 = !DISubprogram(name: "ACJsValue", scope: !28, file: !29, line: 99, type: !52, isLocal: false, isDefinition: false, scopeLine: 99, flags: DIFlagPublic | DIFlagPrototyped, isOptimized: false)
!52 = !DISubroutineType(types: !53)
!53 = !{null, !54, !55}
!54 = !DIDerivedType(tag: DW_TAG_pointer_type, baseType: !28, size: 64, flags: DIFlagArtificial | DIFlagObjectPointer)
!55 = !DIDerivedType(tag: DW_TAG_const_type, baseType: !33)
!56 = !DISubprogram(name: "~ACJsValue", scope: !28, file: !29, line: 100, type: !57, isLocal: false, isDefinition: false, scopeLine: 100, containingType: !28, virtuality: DW_VIRTUALITY_virtual, virtualIndex: 0, flags: DIFlagPublic | DIFlagPrototyped, isOptimized: false)
!57 = !DISubroutineType(types: !58)
!58 = !{null, !54}
!59 = !DISubprogram(name: "dump", linkageName: "_ZNK14altered_carbon2js9ACJsValue4dumpERNSt3__113basic_ostreamIcNS2_11char_traitsIcEEEE", scope: !28, file: !29, line: 101, type: !60, isLocal: false, isDefinition: false, scopeLine: 101, containingType: !28, virtuality: DW_VIRTUALITY_virtual, virtualIndex: 2, flags: DIFlagPublic | DIFlagPrototyped, isOptimized: false)
!60 = !DISubroutineType(types: !61)
!61 = !{null, !62, !64}
!62 = !DIDerivedType(tag: DW_TAG_pointer_type, baseType: !63, size: 64, flags: DIFlagArtificial | DIFlagObjectPointer)
!63 = !DIDerivedType(tag: DW_TAG_const_type, baseType: !28)
!64 = !DIDerivedType(tag: DW_TAG_reference_type, baseType: !65, size: 64)
!65 = !DIDerivedType(tag: DW_TAG_typedef, name: "ostream", scope: !22, file: !66, line: 147, baseType: !67)
!66 = !DIFile(filename: "/Applications/Xcode.app/Contents/Developer/Toolchains/XcodeDefault.xctoolchain/usr/include/c++/v1/iosfwd", directory: "/Users/ejiang/Projects/lls/ac")
!67 = distinct !DICompositeType(tag: DW_TAG_class_type, name: "basic_ostream<char, std::__1::char_traits<char> >", scope: !22, file: !68, line: 1084, size: 1280, elements: !69, vtableHolder: !67, templateParams: !679, identifier: "_ZTSNSt3__113basic_ostreamIcNS_11char_traitsIcEEEE")
!68 = !DIFile(filename: "/Applications/Xcode.app/Contents/Developer/Toolchains/XcodeDefault.xctoolchain/usr/include/c++/v1/ostream", directory: "/Users/ejiang/Projects/lls/ac")
!69 = !{!70, !1485, !1486, !1490, !1493, !1497, !1501, !1504, !1509, !1512, !1518, !1524, !1530, !1533, !1537, !1541, !1544, !1547, !1550, !1553, !1556, !1560, !1564, !1568, !1572, !1575, !1578, !1582, !1587, !1590, !1594, !1597, !1601}
!70 = !DIDerivedType(tag: DW_TAG_inheritance, scope: !67, baseType: !71, offset: 24, flags: DIFlagPublic | DIFlagVirtual)
!71 = distinct !DICompositeType(tag: DW_TAG_class_type, name: "basic_ios<char, std::__1::char_traits<char> >", scope: !22, file: !72, line: 486, size: 1216, elements: !73, vtableHolder: !75, templateParams: !679, identifier: "_ZTSNSt3__19basic_iosIcNS_11char_traitsIcEEEE")
!72 = !DIFile(filename: "/Applications/Xcode.app/Contents/Developer/Toolchains/XcodeDefault.xctoolchain/usr/include/c++/v1/streambuf", directory: "/Users/ejiang/Projects/lls/ac")
!73 = !{!74, !1293, !1295, !1297, !1302, !1303, !1306, !1310, !1311, !1312, !1313, !1314, !1315, !1316, !1317, !1438, !1441, !1444, !1447, !1450, !1453, !1458, !1462, !1465, !1468, !1471, !1474, !1475, !1476, !1479, !1483, !1484}
!74 = !DIDerivedType(tag: DW_TAG_inheritance, scope: !71, baseType: !75, flags: DIFlagPublic)
!75 = distinct !DICompositeType(tag: DW_TAG_class_type, name: "ios_base", scope: !22, file: !76, line: 231, size: 1088, elements: !77, vtableHolder: !75, identifier: "_ZTSNSt3__18ios_baseE")
!76 = !DIFile(filename: "/Applications/Xcode.app/Contents/Developer/Toolchains/XcodeDefault.xctoolchain/usr/include/c++/v1/ios", directory: "/Users/ejiang/Projects/lls/ac")
!77 = !{!78, !79, !83, !84, !85, !86, !87, !88, !89, !90, !91, !92, !93, !94, !95, !96, !97, !98, !99, !100, !103, !104, !105, !106, !109, !110, !111, !112, !113, !114, !115, !120, !121, !122, !123, !125, !126, !138, !140, !143, !144, !147, !149, !150, !151, !153, !154, !155, !160, !164, !165, !168, !171, !174, !177, !178, !179, !1231, !1234, !1235, !1239, !1243, !1246, !1249, !1253, !1256, !1259, !1262, !1265, !1266, !1269, !1270, !1271, !1272, !1273, !1274, !1275, !1276, !1277, !1280, !1283, !1284, !1287, !1288, !1291, !1292}
!78 = !DIDerivedType(tag: DW_TAG_member, name: "_vptr$ios_base", scope: !76, file: !76, baseType: !10, size: 64, flags: DIFlagArtificial)
!79 = !DIDerivedType(tag: DW_TAG_member, name: "boolalpha", scope: !75, file: !76, line: 237, baseType: !80, flags: DIFlagPublic | DIFlagStaticMember, extraData: i32 1)
!80 = !DIDerivedType(tag: DW_TAG_const_type, baseType: !81)
!81 = !DIDerivedType(tag: DW_TAG_typedef, name: "fmtflags", scope: !75, file: !76, line: 236, baseType: !82)
!82 = !DIBasicType(name: "unsigned int", size: 32, encoding: DW_ATE_unsigned)
!83 = !DIDerivedType(tag: DW_TAG_member, name: "dec", scope: !75, file: !76, line: 238, baseType: !80, flags: DIFlagPublic | DIFlagStaticMember, extraData: i32 2)
!84 = !DIDerivedType(tag: DW_TAG_member, name: "fixed", scope: !75, file: !76, line: 239, baseType: !80, flags: DIFlagPublic | DIFlagStaticMember, extraData: i32 4)
!85 = !DIDerivedType(tag: DW_TAG_member, name: "hex", scope: !75, file: !76, line: 240, baseType: !80, flags: DIFlagPublic | DIFlagStaticMember, extraData: i32 8)
!86 = !DIDerivedType(tag: DW_TAG_member, name: "internal", scope: !75, file: !76, line: 241, baseType: !80, flags: DIFlagPublic | DIFlagStaticMember, extraData: i32 16)
!87 = !DIDerivedType(tag: DW_TAG_member, name: "left", scope: !75, file: !76, line: 242, baseType: !80, flags: DIFlagPublic | DIFlagStaticMember, extraData: i32 32)
!88 = !DIDerivedType(tag: DW_TAG_member, name: "oct", scope: !75, file: !76, line: 243, baseType: !80, flags: DIFlagPublic | DIFlagStaticMember, extraData: i32 64)
!89 = !DIDerivedType(tag: DW_TAG_member, name: "right", scope: !75, file: !76, line: 244, baseType: !80, flags: DIFlagPublic | DIFlagStaticMember, extraData: i32 128)
!90 = !DIDerivedType(tag: DW_TAG_member, name: "scientific", scope: !75, file: !76, line: 245, baseType: !80, flags: DIFlagPublic | DIFlagStaticMember, extraData: i32 256)
!91 = !DIDerivedType(tag: DW_TAG_member, name: "showbase", scope: !75, file: !76, line: 246, baseType: !80, flags: DIFlagPublic | DIFlagStaticMember, extraData: i32 512)
!92 = !DIDerivedType(tag: DW_TAG_member, name: "showpoint", scope: !75, file: !76, line: 247, baseType: !80, flags: DIFlagPublic | DIFlagStaticMember, extraData: i32 1024)
!93 = !DIDerivedType(tag: DW_TAG_member, name: "showpos", scope: !75, file: !76, line: 248, baseType: !80, flags: DIFlagPublic | DIFlagStaticMember, extraData: i32 2048)
!94 = !DIDerivedType(tag: DW_TAG_member, name: "skipws", scope: !75, file: !76, line: 249, baseType: !80, flags: DIFlagPublic | DIFlagStaticMember, extraData: i32 4096)
!95 = !DIDerivedType(tag: DW_TAG_member, name: "unitbuf", scope: !75, file: !76, line: 250, baseType: !80, flags: DIFlagPublic | DIFlagStaticMember, extraData: i32 8192)
!96 = !DIDerivedType(tag: DW_TAG_member, name: "uppercase", scope: !75, file: !76, line: 251, baseType: !80, flags: DIFlagPublic | DIFlagStaticMember, extraData: i32 16384)
!97 = !DIDerivedType(tag: DW_TAG_member, name: "adjustfield", scope: !75, file: !76, line: 252, baseType: !80, flags: DIFlagPublic | DIFlagStaticMember, extraData: i32 176)
!98 = !DIDerivedType(tag: DW_TAG_member, name: "basefield", scope: !75, file: !76, line: 253, baseType: !80, flags: DIFlagPublic | DIFlagStaticMember, extraData: i32 74)
!99 = !DIDerivedType(tag: DW_TAG_member, name: "floatfield", scope: !75, file: !76, line: 254, baseType: !80, flags: DIFlagPublic | DIFlagStaticMember, extraData: i32 260)
!100 = !DIDerivedType(tag: DW_TAG_member, name: "badbit", scope: !75, file: !76, line: 257, baseType: !101, flags: DIFlagPublic | DIFlagStaticMember, extraData: i32 1)
!101 = !DIDerivedType(tag: DW_TAG_const_type, baseType: !102)
!102 = !DIDerivedType(tag: DW_TAG_typedef, name: "iostate", scope: !75, file: !76, line: 256, baseType: !82)
!103 = !DIDerivedType(tag: DW_TAG_member, name: "eofbit", scope: !75, file: !76, line: 258, baseType: !101, flags: DIFlagPublic | DIFlagStaticMember, extraData: i32 2)
!104 = !DIDerivedType(tag: DW_TAG_member, name: "failbit", scope: !75, file: !76, line: 259, baseType: !101, flags: DIFlagPublic | DIFlagStaticMember, extraData: i32 4)
!105 = !DIDerivedType(tag: DW_TAG_member, name: "goodbit", scope: !75, file: !76, line: 260, baseType: !101, flags: DIFlagPublic | DIFlagStaticMember, extraData: i32 0)
!106 = !DIDerivedType(tag: DW_TAG_member, name: "app", scope: !75, file: !76, line: 263, baseType: !107, flags: DIFlagPublic | DIFlagStaticMember, extraData: i32 1)
!107 = !DIDerivedType(tag: DW_TAG_const_type, baseType: !108)
!108 = !DIDerivedType(tag: DW_TAG_typedef, name: "openmode", scope: !75, file: !76, line: 262, baseType: !82)
!109 = !DIDerivedType(tag: DW_TAG_member, name: "ate", scope: !75, file: !76, line: 264, baseType: !107, flags: DIFlagPublic | DIFlagStaticMember, extraData: i32 2)
!110 = !DIDerivedType(tag: DW_TAG_member, name: "binary", scope: !75, file: !76, line: 265, baseType: !107, flags: DIFlagPublic | DIFlagStaticMember, extraData: i32 4)
!111 = !DIDerivedType(tag: DW_TAG_member, name: "in", scope: !75, file: !76, line: 266, baseType: !107, flags: DIFlagPublic | DIFlagStaticMember, extraData: i32 8)
!112 = !DIDerivedType(tag: DW_TAG_member, name: "out", scope: !75, file: !76, line: 267, baseType: !107, flags: DIFlagPublic | DIFlagStaticMember, extraData: i32 16)
!113 = !DIDerivedType(tag: DW_TAG_member, name: "trunc", scope: !75, file: !76, line: 268, baseType: !107, flags: DIFlagPublic | DIFlagStaticMember, extraData: i32 32)
!114 = !DIDerivedType(tag: DW_TAG_member, name: "__fmtflags_", scope: !75, file: !76, line: 362, baseType: !81, size: 32, offset: 64)
!115 = !DIDerivedType(tag: DW_TAG_member, name: "__precision_", scope: !75, file: !76, line: 363, baseType: !116, size: 64, offset: 128)
!116 = !DIDerivedType(tag: DW_TAG_typedef, name: "streamsize", scope: !22, file: !76, line: 229, baseType: !117)
!117 = !DIDerivedType(tag: DW_TAG_typedef, name: "ptrdiff_t", file: !118, line: 51, baseType: !119)
!118 = !DIFile(filename: "/Applications/Xcode.app/Contents/Developer/Toolchains/XcodeDefault.xctoolchain/usr/lib/clang/9.1.0/include/stddef.h", directory: "/Users/ejiang/Projects/lls/ac")
!119 = !DIBasicType(name: "long int", size: 64, encoding: DW_ATE_signed)
!120 = !DIDerivedType(tag: DW_TAG_member, name: "__width_", scope: !75, file: !76, line: 364, baseType: !116, size: 64, offset: 192)
!121 = !DIDerivedType(tag: DW_TAG_member, name: "__rdstate_", scope: !75, file: !76, line: 365, baseType: !102, size: 32, offset: 256)
!122 = !DIDerivedType(tag: DW_TAG_member, name: "__exceptions_", scope: !75, file: !76, line: 366, baseType: !102, size: 32, offset: 288)
!123 = !DIDerivedType(tag: DW_TAG_member, name: "__rdbuf_", scope: !75, file: !76, line: 367, baseType: !124, size: 64, offset: 320)
!124 = !DIDerivedType(tag: DW_TAG_pointer_type, baseType: null, size: 64)
!125 = !DIDerivedType(tag: DW_TAG_member, name: "__loc_", scope: !75, file: !76, line: 368, baseType: !124, size: 64, offset: 384)
!126 = !DIDerivedType(tag: DW_TAG_member, name: "__fn_", scope: !75, file: !76, line: 369, baseType: !127, size: 64, offset: 448)
!127 = !DIDerivedType(tag: DW_TAG_pointer_type, baseType: !128, size: 64)
!128 = !DIDerivedType(tag: DW_TAG_typedef, name: "event_callback", scope: !75, file: !76, line: 309, baseType: !129)
!129 = !DIDerivedType(tag: DW_TAG_pointer_type, baseType: !130, size: 64)
!130 = !DISubroutineType(types: !131)
!131 = !{null, !132, !137, !14}
!132 = !DICompositeType(tag: DW_TAG_enumeration_type, name: "event", scope: !75, file: !76, line: 308, size: 32, elements: !133, identifier: "_ZTSNSt3__18ios_base5eventE")
!133 = !{!134, !135, !136}
!134 = !DIEnumerator(name: "erase_event", value: 0)
!135 = !DIEnumerator(name: "imbue_event", value: 1)
!136 = !DIEnumerator(name: "copyfmt_event", value: 2)
!137 = !DIDerivedType(tag: DW_TAG_reference_type, baseType: !75, size: 64)
!138 = !DIDerivedType(tag: DW_TAG_member, name: "__index_", scope: !75, file: !76, line: 370, baseType: !139, size: 64, offset: 512)
!139 = !DIDerivedType(tag: DW_TAG_pointer_type, baseType: !14, size: 64)
!140 = !DIDerivedType(tag: DW_TAG_member, name: "__event_size_", scope: !75, file: !76, line: 371, baseType: !141, size: 64, offset: 576)
!141 = !DIDerivedType(tag: DW_TAG_typedef, name: "size_t", file: !118, line: 62, baseType: !142)
!142 = !DIBasicType(name: "long unsigned int", size: 64, encoding: DW_ATE_unsigned)
!143 = !DIDerivedType(tag: DW_TAG_member, name: "__event_cap_", scope: !75, file: !76, line: 372, baseType: !141, size: 64, offset: 640)
!144 = !DIDerivedType(tag: DW_TAG_member, name: "__xindex_", scope: !75, file: !76, line: 376, baseType: !145, flags: DIFlagStaticMember)
!145 = !DICompositeType(tag: DW_TAG_structure_type, name: "atomic<int>", scope: !22, file: !146, line: 1084, flags: DIFlagFwdDecl, identifier: "_ZTSNSt3__16atomicIiEE")
!146 = !DIFile(filename: "/Applications/Xcode.app/Contents/Developer/Toolchains/XcodeDefault.xctoolchain/usr/include/c++/v1/atomic", directory: "/Users/ejiang/Projects/lls/ac")
!147 = !DIDerivedType(tag: DW_TAG_member, name: "__iarray_", scope: !75, file: !76, line: 380, baseType: !148, size: 64, offset: 704)
!148 = !DIDerivedType(tag: DW_TAG_pointer_type, baseType: !119, size: 64)
!149 = !DIDerivedType(tag: DW_TAG_member, name: "__iarray_size_", scope: !75, file: !76, line: 381, baseType: !141, size: 64, offset: 768)
!150 = !DIDerivedType(tag: DW_TAG_member, name: "__iarray_cap_", scope: !75, file: !76, line: 382, baseType: !141, size: 64, offset: 832)
!151 = !DIDerivedType(tag: DW_TAG_member, name: "__parray_", scope: !75, file: !76, line: 383, baseType: !152, size: 64, offset: 896)
!152 = !DIDerivedType(tag: DW_TAG_pointer_type, baseType: !124, size: 64)
!153 = !DIDerivedType(tag: DW_TAG_member, name: "__parray_size_", scope: !75, file: !76, line: 384, baseType: !141, size: 64, offset: 960)
!154 = !DIDerivedType(tag: DW_TAG_member, name: "__parray_cap_", scope: !75, file: !76, line: 385, baseType: !141, size: 64, offset: 1024)
!155 = !DISubprogram(name: "flags", linkageName: "_ZNKSt3__18ios_base5flagsEv", scope: !75, file: !76, line: 284, type: !156, isLocal: false, isDefinition: false, scopeLine: 284, flags: DIFlagPublic | DIFlagPrototyped, isOptimized: false)
!156 = !DISubroutineType(types: !157)
!157 = !{!81, !158}
!158 = !DIDerivedType(tag: DW_TAG_pointer_type, baseType: !159, size: 64, flags: DIFlagArtificial | DIFlagObjectPointer)
!159 = !DIDerivedType(tag: DW_TAG_const_type, baseType: !75)
!160 = !DISubprogram(name: "flags", linkageName: "_ZNSt3__18ios_base5flagsEj", scope: !75, file: !76, line: 285, type: !161, isLocal: false, isDefinition: false, scopeLine: 285, flags: DIFlagPublic | DIFlagPrototyped, isOptimized: false)
!161 = !DISubroutineType(types: !162)
!162 = !{!81, !163, !81}
!163 = !DIDerivedType(tag: DW_TAG_pointer_type, baseType: !75, size: 64, flags: DIFlagArtificial | DIFlagObjectPointer)
!164 = !DISubprogram(name: "setf", linkageName: "_ZNSt3__18ios_base4setfEj", scope: !75, file: !76, line: 286, type: !161, isLocal: false, isDefinition: false, scopeLine: 286, flags: DIFlagPublic | DIFlagPrototyped, isOptimized: false)
!165 = !DISubprogram(name: "setf", linkageName: "_ZNSt3__18ios_base4setfEjj", scope: !75, file: !76, line: 287, type: !166, isLocal: false, isDefinition: false, scopeLine: 287, flags: DIFlagPublic | DIFlagPrototyped, isOptimized: false)
!166 = !DISubroutineType(types: !167)
!167 = !{!81, !163, !81, !81}
!168 = !DISubprogram(name: "unsetf", linkageName: "_ZNSt3__18ios_base6unsetfEj", scope: !75, file: !76, line: 288, type: !169, isLocal: false, isDefinition: false, scopeLine: 288, flags: DIFlagPublic | DIFlagPrototyped, isOptimized: false)
!169 = !DISubroutineType(types: !170)
!170 = !{null, !163, !81}
!171 = !DISubprogram(name: "precision", linkageName: "_ZNKSt3__18ios_base9precisionEv", scope: !75, file: !76, line: 290, type: !172, isLocal: false, isDefinition: false, scopeLine: 290, flags: DIFlagPublic | DIFlagPrototyped, isOptimized: false)
!172 = !DISubroutineType(types: !173)
!173 = !{!116, !158}
!174 = !DISubprogram(name: "precision", linkageName: "_ZNSt3__18ios_base9precisionEl", scope: !75, file: !76, line: 291, type: !175, isLocal: false, isDefinition: false, scopeLine: 291, flags: DIFlagPublic | DIFlagPrototyped, isOptimized: false)
!175 = !DISubroutineType(types: !176)
!176 = !{!116, !163, !116}
!177 = !DISubprogram(name: "width", linkageName: "_ZNKSt3__18ios_base5widthEv", scope: !75, file: !76, line: 292, type: !172, isLocal: false, isDefinition: false, scopeLine: 292, flags: DIFlagPublic | DIFlagPrototyped, isOptimized: false)
!178 = !DISubprogram(name: "width", linkageName: "_ZNSt3__18ios_base5widthEl", scope: !75, file: !76, line: 293, type: !175, isLocal: false, isDefinition: false, scopeLine: 293, flags: DIFlagPublic | DIFlagPrototyped, isOptimized: false)
!179 = !DISubprogram(name: "imbue", linkageName: "_ZNSt3__18ios_base5imbueERKNS_6localeE", scope: !75, file: !76, line: 296, type: !180, isLocal: false, isDefinition: false, scopeLine: 296, flags: DIFlagPublic | DIFlagPrototyped, isOptimized: false)
!180 = !DISubroutineType(types: !181)
!181 = !{!182, !163, !205}
!182 = distinct !DICompositeType(tag: DW_TAG_class_type, name: "locale", scope: !22, file: !183, line: 83, size: 64, elements: !184, identifier: "_ZTSNSt3__16localeE")
!183 = !DIFile(filename: "/Applications/Xcode.app/Contents/Developer/Toolchains/XcodeDefault.xctoolchain/usr/include/c++/v1/__locale", directory: "/Users/ejiang/Projects/lls/ac")
!184 = !{!185, !188, !189, !190, !191, !192, !193, !194, !195, !198, !202, !207, !213, !1109, !1112, !1115, !1118, !1119, !1122, !1126, !1129, !1130, !1133, !1136, !1180, !1184, !1226}
!185 = !DIDerivedType(tag: DW_TAG_member, name: "none", scope: !182, file: !183, line: 93, baseType: !186, flags: DIFlagPublic | DIFlagStaticMember, extraData: i32 0)
!186 = !DIDerivedType(tag: DW_TAG_const_type, baseType: !187)
!187 = !DIDerivedType(tag: DW_TAG_typedef, name: "category", scope: !182, file: !183, line: 90, baseType: !14)
!188 = !DIDerivedType(tag: DW_TAG_member, name: "collate", scope: !182, file: !183, line: 94, baseType: !186, flags: DIFlagPublic | DIFlagStaticMember, extraData: i32 1)
!189 = !DIDerivedType(tag: DW_TAG_member, name: "ctype", scope: !182, file: !183, line: 95, baseType: !186, flags: DIFlagPublic | DIFlagStaticMember, extraData: i32 2)
!190 = !DIDerivedType(tag: DW_TAG_member, name: "monetary", scope: !182, file: !183, line: 96, baseType: !186, flags: DIFlagPublic | DIFlagStaticMember, extraData: i32 8)
!191 = !DIDerivedType(tag: DW_TAG_member, name: "numeric", scope: !182, file: !183, line: 97, baseType: !186, flags: DIFlagPublic | DIFlagStaticMember, extraData: i32 16)
!192 = !DIDerivedType(tag: DW_TAG_member, name: "time", scope: !182, file: !183, line: 98, baseType: !186, flags: DIFlagPublic | DIFlagStaticMember, extraData: i32 32)
!193 = !DIDerivedType(tag: DW_TAG_member, name: "messages", scope: !182, file: !183, line: 99, baseType: !186, flags: DIFlagPublic | DIFlagStaticMember, extraData: i32 4)
!194 = !DIDerivedType(tag: DW_TAG_member, name: "all", scope: !182, file: !183, line: 100, baseType: !186, flags: DIFlagPublic | DIFlagStaticMember, extraData: i32 63)
!195 = !DIDerivedType(tag: DW_TAG_member, name: "__locale_", scope: !182, file: !183, line: 136, baseType: !196, size: 64)
!196 = !DIDerivedType(tag: DW_TAG_pointer_type, baseType: !197, size: 64)
!197 = !DICompositeType(tag: DW_TAG_class_type, name: "__imp", scope: !182, file: !183, line: 135, flags: DIFlagFwdDecl, identifier: "_ZTSNSt3__16locale5__impE")
!198 = !DISubprogram(name: "locale", scope: !182, file: !183, line: 103, type: !199, isLocal: false, isDefinition: false, scopeLine: 103, flags: DIFlagPublic | DIFlagPrototyped, isOptimized: false)
!199 = !DISubroutineType(types: !200)
!200 = !{null, !201}
!201 = !DIDerivedType(tag: DW_TAG_pointer_type, baseType: !182, size: 64, flags: DIFlagArtificial | DIFlagObjectPointer)
!202 = !DISubprogram(name: "locale", scope: !182, file: !183, line: 104, type: !203, isLocal: false, isDefinition: false, scopeLine: 104, flags: DIFlagPublic | DIFlagPrototyped, isOptimized: false)
!203 = !DISubroutineType(types: !204)
!204 = !{null, !201, !205}
!205 = !DIDerivedType(tag: DW_TAG_reference_type, baseType: !206, size: 64)
!206 = !DIDerivedType(tag: DW_TAG_const_type, baseType: !182)
!207 = !DISubprogram(name: "locale", scope: !182, file: !183, line: 105, type: !208, isLocal: false, isDefinition: false, scopeLine: 105, flags: DIFlagPublic | DIFlagExplicit | DIFlagPrototyped, isOptimized: false)
!208 = !DISubroutineType(types: !209)
!209 = !{null, !201, !210}
!210 = !DIDerivedType(tag: DW_TAG_pointer_type, baseType: !211, size: 64)
!211 = !DIDerivedType(tag: DW_TAG_const_type, baseType: !212)
!212 = !DIBasicType(name: "char", size: 8, encoding: DW_ATE_signed_char)
!213 = !DISubprogram(name: "locale", scope: !182, file: !183, line: 106, type: !214, isLocal: false, isDefinition: false, scopeLine: 106, flags: DIFlagPublic | DIFlagExplicit | DIFlagPrototyped, isOptimized: false)
!214 = !DISubroutineType(types: !215)
!215 = !{null, !201, !216}
!216 = !DIDerivedType(tag: DW_TAG_reference_type, baseType: !217, size: 64)
!217 = !DIDerivedType(tag: DW_TAG_const_type, baseType: !218)
!218 = !DIDerivedType(tag: DW_TAG_typedef, name: "string", scope: !22, file: !66, line: 194, baseType: !219)
!219 = distinct !DICompositeType(tag: DW_TAG_class_type, name: "basic_string<char, std::__1::char_traits<char>, std::__1::allocator<char> >", scope: !22, file: !220, line: 4002, size: 192, elements: !221, templateParams: !1107, identifier: "_ZTSNSt3__112basic_stringIcNS_11char_traitsIcEENS_9allocatorIcEEEE")
!220 = !DIFile(filename: "/Applications/Xcode.app/Contents/Developer/Toolchains/XcodeDefault.xctoolchain/usr/include/c++/v1/string", directory: "/Users/ejiang/Projects/lls/ac")
!221 = !{!222, !234, !385, !386, !493, !494, !498, !504, !509, !512, !516, !519, !522, !525, !528, !531, !534, !537, !540, !543, !731, !734, !760, !763, !764, !768, !772, !775, !778, !783, !786, !791, !796, !797, !798, !803, !808, !809, !810, !811, !812, !813, !814, !817, !818, !819, !820, !823, !826, !827, !828, !829, !832, !837, !842, !843, !844, !845, !848, !849, !850, !851, !852, !853, !856, !859, !860, !863, !864, !867, !868, !871, !874, !875, !876, !877, !878, !879, !880, !881, !882, !883, !884, !887, !890, !893, !896, !899, !902, !905, !908, !911, !914, !917, !920, !923, !926, !929, !932, !935, !938, !941, !944, !947, !950, !953, !956, !960, !963, !966, !969, !970, !973, !976, !979, !982, !985, !988, !989, !990, !991, !992, !993, !994, !995, !996, !997, !998, !999, !1000, !1001, !1002, !1003, !1004, !1005, !1006, !1007, !1008, !1009, !1010, !1011, !1012, !1013, !1016, !1019, !1022, !1025, !1028, !1031, !1034, !1037, !1038, !1039, !1043, !1046, !1047, !1048, !1049, !1050, !1051, !1052, !1053, !1056, !1059, !1067, !1068, !1069, !1070, !1071, !1072, !1075, !1078, !1081, !1082, !1085, !1088, !1089, !1090, !1093, !1096, !1099, !1102, !1103, !1104, !1105, !1106}
!222 = !DIDerivedType(tag: DW_TAG_inheritance, scope: !219, baseType: !223)
!223 = distinct !DICompositeType(tag: DW_TAG_class_type, name: "__basic_string_common<true>", scope: !22, file: !220, line: 583, size: 8, elements: !224, templateParams: !231, identifier: "_ZTSNSt3__121__basic_string_commonILb1EEE")
!224 = !{!225, !230}
!225 = !DISubprogram(name: "__throw_length_error", linkageName: "_ZNKSt3__121__basic_string_commonILb1EE20__throw_length_errorEv", scope: !223, file: !220, line: 565, type: !226, isLocal: false, isDefinition: false, scopeLine: 565, flags: DIFlagProtected | DIFlagPrototyped, isOptimized: false)
!226 = !DISubroutineType(types: !227)
!227 = !{null, !228}
!228 = !DIDerivedType(tag: DW_TAG_pointer_type, baseType: !229, size: 64, flags: DIFlagArtificial | DIFlagObjectPointer)
!229 = !DIDerivedType(tag: DW_TAG_const_type, baseType: !223)
!230 = !DISubprogram(name: "__throw_out_of_range", linkageName: "_ZNKSt3__121__basic_string_commonILb1EE20__throw_out_of_rangeEv", scope: !223, file: !220, line: 566, type: !226, isLocal: false, isDefinition: false, scopeLine: 566, flags: DIFlagProtected | DIFlagPrototyped, isOptimized: false)
!231 = !{!232}
!232 = !DITemplateValueParameter(type: !233, value: i8 1)
!233 = !DIBasicType(name: "bool", size: 8, encoding: DW_ATE_boolean)
!234 = !DIDerivedType(tag: DW_TAG_member, name: "__short_mask", scope: !219, file: !220, line: 707, baseType: !235, flags: DIFlagStaticMember, extraData: i64 1)
!235 = !DIDerivedType(tag: DW_TAG_const_type, baseType: !236)
!236 = !DIDerivedType(tag: DW_TAG_typedef, name: "size_type", scope: !219, file: !220, line: 640, baseType: !237)
!237 = !DIDerivedType(tag: DW_TAG_typedef, name: "size_type", scope: !238, file: !21, line: 1478, baseType: !380)
!238 = distinct !DICompositeType(tag: DW_TAG_structure_type, name: "allocator_traits<std::__1::allocator<char> >", scope: !22, file: !21, line: 1467, size: 8, elements: !239, templateParams: !379, identifier: "_ZTSNSt3__116allocator_traitsINS_9allocatorIcEEEE")
!239 = !{!240, !297, !324, !327, !332, !335, !352, !367, !370, !373, !376}
!240 = !DISubprogram(name: "allocate", linkageName: "_ZNSt3__116allocator_traitsINS_9allocatorIcEEE8allocateERS2_m", scope: !238, file: !21, line: 1501, type: !241, isLocal: false, isDefinition: false, scopeLine: 1501, flags: DIFlagPrototyped, isOptimized: false)
!241 = !DISubroutineType(types: !242)
!242 = !{!243, !295, !237}
!243 = !DIDerivedType(tag: DW_TAG_typedef, name: "pointer", scope: !238, file: !21, line: 1472, baseType: !244)
!244 = !DIDerivedType(tag: DW_TAG_typedef, name: "type", scope: !245, file: !21, line: 1020, baseType: !291)
!245 = distinct !DICompositeType(tag: DW_TAG_structure_type, name: "__pointer_type<char, std::__1::allocator<char> >", scope: !22, file: !21, line: 1018, size: 8, elements: !246, templateParams: !247, identifier: "_ZTSNSt3__114__pointer_typeIcNS_9allocatorIcEEEE")
!246 = !{}
!247 = !{!248, !249}
!248 = !DITemplateTypeParameter(name: "_Tp", type: !212)
!249 = !DITemplateTypeParameter(name: "_Dp", type: !250)
!250 = distinct !DICompositeType(tag: DW_TAG_class_type, name: "allocator<char>", scope: !22, file: !21, line: 1720, size: 8, elements: !251, templateParams: !290, identifier: "_ZTSNSt3__19allocatorIcEE")
!251 = !{!252, !256, !265, !271, !281, !284, !287}
!252 = !DISubprogram(name: "allocator", scope: !250, file: !21, line: 1736, type: !253, isLocal: false, isDefinition: false, scopeLine: 1736, flags: DIFlagPublic | DIFlagPrototyped, isOptimized: false)
!253 = !DISubroutineType(types: !254)
!254 = !{null, !255}
!255 = !DIDerivedType(tag: DW_TAG_pointer_type, baseType: !250, size: 64, flags: DIFlagArtificial | DIFlagObjectPointer)
!256 = !DISubprogram(name: "address", linkageName: "_ZNKSt3__19allocatorIcE7addressERc", scope: !250, file: !21, line: 1738, type: !257, isLocal: false, isDefinition: false, scopeLine: 1738, flags: DIFlagPublic | DIFlagPrototyped, isOptimized: false)
!257 = !DISubroutineType(types: !258)
!258 = !{!259, !261, !263}
!259 = !DIDerivedType(tag: DW_TAG_typedef, name: "pointer", scope: !250, file: !21, line: 1725, baseType: !260)
!260 = !DIDerivedType(tag: DW_TAG_pointer_type, baseType: !212, size: 64)
!261 = !DIDerivedType(tag: DW_TAG_pointer_type, baseType: !262, size: 64, flags: DIFlagArtificial | DIFlagObjectPointer)
!262 = !DIDerivedType(tag: DW_TAG_const_type, baseType: !250)
!263 = !DIDerivedType(tag: DW_TAG_typedef, name: "reference", scope: !250, file: !21, line: 1727, baseType: !264)
!264 = !DIDerivedType(tag: DW_TAG_reference_type, baseType: !212, size: 64)
!265 = !DISubprogram(name: "address", linkageName: "_ZNKSt3__19allocatorIcE7addressERKc", scope: !250, file: !21, line: 1740, type: !266, isLocal: false, isDefinition: false, scopeLine: 1740, flags: DIFlagPublic | DIFlagPrototyped, isOptimized: false)
!266 = !DISubroutineType(types: !267)
!267 = !{!268, !261, !269}
!268 = !DIDerivedType(tag: DW_TAG_typedef, name: "const_pointer", scope: !250, file: !21, line: 1726, baseType: !210)
!269 = !DIDerivedType(tag: DW_TAG_typedef, name: "const_reference", scope: !250, file: !21, line: 1728, baseType: !270)
!270 = !DIDerivedType(tag: DW_TAG_reference_type, baseType: !211, size: 64)
!271 = !DISubprogram(name: "allocate", linkageName: "_ZNSt3__19allocatorIcE8allocateEmPKv", scope: !250, file: !21, line: 1742, type: !272, isLocal: false, isDefinition: false, scopeLine: 1742, flags: DIFlagPublic | DIFlagPrototyped, isOptimized: false)
!272 = !DISubroutineType(types: !273)
!273 = !{!259, !255, !274, !275}
!274 = !DIDerivedType(tag: DW_TAG_typedef, name: "size_type", file: !21, line: 1723, baseType: !141)
!275 = !DIDerivedType(tag: DW_TAG_typedef, name: "const_pointer", scope: !276, file: !21, line: 704, baseType: !279)
!276 = distinct !DICompositeType(tag: DW_TAG_class_type, name: "allocator<void>", scope: !22, file: !21, line: 700, size: 8, elements: !246, templateParams: !277, identifier: "_ZTSNSt3__19allocatorIvEE")
!277 = !{!278}
!278 = !DITemplateTypeParameter(name: "_Tp", type: null)
!279 = !DIDerivedType(tag: DW_TAG_pointer_type, baseType: !280, size: 64)
!280 = !DIDerivedType(tag: DW_TAG_const_type, baseType: null)
!281 = !DISubprogram(name: "deallocate", linkageName: "_ZNSt3__19allocatorIcE10deallocateEPcm", scope: !250, file: !21, line: 1749, type: !282, isLocal: false, isDefinition: false, scopeLine: 1749, flags: DIFlagPublic | DIFlagPrototyped, isOptimized: false)
!282 = !DISubroutineType(types: !283)
!283 = !{null, !255, !259, !274}
!284 = !DISubprogram(name: "max_size", linkageName: "_ZNKSt3__19allocatorIcE8max_sizeEv", scope: !250, file: !21, line: 1751, type: !285, isLocal: false, isDefinition: false, scopeLine: 1751, flags: DIFlagPublic | DIFlagPrototyped, isOptimized: false)
!285 = !DISubroutineType(types: !286)
!286 = !{!274, !261}
!287 = !DISubprogram(name: "destroy", linkageName: "_ZNSt3__19allocatorIcE7destroyEPc", scope: !250, file: !21, line: 1814, type: !288, isLocal: false, isDefinition: false, scopeLine: 1814, flags: DIFlagPublic | DIFlagPrototyped, isOptimized: false)
!288 = !DISubroutineType(types: !289)
!289 = !{null, !255, !259}
!290 = !{!248}
!291 = !DIDerivedType(tag: DW_TAG_typedef, name: "type", scope: !292, file: !21, line: 1006, baseType: !259)
!292 = distinct !DICompositeType(tag: DW_TAG_structure_type, name: "__pointer_type<char, std::__1::allocator<char>, true>", scope: !293, file: !21, line: 1004, size: 8, elements: !246, templateParams: !294, identifier: "_ZTSNSt3__118__pointer_type_imp14__pointer_typeIcNS_9allocatorIcEELb1EEE")
!293 = !DINamespace(name: "__pointer_type_imp", scope: !22)
!294 = !{!248, !249, !232}
!295 = !DIDerivedType(tag: DW_TAG_reference_type, baseType: !296, size: 64)
!296 = !DIDerivedType(tag: DW_TAG_typedef, name: "allocator_type", scope: !238, file: !21, line: 1469, baseType: !250)
!297 = !DISubprogram(name: "allocate", linkageName: "_ZNSt3__116allocator_traitsINS_9allocatorIcEEE8allocateERS2_mPKv", scope: !238, file: !21, line: 1504, type: !298, isLocal: false, isDefinition: false, scopeLine: 1504, flags: DIFlagPrototyped, isOptimized: false)
!298 = !DISubroutineType(types: !299)
!299 = !{!243, !295, !237, !300}
!300 = !DIDerivedType(tag: DW_TAG_typedef, name: "const_void_pointer", scope: !238, file: !21, line: 1475, baseType: !301)
!301 = !DIDerivedType(tag: DW_TAG_typedef, name: "type", scope: !302, file: !21, line: 1086, baseType: !307)
!302 = distinct !DICompositeType(tag: DW_TAG_structure_type, name: "__const_void_pointer<char *, std::__1::allocator<char>, false>", scope: !22, file: !21, line: 1083, size: 8, elements: !246, templateParams: !303, identifier: "_ZTSNSt3__120__const_void_pointerIPcNS_9allocatorIcEELb0EEE")
!303 = !{!304, !305, !306}
!304 = !DITemplateTypeParameter(name: "_Ptr", type: !260)
!305 = !DITemplateTypeParameter(name: "_Alloc", type: !250)
!306 = !DITemplateValueParameter(type: !233, value: i8 0)
!307 = !DIDerivedType(tag: DW_TAG_typedef, name: "rebind<const void>", scope: !308, file: !21, line: 968, baseType: !279)
!308 = distinct !DICompositeType(tag: DW_TAG_structure_type, name: "pointer_traits<char *>", scope: !22, file: !21, line: 961, size: 8, elements: !309, templateParams: !323, identifier: "_ZTSNSt3__114pointer_traitsIPcEE")
!309 = !{!310}
!310 = !DISubprogram(name: "pointer_to", linkageName: "_ZNSt3__114pointer_traitsIPcE10pointer_toERc", scope: !308, file: !21, line: 977, type: !311, isLocal: false, isDefinition: false, scopeLine: 977, flags: DIFlagPrototyped, isOptimized: false)
!311 = !DISubroutineType(types: !312)
!312 = !{!313, !314}
!313 = !DIDerivedType(tag: DW_TAG_typedef, name: "pointer", scope: !308, file: !21, line: 963, baseType: !260)
!314 = !DIDerivedType(tag: DW_TAG_reference_type, baseType: !315, size: 64)
!315 = !DIDerivedType(tag: DW_TAG_typedef, name: "type", scope: !317, file: !316, line: 414, baseType: !212)
!316 = !DIFile(filename: "/Applications/Xcode.app/Contents/Developer/Toolchains/XcodeDefault.xctoolchain/usr/include/c++/v1/type_traits", directory: "/Users/ejiang/Projects/lls/ac")
!317 = distinct !DICompositeType(tag: DW_TAG_structure_type, name: "conditional<false, std::__1::pointer_traits<char *>::__nat, char>", scope: !22, file: !316, line: 414, size: 8, elements: !246, templateParams: !318, identifier: "_ZTSNSt3__111conditionalILb0ENS_14pointer_traitsIPcE5__natEcEE")
!318 = !{!319, !320, !322}
!319 = !DITemplateValueParameter(name: "_Bp", type: !233, value: i8 0)
!320 = !DITemplateTypeParameter(name: "_If", type: !321)
!321 = !DICompositeType(tag: DW_TAG_structure_type, name: "__nat", scope: !308, file: !21, line: 974, flags: DIFlagFwdDecl, identifier: "_ZTSNSt3__114pointer_traitsIPcE5__natE")
!322 = !DITemplateTypeParameter(name: "_Then", type: !212)
!323 = !{!304}
!324 = !DISubprogram(name: "deallocate", linkageName: "_ZNSt3__116allocator_traitsINS_9allocatorIcEEE10deallocateERS2_Pcm", scope: !238, file: !21, line: 1509, type: !325, isLocal: false, isDefinition: false, scopeLine: 1509, flags: DIFlagPrototyped, isOptimized: false)
!325 = !DISubroutineType(types: !326)
!326 = !{null, !295, !243, !237}
!327 = !DISubprogram(name: "max_size", linkageName: "_ZNSt3__116allocator_traitsINS_9allocatorIcEEE8max_sizeERKS2_", scope: !238, file: !21, line: 1553, type: !328, isLocal: false, isDefinition: false, scopeLine: 1553, flags: DIFlagPrototyped, isOptimized: false)
!328 = !DISubroutineType(types: !329)
!329 = !{!237, !330}
!330 = !DIDerivedType(tag: DW_TAG_reference_type, baseType: !331, size: 64)
!331 = !DIDerivedType(tag: DW_TAG_const_type, baseType: !296)
!332 = !DISubprogram(name: "select_on_container_copy_construction", linkageName: "_ZNSt3__116allocator_traitsINS_9allocatorIcEEE37select_on_container_copy_constructionERKS2_", scope: !238, file: !21, line: 1558, type: !333, isLocal: false, isDefinition: false, scopeLine: 1558, flags: DIFlagPrototyped, isOptimized: false)
!333 = !DISubroutineType(types: !334)
!334 = !{!296, !330}
!335 = !DISubprogram(name: "__allocate", linkageName: "_ZNSt3__116allocator_traitsINS_9allocatorIcEEE10__allocateERS2_mPKvNS_17integral_constantIbLb1EEE", scope: !238, file: !21, line: 1658, type: !336, isLocal: false, isDefinition: false, scopeLine: 1658, flags: DIFlagPrivate | DIFlagPrototyped, isOptimized: false)
!336 = !DISubroutineType(types: !337)
!337 = !{!243, !295, !237, !300, !338}
!338 = !DIDerivedType(tag: DW_TAG_typedef, name: "true_type", scope: !22, file: !316, line: 528, baseType: !339)
!339 = distinct !DICompositeType(tag: DW_TAG_structure_type, name: "integral_constant<bool, true>", scope: !22, file: !316, line: 504, size: 8, elements: !340, templateParams: !349, identifier: "_ZTSNSt3__117integral_constantIbLb1EEE")
!340 = !{!341, !343}
!341 = !DIDerivedType(tag: DW_TAG_member, name: "value", scope: !339, file: !316, line: 506, baseType: !342, flags: DIFlagStaticMember, extraData: i1 true)
!342 = !DIDerivedType(tag: DW_TAG_const_type, baseType: !233)
!343 = !DISubprogram(name: "operator bool", linkageName: "_ZNKSt3__117integral_constantIbLb1EEcvbEv", scope: !339, file: !316, line: 510, type: !344, isLocal: false, isDefinition: false, scopeLine: 510, flags: DIFlagPrototyped, isOptimized: false)
!344 = !DISubroutineType(types: !345)
!345 = !{!346, !347}
!346 = !DIDerivedType(tag: DW_TAG_typedef, name: "value_type", scope: !339, file: !316, line: 507, baseType: !233)
!347 = !DIDerivedType(tag: DW_TAG_pointer_type, baseType: !348, size: 64, flags: DIFlagArtificial | DIFlagObjectPointer)
!348 = !DIDerivedType(tag: DW_TAG_const_type, baseType: !339)
!349 = !{!350, !351}
!350 = !DITemplateTypeParameter(name: "_Tp", type: !233)
!351 = !DITemplateValueParameter(name: "__v", type: !233, value: i8 1)
!352 = !DISubprogram(name: "__allocate", linkageName: "_ZNSt3__116allocator_traitsINS_9allocatorIcEEE10__allocateERS2_mPKvNS_17integral_constantIbLb0EEE", scope: !238, file: !21, line: 1662, type: !353, isLocal: false, isDefinition: false, scopeLine: 1662, flags: DIFlagPrivate | DIFlagPrototyped, isOptimized: false)
!353 = !DISubroutineType(types: !354)
!354 = !{!243, !295, !237, !300, !355}
!355 = !DIDerivedType(tag: DW_TAG_typedef, name: "false_type", scope: !22, file: !316, line: 529, baseType: !356)
!356 = distinct !DICompositeType(tag: DW_TAG_structure_type, name: "integral_constant<bool, false>", scope: !22, file: !316, line: 504, size: 8, elements: !357, templateParams: !365, identifier: "_ZTSNSt3__117integral_constantIbLb0EEE")
!357 = !{!358, !359}
!358 = !DIDerivedType(tag: DW_TAG_member, name: "value", scope: !356, file: !316, line: 506, baseType: !342, flags: DIFlagStaticMember, extraData: i1 false)
!359 = !DISubprogram(name: "operator bool", linkageName: "_ZNKSt3__117integral_constantIbLb0EEcvbEv", scope: !356, file: !316, line: 510, type: !360, isLocal: false, isDefinition: false, scopeLine: 510, flags: DIFlagPrototyped, isOptimized: false)
!360 = !DISubroutineType(types: !361)
!361 = !{!362, !363}
!362 = !DIDerivedType(tag: DW_TAG_typedef, name: "value_type", scope: !356, file: !316, line: 507, baseType: !233)
!363 = !DIDerivedType(tag: DW_TAG_pointer_type, baseType: !364, size: 64, flags: DIFlagArtificial | DIFlagObjectPointer)
!364 = !DIDerivedType(tag: DW_TAG_const_type, baseType: !356)
!365 = !{!350, !366}
!366 = !DITemplateValueParameter(name: "__v", type: !233, value: i8 0)
!367 = !DISubprogram(name: "__max_size", linkageName: "_ZNSt3__116allocator_traitsINS_9allocatorIcEEE10__max_sizeENS_17integral_constantIbLb1EEERKS2_", scope: !238, file: !21, line: 1691, type: !368, isLocal: false, isDefinition: false, scopeLine: 1691, flags: DIFlagPrivate | DIFlagPrototyped, isOptimized: false)
!368 = !DISubroutineType(types: !369)
!369 = !{!237, !338, !330}
!370 = !DISubprogram(name: "__max_size", linkageName: "_ZNSt3__116allocator_traitsINS_9allocatorIcEEE10__max_sizeENS_17integral_constantIbLb0EEERKS2_", scope: !238, file: !21, line: 1694, type: !371, isLocal: false, isDefinition: false, scopeLine: 1694, flags: DIFlagPrivate | DIFlagPrototyped, isOptimized: false)
!371 = !DISubroutineType(types: !372)
!372 = !{!237, !355, !330}
!373 = !DISubprogram(name: "__select_on_container_copy_construction", linkageName: "_ZNSt3__116allocator_traitsINS_9allocatorIcEEE39__select_on_container_copy_constructionENS_17integral_constantIbLb1EEERKS2_", scope: !238, file: !21, line: 1699, type: !374, isLocal: false, isDefinition: false, scopeLine: 1699, flags: DIFlagPrivate | DIFlagPrototyped, isOptimized: false)
!374 = !DISubroutineType(types: !375)
!375 = !{!296, !338, !330}
!376 = !DISubprogram(name: "__select_on_container_copy_construction", linkageName: "_ZNSt3__116allocator_traitsINS_9allocatorIcEEE39__select_on_container_copy_constructionENS_17integral_constantIbLb0EEERKS2_", scope: !238, file: !21, line: 1703, type: !377, isLocal: false, isDefinition: false, scopeLine: 1703, flags: DIFlagPrivate | DIFlagPrototyped, isOptimized: false)
!377 = !DISubroutineType(types: !378)
!378 = !{!296, !355, !330}
!379 = !{!305}
!380 = !DIDerivedType(tag: DW_TAG_typedef, name: "type", scope: !381, file: !21, line: 1124, baseType: !384)
!381 = distinct !DICompositeType(tag: DW_TAG_structure_type, name: "__size_type<std::__1::allocator<char>, long, true>", scope: !22, file: !21, line: 1122, size: 8, elements: !246, templateParams: !382, identifier: "_ZTSNSt3__111__size_typeINS_9allocatorIcEElLb1EEE")
!382 = !{!305, !383, !232}
!383 = !DITemplateTypeParameter(name: "_DiffType", type: !119)
!384 = !DIDerivedType(tag: DW_TAG_typedef, name: "size_type", scope: !250, file: !21, line: 1723, baseType: !141)
!385 = !DIDerivedType(tag: DW_TAG_member, name: "__long_mask", scope: !219, file: !220, line: 708, baseType: !235, flags: DIFlagStaticMember, extraData: i64 1)
!386 = !DIDerivedType(tag: DW_TAG_member, name: "__r_", scope: !219, file: !220, line: 745, baseType: !387, size: 192)
!387 = distinct !DICompositeType(tag: DW_TAG_class_type, name: "__compressed_pair<std::__1::basic_string<char, std::__1::char_traits<char>, std::__1::allocator<char> >::__rep, std::__1::allocator<char> >", scope: !22, file: !21, line: 2111, size: 192, elements: !388, templateParams: !490, identifier: "_ZTSNSt3__117__compressed_pairINS_12basic_stringIcNS_11char_traitsIcEENS_9allocatorIcEEE5__repES5_EE")
!388 = !{!389, !447, !471, !475, !480, !483, !486}
!389 = !DIDerivedType(tag: DW_TAG_inheritance, scope: !387, baseType: !390)
!390 = distinct !DICompositeType(tag: DW_TAG_structure_type, name: "__compressed_pair_elem<std::__1::basic_string<char, std::__1::char_traits<char>, std::__1::allocator<char> >::__rep, 0, false>", scope: !22, file: !21, line: 2037, size: 192, elements: !391, templateParams: !443, identifier: "_ZTSNSt3__122__compressed_pair_elemINS_12basic_stringIcNS_11char_traitsIcEENS_9allocatorIcEEE5__repELi0ELb0EEE")
!391 = !{!392, !426, !430, !435}
!392 = !DIDerivedType(tag: DW_TAG_member, name: "__value_", scope: !390, file: !21, line: 2069, baseType: !393, size: 192, flags: DIFlagPrivate)
!393 = distinct !DICompositeType(tag: DW_TAG_structure_type, name: "__rep", scope: !219, file: !220, line: 735, size: 192, elements: !394, identifier: "_ZTSNSt3__112basic_stringIcNS_11char_traitsIcEENS_9allocatorIcEEE5__repE")
!394 = !{!395}
!395 = !DIDerivedType(tag: DW_TAG_member, scope: !393, file: !220, line: 737, baseType: !396, size: 192)
!396 = distinct !DICompositeType(tag: DW_TAG_union_type, scope: !393, file: !220, line: 737, size: 192, elements: !397, identifier: "_ZTSNSt3__112basic_stringIcNS_11char_traitsIcEENS_9allocatorIcEEE5__repUt_E")
!397 = !{!398, !405, !419}
!398 = !DIDerivedType(tag: DW_TAG_member, name: "__l", scope: !396, file: !220, line: 739, baseType: !399, size: 192)
!399 = distinct !DICompositeType(tag: DW_TAG_structure_type, name: "__long", scope: !219, file: !220, line: 696, size: 192, elements: !400, identifier: "_ZTSNSt3__112basic_stringIcNS_11char_traitsIcEENS_9allocatorIcEEE6__longE")
!400 = !{!401, !402, !403}
!401 = !DIDerivedType(tag: DW_TAG_member, name: "__cap_", scope: !399, file: !220, line: 698, baseType: !236, size: 64)
!402 = !DIDerivedType(tag: DW_TAG_member, name: "__size_", scope: !399, file: !220, line: 699, baseType: !236, size: 64, offset: 64)
!403 = !DIDerivedType(tag: DW_TAG_member, name: "__data_", scope: !399, file: !220, line: 700, baseType: !404, size: 64, offset: 128)
!404 = !DIDerivedType(tag: DW_TAG_typedef, name: "pointer", scope: !219, file: !220, line: 644, baseType: !243)
!405 = !DIDerivedType(tag: DW_TAG_member, name: "__s", scope: !396, file: !220, line: 740, baseType: !406, size: 192)
!406 = distinct !DICompositeType(tag: DW_TAG_structure_type, name: "__short", scope: !219, file: !220, line: 714, size: 192, elements: !407, identifier: "_ZTSNSt3__112basic_stringIcNS_11char_traitsIcEENS_9allocatorIcEEE7__shortE")
!407 = !{!408, !415}
!408 = !DIDerivedType(tag: DW_TAG_member, scope: !406, file: !220, line: 716, baseType: !409, size: 8)
!409 = distinct !DICompositeType(tag: DW_TAG_union_type, scope: !406, file: !220, line: 716, size: 8, elements: !410, identifier: "_ZTSNSt3__112basic_stringIcNS_11char_traitsIcEENS_9allocatorIcEEE7__shortUt_E")
!410 = !{!411, !413}
!411 = !DIDerivedType(tag: DW_TAG_member, name: "__size_", scope: !409, file: !220, line: 718, baseType: !412, size: 8)
!412 = !DIBasicType(name: "unsigned char", size: 8, encoding: DW_ATE_unsigned_char)
!413 = !DIDerivedType(tag: DW_TAG_member, name: "__lx", scope: !409, file: !220, line: 719, baseType: !414, size: 8)
!414 = !DIDerivedType(tag: DW_TAG_typedef, name: "value_type", scope: !219, file: !220, line: 637, baseType: !212)
!415 = !DIDerivedType(tag: DW_TAG_member, name: "__data_", scope: !406, file: !220, line: 721, baseType: !416, size: 184, offset: 8)
!416 = !DICompositeType(tag: DW_TAG_array_type, baseType: !414, size: 184, elements: !417)
!417 = !{!418}
!418 = !DISubrange(count: 23)
!419 = !DIDerivedType(tag: DW_TAG_member, name: "__r", scope: !396, file: !220, line: 741, baseType: !420, size: 192)
!420 = distinct !DICompositeType(tag: DW_TAG_structure_type, name: "__raw", scope: !219, file: !220, line: 730, size: 192, elements: !421, identifier: "_ZTSNSt3__112basic_stringIcNS_11char_traitsIcEENS_9allocatorIcEEE5__rawE")
!421 = !{!422}
!422 = !DIDerivedType(tag: DW_TAG_member, name: "__words", scope: !420, file: !220, line: 732, baseType: !423, size: 192)
!423 = !DICompositeType(tag: DW_TAG_array_type, baseType: !236, size: 192, elements: !424)
!424 = !{!425}
!425 = !DISubrange(count: 3)
!426 = !DISubprogram(name: "__compressed_pair_elem", scope: !390, file: !21, line: 2043, type: !427, isLocal: false, isDefinition: false, scopeLine: 2043, flags: DIFlagPrototyped, isOptimized: false)
!427 = !DISubroutineType(types: !428)
!428 = !{null, !429}
!429 = !DIDerivedType(tag: DW_TAG_pointer_type, baseType: !390, size: 64, flags: DIFlagArtificial | DIFlagObjectPointer)
!430 = !DISubprogram(name: "__get", linkageName: "_ZNSt3__122__compressed_pair_elemINS_12basic_stringIcNS_11char_traitsIcEENS_9allocatorIcEEE5__repELi0ELb0EE5__getEv", scope: !390, file: !21, line: 2064, type: !431, isLocal: false, isDefinition: false, scopeLine: 2064, flags: DIFlagPrototyped, isOptimized: false)
!431 = !DISubroutineType(types: !432)
!432 = !{!433, !429}
!433 = !DIDerivedType(tag: DW_TAG_typedef, name: "reference", scope: !390, file: !21, line: 2039, baseType: !434)
!434 = !DIDerivedType(tag: DW_TAG_reference_type, baseType: !393, size: 64)
!435 = !DISubprogram(name: "__get", linkageName: "_ZNKSt3__122__compressed_pair_elemINS_12basic_stringIcNS_11char_traitsIcEENS_9allocatorIcEEE5__repELi0ELb0EE5__getEv", scope: !390, file: !21, line: 2066, type: !436, isLocal: false, isDefinition: false, scopeLine: 2066, flags: DIFlagPrototyped, isOptimized: false)
!436 = !DISubroutineType(types: !437)
!437 = !{!438, !441}
!438 = !DIDerivedType(tag: DW_TAG_typedef, name: "const_reference", scope: !390, file: !21, line: 2040, baseType: !439)
!439 = !DIDerivedType(tag: DW_TAG_reference_type, baseType: !440, size: 64)
!440 = !DIDerivedType(tag: DW_TAG_const_type, baseType: !393)
!441 = !DIDerivedType(tag: DW_TAG_pointer_type, baseType: !442, size: 64, flags: DIFlagArtificial | DIFlagObjectPointer)
!442 = !DIDerivedType(tag: DW_TAG_const_type, baseType: !390)
!443 = !{!444, !445, !446}
!444 = !DITemplateTypeParameter(name: "_Tp", type: !393)
!445 = !DITemplateValueParameter(name: "_Idx", type: !14, value: i32 0)
!446 = !DITemplateValueParameter(name: "_CanBeEmptyBase", type: !233, value: i8 0)
!447 = !DIDerivedType(tag: DW_TAG_inheritance, scope: !387, baseType: !448)
!448 = distinct !DICompositeType(tag: DW_TAG_structure_type, name: "__compressed_pair_elem<std::__1::allocator<char>, 1, true>", scope: !22, file: !21, line: 2073, size: 8, elements: !449, templateParams: !467, identifier: "_ZTSNSt3__122__compressed_pair_elemINS_9allocatorIcEELi1ELb1EEE")
!449 = !{!450, !451, !455, !460}
!450 = !DIDerivedType(tag: DW_TAG_inheritance, scope: !448, baseType: !250, flags: DIFlagPrivate)
!451 = !DISubprogram(name: "__compressed_pair_elem", scope: !448, file: !21, line: 2080, type: !452, isLocal: false, isDefinition: false, scopeLine: 2080, flags: DIFlagPrototyped, isOptimized: false)
!452 = !DISubroutineType(types: !453)
!453 = !{null, !454}
!454 = !DIDerivedType(tag: DW_TAG_pointer_type, baseType: !448, size: 64, flags: DIFlagArtificial | DIFlagObjectPointer)
!455 = !DISubprogram(name: "__get", linkageName: "_ZNSt3__122__compressed_pair_elemINS_9allocatorIcEELi1ELb1EE5__getEv", scope: !448, file: !21, line: 2102, type: !456, isLocal: false, isDefinition: false, scopeLine: 2102, flags: DIFlagPrototyped, isOptimized: false)
!456 = !DISubroutineType(types: !457)
!457 = !{!458, !454}
!458 = !DIDerivedType(tag: DW_TAG_typedef, name: "reference", scope: !448, file: !21, line: 2075, baseType: !459)
!459 = !DIDerivedType(tag: DW_TAG_reference_type, baseType: !250, size: 64)
!460 = !DISubprogram(name: "__get", linkageName: "_ZNKSt3__122__compressed_pair_elemINS_9allocatorIcEELi1ELb1EE5__getEv", scope: !448, file: !21, line: 2104, type: !461, isLocal: false, isDefinition: false, scopeLine: 2104, flags: DIFlagPrototyped, isOptimized: false)
!461 = !DISubroutineType(types: !462)
!462 = !{!463, !465}
!463 = !DIDerivedType(tag: DW_TAG_typedef, name: "const_reference", scope: !448, file: !21, line: 2076, baseType: !464)
!464 = !DIDerivedType(tag: DW_TAG_reference_type, baseType: !262, size: 64)
!465 = !DIDerivedType(tag: DW_TAG_pointer_type, baseType: !466, size: 64, flags: DIFlagArtificial | DIFlagObjectPointer)
!466 = !DIDerivedType(tag: DW_TAG_const_type, baseType: !448)
!467 = !{!468, !469, !470}
!468 = !DITemplateTypeParameter(name: "_Tp", type: !250)
!469 = !DITemplateValueParameter(name: "_Idx", type: !14, value: i32 1)
!470 = !DITemplateValueParameter(name: "_CanBeEmptyBase", type: !233, value: i8 1)
!471 = !DISubprogram(name: "first", linkageName: "_ZNSt3__117__compressed_pairINS_12basic_stringIcNS_11char_traitsIcEENS_9allocatorIcEEE5__repES5_E5firstEv", scope: !387, file: !21, line: 2179, type: !472, isLocal: false, isDefinition: false, scopeLine: 2179, flags: DIFlagPublic | DIFlagPrototyped, isOptimized: false)
!472 = !DISubroutineType(types: !473)
!473 = !{!433, !474}
!474 = !DIDerivedType(tag: DW_TAG_pointer_type, baseType: !387, size: 64, flags: DIFlagArtificial | DIFlagObjectPointer)
!475 = !DISubprogram(name: "first", linkageName: "_ZNKSt3__117__compressed_pairINS_12basic_stringIcNS_11char_traitsIcEENS_9allocatorIcEEE5__repES5_E5firstEv", scope: !387, file: !21, line: 2184, type: !476, isLocal: false, isDefinition: false, scopeLine: 2184, flags: DIFlagPublic | DIFlagPrototyped, isOptimized: false)
!476 = !DISubroutineType(types: !477)
!477 = !{!438, !478}
!478 = !DIDerivedType(tag: DW_TAG_pointer_type, baseType: !479, size: 64, flags: DIFlagArtificial | DIFlagObjectPointer)
!479 = !DIDerivedType(tag: DW_TAG_const_type, baseType: !387)
!480 = !DISubprogram(name: "second", linkageName: "_ZNSt3__117__compressed_pairINS_12basic_stringIcNS_11char_traitsIcEENS_9allocatorIcEEE5__repES5_E6secondEv", scope: !387, file: !21, line: 2189, type: !481, isLocal: false, isDefinition: false, scopeLine: 2189, flags: DIFlagPublic | DIFlagPrototyped, isOptimized: false)
!481 = !DISubroutineType(types: !482)
!482 = !{!458, !474}
!483 = !DISubprogram(name: "second", linkageName: "_ZNKSt3__117__compressed_pairINS_12basic_stringIcNS_11char_traitsIcEENS_9allocatorIcEEE5__repES5_E6secondEv", scope: !387, file: !21, line: 2194, type: !484, isLocal: false, isDefinition: false, scopeLine: 2194, flags: DIFlagPublic | DIFlagPrototyped, isOptimized: false)
!484 = !DISubroutineType(types: !485)
!485 = !{!463, !478}
!486 = !DISubprogram(name: "swap", linkageName: "_ZNSt3__117__compressed_pairINS_12basic_stringIcNS_11char_traitsIcEENS_9allocatorIcEEE5__repES5_E4swapERS8_", scope: !387, file: !21, line: 2199, type: !487, isLocal: false, isDefinition: false, scopeLine: 2199, flags: DIFlagPublic | DIFlagPrototyped, isOptimized: false)
!487 = !DISubroutineType(types: !488)
!488 = !{null, !474, !489}
!489 = !DIDerivedType(tag: DW_TAG_reference_type, baseType: !387, size: 64)
!490 = !{!491, !492}
!491 = !DITemplateTypeParameter(name: "_T1", type: !393)
!492 = !DITemplateTypeParameter(name: "_T2", type: !250)
!493 = !DIDerivedType(tag: DW_TAG_member, name: "npos", scope: !219, file: !220, line: 748, baseType: !235, flags: DIFlagPublic | DIFlagStaticMember, extraData: i64 -1)
!494 = !DISubprogram(name: "basic_string", scope: !219, file: !220, line: 750, type: !495, isLocal: false, isDefinition: false, scopeLine: 750, flags: DIFlagPublic | DIFlagPrototyped, isOptimized: false)
!495 = !DISubroutineType(types: !496)
!496 = !{null, !497}
!497 = !DIDerivedType(tag: DW_TAG_pointer_type, baseType: !219, size: 64, flags: DIFlagArtificial | DIFlagObjectPointer)
!498 = !DISubprogram(name: "basic_string", scope: !219, file: !220, line: 753, type: !499, isLocal: false, isDefinition: false, scopeLine: 753, flags: DIFlagPublic | DIFlagExplicit | DIFlagPrototyped, isOptimized: false)
!499 = !DISubroutineType(types: !500)
!500 = !{null, !497, !501}
!501 = !DIDerivedType(tag: DW_TAG_reference_type, baseType: !502, size: 64)
!502 = !DIDerivedType(tag: DW_TAG_const_type, baseType: !503)
!503 = !DIDerivedType(tag: DW_TAG_typedef, name: "allocator_type", scope: !219, file: !220, line: 638, baseType: !250)
!504 = !DISubprogram(name: "basic_string", scope: !219, file: !220, line: 760, type: !505, isLocal: false, isDefinition: false, scopeLine: 760, flags: DIFlagPublic | DIFlagPrototyped, isOptimized: false)
!505 = !DISubroutineType(types: !506)
!506 = !{null, !497, !507}
!507 = !DIDerivedType(tag: DW_TAG_reference_type, baseType: !508, size: 64)
!508 = !DIDerivedType(tag: DW_TAG_const_type, baseType: !219)
!509 = !DISubprogram(name: "basic_string", scope: !219, file: !220, line: 761, type: !510, isLocal: false, isDefinition: false, scopeLine: 761, flags: DIFlagPublic | DIFlagPrototyped, isOptimized: false)
!510 = !DISubroutineType(types: !511)
!511 = !{null, !497, !507, !501}
!512 = !DISubprogram(name: "basic_string", scope: !219, file: !220, line: 765, type: !513, isLocal: false, isDefinition: false, scopeLine: 765, flags: DIFlagPublic | DIFlagPrototyped, isOptimized: false)
!513 = !DISubroutineType(types: !514)
!514 = !{null, !497, !515}
!515 = !DIDerivedType(tag: DW_TAG_rvalue_reference_type, baseType: !219, size: 64)
!516 = !DISubprogram(name: "basic_string", scope: !219, file: !220, line: 773, type: !517, isLocal: false, isDefinition: false, scopeLine: 773, flags: DIFlagPublic | DIFlagPrototyped, isOptimized: false)
!517 = !DISubroutineType(types: !518)
!518 = !{null, !497, !515, !501}
!519 = !DISubprogram(name: "basic_string", scope: !219, file: !220, line: 775, type: !520, isLocal: false, isDefinition: false, scopeLine: 775, flags: DIFlagPublic | DIFlagPrototyped, isOptimized: false)
!520 = !DISubroutineType(types: !521)
!521 = !{null, !497, !210}
!522 = !DISubprogram(name: "basic_string", scope: !219, file: !220, line: 777, type: !523, isLocal: false, isDefinition: false, scopeLine: 777, flags: DIFlagPublic | DIFlagPrototyped, isOptimized: false)
!523 = !DISubroutineType(types: !524)
!524 = !{null, !497, !210, !464}
!525 = !DISubprogram(name: "basic_string", scope: !219, file: !220, line: 779, type: !526, isLocal: false, isDefinition: false, scopeLine: 779, flags: DIFlagPublic | DIFlagPrototyped, isOptimized: false)
!526 = !DISubroutineType(types: !527)
!527 = !{null, !497, !210, !236}
!528 = !DISubprogram(name: "basic_string", scope: !219, file: !220, line: 781, type: !529, isLocal: false, isDefinition: false, scopeLine: 781, flags: DIFlagPublic | DIFlagPrototyped, isOptimized: false)
!529 = !DISubroutineType(types: !530)
!530 = !{null, !497, !210, !236, !464}
!531 = !DISubprogram(name: "basic_string", scope: !219, file: !220, line: 783, type: !532, isLocal: false, isDefinition: false, scopeLine: 783, flags: DIFlagPublic | DIFlagPrototyped, isOptimized: false)
!532 = !DISubroutineType(types: !533)
!533 = !{null, !497, !236, !212}
!534 = !DISubprogram(name: "basic_string", scope: !219, file: !220, line: 785, type: !535, isLocal: false, isDefinition: false, scopeLine: 785, flags: DIFlagPublic | DIFlagPrototyped, isOptimized: false)
!535 = !DISubroutineType(types: !536)
!536 = !{null, !497, !236, !212, !464}
!537 = !DISubprogram(name: "basic_string", scope: !219, file: !220, line: 786, type: !538, isLocal: false, isDefinition: false, scopeLine: 786, flags: DIFlagPublic | DIFlagPrototyped, isOptimized: false)
!538 = !DISubroutineType(types: !539)
!539 = !{null, !497, !507, !236, !236, !464}
!540 = !DISubprogram(name: "basic_string", scope: !219, file: !220, line: 789, type: !541, isLocal: false, isDefinition: false, scopeLine: 789, flags: DIFlagPublic | DIFlagPrototyped, isOptimized: false)
!541 = !DISubroutineType(types: !542)
!542 = !{null, !497, !507, !236, !464}
!543 = !DISubprogram(name: "basic_string", scope: !219, file: !220, line: 797, type: !544, isLocal: false, isDefinition: false, scopeLine: 797, flags: DIFlagPublic | DIFlagExplicit | DIFlagPrototyped, isOptimized: false)
!544 = !DISubroutineType(types: !545)
!545 = !{null, !497, !546}
!546 = !DIDerivedType(tag: DW_TAG_typedef, name: "__self_view", scope: !219, file: !220, line: 635, baseType: !547)
!547 = distinct !DICompositeType(tag: DW_TAG_class_type, name: "basic_string_view<char, std::__1::char_traits<char> >", scope: !22, file: !548, line: 187, size: 128, elements: !549, templateParams: !679, identifier: "_ZTSNSt3__117basic_string_viewIcNS_11char_traitsIcEEEE")
!548 = !DIFile(filename: "/Applications/Xcode.app/Contents/Developer/Toolchains/XcodeDefault.xctoolchain/usr/include/c++/v1/string_view", directory: "/Users/ejiang/Projects/lls/ac")
!549 = !{!550, !553, !557, !558, !562, !567, !571, !574, !577, !583, !584, !585, !586, !592, !593, !594, !595, !598, !599, !600, !603, !607, !608, !611, !612, !615, !618, !619, !622, !626, !629, !632, !635, !638, !641, !644, !647, !650, !653, !656, !659, !660, !661, !662, !663, !664, !665, !666, !667, !668, !669, !670, !671, !672, !673, !674, !675, !676, !677, !678}
!550 = !DIDerivedType(tag: DW_TAG_member, name: "npos", scope: !547, file: !548, line: 202, baseType: !551, flags: DIFlagPublic | DIFlagStaticMember, extraData: i64 -1)
!551 = !DIDerivedType(tag: DW_TAG_const_type, baseType: !552)
!552 = !DIDerivedType(tag: DW_TAG_typedef, name: "size_type", file: !548, line: 200, baseType: !141)
!553 = !DIDerivedType(tag: DW_TAG_member, name: "__data", scope: !547, file: !548, line: 569, baseType: !554, size: 64)
!554 = !DIDerivedType(tag: DW_TAG_pointer_type, baseType: !555, size: 64)
!555 = !DIDerivedType(tag: DW_TAG_const_type, baseType: !556)
!556 = !DIDerivedType(tag: DW_TAG_typedef, name: "value_type", scope: !547, file: !548, line: 191, baseType: !212)
!557 = !DIDerivedType(tag: DW_TAG_member, name: "__size", scope: !547, file: !548, line: 570, baseType: !552, size: 64, offset: 64)
!558 = !DISubprogram(name: "basic_string_view", scope: !547, file: !548, line: 210, type: !559, isLocal: false, isDefinition: false, scopeLine: 210, flags: DIFlagPublic | DIFlagPrototyped, isOptimized: false)
!559 = !DISubroutineType(types: !560)
!560 = !{null, !561}
!561 = !DIDerivedType(tag: DW_TAG_pointer_type, baseType: !547, size: 64, flags: DIFlagArtificial | DIFlagObjectPointer)
!562 = !DISubprogram(name: "basic_string_view", scope: !547, file: !548, line: 213, type: !563, isLocal: false, isDefinition: false, scopeLine: 213, flags: DIFlagPublic | DIFlagPrototyped, isOptimized: false)
!563 = !DISubroutineType(types: !564)
!564 = !{null, !561, !565}
!565 = !DIDerivedType(tag: DW_TAG_reference_type, baseType: !566, size: 64)
!566 = !DIDerivedType(tag: DW_TAG_const_type, baseType: !547)
!567 = !DISubprogram(name: "operator=", linkageName: "_ZNSt3__117basic_string_viewIcNS_11char_traitsIcEEEaSERKS3_", scope: !547, file: !548, line: 216, type: !568, isLocal: false, isDefinition: false, scopeLine: 216, flags: DIFlagPublic | DIFlagPrototyped, isOptimized: false)
!568 = !DISubroutineType(types: !569)
!569 = !{!570, !561, !565}
!570 = !DIDerivedType(tag: DW_TAG_reference_type, baseType: !547, size: 64)
!571 = !DISubprogram(name: "basic_string_view", scope: !547, file: !548, line: 219, type: !572, isLocal: false, isDefinition: false, scopeLine: 219, flags: DIFlagPublic | DIFlagPrototyped, isOptimized: false)
!572 = !DISubroutineType(types: !573)
!573 = !{null, !561, !210, !552}
!574 = !DISubprogram(name: "basic_string_view", scope: !547, file: !548, line: 228, type: !575, isLocal: false, isDefinition: false, scopeLine: 228, flags: DIFlagPublic | DIFlagPrototyped, isOptimized: false)
!575 = !DISubroutineType(types: !576)
!576 = !{null, !561, !210}
!577 = !DISubprogram(name: "begin", linkageName: "_ZNKSt3__117basic_string_viewIcNS_11char_traitsIcEEE5beginEv", scope: !547, file: !548, line: 233, type: !578, isLocal: false, isDefinition: false, scopeLine: 233, flags: DIFlagPublic | DIFlagPrototyped, isOptimized: false)
!578 = !DISubroutineType(types: !579)
!579 = !{!580, !582}
!580 = !DIDerivedType(tag: DW_TAG_typedef, name: "const_iterator", scope: !547, file: !548, line: 196, baseType: !581)
!581 = !DIDerivedType(tag: DW_TAG_typedef, name: "const_pointer", scope: !547, file: !548, line: 193, baseType: !210)
!582 = !DIDerivedType(tag: DW_TAG_pointer_type, baseType: !566, size: 64, flags: DIFlagArtificial | DIFlagObjectPointer)
!583 = !DISubprogram(name: "end", linkageName: "_ZNKSt3__117basic_string_viewIcNS_11char_traitsIcEEE3endEv", scope: !547, file: !548, line: 236, type: !578, isLocal: false, isDefinition: false, scopeLine: 236, flags: DIFlagPublic | DIFlagPrototyped, isOptimized: false)
!584 = !DISubprogram(name: "cbegin", linkageName: "_ZNKSt3__117basic_string_viewIcNS_11char_traitsIcEEE6cbeginEv", scope: !547, file: !548, line: 239, type: !578, isLocal: false, isDefinition: false, scopeLine: 239, flags: DIFlagPublic | DIFlagPrototyped, isOptimized: false)
!585 = !DISubprogram(name: "cend", linkageName: "_ZNKSt3__117basic_string_viewIcNS_11char_traitsIcEEE4cendEv", scope: !547, file: !548, line: 242, type: !578, isLocal: false, isDefinition: false, scopeLine: 242, flags: DIFlagPublic | DIFlagPrototyped, isOptimized: false)
!586 = !DISubprogram(name: "rbegin", linkageName: "_ZNKSt3__117basic_string_viewIcNS_11char_traitsIcEEE6rbeginEv", scope: !547, file: !548, line: 245, type: !587, isLocal: false, isDefinition: false, scopeLine: 245, flags: DIFlagPublic | DIFlagPrototyped, isOptimized: false)
!587 = !DISubroutineType(types: !588)
!588 = !{!589, !582}
!589 = !DIDerivedType(tag: DW_TAG_typedef, name: "const_reverse_iterator", scope: !547, file: !548, line: 198, baseType: !590)
!590 = !DICompositeType(tag: DW_TAG_class_type, name: "reverse_iterator<const char *>", scope: !22, file: !591, line: 636, flags: DIFlagFwdDecl, identifier: "_ZTSNSt3__116reverse_iteratorIPKcEE")
!591 = !DIFile(filename: "/Applications/Xcode.app/Contents/Developer/Toolchains/XcodeDefault.xctoolchain/usr/include/c++/v1/iterator", directory: "/Users/ejiang/Projects/lls/ac")
!592 = !DISubprogram(name: "rend", linkageName: "_ZNKSt3__117basic_string_viewIcNS_11char_traitsIcEEE4rendEv", scope: !547, file: !548, line: 248, type: !587, isLocal: false, isDefinition: false, scopeLine: 248, flags: DIFlagPublic | DIFlagPrototyped, isOptimized: false)
!593 = !DISubprogram(name: "crbegin", linkageName: "_ZNKSt3__117basic_string_viewIcNS_11char_traitsIcEEE7crbeginEv", scope: !547, file: !548, line: 251, type: !587, isLocal: false, isDefinition: false, scopeLine: 251, flags: DIFlagPublic | DIFlagPrototyped, isOptimized: false)
!594 = !DISubprogram(name: "crend", linkageName: "_ZNKSt3__117basic_string_viewIcNS_11char_traitsIcEEE5crendEv", scope: !547, file: !548, line: 254, type: !587, isLocal: false, isDefinition: false, scopeLine: 254, flags: DIFlagPublic | DIFlagPrototyped, isOptimized: false)
!595 = !DISubprogram(name: "size", linkageName: "_ZNKSt3__117basic_string_viewIcNS_11char_traitsIcEEE4sizeEv", scope: !547, file: !548, line: 258, type: !596, isLocal: false, isDefinition: false, scopeLine: 258, flags: DIFlagPublic | DIFlagPrototyped, isOptimized: false)
!596 = !DISubroutineType(types: !597)
!597 = !{!552, !582}
!598 = !DISubprogram(name: "length", linkageName: "_ZNKSt3__117basic_string_viewIcNS_11char_traitsIcEEE6lengthEv", scope: !547, file: !548, line: 261, type: !596, isLocal: false, isDefinition: false, scopeLine: 261, flags: DIFlagPublic | DIFlagPrototyped, isOptimized: false)
!599 = !DISubprogram(name: "max_size", linkageName: "_ZNKSt3__117basic_string_viewIcNS_11char_traitsIcEEE8max_sizeEv", scope: !547, file: !548, line: 264, type: !596, isLocal: false, isDefinition: false, scopeLine: 264, flags: DIFlagPublic | DIFlagPrototyped, isOptimized: false)
!600 = !DISubprogram(name: "empty", linkageName: "_ZNKSt3__117basic_string_viewIcNS_11char_traitsIcEEE5emptyEv", scope: !547, file: !548, line: 267, type: !601, isLocal: false, isDefinition: false, scopeLine: 267, flags: DIFlagPublic | DIFlagPrototyped, isOptimized: false)
!601 = !DISubroutineType(types: !602)
!602 = !{!233, !582}
!603 = !DISubprogram(name: "operator[]", linkageName: "_ZNKSt3__117basic_string_viewIcNS_11char_traitsIcEEEixEm", scope: !547, file: !548, line: 271, type: !604, isLocal: false, isDefinition: false, scopeLine: 271, flags: DIFlagPublic | DIFlagPrototyped, isOptimized: false)
!604 = !DISubroutineType(types: !605)
!605 = !{!606, !582, !552}
!606 = !DIDerivedType(tag: DW_TAG_typedef, name: "const_reference", scope: !547, file: !548, line: 195, baseType: !270)
!607 = !DISubprogram(name: "at", linkageName: "_ZNKSt3__117basic_string_viewIcNS_11char_traitsIcEEE2atEm", scope: !547, file: !548, line: 274, type: !604, isLocal: false, isDefinition: false, scopeLine: 274, flags: DIFlagPublic | DIFlagPrototyped, isOptimized: false)
!608 = !DISubprogram(name: "front", linkageName: "_ZNKSt3__117basic_string_viewIcNS_11char_traitsIcEEE5frontEv", scope: !547, file: !548, line: 282, type: !609, isLocal: false, isDefinition: false, scopeLine: 282, flags: DIFlagPublic | DIFlagPrototyped, isOptimized: false)
!609 = !DISubroutineType(types: !610)
!610 = !{!606, !582}
!611 = !DISubprogram(name: "back", linkageName: "_ZNKSt3__117basic_string_viewIcNS_11char_traitsIcEEE4backEv", scope: !547, file: !548, line: 288, type: !609, isLocal: false, isDefinition: false, scopeLine: 288, flags: DIFlagPublic | DIFlagPrototyped, isOptimized: false)
!612 = !DISubprogram(name: "data", linkageName: "_ZNKSt3__117basic_string_viewIcNS_11char_traitsIcEEE4dataEv", scope: !547, file: !548, line: 294, type: !613, isLocal: false, isDefinition: false, scopeLine: 294, flags: DIFlagPublic | DIFlagPrototyped, isOptimized: false)
!613 = !DISubroutineType(types: !614)
!614 = !{!581, !582}
!615 = !DISubprogram(name: "remove_prefix", linkageName: "_ZNSt3__117basic_string_viewIcNS_11char_traitsIcEEE13remove_prefixEm", scope: !547, file: !548, line: 298, type: !616, isLocal: false, isDefinition: false, scopeLine: 298, flags: DIFlagPublic | DIFlagPrototyped, isOptimized: false)
!616 = !DISubroutineType(types: !617)
!617 = !{null, !561, !552}
!618 = !DISubprogram(name: "remove_suffix", linkageName: "_ZNSt3__117basic_string_viewIcNS_11char_traitsIcEEE13remove_suffixEm", scope: !547, file: !548, line: 306, type: !616, isLocal: false, isDefinition: false, scopeLine: 306, flags: DIFlagPublic | DIFlagPrototyped, isOptimized: false)
!619 = !DISubprogram(name: "swap", linkageName: "_ZNSt3__117basic_string_viewIcNS_11char_traitsIcEEE4swapERS3_", scope: !547, file: !548, line: 313, type: !620, isLocal: false, isDefinition: false, scopeLine: 313, flags: DIFlagPublic | DIFlagPrototyped, isOptimized: false)
!620 = !DISubroutineType(types: !621)
!621 = !{null, !561, !570}
!622 = !DISubprogram(name: "copy", linkageName: "_ZNKSt3__117basic_string_viewIcNS_11char_traitsIcEEE4copyEPcmm", scope: !547, file: !548, line: 325, type: !623, isLocal: false, isDefinition: false, scopeLine: 325, flags: DIFlagPublic | DIFlagPrototyped, isOptimized: false)
!623 = !DISubroutineType(types: !624)
!624 = !{!625, !582, !260, !552, !552}
!625 = !DIDerivedType(tag: DW_TAG_typedef, name: "size_type", scope: !547, file: !548, line: 200, baseType: !141)
!626 = !DISubprogram(name: "substr", linkageName: "_ZNKSt3__117basic_string_viewIcNS_11char_traitsIcEEE6substrEmm", scope: !547, file: !548, line: 335, type: !627, isLocal: false, isDefinition: false, scopeLine: 335, flags: DIFlagPublic | DIFlagPrototyped, isOptimized: false)
!627 = !DISubroutineType(types: !628)
!628 = !{!547, !582, !552, !552}
!629 = !DISubprogram(name: "compare", linkageName: "_ZNKSt3__117basic_string_viewIcNS_11char_traitsIcEEE7compareES3_", scope: !547, file: !548, line: 342, type: !630, isLocal: false, isDefinition: false, scopeLine: 342, flags: DIFlagPublic | DIFlagPrototyped, isOptimized: false)
!630 = !DISubroutineType(types: !631)
!631 = !{!14, !582, !547}
!632 = !DISubprogram(name: "compare", linkageName: "_ZNKSt3__117basic_string_viewIcNS_11char_traitsIcEEE7compareEmmS3_", scope: !547, file: !548, line: 352, type: !633, isLocal: false, isDefinition: false, scopeLine: 352, flags: DIFlagPublic | DIFlagPrototyped, isOptimized: false)
!633 = !DISubroutineType(types: !634)
!634 = !{!14, !582, !552, !552, !547}
!635 = !DISubprogram(name: "compare", linkageName: "_ZNKSt3__117basic_string_viewIcNS_11char_traitsIcEEE7compareEmmS3_mm", scope: !547, file: !548, line: 358, type: !636, isLocal: false, isDefinition: false, scopeLine: 358, flags: DIFlagPublic | DIFlagPrototyped, isOptimized: false)
!636 = !DISubroutineType(types: !637)
!637 = !{!14, !582, !552, !552, !547, !552, !552}
!638 = !DISubprogram(name: "compare", linkageName: "_ZNKSt3__117basic_string_viewIcNS_11char_traitsIcEEE7compareEPKc", scope: !547, file: !548, line: 365, type: !639, isLocal: false, isDefinition: false, scopeLine: 365, flags: DIFlagPublic | DIFlagPrototyped, isOptimized: false)
!639 = !DISubroutineType(types: !640)
!640 = !{!14, !582, !210}
!641 = !DISubprogram(name: "compare", linkageName: "_ZNKSt3__117basic_string_viewIcNS_11char_traitsIcEEE7compareEmmPKc", scope: !547, file: !548, line: 371, type: !642, isLocal: false, isDefinition: false, scopeLine: 371, flags: DIFlagPublic | DIFlagPrototyped, isOptimized: false)
!642 = !DISubroutineType(types: !643)
!643 = !{!14, !582, !552, !552, !210}
!644 = !DISubprogram(name: "compare", linkageName: "_ZNKSt3__117basic_string_viewIcNS_11char_traitsIcEEE7compareEmmPKcm", scope: !547, file: !548, line: 377, type: !645, isLocal: false, isDefinition: false, scopeLine: 377, flags: DIFlagPublic | DIFlagPrototyped, isOptimized: false)
!645 = !DISubroutineType(types: !646)
!646 = !{!14, !582, !552, !552, !210, !552}
!647 = !DISubprogram(name: "find", linkageName: "_ZNKSt3__117basic_string_viewIcNS_11char_traitsIcEEE4findES3_m", scope: !547, file: !548, line: 384, type: !648, isLocal: false, isDefinition: false, scopeLine: 384, flags: DIFlagPublic | DIFlagPrototyped, isOptimized: false)
!648 = !DISubroutineType(types: !649)
!649 = !{!625, !582, !547, !552}
!650 = !DISubprogram(name: "find", linkageName: "_ZNKSt3__117basic_string_viewIcNS_11char_traitsIcEEE4findEcm", scope: !547, file: !548, line: 392, type: !651, isLocal: false, isDefinition: false, scopeLine: 392, flags: DIFlagPublic | DIFlagPrototyped, isOptimized: false)
!651 = !DISubroutineType(types: !652)
!652 = !{!625, !582, !212, !552}
!653 = !DISubprogram(name: "find", linkageName: "_ZNKSt3__117basic_string_viewIcNS_11char_traitsIcEEE4findEPKcmm", scope: !547, file: !548, line: 399, type: !654, isLocal: false, isDefinition: false, scopeLine: 399, flags: DIFlagPublic | DIFlagPrototyped, isOptimized: false)
!654 = !DISubroutineType(types: !655)
!655 = !{!625, !582, !210, !552, !552}
!656 = !DISubprogram(name: "find", linkageName: "_ZNKSt3__117basic_string_viewIcNS_11char_traitsIcEEE4findEPKcm", scope: !547, file: !548, line: 407, type: !657, isLocal: false, isDefinition: false, scopeLine: 407, flags: DIFlagPublic | DIFlagPrototyped, isOptimized: false)
!657 = !DISubroutineType(types: !658)
!658 = !{!625, !582, !210, !552}
!659 = !DISubprogram(name: "rfind", linkageName: "_ZNKSt3__117basic_string_viewIcNS_11char_traitsIcEEE5rfindES3_m", scope: !547, file: !548, line: 416, type: !648, isLocal: false, isDefinition: false, scopeLine: 416, flags: DIFlagPublic | DIFlagPrototyped, isOptimized: false)
!660 = !DISubprogram(name: "rfind", linkageName: "_ZNKSt3__117basic_string_viewIcNS_11char_traitsIcEEE5rfindEcm", scope: !547, file: !548, line: 424, type: !651, isLocal: false, isDefinition: false, scopeLine: 424, flags: DIFlagPublic | DIFlagPrototyped, isOptimized: false)
!661 = !DISubprogram(name: "rfind", linkageName: "_ZNKSt3__117basic_string_viewIcNS_11char_traitsIcEEE5rfindEPKcmm", scope: !547, file: !548, line: 431, type: !654, isLocal: false, isDefinition: false, scopeLine: 431, flags: DIFlagPublic | DIFlagPrototyped, isOptimized: false)
!662 = !DISubprogram(name: "rfind", linkageName: "_ZNKSt3__117basic_string_viewIcNS_11char_traitsIcEEE5rfindEPKcm", scope: !547, file: !548, line: 439, type: !657, isLocal: false, isDefinition: false, scopeLine: 439, flags: DIFlagPublic | DIFlagPrototyped, isOptimized: false)
!663 = !DISubprogram(name: "find_first_of", linkageName: "_ZNKSt3__117basic_string_viewIcNS_11char_traitsIcEEE13find_first_ofES3_m", scope: !547, file: !548, line: 448, type: !648, isLocal: false, isDefinition: false, scopeLine: 448, flags: DIFlagPublic | DIFlagPrototyped, isOptimized: false)
!664 = !DISubprogram(name: "find_first_of", linkageName: "_ZNKSt3__117basic_string_viewIcNS_11char_traitsIcEEE13find_first_ofEcm", scope: !547, file: !548, line: 456, type: !651, isLocal: false, isDefinition: false, scopeLine: 456, flags: DIFlagPublic | DIFlagPrototyped, isOptimized: false)
!665 = !DISubprogram(name: "find_first_of", linkageName: "_ZNKSt3__117basic_string_viewIcNS_11char_traitsIcEEE13find_first_ofEPKcmm", scope: !547, file: !548, line: 460, type: !654, isLocal: false, isDefinition: false, scopeLine: 460, flags: DIFlagPublic | DIFlagPrototyped, isOptimized: false)
!666 = !DISubprogram(name: "find_first_of", linkageName: "_ZNKSt3__117basic_string_viewIcNS_11char_traitsIcEEE13find_first_ofEPKcm", scope: !547, file: !548, line: 468, type: !657, isLocal: false, isDefinition: false, scopeLine: 468, flags: DIFlagPublic | DIFlagPrototyped, isOptimized: false)
!667 = !DISubprogram(name: "find_last_of", linkageName: "_ZNKSt3__117basic_string_viewIcNS_11char_traitsIcEEE12find_last_ofES3_m", scope: !547, file: !548, line: 477, type: !648, isLocal: false, isDefinition: false, scopeLine: 477, flags: DIFlagPublic | DIFlagPrototyped, isOptimized: false)
!668 = !DISubprogram(name: "find_last_of", linkageName: "_ZNKSt3__117basic_string_viewIcNS_11char_traitsIcEEE12find_last_ofEcm", scope: !547, file: !548, line: 485, type: !651, isLocal: false, isDefinition: false, scopeLine: 485, flags: DIFlagPublic | DIFlagPrototyped, isOptimized: false)
!669 = !DISubprogram(name: "find_last_of", linkageName: "_ZNKSt3__117basic_string_viewIcNS_11char_traitsIcEEE12find_last_ofEPKcmm", scope: !547, file: !548, line: 489, type: !654, isLocal: false, isDefinition: false, scopeLine: 489, flags: DIFlagPublic | DIFlagPrototyped, isOptimized: false)
!670 = !DISubprogram(name: "find_last_of", linkageName: "_ZNKSt3__117basic_string_viewIcNS_11char_traitsIcEEE12find_last_ofEPKcm", scope: !547, file: !548, line: 497, type: !657, isLocal: false, isDefinition: false, scopeLine: 497, flags: DIFlagPublic | DIFlagPrototyped, isOptimized: false)
!671 = !DISubprogram(name: "find_first_not_of", linkageName: "_ZNKSt3__117basic_string_viewIcNS_11char_traitsIcEEE17find_first_not_ofES3_m", scope: !547, file: !548, line: 506, type: !648, isLocal: false, isDefinition: false, scopeLine: 506, flags: DIFlagPublic | DIFlagPrototyped, isOptimized: false)
!672 = !DISubprogram(name: "find_first_not_of", linkageName: "_ZNKSt3__117basic_string_viewIcNS_11char_traitsIcEEE17find_first_not_ofEcm", scope: !547, file: !548, line: 514, type: !651, isLocal: false, isDefinition: false, scopeLine: 514, flags: DIFlagPublic | DIFlagPrototyped, isOptimized: false)
!673 = !DISubprogram(name: "find_first_not_of", linkageName: "_ZNKSt3__117basic_string_viewIcNS_11char_traitsIcEEE17find_first_not_ofEPKcmm", scope: !547, file: !548, line: 521, type: !654, isLocal: false, isDefinition: false, scopeLine: 521, flags: DIFlagPublic | DIFlagPrototyped, isOptimized: false)
!674 = !DISubprogram(name: "find_first_not_of", linkageName: "_ZNKSt3__117basic_string_viewIcNS_11char_traitsIcEEE17find_first_not_ofEPKcm", scope: !547, file: !548, line: 529, type: !657, isLocal: false, isDefinition: false, scopeLine: 529, flags: DIFlagPublic | DIFlagPrototyped, isOptimized: false)
!675 = !DISubprogram(name: "find_last_not_of", linkageName: "_ZNKSt3__117basic_string_viewIcNS_11char_traitsIcEEE16find_last_not_ofES3_m", scope: !547, file: !548, line: 538, type: !648, isLocal: false, isDefinition: false, scopeLine: 538, flags: DIFlagPublic | DIFlagPrototyped, isOptimized: false)
!676 = !DISubprogram(name: "find_last_not_of", linkageName: "_ZNKSt3__117basic_string_viewIcNS_11char_traitsIcEEE16find_last_not_ofEcm", scope: !547, file: !548, line: 546, type: !651, isLocal: false, isDefinition: false, scopeLine: 546, flags: DIFlagPublic | DIFlagPrototyped, isOptimized: false)
!677 = !DISubprogram(name: "find_last_not_of", linkageName: "_ZNKSt3__117basic_string_viewIcNS_11char_traitsIcEEE16find_last_not_ofEPKcmm", scope: !547, file: !548, line: 553, type: !654, isLocal: false, isDefinition: false, scopeLine: 553, flags: DIFlagPublic | DIFlagPrototyped, isOptimized: false)
!678 = !DISubprogram(name: "find_last_not_of", linkageName: "_ZNKSt3__117basic_string_viewIcNS_11char_traitsIcEEE16find_last_not_ofEPKcm", scope: !547, file: !548, line: 561, type: !657, isLocal: false, isDefinition: false, scopeLine: 561, flags: DIFlagPublic | DIFlagPrototyped, isOptimized: false)
!679 = !{!680, !681}
!680 = !DITemplateTypeParameter(name: "_CharT", type: !212)
!681 = !DITemplateTypeParameter(name: "_Traits", type: !682)
!682 = distinct !DICompositeType(tag: DW_TAG_structure_type, name: "char_traits<char>", scope: !22, file: !683, line: 199, size: 8, elements: !684, templateParams: !730, identifier: "_ZTSNSt3__111char_traitsIcEE")
!683 = !DIFile(filename: "/Applications/Xcode.app/Contents/Developer/Toolchains/XcodeDefault.xctoolchain/usr/include/c++/v1/__string", directory: "/Users/ejiang/Projects/lls/ac")
!684 = !{!685, !692, !695, !696, !700, !703, !706, !710, !711, !714, !718, !721, !724, !727}
!685 = !DISubprogram(name: "assign", linkageName: "_ZNSt3__111char_traitsIcE6assignERcRKc", scope: !682, file: !683, line: 208, type: !686, isLocal: false, isDefinition: false, scopeLine: 208, flags: DIFlagPrototyped, isOptimized: false)
!686 = !DISubroutineType(types: !687)
!687 = !{null, !688, !690}
!688 = !DIDerivedType(tag: DW_TAG_reference_type, baseType: !689, size: 64)
!689 = !DIDerivedType(tag: DW_TAG_typedef, name: "char_type", scope: !682, file: !683, line: 201, baseType: !212)
!690 = !DIDerivedType(tag: DW_TAG_reference_type, baseType: !691, size: 64)
!691 = !DIDerivedType(tag: DW_TAG_const_type, baseType: !689)
!692 = !DISubprogram(name: "eq", linkageName: "_ZNSt3__111char_traitsIcE2eqEcc", scope: !682, file: !683, line: 209, type: !693, isLocal: false, isDefinition: false, scopeLine: 209, flags: DIFlagPrototyped, isOptimized: false)
!693 = !DISubroutineType(types: !694)
!694 = !{!233, !689, !689}
!695 = !DISubprogram(name: "lt", linkageName: "_ZNSt3__111char_traitsIcE2ltEcc", scope: !682, file: !683, line: 211, type: !693, isLocal: false, isDefinition: false, scopeLine: 211, flags: DIFlagPrototyped, isOptimized: false)
!696 = !DISubprogram(name: "compare", linkageName: "_ZNSt3__111char_traitsIcE7compareEPKcS3_m", scope: !682, file: !683, line: 215, type: !697, isLocal: false, isDefinition: false, scopeLine: 215, flags: DIFlagPrototyped, isOptimized: false)
!697 = !DISubroutineType(types: !698)
!698 = !{!14, !699, !699, !141}
!699 = !DIDerivedType(tag: DW_TAG_pointer_type, baseType: !691, size: 64)
!700 = !DISubprogram(name: "length", linkageName: "_ZNSt3__111char_traitsIcE6lengthEPKc", scope: !682, file: !683, line: 217, type: !701, isLocal: false, isDefinition: false, scopeLine: 217, flags: DIFlagPrototyped, isOptimized: false)
!701 = !DISubroutineType(types: !702)
!702 = !{!141, !699}
!703 = !DISubprogram(name: "find", linkageName: "_ZNSt3__111char_traitsIcE4findEPKcmRS2_", scope: !682, file: !683, line: 219, type: !704, isLocal: false, isDefinition: false, scopeLine: 219, flags: DIFlagPrototyped, isOptimized: false)
!704 = !DISubroutineType(types: !705)
!705 = !{!699, !699, !141, !690}
!706 = !DISubprogram(name: "move", linkageName: "_ZNSt3__111char_traitsIcE4moveEPcPKcm", scope: !682, file: !683, line: 220, type: !707, isLocal: false, isDefinition: false, scopeLine: 220, flags: DIFlagPrototyped, isOptimized: false)
!707 = !DISubroutineType(types: !708)
!708 = !{!709, !709, !699, !141}
!709 = !DIDerivedType(tag: DW_TAG_pointer_type, baseType: !689, size: 64)
!710 = !DISubprogram(name: "copy", linkageName: "_ZNSt3__111char_traitsIcE4copyEPcPKcm", scope: !682, file: !683, line: 222, type: !707, isLocal: false, isDefinition: false, scopeLine: 222, flags: DIFlagPrototyped, isOptimized: false)
!711 = !DISubprogram(name: "assign", linkageName: "_ZNSt3__111char_traitsIcE6assignEPcmc", scope: !682, file: !683, line: 227, type: !712, isLocal: false, isDefinition: false, scopeLine: 227, flags: DIFlagPrototyped, isOptimized: false)
!712 = !DISubroutineType(types: !713)
!713 = !{!709, !709, !141, !689}
!714 = !DISubprogram(name: "not_eof", linkageName: "_ZNSt3__111char_traitsIcE7not_eofEi", scope: !682, file: !683, line: 230, type: !715, isLocal: false, isDefinition: false, scopeLine: 230, flags: DIFlagPrototyped, isOptimized: false)
!715 = !DISubroutineType(types: !716)
!716 = !{!717, !717}
!717 = !DIDerivedType(tag: DW_TAG_typedef, name: "int_type", scope: !682, file: !683, line: 202, baseType: !14)
!718 = !DISubprogram(name: "to_char_type", linkageName: "_ZNSt3__111char_traitsIcE12to_char_typeEi", scope: !682, file: !683, line: 232, type: !719, isLocal: false, isDefinition: false, scopeLine: 232, flags: DIFlagPrototyped, isOptimized: false)
!719 = !DISubroutineType(types: !720)
!720 = !{!689, !717}
!721 = !DISubprogram(name: "to_int_type", linkageName: "_ZNSt3__111char_traitsIcE11to_int_typeEc", scope: !682, file: !683, line: 234, type: !722, isLocal: false, isDefinition: false, scopeLine: 234, flags: DIFlagPrototyped, isOptimized: false)
!722 = !DISubroutineType(types: !723)
!723 = !{!717, !689}
!724 = !DISubprogram(name: "eq_int_type", linkageName: "_ZNSt3__111char_traitsIcE11eq_int_typeEii", scope: !682, file: !683, line: 236, type: !725, isLocal: false, isDefinition: false, scopeLine: 236, flags: DIFlagPrototyped, isOptimized: false)
!725 = !DISubroutineType(types: !726)
!726 = !{!233, !717, !717}
!727 = !DISubprogram(name: "eof", linkageName: "_ZNSt3__111char_traitsIcE3eofEv", scope: !682, file: !683, line: 238, type: !728, isLocal: false, isDefinition: false, scopeLine: 238, flags: DIFlagPrototyped, isOptimized: false)
!728 = !DISubroutineType(types: !729)
!729 = !{!717}
!730 = !{!680}
!731 = !DISubprogram(name: "basic_string", scope: !219, file: !220, line: 799, type: !732, isLocal: false, isDefinition: false, scopeLine: 799, flags: DIFlagPublic | DIFlagPrototyped, isOptimized: false)
!732 = !DISubroutineType(types: !733)
!733 = !{null, !497, !546, !464}
!734 = !DISubprogram(name: "basic_string", scope: !219, file: !220, line: 808, type: !735, isLocal: false, isDefinition: false, scopeLine: 808, flags: DIFlagPublic | DIFlagPrototyped, isOptimized: false)
!735 = !DISubroutineType(types: !736)
!736 = !{null, !497, !737}
!737 = distinct !DICompositeType(tag: DW_TAG_class_type, name: "initializer_list<char>", scope: !23, file: !738, line: 59, size: 128, elements: !739, templateParams: !758, identifier: "_ZTSSt16initializer_listIcE")
!738 = !DIFile(filename: "/Applications/Xcode.app/Contents/Developer/Toolchains/XcodeDefault.xctoolchain/usr/include/c++/v1/initializer_list", directory: "/Users/ejiang/Projects/lls/ac")
!739 = !{!740, !741, !742, !746, !749, !754, !757}
!740 = !DIDerivedType(tag: DW_TAG_member, name: "__begin_", scope: !737, file: !738, line: 61, baseType: !210, size: 64)
!741 = !DIDerivedType(tag: DW_TAG_member, name: "__size_", scope: !737, file: !738, line: 62, baseType: !141, size: 64, offset: 64)
!742 = !DISubprogram(name: "initializer_list", scope: !737, file: !738, line: 66, type: !743, isLocal: false, isDefinition: false, scopeLine: 66, flags: DIFlagPrototyped, isOptimized: false)
!743 = !DISubroutineType(types: !744)
!744 = !{null, !745, !210, !141}
!745 = !DIDerivedType(tag: DW_TAG_pointer_type, baseType: !737, size: 64, flags: DIFlagArtificial | DIFlagObjectPointer)
!746 = !DISubprogram(name: "initializer_list", scope: !737, file: !738, line: 81, type: !747, isLocal: false, isDefinition: false, scopeLine: 81, flags: DIFlagPublic | DIFlagPrototyped, isOptimized: false)
!747 = !DISubroutineType(types: !748)
!748 = !{null, !745}
!749 = !DISubprogram(name: "size", linkageName: "_ZNKSt16initializer_listIcE4sizeEv", scope: !737, file: !738, line: 85, type: !750, isLocal: false, isDefinition: false, scopeLine: 85, flags: DIFlagPublic | DIFlagPrototyped, isOptimized: false)
!750 = !DISubroutineType(types: !751)
!751 = !{!141, !752}
!752 = !DIDerivedType(tag: DW_TAG_pointer_type, baseType: !753, size: 64, flags: DIFlagArtificial | DIFlagObjectPointer)
!753 = !DIDerivedType(tag: DW_TAG_const_type, baseType: !737)
!754 = !DISubprogram(name: "begin", linkageName: "_ZNKSt16initializer_listIcE5beginEv", scope: !737, file: !738, line: 89, type: !755, isLocal: false, isDefinition: false, scopeLine: 89, flags: DIFlagPublic | DIFlagPrototyped, isOptimized: false)
!755 = !DISubroutineType(types: !756)
!756 = !{!210, !752}
!757 = !DISubprogram(name: "end", linkageName: "_ZNKSt16initializer_listIcE3endEv", scope: !737, file: !738, line: 93, type: !755, isLocal: false, isDefinition: false, scopeLine: 93, flags: DIFlagPublic | DIFlagPrototyped, isOptimized: false)
!758 = !{!759}
!759 = !DITemplateTypeParameter(name: "_Ep", type: !212)
!760 = !DISubprogram(name: "basic_string", scope: !219, file: !220, line: 810, type: !761, isLocal: false, isDefinition: false, scopeLine: 810, flags: DIFlagPublic | DIFlagPrototyped, isOptimized: false)
!761 = !DISubroutineType(types: !762)
!762 = !{null, !497, !737, !464}
!763 = !DISubprogram(name: "~basic_string", scope: !219, file: !220, line: 813, type: !495, isLocal: false, isDefinition: false, scopeLine: 813, flags: DIFlagPublic | DIFlagPrototyped, isOptimized: false)
!764 = !DISubprogram(name: "operator basic_string_view", linkageName: "_ZNKSt3__112basic_stringIcNS_11char_traitsIcEENS_9allocatorIcEEEcvNS_17basic_string_viewIcS2_EEEv", scope: !219, file: !220, line: 816, type: !765, isLocal: false, isDefinition: false, scopeLine: 816, flags: DIFlagPublic | DIFlagPrototyped, isOptimized: false)
!765 = !DISubroutineType(types: !766)
!766 = !{!546, !767}
!767 = !DIDerivedType(tag: DW_TAG_pointer_type, baseType: !508, size: 64, flags: DIFlagArtificial | DIFlagObjectPointer)
!768 = !DISubprogram(name: "operator=", linkageName: "_ZNSt3__112basic_stringIcNS_11char_traitsIcEENS_9allocatorIcEEEaSERKS5_", scope: !219, file: !220, line: 818, type: !769, isLocal: false, isDefinition: false, scopeLine: 818, flags: DIFlagPublic | DIFlagPrototyped, isOptimized: false)
!769 = !DISubroutineType(types: !770)
!770 = !{!771, !497, !507}
!771 = !DIDerivedType(tag: DW_TAG_reference_type, baseType: !219, size: 64)
!772 = !DISubprogram(name: "operator=", linkageName: "_ZNSt3__112basic_stringIcNS_11char_traitsIcEENS_9allocatorIcEEEaSEOS5_", scope: !219, file: !220, line: 827, type: !773, isLocal: false, isDefinition: false, scopeLine: 827, flags: DIFlagPublic | DIFlagPrototyped, isOptimized: false)
!773 = !DISubroutineType(types: !774)
!774 = !{!771, !497, !515}
!775 = !DISubprogram(name: "operator=", linkageName: "_ZNSt3__112basic_stringIcNS_11char_traitsIcEENS_9allocatorIcEEEaSESt16initializer_listIcE", scope: !219, file: !220, line: 830, type: !776, isLocal: false, isDefinition: false, scopeLine: 830, flags: DIFlagPublic | DIFlagPrototyped, isOptimized: false)
!776 = !DISubroutineType(types: !777)
!777 = !{!771, !497, !737}
!778 = !DISubprogram(name: "operator=", linkageName: "_ZNSt3__112basic_stringIcNS_11char_traitsIcEENS_9allocatorIcEEEaSEPKc", scope: !219, file: !220, line: 832, type: !779, isLocal: false, isDefinition: false, scopeLine: 832, flags: DIFlagPublic | DIFlagPrototyped, isOptimized: false)
!779 = !DISubroutineType(types: !780)
!780 = !{!771, !497, !781}
!781 = !DIDerivedType(tag: DW_TAG_pointer_type, baseType: !782, size: 64)
!782 = !DIDerivedType(tag: DW_TAG_const_type, baseType: !414)
!783 = !DISubprogram(name: "operator=", linkageName: "_ZNSt3__112basic_stringIcNS_11char_traitsIcEENS_9allocatorIcEEEaSEc", scope: !219, file: !220, line: 833, type: !784, isLocal: false, isDefinition: false, scopeLine: 833, flags: DIFlagPublic | DIFlagPrototyped, isOptimized: false)
!784 = !DISubroutineType(types: !785)
!785 = !{!771, !497, !414}
!786 = !DISubprogram(name: "begin", linkageName: "_ZNSt3__112basic_stringIcNS_11char_traitsIcEENS_9allocatorIcEEE5beginEv", scope: !219, file: !220, line: 850, type: !787, isLocal: false, isDefinition: false, scopeLine: 850, flags: DIFlagPublic | DIFlagPrototyped, isOptimized: false)
!787 = !DISubroutineType(types: !788)
!788 = !{!789, !497}
!789 = !DIDerivedType(tag: DW_TAG_typedef, name: "iterator", scope: !219, file: !220, line: 656, baseType: !790)
!790 = !DICompositeType(tag: DW_TAG_class_type, name: "__wrap_iter<char *>", scope: !22, file: !591, line: 1279, flags: DIFlagFwdDecl, identifier: "_ZTSNSt3__111__wrap_iterIPcEE")
!791 = !DISubprogram(name: "begin", linkageName: "_ZNKSt3__112basic_stringIcNS_11char_traitsIcEENS_9allocatorIcEEE5beginEv", scope: !219, file: !220, line: 853, type: !792, isLocal: false, isDefinition: false, scopeLine: 853, flags: DIFlagPublic | DIFlagPrototyped, isOptimized: false)
!792 = !DISubroutineType(types: !793)
!793 = !{!794, !767}
!794 = !DIDerivedType(tag: DW_TAG_typedef, name: "const_iterator", scope: !219, file: !220, line: 657, baseType: !795)
!795 = !DICompositeType(tag: DW_TAG_class_type, name: "__wrap_iter<const char *>", scope: !22, file: !591, line: 1279, flags: DIFlagFwdDecl, identifier: "_ZTSNSt3__111__wrap_iterIPKcEE")
!796 = !DISubprogram(name: "end", linkageName: "_ZNSt3__112basic_stringIcNS_11char_traitsIcEENS_9allocatorIcEEE3endEv", scope: !219, file: !220, line: 856, type: !787, isLocal: false, isDefinition: false, scopeLine: 856, flags: DIFlagPublic | DIFlagPrototyped, isOptimized: false)
!797 = !DISubprogram(name: "end", linkageName: "_ZNKSt3__112basic_stringIcNS_11char_traitsIcEENS_9allocatorIcEEE3endEv", scope: !219, file: !220, line: 859, type: !792, isLocal: false, isDefinition: false, scopeLine: 859, flags: DIFlagPublic | DIFlagPrototyped, isOptimized: false)
!798 = !DISubprogram(name: "rbegin", linkageName: "_ZNSt3__112basic_stringIcNS_11char_traitsIcEENS_9allocatorIcEEE6rbeginEv", scope: !219, file: !220, line: 863, type: !799, isLocal: false, isDefinition: false, scopeLine: 863, flags: DIFlagPublic | DIFlagPrototyped, isOptimized: false)
!799 = !DISubroutineType(types: !800)
!800 = !{!801, !497}
!801 = !DIDerivedType(tag: DW_TAG_typedef, name: "reverse_iterator", scope: !219, file: !220, line: 659, baseType: !802)
!802 = !DICompositeType(tag: DW_TAG_class_type, name: "reverse_iterator<std::__1::__wrap_iter<char *> >", scope: !22, file: !591, line: 636, flags: DIFlagFwdDecl, identifier: "_ZTSNSt3__116reverse_iteratorINS_11__wrap_iterIPcEEEE")
!803 = !DISubprogram(name: "rbegin", linkageName: "_ZNKSt3__112basic_stringIcNS_11char_traitsIcEENS_9allocatorIcEEE6rbeginEv", scope: !219, file: !220, line: 866, type: !804, isLocal: false, isDefinition: false, scopeLine: 866, flags: DIFlagPublic | DIFlagPrototyped, isOptimized: false)
!804 = !DISubroutineType(types: !805)
!805 = !{!806, !767}
!806 = !DIDerivedType(tag: DW_TAG_typedef, name: "const_reverse_iterator", scope: !219, file: !220, line: 660, baseType: !807)
!807 = !DICompositeType(tag: DW_TAG_class_type, name: "reverse_iterator<std::__1::__wrap_iter<const char *> >", scope: !22, file: !591, line: 636, flags: DIFlagFwdDecl, identifier: "_ZTSNSt3__116reverse_iteratorINS_11__wrap_iterIPKcEEEE")
!808 = !DISubprogram(name: "rend", linkageName: "_ZNSt3__112basic_stringIcNS_11char_traitsIcEENS_9allocatorIcEEE4rendEv", scope: !219, file: !220, line: 869, type: !799, isLocal: false, isDefinition: false, scopeLine: 869, flags: DIFlagPublic | DIFlagPrototyped, isOptimized: false)
!809 = !DISubprogram(name: "rend", linkageName: "_ZNKSt3__112basic_stringIcNS_11char_traitsIcEENS_9allocatorIcEEE4rendEv", scope: !219, file: !220, line: 872, type: !804, isLocal: false, isDefinition: false, scopeLine: 872, flags: DIFlagPublic | DIFlagPrototyped, isOptimized: false)
!810 = !DISubprogram(name: "cbegin", linkageName: "_ZNKSt3__112basic_stringIcNS_11char_traitsIcEENS_9allocatorIcEEE6cbeginEv", scope: !219, file: !220, line: 876, type: !792, isLocal: false, isDefinition: false, scopeLine: 876, flags: DIFlagPublic | DIFlagPrototyped, isOptimized: false)
!811 = !DISubprogram(name: "cend", linkageName: "_ZNKSt3__112basic_stringIcNS_11char_traitsIcEENS_9allocatorIcEEE4cendEv", scope: !219, file: !220, line: 879, type: !792, isLocal: false, isDefinition: false, scopeLine: 879, flags: DIFlagPublic | DIFlagPrototyped, isOptimized: false)
!812 = !DISubprogram(name: "crbegin", linkageName: "_ZNKSt3__112basic_stringIcNS_11char_traitsIcEENS_9allocatorIcEEE7crbeginEv", scope: !219, file: !220, line: 882, type: !804, isLocal: false, isDefinition: false, scopeLine: 882, flags: DIFlagPublic | DIFlagPrototyped, isOptimized: false)
!813 = !DISubprogram(name: "crend", linkageName: "_ZNKSt3__112basic_stringIcNS_11char_traitsIcEENS_9allocatorIcEEE5crendEv", scope: !219, file: !220, line: 885, type: !804, isLocal: false, isDefinition: false, scopeLine: 885, flags: DIFlagPublic | DIFlagPrototyped, isOptimized: false)
!814 = !DISubprogram(name: "size", linkageName: "_ZNKSt3__112basic_stringIcNS_11char_traitsIcEENS_9allocatorIcEEE4sizeEv", scope: !219, file: !220, line: 888, type: !815, isLocal: false, isDefinition: false, scopeLine: 888, flags: DIFlagPublic | DIFlagPrototyped, isOptimized: false)
!815 = !DISubroutineType(types: !816)
!816 = !{!236, !767}
!817 = !DISubprogram(name: "length", linkageName: "_ZNKSt3__112basic_stringIcNS_11char_traitsIcEENS_9allocatorIcEEE6lengthEv", scope: !219, file: !220, line: 890, type: !815, isLocal: false, isDefinition: false, scopeLine: 890, flags: DIFlagPublic | DIFlagPrototyped, isOptimized: false)
!818 = !DISubprogram(name: "max_size", linkageName: "_ZNKSt3__112basic_stringIcNS_11char_traitsIcEENS_9allocatorIcEEE8max_sizeEv", scope: !219, file: !220, line: 891, type: !815, isLocal: false, isDefinition: false, scopeLine: 891, flags: DIFlagPublic | DIFlagPrototyped, isOptimized: false)
!819 = !DISubprogram(name: "capacity", linkageName: "_ZNKSt3__112basic_stringIcNS_11char_traitsIcEENS_9allocatorIcEEE8capacityEv", scope: !219, file: !220, line: 892, type: !815, isLocal: false, isDefinition: false, scopeLine: 892, flags: DIFlagPublic | DIFlagPrototyped, isOptimized: false)
!820 = !DISubprogram(name: "resize", linkageName: "_ZNSt3__112basic_stringIcNS_11char_traitsIcEENS_9allocatorIcEEE6resizeEmc", scope: !219, file: !220, line: 896, type: !821, isLocal: false, isDefinition: false, scopeLine: 896, flags: DIFlagPublic | DIFlagPrototyped, isOptimized: false)
!821 = !DISubroutineType(types: !822)
!822 = !{null, !497, !236, !414}
!823 = !DISubprogram(name: "resize", linkageName: "_ZNSt3__112basic_stringIcNS_11char_traitsIcEENS_9allocatorIcEEE6resizeEm", scope: !219, file: !220, line: 897, type: !824, isLocal: false, isDefinition: false, scopeLine: 897, flags: DIFlagPublic | DIFlagPrototyped, isOptimized: false)
!824 = !DISubroutineType(types: !825)
!825 = !{null, !497, !236}
!826 = !DISubprogram(name: "reserve", linkageName: "_ZNSt3__112basic_stringIcNS_11char_traitsIcEENS_9allocatorIcEEE7reserveEm", scope: !219, file: !220, line: 899, type: !824, isLocal: false, isDefinition: false, scopeLine: 899, flags: DIFlagPublic | DIFlagPrototyped, isOptimized: false)
!827 = !DISubprogram(name: "shrink_to_fit", linkageName: "_ZNSt3__112basic_stringIcNS_11char_traitsIcEENS_9allocatorIcEEE13shrink_to_fitEv", scope: !219, file: !220, line: 901, type: !495, isLocal: false, isDefinition: false, scopeLine: 901, flags: DIFlagPublic | DIFlagPrototyped, isOptimized: false)
!828 = !DISubprogram(name: "clear", linkageName: "_ZNSt3__112basic_stringIcNS_11char_traitsIcEENS_9allocatorIcEEE5clearEv", scope: !219, file: !220, line: 903, type: !495, isLocal: false, isDefinition: false, scopeLine: 903, flags: DIFlagPublic | DIFlagPrototyped, isOptimized: false)
!829 = !DISubprogram(name: "empty", linkageName: "_ZNKSt3__112basic_stringIcNS_11char_traitsIcEENS_9allocatorIcEEE5emptyEv", scope: !219, file: !220, line: 904, type: !830, isLocal: false, isDefinition: false, scopeLine: 904, flags: DIFlagPublic | DIFlagPrototyped, isOptimized: false)
!830 = !DISubroutineType(types: !831)
!831 = !{!233, !767}
!832 = !DISubprogram(name: "operator[]", linkageName: "_ZNKSt3__112basic_stringIcNS_11char_traitsIcEENS_9allocatorIcEEEixEm", scope: !219, file: !220, line: 906, type: !833, isLocal: false, isDefinition: false, scopeLine: 906, flags: DIFlagPublic | DIFlagPrototyped, isOptimized: false)
!833 = !DISubroutineType(types: !834)
!834 = !{!835, !767, !236}
!835 = !DIDerivedType(tag: DW_TAG_typedef, name: "const_reference", scope: !219, file: !220, line: 643, baseType: !836)
!836 = !DIDerivedType(tag: DW_TAG_reference_type, baseType: !782, size: 64)
!837 = !DISubprogram(name: "operator[]", linkageName: "_ZNSt3__112basic_stringIcNS_11char_traitsIcEENS_9allocatorIcEEEixEm", scope: !219, file: !220, line: 907, type: !838, isLocal: false, isDefinition: false, scopeLine: 907, flags: DIFlagPublic | DIFlagPrototyped, isOptimized: false)
!838 = !DISubroutineType(types: !839)
!839 = !{!840, !497, !236}
!840 = !DIDerivedType(tag: DW_TAG_typedef, name: "reference", scope: !219, file: !220, line: 642, baseType: !841)
!841 = !DIDerivedType(tag: DW_TAG_reference_type, baseType: !414, size: 64)
!842 = !DISubprogram(name: "at", linkageName: "_ZNKSt3__112basic_stringIcNS_11char_traitsIcEENS_9allocatorIcEEE2atEm", scope: !219, file: !220, line: 909, type: !833, isLocal: false, isDefinition: false, scopeLine: 909, flags: DIFlagPublic | DIFlagPrototyped, isOptimized: false)
!843 = !DISubprogram(name: "at", linkageName: "_ZNSt3__112basic_stringIcNS_11char_traitsIcEENS_9allocatorIcEEE2atEm", scope: !219, file: !220, line: 910, type: !838, isLocal: false, isDefinition: false, scopeLine: 910, flags: DIFlagPublic | DIFlagPrototyped, isOptimized: false)
!844 = !DISubprogram(name: "operator+=", linkageName: "_ZNSt3__112basic_stringIcNS_11char_traitsIcEENS_9allocatorIcEEEpLERKS5_", scope: !219, file: !220, line: 912, type: !769, isLocal: false, isDefinition: false, scopeLine: 912, flags: DIFlagPublic | DIFlagPrototyped, isOptimized: false)
!845 = !DISubprogram(name: "operator+=", linkageName: "_ZNSt3__112basic_stringIcNS_11char_traitsIcEENS_9allocatorIcEEEpLENS_17basic_string_viewIcS2_EE", scope: !219, file: !220, line: 913, type: !846, isLocal: false, isDefinition: false, scopeLine: 913, flags: DIFlagPublic | DIFlagPrototyped, isOptimized: false)
!846 = !DISubroutineType(types: !847)
!847 = !{!771, !497, !546}
!848 = !DISubprogram(name: "operator+=", linkageName: "_ZNSt3__112basic_stringIcNS_11char_traitsIcEENS_9allocatorIcEEEpLEPKc", scope: !219, file: !220, line: 914, type: !779, isLocal: false, isDefinition: false, scopeLine: 914, flags: DIFlagPublic | DIFlagPrototyped, isOptimized: false)
!849 = !DISubprogram(name: "operator+=", linkageName: "_ZNSt3__112basic_stringIcNS_11char_traitsIcEENS_9allocatorIcEEEpLEc", scope: !219, file: !220, line: 915, type: !784, isLocal: false, isDefinition: false, scopeLine: 915, flags: DIFlagPublic | DIFlagPrototyped, isOptimized: false)
!850 = !DISubprogram(name: "operator+=", linkageName: "_ZNSt3__112basic_stringIcNS_11char_traitsIcEENS_9allocatorIcEEEpLESt16initializer_listIcE", scope: !219, file: !220, line: 917, type: !776, isLocal: false, isDefinition: false, scopeLine: 917, flags: DIFlagPublic | DIFlagPrototyped, isOptimized: false)
!851 = !DISubprogram(name: "append", linkageName: "_ZNSt3__112basic_stringIcNS_11char_traitsIcEENS_9allocatorIcEEE6appendERKS5_", scope: !219, file: !220, line: 921, type: !769, isLocal: false, isDefinition: false, scopeLine: 921, flags: DIFlagPublic | DIFlagPrototyped, isOptimized: false)
!852 = !DISubprogram(name: "append", linkageName: "_ZNSt3__112basic_stringIcNS_11char_traitsIcEENS_9allocatorIcEEE6appendENS_17basic_string_viewIcS2_EE", scope: !219, file: !220, line: 923, type: !846, isLocal: false, isDefinition: false, scopeLine: 923, flags: DIFlagPublic | DIFlagPrototyped, isOptimized: false)
!853 = !DISubprogram(name: "append", linkageName: "_ZNSt3__112basic_stringIcNS_11char_traitsIcEENS_9allocatorIcEEE6appendERKS5_mm", scope: !219, file: !220, line: 924, type: !854, isLocal: false, isDefinition: false, scopeLine: 924, flags: DIFlagPublic | DIFlagPrototyped, isOptimized: false)
!854 = !DISubroutineType(types: !855)
!855 = !{!771, !497, !507, !236, !236}
!856 = !DISubprogram(name: "append", linkageName: "_ZNSt3__112basic_stringIcNS_11char_traitsIcEENS_9allocatorIcEEE6appendEPKcm", scope: !219, file: !220, line: 933, type: !857, isLocal: false, isDefinition: false, scopeLine: 933, flags: DIFlagPublic | DIFlagPrototyped, isOptimized: false)
!857 = !DISubroutineType(types: !858)
!858 = !{!771, !497, !781, !236}
!859 = !DISubprogram(name: "append", linkageName: "_ZNSt3__112basic_stringIcNS_11char_traitsIcEENS_9allocatorIcEEE6appendEPKc", scope: !219, file: !220, line: 934, type: !779, isLocal: false, isDefinition: false, scopeLine: 934, flags: DIFlagPublic | DIFlagPrototyped, isOptimized: false)
!860 = !DISubprogram(name: "append", linkageName: "_ZNSt3__112basic_stringIcNS_11char_traitsIcEENS_9allocatorIcEEE6appendEmc", scope: !219, file: !220, line: 935, type: !861, isLocal: false, isDefinition: false, scopeLine: 935, flags: DIFlagPublic | DIFlagPrototyped, isOptimized: false)
!861 = !DISubroutineType(types: !862)
!862 = !{!771, !497, !236, !414}
!863 = !DISubprogram(name: "append", linkageName: "_ZNSt3__112basic_stringIcNS_11char_traitsIcEENS_9allocatorIcEEE6appendESt16initializer_listIcE", scope: !219, file: !220, line: 968, type: !776, isLocal: false, isDefinition: false, scopeLine: 968, flags: DIFlagPublic | DIFlagPrototyped, isOptimized: false)
!864 = !DISubprogram(name: "push_back", linkageName: "_ZNSt3__112basic_stringIcNS_11char_traitsIcEENS_9allocatorIcEEE9push_backEc", scope: !219, file: !220, line: 971, type: !865, isLocal: false, isDefinition: false, scopeLine: 971, flags: DIFlagPublic | DIFlagPrototyped, isOptimized: false)
!865 = !DISubroutineType(types: !866)
!866 = !{null, !497, !414}
!867 = !DISubprogram(name: "pop_back", linkageName: "_ZNSt3__112basic_stringIcNS_11char_traitsIcEENS_9allocatorIcEEE8pop_backEv", scope: !219, file: !220, line: 973, type: !495, isLocal: false, isDefinition: false, scopeLine: 973, flags: DIFlagPublic | DIFlagPrototyped, isOptimized: false)
!868 = !DISubprogram(name: "front", linkageName: "_ZNSt3__112basic_stringIcNS_11char_traitsIcEENS_9allocatorIcEEE5frontEv", scope: !219, file: !220, line: 974, type: !869, isLocal: false, isDefinition: false, scopeLine: 974, flags: DIFlagPublic | DIFlagPrototyped, isOptimized: false)
!869 = !DISubroutineType(types: !870)
!870 = !{!840, !497}
!871 = !DISubprogram(name: "front", linkageName: "_ZNKSt3__112basic_stringIcNS_11char_traitsIcEENS_9allocatorIcEEE5frontEv", scope: !219, file: !220, line: 975, type: !872, isLocal: false, isDefinition: false, scopeLine: 975, flags: DIFlagPublic | DIFlagPrototyped, isOptimized: false)
!872 = !DISubroutineType(types: !873)
!873 = !{!835, !767}
!874 = !DISubprogram(name: "back", linkageName: "_ZNSt3__112basic_stringIcNS_11char_traitsIcEENS_9allocatorIcEEE4backEv", scope: !219, file: !220, line: 976, type: !869, isLocal: false, isDefinition: false, scopeLine: 976, flags: DIFlagPublic | DIFlagPrototyped, isOptimized: false)
!875 = !DISubprogram(name: "back", linkageName: "_ZNKSt3__112basic_stringIcNS_11char_traitsIcEENS_9allocatorIcEEE4backEv", scope: !219, file: !220, line: 977, type: !872, isLocal: false, isDefinition: false, scopeLine: 977, flags: DIFlagPublic | DIFlagPrototyped, isOptimized: false)
!876 = !DISubprogram(name: "assign", linkageName: "_ZNSt3__112basic_stringIcNS_11char_traitsIcEENS_9allocatorIcEEE6assignENS_17basic_string_viewIcS2_EE", scope: !219, file: !220, line: 980, type: !846, isLocal: false, isDefinition: false, scopeLine: 980, flags: DIFlagPublic | DIFlagPrototyped, isOptimized: false)
!877 = !DISubprogram(name: "assign", linkageName: "_ZNSt3__112basic_stringIcNS_11char_traitsIcEENS_9allocatorIcEEE6assignERKS5_", scope: !219, file: !220, line: 982, type: !769, isLocal: false, isDefinition: false, scopeLine: 982, flags: DIFlagPublic | DIFlagPrototyped, isOptimized: false)
!878 = !DISubprogram(name: "assign", linkageName: "_ZNSt3__112basic_stringIcNS_11char_traitsIcEENS_9allocatorIcEEE6assignEOS5_", scope: !219, file: !220, line: 985, type: !773, isLocal: false, isDefinition: false, scopeLine: 985, flags: DIFlagPublic | DIFlagPrototyped, isOptimized: false)
!879 = !DISubprogram(name: "assign", linkageName: "_ZNSt3__112basic_stringIcNS_11char_traitsIcEENS_9allocatorIcEEE6assignERKS5_mm", scope: !219, file: !220, line: 989, type: !854, isLocal: false, isDefinition: false, scopeLine: 989, flags: DIFlagPublic | DIFlagPrototyped, isOptimized: false)
!880 = !DISubprogram(name: "assign", linkageName: "_ZNSt3__112basic_stringIcNS_11char_traitsIcEENS_9allocatorIcEEE6assignEPKcm", scope: !219, file: !220, line: 998, type: !857, isLocal: false, isDefinition: false, scopeLine: 998, flags: DIFlagPublic | DIFlagPrototyped, isOptimized: false)
!881 = !DISubprogram(name: "assign", linkageName: "_ZNSt3__112basic_stringIcNS_11char_traitsIcEENS_9allocatorIcEEE6assignEPKc", scope: !219, file: !220, line: 999, type: !779, isLocal: false, isDefinition: false, scopeLine: 999, flags: DIFlagPublic | DIFlagPrototyped, isOptimized: false)
!882 = !DISubprogram(name: "assign", linkageName: "_ZNSt3__112basic_stringIcNS_11char_traitsIcEENS_9allocatorIcEEE6assignEmc", scope: !219, file: !220, line: 1000, type: !861, isLocal: false, isDefinition: false, scopeLine: 1000, flags: DIFlagPublic | DIFlagPrototyped, isOptimized: false)
!883 = !DISubprogram(name: "assign", linkageName: "_ZNSt3__112basic_stringIcNS_11char_traitsIcEENS_9allocatorIcEEE6assignESt16initializer_listIcE", scope: !219, file: !220, line: 1021, type: !776, isLocal: false, isDefinition: false, scopeLine: 1021, flags: DIFlagPublic | DIFlagPrototyped, isOptimized: false)
!884 = !DISubprogram(name: "insert", linkageName: "_ZNSt3__112basic_stringIcNS_11char_traitsIcEENS_9allocatorIcEEE6insertEmRKS5_", scope: !219, file: !220, line: 1025, type: !885, isLocal: false, isDefinition: false, scopeLine: 1025, flags: DIFlagPublic | DIFlagPrototyped, isOptimized: false)
!885 = !DISubroutineType(types: !886)
!886 = !{!771, !497, !236, !507}
!887 = !DISubprogram(name: "insert", linkageName: "_ZNSt3__112basic_stringIcNS_11char_traitsIcEENS_9allocatorIcEEE6insertEmNS_17basic_string_viewIcS2_EE", scope: !219, file: !220, line: 1027, type: !888, isLocal: false, isDefinition: false, scopeLine: 1027, flags: DIFlagPublic | DIFlagPrototyped, isOptimized: false)
!888 = !DISubroutineType(types: !889)
!889 = !{!771, !497, !236, !546}
!890 = !DISubprogram(name: "insert", linkageName: "_ZNSt3__112basic_stringIcNS_11char_traitsIcEENS_9allocatorIcEEE6insertEmRKS5_mm", scope: !219, file: !220, line: 1036, type: !891, isLocal: false, isDefinition: false, scopeLine: 1036, flags: DIFlagPublic | DIFlagPrototyped, isOptimized: false)
!891 = !DISubroutineType(types: !892)
!892 = !{!771, !497, !236, !507, !236, !236}
!893 = !DISubprogram(name: "insert", linkageName: "_ZNSt3__112basic_stringIcNS_11char_traitsIcEENS_9allocatorIcEEE6insertEmPKcm", scope: !219, file: !220, line: 1037, type: !894, isLocal: false, isDefinition: false, scopeLine: 1037, flags: DIFlagPublic | DIFlagPrototyped, isOptimized: false)
!894 = !DISubroutineType(types: !895)
!895 = !{!771, !497, !236, !781, !236}
!896 = !DISubprogram(name: "insert", linkageName: "_ZNSt3__112basic_stringIcNS_11char_traitsIcEENS_9allocatorIcEEE6insertEmPKc", scope: !219, file: !220, line: 1038, type: !897, isLocal: false, isDefinition: false, scopeLine: 1038, flags: DIFlagPublic | DIFlagPrototyped, isOptimized: false)
!897 = !DISubroutineType(types: !898)
!898 = !{!771, !497, !236, !781}
!899 = !DISubprogram(name: "insert", linkageName: "_ZNSt3__112basic_stringIcNS_11char_traitsIcEENS_9allocatorIcEEE6insertEmmc", scope: !219, file: !220, line: 1039, type: !900, isLocal: false, isDefinition: false, scopeLine: 1039, flags: DIFlagPublic | DIFlagPrototyped, isOptimized: false)
!900 = !DISubroutineType(types: !901)
!901 = !{!771, !497, !236, !236, !414}
!902 = !DISubprogram(name: "insert", linkageName: "_ZNSt3__112basic_stringIcNS_11char_traitsIcEENS_9allocatorIcEEE6insertENS_11__wrap_iterIPKcEEc", scope: !219, file: !220, line: 1040, type: !903, isLocal: false, isDefinition: false, scopeLine: 1040, flags: DIFlagPublic | DIFlagPrototyped, isOptimized: false)
!903 = !DISubroutineType(types: !904)
!904 = !{!789, !497, !794, !414}
!905 = !DISubprogram(name: "insert", linkageName: "_ZNSt3__112basic_stringIcNS_11char_traitsIcEENS_9allocatorIcEEE6insertENS_11__wrap_iterIPKcEEmc", scope: !219, file: !220, line: 1042, type: !906, isLocal: false, isDefinition: false, scopeLine: 1042, flags: DIFlagPublic | DIFlagPrototyped, isOptimized: false)
!906 = !DISubroutineType(types: !907)
!907 = !{!789, !497, !794, !236, !414}
!908 = !DISubprogram(name: "insert", linkageName: "_ZNSt3__112basic_stringIcNS_11char_traitsIcEENS_9allocatorIcEEE6insertENS_11__wrap_iterIPKcEESt16initializer_listIcE", scope: !219, file: !220, line: 1063, type: !909, isLocal: false, isDefinition: false, scopeLine: 1063, flags: DIFlagPublic | DIFlagPrototyped, isOptimized: false)
!909 = !DISubroutineType(types: !910)
!910 = !{!789, !497, !794, !737}
!911 = !DISubprogram(name: "erase", linkageName: "_ZNSt3__112basic_stringIcNS_11char_traitsIcEENS_9allocatorIcEEE5eraseEmm", scope: !219, file: !220, line: 1067, type: !912, isLocal: false, isDefinition: false, scopeLine: 1067, flags: DIFlagPublic | DIFlagPrototyped, isOptimized: false)
!912 = !DISubroutineType(types: !913)
!913 = !{!771, !497, !236, !236}
!914 = !DISubprogram(name: "erase", linkageName: "_ZNSt3__112basic_stringIcNS_11char_traitsIcEENS_9allocatorIcEEE5eraseENS_11__wrap_iterIPKcEE", scope: !219, file: !220, line: 1069, type: !915, isLocal: false, isDefinition: false, scopeLine: 1069, flags: DIFlagPublic | DIFlagPrototyped, isOptimized: false)
!915 = !DISubroutineType(types: !916)
!916 = !{!789, !497, !794}
!917 = !DISubprogram(name: "erase", linkageName: "_ZNSt3__112basic_stringIcNS_11char_traitsIcEENS_9allocatorIcEEE5eraseENS_11__wrap_iterIPKcEES9_", scope: !219, file: !220, line: 1071, type: !918, isLocal: false, isDefinition: false, scopeLine: 1071, flags: DIFlagPublic | DIFlagPrototyped, isOptimized: false)
!918 = !DISubroutineType(types: !919)
!919 = !{!789, !497, !794, !794}
!920 = !DISubprogram(name: "replace", linkageName: "_ZNSt3__112basic_stringIcNS_11char_traitsIcEENS_9allocatorIcEEE7replaceEmmRKS5_", scope: !219, file: !220, line: 1074, type: !921, isLocal: false, isDefinition: false, scopeLine: 1074, flags: DIFlagPublic | DIFlagPrototyped, isOptimized: false)
!921 = !DISubroutineType(types: !922)
!922 = !{!771, !497, !236, !236, !507}
!923 = !DISubprogram(name: "replace", linkageName: "_ZNSt3__112basic_stringIcNS_11char_traitsIcEENS_9allocatorIcEEE7replaceEmmNS_17basic_string_viewIcS2_EE", scope: !219, file: !220, line: 1076, type: !924, isLocal: false, isDefinition: false, scopeLine: 1076, flags: DIFlagPublic | DIFlagPrototyped, isOptimized: false)
!924 = !DISubroutineType(types: !925)
!925 = !{!771, !497, !236, !236, !546}
!926 = !DISubprogram(name: "replace", linkageName: "_ZNSt3__112basic_stringIcNS_11char_traitsIcEENS_9allocatorIcEEE7replaceEmmRKS5_mm", scope: !219, file: !220, line: 1077, type: !927, isLocal: false, isDefinition: false, scopeLine: 1077, flags: DIFlagPublic | DIFlagPrototyped, isOptimized: false)
!927 = !DISubroutineType(types: !928)
!928 = !{!771, !497, !236, !236, !507, !236, !236}
!929 = !DISubprogram(name: "replace", linkageName: "_ZNSt3__112basic_stringIcNS_11char_traitsIcEENS_9allocatorIcEEE7replaceEmmPKcm", scope: !219, file: !220, line: 1086, type: !930, isLocal: false, isDefinition: false, scopeLine: 1086, flags: DIFlagPublic | DIFlagPrototyped, isOptimized: false)
!930 = !DISubroutineType(types: !931)
!931 = !{!771, !497, !236, !236, !781, !236}
!932 = !DISubprogram(name: "replace", linkageName: "_ZNSt3__112basic_stringIcNS_11char_traitsIcEENS_9allocatorIcEEE7replaceEmmPKc", scope: !219, file: !220, line: 1087, type: !933, isLocal: false, isDefinition: false, scopeLine: 1087, flags: DIFlagPublic | DIFlagPrototyped, isOptimized: false)
!933 = !DISubroutineType(types: !934)
!934 = !{!771, !497, !236, !236, !781}
!935 = !DISubprogram(name: "replace", linkageName: "_ZNSt3__112basic_stringIcNS_11char_traitsIcEENS_9allocatorIcEEE7replaceEmmmc", scope: !219, file: !220, line: 1088, type: !936, isLocal: false, isDefinition: false, scopeLine: 1088, flags: DIFlagPublic | DIFlagPrototyped, isOptimized: false)
!936 = !DISubroutineType(types: !937)
!937 = !{!771, !497, !236, !236, !236, !414}
!938 = !DISubprogram(name: "replace", linkageName: "_ZNSt3__112basic_stringIcNS_11char_traitsIcEENS_9allocatorIcEEE7replaceENS_11__wrap_iterIPKcEES9_RKS5_", scope: !219, file: !220, line: 1090, type: !939, isLocal: false, isDefinition: false, scopeLine: 1090, flags: DIFlagPublic | DIFlagPrototyped, isOptimized: false)
!939 = !DISubroutineType(types: !940)
!940 = !{!771, !497, !794, !794, !507}
!941 = !DISubprogram(name: "replace", linkageName: "_ZNSt3__112basic_stringIcNS_11char_traitsIcEENS_9allocatorIcEEE7replaceENS_11__wrap_iterIPKcEES9_NS_17basic_string_viewIcS2_EE", scope: !219, file: !220, line: 1092, type: !942, isLocal: false, isDefinition: false, scopeLine: 1092, flags: DIFlagPublic | DIFlagPrototyped, isOptimized: false)
!942 = !DISubroutineType(types: !943)
!943 = !{!771, !497, !794, !794, !546}
!944 = !DISubprogram(name: "replace", linkageName: "_ZNSt3__112basic_stringIcNS_11char_traitsIcEENS_9allocatorIcEEE7replaceENS_11__wrap_iterIPKcEES9_S8_m", scope: !219, file: !220, line: 1094, type: !945, isLocal: false, isDefinition: false, scopeLine: 1094, flags: DIFlagPublic | DIFlagPrototyped, isOptimized: false)
!945 = !DISubroutineType(types: !946)
!946 = !{!771, !497, !794, !794, !781, !236}
!947 = !DISubprogram(name: "replace", linkageName: "_ZNSt3__112basic_stringIcNS_11char_traitsIcEENS_9allocatorIcEEE7replaceENS_11__wrap_iterIPKcEES9_S8_", scope: !219, file: !220, line: 1096, type: !948, isLocal: false, isDefinition: false, scopeLine: 1096, flags: DIFlagPublic | DIFlagPrototyped, isOptimized: false)
!948 = !DISubroutineType(types: !949)
!949 = !{!771, !497, !794, !794, !781}
!950 = !DISubprogram(name: "replace", linkageName: "_ZNSt3__112basic_stringIcNS_11char_traitsIcEENS_9allocatorIcEEE7replaceENS_11__wrap_iterIPKcEES9_mc", scope: !219, file: !220, line: 1098, type: !951, isLocal: false, isDefinition: false, scopeLine: 1098, flags: DIFlagPublic | DIFlagPrototyped, isOptimized: false)
!951 = !DISubroutineType(types: !952)
!952 = !{!771, !497, !794, !794, !236, !414}
!953 = !DISubprogram(name: "replace", linkageName: "_ZNSt3__112basic_stringIcNS_11char_traitsIcEENS_9allocatorIcEEE7replaceENS_11__wrap_iterIPKcEES9_St16initializer_listIcE", scope: !219, file: !220, line: 1109, type: !954, isLocal: false, isDefinition: false, scopeLine: 1109, flags: DIFlagPublic | DIFlagPrototyped, isOptimized: false)
!954 = !DISubroutineType(types: !955)
!955 = !{!771, !497, !794, !794, !737}
!956 = !DISubprogram(name: "copy", linkageName: "_ZNKSt3__112basic_stringIcNS_11char_traitsIcEENS_9allocatorIcEEE4copyEPcmm", scope: !219, file: !220, line: 1113, type: !957, isLocal: false, isDefinition: false, scopeLine: 1113, flags: DIFlagPublic | DIFlagPrototyped, isOptimized: false)
!957 = !DISubroutineType(types: !958)
!958 = !{!236, !767, !959, !236, !236}
!959 = !DIDerivedType(tag: DW_TAG_pointer_type, baseType: !414, size: 64)
!960 = !DISubprogram(name: "substr", linkageName: "_ZNKSt3__112basic_stringIcNS_11char_traitsIcEENS_9allocatorIcEEE6substrEmm", scope: !219, file: !220, line: 1115, type: !961, isLocal: false, isDefinition: false, scopeLine: 1115, flags: DIFlagPublic | DIFlagPrototyped, isOptimized: false)
!961 = !DISubroutineType(types: !962)
!962 = !{!219, !767, !236, !236}
!963 = !DISubprogram(name: "swap", linkageName: "_ZNSt3__112basic_stringIcNS_11char_traitsIcEENS_9allocatorIcEEE4swapERS5_", scope: !219, file: !220, line: 1118, type: !964, isLocal: false, isDefinition: false, scopeLine: 1118, flags: DIFlagPublic | DIFlagPrototyped, isOptimized: false)
!964 = !DISubroutineType(types: !965)
!965 = !{null, !497, !771}
!966 = !DISubprogram(name: "c_str", linkageName: "_ZNKSt3__112basic_stringIcNS_11char_traitsIcEENS_9allocatorIcEEE5c_strEv", scope: !219, file: !220, line: 1127, type: !967, isLocal: false, isDefinition: false, scopeLine: 1127, flags: DIFlagPublic | DIFlagPrototyped, isOptimized: false)
!967 = !DISubroutineType(types: !968)
!968 = !{!781, !767}
!969 = !DISubprogram(name: "data", linkageName: "_ZNKSt3__112basic_stringIcNS_11char_traitsIcEENS_9allocatorIcEEE4dataEv", scope: !219, file: !220, line: 1129, type: !967, isLocal: false, isDefinition: false, scopeLine: 1129, flags: DIFlagPublic | DIFlagPrototyped, isOptimized: false)
!970 = !DISubprogram(name: "get_allocator", linkageName: "_ZNKSt3__112basic_stringIcNS_11char_traitsIcEENS_9allocatorIcEEE13get_allocatorEv", scope: !219, file: !220, line: 1136, type: !971, isLocal: false, isDefinition: false, scopeLine: 1136, flags: DIFlagPublic | DIFlagPrototyped, isOptimized: false)
!971 = !DISubroutineType(types: !972)
!972 = !{!503, !767}
!973 = !DISubprogram(name: "find", linkageName: "_ZNKSt3__112basic_stringIcNS_11char_traitsIcEENS_9allocatorIcEEE4findERKS5_m", scope: !219, file: !220, line: 1139, type: !974, isLocal: false, isDefinition: false, scopeLine: 1139, flags: DIFlagPublic | DIFlagPrototyped, isOptimized: false)
!974 = !DISubroutineType(types: !975)
!975 = !{!236, !767, !507, !236}
!976 = !DISubprogram(name: "find", linkageName: "_ZNKSt3__112basic_stringIcNS_11char_traitsIcEENS_9allocatorIcEEE4findENS_17basic_string_viewIcS2_EEm", scope: !219, file: !220, line: 1141, type: !977, isLocal: false, isDefinition: false, scopeLine: 1141, flags: DIFlagPublic | DIFlagPrototyped, isOptimized: false)
!977 = !DISubroutineType(types: !978)
!978 = !{!236, !767, !546, !236}
!979 = !DISubprogram(name: "find", linkageName: "_ZNKSt3__112basic_stringIcNS_11char_traitsIcEENS_9allocatorIcEEE4findEPKcmm", scope: !219, file: !220, line: 1142, type: !980, isLocal: false, isDefinition: false, scopeLine: 1142, flags: DIFlagPublic | DIFlagPrototyped, isOptimized: false)
!980 = !DISubroutineType(types: !981)
!981 = !{!236, !767, !781, !236, !236}
!982 = !DISubprogram(name: "find", linkageName: "_ZNKSt3__112basic_stringIcNS_11char_traitsIcEENS_9allocatorIcEEE4findEPKcm", scope: !219, file: !220, line: 1144, type: !983, isLocal: false, isDefinition: false, scopeLine: 1144, flags: DIFlagPublic | DIFlagPrototyped, isOptimized: false)
!983 = !DISubroutineType(types: !984)
!984 = !{!236, !767, !781, !236}
!985 = !DISubprogram(name: "find", linkageName: "_ZNKSt3__112basic_stringIcNS_11char_traitsIcEENS_9allocatorIcEEE4findEcm", scope: !219, file: !220, line: 1145, type: !986, isLocal: false, isDefinition: false, scopeLine: 1145, flags: DIFlagPublic | DIFlagPrototyped, isOptimized: false)
!986 = !DISubroutineType(types: !987)
!987 = !{!236, !767, !414, !236}
!988 = !DISubprogram(name: "rfind", linkageName: "_ZNKSt3__112basic_stringIcNS_11char_traitsIcEENS_9allocatorIcEEE5rfindERKS5_m", scope: !219, file: !220, line: 1148, type: !974, isLocal: false, isDefinition: false, scopeLine: 1148, flags: DIFlagPublic | DIFlagPrototyped, isOptimized: false)
!989 = !DISubprogram(name: "rfind", linkageName: "_ZNKSt3__112basic_stringIcNS_11char_traitsIcEENS_9allocatorIcEEE5rfindENS_17basic_string_viewIcS2_EEm", scope: !219, file: !220, line: 1150, type: !977, isLocal: false, isDefinition: false, scopeLine: 1150, flags: DIFlagPublic | DIFlagPrototyped, isOptimized: false)
!990 = !DISubprogram(name: "rfind", linkageName: "_ZNKSt3__112basic_stringIcNS_11char_traitsIcEENS_9allocatorIcEEE5rfindEPKcmm", scope: !219, file: !220, line: 1151, type: !980, isLocal: false, isDefinition: false, scopeLine: 1151, flags: DIFlagPublic | DIFlagPrototyped, isOptimized: false)
!991 = !DISubprogram(name: "rfind", linkageName: "_ZNKSt3__112basic_stringIcNS_11char_traitsIcEENS_9allocatorIcEEE5rfindEPKcm", scope: !219, file: !220, line: 1153, type: !983, isLocal: false, isDefinition: false, scopeLine: 1153, flags: DIFlagPublic | DIFlagPrototyped, isOptimized: false)
!992 = !DISubprogram(name: "rfind", linkageName: "_ZNKSt3__112basic_stringIcNS_11char_traitsIcEENS_9allocatorIcEEE5rfindEcm", scope: !219, file: !220, line: 1154, type: !986, isLocal: false, isDefinition: false, scopeLine: 1154, flags: DIFlagPublic | DIFlagPrototyped, isOptimized: false)
!993 = !DISubprogram(name: "find_first_of", linkageName: "_ZNKSt3__112basic_stringIcNS_11char_traitsIcEENS_9allocatorIcEEE13find_first_ofERKS5_m", scope: !219, file: !220, line: 1157, type: !974, isLocal: false, isDefinition: false, scopeLine: 1157, flags: DIFlagPublic | DIFlagPrototyped, isOptimized: false)
!994 = !DISubprogram(name: "find_first_of", linkageName: "_ZNKSt3__112basic_stringIcNS_11char_traitsIcEENS_9allocatorIcEEE13find_first_ofENS_17basic_string_viewIcS2_EEm", scope: !219, file: !220, line: 1159, type: !977, isLocal: false, isDefinition: false, scopeLine: 1159, flags: DIFlagPublic | DIFlagPrototyped, isOptimized: false)
!995 = !DISubprogram(name: "find_first_of", linkageName: "_ZNKSt3__112basic_stringIcNS_11char_traitsIcEENS_9allocatorIcEEE13find_first_ofEPKcmm", scope: !219, file: !220, line: 1160, type: !980, isLocal: false, isDefinition: false, scopeLine: 1160, flags: DIFlagPublic | DIFlagPrototyped, isOptimized: false)
!996 = !DISubprogram(name: "find_first_of", linkageName: "_ZNKSt3__112basic_stringIcNS_11char_traitsIcEENS_9allocatorIcEEE13find_first_ofEPKcm", scope: !219, file: !220, line: 1162, type: !983, isLocal: false, isDefinition: false, scopeLine: 1162, flags: DIFlagPublic | DIFlagPrototyped, isOptimized: false)
!997 = !DISubprogram(name: "find_first_of", linkageName: "_ZNKSt3__112basic_stringIcNS_11char_traitsIcEENS_9allocatorIcEEE13find_first_ofEcm", scope: !219, file: !220, line: 1164, type: !986, isLocal: false, isDefinition: false, scopeLine: 1164, flags: DIFlagPublic | DIFlagPrototyped, isOptimized: false)
!998 = !DISubprogram(name: "find_last_of", linkageName: "_ZNKSt3__112basic_stringIcNS_11char_traitsIcEENS_9allocatorIcEEE12find_last_ofERKS5_m", scope: !219, file: !220, line: 1167, type: !974, isLocal: false, isDefinition: false, scopeLine: 1167, flags: DIFlagPublic | DIFlagPrototyped, isOptimized: false)
!999 = !DISubprogram(name: "find_last_of", linkageName: "_ZNKSt3__112basic_stringIcNS_11char_traitsIcEENS_9allocatorIcEEE12find_last_ofENS_17basic_string_viewIcS2_EEm", scope: !219, file: !220, line: 1169, type: !977, isLocal: false, isDefinition: false, scopeLine: 1169, flags: DIFlagPublic | DIFlagPrototyped, isOptimized: false)
!1000 = !DISubprogram(name: "find_last_of", linkageName: "_ZNKSt3__112basic_stringIcNS_11char_traitsIcEENS_9allocatorIcEEE12find_last_ofEPKcmm", scope: !219, file: !220, line: 1170, type: !980, isLocal: false, isDefinition: false, scopeLine: 1170, flags: DIFlagPublic | DIFlagPrototyped, isOptimized: false)
!1001 = !DISubprogram(name: "find_last_of", linkageName: "_ZNKSt3__112basic_stringIcNS_11char_traitsIcEENS_9allocatorIcEEE12find_last_ofEPKcm", scope: !219, file: !220, line: 1172, type: !983, isLocal: false, isDefinition: false, scopeLine: 1172, flags: DIFlagPublic | DIFlagPrototyped, isOptimized: false)
!1002 = !DISubprogram(name: "find_last_of", linkageName: "_ZNKSt3__112basic_stringIcNS_11char_traitsIcEENS_9allocatorIcEEE12find_last_ofEcm", scope: !219, file: !220, line: 1174, type: !986, isLocal: false, isDefinition: false, scopeLine: 1174, flags: DIFlagPublic | DIFlagPrototyped, isOptimized: false)
!1003 = !DISubprogram(name: "find_first_not_of", linkageName: "_ZNKSt3__112basic_stringIcNS_11char_traitsIcEENS_9allocatorIcEEE17find_first_not_ofERKS5_m", scope: !219, file: !220, line: 1177, type: !974, isLocal: false, isDefinition: false, scopeLine: 1177, flags: DIFlagPublic | DIFlagPrototyped, isOptimized: false)
!1004 = !DISubprogram(name: "find_first_not_of", linkageName: "_ZNKSt3__112basic_stringIcNS_11char_traitsIcEENS_9allocatorIcEEE17find_first_not_ofENS_17basic_string_viewIcS2_EEm", scope: !219, file: !220, line: 1179, type: !977, isLocal: false, isDefinition: false, scopeLine: 1179, flags: DIFlagPublic | DIFlagPrototyped, isOptimized: false)
!1005 = !DISubprogram(name: "find_first_not_of", linkageName: "_ZNKSt3__112basic_stringIcNS_11char_traitsIcEENS_9allocatorIcEEE17find_first_not_ofEPKcmm", scope: !219, file: !220, line: 1180, type: !980, isLocal: false, isDefinition: false, scopeLine: 1180, flags: DIFlagPublic | DIFlagPrototyped, isOptimized: false)
!1006 = !DISubprogram(name: "find_first_not_of", linkageName: "_ZNKSt3__112basic_stringIcNS_11char_traitsIcEENS_9allocatorIcEEE17find_first_not_ofEPKcm", scope: !219, file: !220, line: 1182, type: !983, isLocal: false, isDefinition: false, scopeLine: 1182, flags: DIFlagPublic | DIFlagPrototyped, isOptimized: false)
!1007 = !DISubprogram(name: "find_first_not_of", linkageName: "_ZNKSt3__112basic_stringIcNS_11char_traitsIcEENS_9allocatorIcEEE17find_first_not_ofEcm", scope: !219, file: !220, line: 1184, type: !986, isLocal: false, isDefinition: false, scopeLine: 1184, flags: DIFlagPublic | DIFlagPrototyped, isOptimized: false)
!1008 = !DISubprogram(name: "find_last_not_of", linkageName: "_ZNKSt3__112basic_stringIcNS_11char_traitsIcEENS_9allocatorIcEEE16find_last_not_ofERKS5_m", scope: !219, file: !220, line: 1187, type: !974, isLocal: false, isDefinition: false, scopeLine: 1187, flags: DIFlagPublic | DIFlagPrototyped, isOptimized: false)
!1009 = !DISubprogram(name: "find_last_not_of", linkageName: "_ZNKSt3__112basic_stringIcNS_11char_traitsIcEENS_9allocatorIcEEE16find_last_not_ofENS_17basic_string_viewIcS2_EEm", scope: !219, file: !220, line: 1189, type: !977, isLocal: false, isDefinition: false, scopeLine: 1189, flags: DIFlagPublic | DIFlagPrototyped, isOptimized: false)
!1010 = !DISubprogram(name: "find_last_not_of", linkageName: "_ZNKSt3__112basic_stringIcNS_11char_traitsIcEENS_9allocatorIcEEE16find_last_not_ofEPKcmm", scope: !219, file: !220, line: 1190, type: !980, isLocal: false, isDefinition: false, scopeLine: 1190, flags: DIFlagPublic | DIFlagPrototyped, isOptimized: false)
!1011 = !DISubprogram(name: "find_last_not_of", linkageName: "_ZNKSt3__112basic_stringIcNS_11char_traitsIcEENS_9allocatorIcEEE16find_last_not_ofEPKcm", scope: !219, file: !220, line: 1192, type: !983, isLocal: false, isDefinition: false, scopeLine: 1192, flags: DIFlagPublic | DIFlagPrototyped, isOptimized: false)
!1012 = !DISubprogram(name: "find_last_not_of", linkageName: "_ZNKSt3__112basic_stringIcNS_11char_traitsIcEENS_9allocatorIcEEE16find_last_not_ofEcm", scope: !219, file: !220, line: 1194, type: !986, isLocal: false, isDefinition: false, scopeLine: 1194, flags: DIFlagPublic | DIFlagPrototyped, isOptimized: false)
!1013 = !DISubprogram(name: "compare", linkageName: "_ZNKSt3__112basic_stringIcNS_11char_traitsIcEENS_9allocatorIcEEE7compareERKS5_", scope: !219, file: !220, line: 1197, type: !1014, isLocal: false, isDefinition: false, scopeLine: 1197, flags: DIFlagPublic | DIFlagPrototyped, isOptimized: false)
!1014 = !DISubroutineType(types: !1015)
!1015 = !{!14, !767, !507}
!1016 = !DISubprogram(name: "compare", linkageName: "_ZNKSt3__112basic_stringIcNS_11char_traitsIcEENS_9allocatorIcEEE7compareENS_17basic_string_viewIcS2_EE", scope: !219, file: !220, line: 1199, type: !1017, isLocal: false, isDefinition: false, scopeLine: 1199, flags: DIFlagPublic | DIFlagPrototyped, isOptimized: false)
!1017 = !DISubroutineType(types: !1018)
!1018 = !{!14, !767, !546}
!1019 = !DISubprogram(name: "compare", linkageName: "_ZNKSt3__112basic_stringIcNS_11char_traitsIcEENS_9allocatorIcEEE7compareEmmNS_17basic_string_viewIcS2_EE", scope: !219, file: !220, line: 1201, type: !1020, isLocal: false, isDefinition: false, scopeLine: 1201, flags: DIFlagPublic | DIFlagPrototyped, isOptimized: false)
!1020 = !DISubroutineType(types: !1021)
!1021 = !{!14, !767, !236, !236, !546}
!1022 = !DISubprogram(name: "compare", linkageName: "_ZNKSt3__112basic_stringIcNS_11char_traitsIcEENS_9allocatorIcEEE7compareEmmRKS5_", scope: !219, file: !220, line: 1203, type: !1023, isLocal: false, isDefinition: false, scopeLine: 1203, flags: DIFlagPublic | DIFlagPrototyped, isOptimized: false)
!1023 = !DISubroutineType(types: !1024)
!1024 = !{!14, !767, !236, !236, !507}
!1025 = !DISubprogram(name: "compare", linkageName: "_ZNKSt3__112basic_stringIcNS_11char_traitsIcEENS_9allocatorIcEEE7compareEmmRKS5_mm", scope: !219, file: !220, line: 1204, type: !1026, isLocal: false, isDefinition: false, scopeLine: 1204, flags: DIFlagPublic | DIFlagPrototyped, isOptimized: false)
!1026 = !DISubroutineType(types: !1027)
!1027 = !{!14, !767, !236, !236, !507, !236, !236}
!1028 = !DISubprogram(name: "compare", linkageName: "_ZNKSt3__112basic_stringIcNS_11char_traitsIcEENS_9allocatorIcEEE7compareEPKc", scope: !219, file: !220, line: 1213, type: !1029, isLocal: false, isDefinition: false, scopeLine: 1213, flags: DIFlagPublic | DIFlagPrototyped, isOptimized: false)
!1029 = !DISubroutineType(types: !1030)
!1030 = !{!14, !767, !781}
!1031 = !DISubprogram(name: "compare", linkageName: "_ZNKSt3__112basic_stringIcNS_11char_traitsIcEENS_9allocatorIcEEE7compareEmmPKc", scope: !219, file: !220, line: 1214, type: !1032, isLocal: false, isDefinition: false, scopeLine: 1214, flags: DIFlagPublic | DIFlagPrototyped, isOptimized: false)
!1032 = !DISubroutineType(types: !1033)
!1033 = !{!14, !767, !236, !236, !781}
!1034 = !DISubprogram(name: "compare", linkageName: "_ZNKSt3__112basic_stringIcNS_11char_traitsIcEENS_9allocatorIcEEE7compareEmmPKcm", scope: !219, file: !220, line: 1215, type: !1035, isLocal: false, isDefinition: false, scopeLine: 1215, flags: DIFlagPublic | DIFlagPrototyped, isOptimized: false)
!1035 = !DISubroutineType(types: !1036)
!1036 = !{!14, !767, !236, !236, !781, !236}
!1037 = !DISubprogram(name: "__invariants", linkageName: "_ZNKSt3__112basic_stringIcNS_11char_traitsIcEENS_9allocatorIcEEE12__invariantsEv", scope: !219, file: !220, line: 1217, type: !830, isLocal: false, isDefinition: false, scopeLine: 1217, flags: DIFlagPublic | DIFlagPrototyped, isOptimized: false)
!1038 = !DISubprogram(name: "__is_long", linkageName: "_ZNKSt3__112basic_stringIcNS_11char_traitsIcEENS_9allocatorIcEEE9__is_longEv", scope: !219, file: !220, line: 1220, type: !830, isLocal: false, isDefinition: false, scopeLine: 1220, flags: DIFlagPublic | DIFlagPrototyped, isOptimized: false)
!1039 = !DISubprogram(name: "__alloc", linkageName: "_ZNSt3__112basic_stringIcNS_11char_traitsIcEENS_9allocatorIcEEE7__allocEv", scope: !219, file: !220, line: 1234, type: !1040, isLocal: false, isDefinition: false, scopeLine: 1234, flags: DIFlagPrototyped, isOptimized: false)
!1040 = !DISubroutineType(types: !1041)
!1041 = !{!1042, !497}
!1042 = !DIDerivedType(tag: DW_TAG_reference_type, baseType: !503, size: 64)
!1043 = !DISubprogram(name: "__alloc", linkageName: "_ZNKSt3__112basic_stringIcNS_11char_traitsIcEENS_9allocatorIcEEE7__allocEv", scope: !219, file: !220, line: 1237, type: !1044, isLocal: false, isDefinition: false, scopeLine: 1237, flags: DIFlagPrototyped, isOptimized: false)
!1044 = !DISubroutineType(types: !1045)
!1045 = !{!501, !767}
!1046 = !DISubprogram(name: "__set_short_size", linkageName: "_ZNSt3__112basic_stringIcNS_11char_traitsIcEENS_9allocatorIcEEE16__set_short_sizeEm", scope: !219, file: !220, line: 1261, type: !824, isLocal: false, isDefinition: false, scopeLine: 1261, flags: DIFlagPrototyped, isOptimized: false)
!1047 = !DISubprogram(name: "__get_short_size", linkageName: "_ZNKSt3__112basic_stringIcNS_11char_traitsIcEENS_9allocatorIcEEE16__get_short_sizeEv", scope: !219, file: !220, line: 1269, type: !815, isLocal: false, isDefinition: false, scopeLine: 1269, flags: DIFlagPrototyped, isOptimized: false)
!1048 = !DISubprogram(name: "__set_long_size", linkageName: "_ZNSt3__112basic_stringIcNS_11char_traitsIcEENS_9allocatorIcEEE15__set_long_sizeEm", scope: !219, file: !220, line: 1279, type: !824, isLocal: false, isDefinition: false, scopeLine: 1279, flags: DIFlagPrototyped, isOptimized: false)
!1049 = !DISubprogram(name: "__get_long_size", linkageName: "_ZNKSt3__112basic_stringIcNS_11char_traitsIcEENS_9allocatorIcEEE15__get_long_sizeEv", scope: !219, file: !220, line: 1282, type: !815, isLocal: false, isDefinition: false, scopeLine: 1282, flags: DIFlagPrototyped, isOptimized: false)
!1050 = !DISubprogram(name: "__set_size", linkageName: "_ZNSt3__112basic_stringIcNS_11char_traitsIcEENS_9allocatorIcEEE10__set_sizeEm", scope: !219, file: !220, line: 1285, type: !824, isLocal: false, isDefinition: false, scopeLine: 1285, flags: DIFlagPrototyped, isOptimized: false)
!1051 = !DISubprogram(name: "__set_long_cap", linkageName: "_ZNSt3__112basic_stringIcNS_11char_traitsIcEENS_9allocatorIcEEE14__set_long_capEm", scope: !219, file: !220, line: 1289, type: !824, isLocal: false, isDefinition: false, scopeLine: 1289, flags: DIFlagPrototyped, isOptimized: false)
!1052 = !DISubprogram(name: "__get_long_cap", linkageName: "_ZNKSt3__112basic_stringIcNS_11char_traitsIcEENS_9allocatorIcEEE14__get_long_capEv", scope: !219, file: !220, line: 1292, type: !815, isLocal: false, isDefinition: false, scopeLine: 1292, flags: DIFlagPrototyped, isOptimized: false)
!1053 = !DISubprogram(name: "__set_long_pointer", linkageName: "_ZNSt3__112basic_stringIcNS_11char_traitsIcEENS_9allocatorIcEEE18__set_long_pointerEPc", scope: !219, file: !220, line: 1296, type: !1054, isLocal: false, isDefinition: false, scopeLine: 1296, flags: DIFlagPrototyped, isOptimized: false)
!1054 = !DISubroutineType(types: !1055)
!1055 = !{null, !497, !404}
!1056 = !DISubprogram(name: "__get_long_pointer", linkageName: "_ZNSt3__112basic_stringIcNS_11char_traitsIcEENS_9allocatorIcEEE18__get_long_pointerEv", scope: !219, file: !220, line: 1299, type: !1057, isLocal: false, isDefinition: false, scopeLine: 1299, flags: DIFlagPrototyped, isOptimized: false)
!1057 = !DISubroutineType(types: !1058)
!1058 = !{!404, !497}
!1059 = !DISubprogram(name: "__get_long_pointer", linkageName: "_ZNKSt3__112basic_stringIcNS_11char_traitsIcEENS_9allocatorIcEEE18__get_long_pointerEv", scope: !219, file: !220, line: 1302, type: !1060, isLocal: false, isDefinition: false, scopeLine: 1302, flags: DIFlagPrototyped, isOptimized: false)
!1060 = !DISubroutineType(types: !1061)
!1061 = !{!1062, !767}
!1062 = !DIDerivedType(tag: DW_TAG_typedef, name: "const_pointer", scope: !219, file: !220, line: 645, baseType: !1063)
!1063 = !DIDerivedType(tag: DW_TAG_typedef, name: "const_pointer", scope: !238, file: !21, line: 1473, baseType: !1064)
!1064 = !DIDerivedType(tag: DW_TAG_typedef, name: "type", scope: !1065, file: !21, line: 1033, baseType: !268)
!1065 = distinct !DICompositeType(tag: DW_TAG_structure_type, name: "__const_pointer<char, char *, std::__1::allocator<char>, true>", scope: !22, file: !21, line: 1031, size: 8, elements: !246, templateParams: !1066, identifier: "_ZTSNSt3__115__const_pointerIcPcNS_9allocatorIcEELb1EEE")
!1066 = !{!248, !304, !305, !232}
!1067 = !DISubprogram(name: "__get_short_pointer", linkageName: "_ZNSt3__112basic_stringIcNS_11char_traitsIcEENS_9allocatorIcEEE19__get_short_pointerEv", scope: !219, file: !220, line: 1305, type: !1057, isLocal: false, isDefinition: false, scopeLine: 1305, flags: DIFlagPrototyped, isOptimized: false)
!1068 = !DISubprogram(name: "__get_short_pointer", linkageName: "_ZNKSt3__112basic_stringIcNS_11char_traitsIcEENS_9allocatorIcEEE19__get_short_pointerEv", scope: !219, file: !220, line: 1308, type: !1060, isLocal: false, isDefinition: false, scopeLine: 1308, flags: DIFlagPrototyped, isOptimized: false)
!1069 = !DISubprogram(name: "__get_pointer", linkageName: "_ZNSt3__112basic_stringIcNS_11char_traitsIcEENS_9allocatorIcEEE13__get_pointerEv", scope: !219, file: !220, line: 1311, type: !1057, isLocal: false, isDefinition: false, scopeLine: 1311, flags: DIFlagPrototyped, isOptimized: false)
!1070 = !DISubprogram(name: "__get_pointer", linkageName: "_ZNKSt3__112basic_stringIcNS_11char_traitsIcEENS_9allocatorIcEEE13__get_pointerEv", scope: !219, file: !220, line: 1314, type: !1060, isLocal: false, isDefinition: false, scopeLine: 1314, flags: DIFlagPrototyped, isOptimized: false)
!1071 = !DISubprogram(name: "__zero", linkageName: "_ZNSt3__112basic_stringIcNS_11char_traitsIcEENS_9allocatorIcEEE6__zeroEv", scope: !219, file: !220, line: 1318, type: !495, isLocal: false, isDefinition: false, scopeLine: 1318, flags: DIFlagPrototyped, isOptimized: false)
!1072 = !DISubprogram(name: "__recommend", linkageName: "_ZNSt3__112basic_stringIcNS_11char_traitsIcEENS_9allocatorIcEEE11__recommendEm", scope: !219, file: !220, line: 1331, type: !1073, isLocal: false, isDefinition: false, scopeLine: 1331, flags: DIFlagPrototyped, isOptimized: false)
!1073 = !DISubroutineType(types: !1074)
!1074 = !{!236, !236}
!1075 = !DISubprogram(name: "__init", linkageName: "_ZNSt3__112basic_stringIcNS_11char_traitsIcEENS_9allocatorIcEEE6__initEPKcmm", scope: !219, file: !220, line: 1337, type: !1076, isLocal: false, isDefinition: false, scopeLine: 1337, flags: DIFlagPrototyped, isOptimized: false)
!1076 = !DISubroutineType(types: !1077)
!1077 = !{null, !497, !781, !236, !236}
!1078 = !DISubprogram(name: "__init", linkageName: "_ZNSt3__112basic_stringIcNS_11char_traitsIcEENS_9allocatorIcEEE6__initEPKcm", scope: !219, file: !220, line: 1339, type: !1079, isLocal: false, isDefinition: false, scopeLine: 1339, flags: DIFlagPrototyped, isOptimized: false)
!1079 = !DISubroutineType(types: !1080)
!1080 = !{null, !497, !781, !236}
!1081 = !DISubprogram(name: "__init", linkageName: "_ZNSt3__112basic_stringIcNS_11char_traitsIcEENS_9allocatorIcEEE6__initEmc", scope: !219, file: !220, line: 1341, type: !821, isLocal: false, isDefinition: false, scopeLine: 1341, flags: DIFlagPrototyped, isOptimized: false)
!1082 = !DISubprogram(name: "__grow_by", linkageName: "_ZNSt3__112basic_stringIcNS_11char_traitsIcEENS_9allocatorIcEEE9__grow_byEmmmmmm", scope: !219, file: !220, line: 1361, type: !1083, isLocal: false, isDefinition: false, scopeLine: 1361, flags: DIFlagPrototyped, isOptimized: false)
!1083 = !DISubroutineType(types: !1084)
!1084 = !{null, !497, !236, !236, !236, !236, !236, !236}
!1085 = !DISubprogram(name: "__grow_by_and_replace", linkageName: "_ZNSt3__112basic_stringIcNS_11char_traitsIcEENS_9allocatorIcEEE21__grow_by_and_replaceEmmmmmmPKc", scope: !219, file: !220, line: 1363, type: !1086, isLocal: false, isDefinition: false, scopeLine: 1363, flags: DIFlagPrototyped, isOptimized: false)
!1086 = !DISubroutineType(types: !1087)
!1087 = !{null, !497, !236, !236, !236, !236, !236, !236, !781}
!1088 = !DISubprogram(name: "__erase_to_end", linkageName: "_ZNSt3__112basic_stringIcNS_11char_traitsIcEENS_9allocatorIcEEE14__erase_to_endEm", scope: !219, file: !220, line: 1368, type: !824, isLocal: false, isDefinition: false, scopeLine: 1368, flags: DIFlagPrototyped, isOptimized: false)
!1089 = !DISubprogram(name: "__copy_assign_alloc", linkageName: "_ZNSt3__112basic_stringIcNS_11char_traitsIcEENS_9allocatorIcEEE19__copy_assign_allocERKS5_", scope: !219, file: !220, line: 1371, type: !505, isLocal: false, isDefinition: false, scopeLine: 1371, flags: DIFlagPrototyped, isOptimized: false)
!1090 = !DISubprogram(name: "__copy_assign_alloc", linkageName: "_ZNSt3__112basic_stringIcNS_11char_traitsIcEENS_9allocatorIcEEE19__copy_assign_allocERKS5_NS_17integral_constantIbLb1EEE", scope: !219, file: !220, line: 1376, type: !1091, isLocal: false, isDefinition: false, scopeLine: 1376, flags: DIFlagPrototyped, isOptimized: false)
!1091 = !DISubroutineType(types: !1092)
!1092 = !{null, !497, !507, !338}
!1093 = !DISubprogram(name: "__copy_assign_alloc", linkageName: "_ZNSt3__112basic_stringIcNS_11char_traitsIcEENS_9allocatorIcEEE19__copy_assign_allocERKS5_NS_17integral_constantIbLb0EEE", scope: !219, file: !220, line: 1403, type: !1094, isLocal: false, isDefinition: false, scopeLine: 1403, flags: DIFlagPrototyped, isOptimized: false)
!1094 = !DISubroutineType(types: !1095)
!1095 = !{null, !497, !507, !355}
!1096 = !DISubprogram(name: "__move_assign", linkageName: "_ZNSt3__112basic_stringIcNS_11char_traitsIcEENS_9allocatorIcEEE13__move_assignERS5_NS_17integral_constantIbLb0EEE", scope: !219, file: !220, line: 1408, type: !1097, isLocal: false, isDefinition: false, scopeLine: 1408, flags: DIFlagPrototyped, isOptimized: false)
!1097 = !DISubroutineType(types: !1098)
!1098 = !{null, !497, !771, !355}
!1099 = !DISubprogram(name: "__move_assign", linkageName: "_ZNSt3__112basic_stringIcNS_11char_traitsIcEENS_9allocatorIcEEE13__move_assignERS5_NS_17integral_constantIbLb1EEE", scope: !219, file: !220, line: 1411, type: !1100, isLocal: false, isDefinition: false, scopeLine: 1411, flags: DIFlagPrototyped, isOptimized: false)
!1100 = !DISubroutineType(types: !1101)
!1101 = !{null, !497, !771, !338}
!1102 = !DISubprogram(name: "__move_assign_alloc", linkageName: "_ZNSt3__112basic_stringIcNS_11char_traitsIcEENS_9allocatorIcEEE19__move_assign_allocERS5_", scope: !219, file: !220, line: 1421, type: !964, isLocal: false, isDefinition: false, scopeLine: 1421, flags: DIFlagPrototyped, isOptimized: false)
!1103 = !DISubprogram(name: "__move_assign_alloc", linkageName: "_ZNSt3__112basic_stringIcNS_11char_traitsIcEENS_9allocatorIcEEE19__move_assign_allocERS5_NS_17integral_constantIbLb1EEE", scope: !219, file: !220, line: 1429, type: !1100, isLocal: false, isDefinition: false, scopeLine: 1429, flags: DIFlagPrototyped, isOptimized: false)
!1104 = !DISubprogram(name: "__move_assign_alloc", linkageName: "_ZNSt3__112basic_stringIcNS_11char_traitsIcEENS_9allocatorIcEEE19__move_assign_allocERS5_NS_17integral_constantIbLb0EEE", scope: !219, file: !220, line: 1436, type: !1097, isLocal: false, isDefinition: false, scopeLine: 1436, flags: DIFlagPrototyped, isOptimized: false)
!1105 = !DISubprogram(name: "__invalidate_all_iterators", linkageName: "_ZNSt3__112basic_stringIcNS_11char_traitsIcEENS_9allocatorIcEEE26__invalidate_all_iteratorsEv", scope: !219, file: !220, line: 1440, type: !495, isLocal: false, isDefinition: false, scopeLine: 1440, flags: DIFlagPrototyped, isOptimized: false)
!1106 = !DISubprogram(name: "__invalidate_iterators_past", linkageName: "_ZNSt3__112basic_stringIcNS_11char_traitsIcEENS_9allocatorIcEEE27__invalidate_iterators_pastEm", scope: !219, file: !220, line: 1441, type: !824, isLocal: false, isDefinition: false, scopeLine: 1441, flags: DIFlagPrototyped, isOptimized: false)
!1107 = !{!680, !681, !1108}
!1108 = !DITemplateTypeParameter(name: "_Allocator", type: !250)
!1109 = !DISubprogram(name: "locale", scope: !182, file: !183, line: 107, type: !1110, isLocal: false, isDefinition: false, scopeLine: 107, flags: DIFlagPublic | DIFlagPrototyped, isOptimized: false)
!1110 = !DISubroutineType(types: !1111)
!1111 = !{null, !201, !205, !210, !187}
!1112 = !DISubprogram(name: "locale", scope: !182, file: !183, line: 108, type: !1113, isLocal: false, isDefinition: false, scopeLine: 108, flags: DIFlagPublic | DIFlagPrototyped, isOptimized: false)
!1113 = !DISubroutineType(types: !1114)
!1114 = !{null, !201, !205, !216, !187}
!1115 = !DISubprogram(name: "locale", scope: !182, file: !183, line: 111, type: !1116, isLocal: false, isDefinition: false, scopeLine: 111, flags: DIFlagPublic | DIFlagPrototyped, isOptimized: false)
!1116 = !DISubroutineType(types: !1117)
!1117 = !{null, !201, !205, !205, !187}
!1118 = !DISubprogram(name: "~locale", scope: !182, file: !183, line: 113, type: !199, isLocal: false, isDefinition: false, scopeLine: 113, flags: DIFlagPublic | DIFlagPrototyped, isOptimized: false)
!1119 = !DISubprogram(name: "operator=", linkageName: "_ZNSt3__16localeaSERKS0_", scope: !182, file: !183, line: 115, type: !1120, isLocal: false, isDefinition: false, scopeLine: 115, flags: DIFlagPublic | DIFlagPrototyped, isOptimized: false)
!1120 = !DISubroutineType(types: !1121)
!1121 = !{!205, !201, !205}
!1122 = !DISubprogram(name: "name", linkageName: "_ZNKSt3__16locale4nameEv", scope: !182, file: !183, line: 122, type: !1123, isLocal: false, isDefinition: false, scopeLine: 122, flags: DIFlagPublic | DIFlagPrototyped, isOptimized: false)
!1123 = !DISubroutineType(types: !1124)
!1124 = !{!218, !1125}
!1125 = !DIDerivedType(tag: DW_TAG_pointer_type, baseType: !206, size: 64, flags: DIFlagArtificial | DIFlagObjectPointer)
!1126 = !DISubprogram(name: "operator==", linkageName: "_ZNKSt3__16localeeqERKS0_", scope: !182, file: !183, line: 123, type: !1127, isLocal: false, isDefinition: false, scopeLine: 123, flags: DIFlagPublic | DIFlagPrototyped, isOptimized: false)
!1127 = !DISubroutineType(types: !1128)
!1128 = !{!233, !1125, !205}
!1129 = !DISubprogram(name: "operator!=", linkageName: "_ZNKSt3__16localeneERKS0_", scope: !182, file: !183, line: 124, type: !1127, isLocal: false, isDefinition: false, scopeLine: 124, flags: DIFlagPublic | DIFlagPrototyped, isOptimized: false)
!1130 = !DISubprogram(name: "global", linkageName: "_ZNSt3__16locale6globalERKS0_", scope: !182, file: !183, line: 131, type: !1131, isLocal: false, isDefinition: false, scopeLine: 131, flags: DIFlagPublic | DIFlagPrototyped, isOptimized: false)
!1131 = !DISubroutineType(types: !1132)
!1132 = !{!182, !205}
!1133 = !DISubprogram(name: "classic", linkageName: "_ZNSt3__16locale7classicEv", scope: !182, file: !183, line: 132, type: !1134, isLocal: false, isDefinition: false, scopeLine: 132, flags: DIFlagPublic | DIFlagPrototyped, isOptimized: false)
!1134 = !DISubroutineType(types: !1135)
!1135 = !{!205}
!1136 = !DISubprogram(name: "__install_ctor", linkageName: "_ZNSt3__16locale14__install_ctorERKS0_PNS0_5facetEl", scope: !182, file: !183, line: 138, type: !1137, isLocal: false, isDefinition: false, scopeLine: 138, flags: DIFlagPrototyped, isOptimized: false)
!1137 = !DISubroutineType(types: !1138)
!1138 = !{null, !201, !205, !1139, !119}
!1139 = !DIDerivedType(tag: DW_TAG_pointer_type, baseType: !1140, size: 64)
!1140 = distinct !DICompositeType(tag: DW_TAG_class_type, name: "facet", scope: !182, file: !183, line: 147, size: 128, elements: !1141, vtableHolder: !1143, identifier: "_ZTSNSt3__16locale5facetE")
!1141 = !{!1142, !1172, !1176, !1179}
!1142 = !DIDerivedType(tag: DW_TAG_inheritance, scope: !1140, baseType: !1143, flags: DIFlagPublic)
!1143 = distinct !DICompositeType(tag: DW_TAG_class_type, name: "__shared_count", scope: !22, file: !21, line: 3416, size: 128, elements: !1144, vtableHolder: !1143, identifier: "_ZTSNSt3__114__shared_countE")
!1144 = !{!1145, !1146, !1147, !1153, !1157, !1160, !1161, !1164, !1165, !1168}
!1145 = !DIDerivedType(tag: DW_TAG_member, name: "_vptr$__shared_count", scope: !21, file: !21, baseType: !10, size: 64, flags: DIFlagArtificial)
!1146 = !DIDerivedType(tag: DW_TAG_member, name: "__shared_owners_", scope: !1143, file: !21, line: 3422, baseType: !119, size: 64, offset: 64, flags: DIFlagProtected)
!1147 = !DISubprogram(name: "__shared_count", scope: !1143, file: !21, line: 3418, type: !1148, isLocal: false, isDefinition: false, scopeLine: 3418, flags: DIFlagPrototyped, isOptimized: false)
!1148 = !DISubroutineType(types: !1149)
!1149 = !{null, !1150, !1151}
!1150 = !DIDerivedType(tag: DW_TAG_pointer_type, baseType: !1143, size: 64, flags: DIFlagArtificial | DIFlagObjectPointer)
!1151 = !DIDerivedType(tag: DW_TAG_reference_type, baseType: !1152, size: 64)
!1152 = !DIDerivedType(tag: DW_TAG_const_type, baseType: !1143)
!1153 = !DISubprogram(name: "operator=", linkageName: "_ZNSt3__114__shared_countaSERKS0_", scope: !1143, file: !21, line: 3419, type: !1154, isLocal: false, isDefinition: false, scopeLine: 3419, flags: DIFlagPrototyped, isOptimized: false)
!1154 = !DISubroutineType(types: !1155)
!1155 = !{!1156, !1150, !1151}
!1156 = !DIDerivedType(tag: DW_TAG_reference_type, baseType: !1143, size: 64)
!1157 = !DISubprogram(name: "~__shared_count", scope: !1143, file: !21, line: 3423, type: !1158, isLocal: false, isDefinition: false, scopeLine: 3423, containingType: !1143, virtuality: DW_VIRTUALITY_virtual, virtualIndex: 0, flags: DIFlagProtected | DIFlagPrototyped, isOptimized: false)
!1158 = !DISubroutineType(types: !1159)
!1159 = !{null, !1150}
!1160 = !DISubprogram(name: "__on_zero_shared", linkageName: "_ZNSt3__114__shared_count16__on_zero_sharedEv", scope: !1143, file: !21, line: 3425, type: !1158, isLocal: false, isDefinition: false, scopeLine: 3425, containingType: !1143, virtuality: DW_VIRTUALITY_pure_virtual, virtualIndex: 2, flags: DIFlagPrototyped, isOptimized: false)
!1161 = !DISubprogram(name: "__shared_count", scope: !1143, file: !21, line: 3429, type: !1162, isLocal: false, isDefinition: false, scopeLine: 3429, flags: DIFlagPublic | DIFlagExplicit | DIFlagPrototyped, isOptimized: false)
!1162 = !DISubroutineType(types: !1163)
!1163 = !{null, !1150, !119}
!1164 = !DISubprogram(name: "__add_shared", linkageName: "_ZNSt3__114__shared_count12__add_sharedEv", scope: !1143, file: !21, line: 3438, type: !1158, isLocal: false, isDefinition: false, scopeLine: 3438, flags: DIFlagPublic | DIFlagPrototyped, isOptimized: false)
!1165 = !DISubprogram(name: "__release_shared", linkageName: "_ZNSt3__114__shared_count16__release_sharedEv", scope: !1143, file: !21, line: 3442, type: !1166, isLocal: false, isDefinition: false, scopeLine: 3442, flags: DIFlagPublic | DIFlagPrototyped, isOptimized: false)
!1166 = !DISubroutineType(types: !1167)
!1167 = !{!233, !1150}
!1168 = !DISubprogram(name: "use_count", linkageName: "_ZNKSt3__114__shared_count9use_countEv", scope: !1143, file: !21, line: 3451, type: !1169, isLocal: false, isDefinition: false, scopeLine: 3451, flags: DIFlagPublic | DIFlagPrototyped, isOptimized: false)
!1169 = !DISubroutineType(types: !1170)
!1170 = !{!119, !1171}
!1171 = !DIDerivedType(tag: DW_TAG_pointer_type, baseType: !1152, size: 64, flags: DIFlagArtificial | DIFlagObjectPointer)
!1172 = !DISubprogram(name: "facet", scope: !1140, file: !183, line: 152, type: !1173, isLocal: false, isDefinition: false, scopeLine: 152, flags: DIFlagProtected | DIFlagExplicit | DIFlagPrototyped, isOptimized: false)
!1173 = !DISubroutineType(types: !1174)
!1174 = !{null, !1175, !141}
!1175 = !DIDerivedType(tag: DW_TAG_pointer_type, baseType: !1140, size: 64, flags: DIFlagArtificial | DIFlagObjectPointer)
!1176 = !DISubprogram(name: "~facet", scope: !1140, file: !183, line: 155, type: !1177, isLocal: false, isDefinition: false, scopeLine: 155, containingType: !1140, virtuality: DW_VIRTUALITY_virtual, virtualIndex: 0, flags: DIFlagProtected | DIFlagPrototyped, isOptimized: false)
!1177 = !DISubroutineType(types: !1178)
!1178 = !{null, !1175}
!1179 = !DISubprogram(name: "__on_zero_shared", linkageName: "_ZNSt3__16locale5facet16__on_zero_sharedEv", scope: !1140, file: !183, line: 160, type: !1177, isLocal: false, isDefinition: false, scopeLine: 160, containingType: !1140, virtuality: DW_VIRTUALITY_virtual, virtualIndex: 2, flags: DIFlagPrototyped, isOptimized: false)
!1180 = !DISubprogram(name: "__global", linkageName: "_ZNSt3__16locale8__globalEv", scope: !182, file: !183, line: 139, type: !1181, isLocal: false, isDefinition: false, scopeLine: 139, flags: DIFlagPrototyped, isOptimized: false)
!1181 = !DISubroutineType(types: !1182)
!1182 = !{!1183}
!1183 = !DIDerivedType(tag: DW_TAG_reference_type, baseType: !182, size: 64)
!1184 = !DISubprogram(name: "has_facet", linkageName: "_ZNKSt3__16locale9has_facetERNS0_2idE", scope: !182, file: !183, line: 140, type: !1185, isLocal: false, isDefinition: false, scopeLine: 140, flags: DIFlagPrototyped, isOptimized: false)
!1185 = !DISubroutineType(types: !1186)
!1186 = !{!233, !1125, !1187}
!1187 = !DIDerivedType(tag: DW_TAG_reference_type, baseType: !1188, size: 64)
!1188 = distinct !DICompositeType(tag: DW_TAG_class_type, name: "id", scope: !182, file: !183, line: 163, size: 128, elements: !1189, identifier: "_ZTSNSt3__16locale2idE")
!1189 = !{!1190, !1208, !1211, !1212, !1216, !1217, !1222, !1223}
!1190 = !DIDerivedType(tag: DW_TAG_member, name: "__flag_", scope: !1188, file: !183, line: 165, baseType: !1191, size: 64)
!1191 = distinct !DICompositeType(tag: DW_TAG_structure_type, name: "once_flag", scope: !22, file: !1192, line: 572, size: 64, elements: !1193, identifier: "_ZTSNSt3__19once_flagE")
!1192 = !DIFile(filename: "/Applications/Xcode.app/Contents/Developer/Toolchains/XcodeDefault.xctoolchain/usr/include/c++/v1/mutex", directory: "/Users/ejiang/Projects/lls/ac")
!1193 = !{!1194, !1195, !1199, !1204}
!1194 = !DIDerivedType(tag: DW_TAG_member, name: "__state_", scope: !1191, file: !1192, line: 582, baseType: !142, size: 64, flags: DIFlagPrivate)
!1195 = !DISubprogram(name: "once_flag", scope: !1191, file: !1192, line: 576, type: !1196, isLocal: false, isDefinition: false, scopeLine: 576, flags: DIFlagPrototyped, isOptimized: false)
!1196 = !DISubroutineType(types: !1197)
!1197 = !{null, !1198}
!1198 = !DIDerivedType(tag: DW_TAG_pointer_type, baseType: !1191, size: 64, flags: DIFlagArtificial | DIFlagObjectPointer)
!1199 = !DISubprogram(name: "once_flag", scope: !1191, file: !1192, line: 579, type: !1200, isLocal: false, isDefinition: false, scopeLine: 579, flags: DIFlagPrivate | DIFlagPrototyped, isOptimized: false)
!1200 = !DISubroutineType(types: !1201)
!1201 = !{null, !1198, !1202}
!1202 = !DIDerivedType(tag: DW_TAG_reference_type, baseType: !1203, size: 64)
!1203 = !DIDerivedType(tag: DW_TAG_const_type, baseType: !1191)
!1204 = !DISubprogram(name: "operator=", linkageName: "_ZNSt3__19once_flagaSERKS0_", scope: !1191, file: !1192, line: 580, type: !1205, isLocal: false, isDefinition: false, scopeLine: 580, flags: DIFlagPrivate | DIFlagPrototyped, isOptimized: false)
!1205 = !DISubroutineType(types: !1206)
!1206 = !{!1207, !1198, !1202}
!1207 = !DIDerivedType(tag: DW_TAG_reference_type, baseType: !1191, size: 64)
!1208 = !DIDerivedType(tag: DW_TAG_member, name: "__id_", scope: !1188, file: !183, line: 166, baseType: !1209, size: 32, offset: 64)
!1209 = !DIDerivedType(tag: DW_TAG_typedef, name: "int32_t", file: !1210, line: 30, baseType: !14)
!1210 = !DIFile(filename: "/Applications/Xcode.app/Contents/Developer/Platforms/MacOSX.platform/Developer/SDKs/MacOSX10.13.sdk/usr/include/sys/_types/_int32_t.h", directory: "/Users/ejiang/Projects/lls/ac")
!1211 = !DIDerivedType(tag: DW_TAG_member, name: "__next_id", scope: !1188, file: !183, line: 168, baseType: !1209, flags: DIFlagStaticMember)
!1212 = !DISubprogram(name: "id", scope: !1188, file: !183, line: 170, type: !1213, isLocal: false, isDefinition: false, scopeLine: 170, flags: DIFlagPublic | DIFlagPrototyped, isOptimized: false)
!1213 = !DISubroutineType(types: !1214)
!1214 = !{null, !1215}
!1215 = !DIDerivedType(tag: DW_TAG_pointer_type, baseType: !1188, size: 64, flags: DIFlagArtificial | DIFlagObjectPointer)
!1216 = !DISubprogram(name: "__init", linkageName: "_ZNSt3__16locale2id6__initEv", scope: !1188, file: !183, line: 172, type: !1213, isLocal: false, isDefinition: false, scopeLine: 172, flags: DIFlagPrototyped, isOptimized: false)
!1217 = !DISubprogram(name: "operator=", linkageName: "_ZNSt3__16locale2idaSERKS1_", scope: !1188, file: !183, line: 173, type: !1218, isLocal: false, isDefinition: false, scopeLine: 173, flags: DIFlagPrototyped, isOptimized: false)
!1218 = !DISubroutineType(types: !1219)
!1219 = !{null, !1215, !1220}
!1220 = !DIDerivedType(tag: DW_TAG_reference_type, baseType: !1221, size: 64)
!1221 = !DIDerivedType(tag: DW_TAG_const_type, baseType: !1188)
!1222 = !DISubprogram(name: "id", scope: !1188, file: !183, line: 174, type: !1218, isLocal: false, isDefinition: false, scopeLine: 174, flags: DIFlagPrototyped, isOptimized: false)
!1223 = !DISubprogram(name: "__get", linkageName: "_ZNSt3__16locale2id5__getEv", scope: !1188, file: !183, line: 176, type: !1224, isLocal: false, isDefinition: false, scopeLine: 176, flags: DIFlagPublic | DIFlagPrototyped, isOptimized: false)
!1224 = !DISubroutineType(types: !1225)
!1225 = !{!119, !1215}
!1226 = !DISubprogram(name: "use_facet", linkageName: "_ZNKSt3__16locale9use_facetERNS0_2idE", scope: !182, file: !183, line: 141, type: !1227, isLocal: false, isDefinition: false, scopeLine: 141, flags: DIFlagPrototyped, isOptimized: false)
!1227 = !DISubroutineType(types: !1228)
!1228 = !{!1229, !1125, !1187}
!1229 = !DIDerivedType(tag: DW_TAG_pointer_type, baseType: !1230, size: 64)
!1230 = !DIDerivedType(tag: DW_TAG_const_type, baseType: !1140)
!1231 = !DISubprogram(name: "getloc", linkageName: "_ZNKSt3__18ios_base6getlocEv", scope: !75, file: !76, line: 297, type: !1232, isLocal: false, isDefinition: false, scopeLine: 297, flags: DIFlagPublic | DIFlagPrototyped, isOptimized: false)
!1232 = !DISubroutineType(types: !1233)
!1233 = !{!182, !158}
!1234 = !DISubprogram(name: "xalloc", linkageName: "_ZNSt3__18ios_base6xallocEv", scope: !75, file: !76, line: 300, type: !12, isLocal: false, isDefinition: false, scopeLine: 300, flags: DIFlagPublic | DIFlagPrototyped, isOptimized: false)
!1235 = !DISubprogram(name: "iword", linkageName: "_ZNSt3__18ios_base5iwordEi", scope: !75, file: !76, line: 301, type: !1236, isLocal: false, isDefinition: false, scopeLine: 301, flags: DIFlagPublic | DIFlagPrototyped, isOptimized: false)
!1236 = !DISubroutineType(types: !1237)
!1237 = !{!1238, !163, !14}
!1238 = !DIDerivedType(tag: DW_TAG_reference_type, baseType: !119, size: 64)
!1239 = !DISubprogram(name: "pword", linkageName: "_ZNSt3__18ios_base5pwordEi", scope: !75, file: !76, line: 302, type: !1240, isLocal: false, isDefinition: false, scopeLine: 302, flags: DIFlagPublic | DIFlagPrototyped, isOptimized: false)
!1240 = !DISubroutineType(types: !1241)
!1241 = !{!1242, !163, !14}
!1242 = !DIDerivedType(tag: DW_TAG_reference_type, baseType: !124, size: 64)
!1243 = !DISubprogram(name: "~ios_base", scope: !75, file: !76, line: 305, type: !1244, isLocal: false, isDefinition: false, scopeLine: 305, containingType: !75, virtuality: DW_VIRTUALITY_virtual, virtualIndex: 0, flags: DIFlagPublic | DIFlagPrototyped, isOptimized: false)
!1244 = !DISubroutineType(types: !1245)
!1245 = !{null, !163}
!1246 = !DISubprogram(name: "register_callback", linkageName: "_ZNSt3__18ios_base17register_callbackEPFvNS0_5eventERS0_iEi", scope: !75, file: !76, line: 310, type: !1247, isLocal: false, isDefinition: false, scopeLine: 310, flags: DIFlagPublic | DIFlagPrototyped, isOptimized: false)
!1247 = !DISubroutineType(types: !1248)
!1248 = !{null, !163, !128, !14}
!1249 = !DISubprogram(name: "ios_base", scope: !75, file: !76, line: 313, type: !1250, isLocal: false, isDefinition: false, scopeLine: 313, flags: DIFlagPrototyped, isOptimized: false)
!1250 = !DISubroutineType(types: !1251)
!1251 = !{null, !163, !1252}
!1252 = !DIDerivedType(tag: DW_TAG_reference_type, baseType: !159, size: 64)
!1253 = !DISubprogram(name: "operator=", linkageName: "_ZNSt3__18ios_baseaSERKS0_", scope: !75, file: !76, line: 314, type: !1254, isLocal: false, isDefinition: false, scopeLine: 314, flags: DIFlagPrototyped, isOptimized: false)
!1254 = !DISubroutineType(types: !1255)
!1255 = !{!137, !163, !1252}
!1256 = !DISubprogram(name: "sync_with_stdio", linkageName: "_ZNSt3__18ios_base15sync_with_stdioEb", scope: !75, file: !76, line: 317, type: !1257, isLocal: false, isDefinition: false, scopeLine: 317, flags: DIFlagPublic | DIFlagPrototyped, isOptimized: false)
!1257 = !DISubroutineType(types: !1258)
!1258 = !{!233, !233}
!1259 = !DISubprogram(name: "rdstate", linkageName: "_ZNKSt3__18ios_base7rdstateEv", scope: !75, file: !76, line: 319, type: !1260, isLocal: false, isDefinition: false, scopeLine: 319, flags: DIFlagPublic | DIFlagPrototyped, isOptimized: false)
!1260 = !DISubroutineType(types: !1261)
!1261 = !{!102, !158}
!1262 = !DISubprogram(name: "clear", linkageName: "_ZNSt3__18ios_base5clearEj", scope: !75, file: !76, line: 320, type: !1263, isLocal: false, isDefinition: false, scopeLine: 320, flags: DIFlagPublic | DIFlagPrototyped, isOptimized: false)
!1263 = !DISubroutineType(types: !1264)
!1264 = !{null, !163, !102}
!1265 = !DISubprogram(name: "setstate", linkageName: "_ZNSt3__18ios_base8setstateEj", scope: !75, file: !76, line: 321, type: !1263, isLocal: false, isDefinition: false, scopeLine: 321, flags: DIFlagPublic | DIFlagPrototyped, isOptimized: false)
!1266 = !DISubprogram(name: "good", linkageName: "_ZNKSt3__18ios_base4goodEv", scope: !75, file: !76, line: 323, type: !1267, isLocal: false, isDefinition: false, scopeLine: 323, flags: DIFlagPublic | DIFlagPrototyped, isOptimized: false)
!1267 = !DISubroutineType(types: !1268)
!1268 = !{!233, !158}
!1269 = !DISubprogram(name: "eof", linkageName: "_ZNKSt3__18ios_base3eofEv", scope: !75, file: !76, line: 324, type: !1267, isLocal: false, isDefinition: false, scopeLine: 324, flags: DIFlagPublic | DIFlagPrototyped, isOptimized: false)
!1270 = !DISubprogram(name: "fail", linkageName: "_ZNKSt3__18ios_base4failEv", scope: !75, file: !76, line: 325, type: !1267, isLocal: false, isDefinition: false, scopeLine: 325, flags: DIFlagPublic | DIFlagPrototyped, isOptimized: false)
!1271 = !DISubprogram(name: "bad", linkageName: "_ZNKSt3__18ios_base3badEv", scope: !75, file: !76, line: 326, type: !1267, isLocal: false, isDefinition: false, scopeLine: 326, flags: DIFlagPublic | DIFlagPrototyped, isOptimized: false)
!1272 = !DISubprogram(name: "exceptions", linkageName: "_ZNKSt3__18ios_base10exceptionsEv", scope: !75, file: !76, line: 328, type: !1260, isLocal: false, isDefinition: false, scopeLine: 328, flags: DIFlagPublic | DIFlagPrototyped, isOptimized: false)
!1273 = !DISubprogram(name: "exceptions", linkageName: "_ZNSt3__18ios_base10exceptionsEj", scope: !75, file: !76, line: 329, type: !1263, isLocal: false, isDefinition: false, scopeLine: 329, flags: DIFlagPublic | DIFlagPrototyped, isOptimized: false)
!1274 = !DISubprogram(name: "__set_badbit_and_consider_rethrow", linkageName: "_ZNSt3__18ios_base33__set_badbit_and_consider_rethrowEv", scope: !75, file: !76, line: 331, type: !1244, isLocal: false, isDefinition: false, scopeLine: 331, flags: DIFlagPublic | DIFlagPrototyped, isOptimized: false)
!1275 = !DISubprogram(name: "__set_failbit_and_consider_rethrow", linkageName: "_ZNSt3__18ios_base34__set_failbit_and_consider_rethrowEv", scope: !75, file: !76, line: 332, type: !1244, isLocal: false, isDefinition: false, scopeLine: 332, flags: DIFlagPublic | DIFlagPrototyped, isOptimized: false)
!1276 = !DISubprogram(name: "ios_base", scope: !75, file: !76, line: 336, type: !1244, isLocal: false, isDefinition: false, scopeLine: 336, flags: DIFlagProtected | DIFlagPrototyped, isOptimized: false)
!1277 = !DISubprogram(name: "init", linkageName: "_ZNSt3__18ios_base4initEPv", scope: !75, file: !76, line: 339, type: !1278, isLocal: false, isDefinition: false, scopeLine: 339, flags: DIFlagProtected | DIFlagPrototyped, isOptimized: false)
!1278 = !DISubroutineType(types: !1279)
!1279 = !{null, !163, !124}
!1280 = !DISubprogram(name: "rdbuf", linkageName: "_ZNKSt3__18ios_base5rdbufEv", scope: !75, file: !76, line: 340, type: !1281, isLocal: false, isDefinition: false, scopeLine: 340, flags: DIFlagProtected | DIFlagPrototyped, isOptimized: false)
!1281 = !DISubroutineType(types: !1282)
!1282 = !{!124, !158}
!1283 = !DISubprogram(name: "rdbuf", linkageName: "_ZNSt3__18ios_base5rdbufEPv", scope: !75, file: !76, line: 343, type: !1278, isLocal: false, isDefinition: false, scopeLine: 343, flags: DIFlagProtected | DIFlagPrototyped, isOptimized: false)
!1284 = !DISubprogram(name: "__call_callbacks", linkageName: "_ZNSt3__18ios_base16__call_callbacksENS0_5eventE", scope: !75, file: !76, line: 349, type: !1285, isLocal: false, isDefinition: false, scopeLine: 349, flags: DIFlagProtected | DIFlagPrototyped, isOptimized: false)
!1285 = !DISubroutineType(types: !1286)
!1286 = !{null, !163, !132}
!1287 = !DISubprogram(name: "copyfmt", linkageName: "_ZNSt3__18ios_base7copyfmtERKS0_", scope: !75, file: !76, line: 350, type: !1250, isLocal: false, isDefinition: false, scopeLine: 350, flags: DIFlagProtected | DIFlagPrototyped, isOptimized: false)
!1288 = !DISubprogram(name: "move", linkageName: "_ZNSt3__18ios_base4moveERS0_", scope: !75, file: !76, line: 351, type: !1289, isLocal: false, isDefinition: false, scopeLine: 351, flags: DIFlagProtected | DIFlagPrototyped, isOptimized: false)
!1289 = !DISubroutineType(types: !1290)
!1290 = !{null, !163, !137}
!1291 = !DISubprogram(name: "swap", linkageName: "_ZNSt3__18ios_base4swapERS0_", scope: !75, file: !76, line: 352, type: !1289, isLocal: false, isDefinition: false, scopeLine: 352, flags: DIFlagProtected | DIFlagPrototyped, isOptimized: false)
!1292 = !DISubprogram(name: "set_rdbuf", linkageName: "_ZNSt3__18ios_base9set_rdbufEPv", scope: !75, file: !76, line: 355, type: !1278, isLocal: false, isDefinition: false, scopeLine: 355, flags: DIFlagProtected | DIFlagPrototyped, isOptimized: false)
!1293 = !DIDerivedType(tag: DW_TAG_member, name: "__tie_", scope: !71, file: !76, line: 669, baseType: !1294, size: 64, offset: 1088)
!1294 = !DIDerivedType(tag: DW_TAG_pointer_type, baseType: !67, size: 64)
!1295 = !DIDerivedType(tag: DW_TAG_member, name: "__fill_", scope: !71, file: !76, line: 670, baseType: !1296, size: 32, offset: 1152)
!1296 = !DIDerivedType(tag: DW_TAG_typedef, name: "int_type", scope: !71, file: !76, line: 591, baseType: !717)
!1297 = !DISubprogram(name: "operator bool", linkageName: "_ZNKSt3__19basic_iosIcNS_11char_traitsIcEEEcvbEv", scope: !71, file: !76, line: 605, type: !1298, isLocal: false, isDefinition: false, scopeLine: 605, flags: DIFlagPublic | DIFlagExplicit | DIFlagPrototyped, isOptimized: false)
!1298 = !DISubroutineType(types: !1299)
!1299 = !{!233, !1300}
!1300 = !DIDerivedType(tag: DW_TAG_pointer_type, baseType: !1301, size: 64, flags: DIFlagArtificial | DIFlagObjectPointer)
!1301 = !DIDerivedType(tag: DW_TAG_const_type, baseType: !71)
!1302 = !DISubprogram(name: "operator!", linkageName: "_ZNKSt3__19basic_iosIcNS_11char_traitsIcEEEntEv", scope: !71, file: !76, line: 608, type: !1298, isLocal: false, isDefinition: false, scopeLine: 608, flags: DIFlagPublic | DIFlagPrototyped, isOptimized: false)
!1303 = !DISubprogram(name: "rdstate", linkageName: "_ZNKSt3__19basic_iosIcNS_11char_traitsIcEEE7rdstateEv", scope: !71, file: !76, line: 609, type: !1304, isLocal: false, isDefinition: false, scopeLine: 609, flags: DIFlagPublic | DIFlagPrototyped, isOptimized: false)
!1304 = !DISubroutineType(types: !1305)
!1305 = !{!102, !1300}
!1306 = !DISubprogram(name: "clear", linkageName: "_ZNSt3__19basic_iosIcNS_11char_traitsIcEEE5clearEj", scope: !71, file: !76, line: 610, type: !1307, isLocal: false, isDefinition: false, scopeLine: 610, flags: DIFlagPublic | DIFlagPrototyped, isOptimized: false)
!1307 = !DISubroutineType(types: !1308)
!1308 = !{null, !1309, !102}
!1309 = !DIDerivedType(tag: DW_TAG_pointer_type, baseType: !71, size: 64, flags: DIFlagArtificial | DIFlagObjectPointer)
!1310 = !DISubprogram(name: "setstate", linkageName: "_ZNSt3__19basic_iosIcNS_11char_traitsIcEEE8setstateEj", scope: !71, file: !76, line: 611, type: !1307, isLocal: false, isDefinition: false, scopeLine: 611, flags: DIFlagPublic | DIFlagPrototyped, isOptimized: false)
!1311 = !DISubprogram(name: "good", linkageName: "_ZNKSt3__19basic_iosIcNS_11char_traitsIcEEE4goodEv", scope: !71, file: !76, line: 612, type: !1298, isLocal: false, isDefinition: false, scopeLine: 612, flags: DIFlagPublic | DIFlagPrototyped, isOptimized: false)
!1312 = !DISubprogram(name: "eof", linkageName: "_ZNKSt3__19basic_iosIcNS_11char_traitsIcEEE3eofEv", scope: !71, file: !76, line: 613, type: !1298, isLocal: false, isDefinition: false, scopeLine: 613, flags: DIFlagPublic | DIFlagPrototyped, isOptimized: false)
!1313 = !DISubprogram(name: "fail", linkageName: "_ZNKSt3__19basic_iosIcNS_11char_traitsIcEEE4failEv", scope: !71, file: !76, line: 614, type: !1298, isLocal: false, isDefinition: false, scopeLine: 614, flags: DIFlagPublic | DIFlagPrototyped, isOptimized: false)
!1314 = !DISubprogram(name: "bad", linkageName: "_ZNKSt3__19basic_iosIcNS_11char_traitsIcEEE3badEv", scope: !71, file: !76, line: 615, type: !1298, isLocal: false, isDefinition: false, scopeLine: 615, flags: DIFlagPublic | DIFlagPrototyped, isOptimized: false)
!1315 = !DISubprogram(name: "exceptions", linkageName: "_ZNKSt3__19basic_iosIcNS_11char_traitsIcEEE10exceptionsEv", scope: !71, file: !76, line: 617, type: !1304, isLocal: false, isDefinition: false, scopeLine: 617, flags: DIFlagPublic | DIFlagPrototyped, isOptimized: false)
!1316 = !DISubprogram(name: "exceptions", linkageName: "_ZNSt3__19basic_iosIcNS_11char_traitsIcEEE10exceptionsEj", scope: !71, file: !76, line: 618, type: !1307, isLocal: false, isDefinition: false, scopeLine: 618, flags: DIFlagPublic | DIFlagPrototyped, isOptimized: false)
!1317 = !DISubprogram(name: "basic_ios", scope: !71, file: !76, line: 622, type: !1318, isLocal: false, isDefinition: false, scopeLine: 622, flags: DIFlagPublic | DIFlagExplicit | DIFlagPrototyped, isOptimized: false)
!1318 = !DISubroutineType(types: !1319)
!1319 = !{null, !1309, !1320}
!1320 = !DIDerivedType(tag: DW_TAG_pointer_type, baseType: !1321, size: 64)
!1321 = distinct !DICompositeType(tag: DW_TAG_class_type, name: "basic_streambuf<char, std::__1::char_traits<char> >", scope: !22, file: !72, line: 483, size: 512, elements: !1322, vtableHolder: !1321, templateParams: !679, identifier: "_ZTSNSt3__115basic_streambufIcNS_11char_traitsIcEEEE")
!1322 = !{!1323, !1324, !1325, !1328, !1329, !1330, !1331, !1332, !1333, !1337, !1340, !1345, !1348, !1364, !1367, !1370, !1373, !1377, !1378, !1379, !1382, !1385, !1386, !1387, !1392, !1393, !1397, !1401, !1404, !1407, !1408, !1409, !1412, !1415, !1416, !1417, !1418, !1419, !1422, !1425, !1426, !1427, !1428, !1429, !1430, !1431, !1432, !1433, !1436, !1437}
!1323 = !DIDerivedType(tag: DW_TAG_member, name: "_vptr$basic_streambuf", scope: !72, file: !72, baseType: !10, size: 64, flags: DIFlagArtificial)
!1324 = !DIDerivedType(tag: DW_TAG_member, name: "__loc_", scope: !1321, file: !72, line: 290, baseType: !182, size: 64, offset: 64)
!1325 = !DIDerivedType(tag: DW_TAG_member, name: "__binp_", scope: !1321, file: !72, line: 291, baseType: !1326, size: 64, offset: 128)
!1326 = !DIDerivedType(tag: DW_TAG_pointer_type, baseType: !1327, size: 64)
!1327 = !DIDerivedType(tag: DW_TAG_typedef, name: "char_type", scope: !1321, file: !72, line: 129, baseType: !212)
!1328 = !DIDerivedType(tag: DW_TAG_member, name: "__ninp_", scope: !1321, file: !72, line: 292, baseType: !1326, size: 64, offset: 192)
!1329 = !DIDerivedType(tag: DW_TAG_member, name: "__einp_", scope: !1321, file: !72, line: 293, baseType: !1326, size: 64, offset: 256)
!1330 = !DIDerivedType(tag: DW_TAG_member, name: "__bout_", scope: !1321, file: !72, line: 294, baseType: !1326, size: 64, offset: 320)
!1331 = !DIDerivedType(tag: DW_TAG_member, name: "__nout_", scope: !1321, file: !72, line: 295, baseType: !1326, size: 64, offset: 384)
!1332 = !DIDerivedType(tag: DW_TAG_member, name: "__eout_", scope: !1321, file: !72, line: 296, baseType: !1326, size: 64, offset: 448)
!1333 = !DISubprogram(name: "~basic_streambuf", scope: !1321, file: !72, line: 135, type: !1334, isLocal: false, isDefinition: false, scopeLine: 135, containingType: !1321, virtuality: DW_VIRTUALITY_virtual, virtualIndex: 0, flags: DIFlagPublic | DIFlagPrototyped, isOptimized: false)
!1334 = !DISubroutineType(types: !1335)
!1335 = !{null, !1336}
!1336 = !DIDerivedType(tag: DW_TAG_pointer_type, baseType: !1321, size: 64, flags: DIFlagArtificial | DIFlagObjectPointer)
!1337 = !DISubprogram(name: "pubimbue", linkageName: "_ZNSt3__115basic_streambufIcNS_11char_traitsIcEEE8pubimbueERKNS_6localeE", scope: !1321, file: !72, line: 139, type: !1338, isLocal: false, isDefinition: false, scopeLine: 139, flags: DIFlagPublic | DIFlagPrototyped, isOptimized: false)
!1338 = !DISubroutineType(types: !1339)
!1339 = !{!182, !1336, !205}
!1340 = !DISubprogram(name: "getloc", linkageName: "_ZNKSt3__115basic_streambufIcNS_11char_traitsIcEEE6getlocEv", scope: !1321, file: !72, line: 147, type: !1341, isLocal: false, isDefinition: false, scopeLine: 147, flags: DIFlagPublic | DIFlagPrototyped, isOptimized: false)
!1341 = !DISubroutineType(types: !1342)
!1342 = !{!182, !1343}
!1343 = !DIDerivedType(tag: DW_TAG_pointer_type, baseType: !1344, size: 64, flags: DIFlagArtificial | DIFlagObjectPointer)
!1344 = !DIDerivedType(tag: DW_TAG_const_type, baseType: !1321)
!1345 = !DISubprogram(name: "pubsetbuf", linkageName: "_ZNSt3__115basic_streambufIcNS_11char_traitsIcEEE9pubsetbufEPcl", scope: !1321, file: !72, line: 151, type: !1346, isLocal: false, isDefinition: false, scopeLine: 151, flags: DIFlagPublic | DIFlagPrototyped, isOptimized: false)
!1346 = !DISubroutineType(types: !1347)
!1347 = !{!1320, !1336, !1326, !116}
!1348 = !DISubprogram(name: "pubseekoff", linkageName: "_ZNSt3__115basic_streambufIcNS_11char_traitsIcEEE10pubseekoffExNS_8ios_base7seekdirEj", scope: !1321, file: !72, line: 155, type: !1349, isLocal: false, isDefinition: false, scopeLine: 155, flags: DIFlagPublic | DIFlagPrototyped, isOptimized: false)
!1349 = !DISubroutineType(types: !1350)
!1350 = !{!1351, !1336, !1355, !1359, !108}
!1351 = !DIDerivedType(tag: DW_TAG_typedef, name: "pos_type", scope: !1321, file: !72, line: 132, baseType: !1352)
!1352 = !DIDerivedType(tag: DW_TAG_typedef, name: "pos_type", scope: !682, file: !683, line: 204, baseType: !1353)
!1353 = !DIDerivedType(tag: DW_TAG_typedef, name: "streampos", scope: !22, file: !66, line: 176, baseType: !1354)
!1354 = !DICompositeType(tag: DW_TAG_class_type, name: "fpos<__mbstate_t>", scope: !22, file: !66, line: 175, flags: DIFlagFwdDecl, identifier: "_ZTSNSt3__14fposI11__mbstate_tEE")
!1355 = !DIDerivedType(tag: DW_TAG_typedef, name: "off_type", scope: !1321, file: !72, line: 133, baseType: !1356)
!1356 = !DIDerivedType(tag: DW_TAG_typedef, name: "off_type", scope: !682, file: !683, line: 203, baseType: !1357)
!1357 = !DIDerivedType(tag: DW_TAG_typedef, name: "streamoff", scope: !22, file: !66, line: 187, baseType: !1358)
!1358 = !DIBasicType(name: "long long int", size: 64, encoding: DW_ATE_signed)
!1359 = !DICompositeType(tag: DW_TAG_enumeration_type, name: "seekdir", scope: !75, file: !76, line: 270, size: 32, elements: !1360, identifier: "_ZTSNSt3__18ios_base7seekdirE")
!1360 = !{!1361, !1362, !1363}
!1361 = !DIEnumerator(name: "beg", value: 0)
!1362 = !DIEnumerator(name: "cur", value: 1)
!1363 = !DIEnumerator(name: "end", value: 2)
!1364 = !DISubprogram(name: "pubseekpos", linkageName: "_ZNSt3__115basic_streambufIcNS_11char_traitsIcEEE10pubseekposENS_4fposI11__mbstate_tEEj", scope: !1321, file: !72, line: 160, type: !1365, isLocal: false, isDefinition: false, scopeLine: 160, flags: DIFlagPublic | DIFlagPrototyped, isOptimized: false)
!1365 = !DISubroutineType(types: !1366)
!1366 = !{!1351, !1336, !1351, !108}
!1367 = !DISubprogram(name: "pubsync", linkageName: "_ZNSt3__115basic_streambufIcNS_11char_traitsIcEEE7pubsyncEv", scope: !1321, file: !72, line: 165, type: !1368, isLocal: false, isDefinition: false, scopeLine: 165, flags: DIFlagPublic | DIFlagPrototyped, isOptimized: false)
!1368 = !DISubroutineType(types: !1369)
!1369 = !{!14, !1336}
!1370 = !DISubprogram(name: "in_avail", linkageName: "_ZNSt3__115basic_streambufIcNS_11char_traitsIcEEE8in_availEv", scope: !1321, file: !72, line: 170, type: !1371, isLocal: false, isDefinition: false, scopeLine: 170, flags: DIFlagPublic | DIFlagPrototyped, isOptimized: false)
!1371 = !DISubroutineType(types: !1372)
!1372 = !{!116, !1336}
!1373 = !DISubprogram(name: "snextc", linkageName: "_ZNSt3__115basic_streambufIcNS_11char_traitsIcEEE6snextcEv", scope: !1321, file: !72, line: 177, type: !1374, isLocal: false, isDefinition: false, scopeLine: 177, flags: DIFlagPublic | DIFlagPrototyped, isOptimized: false)
!1374 = !DISubroutineType(types: !1375)
!1375 = !{!1376, !1336}
!1376 = !DIDerivedType(tag: DW_TAG_typedef, name: "int_type", scope: !1321, file: !72, line: 131, baseType: !717)
!1377 = !DISubprogram(name: "sbumpc", linkageName: "_ZNSt3__115basic_streambufIcNS_11char_traitsIcEEE6sbumpcEv", scope: !1321, file: !72, line: 184, type: !1374, isLocal: false, isDefinition: false, scopeLine: 184, flags: DIFlagPublic | DIFlagPrototyped, isOptimized: false)
!1378 = !DISubprogram(name: "sgetc", linkageName: "_ZNSt3__115basic_streambufIcNS_11char_traitsIcEEE5sgetcEv", scope: !1321, file: !72, line: 191, type: !1374, isLocal: false, isDefinition: false, scopeLine: 191, flags: DIFlagPublic | DIFlagPrototyped, isOptimized: false)
!1379 = !DISubprogram(name: "sgetn", linkageName: "_ZNSt3__115basic_streambufIcNS_11char_traitsIcEEE5sgetnEPcl", scope: !1321, file: !72, line: 198, type: !1380, isLocal: false, isDefinition: false, scopeLine: 198, flags: DIFlagPublic | DIFlagPrototyped, isOptimized: false)
!1380 = !DISubroutineType(types: !1381)
!1381 = !{!116, !1336, !1326, !116}
!1382 = !DISubprogram(name: "sputbackc", linkageName: "_ZNSt3__115basic_streambufIcNS_11char_traitsIcEEE9sputbackcEc", scope: !1321, file: !72, line: 203, type: !1383, isLocal: false, isDefinition: false, scopeLine: 203, flags: DIFlagPublic | DIFlagPrototyped, isOptimized: false)
!1383 = !DISubroutineType(types: !1384)
!1384 = !{!1376, !1336, !1327}
!1385 = !DISubprogram(name: "sungetc", linkageName: "_ZNSt3__115basic_streambufIcNS_11char_traitsIcEEE7sungetcEv", scope: !1321, file: !72, line: 210, type: !1374, isLocal: false, isDefinition: false, scopeLine: 210, flags: DIFlagPublic | DIFlagPrototyped, isOptimized: false)
!1386 = !DISubprogram(name: "sputc", linkageName: "_ZNSt3__115basic_streambufIcNS_11char_traitsIcEEE5sputcEc", scope: !1321, file: !72, line: 218, type: !1383, isLocal: false, isDefinition: false, scopeLine: 218, flags: DIFlagPublic | DIFlagPrototyped, isOptimized: false)
!1387 = !DISubprogram(name: "sputn", linkageName: "_ZNSt3__115basic_streambufIcNS_11char_traitsIcEEE5sputnEPKcl", scope: !1321, file: !72, line: 226, type: !1388, isLocal: false, isDefinition: false, scopeLine: 226, flags: DIFlagPublic | DIFlagPrototyped, isOptimized: false)
!1388 = !DISubroutineType(types: !1389)
!1389 = !{!116, !1336, !1390, !116}
!1390 = !DIDerivedType(tag: DW_TAG_pointer_type, baseType: !1391, size: 64)
!1391 = !DIDerivedType(tag: DW_TAG_const_type, baseType: !1327)
!1392 = !DISubprogram(name: "basic_streambuf", scope: !1321, file: !72, line: 230, type: !1334, isLocal: false, isDefinition: false, scopeLine: 230, flags: DIFlagProtected | DIFlagPrototyped, isOptimized: false)
!1393 = !DISubprogram(name: "basic_streambuf", scope: !1321, file: !72, line: 231, type: !1394, isLocal: false, isDefinition: false, scopeLine: 231, flags: DIFlagProtected | DIFlagPrototyped, isOptimized: false)
!1394 = !DISubroutineType(types: !1395)
!1395 = !{null, !1336, !1396}
!1396 = !DIDerivedType(tag: DW_TAG_reference_type, baseType: !1344, size: 64)
!1397 = !DISubprogram(name: "operator=", linkageName: "_ZNSt3__115basic_streambufIcNS_11char_traitsIcEEEaSERKS3_", scope: !1321, file: !72, line: 232, type: !1398, isLocal: false, isDefinition: false, scopeLine: 232, flags: DIFlagProtected | DIFlagPrototyped, isOptimized: false)
!1398 = !DISubroutineType(types: !1399)
!1399 = !{!1400, !1336, !1396}
!1400 = !DIDerivedType(tag: DW_TAG_reference_type, baseType: !1321, size: 64)
!1401 = !DISubprogram(name: "swap", linkageName: "_ZNSt3__115basic_streambufIcNS_11char_traitsIcEEE4swapERS3_", scope: !1321, file: !72, line: 233, type: !1402, isLocal: false, isDefinition: false, scopeLine: 233, flags: DIFlagProtected | DIFlagPrototyped, isOptimized: false)
!1402 = !DISubroutineType(types: !1403)
!1403 = !{null, !1336, !1400}
!1404 = !DISubprogram(name: "eback", linkageName: "_ZNKSt3__115basic_streambufIcNS_11char_traitsIcEEE5ebackEv", scope: !1321, file: !72, line: 236, type: !1405, isLocal: false, isDefinition: false, scopeLine: 236, flags: DIFlagProtected | DIFlagPrototyped, isOptimized: false)
!1405 = !DISubroutineType(types: !1406)
!1406 = !{!1326, !1343}
!1407 = !DISubprogram(name: "gptr", linkageName: "_ZNKSt3__115basic_streambufIcNS_11char_traitsIcEEE4gptrEv", scope: !1321, file: !72, line: 237, type: !1405, isLocal: false, isDefinition: false, scopeLine: 237, flags: DIFlagProtected | DIFlagPrototyped, isOptimized: false)
!1408 = !DISubprogram(name: "egptr", linkageName: "_ZNKSt3__115basic_streambufIcNS_11char_traitsIcEEE5egptrEv", scope: !1321, file: !72, line: 238, type: !1405, isLocal: false, isDefinition: false, scopeLine: 238, flags: DIFlagProtected | DIFlagPrototyped, isOptimized: false)
!1409 = !DISubprogram(name: "gbump", linkageName: "_ZNSt3__115basic_streambufIcNS_11char_traitsIcEEE5gbumpEi", scope: !1321, file: !72, line: 241, type: !1410, isLocal: false, isDefinition: false, scopeLine: 241, flags: DIFlagProtected | DIFlagPrototyped, isOptimized: false)
!1410 = !DISubroutineType(types: !1411)
!1411 = !{null, !1336, !14}
!1412 = !DISubprogram(name: "setg", linkageName: "_ZNSt3__115basic_streambufIcNS_11char_traitsIcEEE4setgEPcS4_S4_", scope: !1321, file: !72, line: 244, type: !1413, isLocal: false, isDefinition: false, scopeLine: 244, flags: DIFlagProtected | DIFlagPrototyped, isOptimized: false)
!1413 = !DISubroutineType(types: !1414)
!1414 = !{null, !1336, !1326, !1326, !1326}
!1415 = !DISubprogram(name: "pbase", linkageName: "_ZNKSt3__115basic_streambufIcNS_11char_traitsIcEEE5pbaseEv", scope: !1321, file: !72, line: 251, type: !1405, isLocal: false, isDefinition: false, scopeLine: 251, flags: DIFlagProtected | DIFlagPrototyped, isOptimized: false)
!1416 = !DISubprogram(name: "pptr", linkageName: "_ZNKSt3__115basic_streambufIcNS_11char_traitsIcEEE4pptrEv", scope: !1321, file: !72, line: 252, type: !1405, isLocal: false, isDefinition: false, scopeLine: 252, flags: DIFlagProtected | DIFlagPrototyped, isOptimized: false)
!1417 = !DISubprogram(name: "epptr", linkageName: "_ZNKSt3__115basic_streambufIcNS_11char_traitsIcEEE5epptrEv", scope: !1321, file: !72, line: 253, type: !1405, isLocal: false, isDefinition: false, scopeLine: 253, flags: DIFlagProtected | DIFlagPrototyped, isOptimized: false)
!1418 = !DISubprogram(name: "pbump", linkageName: "_ZNSt3__115basic_streambufIcNS_11char_traitsIcEEE5pbumpEi", scope: !1321, file: !72, line: 256, type: !1410, isLocal: false, isDefinition: false, scopeLine: 256, flags: DIFlagProtected | DIFlagPrototyped, isOptimized: false)
!1419 = !DISubprogram(name: "setp", linkageName: "_ZNSt3__115basic_streambufIcNS_11char_traitsIcEEE4setpEPcS4_", scope: !1321, file: !72, line: 259, type: !1420, isLocal: false, isDefinition: false, scopeLine: 259, flags: DIFlagProtected | DIFlagPrototyped, isOptimized: false)
!1420 = !DISubroutineType(types: !1421)
!1421 = !{null, !1336, !1326, !1326}
!1422 = !DISubprogram(name: "imbue", linkageName: "_ZNSt3__115basic_streambufIcNS_11char_traitsIcEEE5imbueERKNS_6localeE", scope: !1321, file: !72, line: 266, type: !1423, isLocal: false, isDefinition: false, scopeLine: 266, containingType: !1321, virtuality: DW_VIRTUALITY_virtual, virtualIndex: 2, flags: DIFlagProtected | DIFlagPrototyped, isOptimized: false)
!1423 = !DISubroutineType(types: !1424)
!1424 = !{null, !1336, !205}
!1425 = !DISubprogram(name: "setbuf", linkageName: "_ZNSt3__115basic_streambufIcNS_11char_traitsIcEEE6setbufEPcl", scope: !1321, file: !72, line: 269, type: !1346, isLocal: false, isDefinition: false, scopeLine: 269, containingType: !1321, virtuality: DW_VIRTUALITY_virtual, virtualIndex: 3, flags: DIFlagProtected | DIFlagPrototyped, isOptimized: false)
!1426 = !DISubprogram(name: "seekoff", linkageName: "_ZNSt3__115basic_streambufIcNS_11char_traitsIcEEE7seekoffExNS_8ios_base7seekdirEj", scope: !1321, file: !72, line: 270, type: !1349, isLocal: false, isDefinition: false, scopeLine: 270, containingType: !1321, virtuality: DW_VIRTUALITY_virtual, virtualIndex: 4, flags: DIFlagProtected | DIFlagPrototyped, isOptimized: false)
!1427 = !DISubprogram(name: "seekpos", linkageName: "_ZNSt3__115basic_streambufIcNS_11char_traitsIcEEE7seekposENS_4fposI11__mbstate_tEEj", scope: !1321, file: !72, line: 272, type: !1365, isLocal: false, isDefinition: false, scopeLine: 272, containingType: !1321, virtuality: DW_VIRTUALITY_virtual, virtualIndex: 5, flags: DIFlagProtected | DIFlagPrototyped, isOptimized: false)
!1428 = !DISubprogram(name: "sync", linkageName: "_ZNSt3__115basic_streambufIcNS_11char_traitsIcEEE4syncEv", scope: !1321, file: !72, line: 274, type: !1368, isLocal: false, isDefinition: false, scopeLine: 274, containingType: !1321, virtuality: DW_VIRTUALITY_virtual, virtualIndex: 6, flags: DIFlagProtected | DIFlagPrototyped, isOptimized: false)
!1429 = !DISubprogram(name: "showmanyc", linkageName: "_ZNSt3__115basic_streambufIcNS_11char_traitsIcEEE9showmanycEv", scope: !1321, file: !72, line: 277, type: !1371, isLocal: false, isDefinition: false, scopeLine: 277, containingType: !1321, virtuality: DW_VIRTUALITY_virtual, virtualIndex: 7, flags: DIFlagProtected | DIFlagPrototyped, isOptimized: false)
!1430 = !DISubprogram(name: "xsgetn", linkageName: "_ZNSt3__115basic_streambufIcNS_11char_traitsIcEEE6xsgetnEPcl", scope: !1321, file: !72, line: 278, type: !1380, isLocal: false, isDefinition: false, scopeLine: 278, containingType: !1321, virtuality: DW_VIRTUALITY_virtual, virtualIndex: 8, flags: DIFlagProtected | DIFlagPrototyped, isOptimized: false)
!1431 = !DISubprogram(name: "underflow", linkageName: "_ZNSt3__115basic_streambufIcNS_11char_traitsIcEEE9underflowEv", scope: !1321, file: !72, line: 279, type: !1374, isLocal: false, isDefinition: false, scopeLine: 279, containingType: !1321, virtuality: DW_VIRTUALITY_virtual, virtualIndex: 9, flags: DIFlagProtected | DIFlagPrototyped, isOptimized: false)
!1432 = !DISubprogram(name: "uflow", linkageName: "_ZNSt3__115basic_streambufIcNS_11char_traitsIcEEE5uflowEv", scope: !1321, file: !72, line: 280, type: !1374, isLocal: false, isDefinition: false, scopeLine: 280, containingType: !1321, virtuality: DW_VIRTUALITY_virtual, virtualIndex: 10, flags: DIFlagProtected | DIFlagPrototyped, isOptimized: false)
!1433 = !DISubprogram(name: "pbackfail", linkageName: "_ZNSt3__115basic_streambufIcNS_11char_traitsIcEEE9pbackfailEi", scope: !1321, file: !72, line: 283, type: !1434, isLocal: false, isDefinition: false, scopeLine: 283, containingType: !1321, virtuality: DW_VIRTUALITY_virtual, virtualIndex: 11, flags: DIFlagProtected | DIFlagPrototyped, isOptimized: false)
!1434 = !DISubroutineType(types: !1435)
!1435 = !{!1376, !1336, !1376}
!1436 = !DISubprogram(name: "xsputn", linkageName: "_ZNSt3__115basic_streambufIcNS_11char_traitsIcEEE6xsputnEPKcl", scope: !1321, file: !72, line: 286, type: !1388, isLocal: false, isDefinition: false, scopeLine: 286, containingType: !1321, virtuality: DW_VIRTUALITY_virtual, virtualIndex: 12, flags: DIFlagProtected | DIFlagPrototyped, isOptimized: false)
!1437 = !DISubprogram(name: "overflow", linkageName: "_ZNSt3__115basic_streambufIcNS_11char_traitsIcEEE8overflowEi", scope: !1321, file: !72, line: 287, type: !1434, isLocal: false, isDefinition: false, scopeLine: 287, containingType: !1321, virtuality: DW_VIRTUALITY_virtual, virtualIndex: 13, flags: DIFlagProtected | DIFlagPrototyped, isOptimized: false)
!1438 = !DISubprogram(name: "~basic_ios", scope: !71, file: !76, line: 623, type: !1439, isLocal: false, isDefinition: false, scopeLine: 623, containingType: !71, virtuality: DW_VIRTUALITY_virtual, virtualIndex: 0, flags: DIFlagPublic | DIFlagPrototyped, isOptimized: false)
!1439 = !DISubroutineType(types: !1440)
!1440 = !{null, !1309}
!1441 = !DISubprogram(name: "tie", linkageName: "_ZNKSt3__19basic_iosIcNS_11char_traitsIcEEE3tieEv", scope: !71, file: !76, line: 627, type: !1442, isLocal: false, isDefinition: false, scopeLine: 627, flags: DIFlagPublic | DIFlagPrototyped, isOptimized: false)
!1442 = !DISubroutineType(types: !1443)
!1443 = !{!1294, !1300}
!1444 = !DISubprogram(name: "tie", linkageName: "_ZNSt3__19basic_iosIcNS_11char_traitsIcEEE3tieEPNS_13basic_ostreamIcS2_EE", scope: !71, file: !76, line: 629, type: !1445, isLocal: false, isDefinition: false, scopeLine: 629, flags: DIFlagPublic | DIFlagPrototyped, isOptimized: false)
!1445 = !DISubroutineType(types: !1446)
!1446 = !{!1294, !1309, !1294}
!1447 = !DISubprogram(name: "rdbuf", linkageName: "_ZNKSt3__19basic_iosIcNS_11char_traitsIcEEE5rdbufEv", scope: !71, file: !76, line: 632, type: !1448, isLocal: false, isDefinition: false, scopeLine: 632, flags: DIFlagPublic | DIFlagPrototyped, isOptimized: false)
!1448 = !DISubroutineType(types: !1449)
!1449 = !{!1320, !1300}
!1450 = !DISubprogram(name: "rdbuf", linkageName: "_ZNSt3__19basic_iosIcNS_11char_traitsIcEEE5rdbufEPNS_15basic_streambufIcS2_EE", scope: !71, file: !76, line: 634, type: !1451, isLocal: false, isDefinition: false, scopeLine: 634, flags: DIFlagPublic | DIFlagPrototyped, isOptimized: false)
!1451 = !DISubroutineType(types: !1452)
!1452 = !{!1320, !1309, !1320}
!1453 = !DISubprogram(name: "copyfmt", linkageName: "_ZNSt3__19basic_iosIcNS_11char_traitsIcEEE7copyfmtERKS3_", scope: !71, file: !76, line: 636, type: !1454, isLocal: false, isDefinition: false, scopeLine: 636, flags: DIFlagPublic | DIFlagPrototyped, isOptimized: false)
!1454 = !DISubroutineType(types: !1455)
!1455 = !{!1456, !1309, !1457}
!1456 = !DIDerivedType(tag: DW_TAG_reference_type, baseType: !71, size: 64)
!1457 = !DIDerivedType(tag: DW_TAG_reference_type, baseType: !1301, size: 64)
!1458 = !DISubprogram(name: "fill", linkageName: "_ZNKSt3__19basic_iosIcNS_11char_traitsIcEEE4fillEv", scope: !71, file: !76, line: 639, type: !1459, isLocal: false, isDefinition: false, scopeLine: 639, flags: DIFlagPublic | DIFlagPrototyped, isOptimized: false)
!1459 = !DISubroutineType(types: !1460)
!1460 = !{!1461, !1300}
!1461 = !DIDerivedType(tag: DW_TAG_typedef, name: "char_type", scope: !71, file: !76, line: 588, baseType: !212)
!1462 = !DISubprogram(name: "fill", linkageName: "_ZNSt3__19basic_iosIcNS_11char_traitsIcEEE4fillEc", scope: !71, file: !76, line: 641, type: !1463, isLocal: false, isDefinition: false, scopeLine: 641, flags: DIFlagPublic | DIFlagPrototyped, isOptimized: false)
!1463 = !DISubroutineType(types: !1464)
!1464 = !{!1461, !1309, !1461}
!1465 = !DISubprogram(name: "imbue", linkageName: "_ZNSt3__19basic_iosIcNS_11char_traitsIcEEE5imbueERKNS_6localeE", scope: !71, file: !76, line: 644, type: !1466, isLocal: false, isDefinition: false, scopeLine: 644, flags: DIFlagPublic | DIFlagPrototyped, isOptimized: false)
!1466 = !DISubroutineType(types: !1467)
!1467 = !{!182, !1309, !205}
!1468 = !DISubprogram(name: "narrow", linkageName: "_ZNKSt3__19basic_iosIcNS_11char_traitsIcEEE6narrowEcc", scope: !71, file: !76, line: 647, type: !1469, isLocal: false, isDefinition: false, scopeLine: 647, flags: DIFlagPublic | DIFlagPrototyped, isOptimized: false)
!1469 = !DISubroutineType(types: !1470)
!1470 = !{!212, !1300, !1461, !212}
!1471 = !DISubprogram(name: "widen", linkageName: "_ZNKSt3__19basic_iosIcNS_11char_traitsIcEEE5widenEc", scope: !71, file: !76, line: 649, type: !1472, isLocal: false, isDefinition: false, scopeLine: 649, flags: DIFlagPublic | DIFlagPrototyped, isOptimized: false)
!1472 = !DISubroutineType(types: !1473)
!1473 = !{!1461, !1300, !212}
!1474 = !DISubprogram(name: "basic_ios", scope: !71, file: !76, line: 653, type: !1439, isLocal: false, isDefinition: false, scopeLine: 653, flags: DIFlagProtected | DIFlagPrototyped, isOptimized: false)
!1475 = !DISubprogram(name: "init", linkageName: "_ZNSt3__19basic_iosIcNS_11char_traitsIcEEE4initEPNS_15basic_streambufIcS2_EE", scope: !71, file: !76, line: 656, type: !1318, isLocal: false, isDefinition: false, scopeLine: 656, flags: DIFlagProtected | DIFlagPrototyped, isOptimized: false)
!1476 = !DISubprogram(name: "move", linkageName: "_ZNSt3__19basic_iosIcNS_11char_traitsIcEEE4moveERS3_", scope: !71, file: !76, line: 659, type: !1477, isLocal: false, isDefinition: false, scopeLine: 659, flags: DIFlagProtected | DIFlagPrototyped, isOptimized: false)
!1477 = !DISubroutineType(types: !1478)
!1478 = !{null, !1309, !1456}
!1479 = !DISubprogram(name: "move", linkageName: "_ZNSt3__19basic_iosIcNS_11char_traitsIcEEE4moveEOS3_", scope: !71, file: !76, line: 662, type: !1480, isLocal: false, isDefinition: false, scopeLine: 662, flags: DIFlagProtected | DIFlagPrototyped, isOptimized: false)
!1480 = !DISubroutineType(types: !1481)
!1481 = !{null, !1309, !1482}
!1482 = !DIDerivedType(tag: DW_TAG_rvalue_reference_type, baseType: !71, size: 64)
!1483 = !DISubprogram(name: "swap", linkageName: "_ZNSt3__19basic_iosIcNS_11char_traitsIcEEE4swapERS3_", scope: !71, file: !76, line: 665, type: !1477, isLocal: false, isDefinition: false, scopeLine: 665, flags: DIFlagProtected | DIFlagPrototyped, isOptimized: false)
!1484 = !DISubprogram(name: "set_rdbuf", linkageName: "_ZNSt3__19basic_iosIcNS_11char_traitsIcEEE9set_rdbufEPNS_15basic_streambufIcS2_EE", scope: !71, file: !76, line: 667, type: !1318, isLocal: false, isDefinition: false, scopeLine: 667, flags: DIFlagProtected | DIFlagPrototyped, isOptimized: false)
!1485 = !DIDerivedType(tag: DW_TAG_member, name: "_vptr$basic_ostream", scope: !68, file: !68, baseType: !10, size: 64, flags: DIFlagArtificial)
!1486 = !DISubprogram(name: "basic_ostream", scope: !67, file: !68, line: 164, type: !1487, isLocal: false, isDefinition: false, scopeLine: 164, flags: DIFlagPublic | DIFlagExplicit | DIFlagPrototyped, isOptimized: false)
!1487 = !DISubroutineType(types: !1488)
!1488 = !{null, !1489, !1320}
!1489 = !DIDerivedType(tag: DW_TAG_pointer_type, baseType: !67, size: 64, flags: DIFlagArtificial | DIFlagObjectPointer)
!1490 = !DISubprogram(name: "~basic_ostream", scope: !67, file: !68, line: 166, type: !1491, isLocal: false, isDefinition: false, scopeLine: 166, containingType: !67, virtuality: DW_VIRTUALITY_virtual, virtualIndex: 0, flags: DIFlagPublic | DIFlagPrototyped, isOptimized: false)
!1491 = !DISubroutineType(types: !1492)
!1492 = !{null, !1489}
!1493 = !DISubprogram(name: "basic_ostream", scope: !67, file: !68, line: 170, type: !1494, isLocal: false, isDefinition: false, scopeLine: 170, flags: DIFlagProtected | DIFlagPrototyped, isOptimized: false)
!1494 = !DISubroutineType(types: !1495)
!1495 = !{null, !1489, !1496}
!1496 = !DIDerivedType(tag: DW_TAG_rvalue_reference_type, baseType: !67, size: 64)
!1497 = !DISubprogram(name: "operator=", linkageName: "_ZNSt3__113basic_ostreamIcNS_11char_traitsIcEEEaSEOS3_", scope: !67, file: !68, line: 174, type: !1498, isLocal: false, isDefinition: false, scopeLine: 174, flags: DIFlagProtected | DIFlagPrototyped, isOptimized: false)
!1498 = !DISubroutineType(types: !1499)
!1499 = !{!1500, !1489, !1496}
!1500 = !DIDerivedType(tag: DW_TAG_reference_type, baseType: !67, size: 64)
!1501 = !DISubprogram(name: "swap", linkageName: "_ZNSt3__113basic_ostreamIcNS_11char_traitsIcEEE4swapERS3_", scope: !67, file: !68, line: 177, type: !1502, isLocal: false, isDefinition: false, scopeLine: 177, flags: DIFlagProtected | DIFlagPrototyped, isOptimized: false)
!1502 = !DISubroutineType(types: !1503)
!1503 = !{null, !1489, !1500}
!1504 = !DISubprogram(name: "basic_ostream", scope: !67, file: !68, line: 181, type: !1505, isLocal: false, isDefinition: false, scopeLine: 181, flags: DIFlagProtected | DIFlagPrototyped, isOptimized: false)
!1505 = !DISubroutineType(types: !1506)
!1506 = !{null, !1489, !1507}
!1507 = !DIDerivedType(tag: DW_TAG_reference_type, baseType: !1508, size: 64)
!1508 = !DIDerivedType(tag: DW_TAG_const_type, baseType: !67)
!1509 = !DISubprogram(name: "operator=", linkageName: "_ZNSt3__113basic_ostreamIcNS_11char_traitsIcEEEaSERKS3_", scope: !67, file: !68, line: 182, type: !1510, isLocal: false, isDefinition: false, scopeLine: 182, flags: DIFlagProtected | DIFlagPrototyped, isOptimized: false)
!1510 = !DISubroutineType(types: !1511)
!1511 = !{!1500, !1489, !1507}
!1512 = !DISubprogram(name: "operator<<", linkageName: "_ZNSt3__113basic_ostreamIcNS_11char_traitsIcEEElsEPFRS3_S4_E", scope: !67, file: !68, line: 194, type: !1513, isLocal: false, isDefinition: false, scopeLine: 194, flags: DIFlagPublic | DIFlagPrototyped, isOptimized: false)
!1513 = !DISubroutineType(types: !1514)
!1514 = !{!1500, !1489, !1515}
!1515 = !DIDerivedType(tag: DW_TAG_pointer_type, baseType: !1516, size: 64)
!1516 = !DISubroutineType(types: !1517)
!1517 = !{!1500, !1500}
!1518 = !DISubprogram(name: "operator<<", linkageName: "_ZNSt3__113basic_ostreamIcNS_11char_traitsIcEEElsEPFRNS_9basic_iosIcS2_EES6_E", scope: !67, file: !68, line: 198, type: !1519, isLocal: false, isDefinition: false, scopeLine: 198, flags: DIFlagPublic | DIFlagPrototyped, isOptimized: false)
!1519 = !DISubroutineType(types: !1520)
!1520 = !{!1500, !1489, !1521}
!1521 = !DIDerivedType(tag: DW_TAG_pointer_type, baseType: !1522, size: 64)
!1522 = !DISubroutineType(types: !1523)
!1523 = !{!1456, !1456}
!1524 = !DISubprogram(name: "operator<<", linkageName: "_ZNSt3__113basic_ostreamIcNS_11char_traitsIcEEElsEPFRNS_8ios_baseES5_E", scope: !67, file: !68, line: 203, type: !1525, isLocal: false, isDefinition: false, scopeLine: 203, flags: DIFlagPublic | DIFlagPrototyped, isOptimized: false)
!1525 = !DISubroutineType(types: !1526)
!1526 = !{!1500, !1489, !1527}
!1527 = !DIDerivedType(tag: DW_TAG_pointer_type, baseType: !1528, size: 64)
!1528 = !DISubroutineType(types: !1529)
!1529 = !{!137, !137}
!1530 = !DISubprogram(name: "operator<<", linkageName: "_ZNSt3__113basic_ostreamIcNS_11char_traitsIcEEElsEb", scope: !67, file: !68, line: 206, type: !1531, isLocal: false, isDefinition: false, scopeLine: 206, flags: DIFlagPublic | DIFlagPrototyped, isOptimized: false)
!1531 = !DISubroutineType(types: !1532)
!1532 = !{!1500, !1489, !233}
!1533 = !DISubprogram(name: "operator<<", linkageName: "_ZNSt3__113basic_ostreamIcNS_11char_traitsIcEEElsEs", scope: !67, file: !68, line: 207, type: !1534, isLocal: false, isDefinition: false, scopeLine: 207, flags: DIFlagPublic | DIFlagPrototyped, isOptimized: false)
!1534 = !DISubroutineType(types: !1535)
!1535 = !{!1500, !1489, !1536}
!1536 = !DIBasicType(name: "short", size: 16, encoding: DW_ATE_signed)
!1537 = !DISubprogram(name: "operator<<", linkageName: "_ZNSt3__113basic_ostreamIcNS_11char_traitsIcEEElsEt", scope: !67, file: !68, line: 208, type: !1538, isLocal: false, isDefinition: false, scopeLine: 208, flags: DIFlagPublic | DIFlagPrototyped, isOptimized: false)
!1538 = !DISubroutineType(types: !1539)
!1539 = !{!1500, !1489, !1540}
!1540 = !DIBasicType(name: "unsigned short", size: 16, encoding: DW_ATE_unsigned)
!1541 = !DISubprogram(name: "operator<<", linkageName: "_ZNSt3__113basic_ostreamIcNS_11char_traitsIcEEElsEi", scope: !67, file: !68, line: 209, type: !1542, isLocal: false, isDefinition: false, scopeLine: 209, flags: DIFlagPublic | DIFlagPrototyped, isOptimized: false)
!1542 = !DISubroutineType(types: !1543)
!1543 = !{!1500, !1489, !14}
!1544 = !DISubprogram(name: "operator<<", linkageName: "_ZNSt3__113basic_ostreamIcNS_11char_traitsIcEEElsEj", scope: !67, file: !68, line: 210, type: !1545, isLocal: false, isDefinition: false, scopeLine: 210, flags: DIFlagPublic | DIFlagPrototyped, isOptimized: false)
!1545 = !DISubroutineType(types: !1546)
!1546 = !{!1500, !1489, !82}
!1547 = !DISubprogram(name: "operator<<", linkageName: "_ZNSt3__113basic_ostreamIcNS_11char_traitsIcEEElsEl", scope: !67, file: !68, line: 211, type: !1548, isLocal: false, isDefinition: false, scopeLine: 211, flags: DIFlagPublic | DIFlagPrototyped, isOptimized: false)
!1548 = !DISubroutineType(types: !1549)
!1549 = !{!1500, !1489, !119}
!1550 = !DISubprogram(name: "operator<<", linkageName: "_ZNSt3__113basic_ostreamIcNS_11char_traitsIcEEElsEm", scope: !67, file: !68, line: 212, type: !1551, isLocal: false, isDefinition: false, scopeLine: 212, flags: DIFlagPublic | DIFlagPrototyped, isOptimized: false)
!1551 = !DISubroutineType(types: !1552)
!1552 = !{!1500, !1489, !142}
!1553 = !DISubprogram(name: "operator<<", linkageName: "_ZNSt3__113basic_ostreamIcNS_11char_traitsIcEEElsEx", scope: !67, file: !68, line: 213, type: !1554, isLocal: false, isDefinition: false, scopeLine: 213, flags: DIFlagPublic | DIFlagPrototyped, isOptimized: false)
!1554 = !DISubroutineType(types: !1555)
!1555 = !{!1500, !1489, !1358}
!1556 = !DISubprogram(name: "operator<<", linkageName: "_ZNSt3__113basic_ostreamIcNS_11char_traitsIcEEElsEy", scope: !67, file: !68, line: 214, type: !1557, isLocal: false, isDefinition: false, scopeLine: 214, flags: DIFlagPublic | DIFlagPrototyped, isOptimized: false)
!1557 = !DISubroutineType(types: !1558)
!1558 = !{!1500, !1489, !1559}
!1559 = !DIBasicType(name: "long long unsigned int", size: 64, encoding: DW_ATE_unsigned)
!1560 = !DISubprogram(name: "operator<<", linkageName: "_ZNSt3__113basic_ostreamIcNS_11char_traitsIcEEElsEf", scope: !67, file: !68, line: 215, type: !1561, isLocal: false, isDefinition: false, scopeLine: 215, flags: DIFlagPublic | DIFlagPrototyped, isOptimized: false)
!1561 = !DISubroutineType(types: !1562)
!1562 = !{!1500, !1489, !1563}
!1563 = !DIBasicType(name: "float", size: 32, encoding: DW_ATE_float)
!1564 = !DISubprogram(name: "operator<<", linkageName: "_ZNSt3__113basic_ostreamIcNS_11char_traitsIcEEElsEd", scope: !67, file: !68, line: 216, type: !1565, isLocal: false, isDefinition: false, scopeLine: 216, flags: DIFlagPublic | DIFlagPrototyped, isOptimized: false)
!1565 = !DISubroutineType(types: !1566)
!1566 = !{!1500, !1489, !1567}
!1567 = !DIBasicType(name: "double", size: 64, encoding: DW_ATE_float)
!1568 = !DISubprogram(name: "operator<<", linkageName: "_ZNSt3__113basic_ostreamIcNS_11char_traitsIcEEElsEe", scope: !67, file: !68, line: 217, type: !1569, isLocal: false, isDefinition: false, scopeLine: 217, flags: DIFlagPublic | DIFlagPrototyped, isOptimized: false)
!1569 = !DISubroutineType(types: !1570)
!1570 = !{!1500, !1489, !1571}
!1571 = !DIBasicType(name: "long double", size: 128, encoding: DW_ATE_float)
!1572 = !DISubprogram(name: "operator<<", linkageName: "_ZNSt3__113basic_ostreamIcNS_11char_traitsIcEEElsEPKv", scope: !67, file: !68, line: 218, type: !1573, isLocal: false, isDefinition: false, scopeLine: 218, flags: DIFlagPublic | DIFlagPrototyped, isOptimized: false)
!1573 = !DISubroutineType(types: !1574)
!1574 = !{!1500, !1489, !279}
!1575 = !DISubprogram(name: "operator<<", linkageName: "_ZNSt3__113basic_ostreamIcNS_11char_traitsIcEEElsEPNS_15basic_streambufIcS2_EE", scope: !67, file: !68, line: 219, type: !1576, isLocal: false, isDefinition: false, scopeLine: 219, flags: DIFlagPublic | DIFlagPrototyped, isOptimized: false)
!1576 = !DISubroutineType(types: !1577)
!1577 = !{!1500, !1489, !1320}
!1578 = !DISubprogram(name: "put", linkageName: "_ZNSt3__113basic_ostreamIcNS_11char_traitsIcEEE3putEc", scope: !67, file: !68, line: 222, type: !1579, isLocal: false, isDefinition: false, scopeLine: 222, flags: DIFlagPublic | DIFlagPrototyped, isOptimized: false)
!1579 = !DISubroutineType(types: !1580)
!1580 = !{!1500, !1489, !1581}
!1581 = !DIDerivedType(tag: DW_TAG_typedef, name: "char_type", scope: !67, file: !68, line: 156, baseType: !212)
!1582 = !DISubprogram(name: "write", linkageName: "_ZNSt3__113basic_ostreamIcNS_11char_traitsIcEEE5writeEPKcl", scope: !67, file: !68, line: 223, type: !1583, isLocal: false, isDefinition: false, scopeLine: 223, flags: DIFlagPublic | DIFlagPrototyped, isOptimized: false)
!1583 = !DISubroutineType(types: !1584)
!1584 = !{!1500, !1489, !1585, !116}
!1585 = !DIDerivedType(tag: DW_TAG_pointer_type, baseType: !1586, size: 64)
!1586 = !DIDerivedType(tag: DW_TAG_const_type, baseType: !1581)
!1587 = !DISubprogram(name: "flush", linkageName: "_ZNSt3__113basic_ostreamIcNS_11char_traitsIcEEE5flushEv", scope: !67, file: !68, line: 224, type: !1588, isLocal: false, isDefinition: false, scopeLine: 224, flags: DIFlagPublic | DIFlagPrototyped, isOptimized: false)
!1588 = !DISubroutineType(types: !1589)
!1589 = !{!1500, !1489}
!1590 = !DISubprogram(name: "tellp", linkageName: "_ZNSt3__113basic_ostreamIcNS_11char_traitsIcEEE5tellpEv", scope: !67, file: !68, line: 228, type: !1591, isLocal: false, isDefinition: false, scopeLine: 228, flags: DIFlagPublic | DIFlagPrototyped, isOptimized: false)
!1591 = !DISubroutineType(types: !1592)
!1592 = !{!1593, !1489}
!1593 = !DIDerivedType(tag: DW_TAG_typedef, name: "pos_type", scope: !67, file: !68, line: 159, baseType: !1352)
!1594 = !DISubprogram(name: "seekp", linkageName: "_ZNSt3__113basic_ostreamIcNS_11char_traitsIcEEE5seekpENS_4fposI11__mbstate_tEE", scope: !67, file: !68, line: 230, type: !1595, isLocal: false, isDefinition: false, scopeLine: 230, flags: DIFlagPublic | DIFlagPrototyped, isOptimized: false)
!1595 = !DISubroutineType(types: !1596)
!1596 = !{!1500, !1489, !1593}
!1597 = !DISubprogram(name: "seekp", linkageName: "_ZNSt3__113basic_ostreamIcNS_11char_traitsIcEEE5seekpExNS_8ios_base7seekdirE", scope: !67, file: !68, line: 232, type: !1598, isLocal: false, isDefinition: false, scopeLine: 232, flags: DIFlagPublic | DIFlagPrototyped, isOptimized: false)
!1598 = !DISubroutineType(types: !1599)
!1599 = !{!1500, !1489, !1600, !1359}
!1600 = !DIDerivedType(tag: DW_TAG_typedef, name: "off_type", scope: !67, file: !68, line: 160, baseType: !1356)
!1601 = !DISubprogram(name: "basic_ostream", scope: !67, file: !68, line: 236, type: !1491, isLocal: false, isDefinition: false, scopeLine: 236, flags: DIFlagProtected | DIFlagPrototyped, isOptimized: false)
!1602 = !DISubprogram(name: "isNaN", linkageName: "_ZNK14altered_carbon2js9ACJsValue5isNaNEv", scope: !28, file: !29, line: 104, type: !1603, isLocal: false, isDefinition: false, scopeLine: 104, containingType: !28, virtuality: DW_VIRTUALITY_virtual, virtualIndex: 3, flags: DIFlagPublic | DIFlagPrototyped, isOptimized: false)
!1603 = !DISubroutineType(types: !1604)
!1604 = !{!233, !62}
!1605 = !DISubprogram(name: "isInfinite", linkageName: "_ZNK14altered_carbon2js9ACJsValue10isInfiniteEv", scope: !28, file: !29, line: 105, type: !1603, isLocal: false, isDefinition: false, scopeLine: 105, containingType: !28, virtuality: DW_VIRTUALITY_virtual, virtualIndex: 4, flags: DIFlagPublic | DIFlagPrototyped, isOptimized: false)
!1606 = !DISubprogram(name: "operator+", linkageName: "_ZNK14altered_carbon2js9ACJsValueplERKS1_", scope: !28, file: !29, line: 108, type: !1607, isLocal: false, isDefinition: false, scopeLine: 108, containingType: !28, virtuality: DW_VIRTUALITY_virtual, virtualIndex: 5, flags: DIFlagPublic | DIFlagPrototyped, isOptimized: false)
!1607 = !DISubroutineType(types: !1608)
!1608 = !{!1609, !62, !1610}
!1609 = !DIDerivedType(tag: DW_TAG_reference_type, baseType: !28, size: 64)
!1610 = !DIDerivedType(tag: DW_TAG_reference_type, baseType: !63, size: 64)
!1611 = !DISubprogram(name: "operator-", linkageName: "_ZNK14altered_carbon2js9ACJsValuemiERKS1_", scope: !28, file: !29, line: 109, type: !1607, isLocal: false, isDefinition: false, scopeLine: 109, containingType: !28, virtuality: DW_VIRTUALITY_virtual, virtualIndex: 6, flags: DIFlagPublic | DIFlagPrototyped, isOptimized: false)
!1612 = !DISubprogram(name: "operator*", linkageName: "_ZNK14altered_carbon2js9ACJsValuemlERKS1_", scope: !28, file: !29, line: 110, type: !1607, isLocal: false, isDefinition: false, scopeLine: 110, containingType: !28, virtuality: DW_VIRTUALITY_virtual, virtualIndex: 7, flags: DIFlagPublic | DIFlagPrototyped, isOptimized: false)
!1613 = !DISubprogram(name: "operator/", linkageName: "_ZNK14altered_carbon2js9ACJsValuedvERKS1_", scope: !28, file: !29, line: 111, type: !1607, isLocal: false, isDefinition: false, scopeLine: 111, containingType: !28, virtuality: DW_VIRTUALITY_virtual, virtualIndex: 8, flags: DIFlagPublic | DIFlagPrototyped, isOptimized: false)
!1614 = !DISubprogram(name: "operator%", linkageName: "_ZNK14altered_carbon2js9ACJsValuermERKS1_", scope: !28, file: !29, line: 112, type: !1607, isLocal: false, isDefinition: false, scopeLine: 112, containingType: !28, virtuality: DW_VIRTUALITY_virtual, virtualIndex: 9, flags: DIFlagPublic | DIFlagPrototyped, isOptimized: false)
!1615 = !DISubprogram(name: "operator^", linkageName: "_ZNK14altered_carbon2js9ACJsValueeoERKS1_", scope: !28, file: !29, line: 115, type: !1607, isLocal: false, isDefinition: false, scopeLine: 115, containingType: !28, virtuality: DW_VIRTUALITY_virtual, virtualIndex: 10, flags: DIFlagPublic | DIFlagPrototyped, isOptimized: false)
!1616 = !DISubprogram(name: "operator|", linkageName: "_ZNK14altered_carbon2js9ACJsValueorERKS1_", scope: !28, file: !29, line: 116, type: !1607, isLocal: false, isDefinition: false, scopeLine: 116, containingType: !28, virtuality: DW_VIRTUALITY_virtual, virtualIndex: 11, flags: DIFlagPublic | DIFlagPrototyped, isOptimized: false)
!1617 = !DISubprogram(name: "operator&", linkageName: "_ZNK14altered_carbon2js9ACJsValueanERKS1_", scope: !28, file: !29, line: 117, type: !1607, isLocal: false, isDefinition: false, scopeLine: 117, containingType: !28, virtuality: DW_VIRTUALITY_virtual, virtualIndex: 12, flags: DIFlagPublic | DIFlagPrototyped, isOptimized: false)
!1618 = !DISubprogram(name: "operator<<", linkageName: "_ZNK14altered_carbon2js9ACJsValuelsERKS1_", scope: !28, file: !29, line: 118, type: !1607, isLocal: false, isDefinition: false, scopeLine: 118, containingType: !28, virtuality: DW_VIRTUALITY_virtual, virtualIndex: 13, flags: DIFlagPublic | DIFlagPrototyped, isOptimized: false)
!1619 = !DISubprogram(name: "operator>>", linkageName: "_ZNK14altered_carbon2js9ACJsValuersERKS1_", scope: !28, file: !29, line: 119, type: !1607, isLocal: false, isDefinition: false, scopeLine: 119, containingType: !28, virtuality: DW_VIRTUALITY_virtual, virtualIndex: 14, flags: DIFlagPublic | DIFlagPrototyped, isOptimized: false)
!1620 = !DISubprogram(name: "operator+=", linkageName: "_ZN14altered_carbon2js9ACJsValuepLERKS1_", scope: !28, file: !29, line: 122, type: !1621, isLocal: false, isDefinition: false, scopeLine: 122, containingType: !28, virtuality: DW_VIRTUALITY_virtual, virtualIndex: 15, flags: DIFlagPublic | DIFlagPrototyped, isOptimized: false)
!1621 = !DISubroutineType(types: !1622)
!1622 = !{!1609, !54, !1610}
!1623 = !DISubprogram(name: "operator-=", linkageName: "_ZN14altered_carbon2js9ACJsValuemIERKS1_", scope: !28, file: !29, line: 123, type: !1621, isLocal: false, isDefinition: false, scopeLine: 123, containingType: !28, virtuality: DW_VIRTUALITY_virtual, virtualIndex: 16, flags: DIFlagPublic | DIFlagPrototyped, isOptimized: false)
!1624 = !DISubprogram(name: "operator*=", linkageName: "_ZN14altered_carbon2js9ACJsValuemLERKS1_", scope: !28, file: !29, line: 124, type: !1621, isLocal: false, isDefinition: false, scopeLine: 124, containingType: !28, virtuality: DW_VIRTUALITY_virtual, virtualIndex: 17, flags: DIFlagPublic | DIFlagPrototyped, isOptimized: false)
!1625 = !DISubprogram(name: "operator/=", linkageName: "_ZN14altered_carbon2js9ACJsValuedVERKS1_", scope: !28, file: !29, line: 125, type: !1621, isLocal: false, isDefinition: false, scopeLine: 125, containingType: !28, virtuality: DW_VIRTUALITY_virtual, virtualIndex: 18, flags: DIFlagPublic | DIFlagPrototyped, isOptimized: false)
!1626 = !DISubprogram(name: "operator%=", linkageName: "_ZN14altered_carbon2js9ACJsValuerMERKS1_", scope: !28, file: !29, line: 126, type: !1621, isLocal: false, isDefinition: false, scopeLine: 126, containingType: !28, virtuality: DW_VIRTUALITY_virtual, virtualIndex: 19, flags: DIFlagPublic | DIFlagPrototyped, isOptimized: false)
!1627 = !DISubprogram(name: "operator^=", linkageName: "_ZN14altered_carbon2js9ACJsValueeOERKS1_", scope: !28, file: !29, line: 129, type: !1621, isLocal: false, isDefinition: false, scopeLine: 129, containingType: !28, virtuality: DW_VIRTUALITY_virtual, virtualIndex: 20, flags: DIFlagPublic | DIFlagPrototyped, isOptimized: false)
!1628 = !DISubprogram(name: "operator|=", linkageName: "_ZN14altered_carbon2js9ACJsValueoRERKS1_", scope: !28, file: !29, line: 130, type: !1621, isLocal: false, isDefinition: false, scopeLine: 130, containingType: !28, virtuality: DW_VIRTUALITY_virtual, virtualIndex: 21, flags: DIFlagPublic | DIFlagPrototyped, isOptimized: false)
!1629 = !DISubprogram(name: "operator&=", linkageName: "_ZN14altered_carbon2js9ACJsValueaNERKS1_", scope: !28, file: !29, line: 131, type: !1621, isLocal: false, isDefinition: false, scopeLine: 131, containingType: !28, virtuality: DW_VIRTUALITY_virtual, virtualIndex: 22, flags: DIFlagPublic | DIFlagPrototyped, isOptimized: false)
!1630 = !DISubprogram(name: "operator>>=", linkageName: "_ZN14altered_carbon2js9ACJsValuerSERKS1_", scope: !28, file: !29, line: 132, type: !1621, isLocal: false, isDefinition: false, scopeLine: 132, containingType: !28, virtuality: DW_VIRTUALITY_virtual, virtualIndex: 23, flags: DIFlagPublic | DIFlagPrototyped, isOptimized: false)
!1631 = !DISubprogram(name: "operator<<=", linkageName: "_ZN14altered_carbon2js9ACJsValuelSERKS1_", scope: !28, file: !29, line: 133, type: !1621, isLocal: false, isDefinition: false, scopeLine: 133, containingType: !28, virtuality: DW_VIRTUALITY_virtual, virtualIndex: 24, flags: DIFlagPublic | DIFlagPrototyped, isOptimized: false)
!1632 = !DISubprogram(name: "operator==", linkageName: "_ZNK14altered_carbon2js9ACJsValueeqERKS1_", scope: !28, file: !29, line: 136, type: !1633, isLocal: false, isDefinition: false, scopeLine: 136, containingType: !28, virtuality: DW_VIRTUALITY_virtual, virtualIndex: 25, flags: DIFlagPublic | DIFlagPrototyped, isOptimized: false)
!1633 = !DISubroutineType(types: !1634)
!1634 = !{!233, !62, !1610}
!1635 = !DISubprogram(name: "operator!=", linkageName: "_ZNK14altered_carbon2js9ACJsValueneERKS1_", scope: !28, file: !29, line: 137, type: !1633, isLocal: false, isDefinition: false, scopeLine: 137, containingType: !28, virtuality: DW_VIRTUALITY_virtual, virtualIndex: 26, flags: DIFlagPublic | DIFlagPrototyped, isOptimized: false)
!1636 = !DISubprogram(name: "operator>", linkageName: "_ZNK14altered_carbon2js9ACJsValuegtERKS1_", scope: !28, file: !29, line: 138, type: !1633, isLocal: false, isDefinition: false, scopeLine: 138, containingType: !28, virtuality: DW_VIRTUALITY_virtual, virtualIndex: 27, flags: DIFlagPublic | DIFlagPrototyped, isOptimized: false)
!1637 = !DISubprogram(name: "operator<", linkageName: "_ZNK14altered_carbon2js9ACJsValueltERKS1_", scope: !28, file: !29, line: 139, type: !1633, isLocal: false, isDefinition: false, scopeLine: 139, containingType: !28, virtuality: DW_VIRTUALITY_virtual, virtualIndex: 28, flags: DIFlagPublic | DIFlagPrototyped, isOptimized: false)
!1638 = !DISubprogram(name: "operator>=", linkageName: "_ZNK14altered_carbon2js9ACJsValuegeERKS1_", scope: !28, file: !29, line: 140, type: !1633, isLocal: false, isDefinition: false, scopeLine: 140, containingType: !28, virtuality: DW_VIRTUALITY_virtual, virtualIndex: 29, flags: DIFlagPublic | DIFlagPrototyped, isOptimized: false)
!1639 = !DISubprogram(name: "operator<=", linkageName: "_ZNK14altered_carbon2js9ACJsValueleERKS1_", scope: !28, file: !29, line: 141, type: !1633, isLocal: false, isDefinition: false, scopeLine: 141, containingType: !28, virtuality: DW_VIRTUALITY_virtual, virtualIndex: 30, flags: DIFlagPublic | DIFlagPrototyped, isOptimized: false)
!1640 = !DISubprogram(name: "rsz", linkageName: "_ZNK14altered_carbon2js9ACJsValue3rszERKS1_", scope: !28, file: !29, line: 144, type: !1607, isLocal: false, isDefinition: false, scopeLine: 144, containingType: !28, virtuality: DW_VIRTUALITY_virtual, virtualIndex: 31, flags: DIFlagPublic | DIFlagPrototyped, isOptimized: false)
!1641 = !DISubprogram(name: "arsz", linkageName: "_ZN14altered_carbon2js9ACJsValue4arszERKS1_", scope: !28, file: !29, line: 145, type: !1621, isLocal: false, isDefinition: false, scopeLine: 145, containingType: !28, virtuality: DW_VIRTUALITY_virtual, virtualIndex: 32, flags: DIFlagPublic | DIFlagPrototyped, isOptimized: false)
!1642 = !DISubprogram(name: "eqvt", linkageName: "_ZNK14altered_carbon2js9ACJsValue4eqvtERKS1_", scope: !28, file: !29, line: 146, type: !1633, isLocal: false, isDefinition: false, scopeLine: 146, containingType: !28, virtuality: DW_VIRTUALITY_virtual, virtualIndex: 33, flags: DIFlagPublic | DIFlagPrototyped, isOptimized: false)
!1643 = !DISubprogram(name: "neqvt", linkageName: "_ZNK14altered_carbon2js9ACJsValue5neqvtERKS1_", scope: !28, file: !29, line: 147, type: !1633, isLocal: false, isDefinition: false, scopeLine: 147, containingType: !28, virtuality: DW_VIRTUALITY_virtual, virtualIndex: 34, flags: DIFlagPublic | DIFlagPrototyped, isOptimized: false)
!1644 = !DISubprogram(name: "operator++", linkageName: "_ZN14altered_carbon2js9ACJsValueppEv", scope: !28, file: !29, line: 150, type: !1645, isLocal: false, isDefinition: false, scopeLine: 150, containingType: !28, virtuality: DW_VIRTUALITY_virtual, virtualIndex: 35, flags: DIFlagPublic | DIFlagPrototyped, isOptimized: false)
!1645 = !DISubroutineType(types: !1646)
!1646 = !{!1609, !54}
!1647 = !DISubprogram(name: "operator--", linkageName: "_ZN14altered_carbon2js9ACJsValuemmEv", scope: !28, file: !29, line: 151, type: !1645, isLocal: false, isDefinition: false, scopeLine: 151, containingType: !28, virtuality: DW_VIRTUALITY_virtual, virtualIndex: 36, flags: DIFlagPublic | DIFlagPrototyped, isOptimized: false)
!1648 = !DISubprogram(name: "operator++", linkageName: "_ZN14altered_carbon2js9ACJsValueppEi", scope: !28, file: !29, line: 152, type: !1649, isLocal: false, isDefinition: false, scopeLine: 152, containingType: !28, virtuality: DW_VIRTUALITY_virtual, virtualIndex: 37, flags: DIFlagPublic | DIFlagPrototyped, isOptimized: false)
!1649 = !DISubroutineType(types: !1650)
!1650 = !{!28, !54, !14}
!1651 = !DISubprogram(name: "operator--", linkageName: "_ZN14altered_carbon2js9ACJsValuemmEi", scope: !28, file: !29, line: 153, type: !1649, isLocal: false, isDefinition: false, scopeLine: 153, containingType: !28, virtuality: DW_VIRTUALITY_virtual, virtualIndex: 38, flags: DIFlagPublic | DIFlagPrototyped, isOptimized: false)
!1652 = !DISubprogram(name: "operator=", linkageName: "_ZN14altered_carbon2js9ACJsValueaSERKS1_", scope: !28, file: !29, line: 156, type: !1621, isLocal: false, isDefinition: false, scopeLine: 156, containingType: !28, virtuality: DW_VIRTUALITY_virtual, virtualIndex: 39, flags: DIFlagPublic | DIFlagPrototyped, isOptimized: false)
!1653 = !DISubprogram(name: "operator=", linkageName: "_ZN14altered_carbon2js9ACJsValueaSEb", scope: !28, file: !29, line: 161, type: !1654, isLocal: false, isDefinition: false, scopeLine: 161, containingType: !28, virtuality: DW_VIRTUALITY_virtual, virtualIndex: 40, flags: DIFlagPublic | DIFlagPrototyped, isOptimized: false)
!1654 = !DISubroutineType(types: !1655)
!1655 = !{!1609, !54, !233}
!1656 = !DISubprogram(name: "asBoolean", linkageName: "_ZNK14altered_carbon2js9ACJsValue9asBooleanEv", scope: !28, file: !29, line: 164, type: !1603, isLocal: false, isDefinition: false, scopeLine: 164, containingType: !28, virtuality: DW_VIRTUALITY_virtual, virtualIndex: 41, flags: DIFlagPublic | DIFlagPrototyped, isOptimized: false)
!1657 = !DISubprogram(name: "asNumber", linkageName: "_ZNK14altered_carbon2js9ACJsValue8asNumberEv", scope: !28, file: !29, line: 165, type: !1658, isLocal: false, isDefinition: false, scopeLine: 165, containingType: !28, virtuality: DW_VIRTUALITY_virtual, virtualIndex: 42, flags: DIFlagPublic | DIFlagPrototyped, isOptimized: false)
!1658 = !DISubroutineType(types: !1659)
!1659 = !{!1660, !62}
!1660 = !DIDerivedType(tag: DW_TAG_pointer_type, baseType: !63, size: 64)
!1661 = !DISubprogram(name: "asRegExp", linkageName: "_ZNK14altered_carbon2js9ACJsValue8asRegExpEv", scope: !28, file: !29, line: 166, type: !1658, isLocal: false, isDefinition: false, scopeLine: 166, containingType: !28, virtuality: DW_VIRTUALITY_virtual, virtualIndex: 43, flags: DIFlagPublic | DIFlagPrototyped, isOptimized: false)
!1662 = !DISubprogram(name: "asString", linkageName: "_ZNK14altered_carbon2js9ACJsValue8asStringEv", scope: !28, file: !29, line: 167, type: !1658, isLocal: false, isDefinition: false, scopeLine: 167, containingType: !28, virtuality: DW_VIRTUALITY_virtual, virtualIndex: 44, flags: DIFlagPublic | DIFlagPrototyped, isOptimized: false)
!1663 = !DISubprogram(name: "isUndefined", linkageName: "_ZNK14altered_carbon2js9ACJsValue11isUndefinedEv", scope: !28, file: !29, line: 170, type: !1603, isLocal: false, isDefinition: false, scopeLine: 170, flags: DIFlagPublic | DIFlagPrototyped, isOptimized: false)
!1664 = !DISubprogram(name: "isNull", linkageName: "_ZNK14altered_carbon2js9ACJsValue6isNullEv", scope: !28, file: !29, line: 171, type: !1603, isLocal: false, isDefinition: false, scopeLine: 171, flags: DIFlagPublic | DIFlagPrototyped, isOptimized: false)
!1665 = !DISubprogram(name: "isBoolean", linkageName: "_ZNK14altered_carbon2js9ACJsValue9isBooleanEv", scope: !28, file: !29, line: 174, type: !1603, isLocal: false, isDefinition: false, scopeLine: 174, flags: DIFlagPublic | DIFlagPrototyped, isOptimized: false)
!1666 = !DISubprogram(name: "isNumber", linkageName: "_ZNK14altered_carbon2js9ACJsValue8isNumberEv", scope: !28, file: !29, line: 175, type: !1603, isLocal: false, isDefinition: false, scopeLine: 175, flags: DIFlagPublic | DIFlagPrototyped, isOptimized: false)
!1667 = !DISubprogram(name: "isRegExp", linkageName: "_ZNK14altered_carbon2js9ACJsValue8isRegExpEv", scope: !28, file: !29, line: 176, type: !1603, isLocal: false, isDefinition: false, scopeLine: 176, flags: DIFlagPublic | DIFlagPrototyped, isOptimized: false)
!1668 = !DISubprogram(name: "isString", linkageName: "_ZNK14altered_carbon2js9ACJsValue8isStringEv", scope: !28, file: !29, line: 177, type: !1603, isLocal: false, isDefinition: false, scopeLine: 177, flags: DIFlagPublic | DIFlagPrototyped, isOptimized: false)
!1669 = !DISubprogram(name: "isBooleanObj", linkageName: "_ZNK14altered_carbon2js9ACJsValue12isBooleanObjEv", scope: !28, file: !29, line: 180, type: !1603, isLocal: false, isDefinition: false, scopeLine: 180, flags: DIFlagPublic | DIFlagPrototyped, isOptimized: false)
!1670 = !DISubprogram(name: "isNumberObj", linkageName: "_ZNK14altered_carbon2js9ACJsValue11isNumberObjEv", scope: !28, file: !29, line: 181, type: !1603, isLocal: false, isDefinition: false, scopeLine: 181, flags: DIFlagPublic | DIFlagPrototyped, isOptimized: false)
!1671 = !DISubprogram(name: "isRegExpObj", linkageName: "_ZNK14altered_carbon2js9ACJsValue11isRegExpObjEv", scope: !28, file: !29, line: 182, type: !1603, isLocal: false, isDefinition: false, scopeLine: 182, flags: DIFlagPublic | DIFlagPrototyped, isOptimized: false)
!1672 = !DISubprogram(name: "isStringObj", linkageName: "_ZNK14altered_carbon2js9ACJsValue11isStringObjEv", scope: !28, file: !29, line: 183, type: !1603, isLocal: false, isDefinition: false, scopeLine: 183, flags: DIFlagPublic | DIFlagPrototyped, isOptimized: false)
!1673 = !DISubprogram(name: "isArray", linkageName: "_ZNK14altered_carbon2js9ACJsValue7isArrayEv", scope: !28, file: !29, line: 186, type: !1603, isLocal: false, isDefinition: false, scopeLine: 186, flags: DIFlagPublic | DIFlagPrototyped, isOptimized: false)
!1674 = !DISubprogram(name: "isClass", linkageName: "_ZNK14altered_carbon2js9ACJsValue7isClassEv", scope: !28, file: !29, line: 187, type: !1603, isLocal: false, isDefinition: false, scopeLine: 187, flags: DIFlagPublic | DIFlagPrototyped, isOptimized: false)
!1675 = !DISubprogram(name: "isFunction", linkageName: "_ZNK14altered_carbon2js9ACJsValue10isFunctionEv", scope: !28, file: !29, line: 188, type: !1603, isLocal: false, isDefinition: false, scopeLine: 188, flags: DIFlagPublic | DIFlagPrototyped, isOptimized: false)
!1676 = !DISubprogram(name: "isXml", linkageName: "_ZNK14altered_carbon2js9ACJsValue5isXmlEv", scope: !28, file: !29, line: 191, type: !1603, isLocal: false, isDefinition: false, scopeLine: 191, flags: DIFlagPublic | DIFlagPrototyped, isOptimized: false)
!1677 = !DISubprogram(name: "isProtocolBuffer", linkageName: "_ZNK14altered_carbon2js9ACJsValue16isProtocolBufferEv", scope: !28, file: !29, line: 192, type: !1603, isLocal: false, isDefinition: false, scopeLine: 192, flags: DIFlagPublic | DIFlagPrototyped, isOptimized: false)
!1678 = !DISubprogram(name: "isObj", linkageName: "_ZNK14altered_carbon2js9ACJsValue5isObjEv", scope: !28, file: !29, line: 195, type: !1603, isLocal: false, isDefinition: false, scopeLine: 195, flags: DIFlagPublic | DIFlagPrototyped, isOptimized: false)
!1679 = !DISubprogram(name: "getType", linkageName: "_ZNK14altered_carbon2js9ACJsValue7getTypeEv", scope: !28, file: !29, line: 196, type: !1680, isLocal: false, isDefinition: false, scopeLine: 196, flags: DIFlagPublic | DIFlagPrototyped, isOptimized: false)
!1680 = !DISubroutineType(types: !1681)
!1681 = !{!33, !62}
!1682 = !DIDerivedType(tag: DW_TAG_member, name: "__cntrl_", scope: !20, file: !21, line: 3650, baseType: !1683, size: 64, offset: 64)
!1683 = !DIDerivedType(tag: DW_TAG_pointer_type, baseType: !1684, size: 64)
!1684 = distinct !DICompositeType(tag: DW_TAG_class_type, name: "__shared_weak_count", scope: !22, file: !21, line: 3456, size: 192, elements: !1685, vtableHolder: !1143, identifier: "_ZTSNSt3__119__shared_weak_countE")
!1685 = !{!1686, !1687, !1688, !1692, !1695, !1696, !1697, !1698, !1699, !1704, !1707, !1743}
!1686 = !DIDerivedType(tag: DW_TAG_inheritance, scope: !1684, baseType: !1143)
!1687 = !DIDerivedType(tag: DW_TAG_member, name: "__shared_weak_owners_", scope: !1684, file: !21, line: 3459, baseType: !119, size: 64, offset: 128)
!1688 = !DISubprogram(name: "__shared_weak_count", scope: !1684, file: !21, line: 3463, type: !1689, isLocal: false, isDefinition: false, scopeLine: 3463, flags: DIFlagPublic | DIFlagExplicit | DIFlagPrototyped, isOptimized: false)
!1689 = !DISubroutineType(types: !1690)
!1690 = !{null, !1691, !119}
!1691 = !DIDerivedType(tag: DW_TAG_pointer_type, baseType: !1684, size: 64, flags: DIFlagArtificial | DIFlagObjectPointer)
!1692 = !DISubprogram(name: "~__shared_weak_count", scope: !1684, file: !21, line: 3467, type: !1693, isLocal: false, isDefinition: false, scopeLine: 3467, containingType: !1684, virtuality: DW_VIRTUALITY_virtual, virtualIndex: 0, flags: DIFlagProtected | DIFlagPrototyped, isOptimized: false)
!1693 = !DISubroutineType(types: !1694)
!1694 = !{null, !1691}
!1695 = !DISubprogram(name: "__add_shared", linkageName: "_ZNSt3__119__shared_weak_count12__add_sharedEv", scope: !1684, file: !21, line: 3477, type: !1693, isLocal: false, isDefinition: false, scopeLine: 3477, flags: DIFlagPublic | DIFlagPrototyped, isOptimized: false)
!1696 = !DISubprogram(name: "__add_weak", linkageName: "_ZNSt3__119__shared_weak_count10__add_weakEv", scope: !1684, file: !21, line: 3481, type: !1693, isLocal: false, isDefinition: false, scopeLine: 3481, flags: DIFlagPublic | DIFlagPrototyped, isOptimized: false)
!1697 = !DISubprogram(name: "__release_shared", linkageName: "_ZNSt3__119__shared_weak_count16__release_sharedEv", scope: !1684, file: !21, line: 3485, type: !1693, isLocal: false, isDefinition: false, scopeLine: 3485, flags: DIFlagPublic | DIFlagPrototyped, isOptimized: false)
!1698 = !DISubprogram(name: "__release_weak", linkageName: "_ZNSt3__119__shared_weak_count14__release_weakEv", scope: !1684, file: !21, line: 3490, type: !1693, isLocal: false, isDefinition: false, scopeLine: 3490, flags: DIFlagPublic | DIFlagPrototyped, isOptimized: false)
!1699 = !DISubprogram(name: "use_count", linkageName: "_ZNKSt3__119__shared_weak_count9use_countEv", scope: !1684, file: !21, line: 3492, type: !1700, isLocal: false, isDefinition: false, scopeLine: 3492, flags: DIFlagPublic | DIFlagPrototyped, isOptimized: false)
!1700 = !DISubroutineType(types: !1701)
!1701 = !{!119, !1702}
!1702 = !DIDerivedType(tag: DW_TAG_pointer_type, baseType: !1703, size: 64, flags: DIFlagArtificial | DIFlagObjectPointer)
!1703 = !DIDerivedType(tag: DW_TAG_const_type, baseType: !1684)
!1704 = !DISubprogram(name: "lock", linkageName: "_ZNSt3__119__shared_weak_count4lockEv", scope: !1684, file: !21, line: 3493, type: !1705, isLocal: false, isDefinition: false, scopeLine: 3493, flags: DIFlagPublic | DIFlagPrototyped, isOptimized: false)
!1705 = !DISubroutineType(types: !1706)
!1706 = !{!1683, !1691}
!1707 = !DISubprogram(name: "__get_deleter", linkageName: "_ZNKSt3__119__shared_weak_count13__get_deleterERKSt9type_info", scope: !1684, file: !21, line: 3500, type: !1708, isLocal: false, isDefinition: false, scopeLine: 3500, containingType: !1684, virtuality: DW_VIRTUALITY_virtual, virtualIndex: 3, flags: DIFlagPublic | DIFlagPrototyped, isOptimized: false)
!1708 = !DISubroutineType(types: !1709)
!1709 = !{!279, !1702, !1710}
!1710 = !DIDerivedType(tag: DW_TAG_reference_type, baseType: !1711, size: 64)
!1711 = !DIDerivedType(tag: DW_TAG_const_type, baseType: !1712)
!1712 = distinct !DICompositeType(tag: DW_TAG_class_type, name: "type_info", scope: !23, file: !1713, line: 84, size: 128, elements: !1714, vtableHolder: !1712, identifier: "_ZTSSt9type_info")
!1713 = !DIFile(filename: "/Applications/Xcode.app/Contents/Developer/Toolchains/XcodeDefault.xctoolchain/usr/include/c++/v1/typeinfo", directory: "/Users/ejiang/Projects/lls/ac")
!1714 = !{!1715, !1716, !1717, !1722, !1725, !1728, !1731, !1735, !1738, !1741, !1742}
!1715 = !DIDerivedType(tag: DW_TAG_member, name: "_vptr$type_info", scope: !1713, file: !1713, baseType: !10, size: 64, flags: DIFlagArtificial)
!1716 = !DIDerivedType(tag: DW_TAG_member, name: "__type_name", scope: !1712, file: !1713, line: 104, baseType: !210, size: 64, offset: 64, flags: DIFlagProtected)
!1717 = !DISubprogram(name: "operator=", linkageName: "_ZNSt9type_infoaSERKS_", scope: !1712, file: !1713, line: 86, type: !1718, isLocal: false, isDefinition: false, scopeLine: 86, flags: DIFlagPrototyped, isOptimized: false)
!1718 = !DISubroutineType(types: !1719)
!1719 = !{!1720, !1721, !1710}
!1720 = !DIDerivedType(tag: DW_TAG_reference_type, baseType: !1712, size: 64)
!1721 = !DIDerivedType(tag: DW_TAG_pointer_type, baseType: !1712, size: 64, flags: DIFlagArtificial | DIFlagObjectPointer)
!1722 = !DISubprogram(name: "type_info", scope: !1712, file: !1713, line: 87, type: !1723, isLocal: false, isDefinition: false, scopeLine: 87, flags: DIFlagPrototyped, isOptimized: false)
!1723 = !DISubroutineType(types: !1724)
!1724 = !{null, !1721, !1710}
!1725 = !DISubprogram(name: "type_info", scope: !1712, file: !1713, line: 107, type: !1726, isLocal: false, isDefinition: false, scopeLine: 107, flags: DIFlagProtected | DIFlagExplicit | DIFlagPrototyped, isOptimized: false)
!1726 = !DISubroutineType(types: !1727)
!1727 = !{null, !1721, !210}
!1728 = !DISubprogram(name: "~type_info", scope: !1712, file: !1713, line: 112, type: !1729, isLocal: false, isDefinition: false, scopeLine: 112, containingType: !1712, virtuality: DW_VIRTUALITY_virtual, virtualIndex: 0, flags: DIFlagPublic | DIFlagPrototyped, isOptimized: false)
!1729 = !DISubroutineType(types: !1730)
!1730 = !{null, !1721}
!1731 = !DISubprogram(name: "name", linkageName: "_ZNKSt9type_info4nameEv", scope: !1712, file: !1713, line: 155, type: !1732, isLocal: false, isDefinition: false, scopeLine: 155, flags: DIFlagPublic | DIFlagPrototyped, isOptimized: false)
!1732 = !DISubroutineType(types: !1733)
!1733 = !{!210, !1734}
!1734 = !DIDerivedType(tag: DW_TAG_pointer_type, baseType: !1711, size: 64, flags: DIFlagArtificial | DIFlagObjectPointer)
!1735 = !DISubprogram(name: "before", linkageName: "_ZNKSt9type_info6beforeERKS_", scope: !1712, file: !1713, line: 159, type: !1736, isLocal: false, isDefinition: false, scopeLine: 159, flags: DIFlagPublic | DIFlagPrototyped, isOptimized: false)
!1736 = !DISubroutineType(types: !1737)
!1737 = !{!233, !1734, !1710}
!1738 = !DISubprogram(name: "hash_code", linkageName: "_ZNKSt9type_info9hash_codeEv", scope: !1712, file: !1713, line: 163, type: !1739, isLocal: false, isDefinition: false, scopeLine: 163, flags: DIFlagPublic | DIFlagPrototyped, isOptimized: false)
!1739 = !DISubroutineType(types: !1740)
!1740 = !{!141, !1734}
!1741 = !DISubprogram(name: "operator==", linkageName: "_ZNKSt9type_infoeqERKS_", scope: !1712, file: !1713, line: 167, type: !1736, isLocal: false, isDefinition: false, scopeLine: 167, flags: DIFlagPublic | DIFlagPrototyped, isOptimized: false)
!1742 = !DISubprogram(name: "operator!=", linkageName: "_ZNKSt9type_infoneERKS_", scope: !1712, file: !1713, line: 172, type: !1736, isLocal: false, isDefinition: false, scopeLine: 172, flags: DIFlagPublic | DIFlagPrototyped, isOptimized: false)
!1743 = !DISubprogram(name: "__on_zero_shared_weak", linkageName: "_ZNSt3__119__shared_weak_count21__on_zero_shared_weakEv", scope: !1684, file: !21, line: 3503, type: !1693, isLocal: false, isDefinition: false, scopeLine: 3503, containingType: !1684, virtuality: DW_VIRTUALITY_pure_virtual, virtualIndex: 4, flags: DIFlagPrototyped, isOptimized: false)
!1744 = !DISubprogram(name: "shared_ptr", scope: !20, file: !21, line: 3655, type: !1745, isLocal: false, isDefinition: false, scopeLine: 3655, flags: DIFlagPublic | DIFlagPrototyped, isOptimized: false)
!1745 = !DISubroutineType(types: !1746)
!1746 = !{null, !1747}
!1747 = !DIDerivedType(tag: DW_TAG_pointer_type, baseType: !20, size: 64, flags: DIFlagArtificial | DIFlagObjectPointer)
!1748 = !DISubprogram(name: "shared_ptr", scope: !20, file: !21, line: 3657, type: !1749, isLocal: false, isDefinition: false, scopeLine: 3657, flags: DIFlagPublic | DIFlagPrototyped, isOptimized: false)
!1749 = !DISubroutineType(types: !1750)
!1750 = !{null, !1747, !1751}
!1751 = !DIDerivedType(tag: DW_TAG_typedef, name: "nullptr_t", scope: !23, file: !1752, line: 57, baseType: !1753)
!1752 = !DIFile(filename: "/Applications/Xcode.app/Contents/Developer/Toolchains/XcodeDefault.xctoolchain/usr/include/c++/v1/__nullptr", directory: "/Users/ejiang/Projects/lls/ac")
!1753 = !DIBasicType(tag: DW_TAG_unspecified_type, name: "decltype(nullptr)")
!1754 = !DISubprogram(name: "shared_ptr", scope: !20, file: !21, line: 3671, type: !1755, isLocal: false, isDefinition: false, scopeLine: 3671, flags: DIFlagPublic | DIFlagPrototyped, isOptimized: false)
!1755 = !DISubroutineType(types: !1756)
!1756 = !{null, !1747, !1757}
!1757 = !DIDerivedType(tag: DW_TAG_reference_type, baseType: !1758, size: 64)
!1758 = !DIDerivedType(tag: DW_TAG_const_type, baseType: !20)
!1759 = !DISubprogram(name: "shared_ptr", scope: !20, file: !21, line: 3679, type: !1760, isLocal: false, isDefinition: false, scopeLine: 3679, flags: DIFlagPublic | DIFlagPrototyped, isOptimized: false)
!1760 = !DISubroutineType(types: !1761)
!1761 = !{null, !1747, !1762}
!1762 = !DIDerivedType(tag: DW_TAG_rvalue_reference_type, baseType: !20, size: 64)
!1763 = !DISubprogram(name: "~shared_ptr", scope: !20, file: !21, line: 3737, type: !1745, isLocal: false, isDefinition: false, scopeLine: 3737, flags: DIFlagPublic | DIFlagPrototyped, isOptimized: false)
!1764 = !DISubprogram(name: "operator=", linkageName: "_ZNSt3__110shared_ptrIN14altered_carbon2js9ACJsValueEEaSERKS4_", scope: !20, file: !21, line: 3740, type: !1765, isLocal: false, isDefinition: false, scopeLine: 3740, flags: DIFlagPublic | DIFlagPrototyped, isOptimized: false)
!1765 = !DISubroutineType(types: !1766)
!1766 = !{!1767, !1747, !1757}
!1767 = !DIDerivedType(tag: DW_TAG_reference_type, baseType: !20, size: 64)
