; ModuleID = 'temp.bc'
source_filename = "ac_vm_jsvalue.cc"
target datalayout = "e-m:o-i64:64-f80:128-n8:16:32:64-S128"
target triple = "x86_64-apple-macosx10.13.0"

%"class.altered_carbon::js::JsValueRef" = type { i32 (...)**, %"class.std::__1::shared_ptr" }
%"class.std::__1::shared_ptr" = type { %"class.altered_carbon::js::ACJsValue"*, %"class.std::__1::__shared_weak_count"* }
%"class.altered_carbon::js::ACJsValue" = type <{ i32 (...)**, i32, [4 x i8] }>
%"class.std::__1::__shared_weak_count" = type { %"class.std::__1::__shared_count", i64 }
%"class.std::__1::__shared_count" = type { i32 (...)**, i64 }
%"class.std::__1::locale::id" = type <{ %"struct.std::__1::once_flag", i32, [4 x i8] }>
%"struct.std::__1::once_flag" = type { i64 }
%"class.std::__1::auto_ptr" = type { %"class.altered_carbon::js::ACJsValue"* }
%"class.altered_carbon::js::ACJsNumber" = type { %"class.altered_carbon::js::ACJsPrimitive" }
%"class.altered_carbon::js::ACJsPrimitive" = type { %"class.altered_carbon::js::ACJsValue.base", %"class.altered_carbon::js::ACLexNumber" }
%"class.altered_carbon::js::ACJsValue.base" = type <{ i32 (...)**, i32 }>
%"class.altered_carbon::js::ACLexNumber" = type { i32 (...)**, i8, %union.anon }
%union.anon = type { double }
%"class.altered_carbon::js::ACJsError" = type { %"class.altered_carbon::js::ACJsValue.base", i32, i8* }
%"class.altered_carbon::js::ACJsString" = type { %"class.altered_carbon::js::ACJsPrimitive.0" }
%"class.altered_carbon::js::ACJsPrimitive.0" = type { %"class.altered_carbon::js::ACJsValue.base", %"class.std::__1::basic_string" }
%"class.std::__1::basic_string" = type { %"class.std::__1::__compressed_pair" }
%"class.std::__1::__compressed_pair" = type { %"struct.std::__1::__compressed_pair_elem" }
%"struct.std::__1::__compressed_pair_elem" = type { %"struct.std::__1::basic_string<wchar_t, std::__1::char_traits<wchar_t>, std::__1::allocator<wchar_t> >::__rep" }
%"struct.std::__1::basic_string<wchar_t, std::__1::char_traits<wchar_t>, std::__1::allocator<wchar_t> >::__rep" = type { %union.anon.1 }
%union.anon.1 = type { %"struct.std::__1::basic_string<wchar_t, std::__1::char_traits<wchar_t>, std::__1::allocator<wchar_t> >::__long" }
%"struct.std::__1::basic_string<wchar_t, std::__1::char_traits<wchar_t>, std::__1::allocator<wchar_t> >::__long" = type { i64, i64, i32* }
%"class.std::__1::basic_ostream" = type { i32 (...)**, %"class.std::__1::basic_ios.base" }
%"class.std::__1::basic_ios.base" = type <{ %"class.std::__1::ios_base", %"class.std::__1::basic_ostream"*, i32 }>
%"class.std::__1::ios_base" = type { i32 (...)**, i32, i64, i64, i32, i32, i8*, i8*, void (i32, %"class.std::__1::ios_base"*, i32)**, i32*, i64, i64, i64*, i64, i64, i8**, i64, i64 }
%"struct.std::__1::shared_ptr<altered_carbon::js::ACJsValue>::__nat" = type { i32 }
%"struct.std::__1::__compressed_pair_elem.14" = type { %"class.altered_carbon::js::ACJsValue"* }
%"class.std::__1::__compressed_pair.13" = type { %"struct.std::__1::__compressed_pair_elem.14" }
%"class.std::__1::unique_ptr" = type { %"class.std::__1::__compressed_pair.13" }
%"struct.std::__1::default_delete" = type { i8 }
%"struct.std::__1::__compressed_pair_elem.15" = type { i8 }
%"class.std::__1::allocator.19" = type { i8 }
%"struct.std::__1::__compressed_pair_elem.17" = type { %"class.std::__1::__compressed_pair.13" }
%"struct.std::__1::__compressed_pair_elem.18" = type { i8 }
%"class.std::__1::__compressed_pair.16" = type { %"struct.std::__1::__compressed_pair_elem.17" }
%"class.std::__1::__shared_ptr_pointer" = type { %"class.std::__1::__shared_weak_count", %"class.std::__1::__compressed_pair.16" }
%"class.altered_carbon::js::ACJsBoolean" = type { %"class.altered_carbon::js::ACJsPrimitive.base", [3 x i8] }
%"class.altered_carbon::js::ACJsPrimitive.base" = type { %"class.altered_carbon::js::ACJsValue.base", i8 }
%"class.std::__1::ctype" = type <{ %"class.std::__1::locale::facet", i32*, i8, [7 x i8] }>
%"class.std::__1::locale::facet" = type { %"class.std::__1::__shared_count" }
%"class.std::__1::locale" = type { %"class.std::__1::locale::__imp"* }
%"class.std::__1::locale::__imp" = type opaque
%"class.std::__1::basic_ios" = type <{ %"class.std::__1::ios_base", %"class.std::__1::basic_ostream"*, i32, [4 x i8] }>
%"class.std::__1::ostreambuf_iterator" = type { %"class.std::__1::basic_streambuf"* }
%"class.std::__1::basic_streambuf" = type { i32 (...)**, %"class.std::__1::locale", i8*, i8*, i8*, i8*, i8*, i8* }
%"class.std::__1::basic_ostream<char, std::__1::char_traits<char> >::sentry" = type { i8, %"class.std::__1::basic_ostream"* }
%"struct.std::__1::iterator" = type { i8 }
%"struct.std::__1::__compressed_pair_elem.7" = type { %"struct.std::__1::basic_string<char, std::__1::char_traits<char>, std::__1::allocator<char> >::__rep" }
%"struct.std::__1::basic_string<char, std::__1::char_traits<char>, std::__1::allocator<char> >::__rep" = type { %union.anon.8 }
%union.anon.8 = type { %"struct.std::__1::basic_string<char, std::__1::char_traits<char>, std::__1::allocator<char> >::__long" }
%"struct.std::__1::basic_string<char, std::__1::char_traits<char>, std::__1::allocator<char> >::__long" = type { i64, i64, i8* }
%"class.std::__1::__compressed_pair.6" = type { %"struct.std::__1::__compressed_pair_elem.7" }
%"class.std::__1::basic_string.5" = type { %"class.std::__1::__compressed_pair.6" }
%"class.std::__1::allocator.11" = type { i8 }
%"struct.std::__1::__compressed_pair_elem.10" = type { i8 }
%"class.std::__1::__basic_string_common" = type { i8 }
%"struct.std::__1::basic_string<char, std::__1::char_traits<char>, std::__1::allocator<char> >::__short" = type { %union.anon.9, [23 x i8] }
%union.anon.9 = type { i8 }
%"class.std::type_info" = type { i32 (...)**, i8* }
%"class.std::__1::allocator.21" = type { i8 }

@_ZTVN14altered_carbon2js9ACJsValueE = unnamed_addr constant { [47 x i8*] } { [47 x i8*] [i8* null, i8* bitcast ({ i8*, i8* }* @_ZTIN14altered_carbon2js9ACJsValueE to i8*), i8* bitcast (void (%"class.altered_carbon::js::ACJsValue"*)* @_ZN14altered_carbon2js9ACJsValueD1Ev to i8*), i8* bitcast (void (%"class.altered_carbon::js::ACJsValue"*)* @_ZN14altered_carbon2js9ACJsValueD0Ev to i8*), i8* bitcast (void (%"class.altered_carbon::js::ACJsValue"*, %"class.std::__1::basic_ostream"*)* @_ZNK14altered_carbon2js9ACJsValue4dumpERNSt3__113basic_ostreamIcNS2_11char_traitsIcEEEE to i8*), i8* bitcast (i1 (%"class.altered_carbon::js::ACJsValue"*)* @_ZNK14altered_carbon2js9ACJsValue5isNaNEv to i8*), i8* bitcast (i1 (%"class.altered_carbon::js::ACJsValue"*)* @_ZNK14altered_carbon2js9ACJsValue10isInfiniteEv to i8*), i8* bitcast (%"class.altered_carbon::js::ACJsValue"* (%"class.altered_carbon::js::ACJsValue"*, %"class.altered_carbon::js::ACJsValue"*)* @_ZNK14altered_carbon2js9ACJsValueplERKS1_ to i8*), i8* bitcast (%"class.altered_carbon::js::ACJsValue"* (%"class.altered_carbon::js::ACJsValue"*, %"class.altered_carbon::js::ACJsValue"*)* @_ZNK14altered_carbon2js9ACJsValuemiERKS1_ to i8*), i8* bitcast (%"class.altered_carbon::js::ACJsValue"* (%"class.altered_carbon::js::ACJsValue"*, %"class.altered_carbon::js::ACJsValue"*)* @_ZNK14altered_carbon2js9ACJsValuemlERKS1_ to i8*), i8* bitcast (%"class.altered_carbon::js::ACJsValue"* (%"class.altered_carbon::js::ACJsValue"*, %"class.altered_carbon::js::ACJsValue"*)* @_ZNK14altered_carbon2js9ACJsValuedvERKS1_ to i8*), i8* bitcast (%"class.altered_carbon::js::ACJsValue"* (%"class.altered_carbon::js::ACJsValue"*, %"class.altered_carbon::js::ACJsValue"*)* @_ZNK14altered_carbon2js9ACJsValuermERKS1_ to i8*), i8* bitcast (%"class.altered_carbon::js::ACJsValue"* (%"class.altered_carbon::js::ACJsValue"*, %"class.altered_carbon::js::ACJsValue"*)* @_ZNK14altered_carbon2js9ACJsValueeoERKS1_ to i8*), i8* bitcast (%"class.altered_carbon::js::ACJsValue"* (%"class.altered_carbon::js::ACJsValue"*, %"class.altered_carbon::js::ACJsValue"*)* @_ZNK14altered_carbon2js9ACJsValueorERKS1_ to i8*), i8* bitcast (%"class.altered_carbon::js::ACJsValue"* (%"class.altered_carbon::js::ACJsValue"*, %"class.altered_carbon::js::ACJsValue"*)* @_ZNK14altered_carbon2js9ACJsValueanERKS1_ to i8*), i8* bitcast (%"class.altered_carbon::js::ACJsValue"* (%"class.altered_carbon::js::ACJsValue"*, %"class.altered_carbon::js::ACJsValue"*)* @_ZNK14altered_carbon2js9ACJsValuelsERKS1_ to i8*), i8* bitcast (%"class.altered_carbon::js::ACJsValue"* (%"class.altered_carbon::js::ACJsValue"*, %"class.altered_carbon::js::ACJsValue"*)* @_ZNK14altered_carbon2js9ACJsValuersERKS1_ to i8*), i8* bitcast (%"class.altered_carbon::js::ACJsValue"* (%"class.altered_carbon::js::ACJsValue"*, %"class.altered_carbon::js::ACJsValue"*)* @_ZN14altered_carbon2js9ACJsValuepLERKS1_ to i8*), i8* bitcast (%"class.altered_carbon::js::ACJsValue"* (%"class.altered_carbon::js::ACJsValue"*, %"class.altered_carbon::js::ACJsValue"*)* @_ZN14altered_carbon2js9ACJsValuemIERKS1_ to i8*), i8* bitcast (%"class.altered_carbon::js::ACJsValue"* (%"class.altered_carbon::js::ACJsValue"*, %"class.altered_carbon::js::ACJsValue"*)* @_ZN14altered_carbon2js9ACJsValuemLERKS1_ to i8*), i8* bitcast (%"class.altered_carbon::js::ACJsValue"* (%"class.altered_carbon::js::ACJsValue"*, %"class.altered_carbon::js::ACJsValue"*)* @_ZN14altered_carbon2js9ACJsValuedVERKS1_ to i8*), i8* bitcast (%"class.altered_carbon::js::ACJsValue"* (%"class.altered_carbon::js::ACJsValue"*, %"class.altered_carbon::js::ACJsValue"*)* @_ZN14altered_carbon2js9ACJsValuerMERKS1_ to i8*), i8* bitcast (%"class.altered_carbon::js::ACJsValue"* (%"class.altered_carbon::js::ACJsValue"*, %"class.altered_carbon::js::ACJsValue"*)* @_ZN14altered_carbon2js9ACJsValueeOERKS1_ to i8*), i8* bitcast (%"class.altered_carbon::js::ACJsValue"* (%"class.altered_carbon::js::ACJsValue"*, %"class.altered_carbon::js::ACJsValue"*)* @_ZN14altered_carbon2js9ACJsValueoRERKS1_ to i8*), i8* bitcast (%"class.altered_carbon::js::ACJsValue"* (%"class.altered_carbon::js::ACJsValue"*, %"class.altered_carbon::js::ACJsValue"*)* @_ZN14altered_carbon2js9ACJsValueaNERKS1_ to i8*), i8* bitcast (%"class.altered_carbon::js::ACJsValue"* (%"class.altered_carbon::js::ACJsValue"*, %"class.altered_carbon::js::ACJsValue"*)* @_ZN14altered_carbon2js9ACJsValuerSERKS1_ to i8*), i8* bitcast (%"class.altered_carbon::js::ACJsValue"* (%"class.altered_carbon::js::ACJsValue"*, %"class.altered_carbon::js::ACJsValue"*)* @_ZN14altered_carbon2js9ACJsValuelSERKS1_ to i8*), i8* bitcast (i1 (%"class.altered_carbon::js::ACJsValue"*, %"class.altered_carbon::js::ACJsValue"*)* @_ZNK14altered_carbon2js9ACJsValueeqERKS1_ to i8*), i8* bitcast (i1 (%"class.altered_carbon::js::ACJsValue"*, %"class.altered_carbon::js::ACJsValue"*)* @_ZNK14altered_carbon2js9ACJsValueneERKS1_ to i8*), i8* bitcast (i1 (%"class.altered_carbon::js::ACJsValue"*, %"class.altered_carbon::js::ACJsValue"*)* @_ZNK14altered_carbon2js9ACJsValuegtERKS1_ to i8*), i8* bitcast (i1 (%"class.altered_carbon::js::ACJsValue"*, %"class.altered_carbon::js::ACJsValue"*)* @_ZNK14altered_carbon2js9ACJsValueltERKS1_ to i8*), i8* bitcast (i1 (%"class.altered_carbon::js::ACJsValue"*, %"class.altered_carbon::js::ACJsValue"*)* @_ZNK14altered_carbon2js9ACJsValuegeERKS1_ to i8*), i8* bitcast (i1 (%"class.altered_carbon::js::ACJsValue"*, %"class.altered_carbon::js::ACJsValue"*)* @_ZNK14altered_carbon2js9ACJsValueleERKS1_ to i8*), i8* bitcast (%"class.altered_carbon::js::ACJsValue"* (%"class.altered_carbon::js::ACJsValue"*, %"class.altered_carbon::js::ACJsValue"*)* @_ZNK14altered_carbon2js9ACJsValue3rszERKS1_ to i8*), i8* bitcast (%"class.altered_carbon::js::ACJsValue"* (%"class.altered_carbon::js::ACJsValue"*, %"class.altered_carbon::js::ACJsValue"*)* @_ZN14altered_carbon2js9ACJsValue4arszERKS1_ to i8*), i8* bitcast (i1 (%"class.altered_carbon::js::ACJsValue"*, %"class.altered_carbon::js::ACJsValue"*)* @_ZNK14altered_carbon2js9ACJsValue4eqvtERKS1_ to i8*), i8* bitcast (i1 (%"class.altered_carbon::js::ACJsValue"*, %"class.altered_carbon::js::ACJsValue"*)* @_ZNK14altered_carbon2js9ACJsValue5neqvtERKS1_ to i8*), i8* bitcast (%"class.altered_carbon::js::ACJsValue"* (%"class.altered_carbon::js::ACJsValue"*)* @_ZN14altered_carbon2js9ACJsValueppEv to i8*), i8* bitcast (%"class.altered_carbon::js::ACJsValue"* (%"class.altered_carbon::js::ACJsValue"*)* @_ZN14altered_carbon2js9ACJsValuemmEv to i8*), i8* bitcast (void (%"class.altered_carbon::js::ACJsValue"*, %"class.altered_carbon::js::ACJsValue"*, i32)* @_ZN14altered_carbon2js9ACJsValueppEi to i8*), i8* bitcast (void (%"class.altered_carbon::js::ACJsValue"*, %"class.altered_carbon::js::ACJsValue"*, i32)* @_ZN14altered_carbon2js9ACJsValuemmEi to i8*), i8* bitcast (%"class.altered_carbon::js::ACJsValue"* (%"class.altered_carbon::js::ACJsValue"*, %"class.altered_carbon::js::ACJsValue"*)* @_ZN14altered_carbon2js9ACJsValueaSERKS1_ to i8*), i8* bitcast (%"class.altered_carbon::js::ACJsValue"* (%"class.altered_carbon::js::ACJsValue"*, i1)* @_ZN14altered_carbon2js9ACJsValueaSEb to i8*), i8* bitcast (i1 (%"class.altered_carbon::js::ACJsValue"*)* @_ZNK14altered_carbon2js9ACJsValue9asBooleanEv to i8*), i8* bitcast (%"class.altered_carbon::js::ACJsValue"* (%"class.altered_carbon::js::ACJsValue"*)* @_ZNK14altered_carbon2js9ACJsValue8asNumberEv to i8*), i8* bitcast (%"class.altered_carbon::js::ACJsValue"* (%"class.altered_carbon::js::ACJsValue"*)* @_ZNK14altered_carbon2js9ACJsValue8asRegExpEv to i8*), i8* bitcast (%"class.altered_carbon::js::ACJsValue"* (%"class.altered_carbon::js::ACJsValue"*)* @_ZNK14altered_carbon2js9ACJsValue8asStringEv to i8*)] }, align 8
@_ZN14altered_carbon2js11JSConstants3NaNE = global %"class.altered_carbon::js::JsValueRef" zeroinitializer, align 8
@_ZN14altered_carbon2js11JSConstants12ReferenceErrE = global %"class.altered_carbon::js::JsValueRef" zeroinitializer, align 8
@.str = private unnamed_addr constant [1 x i8] zeroinitializer, align 1
@.str.1 = private unnamed_addr constant [10 x i32] [i32 117, i32 110, i32 100, i32 101, i32 102, i32 105, i32 110, i32 101, i32 100, i32 0], align 4
@.str.2 = private unnamed_addr constant [5 x i32] [i32 110, i32 117, i32 108, i32 108, i32 0], align 4
@.str.3 = private unnamed_addr constant [4 x i32] [i32 63, i32 63, i32 63, i32 0], align 4
@.str.4 = private unnamed_addr constant [6 x i8] c"[ACJ]\00", align 1
@.str.5 = private unnamed_addr constant [11 x i8] c"undefined\0A\00", align 1
@.str.6 = private unnamed_addr constant [6 x i8] c"null\0A\00", align 1
@_ZTVN14altered_carbon2js10JsValueRefE = unnamed_addr constant { [4 x i8*] } { [4 x i8*] [i8* null, i8* bitcast ({ i8*, i8*, i32, i32, i8*, i64 }* @_ZTIN14altered_carbon2js10JsValueRefE to i8*), i8* bitcast (void (%"class.altered_carbon::js::JsValueRef"*)* @_ZN14altered_carbon2js10JsValueRefD1Ev to i8*), i8* bitcast (void (%"class.altered_carbon::js::JsValueRef"*)* @_ZN14altered_carbon2js10JsValueRefD0Ev to i8*)] }, align 8
@_ZN14altered_carbon2js11JSConstants9UndefinedE = global %"class.altered_carbon::js::JsValueRef" zeroinitializer, align 8
@__dso_handle = external hidden global i8
@_ZN14altered_carbon2js11JSConstants4NullE = global %"class.altered_carbon::js::JsValueRef" zeroinitializer, align 8
@_ZN14altered_carbon2js11JSConstants4TrueE = global %"class.altered_carbon::js::JsValueRef" zeroinitializer, align 8
@_ZN14altered_carbon2js11JSConstants5FalseE = global %"class.altered_carbon::js::JsValueRef" zeroinitializer, align 8
@_ZN14altered_carbon2js11JSConstants8InfinityE = global %"class.altered_carbon::js::JsValueRef" zeroinitializer, align 8
@_ZTVN14altered_carbon2js9ACJsErrorE = unnamed_addr constant { [47 x i8*] } { [47 x i8*] [i8* null, i8* bitcast ({ i8*, i8*, i8* }* @_ZTIN14altered_carbon2js9ACJsErrorE to i8*), i8* bitcast (void (%"class.altered_carbon::js::ACJsError"*)* @_ZN14altered_carbon2js9ACJsErrorD1Ev to i8*), i8* bitcast (void (%"class.altered_carbon::js::ACJsError"*)* @_ZN14altered_carbon2js9ACJsErrorD0Ev to i8*), i8* bitcast (void (%"class.altered_carbon::js::ACJsError"*, %"class.std::__1::basic_ostream"*)* @_ZNK14altered_carbon2js9ACJsError4dumpERNSt3__113basic_ostreamIcNS2_11char_traitsIcEEEE to i8*), i8* bitcast (i1 (%"class.altered_carbon::js::ACJsValue"*)* @_ZNK14altered_carbon2js9ACJsValue5isNaNEv to i8*), i8* bitcast (i1 (%"class.altered_carbon::js::ACJsValue"*)* @_ZNK14altered_carbon2js9ACJsValue10isInfiniteEv to i8*), i8* bitcast (%"class.altered_carbon::js::ACJsValue"* (%"class.altered_carbon::js::ACJsValue"*, %"class.altered_carbon::js::ACJsValue"*)* @_ZNK14altered_carbon2js9ACJsValueplERKS1_ to i8*), i8* bitcast (%"class.altered_carbon::js::ACJsValue"* (%"class.altered_carbon::js::ACJsValue"*, %"class.altered_carbon::js::ACJsValue"*)* @_ZNK14altered_carbon2js9ACJsValuemiERKS1_ to i8*), i8* bitcast (%"class.altered_carbon::js::ACJsValue"* (%"class.altered_carbon::js::ACJsValue"*, %"class.altered_carbon::js::ACJsValue"*)* @_ZNK14altered_carbon2js9ACJsValuemlERKS1_ to i8*), i8* bitcast (%"class.altered_carbon::js::ACJsValue"* (%"class.altered_carbon::js::ACJsValue"*, %"class.altered_carbon::js::ACJsValue"*)* @_ZNK14altered_carbon2js9ACJsValuedvERKS1_ to i8*), i8* bitcast (%"class.altered_carbon::js::ACJsValue"* (%"class.altered_carbon::js::ACJsValue"*, %"class.altered_carbon::js::ACJsValue"*)* @_ZNK14altered_carbon2js9ACJsValuermERKS1_ to i8*), i8* bitcast (%"class.altered_carbon::js::ACJsValue"* (%"class.altered_carbon::js::ACJsValue"*, %"class.altered_carbon::js::ACJsValue"*)* @_ZNK14altered_carbon2js9ACJsValueeoERKS1_ to i8*), i8* bitcast (%"class.altered_carbon::js::ACJsValue"* (%"class.altered_carbon::js::ACJsValue"*, %"class.altered_carbon::js::ACJsValue"*)* @_ZNK14altered_carbon2js9ACJsValueorERKS1_ to i8*), i8* bitcast (%"class.altered_carbon::js::ACJsValue"* (%"class.altered_carbon::js::ACJsValue"*, %"class.altered_carbon::js::ACJsValue"*)* @_ZNK14altered_carbon2js9ACJsValueanERKS1_ to i8*), i8* bitcast (%"class.altered_carbon::js::ACJsValue"* (%"class.altered_carbon::js::ACJsValue"*, %"class.altered_carbon::js::ACJsValue"*)* @_ZNK14altered_carbon2js9ACJsValuelsERKS1_ to i8*), i8* bitcast (%"class.altered_carbon::js::ACJsValue"* (%"class.altered_carbon::js::ACJsValue"*, %"class.altered_carbon::js::ACJsValue"*)* @_ZNK14altered_carbon2js9ACJsValuersERKS1_ to i8*), i8* bitcast (%"class.altered_carbon::js::ACJsValue"* (%"class.altered_carbon::js::ACJsValue"*, %"class.altered_carbon::js::ACJsValue"*)* @_ZN14altered_carbon2js9ACJsValuepLERKS1_ to i8*), i8* bitcast (%"class.altered_carbon::js::ACJsValue"* (%"class.altered_carbon::js::ACJsValue"*, %"class.altered_carbon::js::ACJsValue"*)* @_ZN14altered_carbon2js9ACJsValuemIERKS1_ to i8*), i8* bitcast (%"class.altered_carbon::js::ACJsValue"* (%"class.altered_carbon::js::ACJsValue"*, %"class.altered_carbon::js::ACJsValue"*)* @_ZN14altered_carbon2js9ACJsValuemLERKS1_ to i8*), i8* bitcast (%"class.altered_carbon::js::ACJsValue"* (%"class.altered_carbon::js::ACJsValue"*, %"class.altered_carbon::js::ACJsValue"*)* @_ZN14altered_carbon2js9ACJsValuedVERKS1_ to i8*), i8* bitcast (%"class.altered_carbon::js::ACJsValue"* (%"class.altered_carbon::js::ACJsValue"*, %"class.altered_carbon::js::ACJsValue"*)* @_ZN14altered_carbon2js9ACJsValuerMERKS1_ to i8*), i8* bitcast (%"class.altered_carbon::js::ACJsValue"* (%"class.altered_carbon::js::ACJsValue"*, %"class.altered_carbon::js::ACJsValue"*)* @_ZN14altered_carbon2js9ACJsValueeOERKS1_ to i8*), i8* bitcast (%"class.altered_carbon::js::ACJsValue"* (%"class.altered_carbon::js::ACJsValue"*, %"class.altered_carbon::js::ACJsValue"*)* @_ZN14altered_carbon2js9ACJsValueoRERKS1_ to i8*), i8* bitcast (%"class.altered_carbon::js::ACJsValue"* (%"class.altered_carbon::js::ACJsValue"*, %"class.altered_carbon::js::ACJsValue"*)* @_ZN14altered_carbon2js9ACJsValueaNERKS1_ to i8*), i8* bitcast (%"class.altered_carbon::js::ACJsValue"* (%"class.altered_carbon::js::ACJsValue"*, %"class.altered_carbon::js::ACJsValue"*)* @_ZN14altered_carbon2js9ACJsValuerSERKS1_ to i8*), i8* bitcast (%"class.altered_carbon::js::ACJsValue"* (%"class.altered_carbon::js::ACJsValue"*, %"class.altered_carbon::js::ACJsValue"*)* @_ZN14altered_carbon2js9ACJsValuelSERKS1_ to i8*), i8* bitcast (i1 (%"class.altered_carbon::js::ACJsValue"*, %"class.altered_carbon::js::ACJsValue"*)* @_ZNK14altered_carbon2js9ACJsValueeqERKS1_ to i8*), i8* bitcast (i1 (%"class.altered_carbon::js::ACJsValue"*, %"class.altered_carbon::js::ACJsValue"*)* @_ZNK14altered_carbon2js9ACJsValueneERKS1_ to i8*), i8* bitcast (i1 (%"class.altered_carbon::js::ACJsValue"*, %"class.altered_carbon::js::ACJsValue"*)* @_ZNK14altered_carbon2js9ACJsValuegtERKS1_ to i8*), i8* bitcast (i1 (%"class.altered_carbon::js::ACJsValue"*, %"class.altered_carbon::js::ACJsValue"*)* @_ZNK14altered_carbon2js9ACJsValueltERKS1_ to i8*), i8* bitcast (i1 (%"class.altered_carbon::js::ACJsValue"*, %"class.altered_carbon::js::ACJsValue"*)* @_ZNK14altered_carbon2js9ACJsValuegeERKS1_ to i8*), i8* bitcast (i1 (%"class.altered_carbon::js::ACJsValue"*, %"class.altered_carbon::js::ACJsValue"*)* @_ZNK14altered_carbon2js9ACJsValueleERKS1_ to i8*), i8* bitcast (%"class.altered_carbon::js::ACJsValue"* (%"class.altered_carbon::js::ACJsValue"*, %"class.altered_carbon::js::ACJsValue"*)* @_ZNK14altered_carbon2js9ACJsValue3rszERKS1_ to i8*), i8* bitcast (%"class.altered_carbon::js::ACJsValue"* (%"class.altered_carbon::js::ACJsValue"*, %"class.altered_carbon::js::ACJsValue"*)* @_ZN14altered_carbon2js9ACJsValue4arszERKS1_ to i8*), i8* bitcast (i1 (%"class.altered_carbon::js::ACJsValue"*, %"class.altered_carbon::js::ACJsValue"*)* @_ZNK14altered_carbon2js9ACJsValue4eqvtERKS1_ to i8*), i8* bitcast (i1 (%"class.altered_carbon::js::ACJsValue"*, %"class.altered_carbon::js::ACJsValue"*)* @_ZNK14altered_carbon2js9ACJsValue5neqvtERKS1_ to i8*), i8* bitcast (%"class.altered_carbon::js::ACJsValue"* (%"class.altered_carbon::js::ACJsValue"*)* @_ZN14altered_carbon2js9ACJsValueppEv to i8*), i8* bitcast (%"class.altered_carbon::js::ACJsValue"* (%"class.altered_carbon::js::ACJsValue"*)* @_ZN14altered_carbon2js9ACJsValuemmEv to i8*), i8* bitcast (void (%"class.altered_carbon::js::ACJsValue"*, %"class.altered_carbon::js::ACJsValue"*, i32)* @_ZN14altered_carbon2js9ACJsValueppEi to i8*), i8* bitcast (void (%"class.altered_carbon::js::ACJsValue"*, %"class.altered_carbon::js::ACJsValue"*, i32)* @_ZN14altered_carbon2js9ACJsValuemmEi to i8*), i8* bitcast (%"class.altered_carbon::js::ACJsValue"* (%"class.altered_carbon::js::ACJsValue"*, %"class.altered_carbon::js::ACJsValue"*)* @_ZN14altered_carbon2js9ACJsValueaSERKS1_ to i8*), i8* bitcast (%"class.altered_carbon::js::ACJsValue"* (%"class.altered_carbon::js::ACJsValue"*, i1)* @_ZN14altered_carbon2js9ACJsValueaSEb to i8*), i8* bitcast (i1 (%"class.altered_carbon::js::ACJsValue"*)* @_ZNK14altered_carbon2js9ACJsValue9asBooleanEv to i8*), i8* bitcast (%"class.altered_carbon::js::ACJsValue"* (%"class.altered_carbon::js::ACJsValue"*)* @_ZNK14altered_carbon2js9ACJsValue8asNumberEv to i8*), i8* bitcast (%"class.altered_carbon::js::ACJsValue"* (%"class.altered_carbon::js::ACJsValue"*)* @_ZNK14altered_carbon2js9ACJsValue8asRegExpEv to i8*), i8* bitcast (%"class.altered_carbon::js::ACJsValue"* (%"class.altered_carbon::js::ACJsValue"*)* @_ZNK14altered_carbon2js9ACJsValue8asStringEv to i8*)] }, align 8
@.str.13 = private unnamed_addr constant [21 x i8] c"[ACJ] JSVALUE ERROR(\00", align 1
@.str.14 = private unnamed_addr constant [2 x i8] c")\00", align 1
@.str.15 = private unnamed_addr constant [2 x i8] c"\0A\00", align 1
@__func__._ZN14altered_carbon2js3opsEPPNS0_9ACJsValueEiS2_PKS1_ = private unnamed_addr constant [4 x i8] c"ops\00", align 1
@.str.16 = private unnamed_addr constant [17 x i8] c"ac_vm_jsvalue.cc\00", align 1
@.str.17 = private unnamed_addr constant [15 x i8] c"!!lhs && !!rhs\00", align 1
@.str.18 = private unnamed_addr constant [6 x i8] c"false\00", align 1
@.str.19 = private unnamed_addr constant [4 x i8] c"!!v\00", align 1
@_ZTVN10__cxxabiv117__class_type_infoE = external global i8*
@_ZTSN14altered_carbon2js9ACJsValueE = constant [32 x i8] c"N14altered_carbon2js9ACJsValueE\00"
@_ZTIN14altered_carbon2js9ACJsValueE = constant { i8*, i8* } { i8* bitcast (i8** getelementptr inbounds (i8*, i8** @_ZTVN10__cxxabiv117__class_type_infoE, i64 2) to i8*), i8* getelementptr inbounds ([32 x i8], [32 x i8]* @_ZTSN14altered_carbon2js9ACJsValueE, i32 0, i32 0) }
@_ZTVN10__cxxabiv120__si_class_type_infoE = external global i8*
@_ZTSN14altered_carbon2js9ACJsErrorE = constant [32 x i8] c"N14altered_carbon2js9ACJsErrorE\00"
@_ZTIN14altered_carbon2js9ACJsErrorE = constant { i8*, i8*, i8* } { i8* bitcast (i8** getelementptr inbounds (i8*, i8** @_ZTVN10__cxxabiv120__si_class_type_infoE, i64 2) to i8*), i8* getelementptr inbounds ([32 x i8], [32 x i8]* @_ZTSN14altered_carbon2js9ACJsErrorE, i32 0, i32 0), i8* bitcast ({ i8*, i8* }* @_ZTIN14altered_carbon2js9ACJsValueE to i8*) }
@_ZTVN10__cxxabiv121__vmi_class_type_infoE = external global i8*
@_ZTSN14altered_carbon2js10JsValueRefE = constant [34 x i8] c"N14altered_carbon2js10JsValueRefE\00"
@_ZTSNSt3__110shared_ptrIN14altered_carbon2js9ACJsValueEEE = linkonce_odr constant [54 x i8] c"NSt3__110shared_ptrIN14altered_carbon2js9ACJsValueEEE\00"
@_ZTINSt3__110shared_ptrIN14altered_carbon2js9ACJsValueEEE = linkonce_odr constant { i8*, i8* } { i8* bitcast (i8** getelementptr inbounds (i8*, i8** @_ZTVN10__cxxabiv117__class_type_infoE, i64 2) to i8*), i8* getelementptr inbounds ([54 x i8], [54 x i8]* @_ZTSNSt3__110shared_ptrIN14altered_carbon2js9ACJsValueEEE, i32 0, i32 0) }
@_ZTIN14altered_carbon2js10JsValueRefE = constant { i8*, i8*, i32, i32, i8*, i64 } { i8* bitcast (i8** getelementptr inbounds (i8*, i8** @_ZTVN10__cxxabiv121__vmi_class_type_infoE, i64 2) to i8*), i8* getelementptr inbounds ([34 x i8], [34 x i8]* @_ZTSN14altered_carbon2js10JsValueRefE, i32 0, i32 0), i32 0, i32 1, i8* bitcast ({ i8*, i8* }* @_ZTINSt3__110shared_ptrIN14altered_carbon2js9ACJsValueEEE to i8*), i64 2050 }
@__func__._ZN14altered_carbon2js9ACJsValueaSEb = private unnamed_addr constant [10 x i8] c"operator=\00", align 1
@.str.20 = private unnamed_addr constant [18 x i8] c"./ac_vm_jsvalue.h\00", align 1
@_ZNSt3__15ctypeIcE2idE = external global %"class.std::__1::locale::id", align 8
@_ZTVNSt3__120__shared_ptr_pointerIPN14altered_carbon2js9ACJsValueENS_14default_deleteIS3_EENS_9allocatorIS3_EEEE = linkonce_odr unnamed_addr constant { [7 x i8*] } { [7 x i8*] [i8* null, i8* bitcast ({ i8*, i8*, i8* }* @_ZTINSt3__120__shared_ptr_pointerIPN14altered_carbon2js9ACJsValueENS_14default_deleteIS3_EENS_9allocatorIS3_EEEE to i8*), i8* bitcast (void (%"class.std::__1::__shared_ptr_pointer"*)* @_ZNSt3__120__shared_ptr_pointerIPN14altered_carbon2js9ACJsValueENS_14default_deleteIS3_EENS_9allocatorIS3_EEED1Ev to i8*), i8* bitcast (void (%"class.std::__1::__shared_ptr_pointer"*)* @_ZNSt3__120__shared_ptr_pointerIPN14altered_carbon2js9ACJsValueENS_14default_deleteIS3_EENS_9allocatorIS3_EEED0Ev to i8*), i8* bitcast (void (%"class.std::__1::__shared_ptr_pointer"*)* @_ZNSt3__120__shared_ptr_pointerIPN14altered_carbon2js9ACJsValueENS_14default_deleteIS3_EENS_9allocatorIS3_EEE16__on_zero_sharedEv to i8*), i8* bitcast (i8* (%"class.std::__1::__shared_ptr_pointer"*, %"class.std::type_info"*)* @_ZNKSt3__120__shared_ptr_pointerIPN14altered_carbon2js9ACJsValueENS_14default_deleteIS3_EENS_9allocatorIS3_EEE13__get_deleterERKSt9type_info to i8*), i8* bitcast (void (%"class.std::__1::__shared_ptr_pointer"*)* @_ZNSt3__120__shared_ptr_pointerIPN14altered_carbon2js9ACJsValueENS_14default_deleteIS3_EENS_9allocatorIS3_EEE21__on_zero_shared_weakEv to i8*)] }, align 8
@_ZTSNSt3__120__shared_ptr_pointerIPN14altered_carbon2js9ACJsValueENS_14default_deleteIS3_EENS_9allocatorIS3_EEEE = linkonce_odr constant [109 x i8] c"NSt3__120__shared_ptr_pointerIPN14altered_carbon2js9ACJsValueENS_14default_deleteIS3_EENS_9allocatorIS3_EEEE\00"
@_ZTINSt3__119__shared_weak_countE = external constant i8*
@_ZTINSt3__120__shared_ptr_pointerIPN14altered_carbon2js9ACJsValueENS_14default_deleteIS3_EENS_9allocatorIS3_EEEE = linkonce_odr constant { i8*, i8*, i8* } { i8* bitcast (i8** getelementptr inbounds (i8*, i8** @_ZTVN10__cxxabiv120__si_class_type_infoE, i64 2) to i8*), i8* getelementptr inbounds ([109 x i8], [109 x i8]* @_ZTSNSt3__120__shared_ptr_pointerIPN14altered_carbon2js9ACJsValueENS_14default_deleteIS3_EENS_9allocatorIS3_EEEE, i32 0, i32 0), i8* bitcast (i8** @_ZTINSt3__119__shared_weak_countE to i8*) }
@_ZTVNSt3__119__shared_weak_countE = external unnamed_addr constant { [7 x i8*] }
@_ZTVNSt3__114__shared_countE = external unnamed_addr constant { [5 x i8*] }
@_ZTSNSt3__114default_deleteIN14altered_carbon2js9ACJsValueEEE = linkonce_odr constant [58 x i8] c"NSt3__114default_deleteIN14altered_carbon2js9ACJsValueEEE\00"
@_ZTINSt3__114default_deleteIN14altered_carbon2js9ACJsValueEEE = linkonce_odr constant { i8*, i8* } { i8* bitcast (i8** getelementptr inbounds (i8*, i8** @_ZTVN10__cxxabiv117__class_type_infoE, i64 2) to i8*), i8* getelementptr inbounds ([58 x i8], [58 x i8]* @_ZTSNSt3__114default_deleteIN14altered_carbon2js9ACJsValueEEE, i32 0, i32 0) }
@llvm.global_ctors = appending global [1 x { i32, void ()*, i8* }] [{ i32, void ()*, i8* } { i32 65535, void ()* @_GLOBAL__sub_I_ac_vm_jsvalue.cc, i8* null }]

; Function Attrs: noinline nounwind optnone ssp uwtable
define void @_ZN14altered_carbon2js9ACJsValueC2ENS1_11JsValueTypeE(%"class.altered_carbon::js::ACJsValue"*, i32) unnamed_addr #0 align 2 {
  %3 = alloca %"class.altered_carbon::js::ACJsValue"*, align 8
  %4 = alloca i32, align 4
  store %"class.altered_carbon::js::ACJsValue"* %0, %"class.altered_carbon::js::ACJsValue"** %3, align 8
  store i32 %1, i32* %4, align 4
  %5 = load %"class.altered_carbon::js::ACJsValue"*, %"class.altered_carbon::js::ACJsValue"** %3, align 8
  %6 = bitcast %"class.altered_carbon::js::ACJsValue"* %5 to i32 (...)***
  store i32 (...)** bitcast (i8** getelementptr inbounds ({ [47 x i8*] }, { [47 x i8*] }* @_ZTVN14altered_carbon2js9ACJsValueE, i32 0, inrange i32 0, i32 2) to i32 (...)**), i32 (...)*** %6, align 8
  %7 = getelementptr inbounds %"class.altered_carbon::js::ACJsValue", %"class.altered_carbon::js::ACJsValue"* %5, i32 0, i32 1
  %8 = load i32, i32* %4, align 4
  store i32 %8, i32* %7, align 8
  ret void
}

; Function Attrs: noinline nounwind optnone ssp uwtable
define void @_ZN14altered_carbon2js9ACJsValueC1ENS1_11JsValueTypeE(%"class.altered_carbon::js::ACJsValue"*, i32) unnamed_addr #0 align 2 {
  %3 = alloca %"class.altered_carbon::js::ACJsValue"*, align 8
  %4 = alloca i32, align 4
  store %"class.altered_carbon::js::ACJsValue"* %0, %"class.altered_carbon::js::ACJsValue"** %3, align 8
  store i32 %1, i32* %4, align 4
  %5 = load %"class.altered_carbon::js::ACJsValue"*, %"class.altered_carbon::js::ACJsValue"** %3, align 8
  %6 = load i32, i32* %4, align 4
  call void @_ZN14altered_carbon2js9ACJsValueC2ENS1_11JsValueTypeE(%"class.altered_carbon::js::ACJsValue"* %5, i32 %6)
  ret void
}

; Function Attrs: noinline nounwind optnone ssp uwtable
define dereferenceable(16) %"class.altered_carbon::js::ACJsValue"* @_ZNK14altered_carbon2js9ACJsValueplERKS1_(%"class.altered_carbon::js::ACJsValue"*, %"class.altered_carbon::js::ACJsValue"* dereferenceable(16)) unnamed_addr #0 align 2 {
  %3 = alloca %"class.std::__1::auto_ptr"*, align 8
  %4 = alloca %"class.std::__1::auto_ptr"*, align 8
  %5 = alloca %"class.std::__1::auto_ptr"*, align 8
  %6 = alloca %"class.std::__1::auto_ptr"*, align 8
  %7 = alloca %"class.altered_carbon::js::ACJsValue"*, align 8
  %8 = alloca %"class.std::__1::auto_ptr"*, align 8
  %9 = alloca %"class.altered_carbon::js::ACJsValue"*, align 8
  %10 = alloca %"class.std::__1::shared_ptr"*, align 8
  %11 = alloca %"class.altered_carbon::js::ACJsValue"*, align 8
  %12 = alloca %"class.altered_carbon::js::ACJsValue"*, align 8
  %13 = alloca %"class.altered_carbon::js::ACJsValue"*, align 8
  %14 = alloca %"class.std::__1::auto_ptr", align 8
  store %"class.altered_carbon::js::ACJsValue"* %0, %"class.altered_carbon::js::ACJsValue"** %12, align 8
  store %"class.altered_carbon::js::ACJsValue"* %1, %"class.altered_carbon::js::ACJsValue"** %13, align 8
  %15 = load %"class.altered_carbon::js::ACJsValue"*, %"class.altered_carbon::js::ACJsValue"** %12, align 8
  %16 = load %"class.altered_carbon::js::ACJsValue"*, %"class.altered_carbon::js::ACJsValue"** %13, align 8
  %17 = call zeroext i1 @_ZNK14altered_carbon2js9ACJsValue8isStringEv(%"class.altered_carbon::js::ACJsValue"* %16)
  br i1 %17, label %18, label %30

; <label>:18:                                     ; preds = %2
  %19 = bitcast %"class.altered_carbon::js::ACJsValue"* %15 to %"class.altered_carbon::js::ACJsValue"* (%"class.altered_carbon::js::ACJsValue"*)***
  %20 = load %"class.altered_carbon::js::ACJsValue"* (%"class.altered_carbon::js::ACJsValue"*)**, %"class.altered_carbon::js::ACJsValue"* (%"class.altered_carbon::js::ACJsValue"*)*** %19, align 8
  %21 = getelementptr inbounds %"class.altered_carbon::js::ACJsValue"* (%"class.altered_carbon::js::ACJsValue"*)*, %"class.altered_carbon::js::ACJsValue"* (%"class.altered_carbon::js::ACJsValue"*)** %20, i64 44
  %22 = load %"class.altered_carbon::js::ACJsValue"* (%"class.altered_carbon::js::ACJsValue"*)*, %"class.altered_carbon::js::ACJsValue"* (%"class.altered_carbon::js::ACJsValue"*)** %21, align 8
  %23 = call %"class.altered_carbon::js::ACJsValue"* %22(%"class.altered_carbon::js::ACJsValue"* %15)
  %24 = bitcast %"class.altered_carbon::js::ACJsValue"* %23 to %"class.altered_carbon::js::ACJsValue"* (%"class.altered_carbon::js::ACJsValue"*, %"class.altered_carbon::js::ACJsValue"*)***
  %25 = load %"class.altered_carbon::js::ACJsValue"* (%"class.altered_carbon::js::ACJsValue"*, %"class.altered_carbon::js::ACJsValue"*)**, %"class.altered_carbon::js::ACJsValue"* (%"class.altered_carbon::js::ACJsValue"*, %"class.altered_carbon::js::ACJsValue"*)*** %24, align 8
  %26 = getelementptr inbounds %"class.altered_carbon::js::ACJsValue"* (%"class.altered_carbon::js::ACJsValue"*, %"class.altered_carbon::js::ACJsValue"*)*, %"class.altered_carbon::js::ACJsValue"* (%"class.altered_carbon::js::ACJsValue"*, %"class.altered_carbon::js::ACJsValue"*)** %25, i64 5
  %27 = load %"class.altered_carbon::js::ACJsValue"* (%"class.altered_carbon::js::ACJsValue"*, %"class.altered_carbon::js::ACJsValue"*)*, %"class.altered_carbon::js::ACJsValue"* (%"class.altered_carbon::js::ACJsValue"*, %"class.altered_carbon::js::ACJsValue"*)** %26, align 8
  %28 = load %"class.altered_carbon::js::ACJsValue"*, %"class.altered_carbon::js::ACJsValue"** %13, align 8
  %29 = call dereferenceable(16) %"class.altered_carbon::js::ACJsValue"* %27(%"class.altered_carbon::js::ACJsValue"* %23, %"class.altered_carbon::js::ACJsValue"* dereferenceable(16) %28)
  store %"class.altered_carbon::js::ACJsValue"* %29, %"class.altered_carbon::js::ACJsValue"** %11, align 8
  br label %81

; <label>:30:                                     ; preds = %2
  %31 = call zeroext i1 @_ZNK14altered_carbon2js9ACJsValue11isUndefinedEv(%"class.altered_carbon::js::ACJsValue"* %15)
  br i1 %31, label %32, label %36

; <label>:32:                                     ; preds = %30
  store %"class.std::__1::shared_ptr"* bitcast (i8* getelementptr inbounds (i8, i8* bitcast (%"class.altered_carbon::js::JsValueRef"* @_ZN14altered_carbon2js11JSConstants3NaNE to i8*), i64 8) to %"class.std::__1::shared_ptr"*), %"class.std::__1::shared_ptr"** %10, align 8
  %33 = load %"class.std::__1::shared_ptr"*, %"class.std::__1::shared_ptr"** %10, align 8
  %34 = getelementptr inbounds %"class.std::__1::shared_ptr", %"class.std::__1::shared_ptr"* %33, i32 0, i32 0
  %35 = load %"class.altered_carbon::js::ACJsValue"*, %"class.altered_carbon::js::ACJsValue"** %34, align 8
  store %"class.altered_carbon::js::ACJsValue"* %35, %"class.altered_carbon::js::ACJsValue"** %11, align 8
  br label %81

; <label>:36:                                     ; preds = %30
  %37 = call zeroext i1 @_ZNK14altered_carbon2js9ACJsValue6isNullEv(%"class.altered_carbon::js::ACJsValue"* %15)
  br i1 %37, label %38, label %67

; <label>:38:                                     ; preds = %36
  %39 = call i8* @_Znwm(i64 40) #11
  %40 = bitcast i8* %39 to %"class.altered_carbon::js::ACJsNumber"*
  call void @_ZN14altered_carbon2js10ACJsNumberC1Ex(%"class.altered_carbon::js::ACJsNumber"* %40, i64 0)
  %41 = bitcast %"class.altered_carbon::js::ACJsNumber"* %40 to %"class.altered_carbon::js::ACJsValue"*
  store %"class.std::__1::auto_ptr"* %14, %"class.std::__1::auto_ptr"** %8, align 8
  store %"class.altered_carbon::js::ACJsValue"* %41, %"class.altered_carbon::js::ACJsValue"** %9, align 8
  %42 = load %"class.std::__1::auto_ptr"*, %"class.std::__1::auto_ptr"** %8, align 8
  %43 = load %"class.altered_carbon::js::ACJsValue"*, %"class.altered_carbon::js::ACJsValue"** %9, align 8
  store %"class.std::__1::auto_ptr"* %42, %"class.std::__1::auto_ptr"** %6, align 8
  store %"class.altered_carbon::js::ACJsValue"* %43, %"class.altered_carbon::js::ACJsValue"** %7, align 8
  %44 = load %"class.std::__1::auto_ptr"*, %"class.std::__1::auto_ptr"** %6, align 8
  %45 = getelementptr inbounds %"class.std::__1::auto_ptr", %"class.std::__1::auto_ptr"* %44, i32 0, i32 0
  %46 = load %"class.altered_carbon::js::ACJsValue"*, %"class.altered_carbon::js::ACJsValue"** %7, align 8
  store %"class.altered_carbon::js::ACJsValue"* %46, %"class.altered_carbon::js::ACJsValue"** %45, align 8
  store %"class.std::__1::auto_ptr"* %14, %"class.std::__1::auto_ptr"** %5, align 8
  %47 = load %"class.std::__1::auto_ptr"*, %"class.std::__1::auto_ptr"** %5, align 8
  %48 = getelementptr inbounds %"class.std::__1::auto_ptr", %"class.std::__1::auto_ptr"* %47, i32 0, i32 0
  %49 = load %"class.altered_carbon::js::ACJsValue"*, %"class.altered_carbon::js::ACJsValue"** %48, align 8
  %50 = bitcast %"class.altered_carbon::js::ACJsValue"* %49 to %"class.altered_carbon::js::ACJsValue"* (%"class.altered_carbon::js::ACJsValue"*, %"class.altered_carbon::js::ACJsValue"*)***
  %51 = load %"class.altered_carbon::js::ACJsValue"* (%"class.altered_carbon::js::ACJsValue"*, %"class.altered_carbon::js::ACJsValue"*)**, %"class.altered_carbon::js::ACJsValue"* (%"class.altered_carbon::js::ACJsValue"*, %"class.altered_carbon::js::ACJsValue"*)*** %50, align 8
  %52 = getelementptr inbounds %"class.altered_carbon::js::ACJsValue"* (%"class.altered_carbon::js::ACJsValue"*, %"class.altered_carbon::js::ACJsValue"*)*, %"class.altered_carbon::js::ACJsValue"* (%"class.altered_carbon::js::ACJsValue"*, %"class.altered_carbon::js::ACJsValue"*)** %51, i64 5
  %53 = load %"class.altered_carbon::js::ACJsValue"* (%"class.altered_carbon::js::ACJsValue"*, %"class.altered_carbon::js::ACJsValue"*)*, %"class.altered_carbon::js::ACJsValue"* (%"class.altered_carbon::js::ACJsValue"*, %"class.altered_carbon::js::ACJsValue"*)** %52, align 8
  %54 = load %"class.altered_carbon::js::ACJsValue"*, %"class.altered_carbon::js::ACJsValue"** %13, align 8
  %55 = call dereferenceable(16) %"class.altered_carbon::js::ACJsValue"* %53(%"class.altered_carbon::js::ACJsValue"* %49, %"class.altered_carbon::js::ACJsValue"* dereferenceable(16) %54)
  store %"class.altered_carbon::js::ACJsValue"* %55, %"class.altered_carbon::js::ACJsValue"** %11, align 8
  store %"class.std::__1::auto_ptr"* %14, %"class.std::__1::auto_ptr"** %4, align 8
  %56 = load %"class.std::__1::auto_ptr"*, %"class.std::__1::auto_ptr"** %4, align 8
  store %"class.std::__1::auto_ptr"* %56, %"class.std::__1::auto_ptr"** %3, align 8
  %57 = load %"class.std::__1::auto_ptr"*, %"class.std::__1::auto_ptr"** %3, align 8
  %58 = getelementptr inbounds %"class.std::__1::auto_ptr", %"class.std::__1::auto_ptr"* %57, i32 0, i32 0
  %59 = load %"class.altered_carbon::js::ACJsValue"*, %"class.altered_carbon::js::ACJsValue"** %58, align 8
  %60 = icmp eq %"class.altered_carbon::js::ACJsValue"* %59, null
  br i1 %60, label %66, label %61

; <label>:61:                                     ; preds = %38
  %62 = bitcast %"class.altered_carbon::js::ACJsValue"* %59 to void (%"class.altered_carbon::js::ACJsValue"*)***
  %63 = load void (%"class.altered_carbon::js::ACJsValue"*)**, void (%"class.altered_carbon::js::ACJsValue"*)*** %62, align 8
  %64 = getelementptr inbounds void (%"class.altered_carbon::js::ACJsValue"*)*, void (%"class.altered_carbon::js::ACJsValue"*)** %63, i64 1
  %65 = load void (%"class.altered_carbon::js::ACJsValue"*)*, void (%"class.altered_carbon::js::ACJsValue"*)** %64, align 8
  call void %65(%"class.altered_carbon::js::ACJsValue"* %59) #5
  br label %66

; <label>:66:                                     ; preds = %38, %61
  br label %81

; <label>:67:                                     ; preds = %36
  br label %68

; <label>:68:                                     ; preds = %67
  br label %69

; <label>:69:                                     ; preds = %68
  %70 = bitcast %"class.altered_carbon::js::ACJsValue"* %15 to %"class.altered_carbon::js::ACJsValue"* (%"class.altered_carbon::js::ACJsValue"*)***
  %71 = load %"class.altered_carbon::js::ACJsValue"* (%"class.altered_carbon::js::ACJsValue"*)**, %"class.altered_carbon::js::ACJsValue"* (%"class.altered_carbon::js::ACJsValue"*)*** %70, align 8
  %72 = getelementptr inbounds %"class.altered_carbon::js::ACJsValue"* (%"class.altered_carbon::js::ACJsValue"*)*, %"class.altered_carbon::js::ACJsValue"* (%"class.altered_carbon::js::ACJsValue"*)** %71, i64 42
  %73 = load %"class.altered_carbon::js::ACJsValue"* (%"class.altered_carbon::js::ACJsValue"*)*, %"class.altered_carbon::js::ACJsValue"* (%"class.altered_carbon::js::ACJsValue"*)** %72, align 8
  %74 = call %"class.altered_carbon::js::ACJsValue"* %73(%"class.altered_carbon::js::ACJsValue"* %15)
  %75 = bitcast %"class.altered_carbon::js::ACJsValue"* %74 to %"class.altered_carbon::js::ACJsValue"* (%"class.altered_carbon::js::ACJsValue"*, %"class.altered_carbon::js::ACJsValue"*)***
  %76 = load %"class.altered_carbon::js::ACJsValue"* (%"class.altered_carbon::js::ACJsValue"*, %"class.altered_carbon::js::ACJsValue"*)**, %"class.altered_carbon::js::ACJsValue"* (%"class.altered_carbon::js::ACJsValue"*, %"class.altered_carbon::js::ACJsValue"*)*** %75, align 8
  %77 = getelementptr inbounds %"class.altered_carbon::js::ACJsValue"* (%"class.altered_carbon::js::ACJsValue"*, %"class.altered_carbon::js::ACJsValue"*)*, %"class.altered_carbon::js::ACJsValue"* (%"class.altered_carbon::js::ACJsValue"*, %"class.altered_carbon::js::ACJsValue"*)** %76, i64 5
  %78 = load %"class.altered_carbon::js::ACJsValue"* (%"class.altered_carbon::js::ACJsValue"*, %"class.altered_carbon::js::ACJsValue"*)*, %"class.altered_carbon::js::ACJsValue"* (%"class.altered_carbon::js::ACJsValue"*, %"class.altered_carbon::js::ACJsValue"*)** %77, align 8
  %79 = load %"class.altered_carbon::js::ACJsValue"*, %"class.altered_carbon::js::ACJsValue"** %13, align 8
  %80 = call dereferenceable(16) %"class.altered_carbon::js::ACJsValue"* %78(%"class.altered_carbon::js::ACJsValue"* %74, %"class.altered_carbon::js::ACJsValue"* dereferenceable(16) %79)
  store %"class.altered_carbon::js::ACJsValue"* %80, %"class.altered_carbon::js::ACJsValue"** %11, align 8
  br label %81

; <label>:81:                                     ; preds = %69, %66, %32, %18
  %82 = load %"class.altered_carbon::js::ACJsValue"*, %"class.altered_carbon::js::ACJsValue"** %11, align 8
  ret %"class.altered_carbon::js::ACJsValue"* %82
}

; Function Attrs: noinline nounwind optnone ssp uwtable
define linkonce_odr hidden zeroext i1 @_ZNK14altered_carbon2js9ACJsValue8isStringEv(%"class.altered_carbon::js::ACJsValue"*) #0 align 2 {
  %2 = alloca %"class.altered_carbon::js::ACJsValue"*, align 8
  store %"class.altered_carbon::js::ACJsValue"* %0, %"class.altered_carbon::js::ACJsValue"** %2, align 8
  %3 = load %"class.altered_carbon::js::ACJsValue"*, %"class.altered_carbon::js::ACJsValue"** %2, align 8
  %4 = getelementptr inbounds %"class.altered_carbon::js::ACJsValue", %"class.altered_carbon::js::ACJsValue"* %3, i32 0, i32 1
  %5 = load i32, i32* %4, align 8
  %6 = icmp eq i32 %5, 4
  ret i1 %6
}

; Function Attrs: noinline nounwind optnone ssp uwtable
define linkonce_odr hidden zeroext i1 @_ZNK14altered_carbon2js9ACJsValue11isUndefinedEv(%"class.altered_carbon::js::ACJsValue"*) #0 align 2 {
  %2 = alloca %"class.altered_carbon::js::ACJsValue"*, align 8
  store %"class.altered_carbon::js::ACJsValue"* %0, %"class.altered_carbon::js::ACJsValue"** %2, align 8
  %3 = load %"class.altered_carbon::js::ACJsValue"*, %"class.altered_carbon::js::ACJsValue"** %2, align 8
  %4 = getelementptr inbounds %"class.altered_carbon::js::ACJsValue", %"class.altered_carbon::js::ACJsValue"* %3, i32 0, i32 1
  %5 = load i32, i32* %4, align 8
  %6 = icmp eq i32 %5, -1
  ret i1 %6
}

; Function Attrs: noinline nounwind optnone ssp uwtable
define linkonce_odr hidden zeroext i1 @_ZNK14altered_carbon2js9ACJsValue6isNullEv(%"class.altered_carbon::js::ACJsValue"*) #0 align 2 {
  %2 = alloca %"class.altered_carbon::js::ACJsValue"*, align 8
  store %"class.altered_carbon::js::ACJsValue"* %0, %"class.altered_carbon::js::ACJsValue"** %2, align 8
  %3 = load %"class.altered_carbon::js::ACJsValue"*, %"class.altered_carbon::js::ACJsValue"** %2, align 8
  %4 = getelementptr inbounds %"class.altered_carbon::js::ACJsValue", %"class.altered_carbon::js::ACJsValue"* %3, i32 0, i32 1
  %5 = load i32, i32* %4, align 8
  %6 = icmp eq i32 %5, 0
  ret i1 %6
}

; Function Attrs: nobuiltin
declare noalias i8* @_Znwm(i64) #1

declare void @_ZN14altered_carbon2js10ACJsNumberC1Ex(%"class.altered_carbon::js::ACJsNumber"*, i64) unnamed_addr #2

; Function Attrs: noinline nounwind optnone ssp uwtable
define dereferenceable(16) %"class.altered_carbon::js::ACJsValue"* @_ZNK14altered_carbon2js9ACJsValuemiERKS1_(%"class.altered_carbon::js::ACJsValue"*, %"class.altered_carbon::js::ACJsValue"* dereferenceable(16)) unnamed_addr #0 align 2 {
  %3 = alloca %"class.std::__1::shared_ptr"*, align 8
  %4 = alloca %"class.std::__1::shared_ptr"*, align 8
  %5 = alloca %"class.altered_carbon::js::ACJsValue"*, align 8
  %6 = alloca %"class.altered_carbon::js::ACJsValue"*, align 8
  %7 = alloca %"class.altered_carbon::js::ACJsValue"*, align 8
  %8 = alloca %"class.altered_carbon::js::JsValueRef", align 8
  store %"class.altered_carbon::js::ACJsValue"* %0, %"class.altered_carbon::js::ACJsValue"** %6, align 8
  store %"class.altered_carbon::js::ACJsValue"* %1, %"class.altered_carbon::js::ACJsValue"** %7, align 8
  %9 = load %"class.altered_carbon::js::ACJsValue"*, %"class.altered_carbon::js::ACJsValue"** %6, align 8
  %10 = call zeroext i1 @_ZNK14altered_carbon2js9ACJsValue11isUndefinedEv(%"class.altered_carbon::js::ACJsValue"* %9)
  br i1 %10, label %11, label %15

; <label>:11:                                     ; preds = %2
  store %"class.std::__1::shared_ptr"* bitcast (i8* getelementptr inbounds (i8, i8* bitcast (%"class.altered_carbon::js::JsValueRef"* @_ZN14altered_carbon2js11JSConstants3NaNE to i8*), i64 8) to %"class.std::__1::shared_ptr"*), %"class.std::__1::shared_ptr"** %4, align 8
  %12 = load %"class.std::__1::shared_ptr"*, %"class.std::__1::shared_ptr"** %4, align 8
  %13 = getelementptr inbounds %"class.std::__1::shared_ptr", %"class.std::__1::shared_ptr"* %12, i32 0, i32 0
  %14 = load %"class.altered_carbon::js::ACJsValue"*, %"class.altered_carbon::js::ACJsValue"** %13, align 8
  store %"class.altered_carbon::js::ACJsValue"* %14, %"class.altered_carbon::js::ACJsValue"** %5, align 8
  br label %46

; <label>:15:                                     ; preds = %2
  %16 = call zeroext i1 @_ZNK14altered_carbon2js9ACJsValue6isNullEv(%"class.altered_carbon::js::ACJsValue"* %9)
  br i1 %16, label %17, label %33

; <label>:17:                                     ; preds = %15
  %18 = call i8* @_Znwm(i64 40) #11
  %19 = bitcast i8* %18 to %"class.altered_carbon::js::ACJsNumber"*
  call void @_ZN14altered_carbon2js10ACJsNumberC1Ex(%"class.altered_carbon::js::ACJsNumber"* %19, i64 0)
  %20 = bitcast %"class.altered_carbon::js::ACJsNumber"* %19 to %"class.altered_carbon::js::ACJsValue"*
  call void @_ZN14altered_carbon2js10JsValueRefC1EPNS0_9ACJsValueE(%"class.altered_carbon::js::JsValueRef"* %8, %"class.altered_carbon::js::ACJsValue"* %20)
  %21 = bitcast %"class.altered_carbon::js::JsValueRef"* %8 to i8*
  %22 = getelementptr inbounds i8, i8* %21, i64 8
  %23 = bitcast i8* %22 to %"class.std::__1::shared_ptr"*
  store %"class.std::__1::shared_ptr"* %23, %"class.std::__1::shared_ptr"** %3, align 8
  %24 = load %"class.std::__1::shared_ptr"*, %"class.std::__1::shared_ptr"** %3, align 8
  %25 = getelementptr inbounds %"class.std::__1::shared_ptr", %"class.std::__1::shared_ptr"* %24, i32 0, i32 0
  %26 = load %"class.altered_carbon::js::ACJsValue"*, %"class.altered_carbon::js::ACJsValue"** %25, align 8
  %27 = bitcast %"class.altered_carbon::js::ACJsValue"* %26 to %"class.altered_carbon::js::ACJsValue"* (%"class.altered_carbon::js::ACJsValue"*, %"class.altered_carbon::js::ACJsValue"*)***
  %28 = load %"class.altered_carbon::js::ACJsValue"* (%"class.altered_carbon::js::ACJsValue"*, %"class.altered_carbon::js::ACJsValue"*)**, %"class.altered_carbon::js::ACJsValue"* (%"class.altered_carbon::js::ACJsValue"*, %"class.altered_carbon::js::ACJsValue"*)*** %27, align 8
  %29 = getelementptr inbounds %"class.altered_carbon::js::ACJsValue"* (%"class.altered_carbon::js::ACJsValue"*, %"class.altered_carbon::js::ACJsValue"*)*, %"class.altered_carbon::js::ACJsValue"* (%"class.altered_carbon::js::ACJsValue"*, %"class.altered_carbon::js::ACJsValue"*)** %28, i64 6
  %30 = load %"class.altered_carbon::js::ACJsValue"* (%"class.altered_carbon::js::ACJsValue"*, %"class.altered_carbon::js::ACJsValue"*)*, %"class.altered_carbon::js::ACJsValue"* (%"class.altered_carbon::js::ACJsValue"*, %"class.altered_carbon::js::ACJsValue"*)** %29, align 8
  %31 = load %"class.altered_carbon::js::ACJsValue"*, %"class.altered_carbon::js::ACJsValue"** %7, align 8
  %32 = call dereferenceable(16) %"class.altered_carbon::js::ACJsValue"* %30(%"class.altered_carbon::js::ACJsValue"* %26, %"class.altered_carbon::js::ACJsValue"* dereferenceable(16) %31)
  store %"class.altered_carbon::js::ACJsValue"* %32, %"class.altered_carbon::js::ACJsValue"** %5, align 8
  call void @_ZN14altered_carbon2js10JsValueRefD1Ev(%"class.altered_carbon::js::JsValueRef"* %8) #5
  br label %46

; <label>:33:                                     ; preds = %15
  br label %34

; <label>:34:                                     ; preds = %33
  %35 = bitcast %"class.altered_carbon::js::ACJsValue"* %9 to %"class.altered_carbon::js::ACJsValue"* (%"class.altered_carbon::js::ACJsValue"*)***
  %36 = load %"class.altered_carbon::js::ACJsValue"* (%"class.altered_carbon::js::ACJsValue"*)**, %"class.altered_carbon::js::ACJsValue"* (%"class.altered_carbon::js::ACJsValue"*)*** %35, align 8
  %37 = getelementptr inbounds %"class.altered_carbon::js::ACJsValue"* (%"class.altered_carbon::js::ACJsValue"*)*, %"class.altered_carbon::js::ACJsValue"* (%"class.altered_carbon::js::ACJsValue"*)** %36, i64 42
  %38 = load %"class.altered_carbon::js::ACJsValue"* (%"class.altered_carbon::js::ACJsValue"*)*, %"class.altered_carbon::js::ACJsValue"* (%"class.altered_carbon::js::ACJsValue"*)** %37, align 8
  %39 = call %"class.altered_carbon::js::ACJsValue"* %38(%"class.altered_carbon::js::ACJsValue"* %9)
  %40 = bitcast %"class.altered_carbon::js::ACJsValue"* %39 to %"class.altered_carbon::js::ACJsValue"* (%"class.altered_carbon::js::ACJsValue"*, %"class.altered_carbon::js::ACJsValue"*)***
  %41 = load %"class.altered_carbon::js::ACJsValue"* (%"class.altered_carbon::js::ACJsValue"*, %"class.altered_carbon::js::ACJsValue"*)**, %"class.altered_carbon::js::ACJsValue"* (%"class.altered_carbon::js::ACJsValue"*, %"class.altered_carbon::js::ACJsValue"*)*** %40, align 8
  %42 = getelementptr inbounds %"class.altered_carbon::js::ACJsValue"* (%"class.altered_carbon::js::ACJsValue"*, %"class.altered_carbon::js::ACJsValue"*)*, %"class.altered_carbon::js::ACJsValue"* (%"class.altered_carbon::js::ACJsValue"*, %"class.altered_carbon::js::ACJsValue"*)** %41, i64 6
  %43 = load %"class.altered_carbon::js::ACJsValue"* (%"class.altered_carbon::js::ACJsValue"*, %"class.altered_carbon::js::ACJsValue"*)*, %"class.altered_carbon::js::ACJsValue"* (%"class.altered_carbon::js::ACJsValue"*, %"class.altered_carbon::js::ACJsValue"*)** %42, align 8
  %44 = load %"class.altered_carbon::js::ACJsValue"*, %"class.altered_carbon::js::ACJsValue"** %7, align 8
  %45 = call dereferenceable(16) %"class.altered_carbon::js::ACJsValue"* %43(%"class.altered_carbon::js::ACJsValue"* %39, %"class.altered_carbon::js::ACJsValue"* dereferenceable(16) %44)
  store %"class.altered_carbon::js::ACJsValue"* %45, %"class.altered_carbon::js::ACJsValue"** %5, align 8
  br label %46

; <label>:46:                                     ; preds = %34, %17, %11
  %47 = load %"class.altered_carbon::js::ACJsValue"*, %"class.altered_carbon::js::ACJsValue"** %5, align 8
  ret %"class.altered_carbon::js::ACJsValue"* %47
}

; Function Attrs: noinline nounwind optnone ssp uwtable
define void @_ZN14altered_carbon2js10JsValueRefC1EPNS0_9ACJsValueE(%"class.altered_carbon::js::JsValueRef"*, %"class.altered_carbon::js::ACJsValue"*) unnamed_addr #0 align 2 {
  %3 = alloca %"class.altered_carbon::js::JsValueRef"*, align 8
  %4 = alloca %"class.altered_carbon::js::ACJsValue"*, align 8
  store %"class.altered_carbon::js::JsValueRef"* %0, %"class.altered_carbon::js::JsValueRef"** %3, align 8
  store %"class.altered_carbon::js::ACJsValue"* %1, %"class.altered_carbon::js::ACJsValue"** %4, align 8
  %5 = load %"class.altered_carbon::js::JsValueRef"*, %"class.altered_carbon::js::JsValueRef"** %3, align 8
  %6 = load %"class.altered_carbon::js::ACJsValue"*, %"class.altered_carbon::js::ACJsValue"** %4, align 8
  call void @_ZN14altered_carbon2js10JsValueRefC2EPNS0_9ACJsValueE(%"class.altered_carbon::js::JsValueRef"* %5, %"class.altered_carbon::js::ACJsValue"* %6)
  ret void
}

; Function Attrs: noinline nounwind optnone ssp uwtable
define void @_ZN14altered_carbon2js10JsValueRefD1Ev(%"class.altered_carbon::js::JsValueRef"*) unnamed_addr #0 align 2 {
  %2 = alloca %"class.altered_carbon::js::JsValueRef"*, align 8
  store %"class.altered_carbon::js::JsValueRef"* %0, %"class.altered_carbon::js::JsValueRef"** %2, align 8
  %3 = load %"class.altered_carbon::js::JsValueRef"*, %"class.altered_carbon::js::JsValueRef"** %2, align 8
  call void @_ZN14altered_carbon2js10JsValueRefD2Ev(%"class.altered_carbon::js::JsValueRef"* %3) #5
  ret void
}

; Function Attrs: noinline nounwind optnone ssp uwtable
define dereferenceable(16) %"class.altered_carbon::js::ACJsValue"* @_ZNK14altered_carbon2js9ACJsValuemlERKS1_(%"class.altered_carbon::js::ACJsValue"*, %"class.altered_carbon::js::ACJsValue"* dereferenceable(16)) unnamed_addr #0 align 2 {
  %3 = alloca %"class.std::__1::shared_ptr"*, align 8
  %4 = alloca %"class.std::__1::shared_ptr"*, align 8
  %5 = alloca %"class.altered_carbon::js::ACJsValue"*, align 8
  %6 = alloca %"class.altered_carbon::js::ACJsValue"*, align 8
  %7 = alloca %"class.altered_carbon::js::ACJsValue"*, align 8
  %8 = alloca %"class.altered_carbon::js::JsValueRef", align 8
  store %"class.altered_carbon::js::ACJsValue"* %0, %"class.altered_carbon::js::ACJsValue"** %6, align 8
  store %"class.altered_carbon::js::ACJsValue"* %1, %"class.altered_carbon::js::ACJsValue"** %7, align 8
  %9 = load %"class.altered_carbon::js::ACJsValue"*, %"class.altered_carbon::js::ACJsValue"** %6, align 8
  %10 = call zeroext i1 @_ZNK14altered_carbon2js9ACJsValue11isUndefinedEv(%"class.altered_carbon::js::ACJsValue"* %9)
  br i1 %10, label %11, label %15

; <label>:11:                                     ; preds = %2
  store %"class.std::__1::shared_ptr"* bitcast (i8* getelementptr inbounds (i8, i8* bitcast (%"class.altered_carbon::js::JsValueRef"* @_ZN14altered_carbon2js11JSConstants3NaNE to i8*), i64 8) to %"class.std::__1::shared_ptr"*), %"class.std::__1::shared_ptr"** %4, align 8
  %12 = load %"class.std::__1::shared_ptr"*, %"class.std::__1::shared_ptr"** %4, align 8
  %13 = getelementptr inbounds %"class.std::__1::shared_ptr", %"class.std::__1::shared_ptr"* %12, i32 0, i32 0
  %14 = load %"class.altered_carbon::js::ACJsValue"*, %"class.altered_carbon::js::ACJsValue"** %13, align 8
  store %"class.altered_carbon::js::ACJsValue"* %14, %"class.altered_carbon::js::ACJsValue"** %5, align 8
  br label %46

; <label>:15:                                     ; preds = %2
  %16 = call zeroext i1 @_ZNK14altered_carbon2js9ACJsValue6isNullEv(%"class.altered_carbon::js::ACJsValue"* %9)
  br i1 %16, label %17, label %33

; <label>:17:                                     ; preds = %15
  %18 = call i8* @_Znwm(i64 40) #11
  %19 = bitcast i8* %18 to %"class.altered_carbon::js::ACJsNumber"*
  call void @_ZN14altered_carbon2js10ACJsNumberC1Ex(%"class.altered_carbon::js::ACJsNumber"* %19, i64 0)
  %20 = bitcast %"class.altered_carbon::js::ACJsNumber"* %19 to %"class.altered_carbon::js::ACJsValue"*
  call void @_ZN14altered_carbon2js10JsValueRefC1EPNS0_9ACJsValueE(%"class.altered_carbon::js::JsValueRef"* %8, %"class.altered_carbon::js::ACJsValue"* %20)
  %21 = bitcast %"class.altered_carbon::js::JsValueRef"* %8 to i8*
  %22 = getelementptr inbounds i8, i8* %21, i64 8
  %23 = bitcast i8* %22 to %"class.std::__1::shared_ptr"*
  store %"class.std::__1::shared_ptr"* %23, %"class.std::__1::shared_ptr"** %3, align 8
  %24 = load %"class.std::__1::shared_ptr"*, %"class.std::__1::shared_ptr"** %3, align 8
  %25 = getelementptr inbounds %"class.std::__1::shared_ptr", %"class.std::__1::shared_ptr"* %24, i32 0, i32 0
  %26 = load %"class.altered_carbon::js::ACJsValue"*, %"class.altered_carbon::js::ACJsValue"** %25, align 8
  %27 = bitcast %"class.altered_carbon::js::ACJsValue"* %26 to %"class.altered_carbon::js::ACJsValue"* (%"class.altered_carbon::js::ACJsValue"*, %"class.altered_carbon::js::ACJsValue"*)***
  %28 = load %"class.altered_carbon::js::ACJsValue"* (%"class.altered_carbon::js::ACJsValue"*, %"class.altered_carbon::js::ACJsValue"*)**, %"class.altered_carbon::js::ACJsValue"* (%"class.altered_carbon::js::ACJsValue"*, %"class.altered_carbon::js::ACJsValue"*)*** %27, align 8
  %29 = getelementptr inbounds %"class.altered_carbon::js::ACJsValue"* (%"class.altered_carbon::js::ACJsValue"*, %"class.altered_carbon::js::ACJsValue"*)*, %"class.altered_carbon::js::ACJsValue"* (%"class.altered_carbon::js::ACJsValue"*, %"class.altered_carbon::js::ACJsValue"*)** %28, i64 7
  %30 = load %"class.altered_carbon::js::ACJsValue"* (%"class.altered_carbon::js::ACJsValue"*, %"class.altered_carbon::js::ACJsValue"*)*, %"class.altered_carbon::js::ACJsValue"* (%"class.altered_carbon::js::ACJsValue"*, %"class.altered_carbon::js::ACJsValue"*)** %29, align 8
  %31 = load %"class.altered_carbon::js::ACJsValue"*, %"class.altered_carbon::js::ACJsValue"** %7, align 8
  %32 = call dereferenceable(16) %"class.altered_carbon::js::ACJsValue"* %30(%"class.altered_carbon::js::ACJsValue"* %26, %"class.altered_carbon::js::ACJsValue"* dereferenceable(16) %31)
  store %"class.altered_carbon::js::ACJsValue"* %32, %"class.altered_carbon::js::ACJsValue"** %5, align 8
  call void @_ZN14altered_carbon2js10JsValueRefD1Ev(%"class.altered_carbon::js::JsValueRef"* %8) #5
  br label %46

; <label>:33:                                     ; preds = %15
  br label %34

; <label>:34:                                     ; preds = %33
  %35 = bitcast %"class.altered_carbon::js::ACJsValue"* %9 to %"class.altered_carbon::js::ACJsValue"* (%"class.altered_carbon::js::ACJsValue"*)***
  %36 = load %"class.altered_carbon::js::ACJsValue"* (%"class.altered_carbon::js::ACJsValue"*)**, %"class.altered_carbon::js::ACJsValue"* (%"class.altered_carbon::js::ACJsValue"*)*** %35, align 8
  %37 = getelementptr inbounds %"class.altered_carbon::js::ACJsValue"* (%"class.altered_carbon::js::ACJsValue"*)*, %"class.altered_carbon::js::ACJsValue"* (%"class.altered_carbon::js::ACJsValue"*)** %36, i64 42
  %38 = load %"class.altered_carbon::js::ACJsValue"* (%"class.altered_carbon::js::ACJsValue"*)*, %"class.altered_carbon::js::ACJsValue"* (%"class.altered_carbon::js::ACJsValue"*)** %37, align 8
  %39 = call %"class.altered_carbon::js::ACJsValue"* %38(%"class.altered_carbon::js::ACJsValue"* %9)
  %40 = bitcast %"class.altered_carbon::js::ACJsValue"* %39 to %"class.altered_carbon::js::ACJsValue"* (%"class.altered_carbon::js::ACJsValue"*, %"class.altered_carbon::js::ACJsValue"*)***
  %41 = load %"class.altered_carbon::js::ACJsValue"* (%"class.altered_carbon::js::ACJsValue"*, %"class.altered_carbon::js::ACJsValue"*)**, %"class.altered_carbon::js::ACJsValue"* (%"class.altered_carbon::js::ACJsValue"*, %"class.altered_carbon::js::ACJsValue"*)*** %40, align 8
  %42 = getelementptr inbounds %"class.altered_carbon::js::ACJsValue"* (%"class.altered_carbon::js::ACJsValue"*, %"class.altered_carbon::js::ACJsValue"*)*, %"class.altered_carbon::js::ACJsValue"* (%"class.altered_carbon::js::ACJsValue"*, %"class.altered_carbon::js::ACJsValue"*)** %41, i64 7
  %43 = load %"class.altered_carbon::js::ACJsValue"* (%"class.altered_carbon::js::ACJsValue"*, %"class.altered_carbon::js::ACJsValue"*)*, %"class.altered_carbon::js::ACJsValue"* (%"class.altered_carbon::js::ACJsValue"*, %"class.altered_carbon::js::ACJsValue"*)** %42, align 8
  %44 = load %"class.altered_carbon::js::ACJsValue"*, %"class.altered_carbon::js::ACJsValue"** %7, align 8
  %45 = call dereferenceable(16) %"class.altered_carbon::js::ACJsValue"* %43(%"class.altered_carbon::js::ACJsValue"* %39, %"class.altered_carbon::js::ACJsValue"* dereferenceable(16) %44)
  store %"class.altered_carbon::js::ACJsValue"* %45, %"class.altered_carbon::js::ACJsValue"** %5, align 8
  br label %46

; <label>:46:                                     ; preds = %34, %17, %11
  %47 = load %"class.altered_carbon::js::ACJsValue"*, %"class.altered_carbon::js::ACJsValue"** %5, align 8
  ret %"class.altered_carbon::js::ACJsValue"* %47
}

; Function Attrs: noinline nounwind optnone ssp uwtable
define dereferenceable(16) %"class.altered_carbon::js::ACJsValue"* @_ZNK14altered_carbon2js9ACJsValuedvERKS1_(%"class.altered_carbon::js::ACJsValue"*, %"class.altered_carbon::js::ACJsValue"* dereferenceable(16)) unnamed_addr #0 align 2 {
  %3 = alloca %"class.std::__1::shared_ptr"*, align 8
  %4 = alloca %"class.std::__1::shared_ptr"*, align 8
  %5 = alloca %"class.altered_carbon::js::ACJsValue"*, align 8
  %6 = alloca %"class.altered_carbon::js::ACJsValue"*, align 8
  %7 = alloca %"class.altered_carbon::js::ACJsValue"*, align 8
  %8 = alloca %"class.altered_carbon::js::JsValueRef", align 8
  store %"class.altered_carbon::js::ACJsValue"* %0, %"class.altered_carbon::js::ACJsValue"** %6, align 8
  store %"class.altered_carbon::js::ACJsValue"* %1, %"class.altered_carbon::js::ACJsValue"** %7, align 8
  %9 = load %"class.altered_carbon::js::ACJsValue"*, %"class.altered_carbon::js::ACJsValue"** %6, align 8
  %10 = call zeroext i1 @_ZNK14altered_carbon2js9ACJsValue11isUndefinedEv(%"class.altered_carbon::js::ACJsValue"* %9)
  br i1 %10, label %11, label %15

; <label>:11:                                     ; preds = %2
  store %"class.std::__1::shared_ptr"* bitcast (i8* getelementptr inbounds (i8, i8* bitcast (%"class.altered_carbon::js::JsValueRef"* @_ZN14altered_carbon2js11JSConstants3NaNE to i8*), i64 8) to %"class.std::__1::shared_ptr"*), %"class.std::__1::shared_ptr"** %4, align 8
  %12 = load %"class.std::__1::shared_ptr"*, %"class.std::__1::shared_ptr"** %4, align 8
  %13 = getelementptr inbounds %"class.std::__1::shared_ptr", %"class.std::__1::shared_ptr"* %12, i32 0, i32 0
  %14 = load %"class.altered_carbon::js::ACJsValue"*, %"class.altered_carbon::js::ACJsValue"** %13, align 8
  store %"class.altered_carbon::js::ACJsValue"* %14, %"class.altered_carbon::js::ACJsValue"** %5, align 8
  br label %46

; <label>:15:                                     ; preds = %2
  %16 = call zeroext i1 @_ZNK14altered_carbon2js9ACJsValue6isNullEv(%"class.altered_carbon::js::ACJsValue"* %9)
  br i1 %16, label %17, label %33

; <label>:17:                                     ; preds = %15
  %18 = call i8* @_Znwm(i64 40) #11
  %19 = bitcast i8* %18 to %"class.altered_carbon::js::ACJsNumber"*
  call void @_ZN14altered_carbon2js10ACJsNumberC1Ex(%"class.altered_carbon::js::ACJsNumber"* %19, i64 0)
  %20 = bitcast %"class.altered_carbon::js::ACJsNumber"* %19 to %"class.altered_carbon::js::ACJsValue"*
  call void @_ZN14altered_carbon2js10JsValueRefC1EPNS0_9ACJsValueE(%"class.altered_carbon::js::JsValueRef"* %8, %"class.altered_carbon::js::ACJsValue"* %20)
  %21 = bitcast %"class.altered_carbon::js::JsValueRef"* %8 to i8*
  %22 = getelementptr inbounds i8, i8* %21, i64 8
  %23 = bitcast i8* %22 to %"class.std::__1::shared_ptr"*
  store %"class.std::__1::shared_ptr"* %23, %"class.std::__1::shared_ptr"** %3, align 8
  %24 = load %"class.std::__1::shared_ptr"*, %"class.std::__1::shared_ptr"** %3, align 8
  %25 = getelementptr inbounds %"class.std::__1::shared_ptr", %"class.std::__1::shared_ptr"* %24, i32 0, i32 0
  %26 = load %"class.altered_carbon::js::ACJsValue"*, %"class.altered_carbon::js::ACJsValue"** %25, align 8
  %27 = bitcast %"class.altered_carbon::js::ACJsValue"* %26 to %"class.altered_carbon::js::ACJsValue"* (%"class.altered_carbon::js::ACJsValue"*, %"class.altered_carbon::js::ACJsValue"*)***
  %28 = load %"class.altered_carbon::js::ACJsValue"* (%"class.altered_carbon::js::ACJsValue"*, %"class.altered_carbon::js::ACJsValue"*)**, %"class.altered_carbon::js::ACJsValue"* (%"class.altered_carbon::js::ACJsValue"*, %"class.altered_carbon::js::ACJsValue"*)*** %27, align 8
  %29 = getelementptr inbounds %"class.altered_carbon::js::ACJsValue"* (%"class.altered_carbon::js::ACJsValue"*, %"class.altered_carbon::js::ACJsValue"*)*, %"class.altered_carbon::js::ACJsValue"* (%"class.altered_carbon::js::ACJsValue"*, %"class.altered_carbon::js::ACJsValue"*)** %28, i64 8
  %30 = load %"class.altered_carbon::js::ACJsValue"* (%"class.altered_carbon::js::ACJsValue"*, %"class.altered_carbon::js::ACJsValue"*)*, %"class.altered_carbon::js::ACJsValue"* (%"class.altered_carbon::js::ACJsValue"*, %"class.altered_carbon::js::ACJsValue"*)** %29, align 8
  %31 = load %"class.altered_carbon::js::ACJsValue"*, %"class.altered_carbon::js::ACJsValue"** %7, align 8
  %32 = call dereferenceable(16) %"class.altered_carbon::js::ACJsValue"* %30(%"class.altered_carbon::js::ACJsValue"* %26, %"class.altered_carbon::js::ACJsValue"* dereferenceable(16) %31)
  store %"class.altered_carbon::js::ACJsValue"* %32, %"class.altered_carbon::js::ACJsValue"** %5, align 8
  call void @_ZN14altered_carbon2js10JsValueRefD1Ev(%"class.altered_carbon::js::JsValueRef"* %8) #5
  br label %46

; <label>:33:                                     ; preds = %15
  br label %34

; <label>:34:                                     ; preds = %33
  %35 = bitcast %"class.altered_carbon::js::ACJsValue"* %9 to %"class.altered_carbon::js::ACJsValue"* (%"class.altered_carbon::js::ACJsValue"*)***
  %36 = load %"class.altered_carbon::js::ACJsValue"* (%"class.altered_carbon::js::ACJsValue"*)**, %"class.altered_carbon::js::ACJsValue"* (%"class.altered_carbon::js::ACJsValue"*)*** %35, align 8
  %37 = getelementptr inbounds %"class.altered_carbon::js::ACJsValue"* (%"class.altered_carbon::js::ACJsValue"*)*, %"class.altered_carbon::js::ACJsValue"* (%"class.altered_carbon::js::ACJsValue"*)** %36, i64 42
  %38 = load %"class.altered_carbon::js::ACJsValue"* (%"class.altered_carbon::js::ACJsValue"*)*, %"class.altered_carbon::js::ACJsValue"* (%"class.altered_carbon::js::ACJsValue"*)** %37, align 8
  %39 = call %"class.altered_carbon::js::ACJsValue"* %38(%"class.altered_carbon::js::ACJsValue"* %9)
  %40 = bitcast %"class.altered_carbon::js::ACJsValue"* %39 to %"class.altered_carbon::js::ACJsValue"* (%"class.altered_carbon::js::ACJsValue"*, %"class.altered_carbon::js::ACJsValue"*)***
  %41 = load %"class.altered_carbon::js::ACJsValue"* (%"class.altered_carbon::js::ACJsValue"*, %"class.altered_carbon::js::ACJsValue"*)**, %"class.altered_carbon::js::ACJsValue"* (%"class.altered_carbon::js::ACJsValue"*, %"class.altered_carbon::js::ACJsValue"*)*** %40, align 8
  %42 = getelementptr inbounds %"class.altered_carbon::js::ACJsValue"* (%"class.altered_carbon::js::ACJsValue"*, %"class.altered_carbon::js::ACJsValue"*)*, %"class.altered_carbon::js::ACJsValue"* (%"class.altered_carbon::js::ACJsValue"*, %"class.altered_carbon::js::ACJsValue"*)** %41, i64 8
  %43 = load %"class.altered_carbon::js::ACJsValue"* (%"class.altered_carbon::js::ACJsValue"*, %"class.altered_carbon::js::ACJsValue"*)*, %"class.altered_carbon::js::ACJsValue"* (%"class.altered_carbon::js::ACJsValue"*, %"class.altered_carbon::js::ACJsValue"*)** %42, align 8
  %44 = load %"class.altered_carbon::js::ACJsValue"*, %"class.altered_carbon::js::ACJsValue"** %7, align 8
  %45 = call dereferenceable(16) %"class.altered_carbon::js::ACJsValue"* %43(%"class.altered_carbon::js::ACJsValue"* %39, %"class.altered_carbon::js::ACJsValue"* dereferenceable(16) %44)
  store %"class.altered_carbon::js::ACJsValue"* %45, %"class.altered_carbon::js::ACJsValue"** %5, align 8
  br label %46

; <label>:46:                                     ; preds = %34, %17, %11
  %47 = load %"class.altered_carbon::js::ACJsValue"*, %"class.altered_carbon::js::ACJsValue"** %5, align 8
  ret %"class.altered_carbon::js::ACJsValue"* %47
}

; Function Attrs: noinline nounwind optnone ssp uwtable
define dereferenceable(16) %"class.altered_carbon::js::ACJsValue"* @_ZNK14altered_carbon2js9ACJsValuermERKS1_(%"class.altered_carbon::js::ACJsValue"*, %"class.altered_carbon::js::ACJsValue"* dereferenceable(16)) unnamed_addr #0 align 2 {
  %3 = alloca %"class.std::__1::shared_ptr"*, align 8
  %4 = alloca %"class.std::__1::shared_ptr"*, align 8
  %5 = alloca %"class.altered_carbon::js::ACJsValue"*, align 8
  %6 = alloca %"class.altered_carbon::js::ACJsValue"*, align 8
  %7 = alloca %"class.altered_carbon::js::ACJsValue"*, align 8
  %8 = alloca %"class.altered_carbon::js::JsValueRef", align 8
  store %"class.altered_carbon::js::ACJsValue"* %0, %"class.altered_carbon::js::ACJsValue"** %6, align 8
  store %"class.altered_carbon::js::ACJsValue"* %1, %"class.altered_carbon::js::ACJsValue"** %7, align 8
  %9 = load %"class.altered_carbon::js::ACJsValue"*, %"class.altered_carbon::js::ACJsValue"** %6, align 8
  %10 = call zeroext i1 @_ZNK14altered_carbon2js9ACJsValue11isUndefinedEv(%"class.altered_carbon::js::ACJsValue"* %9)
  br i1 %10, label %11, label %15

; <label>:11:                                     ; preds = %2
  store %"class.std::__1::shared_ptr"* bitcast (i8* getelementptr inbounds (i8, i8* bitcast (%"class.altered_carbon::js::JsValueRef"* @_ZN14altered_carbon2js11JSConstants3NaNE to i8*), i64 8) to %"class.std::__1::shared_ptr"*), %"class.std::__1::shared_ptr"** %4, align 8
  %12 = load %"class.std::__1::shared_ptr"*, %"class.std::__1::shared_ptr"** %4, align 8
  %13 = getelementptr inbounds %"class.std::__1::shared_ptr", %"class.std::__1::shared_ptr"* %12, i32 0, i32 0
  %14 = load %"class.altered_carbon::js::ACJsValue"*, %"class.altered_carbon::js::ACJsValue"** %13, align 8
  store %"class.altered_carbon::js::ACJsValue"* %14, %"class.altered_carbon::js::ACJsValue"** %5, align 8
  br label %46

; <label>:15:                                     ; preds = %2
  %16 = call zeroext i1 @_ZNK14altered_carbon2js9ACJsValue6isNullEv(%"class.altered_carbon::js::ACJsValue"* %9)
  br i1 %16, label %17, label %33

; <label>:17:                                     ; preds = %15
  %18 = call i8* @_Znwm(i64 40) #11
  %19 = bitcast i8* %18 to %"class.altered_carbon::js::ACJsNumber"*
  call void @_ZN14altered_carbon2js10ACJsNumberC1Ex(%"class.altered_carbon::js::ACJsNumber"* %19, i64 0)
  %20 = bitcast %"class.altered_carbon::js::ACJsNumber"* %19 to %"class.altered_carbon::js::ACJsValue"*
  call void @_ZN14altered_carbon2js10JsValueRefC1EPNS0_9ACJsValueE(%"class.altered_carbon::js::JsValueRef"* %8, %"class.altered_carbon::js::ACJsValue"* %20)
  %21 = bitcast %"class.altered_carbon::js::JsValueRef"* %8 to i8*
  %22 = getelementptr inbounds i8, i8* %21, i64 8
  %23 = bitcast i8* %22 to %"class.std::__1::shared_ptr"*
  store %"class.std::__1::shared_ptr"* %23, %"class.std::__1::shared_ptr"** %3, align 8
  %24 = load %"class.std::__1::shared_ptr"*, %"class.std::__1::shared_ptr"** %3, align 8
  %25 = getelementptr inbounds %"class.std::__1::shared_ptr", %"class.std::__1::shared_ptr"* %24, i32 0, i32 0
  %26 = load %"class.altered_carbon::js::ACJsValue"*, %"class.altered_carbon::js::ACJsValue"** %25, align 8
  %27 = bitcast %"class.altered_carbon::js::ACJsValue"* %26 to %"class.altered_carbon::js::ACJsValue"* (%"class.altered_carbon::js::ACJsValue"*, %"class.altered_carbon::js::ACJsValue"*)***
  %28 = load %"class.altered_carbon::js::ACJsValue"* (%"class.altered_carbon::js::ACJsValue"*, %"class.altered_carbon::js::ACJsValue"*)**, %"class.altered_carbon::js::ACJsValue"* (%"class.altered_carbon::js::ACJsValue"*, %"class.altered_carbon::js::ACJsValue"*)*** %27, align 8
  %29 = getelementptr inbounds %"class.altered_carbon::js::ACJsValue"* (%"class.altered_carbon::js::ACJsValue"*, %"class.altered_carbon::js::ACJsValue"*)*, %"class.altered_carbon::js::ACJsValue"* (%"class.altered_carbon::js::ACJsValue"*, %"class.altered_carbon::js::ACJsValue"*)** %28, i64 9
  %30 = load %"class.altered_carbon::js::ACJsValue"* (%"class.altered_carbon::js::ACJsValue"*, %"class.altered_carbon::js::ACJsValue"*)*, %"class.altered_carbon::js::ACJsValue"* (%"class.altered_carbon::js::ACJsValue"*, %"class.altered_carbon::js::ACJsValue"*)** %29, align 8
  %31 = load %"class.altered_carbon::js::ACJsValue"*, %"class.altered_carbon::js::ACJsValue"** %7, align 8
  %32 = call dereferenceable(16) %"class.altered_carbon::js::ACJsValue"* %30(%"class.altered_carbon::js::ACJsValue"* %26, %"class.altered_carbon::js::ACJsValue"* dereferenceable(16) %31)
  store %"class.altered_carbon::js::ACJsValue"* %32, %"class.altered_carbon::js::ACJsValue"** %5, align 8
  call void @_ZN14altered_carbon2js10JsValueRefD1Ev(%"class.altered_carbon::js::JsValueRef"* %8) #5
  br label %46

; <label>:33:                                     ; preds = %15
  br label %34

; <label>:34:                                     ; preds = %33
  %35 = bitcast %"class.altered_carbon::js::ACJsValue"* %9 to %"class.altered_carbon::js::ACJsValue"* (%"class.altered_carbon::js::ACJsValue"*)***
  %36 = load %"class.altered_carbon::js::ACJsValue"* (%"class.altered_carbon::js::ACJsValue"*)**, %"class.altered_carbon::js::ACJsValue"* (%"class.altered_carbon::js::ACJsValue"*)*** %35, align 8
  %37 = getelementptr inbounds %"class.altered_carbon::js::ACJsValue"* (%"class.altered_carbon::js::ACJsValue"*)*, %"class.altered_carbon::js::ACJsValue"* (%"class.altered_carbon::js::ACJsValue"*)** %36, i64 42
  %38 = load %"class.altered_carbon::js::ACJsValue"* (%"class.altered_carbon::js::ACJsValue"*)*, %"class.altered_carbon::js::ACJsValue"* (%"class.altered_carbon::js::ACJsValue"*)** %37, align 8
  %39 = call %"class.altered_carbon::js::ACJsValue"* %38(%"class.altered_carbon::js::ACJsValue"* %9)
  %40 = bitcast %"class.altered_carbon::js::ACJsValue"* %39 to %"class.altered_carbon::js::ACJsValue"* (%"class.altered_carbon::js::ACJsValue"*, %"class.altered_carbon::js::ACJsValue"*)***
  %41 = load %"class.altered_carbon::js::ACJsValue"* (%"class.altered_carbon::js::ACJsValue"*, %"class.altered_carbon::js::ACJsValue"*)**, %"class.altered_carbon::js::ACJsValue"* (%"class.altered_carbon::js::ACJsValue"*, %"class.altered_carbon::js::ACJsValue"*)*** %40, align 8
  %42 = getelementptr inbounds %"class.altered_carbon::js::ACJsValue"* (%"class.altered_carbon::js::ACJsValue"*, %"class.altered_carbon::js::ACJsValue"*)*, %"class.altered_carbon::js::ACJsValue"* (%"class.altered_carbon::js::ACJsValue"*, %"class.altered_carbon::js::ACJsValue"*)** %41, i64 9
  %43 = load %"class.altered_carbon::js::ACJsValue"* (%"class.altered_carbon::js::ACJsValue"*, %"class.altered_carbon::js::ACJsValue"*)*, %"class.altered_carbon::js::ACJsValue"* (%"class.altered_carbon::js::ACJsValue"*, %"class.altered_carbon::js::ACJsValue"*)** %42, align 8
  %44 = load %"class.altered_carbon::js::ACJsValue"*, %"class.altered_carbon::js::ACJsValue"** %7, align 8
  %45 = call dereferenceable(16) %"class.altered_carbon::js::ACJsValue"* %43(%"class.altered_carbon::js::ACJsValue"* %39, %"class.altered_carbon::js::ACJsValue"* dereferenceable(16) %44)
  store %"class.altered_carbon::js::ACJsValue"* %45, %"class.altered_carbon::js::ACJsValue"** %5, align 8
  br label %46

; <label>:46:                                     ; preds = %34, %17, %11
  %47 = load %"class.altered_carbon::js::ACJsValue"*, %"class.altered_carbon::js::ACJsValue"** %5, align 8
  ret %"class.altered_carbon::js::ACJsValue"* %47
}

; Function Attrs: noinline nounwind optnone ssp uwtable
define dereferenceable(16) %"class.altered_carbon::js::ACJsValue"* @_ZN14altered_carbon2js9ACJsValuepLERKS1_(%"class.altered_carbon::js::ACJsValue"*, %"class.altered_carbon::js::ACJsValue"* dereferenceable(16)) unnamed_addr #0 align 2 {
  %3 = alloca %"class.std::__1::shared_ptr"*, align 8
  %4 = alloca %"class.altered_carbon::js::ACJsValue"*, align 8
  %5 = alloca %"class.altered_carbon::js::ACJsValue"*, align 8
  store %"class.altered_carbon::js::ACJsValue"* %0, %"class.altered_carbon::js::ACJsValue"** %4, align 8
  store %"class.altered_carbon::js::ACJsValue"* %1, %"class.altered_carbon::js::ACJsValue"** %5, align 8
  %6 = load %"class.altered_carbon::js::ACJsValue"*, %"class.altered_carbon::js::ACJsValue"** %4, align 8
  store %"class.std::__1::shared_ptr"* bitcast (i8* getelementptr inbounds (i8, i8* bitcast (%"class.altered_carbon::js::JsValueRef"* @_ZN14altered_carbon2js11JSConstants12ReferenceErrE to i8*), i64 8) to %"class.std::__1::shared_ptr"*), %"class.std::__1::shared_ptr"** %3, align 8
  %7 = load %"class.std::__1::shared_ptr"*, %"class.std::__1::shared_ptr"** %3, align 8
  %8 = getelementptr inbounds %"class.std::__1::shared_ptr", %"class.std::__1::shared_ptr"* %7, i32 0, i32 0
  %9 = load %"class.altered_carbon::js::ACJsValue"*, %"class.altered_carbon::js::ACJsValue"** %8, align 8
  ret %"class.altered_carbon::js::ACJsValue"* %9
}

; Function Attrs: noinline nounwind optnone ssp uwtable
define dereferenceable(16) %"class.altered_carbon::js::ACJsValue"* @_ZN14altered_carbon2js9ACJsValuemIERKS1_(%"class.altered_carbon::js::ACJsValue"*, %"class.altered_carbon::js::ACJsValue"* dereferenceable(16)) unnamed_addr #0 align 2 {
  %3 = alloca %"class.std::__1::shared_ptr"*, align 8
  %4 = alloca %"class.altered_carbon::js::ACJsValue"*, align 8
  %5 = alloca %"class.altered_carbon::js::ACJsValue"*, align 8
  store %"class.altered_carbon::js::ACJsValue"* %0, %"class.altered_carbon::js::ACJsValue"** %4, align 8
  store %"class.altered_carbon::js::ACJsValue"* %1, %"class.altered_carbon::js::ACJsValue"** %5, align 8
  %6 = load %"class.altered_carbon::js::ACJsValue"*, %"class.altered_carbon::js::ACJsValue"** %4, align 8
  store %"class.std::__1::shared_ptr"* bitcast (i8* getelementptr inbounds (i8, i8* bitcast (%"class.altered_carbon::js::JsValueRef"* @_ZN14altered_carbon2js11JSConstants12ReferenceErrE to i8*), i64 8) to %"class.std::__1::shared_ptr"*), %"class.std::__1::shared_ptr"** %3, align 8
  %7 = load %"class.std::__1::shared_ptr"*, %"class.std::__1::shared_ptr"** %3, align 8
  %8 = getelementptr inbounds %"class.std::__1::shared_ptr", %"class.std::__1::shared_ptr"* %7, i32 0, i32 0
  %9 = load %"class.altered_carbon::js::ACJsValue"*, %"class.altered_carbon::js::ACJsValue"** %8, align 8
  ret %"class.altered_carbon::js::ACJsValue"* %9
}

; Function Attrs: noinline nounwind optnone ssp uwtable
define dereferenceable(16) %"class.altered_carbon::js::ACJsValue"* @_ZN14altered_carbon2js9ACJsValuemLERKS1_(%"class.altered_carbon::js::ACJsValue"*, %"class.altered_carbon::js::ACJsValue"* dereferenceable(16)) unnamed_addr #0 align 2 {
  %3 = alloca %"class.std::__1::shared_ptr"*, align 8
  %4 = alloca %"class.altered_carbon::js::ACJsValue"*, align 8
  %5 = alloca %"class.altered_carbon::js::ACJsValue"*, align 8
  store %"class.altered_carbon::js::ACJsValue"* %0, %"class.altered_carbon::js::ACJsValue"** %4, align 8
  store %"class.altered_carbon::js::ACJsValue"* %1, %"class.altered_carbon::js::ACJsValue"** %5, align 8
  %6 = load %"class.altered_carbon::js::ACJsValue"*, %"class.altered_carbon::js::ACJsValue"** %4, align 8
  store %"class.std::__1::shared_ptr"* bitcast (i8* getelementptr inbounds (i8, i8* bitcast (%"class.altered_carbon::js::JsValueRef"* @_ZN14altered_carbon2js11JSConstants12ReferenceErrE to i8*), i64 8) to %"class.std::__1::shared_ptr"*), %"class.std::__1::shared_ptr"** %3, align 8
  %7 = load %"class.std::__1::shared_ptr"*, %"class.std::__1::shared_ptr"** %3, align 8
  %8 = getelementptr inbounds %"class.std::__1::shared_ptr", %"class.std::__1::shared_ptr"* %7, i32 0, i32 0
  %9 = load %"class.altered_carbon::js::ACJsValue"*, %"class.altered_carbon::js::ACJsValue"** %8, align 8
  ret %"class.altered_carbon::js::ACJsValue"* %9
}

; Function Attrs: noinline nounwind optnone ssp uwtable
define dereferenceable(16) %"class.altered_carbon::js::ACJsValue"* @_ZN14altered_carbon2js9ACJsValuedVERKS1_(%"class.altered_carbon::js::ACJsValue"*, %"class.altered_carbon::js::ACJsValue"* dereferenceable(16)) unnamed_addr #0 align 2 {
  %3 = alloca %"class.std::__1::shared_ptr"*, align 8
  %4 = alloca %"class.altered_carbon::js::ACJsValue"*, align 8
  %5 = alloca %"class.altered_carbon::js::ACJsValue"*, align 8
  store %"class.altered_carbon::js::ACJsValue"* %0, %"class.altered_carbon::js::ACJsValue"** %4, align 8
  store %"class.altered_carbon::js::ACJsValue"* %1, %"class.altered_carbon::js::ACJsValue"** %5, align 8
  %6 = load %"class.altered_carbon::js::ACJsValue"*, %"class.altered_carbon::js::ACJsValue"** %4, align 8
  store %"class.std::__1::shared_ptr"* bitcast (i8* getelementptr inbounds (i8, i8* bitcast (%"class.altered_carbon::js::JsValueRef"* @_ZN14altered_carbon2js11JSConstants12ReferenceErrE to i8*), i64 8) to %"class.std::__1::shared_ptr"*), %"class.std::__1::shared_ptr"** %3, align 8
  %7 = load %"class.std::__1::shared_ptr"*, %"class.std::__1::shared_ptr"** %3, align 8
  %8 = getelementptr inbounds %"class.std::__1::shared_ptr", %"class.std::__1::shared_ptr"* %7, i32 0, i32 0
  %9 = load %"class.altered_carbon::js::ACJsValue"*, %"class.altered_carbon::js::ACJsValue"** %8, align 8
  ret %"class.altered_carbon::js::ACJsValue"* %9
}

; Function Attrs: noinline nounwind optnone ssp uwtable
define dereferenceable(16) %"class.altered_carbon::js::ACJsValue"* @_ZN14altered_carbon2js9ACJsValuerMERKS1_(%"class.altered_carbon::js::ACJsValue"*, %"class.altered_carbon::js::ACJsValue"* dereferenceable(16)) unnamed_addr #0 align 2 {
  %3 = alloca %"class.std::__1::shared_ptr"*, align 8
  %4 = alloca %"class.altered_carbon::js::ACJsValue"*, align 8
  %5 = alloca %"class.altered_carbon::js::ACJsValue"*, align 8
  store %"class.altered_carbon::js::ACJsValue"* %0, %"class.altered_carbon::js::ACJsValue"** %4, align 8
  store %"class.altered_carbon::js::ACJsValue"* %1, %"class.altered_carbon::js::ACJsValue"** %5, align 8
  %6 = load %"class.altered_carbon::js::ACJsValue"*, %"class.altered_carbon::js::ACJsValue"** %4, align 8
  store %"class.std::__1::shared_ptr"* bitcast (i8* getelementptr inbounds (i8, i8* bitcast (%"class.altered_carbon::js::JsValueRef"* @_ZN14altered_carbon2js11JSConstants12ReferenceErrE to i8*), i64 8) to %"class.std::__1::shared_ptr"*), %"class.std::__1::shared_ptr"** %3, align 8
  %7 = load %"class.std::__1::shared_ptr"*, %"class.std::__1::shared_ptr"** %3, align 8
  %8 = getelementptr inbounds %"class.std::__1::shared_ptr", %"class.std::__1::shared_ptr"* %7, i32 0, i32 0
  %9 = load %"class.altered_carbon::js::ACJsValue"*, %"class.altered_carbon::js::ACJsValue"** %8, align 8
  ret %"class.altered_carbon::js::ACJsValue"* %9
}

; Function Attrs: noinline nounwind optnone ssp uwtable
define dereferenceable(16) %"class.altered_carbon::js::ACJsValue"* @_ZNK14altered_carbon2js9ACJsValueeoERKS1_(%"class.altered_carbon::js::ACJsValue"*, %"class.altered_carbon::js::ACJsValue"* dereferenceable(16)) unnamed_addr #0 align 2 {
  %3 = alloca %"class.std::__1::shared_ptr"*, align 8
  %4 = alloca %"class.std::__1::shared_ptr"*, align 8
  %5 = alloca %"class.altered_carbon::js::ACJsValue"*, align 8
  %6 = alloca %"class.altered_carbon::js::ACJsValue"*, align 8
  %7 = alloca %"class.altered_carbon::js::ACJsValue"*, align 8
  %8 = alloca %"class.altered_carbon::js::JsValueRef", align 8
  store %"class.altered_carbon::js::ACJsValue"* %0, %"class.altered_carbon::js::ACJsValue"** %6, align 8
  store %"class.altered_carbon::js::ACJsValue"* %1, %"class.altered_carbon::js::ACJsValue"** %7, align 8
  %9 = load %"class.altered_carbon::js::ACJsValue"*, %"class.altered_carbon::js::ACJsValue"** %6, align 8
  %10 = call zeroext i1 @_ZNK14altered_carbon2js9ACJsValue11isUndefinedEv(%"class.altered_carbon::js::ACJsValue"* %9)
  br i1 %10, label %13, label %11

; <label>:11:                                     ; preds = %2
  %12 = call zeroext i1 @_ZNK14altered_carbon2js9ACJsValue6isNullEv(%"class.altered_carbon::js::ACJsValue"* %9)
  br i1 %12, label %13, label %29

; <label>:13:                                     ; preds = %11, %2
  %14 = call i8* @_Znwm(i64 40) #11
  %15 = bitcast i8* %14 to %"class.altered_carbon::js::ACJsNumber"*
  call void @_ZN14altered_carbon2js10ACJsNumberC1Ex(%"class.altered_carbon::js::ACJsNumber"* %15, i64 0)
  %16 = bitcast %"class.altered_carbon::js::ACJsNumber"* %15 to %"class.altered_carbon::js::ACJsValue"*
  call void @_ZN14altered_carbon2js10JsValueRefC1EPNS0_9ACJsValueE(%"class.altered_carbon::js::JsValueRef"* %8, %"class.altered_carbon::js::ACJsValue"* %16)
  %17 = bitcast %"class.altered_carbon::js::JsValueRef"* %8 to i8*
  %18 = getelementptr inbounds i8, i8* %17, i64 8
  %19 = bitcast i8* %18 to %"class.std::__1::shared_ptr"*
  store %"class.std::__1::shared_ptr"* %19, %"class.std::__1::shared_ptr"** %4, align 8
  %20 = load %"class.std::__1::shared_ptr"*, %"class.std::__1::shared_ptr"** %4, align 8
  %21 = getelementptr inbounds %"class.std::__1::shared_ptr", %"class.std::__1::shared_ptr"* %20, i32 0, i32 0
  %22 = load %"class.altered_carbon::js::ACJsValue"*, %"class.altered_carbon::js::ACJsValue"** %21, align 8
  %23 = bitcast %"class.altered_carbon::js::ACJsValue"* %22 to %"class.altered_carbon::js::ACJsValue"* (%"class.altered_carbon::js::ACJsValue"*, %"class.altered_carbon::js::ACJsValue"*)***
  %24 = load %"class.altered_carbon::js::ACJsValue"* (%"class.altered_carbon::js::ACJsValue"*, %"class.altered_carbon::js::ACJsValue"*)**, %"class.altered_carbon::js::ACJsValue"* (%"class.altered_carbon::js::ACJsValue"*, %"class.altered_carbon::js::ACJsValue"*)*** %23, align 8
  %25 = getelementptr inbounds %"class.altered_carbon::js::ACJsValue"* (%"class.altered_carbon::js::ACJsValue"*, %"class.altered_carbon::js::ACJsValue"*)*, %"class.altered_carbon::js::ACJsValue"* (%"class.altered_carbon::js::ACJsValue"*, %"class.altered_carbon::js::ACJsValue"*)** %24, i64 10
  %26 = load %"class.altered_carbon::js::ACJsValue"* (%"class.altered_carbon::js::ACJsValue"*, %"class.altered_carbon::js::ACJsValue"*)*, %"class.altered_carbon::js::ACJsValue"* (%"class.altered_carbon::js::ACJsValue"*, %"class.altered_carbon::js::ACJsValue"*)** %25, align 8
  %27 = load %"class.altered_carbon::js::ACJsValue"*, %"class.altered_carbon::js::ACJsValue"** %7, align 8
  %28 = call dereferenceable(16) %"class.altered_carbon::js::ACJsValue"* %26(%"class.altered_carbon::js::ACJsValue"* %22, %"class.altered_carbon::js::ACJsValue"* dereferenceable(16) %27)
  store %"class.altered_carbon::js::ACJsValue"* %28, %"class.altered_carbon::js::ACJsValue"** %5, align 8
  call void @_ZN14altered_carbon2js10JsValueRefD1Ev(%"class.altered_carbon::js::JsValueRef"* %8) #5
  br label %39

; <label>:29:                                     ; preds = %11
  store %"class.std::__1::shared_ptr"* bitcast (i8* getelementptr inbounds (i8, i8* bitcast (%"class.altered_carbon::js::JsValueRef"* @_ZN14altered_carbon2js11JSConstants3NaNE to i8*), i64 8) to %"class.std::__1::shared_ptr"*), %"class.std::__1::shared_ptr"** %3, align 8
  %30 = load %"class.std::__1::shared_ptr"*, %"class.std::__1::shared_ptr"** %3, align 8
  %31 = getelementptr inbounds %"class.std::__1::shared_ptr", %"class.std::__1::shared_ptr"* %30, i32 0, i32 0
  %32 = load %"class.altered_carbon::js::ACJsValue"*, %"class.altered_carbon::js::ACJsValue"** %31, align 8
  %33 = bitcast %"class.altered_carbon::js::ACJsValue"* %32 to %"class.altered_carbon::js::ACJsValue"* (%"class.altered_carbon::js::ACJsValue"*, %"class.altered_carbon::js::ACJsValue"*)***
  %34 = load %"class.altered_carbon::js::ACJsValue"* (%"class.altered_carbon::js::ACJsValue"*, %"class.altered_carbon::js::ACJsValue"*)**, %"class.altered_carbon::js::ACJsValue"* (%"class.altered_carbon::js::ACJsValue"*, %"class.altered_carbon::js::ACJsValue"*)*** %33, align 8
  %35 = getelementptr inbounds %"class.altered_carbon::js::ACJsValue"* (%"class.altered_carbon::js::ACJsValue"*, %"class.altered_carbon::js::ACJsValue"*)*, %"class.altered_carbon::js::ACJsValue"* (%"class.altered_carbon::js::ACJsValue"*, %"class.altered_carbon::js::ACJsValue"*)** %34, i64 10
  %36 = load %"class.altered_carbon::js::ACJsValue"* (%"class.altered_carbon::js::ACJsValue"*, %"class.altered_carbon::js::ACJsValue"*)*, %"class.altered_carbon::js::ACJsValue"* (%"class.altered_carbon::js::ACJsValue"*, %"class.altered_carbon::js::ACJsValue"*)** %35, align 8
  %37 = load %"class.altered_carbon::js::ACJsValue"*, %"class.altered_carbon::js::ACJsValue"** %7, align 8
  %38 = call dereferenceable(16) %"class.altered_carbon::js::ACJsValue"* %36(%"class.altered_carbon::js::ACJsValue"* %32, %"class.altered_carbon::js::ACJsValue"* dereferenceable(16) %37)
  store %"class.altered_carbon::js::ACJsValue"* %38, %"class.altered_carbon::js::ACJsValue"** %5, align 8
  br label %39

; <label>:39:                                     ; preds = %29, %13
  %40 = load %"class.altered_carbon::js::ACJsValue"*, %"class.altered_carbon::js::ACJsValue"** %5, align 8
  ret %"class.altered_carbon::js::ACJsValue"* %40
}

; Function Attrs: noinline nounwind optnone ssp uwtable
define dereferenceable(16) %"class.altered_carbon::js::ACJsValue"* @_ZNK14altered_carbon2js9ACJsValueorERKS1_(%"class.altered_carbon::js::ACJsValue"*, %"class.altered_carbon::js::ACJsValue"* dereferenceable(16)) unnamed_addr #0 align 2 {
  %3 = alloca %"class.std::__1::shared_ptr"*, align 8
  %4 = alloca %"class.std::__1::shared_ptr"*, align 8
  %5 = alloca %"class.altered_carbon::js::ACJsValue"*, align 8
  %6 = alloca %"class.altered_carbon::js::ACJsValue"*, align 8
  %7 = alloca %"class.altered_carbon::js::ACJsValue"*, align 8
  %8 = alloca %"class.altered_carbon::js::JsValueRef", align 8
  store %"class.altered_carbon::js::ACJsValue"* %0, %"class.altered_carbon::js::ACJsValue"** %6, align 8
  store %"class.altered_carbon::js::ACJsValue"* %1, %"class.altered_carbon::js::ACJsValue"** %7, align 8
  %9 = load %"class.altered_carbon::js::ACJsValue"*, %"class.altered_carbon::js::ACJsValue"** %6, align 8
  %10 = call zeroext i1 @_ZNK14altered_carbon2js9ACJsValue11isUndefinedEv(%"class.altered_carbon::js::ACJsValue"* %9)
  br i1 %10, label %13, label %11

; <label>:11:                                     ; preds = %2
  %12 = call zeroext i1 @_ZNK14altered_carbon2js9ACJsValue6isNullEv(%"class.altered_carbon::js::ACJsValue"* %9)
  br i1 %12, label %13, label %29

; <label>:13:                                     ; preds = %11, %2
  %14 = call i8* @_Znwm(i64 40) #11
  %15 = bitcast i8* %14 to %"class.altered_carbon::js::ACJsNumber"*
  call void @_ZN14altered_carbon2js10ACJsNumberC1Ex(%"class.altered_carbon::js::ACJsNumber"* %15, i64 0)
  %16 = bitcast %"class.altered_carbon::js::ACJsNumber"* %15 to %"class.altered_carbon::js::ACJsValue"*
  call void @_ZN14altered_carbon2js10JsValueRefC1EPNS0_9ACJsValueE(%"class.altered_carbon::js::JsValueRef"* %8, %"class.altered_carbon::js::ACJsValue"* %16)
  %17 = bitcast %"class.altered_carbon::js::JsValueRef"* %8 to i8*
  %18 = getelementptr inbounds i8, i8* %17, i64 8
  %19 = bitcast i8* %18 to %"class.std::__1::shared_ptr"*
  store %"class.std::__1::shared_ptr"* %19, %"class.std::__1::shared_ptr"** %4, align 8
  %20 = load %"class.std::__1::shared_ptr"*, %"class.std::__1::shared_ptr"** %4, align 8
  %21 = getelementptr inbounds %"class.std::__1::shared_ptr", %"class.std::__1::shared_ptr"* %20, i32 0, i32 0
  %22 = load %"class.altered_carbon::js::ACJsValue"*, %"class.altered_carbon::js::ACJsValue"** %21, align 8
  %23 = bitcast %"class.altered_carbon::js::ACJsValue"* %22 to %"class.altered_carbon::js::ACJsValue"* (%"class.altered_carbon::js::ACJsValue"*, %"class.altered_carbon::js::ACJsValue"*)***
  %24 = load %"class.altered_carbon::js::ACJsValue"* (%"class.altered_carbon::js::ACJsValue"*, %"class.altered_carbon::js::ACJsValue"*)**, %"class.altered_carbon::js::ACJsValue"* (%"class.altered_carbon::js::ACJsValue"*, %"class.altered_carbon::js::ACJsValue"*)*** %23, align 8
  %25 = getelementptr inbounds %"class.altered_carbon::js::ACJsValue"* (%"class.altered_carbon::js::ACJsValue"*, %"class.altered_carbon::js::ACJsValue"*)*, %"class.altered_carbon::js::ACJsValue"* (%"class.altered_carbon::js::ACJsValue"*, %"class.altered_carbon::js::ACJsValue"*)** %24, i64 11
  %26 = load %"class.altered_carbon::js::ACJsValue"* (%"class.altered_carbon::js::ACJsValue"*, %"class.altered_carbon::js::ACJsValue"*)*, %"class.altered_carbon::js::ACJsValue"* (%"class.altered_carbon::js::ACJsValue"*, %"class.altered_carbon::js::ACJsValue"*)** %25, align 8
  %27 = load %"class.altered_carbon::js::ACJsValue"*, %"class.altered_carbon::js::ACJsValue"** %7, align 8
  %28 = call dereferenceable(16) %"class.altered_carbon::js::ACJsValue"* %26(%"class.altered_carbon::js::ACJsValue"* %22, %"class.altered_carbon::js::ACJsValue"* dereferenceable(16) %27)
  store %"class.altered_carbon::js::ACJsValue"* %28, %"class.altered_carbon::js::ACJsValue"** %5, align 8
  call void @_ZN14altered_carbon2js10JsValueRefD1Ev(%"class.altered_carbon::js::JsValueRef"* %8) #5
  br label %39

; <label>:29:                                     ; preds = %11
  store %"class.std::__1::shared_ptr"* bitcast (i8* getelementptr inbounds (i8, i8* bitcast (%"class.altered_carbon::js::JsValueRef"* @_ZN14altered_carbon2js11JSConstants3NaNE to i8*), i64 8) to %"class.std::__1::shared_ptr"*), %"class.std::__1::shared_ptr"** %3, align 8
  %30 = load %"class.std::__1::shared_ptr"*, %"class.std::__1::shared_ptr"** %3, align 8
  %31 = getelementptr inbounds %"class.std::__1::shared_ptr", %"class.std::__1::shared_ptr"* %30, i32 0, i32 0
  %32 = load %"class.altered_carbon::js::ACJsValue"*, %"class.altered_carbon::js::ACJsValue"** %31, align 8
  %33 = bitcast %"class.altered_carbon::js::ACJsValue"* %32 to %"class.altered_carbon::js::ACJsValue"* (%"class.altered_carbon::js::ACJsValue"*, %"class.altered_carbon::js::ACJsValue"*)***
  %34 = load %"class.altered_carbon::js::ACJsValue"* (%"class.altered_carbon::js::ACJsValue"*, %"class.altered_carbon::js::ACJsValue"*)**, %"class.altered_carbon::js::ACJsValue"* (%"class.altered_carbon::js::ACJsValue"*, %"class.altered_carbon::js::ACJsValue"*)*** %33, align 8
  %35 = getelementptr inbounds %"class.altered_carbon::js::ACJsValue"* (%"class.altered_carbon::js::ACJsValue"*, %"class.altered_carbon::js::ACJsValue"*)*, %"class.altered_carbon::js::ACJsValue"* (%"class.altered_carbon::js::ACJsValue"*, %"class.altered_carbon::js::ACJsValue"*)** %34, i64 11
  %36 = load %"class.altered_carbon::js::ACJsValue"* (%"class.altered_carbon::js::ACJsValue"*, %"class.altered_carbon::js::ACJsValue"*)*, %"class.altered_carbon::js::ACJsValue"* (%"class.altered_carbon::js::ACJsValue"*, %"class.altered_carbon::js::ACJsValue"*)** %35, align 8
  %37 = load %"class.altered_carbon::js::ACJsValue"*, %"class.altered_carbon::js::ACJsValue"** %7, align 8
  %38 = call dereferenceable(16) %"class.altered_carbon::js::ACJsValue"* %36(%"class.altered_carbon::js::ACJsValue"* %32, %"class.altered_carbon::js::ACJsValue"* dereferenceable(16) %37)
  store %"class.altered_carbon::js::ACJsValue"* %38, %"class.altered_carbon::js::ACJsValue"** %5, align 8
  br label %39

; <label>:39:                                     ; preds = %29, %13
  %40 = load %"class.altered_carbon::js::ACJsValue"*, %"class.altered_carbon::js::ACJsValue"** %5, align 8
  ret %"class.altered_carbon::js::ACJsValue"* %40
}

; Function Attrs: noinline nounwind optnone ssp uwtable
define dereferenceable(16) %"class.altered_carbon::js::ACJsValue"* @_ZNK14altered_carbon2js9ACJsValueanERKS1_(%"class.altered_carbon::js::ACJsValue"*, %"class.altered_carbon::js::ACJsValue"* dereferenceable(16)) unnamed_addr #0 align 2 {
  %3 = alloca %"class.std::__1::shared_ptr"*, align 8
  %4 = alloca %"class.std::__1::shared_ptr"*, align 8
  %5 = alloca %"class.altered_carbon::js::ACJsValue"*, align 8
  %6 = alloca %"class.altered_carbon::js::ACJsValue"*, align 8
  %7 = alloca %"class.altered_carbon::js::ACJsValue"*, align 8
  %8 = alloca %"class.altered_carbon::js::JsValueRef", align 8
  store %"class.altered_carbon::js::ACJsValue"* %0, %"class.altered_carbon::js::ACJsValue"** %6, align 8
  store %"class.altered_carbon::js::ACJsValue"* %1, %"class.altered_carbon::js::ACJsValue"** %7, align 8
  %9 = load %"class.altered_carbon::js::ACJsValue"*, %"class.altered_carbon::js::ACJsValue"** %6, align 8
  %10 = call zeroext i1 @_ZNK14altered_carbon2js9ACJsValue11isUndefinedEv(%"class.altered_carbon::js::ACJsValue"* %9)
  br i1 %10, label %13, label %11

; <label>:11:                                     ; preds = %2
  %12 = call zeroext i1 @_ZNK14altered_carbon2js9ACJsValue6isNullEv(%"class.altered_carbon::js::ACJsValue"* %9)
  br i1 %12, label %13, label %29

; <label>:13:                                     ; preds = %11, %2
  %14 = call i8* @_Znwm(i64 40) #11
  %15 = bitcast i8* %14 to %"class.altered_carbon::js::ACJsNumber"*
  call void @_ZN14altered_carbon2js10ACJsNumberC1Ex(%"class.altered_carbon::js::ACJsNumber"* %15, i64 0)
  %16 = bitcast %"class.altered_carbon::js::ACJsNumber"* %15 to %"class.altered_carbon::js::ACJsValue"*
  call void @_ZN14altered_carbon2js10JsValueRefC1EPNS0_9ACJsValueE(%"class.altered_carbon::js::JsValueRef"* %8, %"class.altered_carbon::js::ACJsValue"* %16)
  %17 = bitcast %"class.altered_carbon::js::JsValueRef"* %8 to i8*
  %18 = getelementptr inbounds i8, i8* %17, i64 8
  %19 = bitcast i8* %18 to %"class.std::__1::shared_ptr"*
  store %"class.std::__1::shared_ptr"* %19, %"class.std::__1::shared_ptr"** %4, align 8
  %20 = load %"class.std::__1::shared_ptr"*, %"class.std::__1::shared_ptr"** %4, align 8
  %21 = getelementptr inbounds %"class.std::__1::shared_ptr", %"class.std::__1::shared_ptr"* %20, i32 0, i32 0
  %22 = load %"class.altered_carbon::js::ACJsValue"*, %"class.altered_carbon::js::ACJsValue"** %21, align 8
  %23 = bitcast %"class.altered_carbon::js::ACJsValue"* %22 to %"class.altered_carbon::js::ACJsValue"* (%"class.altered_carbon::js::ACJsValue"*, %"class.altered_carbon::js::ACJsValue"*)***
  %24 = load %"class.altered_carbon::js::ACJsValue"* (%"class.altered_carbon::js::ACJsValue"*, %"class.altered_carbon::js::ACJsValue"*)**, %"class.altered_carbon::js::ACJsValue"* (%"class.altered_carbon::js::ACJsValue"*, %"class.altered_carbon::js::ACJsValue"*)*** %23, align 8
  %25 = getelementptr inbounds %"class.altered_carbon::js::ACJsValue"* (%"class.altered_carbon::js::ACJsValue"*, %"class.altered_carbon::js::ACJsValue"*)*, %"class.altered_carbon::js::ACJsValue"* (%"class.altered_carbon::js::ACJsValue"*, %"class.altered_carbon::js::ACJsValue"*)** %24, i64 12
  %26 = load %"class.altered_carbon::js::ACJsValue"* (%"class.altered_carbon::js::ACJsValue"*, %"class.altered_carbon::js::ACJsValue"*)*, %"class.altered_carbon::js::ACJsValue"* (%"class.altered_carbon::js::ACJsValue"*, %"class.altered_carbon::js::ACJsValue"*)** %25, align 8
  %27 = load %"class.altered_carbon::js::ACJsValue"*, %"class.altered_carbon::js::ACJsValue"** %7, align 8
  %28 = call dereferenceable(16) %"class.altered_carbon::js::ACJsValue"* %26(%"class.altered_carbon::js::ACJsValue"* %22, %"class.altered_carbon::js::ACJsValue"* dereferenceable(16) %27)
  store %"class.altered_carbon::js::ACJsValue"* %28, %"class.altered_carbon::js::ACJsValue"** %5, align 8
  call void @_ZN14altered_carbon2js10JsValueRefD1Ev(%"class.altered_carbon::js::JsValueRef"* %8) #5
  br label %39

; <label>:29:                                     ; preds = %11
  store %"class.std::__1::shared_ptr"* bitcast (i8* getelementptr inbounds (i8, i8* bitcast (%"class.altered_carbon::js::JsValueRef"* @_ZN14altered_carbon2js11JSConstants3NaNE to i8*), i64 8) to %"class.std::__1::shared_ptr"*), %"class.std::__1::shared_ptr"** %3, align 8
  %30 = load %"class.std::__1::shared_ptr"*, %"class.std::__1::shared_ptr"** %3, align 8
  %31 = getelementptr inbounds %"class.std::__1::shared_ptr", %"class.std::__1::shared_ptr"* %30, i32 0, i32 0
  %32 = load %"class.altered_carbon::js::ACJsValue"*, %"class.altered_carbon::js::ACJsValue"** %31, align 8
  %33 = bitcast %"class.altered_carbon::js::ACJsValue"* %32 to %"class.altered_carbon::js::ACJsValue"* (%"class.altered_carbon::js::ACJsValue"*, %"class.altered_carbon::js::ACJsValue"*)***
  %34 = load %"class.altered_carbon::js::ACJsValue"* (%"class.altered_carbon::js::ACJsValue"*, %"class.altered_carbon::js::ACJsValue"*)**, %"class.altered_carbon::js::ACJsValue"* (%"class.altered_carbon::js::ACJsValue"*, %"class.altered_carbon::js::ACJsValue"*)*** %33, align 8
  %35 = getelementptr inbounds %"class.altered_carbon::js::ACJsValue"* (%"class.altered_carbon::js::ACJsValue"*, %"class.altered_carbon::js::ACJsValue"*)*, %"class.altered_carbon::js::ACJsValue"* (%"class.altered_carbon::js::ACJsValue"*, %"class.altered_carbon::js::ACJsValue"*)** %34, i64 12
  %36 = load %"class.altered_carbon::js::ACJsValue"* (%"class.altered_carbon::js::ACJsValue"*, %"class.altered_carbon::js::ACJsValue"*)*, %"class.altered_carbon::js::ACJsValue"* (%"class.altered_carbon::js::ACJsValue"*, %"class.altered_carbon::js::ACJsValue"*)** %35, align 8
  %37 = load %"class.altered_carbon::js::ACJsValue"*, %"class.altered_carbon::js::ACJsValue"** %7, align 8
  %38 = call dereferenceable(16) %"class.altered_carbon::js::ACJsValue"* %36(%"class.altered_carbon::js::ACJsValue"* %32, %"class.altered_carbon::js::ACJsValue"* dereferenceable(16) %37)
  store %"class.altered_carbon::js::ACJsValue"* %38, %"class.altered_carbon::js::ACJsValue"** %5, align 8
  br label %39

; <label>:39:                                     ; preds = %29, %13
  %40 = load %"class.altered_carbon::js::ACJsValue"*, %"class.altered_carbon::js::ACJsValue"** %5, align 8
  ret %"class.altered_carbon::js::ACJsValue"* %40
}

; Function Attrs: noinline nounwind optnone ssp uwtable
define dereferenceable(16) %"class.altered_carbon::js::ACJsValue"* @_ZNK14altered_carbon2js9ACJsValuelsERKS1_(%"class.altered_carbon::js::ACJsValue"*, %"class.altered_carbon::js::ACJsValue"* dereferenceable(16)) unnamed_addr #0 align 2 {
  %3 = alloca %"class.std::__1::shared_ptr"*, align 8
  %4 = alloca %"class.std::__1::shared_ptr"*, align 8
  %5 = alloca %"class.altered_carbon::js::ACJsValue"*, align 8
  %6 = alloca %"class.altered_carbon::js::ACJsValue"*, align 8
  %7 = alloca %"class.altered_carbon::js::ACJsValue"*, align 8
  %8 = alloca %"class.altered_carbon::js::JsValueRef", align 8
  store %"class.altered_carbon::js::ACJsValue"* %0, %"class.altered_carbon::js::ACJsValue"** %6, align 8
  store %"class.altered_carbon::js::ACJsValue"* %1, %"class.altered_carbon::js::ACJsValue"** %7, align 8
  %9 = load %"class.altered_carbon::js::ACJsValue"*, %"class.altered_carbon::js::ACJsValue"** %6, align 8
  %10 = call zeroext i1 @_ZNK14altered_carbon2js9ACJsValue11isUndefinedEv(%"class.altered_carbon::js::ACJsValue"* %9)
  br i1 %10, label %13, label %11

; <label>:11:                                     ; preds = %2
  %12 = call zeroext i1 @_ZNK14altered_carbon2js9ACJsValue6isNullEv(%"class.altered_carbon::js::ACJsValue"* %9)
  br i1 %12, label %13, label %29

; <label>:13:                                     ; preds = %11, %2
  %14 = call i8* @_Znwm(i64 40) #11
  %15 = bitcast i8* %14 to %"class.altered_carbon::js::ACJsNumber"*
  call void @_ZN14altered_carbon2js10ACJsNumberC1Ex(%"class.altered_carbon::js::ACJsNumber"* %15, i64 0)
  %16 = bitcast %"class.altered_carbon::js::ACJsNumber"* %15 to %"class.altered_carbon::js::ACJsValue"*
  call void @_ZN14altered_carbon2js10JsValueRefC1EPNS0_9ACJsValueE(%"class.altered_carbon::js::JsValueRef"* %8, %"class.altered_carbon::js::ACJsValue"* %16)
  %17 = bitcast %"class.altered_carbon::js::JsValueRef"* %8 to i8*
  %18 = getelementptr inbounds i8, i8* %17, i64 8
  %19 = bitcast i8* %18 to %"class.std::__1::shared_ptr"*
  store %"class.std::__1::shared_ptr"* %19, %"class.std::__1::shared_ptr"** %4, align 8
  %20 = load %"class.std::__1::shared_ptr"*, %"class.std::__1::shared_ptr"** %4, align 8
  %21 = getelementptr inbounds %"class.std::__1::shared_ptr", %"class.std::__1::shared_ptr"* %20, i32 0, i32 0
  %22 = load %"class.altered_carbon::js::ACJsValue"*, %"class.altered_carbon::js::ACJsValue"** %21, align 8
  %23 = bitcast %"class.altered_carbon::js::ACJsValue"* %22 to %"class.altered_carbon::js::ACJsValue"* (%"class.altered_carbon::js::ACJsValue"*, %"class.altered_carbon::js::ACJsValue"*)***
  %24 = load %"class.altered_carbon::js::ACJsValue"* (%"class.altered_carbon::js::ACJsValue"*, %"class.altered_carbon::js::ACJsValue"*)**, %"class.altered_carbon::js::ACJsValue"* (%"class.altered_carbon::js::ACJsValue"*, %"class.altered_carbon::js::ACJsValue"*)*** %23, align 8
  %25 = getelementptr inbounds %"class.altered_carbon::js::ACJsValue"* (%"class.altered_carbon::js::ACJsValue"*, %"class.altered_carbon::js::ACJsValue"*)*, %"class.altered_carbon::js::ACJsValue"* (%"class.altered_carbon::js::ACJsValue"*, %"class.altered_carbon::js::ACJsValue"*)** %24, i64 13
  %26 = load %"class.altered_carbon::js::ACJsValue"* (%"class.altered_carbon::js::ACJsValue"*, %"class.altered_carbon::js::ACJsValue"*)*, %"class.altered_carbon::js::ACJsValue"* (%"class.altered_carbon::js::ACJsValue"*, %"class.altered_carbon::js::ACJsValue"*)** %25, align 8
  %27 = load %"class.altered_carbon::js::ACJsValue"*, %"class.altered_carbon::js::ACJsValue"** %7, align 8
  %28 = call dereferenceable(16) %"class.altered_carbon::js::ACJsValue"* %26(%"class.altered_carbon::js::ACJsValue"* %22, %"class.altered_carbon::js::ACJsValue"* dereferenceable(16) %27)
  store %"class.altered_carbon::js::ACJsValue"* %28, %"class.altered_carbon::js::ACJsValue"** %5, align 8
  call void @_ZN14altered_carbon2js10JsValueRefD1Ev(%"class.altered_carbon::js::JsValueRef"* %8) #5
  br label %39

; <label>:29:                                     ; preds = %11
  store %"class.std::__1::shared_ptr"* bitcast (i8* getelementptr inbounds (i8, i8* bitcast (%"class.altered_carbon::js::JsValueRef"* @_ZN14altered_carbon2js11JSConstants3NaNE to i8*), i64 8) to %"class.std::__1::shared_ptr"*), %"class.std::__1::shared_ptr"** %3, align 8
  %30 = load %"class.std::__1::shared_ptr"*, %"class.std::__1::shared_ptr"** %3, align 8
  %31 = getelementptr inbounds %"class.std::__1::shared_ptr", %"class.std::__1::shared_ptr"* %30, i32 0, i32 0
  %32 = load %"class.altered_carbon::js::ACJsValue"*, %"class.altered_carbon::js::ACJsValue"** %31, align 8
  %33 = bitcast %"class.altered_carbon::js::ACJsValue"* %32 to %"class.altered_carbon::js::ACJsValue"* (%"class.altered_carbon::js::ACJsValue"*, %"class.altered_carbon::js::ACJsValue"*)***
  %34 = load %"class.altered_carbon::js::ACJsValue"* (%"class.altered_carbon::js::ACJsValue"*, %"class.altered_carbon::js::ACJsValue"*)**, %"class.altered_carbon::js::ACJsValue"* (%"class.altered_carbon::js::ACJsValue"*, %"class.altered_carbon::js::ACJsValue"*)*** %33, align 8
  %35 = getelementptr inbounds %"class.altered_carbon::js::ACJsValue"* (%"class.altered_carbon::js::ACJsValue"*, %"class.altered_carbon::js::ACJsValue"*)*, %"class.altered_carbon::js::ACJsValue"* (%"class.altered_carbon::js::ACJsValue"*, %"class.altered_carbon::js::ACJsValue"*)** %34, i64 13
  %36 = load %"class.altered_carbon::js::ACJsValue"* (%"class.altered_carbon::js::ACJsValue"*, %"class.altered_carbon::js::ACJsValue"*)*, %"class.altered_carbon::js::ACJsValue"* (%"class.altered_carbon::js::ACJsValue"*, %"class.altered_carbon::js::ACJsValue"*)** %35, align 8
  %37 = load %"class.altered_carbon::js::ACJsValue"*, %"class.altered_carbon::js::ACJsValue"** %7, align 8
  %38 = call dereferenceable(16) %"class.altered_carbon::js::ACJsValue"* %36(%"class.altered_carbon::js::ACJsValue"* %32, %"class.altered_carbon::js::ACJsValue"* dereferenceable(16) %37)
  store %"class.altered_carbon::js::ACJsValue"* %38, %"class.altered_carbon::js::ACJsValue"** %5, align 8
  br label %39

; <label>:39:                                     ; preds = %29, %13
  %40 = load %"class.altered_carbon::js::ACJsValue"*, %"class.altered_carbon::js::ACJsValue"** %5, align 8
  ret %"class.altered_carbon::js::ACJsValue"* %40
}

; Function Attrs: noinline nounwind optnone ssp uwtable
define dereferenceable(16) %"class.altered_carbon::js::ACJsValue"* @_ZNK14altered_carbon2js9ACJsValuersERKS1_(%"class.altered_carbon::js::ACJsValue"*, %"class.altered_carbon::js::ACJsValue"* dereferenceable(16)) unnamed_addr #0 align 2 {
  %3 = alloca %"class.std::__1::shared_ptr"*, align 8
  %4 = alloca %"class.std::__1::shared_ptr"*, align 8
  %5 = alloca %"class.altered_carbon::js::ACJsValue"*, align 8
  %6 = alloca %"class.altered_carbon::js::ACJsValue"*, align 8
  %7 = alloca %"class.altered_carbon::js::ACJsValue"*, align 8
  %8 = alloca %"class.altered_carbon::js::JsValueRef", align 8
  store %"class.altered_carbon::js::ACJsValue"* %0, %"class.altered_carbon::js::ACJsValue"** %6, align 8
  store %"class.altered_carbon::js::ACJsValue"* %1, %"class.altered_carbon::js::ACJsValue"** %7, align 8
  %9 = load %"class.altered_carbon::js::ACJsValue"*, %"class.altered_carbon::js::ACJsValue"** %6, align 8
  %10 = call zeroext i1 @_ZNK14altered_carbon2js9ACJsValue11isUndefinedEv(%"class.altered_carbon::js::ACJsValue"* %9)
  br i1 %10, label %13, label %11

; <label>:11:                                     ; preds = %2
  %12 = call zeroext i1 @_ZNK14altered_carbon2js9ACJsValue6isNullEv(%"class.altered_carbon::js::ACJsValue"* %9)
  br i1 %12, label %13, label %29

; <label>:13:                                     ; preds = %11, %2
  %14 = call i8* @_Znwm(i64 40) #11
  %15 = bitcast i8* %14 to %"class.altered_carbon::js::ACJsNumber"*
  call void @_ZN14altered_carbon2js10ACJsNumberC1Ex(%"class.altered_carbon::js::ACJsNumber"* %15, i64 0)
  %16 = bitcast %"class.altered_carbon::js::ACJsNumber"* %15 to %"class.altered_carbon::js::ACJsValue"*
  call void @_ZN14altered_carbon2js10JsValueRefC1EPNS0_9ACJsValueE(%"class.altered_carbon::js::JsValueRef"* %8, %"class.altered_carbon::js::ACJsValue"* %16)
  %17 = bitcast %"class.altered_carbon::js::JsValueRef"* %8 to i8*
  %18 = getelementptr inbounds i8, i8* %17, i64 8
  %19 = bitcast i8* %18 to %"class.std::__1::shared_ptr"*
  store %"class.std::__1::shared_ptr"* %19, %"class.std::__1::shared_ptr"** %4, align 8
  %20 = load %"class.std::__1::shared_ptr"*, %"class.std::__1::shared_ptr"** %4, align 8
  %21 = getelementptr inbounds %"class.std::__1::shared_ptr", %"class.std::__1::shared_ptr"* %20, i32 0, i32 0
  %22 = load %"class.altered_carbon::js::ACJsValue"*, %"class.altered_carbon::js::ACJsValue"** %21, align 8
  %23 = bitcast %"class.altered_carbon::js::ACJsValue"* %22 to %"class.altered_carbon::js::ACJsValue"* (%"class.altered_carbon::js::ACJsValue"*, %"class.altered_carbon::js::ACJsValue"*)***
  %24 = load %"class.altered_carbon::js::ACJsValue"* (%"class.altered_carbon::js::ACJsValue"*, %"class.altered_carbon::js::ACJsValue"*)**, %"class.altered_carbon::js::ACJsValue"* (%"class.altered_carbon::js::ACJsValue"*, %"class.altered_carbon::js::ACJsValue"*)*** %23, align 8
  %25 = getelementptr inbounds %"class.altered_carbon::js::ACJsValue"* (%"class.altered_carbon::js::ACJsValue"*, %"class.altered_carbon::js::ACJsValue"*)*, %"class.altered_carbon::js::ACJsValue"* (%"class.altered_carbon::js::ACJsValue"*, %"class.altered_carbon::js::ACJsValue"*)** %24, i64 14
  %26 = load %"class.altered_carbon::js::ACJsValue"* (%"class.altered_carbon::js::ACJsValue"*, %"class.altered_carbon::js::ACJsValue"*)*, %"class.altered_carbon::js::ACJsValue"* (%"class.altered_carbon::js::ACJsValue"*, %"class.altered_carbon::js::ACJsValue"*)** %25, align 8
  %27 = load %"class.altered_carbon::js::ACJsValue"*, %"class.altered_carbon::js::ACJsValue"** %7, align 8
  %28 = call dereferenceable(16) %"class.altered_carbon::js::ACJsValue"* %26(%"class.altered_carbon::js::ACJsValue"* %22, %"class.altered_carbon::js::ACJsValue"* dereferenceable(16) %27)
  store %"class.altered_carbon::js::ACJsValue"* %28, %"class.altered_carbon::js::ACJsValue"** %5, align 8
  call void @_ZN14altered_carbon2js10JsValueRefD1Ev(%"class.altered_carbon::js::JsValueRef"* %8) #5
  br label %39

; <label>:29:                                     ; preds = %11
  store %"class.std::__1::shared_ptr"* bitcast (i8* getelementptr inbounds (i8, i8* bitcast (%"class.altered_carbon::js::JsValueRef"* @_ZN14altered_carbon2js11JSConstants3NaNE to i8*), i64 8) to %"class.std::__1::shared_ptr"*), %"class.std::__1::shared_ptr"** %3, align 8
  %30 = load %"class.std::__1::shared_ptr"*, %"class.std::__1::shared_ptr"** %3, align 8
  %31 = getelementptr inbounds %"class.std::__1::shared_ptr", %"class.std::__1::shared_ptr"* %30, i32 0, i32 0
  %32 = load %"class.altered_carbon::js::ACJsValue"*, %"class.altered_carbon::js::ACJsValue"** %31, align 8
  %33 = bitcast %"class.altered_carbon::js::ACJsValue"* %32 to %"class.altered_carbon::js::ACJsValue"* (%"class.altered_carbon::js::ACJsValue"*, %"class.altered_carbon::js::ACJsValue"*)***
  %34 = load %"class.altered_carbon::js::ACJsValue"* (%"class.altered_carbon::js::ACJsValue"*, %"class.altered_carbon::js::ACJsValue"*)**, %"class.altered_carbon::js::ACJsValue"* (%"class.altered_carbon::js::ACJsValue"*, %"class.altered_carbon::js::ACJsValue"*)*** %33, align 8
  %35 = getelementptr inbounds %"class.altered_carbon::js::ACJsValue"* (%"class.altered_carbon::js::ACJsValue"*, %"class.altered_carbon::js::ACJsValue"*)*, %"class.altered_carbon::js::ACJsValue"* (%"class.altered_carbon::js::ACJsValue"*, %"class.altered_carbon::js::ACJsValue"*)** %34, i64 14
  %36 = load %"class.altered_carbon::js::ACJsValue"* (%"class.altered_carbon::js::ACJsValue"*, %"class.altered_carbon::js::ACJsValue"*)*, %"class.altered_carbon::js::ACJsValue"* (%"class.altered_carbon::js::ACJsValue"*, %"class.altered_carbon::js::ACJsValue"*)** %35, align 8
  %37 = load %"class.altered_carbon::js::ACJsValue"*, %"class.altered_carbon::js::ACJsValue"** %7, align 8
  %38 = call dereferenceable(16) %"class.altered_carbon::js::ACJsValue"* %36(%"class.altered_carbon::js::ACJsValue"* %32, %"class.altered_carbon::js::ACJsValue"* dereferenceable(16) %37)
  store %"class.altered_carbon::js::ACJsValue"* %38, %"class.altered_carbon::js::ACJsValue"** %5, align 8
  br label %39

; <label>:39:                                     ; preds = %29, %13
  %40 = load %"class.altered_carbon::js::ACJsValue"*, %"class.altered_carbon::js::ACJsValue"** %5, align 8
  ret %"class.altered_carbon::js::ACJsValue"* %40
}

; Function Attrs: noinline nounwind optnone ssp uwtable
define dereferenceable(16) %"class.altered_carbon::js::ACJsValue"* @_ZN14altered_carbon2js9ACJsValueeOERKS1_(%"class.altered_carbon::js::ACJsValue"*, %"class.altered_carbon::js::ACJsValue"* dereferenceable(16)) unnamed_addr #0 align 2 {
  %3 = alloca %"class.std::__1::shared_ptr"*, align 8
  %4 = alloca %"class.altered_carbon::js::ACJsValue"*, align 8
  %5 = alloca %"class.altered_carbon::js::ACJsValue"*, align 8
  store %"class.altered_carbon::js::ACJsValue"* %0, %"class.altered_carbon::js::ACJsValue"** %4, align 8
  store %"class.altered_carbon::js::ACJsValue"* %1, %"class.altered_carbon::js::ACJsValue"** %5, align 8
  %6 = load %"class.altered_carbon::js::ACJsValue"*, %"class.altered_carbon::js::ACJsValue"** %4, align 8
  store %"class.std::__1::shared_ptr"* bitcast (i8* getelementptr inbounds (i8, i8* bitcast (%"class.altered_carbon::js::JsValueRef"* @_ZN14altered_carbon2js11JSConstants12ReferenceErrE to i8*), i64 8) to %"class.std::__1::shared_ptr"*), %"class.std::__1::shared_ptr"** %3, align 8
  %7 = load %"class.std::__1::shared_ptr"*, %"class.std::__1::shared_ptr"** %3, align 8
  %8 = getelementptr inbounds %"class.std::__1::shared_ptr", %"class.std::__1::shared_ptr"* %7, i32 0, i32 0
  %9 = load %"class.altered_carbon::js::ACJsValue"*, %"class.altered_carbon::js::ACJsValue"** %8, align 8
  ret %"class.altered_carbon::js::ACJsValue"* %9
}

; Function Attrs: noinline nounwind optnone ssp uwtable
define dereferenceable(16) %"class.altered_carbon::js::ACJsValue"* @_ZN14altered_carbon2js9ACJsValueoRERKS1_(%"class.altered_carbon::js::ACJsValue"*, %"class.altered_carbon::js::ACJsValue"* dereferenceable(16)) unnamed_addr #0 align 2 {
  %3 = alloca %"class.std::__1::shared_ptr"*, align 8
  %4 = alloca %"class.altered_carbon::js::ACJsValue"*, align 8
  %5 = alloca %"class.altered_carbon::js::ACJsValue"*, align 8
  store %"class.altered_carbon::js::ACJsValue"* %0, %"class.altered_carbon::js::ACJsValue"** %4, align 8
  store %"class.altered_carbon::js::ACJsValue"* %1, %"class.altered_carbon::js::ACJsValue"** %5, align 8
  %6 = load %"class.altered_carbon::js::ACJsValue"*, %"class.altered_carbon::js::ACJsValue"** %4, align 8
  store %"class.std::__1::shared_ptr"* bitcast (i8* getelementptr inbounds (i8, i8* bitcast (%"class.altered_carbon::js::JsValueRef"* @_ZN14altered_carbon2js11JSConstants12ReferenceErrE to i8*), i64 8) to %"class.std::__1::shared_ptr"*), %"class.std::__1::shared_ptr"** %3, align 8
  %7 = load %"class.std::__1::shared_ptr"*, %"class.std::__1::shared_ptr"** %3, align 8
  %8 = getelementptr inbounds %"class.std::__1::shared_ptr", %"class.std::__1::shared_ptr"* %7, i32 0, i32 0
  %9 = load %"class.altered_carbon::js::ACJsValue"*, %"class.altered_carbon::js::ACJsValue"** %8, align 8
  ret %"class.altered_carbon::js::ACJsValue"* %9
}

; Function Attrs: noinline nounwind optnone ssp uwtable
define dereferenceable(16) %"class.altered_carbon::js::ACJsValue"* @_ZN14altered_carbon2js9ACJsValueaNERKS1_(%"class.altered_carbon::js::ACJsValue"*, %"class.altered_carbon::js::ACJsValue"* dereferenceable(16)) unnamed_addr #0 align 2 {
  %3 = alloca %"class.std::__1::shared_ptr"*, align 8
  %4 = alloca %"class.altered_carbon::js::ACJsValue"*, align 8
  %5 = alloca %"class.altered_carbon::js::ACJsValue"*, align 8
  store %"class.altered_carbon::js::ACJsValue"* %0, %"class.altered_carbon::js::ACJsValue"** %4, align 8
  store %"class.altered_carbon::js::ACJsValue"* %1, %"class.altered_carbon::js::ACJsValue"** %5, align 8
  %6 = load %"class.altered_carbon::js::ACJsValue"*, %"class.altered_carbon::js::ACJsValue"** %4, align 8
  store %"class.std::__1::shared_ptr"* bitcast (i8* getelementptr inbounds (i8, i8* bitcast (%"class.altered_carbon::js::JsValueRef"* @_ZN14altered_carbon2js11JSConstants12ReferenceErrE to i8*), i64 8) to %"class.std::__1::shared_ptr"*), %"class.std::__1::shared_ptr"** %3, align 8
  %7 = load %"class.std::__1::shared_ptr"*, %"class.std::__1::shared_ptr"** %3, align 8
  %8 = getelementptr inbounds %"class.std::__1::shared_ptr", %"class.std::__1::shared_ptr"* %7, i32 0, i32 0
  %9 = load %"class.altered_carbon::js::ACJsValue"*, %"class.altered_carbon::js::ACJsValue"** %8, align 8
  ret %"class.altered_carbon::js::ACJsValue"* %9
}

; Function Attrs: noinline nounwind optnone ssp uwtable
define dereferenceable(16) %"class.altered_carbon::js::ACJsValue"* @_ZN14altered_carbon2js9ACJsValuelSERKS1_(%"class.altered_carbon::js::ACJsValue"*, %"class.altered_carbon::js::ACJsValue"* dereferenceable(16)) unnamed_addr #0 align 2 {
  %3 = alloca %"class.std::__1::shared_ptr"*, align 8
  %4 = alloca %"class.altered_carbon::js::ACJsValue"*, align 8
  %5 = alloca %"class.altered_carbon::js::ACJsValue"*, align 8
  store %"class.altered_carbon::js::ACJsValue"* %0, %"class.altered_carbon::js::ACJsValue"** %4, align 8
  store %"class.altered_carbon::js::ACJsValue"* %1, %"class.altered_carbon::js::ACJsValue"** %5, align 8
  %6 = load %"class.altered_carbon::js::ACJsValue"*, %"class.altered_carbon::js::ACJsValue"** %4, align 8
  store %"class.std::__1::shared_ptr"* bitcast (i8* getelementptr inbounds (i8, i8* bitcast (%"class.altered_carbon::js::JsValueRef"* @_ZN14altered_carbon2js11JSConstants12ReferenceErrE to i8*), i64 8) to %"class.std::__1::shared_ptr"*), %"class.std::__1::shared_ptr"** %3, align 8
  %7 = load %"class.std::__1::shared_ptr"*, %"class.std::__1::shared_ptr"** %3, align 8
  %8 = getelementptr inbounds %"class.std::__1::shared_ptr", %"class.std::__1::shared_ptr"* %7, i32 0, i32 0
  %9 = load %"class.altered_carbon::js::ACJsValue"*, %"class.altered_carbon::js::ACJsValue"** %8, align 8
  ret %"class.altered_carbon::js::ACJsValue"* %9
}

; Function Attrs: noinline nounwind optnone ssp uwtable
define dereferenceable(16) %"class.altered_carbon::js::ACJsValue"* @_ZN14altered_carbon2js9ACJsValuerSERKS1_(%"class.altered_carbon::js::ACJsValue"*, %"class.altered_carbon::js::ACJsValue"* dereferenceable(16)) unnamed_addr #0 align 2 {
  %3 = alloca %"class.std::__1::shared_ptr"*, align 8
  %4 = alloca %"class.altered_carbon::js::ACJsValue"*, align 8
  %5 = alloca %"class.altered_carbon::js::ACJsValue"*, align 8
  store %"class.altered_carbon::js::ACJsValue"* %0, %"class.altered_carbon::js::ACJsValue"** %4, align 8
  store %"class.altered_carbon::js::ACJsValue"* %1, %"class.altered_carbon::js::ACJsValue"** %5, align 8
  %6 = load %"class.altered_carbon::js::ACJsValue"*, %"class.altered_carbon::js::ACJsValue"** %4, align 8
  store %"class.std::__1::shared_ptr"* bitcast (i8* getelementptr inbounds (i8, i8* bitcast (%"class.altered_carbon::js::JsValueRef"* @_ZN14altered_carbon2js11JSConstants12ReferenceErrE to i8*), i64 8) to %"class.std::__1::shared_ptr"*), %"class.std::__1::shared_ptr"** %3, align 8
  %7 = load %"class.std::__1::shared_ptr"*, %"class.std::__1::shared_ptr"** %3, align 8
  %8 = getelementptr inbounds %"class.std::__1::shared_ptr", %"class.std::__1::shared_ptr"* %7, i32 0, i32 0
  %9 = load %"class.altered_carbon::js::ACJsValue"*, %"class.altered_carbon::js::ACJsValue"** %8, align 8
  ret %"class.altered_carbon::js::ACJsValue"* %9
}

; Function Attrs: noinline nounwind optnone ssp uwtable
define zeroext i1 @_ZNK14altered_carbon2js9ACJsValueeqERKS1_(%"class.altered_carbon::js::ACJsValue"*, %"class.altered_carbon::js::ACJsValue"* dereferenceable(16)) unnamed_addr #0 align 2 {
  %3 = alloca %"class.altered_carbon::js::ACJsValue"*, align 8
  %4 = alloca %"class.altered_carbon::js::ACJsValue"*, align 8
  store %"class.altered_carbon::js::ACJsValue"* %0, %"class.altered_carbon::js::ACJsValue"** %3, align 8
  store %"class.altered_carbon::js::ACJsValue"* %1, %"class.altered_carbon::js::ACJsValue"** %4, align 8
  %5 = load %"class.altered_carbon::js::ACJsValue"*, %"class.altered_carbon::js::ACJsValue"** %3, align 8
  %6 = call zeroext i1 @_ZNK14altered_carbon2js9ACJsValue11isUndefinedEv(%"class.altered_carbon::js::ACJsValue"* %5)
  br i1 %6, label %9, label %7

; <label>:7:                                      ; preds = %2
  %8 = call zeroext i1 @_ZNK14altered_carbon2js9ACJsValue6isNullEv(%"class.altered_carbon::js::ACJsValue"* %5)
  br i1 %8, label %9, label %17

; <label>:9:                                      ; preds = %7, %2
  %10 = load %"class.altered_carbon::js::ACJsValue"*, %"class.altered_carbon::js::ACJsValue"** %4, align 8
  %11 = call zeroext i1 @_ZNK14altered_carbon2js9ACJsValue11isUndefinedEv(%"class.altered_carbon::js::ACJsValue"* %10)
  br i1 %11, label %15, label %12

; <label>:12:                                     ; preds = %9
  %13 = load %"class.altered_carbon::js::ACJsValue"*, %"class.altered_carbon::js::ACJsValue"** %4, align 8
  %14 = call zeroext i1 @_ZNK14altered_carbon2js9ACJsValue6isNullEv(%"class.altered_carbon::js::ACJsValue"* %13)
  br label %15

; <label>:15:                                     ; preds = %12, %9
  %16 = phi i1 [ true, %9 ], [ %14, %12 ]
  br label %17

; <label>:17:                                     ; preds = %15, %7
  %18 = phi i1 [ false, %7 ], [ %16, %15 ]
  ret i1 %18
}

; Function Attrs: noinline nounwind optnone ssp uwtable
define zeroext i1 @_ZNK14altered_carbon2js9ACJsValue4eqvtERKS1_(%"class.altered_carbon::js::ACJsValue"*, %"class.altered_carbon::js::ACJsValue"* dereferenceable(16)) unnamed_addr #0 align 2 {
  %3 = alloca %"class.altered_carbon::js::ACJsValue"*, align 8
  %4 = alloca %"class.altered_carbon::js::ACJsValue"*, align 8
  store %"class.altered_carbon::js::ACJsValue"* %0, %"class.altered_carbon::js::ACJsValue"** %3, align 8
  store %"class.altered_carbon::js::ACJsValue"* %1, %"class.altered_carbon::js::ACJsValue"** %4, align 8
  %5 = load %"class.altered_carbon::js::ACJsValue"*, %"class.altered_carbon::js::ACJsValue"** %3, align 8
  %6 = call zeroext i1 @_ZNK14altered_carbon2js9ACJsValue11isUndefinedEv(%"class.altered_carbon::js::ACJsValue"* %5)
  br i1 %6, label %7, label %10

; <label>:7:                                      ; preds = %2
  %8 = load %"class.altered_carbon::js::ACJsValue"*, %"class.altered_carbon::js::ACJsValue"** %4, align 8
  %9 = call zeroext i1 @_ZNK14altered_carbon2js9ACJsValue11isUndefinedEv(%"class.altered_carbon::js::ACJsValue"* %8)
  br i1 %9, label %17, label %10

; <label>:10:                                     ; preds = %7, %2
  %11 = call zeroext i1 @_ZNK14altered_carbon2js9ACJsValue6isNullEv(%"class.altered_carbon::js::ACJsValue"* %5)
  br i1 %11, label %12, label %15

; <label>:12:                                     ; preds = %10
  %13 = load %"class.altered_carbon::js::ACJsValue"*, %"class.altered_carbon::js::ACJsValue"** %4, align 8
  %14 = call zeroext i1 @_ZNK14altered_carbon2js9ACJsValue6isNullEv(%"class.altered_carbon::js::ACJsValue"* %13)
  br label %15

; <label>:15:                                     ; preds = %12, %10
  %16 = phi i1 [ false, %10 ], [ %14, %12 ]
  br label %17

; <label>:17:                                     ; preds = %15, %7
  %18 = phi i1 [ true, %7 ], [ %16, %15 ]
  ret i1 %18
}

; Function Attrs: noinline nounwind optnone ssp uwtable
define zeroext i1 @_ZNK14altered_carbon2js9ACJsValue5neqvtERKS1_(%"class.altered_carbon::js::ACJsValue"*, %"class.altered_carbon::js::ACJsValue"* dereferenceable(16)) unnamed_addr #0 align 2 {
  %3 = alloca %"class.altered_carbon::js::ACJsValue"*, align 8
  %4 = alloca %"class.altered_carbon::js::ACJsValue"*, align 8
  store %"class.altered_carbon::js::ACJsValue"* %0, %"class.altered_carbon::js::ACJsValue"** %3, align 8
  store %"class.altered_carbon::js::ACJsValue"* %1, %"class.altered_carbon::js::ACJsValue"** %4, align 8
  %5 = load %"class.altered_carbon::js::ACJsValue"*, %"class.altered_carbon::js::ACJsValue"** %3, align 8
  %6 = bitcast %"class.altered_carbon::js::ACJsValue"* %5 to i1 (%"class.altered_carbon::js::ACJsValue"*, %"class.altered_carbon::js::ACJsValue"*)***
  %7 = load i1 (%"class.altered_carbon::js::ACJsValue"*, %"class.altered_carbon::js::ACJsValue"*)**, i1 (%"class.altered_carbon::js::ACJsValue"*, %"class.altered_carbon::js::ACJsValue"*)*** %6, align 8
  %8 = getelementptr inbounds i1 (%"class.altered_carbon::js::ACJsValue"*, %"class.altered_carbon::js::ACJsValue"*)*, i1 (%"class.altered_carbon::js::ACJsValue"*, %"class.altered_carbon::js::ACJsValue"*)** %7, i64 33
  %9 = load i1 (%"class.altered_carbon::js::ACJsValue"*, %"class.altered_carbon::js::ACJsValue"*)*, i1 (%"class.altered_carbon::js::ACJsValue"*, %"class.altered_carbon::js::ACJsValue"*)** %8, align 8
  %10 = load %"class.altered_carbon::js::ACJsValue"*, %"class.altered_carbon::js::ACJsValue"** %4, align 8
  %11 = call zeroext i1 %9(%"class.altered_carbon::js::ACJsValue"* %5, %"class.altered_carbon::js::ACJsValue"* dereferenceable(16) %10)
  %12 = xor i1 %11, true
  ret i1 %12
}

; Function Attrs: noinline nounwind optnone ssp uwtable
define dereferenceable(16) %"class.altered_carbon::js::ACJsValue"* @_ZNK14altered_carbon2js9ACJsValue3rszERKS1_(%"class.altered_carbon::js::ACJsValue"*, %"class.altered_carbon::js::ACJsValue"* dereferenceable(16)) unnamed_addr #0 align 2 {
  %3 = alloca %"class.std::__1::shared_ptr"*, align 8
  %4 = alloca %"class.altered_carbon::js::ACJsValue"*, align 8
  %5 = alloca %"class.altered_carbon::js::ACJsValue"*, align 8
  %6 = alloca %"class.altered_carbon::js::JsValueRef", align 8
  store %"class.altered_carbon::js::ACJsValue"* %0, %"class.altered_carbon::js::ACJsValue"** %4, align 8
  store %"class.altered_carbon::js::ACJsValue"* %1, %"class.altered_carbon::js::ACJsValue"** %5, align 8
  %7 = load %"class.altered_carbon::js::ACJsValue"*, %"class.altered_carbon::js::ACJsValue"** %4, align 8
  %8 = call i8* @_Znwm(i64 40) #11
  %9 = bitcast i8* %8 to %"class.altered_carbon::js::ACJsNumber"*
  call void @_ZN14altered_carbon2js10ACJsNumberC1Ex(%"class.altered_carbon::js::ACJsNumber"* %9, i64 0)
  %10 = bitcast %"class.altered_carbon::js::ACJsNumber"* %9 to %"class.altered_carbon::js::ACJsValue"*
  call void @_ZN14altered_carbon2js10JsValueRefC1EPNS0_9ACJsValueE(%"class.altered_carbon::js::JsValueRef"* %6, %"class.altered_carbon::js::ACJsValue"* %10)
  %11 = bitcast %"class.altered_carbon::js::JsValueRef"* %6 to i8*
  %12 = getelementptr inbounds i8, i8* %11, i64 8
  %13 = bitcast i8* %12 to %"class.std::__1::shared_ptr"*
  store %"class.std::__1::shared_ptr"* %13, %"class.std::__1::shared_ptr"** %3, align 8
  %14 = load %"class.std::__1::shared_ptr"*, %"class.std::__1::shared_ptr"** %3, align 8
  %15 = getelementptr inbounds %"class.std::__1::shared_ptr", %"class.std::__1::shared_ptr"* %14, i32 0, i32 0
  %16 = load %"class.altered_carbon::js::ACJsValue"*, %"class.altered_carbon::js::ACJsValue"** %15, align 8
  %17 = bitcast %"class.altered_carbon::js::ACJsValue"* %16 to %"class.altered_carbon::js::ACJsValue"* (%"class.altered_carbon::js::ACJsValue"*, %"class.altered_carbon::js::ACJsValue"*)***
  %18 = load %"class.altered_carbon::js::ACJsValue"* (%"class.altered_carbon::js::ACJsValue"*, %"class.altered_carbon::js::ACJsValue"*)**, %"class.altered_carbon::js::ACJsValue"* (%"class.altered_carbon::js::ACJsValue"*, %"class.altered_carbon::js::ACJsValue"*)*** %17, align 8
  %19 = getelementptr inbounds %"class.altered_carbon::js::ACJsValue"* (%"class.altered_carbon::js::ACJsValue"*, %"class.altered_carbon::js::ACJsValue"*)*, %"class.altered_carbon::js::ACJsValue"* (%"class.altered_carbon::js::ACJsValue"*, %"class.altered_carbon::js::ACJsValue"*)** %18, i64 31
  %20 = load %"class.altered_carbon::js::ACJsValue"* (%"class.altered_carbon::js::ACJsValue"*, %"class.altered_carbon::js::ACJsValue"*)*, %"class.altered_carbon::js::ACJsValue"* (%"class.altered_carbon::js::ACJsValue"*, %"class.altered_carbon::js::ACJsValue"*)** %19, align 8
  %21 = load %"class.altered_carbon::js::ACJsValue"*, %"class.altered_carbon::js::ACJsValue"** %5, align 8
  %22 = call dereferenceable(16) %"class.altered_carbon::js::ACJsValue"* %20(%"class.altered_carbon::js::ACJsValue"* %16, %"class.altered_carbon::js::ACJsValue"* dereferenceable(16) %21)
  call void @_ZN14altered_carbon2js10JsValueRefD1Ev(%"class.altered_carbon::js::JsValueRef"* %6) #5
  ret %"class.altered_carbon::js::ACJsValue"* %22
}

; Function Attrs: noinline nounwind optnone ssp uwtable
define dereferenceable(16) %"class.altered_carbon::js::ACJsValue"* @_ZN14altered_carbon2js9ACJsValue4arszERKS1_(%"class.altered_carbon::js::ACJsValue"*, %"class.altered_carbon::js::ACJsValue"* dereferenceable(16)) unnamed_addr #0 align 2 {
  %3 = alloca %"class.std::__1::shared_ptr"*, align 8
  %4 = alloca %"class.altered_carbon::js::ACJsValue"*, align 8
  %5 = alloca %"class.altered_carbon::js::ACJsValue"*, align 8
  %6 = alloca %"class.altered_carbon::js::JsValueRef", align 8
  store %"class.altered_carbon::js::ACJsValue"* %0, %"class.altered_carbon::js::ACJsValue"** %4, align 8
  store %"class.altered_carbon::js::ACJsValue"* %1, %"class.altered_carbon::js::ACJsValue"** %5, align 8
  %7 = load %"class.altered_carbon::js::ACJsValue"*, %"class.altered_carbon::js::ACJsValue"** %4, align 8
  %8 = call i8* @_Znwm(i64 40) #11
  %9 = bitcast i8* %8 to %"class.altered_carbon::js::ACJsNumber"*
  call void @_ZN14altered_carbon2js10ACJsNumberC1Ex(%"class.altered_carbon::js::ACJsNumber"* %9, i64 0)
  %10 = bitcast %"class.altered_carbon::js::ACJsNumber"* %9 to %"class.altered_carbon::js::ACJsValue"*
  call void @_ZN14altered_carbon2js10JsValueRefC1EPNS0_9ACJsValueE(%"class.altered_carbon::js::JsValueRef"* %6, %"class.altered_carbon::js::ACJsValue"* %10)
  %11 = bitcast %"class.altered_carbon::js::JsValueRef"* %6 to i8*
  %12 = getelementptr inbounds i8, i8* %11, i64 8
  %13 = bitcast i8* %12 to %"class.std::__1::shared_ptr"*
  store %"class.std::__1::shared_ptr"* %13, %"class.std::__1::shared_ptr"** %3, align 8
  %14 = load %"class.std::__1::shared_ptr"*, %"class.std::__1::shared_ptr"** %3, align 8
  %15 = getelementptr inbounds %"class.std::__1::shared_ptr", %"class.std::__1::shared_ptr"* %14, i32 0, i32 0
  %16 = load %"class.altered_carbon::js::ACJsValue"*, %"class.altered_carbon::js::ACJsValue"** %15, align 8
  %17 = bitcast %"class.altered_carbon::js::ACJsValue"* %16 to %"class.altered_carbon::js::ACJsValue"* (%"class.altered_carbon::js::ACJsValue"*, %"class.altered_carbon::js::ACJsValue"*)***
  %18 = load %"class.altered_carbon::js::ACJsValue"* (%"class.altered_carbon::js::ACJsValue"*, %"class.altered_carbon::js::ACJsValue"*)**, %"class.altered_carbon::js::ACJsValue"* (%"class.altered_carbon::js::ACJsValue"*, %"class.altered_carbon::js::ACJsValue"*)*** %17, align 8
  %19 = getelementptr inbounds %"class.altered_carbon::js::ACJsValue"* (%"class.altered_carbon::js::ACJsValue"*, %"class.altered_carbon::js::ACJsValue"*)*, %"class.altered_carbon::js::ACJsValue"* (%"class.altered_carbon::js::ACJsValue"*, %"class.altered_carbon::js::ACJsValue"*)** %18, i64 32
  %20 = load %"class.altered_carbon::js::ACJsValue"* (%"class.altered_carbon::js::ACJsValue"*, %"class.altered_carbon::js::ACJsValue"*)*, %"class.altered_carbon::js::ACJsValue"* (%"class.altered_carbon::js::ACJsValue"*, %"class.altered_carbon::js::ACJsValue"*)** %19, align 8
  %21 = load %"class.altered_carbon::js::ACJsValue"*, %"class.altered_carbon::js::ACJsValue"** %5, align 8
  %22 = call dereferenceable(16) %"class.altered_carbon::js::ACJsValue"* %20(%"class.altered_carbon::js::ACJsValue"* %16, %"class.altered_carbon::js::ACJsValue"* dereferenceable(16) %21)
  call void @_ZN14altered_carbon2js10JsValueRefD1Ev(%"class.altered_carbon::js::JsValueRef"* %6) #5
  ret %"class.altered_carbon::js::ACJsValue"* %22
}

; Function Attrs: noinline nounwind optnone ssp uwtable
define dereferenceable(16) %"class.altered_carbon::js::ACJsValue"* @_ZN14altered_carbon2js9ACJsValueppEv(%"class.altered_carbon::js::ACJsValue"*) unnamed_addr #0 align 2 {
  %2 = alloca %"class.std::__1::shared_ptr"*, align 8
  %3 = alloca %"class.altered_carbon::js::ACJsValue"*, align 8
  store %"class.altered_carbon::js::ACJsValue"* %0, %"class.altered_carbon::js::ACJsValue"** %3, align 8
  %4 = load %"class.altered_carbon::js::ACJsValue"*, %"class.altered_carbon::js::ACJsValue"** %3, align 8
  store %"class.std::__1::shared_ptr"* bitcast (i8* getelementptr inbounds (i8, i8* bitcast (%"class.altered_carbon::js::JsValueRef"* @_ZN14altered_carbon2js11JSConstants12ReferenceErrE to i8*), i64 8) to %"class.std::__1::shared_ptr"*), %"class.std::__1::shared_ptr"** %2, align 8
  %5 = load %"class.std::__1::shared_ptr"*, %"class.std::__1::shared_ptr"** %2, align 8
  %6 = getelementptr inbounds %"class.std::__1::shared_ptr", %"class.std::__1::shared_ptr"* %5, i32 0, i32 0
  %7 = load %"class.altered_carbon::js::ACJsValue"*, %"class.altered_carbon::js::ACJsValue"** %6, align 8
  ret %"class.altered_carbon::js::ACJsValue"* %7
}

; Function Attrs: noinline nounwind optnone ssp uwtable
define dereferenceable(16) %"class.altered_carbon::js::ACJsValue"* @_ZN14altered_carbon2js9ACJsValuemmEv(%"class.altered_carbon::js::ACJsValue"*) unnamed_addr #0 align 2 {
  %2 = alloca %"class.std::__1::shared_ptr"*, align 8
  %3 = alloca %"class.altered_carbon::js::ACJsValue"*, align 8
  store %"class.altered_carbon::js::ACJsValue"* %0, %"class.altered_carbon::js::ACJsValue"** %3, align 8
  %4 = load %"class.altered_carbon::js::ACJsValue"*, %"class.altered_carbon::js::ACJsValue"** %3, align 8
  store %"class.std::__1::shared_ptr"* bitcast (i8* getelementptr inbounds (i8, i8* bitcast (%"class.altered_carbon::js::JsValueRef"* @_ZN14altered_carbon2js11JSConstants12ReferenceErrE to i8*), i64 8) to %"class.std::__1::shared_ptr"*), %"class.std::__1::shared_ptr"** %2, align 8
  %5 = load %"class.std::__1::shared_ptr"*, %"class.std::__1::shared_ptr"** %2, align 8
  %6 = getelementptr inbounds %"class.std::__1::shared_ptr", %"class.std::__1::shared_ptr"* %5, i32 0, i32 0
  %7 = load %"class.altered_carbon::js::ACJsValue"*, %"class.altered_carbon::js::ACJsValue"** %6, align 8
  ret %"class.altered_carbon::js::ACJsValue"* %7
}

; Function Attrs: noinline nounwind optnone ssp uwtable
define void @_ZN14altered_carbon2js9ACJsValueppEi(%"class.altered_carbon::js::ACJsValue"* noalias sret, %"class.altered_carbon::js::ACJsValue"*, i32) unnamed_addr #0 align 2 {
  %4 = alloca %"class.std::__1::shared_ptr"*, align 8
  %5 = alloca %"class.altered_carbon::js::ACJsValue"*, align 8
  %6 = alloca i32, align 4
  store %"class.altered_carbon::js::ACJsValue"* %1, %"class.altered_carbon::js::ACJsValue"** %5, align 8
  store i32 %2, i32* %6, align 4
  %7 = load %"class.altered_carbon::js::ACJsValue"*, %"class.altered_carbon::js::ACJsValue"** %5, align 8
  store %"class.std::__1::shared_ptr"* bitcast (i8* getelementptr inbounds (i8, i8* bitcast (%"class.altered_carbon::js::JsValueRef"* @_ZN14altered_carbon2js11JSConstants12ReferenceErrE to i8*), i64 8) to %"class.std::__1::shared_ptr"*), %"class.std::__1::shared_ptr"** %4, align 8
  %8 = load %"class.std::__1::shared_ptr"*, %"class.std::__1::shared_ptr"** %4, align 8
  %9 = getelementptr inbounds %"class.std::__1::shared_ptr", %"class.std::__1::shared_ptr"* %8, i32 0, i32 0
  %10 = load %"class.altered_carbon::js::ACJsValue"*, %"class.altered_carbon::js::ACJsValue"** %9, align 8
  call void @_ZN14altered_carbon2js9ACJsValueC1ERKS1_(%"class.altered_carbon::js::ACJsValue"* %0, %"class.altered_carbon::js::ACJsValue"* dereferenceable(16) %10) #5
  ret void
}

; Function Attrs: noinline nounwind optnone ssp uwtable
define linkonce_odr hidden void @_ZN14altered_carbon2js9ACJsValueC1ERKS1_(%"class.altered_carbon::js::ACJsValue"*, %"class.altered_carbon::js::ACJsValue"* dereferenceable(16)) unnamed_addr #0 align 2 {
  %3 = alloca %"class.altered_carbon::js::ACJsValue"*, align 8
  %4 = alloca %"class.altered_carbon::js::ACJsValue"*, align 8
  store %"class.altered_carbon::js::ACJsValue"* %0, %"class.altered_carbon::js::ACJsValue"** %3, align 8
  store %"class.altered_carbon::js::ACJsValue"* %1, %"class.altered_carbon::js::ACJsValue"** %4, align 8
  %5 = load %"class.altered_carbon::js::ACJsValue"*, %"class.altered_carbon::js::ACJsValue"** %3, align 8
  %6 = load %"class.altered_carbon::js::ACJsValue"*, %"class.altered_carbon::js::ACJsValue"** %4, align 8
  call void @_ZN14altered_carbon2js9ACJsValueC2ERKS1_(%"class.altered_carbon::js::ACJsValue"* %5, %"class.altered_carbon::js::ACJsValue"* dereferenceable(16) %6) #5
  ret void
}

; Function Attrs: noinline nounwind optnone ssp uwtable
define void @_ZN14altered_carbon2js9ACJsValuemmEi(%"class.altered_carbon::js::ACJsValue"* noalias sret, %"class.altered_carbon::js::ACJsValue"*, i32) unnamed_addr #0 align 2 {
  %4 = alloca %"class.std::__1::shared_ptr"*, align 8
  %5 = alloca %"class.altered_carbon::js::ACJsValue"*, align 8
  %6 = alloca i32, align 4
  store %"class.altered_carbon::js::ACJsValue"* %1, %"class.altered_carbon::js::ACJsValue"** %5, align 8
  store i32 %2, i32* %6, align 4
  %7 = load %"class.altered_carbon::js::ACJsValue"*, %"class.altered_carbon::js::ACJsValue"** %5, align 8
  store %"class.std::__1::shared_ptr"* bitcast (i8* getelementptr inbounds (i8, i8* bitcast (%"class.altered_carbon::js::JsValueRef"* @_ZN14altered_carbon2js11JSConstants12ReferenceErrE to i8*), i64 8) to %"class.std::__1::shared_ptr"*), %"class.std::__1::shared_ptr"** %4, align 8
  %8 = load %"class.std::__1::shared_ptr"*, %"class.std::__1::shared_ptr"** %4, align 8
  %9 = getelementptr inbounds %"class.std::__1::shared_ptr", %"class.std::__1::shared_ptr"* %8, i32 0, i32 0
  %10 = load %"class.altered_carbon::js::ACJsValue"*, %"class.altered_carbon::js::ACJsValue"** %9, align 8
  call void @_ZN14altered_carbon2js9ACJsValueC1ERKS1_(%"class.altered_carbon::js::ACJsValue"* %0, %"class.altered_carbon::js::ACJsValue"* dereferenceable(16) %10) #5
  ret void
}

; Function Attrs: noinline nounwind optnone ssp uwtable
define %"class.altered_carbon::js::ACJsValue"* @_ZNK14altered_carbon2js9ACJsValue8asNumberEv(%"class.altered_carbon::js::ACJsValue"*) unnamed_addr #0 align 2 {
  %2 = alloca %"class.std::__1::shared_ptr"*, align 8
  %3 = alloca %"class.altered_carbon::js::ACJsValue"*, align 8
  store %"class.altered_carbon::js::ACJsValue"* %0, %"class.altered_carbon::js::ACJsValue"** %3, align 8
  %4 = load %"class.altered_carbon::js::ACJsValue"*, %"class.altered_carbon::js::ACJsValue"** %3, align 8
  store %"class.std::__1::shared_ptr"* bitcast (i8* getelementptr inbounds (i8, i8* bitcast (%"class.altered_carbon::js::JsValueRef"* @_ZN14altered_carbon2js11JSConstants3NaNE to i8*), i64 8) to %"class.std::__1::shared_ptr"*), %"class.std::__1::shared_ptr"** %2, align 8
  %5 = load %"class.std::__1::shared_ptr"*, %"class.std::__1::shared_ptr"** %2, align 8
  %6 = getelementptr inbounds %"class.std::__1::shared_ptr", %"class.std::__1::shared_ptr"* %5, i32 0, i32 0
  %7 = load %"class.altered_carbon::js::ACJsValue"*, %"class.altered_carbon::js::ACJsValue"** %6, align 8
  ret %"class.altered_carbon::js::ACJsValue"* %7
}

; Function Attrs: noinline nounwind optnone ssp uwtable
define %"class.altered_carbon::js::ACJsValue"* @_ZNK14altered_carbon2js9ACJsValue8asRegExpEv(%"class.altered_carbon::js::ACJsValue"*) unnamed_addr #0 align 2 {
  %2 = alloca %"class.std::__1::auto_ptr"*, align 8
  %3 = alloca %"class.std::__1::auto_ptr"*, align 8
  %4 = alloca %"class.std::__1::auto_ptr"*, align 8
  %5 = alloca %"class.std::__1::auto_ptr"*, align 8
  %6 = alloca %"class.altered_carbon::js::ACJsValue"*, align 8
  %7 = alloca %"class.std::__1::auto_ptr"*, align 8
  %8 = alloca %"class.altered_carbon::js::ACJsValue"*, align 8
  %9 = alloca %"class.altered_carbon::js::ACJsValue"*, align 8
  %10 = alloca %"class.std::__1::auto_ptr", align 8
  store %"class.altered_carbon::js::ACJsValue"* %0, %"class.altered_carbon::js::ACJsValue"** %9, align 8
  %11 = load %"class.altered_carbon::js::ACJsValue"*, %"class.altered_carbon::js::ACJsValue"** %9, align 8
  %12 = call i8* @_Znwm(i64 24) #11
  %13 = bitcast i8* %12 to %"class.altered_carbon::js::ACJsError"*
  call void @_ZN14altered_carbon2js9ACJsErrorC1ENS1_9ErrorTypeEPKc(%"class.altered_carbon::js::ACJsError"* %13, i32 1, i8* getelementptr inbounds ([1 x i8], [1 x i8]* @.str, i32 0, i32 0))
  %14 = bitcast %"class.altered_carbon::js::ACJsError"* %13 to %"class.altered_carbon::js::ACJsValue"*
  store %"class.std::__1::auto_ptr"* %10, %"class.std::__1::auto_ptr"** %7, align 8
  store %"class.altered_carbon::js::ACJsValue"* %14, %"class.altered_carbon::js::ACJsValue"** %8, align 8
  %15 = load %"class.std::__1::auto_ptr"*, %"class.std::__1::auto_ptr"** %7, align 8
  %16 = load %"class.altered_carbon::js::ACJsValue"*, %"class.altered_carbon::js::ACJsValue"** %8, align 8
  store %"class.std::__1::auto_ptr"* %15, %"class.std::__1::auto_ptr"** %5, align 8
  store %"class.altered_carbon::js::ACJsValue"* %16, %"class.altered_carbon::js::ACJsValue"** %6, align 8
  %17 = load %"class.std::__1::auto_ptr"*, %"class.std::__1::auto_ptr"** %5, align 8
  %18 = getelementptr inbounds %"class.std::__1::auto_ptr", %"class.std::__1::auto_ptr"* %17, i32 0, i32 0
  %19 = load %"class.altered_carbon::js::ACJsValue"*, %"class.altered_carbon::js::ACJsValue"** %6, align 8
  store %"class.altered_carbon::js::ACJsValue"* %19, %"class.altered_carbon::js::ACJsValue"** %18, align 8
  store %"class.std::__1::auto_ptr"* %10, %"class.std::__1::auto_ptr"** %2, align 8
  %20 = load %"class.std::__1::auto_ptr"*, %"class.std::__1::auto_ptr"** %2, align 8
  %21 = getelementptr inbounds %"class.std::__1::auto_ptr", %"class.std::__1::auto_ptr"* %20, i32 0, i32 0
  %22 = load %"class.altered_carbon::js::ACJsValue"*, %"class.altered_carbon::js::ACJsValue"** %21, align 8
  store %"class.std::__1::auto_ptr"* %10, %"class.std::__1::auto_ptr"** %4, align 8
  %23 = load %"class.std::__1::auto_ptr"*, %"class.std::__1::auto_ptr"** %4, align 8
  store %"class.std::__1::auto_ptr"* %23, %"class.std::__1::auto_ptr"** %3, align 8
  %24 = load %"class.std::__1::auto_ptr"*, %"class.std::__1::auto_ptr"** %3, align 8
  %25 = getelementptr inbounds %"class.std::__1::auto_ptr", %"class.std::__1::auto_ptr"* %24, i32 0, i32 0
  %26 = load %"class.altered_carbon::js::ACJsValue"*, %"class.altered_carbon::js::ACJsValue"** %25, align 8
  %27 = icmp eq %"class.altered_carbon::js::ACJsValue"* %26, null
  br i1 %27, label %33, label %28

; <label>:28:                                     ; preds = %1
  %29 = bitcast %"class.altered_carbon::js::ACJsValue"* %26 to void (%"class.altered_carbon::js::ACJsValue"*)***
  %30 = load void (%"class.altered_carbon::js::ACJsValue"*)**, void (%"class.altered_carbon::js::ACJsValue"*)*** %29, align 8
  %31 = getelementptr inbounds void (%"class.altered_carbon::js::ACJsValue"*)*, void (%"class.altered_carbon::js::ACJsValue"*)** %30, i64 1
  %32 = load void (%"class.altered_carbon::js::ACJsValue"*)*, void (%"class.altered_carbon::js::ACJsValue"*)** %31, align 8
  call void %32(%"class.altered_carbon::js::ACJsValue"* %26) #5
  br label %33

; <label>:33:                                     ; preds = %1, %28
  ret %"class.altered_carbon::js::ACJsValue"* %22
}

; Function Attrs: noinline nounwind optnone ssp uwtable
define void @_ZN14altered_carbon2js9ACJsErrorC1ENS1_9ErrorTypeEPKc(%"class.altered_carbon::js::ACJsError"*, i32, i8*) unnamed_addr #0 align 2 {
  %4 = alloca %"class.altered_carbon::js::ACJsError"*, align 8
  %5 = alloca i32, align 4
  %6 = alloca i8*, align 8
  store %"class.altered_carbon::js::ACJsError"* %0, %"class.altered_carbon::js::ACJsError"** %4, align 8
  store i32 %1, i32* %5, align 4
  store i8* %2, i8** %6, align 8
  %7 = load %"class.altered_carbon::js::ACJsError"*, %"class.altered_carbon::js::ACJsError"** %4, align 8
  %8 = load i32, i32* %5, align 4
  %9 = load i8*, i8** %6, align 8
  call void @_ZN14altered_carbon2js9ACJsErrorC2ENS1_9ErrorTypeEPKc(%"class.altered_carbon::js::ACJsError"* %7, i32 %8, i8* %9)
  ret void
}

; Function Attrs: noinline nounwind optnone ssp uwtable
define %"class.altered_carbon::js::ACJsValue"* @_ZNK14altered_carbon2js9ACJsValue8asStringEv(%"class.altered_carbon::js::ACJsValue"*) unnamed_addr #0 align 2 {
  %2 = alloca %"class.std::__1::auto_ptr"*, align 8
  %3 = alloca %"class.std::__1::auto_ptr"*, align 8
  %4 = alloca %"class.std::__1::auto_ptr"*, align 8
  %5 = alloca %"class.std::__1::auto_ptr"*, align 8
  %6 = alloca %"class.altered_carbon::js::ACJsValue"*, align 8
  %7 = alloca %"class.std::__1::auto_ptr"*, align 8
  %8 = alloca %"class.altered_carbon::js::ACJsValue"*, align 8
  %9 = alloca %"class.altered_carbon::js::ACJsValue"*, align 8
  %10 = alloca %"class.std::__1::auto_ptr", align 8
  store %"class.altered_carbon::js::ACJsValue"* %0, %"class.altered_carbon::js::ACJsValue"** %9, align 8
  %11 = load %"class.altered_carbon::js::ACJsValue"*, %"class.altered_carbon::js::ACJsValue"** %9, align 8
  %12 = call i8* @_Znwm(i64 40) #11
  %13 = bitcast i8* %12 to %"class.altered_carbon::js::ACJsString"*
  %14 = call zeroext i1 @_ZNK14altered_carbon2js9ACJsValue11isUndefinedEv(%"class.altered_carbon::js::ACJsValue"* %11)
  br i1 %14, label %15, label %16

; <label>:15:                                     ; preds = %1
  br label %20

; <label>:16:                                     ; preds = %1
  %17 = call zeroext i1 @_ZNK14altered_carbon2js9ACJsValue6isNullEv(%"class.altered_carbon::js::ACJsValue"* %11)
  %18 = zext i1 %17 to i64
  %19 = select i1 %17, i32* getelementptr inbounds ([5 x i32], [5 x i32]* @.str.2, i32 0, i32 0), i32* getelementptr inbounds ([4 x i32], [4 x i32]* @.str.3, i32 0, i32 0)
  br label %20

; <label>:20:                                     ; preds = %16, %15
  %21 = phi i32* [ getelementptr inbounds ([10 x i32], [10 x i32]* @.str.1, i32 0, i32 0), %15 ], [ %19, %16 ]
  call void @_ZN14altered_carbon2js10ACJsStringC1EPKw(%"class.altered_carbon::js::ACJsString"* %13, i32* %21)
  %22 = bitcast %"class.altered_carbon::js::ACJsString"* %13 to %"class.altered_carbon::js::ACJsValue"*
  store %"class.std::__1::auto_ptr"* %10, %"class.std::__1::auto_ptr"** %7, align 8
  store %"class.altered_carbon::js::ACJsValue"* %22, %"class.altered_carbon::js::ACJsValue"** %8, align 8
  %23 = load %"class.std::__1::auto_ptr"*, %"class.std::__1::auto_ptr"** %7, align 8
  %24 = load %"class.altered_carbon::js::ACJsValue"*, %"class.altered_carbon::js::ACJsValue"** %8, align 8
  store %"class.std::__1::auto_ptr"* %23, %"class.std::__1::auto_ptr"** %5, align 8
  store %"class.altered_carbon::js::ACJsValue"* %24, %"class.altered_carbon::js::ACJsValue"** %6, align 8
  %25 = load %"class.std::__1::auto_ptr"*, %"class.std::__1::auto_ptr"** %5, align 8
  %26 = getelementptr inbounds %"class.std::__1::auto_ptr", %"class.std::__1::auto_ptr"* %25, i32 0, i32 0
  %27 = load %"class.altered_carbon::js::ACJsValue"*, %"class.altered_carbon::js::ACJsValue"** %6, align 8
  store %"class.altered_carbon::js::ACJsValue"* %27, %"class.altered_carbon::js::ACJsValue"** %26, align 8
  store %"class.std::__1::auto_ptr"* %10, %"class.std::__1::auto_ptr"** %2, align 8
  %28 = load %"class.std::__1::auto_ptr"*, %"class.std::__1::auto_ptr"** %2, align 8
  %29 = getelementptr inbounds %"class.std::__1::auto_ptr", %"class.std::__1::auto_ptr"* %28, i32 0, i32 0
  %30 = load %"class.altered_carbon::js::ACJsValue"*, %"class.altered_carbon::js::ACJsValue"** %29, align 8
  store %"class.std::__1::auto_ptr"* %10, %"class.std::__1::auto_ptr"** %4, align 8
  %31 = load %"class.std::__1::auto_ptr"*, %"class.std::__1::auto_ptr"** %4, align 8
  store %"class.std::__1::auto_ptr"* %31, %"class.std::__1::auto_ptr"** %3, align 8
  %32 = load %"class.std::__1::auto_ptr"*, %"class.std::__1::auto_ptr"** %3, align 8
  %33 = getelementptr inbounds %"class.std::__1::auto_ptr", %"class.std::__1::auto_ptr"* %32, i32 0, i32 0
  %34 = load %"class.altered_carbon::js::ACJsValue"*, %"class.altered_carbon::js::ACJsValue"** %33, align 8
  %35 = icmp eq %"class.altered_carbon::js::ACJsValue"* %34, null
  br i1 %35, label %41, label %36

; <label>:36:                                     ; preds = %20
  %37 = bitcast %"class.altered_carbon::js::ACJsValue"* %34 to void (%"class.altered_carbon::js::ACJsValue"*)***
  %38 = load void (%"class.altered_carbon::js::ACJsValue"*)**, void (%"class.altered_carbon::js::ACJsValue"*)*** %37, align 8
  %39 = getelementptr inbounds void (%"class.altered_carbon::js::ACJsValue"*)*, void (%"class.altered_carbon::js::ACJsValue"*)** %38, i64 1
  %40 = load void (%"class.altered_carbon::js::ACJsValue"*)*, void (%"class.altered_carbon::js::ACJsValue"*)** %39, align 8
  call void %40(%"class.altered_carbon::js::ACJsValue"* %34) #5
  br label %41

; <label>:41:                                     ; preds = %20, %36
  ret %"class.altered_carbon::js::ACJsValue"* %30
}

declare void @_ZN14altered_carbon2js10ACJsStringC1EPKw(%"class.altered_carbon::js::ACJsString"*, i32*) unnamed_addr #2

; Function Attrs: noinline nounwind optnone ssp uwtable
define void @_ZNK14altered_carbon2js9ACJsValue4dumpERNSt3__113basic_ostreamIcNS2_11char_traitsIcEEEE(%"class.altered_carbon::js::ACJsValue"*, %"class.std::__1::basic_ostream"* dereferenceable(160)) unnamed_addr #0 align 2 {
  %3 = alloca %"class.altered_carbon::js::ACJsValue"*, align 8
  %4 = alloca %"class.std::__1::basic_ostream"*, align 8
  store %"class.altered_carbon::js::ACJsValue"* %0, %"class.altered_carbon::js::ACJsValue"** %3, align 8
  store %"class.std::__1::basic_ostream"* %1, %"class.std::__1::basic_ostream"** %4, align 8
  %5 = load %"class.altered_carbon::js::ACJsValue"*, %"class.altered_carbon::js::ACJsValue"** %3, align 8
  %6 = load %"class.std::__1::basic_ostream"*, %"class.std::__1::basic_ostream"** %4, align 8
  %7 = call dereferenceable(160) %"class.std::__1::basic_ostream"* @_ZNSt3__1lsINS_11char_traitsIcEEEERNS_13basic_ostreamIcT_EES6_PKc(%"class.std::__1::basic_ostream"* dereferenceable(160) %6, i8* getelementptr inbounds ([6 x i8], [6 x i8]* @.str.4, i32 0, i32 0))
  %8 = getelementptr inbounds %"class.altered_carbon::js::ACJsValue", %"class.altered_carbon::js::ACJsValue"* %5, i32 0, i32 1
  %9 = load i32, i32* %8, align 8
  switch i32 %9, label %16 [
    i32 -1, label %10
    i32 0, label %13
  ]

; <label>:10:                                     ; preds = %2
  %11 = load %"class.std::__1::basic_ostream"*, %"class.std::__1::basic_ostream"** %4, align 8
  %12 = call dereferenceable(160) %"class.std::__1::basic_ostream"* @_ZNSt3__1lsINS_11char_traitsIcEEEERNS_13basic_ostreamIcT_EES6_PKc(%"class.std::__1::basic_ostream"* dereferenceable(160) %11, i8* getelementptr inbounds ([11 x i8], [11 x i8]* @.str.5, i32 0, i32 0))
  br label %17

; <label>:13:                                     ; preds = %2
  %14 = load %"class.std::__1::basic_ostream"*, %"class.std::__1::basic_ostream"** %4, align 8
  %15 = call dereferenceable(160) %"class.std::__1::basic_ostream"* @_ZNSt3__1lsINS_11char_traitsIcEEEERNS_13basic_ostreamIcT_EES6_PKc(%"class.std::__1::basic_ostream"* dereferenceable(160) %14, i8* getelementptr inbounds ([6 x i8], [6 x i8]* @.str.6, i32 0, i32 0))
  br label %17

; <label>:16:                                     ; preds = %2
  br label %17

; <label>:17:                                     ; preds = %16, %13, %10
  ret void
}

; Function Attrs: noinline nounwind optnone ssp uwtable
define linkonce_odr dereferenceable(160) %"class.std::__1::basic_ostream"* @_ZNSt3__1lsINS_11char_traitsIcEEEERNS_13basic_ostreamIcT_EES6_PKc(%"class.std::__1::basic_ostream"* dereferenceable(160), i8*) #0 {
  %3 = alloca %"class.std::__1::basic_ostream"*, align 8
  %4 = alloca i8*, align 8
  store %"class.std::__1::basic_ostream"* %0, %"class.std::__1::basic_ostream"** %3, align 8
  store i8* %1, i8** %4, align 8
  %5 = load %"class.std::__1::basic_ostream"*, %"class.std::__1::basic_ostream"** %3, align 8
  %6 = load i8*, i8** %4, align 8
  %7 = load i8*, i8** %4, align 8
  %8 = call i64 @_ZNSt3__111char_traitsIcE6lengthEPKc(i8* %7) #5
  %9 = call dereferenceable(160) %"class.std::__1::basic_ostream"* @_ZNSt3__124__put_character_sequenceIcNS_11char_traitsIcEEEERNS_13basic_ostreamIT_T0_EES7_PKS4_m(%"class.std::__1::basic_ostream"* dereferenceable(160) %5, i8* %6, i64 %8)
  ret %"class.std::__1::basic_ostream"* %9
}

; Function Attrs: noinline nounwind optnone ssp uwtable
define zeroext i1 @_ZNK14altered_carbon2js9ACJsValue5isObjEv(%"class.altered_carbon::js::ACJsValue"*) #0 align 2 {
  %2 = alloca %"class.altered_carbon::js::ACJsValue"*, align 8
  store %"class.altered_carbon::js::ACJsValue"* %0, %"class.altered_carbon::js::ACJsValue"** %2, align 8
  %3 = load %"class.altered_carbon::js::ACJsValue"*, %"class.altered_carbon::js::ACJsValue"** %2, align 8
  %4 = getelementptr inbounds %"class.altered_carbon::js::ACJsValue", %"class.altered_carbon::js::ACJsValue"* %3, i32 0, i32 1
  %5 = load i32, i32* %4, align 8
  %6 = icmp eq i32 %5, 11
  br i1 %6, label %35, label %7

; <label>:7:                                      ; preds = %1
  %8 = getelementptr inbounds %"class.altered_carbon::js::ACJsValue", %"class.altered_carbon::js::ACJsValue"* %3, i32 0, i32 1
  %9 = load i32, i32* %8, align 8
  %10 = icmp eq i32 %9, 12
  br i1 %10, label %35, label %11

; <label>:11:                                     ; preds = %7
  %12 = getelementptr inbounds %"class.altered_carbon::js::ACJsValue", %"class.altered_carbon::js::ACJsValue"* %3, i32 0, i32 1
  %13 = load i32, i32* %12, align 8
  %14 = icmp eq i32 %13, 13
  br i1 %14, label %35, label %15

; <label>:15:                                     ; preds = %11
  %16 = getelementptr inbounds %"class.altered_carbon::js::ACJsValue", %"class.altered_carbon::js::ACJsValue"* %3, i32 0, i32 1
  %17 = load i32, i32* %16, align 8
  %18 = icmp eq i32 %17, 14
  br i1 %18, label %35, label %19

; <label>:19:                                     ; preds = %15
  %20 = getelementptr inbounds %"class.altered_carbon::js::ACJsValue", %"class.altered_carbon::js::ACJsValue"* %3, i32 0, i32 1
  %21 = load i32, i32* %20, align 8
  %22 = icmp eq i32 %21, 21
  br i1 %22, label %35, label %23

; <label>:23:                                     ; preds = %19
  %24 = getelementptr inbounds %"class.altered_carbon::js::ACJsValue", %"class.altered_carbon::js::ACJsValue"* %3, i32 0, i32 1
  %25 = load i32, i32* %24, align 8
  %26 = icmp eq i32 %25, 22
  br i1 %26, label %35, label %27

; <label>:27:                                     ; preds = %23
  %28 = getelementptr inbounds %"class.altered_carbon::js::ACJsValue", %"class.altered_carbon::js::ACJsValue"* %3, i32 0, i32 1
  %29 = load i32, i32* %28, align 8
  %30 = icmp eq i32 %29, 23
  br i1 %30, label %35, label %31

; <label>:31:                                     ; preds = %27
  %32 = getelementptr inbounds %"class.altered_carbon::js::ACJsValue", %"class.altered_carbon::js::ACJsValue"* %3, i32 0, i32 1
  %33 = load i32, i32* %32, align 8
  %34 = icmp eq i32 %33, 24
  br label %35

; <label>:35:                                     ; preds = %31, %27, %23, %19, %15, %11, %7, %1
  %36 = phi i1 [ true, %27 ], [ true, %23 ], [ true, %19 ], [ true, %15 ], [ true, %11 ], [ true, %7 ], [ true, %1 ], [ %34, %31 ]
  ret i1 %36
}

; Function Attrs: noinline nounwind optnone ssp uwtable
define void @_ZN14altered_carbon2js10JsValueRefC2Ev(%"class.altered_carbon::js::JsValueRef"*) unnamed_addr #0 align 2 {
  %2 = alloca %"class.std::__1::shared_ptr"*, align 8
  %3 = alloca i8*, align 8
  %4 = alloca %"class.altered_carbon::js::JsValueRef"*, align 8
  store %"class.altered_carbon::js::JsValueRef"* %0, %"class.altered_carbon::js::JsValueRef"** %4, align 8
  %5 = load %"class.altered_carbon::js::JsValueRef"*, %"class.altered_carbon::js::JsValueRef"** %4, align 8
  %6 = bitcast %"class.altered_carbon::js::JsValueRef"* %5 to i8*
  %7 = getelementptr inbounds i8, i8* %6, i64 8
  %8 = bitcast i8* %7 to %"class.std::__1::shared_ptr"*
  store %"class.std::__1::shared_ptr"* %8, %"class.std::__1::shared_ptr"** %2, align 8
  store i8* null, i8** %3, align 8
  %9 = load %"class.std::__1::shared_ptr"*, %"class.std::__1::shared_ptr"** %2, align 8
  %10 = getelementptr inbounds %"class.std::__1::shared_ptr", %"class.std::__1::shared_ptr"* %9, i32 0, i32 0
  store %"class.altered_carbon::js::ACJsValue"* null, %"class.altered_carbon::js::ACJsValue"** %10, align 8
  %11 = getelementptr inbounds %"class.std::__1::shared_ptr", %"class.std::__1::shared_ptr"* %9, i32 0, i32 1
  store %"class.std::__1::__shared_weak_count"* null, %"class.std::__1::__shared_weak_count"** %11, align 8
  %12 = bitcast %"class.altered_carbon::js::JsValueRef"* %5 to i32 (...)***
  store i32 (...)** bitcast (i8** getelementptr inbounds ({ [4 x i8*] }, { [4 x i8*] }* @_ZTVN14altered_carbon2js10JsValueRefE, i32 0, inrange i32 0, i32 2) to i32 (...)**), i32 (...)*** %12, align 8
  ret void
}

; Function Attrs: noinline nounwind optnone ssp uwtable
define void @_ZN14altered_carbon2js10JsValueRefC1Ev(%"class.altered_carbon::js::JsValueRef"*) unnamed_addr #0 align 2 {
  %2 = alloca %"class.altered_carbon::js::JsValueRef"*, align 8
  store %"class.altered_carbon::js::JsValueRef"* %0, %"class.altered_carbon::js::JsValueRef"** %2, align 8
  %3 = load %"class.altered_carbon::js::JsValueRef"*, %"class.altered_carbon::js::JsValueRef"** %2, align 8
  call void @_ZN14altered_carbon2js10JsValueRefC2Ev(%"class.altered_carbon::js::JsValueRef"* %3)
  ret void
}

; Function Attrs: noinline nounwind optnone ssp uwtable
define void @_ZN14altered_carbon2js10JsValueRefC2EPNS0_9ACJsValueE(%"class.altered_carbon::js::JsValueRef"*, %"class.altered_carbon::js::ACJsValue"*) unnamed_addr #0 align 2 {
  %3 = alloca %"class.altered_carbon::js::JsValueRef"*, align 8
  %4 = alloca %"class.altered_carbon::js::ACJsValue"*, align 8
  %5 = alloca %"struct.std::__1::shared_ptr<altered_carbon::js::ACJsValue>::__nat", align 4
  store %"class.altered_carbon::js::JsValueRef"* %0, %"class.altered_carbon::js::JsValueRef"** %3, align 8
  store %"class.altered_carbon::js::ACJsValue"* %1, %"class.altered_carbon::js::ACJsValue"** %4, align 8
  %6 = load %"class.altered_carbon::js::JsValueRef"*, %"class.altered_carbon::js::JsValueRef"** %3, align 8
  %7 = bitcast %"class.altered_carbon::js::JsValueRef"* %6 to i8*
  %8 = getelementptr inbounds i8, i8* %7, i64 8
  %9 = bitcast i8* %8 to %"class.std::__1::shared_ptr"*
  %10 = load %"class.altered_carbon::js::ACJsValue"*, %"class.altered_carbon::js::ACJsValue"** %4, align 8
  %11 = bitcast %"struct.std::__1::shared_ptr<altered_carbon::js::ACJsValue>::__nat"* %5 to i8*
  call void @llvm.memset.p0i8.i64(i8* align 4 %11, i8 0, i64 4, i1 false)
  %12 = getelementptr inbounds %"struct.std::__1::shared_ptr<altered_carbon::js::ACJsValue>::__nat", %"struct.std::__1::shared_ptr<altered_carbon::js::ACJsValue>::__nat"* %5, i32 0, i32 0
  %13 = load i32, i32* %12, align 4
  call void @_ZNSt3__110shared_ptrIN14altered_carbon2js9ACJsValueEEC2IS3_EEPT_NS_9enable_ifIXsr14is_convertibleIS7_PS3_EE5valueENS4_5__natEE4typeE(%"class.std::__1::shared_ptr"* %9, %"class.altered_carbon::js::ACJsValue"* %10, i32 %13)
  %14 = bitcast %"class.altered_carbon::js::JsValueRef"* %6 to i32 (...)***
  store i32 (...)** bitcast (i8** getelementptr inbounds ({ [4 x i8*] }, { [4 x i8*] }* @_ZTVN14altered_carbon2js10JsValueRefE, i32 0, inrange i32 0, i32 2) to i32 (...)**), i32 (...)*** %14, align 8
  ret void
}

; Function Attrs: noinline nounwind optnone ssp uwtable
define linkonce_odr void @_ZNSt3__110shared_ptrIN14altered_carbon2js9ACJsValueEEC2IS3_EEPT_NS_9enable_ifIXsr14is_convertibleIS7_PS3_EE5valueENS4_5__natEE4typeE(%"class.std::__1::shared_ptr"*, %"class.altered_carbon::js::ACJsValue"*, i32) unnamed_addr #0 align 2 {
  %4 = alloca %"struct.std::__1::__compressed_pair_elem.14"*, align 8
  %5 = alloca %"class.std::__1::__compressed_pair.13"*, align 8
  %6 = alloca %"struct.std::__1::__compressed_pair_elem.14"*, align 8
  %7 = alloca %"class.std::__1::__compressed_pair.13"*, align 8
  %8 = alloca %"class.std::__1::unique_ptr"*, align 8
  %9 = alloca %"class.altered_carbon::js::ACJsValue"*, align 8
  %10 = alloca %"struct.std::__1::default_delete"*, align 8
  %11 = alloca %"class.altered_carbon::js::ACJsValue"**, align 8
  %12 = alloca %"struct.std::__1::__compressed_pair_elem.14"*, align 8
  %13 = alloca %"class.altered_carbon::js::ACJsValue"**, align 8
  %14 = alloca %"struct.std::__1::default_delete"*, align 8
  %15 = alloca %"struct.std::__1::default_delete"*, align 8
  %16 = alloca %"struct.std::__1::__compressed_pair_elem.15"*, align 8
  %17 = alloca %"struct.std::__1::default_delete"*, align 8
  %18 = alloca %"class.altered_carbon::js::ACJsValue"**, align 8
  %19 = alloca %"class.std::__1::__compressed_pair.13"*, align 8
  %20 = alloca %"class.altered_carbon::js::ACJsValue"**, align 8
  %21 = alloca %"struct.std::__1::default_delete"*, align 8
  %22 = alloca %"class.std::__1::__compressed_pair.13"*, align 8
  %23 = alloca %"class.altered_carbon::js::ACJsValue"**, align 8
  %24 = alloca %"struct.std::__1::default_delete"*, align 8
  %25 = alloca %"class.std::__1::allocator.19"*, align 8
  %26 = alloca %"class.std::__1::__compressed_pair.13"*, align 8
  %27 = alloca %"struct.std::__1::__compressed_pair_elem.17"*, align 8
  %28 = alloca %"class.std::__1::__compressed_pair.13"*, align 8
  %29 = alloca %"class.std::__1::allocator.19"*, align 8
  %30 = alloca %"class.std::__1::allocator.19"*, align 8
  %31 = alloca %"struct.std::__1::__compressed_pair_elem.18"*, align 8
  %32 = alloca %"class.std::__1::allocator.19"*, align 8
  %33 = alloca %"class.std::__1::__compressed_pair.13"*, align 8
  %34 = alloca %"class.std::__1::__compressed_pair.16"*, align 8
  %35 = alloca %"class.std::__1::__compressed_pair.13"*, align 8
  %36 = alloca %"class.std::__1::allocator.19"*, align 8
  %37 = alloca %"class.std::__1::__compressed_pair.16"*, align 8
  %38 = alloca %"class.std::__1::__compressed_pair.13"*, align 8
  %39 = alloca %"class.std::__1::allocator.19"*, align 8
  %40 = alloca %"class.std::__1::__shared_count"*, align 8
  %41 = alloca i64, align 8
  %42 = alloca %"class.std::__1::__shared_weak_count"*, align 8
  %43 = alloca i64, align 8
  %44 = alloca %"struct.std::__1::default_delete", align 1
  %45 = alloca %"class.std::__1::allocator.19", align 1
  %46 = alloca %"class.std::__1::__shared_ptr_pointer"*, align 8
  %47 = alloca %"class.altered_carbon::js::ACJsValue"*, align 8
  %48 = alloca %"class.std::__1::__compressed_pair.13", align 8
  %49 = alloca %"struct.std::__1::default_delete", align 1
  %50 = alloca %"class.std::__1::allocator.19", align 1
  %51 = alloca %"class.std::__1::__shared_ptr_pointer"*, align 8
  %52 = alloca %"class.altered_carbon::js::ACJsValue"*, align 8
  %53 = alloca %"class.std::__1::allocator.19"*, align 8
  %54 = alloca %"class.std::__1::allocator.19"*, align 8
  %55 = alloca %"struct.std::__1::__compressed_pair_elem.15"*, align 8
  %56 = alloca %"class.std::__1::__compressed_pair.13"*, align 8
  %57 = alloca %"struct.std::__1::__compressed_pair_elem.14"*, align 8
  %58 = alloca %"class.std::__1::__compressed_pair.13"*, align 8
  %59 = alloca %"struct.std::__1::default_delete"*, align 8
  %60 = alloca %"class.altered_carbon::js::ACJsValue"*, align 8
  %61 = alloca %"struct.std::__1::__compressed_pair_elem.14"*, align 8
  %62 = alloca %"class.std::__1::__compressed_pair.13"*, align 8
  %63 = alloca %"class.std::__1::unique_ptr"*, align 8
  %64 = alloca %"class.altered_carbon::js::ACJsValue"*, align 8
  %65 = alloca %"class.altered_carbon::js::ACJsValue"*, align 8
  %66 = alloca %"class.std::__1::unique_ptr"*, align 8
  %67 = alloca %"class.std::__1::unique_ptr"*, align 8
  %68 = alloca %"class.altered_carbon::js::ACJsValue"**, align 8
  %69 = alloca %"struct.std::__1::__compressed_pair_elem.14"*, align 8
  %70 = alloca %"class.altered_carbon::js::ACJsValue"**, align 8
  %71 = alloca %"class.altered_carbon::js::ACJsValue"**, align 8
  %72 = alloca %"class.std::__1::__compressed_pair.13"*, align 8
  %73 = alloca %"class.altered_carbon::js::ACJsValue"**, align 8
  %74 = alloca %"class.std::__1::__compressed_pair.13"*, align 8
  %75 = alloca %"class.altered_carbon::js::ACJsValue"**, align 8
  %76 = alloca %"class.std::__1::unique_ptr"*, align 8
  %77 = alloca %"class.altered_carbon::js::ACJsValue"*, align 8
  %78 = alloca %"class.std::__1::unique_ptr"*, align 8
  %79 = alloca %"class.altered_carbon::js::ACJsValue"*, align 8
  %80 = alloca %"struct.std::__1::shared_ptr<altered_carbon::js::ACJsValue>::__nat", align 4
  %81 = alloca %"class.std::__1::shared_ptr"*, align 8
  %82 = alloca %"class.altered_carbon::js::ACJsValue"*, align 8
  %83 = alloca %"class.std::__1::unique_ptr", align 8
  %84 = alloca %"struct.std::__1::default_delete", align 1
  %85 = alloca %"class.std::__1::allocator.19", align 1
  %86 = getelementptr inbounds %"struct.std::__1::shared_ptr<altered_carbon::js::ACJsValue>::__nat", %"struct.std::__1::shared_ptr<altered_carbon::js::ACJsValue>::__nat"* %80, i32 0, i32 0
  store i32 %2, i32* %86, align 4
  store %"class.std::__1::shared_ptr"* %0, %"class.std::__1::shared_ptr"** %81, align 8
  store %"class.altered_carbon::js::ACJsValue"* %1, %"class.altered_carbon::js::ACJsValue"** %82, align 8
  %87 = load %"class.std::__1::shared_ptr"*, %"class.std::__1::shared_ptr"** %81, align 8
  %88 = getelementptr inbounds %"class.std::__1::shared_ptr", %"class.std::__1::shared_ptr"* %87, i32 0, i32 0
  %89 = load %"class.altered_carbon::js::ACJsValue"*, %"class.altered_carbon::js::ACJsValue"** %82, align 8
  store %"class.altered_carbon::js::ACJsValue"* %89, %"class.altered_carbon::js::ACJsValue"** %88, align 8
  %90 = load %"class.altered_carbon::js::ACJsValue"*, %"class.altered_carbon::js::ACJsValue"** %82, align 8
  store %"class.std::__1::unique_ptr"* %83, %"class.std::__1::unique_ptr"** %78, align 8
  store %"class.altered_carbon::js::ACJsValue"* %90, %"class.altered_carbon::js::ACJsValue"** %79, align 8
  %91 = load %"class.std::__1::unique_ptr"*, %"class.std::__1::unique_ptr"** %78, align 8
  %92 = load %"class.altered_carbon::js::ACJsValue"*, %"class.altered_carbon::js::ACJsValue"** %79, align 8
  store %"class.std::__1::unique_ptr"* %91, %"class.std::__1::unique_ptr"** %76, align 8
  store %"class.altered_carbon::js::ACJsValue"* %92, %"class.altered_carbon::js::ACJsValue"** %77, align 8
  %93 = load %"class.std::__1::unique_ptr"*, %"class.std::__1::unique_ptr"** %76, align 8
  %94 = getelementptr inbounds %"class.std::__1::unique_ptr", %"class.std::__1::unique_ptr"* %93, i32 0, i32 0
  store %"class.std::__1::__compressed_pair.13"* %94, %"class.std::__1::__compressed_pair.13"** %74, align 8
  store %"class.altered_carbon::js::ACJsValue"** %77, %"class.altered_carbon::js::ACJsValue"*** %75, align 8
  %95 = load %"class.std::__1::__compressed_pair.13"*, %"class.std::__1::__compressed_pair.13"** %74, align 8
  %96 = load %"class.altered_carbon::js::ACJsValue"**, %"class.altered_carbon::js::ACJsValue"*** %75, align 8
  store %"class.std::__1::__compressed_pair.13"* %95, %"class.std::__1::__compressed_pair.13"** %72, align 8
  store %"class.altered_carbon::js::ACJsValue"** %96, %"class.altered_carbon::js::ACJsValue"*** %73, align 8
  %97 = load %"class.std::__1::__compressed_pair.13"*, %"class.std::__1::__compressed_pair.13"** %72, align 8
  %98 = bitcast %"class.std::__1::__compressed_pair.13"* %97 to %"struct.std::__1::__compressed_pair_elem.14"*
  %99 = load %"class.altered_carbon::js::ACJsValue"**, %"class.altered_carbon::js::ACJsValue"*** %73, align 8
  store %"class.altered_carbon::js::ACJsValue"** %99, %"class.altered_carbon::js::ACJsValue"*** %71, align 8
  %100 = load %"class.altered_carbon::js::ACJsValue"**, %"class.altered_carbon::js::ACJsValue"*** %71, align 8
  store %"struct.std::__1::__compressed_pair_elem.14"* %98, %"struct.std::__1::__compressed_pair_elem.14"** %69, align 8
  store %"class.altered_carbon::js::ACJsValue"** %100, %"class.altered_carbon::js::ACJsValue"*** %70, align 8
  %101 = load %"struct.std::__1::__compressed_pair_elem.14"*, %"struct.std::__1::__compressed_pair_elem.14"** %69, align 8
  %102 = getelementptr inbounds %"struct.std::__1::__compressed_pair_elem.14", %"struct.std::__1::__compressed_pair_elem.14"* %101, i32 0, i32 0
  %103 = load %"class.altered_carbon::js::ACJsValue"**, %"class.altered_carbon::js::ACJsValue"*** %70, align 8
  store %"class.altered_carbon::js::ACJsValue"** %103, %"class.altered_carbon::js::ACJsValue"*** %68, align 8
  %104 = load %"class.altered_carbon::js::ACJsValue"**, %"class.altered_carbon::js::ACJsValue"*** %68, align 8
  %105 = load %"class.altered_carbon::js::ACJsValue"*, %"class.altered_carbon::js::ACJsValue"** %104, align 8
  store %"class.altered_carbon::js::ACJsValue"* %105, %"class.altered_carbon::js::ACJsValue"** %102, align 8
  %106 = bitcast %"class.std::__1::__compressed_pair.13"* %97 to %"struct.std::__1::__compressed_pair_elem.15"*
  %107 = call i8* @_Znwm(i64 32) #11
  %108 = bitcast i8* %107 to %"class.std::__1::__shared_ptr_pointer"*
  %109 = load %"class.altered_carbon::js::ACJsValue"*, %"class.altered_carbon::js::ACJsValue"** %82, align 8
  store %"class.std::__1::allocator.19"* %85, %"class.std::__1::allocator.19"** %54, align 8
  %110 = load %"class.std::__1::allocator.19"*, %"class.std::__1::allocator.19"** %54, align 8
  store %"class.std::__1::allocator.19"* %110, %"class.std::__1::allocator.19"** %53, align 8
  %111 = load %"class.std::__1::allocator.19"*, %"class.std::__1::allocator.19"** %53, align 8
  store %"class.std::__1::__shared_ptr_pointer"* %108, %"class.std::__1::__shared_ptr_pointer"** %51, align 8
  store %"class.altered_carbon::js::ACJsValue"* %109, %"class.altered_carbon::js::ACJsValue"** %52, align 8
  %112 = load %"class.std::__1::__shared_ptr_pointer"*, %"class.std::__1::__shared_ptr_pointer"** %51, align 8
  %113 = load %"class.altered_carbon::js::ACJsValue"*, %"class.altered_carbon::js::ACJsValue"** %52, align 8
  store %"class.std::__1::__shared_ptr_pointer"* %112, %"class.std::__1::__shared_ptr_pointer"** %46, align 8
  store %"class.altered_carbon::js::ACJsValue"* %113, %"class.altered_carbon::js::ACJsValue"** %47, align 8
  %114 = load %"class.std::__1::__shared_ptr_pointer"*, %"class.std::__1::__shared_ptr_pointer"** %46, align 8
  %115 = bitcast %"class.std::__1::__shared_ptr_pointer"* %114 to %"class.std::__1::__shared_weak_count"*
  store %"class.std::__1::__shared_weak_count"* %115, %"class.std::__1::__shared_weak_count"** %42, align 8
  store i64 0, i64* %43, align 8
  %116 = load %"class.std::__1::__shared_weak_count"*, %"class.std::__1::__shared_weak_count"** %42, align 8
  %117 = bitcast %"class.std::__1::__shared_weak_count"* %116 to %"class.std::__1::__shared_count"*
  %118 = load i64, i64* %43, align 8
  store %"class.std::__1::__shared_count"* %117, %"class.std::__1::__shared_count"** %40, align 8
  store i64 %118, i64* %41, align 8
  %119 = load %"class.std::__1::__shared_count"*, %"class.std::__1::__shared_count"** %40, align 8
  %120 = bitcast %"class.std::__1::__shared_count"* %119 to i32 (...)***
  store i32 (...)** bitcast (i8** getelementptr inbounds ({ [5 x i8*] }, { [5 x i8*] }* @_ZTVNSt3__114__shared_countE, i32 0, inrange i32 0, i32 2) to i32 (...)**), i32 (...)*** %120, align 8
  %121 = getelementptr inbounds %"class.std::__1::__shared_count", %"class.std::__1::__shared_count"* %119, i32 0, i32 1
  %122 = load i64, i64* %41, align 8
  store i64 %122, i64* %121, align 8
  %123 = bitcast %"class.std::__1::__shared_weak_count"* %116 to i32 (...)***
  store i32 (...)** bitcast (i8** getelementptr inbounds ({ [7 x i8*] }, { [7 x i8*] }* @_ZTVNSt3__119__shared_weak_countE, i32 0, inrange i32 0, i32 2) to i32 (...)**), i32 (...)*** %123, align 8
  %124 = getelementptr inbounds %"class.std::__1::__shared_weak_count", %"class.std::__1::__shared_weak_count"* %116, i32 0, i32 1
  %125 = load i64, i64* %43, align 8
  store i64 %125, i64* %124, align 8
  %126 = bitcast %"class.std::__1::__shared_ptr_pointer"* %114 to i32 (...)***
  store i32 (...)** bitcast (i8** getelementptr inbounds ({ [7 x i8*] }, { [7 x i8*] }* @_ZTVNSt3__120__shared_ptr_pointerIPN14altered_carbon2js9ACJsValueENS_14default_deleteIS3_EENS_9allocatorIS3_EEEE, i32 0, inrange i32 0, i32 2) to i32 (...)**), i32 (...)*** %126, align 8
  %127 = getelementptr inbounds %"class.std::__1::__shared_ptr_pointer", %"class.std::__1::__shared_ptr_pointer"* %114, i32 0, i32 1
  store %"struct.std::__1::default_delete"* %44, %"struct.std::__1::default_delete"** %10, align 8
  %128 = load %"struct.std::__1::default_delete"*, %"struct.std::__1::default_delete"** %10, align 8
  store %"class.std::__1::__compressed_pair.13"* %48, %"class.std::__1::__compressed_pair.13"** %22, align 8
  store %"class.altered_carbon::js::ACJsValue"** %47, %"class.altered_carbon::js::ACJsValue"*** %23, align 8
  store %"struct.std::__1::default_delete"* %128, %"struct.std::__1::default_delete"** %24, align 8
  %129 = load %"class.std::__1::__compressed_pair.13"*, %"class.std::__1::__compressed_pair.13"** %22, align 8
  %130 = load %"class.altered_carbon::js::ACJsValue"**, %"class.altered_carbon::js::ACJsValue"*** %23, align 8
  %131 = load %"struct.std::__1::default_delete"*, %"struct.std::__1::default_delete"** %24, align 8
  store %"class.std::__1::__compressed_pair.13"* %129, %"class.std::__1::__compressed_pair.13"** %19, align 8
  store %"class.altered_carbon::js::ACJsValue"** %130, %"class.altered_carbon::js::ACJsValue"*** %20, align 8
  store %"struct.std::__1::default_delete"* %131, %"struct.std::__1::default_delete"** %21, align 8
  %132 = load %"class.std::__1::__compressed_pair.13"*, %"class.std::__1::__compressed_pair.13"** %19, align 8
  %133 = bitcast %"class.std::__1::__compressed_pair.13"* %132 to %"struct.std::__1::__compressed_pair_elem.14"*
  %134 = load %"class.altered_carbon::js::ACJsValue"**, %"class.altered_carbon::js::ACJsValue"*** %20, align 8
  store %"class.altered_carbon::js::ACJsValue"** %134, %"class.altered_carbon::js::ACJsValue"*** %18, align 8
  %135 = load %"class.altered_carbon::js::ACJsValue"**, %"class.altered_carbon::js::ACJsValue"*** %18, align 8
  store %"struct.std::__1::__compressed_pair_elem.14"* %133, %"struct.std::__1::__compressed_pair_elem.14"** %12, align 8
  store %"class.altered_carbon::js::ACJsValue"** %135, %"class.altered_carbon::js::ACJsValue"*** %13, align 8
  %136 = load %"struct.std::__1::__compressed_pair_elem.14"*, %"struct.std::__1::__compressed_pair_elem.14"** %12, align 8
  %137 = getelementptr inbounds %"struct.std::__1::__compressed_pair_elem.14", %"struct.std::__1::__compressed_pair_elem.14"* %136, i32 0, i32 0
  %138 = load %"class.altered_carbon::js::ACJsValue"**, %"class.altered_carbon::js::ACJsValue"*** %13, align 8
  store %"class.altered_carbon::js::ACJsValue"** %138, %"class.altered_carbon::js::ACJsValue"*** %11, align 8
  %139 = load %"class.altered_carbon::js::ACJsValue"**, %"class.altered_carbon::js::ACJsValue"*** %11, align 8
  %140 = load %"class.altered_carbon::js::ACJsValue"*, %"class.altered_carbon::js::ACJsValue"** %139, align 8
  store %"class.altered_carbon::js::ACJsValue"* %140, %"class.altered_carbon::js::ACJsValue"** %137, align 8
  %141 = bitcast %"class.std::__1::__compressed_pair.13"* %132 to %"struct.std::__1::__compressed_pair_elem.15"*
  %142 = load %"struct.std::__1::default_delete"*, %"struct.std::__1::default_delete"** %21, align 8
  store %"struct.std::__1::default_delete"* %142, %"struct.std::__1::default_delete"** %14, align 8
  %143 = load %"struct.std::__1::default_delete"*, %"struct.std::__1::default_delete"** %14, align 8
  store %"struct.std::__1::__compressed_pair_elem.15"* %141, %"struct.std::__1::__compressed_pair_elem.15"** %16, align 8
  store %"struct.std::__1::default_delete"* %143, %"struct.std::__1::default_delete"** %17, align 8
  %144 = load %"struct.std::__1::__compressed_pair_elem.15"*, %"struct.std::__1::__compressed_pair_elem.15"** %16, align 8
  %145 = bitcast %"struct.std::__1::__compressed_pair_elem.15"* %144 to %"struct.std::__1::default_delete"*
  %146 = load %"struct.std::__1::default_delete"*, %"struct.std::__1::default_delete"** %17, align 8
  store %"struct.std::__1::default_delete"* %146, %"struct.std::__1::default_delete"** %15, align 8
  %147 = load %"struct.std::__1::default_delete"*, %"struct.std::__1::default_delete"** %15, align 8
  store %"class.std::__1::allocator.19"* %45, %"class.std::__1::allocator.19"** %25, align 8
  %148 = load %"class.std::__1::allocator.19"*, %"class.std::__1::allocator.19"** %25, align 8
  store %"class.std::__1::__compressed_pair.16"* %127, %"class.std::__1::__compressed_pair.16"** %37, align 8
  store %"class.std::__1::__compressed_pair.13"* %48, %"class.std::__1::__compressed_pair.13"** %38, align 8
  store %"class.std::__1::allocator.19"* %148, %"class.std::__1::allocator.19"** %39, align 8
  %149 = load %"class.std::__1::__compressed_pair.16"*, %"class.std::__1::__compressed_pair.16"** %37, align 8
  %150 = load %"class.std::__1::__compressed_pair.13"*, %"class.std::__1::__compressed_pair.13"** %38, align 8
  %151 = load %"class.std::__1::allocator.19"*, %"class.std::__1::allocator.19"** %39, align 8
  store %"class.std::__1::__compressed_pair.16"* %149, %"class.std::__1::__compressed_pair.16"** %34, align 8
  store %"class.std::__1::__compressed_pair.13"* %150, %"class.std::__1::__compressed_pair.13"** %35, align 8
  store %"class.std::__1::allocator.19"* %151, %"class.std::__1::allocator.19"** %36, align 8
  %152 = load %"class.std::__1::__compressed_pair.16"*, %"class.std::__1::__compressed_pair.16"** %34, align 8
  %153 = bitcast %"class.std::__1::__compressed_pair.16"* %152 to %"struct.std::__1::__compressed_pair_elem.17"*
  %154 = load %"class.std::__1::__compressed_pair.13"*, %"class.std::__1::__compressed_pair.13"** %35, align 8
  store %"class.std::__1::__compressed_pair.13"* %154, %"class.std::__1::__compressed_pair.13"** %33, align 8
  %155 = load %"class.std::__1::__compressed_pair.13"*, %"class.std::__1::__compressed_pair.13"** %33, align 8
  store %"struct.std::__1::__compressed_pair_elem.17"* %153, %"struct.std::__1::__compressed_pair_elem.17"** %27, align 8
  store %"class.std::__1::__compressed_pair.13"* %155, %"class.std::__1::__compressed_pair.13"** %28, align 8
  %156 = load %"struct.std::__1::__compressed_pair_elem.17"*, %"struct.std::__1::__compressed_pair_elem.17"** %27, align 8
  %157 = getelementptr inbounds %"struct.std::__1::__compressed_pair_elem.17", %"struct.std::__1::__compressed_pair_elem.17"* %156, i32 0, i32 0
  %158 = load %"class.std::__1::__compressed_pair.13"*, %"class.std::__1::__compressed_pair.13"** %28, align 8
  store %"class.std::__1::__compressed_pair.13"* %158, %"class.std::__1::__compressed_pair.13"** %26, align 8
  %159 = load %"class.std::__1::__compressed_pair.13"*, %"class.std::__1::__compressed_pair.13"** %26, align 8
  %160 = bitcast %"class.std::__1::__compressed_pair.13"* %157 to i8*
  %161 = bitcast %"class.std::__1::__compressed_pair.13"* %159 to i8*
  call void @llvm.memcpy.p0i8.p0i8.i64(i8* align 8 %160, i8* align 8 %161, i64 8, i1 false)
  %162 = bitcast %"class.std::__1::__compressed_pair.16"* %152 to %"struct.std::__1::__compressed_pair_elem.18"*
  %163 = load %"class.std::__1::allocator.19"*, %"class.std::__1::allocator.19"** %36, align 8
  store %"class.std::__1::allocator.19"* %163, %"class.std::__1::allocator.19"** %29, align 8
  %164 = load %"class.std::__1::allocator.19"*, %"class.std::__1::allocator.19"** %29, align 8
  store %"struct.std::__1::__compressed_pair_elem.18"* %162, %"struct.std::__1::__compressed_pair_elem.18"** %31, align 8
  store %"class.std::__1::allocator.19"* %164, %"class.std::__1::allocator.19"** %32, align 8
  %165 = load %"struct.std::__1::__compressed_pair_elem.18"*, %"struct.std::__1::__compressed_pair_elem.18"** %31, align 8
  %166 = bitcast %"struct.std::__1::__compressed_pair_elem.18"* %165 to %"class.std::__1::allocator.19"*
  %167 = load %"class.std::__1::allocator.19"*, %"class.std::__1::allocator.19"** %32, align 8
  store %"class.std::__1::allocator.19"* %167, %"class.std::__1::allocator.19"** %30, align 8
  %168 = load %"class.std::__1::allocator.19"*, %"class.std::__1::allocator.19"** %30, align 8
  %169 = bitcast %"class.std::__1::__shared_ptr_pointer"* %108 to %"class.std::__1::__shared_weak_count"*
  %170 = getelementptr inbounds %"class.std::__1::shared_ptr", %"class.std::__1::shared_ptr"* %87, i32 0, i32 1
  store %"class.std::__1::__shared_weak_count"* %169, %"class.std::__1::__shared_weak_count"** %170, align 8
  store %"class.std::__1::unique_ptr"* %83, %"class.std::__1::unique_ptr"** %8, align 8
  %171 = load %"class.std::__1::unique_ptr"*, %"class.std::__1::unique_ptr"** %8, align 8
  %172 = getelementptr inbounds %"class.std::__1::unique_ptr", %"class.std::__1::unique_ptr"* %171, i32 0, i32 0
  store %"class.std::__1::__compressed_pair.13"* %172, %"class.std::__1::__compressed_pair.13"** %7, align 8
  %173 = load %"class.std::__1::__compressed_pair.13"*, %"class.std::__1::__compressed_pair.13"** %7, align 8
  %174 = bitcast %"class.std::__1::__compressed_pair.13"* %173 to %"struct.std::__1::__compressed_pair_elem.14"*
  store %"struct.std::__1::__compressed_pair_elem.14"* %174, %"struct.std::__1::__compressed_pair_elem.14"** %6, align 8
  %175 = load %"struct.std::__1::__compressed_pair_elem.14"*, %"struct.std::__1::__compressed_pair_elem.14"** %6, align 8
  %176 = getelementptr inbounds %"struct.std::__1::__compressed_pair_elem.14", %"struct.std::__1::__compressed_pair_elem.14"* %175, i32 0, i32 0
  %177 = load %"class.altered_carbon::js::ACJsValue"*, %"class.altered_carbon::js::ACJsValue"** %176, align 8
  store %"class.altered_carbon::js::ACJsValue"* %177, %"class.altered_carbon::js::ACJsValue"** %9, align 8
  %178 = getelementptr inbounds %"class.std::__1::unique_ptr", %"class.std::__1::unique_ptr"* %171, i32 0, i32 0
  store %"class.std::__1::__compressed_pair.13"* %178, %"class.std::__1::__compressed_pair.13"** %5, align 8
  %179 = load %"class.std::__1::__compressed_pair.13"*, %"class.std::__1::__compressed_pair.13"** %5, align 8
  %180 = bitcast %"class.std::__1::__compressed_pair.13"* %179 to %"struct.std::__1::__compressed_pair_elem.14"*
  store %"struct.std::__1::__compressed_pair_elem.14"* %180, %"struct.std::__1::__compressed_pair_elem.14"** %4, align 8
  %181 = load %"struct.std::__1::__compressed_pair_elem.14"*, %"struct.std::__1::__compressed_pair_elem.14"** %4, align 8
  %182 = getelementptr inbounds %"struct.std::__1::__compressed_pair_elem.14", %"struct.std::__1::__compressed_pair_elem.14"* %181, i32 0, i32 0
  store %"class.altered_carbon::js::ACJsValue"* null, %"class.altered_carbon::js::ACJsValue"** %182, align 8
  %183 = load %"class.altered_carbon::js::ACJsValue"*, %"class.altered_carbon::js::ACJsValue"** %9, align 8
  %184 = load %"class.altered_carbon::js::ACJsValue"*, %"class.altered_carbon::js::ACJsValue"** %82, align 8
  %185 = load %"class.altered_carbon::js::ACJsValue"*, %"class.altered_carbon::js::ACJsValue"** %82, align 8
  call void (%"class.std::__1::shared_ptr"*, ...) @_ZNSt3__110shared_ptrIN14altered_carbon2js9ACJsValueEE18__enable_weak_thisEz(%"class.std::__1::shared_ptr"* %87, %"class.altered_carbon::js::ACJsValue"* %184, %"class.altered_carbon::js::ACJsValue"* %185) #5
  store %"class.std::__1::unique_ptr"* %83, %"class.std::__1::unique_ptr"** %67, align 8
  %186 = load %"class.std::__1::unique_ptr"*, %"class.std::__1::unique_ptr"** %67, align 8
  store %"class.std::__1::unique_ptr"* %186, %"class.std::__1::unique_ptr"** %66, align 8
  %187 = load %"class.std::__1::unique_ptr"*, %"class.std::__1::unique_ptr"** %66, align 8
  store %"class.std::__1::unique_ptr"* %187, %"class.std::__1::unique_ptr"** %63, align 8
  store %"class.altered_carbon::js::ACJsValue"* null, %"class.altered_carbon::js::ACJsValue"** %64, align 8
  %188 = load %"class.std::__1::unique_ptr"*, %"class.std::__1::unique_ptr"** %63, align 8
  %189 = getelementptr inbounds %"class.std::__1::unique_ptr", %"class.std::__1::unique_ptr"* %188, i32 0, i32 0
  store %"class.std::__1::__compressed_pair.13"* %189, %"class.std::__1::__compressed_pair.13"** %62, align 8
  %190 = load %"class.std::__1::__compressed_pair.13"*, %"class.std::__1::__compressed_pair.13"** %62, align 8
  %191 = bitcast %"class.std::__1::__compressed_pair.13"* %190 to %"struct.std::__1::__compressed_pair_elem.14"*
  store %"struct.std::__1::__compressed_pair_elem.14"* %191, %"struct.std::__1::__compressed_pair_elem.14"** %61, align 8
  %192 = load %"struct.std::__1::__compressed_pair_elem.14"*, %"struct.std::__1::__compressed_pair_elem.14"** %61, align 8
  %193 = getelementptr inbounds %"struct.std::__1::__compressed_pair_elem.14", %"struct.std::__1::__compressed_pair_elem.14"* %192, i32 0, i32 0
  %194 = load %"class.altered_carbon::js::ACJsValue"*, %"class.altered_carbon::js::ACJsValue"** %193, align 8
  store %"class.altered_carbon::js::ACJsValue"* %194, %"class.altered_carbon::js::ACJsValue"** %65, align 8
  %195 = load %"class.altered_carbon::js::ACJsValue"*, %"class.altered_carbon::js::ACJsValue"** %64, align 8
  %196 = getelementptr inbounds %"class.std::__1::unique_ptr", %"class.std::__1::unique_ptr"* %188, i32 0, i32 0
  store %"class.std::__1::__compressed_pair.13"* %196, %"class.std::__1::__compressed_pair.13"** %58, align 8
  %197 = load %"class.std::__1::__compressed_pair.13"*, %"class.std::__1::__compressed_pair.13"** %58, align 8
  %198 = bitcast %"class.std::__1::__compressed_pair.13"* %197 to %"struct.std::__1::__compressed_pair_elem.14"*
  store %"struct.std::__1::__compressed_pair_elem.14"* %198, %"struct.std::__1::__compressed_pair_elem.14"** %57, align 8
  %199 = load %"struct.std::__1::__compressed_pair_elem.14"*, %"struct.std::__1::__compressed_pair_elem.14"** %57, align 8
  %200 = getelementptr inbounds %"struct.std::__1::__compressed_pair_elem.14", %"struct.std::__1::__compressed_pair_elem.14"* %199, i32 0, i32 0
  store %"class.altered_carbon::js::ACJsValue"* %195, %"class.altered_carbon::js::ACJsValue"** %200, align 8
  %201 = load %"class.altered_carbon::js::ACJsValue"*, %"class.altered_carbon::js::ACJsValue"** %65, align 8
  %202 = icmp ne %"class.altered_carbon::js::ACJsValue"* %201, null
  br i1 %202, label %203, label %219

; <label>:203:                                    ; preds = %3
  %204 = getelementptr inbounds %"class.std::__1::unique_ptr", %"class.std::__1::unique_ptr"* %188, i32 0, i32 0
  store %"class.std::__1::__compressed_pair.13"* %204, %"class.std::__1::__compressed_pair.13"** %56, align 8
  %205 = load %"class.std::__1::__compressed_pair.13"*, %"class.std::__1::__compressed_pair.13"** %56, align 8
  %206 = bitcast %"class.std::__1::__compressed_pair.13"* %205 to %"struct.std::__1::__compressed_pair_elem.15"*
  store %"struct.std::__1::__compressed_pair_elem.15"* %206, %"struct.std::__1::__compressed_pair_elem.15"** %55, align 8
  %207 = load %"struct.std::__1::__compressed_pair_elem.15"*, %"struct.std::__1::__compressed_pair_elem.15"** %55, align 8
  %208 = bitcast %"struct.std::__1::__compressed_pair_elem.15"* %207 to %"struct.std::__1::default_delete"*
  %209 = load %"class.altered_carbon::js::ACJsValue"*, %"class.altered_carbon::js::ACJsValue"** %65, align 8
  store %"struct.std::__1::default_delete"* %208, %"struct.std::__1::default_delete"** %59, align 8
  store %"class.altered_carbon::js::ACJsValue"* %209, %"class.altered_carbon::js::ACJsValue"** %60, align 8
  %210 = load %"struct.std::__1::default_delete"*, %"struct.std::__1::default_delete"** %59, align 8
  %211 = load %"class.altered_carbon::js::ACJsValue"*, %"class.altered_carbon::js::ACJsValue"** %60, align 8
  %212 = icmp eq %"class.altered_carbon::js::ACJsValue"* %211, null
  br i1 %212, label %218, label %213

; <label>:213:                                    ; preds = %203
  %214 = bitcast %"class.altered_carbon::js::ACJsValue"* %211 to void (%"class.altered_carbon::js::ACJsValue"*)***
  %215 = load void (%"class.altered_carbon::js::ACJsValue"*)**, void (%"class.altered_carbon::js::ACJsValue"*)*** %214, align 8
  %216 = getelementptr inbounds void (%"class.altered_carbon::js::ACJsValue"*)*, void (%"class.altered_carbon::js::ACJsValue"*)** %215, i64 1
  %217 = load void (%"class.altered_carbon::js::ACJsValue"*)*, void (%"class.altered_carbon::js::ACJsValue"*)** %216, align 8
  call void %217(%"class.altered_carbon::js::ACJsValue"* %211) #5
  br label %218

; <label>:218:                                    ; preds = %213, %203
  br label %219

; <label>:219:                                    ; preds = %3, %218
  ret void
}

; Function Attrs: noinline nounwind optnone ssp uwtable
define void @_ZN14altered_carbon2js10JsValueRefC2ERKNSt3__110shared_ptrINS0_9ACJsValueEEE(%"class.altered_carbon::js::JsValueRef"*, %"class.std::__1::shared_ptr"* dereferenceable(16)) unnamed_addr #0 align 2 {
  %3 = alloca i64*, align 8
  %4 = alloca i64, align 8
  %5 = alloca i64, align 8
  %6 = alloca %"class.std::__1::__shared_count"*, align 8
  %7 = alloca %"class.std::__1::__shared_weak_count"*, align 8
  %8 = alloca %"class.std::__1::shared_ptr"*, align 8
  %9 = alloca %"class.std::__1::shared_ptr"*, align 8
  %10 = alloca %"class.altered_carbon::js::JsValueRef"*, align 8
  %11 = alloca %"class.std::__1::shared_ptr"*, align 8
  store %"class.altered_carbon::js::JsValueRef"* %0, %"class.altered_carbon::js::JsValueRef"** %10, align 8
  store %"class.std::__1::shared_ptr"* %1, %"class.std::__1::shared_ptr"** %11, align 8
  %12 = load %"class.altered_carbon::js::JsValueRef"*, %"class.altered_carbon::js::JsValueRef"** %10, align 8
  %13 = bitcast %"class.altered_carbon::js::JsValueRef"* %12 to i8*
  %14 = getelementptr inbounds i8, i8* %13, i64 8
  %15 = bitcast i8* %14 to %"class.std::__1::shared_ptr"*
  %16 = load %"class.std::__1::shared_ptr"*, %"class.std::__1::shared_ptr"** %11, align 8
  store %"class.std::__1::shared_ptr"* %15, %"class.std::__1::shared_ptr"** %8, align 8
  store %"class.std::__1::shared_ptr"* %16, %"class.std::__1::shared_ptr"** %9, align 8
  %17 = load %"class.std::__1::shared_ptr"*, %"class.std::__1::shared_ptr"** %8, align 8
  %18 = getelementptr inbounds %"class.std::__1::shared_ptr", %"class.std::__1::shared_ptr"* %17, i32 0, i32 0
  %19 = load %"class.std::__1::shared_ptr"*, %"class.std::__1::shared_ptr"** %9, align 8
  %20 = getelementptr inbounds %"class.std::__1::shared_ptr", %"class.std::__1::shared_ptr"* %19, i32 0, i32 0
  %21 = load %"class.altered_carbon::js::ACJsValue"*, %"class.altered_carbon::js::ACJsValue"** %20, align 8
  store %"class.altered_carbon::js::ACJsValue"* %21, %"class.altered_carbon::js::ACJsValue"** %18, align 8
  %22 = getelementptr inbounds %"class.std::__1::shared_ptr", %"class.std::__1::shared_ptr"* %17, i32 0, i32 1
  %23 = load %"class.std::__1::shared_ptr"*, %"class.std::__1::shared_ptr"** %9, align 8
  %24 = getelementptr inbounds %"class.std::__1::shared_ptr", %"class.std::__1::shared_ptr"* %23, i32 0, i32 1
  %25 = load %"class.std::__1::__shared_weak_count"*, %"class.std::__1::__shared_weak_count"** %24, align 8
  store %"class.std::__1::__shared_weak_count"* %25, %"class.std::__1::__shared_weak_count"** %22, align 8
  %26 = getelementptr inbounds %"class.std::__1::shared_ptr", %"class.std::__1::shared_ptr"* %17, i32 0, i32 1
  %27 = load %"class.std::__1::__shared_weak_count"*, %"class.std::__1::__shared_weak_count"** %26, align 8
  %28 = icmp ne %"class.std::__1::__shared_weak_count"* %27, null
  br i1 %28, label %29, label %41

; <label>:29:                                     ; preds = %2
  %30 = getelementptr inbounds %"class.std::__1::shared_ptr", %"class.std::__1::shared_ptr"* %17, i32 0, i32 1
  %31 = load %"class.std::__1::__shared_weak_count"*, %"class.std::__1::__shared_weak_count"** %30, align 8
  store %"class.std::__1::__shared_weak_count"* %31, %"class.std::__1::__shared_weak_count"** %7, align 8
  %32 = load %"class.std::__1::__shared_weak_count"*, %"class.std::__1::__shared_weak_count"** %7, align 8
  %33 = bitcast %"class.std::__1::__shared_weak_count"* %32 to %"class.std::__1::__shared_count"*
  store %"class.std::__1::__shared_count"* %33, %"class.std::__1::__shared_count"** %6, align 8
  %34 = load %"class.std::__1::__shared_count"*, %"class.std::__1::__shared_count"** %6, align 8
  %35 = getelementptr inbounds %"class.std::__1::__shared_count", %"class.std::__1::__shared_count"* %34, i32 0, i32 1
  store i64* %35, i64** %3, align 8
  %36 = load i64*, i64** %3, align 8
  store i64 1, i64* %4, align 8
  %37 = load i64, i64* %4, align 8
  %38 = atomicrmw add i64* %36, i64 %37 monotonic
  %39 = add i64 %38, %37
  store i64 %39, i64* %5, align 8
  %40 = load i64, i64* %5, align 8
  br label %41

; <label>:41:                                     ; preds = %2, %29
  %42 = bitcast %"class.altered_carbon::js::JsValueRef"* %12 to i32 (...)***
  store i32 (...)** bitcast (i8** getelementptr inbounds ({ [4 x i8*] }, { [4 x i8*] }* @_ZTVN14altered_carbon2js10JsValueRefE, i32 0, inrange i32 0, i32 2) to i32 (...)**), i32 (...)*** %42, align 8
  ret void
}

; Function Attrs: noinline nounwind optnone ssp uwtable
define void @_ZN14altered_carbon2js10JsValueRefC1ERKNSt3__110shared_ptrINS0_9ACJsValueEEE(%"class.altered_carbon::js::JsValueRef"*, %"class.std::__1::shared_ptr"* dereferenceable(16)) unnamed_addr #0 align 2 {
  %3 = alloca %"class.altered_carbon::js::JsValueRef"*, align 8
  %4 = alloca %"class.std::__1::shared_ptr"*, align 8
  store %"class.altered_carbon::js::JsValueRef"* %0, %"class.altered_carbon::js::JsValueRef"** %3, align 8
  store %"class.std::__1::shared_ptr"* %1, %"class.std::__1::shared_ptr"** %4, align 8
  %5 = load %"class.altered_carbon::js::JsValueRef"*, %"class.altered_carbon::js::JsValueRef"** %3, align 8
  %6 = load %"class.std::__1::shared_ptr"*, %"class.std::__1::shared_ptr"** %4, align 8
  call void @_ZN14altered_carbon2js10JsValueRefC2ERKNSt3__110shared_ptrINS0_9ACJsValueEEE(%"class.altered_carbon::js::JsValueRef"* %5, %"class.std::__1::shared_ptr"* dereferenceable(16) %6)
  ret void
}

; Function Attrs: noinline nounwind optnone ssp uwtable
define void @_ZN14altered_carbon2js10JsValueRefC2ERNSt3__18auto_ptrINS0_9ACJsValueEEE(%"class.altered_carbon::js::JsValueRef"*, %"class.std::__1::auto_ptr"* dereferenceable(8)) unnamed_addr #0 align 2 {
  %3 = alloca %"class.std::__1::auto_ptr"*, align 8
  %4 = alloca %"class.altered_carbon::js::ACJsValue"*, align 8
  %5 = alloca %"class.altered_carbon::js::JsValueRef"*, align 8
  %6 = alloca %"class.std::__1::auto_ptr"*, align 8
  %7 = alloca %"struct.std::__1::shared_ptr<altered_carbon::js::ACJsValue>::__nat", align 4
  store %"class.altered_carbon::js::JsValueRef"* %0, %"class.altered_carbon::js::JsValueRef"** %5, align 8
  store %"class.std::__1::auto_ptr"* %1, %"class.std::__1::auto_ptr"** %6, align 8
  %8 = load %"class.altered_carbon::js::JsValueRef"*, %"class.altered_carbon::js::JsValueRef"** %5, align 8
  %9 = bitcast %"class.altered_carbon::js::JsValueRef"* %8 to i8*
  %10 = getelementptr inbounds i8, i8* %9, i64 8
  %11 = bitcast i8* %10 to %"class.std::__1::shared_ptr"*
  %12 = load %"class.std::__1::auto_ptr"*, %"class.std::__1::auto_ptr"** %6, align 8
  store %"class.std::__1::auto_ptr"* %12, %"class.std::__1::auto_ptr"** %3, align 8
  %13 = load %"class.std::__1::auto_ptr"*, %"class.std::__1::auto_ptr"** %3, align 8
  %14 = getelementptr inbounds %"class.std::__1::auto_ptr", %"class.std::__1::auto_ptr"* %13, i32 0, i32 0
  %15 = load %"class.altered_carbon::js::ACJsValue"*, %"class.altered_carbon::js::ACJsValue"** %14, align 8
  store %"class.altered_carbon::js::ACJsValue"* %15, %"class.altered_carbon::js::ACJsValue"** %4, align 8
  %16 = getelementptr inbounds %"class.std::__1::auto_ptr", %"class.std::__1::auto_ptr"* %13, i32 0, i32 0
  store %"class.altered_carbon::js::ACJsValue"* null, %"class.altered_carbon::js::ACJsValue"** %16, align 8
  %17 = load %"class.altered_carbon::js::ACJsValue"*, %"class.altered_carbon::js::ACJsValue"** %4, align 8
  %18 = bitcast %"struct.std::__1::shared_ptr<altered_carbon::js::ACJsValue>::__nat"* %7 to i8*
  call void @llvm.memset.p0i8.i64(i8* align 4 %18, i8 0, i64 4, i1 false)
  %19 = getelementptr inbounds %"struct.std::__1::shared_ptr<altered_carbon::js::ACJsValue>::__nat", %"struct.std::__1::shared_ptr<altered_carbon::js::ACJsValue>::__nat"* %7, i32 0, i32 0
  %20 = load i32, i32* %19, align 4
  call void @_ZNSt3__110shared_ptrIN14altered_carbon2js9ACJsValueEEC2IS3_EEPT_NS_9enable_ifIXsr14is_convertibleIS7_PS3_EE5valueENS4_5__natEE4typeE(%"class.std::__1::shared_ptr"* %11, %"class.altered_carbon::js::ACJsValue"* %17, i32 %20)
  %21 = bitcast %"class.altered_carbon::js::JsValueRef"* %8 to i32 (...)***
  store i32 (...)** bitcast (i8** getelementptr inbounds ({ [4 x i8*] }, { [4 x i8*] }* @_ZTVN14altered_carbon2js10JsValueRefE, i32 0, inrange i32 0, i32 2) to i32 (...)**), i32 (...)*** %21, align 8
  ret void
}

; Function Attrs: noinline nounwind optnone ssp uwtable
define void @_ZN14altered_carbon2js10JsValueRefC1ERNSt3__18auto_ptrINS0_9ACJsValueEEE(%"class.altered_carbon::js::JsValueRef"*, %"class.std::__1::auto_ptr"* dereferenceable(8)) unnamed_addr #0 align 2 {
  %3 = alloca %"class.altered_carbon::js::JsValueRef"*, align 8
  %4 = alloca %"class.std::__1::auto_ptr"*, align 8
  store %"class.altered_carbon::js::JsValueRef"* %0, %"class.altered_carbon::js::JsValueRef"** %3, align 8
  store %"class.std::__1::auto_ptr"* %1, %"class.std::__1::auto_ptr"** %4, align 8
  %5 = load %"class.altered_carbon::js::JsValueRef"*, %"class.altered_carbon::js::JsValueRef"** %3, align 8
  %6 = load %"class.std::__1::auto_ptr"*, %"class.std::__1::auto_ptr"** %4, align 8
  call void @_ZN14altered_carbon2js10JsValueRefC2ERNSt3__18auto_ptrINS0_9ACJsValueEEE(%"class.altered_carbon::js::JsValueRef"* %5, %"class.std::__1::auto_ptr"* dereferenceable(8) %6)
  ret void
}

; Function Attrs: noinline nounwind optnone ssp uwtable
define void @_ZN14altered_carbon2js10JsValueRefC2ERKS1_(%"class.altered_carbon::js::JsValueRef"*, %"class.altered_carbon::js::JsValueRef"* dereferenceable(24)) unnamed_addr #0 align 2 {
  %3 = alloca i64*, align 8
  %4 = alloca i64, align 8
  %5 = alloca i64, align 8
  %6 = alloca %"class.std::__1::__shared_count"*, align 8
  %7 = alloca %"class.std::__1::__shared_weak_count"*, align 8
  %8 = alloca %"class.std::__1::shared_ptr"*, align 8
  %9 = alloca %"class.std::__1::shared_ptr"*, align 8
  %10 = alloca %"class.altered_carbon::js::JsValueRef"*, align 8
  %11 = alloca %"class.altered_carbon::js::JsValueRef"*, align 8
  store %"class.altered_carbon::js::JsValueRef"* %0, %"class.altered_carbon::js::JsValueRef"** %10, align 8
  store %"class.altered_carbon::js::JsValueRef"* %1, %"class.altered_carbon::js::JsValueRef"** %11, align 8
  %12 = load %"class.altered_carbon::js::JsValueRef"*, %"class.altered_carbon::js::JsValueRef"** %10, align 8
  %13 = bitcast %"class.altered_carbon::js::JsValueRef"* %12 to i8*
  %14 = getelementptr inbounds i8, i8* %13, i64 8
  %15 = bitcast i8* %14 to %"class.std::__1::shared_ptr"*
  %16 = load %"class.altered_carbon::js::JsValueRef"*, %"class.altered_carbon::js::JsValueRef"** %11, align 8
  %17 = bitcast %"class.altered_carbon::js::JsValueRef"* %16 to i8*
  %18 = getelementptr inbounds i8, i8* %17, i64 8
  %19 = bitcast i8* %18 to %"class.std::__1::shared_ptr"*
  store %"class.std::__1::shared_ptr"* %15, %"class.std::__1::shared_ptr"** %8, align 8
  store %"class.std::__1::shared_ptr"* %19, %"class.std::__1::shared_ptr"** %9, align 8
  %20 = load %"class.std::__1::shared_ptr"*, %"class.std::__1::shared_ptr"** %8, align 8
  %21 = getelementptr inbounds %"class.std::__1::shared_ptr", %"class.std::__1::shared_ptr"* %20, i32 0, i32 0
  %22 = load %"class.std::__1::shared_ptr"*, %"class.std::__1::shared_ptr"** %9, align 8
  %23 = getelementptr inbounds %"class.std::__1::shared_ptr", %"class.std::__1::shared_ptr"* %22, i32 0, i32 0
  %24 = load %"class.altered_carbon::js::ACJsValue"*, %"class.altered_carbon::js::ACJsValue"** %23, align 8
  store %"class.altered_carbon::js::ACJsValue"* %24, %"class.altered_carbon::js::ACJsValue"** %21, align 8
  %25 = getelementptr inbounds %"class.std::__1::shared_ptr", %"class.std::__1::shared_ptr"* %20, i32 0, i32 1
  %26 = load %"class.std::__1::shared_ptr"*, %"class.std::__1::shared_ptr"** %9, align 8
  %27 = getelementptr inbounds %"class.std::__1::shared_ptr", %"class.std::__1::shared_ptr"* %26, i32 0, i32 1
  %28 = load %"class.std::__1::__shared_weak_count"*, %"class.std::__1::__shared_weak_count"** %27, align 8
  store %"class.std::__1::__shared_weak_count"* %28, %"class.std::__1::__shared_weak_count"** %25, align 8
  %29 = getelementptr inbounds %"class.std::__1::shared_ptr", %"class.std::__1::shared_ptr"* %20, i32 0, i32 1
  %30 = load %"class.std::__1::__shared_weak_count"*, %"class.std::__1::__shared_weak_count"** %29, align 8
  %31 = icmp ne %"class.std::__1::__shared_weak_count"* %30, null
  br i1 %31, label %32, label %44

; <label>:32:                                     ; preds = %2
  %33 = getelementptr inbounds %"class.std::__1::shared_ptr", %"class.std::__1::shared_ptr"* %20, i32 0, i32 1
  %34 = load %"class.std::__1::__shared_weak_count"*, %"class.std::__1::__shared_weak_count"** %33, align 8
  store %"class.std::__1::__shared_weak_count"* %34, %"class.std::__1::__shared_weak_count"** %7, align 8
  %35 = load %"class.std::__1::__shared_weak_count"*, %"class.std::__1::__shared_weak_count"** %7, align 8
  %36 = bitcast %"class.std::__1::__shared_weak_count"* %35 to %"class.std::__1::__shared_count"*
  store %"class.std::__1::__shared_count"* %36, %"class.std::__1::__shared_count"** %6, align 8
  %37 = load %"class.std::__1::__shared_count"*, %"class.std::__1::__shared_count"** %6, align 8
  %38 = getelementptr inbounds %"class.std::__1::__shared_count", %"class.std::__1::__shared_count"* %37, i32 0, i32 1
  store i64* %38, i64** %3, align 8
  %39 = load i64*, i64** %3, align 8
  store i64 1, i64* %4, align 8
  %40 = load i64, i64* %4, align 8
  %41 = atomicrmw add i64* %39, i64 %40 monotonic
  %42 = add i64 %41, %40
  store i64 %42, i64* %5, align 8
  %43 = load i64, i64* %5, align 8
  br label %44

; <label>:44:                                     ; preds = %2, %32
  %45 = bitcast %"class.altered_carbon::js::JsValueRef"* %12 to i32 (...)***
  store i32 (...)** bitcast (i8** getelementptr inbounds ({ [4 x i8*] }, { [4 x i8*] }* @_ZTVN14altered_carbon2js10JsValueRefE, i32 0, inrange i32 0, i32 2) to i32 (...)**), i32 (...)*** %45, align 8
  ret void
}

; Function Attrs: noinline nounwind optnone ssp uwtable
define void @_ZN14altered_carbon2js10JsValueRefC1ERKS1_(%"class.altered_carbon::js::JsValueRef"*, %"class.altered_carbon::js::JsValueRef"* dereferenceable(24)) unnamed_addr #0 align 2 {
  %3 = alloca %"class.altered_carbon::js::JsValueRef"*, align 8
  %4 = alloca %"class.altered_carbon::js::JsValueRef"*, align 8
  store %"class.altered_carbon::js::JsValueRef"* %0, %"class.altered_carbon::js::JsValueRef"** %3, align 8
  store %"class.altered_carbon::js::JsValueRef"* %1, %"class.altered_carbon::js::JsValueRef"** %4, align 8
  %5 = load %"class.altered_carbon::js::JsValueRef"*, %"class.altered_carbon::js::JsValueRef"** %3, align 8
  %6 = load %"class.altered_carbon::js::JsValueRef"*, %"class.altered_carbon::js::JsValueRef"** %4, align 8
  call void @_ZN14altered_carbon2js10JsValueRefC2ERKS1_(%"class.altered_carbon::js::JsValueRef"* %5, %"class.altered_carbon::js::JsValueRef"* dereferenceable(24) %6)
  ret void
}

; Function Attrs: noinline nounwind optnone ssp uwtable
define void @_ZN14altered_carbon2js10JsValueRef4swapERS1_(%"class.altered_carbon::js::JsValueRef"*, %"class.altered_carbon::js::JsValueRef"* dereferenceable(24)) #0 align 2 {
  %3 = alloca %"class.std::__1::__shared_weak_count"**, align 8
  %4 = alloca %"class.std::__1::__shared_weak_count"**, align 8
  %5 = alloca %"class.std::__1::__shared_weak_count"**, align 8
  %6 = alloca %"class.std::__1::__shared_weak_count"**, align 8
  %7 = alloca %"class.std::__1::__shared_weak_count"**, align 8
  %8 = alloca %"class.std::__1::__shared_weak_count"*, align 8
  %9 = alloca %"class.altered_carbon::js::ACJsValue"**, align 8
  %10 = alloca %"class.altered_carbon::js::ACJsValue"**, align 8
  %11 = alloca %"class.altered_carbon::js::ACJsValue"**, align 8
  %12 = alloca %"class.altered_carbon::js::ACJsValue"**, align 8
  %13 = alloca %"class.altered_carbon::js::ACJsValue"**, align 8
  %14 = alloca %"class.altered_carbon::js::ACJsValue"*, align 8
  %15 = alloca %"class.std::__1::shared_ptr"*, align 8
  %16 = alloca %"class.std::__1::shared_ptr"*, align 8
  %17 = alloca %"class.altered_carbon::js::JsValueRef"*, align 8
  %18 = alloca %"class.altered_carbon::js::JsValueRef"*, align 8
  store %"class.altered_carbon::js::JsValueRef"* %0, %"class.altered_carbon::js::JsValueRef"** %17, align 8
  store %"class.altered_carbon::js::JsValueRef"* %1, %"class.altered_carbon::js::JsValueRef"** %18, align 8
  %19 = load %"class.altered_carbon::js::JsValueRef"*, %"class.altered_carbon::js::JsValueRef"** %17, align 8
  %20 = bitcast %"class.altered_carbon::js::JsValueRef"* %19 to i8*
  %21 = getelementptr inbounds i8, i8* %20, i64 8
  %22 = bitcast i8* %21 to %"class.std::__1::shared_ptr"*
  %23 = load %"class.altered_carbon::js::JsValueRef"*, %"class.altered_carbon::js::JsValueRef"** %18, align 8
  %24 = bitcast %"class.altered_carbon::js::JsValueRef"* %23 to i8*
  %25 = getelementptr inbounds i8, i8* %24, i64 8
  %26 = bitcast i8* %25 to %"class.std::__1::shared_ptr"*
  store %"class.std::__1::shared_ptr"* %22, %"class.std::__1::shared_ptr"** %15, align 8
  store %"class.std::__1::shared_ptr"* %26, %"class.std::__1::shared_ptr"** %16, align 8
  %27 = load %"class.std::__1::shared_ptr"*, %"class.std::__1::shared_ptr"** %15, align 8
  %28 = getelementptr inbounds %"class.std::__1::shared_ptr", %"class.std::__1::shared_ptr"* %27, i32 0, i32 0
  %29 = load %"class.std::__1::shared_ptr"*, %"class.std::__1::shared_ptr"** %16, align 8
  %30 = getelementptr inbounds %"class.std::__1::shared_ptr", %"class.std::__1::shared_ptr"* %29, i32 0, i32 0
  store %"class.altered_carbon::js::ACJsValue"** %28, %"class.altered_carbon::js::ACJsValue"*** %12, align 8
  store %"class.altered_carbon::js::ACJsValue"** %30, %"class.altered_carbon::js::ACJsValue"*** %13, align 8
  %31 = load %"class.altered_carbon::js::ACJsValue"**, %"class.altered_carbon::js::ACJsValue"*** %12, align 8
  store %"class.altered_carbon::js::ACJsValue"** %31, %"class.altered_carbon::js::ACJsValue"*** %11, align 8
  %32 = load %"class.altered_carbon::js::ACJsValue"**, %"class.altered_carbon::js::ACJsValue"*** %11, align 8
  %33 = load %"class.altered_carbon::js::ACJsValue"*, %"class.altered_carbon::js::ACJsValue"** %32, align 8
  store %"class.altered_carbon::js::ACJsValue"* %33, %"class.altered_carbon::js::ACJsValue"** %14, align 8
  %34 = load %"class.altered_carbon::js::ACJsValue"**, %"class.altered_carbon::js::ACJsValue"*** %13, align 8
  store %"class.altered_carbon::js::ACJsValue"** %34, %"class.altered_carbon::js::ACJsValue"*** %9, align 8
  %35 = load %"class.altered_carbon::js::ACJsValue"**, %"class.altered_carbon::js::ACJsValue"*** %9, align 8
  %36 = load %"class.altered_carbon::js::ACJsValue"*, %"class.altered_carbon::js::ACJsValue"** %35, align 8
  %37 = load %"class.altered_carbon::js::ACJsValue"**, %"class.altered_carbon::js::ACJsValue"*** %12, align 8
  store %"class.altered_carbon::js::ACJsValue"* %36, %"class.altered_carbon::js::ACJsValue"** %37, align 8
  store %"class.altered_carbon::js::ACJsValue"** %14, %"class.altered_carbon::js::ACJsValue"*** %10, align 8
  %38 = load %"class.altered_carbon::js::ACJsValue"**, %"class.altered_carbon::js::ACJsValue"*** %10, align 8
  %39 = load %"class.altered_carbon::js::ACJsValue"*, %"class.altered_carbon::js::ACJsValue"** %38, align 8
  %40 = load %"class.altered_carbon::js::ACJsValue"**, %"class.altered_carbon::js::ACJsValue"*** %13, align 8
  store %"class.altered_carbon::js::ACJsValue"* %39, %"class.altered_carbon::js::ACJsValue"** %40, align 8
  %41 = getelementptr inbounds %"class.std::__1::shared_ptr", %"class.std::__1::shared_ptr"* %27, i32 0, i32 1
  %42 = load %"class.std::__1::shared_ptr"*, %"class.std::__1::shared_ptr"** %16, align 8
  %43 = getelementptr inbounds %"class.std::__1::shared_ptr", %"class.std::__1::shared_ptr"* %42, i32 0, i32 1
  store %"class.std::__1::__shared_weak_count"** %41, %"class.std::__1::__shared_weak_count"*** %6, align 8
  store %"class.std::__1::__shared_weak_count"** %43, %"class.std::__1::__shared_weak_count"*** %7, align 8
  %44 = load %"class.std::__1::__shared_weak_count"**, %"class.std::__1::__shared_weak_count"*** %6, align 8
  store %"class.std::__1::__shared_weak_count"** %44, %"class.std::__1::__shared_weak_count"*** %5, align 8
  %45 = load %"class.std::__1::__shared_weak_count"**, %"class.std::__1::__shared_weak_count"*** %5, align 8
  %46 = load %"class.std::__1::__shared_weak_count"*, %"class.std::__1::__shared_weak_count"** %45, align 8
  store %"class.std::__1::__shared_weak_count"* %46, %"class.std::__1::__shared_weak_count"** %8, align 8
  %47 = load %"class.std::__1::__shared_weak_count"**, %"class.std::__1::__shared_weak_count"*** %7, align 8
  store %"class.std::__1::__shared_weak_count"** %47, %"class.std::__1::__shared_weak_count"*** %3, align 8
  %48 = load %"class.std::__1::__shared_weak_count"**, %"class.std::__1::__shared_weak_count"*** %3, align 8
  %49 = load %"class.std::__1::__shared_weak_count"*, %"class.std::__1::__shared_weak_count"** %48, align 8
  %50 = load %"class.std::__1::__shared_weak_count"**, %"class.std::__1::__shared_weak_count"*** %6, align 8
  store %"class.std::__1::__shared_weak_count"* %49, %"class.std::__1::__shared_weak_count"** %50, align 8
  store %"class.std::__1::__shared_weak_count"** %8, %"class.std::__1::__shared_weak_count"*** %4, align 8
  %51 = load %"class.std::__1::__shared_weak_count"**, %"class.std::__1::__shared_weak_count"*** %4, align 8
  %52 = load %"class.std::__1::__shared_weak_count"*, %"class.std::__1::__shared_weak_count"** %51, align 8
  %53 = load %"class.std::__1::__shared_weak_count"**, %"class.std::__1::__shared_weak_count"*** %7, align 8
  store %"class.std::__1::__shared_weak_count"* %52, %"class.std::__1::__shared_weak_count"** %53, align 8
  ret void
}

; Function Attrs: noinline nounwind optnone ssp uwtable
define void @_ZN14altered_carbon2js10JsValueRef4swapERNSt3__18auto_ptrINS0_9ACJsValueEEE(%"class.altered_carbon::js::JsValueRef"*, %"class.std::__1::auto_ptr"* dereferenceable(8)) #0 align 2 {
  %3 = alloca %"class.std::__1::__shared_weak_count"**, align 8
  %4 = alloca %"class.std::__1::__shared_weak_count"**, align 8
  %5 = alloca %"class.std::__1::__shared_weak_count"**, align 8
  %6 = alloca %"class.std::__1::__shared_weak_count"**, align 8
  %7 = alloca %"class.std::__1::__shared_weak_count"**, align 8
  %8 = alloca %"class.std::__1::__shared_weak_count"*, align 8
  %9 = alloca %"class.altered_carbon::js::ACJsValue"**, align 8
  %10 = alloca %"class.altered_carbon::js::ACJsValue"**, align 8
  %11 = alloca %"class.altered_carbon::js::ACJsValue"**, align 8
  %12 = alloca %"class.altered_carbon::js::ACJsValue"**, align 8
  %13 = alloca %"class.altered_carbon::js::ACJsValue"**, align 8
  %14 = alloca %"class.altered_carbon::js::ACJsValue"*, align 8
  %15 = alloca %"class.std::__1::shared_ptr"*, align 8
  %16 = alloca %"class.std::__1::shared_ptr"*, align 8
  %17 = alloca %"class.std::__1::shared_ptr"*, align 8
  %18 = alloca %"class.altered_carbon::js::ACJsValue"*, align 8
  %19 = alloca %"class.std::__1::shared_ptr", align 8
  %20 = alloca %"struct.std::__1::shared_ptr<altered_carbon::js::ACJsValue>::__nat", align 4
  %21 = alloca %"class.std::__1::auto_ptr"*, align 8
  %22 = alloca %"class.altered_carbon::js::ACJsValue"*, align 8
  %23 = alloca %"class.altered_carbon::js::JsValueRef"*, align 8
  %24 = alloca %"class.std::__1::auto_ptr"*, align 8
  store %"class.altered_carbon::js::JsValueRef"* %0, %"class.altered_carbon::js::JsValueRef"** %23, align 8
  store %"class.std::__1::auto_ptr"* %1, %"class.std::__1::auto_ptr"** %24, align 8
  %25 = load %"class.altered_carbon::js::JsValueRef"*, %"class.altered_carbon::js::JsValueRef"** %23, align 8
  %26 = bitcast %"class.altered_carbon::js::JsValueRef"* %25 to i8*
  %27 = getelementptr inbounds i8, i8* %26, i64 8
  %28 = bitcast i8* %27 to %"class.std::__1::shared_ptr"*
  %29 = load %"class.std::__1::auto_ptr"*, %"class.std::__1::auto_ptr"** %24, align 8
  store %"class.std::__1::auto_ptr"* %29, %"class.std::__1::auto_ptr"** %21, align 8
  %30 = load %"class.std::__1::auto_ptr"*, %"class.std::__1::auto_ptr"** %21, align 8
  %31 = getelementptr inbounds %"class.std::__1::auto_ptr", %"class.std::__1::auto_ptr"* %30, i32 0, i32 0
  %32 = load %"class.altered_carbon::js::ACJsValue"*, %"class.altered_carbon::js::ACJsValue"** %31, align 8
  store %"class.altered_carbon::js::ACJsValue"* %32, %"class.altered_carbon::js::ACJsValue"** %22, align 8
  %33 = getelementptr inbounds %"class.std::__1::auto_ptr", %"class.std::__1::auto_ptr"* %30, i32 0, i32 0
  store %"class.altered_carbon::js::ACJsValue"* null, %"class.altered_carbon::js::ACJsValue"** %33, align 8
  %34 = load %"class.altered_carbon::js::ACJsValue"*, %"class.altered_carbon::js::ACJsValue"** %22, align 8
  store %"class.std::__1::shared_ptr"* %28, %"class.std::__1::shared_ptr"** %17, align 8
  store %"class.altered_carbon::js::ACJsValue"* %34, %"class.altered_carbon::js::ACJsValue"** %18, align 8
  %35 = load %"class.std::__1::shared_ptr"*, %"class.std::__1::shared_ptr"** %17, align 8
  %36 = load %"class.altered_carbon::js::ACJsValue"*, %"class.altered_carbon::js::ACJsValue"** %18, align 8
  %37 = bitcast %"struct.std::__1::shared_ptr<altered_carbon::js::ACJsValue>::__nat"* %20 to i8*
  call void @llvm.memset.p0i8.i64(i8* align 4 %37, i8 0, i64 4, i1 false)
  %38 = getelementptr inbounds %"struct.std::__1::shared_ptr<altered_carbon::js::ACJsValue>::__nat", %"struct.std::__1::shared_ptr<altered_carbon::js::ACJsValue>::__nat"* %20, i32 0, i32 0
  %39 = load i32, i32* %38, align 4
  call void @_ZNSt3__110shared_ptrIN14altered_carbon2js9ACJsValueEEC1IS3_EEPT_NS_9enable_ifIXsr14is_convertibleIS7_PS3_EE5valueENS4_5__natEE4typeE(%"class.std::__1::shared_ptr"* %19, %"class.altered_carbon::js::ACJsValue"* %36, i32 %39) #5
  store %"class.std::__1::shared_ptr"* %19, %"class.std::__1::shared_ptr"** %15, align 8
  store %"class.std::__1::shared_ptr"* %35, %"class.std::__1::shared_ptr"** %16, align 8
  %40 = load %"class.std::__1::shared_ptr"*, %"class.std::__1::shared_ptr"** %15, align 8
  %41 = getelementptr inbounds %"class.std::__1::shared_ptr", %"class.std::__1::shared_ptr"* %40, i32 0, i32 0
  %42 = load %"class.std::__1::shared_ptr"*, %"class.std::__1::shared_ptr"** %16, align 8
  %43 = getelementptr inbounds %"class.std::__1::shared_ptr", %"class.std::__1::shared_ptr"* %42, i32 0, i32 0
  store %"class.altered_carbon::js::ACJsValue"** %41, %"class.altered_carbon::js::ACJsValue"*** %12, align 8
  store %"class.altered_carbon::js::ACJsValue"** %43, %"class.altered_carbon::js::ACJsValue"*** %13, align 8
  %44 = load %"class.altered_carbon::js::ACJsValue"**, %"class.altered_carbon::js::ACJsValue"*** %12, align 8
  store %"class.altered_carbon::js::ACJsValue"** %44, %"class.altered_carbon::js::ACJsValue"*** %11, align 8
  %45 = load %"class.altered_carbon::js::ACJsValue"**, %"class.altered_carbon::js::ACJsValue"*** %11, align 8
  %46 = load %"class.altered_carbon::js::ACJsValue"*, %"class.altered_carbon::js::ACJsValue"** %45, align 8
  store %"class.altered_carbon::js::ACJsValue"* %46, %"class.altered_carbon::js::ACJsValue"** %14, align 8
  %47 = load %"class.altered_carbon::js::ACJsValue"**, %"class.altered_carbon::js::ACJsValue"*** %13, align 8
  store %"class.altered_carbon::js::ACJsValue"** %47, %"class.altered_carbon::js::ACJsValue"*** %9, align 8
  %48 = load %"class.altered_carbon::js::ACJsValue"**, %"class.altered_carbon::js::ACJsValue"*** %9, align 8
  %49 = load %"class.altered_carbon::js::ACJsValue"*, %"class.altered_carbon::js::ACJsValue"** %48, align 8
  %50 = load %"class.altered_carbon::js::ACJsValue"**, %"class.altered_carbon::js::ACJsValue"*** %12, align 8
  store %"class.altered_carbon::js::ACJsValue"* %49, %"class.altered_carbon::js::ACJsValue"** %50, align 8
  store %"class.altered_carbon::js::ACJsValue"** %14, %"class.altered_carbon::js::ACJsValue"*** %10, align 8
  %51 = load %"class.altered_carbon::js::ACJsValue"**, %"class.altered_carbon::js::ACJsValue"*** %10, align 8
  %52 = load %"class.altered_carbon::js::ACJsValue"*, %"class.altered_carbon::js::ACJsValue"** %51, align 8
  %53 = load %"class.altered_carbon::js::ACJsValue"**, %"class.altered_carbon::js::ACJsValue"*** %13, align 8
  store %"class.altered_carbon::js::ACJsValue"* %52, %"class.altered_carbon::js::ACJsValue"** %53, align 8
  %54 = getelementptr inbounds %"class.std::__1::shared_ptr", %"class.std::__1::shared_ptr"* %40, i32 0, i32 1
  %55 = load %"class.std::__1::shared_ptr"*, %"class.std::__1::shared_ptr"** %16, align 8
  %56 = getelementptr inbounds %"class.std::__1::shared_ptr", %"class.std::__1::shared_ptr"* %55, i32 0, i32 1
  store %"class.std::__1::__shared_weak_count"** %54, %"class.std::__1::__shared_weak_count"*** %6, align 8
  store %"class.std::__1::__shared_weak_count"** %56, %"class.std::__1::__shared_weak_count"*** %7, align 8
  %57 = load %"class.std::__1::__shared_weak_count"**, %"class.std::__1::__shared_weak_count"*** %6, align 8
  store %"class.std::__1::__shared_weak_count"** %57, %"class.std::__1::__shared_weak_count"*** %5, align 8
  %58 = load %"class.std::__1::__shared_weak_count"**, %"class.std::__1::__shared_weak_count"*** %5, align 8
  %59 = load %"class.std::__1::__shared_weak_count"*, %"class.std::__1::__shared_weak_count"** %58, align 8
  store %"class.std::__1::__shared_weak_count"* %59, %"class.std::__1::__shared_weak_count"** %8, align 8
  %60 = load %"class.std::__1::__shared_weak_count"**, %"class.std::__1::__shared_weak_count"*** %7, align 8
  store %"class.std::__1::__shared_weak_count"** %60, %"class.std::__1::__shared_weak_count"*** %3, align 8
  %61 = load %"class.std::__1::__shared_weak_count"**, %"class.std::__1::__shared_weak_count"*** %3, align 8
  %62 = load %"class.std::__1::__shared_weak_count"*, %"class.std::__1::__shared_weak_count"** %61, align 8
  %63 = load %"class.std::__1::__shared_weak_count"**, %"class.std::__1::__shared_weak_count"*** %6, align 8
  store %"class.std::__1::__shared_weak_count"* %62, %"class.std::__1::__shared_weak_count"** %63, align 8
  store %"class.std::__1::__shared_weak_count"** %8, %"class.std::__1::__shared_weak_count"*** %4, align 8
  %64 = load %"class.std::__1::__shared_weak_count"**, %"class.std::__1::__shared_weak_count"*** %4, align 8
  %65 = load %"class.std::__1::__shared_weak_count"*, %"class.std::__1::__shared_weak_count"** %64, align 8
  %66 = load %"class.std::__1::__shared_weak_count"**, %"class.std::__1::__shared_weak_count"*** %7, align 8
  store %"class.std::__1::__shared_weak_count"* %65, %"class.std::__1::__shared_weak_count"** %66, align 8
  call void @_ZNSt3__110shared_ptrIN14altered_carbon2js9ACJsValueEED1Ev(%"class.std::__1::shared_ptr"* %19) #5
  ret void
}

; Function Attrs: noinline nounwind optnone ssp uwtable
define void @_ZN14altered_carbon2js10JsValueRef5resetEPNS0_9ACJsValueE(%"class.altered_carbon::js::JsValueRef"*, %"class.altered_carbon::js::ACJsValue"*) #0 align 2 {
  %3 = alloca %"class.std::__1::__shared_weak_count"**, align 8
  %4 = alloca %"class.std::__1::__shared_weak_count"**, align 8
  %5 = alloca %"class.std::__1::__shared_weak_count"**, align 8
  %6 = alloca %"class.std::__1::__shared_weak_count"**, align 8
  %7 = alloca %"class.std::__1::__shared_weak_count"**, align 8
  %8 = alloca %"class.std::__1::__shared_weak_count"*, align 8
  %9 = alloca %"class.altered_carbon::js::ACJsValue"**, align 8
  %10 = alloca %"class.altered_carbon::js::ACJsValue"**, align 8
  %11 = alloca %"class.altered_carbon::js::ACJsValue"**, align 8
  %12 = alloca %"class.altered_carbon::js::ACJsValue"**, align 8
  %13 = alloca %"class.altered_carbon::js::ACJsValue"**, align 8
  %14 = alloca %"class.altered_carbon::js::ACJsValue"*, align 8
  %15 = alloca %"class.std::__1::shared_ptr"*, align 8
  %16 = alloca %"class.std::__1::shared_ptr"*, align 8
  %17 = alloca %"class.std::__1::shared_ptr"*, align 8
  %18 = alloca %"class.altered_carbon::js::ACJsValue"*, align 8
  %19 = alloca %"class.std::__1::shared_ptr", align 8
  %20 = alloca %"struct.std::__1::shared_ptr<altered_carbon::js::ACJsValue>::__nat", align 4
  %21 = alloca %"class.altered_carbon::js::JsValueRef"*, align 8
  %22 = alloca %"class.altered_carbon::js::ACJsValue"*, align 8
  store %"class.altered_carbon::js::JsValueRef"* %0, %"class.altered_carbon::js::JsValueRef"** %21, align 8
  store %"class.altered_carbon::js::ACJsValue"* %1, %"class.altered_carbon::js::ACJsValue"** %22, align 8
  %23 = load %"class.altered_carbon::js::JsValueRef"*, %"class.altered_carbon::js::JsValueRef"** %21, align 8
  %24 = bitcast %"class.altered_carbon::js::JsValueRef"* %23 to i8*
  %25 = getelementptr inbounds i8, i8* %24, i64 8
  %26 = bitcast i8* %25 to %"class.std::__1::shared_ptr"*
  %27 = load %"class.altered_carbon::js::ACJsValue"*, %"class.altered_carbon::js::ACJsValue"** %22, align 8
  store %"class.std::__1::shared_ptr"* %26, %"class.std::__1::shared_ptr"** %17, align 8
  store %"class.altered_carbon::js::ACJsValue"* %27, %"class.altered_carbon::js::ACJsValue"** %18, align 8
  %28 = load %"class.std::__1::shared_ptr"*, %"class.std::__1::shared_ptr"** %17, align 8
  %29 = load %"class.altered_carbon::js::ACJsValue"*, %"class.altered_carbon::js::ACJsValue"** %18, align 8
  %30 = bitcast %"struct.std::__1::shared_ptr<altered_carbon::js::ACJsValue>::__nat"* %20 to i8*
  call void @llvm.memset.p0i8.i64(i8* align 4 %30, i8 0, i64 4, i1 false)
  %31 = getelementptr inbounds %"struct.std::__1::shared_ptr<altered_carbon::js::ACJsValue>::__nat", %"struct.std::__1::shared_ptr<altered_carbon::js::ACJsValue>::__nat"* %20, i32 0, i32 0
  %32 = load i32, i32* %31, align 4
  call void @_ZNSt3__110shared_ptrIN14altered_carbon2js9ACJsValueEEC1IS3_EEPT_NS_9enable_ifIXsr14is_convertibleIS7_PS3_EE5valueENS4_5__natEE4typeE(%"class.std::__1::shared_ptr"* %19, %"class.altered_carbon::js::ACJsValue"* %29, i32 %32) #5
  store %"class.std::__1::shared_ptr"* %19, %"class.std::__1::shared_ptr"** %15, align 8
  store %"class.std::__1::shared_ptr"* %28, %"class.std::__1::shared_ptr"** %16, align 8
  %33 = load %"class.std::__1::shared_ptr"*, %"class.std::__1::shared_ptr"** %15, align 8
  %34 = getelementptr inbounds %"class.std::__1::shared_ptr", %"class.std::__1::shared_ptr"* %33, i32 0, i32 0
  %35 = load %"class.std::__1::shared_ptr"*, %"class.std::__1::shared_ptr"** %16, align 8
  %36 = getelementptr inbounds %"class.std::__1::shared_ptr", %"class.std::__1::shared_ptr"* %35, i32 0, i32 0
  store %"class.altered_carbon::js::ACJsValue"** %34, %"class.altered_carbon::js::ACJsValue"*** %12, align 8
  store %"class.altered_carbon::js::ACJsValue"** %36, %"class.altered_carbon::js::ACJsValue"*** %13, align 8
  %37 = load %"class.altered_carbon::js::ACJsValue"**, %"class.altered_carbon::js::ACJsValue"*** %12, align 8
  store %"class.altered_carbon::js::ACJsValue"** %37, %"class.altered_carbon::js::ACJsValue"*** %11, align 8
  %38 = load %"class.altered_carbon::js::ACJsValue"**, %"class.altered_carbon::js::ACJsValue"*** %11, align 8
  %39 = load %"class.altered_carbon::js::ACJsValue"*, %"class.altered_carbon::js::ACJsValue"** %38, align 8
  store %"class.altered_carbon::js::ACJsValue"* %39, %"class.altered_carbon::js::ACJsValue"** %14, align 8
  %40 = load %"class.altered_carbon::js::ACJsValue"**, %"class.altered_carbon::js::ACJsValue"*** %13, align 8
  store %"class.altered_carbon::js::ACJsValue"** %40, %"class.altered_carbon::js::ACJsValue"*** %9, align 8
  %41 = load %"class.altered_carbon::js::ACJsValue"**, %"class.altered_carbon::js::ACJsValue"*** %9, align 8
  %42 = load %"class.altered_carbon::js::ACJsValue"*, %"class.altered_carbon::js::ACJsValue"** %41, align 8
  %43 = load %"class.altered_carbon::js::ACJsValue"**, %"class.altered_carbon::js::ACJsValue"*** %12, align 8
  store %"class.altered_carbon::js::ACJsValue"* %42, %"class.altered_carbon::js::ACJsValue"** %43, align 8
  store %"class.altered_carbon::js::ACJsValue"** %14, %"class.altered_carbon::js::ACJsValue"*** %10, align 8
  %44 = load %"class.altered_carbon::js::ACJsValue"**, %"class.altered_carbon::js::ACJsValue"*** %10, align 8
  %45 = load %"class.altered_carbon::js::ACJsValue"*, %"class.altered_carbon::js::ACJsValue"** %44, align 8
  %46 = load %"class.altered_carbon::js::ACJsValue"**, %"class.altered_carbon::js::ACJsValue"*** %13, align 8
  store %"class.altered_carbon::js::ACJsValue"* %45, %"class.altered_carbon::js::ACJsValue"** %46, align 8
  %47 = getelementptr inbounds %"class.std::__1::shared_ptr", %"class.std::__1::shared_ptr"* %33, i32 0, i32 1
  %48 = load %"class.std::__1::shared_ptr"*, %"class.std::__1::shared_ptr"** %16, align 8
  %49 = getelementptr inbounds %"class.std::__1::shared_ptr", %"class.std::__1::shared_ptr"* %48, i32 0, i32 1
  store %"class.std::__1::__shared_weak_count"** %47, %"class.std::__1::__shared_weak_count"*** %6, align 8
  store %"class.std::__1::__shared_weak_count"** %49, %"class.std::__1::__shared_weak_count"*** %7, align 8
  %50 = load %"class.std::__1::__shared_weak_count"**, %"class.std::__1::__shared_weak_count"*** %6, align 8
  store %"class.std::__1::__shared_weak_count"** %50, %"class.std::__1::__shared_weak_count"*** %5, align 8
  %51 = load %"class.std::__1::__shared_weak_count"**, %"class.std::__1::__shared_weak_count"*** %5, align 8
  %52 = load %"class.std::__1::__shared_weak_count"*, %"class.std::__1::__shared_weak_count"** %51, align 8
  store %"class.std::__1::__shared_weak_count"* %52, %"class.std::__1::__shared_weak_count"** %8, align 8
  %53 = load %"class.std::__1::__shared_weak_count"**, %"class.std::__1::__shared_weak_count"*** %7, align 8
  store %"class.std::__1::__shared_weak_count"** %53, %"class.std::__1::__shared_weak_count"*** %3, align 8
  %54 = load %"class.std::__1::__shared_weak_count"**, %"class.std::__1::__shared_weak_count"*** %3, align 8
  %55 = load %"class.std::__1::__shared_weak_count"*, %"class.std::__1::__shared_weak_count"** %54, align 8
  %56 = load %"class.std::__1::__shared_weak_count"**, %"class.std::__1::__shared_weak_count"*** %6, align 8
  store %"class.std::__1::__shared_weak_count"* %55, %"class.std::__1::__shared_weak_count"** %56, align 8
  store %"class.std::__1::__shared_weak_count"** %8, %"class.std::__1::__shared_weak_count"*** %4, align 8
  %57 = load %"class.std::__1::__shared_weak_count"**, %"class.std::__1::__shared_weak_count"*** %4, align 8
  %58 = load %"class.std::__1::__shared_weak_count"*, %"class.std::__1::__shared_weak_count"** %57, align 8
  %59 = load %"class.std::__1::__shared_weak_count"**, %"class.std::__1::__shared_weak_count"*** %7, align 8
  store %"class.std::__1::__shared_weak_count"* %58, %"class.std::__1::__shared_weak_count"** %59, align 8
  call void @_ZNSt3__110shared_ptrIN14altered_carbon2js9ACJsValueEED1Ev(%"class.std::__1::shared_ptr"* %19) #5
  ret void
}

; Function Attrs: noinline nounwind optnone ssp uwtable
define void @_ZN14altered_carbon2js10JsValueRefD2Ev(%"class.altered_carbon::js::JsValueRef"*) unnamed_addr #0 align 2 {
  %2 = alloca %"class.altered_carbon::js::JsValueRef"*, align 8
  store %"class.altered_carbon::js::JsValueRef"* %0, %"class.altered_carbon::js::JsValueRef"** %2, align 8
  %3 = load %"class.altered_carbon::js::JsValueRef"*, %"class.altered_carbon::js::JsValueRef"** %2, align 8
  %4 = bitcast %"class.altered_carbon::js::JsValueRef"* %3 to i8*
  %5 = getelementptr inbounds i8, i8* %4, i64 8
  %6 = bitcast i8* %5 to %"class.std::__1::shared_ptr"*
  call void @_ZNSt3__110shared_ptrIN14altered_carbon2js9ACJsValueEED2Ev(%"class.std::__1::shared_ptr"* %6) #5
  ret void
}

; Function Attrs: noinline nounwind optnone ssp uwtable
define linkonce_odr void @_ZNSt3__110shared_ptrIN14altered_carbon2js9ACJsValueEED2Ev(%"class.std::__1::shared_ptr"*) unnamed_addr #0 align 2 {
  %2 = alloca i64*, align 8
  %3 = alloca i64, align 8
  %4 = alloca i64, align 8
  %5 = alloca i1, align 1
  %6 = alloca %"class.std::__1::__shared_count"*, align 8
  %7 = alloca %"class.std::__1::__shared_weak_count"*, align 8
  %8 = alloca %"class.std::__1::shared_ptr"*, align 8
  store %"class.std::__1::shared_ptr"* %0, %"class.std::__1::shared_ptr"** %8, align 8
  %9 = load %"class.std::__1::shared_ptr"*, %"class.std::__1::shared_ptr"** %8, align 8
  %10 = getelementptr inbounds %"class.std::__1::shared_ptr", %"class.std::__1::shared_ptr"* %9, i32 0, i32 1
  %11 = load %"class.std::__1::__shared_weak_count"*, %"class.std::__1::__shared_weak_count"** %10, align 8
  %12 = icmp ne %"class.std::__1::__shared_weak_count"* %11, null
  br i1 %12, label %13, label %36

; <label>:13:                                     ; preds = %1
  %14 = getelementptr inbounds %"class.std::__1::shared_ptr", %"class.std::__1::shared_ptr"* %9, i32 0, i32 1
  %15 = load %"class.std::__1::__shared_weak_count"*, %"class.std::__1::__shared_weak_count"** %14, align 8
  store %"class.std::__1::__shared_weak_count"* %15, %"class.std::__1::__shared_weak_count"** %7, align 8
  %16 = load %"class.std::__1::__shared_weak_count"*, %"class.std::__1::__shared_weak_count"** %7, align 8
  %17 = bitcast %"class.std::__1::__shared_weak_count"* %16 to %"class.std::__1::__shared_count"*
  store %"class.std::__1::__shared_count"* %17, %"class.std::__1::__shared_count"** %6, align 8
  %18 = load %"class.std::__1::__shared_count"*, %"class.std::__1::__shared_count"** %6, align 8
  %19 = getelementptr inbounds %"class.std::__1::__shared_count", %"class.std::__1::__shared_count"* %18, i32 0, i32 1
  store i64* %19, i64** %2, align 8
  %20 = load i64*, i64** %2, align 8
  store i64 -1, i64* %3, align 8
  %21 = load i64, i64* %3, align 8
  %22 = atomicrmw add i64* %20, i64 %21 acq_rel
  %23 = add i64 %22, %21
  store i64 %23, i64* %4, align 8
  %24 = load i64, i64* %4, align 8
  %25 = icmp eq i64 %24, -1
  br i1 %25, label %26, label %31

; <label>:26:                                     ; preds = %13
  %27 = bitcast %"class.std::__1::__shared_count"* %18 to void (%"class.std::__1::__shared_count"*)***
  %28 = load void (%"class.std::__1::__shared_count"*)**, void (%"class.std::__1::__shared_count"*)*** %27, align 8
  %29 = getelementptr inbounds void (%"class.std::__1::__shared_count"*)*, void (%"class.std::__1::__shared_count"*)** %28, i64 2
  %30 = load void (%"class.std::__1::__shared_count"*)*, void (%"class.std::__1::__shared_count"*)** %29, align 8
  call void %30(%"class.std::__1::__shared_count"* %18) #5
  store i1 true, i1* %5, align 1
  br label %32

; <label>:31:                                     ; preds = %13
  store i1 false, i1* %5, align 1
  br label %32

; <label>:32:                                     ; preds = %31, %26
  %33 = load i1, i1* %5, align 1
  br i1 %33, label %34, label %35

; <label>:34:                                     ; preds = %32
  call void @_ZNSt3__119__shared_weak_count14__release_weakEv(%"class.std::__1::__shared_weak_count"* %16) #5
  br label %35

; <label>:35:                                     ; preds = %32, %34
  br label %36

; <label>:36:                                     ; preds = %35, %1
  ret void
}

; Function Attrs: noinline nounwind optnone ssp uwtable
define void @_ZN14altered_carbon2js10JsValueRefD0Ev(%"class.altered_carbon::js::JsValueRef"*) unnamed_addr #0 align 2 {
  %2 = alloca %"class.altered_carbon::js::JsValueRef"*, align 8
  store %"class.altered_carbon::js::JsValueRef"* %0, %"class.altered_carbon::js::JsValueRef"** %2, align 8
  %3 = load %"class.altered_carbon::js::JsValueRef"*, %"class.altered_carbon::js::JsValueRef"** %2, align 8
  call void @_ZN14altered_carbon2js10JsValueRefD1Ev(%"class.altered_carbon::js::JsValueRef"* %3) #5
  %4 = bitcast %"class.altered_carbon::js::JsValueRef"* %3 to i8*
  call void @_ZdlPv(i8* %4) #12
  ret void
}

; Function Attrs: nobuiltin nounwind
declare void @_ZdlPv(i8*) #3

; Function Attrs: noinline nounwind ssp uwtable
define internal void @__cxx_global_var_init() #4 section "__TEXT,__StaticInit,regular,pure_instructions" {
  %1 = call i8* @_Znwm(i64 16) #11
  %2 = bitcast i8* %1 to %"class.altered_carbon::js::ACJsValue"*
  call void @_ZN14altered_carbon2js9ACJsValueC1ENS1_11JsValueTypeE(%"class.altered_carbon::js::ACJsValue"* %2, i32 -1)
  call void @_ZN14altered_carbon2js10JsValueRefC1EPNS0_9ACJsValueE(%"class.altered_carbon::js::JsValueRef"* @_ZN14altered_carbon2js11JSConstants9UndefinedE, %"class.altered_carbon::js::ACJsValue"* %2)
  %3 = call i32 @__cxa_atexit(void (i8*)* bitcast (void (%"class.altered_carbon::js::JsValueRef"*)* @_ZN14altered_carbon2js10JsValueRefD1Ev to void (i8*)*), i8* bitcast (%"class.altered_carbon::js::JsValueRef"* @_ZN14altered_carbon2js11JSConstants9UndefinedE to i8*), i8* @__dso_handle) #5
  ret void
}

; Function Attrs: nounwind
declare i32 @__cxa_atexit(void (i8*)*, i8*, i8*) #5

; Function Attrs: noinline nounwind ssp uwtable
define internal void @__cxx_global_var_init.7() #4 section "__TEXT,__StaticInit,regular,pure_instructions" {
  %1 = call i8* @_Znwm(i64 16) #11
  %2 = bitcast i8* %1 to %"class.altered_carbon::js::ACJsValue"*
  call void @_ZN14altered_carbon2js9ACJsValueC1ENS1_11JsValueTypeE(%"class.altered_carbon::js::ACJsValue"* %2, i32 0)
  call void @_ZN14altered_carbon2js10JsValueRefC1EPNS0_9ACJsValueE(%"class.altered_carbon::js::JsValueRef"* @_ZN14altered_carbon2js11JSConstants4NullE, %"class.altered_carbon::js::ACJsValue"* %2)
  %3 = call i32 @__cxa_atexit(void (i8*)* bitcast (void (%"class.altered_carbon::js::JsValueRef"*)* @_ZN14altered_carbon2js10JsValueRefD1Ev to void (i8*)*), i8* bitcast (%"class.altered_carbon::js::JsValueRef"* @_ZN14altered_carbon2js11JSConstants4NullE to i8*), i8* @__dso_handle) #5
  ret void
}

; Function Attrs: noinline nounwind ssp uwtable
define internal void @__cxx_global_var_init.8() #4 section "__TEXT,__StaticInit,regular,pure_instructions" {
  %1 = call i8* @_Znwm(i64 16) #11
  %2 = bitcast i8* %1 to %"class.altered_carbon::js::ACJsBoolean"*
  call void @_ZN14altered_carbon2js11ACJsBooleanC1Eb(%"class.altered_carbon::js::ACJsBoolean"* %2, i1 zeroext true)
  %3 = bitcast %"class.altered_carbon::js::ACJsBoolean"* %2 to %"class.altered_carbon::js::ACJsValue"*
  call void @_ZN14altered_carbon2js10JsValueRefC1EPNS0_9ACJsValueE(%"class.altered_carbon::js::JsValueRef"* @_ZN14altered_carbon2js11JSConstants4TrueE, %"class.altered_carbon::js::ACJsValue"* %3)
  %4 = call i32 @__cxa_atexit(void (i8*)* bitcast (void (%"class.altered_carbon::js::JsValueRef"*)* @_ZN14altered_carbon2js10JsValueRefD1Ev to void (i8*)*), i8* bitcast (%"class.altered_carbon::js::JsValueRef"* @_ZN14altered_carbon2js11JSConstants4TrueE to i8*), i8* @__dso_handle) #5
  ret void
}

declare void @_ZN14altered_carbon2js11ACJsBooleanC1Eb(%"class.altered_carbon::js::ACJsBoolean"*, i1 zeroext) unnamed_addr #2

; Function Attrs: noinline nounwind ssp uwtable
define internal void @__cxx_global_var_init.9() #4 section "__TEXT,__StaticInit,regular,pure_instructions" {
  %1 = call i8* @_Znwm(i64 16) #11
  %2 = bitcast i8* %1 to %"class.altered_carbon::js::ACJsBoolean"*
  call void @_ZN14altered_carbon2js11ACJsBooleanC1Eb(%"class.altered_carbon::js::ACJsBoolean"* %2, i1 zeroext false)
  %3 = bitcast %"class.altered_carbon::js::ACJsBoolean"* %2 to %"class.altered_carbon::js::ACJsValue"*
  call void @_ZN14altered_carbon2js10JsValueRefC1EPNS0_9ACJsValueE(%"class.altered_carbon::js::JsValueRef"* @_ZN14altered_carbon2js11JSConstants5FalseE, %"class.altered_carbon::js::ACJsValue"* %3)
  %4 = call i32 @__cxa_atexit(void (i8*)* bitcast (void (%"class.altered_carbon::js::JsValueRef"*)* @_ZN14altered_carbon2js10JsValueRefD1Ev to void (i8*)*), i8* bitcast (%"class.altered_carbon::js::JsValueRef"* @_ZN14altered_carbon2js11JSConstants5FalseE to i8*), i8* @__dso_handle) #5
  ret void
}

; Function Attrs: noinline nounwind ssp uwtable
define internal void @__cxx_global_var_init.10() #4 section "__TEXT,__StaticInit,regular,pure_instructions" {
  %1 = call i8* @_Znwm(i64 40) #11
  %2 = bitcast i8* %1 to %"class.altered_carbon::js::ACJsNumber"*
  %3 = call double @nan(i8* getelementptr inbounds ([1 x i8], [1 x i8]* @.str, i32 0, i32 0)) #13
  call void @_ZN14altered_carbon2js10ACJsNumberC1Ed(%"class.altered_carbon::js::ACJsNumber"* %2, double %3)
  %4 = bitcast %"class.altered_carbon::js::ACJsNumber"* %2 to %"class.altered_carbon::js::ACJsValue"*
  call void @_ZN14altered_carbon2js10JsValueRefC1EPNS0_9ACJsValueE(%"class.altered_carbon::js::JsValueRef"* @_ZN14altered_carbon2js11JSConstants3NaNE, %"class.altered_carbon::js::ACJsValue"* %4)
  %5 = call i32 @__cxa_atexit(void (i8*)* bitcast (void (%"class.altered_carbon::js::JsValueRef"*)* @_ZN14altered_carbon2js10JsValueRefD1Ev to void (i8*)*), i8* bitcast (%"class.altered_carbon::js::JsValueRef"* @_ZN14altered_carbon2js11JSConstants3NaNE to i8*), i8* @__dso_handle) #5
  ret void
}

; Function Attrs: nounwind readnone
declare double @nan(i8*) #6

declare void @_ZN14altered_carbon2js10ACJsNumberC1Ed(%"class.altered_carbon::js::ACJsNumber"*, double) unnamed_addr #2

; Function Attrs: noinline nounwind ssp uwtable
define internal void @__cxx_global_var_init.11() #4 section "__TEXT,__StaticInit,regular,pure_instructions" {
  %1 = call i8* @_Znwm(i64 40) #11
  %2 = bitcast i8* %1 to %"class.altered_carbon::js::ACJsNumber"*
  call void @_ZN14altered_carbon2js10ACJsNumberC1Ed(%"class.altered_carbon::js::ACJsNumber"* %2, double 0x7FF0000000000000)
  %3 = bitcast %"class.altered_carbon::js::ACJsNumber"* %2 to %"class.altered_carbon::js::ACJsValue"*
  call void @_ZN14altered_carbon2js10JsValueRefC1EPNS0_9ACJsValueE(%"class.altered_carbon::js::JsValueRef"* @_ZN14altered_carbon2js11JSConstants8InfinityE, %"class.altered_carbon::js::ACJsValue"* %3)
  %4 = call i32 @__cxa_atexit(void (i8*)* bitcast (void (%"class.altered_carbon::js::JsValueRef"*)* @_ZN14altered_carbon2js10JsValueRefD1Ev to void (i8*)*), i8* bitcast (%"class.altered_carbon::js::JsValueRef"* @_ZN14altered_carbon2js11JSConstants8InfinityE to i8*), i8* @__dso_handle) #5
  ret void
}

; Function Attrs: noinline nounwind ssp uwtable
define internal void @__cxx_global_var_init.12() #4 section "__TEXT,__StaticInit,regular,pure_instructions" {
  %1 = call i8* @_Znwm(i64 24) #11
  %2 = bitcast i8* %1 to %"class.altered_carbon::js::ACJsError"*
  call void @_ZN14altered_carbon2js9ACJsErrorC1ENS1_9ErrorTypeEPKc(%"class.altered_carbon::js::ACJsError"* %2, i32 1, i8* getelementptr inbounds ([1 x i8], [1 x i8]* @.str, i32 0, i32 0))
  %3 = bitcast %"class.altered_carbon::js::ACJsError"* %2 to %"class.altered_carbon::js::ACJsValue"*
  call void @_ZN14altered_carbon2js10JsValueRefC1EPNS0_9ACJsValueE(%"class.altered_carbon::js::JsValueRef"* @_ZN14altered_carbon2js11JSConstants12ReferenceErrE, %"class.altered_carbon::js::ACJsValue"* %3)
  %4 = call i32 @__cxa_atexit(void (i8*)* bitcast (void (%"class.altered_carbon::js::JsValueRef"*)* @_ZN14altered_carbon2js10JsValueRefD1Ev to void (i8*)*), i8* bitcast (%"class.altered_carbon::js::JsValueRef"* @_ZN14altered_carbon2js11JSConstants12ReferenceErrE to i8*), i8* @__dso_handle) #5
  ret void
}

; Function Attrs: noinline nounwind optnone ssp uwtable
define void @_ZN14altered_carbon2js9ACJsErrorC2ENS1_9ErrorTypeEPKc(%"class.altered_carbon::js::ACJsError"*, i32, i8*) unnamed_addr #0 align 2 {
  %4 = alloca %"class.altered_carbon::js::ACJsError"*, align 8
  %5 = alloca i32, align 4
  %6 = alloca i8*, align 8
  store %"class.altered_carbon::js::ACJsError"* %0, %"class.altered_carbon::js::ACJsError"** %4, align 8
  store i32 %1, i32* %5, align 4
  store i8* %2, i8** %6, align 8
  %7 = load %"class.altered_carbon::js::ACJsError"*, %"class.altered_carbon::js::ACJsError"** %4, align 8
  %8 = bitcast %"class.altered_carbon::js::ACJsError"* %7 to %"class.altered_carbon::js::ACJsValue"*
  call void @_ZN14altered_carbon2js9ACJsValueC2ENS1_11JsValueTypeE(%"class.altered_carbon::js::ACJsValue"* %8, i32 -2)
  %9 = bitcast %"class.altered_carbon::js::ACJsError"* %7 to i32 (...)***
  store i32 (...)** bitcast (i8** getelementptr inbounds ({ [47 x i8*] }, { [47 x i8*] }* @_ZTVN14altered_carbon2js9ACJsErrorE, i32 0, inrange i32 0, i32 2) to i32 (...)**), i32 (...)*** %9, align 8
  %10 = getelementptr inbounds %"class.altered_carbon::js::ACJsError", %"class.altered_carbon::js::ACJsError"* %7, i32 0, i32 1
  %11 = load i32, i32* %5, align 4
  store i32 %11, i32* %10, align 4
  %12 = getelementptr inbounds %"class.altered_carbon::js::ACJsError", %"class.altered_carbon::js::ACJsError"* %7, i32 0, i32 2
  %13 = load i8*, i8** %6, align 8
  store i8* %13, i8** %12, align 8
  ret void
}

; Function Attrs: noinline nounwind optnone ssp uwtable
define void @_ZNK14altered_carbon2js9ACJsError4dumpERNSt3__113basic_ostreamIcNS2_11char_traitsIcEEEE(%"class.altered_carbon::js::ACJsError"*, %"class.std::__1::basic_ostream"* dereferenceable(160)) unnamed_addr #0 align 2 {
  %3 = alloca %"class.altered_carbon::js::ACJsError"*, align 8
  %4 = alloca %"class.std::__1::basic_ostream"*, align 8
  store %"class.altered_carbon::js::ACJsError"* %0, %"class.altered_carbon::js::ACJsError"** %3, align 8
  store %"class.std::__1::basic_ostream"* %1, %"class.std::__1::basic_ostream"** %4, align 8
  %5 = load %"class.altered_carbon::js::ACJsError"*, %"class.altered_carbon::js::ACJsError"** %3, align 8
  %6 = load %"class.std::__1::basic_ostream"*, %"class.std::__1::basic_ostream"** %4, align 8
  %7 = call dereferenceable(160) %"class.std::__1::basic_ostream"* @_ZNSt3__1lsINS_11char_traitsIcEEEERNS_13basic_ostreamIcT_EES6_PKc(%"class.std::__1::basic_ostream"* dereferenceable(160) %6, i8* getelementptr inbounds ([21 x i8], [21 x i8]* @.str.13, i32 0, i32 0))
  %8 = getelementptr inbounds %"class.altered_carbon::js::ACJsError", %"class.altered_carbon::js::ACJsError"* %5, i32 0, i32 1
  %9 = load i32, i32* %8, align 4
  %10 = call dereferenceable(160) %"class.std::__1::basic_ostream"* @_ZNSt3__113basic_ostreamIcNS_11char_traitsIcEEElsEi(%"class.std::__1::basic_ostream"* %7, i32 %9)
  %11 = call dereferenceable(160) %"class.std::__1::basic_ostream"* @_ZNSt3__1lsINS_11char_traitsIcEEEERNS_13basic_ostreamIcT_EES6_PKc(%"class.std::__1::basic_ostream"* dereferenceable(160) %10, i8* getelementptr inbounds ([2 x i8], [2 x i8]* @.str.14, i32 0, i32 0))
  %12 = getelementptr inbounds %"class.altered_carbon::js::ACJsError", %"class.altered_carbon::js::ACJsError"* %5, i32 0, i32 2
  %13 = load i8*, i8** %12, align 8
  %14 = call dereferenceable(160) %"class.std::__1::basic_ostream"* @_ZNSt3__1lsINS_11char_traitsIcEEEERNS_13basic_ostreamIcT_EES6_PKc(%"class.std::__1::basic_ostream"* dereferenceable(160) %11, i8* %13)
  %15 = call dereferenceable(160) %"class.std::__1::basic_ostream"* @_ZNSt3__1lsINS_11char_traitsIcEEEERNS_13basic_ostreamIcT_EES6_PKc(%"class.std::__1::basic_ostream"* dereferenceable(160) %14, i8* getelementptr inbounds ([2 x i8], [2 x i8]* @.str.15, i32 0, i32 0))
  ret void
}

declare dereferenceable(160) %"class.std::__1::basic_ostream"* @_ZNSt3__113basic_ostreamIcNS_11char_traitsIcEEElsEi(%"class.std::__1::basic_ostream"*, i32) #2

; Function Attrs: noinline nounwind optnone ssp uwtable
define void @_ZN14altered_carbon2js3opsEPPNS0_9ACJsValueEiS2_PKS1_(%"class.altered_carbon::js::ACJsValue"**, i32, %"class.altered_carbon::js::ACJsValue"*, %"class.altered_carbon::js::ACJsValue"*) #0 {
  %5 = alloca %"class.std::__1::auto_ptr"*, align 8
  %6 = alloca %"class.std::__1::auto_ptr"*, align 8
  %7 = alloca %"class.std::__1::auto_ptr"*, align 8
  %8 = alloca %"class.altered_carbon::js::ACJsValue"*, align 8
  %9 = alloca %"class.std::__1::auto_ptr"*, align 8
  %10 = alloca %"class.altered_carbon::js::ACJsValue"*, align 8
  %11 = alloca %"class.std::__1::auto_ptr"*, align 8
  %12 = alloca %"class.altered_carbon::js::ACJsValue"*, align 8
  %13 = alloca %"class.std::__1::auto_ptr"*, align 8
  %14 = alloca %"class.std::__1::auto_ptr"*, align 8
  %15 = alloca %"class.std::__1::auto_ptr"*, align 8
  %16 = alloca %"class.altered_carbon::js::ACJsValue"*, align 8
  %17 = alloca %"class.std::__1::auto_ptr"*, align 8
  %18 = alloca %"class.altered_carbon::js::ACJsValue"*, align 8
  %19 = alloca %"class.std::__1::auto_ptr"*, align 8
  %20 = alloca %"class.altered_carbon::js::ACJsValue"*, align 8
  %21 = alloca %"class.std::__1::auto_ptr"*, align 8
  %22 = alloca %"class.std::__1::auto_ptr"*, align 8
  %23 = alloca %"class.std::__1::auto_ptr"*, align 8
  %24 = alloca %"class.altered_carbon::js::ACJsValue"*, align 8
  %25 = alloca %"class.std::__1::auto_ptr"*, align 8
  %26 = alloca %"class.altered_carbon::js::ACJsValue"*, align 8
  %27 = alloca %"class.std::__1::auto_ptr"*, align 8
  %28 = alloca %"class.altered_carbon::js::ACJsValue"*, align 8
  %29 = alloca %"class.std::__1::auto_ptr"*, align 8
  %30 = alloca %"class.std::__1::auto_ptr"*, align 8
  %31 = alloca %"class.std::__1::auto_ptr"*, align 8
  %32 = alloca %"class.altered_carbon::js::ACJsValue"*, align 8
  %33 = alloca %"class.std::__1::auto_ptr"*, align 8
  %34 = alloca %"class.altered_carbon::js::ACJsValue"*, align 8
  %35 = alloca %"class.std::__1::auto_ptr"*, align 8
  %36 = alloca %"class.altered_carbon::js::ACJsValue"*, align 8
  %37 = alloca %"class.altered_carbon::js::ACJsValue"**, align 8
  %38 = alloca i32, align 4
  %39 = alloca %"class.altered_carbon::js::ACJsValue"*, align 8
  %40 = alloca %"class.altered_carbon::js::ACJsValue"*, align 8
  %41 = alloca %"class.altered_carbon::js::ACJsValue"*, align 8
  %42 = alloca %"class.std::__1::auto_ptr", align 8
  %43 = alloca %"class.std::__1::auto_ptr", align 8
  %44 = alloca %"class.std::__1::auto_ptr", align 8
  %45 = alloca %"class.std::__1::auto_ptr", align 8
  %46 = alloca %"class.altered_carbon::js::ACJsValue", align 8
  %47 = alloca %"class.altered_carbon::js::ACJsValue", align 8
  store %"class.altered_carbon::js::ACJsValue"** %0, %"class.altered_carbon::js::ACJsValue"*** %37, align 8
  store i32 %1, i32* %38, align 4
  store %"class.altered_carbon::js::ACJsValue"* %2, %"class.altered_carbon::js::ACJsValue"** %39, align 8
  store %"class.altered_carbon::js::ACJsValue"* %3, %"class.altered_carbon::js::ACJsValue"** %40, align 8
  %48 = load %"class.altered_carbon::js::ACJsValue"*, %"class.altered_carbon::js::ACJsValue"** %39, align 8
  %49 = icmp ne %"class.altered_carbon::js::ACJsValue"* %48, null
  br i1 %49, label %50, label %55

; <label>:50:                                     ; preds = %4
