	.section	__TEXT,__text,regular,pure_instructions
	.macosx_version_min 10, 13
	.globl	__Z7_scriptPN14altered_carbon2js9JsVariantE ## -- Begin function _Z7_scriptPN14altered_carbon2js9JsVariantE
	.p2align	4, 0x90
__Z7_scriptPN14altered_carbon2js9JsVariantE: ## @_Z7_scriptPN14altered_carbon2js9JsVariantE
	.cfi_startproc
## %bb.0:                               ## %init.bb
	pushq	%r15
	.cfi_def_cfa_offset 16
	pushq	%r14
	.cfi_def_cfa_offset 24
	pushq	%r13
	.cfi_def_cfa_offset 32
	pushq	%r12
	.cfi_def_cfa_offset 40
	pushq	%rbx
	.cfi_def_cfa_offset 48
	subq	$256, %rsp              ## imm = 0x100
	.cfi_def_cfa_offset 304
	.cfi_offset %rbx, -48
	.cfi_offset %r12, -40
	.cfi_offset %r13, -32
	.cfi_offset %r14, -24
	.cfi_offset %r15, -16
	movq	%rdi, %r14
	movq	__ZTVN14altered_carbon2js9JsVariantE@GOTPCREL(%rip), %rbx
	addq	$16, %rbx
	movq	%rbx, 88(%rsp)
	movl	$1, 96(%rsp)
	movq	%rbx, 32(%rsp)
	movl	$1, 40(%rsp)
	movq	%rbx, 200(%rsp)
	movl	$1, 208(%rsp)
	movq	%rbx, 144(%rsp)
	movl	$1, 152(%rsp)
	leaq	88(%rsp), %rdi
	movl	$1, %esi
	callq	__ZN14altered_carbon2js9JsVariantaSEx
	leaq	32(%rsp), %rdi
	movl	$3, %esi
	callq	__ZN14altered_carbon2js9JsVariantaSEx
	movl	$176, %edi
	callq	__Znam
	movq	$3, (%rax)
	leaq	8(%rax), %r13
	addq	$176, %rax
	movq	%r13, %rcx
	.p2align	4, 0x90
LBB0_1:                                 ## %initarr.bb
                                        ## =>This Inner Loop Header: Depth=1
	movq	%rbx, (%rcx)
	movl	$1, 8(%rcx)
	addq	$56, %rcx
	cmpq	%rax, %rcx
	jne	LBB0_1
## %bb.2:                               ## %initarr.bbe
	leaq	88(%rsp), %r15
	movq	%r13, %rdi
	movq	%r15, %rsi
	callq	__ZN14altered_carbon2js9JsVariantaSERKS1_
	movq	%r13, (%rsp)
	leaq	56(%r13), %rax
	movq	%rax, 8(%rsp)
	addq	$112, %r13
	leaq	32(%rsp), %r12
	movq	%r13, %rdi
	movq	%r12, %rsi
	callq	__ZN14altered_carbon2js9JsVariantaSERKS1_
	movq	%r13, 16(%rsp)
	leaq	200(%rsp), %r13
	movq	%rsp, %rsi
	movl	$3, %edx
	movq	%r13, %rdi
	callq	__ZN14altered_carbon2js9JsVariantaSEN4llvm8ArrayRefIPS1_EE
	leaq	144(%rsp), %rbx
	movq	%rbx, %rdi
	movq	%r13, %rsi
	callq	__ZN14altered_carbon2js9JsVariantaSERKS1_
	movq	%r14, %rdi
	movq	%rbx, %rsi
	callq	__ZN14altered_carbon2js9JsVariantaSERKS1_
	movq	%rbx, %rdi
	callq	__ZN14altered_carbon2js9JsVariantD1Ev
	movq	%r13, %rdi
	callq	__ZN14altered_carbon2js9JsVariantD1Ev
	movq	%r12, %rdi
	callq	__ZN14altered_carbon2js9JsVariantD1Ev
	movq	%r15, %rdi
	callq	__ZN14altered_carbon2js9JsVariantD1Ev
	addq	$256, %rsp              ## imm = 0x100
	popq	%rbx
	popq	%r12
	popq	%r13
	popq	%r14
	popq	%r15
	retq
	.cfi_endproc
                                        ## -- End function
	.section	__TEXT,__const
	.globl	__ZTSN14altered_carbon2js9JsVariantE ## @_ZTSN14altered_carbon2js9JsVariantE
	.weak_definition	__ZTSN14altered_carbon2js9JsVariantE
	.p2align	4
__ZTSN14altered_carbon2js9JsVariantE:
	.asciz	"N14altered_carbon2js9JsVariantE"

	.section	__DATA,__const
	.globl	__ZTIN14altered_carbon2js9JsVariantE ## @_ZTIN14altered_carbon2js9JsVariantE
	.weak_definition	__ZTIN14altered_carbon2js9JsVariantE
	.p2align	3
__ZTIN14altered_carbon2js9JsVariantE:
	.quad	__ZTVN10__cxxabiv117__class_type_infoE+16
	.quad	__ZTSN14altered_carbon2js9JsVariantE

	.globl	__ZTVN14altered_carbon2js9JsVariantE ## @_ZTVN14altered_carbon2js9JsVariantE
	.weak_def_can_be_hidden	__ZTVN14altered_carbon2js9JsVariantE
	.p2align	3
__ZTVN14altered_carbon2js9JsVariantE:
	.quad	0
	.quad	__ZTIN14altered_carbon2js9JsVariantE
	.quad	__ZN14altered_carbon2js9JsVariantD1Ev
	.quad	__ZN14altered_carbon2js9JsVariantD0Ev


.subsections_via_symbols
