; ModuleID = 'arr8.js'
source_filename = "arr8.js"

%"cls.acjs::JsVariant" = type { i32 (...)**, i32, %union.anon.6 }
%union.anon.6 = type { %"class.std::__1::basic_string", [16 x i8] }
%"class.std::__1::basic_string" = type { %"class.std::__1::__compressed_pair.3" }
%"class.std::__1::__compressed_pair.3" = type { %"struct.std::__1::__compressed_pair_elem.2" }
%"struct.std::__1::__compressed_pair_elem.2" = type { %"struct.std::__1::basic_string<wchar_t, std::__1::char_traits<wchar_t>, std::__1::allocator<wchar_t> >::__rep" }
%"struct.std::__1::basic_string<wchar_t, std::__1::char_traits<wchar_t>, std::__1::allocator<wchar_t> >::__rep" = type { %union.anon }
%union.anon = type { %"struct.std::__1::basic_string<wchar_t, std::__1::char_traits<wchar_t>, std::__1::allocator<wchar_t> >::__long" }
%"struct.std::__1::basic_string<wchar_t, std::__1::char_traits<wchar_t>, std::__1::allocator<wchar_t> >::__long" = type { i64, i64, i32* }
%"class.llvm::ArrayRef" = type { %"cls.acjs::JsVariant"**, i64 }

@_ZTVN10__cxxabiv117__class_type_infoE = external global i8*
@_ZTSN14altered_carbon2js9JsVariantE = linkonce_odr constant [32 x i8] c"N14altered_carbon2js9JsVariantE\00"
@_ZTIN14altered_carbon2js9JsVariantE = linkonce_odr constant { i8*, i8* } { i8* bitcast (i8** getelementptr inbounds (i8*, i8** @_ZTVN10__cxxabiv117__class_type_infoE, i64 2) to i8*), i8* getelementptr inbounds ([32 x i8], [32 x i8]* @_ZTSN14altered_carbon2js9JsVariantE, i32 0, i32 0) }
@_ZTVN14altered_carbon2js9JsVariantE = linkonce_odr unnamed_addr constant { [4 x i8*] } { [4 x i8*] [i8* null, i8* bitcast ({ i8*, i8* }* @_ZTIN14altered_carbon2js9JsVariantE to i8*), i8* bitcast (void (%"cls.acjs::JsVariant"*)* @_ZN14altered_carbon2js9JsVariantD1Ev to i8*), i8* bitcast (void (%"cls.acjs::JsVariant"*)* @_ZN14altered_carbon2js9JsVariantD0Ev to i8*)] }, align 8

declare void @_ZN14altered_carbon2js9JsVariantD1Ev(%"cls.acjs::JsVariant"*)

declare void @_ZN14altered_carbon2js9JsVariantD0Ev(%"cls.acjs::JsVariant"*)

declare dereferenceable(56) %"cls.acjs::JsVariant"* @_ZNK14altered_carbon2js9JsVariant3bwaEPS1_RKS1_(%"cls.acjs::JsVariant"*, %"cls.acjs::JsVariant"*, %"cls.acjs::JsVariant"* dereferenceable(56))

declare dereferenceable(56) %"cls.acjs::JsVariant"* @_ZNK14altered_carbon2js9JsVariant3bwxEPS1_RKS1_(%"cls.acjs::JsVariant"*, %"cls.acjs::JsVariant"*, %"cls.acjs::JsVariant"* dereferenceable(56))

declare zeroext i1 @_ZNK14altered_carbon2js9JsVarianteqERKS1_(%"cls.acjs::JsVariant"*, %"cls.acjs::JsVariant"* dereferenceable(56))

declare zeroext i1 @_ZNK14altered_carbon2js9JsVariantneERKS1_(%"cls.acjs::JsVariant"*, %"cls.acjs::JsVariant"* dereferenceable(56))

declare zeroext i1 @_ZNK14altered_carbon2js9JsVarianteqvtERKS1_(%"cls.acjs::JsVariant"*, %"cls.acjs::JsVariant"* dereferenceable(56))

declare zeroext i1 @_ZNK14altered_carbon2js9JsVariantnevtERKS1_(%"cls.acjs::JsVariant"*, %"cls.acjs::JsVariant"* dereferenceable(56))

declare zeroext i1 @_ZNK14altered_carbon2js9JsVariantltERKS1_(%"cls.acjs::JsVariant"*, %"cls.acjs::JsVariant"* dereferenceable(56))

declare zeroext i1 @_ZNK14altered_carbon2js9JsVariantgtERKS1_(%"cls.acjs::JsVariant"*, %"cls.acjs::JsVariant"* dereferenceable(56))

declare zeroext i1 @_ZNK14altered_carbon2js9JsVariantleERKS1_(%"cls.acjs::JsVariant"*, %"cls.acjs::JsVariant"* dereferenceable(56))

declare zeroext i1 @_ZNK14altered_carbon2js9JsVariantgeERKS1_(%"cls.acjs::JsVariant"*, %"cls.acjs::JsVariant"* dereferenceable(56))

declare dereferenceable(56) %"cls.acjs::JsVariant"* @_ZNK14altered_carbon2js9JsVariant3ltsEPS1_RKS1_(%"cls.acjs::JsVariant"*, %"cls.acjs::JsVariant"*, %"cls.acjs::JsVariant"* dereferenceable(56))

declare dereferenceable(56) %"cls.acjs::JsVariant"* @_ZNK14altered_carbon2js9JsVariant3rtsEPS1_RKS1_(%"cls.acjs::JsVariant"*, %"cls.acjs::JsVariant"*, %"cls.acjs::JsVariant"* dereferenceable(56))

declare dereferenceable(56) %"cls.acjs::JsVariant"* @_ZNK14altered_carbon2js9JsVariant3rszEPS1_RKS1_(%"cls.acjs::JsVariant"*, %"cls.acjs::JsVariant"*, %"cls.acjs::JsVariant"* dereferenceable(56))

declare dereferenceable(56) %"cls.acjs::JsVariant"* @_ZNK14altered_carbon2js9JsVariant3addEPS1_RKS1_(%"cls.acjs::JsVariant"*, %"cls.acjs::JsVariant"*, %"cls.acjs::JsVariant"* dereferenceable(56))

declare dereferenceable(56) %"cls.acjs::JsVariant"* @_ZNK14altered_carbon2js9JsVariant3subEPS1_RKS1_(%"cls.acjs::JsVariant"*, %"cls.acjs::JsVariant"*, %"cls.acjs::JsVariant"* dereferenceable(56))

declare dereferenceable(56) %"cls.acjs::JsVariant"* @_ZNK14altered_carbon2js9JsVariant3mulEPS1_RKS1_(%"cls.acjs::JsVariant"*, %"cls.acjs::JsVariant"*, %"cls.acjs::JsVariant"* dereferenceable(56))

declare dereferenceable(56) %"cls.acjs::JsVariant"* @_ZNK14altered_carbon2js9JsVariant3divEPS1_RKS1_(%"cls.acjs::JsVariant"*, %"cls.acjs::JsVariant"*, %"cls.acjs::JsVariant"* dereferenceable(56))

declare dereferenceable(56) %"cls.acjs::JsVariant"* @_ZNK14altered_carbon2js9JsVariant3modEPS1_RKS1_(%"cls.acjs::JsVariant"*, %"cls.acjs::JsVariant"*, %"cls.acjs::JsVariant"* dereferenceable(56))

declare void @_ZN14altered_carbon2js9JsVariantppEi(%"cls.acjs::JsVariant"* noalias sret, %"cls.acjs::JsVariant"*, i32)

declare dereferenceable(56) %"cls.acjs::JsVariant"* @_ZN14altered_carbon2js9JsVariantppEv(%"cls.acjs::JsVariant"*)

declare void @_ZN14altered_carbon2js9JsVariantmmEi(%"cls.acjs::JsVariant"* noalias sret, %"cls.acjs::JsVariant"*, i32)

declare dereferenceable(56) %"cls.acjs::JsVariant"* @_ZN14altered_carbon2js9JsVariantmmEv(%"cls.acjs::JsVariant"*)

declare dereferenceable(56) %"cls.acjs::JsVariant"* @_ZN14altered_carbon2js9JsVariantaSERKS1_(%"cls.acjs::JsVariant"*, %"cls.acjs::JsVariant"* dereferenceable(56))

declare dereferenceable(56) %"cls.acjs::JsVariant"* @_ZN14altered_carbon2js9JsVariantpLERKS1_(%"cls.acjs::JsVariant"*, %"cls.acjs::JsVariant"* dereferenceable(56))

declare dereferenceable(56) %"cls.acjs::JsVariant"* @_ZN14altered_carbon2js9JsVariantmIERKS1_(%"cls.acjs::JsVariant"*, %"cls.acjs::JsVariant"* dereferenceable(56))

declare dereferenceable(56) %"cls.acjs::JsVariant"* @_ZN14altered_carbon2js9JsVariantmLERKS1_(%"cls.acjs::JsVariant"*, %"cls.acjs::JsVariant"* dereferenceable(56))

declare dereferenceable(56) %"cls.acjs::JsVariant"* @_ZN14altered_carbon2js9JsVariantdVERKS1_(%"cls.acjs::JsVariant"*, %"cls.acjs::JsVariant"* dereferenceable(56))

declare dereferenceable(56) %"cls.acjs::JsVariant"* @_ZN14altered_carbon2js9JsVariantrMERKS1_(%"cls.acjs::JsVariant"*, %"cls.acjs::JsVariant"* dereferenceable(56))

declare dereferenceable(56) %"cls.acjs::JsVariant"* @_ZN14altered_carbon2js9JsVariantlSERKS1_(%"cls.acjs::JsVariant"*, %"cls.acjs::JsVariant"* dereferenceable(56))

declare dereferenceable(56) %"cls.acjs::JsVariant"* @_ZN14altered_carbon2js9JsVariantrSERKS1_(%"cls.acjs::JsVariant"*, %"cls.acjs::JsVariant"* dereferenceable(56))

declare dereferenceable(56) %"cls.acjs::JsVariant"* @_ZN14altered_carbon2js9JsVariant4arszERKS1_(%"cls.acjs::JsVariant"*, %"cls.acjs::JsVariant"* dereferenceable(56))

declare dereferenceable(56) %"cls.acjs::JsVariant"* @_ZN14altered_carbon2js9JsVariantaNERKS1_(%"cls.acjs::JsVariant"*, %"cls.acjs::JsVariant"* dereferenceable(56))

declare dereferenceable(56) %"cls.acjs::JsVariant"* @_ZN14altered_carbon2js9JsVariantoRERKS1_(%"cls.acjs::JsVariant"*, %"cls.acjs::JsVariant"* dereferenceable(56))

declare dereferenceable(56) %"cls.acjs::JsVariant"* @_ZN14altered_carbon2js9JsVarianteOERKS1_(%"cls.acjs::JsVariant"*, %"cls.acjs::JsVariant"* dereferenceable(56))

define void @_Z7_scriptPN14altered_carbon2js9JsVariantE(%"cls.acjs::JsVariant"*) {
init.bb:
  %ptr = alloca %"cls.acjs::JsVariant", align 8
  %1 = bitcast %"cls.acjs::JsVariant"* %ptr to i32 (...)***
  store i32 (...)** bitcast (i8** getelementptr inbounds ({ [4 x i8*] }, { [4 x i8*] }* @_ZTVN14altered_carbon2js9JsVariantE, i32 0, inrange i32 0, i32 2) to i32 (...)**), i32 (...)*** %1, align 8
  %2 = getelementptr inbounds %"cls.acjs::JsVariant", %"cls.acjs::JsVariant"* %ptr, i32 0, i32 1
  store i32 1, i32* %2, align 8
  %ptr1 = alloca %"cls.acjs::JsVariant", align 8
  %3 = bitcast %"cls.acjs::JsVariant"* %ptr1 to i32 (...)***
  store i32 (...)** bitcast (i8** getelementptr inbounds ({ [4 x i8*] }, { [4 x i8*] }* @_ZTVN14altered_carbon2js9JsVariantE, i32 0, inrange i32 0, i32 2) to i32 (...)**), i32 (...)*** %3, align 8
  %4 = getelementptr inbounds %"cls.acjs::JsVariant", %"cls.acjs::JsVariant"* %ptr1, i32 0, i32 1
  store i32 1, i32* %4, align 8
  %ptr2 = alloca [2 x %"cls.acjs::JsVariant"*], align 16
  %ptr4 = alloca %"cls.acjs::JsVariant", align 8
  %5 = bitcast %"cls.acjs::JsVariant"* %ptr4 to i32 (...)***
  store i32 (...)** bitcast (i8** getelementptr inbounds ({ [4 x i8*] }, { [4 x i8*] }* @_ZTVN14altered_carbon2js9JsVariantE, i32 0, inrange i32 0, i32 2) to i32 (...)**), i32 (...)*** %5, align 8
  %6 = getelementptr inbounds %"cls.acjs::JsVariant", %"cls.acjs::JsVariant"* %ptr4, i32 0, i32 1
  store i32 1, i32* %6, align 8
  %ptr5 = alloca %"cls.acjs::JsVariant", align 8
  %7 = bitcast %"cls.acjs::JsVariant"* %ptr5 to i32 (...)***
  store i32 (...)** bitcast (i8** getelementptr inbounds ({ [4 x i8*] }, { [4 x i8*] }* @_ZTVN14altered_carbon2js9JsVariantE, i32 0, inrange i32 0, i32 2) to i32 (...)**), i32 (...)*** %7, align 8
  %8 = getelementptr inbounds %"cls.acjs::JsVariant", %"cls.acjs::JsVariant"* %ptr5, i32 0, i32 1
  store i32 1, i32* %8, align 8
  %ptr6 = alloca %"cls.acjs::JsVariant", align 8
  %9 = bitcast %"cls.acjs::JsVariant"* %ptr6 to i32 (...)***
  store i32 (...)** bitcast (i8** getelementptr inbounds ({ [4 x i8*] }, { [4 x i8*] }* @_ZTVN14altered_carbon2js9JsVariantE, i32 0, inrange i32 0, i32 2) to i32 (...)**), i32 (...)*** %9, align 8
  %10 = getelementptr inbounds %"cls.acjs::JsVariant", %"cls.acjs::JsVariant"* %ptr6, i32 0, i32 1
  store i32 1, i32* %10, align 8
  %ptr8 = alloca [2 x %"cls.acjs::JsVariant"*], align 16
  %ptr14 = alloca %"cls.acjs::JsVariant", align 8
  %11 = bitcast %"cls.acjs::JsVariant"* %ptr14 to i32 (...)***
  store i32 (...)** bitcast (i8** getelementptr inbounds ({ [4 x i8*] }, { [4 x i8*] }* @_ZTVN14altered_carbon2js9JsVariantE, i32 0, inrange i32 0, i32 2) to i32 (...)**), i32 (...)*** %11, align 8
  %12 = getelementptr inbounds %"cls.acjs::JsVariant", %"cls.acjs::JsVariant"* %ptr14, i32 0, i32 1
  store i32 1, i32* %12, align 8
  %ptr16 = alloca [2 x %"cls.acjs::JsVariant"*], align 16
  %ptr22 = alloca %"cls.acjs::JsVariant", align 8
  %13 = bitcast %"cls.acjs::JsVariant"* %ptr22 to i32 (...)***
  store i32 (...)** bitcast (i8** getelementptr inbounds ({ [4 x i8*] }, { [4 x i8*] }* @_ZTVN14altered_carbon2js9JsVariantE, i32 0, inrange i32 0, i32 2) to i32 (...)**), i32 (...)*** %13, align 8
  %14 = getelementptr inbounds %"cls.acjs::JsVariant", %"cls.acjs::JsVariant"* %ptr22, i32 0, i32 1
  store i32 1, i32* %14, align 8
  %ptr24 = alloca [1 x %"cls.acjs::JsVariant"*], align 16
  %ptr30 = alloca %"cls.acjs::JsVariant", align 8
  %15 = bitcast %"cls.acjs::JsVariant"* %ptr30 to i32 (...)***
  store i32 (...)** bitcast (i8** getelementptr inbounds ({ [4 x i8*] }, { [4 x i8*] }* @_ZTVN14altered_carbon2js9JsVariantE, i32 0, inrange i32 0, i32 2) to i32 (...)**), i32 (...)*** %15, align 8
  %16 = getelementptr inbounds %"cls.acjs::JsVariant", %"cls.acjs::JsVariant"* %ptr30, i32 0, i32 1
  store i32 1, i32* %16, align 8
  %ptr32 = alloca [1 x %"cls.acjs::JsVariant"*], align 16
  %ptr38 = alloca %"cls.acjs::JsVariant", align 8
  %17 = bitcast %"cls.acjs::JsVariant"* %ptr38 to i32 (...)***
  store i32 (...)** bitcast (i8** getelementptr inbounds ({ [4 x i8*] }, { [4 x i8*] }* @_ZTVN14altered_carbon2js9JsVariantE, i32 0, inrange i32 0, i32 2) to i32 (...)**), i32 (...)*** %17, align 8
  %18 = getelementptr inbounds %"cls.acjs::JsVariant", %"cls.acjs::JsVariant"* %ptr38, i32 0, i32 1
  store i32 1, i32* %18, align 8
  %ptr40 = alloca [1 x %"cls.acjs::JsVariant"*], align 16
  %ptr46 = alloca %"cls.acjs::JsVariant", align 8
  %19 = bitcast %"cls.acjs::JsVariant"* %ptr46 to i32 (...)***
  store i32 (...)** bitcast (i8** getelementptr inbounds ({ [4 x i8*] }, { [4 x i8*] }* @_ZTVN14altered_carbon2js9JsVariantE, i32 0, inrange i32 0, i32 2) to i32 (...)**), i32 (...)*** %19, align 8
  %20 = getelementptr inbounds %"cls.acjs::JsVariant", %"cls.acjs::JsVariant"* %ptr46, i32 0, i32 1
  store i32 1, i32* %20, align 8
  %ptr48 = alloca [1 x %"cls.acjs::JsVariant"*], align 16
  %ptr54 = alloca %"cls.acjs::JsVariant", align 8
  %21 = bitcast %"cls.acjs::JsVariant"* %ptr54 to i32 (...)***
  store i32 (...)** bitcast (i8** getelementptr inbounds ({ [4 x i8*] }, { [4 x i8*] }* @_ZTVN14altered_carbon2js9JsVariantE, i32 0, inrange i32 0, i32 2) to i32 (...)**), i32 (...)*** %21, align 8
  %22 = getelementptr inbounds %"cls.acjs::JsVariant", %"cls.acjs::JsVariant"* %ptr54, i32 0, i32 1
  store i32 1, i32* %22, align 8
  %ptr55 = alloca %"cls.acjs::JsVariant", align 8
  %23 = bitcast %"cls.acjs::JsVariant"* %ptr55 to i32 (...)***
  store i32 (...)** bitcast (i8** getelementptr inbounds ({ [4 x i8*] }, { [4 x i8*] }* @_ZTVN14altered_carbon2js9JsVariantE, i32 0, inrange i32 0, i32 2) to i32 (...)**), i32 (...)*** %23, align 8
  %24 = getelementptr inbounds %"cls.acjs::JsVariant", %"cls.acjs::JsVariant"* %ptr55, i32 0, i32 1
  store i32 1, i32* %24, align 8
  %ptr56 = alloca %"cls.acjs::JsVariant", align 8
  %25 = bitcast %"cls.acjs::JsVariant"* %ptr56 to i32 (...)***
  store i32 (...)** bitcast (i8** getelementptr inbounds ({ [4 x i8*] }, { [4 x i8*] }* @_ZTVN14altered_carbon2js9JsVariantE, i32 0, inrange i32 0, i32 2) to i32 (...)**), i32 (...)*** %25, align 8
  %26 = getelementptr inbounds %"cls.acjs::JsVariant", %"cls.acjs::JsVariant"* %ptr56, i32 0, i32 1
  store i32 1, i32* %26, align 8
  %ptr58 = alloca [2 x %"cls.acjs::JsVariant"*], align 16
  %ptr64 = alloca %"cls.acjs::JsVariant", align 8
  %27 = bitcast %"cls.acjs::JsVariant"* %ptr64 to i32 (...)***
  store i32 (...)** bitcast (i8** getelementptr inbounds ({ [4 x i8*] }, { [4 x i8*] }* @_ZTVN14altered_carbon2js9JsVariantE, i32 0, inrange i32 0, i32 2) to i32 (...)**), i32 (...)*** %27, align 8
  %28 = getelementptr inbounds %"cls.acjs::JsVariant", %"cls.acjs::JsVariant"* %ptr64, i32 0, i32 1
  store i32 1, i32* %28, align 8
  %ptr65 = alloca %"cls.acjs::JsVariant", align 8
  %29 = bitcast %"cls.acjs::JsVariant"* %ptr65 to i32 (...)***
  store i32 (...)** bitcast (i8** getelementptr inbounds ({ [4 x i8*] }, { [4 x i8*] }* @_ZTVN14altered_carbon2js9JsVariantE, i32 0, inrange i32 0, i32 2) to i32 (...)**), i32 (...)*** %29, align 8
  %30 = getelementptr inbounds %"cls.acjs::JsVariant", %"cls.acjs::JsVariant"* %ptr65, i32 0, i32 1
  store i32 1, i32* %30, align 8
  %ptr66 = alloca %"cls.acjs::JsVariant", align 8
  %31 = bitcast %"cls.acjs::JsVariant"* %ptr66 to i32 (...)***
  store i32 (...)** bitcast (i8** getelementptr inbounds ({ [4 x i8*] }, { [4 x i8*] }* @_ZTVN14altered_carbon2js9JsVariantE, i32 0, inrange i32 0, i32 2) to i32 (...)**), i32 (...)*** %31, align 8
  %32 = getelementptr inbounds %"cls.acjs::JsVariant", %"cls.acjs::JsVariant"* %ptr66, i32 0, i32 1
  store i32 1, i32* %32, align 8
  %ptr68 = alloca [2 x %"cls.acjs::JsVariant"*], align 16
  %ptr74 = alloca %"cls.acjs::JsVariant", align 8
  %33 = bitcast %"cls.acjs::JsVariant"* %ptr74 to i32 (...)***
  store i32 (...)** bitcast (i8** getelementptr inbounds ({ [4 x i8*] }, { [4 x i8*] }* @_ZTVN14altered_carbon2js9JsVariantE, i32 0, inrange i32 0, i32 2) to i32 (...)**), i32 (...)*** %33, align 8
  %34 = getelementptr inbounds %"cls.acjs::JsVariant", %"cls.acjs::JsVariant"* %ptr74, i32 0, i32 1
  store i32 1, i32* %34, align 8
  %ptr76 = alloca [2 x %"cls.acjs::JsVariant"*], align 16
  %ptr82 = alloca %"cls.acjs::JsVariant", align 8
  %35 = bitcast %"cls.acjs::JsVariant"* %ptr82 to i32 (...)***
  store i32 (...)** bitcast (i8** getelementptr inbounds ({ [4 x i8*] }, { [4 x i8*] }* @_ZTVN14altered_carbon2js9JsVariantE, i32 0, inrange i32 0, i32 2) to i32 (...)**), i32 (...)*** %35, align 8
  %36 = getelementptr inbounds %"cls.acjs::JsVariant", %"cls.acjs::JsVariant"* %ptr82, i32 0, i32 1
  store i32 1, i32* %36, align 8
  %ptr84 = alloca [1 x %"cls.acjs::JsVariant"*], align 16
  %ptr90 = alloca %"cls.acjs::JsVariant", align 8
  %37 = bitcast %"cls.acjs::JsVariant"* %ptr90 to i32 (...)***
  store i32 (...)** bitcast (i8** getelementptr inbounds ({ [4 x i8*] }, { [4 x i8*] }* @_ZTVN14altered_carbon2js9JsVariantE, i32 0, inrange i32 0, i32 2) to i32 (...)**), i32 (...)*** %37, align 8
  %38 = getelementptr inbounds %"cls.acjs::JsVariant", %"cls.acjs::JsVariant"* %ptr90, i32 0, i32 1
  store i32 1, i32* %38, align 8
  %ptr92 = alloca [1 x %"cls.acjs::JsVariant"*], align 16
  %ptr98 = alloca %"cls.acjs::JsVariant", align 8
  %39 = bitcast %"cls.acjs::JsVariant"* %ptr98 to i32 (...)***
  store i32 (...)** bitcast (i8** getelementptr inbounds ({ [4 x i8*] }, { [4 x i8*] }* @_ZTVN14altered_carbon2js9JsVariantE, i32 0, inrange i32 0, i32 2) to i32 (...)**), i32 (...)*** %39, align 8
  %40 = getelementptr inbounds %"cls.acjs::JsVariant", %"cls.acjs::JsVariant"* %ptr98, i32 0, i32 1
  store i32 1, i32* %40, align 8
  %ptr100 = alloca [1 x %"cls.acjs::JsVariant"*], align 16
  %ptr106 = alloca %"cls.acjs::JsVariant", align 8
  %41 = bitcast %"cls.acjs::JsVariant"* %ptr106 to i32 (...)***
  store i32 (...)** bitcast (i8** getelementptr inbounds ({ [4 x i8*] }, { [4 x i8*] }* @_ZTVN14altered_carbon2js9JsVariantE, i32 0, inrange i32 0, i32 2) to i32 (...)**), i32 (...)*** %41, align 8
  %42 = getelementptr inbounds %"cls.acjs::JsVariant", %"cls.acjs::JsVariant"* %ptr106, i32 0, i32 1
  store i32 1, i32* %42, align 8
  %ptr108 = alloca [1 x %"cls.acjs::JsVariant"*], align 16
  %ptr114 = alloca %"cls.acjs::JsVariant", align 8
  %43 = bitcast %"cls.acjs::JsVariant"* %ptr114 to i32 (...)***
  store i32 (...)** bitcast (i8** getelementptr inbounds ({ [4 x i8*] }, { [4 x i8*] }* @_ZTVN14altered_carbon2js9JsVariantE, i32 0, inrange i32 0, i32 2) to i32 (...)**), i32 (...)*** %43, align 8
  %44 = getelementptr inbounds %"cls.acjs::JsVariant", %"cls.acjs::JsVariant"* %ptr114, i32 0, i32 1
  store i32 1, i32* %44, align 8
  %ptr115 = alloca %"cls.acjs::JsVariant", align 8
  %45 = bitcast %"cls.acjs::JsVariant"* %ptr115 to i32 (...)***
  store i32 (...)** bitcast (i8** getelementptr inbounds ({ [4 x i8*] }, { [4 x i8*] }* @_ZTVN14altered_carbon2js9JsVariantE, i32 0, inrange i32 0, i32 2) to i32 (...)**), i32 (...)*** %45, align 8
  %46 = getelementptr inbounds %"cls.acjs::JsVariant", %"cls.acjs::JsVariant"* %ptr115, i32 0, i32 1
  store i32 1, i32* %46, align 8
  %ptr116 = alloca %"cls.acjs::JsVariant", align 8
  %47 = bitcast %"cls.acjs::JsVariant"* %ptr116 to i32 (...)***
  store i32 (...)** bitcast (i8** getelementptr inbounds ({ [4 x i8*] }, { [4 x i8*] }* @_ZTVN14altered_carbon2js9JsVariantE, i32 0, inrange i32 0, i32 2) to i32 (...)**), i32 (...)*** %47, align 8
  %48 = getelementptr inbounds %"cls.acjs::JsVariant", %"cls.acjs::JsVariant"* %ptr116, i32 0, i32 1
  store i32 1, i32* %48, align 8
  %ptr118 = alloca [2 x %"cls.acjs::JsVariant"*], align 16
  %ptr124 = alloca %"cls.acjs::JsVariant", align 8
  %49 = bitcast %"cls.acjs::JsVariant"* %ptr124 to i32 (...)***
  store i32 (...)** bitcast (i8** getelementptr inbounds ({ [4 x i8*] }, { [4 x i8*] }* @_ZTVN14altered_carbon2js9JsVariantE, i32 0, inrange i32 0, i32 2) to i32 (...)**), i32 (...)*** %49, align 8
  %50 = getelementptr inbounds %"cls.acjs::JsVariant", %"cls.acjs::JsVariant"* %ptr124, i32 0, i32 1
  store i32 1, i32* %50, align 8
  %ptr125 = alloca %"cls.acjs::JsVariant", align 8
  %51 = bitcast %"cls.acjs::JsVariant"* %ptr125 to i32 (...)***
  store i32 (...)** bitcast (i8** getelementptr inbounds ({ [4 x i8*] }, { [4 x i8*] }* @_ZTVN14altered_carbon2js9JsVariantE, i32 0, inrange i32 0, i32 2) to i32 (...)**), i32 (...)*** %51, align 8
  %52 = getelementptr inbounds %"cls.acjs::JsVariant", %"cls.acjs::JsVariant"* %ptr125, i32 0, i32 1
  store i32 1, i32* %52, align 8
  %ptr126 = alloca %"cls.acjs::JsVariant", align 8
  %53 = bitcast %"cls.acjs::JsVariant"* %ptr126 to i32 (...)***
  store i32 (...)** bitcast (i8** getelementptr inbounds ({ [4 x i8*] }, { [4 x i8*] }* @_ZTVN14altered_carbon2js9JsVariantE, i32 0, inrange i32 0, i32 2) to i32 (...)**), i32 (...)*** %53, align 8
  %54 = getelementptr inbounds %"cls.acjs::JsVariant", %"cls.acjs::JsVariant"* %ptr126, i32 0, i32 1
  store i32 1, i32* %54, align 8
  %ptr128 = alloca [2 x %"cls.acjs::JsVariant"*], align 16
  %ptr134 = alloca %"cls.acjs::JsVariant", align 8
  %55 = bitcast %"cls.acjs::JsVariant"* %ptr134 to i32 (...)***
  store i32 (...)** bitcast (i8** getelementptr inbounds ({ [4 x i8*] }, { [4 x i8*] }* @_ZTVN14altered_carbon2js9JsVariantE, i32 0, inrange i32 0, i32 2) to i32 (...)**), i32 (...)*** %55, align 8
  %56 = getelementptr inbounds %"cls.acjs::JsVariant", %"cls.acjs::JsVariant"* %ptr134, i32 0, i32 1
  store i32 1, i32* %56, align 8
  %ptr136 = alloca [2 x %"cls.acjs::JsVariant"*], align 16
  %ptr142 = alloca %"cls.acjs::JsVariant", align 8
  %57 = bitcast %"cls.acjs::JsVariant"* %ptr142 to i32 (...)***
  store i32 (...)** bitcast (i8** getelementptr inbounds ({ [4 x i8*] }, { [4 x i8*] }* @_ZTVN14altered_carbon2js9JsVariantE, i32 0, inrange i32 0, i32 2) to i32 (...)**), i32 (...)*** %57, align 8
  %58 = getelementptr inbounds %"cls.acjs::JsVariant", %"cls.acjs::JsVariant"* %ptr142, i32 0, i32 1
  store i32 1, i32* %58, align 8
  %ptr144 = alloca [1 x %"cls.acjs::JsVariant"*], align 16
  %ptr150 = alloca %"cls.acjs::JsVariant", align 8
  %59 = bitcast %"cls.acjs::JsVariant"* %ptr150 to i32 (...)***
  store i32 (...)** bitcast (i8** getelementptr inbounds ({ [4 x i8*] }, { [4 x i8*] }* @_ZTVN14altered_carbon2js9JsVariantE, i32 0, inrange i32 0, i32 2) to i32 (...)**), i32 (...)*** %59, align 8
  %60 = getelementptr inbounds %"cls.acjs::JsVariant", %"cls.acjs::JsVariant"* %ptr150, i32 0, i32 1
  store i32 1, i32* %60, align 8
  %ptr152 = alloca [1 x %"cls.acjs::JsVariant"*], align 16
  %ptr158 = alloca %"cls.acjs::JsVariant", align 8
  %61 = bitcast %"cls.acjs::JsVariant"* %ptr158 to i32 (...)***
  store i32 (...)** bitcast (i8** getelementptr inbounds ({ [4 x i8*] }, { [4 x i8*] }* @_ZTVN14altered_carbon2js9JsVariantE, i32 0, inrange i32 0, i32 2) to i32 (...)**), i32 (...)*** %61, align 8
  %62 = getelementptr inbounds %"cls.acjs::JsVariant", %"cls.acjs::JsVariant"* %ptr158, i32 0, i32 1
  store i32 1, i32* %62, align 8
  %ptr160 = alloca [1 x %"cls.acjs::JsVariant"*], align 16
  %ptr166 = alloca %"cls.acjs::JsVariant", align 8
  %63 = bitcast %"cls.acjs::JsVariant"* %ptr166 to i32 (...)***
  store i32 (...)** bitcast (i8** getelementptr inbounds ({ [4 x i8*] }, { [4 x i8*] }* @_ZTVN14altered_carbon2js9JsVariantE, i32 0, inrange i32 0, i32 2) to i32 (...)**), i32 (...)*** %63, align 8
  %64 = getelementptr inbounds %"cls.acjs::JsVariant", %"cls.acjs::JsVariant"* %ptr166, i32 0, i32 1
  store i32 1, i32* %64, align 8
  %ptr168 = alloca [1 x %"cls.acjs::JsVariant"*], align 16
  %ptr174 = alloca %"cls.acjs::JsVariant", align 8
  %65 = bitcast %"cls.acjs::JsVariant"* %ptr174 to i32 (...)***
  store i32 (...)** bitcast (i8** getelementptr inbounds ({ [4 x i8*] }, { [4 x i8*] }* @_ZTVN14altered_carbon2js9JsVariantE, i32 0, inrange i32 0, i32 2) to i32 (...)**), i32 (...)*** %65, align 8
  %66 = getelementptr inbounds %"cls.acjs::JsVariant", %"cls.acjs::JsVariant"* %ptr174, i32 0, i32 1
  store i32 1, i32* %66, align 8
  %ptr175 = alloca %"cls.acjs::JsVariant", align 8
  %67 = bitcast %"cls.acjs::JsVariant"* %ptr175 to i32 (...)***
  store i32 (...)** bitcast (i8** getelementptr inbounds ({ [4 x i8*] }, { [4 x i8*] }* @_ZTVN14altered_carbon2js9JsVariantE, i32 0, inrange i32 0, i32 2) to i32 (...)**), i32 (...)*** %67, align 8
  %68 = getelementptr inbounds %"cls.acjs::JsVariant", %"cls.acjs::JsVariant"* %ptr175, i32 0, i32 1
  store i32 1, i32* %68, align 8
  %ptr176 = alloca %"cls.acjs::JsVariant", align 8
  %69 = bitcast %"cls.acjs::JsVariant"* %ptr176 to i32 (...)***
  store i32 (...)** bitcast (i8** getelementptr inbounds ({ [4 x i8*] }, { [4 x i8*] }* @_ZTVN14altered_carbon2js9JsVariantE, i32 0, inrange i32 0, i32 2) to i32 (...)**), i32 (...)*** %69, align 8
  %70 = getelementptr inbounds %"cls.acjs::JsVariant", %"cls.acjs::JsVariant"* %ptr176, i32 0, i32 1
  store i32 1, i32* %70, align 8
  %ptr178 = alloca [2 x %"cls.acjs::JsVariant"*], align 16
  %ptr184 = alloca %"cls.acjs::JsVariant", align 8
  %71 = bitcast %"cls.acjs::JsVariant"* %ptr184 to i32 (...)***
  store i32 (...)** bitcast (i8** getelementptr inbounds ({ [4 x i8*] }, { [4 x i8*] }* @_ZTVN14altered_carbon2js9JsVariantE, i32 0, inrange i32 0, i32 2) to i32 (...)**), i32 (...)*** %71, align 8
  %72 = getelementptr inbounds %"cls.acjs::JsVariant", %"cls.acjs::JsVariant"* %ptr184, i32 0, i32 1
  store i32 1, i32* %72, align 8
  %ptr185 = alloca %"cls.acjs::JsVariant", align 8
  %73 = bitcast %"cls.acjs::JsVariant"* %ptr185 to i32 (...)***
  store i32 (...)** bitcast (i8** getelementptr inbounds ({ [4 x i8*] }, { [4 x i8*] }* @_ZTVN14altered_carbon2js9JsVariantE, i32 0, inrange i32 0, i32 2) to i32 (...)**), i32 (...)*** %73, align 8
  %74 = getelementptr inbounds %"cls.acjs::JsVariant", %"cls.acjs::JsVariant"* %ptr185, i32 0, i32 1
  store i32 1, i32* %74, align 8
  %ptr186 = alloca %"cls.acjs::JsVariant", align 8
  %75 = bitcast %"cls.acjs::JsVariant"* %ptr186 to i32 (...)***
  store i32 (...)** bitcast (i8** getelementptr inbounds ({ [4 x i8*] }, { [4 x i8*] }* @_ZTVN14altered_carbon2js9JsVariantE, i32 0, inrange i32 0, i32 2) to i32 (...)**), i32 (...)*** %75, align 8
  %76 = getelementptr inbounds %"cls.acjs::JsVariant", %"cls.acjs::JsVariant"* %ptr186, i32 0, i32 1
  store i32 1, i32* %76, align 8
  %ptr188 = alloca [2 x %"cls.acjs::JsVariant"*], align 16
  %ptr194 = alloca %"cls.acjs::JsVariant", align 8
  %77 = bitcast %"cls.acjs::JsVariant"* %ptr194 to i32 (...)***
  store i32 (...)** bitcast (i8** getelementptr inbounds ({ [4 x i8*] }, { [4 x i8*] }* @_ZTVN14altered_carbon2js9JsVariantE, i32 0, inrange i32 0, i32 2) to i32 (...)**), i32 (...)*** %77, align 8
  %78 = getelementptr inbounds %"cls.acjs::JsVariant", %"cls.acjs::JsVariant"* %ptr194, i32 0, i32 1
  store i32 1, i32* %78, align 8
  %ptr196 = alloca [2 x %"cls.acjs::JsVariant"*], align 16
  %ptr202 = alloca %"cls.acjs::JsVariant", align 8
  %79 = bitcast %"cls.acjs::JsVariant"* %ptr202 to i32 (...)***
  store i32 (...)** bitcast (i8** getelementptr inbounds ({ [4 x i8*] }, { [4 x i8*] }* @_ZTVN14altered_carbon2js9JsVariantE, i32 0, inrange i32 0, i32 2) to i32 (...)**), i32 (...)*** %79, align 8
  %80 = getelementptr inbounds %"cls.acjs::JsVariant", %"cls.acjs::JsVariant"* %ptr202, i32 0, i32 1
  store i32 1, i32* %80, align 8
  %ptr204 = alloca [1 x %"cls.acjs::JsVariant"*], align 16
  %ptr210 = alloca %"cls.acjs::JsVariant", align 8
  %81 = bitcast %"cls.acjs::JsVariant"* %ptr210 to i32 (...)***
  store i32 (...)** bitcast (i8** getelementptr inbounds ({ [4 x i8*] }, { [4 x i8*] }* @_ZTVN14altered_carbon2js9JsVariantE, i32 0, inrange i32 0, i32 2) to i32 (...)**), i32 (...)*** %81, align 8
  %82 = getelementptr inbounds %"cls.acjs::JsVariant", %"cls.acjs::JsVariant"* %ptr210, i32 0, i32 1
  store i32 1, i32* %82, align 8
  %ptr212 = alloca [1 x %"cls.acjs::JsVariant"*], align 16
  %ptr218 = alloca %"cls.acjs::JsVariant", align 8
  %83 = bitcast %"cls.acjs::JsVariant"* %ptr218 to i32 (...)***
  store i32 (...)** bitcast (i8** getelementptr inbounds ({ [4 x i8*] }, { [4 x i8*] }* @_ZTVN14altered_carbon2js9JsVariantE, i32 0, inrange i32 0, i32 2) to i32 (...)**), i32 (...)*** %83, align 8
  %84 = getelementptr inbounds %"cls.acjs::JsVariant", %"cls.acjs::JsVariant"* %ptr218, i32 0, i32 1
  store i32 1, i32* %84, align 8
  %ptr220 = alloca [1 x %"cls.acjs::JsVariant"*], align 16
  %ptr226 = alloca %"cls.acjs::JsVariant", align 8
  %85 = bitcast %"cls.acjs::JsVariant"* %ptr226 to i32 (...)***
  store i32 (...)** bitcast (i8** getelementptr inbounds ({ [4 x i8*] }, { [4 x i8*] }* @_ZTVN14altered_carbon2js9JsVariantE, i32 0, inrange i32 0, i32 2) to i32 (...)**), i32 (...)*** %85, align 8
  %86 = getelementptr inbounds %"cls.acjs::JsVariant", %"cls.acjs::JsVariant"* %ptr226, i32 0, i32 1
  store i32 1, i32* %86, align 8
  %ptr228 = alloca [1 x %"cls.acjs::JsVariant"*], align 16
  %ptr234 = alloca %"cls.acjs::JsVariant", align 8
  %87 = bitcast %"cls.acjs::JsVariant"* %ptr234 to i32 (...)***
  store i32 (...)** bitcast (i8** getelementptr inbounds ({ [4 x i8*] }, { [4 x i8*] }* @_ZTVN14altered_carbon2js9JsVariantE, i32 0, inrange i32 0, i32 2) to i32 (...)**), i32 (...)*** %87, align 8
  %88 = getelementptr inbounds %"cls.acjs::JsVariant", %"cls.acjs::JsVariant"* %ptr234, i32 0, i32 1
  store i32 1, i32* %88, align 8
  %ptr235 = alloca %"cls.acjs::JsVariant", align 8
  %89 = bitcast %"cls.acjs::JsVariant"* %ptr235 to i32 (...)***
  store i32 (...)** bitcast (i8** getelementptr inbounds ({ [4 x i8*] }, { [4 x i8*] }* @_ZTVN14altered_carbon2js9JsVariantE, i32 0, inrange i32 0, i32 2) to i32 (...)**), i32 (...)*** %89, align 8
  %90 = getelementptr inbounds %"cls.acjs::JsVariant", %"cls.acjs::JsVariant"* %ptr235, i32 0, i32 1
  store i32 1, i32* %90, align 8
  %ptr236 = alloca %"cls.acjs::JsVariant", align 8
  %91 = bitcast %"cls.acjs::JsVariant"* %ptr236 to i32 (...)***
  store i32 (...)** bitcast (i8** getelementptr inbounds ({ [4 x i8*] }, { [4 x i8*] }* @_ZTVN14altered_carbon2js9JsVariantE, i32 0, inrange i32 0, i32 2) to i32 (...)**), i32 (...)*** %91, align 8
  %92 = getelementptr inbounds %"cls.acjs::JsVariant", %"cls.acjs::JsVariant"* %ptr236, i32 0, i32 1
  store i32 1, i32* %92, align 8
  %ptr238 = alloca [2 x %"cls.acjs::JsVariant"*], align 16
  %ptr244 = alloca %"cls.acjs::JsVariant", align 8
  %93 = bitcast %"cls.acjs::JsVariant"* %ptr244 to i32 (...)***
  store i32 (...)** bitcast (i8** getelementptr inbounds ({ [4 x i8*] }, { [4 x i8*] }* @_ZTVN14altered_carbon2js9JsVariantE, i32 0, inrange i32 0, i32 2) to i32 (...)**), i32 (...)*** %93, align 8
  %94 = getelementptr inbounds %"cls.acjs::JsVariant", %"cls.acjs::JsVariant"* %ptr244, i32 0, i32 1
  store i32 1, i32* %94, align 8
  %ptr245 = alloca %"cls.acjs::JsVariant", align 8
  %95 = bitcast %"cls.acjs::JsVariant"* %ptr245 to i32 (...)***
  store i32 (...)** bitcast (i8** getelementptr inbounds ({ [4 x i8*] }, { [4 x i8*] }* @_ZTVN14altered_carbon2js9JsVariantE, i32 0, inrange i32 0, i32 2) to i32 (...)**), i32 (...)*** %95, align 8
  %96 = getelementptr inbounds %"cls.acjs::JsVariant", %"cls.acjs::JsVariant"* %ptr245, i32 0, i32 1
  store i32 1, i32* %96, align 8
  %ptr246 = alloca %"cls.acjs::JsVariant", align 8
  %97 = bitcast %"cls.acjs::JsVariant"* %ptr246 to i32 (...)***
  store i32 (...)** bitcast (i8** getelementptr inbounds ({ [4 x i8*] }, { [4 x i8*] }* @_ZTVN14altered_carbon2js9JsVariantE, i32 0, inrange i32 0, i32 2) to i32 (...)**), i32 (...)*** %97, align 8
  %98 = getelementptr inbounds %"cls.acjs::JsVariant", %"cls.acjs::JsVariant"* %ptr246, i32 0, i32 1
  store i32 1, i32* %98, align 8
  %ptr248 = alloca [2 x %"cls.acjs::JsVariant"*], align 16
  %ptr254 = alloca %"cls.acjs::JsVariant", align 8
  %99 = bitcast %"cls.acjs::JsVariant"* %ptr254 to i32 (...)***
  store i32 (...)** bitcast (i8** getelementptr inbounds ({ [4 x i8*] }, { [4 x i8*] }* @_ZTVN14altered_carbon2js9JsVariantE, i32 0, inrange i32 0, i32 2) to i32 (...)**), i32 (...)*** %99, align 8
  %100 = getelementptr inbounds %"cls.acjs::JsVariant", %"cls.acjs::JsVariant"* %ptr254, i32 0, i32 1
  store i32 1, i32* %100, align 8
  %ptr256 = alloca [2 x %"cls.acjs::JsVariant"*], align 16
  %ptr262 = alloca %"cls.acjs::JsVariant", align 8
  %101 = bitcast %"cls.acjs::JsVariant"* %ptr262 to i32 (...)***
  store i32 (...)** bitcast (i8** getelementptr inbounds ({ [4 x i8*] }, { [4 x i8*] }* @_ZTVN14altered_carbon2js9JsVariantE, i32 0, inrange i32 0, i32 2) to i32 (...)**), i32 (...)*** %101, align 8
  %102 = getelementptr inbounds %"cls.acjs::JsVariant", %"cls.acjs::JsVariant"* %ptr262, i32 0, i32 1
  store i32 1, i32* %102, align 8
  %ptr264 = alloca [1 x %"cls.acjs::JsVariant"*], align 16
  %ptr270 = alloca %"cls.acjs::JsVariant", align 8
  %103 = bitcast %"cls.acjs::JsVariant"* %ptr270 to i32 (...)***
  store i32 (...)** bitcast (i8** getelementptr inbounds ({ [4 x i8*] }, { [4 x i8*] }* @_ZTVN14altered_carbon2js9JsVariantE, i32 0, inrange i32 0, i32 2) to i32 (...)**), i32 (...)*** %103, align 8
  %104 = getelementptr inbounds %"cls.acjs::JsVariant", %"cls.acjs::JsVariant"* %ptr270, i32 0, i32 1
  store i32 1, i32* %104, align 8
  %ptr272 = alloca [1 x %"cls.acjs::JsVariant"*], align 16
  %ptr278 = alloca %"cls.acjs::JsVariant", align 8
  %105 = bitcast %"cls.acjs::JsVariant"* %ptr278 to i32 (...)***
  store i32 (...)** bitcast (i8** getelementptr inbounds ({ [4 x i8*] }, { [4 x i8*] }* @_ZTVN14altered_carbon2js9JsVariantE, i32 0, inrange i32 0, i32 2) to i32 (...)**), i32 (...)*** %105, align 8
  %106 = getelementptr inbounds %"cls.acjs::JsVariant", %"cls.acjs::JsVariant"* %ptr278, i32 0, i32 1
  store i32 1, i32* %106, align 8
  %ptr280 = alloca [1 x %"cls.acjs::JsVariant"*], align 16
  %ptr286 = alloca %"cls.acjs::JsVariant", align 8
  %107 = bitcast %"cls.acjs::JsVariant"* %ptr286 to i32 (...)***
  store i32 (...)** bitcast (i8** getelementptr inbounds ({ [4 x i8*] }, { [4 x i8*] }* @_ZTVN14altered_carbon2js9JsVariantE, i32 0, inrange i32 0, i32 2) to i32 (...)**), i32 (...)*** %107, align 8
  %108 = getelementptr inbounds %"cls.acjs::JsVariant", %"cls.acjs::JsVariant"* %ptr286, i32 0, i32 1
  store i32 1, i32* %108, align 8
  %ptr288 = alloca [1 x %"cls.acjs::JsVariant"*], align 16
  %ptr294 = alloca %"cls.acjs::JsVariant", align 8
  %109 = bitcast %"cls.acjs::JsVariant"* %ptr294 to i32 (...)***
  store i32 (...)** bitcast (i8** getelementptr inbounds ({ [4 x i8*] }, { [4 x i8*] }* @_ZTVN14altered_carbon2js9JsVariantE, i32 0, inrange i32 0, i32 2) to i32 (...)**), i32 (...)*** %109, align 8
  %110 = getelementptr inbounds %"cls.acjs::JsVariant", %"cls.acjs::JsVariant"* %ptr294, i32 0, i32 1
  store i32 1, i32* %110, align 8
  %ptr295 = alloca %"cls.acjs::JsVariant", align 8
  %111 = bitcast %"cls.acjs::JsVariant"* %ptr295 to i32 (...)***
  store i32 (...)** bitcast (i8** getelementptr inbounds ({ [4 x i8*] }, { [4 x i8*] }* @_ZTVN14altered_carbon2js9JsVariantE, i32 0, inrange i32 0, i32 2) to i32 (...)**), i32 (...)*** %111, align 8
  %112 = getelementptr inbounds %"cls.acjs::JsVariant", %"cls.acjs::JsVariant"* %ptr295, i32 0, i32 1
  store i32 1, i32* %112, align 8
  %ptr296 = alloca %"cls.acjs::JsVariant", align 8
  %113 = bitcast %"cls.acjs::JsVariant"* %ptr296 to i32 (...)***
  store i32 (...)** bitcast (i8** getelementptr inbounds ({ [4 x i8*] }, { [4 x i8*] }* @_ZTVN14altered_carbon2js9JsVariantE, i32 0, inrange i32 0, i32 2) to i32 (...)**), i32 (...)*** %113, align 8
  %114 = getelementptr inbounds %"cls.acjs::JsVariant", %"cls.acjs::JsVariant"* %ptr296, i32 0, i32 1
  store i32 1, i32* %114, align 8
  %ptr298 = alloca [2 x %"cls.acjs::JsVariant"*], align 16
  %ptr304 = alloca %"cls.acjs::JsVariant", align 8
  %115 = bitcast %"cls.acjs::JsVariant"* %ptr304 to i32 (...)***
  store i32 (...)** bitcast (i8** getelementptr inbounds ({ [4 x i8*] }, { [4 x i8*] }* @_ZTVN14altered_carbon2js9JsVariantE, i32 0, inrange i32 0, i32 2) to i32 (...)**), i32 (...)*** %115, align 8
  %116 = getelementptr inbounds %"cls.acjs::JsVariant", %"cls.acjs::JsVariant"* %ptr304, i32 0, i32 1
  store i32 1, i32* %116, align 8
  %ptr305 = alloca %"cls.acjs::JsVariant", align 8
  %117 = bitcast %"cls.acjs::JsVariant"* %ptr305 to i32 (...)***
  store i32 (...)** bitcast (i8** getelementptr inbounds ({ [4 x i8*] }, { [4 x i8*] }* @_ZTVN14altered_carbon2js9JsVariantE, i32 0, inrange i32 0, i32 2) to i32 (...)**), i32 (...)*** %117, align 8
  %118 = getelementptr inbounds %"cls.acjs::JsVariant", %"cls.acjs::JsVariant"* %ptr305, i32 0, i32 1
  store i32 1, i32* %118, align 8
  %ptr306 = alloca %"cls.acjs::JsVariant", align 8
  %119 = bitcast %"cls.acjs::JsVariant"* %ptr306 to i32 (...)***
  store i32 (...)** bitcast (i8** getelementptr inbounds ({ [4 x i8*] }, { [4 x i8*] }* @_ZTVN14altered_carbon2js9JsVariantE, i32 0, inrange i32 0, i32 2) to i32 (...)**), i32 (...)*** %119, align 8
  %120 = getelementptr inbounds %"cls.acjs::JsVariant", %"cls.acjs::JsVariant"* %ptr306, i32 0, i32 1
  store i32 1, i32* %120, align 8
  %ptr308 = alloca [2 x %"cls.acjs::JsVariant"*], align 16
  %ptr314 = alloca %"cls.acjs::JsVariant", align 8
  %121 = bitcast %"cls.acjs::JsVariant"* %ptr314 to i32 (...)***
  store i32 (...)** bitcast (i8** getelementptr inbounds ({ [4 x i8*] }, { [4 x i8*] }* @_ZTVN14altered_carbon2js9JsVariantE, i32 0, inrange i32 0, i32 2) to i32 (...)**), i32 (...)*** %121, align 8
  %122 = getelementptr inbounds %"cls.acjs::JsVariant", %"cls.acjs::JsVariant"* %ptr314, i32 0, i32 1
  store i32 1, i32* %122, align 8
  %ptr316 = alloca [2 x %"cls.acjs::JsVariant"*], align 16
  %ptr322 = alloca %"cls.acjs::JsVariant", align 8
  %123 = bitcast %"cls.acjs::JsVariant"* %ptr322 to i32 (...)***
  store i32 (...)** bitcast (i8** getelementptr inbounds ({ [4 x i8*] }, { [4 x i8*] }* @_ZTVN14altered_carbon2js9JsVariantE, i32 0, inrange i32 0, i32 2) to i32 (...)**), i32 (...)*** %123, align 8
  %124 = getelementptr inbounds %"cls.acjs::JsVariant", %"cls.acjs::JsVariant"* %ptr322, i32 0, i32 1
  store i32 1, i32* %124, align 8
  %ptr324 = alloca [1 x %"cls.acjs::JsVariant"*], align 16
  %ptr330 = alloca %"cls.acjs::JsVariant", align 8
  %125 = bitcast %"cls.acjs::JsVariant"* %ptr330 to i32 (...)***
  store i32 (...)** bitcast (i8** getelementptr inbounds ({ [4 x i8*] }, { [4 x i8*] }* @_ZTVN14altered_carbon2js9JsVariantE, i32 0, inrange i32 0, i32 2) to i32 (...)**), i32 (...)*** %125, align 8
  %126 = getelementptr inbounds %"cls.acjs::JsVariant", %"cls.acjs::JsVariant"* %ptr330, i32 0, i32 1
  store i32 1, i32* %126, align 8
  %ptr332 = alloca [1 x %"cls.acjs::JsVariant"*], align 16
  %ptr338 = alloca %"cls.acjs::JsVariant", align 8
  %127 = bitcast %"cls.acjs::JsVariant"* %ptr338 to i32 (...)***
  store i32 (...)** bitcast (i8** getelementptr inbounds ({ [4 x i8*] }, { [4 x i8*] }* @_ZTVN14altered_carbon2js9JsVariantE, i32 0, inrange i32 0, i32 2) to i32 (...)**), i32 (...)*** %127, align 8
  %128 = getelementptr inbounds %"cls.acjs::JsVariant", %"cls.acjs::JsVariant"* %ptr338, i32 0, i32 1
  store i32 1, i32* %128, align 8
  %ptr340 = alloca [1 x %"cls.acjs::JsVariant"*], align 16
  %ptr346 = alloca %"cls.acjs::JsVariant", align 8
  %129 = bitcast %"cls.acjs::JsVariant"* %ptr346 to i32 (...)***
  store i32 (...)** bitcast (i8** getelementptr inbounds ({ [4 x i8*] }, { [4 x i8*] }* @_ZTVN14altered_carbon2js9JsVariantE, i32 0, inrange i32 0, i32 2) to i32 (...)**), i32 (...)*** %129, align 8
  %130 = getelementptr inbounds %"cls.acjs::JsVariant", %"cls.acjs::JsVariant"* %ptr346, i32 0, i32 1
  store i32 1, i32* %130, align 8
  %ptr348 = alloca [1 x %"cls.acjs::JsVariant"*], align 16
  %ptr354 = alloca %"cls.acjs::JsVariant", align 8
  %131 = bitcast %"cls.acjs::JsVariant"* %ptr354 to i32 (...)***
  store i32 (...)** bitcast (i8** getelementptr inbounds ({ [4 x i8*] }, { [4 x i8*] }* @_ZTVN14altered_carbon2js9JsVariantE, i32 0, inrange i32 0, i32 2) to i32 (...)**), i32 (...)*** %131, align 8
  %132 = getelementptr inbounds %"cls.acjs::JsVariant", %"cls.acjs::JsVariant"* %ptr354, i32 0, i32 1
  store i32 1, i32* %132, align 8
  %ptr355 = alloca %"cls.acjs::JsVariant", align 8
  %133 = bitcast %"cls.acjs::JsVariant"* %ptr355 to i32 (...)***
  store i32 (...)** bitcast (i8** getelementptr inbounds ({ [4 x i8*] }, { [4 x i8*] }* @_ZTVN14altered_carbon2js9JsVariantE, i32 0, inrange i32 0, i32 2) to i32 (...)**), i32 (...)*** %133, align 8
  %134 = getelementptr inbounds %"cls.acjs::JsVariant", %"cls.acjs::JsVariant"* %ptr355, i32 0, i32 1
  store i32 1, i32* %134, align 8
  %ptr356 = alloca %"cls.acjs::JsVariant", align 8
  %135 = bitcast %"cls.acjs::JsVariant"* %ptr356 to i32 (...)***
  store i32 (...)** bitcast (i8** getelementptr inbounds ({ [4 x i8*] }, { [4 x i8*] }* @_ZTVN14altered_carbon2js9JsVariantE, i32 0, inrange i32 0, i32 2) to i32 (...)**), i32 (...)*** %135, align 8
  %136 = getelementptr inbounds %"cls.acjs::JsVariant", %"cls.acjs::JsVariant"* %ptr356, i32 0, i32 1
  store i32 1, i32* %136, align 8
  %ptr358 = alloca [2 x %"cls.acjs::JsVariant"*], align 16
  %ptr364 = alloca %"cls.acjs::JsVariant", align 8
  %137 = bitcast %"cls.acjs::JsVariant"* %ptr364 to i32 (...)***
  store i32 (...)** bitcast (i8** getelementptr inbounds ({ [4 x i8*] }, { [4 x i8*] }* @_ZTVN14altered_carbon2js9JsVariantE, i32 0, inrange i32 0, i32 2) to i32 (...)**), i32 (...)*** %137, align 8
  %138 = getelementptr inbounds %"cls.acjs::JsVariant", %"cls.acjs::JsVariant"* %ptr364, i32 0, i32 1
  store i32 1, i32* %138, align 8
  %ptr365 = alloca %"cls.acjs::JsVariant", align 8
  %139 = bitcast %"cls.acjs::JsVariant"* %ptr365 to i32 (...)***
  store i32 (...)** bitcast (i8** getelementptr inbounds ({ [4 x i8*] }, { [4 x i8*] }* @_ZTVN14altered_carbon2js9JsVariantE, i32 0, inrange i32 0, i32 2) to i32 (...)**), i32 (...)*** %139, align 8
  %140 = getelementptr inbounds %"cls.acjs::JsVariant", %"cls.acjs::JsVariant"* %ptr365, i32 0, i32 1
  store i32 1, i32* %140, align 8
  %ptr366 = alloca %"cls.acjs::JsVariant", align 8
  %141 = bitcast %"cls.acjs::JsVariant"* %ptr366 to i32 (...)***
  store i32 (...)** bitcast (i8** getelementptr inbounds ({ [4 x i8*] }, { [4 x i8*] }* @_ZTVN14altered_carbon2js9JsVariantE, i32 0, inrange i32 0, i32 2) to i32 (...)**), i32 (...)*** %141, align 8
  %142 = getelementptr inbounds %"cls.acjs::JsVariant", %"cls.acjs::JsVariant"* %ptr366, i32 0, i32 1
  store i32 1, i32* %142, align 8
  %ptr368 = alloca [2 x %"cls.acjs::JsVariant"*], align 16
  %ptr374 = alloca %"cls.acjs::JsVariant", align 8
  %143 = bitcast %"cls.acjs::JsVariant"* %ptr374 to i32 (...)***
  store i32 (...)** bitcast (i8** getelementptr inbounds ({ [4 x i8*] }, { [4 x i8*] }* @_ZTVN14altered_carbon2js9JsVariantE, i32 0, inrange i32 0, i32 2) to i32 (...)**), i32 (...)*** %143, align 8
  %144 = getelementptr inbounds %"cls.acjs::JsVariant", %"cls.acjs::JsVariant"* %ptr374, i32 0, i32 1
  store i32 1, i32* %144, align 8
  %ptr376 = alloca [2 x %"cls.acjs::JsVariant"*], align 16
  %ptr382 = alloca %"cls.acjs::JsVariant", align 8
  %145 = bitcast %"cls.acjs::JsVariant"* %ptr382 to i32 (...)***
  store i32 (...)** bitcast (i8** getelementptr inbounds ({ [4 x i8*] }, { [4 x i8*] }* @_ZTVN14altered_carbon2js9JsVariantE, i32 0, inrange i32 0, i32 2) to i32 (...)**), i32 (...)*** %145, align 8
  %146 = getelementptr inbounds %"cls.acjs::JsVariant", %"cls.acjs::JsVariant"* %ptr382, i32 0, i32 1
  store i32 1, i32* %146, align 8
  %ptr384 = alloca [1 x %"cls.acjs::JsVariant"*], align 16
  %ptr390 = alloca %"cls.acjs::JsVariant", align 8
  %147 = bitcast %"cls.acjs::JsVariant"* %ptr390 to i32 (...)***
  store i32 (...)** bitcast (i8** getelementptr inbounds ({ [4 x i8*] }, { [4 x i8*] }* @_ZTVN14altered_carbon2js9JsVariantE, i32 0, inrange i32 0, i32 2) to i32 (...)**), i32 (...)*** %147, align 8
  %148 = getelementptr inbounds %"cls.acjs::JsVariant", %"cls.acjs::JsVariant"* %ptr390, i32 0, i32 1
  store i32 1, i32* %148, align 8
  %ptr392 = alloca [1 x %"cls.acjs::JsVariant"*], align 16
  %ptr398 = alloca %"cls.acjs::JsVariant", align 8
  %149 = bitcast %"cls.acjs::JsVariant"* %ptr398 to i32 (...)***
  store i32 (...)** bitcast (i8** getelementptr inbounds ({ [4 x i8*] }, { [4 x i8*] }* @_ZTVN14altered_carbon2js9JsVariantE, i32 0, inrange i32 0, i32 2) to i32 (...)**), i32 (...)*** %149, align 8
  %150 = getelementptr inbounds %"cls.acjs::JsVariant", %"cls.acjs::JsVariant"* %ptr398, i32 0, i32 1
  store i32 1, i32* %150, align 8
  %ptr400 = alloca [1 x %"cls.acjs::JsVariant"*], align 16
  %ptr406 = alloca %"cls.acjs::JsVariant", align 8
  %151 = bitcast %"cls.acjs::JsVariant"* %ptr406 to i32 (...)***
  store i32 (...)** bitcast (i8** getelementptr inbounds ({ [4 x i8*] }, { [4 x i8*] }* @_ZTVN14altered_carbon2js9JsVariantE, i32 0, inrange i32 0, i32 2) to i32 (...)**), i32 (...)*** %151, align 8
  %152 = getelementptr inbounds %"cls.acjs::JsVariant", %"cls.acjs::JsVariant"* %ptr406, i32 0, i32 1
  store i32 1, i32* %152, align 8
  %ptr408 = alloca [1 x %"cls.acjs::JsVariant"*], align 16
  %ptr414 = alloca %"cls.acjs::JsVariant", align 8
  %153 = bitcast %"cls.acjs::JsVariant"* %ptr414 to i32 (...)***
  store i32 (...)** bitcast (i8** getelementptr inbounds ({ [4 x i8*] }, { [4 x i8*] }* @_ZTVN14altered_carbon2js9JsVariantE, i32 0, inrange i32 0, i32 2) to i32 (...)**), i32 (...)*** %153, align 8
  %154 = getelementptr inbounds %"cls.acjs::JsVariant", %"cls.acjs::JsVariant"* %ptr414, i32 0, i32 1
  store i32 1, i32* %154, align 8
  %ptr415 = alloca %"cls.acjs::JsVariant", align 8
  %155 = bitcast %"cls.acjs::JsVariant"* %ptr415 to i32 (...)***
  store i32 (...)** bitcast (i8** getelementptr inbounds ({ [4 x i8*] }, { [4 x i8*] }* @_ZTVN14altered_carbon2js9JsVariantE, i32 0, inrange i32 0, i32 2) to i32 (...)**), i32 (...)*** %155, align 8
  %156 = getelementptr inbounds %"cls.acjs::JsVariant", %"cls.acjs::JsVariant"* %ptr415, i32 0, i32 1
  store i32 1, i32* %156, align 8
  %ptr416 = alloca %"cls.acjs::JsVariant", align 8
  %157 = bitcast %"cls.acjs::JsVariant"* %ptr416 to i32 (...)***
  store i32 (...)** bitcast (i8** getelementptr inbounds ({ [4 x i8*] }, { [4 x i8*] }* @_ZTVN14altered_carbon2js9JsVariantE, i32 0, inrange i32 0, i32 2) to i32 (...)**), i32 (...)*** %157, align 8
  %158 = getelementptr inbounds %"cls.acjs::JsVariant", %"cls.acjs::JsVariant"* %ptr416, i32 0, i32 1
  store i32 1, i32* %158, align 8
  %ptr418 = alloca [2 x %"cls.acjs::JsVariant"*], align 16
  %ptr424 = alloca %"cls.acjs::JsVariant", align 8
  %159 = bitcast %"cls.acjs::JsVariant"* %ptr424 to i32 (...)***
  store i32 (...)** bitcast (i8** getelementptr inbounds ({ [4 x i8*] }, { [4 x i8*] }* @_ZTVN14altered_carbon2js9JsVariantE, i32 0, inrange i32 0, i32 2) to i32 (...)**), i32 (...)*** %159, align 8
  %160 = getelementptr inbounds %"cls.acjs::JsVariant", %"cls.acjs::JsVariant"* %ptr424, i32 0, i32 1
  store i32 1, i32* %160, align 8
  %ptr425 = alloca %"cls.acjs::JsVariant", align 8
  %161 = bitcast %"cls.acjs::JsVariant"* %ptr425 to i32 (...)***
  store i32 (...)** bitcast (i8** getelementptr inbounds ({ [4 x i8*] }, { [4 x i8*] }* @_ZTVN14altered_carbon2js9JsVariantE, i32 0, inrange i32 0, i32 2) to i32 (...)**), i32 (...)*** %161, align 8
  %162 = getelementptr inbounds %"cls.acjs::JsVariant", %"cls.acjs::JsVariant"* %ptr425, i32 0, i32 1
  store i32 1, i32* %162, align 8
  %ptr426 = alloca %"cls.acjs::JsVariant", align 8
  %163 = bitcast %"cls.acjs::JsVariant"* %ptr426 to i32 (...)***
  store i32 (...)** bitcast (i8** getelementptr inbounds ({ [4 x i8*] }, { [4 x i8*] }* @_ZTVN14altered_carbon2js9JsVariantE, i32 0, inrange i32 0, i32 2) to i32 (...)**), i32 (...)*** %163, align 8
  %164 = getelementptr inbounds %"cls.acjs::JsVariant", %"cls.acjs::JsVariant"* %ptr426, i32 0, i32 1
  store i32 1, i32* %164, align 8
  %ptr428 = alloca [2 x %"cls.acjs::JsVariant"*], align 16
  %ptr434 = alloca %"cls.acjs::JsVariant", align 8
  %165 = bitcast %"cls.acjs::JsVariant"* %ptr434 to i32 (...)***
  store i32 (...)** bitcast (i8** getelementptr inbounds ({ [4 x i8*] }, { [4 x i8*] }* @_ZTVN14altered_carbon2js9JsVariantE, i32 0, inrange i32 0, i32 2) to i32 (...)**), i32 (...)*** %165, align 8
  %166 = getelementptr inbounds %"cls.acjs::JsVariant", %"cls.acjs::JsVariant"* %ptr434, i32 0, i32 1
  store i32 1, i32* %166, align 8
  %ptr436 = alloca [2 x %"cls.acjs::JsVariant"*], align 16
  %ptr442 = alloca %"cls.acjs::JsVariant", align 8
  %167 = bitcast %"cls.acjs::JsVariant"* %ptr442 to i32 (...)***
  store i32 (...)** bitcast (i8** getelementptr inbounds ({ [4 x i8*] }, { [4 x i8*] }* @_ZTVN14altered_carbon2js9JsVariantE, i32 0, inrange i32 0, i32 2) to i32 (...)**), i32 (...)*** %167, align 8
  %168 = getelementptr inbounds %"cls.acjs::JsVariant", %"cls.acjs::JsVariant"* %ptr442, i32 0, i32 1
  store i32 1, i32* %168, align 8
  %ptr444 = alloca [1 x %"cls.acjs::JsVariant"*], align 16
  %ptr450 = alloca %"cls.acjs::JsVariant", align 8
  %169 = bitcast %"cls.acjs::JsVariant"* %ptr450 to i32 (...)***
  store i32 (...)** bitcast (i8** getelementptr inbounds ({ [4 x i8*] }, { [4 x i8*] }* @_ZTVN14altered_carbon2js9JsVariantE, i32 0, inrange i32 0, i32 2) to i32 (...)**), i32 (...)*** %169, align 8
  %170 = getelementptr inbounds %"cls.acjs::JsVariant", %"cls.acjs::JsVariant"* %ptr450, i32 0, i32 1
  store i32 1, i32* %170, align 8
  %ptr452 = alloca [1 x %"cls.acjs::JsVariant"*], align 16
  %ptr458 = alloca %"cls.acjs::JsVariant", align 8
  %171 = bitcast %"cls.acjs::JsVariant"* %ptr458 to i32 (...)***
  store i32 (...)** bitcast (i8** getelementptr inbounds ({ [4 x i8*] }, { [4 x i8*] }* @_ZTVN14altered_carbon2js9JsVariantE, i32 0, inrange i32 0, i32 2) to i32 (...)**), i32 (...)*** %171, align 8
  %172 = getelementptr inbounds %"cls.acjs::JsVariant", %"cls.acjs::JsVariant"* %ptr458, i32 0, i32 1
  store i32 1, i32* %172, align 8
  %ptr460 = alloca [1 x %"cls.acjs::JsVariant"*], align 16
  %ptr466 = alloca %"cls.acjs::JsVariant", align 8
  %173 = bitcast %"cls.acjs::JsVariant"* %ptr466 to i32 (...)***
  store i32 (...)** bitcast (i8** getelementptr inbounds ({ [4 x i8*] }, { [4 x i8*] }* @_ZTVN14altered_carbon2js9JsVariantE, i32 0, inrange i32 0, i32 2) to i32 (...)**), i32 (...)*** %173, align 8
  %174 = getelementptr inbounds %"cls.acjs::JsVariant", %"cls.acjs::JsVariant"* %ptr466, i32 0, i32 1
  store i32 1, i32* %174, align 8
  %ptr468 = alloca [1 x %"cls.acjs::JsVariant"*], align 16
  %ptr474 = alloca %"cls.acjs::JsVariant", align 8
  %175 = bitcast %"cls.acjs::JsVariant"* %ptr474 to i32 (...)***
  store i32 (...)** bitcast (i8** getelementptr inbounds ({ [4 x i8*] }, { [4 x i8*] }* @_ZTVN14altered_carbon2js9JsVariantE, i32 0, inrange i32 0, i32 2) to i32 (...)**), i32 (...)*** %175, align 8
  %176 = getelementptr inbounds %"cls.acjs::JsVariant", %"cls.acjs::JsVariant"* %ptr474, i32 0, i32 1
  store i32 1, i32* %176, align 8
  %ptr475 = alloca %"cls.acjs::JsVariant", align 8
  %177 = bitcast %"cls.acjs::JsVariant"* %ptr475 to i32 (...)***
  store i32 (...)** bitcast (i8** getelementptr inbounds ({ [4 x i8*] }, { [4 x i8*] }* @_ZTVN14altered_carbon2js9JsVariantE, i32 0, inrange i32 0, i32 2) to i32 (...)**), i32 (...)*** %177, align 8
  %178 = getelementptr inbounds %"cls.acjs::JsVariant", %"cls.acjs::JsVariant"* %ptr475, i32 0, i32 1
  store i32 1, i32* %178, align 8
  %ptr476 = alloca %"cls.acjs::JsVariant", align 8
  %179 = bitcast %"cls.acjs::JsVariant"* %ptr476 to i32 (...)***
  store i32 (...)** bitcast (i8** getelementptr inbounds ({ [4 x i8*] }, { [4 x i8*] }* @_ZTVN14altered_carbon2js9JsVariantE, i32 0, inrange i32 0, i32 2) to i32 (...)**), i32 (...)*** %179, align 8
  %180 = getelementptr inbounds %"cls.acjs::JsVariant", %"cls.acjs::JsVariant"* %ptr476, i32 0, i32 1
  store i32 1, i32* %180, align 8
  %ptr478 = alloca [2 x %"cls.acjs::JsVariant"*], align 16
  %ptr484 = alloca %"cls.acjs::JsVariant", align 8
  %181 = bitcast %"cls.acjs::JsVariant"* %ptr484 to i32 (...)***
  store i32 (...)** bitcast (i8** getelementptr inbounds ({ [4 x i8*] }, { [4 x i8*] }* @_ZTVN14altered_carbon2js9JsVariantE, i32 0, inrange i32 0, i32 2) to i32 (...)**), i32 (...)*** %181, align 8
  %182 = getelementptr inbounds %"cls.acjs::JsVariant", %"cls.acjs::JsVariant"* %ptr484, i32 0, i32 1
  store i32 1, i32* %182, align 8
  %ptr485 = alloca %"cls.acjs::JsVariant", align 8
  %183 = bitcast %"cls.acjs::JsVariant"* %ptr485 to i32 (...)***
  store i32 (...)** bitcast (i8** getelementptr inbounds ({ [4 x i8*] }, { [4 x i8*] }* @_ZTVN14altered_carbon2js9JsVariantE, i32 0, inrange i32 0, i32 2) to i32 (...)**), i32 (...)*** %183, align 8
  %184 = getelementptr inbounds %"cls.acjs::JsVariant", %"cls.acjs::JsVariant"* %ptr485, i32 0, i32 1
  store i32 1, i32* %184, align 8
  %ptr486 = alloca %"cls.acjs::JsVariant", align 8
  %185 = bitcast %"cls.acjs::JsVariant"* %ptr486 to i32 (...)***
  store i32 (...)** bitcast (i8** getelementptr inbounds ({ [4 x i8*] }, { [4 x i8*] }* @_ZTVN14altered_carbon2js9JsVariantE, i32 0, inrange i32 0, i32 2) to i32 (...)**), i32 (...)*** %185, align 8
  %186 = getelementptr inbounds %"cls.acjs::JsVariant", %"cls.acjs::JsVariant"* %ptr486, i32 0, i32 1
  store i32 1, i32* %186, align 8
  %ptr488 = alloca [2 x %"cls.acjs::JsVariant"*], align 16
  %ptr494 = alloca %"cls.acjs::JsVariant", align 8
  %187 = bitcast %"cls.acjs::JsVariant"* %ptr494 to i32 (...)***
  store i32 (...)** bitcast (i8** getelementptr inbounds ({ [4 x i8*] }, { [4 x i8*] }* @_ZTVN14altered_carbon2js9JsVariantE, i32 0, inrange i32 0, i32 2) to i32 (...)**), i32 (...)*** %187, align 8
  %188 = getelementptr inbounds %"cls.acjs::JsVariant", %"cls.acjs::JsVariant"* %ptr494, i32 0, i32 1
  store i32 1, i32* %188, align 8
  %ptr496 = alloca [2 x %"cls.acjs::JsVariant"*], align 16
  %ptr502 = alloca %"cls.acjs::JsVariant", align 8
  %189 = bitcast %"cls.acjs::JsVariant"* %ptr502 to i32 (...)***
  store i32 (...)** bitcast (i8** getelementptr inbounds ({ [4 x i8*] }, { [4 x i8*] }* @_ZTVN14altered_carbon2js9JsVariantE, i32 0, inrange i32 0, i32 2) to i32 (...)**), i32 (...)*** %189, align 8
  %190 = getelementptr inbounds %"cls.acjs::JsVariant", %"cls.acjs::JsVariant"* %ptr502, i32 0, i32 1
  store i32 1, i32* %190, align 8
  %ptr504 = alloca [1 x %"cls.acjs::JsVariant"*], align 16
  %ptr510 = alloca %"cls.acjs::JsVariant", align 8
  %191 = bitcast %"cls.acjs::JsVariant"* %ptr510 to i32 (...)***
  store i32 (...)** bitcast (i8** getelementptr inbounds ({ [4 x i8*] }, { [4 x i8*] }* @_ZTVN14altered_carbon2js9JsVariantE, i32 0, inrange i32 0, i32 2) to i32 (...)**), i32 (...)*** %191, align 8
  %192 = getelementptr inbounds %"cls.acjs::JsVariant", %"cls.acjs::JsVariant"* %ptr510, i32 0, i32 1
  store i32 1, i32* %192, align 8
  %ptr512 = alloca [1 x %"cls.acjs::JsVariant"*], align 16
  %ptr518 = alloca %"cls.acjs::JsVariant", align 8
  %193 = bitcast %"cls.acjs::JsVariant"* %ptr518 to i32 (...)***
  store i32 (...)** bitcast (i8** getelementptr inbounds ({ [4 x i8*] }, { [4 x i8*] }* @_ZTVN14altered_carbon2js9JsVariantE, i32 0, inrange i32 0, i32 2) to i32 (...)**), i32 (...)*** %193, align 8
  %194 = getelementptr inbounds %"cls.acjs::JsVariant", %"cls.acjs::JsVariant"* %ptr518, i32 0, i32 1
  store i32 1, i32* %194, align 8
  %ptr520 = alloca [1 x %"cls.acjs::JsVariant"*], align 16
  %ptr526 = alloca %"cls.acjs::JsVariant", align 8
  %195 = bitcast %"cls.acjs::JsVariant"* %ptr526 to i32 (...)***
  store i32 (...)** bitcast (i8** getelementptr inbounds ({ [4 x i8*] }, { [4 x i8*] }* @_ZTVN14altered_carbon2js9JsVariantE, i32 0, inrange i32 0, i32 2) to i32 (...)**), i32 (...)*** %195, align 8
  %196 = getelementptr inbounds %"cls.acjs::JsVariant", %"cls.acjs::JsVariant"* %ptr526, i32 0, i32 1
  store i32 1, i32* %196, align 8
  %ptr528 = alloca [1 x %"cls.acjs::JsVariant"*], align 16
  %ptr534 = alloca %"cls.acjs::JsVariant", align 8
  %197 = bitcast %"cls.acjs::JsVariant"* %ptr534 to i32 (...)***
  store i32 (...)** bitcast (i8** getelementptr inbounds ({ [4 x i8*] }, { [4 x i8*] }* @_ZTVN14altered_carbon2js9JsVariantE, i32 0, inrange i32 0, i32 2) to i32 (...)**), i32 (...)*** %197, align 8
  %198 = getelementptr inbounds %"cls.acjs::JsVariant", %"cls.acjs::JsVariant"* %ptr534, i32 0, i32 1
  store i32 1, i32* %198, align 8
  %ptr535 = alloca %"cls.acjs::JsVariant", align 8
  %199 = bitcast %"cls.acjs::JsVariant"* %ptr535 to i32 (...)***
  store i32 (...)** bitcast (i8** getelementptr inbounds ({ [4 x i8*] }, { [4 x i8*] }* @_ZTVN14altered_carbon2js9JsVariantE, i32 0, inrange i32 0, i32 2) to i32 (...)**), i32 (...)*** %199, align 8
  %200 = getelementptr inbounds %"cls.acjs::JsVariant", %"cls.acjs::JsVariant"* %ptr535, i32 0, i32 1
  store i32 1, i32* %200, align 8
  %ptr536 = alloca %"cls.acjs::JsVariant", align 8
  %201 = bitcast %"cls.acjs::JsVariant"* %ptr536 to i32 (...)***
  store i32 (...)** bitcast (i8** getelementptr inbounds ({ [4 x i8*] }, { [4 x i8*] }* @_ZTVN14altered_carbon2js9JsVariantE, i32 0, inrange i32 0, i32 2) to i32 (...)**), i32 (...)*** %201, align 8
  %202 = getelementptr inbounds %"cls.acjs::JsVariant", %"cls.acjs::JsVariant"* %ptr536, i32 0, i32 1
  store i32 1, i32* %202, align 8
  %ptr538 = alloca [2 x %"cls.acjs::JsVariant"*], align 16
  %ptr544 = alloca %"cls.acjs::JsVariant", align 8
  %203 = bitcast %"cls.acjs::JsVariant"* %ptr544 to i32 (...)***
  store i32 (...)** bitcast (i8** getelementptr inbounds ({ [4 x i8*] }, { [4 x i8*] }* @_ZTVN14altered_carbon2js9JsVariantE, i32 0, inrange i32 0, i32 2) to i32 (...)**), i32 (...)*** %203, align 8
  %204 = getelementptr inbounds %"cls.acjs::JsVariant", %"cls.acjs::JsVariant"* %ptr544, i32 0, i32 1
  store i32 1, i32* %204, align 8
  %ptr545 = alloca %"cls.acjs::JsVariant", align 8
  %205 = bitcast %"cls.acjs::JsVariant"* %ptr545 to i32 (...)***
  store i32 (...)** bitcast (i8** getelementptr inbounds ({ [4 x i8*] }, { [4 x i8*] }* @_ZTVN14altered_carbon2js9JsVariantE, i32 0, inrange i32 0, i32 2) to i32 (...)**), i32 (...)*** %205, align 8
  %206 = getelementptr inbounds %"cls.acjs::JsVariant", %"cls.acjs::JsVariant"* %ptr545, i32 0, i32 1
  store i32 1, i32* %206, align 8
  %ptr546 = alloca %"cls.acjs::JsVariant", align 8
  %207 = bitcast %"cls.acjs::JsVariant"* %ptr546 to i32 (...)***
  store i32 (...)** bitcast (i8** getelementptr inbounds ({ [4 x i8*] }, { [4 x i8*] }* @_ZTVN14altered_carbon2js9JsVariantE, i32 0, inrange i32 0, i32 2) to i32 (...)**), i32 (...)*** %207, align 8
  %208 = getelementptr inbounds %"cls.acjs::JsVariant", %"cls.acjs::JsVariant"* %ptr546, i32 0, i32 1
  store i32 1, i32* %208, align 8
  %ptr548 = alloca [2 x %"cls.acjs::JsVariant"*], align 16
  %ptr554 = alloca %"cls.acjs::JsVariant", align 8
  %209 = bitcast %"cls.acjs::JsVariant"* %ptr554 to i32 (...)***
  store i32 (...)** bitcast (i8** getelementptr inbounds ({ [4 x i8*] }, { [4 x i8*] }* @_ZTVN14altered_carbon2js9JsVariantE, i32 0, inrange i32 0, i32 2) to i32 (...)**), i32 (...)*** %209, align 8
  %210 = getelementptr inbounds %"cls.acjs::JsVariant", %"cls.acjs::JsVariant"* %ptr554, i32 0, i32 1
  store i32 1, i32* %210, align 8
  %ptr556 = alloca [2 x %"cls.acjs::JsVariant"*], align 16
  %ptr562 = alloca %"cls.acjs::JsVariant", align 8
  %211 = bitcast %"cls.acjs::JsVariant"* %ptr562 to i32 (...)***
  store i32 (...)** bitcast (i8** getelementptr inbounds ({ [4 x i8*] }, { [4 x i8*] }* @_ZTVN14altered_carbon2js9JsVariantE, i32 0, inrange i32 0, i32 2) to i32 (...)**), i32 (...)*** %211, align 8
  %212 = getelementptr inbounds %"cls.acjs::JsVariant", %"cls.acjs::JsVariant"* %ptr562, i32 0, i32 1
  store i32 1, i32* %212, align 8
  %ptr564 = alloca [1 x %"cls.acjs::JsVariant"*], align 16
  %ptr570 = alloca %"cls.acjs::JsVariant", align 8
  %213 = bitcast %"cls.acjs::JsVariant"* %ptr570 to i32 (...)***
  store i32 (...)** bitcast (i8** getelementptr inbounds ({ [4 x i8*] }, { [4 x i8*] }* @_ZTVN14altered_carbon2js9JsVariantE, i32 0, inrange i32 0, i32 2) to i32 (...)**), i32 (...)*** %213, align 8
  %214 = getelementptr inbounds %"cls.acjs::JsVariant", %"cls.acjs::JsVariant"* %ptr570, i32 0, i32 1
  store i32 1, i32* %214, align 8
  %ptr572 = alloca [1 x %"cls.acjs::JsVariant"*], align 16
  %ptr578 = alloca %"cls.acjs::JsVariant", align 8
  %215 = bitcast %"cls.acjs::JsVariant"* %ptr578 to i32 (...)***
  store i32 (...)** bitcast (i8** getelementptr inbounds ({ [4 x i8*] }, { [4 x i8*] }* @_ZTVN14altered_carbon2js9JsVariantE, i32 0, inrange i32 0, i32 2) to i32 (...)**), i32 (...)*** %215, align 8
  %216 = getelementptr inbounds %"cls.acjs::JsVariant", %"cls.acjs::JsVariant"* %ptr578, i32 0, i32 1
  store i32 1, i32* %216, align 8
  %ptr580 = alloca [1 x %"cls.acjs::JsVariant"*], align 16
  %ptr586 = alloca %"cls.acjs::JsVariant", align 8
  %217 = bitcast %"cls.acjs::JsVariant"* %ptr586 to i32 (...)***
  store i32 (...)** bitcast (i8** getelementptr inbounds ({ [4 x i8*] }, { [4 x i8*] }* @_ZTVN14altered_carbon2js9JsVariantE, i32 0, inrange i32 0, i32 2) to i32 (...)**), i32 (...)*** %217, align 8
  %218 = getelementptr inbounds %"cls.acjs::JsVariant", %"cls.acjs::JsVariant"* %ptr586, i32 0, i32 1
  store i32 1, i32* %218, align 8
  %ptr588 = alloca [1 x %"cls.acjs::JsVariant"*], align 16
  %ptr594 = alloca %"cls.acjs::JsVariant", align 8
  %219 = bitcast %"cls.acjs::JsVariant"* %ptr594 to i32 (...)***
  store i32 (...)** bitcast (i8** getelementptr inbounds ({ [4 x i8*] }, { [4 x i8*] }* @_ZTVN14altered_carbon2js9JsVariantE, i32 0, inrange i32 0, i32 2) to i32 (...)**), i32 (...)*** %219, align 8
  %220 = getelementptr inbounds %"cls.acjs::JsVariant", %"cls.acjs::JsVariant"* %ptr594, i32 0, i32 1
  store i32 1, i32* %220, align 8
  %ptr595 = alloca %"cls.acjs::JsVariant", align 8
  %221 = bitcast %"cls.acjs::JsVariant"* %ptr595 to i32 (...)***
  store i32 (...)** bitcast (i8** getelementptr inbounds ({ [4 x i8*] }, { [4 x i8*] }* @_ZTVN14altered_carbon2js9JsVariantE, i32 0, inrange i32 0, i32 2) to i32 (...)**), i32 (...)*** %221, align 8
  %222 = getelementptr inbounds %"cls.acjs::JsVariant", %"cls.acjs::JsVariant"* %ptr595, i32 0, i32 1
  store i32 1, i32* %222, align 8
  %ptr596 = alloca %"cls.acjs::JsVariant", align 8
  %223 = bitcast %"cls.acjs::JsVariant"* %ptr596 to i32 (...)***
  store i32 (...)** bitcast (i8** getelementptr inbounds ({ [4 x i8*] }, { [4 x i8*] }* @_ZTVN14altered_carbon2js9JsVariantE, i32 0, inrange i32 0, i32 2) to i32 (...)**), i32 (...)*** %223, align 8
  %224 = getelementptr inbounds %"cls.acjs::JsVariant", %"cls.acjs::JsVariant"* %ptr596, i32 0, i32 1
  store i32 1, i32* %224, align 8
  %ptr598 = alloca [2 x %"cls.acjs::JsVariant"*], align 16
  %ptr604 = alloca %"cls.acjs::JsVariant", align 8
  %225 = bitcast %"cls.acjs::JsVariant"* %ptr604 to i32 (...)***
  store i32 (...)** bitcast (i8** getelementptr inbounds ({ [4 x i8*] }, { [4 x i8*] }* @_ZTVN14altered_carbon2js9JsVariantE, i32 0, inrange i32 0, i32 2) to i32 (...)**), i32 (...)*** %225, align 8
  %226 = getelementptr inbounds %"cls.acjs::JsVariant", %"cls.acjs::JsVariant"* %ptr604, i32 0, i32 1
  store i32 1, i32* %226, align 8
  %ptr605 = alloca %"cls.acjs::JsVariant", align 8
  %227 = bitcast %"cls.acjs::JsVariant"* %ptr605 to i32 (...)***
  store i32 (...)** bitcast (i8** getelementptr inbounds ({ [4 x i8*] }, { [4 x i8*] }* @_ZTVN14altered_carbon2js9JsVariantE, i32 0, inrange i32 0, i32 2) to i32 (...)**), i32 (...)*** %227, align 8
  %228 = getelementptr inbounds %"cls.acjs::JsVariant", %"cls.acjs::JsVariant"* %ptr605, i32 0, i32 1
  store i32 1, i32* %228, align 8
  %ptr606 = alloca %"cls.acjs::JsVariant", align 8
  %229 = bitcast %"cls.acjs::JsVariant"* %ptr606 to i32 (...)***
  store i32 (...)** bitcast (i8** getelementptr inbounds ({ [4 x i8*] }, { [4 x i8*] }* @_ZTVN14altered_carbon2js9JsVariantE, i32 0, inrange i32 0, i32 2) to i32 (...)**), i32 (...)*** %229, align 8
  %230 = getelementptr inbounds %"cls.acjs::JsVariant", %"cls.acjs::JsVariant"* %ptr606, i32 0, i32 1
  store i32 1, i32* %230, align 8
  %ptr608 = alloca [2 x %"cls.acjs::JsVariant"*], align 16
  %ptr614 = alloca %"cls.acjs::JsVariant", align 8
  %231 = bitcast %"cls.acjs::JsVariant"* %ptr614 to i32 (...)***
  store i32 (...)** bitcast (i8** getelementptr inbounds ({ [4 x i8*] }, { [4 x i8*] }* @_ZTVN14altered_carbon2js9JsVariantE, i32 0, inrange i32 0, i32 2) to i32 (...)**), i32 (...)*** %231, align 8
  %232 = getelementptr inbounds %"cls.acjs::JsVariant", %"cls.acjs::JsVariant"* %ptr614, i32 0, i32 1
  store i32 1, i32* %232, align 8
  %ptr616 = alloca [2 x %"cls.acjs::JsVariant"*], align 16
  %ptr622 = alloca %"cls.acjs::JsVariant", align 8
  %233 = bitcast %"cls.acjs::JsVariant"* %ptr622 to i32 (...)***
  store i32 (...)** bitcast (i8** getelementptr inbounds ({ [4 x i8*] }, { [4 x i8*] }* @_ZTVN14altered_carbon2js9JsVariantE, i32 0, inrange i32 0, i32 2) to i32 (...)**), i32 (...)*** %233, align 8
  %234 = getelementptr inbounds %"cls.acjs::JsVariant", %"cls.acjs::JsVariant"* %ptr622, i32 0, i32 1
  store i32 1, i32* %234, align 8
  %ptr624 = alloca [1 x %"cls.acjs::JsVariant"*], align 16
  %ptr630 = alloca %"cls.acjs::JsVariant", align 8
  %235 = bitcast %"cls.acjs::JsVariant"* %ptr630 to i32 (...)***
  store i32 (...)** bitcast (i8** getelementptr inbounds ({ [4 x i8*] }, { [4 x i8*] }* @_ZTVN14altered_carbon2js9JsVariantE, i32 0, inrange i32 0, i32 2) to i32 (...)**), i32 (...)*** %235, align 8
  %236 = getelementptr inbounds %"cls.acjs::JsVariant", %"cls.acjs::JsVariant"* %ptr630, i32 0, i32 1
  store i32 1, i32* %236, align 8
  %ptr632 = alloca [1 x %"cls.acjs::JsVariant"*], align 16
  %ptr638 = alloca %"cls.acjs::JsVariant", align 8
  %237 = bitcast %"cls.acjs::JsVariant"* %ptr638 to i32 (...)***
  store i32 (...)** bitcast (i8** getelementptr inbounds ({ [4 x i8*] }, { [4 x i8*] }* @_ZTVN14altered_carbon2js9JsVariantE, i32 0, inrange i32 0, i32 2) to i32 (...)**), i32 (...)*** %237, align 8
  %238 = getelementptr inbounds %"cls.acjs::JsVariant", %"cls.acjs::JsVariant"* %ptr638, i32 0, i32 1
  store i32 1, i32* %238, align 8
  %ptr640 = alloca [1 x %"cls.acjs::JsVariant"*], align 16
  %ptr646 = alloca %"cls.acjs::JsVariant", align 8
  %239 = bitcast %"cls.acjs::JsVariant"* %ptr646 to i32 (...)***
  store i32 (...)** bitcast (i8** getelementptr inbounds ({ [4 x i8*] }, { [4 x i8*] }* @_ZTVN14altered_carbon2js9JsVariantE, i32 0, inrange i32 0, i32 2) to i32 (...)**), i32 (...)*** %239, align 8
  %240 = getelementptr inbounds %"cls.acjs::JsVariant", %"cls.acjs::JsVariant"* %ptr646, i32 0, i32 1
  store i32 1, i32* %240, align 8
  %ptr648 = alloca [1 x %"cls.acjs::JsVariant"*], align 16
  %ptr654 = alloca %"cls.acjs::JsVariant", align 8
  %241 = bitcast %"cls.acjs::JsVariant"* %ptr654 to i32 (...)***
  store i32 (...)** bitcast (i8** getelementptr inbounds ({ [4 x i8*] }, { [4 x i8*] }* @_ZTVN14altered_carbon2js9JsVariantE, i32 0, inrange i32 0, i32 2) to i32 (...)**), i32 (...)*** %241, align 8
  %242 = getelementptr inbounds %"cls.acjs::JsVariant", %"cls.acjs::JsVariant"* %ptr654, i32 0, i32 1
  store i32 1, i32* %242, align 8
  %ptr655 = alloca %"cls.acjs::JsVariant", align 8
  %243 = bitcast %"cls.acjs::JsVariant"* %ptr655 to i32 (...)***
  store i32 (...)** bitcast (i8** getelementptr inbounds ({ [4 x i8*] }, { [4 x i8*] }* @_ZTVN14altered_carbon2js9JsVariantE, i32 0, inrange i32 0, i32 2) to i32 (...)**), i32 (...)*** %243, align 8
  %244 = getelementptr inbounds %"cls.acjs::JsVariant", %"cls.acjs::JsVariant"* %ptr655, i32 0, i32 1
  store i32 1, i32* %244, align 8
  %ptr656 = alloca %"cls.acjs::JsVariant", align 8
  %245 = bitcast %"cls.acjs::JsVariant"* %ptr656 to i32 (...)***
  store i32 (...)** bitcast (i8** getelementptr inbounds ({ [4 x i8*] }, { [4 x i8*] }* @_ZTVN14altered_carbon2js9JsVariantE, i32 0, inrange i32 0, i32 2) to i32 (...)**), i32 (...)*** %245, align 8
  %246 = getelementptr inbounds %"cls.acjs::JsVariant", %"cls.acjs::JsVariant"* %ptr656, i32 0, i32 1
  store i32 1, i32* %246, align 8
  %ptr658 = alloca [2 x %"cls.acjs::JsVariant"*], align 16
  %ptr664 = alloca %"cls.acjs::JsVariant", align 8
  %247 = bitcast %"cls.acjs::JsVariant"* %ptr664 to i32 (...)***
  store i32 (...)** bitcast (i8** getelementptr inbounds ({ [4 x i8*] }, { [4 x i8*] }* @_ZTVN14altered_carbon2js9JsVariantE, i32 0, inrange i32 0, i32 2) to i32 (...)**), i32 (...)*** %247, align 8
  %248 = getelementptr inbounds %"cls.acjs::JsVariant", %"cls.acjs::JsVariant"* %ptr664, i32 0, i32 1
  store i32 1, i32* %248, align 8
  %ptr665 = alloca %"cls.acjs::JsVariant", align 8
  %249 = bitcast %"cls.acjs::JsVariant"* %ptr665 to i32 (...)***
  store i32 (...)** bitcast (i8** getelementptr inbounds ({ [4 x i8*] }, { [4 x i8*] }* @_ZTVN14altered_carbon2js9JsVariantE, i32 0, inrange i32 0, i32 2) to i32 (...)**), i32 (...)*** %249, align 8
  %250 = getelementptr inbounds %"cls.acjs::JsVariant", %"cls.acjs::JsVariant"* %ptr665, i32 0, i32 1
  store i32 1, i32* %250, align 8
  %ptr666 = alloca %"cls.acjs::JsVariant", align 8
  %251 = bitcast %"cls.acjs::JsVariant"* %ptr666 to i32 (...)***
  store i32 (...)** bitcast (i8** getelementptr inbounds ({ [4 x i8*] }, { [4 x i8*] }* @_ZTVN14altered_carbon2js9JsVariantE, i32 0, inrange i32 0, i32 2) to i32 (...)**), i32 (...)*** %251, align 8
  %252 = getelementptr inbounds %"cls.acjs::JsVariant", %"cls.acjs::JsVariant"* %ptr666, i32 0, i32 1
  store i32 1, i32* %252, align 8
  %ptr668 = alloca [2 x %"cls.acjs::JsVariant"*], align 16
  %ptr674 = alloca %"cls.acjs::JsVariant", align 8
  %253 = bitcast %"cls.acjs::JsVariant"* %ptr674 to i32 (...)***
  store i32 (...)** bitcast (i8** getelementptr inbounds ({ [4 x i8*] }, { [4 x i8*] }* @_ZTVN14altered_carbon2js9JsVariantE, i32 0, inrange i32 0, i32 2) to i32 (...)**), i32 (...)*** %253, align 8
  %254 = getelementptr inbounds %"cls.acjs::JsVariant", %"cls.acjs::JsVariant"* %ptr674, i32 0, i32 1
  store i32 1, i32* %254, align 8
  %ptr676 = alloca [2 x %"cls.acjs::JsVariant"*], align 16
  %ptr682 = alloca %"cls.acjs::JsVariant", align 8
  %255 = bitcast %"cls.acjs::JsVariant"* %ptr682 to i32 (...)***
  store i32 (...)** bitcast (i8** getelementptr inbounds ({ [4 x i8*] }, { [4 x i8*] }* @_ZTVN14altered_carbon2js9JsVariantE, i32 0, inrange i32 0, i32 2) to i32 (...)**), i32 (...)*** %255, align 8
  %256 = getelementptr inbounds %"cls.acjs::JsVariant", %"cls.acjs::JsVariant"* %ptr682, i32 0, i32 1
  store i32 1, i32* %256, align 8
  %ptr684 = alloca [1 x %"cls.acjs::JsVariant"*], align 16
  %ptr690 = alloca %"cls.acjs::JsVariant", align 8
  %257 = bitcast %"cls.acjs::JsVariant"* %ptr690 to i32 (...)***
  store i32 (...)** bitcast (i8** getelementptr inbounds ({ [4 x i8*] }, { [4 x i8*] }* @_ZTVN14altered_carbon2js9JsVariantE, i32 0, inrange i32 0, i32 2) to i32 (...)**), i32 (...)*** %257, align 8
  %258 = getelementptr inbounds %"cls.acjs::JsVariant", %"cls.acjs::JsVariant"* %ptr690, i32 0, i32 1
  store i32 1, i32* %258, align 8
  %ptr692 = alloca [1 x %"cls.acjs::JsVariant"*], align 16
  %ptr698 = alloca %"cls.acjs::JsVariant", align 8
  %259 = bitcast %"cls.acjs::JsVariant"* %ptr698 to i32 (...)***
  store i32 (...)** bitcast (i8** getelementptr inbounds ({ [4 x i8*] }, { [4 x i8*] }* @_ZTVN14altered_carbon2js9JsVariantE, i32 0, inrange i32 0, i32 2) to i32 (...)**), i32 (...)*** %259, align 8
  %260 = getelementptr inbounds %"cls.acjs::JsVariant", %"cls.acjs::JsVariant"* %ptr698, i32 0, i32 1
  store i32 1, i32* %260, align 8
  %ptr700 = alloca [1 x %"cls.acjs::JsVariant"*], align 16
  %ptr706 = alloca %"cls.acjs::JsVariant", align 8
  %261 = bitcast %"cls.acjs::JsVariant"* %ptr706 to i32 (...)***
  store i32 (...)** bitcast (i8** getelementptr inbounds ({ [4 x i8*] }, { [4 x i8*] }* @_ZTVN14altered_carbon2js9JsVariantE, i32 0, inrange i32 0, i32 2) to i32 (...)**), i32 (...)*** %261, align 8
  %262 = getelementptr inbounds %"cls.acjs::JsVariant", %"cls.acjs::JsVariant"* %ptr706, i32 0, i32 1
  store i32 1, i32* %262, align 8
  %ptr708 = alloca [1 x %"cls.acjs::JsVariant"*], align 16
  %ptr714 = alloca %"cls.acjs::JsVariant", align 8
  %263 = bitcast %"cls.acjs::JsVariant"* %ptr714 to i32 (...)***
  store i32 (...)** bitcast (i8** getelementptr inbounds ({ [4 x i8*] }, { [4 x i8*] }* @_ZTVN14altered_carbon2js9JsVariantE, i32 0, inrange i32 0, i32 2) to i32 (...)**), i32 (...)*** %263, align 8
  %264 = getelementptr inbounds %"cls.acjs::JsVariant", %"cls.acjs::JsVariant"* %ptr714, i32 0, i32 1
  store i32 1, i32* %264, align 8
  %ptr715 = alloca %"cls.acjs::JsVariant", align 8
  %265 = bitcast %"cls.acjs::JsVariant"* %ptr715 to i32 (...)***
  store i32 (...)** bitcast (i8** getelementptr inbounds ({ [4 x i8*] }, { [4 x i8*] }* @_ZTVN14altered_carbon2js9JsVariantE, i32 0, inrange i32 0, i32 2) to i32 (...)**), i32 (...)*** %265, align 8
  %266 = getelementptr inbounds %"cls.acjs::JsVariant", %"cls.acjs::JsVariant"* %ptr715, i32 0, i32 1
  store i32 1, i32* %266, align 8
  %ptr716 = alloca %"cls.acjs::JsVariant", align 8
  %267 = bitcast %"cls.acjs::JsVariant"* %ptr716 to i32 (...)***
  store i32 (...)** bitcast (i8** getelementptr inbounds ({ [4 x i8*] }, { [4 x i8*] }* @_ZTVN14altered_carbon2js9JsVariantE, i32 0, inrange i32 0, i32 2) to i32 (...)**), i32 (...)*** %267, align 8
  %268 = getelementptr inbounds %"cls.acjs::JsVariant", %"cls.acjs::JsVariant"* %ptr716, i32 0, i32 1
  store i32 1, i32* %268, align 8
  %ptr718 = alloca [2 x %"cls.acjs::JsVariant"*], align 16
  %ptr724 = alloca %"cls.acjs::JsVariant", align 8
  %269 = bitcast %"cls.acjs::JsVariant"* %ptr724 to i32 (...)***
  store i32 (...)** bitcast (i8** getelementptr inbounds ({ [4 x i8*] }, { [4 x i8*] }* @_ZTVN14altered_carbon2js9JsVariantE, i32 0, inrange i32 0, i32 2) to i32 (...)**), i32 (...)*** %269, align 8
  %270 = getelementptr inbounds %"cls.acjs::JsVariant", %"cls.acjs::JsVariant"* %ptr724, i32 0, i32 1
  store i32 1, i32* %270, align 8
  %ptr725 = alloca %"cls.acjs::JsVariant", align 8
  %271 = bitcast %"cls.acjs::JsVariant"* %ptr725 to i32 (...)***
  store i32 (...)** bitcast (i8** getelementptr inbounds ({ [4 x i8*] }, { [4 x i8*] }* @_ZTVN14altered_carbon2js9JsVariantE, i32 0, inrange i32 0, i32 2) to i32 (...)**), i32 (...)*** %271, align 8
  %272 = getelementptr inbounds %"cls.acjs::JsVariant", %"cls.acjs::JsVariant"* %ptr725, i32 0, i32 1
  store i32 1, i32* %272, align 8
  %ptr726 = alloca %"cls.acjs::JsVariant", align 8
  %273 = bitcast %"cls.acjs::JsVariant"* %ptr726 to i32 (...)***
  store i32 (...)** bitcast (i8** getelementptr inbounds ({ [4 x i8*] }, { [4 x i8*] }* @_ZTVN14altered_carbon2js9JsVariantE, i32 0, inrange i32 0, i32 2) to i32 (...)**), i32 (...)*** %273, align 8
  %274 = getelementptr inbounds %"cls.acjs::JsVariant", %"cls.acjs::JsVariant"* %ptr726, i32 0, i32 1
  store i32 1, i32* %274, align 8
  %ptr728 = alloca [2 x %"cls.acjs::JsVariant"*], align 16
  %ptr734 = alloca %"cls.acjs::JsVariant", align 8
  %275 = bitcast %"cls.acjs::JsVariant"* %ptr734 to i32 (...)***
  store i32 (...)** bitcast (i8** getelementptr inbounds ({ [4 x i8*] }, { [4 x i8*] }* @_ZTVN14altered_carbon2js9JsVariantE, i32 0, inrange i32 0, i32 2) to i32 (...)**), i32 (...)*** %275, align 8
  %276 = getelementptr inbounds %"cls.acjs::JsVariant", %"cls.acjs::JsVariant"* %ptr734, i32 0, i32 1
  store i32 1, i32* %276, align 8
  %ptr736 = alloca [2 x %"cls.acjs::JsVariant"*], align 16
  %ptr742 = alloca %"cls.acjs::JsVariant", align 8
  %277 = bitcast %"cls.acjs::JsVariant"* %ptr742 to i32 (...)***
  store i32 (...)** bitcast (i8** getelementptr inbounds ({ [4 x i8*] }, { [4 x i8*] }* @_ZTVN14altered_carbon2js9JsVariantE, i32 0, inrange i32 0, i32 2) to i32 (...)**), i32 (...)*** %277, align 8
  %278 = getelementptr inbounds %"cls.acjs::JsVariant", %"cls.acjs::JsVariant"* %ptr742, i32 0, i32 1
  store i32 1, i32* %278, align 8
  %ptr744 = alloca [1 x %"cls.acjs::JsVariant"*], align 16
  %ptr750 = alloca %"cls.acjs::JsVariant", align 8
  %279 = bitcast %"cls.acjs::JsVariant"* %ptr750 to i32 (...)***
  store i32 (...)** bitcast (i8** getelementptr inbounds ({ [4 x i8*] }, { [4 x i8*] }* @_ZTVN14altered_carbon2js9JsVariantE, i32 0, inrange i32 0, i32 2) to i32 (...)**), i32 (...)*** %279, align 8
  %280 = getelementptr inbounds %"cls.acjs::JsVariant", %"cls.acjs::JsVariant"* %ptr750, i32 0, i32 1
  store i32 1, i32* %280, align 8
  %ptr752 = alloca [1 x %"cls.acjs::JsVariant"*], align 16
  %ptr758 = alloca %"cls.acjs::JsVariant", align 8
  %281 = bitcast %"cls.acjs::JsVariant"* %ptr758 to i32 (...)***
  store i32 (...)** bitcast (i8** getelementptr inbounds ({ [4 x i8*] }, { [4 x i8*] }* @_ZTVN14altered_carbon2js9JsVariantE, i32 0, inrange i32 0, i32 2) to i32 (...)**), i32 (...)*** %281, align 8
  %282 = getelementptr inbounds %"cls.acjs::JsVariant", %"cls.acjs::JsVariant"* %ptr758, i32 0, i32 1
  store i32 1, i32* %282, align 8
  %ptr760 = alloca [1 x %"cls.acjs::JsVariant"*], align 16
  %ptr766 = alloca %"cls.acjs::JsVariant", align 8
  %283 = bitcast %"cls.acjs::JsVariant"* %ptr766 to i32 (...)***
  store i32 (...)** bitcast (i8** getelementptr inbounds ({ [4 x i8*] }, { [4 x i8*] }* @_ZTVN14altered_carbon2js9JsVariantE, i32 0, inrange i32 0, i32 2) to i32 (...)**), i32 (...)*** %283, align 8
  %284 = getelementptr inbounds %"cls.acjs::JsVariant", %"cls.acjs::JsVariant"* %ptr766, i32 0, i32 1
  store i32 1, i32* %284, align 8
  %ptr768 = alloca [1 x %"cls.acjs::JsVariant"*], align 16
  %ptr774 = alloca %"cls.acjs::JsVariant", align 8
  %285 = bitcast %"cls.acjs::JsVariant"* %ptr774 to i32 (...)***
  store i32 (...)** bitcast (i8** getelementptr inbounds ({ [4 x i8*] }, { [4 x i8*] }* @_ZTVN14altered_carbon2js9JsVariantE, i32 0, inrange i32 0, i32 2) to i32 (...)**), i32 (...)*** %285, align 8
  %286 = getelementptr inbounds %"cls.acjs::JsVariant", %"cls.acjs::JsVariant"* %ptr774, i32 0, i32 1
  store i32 1, i32* %286, align 8
  %ptr775 = alloca %"cls.acjs::JsVariant", align 8
  %287 = bitcast %"cls.acjs::JsVariant"* %ptr775 to i32 (...)***
  store i32 (...)** bitcast (i8** getelementptr inbounds ({ [4 x i8*] }, { [4 x i8*] }* @_ZTVN14altered_carbon2js9JsVariantE, i32 0, inrange i32 0, i32 2) to i32 (...)**), i32 (...)*** %287, align 8
  %288 = getelementptr inbounds %"cls.acjs::JsVariant", %"cls.acjs::JsVariant"* %ptr775, i32 0, i32 1
  store i32 1, i32* %288, align 8
  %ptr776 = alloca %"cls.acjs::JsVariant", align 8
  %289 = bitcast %"cls.acjs::JsVariant"* %ptr776 to i32 (...)***
  store i32 (...)** bitcast (i8** getelementptr inbounds ({ [4 x i8*] }, { [4 x i8*] }* @_ZTVN14altered_carbon2js9JsVariantE, i32 0, inrange i32 0, i32 2) to i32 (...)**), i32 (...)*** %289, align 8
  %290 = getelementptr inbounds %"cls.acjs::JsVariant", %"cls.acjs::JsVariant"* %ptr776, i32 0, i32 1
  store i32 1, i32* %290, align 8
  %ptr778 = alloca [2 x %"cls.acjs::JsVariant"*], align 16
  %ptr784 = alloca %"cls.acjs::JsVariant", align 8
  %291 = bitcast %"cls.acjs::JsVariant"* %ptr784 to i32 (...)***
  store i32 (...)** bitcast (i8** getelementptr inbounds ({ [4 x i8*] }, { [4 x i8*] }* @_ZTVN14altered_carbon2js9JsVariantE, i32 0, inrange i32 0, i32 2) to i32 (...)**), i32 (...)*** %291, align 8
  %292 = getelementptr inbounds %"cls.acjs::JsVariant", %"cls.acjs::JsVariant"* %ptr784, i32 0, i32 1
  store i32 1, i32* %292, align 8
  %ptr785 = alloca %"cls.acjs::JsVariant", align 8
  %293 = bitcast %"cls.acjs::JsVariant"* %ptr785 to i32 (...)***
  store i32 (...)** bitcast (i8** getelementptr inbounds ({ [4 x i8*] }, { [4 x i8*] }* @_ZTVN14altered_carbon2js9JsVariantE, i32 0, inrange i32 0, i32 2) to i32 (...)**), i32 (...)*** %293, align 8
  %294 = getelementptr inbounds %"cls.acjs::JsVariant", %"cls.acjs::JsVariant"* %ptr785, i32 0, i32 1
  store i32 1, i32* %294, align 8
  %ptr786 = alloca %"cls.acjs::JsVariant", align 8
  %295 = bitcast %"cls.acjs::JsVariant"* %ptr786 to i32 (...)***
  store i32 (...)** bitcast (i8** getelementptr inbounds ({ [4 x i8*] }, { [4 x i8*] }* @_ZTVN14altered_carbon2js9JsVariantE, i32 0, inrange i32 0, i32 2) to i32 (...)**), i32 (...)*** %295, align 8
  %296 = getelementptr inbounds %"cls.acjs::JsVariant", %"cls.acjs::JsVariant"* %ptr786, i32 0, i32 1
  store i32 1, i32* %296, align 8
  %ptr788 = alloca [2 x %"cls.acjs::JsVariant"*], align 16
  %ptr794 = alloca %"cls.acjs::JsVariant", align 8
  %297 = bitcast %"cls.acjs::JsVariant"* %ptr794 to i32 (...)***
  store i32 (...)** bitcast (i8** getelementptr inbounds ({ [4 x i8*] }, { [4 x i8*] }* @_ZTVN14altered_carbon2js9JsVariantE, i32 0, inrange i32 0, i32 2) to i32 (...)**), i32 (...)*** %297, align 8
  %298 = getelementptr inbounds %"cls.acjs::JsVariant", %"cls.acjs::JsVariant"* %ptr794, i32 0, i32 1
  store i32 1, i32* %298, align 8
  %ptr796 = alloca [2 x %"cls.acjs::JsVariant"*], align 16
  %ptr802 = alloca %"cls.acjs::JsVariant", align 8
  %299 = bitcast %"cls.acjs::JsVariant"* %ptr802 to i32 (...)***
  store i32 (...)** bitcast (i8** getelementptr inbounds ({ [4 x i8*] }, { [4 x i8*] }* @_ZTVN14altered_carbon2js9JsVariantE, i32 0, inrange i32 0, i32 2) to i32 (...)**), i32 (...)*** %299, align 8
  %300 = getelementptr inbounds %"cls.acjs::JsVariant", %"cls.acjs::JsVariant"* %ptr802, i32 0, i32 1
  store i32 1, i32* %300, align 8
  %ptr804 = alloca [1 x %"cls.acjs::JsVariant"*], align 16
  %ptr810 = alloca %"cls.acjs::JsVariant", align 8
  %301 = bitcast %"cls.acjs::JsVariant"* %ptr810 to i32 (...)***
  store i32 (...)** bitcast (i8** getelementptr inbounds ({ [4 x i8*] }, { [4 x i8*] }* @_ZTVN14altered_carbon2js9JsVariantE, i32 0, inrange i32 0, i32 2) to i32 (...)**), i32 (...)*** %301, align 8
  %302 = getelementptr inbounds %"cls.acjs::JsVariant", %"cls.acjs::JsVariant"* %ptr810, i32 0, i32 1
  store i32 1, i32* %302, align 8
  %ptr812 = alloca [1 x %"cls.acjs::JsVariant"*], align 16
  %ptr818 = alloca %"cls.acjs::JsVariant", align 8
  %303 = bitcast %"cls.acjs::JsVariant"* %ptr818 to i32 (...)***
  store i32 (...)** bitcast (i8** getelementptr inbounds ({ [4 x i8*] }, { [4 x i8*] }* @_ZTVN14altered_carbon2js9JsVariantE, i32 0, inrange i32 0, i32 2) to i32 (...)**), i32 (...)*** %303, align 8
  %304 = getelementptr inbounds %"cls.acjs::JsVariant", %"cls.acjs::JsVariant"* %ptr818, i32 0, i32 1
  store i32 1, i32* %304, align 8
  %ptr820 = alloca [1 x %"cls.acjs::JsVariant"*], align 16
  %ptr826 = alloca %"cls.acjs::JsVariant", align 8
  %305 = bitcast %"cls.acjs::JsVariant"* %ptr826 to i32 (...)***
  store i32 (...)** bitcast (i8** getelementptr inbounds ({ [4 x i8*] }, { [4 x i8*] }* @_ZTVN14altered_carbon2js9JsVariantE, i32 0, inrange i32 0, i32 2) to i32 (...)**), i32 (...)*** %305, align 8
  %306 = getelementptr inbounds %"cls.acjs::JsVariant", %"cls.acjs::JsVariant"* %ptr826, i32 0, i32 1
  store i32 1, i32* %306, align 8
  %ptr828 = alloca [1 x %"cls.acjs::JsVariant"*], align 16
  %ptr834 = alloca %"cls.acjs::JsVariant", align 8
  %307 = bitcast %"cls.acjs::JsVariant"* %ptr834 to i32 (...)***
  store i32 (...)** bitcast (i8** getelementptr inbounds ({ [4 x i8*] }, { [4 x i8*] }* @_ZTVN14altered_carbon2js9JsVariantE, i32 0, inrange i32 0, i32 2) to i32 (...)**), i32 (...)*** %307, align 8
  %308 = getelementptr inbounds %"cls.acjs::JsVariant", %"cls.acjs::JsVariant"* %ptr834, i32 0, i32 1
  store i32 1, i32* %308, align 8
  %ptr835 = alloca %"cls.acjs::JsVariant", align 8
  %309 = bitcast %"cls.acjs::JsVariant"* %ptr835 to i32 (...)***
  store i32 (...)** bitcast (i8** getelementptr inbounds ({ [4 x i8*] }, { [4 x i8*] }* @_ZTVN14altered_carbon2js9JsVariantE, i32 0, inrange i32 0, i32 2) to i32 (...)**), i32 (...)*** %309, align 8
  %310 = getelementptr inbounds %"cls.acjs::JsVariant", %"cls.acjs::JsVariant"* %ptr835, i32 0, i32 1
  store i32 1, i32* %310, align 8
  %ptr836 = alloca %"cls.acjs::JsVariant", align 8
  %311 = bitcast %"cls.acjs::JsVariant"* %ptr836 to i32 (...)***
  store i32 (...)** bitcast (i8** getelementptr inbounds ({ [4 x i8*] }, { [4 x i8*] }* @_ZTVN14altered_carbon2js9JsVariantE, i32 0, inrange i32 0, i32 2) to i32 (...)**), i32 (...)*** %311, align 8
  %312 = getelementptr inbounds %"cls.acjs::JsVariant", %"cls.acjs::JsVariant"* %ptr836, i32 0, i32 1
  store i32 1, i32* %312, align 8
  %ptr838 = alloca [2 x %"cls.acjs::JsVariant"*], align 16
  %ptr844 = alloca %"cls.acjs::JsVariant", align 8
  %313 = bitcast %"cls.acjs::JsVariant"* %ptr844 to i32 (...)***
  store i32 (...)** bitcast (i8** getelementptr inbounds ({ [4 x i8*] }, { [4 x i8*] }* @_ZTVN14altered_carbon2js9JsVariantE, i32 0, inrange i32 0, i32 2) to i32 (...)**), i32 (...)*** %313, align 8
  %314 = getelementptr inbounds %"cls.acjs::JsVariant", %"cls.acjs::JsVariant"* %ptr844, i32 0, i32 1
  store i32 1, i32* %314, align 8
  %ptr845 = alloca %"cls.acjs::JsVariant", align 8
  %315 = bitcast %"cls.acjs::JsVariant"* %ptr845 to i32 (...)***
  store i32 (...)** bitcast (i8** getelementptr inbounds ({ [4 x i8*] }, { [4 x i8*] }* @_ZTVN14altered_carbon2js9JsVariantE, i32 0, inrange i32 0, i32 2) to i32 (...)**), i32 (...)*** %315, align 8
  %316 = getelementptr inbounds %"cls.acjs::JsVariant", %"cls.acjs::JsVariant"* %ptr845, i32 0, i32 1
  store i32 1, i32* %316, align 8
  %ptr846 = alloca %"cls.acjs::JsVariant", align 8
  %317 = bitcast %"cls.acjs::JsVariant"* %ptr846 to i32 (...)***
  store i32 (...)** bitcast (i8** getelementptr inbounds ({ [4 x i8*] }, { [4 x i8*] }* @_ZTVN14altered_carbon2js9JsVariantE, i32 0, inrange i32 0, i32 2) to i32 (...)**), i32 (...)*** %317, align 8
  %318 = getelementptr inbounds %"cls.acjs::JsVariant", %"cls.acjs::JsVariant"* %ptr846, i32 0, i32 1
  store i32 1, i32* %318, align 8
  %ptr848 = alloca [2 x %"cls.acjs::JsVariant"*], align 16
  %ptr854 = alloca %"cls.acjs::JsVariant", align 8
  %319 = bitcast %"cls.acjs::JsVariant"* %ptr854 to i32 (...)***
  store i32 (...)** bitcast (i8** getelementptr inbounds ({ [4 x i8*] }, { [4 x i8*] }* @_ZTVN14altered_carbon2js9JsVariantE, i32 0, inrange i32 0, i32 2) to i32 (...)**), i32 (...)*** %319, align 8
  %320 = getelementptr inbounds %"cls.acjs::JsVariant", %"cls.acjs::JsVariant"* %ptr854, i32 0, i32 1
  store i32 1, i32* %320, align 8
  %ptr856 = alloca [2 x %"cls.acjs::JsVariant"*], align 16
  %ptr862 = alloca %"cls.acjs::JsVariant", align 8
  %321 = bitcast %"cls.acjs::JsVariant"* %ptr862 to i32 (...)***
  store i32 (...)** bitcast (i8** getelementptr inbounds ({ [4 x i8*] }, { [4 x i8*] }* @_ZTVN14altered_carbon2js9JsVariantE, i32 0, inrange i32 0, i32 2) to i32 (...)**), i32 (...)*** %321, align 8
  %322 = getelementptr inbounds %"cls.acjs::JsVariant", %"cls.acjs::JsVariant"* %ptr862, i32 0, i32 1
  store i32 1, i32* %322, align 8
  %ptr864 = alloca [1 x %"cls.acjs::JsVariant"*], align 16
  %ptr870 = alloca %"cls.acjs::JsVariant", align 8
  %323 = bitcast %"cls.acjs::JsVariant"* %ptr870 to i32 (...)***
  store i32 (...)** bitcast (i8** getelementptr inbounds ({ [4 x i8*] }, { [4 x i8*] }* @_ZTVN14altered_carbon2js9JsVariantE, i32 0, inrange i32 0, i32 2) to i32 (...)**), i32 (...)*** %323, align 8
  %324 = getelementptr inbounds %"cls.acjs::JsVariant", %"cls.acjs::JsVariant"* %ptr870, i32 0, i32 1
  store i32 1, i32* %324, align 8
  %ptr872 = alloca [1 x %"cls.acjs::JsVariant"*], align 16
  %ptr878 = alloca %"cls.acjs::JsVariant", align 8
  %325 = bitcast %"cls.acjs::JsVariant"* %ptr878 to i32 (...)***
  store i32 (...)** bitcast (i8** getelementptr inbounds ({ [4 x i8*] }, { [4 x i8*] }* @_ZTVN14altered_carbon2js9JsVariantE, i32 0, inrange i32 0, i32 2) to i32 (...)**), i32 (...)*** %325, align 8
  %326 = getelementptr inbounds %"cls.acjs::JsVariant", %"cls.acjs::JsVariant"* %ptr878, i32 0, i32 1
  store i32 1, i32* %326, align 8
  %ptr880 = alloca [1 x %"cls.acjs::JsVariant"*], align 16
  %ptr886 = alloca %"cls.acjs::JsVariant", align 8
  %327 = bitcast %"cls.acjs::JsVariant"* %ptr886 to i32 (...)***
  store i32 (...)** bitcast (i8** getelementptr inbounds ({ [4 x i8*] }, { [4 x i8*] }* @_ZTVN14altered_carbon2js9JsVariantE, i32 0, inrange i32 0, i32 2) to i32 (...)**), i32 (...)*** %327, align 8
  %328 = getelementptr inbounds %"cls.acjs::JsVariant", %"cls.acjs::JsVariant"* %ptr886, i32 0, i32 1
  store i32 1, i32* %328, align 8
  %ptr888 = alloca [1 x %"cls.acjs::JsVariant"*], align 16
  %ptr894 = alloca %"cls.acjs::JsVariant", align 8
  %329 = bitcast %"cls.acjs::JsVariant"* %ptr894 to i32 (...)***
  store i32 (...)** bitcast (i8** getelementptr inbounds ({ [4 x i8*] }, { [4 x i8*] }* @_ZTVN14altered_carbon2js9JsVariantE, i32 0, inrange i32 0, i32 2) to i32 (...)**), i32 (...)*** %329, align 8
  %330 = getelementptr inbounds %"cls.acjs::JsVariant", %"cls.acjs::JsVariant"* %ptr894, i32 0, i32 1
  store i32 1, i32* %330, align 8
  %ptr895 = alloca %"cls.acjs::JsVariant", align 8
  %331 = bitcast %"cls.acjs::JsVariant"* %ptr895 to i32 (...)***
  store i32 (...)** bitcast (i8** getelementptr inbounds ({ [4 x i8*] }, { [4 x i8*] }* @_ZTVN14altered_carbon2js9JsVariantE, i32 0, inrange i32 0, i32 2) to i32 (...)**), i32 (...)*** %331, align 8
  %332 = getelementptr inbounds %"cls.acjs::JsVariant", %"cls.acjs::JsVariant"* %ptr895, i32 0, i32 1
  store i32 1, i32* %332, align 8
  %ptr896 = alloca %"cls.acjs::JsVariant", align 8
  %333 = bitcast %"cls.acjs::JsVariant"* %ptr896 to i32 (...)***
  store i32 (...)** bitcast (i8** getelementptr inbounds ({ [4 x i8*] }, { [4 x i8*] }* @_ZTVN14altered_carbon2js9JsVariantE, i32 0, inrange i32 0, i32 2) to i32 (...)**), i32 (...)*** %333, align 8
  %334 = getelementptr inbounds %"cls.acjs::JsVariant", %"cls.acjs::JsVariant"* %ptr896, i32 0, i32 1
  store i32 1, i32* %334, align 8
  %ptr898 = alloca [2 x %"cls.acjs::JsVariant"*], align 16
  %ptr904 = alloca %"cls.acjs::JsVariant", align 8
  %335 = bitcast %"cls.acjs::JsVariant"* %ptr904 to i32 (...)***
  store i32 (...)** bitcast (i8** getelementptr inbounds ({ [4 x i8*] }, { [4 x i8*] }* @_ZTVN14altered_carbon2js9JsVariantE, i32 0, inrange i32 0, i32 2) to i32 (...)**), i32 (...)*** %335, align 8
  %336 = getelementptr inbounds %"cls.acjs::JsVariant", %"cls.acjs::JsVariant"* %ptr904, i32 0, i32 1
  store i32 1, i32* %336, align 8
  %ptr905 = alloca %"cls.acjs::JsVariant", align 8
  %337 = bitcast %"cls.acjs::JsVariant"* %ptr905 to i32 (...)***
  store i32 (...)** bitcast (i8** getelementptr inbounds ({ [4 x i8*] }, { [4 x i8*] }* @_ZTVN14altered_carbon2js9JsVariantE, i32 0, inrange i32 0, i32 2) to i32 (...)**), i32 (...)*** %337, align 8
  %338 = getelementptr inbounds %"cls.acjs::JsVariant", %"cls.acjs::JsVariant"* %ptr905, i32 0, i32 1
  store i32 1, i32* %338, align 8
  %ptr906 = alloca %"cls.acjs::JsVariant", align 8
  %339 = bitcast %"cls.acjs::JsVariant"* %ptr906 to i32 (...)***
  store i32 (...)** bitcast (i8** getelementptr inbounds ({ [4 x i8*] }, { [4 x i8*] }* @_ZTVN14altered_carbon2js9JsVariantE, i32 0, inrange i32 0, i32 2) to i32 (...)**), i32 (...)*** %339, align 8
  %340 = getelementptr inbounds %"cls.acjs::JsVariant", %"cls.acjs::JsVariant"* %ptr906, i32 0, i32 1
  store i32 1, i32* %340, align 8
  %ptr908 = alloca [2 x %"cls.acjs::JsVariant"*], align 16
  %ptr914 = alloca %"cls.acjs::JsVariant", align 8
  %341 = bitcast %"cls.acjs::JsVariant"* %ptr914 to i32 (...)***
  store i32 (...)** bitcast (i8** getelementptr inbounds ({ [4 x i8*] }, { [4 x i8*] }* @_ZTVN14altered_carbon2js9JsVariantE, i32 0, inrange i32 0, i32 2) to i32 (...)**), i32 (...)*** %341, align 8
  %342 = getelementptr inbounds %"cls.acjs::JsVariant", %"cls.acjs::JsVariant"* %ptr914, i32 0, i32 1
  store i32 1, i32* %342, align 8
  %ptr916 = alloca [2 x %"cls.acjs::JsVariant"*], align 16
  %ptr922 = alloca %"cls.acjs::JsVariant", align 8
  %343 = bitcast %"cls.acjs::JsVariant"* %ptr922 to i32 (...)***
  store i32 (...)** bitcast (i8** getelementptr inbounds ({ [4 x i8*] }, { [4 x i8*] }* @_ZTVN14altered_carbon2js9JsVariantE, i32 0, inrange i32 0, i32 2) to i32 (...)**), i32 (...)*** %343, align 8
  %344 = getelementptr inbounds %"cls.acjs::JsVariant", %"cls.acjs::JsVariant"* %ptr922, i32 0, i32 1
  store i32 1, i32* %344, align 8
  %ptr924 = alloca [1 x %"cls.acjs::JsVariant"*], align 16
  %ptr930 = alloca %"cls.acjs::JsVariant", align 8
  %345 = bitcast %"cls.acjs::JsVariant"* %ptr930 to i32 (...)***
  store i32 (...)** bitcast (i8** getelementptr inbounds ({ [4 x i8*] }, { [4 x i8*] }* @_ZTVN14altered_carbon2js9JsVariantE, i32 0, inrange i32 0, i32 2) to i32 (...)**), i32 (...)*** %345, align 8
  %346 = getelementptr inbounds %"cls.acjs::JsVariant", %"cls.acjs::JsVariant"* %ptr930, i32 0, i32 1
  store i32 1, i32* %346, align 8
  %ptr932 = alloca [1 x %"cls.acjs::JsVariant"*], align 16
  %ptr938 = alloca %"cls.acjs::JsVariant", align 8
  %347 = bitcast %"cls.acjs::JsVariant"* %ptr938 to i32 (...)***
  store i32 (...)** bitcast (i8** getelementptr inbounds ({ [4 x i8*] }, { [4 x i8*] }* @_ZTVN14altered_carbon2js9JsVariantE, i32 0, inrange i32 0, i32 2) to i32 (...)**), i32 (...)*** %347, align 8
  %348 = getelementptr inbounds %"cls.acjs::JsVariant", %"cls.acjs::JsVariant"* %ptr938, i32 0, i32 1
  store i32 1, i32* %348, align 8
  %ptr940 = alloca [1 x %"cls.acjs::JsVariant"*], align 16
  %ptr946 = alloca %"cls.acjs::JsVariant", align 8
  %349 = bitcast %"cls.acjs::JsVariant"* %ptr946 to i32 (...)***
  store i32 (...)** bitcast (i8** getelementptr inbounds ({ [4 x i8*] }, { [4 x i8*] }* @_ZTVN14altered_carbon2js9JsVariantE, i32 0, inrange i32 0, i32 2) to i32 (...)**), i32 (...)*** %349, align 8
  %350 = getelementptr inbounds %"cls.acjs::JsVariant", %"cls.acjs::JsVariant"* %ptr946, i32 0, i32 1
  store i32 1, i32* %350, align 8
  %ptr948 = alloca [1 x %"cls.acjs::JsVariant"*], align 16
  %ptr954 = alloca %"cls.acjs::JsVariant", align 8
  %351 = bitcast %"cls.acjs::JsVariant"* %ptr954 to i32 (...)***
  store i32 (...)** bitcast (i8** getelementptr inbounds ({ [4 x i8*] }, { [4 x i8*] }* @_ZTVN14altered_carbon2js9JsVariantE, i32 0, inrange i32 0, i32 2) to i32 (...)**), i32 (...)*** %351, align 8
  %352 = getelementptr inbounds %"cls.acjs::JsVariant", %"cls.acjs::JsVariant"* %ptr954, i32 0, i32 1
  store i32 1, i32* %352, align 8
  %ptr955 = alloca %"cls.acjs::JsVariant", align 8
  %353 = bitcast %"cls.acjs::JsVariant"* %ptr955 to i32 (...)***
  store i32 (...)** bitcast (i8** getelementptr inbounds ({ [4 x i8*] }, { [4 x i8*] }* @_ZTVN14altered_carbon2js9JsVariantE, i32 0, inrange i32 0, i32 2) to i32 (...)**), i32 (...)*** %353, align 8
  %354 = getelementptr inbounds %"cls.acjs::JsVariant", %"cls.acjs::JsVariant"* %ptr955, i32 0, i32 1
  store i32 1, i32* %354, align 8
  %ptr956 = alloca %"cls.acjs::JsVariant", align 8
  %355 = bitcast %"cls.acjs::JsVariant"* %ptr956 to i32 (...)***
  store i32 (...)** bitcast (i8** getelementptr inbounds ({ [4 x i8*] }, { [4 x i8*] }* @_ZTVN14altered_carbon2js9JsVariantE, i32 0, inrange i32 0, i32 2) to i32 (...)**), i32 (...)*** %355, align 8
  %356 = getelementptr inbounds %"cls.acjs::JsVariant", %"cls.acjs::JsVariant"* %ptr956, i32 0, i32 1
  store i32 1, i32* %356, align 8
  %ptr958 = alloca [2 x %"cls.acjs::JsVariant"*], align 16
  %ptr964 = alloca %"cls.acjs::JsVariant", align 8
  %357 = bitcast %"cls.acjs::JsVariant"* %ptr964 to i32 (...)***
  store i32 (...)** bitcast (i8** getelementptr inbounds ({ [4 x i8*] }, { [4 x i8*] }* @_ZTVN14altered_carbon2js9JsVariantE, i32 0, inrange i32 0, i32 2) to i32 (...)**), i32 (...)*** %357, align 8
  %358 = getelementptr inbounds %"cls.acjs::JsVariant", %"cls.acjs::JsVariant"* %ptr964, i32 0, i32 1
  store i32 1, i32* %358, align 8
  %ptr965 = alloca %"cls.acjs::JsVariant", align 8
  %359 = bitcast %"cls.acjs::JsVariant"* %ptr965 to i32 (...)***
  store i32 (...)** bitcast (i8** getelementptr inbounds ({ [4 x i8*] }, { [4 x i8*] }* @_ZTVN14altered_carbon2js9JsVariantE, i32 0, inrange i32 0, i32 2) to i32 (...)**), i32 (...)*** %359, align 8
  %360 = getelementptr inbounds %"cls.acjs::JsVariant", %"cls.acjs::JsVariant"* %ptr965, i32 0, i32 1
  store i32 1, i32* %360, align 8
  %ptr966 = alloca %"cls.acjs::JsVariant", align 8
  %361 = bitcast %"cls.acjs::JsVariant"* %ptr966 to i32 (...)***
  store i32 (...)** bitcast (i8** getelementptr inbounds ({ [4 x i8*] }, { [4 x i8*] }* @_ZTVN14altered_carbon2js9JsVariantE, i32 0, inrange i32 0, i32 2) to i32 (...)**), i32 (...)*** %361, align 8
  %362 = getelementptr inbounds %"cls.acjs::JsVariant", %"cls.acjs::JsVariant"* %ptr966, i32 0, i32 1
  store i32 1, i32* %362, align 8
  %ptr968 = alloca [2 x %"cls.acjs::JsVariant"*], align 16
  %ptr974 = alloca %"cls.acjs::JsVariant", align 8
  %363 = bitcast %"cls.acjs::JsVariant"* %ptr974 to i32 (...)***
  store i32 (...)** bitcast (i8** getelementptr inbounds ({ [4 x i8*] }, { [4 x i8*] }* @_ZTVN14altered_carbon2js9JsVariantE, i32 0, inrange i32 0, i32 2) to i32 (...)**), i32 (...)*** %363, align 8
  %364 = getelementptr inbounds %"cls.acjs::JsVariant", %"cls.acjs::JsVariant"* %ptr974, i32 0, i32 1
  store i32 1, i32* %364, align 8
  %ptr976 = alloca [2 x %"cls.acjs::JsVariant"*], align 16
  %ptr982 = alloca %"cls.acjs::JsVariant", align 8
  %365 = bitcast %"cls.acjs::JsVariant"* %ptr982 to i32 (...)***
  store i32 (...)** bitcast (i8** getelementptr inbounds ({ [4 x i8*] }, { [4 x i8*] }* @_ZTVN14altered_carbon2js9JsVariantE, i32 0, inrange i32 0, i32 2) to i32 (...)**), i32 (...)*** %365, align 8
  %366 = getelementptr inbounds %"cls.acjs::JsVariant", %"cls.acjs::JsVariant"* %ptr982, i32 0, i32 1
  store i32 1, i32* %366, align 8
  %ptr984 = alloca [1 x %"cls.acjs::JsVariant"*], align 16
  %ptr990 = alloca %"cls.acjs::JsVariant", align 8
  %367 = bitcast %"cls.acjs::JsVariant"* %ptr990 to i32 (...)***
  store i32 (...)** bitcast (i8** getelementptr inbounds ({ [4 x i8*] }, { [4 x i8*] }* @_ZTVN14altered_carbon2js9JsVariantE, i32 0, inrange i32 0, i32 2) to i32 (...)**), i32 (...)*** %367, align 8
  %368 = getelementptr inbounds %"cls.acjs::JsVariant", %"cls.acjs::JsVariant"* %ptr990, i32 0, i32 1
  store i32 1, i32* %368, align 8
  %ptr992 = alloca [1 x %"cls.acjs::JsVariant"*], align 16
  %ptr998 = alloca %"cls.acjs::JsVariant", align 8
  %369 = bitcast %"cls.acjs::JsVariant"* %ptr998 to i32 (...)***
  store i32 (...)** bitcast (i8** getelementptr inbounds ({ [4 x i8*] }, { [4 x i8*] }* @_ZTVN14altered_carbon2js9JsVariantE, i32 0, inrange i32 0, i32 2) to i32 (...)**), i32 (...)*** %369, align 8
  %370 = getelementptr inbounds %"cls.acjs::JsVariant", %"cls.acjs::JsVariant"* %ptr998, i32 0, i32 1
  store i32 1, i32* %370, align 8
  %ptr1000 = alloca [1 x %"cls.acjs::JsVariant"*], align 16
  %ptr1006 = alloca %"cls.acjs::JsVariant", align 8
  %371 = bitcast %"cls.acjs::JsVariant"* %ptr1006 to i32 (...)***
  store i32 (...)** bitcast (i8** getelementptr inbounds ({ [4 x i8*] }, { [4 x i8*] }* @_ZTVN14altered_carbon2js9JsVariantE, i32 0, inrange i32 0, i32 2) to i32 (...)**), i32 (...)*** %371, align 8
  %372 = getelementptr inbounds %"cls.acjs::JsVariant", %"cls.acjs::JsVariant"* %ptr1006, i32 0, i32 1
  store i32 1, i32* %372, align 8
  %ptr1008 = alloca [1 x %"cls.acjs::JsVariant"*], align 16
  %ptr1014 = alloca %"cls.acjs::JsVariant", align 8
  %373 = bitcast %"cls.acjs::JsVariant"* %ptr1014 to i32 (...)***
  store i32 (...)** bitcast (i8** getelementptr inbounds ({ [4 x i8*] }, { [4 x i8*] }* @_ZTVN14altered_carbon2js9JsVariantE, i32 0, inrange i32 0, i32 2) to i32 (...)**), i32 (...)*** %373, align 8
  %374 = getelementptr inbounds %"cls.acjs::JsVariant", %"cls.acjs::JsVariant"* %ptr1014, i32 0, i32 1
  store i32 1, i32* %374, align 8
  %ptr1015 = alloca %"cls.acjs::JsVariant", align 8
  %375 = bitcast %"cls.acjs::JsVariant"* %ptr1015 to i32 (...)***
  store i32 (...)** bitcast (i8** getelementptr inbounds ({ [4 x i8*] }, { [4 x i8*] }* @_ZTVN14altered_carbon2js9JsVariantE, i32 0, inrange i32 0, i32 2) to i32 (...)**), i32 (...)*** %375, align 8
  %376 = getelementptr inbounds %"cls.acjs::JsVariant", %"cls.acjs::JsVariant"* %ptr1015, i32 0, i32 1
  store i32 1, i32* %376, align 8
  %ptr1016 = alloca %"cls.acjs::JsVariant", align 8
  %377 = bitcast %"cls.acjs::JsVariant"* %ptr1016 to i32 (...)***
  store i32 (...)** bitcast (i8** getelementptr inbounds ({ [4 x i8*] }, { [4 x i8*] }* @_ZTVN14altered_carbon2js9JsVariantE, i32 0, inrange i32 0, i32 2) to i32 (...)**), i32 (...)*** %377, align 8
  %378 = getelementptr inbounds %"cls.acjs::JsVariant", %"cls.acjs::JsVariant"* %ptr1016, i32 0, i32 1
  store i32 1, i32* %378, align 8
  %ptr1018 = alloca [2 x %"cls.acjs::JsVariant"*], align 16
  %ptr1024 = alloca %"cls.acjs::JsVariant", align 8
  %379 = bitcast %"cls.acjs::JsVariant"* %ptr1024 to i32 (...)***
  store i32 (...)** bitcast (i8** getelementptr inbounds ({ [4 x i8*] }, { [4 x i8*] }* @_ZTVN14altered_carbon2js9JsVariantE, i32 0, inrange i32 0, i32 2) to i32 (...)**), i32 (...)*** %379, align 8
  %380 = getelementptr inbounds %"cls.acjs::JsVariant", %"cls.acjs::JsVariant"* %ptr1024, i32 0, i32 1
  store i32 1, i32* %380, align 8
  %ptr1025 = alloca %"cls.acjs::JsVariant", align 8
  %381 = bitcast %"cls.acjs::JsVariant"* %ptr1025 to i32 (...)***
  store i32 (...)** bitcast (i8** getelementptr inbounds ({ [4 x i8*] }, { [4 x i8*] }* @_ZTVN14altered_carbon2js9JsVariantE, i32 0, inrange i32 0, i32 2) to i32 (...)**), i32 (...)*** %381, align 8
  %382 = getelementptr inbounds %"cls.acjs::JsVariant", %"cls.acjs::JsVariant"* %ptr1025, i32 0, i32 1
  store i32 1, i32* %382, align 8
  %ptr1026 = alloca %"cls.acjs::JsVariant", align 8
  %383 = bitcast %"cls.acjs::JsVariant"* %ptr1026 to i32 (...)***
  store i32 (...)** bitcast (i8** getelementptr inbounds ({ [4 x i8*] }, { [4 x i8*] }* @_ZTVN14altered_carbon2js9JsVariantE, i32 0, inrange i32 0, i32 2) to i32 (...)**), i32 (...)*** %383, align 8
  %384 = getelementptr inbounds %"cls.acjs::JsVariant", %"cls.acjs::JsVariant"* %ptr1026, i32 0, i32 1
  store i32 1, i32* %384, align 8
  %ptr1028 = alloca [2 x %"cls.acjs::JsVariant"*], align 16
  %ptr1034 = alloca %"cls.acjs::JsVariant", align 8
  %385 = bitcast %"cls.acjs::JsVariant"* %ptr1034 to i32 (...)***
  store i32 (...)** bitcast (i8** getelementptr inbounds ({ [4 x i8*] }, { [4 x i8*] }* @_ZTVN14altered_carbon2js9JsVariantE, i32 0, inrange i32 0, i32 2) to i32 (...)**), i32 (...)*** %385, align 8
  %386 = getelementptr inbounds %"cls.acjs::JsVariant", %"cls.acjs::JsVariant"* %ptr1034, i32 0, i32 1
  store i32 1, i32* %386, align 8
  %ptr1036 = alloca [2 x %"cls.acjs::JsVariant"*], align 16
  %ptr1042 = alloca %"cls.acjs::JsVariant", align 8
  %387 = bitcast %"cls.acjs::JsVariant"* %ptr1042 to i32 (...)***
  store i32 (...)** bitcast (i8** getelementptr inbounds ({ [4 x i8*] }, { [4 x i8*] }* @_ZTVN14altered_carbon2js9JsVariantE, i32 0, inrange i32 0, i32 2) to i32 (...)**), i32 (...)*** %387, align 8
  %388 = getelementptr inbounds %"cls.acjs::JsVariant", %"cls.acjs::JsVariant"* %ptr1042, i32 0, i32 1
  store i32 1, i32* %388, align 8
  %ptr1044 = alloca [1 x %"cls.acjs::JsVariant"*], align 16
  %ptr1050 = alloca %"cls.acjs::JsVariant", align 8
  %389 = bitcast %"cls.acjs::JsVariant"* %ptr1050 to i32 (...)***
  store i32 (...)** bitcast (i8** getelementptr inbounds ({ [4 x i8*] }, { [4 x i8*] }* @_ZTVN14altered_carbon2js9JsVariantE, i32 0, inrange i32 0, i32 2) to i32 (...)**), i32 (...)*** %389, align 8
  %390 = getelementptr inbounds %"cls.acjs::JsVariant", %"cls.acjs::JsVariant"* %ptr1050, i32 0, i32 1
  store i32 1, i32* %390, align 8
  %ptr1052 = alloca [1 x %"cls.acjs::JsVariant"*], align 16
  %ptr1058 = alloca %"cls.acjs::JsVariant", align 8
  %391 = bitcast %"cls.acjs::JsVariant"* %ptr1058 to i32 (...)***
  store i32 (...)** bitcast (i8** getelementptr inbounds ({ [4 x i8*] }, { [4 x i8*] }* @_ZTVN14altered_carbon2js9JsVariantE, i32 0, inrange i32 0, i32 2) to i32 (...)**), i32 (...)*** %391, align 8
  %392 = getelementptr inbounds %"cls.acjs::JsVariant", %"cls.acjs::JsVariant"* %ptr1058, i32 0, i32 1
  store i32 1, i32* %392, align 8
  %ptr1060 = alloca [1 x %"cls.acjs::JsVariant"*], align 16
  %ptr1066 = alloca %"cls.acjs::JsVariant", align 8
  %393 = bitcast %"cls.acjs::JsVariant"* %ptr1066 to i32 (...)***
  store i32 (...)** bitcast (i8** getelementptr inbounds ({ [4 x i8*] }, { [4 x i8*] }* @_ZTVN14altered_carbon2js9JsVariantE, i32 0, inrange i32 0, i32 2) to i32 (...)**), i32 (...)*** %393, align 8
  %394 = getelementptr inbounds %"cls.acjs::JsVariant", %"cls.acjs::JsVariant"* %ptr1066, i32 0, i32 1
  store i32 1, i32* %394, align 8
  %ptr1068 = alloca [1 x %"cls.acjs::JsVariant"*], align 16
  %ptr1074 = alloca %"cls.acjs::JsVariant", align 8
  %395 = bitcast %"cls.acjs::JsVariant"* %ptr1074 to i32 (...)***
  store i32 (...)** bitcast (i8** getelementptr inbounds ({ [4 x i8*] }, { [4 x i8*] }* @_ZTVN14altered_carbon2js9JsVariantE, i32 0, inrange i32 0, i32 2) to i32 (...)**), i32 (...)*** %395, align 8
  %396 = getelementptr inbounds %"cls.acjs::JsVariant", %"cls.acjs::JsVariant"* %ptr1074, i32 0, i32 1
  store i32 1, i32* %396, align 8
  %ptr1075 = alloca %"cls.acjs::JsVariant", align 8
  %397 = bitcast %"cls.acjs::JsVariant"* %ptr1075 to i32 (...)***
  store i32 (...)** bitcast (i8** getelementptr inbounds ({ [4 x i8*] }, { [4 x i8*] }* @_ZTVN14altered_carbon2js9JsVariantE, i32 0, inrange i32 0, i32 2) to i32 (...)**), i32 (...)*** %397, align 8
  %398 = getelementptr inbounds %"cls.acjs::JsVariant", %"cls.acjs::JsVariant"* %ptr1075, i32 0, i32 1
  store i32 1, i32* %398, align 8
  %ptr1076 = alloca %"cls.acjs::JsVariant", align 8
  %399 = bitcast %"cls.acjs::JsVariant"* %ptr1076 to i32 (...)***
  store i32 (...)** bitcast (i8** getelementptr inbounds ({ [4 x i8*] }, { [4 x i8*] }* @_ZTVN14altered_carbon2js9JsVariantE, i32 0, inrange i32 0, i32 2) to i32 (...)**), i32 (...)*** %399, align 8
  %400 = getelementptr inbounds %"cls.acjs::JsVariant", %"cls.acjs::JsVariant"* %ptr1076, i32 0, i32 1
  store i32 1, i32* %400, align 8
  %ptr1078 = alloca [2 x %"cls.acjs::JsVariant"*], align 16
  %ptr1084 = alloca %"cls.acjs::JsVariant", align 8
  %401 = bitcast %"cls.acjs::JsVariant"* %ptr1084 to i32 (...)***
  store i32 (...)** bitcast (i8** getelementptr inbounds ({ [4 x i8*] }, { [4 x i8*] }* @_ZTVN14altered_carbon2js9JsVariantE, i32 0, inrange i32 0, i32 2) to i32 (...)**), i32 (...)*** %401, align 8
  %402 = getelementptr inbounds %"cls.acjs::JsVariant", %"cls.acjs::JsVariant"* %ptr1084, i32 0, i32 1
  store i32 1, i32* %402, align 8
  %ptr1085 = alloca %"cls.acjs::JsVariant", align 8
  %403 = bitcast %"cls.acjs::JsVariant"* %ptr1085 to i32 (...)***
  store i32 (...)** bitcast (i8** getelementptr inbounds ({ [4 x i8*] }, { [4 x i8*] }* @_ZTVN14altered_carbon2js9JsVariantE, i32 0, inrange i32 0, i32 2) to i32 (...)**), i32 (...)*** %403, align 8
  %404 = getelementptr inbounds %"cls.acjs::JsVariant", %"cls.acjs::JsVariant"* %ptr1085, i32 0, i32 1
  store i32 1, i32* %404, align 8
  %ptr1086 = alloca %"cls.acjs::JsVariant", align 8
  %405 = bitcast %"cls.acjs::JsVariant"* %ptr1086 to i32 (...)***
  store i32 (...)** bitcast (i8** getelementptr inbounds ({ [4 x i8*] }, { [4 x i8*] }* @_ZTVN14altered_carbon2js9JsVariantE, i32 0, inrange i32 0, i32 2) to i32 (...)**), i32 (...)*** %405, align 8
  %406 = getelementptr inbounds %"cls.acjs::JsVariant", %"cls.acjs::JsVariant"* %ptr1086, i32 0, i32 1
  store i32 1, i32* %406, align 8
  %ptr1088 = alloca [2 x %"cls.acjs::JsVariant"*], align 16
  %ptr1094 = alloca %"cls.acjs::JsVariant", align 8
  %407 = bitcast %"cls.acjs::JsVariant"* %ptr1094 to i32 (...)***
  store i32 (...)** bitcast (i8** getelementptr inbounds ({ [4 x i8*] }, { [4 x i8*] }* @_ZTVN14altered_carbon2js9JsVariantE, i32 0, inrange i32 0, i32 2) to i32 (...)**), i32 (...)*** %407, align 8
  %408 = getelementptr inbounds %"cls.acjs::JsVariant", %"cls.acjs::JsVariant"* %ptr1094, i32 0, i32 1
  store i32 1, i32* %408, align 8
  %ptr1096 = alloca [2 x %"cls.acjs::JsVariant"*], align 16
  %ptr1102 = alloca %"cls.acjs::JsVariant", align 8
  %409 = bitcast %"cls.acjs::JsVariant"* %ptr1102 to i32 (...)***
  store i32 (...)** bitcast (i8** getelementptr inbounds ({ [4 x i8*] }, { [4 x i8*] }* @_ZTVN14altered_carbon2js9JsVariantE, i32 0, inrange i32 0, i32 2) to i32 (...)**), i32 (...)*** %409, align 8
  %410 = getelementptr inbounds %"cls.acjs::JsVariant", %"cls.acjs::JsVariant"* %ptr1102, i32 0, i32 1
  store i32 1, i32* %410, align 8
  %ptr1104 = alloca [1 x %"cls.acjs::JsVariant"*], align 16
  %ptr1110 = alloca %"cls.acjs::JsVariant", align 8
  %411 = bitcast %"cls.acjs::JsVariant"* %ptr1110 to i32 (...)***
  store i32 (...)** bitcast (i8** getelementptr inbounds ({ [4 x i8*] }, { [4 x i8*] }* @_ZTVN14altered_carbon2js9JsVariantE, i32 0, inrange i32 0, i32 2) to i32 (...)**), i32 (...)*** %411, align 8
  %412 = getelementptr inbounds %"cls.acjs::JsVariant", %"cls.acjs::JsVariant"* %ptr1110, i32 0, i32 1
  store i32 1, i32* %412, align 8
  %ptr1112 = alloca [1 x %"cls.acjs::JsVariant"*], align 16
  %ptr1118 = alloca %"cls.acjs::JsVariant", align 8
  %413 = bitcast %"cls.acjs::JsVariant"* %ptr1118 to i32 (...)***
  store i32 (...)** bitcast (i8** getelementptr inbounds ({ [4 x i8*] }, { [4 x i8*] }* @_ZTVN14altered_carbon2js9JsVariantE, i32 0, inrange i32 0, i32 2) to i32 (...)**), i32 (...)*** %413, align 8
  %414 = getelementptr inbounds %"cls.acjs::JsVariant", %"cls.acjs::JsVariant"* %ptr1118, i32 0, i32 1
  store i32 1, i32* %414, align 8
  %ptr1120 = alloca [1 x %"cls.acjs::JsVariant"*], align 16
  %ptr1126 = alloca %"cls.acjs::JsVariant", align 8
  %415 = bitcast %"cls.acjs::JsVariant"* %ptr1126 to i32 (...)***
  store i32 (...)** bitcast (i8** getelementptr inbounds ({ [4 x i8*] }, { [4 x i8*] }* @_ZTVN14altered_carbon2js9JsVariantE, i32 0, inrange i32 0, i32 2) to i32 (...)**), i32 (...)*** %415, align 8
  %416 = getelementptr inbounds %"cls.acjs::JsVariant", %"cls.acjs::JsVariant"* %ptr1126, i32 0, i32 1
  store i32 1, i32* %416, align 8
  %ptr1128 = alloca [1 x %"cls.acjs::JsVariant"*], align 16
  %ptr1134 = alloca %"cls.acjs::JsVariant", align 8
  %417 = bitcast %"cls.acjs::JsVariant"* %ptr1134 to i32 (...)***
  store i32 (...)** bitcast (i8** getelementptr inbounds ({ [4 x i8*] }, { [4 x i8*] }* @_ZTVN14altered_carbon2js9JsVariantE, i32 0, inrange i32 0, i32 2) to i32 (...)**), i32 (...)*** %417, align 8
  %418 = getelementptr inbounds %"cls.acjs::JsVariant", %"cls.acjs::JsVariant"* %ptr1134, i32 0, i32 1
  store i32 1, i32* %418, align 8
  %ptr1135 = alloca %"cls.acjs::JsVariant", align 8
  %419 = bitcast %"cls.acjs::JsVariant"* %ptr1135 to i32 (...)***
  store i32 (...)** bitcast (i8** getelementptr inbounds ({ [4 x i8*] }, { [4 x i8*] }* @_ZTVN14altered_carbon2js9JsVariantE, i32 0, inrange i32 0, i32 2) to i32 (...)**), i32 (...)*** %419, align 8
  %420 = getelementptr inbounds %"cls.acjs::JsVariant", %"cls.acjs::JsVariant"* %ptr1135, i32 0, i32 1
  store i32 1, i32* %420, align 8
  %ptr1136 = alloca %"cls.acjs::JsVariant", align 8
  %421 = bitcast %"cls.acjs::JsVariant"* %ptr1136 to i32 (...)***
  store i32 (...)** bitcast (i8** getelementptr inbounds ({ [4 x i8*] }, { [4 x i8*] }* @_ZTVN14altered_carbon2js9JsVariantE, i32 0, inrange i32 0, i32 2) to i32 (...)**), i32 (...)*** %421, align 8
  %422 = getelementptr inbounds %"cls.acjs::JsVariant", %"cls.acjs::JsVariant"* %ptr1136, i32 0, i32 1
  store i32 1, i32* %422, align 8
  %ptr1138 = alloca [2 x %"cls.acjs::JsVariant"*], align 16
  %ptr1144 = alloca %"cls.acjs::JsVariant", align 8
  %423 = bitcast %"cls.acjs::JsVariant"* %ptr1144 to i32 (...)***
  store i32 (...)** bitcast (i8** getelementptr inbounds ({ [4 x i8*] }, { [4 x i8*] }* @_ZTVN14altered_carbon2js9JsVariantE, i32 0, inrange i32 0, i32 2) to i32 (...)**), i32 (...)*** %423, align 8
  %424 = getelementptr inbounds %"cls.acjs::JsVariant", %"cls.acjs::JsVariant"* %ptr1144, i32 0, i32 1
  store i32 1, i32* %424, align 8
  %ptr1145 = alloca %"cls.acjs::JsVariant", align 8
  %425 = bitcast %"cls.acjs::JsVariant"* %ptr1145 to i32 (...)***
  store i32 (...)** bitcast (i8** getelementptr inbounds ({ [4 x i8*] }, { [4 x i8*] }* @_ZTVN14altered_carbon2js9JsVariantE, i32 0, inrange i32 0, i32 2) to i32 (...)**), i32 (...)*** %425, align 8
  %426 = getelementptr inbounds %"cls.acjs::JsVariant", %"cls.acjs::JsVariant"* %ptr1145, i32 0, i32 1
  store i32 1, i32* %426, align 8
  %ptr1146 = alloca %"cls.acjs::JsVariant", align 8
  %427 = bitcast %"cls.acjs::JsVariant"* %ptr1146 to i32 (...)***
  store i32 (...)** bitcast (i8** getelementptr inbounds ({ [4 x i8*] }, { [4 x i8*] }* @_ZTVN14altered_carbon2js9JsVariantE, i32 0, inrange i32 0, i32 2) to i32 (...)**), i32 (...)*** %427, align 8
  %428 = getelementptr inbounds %"cls.acjs::JsVariant", %"cls.acjs::JsVariant"* %ptr1146, i32 0, i32 1
  store i32 1, i32* %428, align 8
  %ptr1148 = alloca [2 x %"cls.acjs::JsVariant"*], align 16
  %ptr1154 = alloca %"cls.acjs::JsVariant", align 8
  %429 = bitcast %"cls.acjs::JsVariant"* %ptr1154 to i32 (...)***
  store i32 (...)** bitcast (i8** getelementptr inbounds ({ [4 x i8*] }, { [4 x i8*] }* @_ZTVN14altered_carbon2js9JsVariantE, i32 0, inrange i32 0, i32 2) to i32 (...)**), i32 (...)*** %429, align 8
  %430 = getelementptr inbounds %"cls.acjs::JsVariant", %"cls.acjs::JsVariant"* %ptr1154, i32 0, i32 1
  store i32 1, i32* %430, align 8
  %ptr1156 = alloca [2 x %"cls.acjs::JsVariant"*], align 16
  %ptr1162 = alloca %"cls.acjs::JsVariant", align 8
  %431 = bitcast %"cls.acjs::JsVariant"* %ptr1162 to i32 (...)***
  store i32 (...)** bitcast (i8** getelementptr inbounds ({ [4 x i8*] }, { [4 x i8*] }* @_ZTVN14altered_carbon2js9JsVariantE, i32 0, inrange i32 0, i32 2) to i32 (...)**), i32 (...)*** %431, align 8
  %432 = getelementptr inbounds %"cls.acjs::JsVariant", %"cls.acjs::JsVariant"* %ptr1162, i32 0, i32 1
  store i32 1, i32* %432, align 8
  %ptr1164 = alloca [1 x %"cls.acjs::JsVariant"*], align 16
  %ptr1170 = alloca %"cls.acjs::JsVariant", align 8
  %433 = bitcast %"cls.acjs::JsVariant"* %ptr1170 to i32 (...)***
  store i32 (...)** bitcast (i8** getelementptr inbounds ({ [4 x i8*] }, { [4 x i8*] }* @_ZTVN14altered_carbon2js9JsVariantE, i32 0, inrange i32 0, i32 2) to i32 (...)**), i32 (...)*** %433, align 8
  %434 = getelementptr inbounds %"cls.acjs::JsVariant", %"cls.acjs::JsVariant"* %ptr1170, i32 0, i32 1
  store i32 1, i32* %434, align 8
  %ptr1172 = alloca [1 x %"cls.acjs::JsVariant"*], align 16
  %ptr1178 = alloca %"cls.acjs::JsVariant", align 8
  %435 = bitcast %"cls.acjs::JsVariant"* %ptr1178 to i32 (...)***
  store i32 (...)** bitcast (i8** getelementptr inbounds ({ [4 x i8*] }, { [4 x i8*] }* @_ZTVN14altered_carbon2js9JsVariantE, i32 0, inrange i32 0, i32 2) to i32 (...)**), i32 (...)*** %435, align 8
  %436 = getelementptr inbounds %"cls.acjs::JsVariant", %"cls.acjs::JsVariant"* %ptr1178, i32 0, i32 1
  store i32 1, i32* %436, align 8
  %ptr1180 = alloca [1 x %"cls.acjs::JsVariant"*], align 16
  %ptr1186 = alloca %"cls.acjs::JsVariant", align 8
  %437 = bitcast %"cls.acjs::JsVariant"* %ptr1186 to i32 (...)***
  store i32 (...)** bitcast (i8** getelementptr inbounds ({ [4 x i8*] }, { [4 x i8*] }* @_ZTVN14altered_carbon2js9JsVariantE, i32 0, inrange i32 0, i32 2) to i32 (...)**), i32 (...)*** %437, align 8
  %438 = getelementptr inbounds %"cls.acjs::JsVariant", %"cls.acjs::JsVariant"* %ptr1186, i32 0, i32 1
  store i32 1, i32* %438, align 8
  %ptr1188 = alloca [1 x %"cls.acjs::JsVariant"*], align 16
  %ptr1194 = alloca %"cls.acjs::JsVariant", align 8
  %439 = bitcast %"cls.acjs::JsVariant"* %ptr1194 to i32 (...)***
  store i32 (...)** bitcast (i8** getelementptr inbounds ({ [4 x i8*] }, { [4 x i8*] }* @_ZTVN14altered_carbon2js9JsVariantE, i32 0, inrange i32 0, i32 2) to i32 (...)**), i32 (...)*** %439, align 8
  %440 = getelementptr inbounds %"cls.acjs::JsVariant", %"cls.acjs::JsVariant"* %ptr1194, i32 0, i32 1
  store i32 1, i32* %440, align 8
  %ptr1195 = alloca %"cls.acjs::JsVariant", align 8
  %441 = bitcast %"cls.acjs::JsVariant"* %ptr1195 to i32 (...)***
  store i32 (...)** bitcast (i8** getelementptr inbounds ({ [4 x i8*] }, { [4 x i8*] }* @_ZTVN14altered_carbon2js9JsVariantE, i32 0, inrange i32 0, i32 2) to i32 (...)**), i32 (...)*** %441, align 8
  %442 = getelementptr inbounds %"cls.acjs::JsVariant", %"cls.acjs::JsVariant"* %ptr1195, i32 0, i32 1
  store i32 1, i32* %442, align 8
  %ptr1196 = alloca %"cls.acjs::JsVariant", align 8
  %443 = bitcast %"cls.acjs::JsVariant"* %ptr1196 to i32 (...)***
  store i32 (...)** bitcast (i8** getelementptr inbounds ({ [4 x i8*] }, { [4 x i8*] }* @_ZTVN14altered_carbon2js9JsVariantE, i32 0, inrange i32 0, i32 2) to i32 (...)**), i32 (...)*** %443, align 8
  %444 = getelementptr inbounds %"cls.acjs::JsVariant", %"cls.acjs::JsVariant"* %ptr1196, i32 0, i32 1
  store i32 1, i32* %444, align 8
  %ptr1198 = alloca [2 x %"cls.acjs::JsVariant"*], align 16
  %ptr1204 = alloca %"cls.acjs::JsVariant", align 8
  %445 = bitcast %"cls.acjs::JsVariant"* %ptr1204 to i32 (...)***
  store i32 (...)** bitcast (i8** getelementptr inbounds ({ [4 x i8*] }, { [4 x i8*] }* @_ZTVN14altered_carbon2js9JsVariantE, i32 0, inrange i32 0, i32 2) to i32 (...)**), i32 (...)*** %445, align 8
  %446 = getelementptr inbounds %"cls.acjs::JsVariant", %"cls.acjs::JsVariant"* %ptr1204, i32 0, i32 1
  store i32 1, i32* %446, align 8
  %ptr1205 = alloca %"cls.acjs::JsVariant", align 8
  %447 = bitcast %"cls.acjs::JsVariant"* %ptr1205 to i32 (...)***
  store i32 (...)** bitcast (i8** getelementptr inbounds ({ [4 x i8*] }, { [4 x i8*] }* @_ZTVN14altered_carbon2js9JsVariantE, i32 0, inrange i32 0, i32 2) to i32 (...)**), i32 (...)*** %447, align 8
  %448 = getelementptr inbounds %"cls.acjs::JsVariant", %"cls.acjs::JsVariant"* %ptr1205, i32 0, i32 1
  store i32 1, i32* %448, align 8
  %ptr1206 = alloca %"cls.acjs::JsVariant", align 8
  %449 = bitcast %"cls.acjs::JsVariant"* %ptr1206 to i32 (...)***
  store i32 (...)** bitcast (i8** getelementptr inbounds ({ [4 x i8*] }, { [4 x i8*] }* @_ZTVN14altered_carbon2js9JsVariantE, i32 0, inrange i32 0, i32 2) to i32 (...)**), i32 (...)*** %449, align 8
  %450 = getelementptr inbounds %"cls.acjs::JsVariant", %"cls.acjs::JsVariant"* %ptr1206, i32 0, i32 1
  store i32 1, i32* %450, align 8
  %ptr1208 = alloca [2 x %"cls.acjs::JsVariant"*], align 16
  %ptr1214 = alloca %"cls.acjs::JsVariant", align 8
  %451 = bitcast %"cls.acjs::JsVariant"* %ptr1214 to i32 (...)***
  store i32 (...)** bitcast (i8** getelementptr inbounds ({ [4 x i8*] }, { [4 x i8*] }* @_ZTVN14altered_carbon2js9JsVariantE, i32 0, inrange i32 0, i32 2) to i32 (...)**), i32 (...)*** %451, align 8
  %452 = getelementptr inbounds %"cls.acjs::JsVariant", %"cls.acjs::JsVariant"* %ptr1214, i32 0, i32 1
  store i32 1, i32* %452, align 8
  %ptr1216 = alloca [2 x %"cls.acjs::JsVariant"*], align 16
  %ptr1222 = alloca %"cls.acjs::JsVariant", align 8
  %453 = bitcast %"cls.acjs::JsVariant"* %ptr1222 to i32 (...)***
  store i32 (...)** bitcast (i8** getelementptr inbounds ({ [4 x i8*] }, { [4 x i8*] }* @_ZTVN14altered_carbon2js9JsVariantE, i32 0, inrange i32 0, i32 2) to i32 (...)**), i32 (...)*** %453, align 8
  %454 = getelementptr inbounds %"cls.acjs::JsVariant", %"cls.acjs::JsVariant"* %ptr1222, i32 0, i32 1
  store i32 1, i32* %454, align 8
  %ptr1224 = alloca [1 x %"cls.acjs::JsVariant"*], align 16
  %ptr1230 = alloca %"cls.acjs::JsVariant", align 8
  %455 = bitcast %"cls.acjs::JsVariant"* %ptr1230 to i32 (...)***
  store i32 (...)** bitcast (i8** getelementptr inbounds ({ [4 x i8*] }, { [4 x i8*] }* @_ZTVN14altered_carbon2js9JsVariantE, i32 0, inrange i32 0, i32 2) to i32 (...)**), i32 (...)*** %455, align 8
  %456 = getelementptr inbounds %"cls.acjs::JsVariant", %"cls.acjs::JsVariant"* %ptr1230, i32 0, i32 1
  store i32 1, i32* %456, align 8
  %ptr1232 = alloca [1 x %"cls.acjs::JsVariant"*], align 16
  %ptr1238 = alloca %"cls.acjs::JsVariant", align 8
  %457 = bitcast %"cls.acjs::JsVariant"* %ptr1238 to i32 (...)***
  store i32 (...)** bitcast (i8** getelementptr inbounds ({ [4 x i8*] }, { [4 x i8*] }* @_ZTVN14altered_carbon2js9JsVariantE, i32 0, inrange i32 0, i32 2) to i32 (...)**), i32 (...)*** %457, align 8
  %458 = getelementptr inbounds %"cls.acjs::JsVariant", %"cls.acjs::JsVariant"* %ptr1238, i32 0, i32 1
  store i32 1, i32* %458, align 8
  %ptr1240 = alloca [1 x %"cls.acjs::JsVariant"*], align 16
  %ptr1246 = alloca %"cls.acjs::JsVariant", align 8
  %459 = bitcast %"cls.acjs::JsVariant"* %ptr1246 to i32 (...)***
  store i32 (...)** bitcast (i8** getelementptr inbounds ({ [4 x i8*] }, { [4 x i8*] }* @_ZTVN14altered_carbon2js9JsVariantE, i32 0, inrange i32 0, i32 2) to i32 (...)**), i32 (...)*** %459, align 8
  %460 = getelementptr inbounds %"cls.acjs::JsVariant", %"cls.acjs::JsVariant"* %ptr1246, i32 0, i32 1
  store i32 1, i32* %460, align 8
  %ptr1248 = alloca [1 x %"cls.acjs::JsVariant"*], align 16
  %ptr1254 = alloca %"cls.acjs::JsVariant", align 8
  %461 = bitcast %"cls.acjs::JsVariant"* %ptr1254 to i32 (...)***
  store i32 (...)** bitcast (i8** getelementptr inbounds ({ [4 x i8*] }, { [4 x i8*] }* @_ZTVN14altered_carbon2js9JsVariantE, i32 0, inrange i32 0, i32 2) to i32 (...)**), i32 (...)*** %461, align 8
  %462 = getelementptr inbounds %"cls.acjs::JsVariant", %"cls.acjs::JsVariant"* %ptr1254, i32 0, i32 1
  store i32 1, i32* %462, align 8
  %ptr1255 = alloca %"cls.acjs::JsVariant", align 8
  %463 = bitcast %"cls.acjs::JsVariant"* %ptr1255 to i32 (...)***
  store i32 (...)** bitcast (i8** getelementptr inbounds ({ [4 x i8*] }, { [4 x i8*] }* @_ZTVN14altered_carbon2js9JsVariantE, i32 0, inrange i32 0, i32 2) to i32 (...)**), i32 (...)*** %463, align 8
  %464 = getelementptr inbounds %"cls.acjs::JsVariant", %"cls.acjs::JsVariant"* %ptr1255, i32 0, i32 1
  store i32 1, i32* %464, align 8
  %ptr1256 = alloca %"cls.acjs::JsVariant", align 8
  %465 = bitcast %"cls.acjs::JsVariant"* %ptr1256 to i32 (...)***
  store i32 (...)** bitcast (i8** getelementptr inbounds ({ [4 x i8*] }, { [4 x i8*] }* @_ZTVN14altered_carbon2js9JsVariantE, i32 0, inrange i32 0, i32 2) to i32 (...)**), i32 (...)*** %465, align 8
  %466 = getelementptr inbounds %"cls.acjs::JsVariant", %"cls.acjs::JsVariant"* %ptr1256, i32 0, i32 1
  store i32 1, i32* %466, align 8
  %ptr1258 = alloca [2 x %"cls.acjs::JsVariant"*], align 16
  %ptr1264 = alloca %"cls.acjs::JsVariant", align 8
  %467 = bitcast %"cls.acjs::JsVariant"* %ptr1264 to i32 (...)***
  store i32 (...)** bitcast (i8** getelementptr inbounds ({ [4 x i8*] }, { [4 x i8*] }* @_ZTVN14altered_carbon2js9JsVariantE, i32 0, inrange i32 0, i32 2) to i32 (...)**), i32 (...)*** %467, align 8
  %468 = getelementptr inbounds %"cls.acjs::JsVariant", %"cls.acjs::JsVariant"* %ptr1264, i32 0, i32 1
  store i32 1, i32* %468, align 8
  %ptr1265 = alloca %"cls.acjs::JsVariant", align 8
  %469 = bitcast %"cls.acjs::JsVariant"* %ptr1265 to i32 (...)***
  store i32 (...)** bitcast (i8** getelementptr inbounds ({ [4 x i8*] }, { [4 x i8*] }* @_ZTVN14altered_carbon2js9JsVariantE, i32 0, inrange i32 0, i32 2) to i32 (...)**), i32 (...)*** %469, align 8
  %470 = getelementptr inbounds %"cls.acjs::JsVariant", %"cls.acjs::JsVariant"* %ptr1265, i32 0, i32 1
  store i32 1, i32* %470, align 8
  %ptr1266 = alloca %"cls.acjs::JsVariant", align 8
  %471 = bitcast %"cls.acjs::JsVariant"* %ptr1266 to i32 (...)***
  store i32 (...)** bitcast (i8** getelementptr inbounds ({ [4 x i8*] }, { [4 x i8*] }* @_ZTVN14altered_carbon2js9JsVariantE, i32 0, inrange i32 0, i32 2) to i32 (...)**), i32 (...)*** %471, align 8
  %472 = getelementptr inbounds %"cls.acjs::JsVariant", %"cls.acjs::JsVariant"* %ptr1266, i32 0, i32 1
  store i32 1, i32* %472, align 8
  %ptr1268 = alloca [2 x %"cls.acjs::JsVariant"*], align 16
  %ptr1274 = alloca %"cls.acjs::JsVariant", align 8
  %473 = bitcast %"cls.acjs::JsVariant"* %ptr1274 to i32 (...)***
  store i32 (...)** bitcast (i8** getelementptr inbounds ({ [4 x i8*] }, { [4 x i8*] }* @_ZTVN14altered_carbon2js9JsVariantE, i32 0, inrange i32 0, i32 2) to i32 (...)**), i32 (...)*** %473, align 8
  %474 = getelementptr inbounds %"cls.acjs::JsVariant", %"cls.acjs::JsVariant"* %ptr1274, i32 0, i32 1
  store i32 1, i32* %474, align 8
  %ptr1276 = alloca [2 x %"cls.acjs::JsVariant"*], align 16
  %ptr1282 = alloca %"cls.acjs::JsVariant", align 8
  %475 = bitcast %"cls.acjs::JsVariant"* %ptr1282 to i32 (...)***
  store i32 (...)** bitcast (i8** getelementptr inbounds ({ [4 x i8*] }, { [4 x i8*] }* @_ZTVN14altered_carbon2js9JsVariantE, i32 0, inrange i32 0, i32 2) to i32 (...)**), i32 (...)*** %475, align 8
  %476 = getelementptr inbounds %"cls.acjs::JsVariant", %"cls.acjs::JsVariant"* %ptr1282, i32 0, i32 1
  store i32 1, i32* %476, align 8
  %ptr1284 = alloca [1 x %"cls.acjs::JsVariant"*], align 16
  %ptr1290 = alloca %"cls.acjs::JsVariant", align 8
  %477 = bitcast %"cls.acjs::JsVariant"* %ptr1290 to i32 (...)***
  store i32 (...)** bitcast (i8** getelementptr inbounds ({ [4 x i8*] }, { [4 x i8*] }* @_ZTVN14altered_carbon2js9JsVariantE, i32 0, inrange i32 0, i32 2) to i32 (...)**), i32 (...)*** %477, align 8
  %478 = getelementptr inbounds %"cls.acjs::JsVariant", %"cls.acjs::JsVariant"* %ptr1290, i32 0, i32 1
  store i32 1, i32* %478, align 8
  %ptr1292 = alloca [1 x %"cls.acjs::JsVariant"*], align 16
  %ptr1298 = alloca %"cls.acjs::JsVariant", align 8
  %479 = bitcast %"cls.acjs::JsVariant"* %ptr1298 to i32 (...)***
  store i32 (...)** bitcast (i8** getelementptr inbounds ({ [4 x i8*] }, { [4 x i8*] }* @_ZTVN14altered_carbon2js9JsVariantE, i32 0, inrange i32 0, i32 2) to i32 (...)**), i32 (...)*** %479, align 8
  %480 = getelementptr inbounds %"cls.acjs::JsVariant", %"cls.acjs::JsVariant"* %ptr1298, i32 0, i32 1
  store i32 1, i32* %480, align 8
  %ptr1300 = alloca [1 x %"cls.acjs::JsVariant"*], align 16
  %ptr1306 = alloca %"cls.acjs::JsVariant", align 8
  %481 = bitcast %"cls.acjs::JsVariant"* %ptr1306 to i32 (...)***
  store i32 (...)** bitcast (i8** getelementptr inbounds ({ [4 x i8*] }, { [4 x i8*] }* @_ZTVN14altered_carbon2js9JsVariantE, i32 0, inrange i32 0, i32 2) to i32 (...)**), i32 (...)*** %481, align 8
  %482 = getelementptr inbounds %"cls.acjs::JsVariant", %"cls.acjs::JsVariant"* %ptr1306, i32 0, i32 1
  store i32 1, i32* %482, align 8
  %ptr1308 = alloca [1 x %"cls.acjs::JsVariant"*], align 16
  %ptr1314 = alloca %"cls.acjs::JsVariant", align 8
  %483 = bitcast %"cls.acjs::JsVariant"* %ptr1314 to i32 (...)***
  store i32 (...)** bitcast (i8** getelementptr inbounds ({ [4 x i8*] }, { [4 x i8*] }* @_ZTVN14altered_carbon2js9JsVariantE, i32 0, inrange i32 0, i32 2) to i32 (...)**), i32 (...)*** %483, align 8
  %484 = getelementptr inbounds %"cls.acjs::JsVariant", %"cls.acjs::JsVariant"* %ptr1314, i32 0, i32 1
  store i32 1, i32* %484, align 8
  %ptr1315 = alloca %"cls.acjs::JsVariant", align 8
  %485 = bitcast %"cls.acjs::JsVariant"* %ptr1315 to i32 (...)***
  store i32 (...)** bitcast (i8** getelementptr inbounds ({ [4 x i8*] }, { [4 x i8*] }* @_ZTVN14altered_carbon2js9JsVariantE, i32 0, inrange i32 0, i32 2) to i32 (...)**), i32 (...)*** %485, align 8
  %486 = getelementptr inbounds %"cls.acjs::JsVariant", %"cls.acjs::JsVariant"* %ptr1315, i32 0, i32 1
  store i32 1, i32* %486, align 8
  %ptr1316 = alloca %"cls.acjs::JsVariant", align 8
  %487 = bitcast %"cls.acjs::JsVariant"* %ptr1316 to i32 (...)***
  store i32 (...)** bitcast (i8** getelementptr inbounds ({ [4 x i8*] }, { [4 x i8*] }* @_ZTVN14altered_carbon2js9JsVariantE, i32 0, inrange i32 0, i32 2) to i32 (...)**), i32 (...)*** %487, align 8
  %488 = getelementptr inbounds %"cls.acjs::JsVariant", %"cls.acjs::JsVariant"* %ptr1316, i32 0, i32 1
  store i32 1, i32* %488, align 8
  %ptr1318 = alloca [2 x %"cls.acjs::JsVariant"*], align 16
  %ptr1324 = alloca %"cls.acjs::JsVariant", align 8
  %489 = bitcast %"cls.acjs::JsVariant"* %ptr1324 to i32 (...)***
  store i32 (...)** bitcast (i8** getelementptr inbounds ({ [4 x i8*] }, { [4 x i8*] }* @_ZTVN14altered_carbon2js9JsVariantE, i32 0, inrange i32 0, i32 2) to i32 (...)**), i32 (...)*** %489, align 8
  %490 = getelementptr inbounds %"cls.acjs::JsVariant", %"cls.acjs::JsVariant"* %ptr1324, i32 0, i32 1
  store i32 1, i32* %490, align 8
  %ptr1325 = alloca %"cls.acjs::JsVariant", align 8
  %491 = bitcast %"cls.acjs::JsVariant"* %ptr1325 to i32 (...)***
  store i32 (...)** bitcast (i8** getelementptr inbounds ({ [4 x i8*] }, { [4 x i8*] }* @_ZTVN14altered_carbon2js9JsVariantE, i32 0, inrange i32 0, i32 2) to i32 (...)**), i32 (...)*** %491, align 8
  %492 = getelementptr inbounds %"cls.acjs::JsVariant", %"cls.acjs::JsVariant"* %ptr1325, i32 0, i32 1
  store i32 1, i32* %492, align 8
  %ptr1326 = alloca %"cls.acjs::JsVariant", align 8
  %493 = bitcast %"cls.acjs::JsVariant"* %ptr1326 to i32 (...)***
  store i32 (...)** bitcast (i8** getelementptr inbounds ({ [4 x i8*] }, { [4 x i8*] }* @_ZTVN14altered_carbon2js9JsVariantE, i32 0, inrange i32 0, i32 2) to i32 (...)**), i32 (...)*** %493, align 8
  %494 = getelementptr inbounds %"cls.acjs::JsVariant", %"cls.acjs::JsVariant"* %ptr1326, i32 0, i32 1
  store i32 1, i32* %494, align 8
  %ptr1328 = alloca [2 x %"cls.acjs::JsVariant"*], align 16
  %ptr1334 = alloca %"cls.acjs::JsVariant", align 8
  %495 = bitcast %"cls.acjs::JsVariant"* %ptr1334 to i32 (...)***
  store i32 (...)** bitcast (i8** getelementptr inbounds ({ [4 x i8*] }, { [4 x i8*] }* @_ZTVN14altered_carbon2js9JsVariantE, i32 0, inrange i32 0, i32 2) to i32 (...)**), i32 (...)*** %495, align 8
  %496 = getelementptr inbounds %"cls.acjs::JsVariant", %"cls.acjs::JsVariant"* %ptr1334, i32 0, i32 1
  store i32 1, i32* %496, align 8
  %ptr1336 = alloca [2 x %"cls.acjs::JsVariant"*], align 16
  %ptr1342 = alloca %"cls.acjs::JsVariant", align 8
  %497 = bitcast %"cls.acjs::JsVariant"* %ptr1342 to i32 (...)***
  store i32 (...)** bitcast (i8** getelementptr inbounds ({ [4 x i8*] }, { [4 x i8*] }* @_ZTVN14altered_carbon2js9JsVariantE, i32 0, inrange i32 0, i32 2) to i32 (...)**), i32 (...)*** %497, align 8
  %498 = getelementptr inbounds %"cls.acjs::JsVariant", %"cls.acjs::JsVariant"* %ptr1342, i32 0, i32 1
  store i32 1, i32* %498, align 8
  %ptr1344 = alloca [1 x %"cls.acjs::JsVariant"*], align 16
  %ptr1350 = alloca %"cls.acjs::JsVariant", align 8
  %499 = bitcast %"cls.acjs::JsVariant"* %ptr1350 to i32 (...)***
  store i32 (...)** bitcast (i8** getelementptr inbounds ({ [4 x i8*] }, { [4 x i8*] }* @_ZTVN14altered_carbon2js9JsVariantE, i32 0, inrange i32 0, i32 2) to i32 (...)**), i32 (...)*** %499, align 8
  %500 = getelementptr inbounds %"cls.acjs::JsVariant", %"cls.acjs::JsVariant"* %ptr1350, i32 0, i32 1
  store i32 1, i32* %500, align 8
  %ptr1352 = alloca [1 x %"cls.acjs::JsVariant"*], align 16
  %ptr1358 = alloca %"cls.acjs::JsVariant", align 8
  %501 = bitcast %"cls.acjs::JsVariant"* %ptr1358 to i32 (...)***
  store i32 (...)** bitcast (i8** getelementptr inbounds ({ [4 x i8*] }, { [4 x i8*] }* @_ZTVN14altered_carbon2js9JsVariantE, i32 0, inrange i32 0, i32 2) to i32 (...)**), i32 (...)*** %501, align 8
  %502 = getelementptr inbounds %"cls.acjs::JsVariant", %"cls.acjs::JsVariant"* %ptr1358, i32 0, i32 1
  store i32 1, i32* %502, align 8
  %ptr1360 = alloca [1 x %"cls.acjs::JsVariant"*], align 16
  %ptr1366 = alloca %"cls.acjs::JsVariant", align 8
  %503 = bitcast %"cls.acjs::JsVariant"* %ptr1366 to i32 (...)***
  store i32 (...)** bitcast (i8** getelementptr inbounds ({ [4 x i8*] }, { [4 x i8*] }* @_ZTVN14altered_carbon2js9JsVariantE, i32 0, inrange i32 0, i32 2) to i32 (...)**), i32 (...)*** %503, align 8
  %504 = getelementptr inbounds %"cls.acjs::JsVariant", %"cls.acjs::JsVariant"* %ptr1366, i32 0, i32 1
  store i32 1, i32* %504, align 8
  %ptr1368 = alloca [1 x %"cls.acjs::JsVariant"*], align 16
  %ptr1374 = alloca %"cls.acjs::JsVariant", align 8
  %505 = bitcast %"cls.acjs::JsVariant"* %ptr1374 to i32 (...)***
  store i32 (...)** bitcast (i8** getelementptr inbounds ({ [4 x i8*] }, { [4 x i8*] }* @_ZTVN14altered_carbon2js9JsVariantE, i32 0, inrange i32 0, i32 2) to i32 (...)**), i32 (...)*** %505, align 8
  %506 = getelementptr inbounds %"cls.acjs::JsVariant", %"cls.acjs::JsVariant"* %ptr1374, i32 0, i32 1
  store i32 1, i32* %506, align 8
  %ptr1375 = alloca %"cls.acjs::JsVariant", align 8
  %507 = bitcast %"cls.acjs::JsVariant"* %ptr1375 to i32 (...)***
  store i32 (...)** bitcast (i8** getelementptr inbounds ({ [4 x i8*] }, { [4 x i8*] }* @_ZTVN14altered_carbon2js9JsVariantE, i32 0, inrange i32 0, i32 2) to i32 (...)**), i32 (...)*** %507, align 8
  %508 = getelementptr inbounds %"cls.acjs::JsVariant", %"cls.acjs::JsVariant"* %ptr1375, i32 0, i32 1
  store i32 1, i32* %508, align 8
  %ptr1376 = alloca %"cls.acjs::JsVariant", align 8
  %509 = bitcast %"cls.acjs::JsVariant"* %ptr1376 to i32 (...)***
  store i32 (...)** bitcast (i8** getelementptr inbounds ({ [4 x i8*] }, { [4 x i8*] }* @_ZTVN14altered_carbon2js9JsVariantE, i32 0, inrange i32 0, i32 2) to i32 (...)**), i32 (...)*** %509, align 8
  %510 = getelementptr inbounds %"cls.acjs::JsVariant", %"cls.acjs::JsVariant"* %ptr1376, i32 0, i32 1
  store i32 1, i32* %510, align 8
  %ptr1378 = alloca [2 x %"cls.acjs::JsVariant"*], align 16
  %ptr1384 = alloca %"cls.acjs::JsVariant", align 8
  %511 = bitcast %"cls.acjs::JsVariant"* %ptr1384 to i32 (...)***
  store i32 (...)** bitcast (i8** getelementptr inbounds ({ [4 x i8*] }, { [4 x i8*] }* @_ZTVN14altered_carbon2js9JsVariantE, i32 0, inrange i32 0, i32 2) to i32 (...)**), i32 (...)*** %511, align 8
  %512 = getelementptr inbounds %"cls.acjs::JsVariant", %"cls.acjs::JsVariant"* %ptr1384, i32 0, i32 1
  store i32 1, i32* %512, align 8
  %ptr1385 = alloca %"cls.acjs::JsVariant", align 8
  %513 = bitcast %"cls.acjs::JsVariant"* %ptr1385 to i32 (...)***
  store i32 (...)** bitcast (i8** getelementptr inbounds ({ [4 x i8*] }, { [4 x i8*] }* @_ZTVN14altered_carbon2js9JsVariantE, i32 0, inrange i32 0, i32 2) to i32 (...)**), i32 (...)*** %513, align 8
  %514 = getelementptr inbounds %"cls.acjs::JsVariant", %"cls.acjs::JsVariant"* %ptr1385, i32 0, i32 1
  store i32 1, i32* %514, align 8
  %ptr1386 = alloca %"cls.acjs::JsVariant", align 8
  %515 = bitcast %"cls.acjs::JsVariant"* %ptr1386 to i32 (...)***
  store i32 (...)** bitcast (i8** getelementptr inbounds ({ [4 x i8*] }, { [4 x i8*] }* @_ZTVN14altered_carbon2js9JsVariantE, i32 0, inrange i32 0, i32 2) to i32 (...)**), i32 (...)*** %515, align 8
  %516 = getelementptr inbounds %"cls.acjs::JsVariant", %"cls.acjs::JsVariant"* %ptr1386, i32 0, i32 1
  store i32 1, i32* %516, align 8
  %ptr1388 = alloca [2 x %"cls.acjs::JsVariant"*], align 16
  %ptr1394 = alloca %"cls.acjs::JsVariant", align 8
  %517 = bitcast %"cls.acjs::JsVariant"* %ptr1394 to i32 (...)***
  store i32 (...)** bitcast (i8** getelementptr inbounds ({ [4 x i8*] }, { [4 x i8*] }* @_ZTVN14altered_carbon2js9JsVariantE, i32 0, inrange i32 0, i32 2) to i32 (...)**), i32 (...)*** %517, align 8
  %518 = getelementptr inbounds %"cls.acjs::JsVariant", %"cls.acjs::JsVariant"* %ptr1394, i32 0, i32 1
  store i32 1, i32* %518, align 8
  %ptr1396 = alloca [2 x %"cls.acjs::JsVariant"*], align 16
  %ptr1402 = alloca %"cls.acjs::JsVariant", align 8
  %519 = bitcast %"cls.acjs::JsVariant"* %ptr1402 to i32 (...)***
  store i32 (...)** bitcast (i8** getelementptr inbounds ({ [4 x i8*] }, { [4 x i8*] }* @_ZTVN14altered_carbon2js9JsVariantE, i32 0, inrange i32 0, i32 2) to i32 (...)**), i32 (...)*** %519, align 8
  %520 = getelementptr inbounds %"cls.acjs::JsVariant", %"cls.acjs::JsVariant"* %ptr1402, i32 0, i32 1
  store i32 1, i32* %520, align 8
  %ptr1404 = alloca [1 x %"cls.acjs::JsVariant"*], align 16
  %ptr1410 = alloca %"cls.acjs::JsVariant", align 8
  %521 = bitcast %"cls.acjs::JsVariant"* %ptr1410 to i32 (...)***
  store i32 (...)** bitcast (i8** getelementptr inbounds ({ [4 x i8*] }, { [4 x i8*] }* @_ZTVN14altered_carbon2js9JsVariantE, i32 0, inrange i32 0, i32 2) to i32 (...)**), i32 (...)*** %521, align 8
  %522 = getelementptr inbounds %"cls.acjs::JsVariant", %"cls.acjs::JsVariant"* %ptr1410, i32 0, i32 1
  store i32 1, i32* %522, align 8
  %ptr1412 = alloca [1 x %"cls.acjs::JsVariant"*], align 16
  %ptr1418 = alloca %"cls.acjs::JsVariant", align 8
  %523 = bitcast %"cls.acjs::JsVariant"* %ptr1418 to i32 (...)***
  store i32 (...)** bitcast (i8** getelementptr inbounds ({ [4 x i8*] }, { [4 x i8*] }* @_ZTVN14altered_carbon2js9JsVariantE, i32 0, inrange i32 0, i32 2) to i32 (...)**), i32 (...)*** %523, align 8
  %524 = getelementptr inbounds %"cls.acjs::JsVariant", %"cls.acjs::JsVariant"* %ptr1418, i32 0, i32 1
  store i32 1, i32* %524, align 8
  %ptr1420 = alloca [1 x %"cls.acjs::JsVariant"*], align 16
  %ptr1426 = alloca %"cls.acjs::JsVariant", align 8
  %525 = bitcast %"cls.acjs::JsVariant"* %ptr1426 to i32 (...)***
  store i32 (...)** bitcast (i8** getelementptr inbounds ({ [4 x i8*] }, { [4 x i8*] }* @_ZTVN14altered_carbon2js9JsVariantE, i32 0, inrange i32 0, i32 2) to i32 (...)**), i32 (...)*** %525, align 8
  %526 = getelementptr inbounds %"cls.acjs::JsVariant", %"cls.acjs::JsVariant"* %ptr1426, i32 0, i32 1
  store i32 1, i32* %526, align 8
  %ptr1428 = alloca [1 x %"cls.acjs::JsVariant"*], align 16
  %ptr1434 = alloca %"cls.acjs::JsVariant", align 8
  %527 = bitcast %"cls.acjs::JsVariant"* %ptr1434 to i32 (...)***
  store i32 (...)** bitcast (i8** getelementptr inbounds ({ [4 x i8*] }, { [4 x i8*] }* @_ZTVN14altered_carbon2js9JsVariantE, i32 0, inrange i32 0, i32 2) to i32 (...)**), i32 (...)*** %527, align 8
  %528 = getelementptr inbounds %"cls.acjs::JsVariant", %"cls.acjs::JsVariant"* %ptr1434, i32 0, i32 1
  store i32 1, i32* %528, align 8
  %ptr1435 = alloca %"cls.acjs::JsVariant", align 8
  %529 = bitcast %"cls.acjs::JsVariant"* %ptr1435 to i32 (...)***
  store i32 (...)** bitcast (i8** getelementptr inbounds ({ [4 x i8*] }, { [4 x i8*] }* @_ZTVN14altered_carbon2js9JsVariantE, i32 0, inrange i32 0, i32 2) to i32 (...)**), i32 (...)*** %529, align 8
  %530 = getelementptr inbounds %"cls.acjs::JsVariant", %"cls.acjs::JsVariant"* %ptr1435, i32 0, i32 1
  store i32 1, i32* %530, align 8
  %ptr1436 = alloca %"cls.acjs::JsVariant", align 8
  %531 = bitcast %"cls.acjs::JsVariant"* %ptr1436 to i32 (...)***
  store i32 (...)** bitcast (i8** getelementptr inbounds ({ [4 x i8*] }, { [4 x i8*] }* @_ZTVN14altered_carbon2js9JsVariantE, i32 0, inrange i32 0, i32 2) to i32 (...)**), i32 (...)*** %531, align 8
  %532 = getelementptr inbounds %"cls.acjs::JsVariant", %"cls.acjs::JsVariant"* %ptr1436, i32 0, i32 1
  store i32 1, i32* %532, align 8
  %ptr1438 = alloca [2 x %"cls.acjs::JsVariant"*], align 16
  %ptr1444 = alloca %"cls.acjs::JsVariant", align 8
  %533 = bitcast %"cls.acjs::JsVariant"* %ptr1444 to i32 (...)***
  store i32 (...)** bitcast (i8** getelementptr inbounds ({ [4 x i8*] }, { [4 x i8*] }* @_ZTVN14altered_carbon2js9JsVariantE, i32 0, inrange i32 0, i32 2) to i32 (...)**), i32 (...)*** %533, align 8
  %534 = getelementptr inbounds %"cls.acjs::JsVariant", %"cls.acjs::JsVariant"* %ptr1444, i32 0, i32 1
  store i32 1, i32* %534, align 8
  %ptr1445 = alloca %"cls.acjs::JsVariant", align 8
  %535 = bitcast %"cls.acjs::JsVariant"* %ptr1445 to i32 (...)***
  store i32 (...)** bitcast (i8** getelementptr inbounds ({ [4 x i8*] }, { [4 x i8*] }* @_ZTVN14altered_carbon2js9JsVariantE, i32 0, inrange i32 0, i32 2) to i32 (...)**), i32 (...)*** %535, align 8
  %536 = getelementptr inbounds %"cls.acjs::JsVariant", %"cls.acjs::JsVariant"* %ptr1445, i32 0, i32 1
  store i32 1, i32* %536, align 8
  %ptr1446 = alloca %"cls.acjs::JsVariant", align 8
  %537 = bitcast %"cls.acjs::JsVariant"* %ptr1446 to i32 (...)***
  store i32 (...)** bitcast (i8** getelementptr inbounds ({ [4 x i8*] }, { [4 x i8*] }* @_ZTVN14altered_carbon2js9JsVariantE, i32 0, inrange i32 0, i32 2) to i32 (...)**), i32 (...)*** %537, align 8
  %538 = getelementptr inbounds %"cls.acjs::JsVariant", %"cls.acjs::JsVariant"* %ptr1446, i32 0, i32 1
  store i32 1, i32* %538, align 8
  %ptr1448 = alloca [2 x %"cls.acjs::JsVariant"*], align 16
  %ptr1454 = alloca %"cls.acjs::JsVariant", align 8
  %539 = bitcast %"cls.acjs::JsVariant"* %ptr1454 to i32 (...)***
  store i32 (...)** bitcast (i8** getelementptr inbounds ({ [4 x i8*] }, { [4 x i8*] }* @_ZTVN14altered_carbon2js9JsVariantE, i32 0, inrange i32 0, i32 2) to i32 (...)**), i32 (...)*** %539, align 8
  %540 = getelementptr inbounds %"cls.acjs::JsVariant", %"cls.acjs::JsVariant"* %ptr1454, i32 0, i32 1
  store i32 1, i32* %540, align 8
  %ptr1456 = alloca [2 x %"cls.acjs::JsVariant"*], align 16
  %ptr1462 = alloca %"cls.acjs::JsVariant", align 8
  %541 = bitcast %"cls.acjs::JsVariant"* %ptr1462 to i32 (...)***
  store i32 (...)** bitcast (i8** getelementptr inbounds ({ [4 x i8*] }, { [4 x i8*] }* @_ZTVN14altered_carbon2js9JsVariantE, i32 0, inrange i32 0, i32 2) to i32 (...)**), i32 (...)*** %541, align 8
  %542 = getelementptr inbounds %"cls.acjs::JsVariant", %"cls.acjs::JsVariant"* %ptr1462, i32 0, i32 1
  store i32 1, i32* %542, align 8
  %ptr1464 = alloca [1 x %"cls.acjs::JsVariant"*], align 16
  %ptr1470 = alloca %"cls.acjs::JsVariant", align 8
  %543 = bitcast %"cls.acjs::JsVariant"* %ptr1470 to i32 (...)***
  store i32 (...)** bitcast (i8** getelementptr inbounds ({ [4 x i8*] }, { [4 x i8*] }* @_ZTVN14altered_carbon2js9JsVariantE, i32 0, inrange i32 0, i32 2) to i32 (...)**), i32 (...)*** %543, align 8
  %544 = getelementptr inbounds %"cls.acjs::JsVariant", %"cls.acjs::JsVariant"* %ptr1470, i32 0, i32 1
  store i32 1, i32* %544, align 8
  %ptr1472 = alloca [1 x %"cls.acjs::JsVariant"*], align 16
  %ptr1478 = alloca %"cls.acjs::JsVariant", align 8
  %545 = bitcast %"cls.acjs::JsVariant"* %ptr1478 to i32 (...)***
  store i32 (...)** bitcast (i8** getelementptr inbounds ({ [4 x i8*] }, { [4 x i8*] }* @_ZTVN14altered_carbon2js9JsVariantE, i32 0, inrange i32 0, i32 2) to i32 (...)**), i32 (...)*** %545, align 8
  %546 = getelementptr inbounds %"cls.acjs::JsVariant", %"cls.acjs::JsVariant"* %ptr1478, i32 0, i32 1
  store i32 1, i32* %546, align 8
  %ptr1480 = alloca [1 x %"cls.acjs::JsVariant"*], align 16
  %ptr1486 = alloca %"cls.acjs::JsVariant", align 8
  %547 = bitcast %"cls.acjs::JsVariant"* %ptr1486 to i32 (...)***
  store i32 (...)** bitcast (i8** getelementptr inbounds ({ [4 x i8*] }, { [4 x i8*] }* @_ZTVN14altered_carbon2js9JsVariantE, i32 0, inrange i32 0, i32 2) to i32 (...)**), i32 (...)*** %547, align 8
  %548 = getelementptr inbounds %"cls.acjs::JsVariant", %"cls.acjs::JsVariant"* %ptr1486, i32 0, i32 1
  store i32 1, i32* %548, align 8
  %ptr1488 = alloca [1 x %"cls.acjs::JsVariant"*], align 16
  %ptr1494 = alloca %"cls.acjs::JsVariant", align 8
  %549 = bitcast %"cls.acjs::JsVariant"* %ptr1494 to i32 (...)***
  store i32 (...)** bitcast (i8** getelementptr inbounds ({ [4 x i8*] }, { [4 x i8*] }* @_ZTVN14altered_carbon2js9JsVariantE, i32 0, inrange i32 0, i32 2) to i32 (...)**), i32 (...)*** %549, align 8
  %550 = getelementptr inbounds %"cls.acjs::JsVariant", %"cls.acjs::JsVariant"* %ptr1494, i32 0, i32 1
  store i32 1, i32* %550, align 8
  %ptr1495 = alloca %"cls.acjs::JsVariant", align 8
  %551 = bitcast %"cls.acjs::JsVariant"* %ptr1495 to i32 (...)***
  store i32 (...)** bitcast (i8** getelementptr inbounds ({ [4 x i8*] }, { [4 x i8*] }* @_ZTVN14altered_carbon2js9JsVariantE, i32 0, inrange i32 0, i32 2) to i32 (...)**), i32 (...)*** %551, align 8
  %552 = getelementptr inbounds %"cls.acjs::JsVariant", %"cls.acjs::JsVariant"* %ptr1495, i32 0, i32 1
  store i32 1, i32* %552, align 8
  %ptr1496 = alloca %"cls.acjs::JsVariant", align 8
  %553 = bitcast %"cls.acjs::JsVariant"* %ptr1496 to i32 (...)***
  store i32 (...)** bitcast (i8** getelementptr inbounds ({ [4 x i8*] }, { [4 x i8*] }* @_ZTVN14altered_carbon2js9JsVariantE, i32 0, inrange i32 0, i32 2) to i32 (...)**), i32 (...)*** %553, align 8
  %554 = getelementptr inbounds %"cls.acjs::JsVariant", %"cls.acjs::JsVariant"* %ptr1496, i32 0, i32 1
  store i32 1, i32* %554, align 8
  %ptr1498 = alloca [2 x %"cls.acjs::JsVariant"*], align 16
  %ptr1504 = alloca %"cls.acjs::JsVariant", align 8
  %555 = bitcast %"cls.acjs::JsVariant"* %ptr1504 to i32 (...)***
  store i32 (...)** bitcast (i8** getelementptr inbounds ({ [4 x i8*] }, { [4 x i8*] }* @_ZTVN14altered_carbon2js9JsVariantE, i32 0, inrange i32 0, i32 2) to i32 (...)**), i32 (...)*** %555, align 8
  %556 = getelementptr inbounds %"cls.acjs::JsVariant", %"cls.acjs::JsVariant"* %ptr1504, i32 0, i32 1
  store i32 1, i32* %556, align 8
  %ptr1505 = alloca %"cls.acjs::JsVariant", align 8
  %557 = bitcast %"cls.acjs::JsVariant"* %ptr1505 to i32 (...)***
  store i32 (...)** bitcast (i8** getelementptr inbounds ({ [4 x i8*] }, { [4 x i8*] }* @_ZTVN14altered_carbon2js9JsVariantE, i32 0, inrange i32 0, i32 2) to i32 (...)**), i32 (...)*** %557, align 8
  %558 = getelementptr inbounds %"cls.acjs::JsVariant", %"cls.acjs::JsVariant"* %ptr1505, i32 0, i32 1
  store i32 1, i32* %558, align 8
  %ptr1506 = alloca %"cls.acjs::JsVariant", align 8
  %559 = bitcast %"cls.acjs::JsVariant"* %ptr1506 to i32 (...)***
  store i32 (...)** bitcast (i8** getelementptr inbounds ({ [4 x i8*] }, { [4 x i8*] }* @_ZTVN14altered_carbon2js9JsVariantE, i32 0, inrange i32 0, i32 2) to i32 (...)**), i32 (...)*** %559, align 8
  %560 = getelementptr inbounds %"cls.acjs::JsVariant", %"cls.acjs::JsVariant"* %ptr1506, i32 0, i32 1
  store i32 1, i32* %560, align 8
  %ptr1508 = alloca [2 x %"cls.acjs::JsVariant"*], align 16
  %ptr1514 = alloca %"cls.acjs::JsVariant", align 8
  %561 = bitcast %"cls.acjs::JsVariant"* %ptr1514 to i32 (...)***
  store i32 (...)** bitcast (i8** getelementptr inbounds ({ [4 x i8*] }, { [4 x i8*] }* @_ZTVN14altered_carbon2js9JsVariantE, i32 0, inrange i32 0, i32 2) to i32 (...)**), i32 (...)*** %561, align 8
  %562 = getelementptr inbounds %"cls.acjs::JsVariant", %"cls.acjs::JsVariant"* %ptr1514, i32 0, i32 1
  store i32 1, i32* %562, align 8
  %ptr1516 = alloca [2 x %"cls.acjs::JsVariant"*], align 16
  %ptr1522 = alloca %"cls.acjs::JsVariant", align 8
  %563 = bitcast %"cls.acjs::JsVariant"* %ptr1522 to i32 (...)***
  store i32 (...)** bitcast (i8** getelementptr inbounds ({ [4 x i8*] }, { [4 x i8*] }* @_ZTVN14altered_carbon2js9JsVariantE, i32 0, inrange i32 0, i32 2) to i32 (...)**), i32 (...)*** %563, align 8
  %564 = getelementptr inbounds %"cls.acjs::JsVariant", %"cls.acjs::JsVariant"* %ptr1522, i32 0, i32 1
  store i32 1, i32* %564, align 8
  %ptr1524 = alloca [1 x %"cls.acjs::JsVariant"*], align 16
  %ptr1530 = alloca %"cls.acjs::JsVariant", align 8
  %565 = bitcast %"cls.acjs::JsVariant"* %ptr1530 to i32 (...)***
  store i32 (...)** bitcast (i8** getelementptr inbounds ({ [4 x i8*] }, { [4 x i8*] }* @_ZTVN14altered_carbon2js9JsVariantE, i32 0, inrange i32 0, i32 2) to i32 (...)**), i32 (...)*** %565, align 8
  %566 = getelementptr inbounds %"cls.acjs::JsVariant", %"cls.acjs::JsVariant"* %ptr1530, i32 0, i32 1
  store i32 1, i32* %566, align 8
  %ptr1532 = alloca [1 x %"cls.acjs::JsVariant"*], align 16
  %ptr1538 = alloca %"cls.acjs::JsVariant", align 8
  %567 = bitcast %"cls.acjs::JsVariant"* %ptr1538 to i32 (...)***
  store i32 (...)** bitcast (i8** getelementptr inbounds ({ [4 x i8*] }, { [4 x i8*] }* @_ZTVN14altered_carbon2js9JsVariantE, i32 0, inrange i32 0, i32 2) to i32 (...)**), i32 (...)*** %567, align 8
  %568 = getelementptr inbounds %"cls.acjs::JsVariant", %"cls.acjs::JsVariant"* %ptr1538, i32 0, i32 1
  store i32 1, i32* %568, align 8
  %ptr1540 = alloca [1 x %"cls.acjs::JsVariant"*], align 16
  %ptr1546 = alloca %"cls.acjs::JsVariant", align 8
  %569 = bitcast %"cls.acjs::JsVariant"* %ptr1546 to i32 (...)***
  store i32 (...)** bitcast (i8** getelementptr inbounds ({ [4 x i8*] }, { [4 x i8*] }* @_ZTVN14altered_carbon2js9JsVariantE, i32 0, inrange i32 0, i32 2) to i32 (...)**), i32 (...)*** %569, align 8
  %570 = getelementptr inbounds %"cls.acjs::JsVariant", %"cls.acjs::JsVariant"* %ptr1546, i32 0, i32 1
  store i32 1, i32* %570, align 8
  %ptr1548 = alloca [1 x %"cls.acjs::JsVariant"*], align 16
  %ptr1554 = alloca %"cls.acjs::JsVariant", align 8
  %571 = bitcast %"cls.acjs::JsVariant"* %ptr1554 to i32 (...)***
  store i32 (...)** bitcast (i8** getelementptr inbounds ({ [4 x i8*] }, { [4 x i8*] }* @_ZTVN14altered_carbon2js9JsVariantE, i32 0, inrange i32 0, i32 2) to i32 (...)**), i32 (...)*** %571, align 8
  %572 = getelementptr inbounds %"cls.acjs::JsVariant", %"cls.acjs::JsVariant"* %ptr1554, i32 0, i32 1
  store i32 1, i32* %572, align 8
  %ptr1555 = alloca %"cls.acjs::JsVariant", align 8
  %573 = bitcast %"cls.acjs::JsVariant"* %ptr1555 to i32 (...)***
  store i32 (...)** bitcast (i8** getelementptr inbounds ({ [4 x i8*] }, { [4 x i8*] }* @_ZTVN14altered_carbon2js9JsVariantE, i32 0, inrange i32 0, i32 2) to i32 (...)**), i32 (...)*** %573, align 8
  %574 = getelementptr inbounds %"cls.acjs::JsVariant", %"cls.acjs::JsVariant"* %ptr1555, i32 0, i32 1
  store i32 1, i32* %574, align 8
  %ptr1556 = alloca %"cls.acjs::JsVariant", align 8
  %575 = bitcast %"cls.acjs::JsVariant"* %ptr1556 to i32 (...)***
  store i32 (...)** bitcast (i8** getelementptr inbounds ({ [4 x i8*] }, { [4 x i8*] }* @_ZTVN14altered_carbon2js9JsVariantE, i32 0, inrange i32 0, i32 2) to i32 (...)**), i32 (...)*** %575, align 8
  %576 = getelementptr inbounds %"cls.acjs::JsVariant", %"cls.acjs::JsVariant"* %ptr1556, i32 0, i32 1
  store i32 1, i32* %576, align 8
  %ptr1558 = alloca [2 x %"cls.acjs::JsVariant"*], align 16
  %ptr1564 = alloca %"cls.acjs::JsVariant", align 8
  %577 = bitcast %"cls.acjs::JsVariant"* %ptr1564 to i32 (...)***
  store i32 (...)** bitcast (i8** getelementptr inbounds ({ [4 x i8*] }, { [4 x i8*] }* @_ZTVN14altered_carbon2js9JsVariantE, i32 0, inrange i32 0, i32 2) to i32 (...)**), i32 (...)*** %577, align 8
  %578 = getelementptr inbounds %"cls.acjs::JsVariant", %"cls.acjs::JsVariant"* %ptr1564, i32 0, i32 1
  store i32 1, i32* %578, align 8
  %ptr1565 = alloca %"cls.acjs::JsVariant", align 8
  %579 = bitcast %"cls.acjs::JsVariant"* %ptr1565 to i32 (...)***
  store i32 (...)** bitcast (i8** getelementptr inbounds ({ [4 x i8*] }, { [4 x i8*] }* @_ZTVN14altered_carbon2js9JsVariantE, i32 0, inrange i32 0, i32 2) to i32 (...)**), i32 (...)*** %579, align 8
  %580 = getelementptr inbounds %"cls.acjs::JsVariant", %"cls.acjs::JsVariant"* %ptr1565, i32 0, i32 1
  store i32 1, i32* %580, align 8
  %ptr1566 = alloca %"cls.acjs::JsVariant", align 8
  %581 = bitcast %"cls.acjs::JsVariant"* %ptr1566 to i32 (...)***
  store i32 (...)** bitcast (i8** getelementptr inbounds ({ [4 x i8*] }, { [4 x i8*] }* @_ZTVN14altered_carbon2js9JsVariantE, i32 0, inrange i32 0, i32 2) to i32 (...)**), i32 (...)*** %581, align 8
  %582 = getelementptr inbounds %"cls.acjs::JsVariant", %"cls.acjs::JsVariant"* %ptr1566, i32 0, i32 1
  store i32 1, i32* %582, align 8
  %ptr1568 = alloca [2 x %"cls.acjs::JsVariant"*], align 16
  %ptr1574 = alloca %"cls.acjs::JsVariant", align 8
  %583 = bitcast %"cls.acjs::JsVariant"* %ptr1574 to i32 (...)***
  store i32 (...)** bitcast (i8** getelementptr inbounds ({ [4 x i8*] }, { [4 x i8*] }* @_ZTVN14altered_carbon2js9JsVariantE, i32 0, inrange i32 0, i32 2) to i32 (...)**), i32 (...)*** %583, align 8
  %584 = getelementptr inbounds %"cls.acjs::JsVariant", %"cls.acjs::JsVariant"* %ptr1574, i32 0, i32 1
  store i32 1, i32* %584, align 8
  %ptr1576 = alloca [2 x %"cls.acjs::JsVariant"*], align 16
  %ptr1582 = alloca %"cls.acjs::JsVariant", align 8
  %585 = bitcast %"cls.acjs::JsVariant"* %ptr1582 to i32 (...)***
  store i32 (...)** bitcast (i8** getelementptr inbounds ({ [4 x i8*] }, { [4 x i8*] }* @_ZTVN14altered_carbon2js9JsVariantE, i32 0, inrange i32 0, i32 2) to i32 (...)**), i32 (...)*** %585, align 8
  %586 = getelementptr inbounds %"cls.acjs::JsVariant", %"cls.acjs::JsVariant"* %ptr1582, i32 0, i32 1
  store i32 1, i32* %586, align 8
  %ptr1584 = alloca [1 x %"cls.acjs::JsVariant"*], align 16
  %ptr1590 = alloca %"cls.acjs::JsVariant", align 8
  %587 = bitcast %"cls.acjs::JsVariant"* %ptr1590 to i32 (...)***
  store i32 (...)** bitcast (i8** getelementptr inbounds ({ [4 x i8*] }, { [4 x i8*] }* @_ZTVN14altered_carbon2js9JsVariantE, i32 0, inrange i32 0, i32 2) to i32 (...)**), i32 (...)*** %587, align 8
  %588 = getelementptr inbounds %"cls.acjs::JsVariant", %"cls.acjs::JsVariant"* %ptr1590, i32 0, i32 1
  store i32 1, i32* %588, align 8
  %ptr1592 = alloca [1 x %"cls.acjs::JsVariant"*], align 16
  %ptr1598 = alloca %"cls.acjs::JsVariant", align 8
  %589 = bitcast %"cls.acjs::JsVariant"* %ptr1598 to i32 (...)***
  store i32 (...)** bitcast (i8** getelementptr inbounds ({ [4 x i8*] }, { [4 x i8*] }* @_ZTVN14altered_carbon2js9JsVariantE, i32 0, inrange i32 0, i32 2) to i32 (...)**), i32 (...)*** %589, align 8
  %590 = getelementptr inbounds %"cls.acjs::JsVariant", %"cls.acjs::JsVariant"* %ptr1598, i32 0, i32 1
  store i32 1, i32* %590, align 8
  %ptr1600 = alloca [1 x %"cls.acjs::JsVariant"*], align 16
  %ptr1606 = alloca %"cls.acjs::JsVariant", align 8
  %591 = bitcast %"cls.acjs::JsVariant"* %ptr1606 to i32 (...)***
  store i32 (...)** bitcast (i8** getelementptr inbounds ({ [4 x i8*] }, { [4 x i8*] }* @_ZTVN14altered_carbon2js9JsVariantE, i32 0, inrange i32 0, i32 2) to i32 (...)**), i32 (...)*** %591, align 8
  %592 = getelementptr inbounds %"cls.acjs::JsVariant", %"cls.acjs::JsVariant"* %ptr1606, i32 0, i32 1
  store i32 1, i32* %592, align 8
  %ptr1608 = alloca [1 x %"cls.acjs::JsVariant"*], align 16
  %ptr1614 = alloca %"cls.acjs::JsVariant", align 8
  %593 = bitcast %"cls.acjs::JsVariant"* %ptr1614 to i32 (...)***
  store i32 (...)** bitcast (i8** getelementptr inbounds ({ [4 x i8*] }, { [4 x i8*] }* @_ZTVN14altered_carbon2js9JsVariantE, i32 0, inrange i32 0, i32 2) to i32 (...)**), i32 (...)*** %593, align 8
  %594 = getelementptr inbounds %"cls.acjs::JsVariant", %"cls.acjs::JsVariant"* %ptr1614, i32 0, i32 1
  store i32 1, i32* %594, align 8
  %ptr1615 = alloca %"cls.acjs::JsVariant", align 8
  %595 = bitcast %"cls.acjs::JsVariant"* %ptr1615 to i32 (...)***
  store i32 (...)** bitcast (i8** getelementptr inbounds ({ [4 x i8*] }, { [4 x i8*] }* @_ZTVN14altered_carbon2js9JsVariantE, i32 0, inrange i32 0, i32 2) to i32 (...)**), i32 (...)*** %595, align 8
  %596 = getelementptr inbounds %"cls.acjs::JsVariant", %"cls.acjs::JsVariant"* %ptr1615, i32 0, i32 1
  store i32 1, i32* %596, align 8
  %ptr1616 = alloca %"cls.acjs::JsVariant", align 8
  %597 = bitcast %"cls.acjs::JsVariant"* %ptr1616 to i32 (...)***
  store i32 (...)** bitcast (i8** getelementptr inbounds ({ [4 x i8*] }, { [4 x i8*] }* @_ZTVN14altered_carbon2js9JsVariantE, i32 0, inrange i32 0, i32 2) to i32 (...)**), i32 (...)*** %597, align 8
  %598 = getelementptr inbounds %"cls.acjs::JsVariant", %"cls.acjs::JsVariant"* %ptr1616, i32 0, i32 1
  store i32 1, i32* %598, align 8
  %ptr1618 = alloca [2 x %"cls.acjs::JsVariant"*], align 16
  %ptr1624 = alloca %"cls.acjs::JsVariant", align 8
  %599 = bitcast %"cls.acjs::JsVariant"* %ptr1624 to i32 (...)***
  store i32 (...)** bitcast (i8** getelementptr inbounds ({ [4 x i8*] }, { [4 x i8*] }* @_ZTVN14altered_carbon2js9JsVariantE, i32 0, inrange i32 0, i32 2) to i32 (...)**), i32 (...)*** %599, align 8
  %600 = getelementptr inbounds %"cls.acjs::JsVariant", %"cls.acjs::JsVariant"* %ptr1624, i32 0, i32 1
  store i32 1, i32* %600, align 8
  %ptr1625 = alloca %"cls.acjs::JsVariant", align 8
  %601 = bitcast %"cls.acjs::JsVariant"* %ptr1625 to i32 (...)***
  store i32 (...)** bitcast (i8** getelementptr inbounds ({ [4 x i8*] }, { [4 x i8*] }* @_ZTVN14altered_carbon2js9JsVariantE, i32 0, inrange i32 0, i32 2) to i32 (...)**), i32 (...)*** %601, align 8
  %602 = getelementptr inbounds %"cls.acjs::JsVariant", %"cls.acjs::JsVariant"* %ptr1625, i32 0, i32 1
  store i32 1, i32* %602, align 8
  %ptr1626 = alloca %"cls.acjs::JsVariant", align 8
  %603 = bitcast %"cls.acjs::JsVariant"* %ptr1626 to i32 (...)***
  store i32 (...)** bitcast (i8** getelementptr inbounds ({ [4 x i8*] }, { [4 x i8*] }* @_ZTVN14altered_carbon2js9JsVariantE, i32 0, inrange i32 0, i32 2) to i32 (...)**), i32 (...)*** %603, align 8
  %604 = getelementptr inbounds %"cls.acjs::JsVariant", %"cls.acjs::JsVariant"* %ptr1626, i32 0, i32 1
  store i32 1, i32* %604, align 8
  %ptr1628 = alloca [2 x %"cls.acjs::JsVariant"*], align 16
  %ptr1634 = alloca %"cls.acjs::JsVariant", align 8
  %605 = bitcast %"cls.acjs::JsVariant"* %ptr1634 to i32 (...)***
  store i32 (...)** bitcast (i8** getelementptr inbounds ({ [4 x i8*] }, { [4 x i8*] }* @_ZTVN14altered_carbon2js9JsVariantE, i32 0, inrange i32 0, i32 2) to i32 (...)**), i32 (...)*** %605, align 8
  %606 = getelementptr inbounds %"cls.acjs::JsVariant", %"cls.acjs::JsVariant"* %ptr1634, i32 0, i32 1
  store i32 1, i32* %606, align 8
  %ptr1636 = alloca [2 x %"cls.acjs::JsVariant"*], align 16
  %ptr1642 = alloca %"cls.acjs::JsVariant", align 8
  %607 = bitcast %"cls.acjs::JsVariant"* %ptr1642 to i32 (...)***
  store i32 (...)** bitcast (i8** getelementptr inbounds ({ [4 x i8*] }, { [4 x i8*] }* @_ZTVN14altered_carbon2js9JsVariantE, i32 0, inrange i32 0, i32 2) to i32 (...)**), i32 (...)*** %607, align 8
  %608 = getelementptr inbounds %"cls.acjs::JsVariant", %"cls.acjs::JsVariant"* %ptr1642, i32 0, i32 1
  store i32 1, i32* %608, align 8
  %ptr1644 = alloca [1 x %"cls.acjs::JsVariant"*], align 16
  %ptr1650 = alloca %"cls.acjs::JsVariant", align 8
  %609 = bitcast %"cls.acjs::JsVariant"* %ptr1650 to i32 (...)***
  store i32 (...)** bitcast (i8** getelementptr inbounds ({ [4 x i8*] }, { [4 x i8*] }* @_ZTVN14altered_carbon2js9JsVariantE, i32 0, inrange i32 0, i32 2) to i32 (...)**), i32 (...)*** %609, align 8
  %610 = getelementptr inbounds %"cls.acjs::JsVariant", %"cls.acjs::JsVariant"* %ptr1650, i32 0, i32 1
  store i32 1, i32* %610, align 8
  %ptr1652 = alloca [1 x %"cls.acjs::JsVariant"*], align 16
  %ptr1658 = alloca %"cls.acjs::JsVariant", align 8
  %611 = bitcast %"cls.acjs::JsVariant"* %ptr1658 to i32 (...)***
  store i32 (...)** bitcast (i8** getelementptr inbounds ({ [4 x i8*] }, { [4 x i8*] }* @_ZTVN14altered_carbon2js9JsVariantE, i32 0, inrange i32 0, i32 2) to i32 (...)**), i32 (...)*** %611, align 8
  %612 = getelementptr inbounds %"cls.acjs::JsVariant", %"cls.acjs::JsVariant"* %ptr1658, i32 0, i32 1
  store i32 1, i32* %612, align 8
  %ptr1660 = alloca [1 x %"cls.acjs::JsVariant"*], align 16
  %ptr1666 = alloca %"cls.acjs::JsVariant", align 8
  %613 = bitcast %"cls.acjs::JsVariant"* %ptr1666 to i32 (...)***
  store i32 (...)** bitcast (i8** getelementptr inbounds ({ [4 x i8*] }, { [4 x i8*] }* @_ZTVN14altered_carbon2js9JsVariantE, i32 0, inrange i32 0, i32 2) to i32 (...)**), i32 (...)*** %613, align 8
  %614 = getelementptr inbounds %"cls.acjs::JsVariant", %"cls.acjs::JsVariant"* %ptr1666, i32 0, i32 1
  store i32 1, i32* %614, align 8
  %ptr1668 = alloca [1 x %"cls.acjs::JsVariant"*], align 16
  %ptr1674 = alloca %"cls.acjs::JsVariant", align 8
  %615 = bitcast %"cls.acjs::JsVariant"* %ptr1674 to i32 (...)***
  store i32 (...)** bitcast (i8** getelementptr inbounds ({ [4 x i8*] }, { [4 x i8*] }* @_ZTVN14altered_carbon2js9JsVariantE, i32 0, inrange i32 0, i32 2) to i32 (...)**), i32 (...)*** %615, align 8
  %616 = getelementptr inbounds %"cls.acjs::JsVariant", %"cls.acjs::JsVariant"* %ptr1674, i32 0, i32 1
  store i32 1, i32* %616, align 8
  %ptr1675 = alloca %"cls.acjs::JsVariant", align 8
  %617 = bitcast %"cls.acjs::JsVariant"* %ptr1675 to i32 (...)***
  store i32 (...)** bitcast (i8** getelementptr inbounds ({ [4 x i8*] }, { [4 x i8*] }* @_ZTVN14altered_carbon2js9JsVariantE, i32 0, inrange i32 0, i32 2) to i32 (...)**), i32 (...)*** %617, align 8
  %618 = getelementptr inbounds %"cls.acjs::JsVariant", %"cls.acjs::JsVariant"* %ptr1675, i32 0, i32 1
  store i32 1, i32* %618, align 8
  %ptr1676 = alloca %"cls.acjs::JsVariant", align 8
  %619 = bitcast %"cls.acjs::JsVariant"* %ptr1676 to i32 (...)***
  store i32 (...)** bitcast (i8** getelementptr inbounds ({ [4 x i8*] }, { [4 x i8*] }* @_ZTVN14altered_carbon2js9JsVariantE, i32 0, inrange i32 0, i32 2) to i32 (...)**), i32 (...)*** %619, align 8
  %620 = getelementptr inbounds %"cls.acjs::JsVariant", %"cls.acjs::JsVariant"* %ptr1676, i32 0, i32 1
  store i32 1, i32* %620, align 8
  %ptr1678 = alloca [2 x %"cls.acjs::JsVariant"*], align 16
  %ptr1684 = alloca %"cls.acjs::JsVariant", align 8
  %621 = bitcast %"cls.acjs::JsVariant"* %ptr1684 to i32 (...)***
  store i32 (...)** bitcast (i8** getelementptr inbounds ({ [4 x i8*] }, { [4 x i8*] }* @_ZTVN14altered_carbon2js9JsVariantE, i32 0, inrange i32 0, i32 2) to i32 (...)**), i32 (...)*** %621, align 8
  %622 = getelementptr inbounds %"cls.acjs::JsVariant", %"cls.acjs::JsVariant"* %ptr1684, i32 0, i32 1
  store i32 1, i32* %622, align 8
  %ptr1685 = alloca %"cls.acjs::JsVariant", align 8
  %623 = bitcast %"cls.acjs::JsVariant"* %ptr1685 to i32 (...)***
  store i32 (...)** bitcast (i8** getelementptr inbounds ({ [4 x i8*] }, { [4 x i8*] }* @_ZTVN14altered_carbon2js9JsVariantE, i32 0, inrange i32 0, i32 2) to i32 (...)**), i32 (...)*** %623, align 8
  %624 = getelementptr inbounds %"cls.acjs::JsVariant", %"cls.acjs::JsVariant"* %ptr1685, i32 0, i32 1
  store i32 1, i32* %624, align 8
  %ptr1686 = alloca %"cls.acjs::JsVariant", align 8
  %625 = bitcast %"cls.acjs::JsVariant"* %ptr1686 to i32 (...)***
  store i32 (...)** bitcast (i8** getelementptr inbounds ({ [4 x i8*] }, { [4 x i8*] }* @_ZTVN14altered_carbon2js9JsVariantE, i32 0, inrange i32 0, i32 2) to i32 (...)**), i32 (...)*** %625, align 8
  %626 = getelementptr inbounds %"cls.acjs::JsVariant", %"cls.acjs::JsVariant"* %ptr1686, i32 0, i32 1
  store i32 1, i32* %626, align 8
  %ptr1688 = alloca [2 x %"cls.acjs::JsVariant"*], align 16
  %ptr1694 = alloca %"cls.acjs::JsVariant", align 8
  %627 = bitcast %"cls.acjs::JsVariant"* %ptr1694 to i32 (...)***
  store i32 (...)** bitcast (i8** getelementptr inbounds ({ [4 x i8*] }, { [4 x i8*] }* @_ZTVN14altered_carbon2js9JsVariantE, i32 0, inrange i32 0, i32 2) to i32 (...)**), i32 (...)*** %627, align 8
  %628 = getelementptr inbounds %"cls.acjs::JsVariant", %"cls.acjs::JsVariant"* %ptr1694, i32 0, i32 1
  store i32 1, i32* %628, align 8
  %ptr1696 = alloca [2 x %"cls.acjs::JsVariant"*], align 16
  %ptr1702 = alloca %"cls.acjs::JsVariant", align 8
  %629 = bitcast %"cls.acjs::JsVariant"* %ptr1702 to i32 (...)***
  store i32 (...)** bitcast (i8** getelementptr inbounds ({ [4 x i8*] }, { [4 x i8*] }* @_ZTVN14altered_carbon2js9JsVariantE, i32 0, inrange i32 0, i32 2) to i32 (...)**), i32 (...)*** %629, align 8
  %630 = getelementptr inbounds %"cls.acjs::JsVariant", %"cls.acjs::JsVariant"* %ptr1702, i32 0, i32 1
  store i32 1, i32* %630, align 8
  %ptr1704 = alloca [1 x %"cls.acjs::JsVariant"*], align 16
  %ptr1710 = alloca %"cls.acjs::JsVariant", align 8
  %631 = bitcast %"cls.acjs::JsVariant"* %ptr1710 to i32 (...)***
  store i32 (...)** bitcast (i8** getelementptr inbounds ({ [4 x i8*] }, { [4 x i8*] }* @_ZTVN14altered_carbon2js9JsVariantE, i32 0, inrange i32 0, i32 2) to i32 (...)**), i32 (...)*** %631, align 8
  %632 = getelementptr inbounds %"cls.acjs::JsVariant", %"cls.acjs::JsVariant"* %ptr1710, i32 0, i32 1
  store i32 1, i32* %632, align 8
  %ptr1712 = alloca [1 x %"cls.acjs::JsVariant"*], align 16
  %ptr1718 = alloca %"cls.acjs::JsVariant", align 8
  %633 = bitcast %"cls.acjs::JsVariant"* %ptr1718 to i32 (...)***
  store i32 (...)** bitcast (i8** getelementptr inbounds ({ [4 x i8*] }, { [4 x i8*] }* @_ZTVN14altered_carbon2js9JsVariantE, i32 0, inrange i32 0, i32 2) to i32 (...)**), i32 (...)*** %633, align 8
  %634 = getelementptr inbounds %"cls.acjs::JsVariant", %"cls.acjs::JsVariant"* %ptr1718, i32 0, i32 1
  store i32 1, i32* %634, align 8
  %ptr1720 = alloca [1 x %"cls.acjs::JsVariant"*], align 16
  %ptr1726 = alloca %"cls.acjs::JsVariant", align 8
  %635 = bitcast %"cls.acjs::JsVariant"* %ptr1726 to i32 (...)***
  store i32 (...)** bitcast (i8** getelementptr inbounds ({ [4 x i8*] }, { [4 x i8*] }* @_ZTVN14altered_carbon2js9JsVariantE, i32 0, inrange i32 0, i32 2) to i32 (...)**), i32 (...)*** %635, align 8
  %636 = getelementptr inbounds %"cls.acjs::JsVariant", %"cls.acjs::JsVariant"* %ptr1726, i32 0, i32 1
  store i32 1, i32* %636, align 8
  %ptr1728 = alloca [1 x %"cls.acjs::JsVariant"*], align 16
  %ptr1734 = alloca %"cls.acjs::JsVariant", align 8
  %637 = bitcast %"cls.acjs::JsVariant"* %ptr1734 to i32 (...)***
  store i32 (...)** bitcast (i8** getelementptr inbounds ({ [4 x i8*] }, { [4 x i8*] }* @_ZTVN14altered_carbon2js9JsVariantE, i32 0, inrange i32 0, i32 2) to i32 (...)**), i32 (...)*** %637, align 8
  %638 = getelementptr inbounds %"cls.acjs::JsVariant", %"cls.acjs::JsVariant"* %ptr1734, i32 0, i32 1
  store i32 1, i32* %638, align 8
  %ptr1735 = alloca %"cls.acjs::JsVariant", align 8
  %639 = bitcast %"cls.acjs::JsVariant"* %ptr1735 to i32 (...)***
  store i32 (...)** bitcast (i8** getelementptr inbounds ({ [4 x i8*] }, { [4 x i8*] }* @_ZTVN14altered_carbon2js9JsVariantE, i32 0, inrange i32 0, i32 2) to i32 (...)**), i32 (...)*** %639, align 8
  %640 = getelementptr inbounds %"cls.acjs::JsVariant", %"cls.acjs::JsVariant"* %ptr1735, i32 0, i32 1
  store i32 1, i32* %640, align 8
  %ptr1736 = alloca %"cls.acjs::JsVariant", align 8
  %641 = bitcast %"cls.acjs::JsVariant"* %ptr1736 to i32 (...)***
  store i32 (...)** bitcast (i8** getelementptr inbounds ({ [4 x i8*] }, { [4 x i8*] }* @_ZTVN14altered_carbon2js9JsVariantE, i32 0, inrange i32 0, i32 2) to i32 (...)**), i32 (...)*** %641, align 8
  %642 = getelementptr inbounds %"cls.acjs::JsVariant", %"cls.acjs::JsVariant"* %ptr1736, i32 0, i32 1
  store i32 1, i32* %642, align 8
  %ptr1738 = alloca [2 x %"cls.acjs::JsVariant"*], align 16
  %ptr1744 = alloca %"cls.acjs::JsVariant", align 8
  %643 = bitcast %"cls.acjs::JsVariant"* %ptr1744 to i32 (...)***
  store i32 (...)** bitcast (i8** getelementptr inbounds ({ [4 x i8*] }, { [4 x i8*] }* @_ZTVN14altered_carbon2js9JsVariantE, i32 0, inrange i32 0, i32 2) to i32 (...)**), i32 (...)*** %643, align 8
  %644 = getelementptr inbounds %"cls.acjs::JsVariant", %"cls.acjs::JsVariant"* %ptr1744, i32 0, i32 1
  store i32 1, i32* %644, align 8
  %ptr1745 = alloca %"cls.acjs::JsVariant", align 8
  %645 = bitcast %"cls.acjs::JsVariant"* %ptr1745 to i32 (...)***
  store i32 (...)** bitcast (i8** getelementptr inbounds ({ [4 x i8*] }, { [4 x i8*] }* @_ZTVN14altered_carbon2js9JsVariantE, i32 0, inrange i32 0, i32 2) to i32 (...)**), i32 (...)*** %645, align 8
  %646 = getelementptr inbounds %"cls.acjs::JsVariant", %"cls.acjs::JsVariant"* %ptr1745, i32 0, i32 1
  store i32 1, i32* %646, align 8
  %ptr1746 = alloca %"cls.acjs::JsVariant", align 8
  %647 = bitcast %"cls.acjs::JsVariant"* %ptr1746 to i32 (...)***
  store i32 (...)** bitcast (i8** getelementptr inbounds ({ [4 x i8*] }, { [4 x i8*] }* @_ZTVN14altered_carbon2js9JsVariantE, i32 0, inrange i32 0, i32 2) to i32 (...)**), i32 (...)*** %647, align 8
  %648 = getelementptr inbounds %"cls.acjs::JsVariant", %"cls.acjs::JsVariant"* %ptr1746, i32 0, i32 1
  store i32 1, i32* %648, align 8
  %ptr1748 = alloca [2 x %"cls.acjs::JsVariant"*], align 16
  %ptr1754 = alloca %"cls.acjs::JsVariant", align 8
  %649 = bitcast %"cls.acjs::JsVariant"* %ptr1754 to i32 (...)***
  store i32 (...)** bitcast (i8** getelementptr inbounds ({ [4 x i8*] }, { [4 x i8*] }* @_ZTVN14altered_carbon2js9JsVariantE, i32 0, inrange i32 0, i32 2) to i32 (...)**), i32 (...)*** %649, align 8
  %650 = getelementptr inbounds %"cls.acjs::JsVariant", %"cls.acjs::JsVariant"* %ptr1754, i32 0, i32 1
  store i32 1, i32* %650, align 8
  %ptr1756 = alloca [2 x %"cls.acjs::JsVariant"*], align 16
  %ptr1762 = alloca %"cls.acjs::JsVariant", align 8
  %651 = bitcast %"cls.acjs::JsVariant"* %ptr1762 to i32 (...)***
  store i32 (...)** bitcast (i8** getelementptr inbounds ({ [4 x i8*] }, { [4 x i8*] }* @_ZTVN14altered_carbon2js9JsVariantE, i32 0, inrange i32 0, i32 2) to i32 (...)**), i32 (...)*** %651, align 8
  %652 = getelementptr inbounds %"cls.acjs::JsVariant", %"cls.acjs::JsVariant"* %ptr1762, i32 0, i32 1
  store i32 1, i32* %652, align 8
  %ptr1764 = alloca [1 x %"cls.acjs::JsVariant"*], align 16
  %ptr1770 = alloca %"cls.acjs::JsVariant", align 8
  %653 = bitcast %"cls.acjs::JsVariant"* %ptr1770 to i32 (...)***
  store i32 (...)** bitcast (i8** getelementptr inbounds ({ [4 x i8*] }, { [4 x i8*] }* @_ZTVN14altered_carbon2js9JsVariantE, i32 0, inrange i32 0, i32 2) to i32 (...)**), i32 (...)*** %653, align 8
  %654 = getelementptr inbounds %"cls.acjs::JsVariant", %"cls.acjs::JsVariant"* %ptr1770, i32 0, i32 1
  store i32 1, i32* %654, align 8
  %ptr1772 = alloca [1 x %"cls.acjs::JsVariant"*], align 16
  %ptr1778 = alloca %"cls.acjs::JsVariant", align 8
  %655 = bitcast %"cls.acjs::JsVariant"* %ptr1778 to i32 (...)***
  store i32 (...)** bitcast (i8** getelementptr inbounds ({ [4 x i8*] }, { [4 x i8*] }* @_ZTVN14altered_carbon2js9JsVariantE, i32 0, inrange i32 0, i32 2) to i32 (...)**), i32 (...)*** %655, align 8
  %656 = getelementptr inbounds %"cls.acjs::JsVariant", %"cls.acjs::JsVariant"* %ptr1778, i32 0, i32 1
  store i32 1, i32* %656, align 8
  %ptr1780 = alloca [1 x %"cls.acjs::JsVariant"*], align 16
  %ptr1786 = alloca %"cls.acjs::JsVariant", align 8
  %657 = bitcast %"cls.acjs::JsVariant"* %ptr1786 to i32 (...)***
  store i32 (...)** bitcast (i8** getelementptr inbounds ({ [4 x i8*] }, { [4 x i8*] }* @_ZTVN14altered_carbon2js9JsVariantE, i32 0, inrange i32 0, i32 2) to i32 (...)**), i32 (...)*** %657, align 8
  %658 = getelementptr inbounds %"cls.acjs::JsVariant", %"cls.acjs::JsVariant"* %ptr1786, i32 0, i32 1
  store i32 1, i32* %658, align 8
  %ptr1788 = alloca [1 x %"cls.acjs::JsVariant"*], align 16
  %ptr1794 = alloca %"cls.acjs::JsVariant", align 8
  %659 = bitcast %"cls.acjs::JsVariant"* %ptr1794 to i32 (...)***
  store i32 (...)** bitcast (i8** getelementptr inbounds ({ [4 x i8*] }, { [4 x i8*] }* @_ZTVN14altered_carbon2js9JsVariantE, i32 0, inrange i32 0, i32 2) to i32 (...)**), i32 (...)*** %659, align 8
  %660 = getelementptr inbounds %"cls.acjs::JsVariant", %"cls.acjs::JsVariant"* %ptr1794, i32 0, i32 1
  store i32 1, i32* %660, align 8
  %ptr1795 = alloca %"cls.acjs::JsVariant", align 8
  %661 = bitcast %"cls.acjs::JsVariant"* %ptr1795 to i32 (...)***
  store i32 (...)** bitcast (i8** getelementptr inbounds ({ [4 x i8*] }, { [4 x i8*] }* @_ZTVN14altered_carbon2js9JsVariantE, i32 0, inrange i32 0, i32 2) to i32 (...)**), i32 (...)*** %661, align 8
  %662 = getelementptr inbounds %"cls.acjs::JsVariant", %"cls.acjs::JsVariant"* %ptr1795, i32 0, i32 1
  store i32 1, i32* %662, align 8
  %ptr1796 = alloca %"cls.acjs::JsVariant", align 8
  %663 = bitcast %"cls.acjs::JsVariant"* %ptr1796 to i32 (...)***
  store i32 (...)** bitcast (i8** getelementptr inbounds ({ [4 x i8*] }, { [4 x i8*] }* @_ZTVN14altered_carbon2js9JsVariantE, i32 0, inrange i32 0, i32 2) to i32 (...)**), i32 (...)*** %663, align 8
  %664 = getelementptr inbounds %"cls.acjs::JsVariant", %"cls.acjs::JsVariant"* %ptr1796, i32 0, i32 1
  store i32 1, i32* %664, align 8
  %ptr1798 = alloca [2 x %"cls.acjs::JsVariant"*], align 16
  %ptr1804 = alloca %"cls.acjs::JsVariant", align 8
  %665 = bitcast %"cls.acjs::JsVariant"* %ptr1804 to i32 (...)***
  store i32 (...)** bitcast (i8** getelementptr inbounds ({ [4 x i8*] }, { [4 x i8*] }* @_ZTVN14altered_carbon2js9JsVariantE, i32 0, inrange i32 0, i32 2) to i32 (...)**), i32 (...)*** %665, align 8
  %666 = getelementptr inbounds %"cls.acjs::JsVariant", %"cls.acjs::JsVariant"* %ptr1804, i32 0, i32 1
  store i32 1, i32* %666, align 8
  %ptr1805 = alloca %"cls.acjs::JsVariant", align 8
  %667 = bitcast %"cls.acjs::JsVariant"* %ptr1805 to i32 (...)***
  store i32 (...)** bitcast (i8** getelementptr inbounds ({ [4 x i8*] }, { [4 x i8*] }* @_ZTVN14altered_carbon2js9JsVariantE, i32 0, inrange i32 0, i32 2) to i32 (...)**), i32 (...)*** %667, align 8
  %668 = getelementptr inbounds %"cls.acjs::JsVariant", %"cls.acjs::JsVariant"* %ptr1805, i32 0, i32 1
  store i32 1, i32* %668, align 8
  %ptr1806 = alloca %"cls.acjs::JsVariant", align 8
  %669 = bitcast %"cls.acjs::JsVariant"* %ptr1806 to i32 (...)***
  store i32 (...)** bitcast (i8** getelementptr inbounds ({ [4 x i8*] }, { [4 x i8*] }* @_ZTVN14altered_carbon2js9JsVariantE, i32 0, inrange i32 0, i32 2) to i32 (...)**), i32 (...)*** %669, align 8
  %670 = getelementptr inbounds %"cls.acjs::JsVariant", %"cls.acjs::JsVariant"* %ptr1806, i32 0, i32 1
  store i32 1, i32* %670, align 8
  %ptr1808 = alloca [2 x %"cls.acjs::JsVariant"*], align 16
  %ptr1814 = alloca %"cls.acjs::JsVariant", align 8
  %671 = bitcast %"cls.acjs::JsVariant"* %ptr1814 to i32 (...)***
  store i32 (...)** bitcast (i8** getelementptr inbounds ({ [4 x i8*] }, { [4 x i8*] }* @_ZTVN14altered_carbon2js9JsVariantE, i32 0, inrange i32 0, i32 2) to i32 (...)**), i32 (...)*** %671, align 8
  %672 = getelementptr inbounds %"cls.acjs::JsVariant", %"cls.acjs::JsVariant"* %ptr1814, i32 0, i32 1
  store i32 1, i32* %672, align 8
  %ptr1816 = alloca [2 x %"cls.acjs::JsVariant"*], align 16
  %ptr1822 = alloca %"cls.acjs::JsVariant", align 8
  %673 = bitcast %"cls.acjs::JsVariant"* %ptr1822 to i32 (...)***
  store i32 (...)** bitcast (i8** getelementptr inbounds ({ [4 x i8*] }, { [4 x i8*] }* @_ZTVN14altered_carbon2js9JsVariantE, i32 0, inrange i32 0, i32 2) to i32 (...)**), i32 (...)*** %673, align 8
  %674 = getelementptr inbounds %"cls.acjs::JsVariant", %"cls.acjs::JsVariant"* %ptr1822, i32 0, i32 1
  store i32 1, i32* %674, align 8
  %ptr1824 = alloca [1 x %"cls.acjs::JsVariant"*], align 16
  %ptr1830 = alloca %"cls.acjs::JsVariant", align 8
  %675 = bitcast %"cls.acjs::JsVariant"* %ptr1830 to i32 (...)***
  store i32 (...)** bitcast (i8** getelementptr inbounds ({ [4 x i8*] }, { [4 x i8*] }* @_ZTVN14altered_carbon2js9JsVariantE, i32 0, inrange i32 0, i32 2) to i32 (...)**), i32 (...)*** %675, align 8
  %676 = getelementptr inbounds %"cls.acjs::JsVariant", %"cls.acjs::JsVariant"* %ptr1830, i32 0, i32 1
  store i32 1, i32* %676, align 8
  %ptr1832 = alloca [1 x %"cls.acjs::JsVariant"*], align 16
  %ptr1838 = alloca %"cls.acjs::JsVariant", align 8
  %677 = bitcast %"cls.acjs::JsVariant"* %ptr1838 to i32 (...)***
  store i32 (...)** bitcast (i8** getelementptr inbounds ({ [4 x i8*] }, { [4 x i8*] }* @_ZTVN14altered_carbon2js9JsVariantE, i32 0, inrange i32 0, i32 2) to i32 (...)**), i32 (...)*** %677, align 8
  %678 = getelementptr inbounds %"cls.acjs::JsVariant", %"cls.acjs::JsVariant"* %ptr1838, i32 0, i32 1
  store i32 1, i32* %678, align 8
  %ptr1840 = alloca [1 x %"cls.acjs::JsVariant"*], align 16
  %ptr1846 = alloca %"cls.acjs::JsVariant", align 8
  %679 = bitcast %"cls.acjs::JsVariant"* %ptr1846 to i32 (...)***
  store i32 (...)** bitcast (i8** getelementptr inbounds ({ [4 x i8*] }, { [4 x i8*] }* @_ZTVN14altered_carbon2js9JsVariantE, i32 0, inrange i32 0, i32 2) to i32 (...)**), i32 (...)*** %679, align 8
  %680 = getelementptr inbounds %"cls.acjs::JsVariant", %"cls.acjs::JsVariant"* %ptr1846, i32 0, i32 1
  store i32 1, i32* %680, align 8
  %ptr1848 = alloca [1 x %"cls.acjs::JsVariant"*], align 16
  %ptr1854 = alloca %"cls.acjs::JsVariant", align 8
  %681 = bitcast %"cls.acjs::JsVariant"* %ptr1854 to i32 (...)***
  store i32 (...)** bitcast (i8** getelementptr inbounds ({ [4 x i8*] }, { [4 x i8*] }* @_ZTVN14altered_carbon2js9JsVariantE, i32 0, inrange i32 0, i32 2) to i32 (...)**), i32 (...)*** %681, align 8
  %682 = getelementptr inbounds %"cls.acjs::JsVariant", %"cls.acjs::JsVariant"* %ptr1854, i32 0, i32 1
  store i32 1, i32* %682, align 8
  %ptr1855 = alloca %"cls.acjs::JsVariant", align 8
  %683 = bitcast %"cls.acjs::JsVariant"* %ptr1855 to i32 (...)***
  store i32 (...)** bitcast (i8** getelementptr inbounds ({ [4 x i8*] }, { [4 x i8*] }* @_ZTVN14altered_carbon2js9JsVariantE, i32 0, inrange i32 0, i32 2) to i32 (...)**), i32 (...)*** %683, align 8
  %684 = getelementptr inbounds %"cls.acjs::JsVariant", %"cls.acjs::JsVariant"* %ptr1855, i32 0, i32 1
  store i32 1, i32* %684, align 8
  %ptr1856 = alloca %"cls.acjs::JsVariant", align 8
  %685 = bitcast %"cls.acjs::JsVariant"* %ptr1856 to i32 (...)***
  store i32 (...)** bitcast (i8** getelementptr inbounds ({ [4 x i8*] }, { [4 x i8*] }* @_ZTVN14altered_carbon2js9JsVariantE, i32 0, inrange i32 0, i32 2) to i32 (...)**), i32 (...)*** %685, align 8
  %686 = getelementptr inbounds %"cls.acjs::JsVariant", %"cls.acjs::JsVariant"* %ptr1856, i32 0, i32 1
  store i32 1, i32* %686, align 8
  %ptr1858 = alloca [2 x %"cls.acjs::JsVariant"*], align 16
  %ptr1864 = alloca %"cls.acjs::JsVariant", align 8
  %687 = bitcast %"cls.acjs::JsVariant"* %ptr1864 to i32 (...)***
  store i32 (...)** bitcast (i8** getelementptr inbounds ({ [4 x i8*] }, { [4 x i8*] }* @_ZTVN14altered_carbon2js9JsVariantE, i32 0, inrange i32 0, i32 2) to i32 (...)**), i32 (...)*** %687, align 8
  %688 = getelementptr inbounds %"cls.acjs::JsVariant", %"cls.acjs::JsVariant"* %ptr1864, i32 0, i32 1
  store i32 1, i32* %688, align 8
  %ptr1865 = alloca %"cls.acjs::JsVariant", align 8
  %689 = bitcast %"cls.acjs::JsVariant"* %ptr1865 to i32 (...)***
  store i32 (...)** bitcast (i8** getelementptr inbounds ({ [4 x i8*] }, { [4 x i8*] }* @_ZTVN14altered_carbon2js9JsVariantE, i32 0, inrange i32 0, i32 2) to i32 (...)**), i32 (...)*** %689, align 8
  %690 = getelementptr inbounds %"cls.acjs::JsVariant", %"cls.acjs::JsVariant"* %ptr1865, i32 0, i32 1
  store i32 1, i32* %690, align 8
  %ptr1866 = alloca %"cls.acjs::JsVariant", align 8
  %691 = bitcast %"cls.acjs::JsVariant"* %ptr1866 to i32 (...)***
  store i32 (...)** bitcast (i8** getelementptr inbounds ({ [4 x i8*] }, { [4 x i8*] }* @_ZTVN14altered_carbon2js9JsVariantE, i32 0, inrange i32 0, i32 2) to i32 (...)**), i32 (...)*** %691, align 8
  %692 = getelementptr inbounds %"cls.acjs::JsVariant", %"cls.acjs::JsVariant"* %ptr1866, i32 0, i32 1
  store i32 1, i32* %692, align 8
  %ptr1868 = alloca [2 x %"cls.acjs::JsVariant"*], align 16
  %ptr1874 = alloca %"cls.acjs::JsVariant", align 8
  %693 = bitcast %"cls.acjs::JsVariant"* %ptr1874 to i32 (...)***
  store i32 (...)** bitcast (i8** getelementptr inbounds ({ [4 x i8*] }, { [4 x i8*] }* @_ZTVN14altered_carbon2js9JsVariantE, i32 0, inrange i32 0, i32 2) to i32 (...)**), i32 (...)*** %693, align 8
  %694 = getelementptr inbounds %"cls.acjs::JsVariant", %"cls.acjs::JsVariant"* %ptr1874, i32 0, i32 1
  store i32 1, i32* %694, align 8
  %ptr1876 = alloca [2 x %"cls.acjs::JsVariant"*], align 16
  %ptr1882 = alloca %"cls.acjs::JsVariant", align 8
  %695 = bitcast %"cls.acjs::JsVariant"* %ptr1882 to i32 (...)***
  store i32 (...)** bitcast (i8** getelementptr inbounds ({ [4 x i8*] }, { [4 x i8*] }* @_ZTVN14altered_carbon2js9JsVariantE, i32 0, inrange i32 0, i32 2) to i32 (...)**), i32 (...)*** %695, align 8
  %696 = getelementptr inbounds %"cls.acjs::JsVariant", %"cls.acjs::JsVariant"* %ptr1882, i32 0, i32 1
  store i32 1, i32* %696, align 8
  %ptr1884 = alloca [1 x %"cls.acjs::JsVariant"*], align 16
  %ptr1890 = alloca %"cls.acjs::JsVariant", align 8
  %697 = bitcast %"cls.acjs::JsVariant"* %ptr1890 to i32 (...)***
  store i32 (...)** bitcast (i8** getelementptr inbounds ({ [4 x i8*] }, { [4 x i8*] }* @_ZTVN14altered_carbon2js9JsVariantE, i32 0, inrange i32 0, i32 2) to i32 (...)**), i32 (...)*** %697, align 8
  %698 = getelementptr inbounds %"cls.acjs::JsVariant", %"cls.acjs::JsVariant"* %ptr1890, i32 0, i32 1
  store i32 1, i32* %698, align 8
  %ptr1892 = alloca [1 x %"cls.acjs::JsVariant"*], align 16
  %ptr1898 = alloca %"cls.acjs::JsVariant", align 8
  %699 = bitcast %"cls.acjs::JsVariant"* %ptr1898 to i32 (...)***
  store i32 (...)** bitcast (i8** getelementptr inbounds ({ [4 x i8*] }, { [4 x i8*] }* @_ZTVN14altered_carbon2js9JsVariantE, i32 0, inrange i32 0, i32 2) to i32 (...)**), i32 (...)*** %699, align 8
  %700 = getelementptr inbounds %"cls.acjs::JsVariant", %"cls.acjs::JsVariant"* %ptr1898, i32 0, i32 1
  store i32 1, i32* %700, align 8
  %ptr1900 = alloca [1 x %"cls.acjs::JsVariant"*], align 16
  %ptr1906 = alloca %"cls.acjs::JsVariant", align 8
  %701 = bitcast %"cls.acjs::JsVariant"* %ptr1906 to i32 (...)***
  store i32 (...)** bitcast (i8** getelementptr inbounds ({ [4 x i8*] }, { [4 x i8*] }* @_ZTVN14altered_carbon2js9JsVariantE, i32 0, inrange i32 0, i32 2) to i32 (...)**), i32 (...)*** %701, align 8
  %702 = getelementptr inbounds %"cls.acjs::JsVariant", %"cls.acjs::JsVariant"* %ptr1906, i32 0, i32 1
  store i32 1, i32* %702, align 8
  %ptr1908 = alloca [1 x %"cls.acjs::JsVariant"*], align 16
  %ptr1914 = alloca %"cls.acjs::JsVariant", align 8
  %703 = bitcast %"cls.acjs::JsVariant"* %ptr1914 to i32 (...)***
  store i32 (...)** bitcast (i8** getelementptr inbounds ({ [4 x i8*] }, { [4 x i8*] }* @_ZTVN14altered_carbon2js9JsVariantE, i32 0, inrange i32 0, i32 2) to i32 (...)**), i32 (...)*** %703, align 8
  %704 = getelementptr inbounds %"cls.acjs::JsVariant", %"cls.acjs::JsVariant"* %ptr1914, i32 0, i32 1
  store i32 1, i32* %704, align 8
  %ptr1915 = alloca %"cls.acjs::JsVariant", align 8
  %705 = bitcast %"cls.acjs::JsVariant"* %ptr1915 to i32 (...)***
  store i32 (...)** bitcast (i8** getelementptr inbounds ({ [4 x i8*] }, { [4 x i8*] }* @_ZTVN14altered_carbon2js9JsVariantE, i32 0, inrange i32 0, i32 2) to i32 (...)**), i32 (...)*** %705, align 8
  %706 = getelementptr inbounds %"cls.acjs::JsVariant", %"cls.acjs::JsVariant"* %ptr1915, i32 0, i32 1
  store i32 1, i32* %706, align 8
  %ptr1916 = alloca %"cls.acjs::JsVariant", align 8
  %707 = bitcast %"cls.acjs::JsVariant"* %ptr1916 to i32 (...)***
  store i32 (...)** bitcast (i8** getelementptr inbounds ({ [4 x i8*] }, { [4 x i8*] }* @_ZTVN14altered_carbon2js9JsVariantE, i32 0, inrange i32 0, i32 2) to i32 (...)**), i32 (...)*** %707, align 8
  %708 = getelementptr inbounds %"cls.acjs::JsVariant", %"cls.acjs::JsVariant"* %ptr1916, i32 0, i32 1
  store i32 1, i32* %708, align 8
  %ptr1918 = alloca [2 x %"cls.acjs::JsVariant"*], align 16
  %ptr1924 = alloca %"cls.acjs::JsVariant", align 8
  %709 = bitcast %"cls.acjs::JsVariant"* %ptr1924 to i32 (...)***
  store i32 (...)** bitcast (i8** getelementptr inbounds ({ [4 x i8*] }, { [4 x i8*] }* @_ZTVN14altered_carbon2js9JsVariantE, i32 0, inrange i32 0, i32 2) to i32 (...)**), i32 (...)*** %709, align 8
  %710 = getelementptr inbounds %"cls.acjs::JsVariant", %"cls.acjs::JsVariant"* %ptr1924, i32 0, i32 1
  store i32 1, i32* %710, align 8
  %ptr1925 = alloca %"cls.acjs::JsVariant", align 8
  %711 = bitcast %"cls.acjs::JsVariant"* %ptr1925 to i32 (...)***
  store i32 (...)** bitcast (i8** getelementptr inbounds ({ [4 x i8*] }, { [4 x i8*] }* @_ZTVN14altered_carbon2js9JsVariantE, i32 0, inrange i32 0, i32 2) to i32 (...)**), i32 (...)*** %711, align 8
  %712 = getelementptr inbounds %"cls.acjs::JsVariant", %"cls.acjs::JsVariant"* %ptr1925, i32 0, i32 1
  store i32 1, i32* %712, align 8
  %ptr1926 = alloca %"cls.acjs::JsVariant", align 8
  %713 = bitcast %"cls.acjs::JsVariant"* %ptr1926 to i32 (...)***
  store i32 (...)** bitcast (i8** getelementptr inbounds ({ [4 x i8*] }, { [4 x i8*] }* @_ZTVN14altered_carbon2js9JsVariantE, i32 0, inrange i32 0, i32 2) to i32 (...)**), i32 (...)*** %713, align 8
  %714 = getelementptr inbounds %"cls.acjs::JsVariant", %"cls.acjs::JsVariant"* %ptr1926, i32 0, i32 1
  store i32 1, i32* %714, align 8
  %ptr1928 = alloca [2 x %"cls.acjs::JsVariant"*], align 16
  %ptr1934 = alloca %"cls.acjs::JsVariant", align 8
  %715 = bitcast %"cls.acjs::JsVariant"* %ptr1934 to i32 (...)***
  store i32 (...)** bitcast (i8** getelementptr inbounds ({ [4 x i8*] }, { [4 x i8*] }* @_ZTVN14altered_carbon2js9JsVariantE, i32 0, inrange i32 0, i32 2) to i32 (...)**), i32 (...)*** %715, align 8
  %716 = getelementptr inbounds %"cls.acjs::JsVariant", %"cls.acjs::JsVariant"* %ptr1934, i32 0, i32 1
  store i32 1, i32* %716, align 8
  %ptr1936 = alloca [2 x %"cls.acjs::JsVariant"*], align 16
  %ptr1942 = alloca %"cls.acjs::JsVariant", align 8
  %717 = bitcast %"cls.acjs::JsVariant"* %ptr1942 to i32 (...)***
  store i32 (...)** bitcast (i8** getelementptr inbounds ({ [4 x i8*] }, { [4 x i8*] }* @_ZTVN14altered_carbon2js9JsVariantE, i32 0, inrange i32 0, i32 2) to i32 (...)**), i32 (...)*** %717, align 8
  %718 = getelementptr inbounds %"cls.acjs::JsVariant", %"cls.acjs::JsVariant"* %ptr1942, i32 0, i32 1
  store i32 1, i32* %718, align 8
  %ptr1944 = alloca [1 x %"cls.acjs::JsVariant"*], align 16
  %ptr1950 = alloca %"cls.acjs::JsVariant", align 8
  %719 = bitcast %"cls.acjs::JsVariant"* %ptr1950 to i32 (...)***
  store i32 (...)** bitcast (i8** getelementptr inbounds ({ [4 x i8*] }, { [4 x i8*] }* @_ZTVN14altered_carbon2js9JsVariantE, i32 0, inrange i32 0, i32 2) to i32 (...)**), i32 (...)*** %719, align 8
  %720 = getelementptr inbounds %"cls.acjs::JsVariant", %"cls.acjs::JsVariant"* %ptr1950, i32 0, i32 1
  store i32 1, i32* %720, align 8
  %ptr1952 = alloca [1 x %"cls.acjs::JsVariant"*], align 16
  %ptr1958 = alloca %"cls.acjs::JsVariant", align 8
  %721 = bitcast %"cls.acjs::JsVariant"* %ptr1958 to i32 (...)***
  store i32 (...)** bitcast (i8** getelementptr inbounds ({ [4 x i8*] }, { [4 x i8*] }* @_ZTVN14altered_carbon2js9JsVariantE, i32 0, inrange i32 0, i32 2) to i32 (...)**), i32 (...)*** %721, align 8
  %722 = getelementptr inbounds %"cls.acjs::JsVariant", %"cls.acjs::JsVariant"* %ptr1958, i32 0, i32 1
  store i32 1, i32* %722, align 8
  %ptr1960 = alloca [1 x %"cls.acjs::JsVariant"*], align 16
  %ptr1966 = alloca %"cls.acjs::JsVariant", align 8
  %723 = bitcast %"cls.acjs::JsVariant"* %ptr1966 to i32 (...)***
  store i32 (...)** bitcast (i8** getelementptr inbounds ({ [4 x i8*] }, { [4 x i8*] }* @_ZTVN14altered_carbon2js9JsVariantE, i32 0, inrange i32 0, i32 2) to i32 (...)**), i32 (...)*** %723, align 8
  %724 = getelementptr inbounds %"cls.acjs::JsVariant", %"cls.acjs::JsVariant"* %ptr1966, i32 0, i32 1
  store i32 1, i32* %724, align 8
  %ptr1968 = alloca [1 x %"cls.acjs::JsVariant"*], align 16
  %ptr1974 = alloca %"cls.acjs::JsVariant", align 8
  %725 = bitcast %"cls.acjs::JsVariant"* %ptr1974 to i32 (...)***
  store i32 (...)** bitcast (i8** getelementptr inbounds ({ [4 x i8*] }, { [4 x i8*] }* @_ZTVN14altered_carbon2js9JsVariantE, i32 0, inrange i32 0, i32 2) to i32 (...)**), i32 (...)*** %725, align 8
  %726 = getelementptr inbounds %"cls.acjs::JsVariant", %"cls.acjs::JsVariant"* %ptr1974, i32 0, i32 1
  store i32 1, i32* %726, align 8
  %ptr1975 = alloca %"cls.acjs::JsVariant", align 8
  %727 = bitcast %"cls.acjs::JsVariant"* %ptr1975 to i32 (...)***
  store i32 (...)** bitcast (i8** getelementptr inbounds ({ [4 x i8*] }, { [4 x i8*] }* @_ZTVN14altered_carbon2js9JsVariantE, i32 0, inrange i32 0, i32 2) to i32 (...)**), i32 (...)*** %727, align 8
  %728 = getelementptr inbounds %"cls.acjs::JsVariant", %"cls.acjs::JsVariant"* %ptr1975, i32 0, i32 1
  store i32 1, i32* %728, align 8
  %ptr1976 = alloca %"cls.acjs::JsVariant", align 8
  %729 = bitcast %"cls.acjs::JsVariant"* %ptr1976 to i32 (...)***
  store i32 (...)** bitcast (i8** getelementptr inbounds ({ [4 x i8*] }, { [4 x i8*] }* @_ZTVN14altered_carbon2js9JsVariantE, i32 0, inrange i32 0, i32 2) to i32 (...)**), i32 (...)*** %729, align 8
  %730 = getelementptr inbounds %"cls.acjs::JsVariant", %"cls.acjs::JsVariant"* %ptr1976, i32 0, i32 1
  store i32 1, i32* %730, align 8
  %ptr1978 = alloca [2 x %"cls.acjs::JsVariant"*], align 16
  %ptr1984 = alloca %"cls.acjs::JsVariant", align 8
  %731 = bitcast %"cls.acjs::JsVariant"* %ptr1984 to i32 (...)***
  store i32 (...)** bitcast (i8** getelementptr inbounds ({ [4 x i8*] }, { [4 x i8*] }* @_ZTVN14altered_carbon2js9JsVariantE, i32 0, inrange i32 0, i32 2) to i32 (...)**), i32 (...)*** %731, align 8
  %732 = getelementptr inbounds %"cls.acjs::JsVariant", %"cls.acjs::JsVariant"* %ptr1984, i32 0, i32 1
  store i32 1, i32* %732, align 8
  %ptr1985 = alloca %"cls.acjs::JsVariant", align 8
  %733 = bitcast %"cls.acjs::JsVariant"* %ptr1985 to i32 (...)***
  store i32 (...)** bitcast (i8** getelementptr inbounds ({ [4 x i8*] }, { [4 x i8*] }* @_ZTVN14altered_carbon2js9JsVariantE, i32 0, inrange i32 0, i32 2) to i32 (...)**), i32 (...)*** %733, align 8
  %734 = getelementptr inbounds %"cls.acjs::JsVariant", %"cls.acjs::JsVariant"* %ptr1985, i32 0, i32 1
  store i32 1, i32* %734, align 8
  %ptr1986 = alloca %"cls.acjs::JsVariant", align 8
  %735 = bitcast %"cls.acjs::JsVariant"* %ptr1986 to i32 (...)***
  store i32 (...)** bitcast (i8** getelementptr inbounds ({ [4 x i8*] }, { [4 x i8*] }* @_ZTVN14altered_carbon2js9JsVariantE, i32 0, inrange i32 0, i32 2) to i32 (...)**), i32 (...)*** %735, align 8
  %736 = getelementptr inbounds %"cls.acjs::JsVariant", %"cls.acjs::JsVariant"* %ptr1986, i32 0, i32 1
  store i32 1, i32* %736, align 8
  %ptr1988 = alloca [2 x %"cls.acjs::JsVariant"*], align 16
  %ptr1994 = alloca %"cls.acjs::JsVariant", align 8
  %737 = bitcast %"cls.acjs::JsVariant"* %ptr1994 to i32 (...)***
  store i32 (...)** bitcast (i8** getelementptr inbounds ({ [4 x i8*] }, { [4 x i8*] }* @_ZTVN14altered_carbon2js9JsVariantE, i32 0, inrange i32 0, i32 2) to i32 (...)**), i32 (...)*** %737, align 8
  %738 = getelementptr inbounds %"cls.acjs::JsVariant", %"cls.acjs::JsVariant"* %ptr1994, i32 0, i32 1
  store i32 1, i32* %738, align 8
  %ptr1996 = alloca [2 x %"cls.acjs::JsVariant"*], align 16
  %ptr2002 = alloca %"cls.acjs::JsVariant", align 8
  %739 = bitcast %"cls.acjs::JsVariant"* %ptr2002 to i32 (...)***
  store i32 (...)** bitcast (i8** getelementptr inbounds ({ [4 x i8*] }, { [4 x i8*] }* @_ZTVN14altered_carbon2js9JsVariantE, i32 0, inrange i32 0, i32 2) to i32 (...)**), i32 (...)*** %739, align 8
  %740 = getelementptr inbounds %"cls.acjs::JsVariant", %"cls.acjs::JsVariant"* %ptr2002, i32 0, i32 1
  store i32 1, i32* %740, align 8
  %ptr2004 = alloca [1 x %"cls.acjs::JsVariant"*], align 16
  %ptr2010 = alloca %"cls.acjs::JsVariant", align 8
  %741 = bitcast %"cls.acjs::JsVariant"* %ptr2010 to i32 (...)***
  store i32 (...)** bitcast (i8** getelementptr inbounds ({ [4 x i8*] }, { [4 x i8*] }* @_ZTVN14altered_carbon2js9JsVariantE, i32 0, inrange i32 0, i32 2) to i32 (...)**), i32 (...)*** %741, align 8
  %742 = getelementptr inbounds %"cls.acjs::JsVariant", %"cls.acjs::JsVariant"* %ptr2010, i32 0, i32 1
  store i32 1, i32* %742, align 8
  %ptr2012 = alloca [1 x %"cls.acjs::JsVariant"*], align 16
  %ptr2018 = alloca %"cls.acjs::JsVariant", align 8
  %743 = bitcast %"cls.acjs::JsVariant"* %ptr2018 to i32 (...)***
  store i32 (...)** bitcast (i8** getelementptr inbounds ({ [4 x i8*] }, { [4 x i8*] }* @_ZTVN14altered_carbon2js9JsVariantE, i32 0, inrange i32 0, i32 2) to i32 (...)**), i32 (...)*** %743, align 8
  %744 = getelementptr inbounds %"cls.acjs::JsVariant", %"cls.acjs::JsVariant"* %ptr2018, i32 0, i32 1
  store i32 1, i32* %744, align 8
  %ptr2020 = alloca [1 x %"cls.acjs::JsVariant"*], align 16
  %ptr2026 = alloca %"cls.acjs::JsVariant", align 8
  %745 = bitcast %"cls.acjs::JsVariant"* %ptr2026 to i32 (...)***
  store i32 (...)** bitcast (i8** getelementptr inbounds ({ [4 x i8*] }, { [4 x i8*] }* @_ZTVN14altered_carbon2js9JsVariantE, i32 0, inrange i32 0, i32 2) to i32 (...)**), i32 (...)*** %745, align 8
  %746 = getelementptr inbounds %"cls.acjs::JsVariant", %"cls.acjs::JsVariant"* %ptr2026, i32 0, i32 1
  store i32 1, i32* %746, align 8
  %ptr2028 = alloca [1 x %"cls.acjs::JsVariant"*], align 16
  %ptr2034 = alloca %"cls.acjs::JsVariant", align 8
  %747 = bitcast %"cls.acjs::JsVariant"* %ptr2034 to i32 (...)***
  store i32 (...)** bitcast (i8** getelementptr inbounds ({ [4 x i8*] }, { [4 x i8*] }* @_ZTVN14altered_carbon2js9JsVariantE, i32 0, inrange i32 0, i32 2) to i32 (...)**), i32 (...)*** %747, align 8
  %748 = getelementptr inbounds %"cls.acjs::JsVariant", %"cls.acjs::JsVariant"* %ptr2034, i32 0, i32 1
  store i32 1, i32* %748, align 8
  %ptr2035 = alloca %"cls.acjs::JsVariant", align 8
  %749 = bitcast %"cls.acjs::JsVariant"* %ptr2035 to i32 (...)***
  store i32 (...)** bitcast (i8** getelementptr inbounds ({ [4 x i8*] }, { [4 x i8*] }* @_ZTVN14altered_carbon2js9JsVariantE, i32 0, inrange i32 0, i32 2) to i32 (...)**), i32 (...)*** %749, align 8
  %750 = getelementptr inbounds %"cls.acjs::JsVariant", %"cls.acjs::JsVariant"* %ptr2035, i32 0, i32 1
  store i32 1, i32* %750, align 8
  %ptr2036 = alloca %"cls.acjs::JsVariant", align 8
  %751 = bitcast %"cls.acjs::JsVariant"* %ptr2036 to i32 (...)***
  store i32 (...)** bitcast (i8** getelementptr inbounds ({ [4 x i8*] }, { [4 x i8*] }* @_ZTVN14altered_carbon2js9JsVariantE, i32 0, inrange i32 0, i32 2) to i32 (...)**), i32 (...)*** %751, align 8
  %752 = getelementptr inbounds %"cls.acjs::JsVariant", %"cls.acjs::JsVariant"* %ptr2036, i32 0, i32 1
  store i32 1, i32* %752, align 8
  %ptr2038 = alloca [2 x %"cls.acjs::JsVariant"*], align 16
  %ptr2044 = alloca %"cls.acjs::JsVariant", align 8
  %753 = bitcast %"cls.acjs::JsVariant"* %ptr2044 to i32 (...)***
  store i32 (...)** bitcast (i8** getelementptr inbounds ({ [4 x i8*] }, { [4 x i8*] }* @_ZTVN14altered_carbon2js9JsVariantE, i32 0, inrange i32 0, i32 2) to i32 (...)**), i32 (...)*** %753, align 8
  %754 = getelementptr inbounds %"cls.acjs::JsVariant", %"cls.acjs::JsVariant"* %ptr2044, i32 0, i32 1
  store i32 1, i32* %754, align 8
  %ptr2045 = alloca %"cls.acjs::JsVariant", align 8
  %755 = bitcast %"cls.acjs::JsVariant"* %ptr2045 to i32 (...)***
  store i32 (...)** bitcast (i8** getelementptr inbounds ({ [4 x i8*] }, { [4 x i8*] }* @_ZTVN14altered_carbon2js9JsVariantE, i32 0, inrange i32 0, i32 2) to i32 (...)**), i32 (...)*** %755, align 8
  %756 = getelementptr inbounds %"cls.acjs::JsVariant", %"cls.acjs::JsVariant"* %ptr2045, i32 0, i32 1
  store i32 1, i32* %756, align 8
  %ptr2046 = alloca %"cls.acjs::JsVariant", align 8
  %757 = bitcast %"cls.acjs::JsVariant"* %ptr2046 to i32 (...)***
  store i32 (...)** bitcast (i8** getelementptr inbounds ({ [4 x i8*] }, { [4 x i8*] }* @_ZTVN14altered_carbon2js9JsVariantE, i32 0, inrange i32 0, i32 2) to i32 (...)**), i32 (...)*** %757, align 8
  %758 = getelementptr inbounds %"cls.acjs::JsVariant", %"cls.acjs::JsVariant"* %ptr2046, i32 0, i32 1
  store i32 1, i32* %758, align 8
  %ptr2048 = alloca [2 x %"cls.acjs::JsVariant"*], align 16
  %ptr2054 = alloca %"cls.acjs::JsVariant", align 8
  %759 = bitcast %"cls.acjs::JsVariant"* %ptr2054 to i32 (...)***
  store i32 (...)** bitcast (i8** getelementptr inbounds ({ [4 x i8*] }, { [4 x i8*] }* @_ZTVN14altered_carbon2js9JsVariantE, i32 0, inrange i32 0, i32 2) to i32 (...)**), i32 (...)*** %759, align 8
  %760 = getelementptr inbounds %"cls.acjs::JsVariant", %"cls.acjs::JsVariant"* %ptr2054, i32 0, i32 1
  store i32 1, i32* %760, align 8
  %ptr2056 = alloca [2 x %"cls.acjs::JsVariant"*], align 16
  %ptr2062 = alloca %"cls.acjs::JsVariant", align 8
  %761 = bitcast %"cls.acjs::JsVariant"* %ptr2062 to i32 (...)***
  store i32 (...)** bitcast (i8** getelementptr inbounds ({ [4 x i8*] }, { [4 x i8*] }* @_ZTVN14altered_carbon2js9JsVariantE, i32 0, inrange i32 0, i32 2) to i32 (...)**), i32 (...)*** %761, align 8
  %762 = getelementptr inbounds %"cls.acjs::JsVariant", %"cls.acjs::JsVariant"* %ptr2062, i32 0, i32 1
  store i32 1, i32* %762, align 8
  %ptr2064 = alloca [1 x %"cls.acjs::JsVariant"*], align 16
  %ptr2070 = alloca %"cls.acjs::JsVariant", align 8
  %763 = bitcast %"cls.acjs::JsVariant"* %ptr2070 to i32 (...)***
  store i32 (...)** bitcast (i8** getelementptr inbounds ({ [4 x i8*] }, { [4 x i8*] }* @_ZTVN14altered_carbon2js9JsVariantE, i32 0, inrange i32 0, i32 2) to i32 (...)**), i32 (...)*** %763, align 8
  %764 = getelementptr inbounds %"cls.acjs::JsVariant", %"cls.acjs::JsVariant"* %ptr2070, i32 0, i32 1
  store i32 1, i32* %764, align 8
  %ptr2072 = alloca [1 x %"cls.acjs::JsVariant"*], align 16
  %ptr2078 = alloca %"cls.acjs::JsVariant", align 8
  %765 = bitcast %"cls.acjs::JsVariant"* %ptr2078 to i32 (...)***
  store i32 (...)** bitcast (i8** getelementptr inbounds ({ [4 x i8*] }, { [4 x i8*] }* @_ZTVN14altered_carbon2js9JsVariantE, i32 0, inrange i32 0, i32 2) to i32 (...)**), i32 (...)*** %765, align 8
  %766 = getelementptr inbounds %"cls.acjs::JsVariant", %"cls.acjs::JsVariant"* %ptr2078, i32 0, i32 1
  store i32 1, i32* %766, align 8
  %ptr2080 = alloca [1 x %"cls.acjs::JsVariant"*], align 16
  %ptr2086 = alloca %"cls.acjs::JsVariant", align 8
  %767 = bitcast %"cls.acjs::JsVariant"* %ptr2086 to i32 (...)***
  store i32 (...)** bitcast (i8** getelementptr inbounds ({ [4 x i8*] }, { [4 x i8*] }* @_ZTVN14altered_carbon2js9JsVariantE, i32 0, inrange i32 0, i32 2) to i32 (...)**), i32 (...)*** %767, align 8
  %768 = getelementptr inbounds %"cls.acjs::JsVariant", %"cls.acjs::JsVariant"* %ptr2086, i32 0, i32 1
  store i32 1, i32* %768, align 8
  %ptr2088 = alloca [1 x %"cls.acjs::JsVariant"*], align 16
  %ptr2094 = alloca %"cls.acjs::JsVariant", align 8
  %769 = bitcast %"cls.acjs::JsVariant"* %ptr2094 to i32 (...)***
  store i32 (...)** bitcast (i8** getelementptr inbounds ({ [4 x i8*] }, { [4 x i8*] }* @_ZTVN14altered_carbon2js9JsVariantE, i32 0, inrange i32 0, i32 2) to i32 (...)**), i32 (...)*** %769, align 8
  %770 = getelementptr inbounds %"cls.acjs::JsVariant", %"cls.acjs::JsVariant"* %ptr2094, i32 0, i32 1
  store i32 1, i32* %770, align 8
  %ptr2095 = alloca %"cls.acjs::JsVariant", align 8
  %771 = bitcast %"cls.acjs::JsVariant"* %ptr2095 to i32 (...)***
  store i32 (...)** bitcast (i8** getelementptr inbounds ({ [4 x i8*] }, { [4 x i8*] }* @_ZTVN14altered_carbon2js9JsVariantE, i32 0, inrange i32 0, i32 2) to i32 (...)**), i32 (...)*** %771, align 8
  %772 = getelementptr inbounds %"cls.acjs::JsVariant", %"cls.acjs::JsVariant"* %ptr2095, i32 0, i32 1
  store i32 1, i32* %772, align 8
  %ptr2096 = alloca %"cls.acjs::JsVariant", align 8
  %773 = bitcast %"cls.acjs::JsVariant"* %ptr2096 to i32 (...)***
  store i32 (...)** bitcast (i8** getelementptr inbounds ({ [4 x i8*] }, { [4 x i8*] }* @_ZTVN14altered_carbon2js9JsVariantE, i32 0, inrange i32 0, i32 2) to i32 (...)**), i32 (...)*** %773, align 8
  %774 = getelementptr inbounds %"cls.acjs::JsVariant", %"cls.acjs::JsVariant"* %ptr2096, i32 0, i32 1
  store i32 1, i32* %774, align 8
  %ptr2098 = alloca [2 x %"cls.acjs::JsVariant"*], align 16
  %ptr2104 = alloca %"cls.acjs::JsVariant", align 8
  %775 = bitcast %"cls.acjs::JsVariant"* %ptr2104 to i32 (...)***
  store i32 (...)** bitcast (i8** getelementptr inbounds ({ [4 x i8*] }, { [4 x i8*] }* @_ZTVN14altered_carbon2js9JsVariantE, i32 0, inrange i32 0, i32 2) to i32 (...)**), i32 (...)*** %775, align 8
  %776 = getelementptr inbounds %"cls.acjs::JsVariant", %"cls.acjs::JsVariant"* %ptr2104, i32 0, i32 1
  store i32 1, i32* %776, align 8
  %ptr2105 = alloca %"cls.acjs::JsVariant", align 8
  %777 = bitcast %"cls.acjs::JsVariant"* %ptr2105 to i32 (...)***
  store i32 (...)** bitcast (i8** getelementptr inbounds ({ [4 x i8*] }, { [4 x i8*] }* @_ZTVN14altered_carbon2js9JsVariantE, i32 0, inrange i32 0, i32 2) to i32 (...)**), i32 (...)*** %777, align 8
  %778 = getelementptr inbounds %"cls.acjs::JsVariant", %"cls.acjs::JsVariant"* %ptr2105, i32 0, i32 1
  store i32 1, i32* %778, align 8
  %ptr2106 = alloca %"cls.acjs::JsVariant", align 8
  %779 = bitcast %"cls.acjs::JsVariant"* %ptr2106 to i32 (...)***
  store i32 (...)** bitcast (i8** getelementptr inbounds ({ [4 x i8*] }, { [4 x i8*] }* @_ZTVN14altered_carbon2js9JsVariantE, i32 0, inrange i32 0, i32 2) to i32 (...)**), i32 (...)*** %779, align 8
  %780 = getelementptr inbounds %"cls.acjs::JsVariant", %"cls.acjs::JsVariant"* %ptr2106, i32 0, i32 1
  store i32 1, i32* %780, align 8
  %ptr2108 = alloca [2 x %"cls.acjs::JsVariant"*], align 16
  %ptr2114 = alloca %"cls.acjs::JsVariant", align 8
  %781 = bitcast %"cls.acjs::JsVariant"* %ptr2114 to i32 (...)***
  store i32 (...)** bitcast (i8** getelementptr inbounds ({ [4 x i8*] }, { [4 x i8*] }* @_ZTVN14altered_carbon2js9JsVariantE, i32 0, inrange i32 0, i32 2) to i32 (...)**), i32 (...)*** %781, align 8
  %782 = getelementptr inbounds %"cls.acjs::JsVariant", %"cls.acjs::JsVariant"* %ptr2114, i32 0, i32 1
  store i32 1, i32* %782, align 8
  %ptr2116 = alloca [2 x %"cls.acjs::JsVariant"*], align 16
  %ptr2122 = alloca %"cls.acjs::JsVariant", align 8
  %783 = bitcast %"cls.acjs::JsVariant"* %ptr2122 to i32 (...)***
  store i32 (...)** bitcast (i8** getelementptr inbounds ({ [4 x i8*] }, { [4 x i8*] }* @_ZTVN14altered_carbon2js9JsVariantE, i32 0, inrange i32 0, i32 2) to i32 (...)**), i32 (...)*** %783, align 8
  %784 = getelementptr inbounds %"cls.acjs::JsVariant", %"cls.acjs::JsVariant"* %ptr2122, i32 0, i32 1
  store i32 1, i32* %784, align 8
  %ptr2124 = alloca [1 x %"cls.acjs::JsVariant"*], align 16
  %ptr2130 = alloca %"cls.acjs::JsVariant", align 8
  %785 = bitcast %"cls.acjs::JsVariant"* %ptr2130 to i32 (...)***
  store i32 (...)** bitcast (i8** getelementptr inbounds ({ [4 x i8*] }, { [4 x i8*] }* @_ZTVN14altered_carbon2js9JsVariantE, i32 0, inrange i32 0, i32 2) to i32 (...)**), i32 (...)*** %785, align 8
  %786 = getelementptr inbounds %"cls.acjs::JsVariant", %"cls.acjs::JsVariant"* %ptr2130, i32 0, i32 1
  store i32 1, i32* %786, align 8
  %ptr2132 = alloca [1 x %"cls.acjs::JsVariant"*], align 16
  %ptr2138 = alloca %"cls.acjs::JsVariant", align 8
  %787 = bitcast %"cls.acjs::JsVariant"* %ptr2138 to i32 (...)***
  store i32 (...)** bitcast (i8** getelementptr inbounds ({ [4 x i8*] }, { [4 x i8*] }* @_ZTVN14altered_carbon2js9JsVariantE, i32 0, inrange i32 0, i32 2) to i32 (...)**), i32 (...)*** %787, align 8
  %788 = getelementptr inbounds %"cls.acjs::JsVariant", %"cls.acjs::JsVariant"* %ptr2138, i32 0, i32 1
  store i32 1, i32* %788, align 8
  %ptr2140 = alloca [1 x %"cls.acjs::JsVariant"*], align 16
  %ptr2146 = alloca %"cls.acjs::JsVariant", align 8
  %789 = bitcast %"cls.acjs::JsVariant"* %ptr2146 to i32 (...)***
  store i32 (...)** bitcast (i8** getelementptr inbounds ({ [4 x i8*] }, { [4 x i8*] }* @_ZTVN14altered_carbon2js9JsVariantE, i32 0, inrange i32 0, i32 2) to i32 (...)**), i32 (...)*** %789, align 8
  %790 = getelementptr inbounds %"cls.acjs::JsVariant", %"cls.acjs::JsVariant"* %ptr2146, i32 0, i32 1
  store i32 1, i32* %790, align 8
  %ptr2148 = alloca [1 x %"cls.acjs::JsVariant"*], align 16
  %ptr2154 = alloca %"cls.acjs::JsVariant", align 8
  %791 = bitcast %"cls.acjs::JsVariant"* %ptr2154 to i32 (...)***
  store i32 (...)** bitcast (i8** getelementptr inbounds ({ [4 x i8*] }, { [4 x i8*] }* @_ZTVN14altered_carbon2js9JsVariantE, i32 0, inrange i32 0, i32 2) to i32 (...)**), i32 (...)*** %791, align 8
  %792 = getelementptr inbounds %"cls.acjs::JsVariant", %"cls.acjs::JsVariant"* %ptr2154, i32 0, i32 1
  store i32 1, i32* %792, align 8
  %ptr2155 = alloca %"cls.acjs::JsVariant", align 8
  %793 = bitcast %"cls.acjs::JsVariant"* %ptr2155 to i32 (...)***
  store i32 (...)** bitcast (i8** getelementptr inbounds ({ [4 x i8*] }, { [4 x i8*] }* @_ZTVN14altered_carbon2js9JsVariantE, i32 0, inrange i32 0, i32 2) to i32 (...)**), i32 (...)*** %793, align 8
  %794 = getelementptr inbounds %"cls.acjs::JsVariant", %"cls.acjs::JsVariant"* %ptr2155, i32 0, i32 1
  store i32 1, i32* %794, align 8
  %ptr2156 = alloca %"cls.acjs::JsVariant", align 8
  %795 = bitcast %"cls.acjs::JsVariant"* %ptr2156 to i32 (...)***
  store i32 (...)** bitcast (i8** getelementptr inbounds ({ [4 x i8*] }, { [4 x i8*] }* @_ZTVN14altered_carbon2js9JsVariantE, i32 0, inrange i32 0, i32 2) to i32 (...)**), i32 (...)*** %795, align 8
  %796 = getelementptr inbounds %"cls.acjs::JsVariant", %"cls.acjs::JsVariant"* %ptr2156, i32 0, i32 1
  store i32 1, i32* %796, align 8
  %ptr2158 = alloca [2 x %"cls.acjs::JsVariant"*], align 16
  %ptr2164 = alloca %"cls.acjs::JsVariant", align 8
  %797 = bitcast %"cls.acjs::JsVariant"* %ptr2164 to i32 (...)***
  store i32 (...)** bitcast (i8** getelementptr inbounds ({ [4 x i8*] }, { [4 x i8*] }* @_ZTVN14altered_carbon2js9JsVariantE, i32 0, inrange i32 0, i32 2) to i32 (...)**), i32 (...)*** %797, align 8
  %798 = getelementptr inbounds %"cls.acjs::JsVariant", %"cls.acjs::JsVariant"* %ptr2164, i32 0, i32 1
  store i32 1, i32* %798, align 8
  %ptr2165 = alloca %"cls.acjs::JsVariant", align 8
  %799 = bitcast %"cls.acjs::JsVariant"* %ptr2165 to i32 (...)***
  store i32 (...)** bitcast (i8** getelementptr inbounds ({ [4 x i8*] }, { [4 x i8*] }* @_ZTVN14altered_carbon2js9JsVariantE, i32 0, inrange i32 0, i32 2) to i32 (...)**), i32 (...)*** %799, align 8
  %800 = getelementptr inbounds %"cls.acjs::JsVariant", %"cls.acjs::JsVariant"* %ptr2165, i32 0, i32 1
  store i32 1, i32* %800, align 8
  %ptr2166 = alloca %"cls.acjs::JsVariant", align 8
  %801 = bitcast %"cls.acjs::JsVariant"* %ptr2166 to i32 (...)***
  store i32 (...)** bitcast (i8** getelementptr inbounds ({ [4 x i8*] }, { [4 x i8*] }* @_ZTVN14altered_carbon2js9JsVariantE, i32 0, inrange i32 0, i32 2) to i32 (...)**), i32 (...)*** %801, align 8
  %802 = getelementptr inbounds %"cls.acjs::JsVariant", %"cls.acjs::JsVariant"* %ptr2166, i32 0, i32 1
  store i32 1, i32* %802, align 8
  %ptr2168 = alloca [2 x %"cls.acjs::JsVariant"*], align 16
  %ptr2174 = alloca %"cls.acjs::JsVariant", align 8
  %803 = bitcast %"cls.acjs::JsVariant"* %ptr2174 to i32 (...)***
  store i32 (...)** bitcast (i8** getelementptr inbounds ({ [4 x i8*] }, { [4 x i8*] }* @_ZTVN14altered_carbon2js9JsVariantE, i32 0, inrange i32 0, i32 2) to i32 (...)**), i32 (...)*** %803, align 8
  %804 = getelementptr inbounds %"cls.acjs::JsVariant", %"cls.acjs::JsVariant"* %ptr2174, i32 0, i32 1
  store i32 1, i32* %804, align 8
  %ptr2176 = alloca [2 x %"cls.acjs::JsVariant"*], align 16
  %ptr2182 = alloca %"cls.acjs::JsVariant", align 8
  %805 = bitcast %"cls.acjs::JsVariant"* %ptr2182 to i32 (...)***
  store i32 (...)** bitcast (i8** getelementptr inbounds ({ [4 x i8*] }, { [4 x i8*] }* @_ZTVN14altered_carbon2js9JsVariantE, i32 0, inrange i32 0, i32 2) to i32 (...)**), i32 (...)*** %805, align 8
  %806 = getelementptr inbounds %"cls.acjs::JsVariant", %"cls.acjs::JsVariant"* %ptr2182, i32 0, i32 1
  store i32 1, i32* %806, align 8
  %ptr2184 = alloca [1 x %"cls.acjs::JsVariant"*], align 16
  %ptr2190 = alloca %"cls.acjs::JsVariant", align 8
  %807 = bitcast %"cls.acjs::JsVariant"* %ptr2190 to i32 (...)***
  store i32 (...)** bitcast (i8** getelementptr inbounds ({ [4 x i8*] }, { [4 x i8*] }* @_ZTVN14altered_carbon2js9JsVariantE, i32 0, inrange i32 0, i32 2) to i32 (...)**), i32 (...)*** %807, align 8
  %808 = getelementptr inbounds %"cls.acjs::JsVariant", %"cls.acjs::JsVariant"* %ptr2190, i32 0, i32 1
  store i32 1, i32* %808, align 8
  %ptr2192 = alloca [1 x %"cls.acjs::JsVariant"*], align 16
  %ptr2198 = alloca %"cls.acjs::JsVariant", align 8
  %809 = bitcast %"cls.acjs::JsVariant"* %ptr2198 to i32 (...)***
  store i32 (...)** bitcast (i8** getelementptr inbounds ({ [4 x i8*] }, { [4 x i8*] }* @_ZTVN14altered_carbon2js9JsVariantE, i32 0, inrange i32 0, i32 2) to i32 (...)**), i32 (...)*** %809, align 8
  %810 = getelementptr inbounds %"cls.acjs::JsVariant", %"cls.acjs::JsVariant"* %ptr2198, i32 0, i32 1
  store i32 1, i32* %810, align 8
  %ptr2200 = alloca [1 x %"cls.acjs::JsVariant"*], align 16
  %ptr2206 = alloca %"cls.acjs::JsVariant", align 8
  %811 = bitcast %"cls.acjs::JsVariant"* %ptr2206 to i32 (...)***
  store i32 (...)** bitcast (i8** getelementptr inbounds ({ [4 x i8*] }, { [4 x i8*] }* @_ZTVN14altered_carbon2js9JsVariantE, i32 0, inrange i32 0, i32 2) to i32 (...)**), i32 (...)*** %811, align 8
  %812 = getelementptr inbounds %"cls.acjs::JsVariant", %"cls.acjs::JsVariant"* %ptr2206, i32 0, i32 1
  store i32 1, i32* %812, align 8
  %ptr2208 = alloca [1 x %"cls.acjs::JsVariant"*], align 16
  %ptr2214 = alloca %"cls.acjs::JsVariant", align 8
  %813 = bitcast %"cls.acjs::JsVariant"* %ptr2214 to i32 (...)***
  store i32 (...)** bitcast (i8** getelementptr inbounds ({ [4 x i8*] }, { [4 x i8*] }* @_ZTVN14altered_carbon2js9JsVariantE, i32 0, inrange i32 0, i32 2) to i32 (...)**), i32 (...)*** %813, align 8
  %814 = getelementptr inbounds %"cls.acjs::JsVariant", %"cls.acjs::JsVariant"* %ptr2214, i32 0, i32 1
  store i32 1, i32* %814, align 8
  %ptr2215 = alloca %"cls.acjs::JsVariant", align 8
  %815 = bitcast %"cls.acjs::JsVariant"* %ptr2215 to i32 (...)***
  store i32 (...)** bitcast (i8** getelementptr inbounds ({ [4 x i8*] }, { [4 x i8*] }* @_ZTVN14altered_carbon2js9JsVariantE, i32 0, inrange i32 0, i32 2) to i32 (...)**), i32 (...)*** %815, align 8
  %816 = getelementptr inbounds %"cls.acjs::JsVariant", %"cls.acjs::JsVariant"* %ptr2215, i32 0, i32 1
  store i32 1, i32* %816, align 8
  %ptr2216 = alloca %"cls.acjs::JsVariant", align 8
  %817 = bitcast %"cls.acjs::JsVariant"* %ptr2216 to i32 (...)***
  store i32 (...)** bitcast (i8** getelementptr inbounds ({ [4 x i8*] }, { [4 x i8*] }* @_ZTVN14altered_carbon2js9JsVariantE, i32 0, inrange i32 0, i32 2) to i32 (...)**), i32 (...)*** %817, align 8
  %818 = getelementptr inbounds %"cls.acjs::JsVariant", %"cls.acjs::JsVariant"* %ptr2216, i32 0, i32 1
  store i32 1, i32* %818, align 8
  %ptr2218 = alloca [2 x %"cls.acjs::JsVariant"*], align 16
  %ptr2224 = alloca %"cls.acjs::JsVariant", align 8
  %819 = bitcast %"cls.acjs::JsVariant"* %ptr2224 to i32 (...)***
  store i32 (...)** bitcast (i8** getelementptr inbounds ({ [4 x i8*] }, { [4 x i8*] }* @_ZTVN14altered_carbon2js9JsVariantE, i32 0, inrange i32 0, i32 2) to i32 (...)**), i32 (...)*** %819, align 8
  %820 = getelementptr inbounds %"cls.acjs::JsVariant", %"cls.acjs::JsVariant"* %ptr2224, i32 0, i32 1
  store i32 1, i32* %820, align 8
  %ptr2225 = alloca %"cls.acjs::JsVariant", align 8
  %821 = bitcast %"cls.acjs::JsVariant"* %ptr2225 to i32 (...)***
  store i32 (...)** bitcast (i8** getelementptr inbounds ({ [4 x i8*] }, { [4 x i8*] }* @_ZTVN14altered_carbon2js9JsVariantE, i32 0, inrange i32 0, i32 2) to i32 (...)**), i32 (...)*** %821, align 8
  %822 = getelementptr inbounds %"cls.acjs::JsVariant", %"cls.acjs::JsVariant"* %ptr2225, i32 0, i32 1
  store i32 1, i32* %822, align 8
  %ptr2226 = alloca %"cls.acjs::JsVariant", align 8
  %823 = bitcast %"cls.acjs::JsVariant"* %ptr2226 to i32 (...)***
  store i32 (...)** bitcast (i8** getelementptr inbounds ({ [4 x i8*] }, { [4 x i8*] }* @_ZTVN14altered_carbon2js9JsVariantE, i32 0, inrange i32 0, i32 2) to i32 (...)**), i32 (...)*** %823, align 8
  %824 = getelementptr inbounds %"cls.acjs::JsVariant", %"cls.acjs::JsVariant"* %ptr2226, i32 0, i32 1
  store i32 1, i32* %824, align 8
  %ptr2228 = alloca [2 x %"cls.acjs::JsVariant"*], align 16
  %ptr2234 = alloca %"cls.acjs::JsVariant", align 8
  %825 = bitcast %"cls.acjs::JsVariant"* %ptr2234 to i32 (...)***
  store i32 (...)** bitcast (i8** getelementptr inbounds ({ [4 x i8*] }, { [4 x i8*] }* @_ZTVN14altered_carbon2js9JsVariantE, i32 0, inrange i32 0, i32 2) to i32 (...)**), i32 (...)*** %825, align 8
  %826 = getelementptr inbounds %"cls.acjs::JsVariant", %"cls.acjs::JsVariant"* %ptr2234, i32 0, i32 1
  store i32 1, i32* %826, align 8
  %ptr2236 = alloca [2 x %"cls.acjs::JsVariant"*], align 16
  %ptr2242 = alloca %"cls.acjs::JsVariant", align 8
  %827 = bitcast %"cls.acjs::JsVariant"* %ptr2242 to i32 (...)***
  store i32 (...)** bitcast (i8** getelementptr inbounds ({ [4 x i8*] }, { [4 x i8*] }* @_ZTVN14altered_carbon2js9JsVariantE, i32 0, inrange i32 0, i32 2) to i32 (...)**), i32 (...)*** %827, align 8
  %828 = getelementptr inbounds %"cls.acjs::JsVariant", %"cls.acjs::JsVariant"* %ptr2242, i32 0, i32 1
  store i32 1, i32* %828, align 8
  %ptr2244 = alloca [1 x %"cls.acjs::JsVariant"*], align 16
  %ptr2250 = alloca %"cls.acjs::JsVariant", align 8
  %829 = bitcast %"cls.acjs::JsVariant"* %ptr2250 to i32 (...)***
  store i32 (...)** bitcast (i8** getelementptr inbounds ({ [4 x i8*] }, { [4 x i8*] }* @_ZTVN14altered_carbon2js9JsVariantE, i32 0, inrange i32 0, i32 2) to i32 (...)**), i32 (...)*** %829, align 8
  %830 = getelementptr inbounds %"cls.acjs::JsVariant", %"cls.acjs::JsVariant"* %ptr2250, i32 0, i32 1
  store i32 1, i32* %830, align 8
  %ptr2252 = alloca [1 x %"cls.acjs::JsVariant"*], align 16
  %ptr2258 = alloca %"cls.acjs::JsVariant", align 8
  %831 = bitcast %"cls.acjs::JsVariant"* %ptr2258 to i32 (...)***
  store i32 (...)** bitcast (i8** getelementptr inbounds ({ [4 x i8*] }, { [4 x i8*] }* @_ZTVN14altered_carbon2js9JsVariantE, i32 0, inrange i32 0, i32 2) to i32 (...)**), i32 (...)*** %831, align 8
  %832 = getelementptr inbounds %"cls.acjs::JsVariant", %"cls.acjs::JsVariant"* %ptr2258, i32 0, i32 1
  store i32 1, i32* %832, align 8
  %ptr2260 = alloca [1 x %"cls.acjs::JsVariant"*], align 16
  %ptr2266 = alloca %"cls.acjs::JsVariant", align 8
  %833 = bitcast %"cls.acjs::JsVariant"* %ptr2266 to i32 (...)***
  store i32 (...)** bitcast (i8** getelementptr inbounds ({ [4 x i8*] }, { [4 x i8*] }* @_ZTVN14altered_carbon2js9JsVariantE, i32 0, inrange i32 0, i32 2) to i32 (...)**), i32 (...)*** %833, align 8
  %834 = getelementptr inbounds %"cls.acjs::JsVariant", %"cls.acjs::JsVariant"* %ptr2266, i32 0, i32 1
  store i32 1, i32* %834, align 8
  %ptr2268 = alloca [1 x %"cls.acjs::JsVariant"*], align 16
  %ptr2274 = alloca %"cls.acjs::JsVariant", align 8
  %835 = bitcast %"cls.acjs::JsVariant"* %ptr2274 to i32 (...)***
  store i32 (...)** bitcast (i8** getelementptr inbounds ({ [4 x i8*] }, { [4 x i8*] }* @_ZTVN14altered_carbon2js9JsVariantE, i32 0, inrange i32 0, i32 2) to i32 (...)**), i32 (...)*** %835, align 8
  %836 = getelementptr inbounds %"cls.acjs::JsVariant", %"cls.acjs::JsVariant"* %ptr2274, i32 0, i32 1
  store i32 1, i32* %836, align 8
  %ptr2275 = alloca %"cls.acjs::JsVariant", align 8
  %837 = bitcast %"cls.acjs::JsVariant"* %ptr2275 to i32 (...)***
  store i32 (...)** bitcast (i8** getelementptr inbounds ({ [4 x i8*] }, { [4 x i8*] }* @_ZTVN14altered_carbon2js9JsVariantE, i32 0, inrange i32 0, i32 2) to i32 (...)**), i32 (...)*** %837, align 8
  %838 = getelementptr inbounds %"cls.acjs::JsVariant", %"cls.acjs::JsVariant"* %ptr2275, i32 0, i32 1
  store i32 1, i32* %838, align 8
  %ptr2276 = alloca %"cls.acjs::JsVariant", align 8
  %839 = bitcast %"cls.acjs::JsVariant"* %ptr2276 to i32 (...)***
  store i32 (...)** bitcast (i8** getelementptr inbounds ({ [4 x i8*] }, { [4 x i8*] }* @_ZTVN14altered_carbon2js9JsVariantE, i32 0, inrange i32 0, i32 2) to i32 (...)**), i32 (...)*** %839, align 8
  %840 = getelementptr inbounds %"cls.acjs::JsVariant", %"cls.acjs::JsVariant"* %ptr2276, i32 0, i32 1
  store i32 1, i32* %840, align 8
  %ptr2278 = alloca [2 x %"cls.acjs::JsVariant"*], align 16
  %ptr2284 = alloca %"cls.acjs::JsVariant", align 8
  %841 = bitcast %"cls.acjs::JsVariant"* %ptr2284 to i32 (...)***
  store i32 (...)** bitcast (i8** getelementptr inbounds ({ [4 x i8*] }, { [4 x i8*] }* @_ZTVN14altered_carbon2js9JsVariantE, i32 0, inrange i32 0, i32 2) to i32 (...)**), i32 (...)*** %841, align 8
  %842 = getelementptr inbounds %"cls.acjs::JsVariant", %"cls.acjs::JsVariant"* %ptr2284, i32 0, i32 1
  store i32 1, i32* %842, align 8
  %ptr2285 = alloca %"cls.acjs::JsVariant", align 8
  %843 = bitcast %"cls.acjs::JsVariant"* %ptr2285 to i32 (...)***
  store i32 (...)** bitcast (i8** getelementptr inbounds ({ [4 x i8*] }, { [4 x i8*] }* @_ZTVN14altered_carbon2js9JsVariantE, i32 0, inrange i32 0, i32 2) to i32 (...)**), i32 (...)*** %843, align 8
  %844 = getelementptr inbounds %"cls.acjs::JsVariant", %"cls.acjs::JsVariant"* %ptr2285, i32 0, i32 1
  store i32 1, i32* %844, align 8
  %ptr2286 = alloca %"cls.acjs::JsVariant", align 8
  %845 = bitcast %"cls.acjs::JsVariant"* %ptr2286 to i32 (...)***
  store i32 (...)** bitcast (i8** getelementptr inbounds ({ [4 x i8*] }, { [4 x i8*] }* @_ZTVN14altered_carbon2js9JsVariantE, i32 0, inrange i32 0, i32 2) to i32 (...)**), i32 (...)*** %845, align 8
  %846 = getelementptr inbounds %"cls.acjs::JsVariant", %"cls.acjs::JsVariant"* %ptr2286, i32 0, i32 1
  store i32 1, i32* %846, align 8
  %ptr2288 = alloca [2 x %"cls.acjs::JsVariant"*], align 16
  %ptr2294 = alloca %"cls.acjs::JsVariant", align 8
  %847 = bitcast %"cls.acjs::JsVariant"* %ptr2294 to i32 (...)***
  store i32 (...)** bitcast (i8** getelementptr inbounds ({ [4 x i8*] }, { [4 x i8*] }* @_ZTVN14altered_carbon2js9JsVariantE, i32 0, inrange i32 0, i32 2) to i32 (...)**), i32 (...)*** %847, align 8
  %848 = getelementptr inbounds %"cls.acjs::JsVariant", %"cls.acjs::JsVariant"* %ptr2294, i32 0, i32 1
  store i32 1, i32* %848, align 8
  %ptr2296 = alloca [2 x %"cls.acjs::JsVariant"*], align 16
  %ptr2302 = alloca %"cls.acjs::JsVariant", align 8
  %849 = bitcast %"cls.acjs::JsVariant"* %ptr2302 to i32 (...)***
  store i32 (...)** bitcast (i8** getelementptr inbounds ({ [4 x i8*] }, { [4 x i8*] }* @_ZTVN14altered_carbon2js9JsVariantE, i32 0, inrange i32 0, i32 2) to i32 (...)**), i32 (...)*** %849, align 8
  %850 = getelementptr inbounds %"cls.acjs::JsVariant", %"cls.acjs::JsVariant"* %ptr2302, i32 0, i32 1
  store i32 1, i32* %850, align 8
  %ptr2304 = alloca [1 x %"cls.acjs::JsVariant"*], align 16
  %ptr2310 = alloca %"cls.acjs::JsVariant", align 8
  %851 = bitcast %"cls.acjs::JsVariant"* %ptr2310 to i32 (...)***
  store i32 (...)** bitcast (i8** getelementptr inbounds ({ [4 x i8*] }, { [4 x i8*] }* @_ZTVN14altered_carbon2js9JsVariantE, i32 0, inrange i32 0, i32 2) to i32 (...)**), i32 (...)*** %851, align 8
  %852 = getelementptr inbounds %"cls.acjs::JsVariant", %"cls.acjs::JsVariant"* %ptr2310, i32 0, i32 1
  store i32 1, i32* %852, align 8
  %ptr2312 = alloca [1 x %"cls.acjs::JsVariant"*], align 16
  %ptr2318 = alloca %"cls.acjs::JsVariant", align 8
  %853 = bitcast %"cls.acjs::JsVariant"* %ptr2318 to i32 (...)***
  store i32 (...)** bitcast (i8** getelementptr inbounds ({ [4 x i8*] }, { [4 x i8*] }* @_ZTVN14altered_carbon2js9JsVariantE, i32 0, inrange i32 0, i32 2) to i32 (...)**), i32 (...)*** %853, align 8
  %854 = getelementptr inbounds %"cls.acjs::JsVariant", %"cls.acjs::JsVariant"* %ptr2318, i32 0, i32 1
  store i32 1, i32* %854, align 8
  %ptr2320 = alloca [1 x %"cls.acjs::JsVariant"*], align 16
  %ptr2326 = alloca %"cls.acjs::JsVariant", align 8
  %855 = bitcast %"cls.acjs::JsVariant"* %ptr2326 to i32 (...)***
  store i32 (...)** bitcast (i8** getelementptr inbounds ({ [4 x i8*] }, { [4 x i8*] }* @_ZTVN14altered_carbon2js9JsVariantE, i32 0, inrange i32 0, i32 2) to i32 (...)**), i32 (...)*** %855, align 8
  %856 = getelementptr inbounds %"cls.acjs::JsVariant", %"cls.acjs::JsVariant"* %ptr2326, i32 0, i32 1
  store i32 1, i32* %856, align 8
  %ptr2328 = alloca [1 x %"cls.acjs::JsVariant"*], align 16
  %ptr2334 = alloca %"cls.acjs::JsVariant", align 8
  %857 = bitcast %"cls.acjs::JsVariant"* %ptr2334 to i32 (...)***
  store i32 (...)** bitcast (i8** getelementptr inbounds ({ [4 x i8*] }, { [4 x i8*] }* @_ZTVN14altered_carbon2js9JsVariantE, i32 0, inrange i32 0, i32 2) to i32 (...)**), i32 (...)*** %857, align 8
  %858 = getelementptr inbounds %"cls.acjs::JsVariant", %"cls.acjs::JsVariant"* %ptr2334, i32 0, i32 1
  store i32 1, i32* %858, align 8
  %ptr2335 = alloca %"cls.acjs::JsVariant", align 8
  %859 = bitcast %"cls.acjs::JsVariant"* %ptr2335 to i32 (...)***
  store i32 (...)** bitcast (i8** getelementptr inbounds ({ [4 x i8*] }, { [4 x i8*] }* @_ZTVN14altered_carbon2js9JsVariantE, i32 0, inrange i32 0, i32 2) to i32 (...)**), i32 (...)*** %859, align 8
  %860 = getelementptr inbounds %"cls.acjs::JsVariant", %"cls.acjs::JsVariant"* %ptr2335, i32 0, i32 1
  store i32 1, i32* %860, align 8
  %ptr2336 = alloca %"cls.acjs::JsVariant", align 8
  %861 = bitcast %"cls.acjs::JsVariant"* %ptr2336 to i32 (...)***
  store i32 (...)** bitcast (i8** getelementptr inbounds ({ [4 x i8*] }, { [4 x i8*] }* @_ZTVN14altered_carbon2js9JsVariantE, i32 0, inrange i32 0, i32 2) to i32 (...)**), i32 (...)*** %861, align 8
  %862 = getelementptr inbounds %"cls.acjs::JsVariant", %"cls.acjs::JsVariant"* %ptr2336, i32 0, i32 1
  store i32 1, i32* %862, align 8
  %ptr2338 = alloca [2 x %"cls.acjs::JsVariant"*], align 16
  %ptr2344 = alloca %"cls.acjs::JsVariant", align 8
  %863 = bitcast %"cls.acjs::JsVariant"* %ptr2344 to i32 (...)***
  store i32 (...)** bitcast (i8** getelementptr inbounds ({ [4 x i8*] }, { [4 x i8*] }* @_ZTVN14altered_carbon2js9JsVariantE, i32 0, inrange i32 0, i32 2) to i32 (...)**), i32 (...)*** %863, align 8
  %864 = getelementptr inbounds %"cls.acjs::JsVariant", %"cls.acjs::JsVariant"* %ptr2344, i32 0, i32 1
  store i32 1, i32* %864, align 8
  %ptr2345 = alloca %"cls.acjs::JsVariant", align 8
  %865 = bitcast %"cls.acjs::JsVariant"* %ptr2345 to i32 (...)***
  store i32 (...)** bitcast (i8** getelementptr inbounds ({ [4 x i8*] }, { [4 x i8*] }* @_ZTVN14altered_carbon2js9JsVariantE, i32 0, inrange i32 0, i32 2) to i32 (...)**), i32 (...)*** %865, align 8
  %866 = getelementptr inbounds %"cls.acjs::JsVariant", %"cls.acjs::JsVariant"* %ptr2345, i32 0, i32 1
  store i32 1, i32* %866, align 8
  %ptr2346 = alloca %"cls.acjs::JsVariant", align 8
  %867 = bitcast %"cls.acjs::JsVariant"* %ptr2346 to i32 (...)***
  store i32 (...)** bitcast (i8** getelementptr inbounds ({ [4 x i8*] }, { [4 x i8*] }* @_ZTVN14altered_carbon2js9JsVariantE, i32 0, inrange i32 0, i32 2) to i32 (...)**), i32 (...)*** %867, align 8
  %868 = getelementptr inbounds %"cls.acjs::JsVariant", %"cls.acjs::JsVariant"* %ptr2346, i32 0, i32 1
  store i32 1, i32* %868, align 8
  %ptr2348 = alloca [2 x %"cls.acjs::JsVariant"*], align 16
  %ptr2354 = alloca %"cls.acjs::JsVariant", align 8
  %869 = bitcast %"cls.acjs::JsVariant"* %ptr2354 to i32 (...)***
  store i32 (...)** bitcast (i8** getelementptr inbounds ({ [4 x i8*] }, { [4 x i8*] }* @_ZTVN14altered_carbon2js9JsVariantE, i32 0, inrange i32 0, i32 2) to i32 (...)**), i32 (...)*** %869, align 8
  %870 = getelementptr inbounds %"cls.acjs::JsVariant", %"cls.acjs::JsVariant"* %ptr2354, i32 0, i32 1
  store i32 1, i32* %870, align 8
  %ptr2356 = alloca [2 x %"cls.acjs::JsVariant"*], align 16
  %ptr2362 = alloca %"cls.acjs::JsVariant", align 8
  %871 = bitcast %"cls.acjs::JsVariant"* %ptr2362 to i32 (...)***
  store i32 (...)** bitcast (i8** getelementptr inbounds ({ [4 x i8*] }, { [4 x i8*] }* @_ZTVN14altered_carbon2js9JsVariantE, i32 0, inrange i32 0, i32 2) to i32 (...)**), i32 (...)*** %871, align 8
  %872 = getelementptr inbounds %"cls.acjs::JsVariant", %"cls.acjs::JsVariant"* %ptr2362, i32 0, i32 1
  store i32 1, i32* %872, align 8
  %ptr2364 = alloca [1 x %"cls.acjs::JsVariant"*], align 16
  %ptr2370 = alloca %"cls.acjs::JsVariant", align 8
  %873 = bitcast %"cls.acjs::JsVariant"* %ptr2370 to i32 (...)***
  store i32 (...)** bitcast (i8** getelementptr inbounds ({ [4 x i8*] }, { [4 x i8*] }* @_ZTVN14altered_carbon2js9JsVariantE, i32 0, inrange i32 0, i32 2) to i32 (...)**), i32 (...)*** %873, align 8
  %874 = getelementptr inbounds %"cls.acjs::JsVariant", %"cls.acjs::JsVariant"* %ptr2370, i32 0, i32 1
  store i32 1, i32* %874, align 8
  %ptr2372 = alloca [1 x %"cls.acjs::JsVariant"*], align 16
  %ptr2378 = alloca %"cls.acjs::JsVariant", align 8
  %875 = bitcast %"cls.acjs::JsVariant"* %ptr2378 to i32 (...)***
  store i32 (...)** bitcast (i8** getelementptr inbounds ({ [4 x i8*] }, { [4 x i8*] }* @_ZTVN14altered_carbon2js9JsVariantE, i32 0, inrange i32 0, i32 2) to i32 (...)**), i32 (...)*** %875, align 8
  %876 = getelementptr inbounds %"cls.acjs::JsVariant", %"cls.acjs::JsVariant"* %ptr2378, i32 0, i32 1
  store i32 1, i32* %876, align 8
  %ptr2380 = alloca [1 x %"cls.acjs::JsVariant"*], align 16
  %ptr2386 = alloca %"cls.acjs::JsVariant", align 8
  %877 = bitcast %"cls.acjs::JsVariant"* %ptr2386 to i32 (...)***
  store i32 (...)** bitcast (i8** getelementptr inbounds ({ [4 x i8*] }, { [4 x i8*] }* @_ZTVN14altered_carbon2js9JsVariantE, i32 0, inrange i32 0, i32 2) to i32 (...)**), i32 (...)*** %877, align 8
  %878 = getelementptr inbounds %"cls.acjs::JsVariant", %"cls.acjs::JsVariant"* %ptr2386, i32 0, i32 1
  store i32 1, i32* %878, align 8
  %ptr2388 = alloca [1 x %"cls.acjs::JsVariant"*], align 16
  %ptr2394 = alloca %"cls.acjs::JsVariant", align 8
  %879 = bitcast %"cls.acjs::JsVariant"* %ptr2394 to i32 (...)***
  store i32 (...)** bitcast (i8** getelementptr inbounds ({ [4 x i8*] }, { [4 x i8*] }* @_ZTVN14altered_carbon2js9JsVariantE, i32 0, inrange i32 0, i32 2) to i32 (...)**), i32 (...)*** %879, align 8
  %880 = getelementptr inbounds %"cls.acjs::JsVariant", %"cls.acjs::JsVariant"* %ptr2394, i32 0, i32 1
  store i32 1, i32* %880, align 8
  %ptr2395 = alloca %"cls.acjs::JsVariant", align 8
  %881 = bitcast %"cls.acjs::JsVariant"* %ptr2395 to i32 (...)***
  store i32 (...)** bitcast (i8** getelementptr inbounds ({ [4 x i8*] }, { [4 x i8*] }* @_ZTVN14altered_carbon2js9JsVariantE, i32 0, inrange i32 0, i32 2) to i32 (...)**), i32 (...)*** %881, align 8
  %882 = getelementptr inbounds %"cls.acjs::JsVariant", %"cls.acjs::JsVariant"* %ptr2395, i32 0, i32 1
  store i32 1, i32* %882, align 8
  %ptr2396 = alloca %"cls.acjs::JsVariant", align 8
  %883 = bitcast %"cls.acjs::JsVariant"* %ptr2396 to i32 (...)***
  store i32 (...)** bitcast (i8** getelementptr inbounds ({ [4 x i8*] }, { [4 x i8*] }* @_ZTVN14altered_carbon2js9JsVariantE, i32 0, inrange i32 0, i32 2) to i32 (...)**), i32 (...)*** %883, align 8
  %884 = getelementptr inbounds %"cls.acjs::JsVariant", %"cls.acjs::JsVariant"* %ptr2396, i32 0, i32 1
  store i32 1, i32* %884, align 8
  %ptr2398 = alloca [2 x %"cls.acjs::JsVariant"*], align 16
  %ptr2404 = alloca %"cls.acjs::JsVariant", align 8
  %885 = bitcast %"cls.acjs::JsVariant"* %ptr2404 to i32 (...)***
  store i32 (...)** bitcast (i8** getelementptr inbounds ({ [4 x i8*] }, { [4 x i8*] }* @_ZTVN14altered_carbon2js9JsVariantE, i32 0, inrange i32 0, i32 2) to i32 (...)**), i32 (...)*** %885, align 8
  %886 = getelementptr inbounds %"cls.acjs::JsVariant", %"cls.acjs::JsVariant"* %ptr2404, i32 0, i32 1
  store i32 1, i32* %886, align 8
  %ptr2405 = alloca %"cls.acjs::JsVariant", align 8
  %887 = bitcast %"cls.acjs::JsVariant"* %ptr2405 to i32 (...)***
  store i32 (...)** bitcast (i8** getelementptr inbounds ({ [4 x i8*] }, { [4 x i8*] }* @_ZTVN14altered_carbon2js9JsVariantE, i32 0, inrange i32 0, i32 2) to i32 (...)**), i32 (...)*** %887, align 8
  %888 = getelementptr inbounds %"cls.acjs::JsVariant", %"cls.acjs::JsVariant"* %ptr2405, i32 0, i32 1
  store i32 1, i32* %888, align 8
  %ptr2406 = alloca %"cls.acjs::JsVariant", align 8
  %889 = bitcast %"cls.acjs::JsVariant"* %ptr2406 to i32 (...)***
  store i32 (...)** bitcast (i8** getelementptr inbounds ({ [4 x i8*] }, { [4 x i8*] }* @_ZTVN14altered_carbon2js9JsVariantE, i32 0, inrange i32 0, i32 2) to i32 (...)**), i32 (...)*** %889, align 8
  %890 = getelementptr inbounds %"cls.acjs::JsVariant", %"cls.acjs::JsVariant"* %ptr2406, i32 0, i32 1
  store i32 1, i32* %890, align 8
  %ptr2408 = alloca [2 x %"cls.acjs::JsVariant"*], align 16
  %ptr2414 = alloca %"cls.acjs::JsVariant", align 8
  %891 = bitcast %"cls.acjs::JsVariant"* %ptr2414 to i32 (...)***
  store i32 (...)** bitcast (i8** getelementptr inbounds ({ [4 x i8*] }, { [4 x i8*] }* @_ZTVN14altered_carbon2js9JsVariantE, i32 0, inrange i32 0, i32 2) to i32 (...)**), i32 (...)*** %891, align 8
  %892 = getelementptr inbounds %"cls.acjs::JsVariant", %"cls.acjs::JsVariant"* %ptr2414, i32 0, i32 1
  store i32 1, i32* %892, align 8
  %ptr2416 = alloca [2 x %"cls.acjs::JsVariant"*], align 16
  %ptr2422 = alloca %"cls.acjs::JsVariant", align 8
  %893 = bitcast %"cls.acjs::JsVariant"* %ptr2422 to i32 (...)***
  store i32 (...)** bitcast (i8** getelementptr inbounds ({ [4 x i8*] }, { [4 x i8*] }* @_ZTVN14altered_carbon2js9JsVariantE, i32 0, inrange i32 0, i32 2) to i32 (...)**), i32 (...)*** %893, align 8
  %894 = getelementptr inbounds %"cls.acjs::JsVariant", %"cls.acjs::JsVariant"* %ptr2422, i32 0, i32 1
  store i32 1, i32* %894, align 8
  %ptr2424 = alloca [1 x %"cls.acjs::JsVariant"*], align 16
  %ptr2430 = alloca %"cls.acjs::JsVariant", align 8
  %895 = bitcast %"cls.acjs::JsVariant"* %ptr2430 to i32 (...)***
  store i32 (...)** bitcast (i8** getelementptr inbounds ({ [4 x i8*] }, { [4 x i8*] }* @_ZTVN14altered_carbon2js9JsVariantE, i32 0, inrange i32 0, i32 2) to i32 (...)**), i32 (...)*** %895, align 8
  %896 = getelementptr inbounds %"cls.acjs::JsVariant", %"cls.acjs::JsVariant"* %ptr2430, i32 0, i32 1
  store i32 1, i32* %896, align 8
  %ptr2432 = alloca [1 x %"cls.acjs::JsVariant"*], align 16
  %ptr2438 = alloca %"cls.acjs::JsVariant", align 8
  %897 = bitcast %"cls.acjs::JsVariant"* %ptr2438 to i32 (...)***
  store i32 (...)** bitcast (i8** getelementptr inbounds ({ [4 x i8*] }, { [4 x i8*] }* @_ZTVN14altered_carbon2js9JsVariantE, i32 0, inrange i32 0, i32 2) to i32 (...)**), i32 (...)*** %897, align 8
  %898 = getelementptr inbounds %"cls.acjs::JsVariant", %"cls.acjs::JsVariant"* %ptr2438, i32 0, i32 1
  store i32 1, i32* %898, align 8
  %ptr2440 = alloca [1 x %"cls.acjs::JsVariant"*], align 16
  %ptr2446 = alloca %"cls.acjs::JsVariant", align 8
  %899 = bitcast %"cls.acjs::JsVariant"* %ptr2446 to i32 (...)***
  store i32 (...)** bitcast (i8** getelementptr inbounds ({ [4 x i8*] }, { [4 x i8*] }* @_ZTVN14altered_carbon2js9JsVariantE, i32 0, inrange i32 0, i32 2) to i32 (...)**), i32 (...)*** %899, align 8
  %900 = getelementptr inbounds %"cls.acjs::JsVariant", %"cls.acjs::JsVariant"* %ptr2446, i32 0, i32 1
  store i32 1, i32* %900, align 8
  %ptr2448 = alloca [1 x %"cls.acjs::JsVariant"*], align 16
  %ptr2454 = alloca %"cls.acjs::JsVariant", align 8
  %901 = bitcast %"cls.acjs::JsVariant"* %ptr2454 to i32 (...)***
  store i32 (...)** bitcast (i8** getelementptr inbounds ({ [4 x i8*] }, { [4 x i8*] }* @_ZTVN14altered_carbon2js9JsVariantE, i32 0, inrange i32 0, i32 2) to i32 (...)**), i32 (...)*** %901, align 8
  %902 = getelementptr inbounds %"cls.acjs::JsVariant", %"cls.acjs::JsVariant"* %ptr2454, i32 0, i32 1
  store i32 1, i32* %902, align 8
  %ptr2455 = alloca %"cls.acjs::JsVariant", align 8
  %903 = bitcast %"cls.acjs::JsVariant"* %ptr2455 to i32 (...)***
  store i32 (...)** bitcast (i8** getelementptr inbounds ({ [4 x i8*] }, { [4 x i8*] }* @_ZTVN14altered_carbon2js9JsVariantE, i32 0, inrange i32 0, i32 2) to i32 (...)**), i32 (...)*** %903, align 8
  %904 = getelementptr inbounds %"cls.acjs::JsVariant", %"cls.acjs::JsVariant"* %ptr2455, i32 0, i32 1
  store i32 1, i32* %904, align 8
  %ptr2456 = alloca %"cls.acjs::JsVariant", align 8
  %905 = bitcast %"cls.acjs::JsVariant"* %ptr2456 to i32 (...)***
  store i32 (...)** bitcast (i8** getelementptr inbounds ({ [4 x i8*] }, { [4 x i8*] }* @_ZTVN14altered_carbon2js9JsVariantE, i32 0, inrange i32 0, i32 2) to i32 (...)**), i32 (...)*** %905, align 8
  %906 = getelementptr inbounds %"cls.acjs::JsVariant", %"cls.acjs::JsVariant"* %ptr2456, i32 0, i32 1
  store i32 1, i32* %906, align 8
  %ptr2458 = alloca [2 x %"cls.acjs::JsVariant"*], align 16
  %ptr2464 = alloca %"cls.acjs::JsVariant", align 8
  %907 = bitcast %"cls.acjs::JsVariant"* %ptr2464 to i32 (...)***
  store i32 (...)** bitcast (i8** getelementptr inbounds ({ [4 x i8*] }, { [4 x i8*] }* @_ZTVN14altered_carbon2js9JsVariantE, i32 0, inrange i32 0, i32 2) to i32 (...)**), i32 (...)*** %907, align 8
  %908 = getelementptr inbounds %"cls.acjs::JsVariant", %"cls.acjs::JsVariant"* %ptr2464, i32 0, i32 1
  store i32 1, i32* %908, align 8
  %ptr2465 = alloca %"cls.acjs::JsVariant", align 8
  %909 = bitcast %"cls.acjs::JsVariant"* %ptr2465 to i32 (...)***
  store i32 (...)** bitcast (i8** getelementptr inbounds ({ [4 x i8*] }, { [4 x i8*] }* @_ZTVN14altered_carbon2js9JsVariantE, i32 0, inrange i32 0, i32 2) to i32 (...)**), i32 (...)*** %909, align 8
  %910 = getelementptr inbounds %"cls.acjs::JsVariant", %"cls.acjs::JsVariant"* %ptr2465, i32 0, i32 1
  store i32 1, i32* %910, align 8
  %ptr2466 = alloca %"cls.acjs::JsVariant", align 8
  %911 = bitcast %"cls.acjs::JsVariant"* %ptr2466 to i32 (...)***
  store i32 (...)** bitcast (i8** getelementptr inbounds ({ [4 x i8*] }, { [4 x i8*] }* @_ZTVN14altered_carbon2js9JsVariantE, i32 0, inrange i32 0, i32 2) to i32 (...)**), i32 (...)*** %911, align 8
  %912 = getelementptr inbounds %"cls.acjs::JsVariant", %"cls.acjs::JsVariant"* %ptr2466, i32 0, i32 1
  store i32 1, i32* %912, align 8
  %ptr2468 = alloca [2 x %"cls.acjs::JsVariant"*], align 16
  %ptr2474 = alloca %"cls.acjs::JsVariant", align 8
  %913 = bitcast %"cls.acjs::JsVariant"* %ptr2474 to i32 (...)***
  store i32 (...)** bitcast (i8** getelementptr inbounds ({ [4 x i8*] }, { [4 x i8*] }* @_ZTVN14altered_carbon2js9JsVariantE, i32 0, inrange i32 0, i32 2) to i32 (...)**), i32 (...)*** %913, align 8
  %914 = getelementptr inbounds %"cls.acjs::JsVariant", %"cls.acjs::JsVariant"* %ptr2474, i32 0, i32 1
  store i32 1, i32* %914, align 8
  %ptr2476 = alloca [2 x %"cls.acjs::JsVariant"*], align 16
  %ptr2482 = alloca %"cls.acjs::JsVariant", align 8
  %915 = bitcast %"cls.acjs::JsVariant"* %ptr2482 to i32 (...)***
  store i32 (...)** bitcast (i8** getelementptr inbounds ({ [4 x i8*] }, { [4 x i8*] }* @_ZTVN14altered_carbon2js9JsVariantE, i32 0, inrange i32 0, i32 2) to i32 (...)**), i32 (...)*** %915, align 8
  %916 = getelementptr inbounds %"cls.acjs::JsVariant", %"cls.acjs::JsVariant"* %ptr2482, i32 0, i32 1
  store i32 1, i32* %916, align 8
  %ptr2484 = alloca [1 x %"cls.acjs::JsVariant"*], align 16
  %ptr2490 = alloca %"cls.acjs::JsVariant", align 8
  %917 = bitcast %"cls.acjs::JsVariant"* %ptr2490 to i32 (...)***
  store i32 (...)** bitcast (i8** getelementptr inbounds ({ [4 x i8*] }, { [4 x i8*] }* @_ZTVN14altered_carbon2js9JsVariantE, i32 0, inrange i32 0, i32 2) to i32 (...)**), i32 (...)*** %917, align 8
  %918 = getelementptr inbounds %"cls.acjs::JsVariant", %"cls.acjs::JsVariant"* %ptr2490, i32 0, i32 1
  store i32 1, i32* %918, align 8
  %ptr2492 = alloca [1 x %"cls.acjs::JsVariant"*], align 16
  %ptr2498 = alloca %"cls.acjs::JsVariant", align 8
  %919 = bitcast %"cls.acjs::JsVariant"* %ptr2498 to i32 (...)***
  store i32 (...)** bitcast (i8** getelementptr inbounds ({ [4 x i8*] }, { [4 x i8*] }* @_ZTVN14altered_carbon2js9JsVariantE, i32 0, inrange i32 0, i32 2) to i32 (...)**), i32 (...)*** %919, align 8
  %920 = getelementptr inbounds %"cls.acjs::JsVariant", %"cls.acjs::JsVariant"* %ptr2498, i32 0, i32 1
  store i32 1, i32* %920, align 8
  %ptr2500 = alloca [1 x %"cls.acjs::JsVariant"*], align 16
  %ptr2506 = alloca %"cls.acjs::JsVariant", align 8
  %921 = bitcast %"cls.acjs::JsVariant"* %ptr2506 to i32 (...)***
  store i32 (...)** bitcast (i8** getelementptr inbounds ({ [4 x i8*] }, { [4 x i8*] }* @_ZTVN14altered_carbon2js9JsVariantE, i32 0, inrange i32 0, i32 2) to i32 (...)**), i32 (...)*** %921, align 8
  %922 = getelementptr inbounds %"cls.acjs::JsVariant", %"cls.acjs::JsVariant"* %ptr2506, i32 0, i32 1
  store i32 1, i32* %922, align 8
  %ptr2508 = alloca [1 x %"cls.acjs::JsVariant"*], align 16
  %ptr2514 = alloca %"cls.acjs::JsVariant", align 8
  %923 = bitcast %"cls.acjs::JsVariant"* %ptr2514 to i32 (...)***
  store i32 (...)** bitcast (i8** getelementptr inbounds ({ [4 x i8*] }, { [4 x i8*] }* @_ZTVN14altered_carbon2js9JsVariantE, i32 0, inrange i32 0, i32 2) to i32 (...)**), i32 (...)*** %923, align 8
  %924 = getelementptr inbounds %"cls.acjs::JsVariant", %"cls.acjs::JsVariant"* %ptr2514, i32 0, i32 1
  store i32 1, i32* %924, align 8
  %ptr2515 = alloca %"cls.acjs::JsVariant", align 8
  %925 = bitcast %"cls.acjs::JsVariant"* %ptr2515 to i32 (...)***
  store i32 (...)** bitcast (i8** getelementptr inbounds ({ [4 x i8*] }, { [4 x i8*] }* @_ZTVN14altered_carbon2js9JsVariantE, i32 0, inrange i32 0, i32 2) to i32 (...)**), i32 (...)*** %925, align 8
  %926 = getelementptr inbounds %"cls.acjs::JsVariant", %"cls.acjs::JsVariant"* %ptr2515, i32 0, i32 1
  store i32 1, i32* %926, align 8
  %ptr2516 = alloca %"cls.acjs::JsVariant", align 8
  %927 = bitcast %"cls.acjs::JsVariant"* %ptr2516 to i32 (...)***
  store i32 (...)** bitcast (i8** getelementptr inbounds ({ [4 x i8*] }, { [4 x i8*] }* @_ZTVN14altered_carbon2js9JsVariantE, i32 0, inrange i32 0, i32 2) to i32 (...)**), i32 (...)*** %927, align 8
  %928 = getelementptr inbounds %"cls.acjs::JsVariant", %"cls.acjs::JsVariant"* %ptr2516, i32 0, i32 1
  store i32 1, i32* %928, align 8
  %ptr2518 = alloca [2 x %"cls.acjs::JsVariant"*], align 16
  %ptr2524 = alloca %"cls.acjs::JsVariant", align 8
  %929 = bitcast %"cls.acjs::JsVariant"* %ptr2524 to i32 (...)***
  store i32 (...)** bitcast (i8** getelementptr inbounds ({ [4 x i8*] }, { [4 x i8*] }* @_ZTVN14altered_carbon2js9JsVariantE, i32 0, inrange i32 0, i32 2) to i32 (...)**), i32 (...)*** %929, align 8
  %930 = getelementptr inbounds %"cls.acjs::JsVariant", %"cls.acjs::JsVariant"* %ptr2524, i32 0, i32 1
  store i32 1, i32* %930, align 8
  %ptr2525 = alloca %"cls.acjs::JsVariant", align 8
  %931 = bitcast %"cls.acjs::JsVariant"* %ptr2525 to i32 (...)***
  store i32 (...)** bitcast (i8** getelementptr inbounds ({ [4 x i8*] }, { [4 x i8*] }* @_ZTVN14altered_carbon2js9JsVariantE, i32 0, inrange i32 0, i32 2) to i32 (...)**), i32 (...)*** %931, align 8
  %932 = getelementptr inbounds %"cls.acjs::JsVariant", %"cls.acjs::JsVariant"* %ptr2525, i32 0, i32 1
  store i32 1, i32* %932, align 8
  %ptr2526 = alloca %"cls.acjs::JsVariant", align 8
  %933 = bitcast %"cls.acjs::JsVariant"* %ptr2526 to i32 (...)***
  store i32 (...)** bitcast (i8** getelementptr inbounds ({ [4 x i8*] }, { [4 x i8*] }* @_ZTVN14altered_carbon2js9JsVariantE, i32 0, inrange i32 0, i32 2) to i32 (...)**), i32 (...)*** %933, align 8
  %934 = getelementptr inbounds %"cls.acjs::JsVariant", %"cls.acjs::JsVariant"* %ptr2526, i32 0, i32 1
  store i32 1, i32* %934, align 8
  %ptr2528 = alloca [2 x %"cls.acjs::JsVariant"*], align 16
  %ptr2534 = alloca %"cls.acjs::JsVariant", align 8
  %935 = bitcast %"cls.acjs::JsVariant"* %ptr2534 to i32 (...)***
  store i32 (...)** bitcast (i8** getelementptr inbounds ({ [4 x i8*] }, { [4 x i8*] }* @_ZTVN14altered_carbon2js9JsVariantE, i32 0, inrange i32 0, i32 2) to i32 (...)**), i32 (...)*** %935, align 8
  %936 = getelementptr inbounds %"cls.acjs::JsVariant", %"cls.acjs::JsVariant"* %ptr2534, i32 0, i32 1
  store i32 1, i32* %936, align 8
  %ptr2536 = alloca [2 x %"cls.acjs::JsVariant"*], align 16
  %ptr2542 = alloca %"cls.acjs::JsVariant", align 8
  %937 = bitcast %"cls.acjs::JsVariant"* %ptr2542 to i32 (...)***
  store i32 (...)** bitcast (i8** getelementptr inbounds ({ [4 x i8*] }, { [4 x i8*] }* @_ZTVN14altered_carbon2js9JsVariantE, i32 0, inrange i32 0, i32 2) to i32 (...)**), i32 (...)*** %937, align 8
  %938 = getelementptr inbounds %"cls.acjs::JsVariant", %"cls.acjs::JsVariant"* %ptr2542, i32 0, i32 1
  store i32 1, i32* %938, align 8
  %ptr2544 = alloca [1 x %"cls.acjs::JsVariant"*], align 16
  %ptr2550 = alloca %"cls.acjs::JsVariant", align 8
  %939 = bitcast %"cls.acjs::JsVariant"* %ptr2550 to i32 (...)***
  store i32 (...)** bitcast (i8** getelementptr inbounds ({ [4 x i8*] }, { [4 x i8*] }* @_ZTVN14altered_carbon2js9JsVariantE, i32 0, inrange i32 0, i32 2) to i32 (...)**), i32 (...)*** %939, align 8
  %940 = getelementptr inbounds %"cls.acjs::JsVariant", %"cls.acjs::JsVariant"* %ptr2550, i32 0, i32 1
  store i32 1, i32* %940, align 8
  %ptr2552 = alloca [1 x %"cls.acjs::JsVariant"*], align 16
  %ptr2558 = alloca %"cls.acjs::JsVariant", align 8
  %941 = bitcast %"cls.acjs::JsVariant"* %ptr2558 to i32 (...)***
  store i32 (...)** bitcast (i8** getelementptr inbounds ({ [4 x i8*] }, { [4 x i8*] }* @_ZTVN14altered_carbon2js9JsVariantE, i32 0, inrange i32 0, i32 2) to i32 (...)**), i32 (...)*** %941, align 8
  %942 = getelementptr inbounds %"cls.acjs::JsVariant", %"cls.acjs::JsVariant"* %ptr2558, i32 0, i32 1
  store i32 1, i32* %942, align 8
  %ptr2560 = alloca [1 x %"cls.acjs::JsVariant"*], align 16
  %ptr2566 = alloca %"cls.acjs::JsVariant", align 8
  %943 = bitcast %"cls.acjs::JsVariant"* %ptr2566 to i32 (...)***
  store i32 (...)** bitcast (i8** getelementptr inbounds ({ [4 x i8*] }, { [4 x i8*] }* @_ZTVN14altered_carbon2js9JsVariantE, i32 0, inrange i32 0, i32 2) to i32 (...)**), i32 (...)*** %943, align 8
  %944 = getelementptr inbounds %"cls.acjs::JsVariant", %"cls.acjs::JsVariant"* %ptr2566, i32 0, i32 1
  store i32 1, i32* %944, align 8
  %ptr2568 = alloca [1 x %"cls.acjs::JsVariant"*], align 16
  %ptr2574 = alloca %"cls.acjs::JsVariant", align 8
  %945 = bitcast %"cls.acjs::JsVariant"* %ptr2574 to i32 (...)***
  store i32 (...)** bitcast (i8** getelementptr inbounds ({ [4 x i8*] }, { [4 x i8*] }* @_ZTVN14altered_carbon2js9JsVariantE, i32 0, inrange i32 0, i32 2) to i32 (...)**), i32 (...)*** %945, align 8
  %946 = getelementptr inbounds %"cls.acjs::JsVariant", %"cls.acjs::JsVariant"* %ptr2574, i32 0, i32 1
  store i32 1, i32* %946, align 8
  %ptr2575 = alloca %"cls.acjs::JsVariant", align 8
  %947 = bitcast %"cls.acjs::JsVariant"* %ptr2575 to i32 (...)***
  store i32 (...)** bitcast (i8** getelementptr inbounds ({ [4 x i8*] }, { [4 x i8*] }* @_ZTVN14altered_carbon2js9JsVariantE, i32 0, inrange i32 0, i32 2) to i32 (...)**), i32 (...)*** %947, align 8
  %948 = getelementptr inbounds %"cls.acjs::JsVariant", %"cls.acjs::JsVariant"* %ptr2575, i32 0, i32 1
  store i32 1, i32* %948, align 8
  %ptr2576 = alloca %"cls.acjs::JsVariant", align 8
  %949 = bitcast %"cls.acjs::JsVariant"* %ptr2576 to i32 (...)***
  store i32 (...)** bitcast (i8** getelementptr inbounds ({ [4 x i8*] }, { [4 x i8*] }* @_ZTVN14altered_carbon2js9JsVariantE, i32 0, inrange i32 0, i32 2) to i32 (...)**), i32 (...)*** %949, align 8
  %950 = getelementptr inbounds %"cls.acjs::JsVariant", %"cls.acjs::JsVariant"* %ptr2576, i32 0, i32 1
  store i32 1, i32* %950, align 8
  %ptr2578 = alloca [2 x %"cls.acjs::JsVariant"*], align 16
  %ptr2584 = alloca %"cls.acjs::JsVariant", align 8
  %951 = bitcast %"cls.acjs::JsVariant"* %ptr2584 to i32 (...)***
  store i32 (...)** bitcast (i8** getelementptr inbounds ({ [4 x i8*] }, { [4 x i8*] }* @_ZTVN14altered_carbon2js9JsVariantE, i32 0, inrange i32 0, i32 2) to i32 (...)**), i32 (...)*** %951, align 8
  %952 = getelementptr inbounds %"cls.acjs::JsVariant", %"cls.acjs::JsVariant"* %ptr2584, i32 0, i32 1
  store i32 1, i32* %952, align 8
  %ptr2585 = alloca %"cls.acjs::JsVariant", align 8
  %953 = bitcast %"cls.acjs::JsVariant"* %ptr2585 to i32 (...)***
  store i32 (...)** bitcast (i8** getelementptr inbounds ({ [4 x i8*] }, { [4 x i8*] }* @_ZTVN14altered_carbon2js9JsVariantE, i32 0, inrange i32 0, i32 2) to i32 (...)**), i32 (...)*** %953, align 8
  %954 = getelementptr inbounds %"cls.acjs::JsVariant", %"cls.acjs::JsVariant"* %ptr2585, i32 0, i32 1
  store i32 1, i32* %954, align 8
  %ptr2586 = alloca %"cls.acjs::JsVariant", align 8
  %955 = bitcast %"cls.acjs::JsVariant"* %ptr2586 to i32 (...)***
  store i32 (...)** bitcast (i8** getelementptr inbounds ({ [4 x i8*] }, { [4 x i8*] }* @_ZTVN14altered_carbon2js9JsVariantE, i32 0, inrange i32 0, i32 2) to i32 (...)**), i32 (...)*** %955, align 8
  %956 = getelementptr inbounds %"cls.acjs::JsVariant", %"cls.acjs::JsVariant"* %ptr2586, i32 0, i32 1
  store i32 1, i32* %956, align 8
  %ptr2588 = alloca [2 x %"cls.acjs::JsVariant"*], align 16
  %ptr2594 = alloca %"cls.acjs::JsVariant", align 8
  %957 = bitcast %"cls.acjs::JsVariant"* %ptr2594 to i32 (...)***
  store i32 (...)** bitcast (i8** getelementptr inbounds ({ [4 x i8*] }, { [4 x i8*] }* @_ZTVN14altered_carbon2js9JsVariantE, i32 0, inrange i32 0, i32 2) to i32 (...)**), i32 (...)*** %957, align 8
  %958 = getelementptr inbounds %"cls.acjs::JsVariant", %"cls.acjs::JsVariant"* %ptr2594, i32 0, i32 1
  store i32 1, i32* %958, align 8
  %ptr2596 = alloca [2 x %"cls.acjs::JsVariant"*], align 16
  %ptr2602 = alloca %"cls.acjs::JsVariant", align 8
  %959 = bitcast %"cls.acjs::JsVariant"* %ptr2602 to i32 (...)***
  store i32 (...)** bitcast (i8** getelementptr inbounds ({ [4 x i8*] }, { [4 x i8*] }* @_ZTVN14altered_carbon2js9JsVariantE, i32 0, inrange i32 0, i32 2) to i32 (...)**), i32 (...)*** %959, align 8
  %960 = getelementptr inbounds %"cls.acjs::JsVariant", %"cls.acjs::JsVariant"* %ptr2602, i32 0, i32 1
  store i32 1, i32* %960, align 8
  %ptr2604 = alloca [1 x %"cls.acjs::JsVariant"*], align 16
  %ptr2610 = alloca %"cls.acjs::JsVariant", align 8
  %961 = bitcast %"cls.acjs::JsVariant"* %ptr2610 to i32 (...)***
  store i32 (...)** bitcast (i8** getelementptr inbounds ({ [4 x i8*] }, { [4 x i8*] }* @_ZTVN14altered_carbon2js9JsVariantE, i32 0, inrange i32 0, i32 2) to i32 (...)**), i32 (...)*** %961, align 8
  %962 = getelementptr inbounds %"cls.acjs::JsVariant", %"cls.acjs::JsVariant"* %ptr2610, i32 0, i32 1
  store i32 1, i32* %962, align 8
  %ptr2612 = alloca [1 x %"cls.acjs::JsVariant"*], align 16
  %ptr2618 = alloca %"cls.acjs::JsVariant", align 8
  %963 = bitcast %"cls.acjs::JsVariant"* %ptr2618 to i32 (...)***
  store i32 (...)** bitcast (i8** getelementptr inbounds ({ [4 x i8*] }, { [4 x i8*] }* @_ZTVN14altered_carbon2js9JsVariantE, i32 0, inrange i32 0, i32 2) to i32 (...)**), i32 (...)*** %963, align 8
  %964 = getelementptr inbounds %"cls.acjs::JsVariant", %"cls.acjs::JsVariant"* %ptr2618, i32 0, i32 1
  store i32 1, i32* %964, align 8
  %ptr2620 = alloca [1 x %"cls.acjs::JsVariant"*], align 16
  %ptr2626 = alloca %"cls.acjs::JsVariant", align 8
  %965 = bitcast %"cls.acjs::JsVariant"* %ptr2626 to i32 (...)***
  store i32 (...)** bitcast (i8** getelementptr inbounds ({ [4 x i8*] }, { [4 x i8*] }* @_ZTVN14altered_carbon2js9JsVariantE, i32 0, inrange i32 0, i32 2) to i32 (...)**), i32 (...)*** %965, align 8
  %966 = getelementptr inbounds %"cls.acjs::JsVariant", %"cls.acjs::JsVariant"* %ptr2626, i32 0, i32 1
  store i32 1, i32* %966, align 8
  %ptr2628 = alloca [1 x %"cls.acjs::JsVariant"*], align 16
  %ptr2634 = alloca %"cls.acjs::JsVariant", align 8
  %967 = bitcast %"cls.acjs::JsVariant"* %ptr2634 to i32 (...)***
  store i32 (...)** bitcast (i8** getelementptr inbounds ({ [4 x i8*] }, { [4 x i8*] }* @_ZTVN14altered_carbon2js9JsVariantE, i32 0, inrange i32 0, i32 2) to i32 (...)**), i32 (...)*** %967, align 8
  %968 = getelementptr inbounds %"cls.acjs::JsVariant", %"cls.acjs::JsVariant"* %ptr2634, i32 0, i32 1
  store i32 1, i32* %968, align 8
  %ptr2635 = alloca %"cls.acjs::JsVariant", align 8
  %969 = bitcast %"cls.acjs::JsVariant"* %ptr2635 to i32 (...)***
  store i32 (...)** bitcast (i8** getelementptr inbounds ({ [4 x i8*] }, { [4 x i8*] }* @_ZTVN14altered_carbon2js9JsVariantE, i32 0, inrange i32 0, i32 2) to i32 (...)**), i32 (...)*** %969, align 8
  %970 = getelementptr inbounds %"cls.acjs::JsVariant", %"cls.acjs::JsVariant"* %ptr2635, i32 0, i32 1
  store i32 1, i32* %970, align 8
  %ptr2636 = alloca %"cls.acjs::JsVariant", align 8
  %971 = bitcast %"cls.acjs::JsVariant"* %ptr2636 to i32 (...)***
  store i32 (...)** bitcast (i8** getelementptr inbounds ({ [4 x i8*] }, { [4 x i8*] }* @_ZTVN14altered_carbon2js9JsVariantE, i32 0, inrange i32 0, i32 2) to i32 (...)**), i32 (...)*** %971, align 8
  %972 = getelementptr inbounds %"cls.acjs::JsVariant", %"cls.acjs::JsVariant"* %ptr2636, i32 0, i32 1
  store i32 1, i32* %972, align 8
  %ptr2638 = alloca [2 x %"cls.acjs::JsVariant"*], align 16
  %ptr2644 = alloca %"cls.acjs::JsVariant", align 8
  %973 = bitcast %"cls.acjs::JsVariant"* %ptr2644 to i32 (...)***
  store i32 (...)** bitcast (i8** getelementptr inbounds ({ [4 x i8*] }, { [4 x i8*] }* @_ZTVN14altered_carbon2js9JsVariantE, i32 0, inrange i32 0, i32 2) to i32 (...)**), i32 (...)*** %973, align 8
  %974 = getelementptr inbounds %"cls.acjs::JsVariant", %"cls.acjs::JsVariant"* %ptr2644, i32 0, i32 1
  store i32 1, i32* %974, align 8
  %ptr2645 = alloca %"cls.acjs::JsVariant", align 8
  %975 = bitcast %"cls.acjs::JsVariant"* %ptr2645 to i32 (...)***
  store i32 (...)** bitcast (i8** getelementptr inbounds ({ [4 x i8*] }, { [4 x i8*] }* @_ZTVN14altered_carbon2js9JsVariantE, i32 0, inrange i32 0, i32 2) to i32 (...)**), i32 (...)*** %975, align 8
  %976 = getelementptr inbounds %"cls.acjs::JsVariant", %"cls.acjs::JsVariant"* %ptr2645, i32 0, i32 1
  store i32 1, i32* %976, align 8
  %ptr2646 = alloca %"cls.acjs::JsVariant", align 8
  %977 = bitcast %"cls.acjs::JsVariant"* %ptr2646 to i32 (...)***
  store i32 (...)** bitcast (i8** getelementptr inbounds ({ [4 x i8*] }, { [4 x i8*] }* @_ZTVN14altered_carbon2js9JsVariantE, i32 0, inrange i32 0, i32 2) to i32 (...)**), i32 (...)*** %977, align 8
  %978 = getelementptr inbounds %"cls.acjs::JsVariant", %"cls.acjs::JsVariant"* %ptr2646, i32 0, i32 1
  store i32 1, i32* %978, align 8
  %ptr2648 = alloca [2 x %"cls.acjs::JsVariant"*], align 16
  %ptr2654 = alloca %"cls.acjs::JsVariant", align 8
  %979 = bitcast %"cls.acjs::JsVariant"* %ptr2654 to i32 (...)***
  store i32 (...)** bitcast (i8** getelementptr inbounds ({ [4 x i8*] }, { [4 x i8*] }* @_ZTVN14altered_carbon2js9JsVariantE, i32 0, inrange i32 0, i32 2) to i32 (...)**), i32 (...)*** %979, align 8
  %980 = getelementptr inbounds %"cls.acjs::JsVariant", %"cls.acjs::JsVariant"* %ptr2654, i32 0, i32 1
  store i32 1, i32* %980, align 8
  %ptr2656 = alloca [2 x %"cls.acjs::JsVariant"*], align 16
  %ptr2662 = alloca %"cls.acjs::JsVariant", align 8
  %981 = bitcast %"cls.acjs::JsVariant"* %ptr2662 to i32 (...)***
  store i32 (...)** bitcast (i8** getelementptr inbounds ({ [4 x i8*] }, { [4 x i8*] }* @_ZTVN14altered_carbon2js9JsVariantE, i32 0, inrange i32 0, i32 2) to i32 (...)**), i32 (...)*** %981, align 8
  %982 = getelementptr inbounds %"cls.acjs::JsVariant", %"cls.acjs::JsVariant"* %ptr2662, i32 0, i32 1
  store i32 1, i32* %982, align 8
  %ptr2664 = alloca [1 x %"cls.acjs::JsVariant"*], align 16
  %ptr2670 = alloca %"cls.acjs::JsVariant", align 8
  %983 = bitcast %"cls.acjs::JsVariant"* %ptr2670 to i32 (...)***
  store i32 (...)** bitcast (i8** getelementptr inbounds ({ [4 x i8*] }, { [4 x i8*] }* @_ZTVN14altered_carbon2js9JsVariantE, i32 0, inrange i32 0, i32 2) to i32 (...)**), i32 (...)*** %983, align 8
  %984 = getelementptr inbounds %"cls.acjs::JsVariant", %"cls.acjs::JsVariant"* %ptr2670, i32 0, i32 1
  store i32 1, i32* %984, align 8
  %ptr2672 = alloca [1 x %"cls.acjs::JsVariant"*], align 16
  %ptr2678 = alloca %"cls.acjs::JsVariant", align 8
  %985 = bitcast %"cls.acjs::JsVariant"* %ptr2678 to i32 (...)***
  store i32 (...)** bitcast (i8** getelementptr inbounds ({ [4 x i8*] }, { [4 x i8*] }* @_ZTVN14altered_carbon2js9JsVariantE, i32 0, inrange i32 0, i32 2) to i32 (...)**), i32 (...)*** %985, align 8
  %986 = getelementptr inbounds %"cls.acjs::JsVariant", %"cls.acjs::JsVariant"* %ptr2678, i32 0, i32 1
  store i32 1, i32* %986, align 8
  %ptr2680 = alloca [1 x %"cls.acjs::JsVariant"*], align 16
  %ptr2686 = alloca %"cls.acjs::JsVariant", align 8
  %987 = bitcast %"cls.acjs::JsVariant"* %ptr2686 to i32 (...)***
  store i32 (...)** bitcast (i8** getelementptr inbounds ({ [4 x i8*] }, { [4 x i8*] }* @_ZTVN14altered_carbon2js9JsVariantE, i32 0, inrange i32 0, i32 2) to i32 (...)**), i32 (...)*** %987, align 8
  %988 = getelementptr inbounds %"cls.acjs::JsVariant", %"cls.acjs::JsVariant"* %ptr2686, i32 0, i32 1
  store i32 1, i32* %988, align 8
  %ptr2688 = alloca [1 x %"cls.acjs::JsVariant"*], align 16
  %ptr2694 = alloca %"cls.acjs::JsVariant", align 8
  %989 = bitcast %"cls.acjs::JsVariant"* %ptr2694 to i32 (...)***
