; ModuleID = 'break1.js'
source_filename = "break1.js"

%"cls.acjs::JsVariant" = type { i32 (...)**, i32, %union.anon.6 }
%union.anon.6 = type { %"cls.acjs::JsVariantFunc", [24 x i8] }
%"cls.acjs::JsVariantFunc" = type { void (%"cls.acjs::JsVariant"*, %"cls.acjs::JsVariant"*, %"cls.acjs::JsVariant"**, i64)*, i32* }
%"cls.acjs::JsVariantNumber" = type <{ i64, double, i8, [16 x i8] }>

@_ZTVN10__cxxabiv117__class_type_infoE = external global i8*
@_ZTSN14altered_carbon2js9JsVariantE = linkonce_odr constant [32 x i8] c"N14altered_carbon2js9JsVariantE\00"
@_ZTIN14altered_carbon2js9JsVariantE = linkonce_odr constant { i8*, i8* } { i8* bitcast (i8** getelementptr inbounds (i8*, i8** @_ZTVN10__cxxabiv117__class_type_infoE, i64 2) to i8*), i8* getelementptr inbounds ([32 x i8], [32 x i8]* @_ZTSN14altered_carbon2js9JsVariantE, i32 0, i32 0) }
@_ZTVN14altered_carbon2js9JsVariantE = linkonce_odr unnamed_addr constant { [4 x i8*] } { [4 x i8*] [i8* null, i8* bitcast ({ i8*, i8* }* @_ZTIN14altered_carbon2js9JsVariantE to i8*), i8* bitcast (void (%"cls.acjs::JsVariant"*)* @_ZN14altered_carbon2js9JsVariantD1Ev to i8*), i8* bitcast (void (%"cls.acjs::JsVariant"*)* @_ZN14altered_carbon2js9JsVariantD0Ev to i8*)] }, align 8
@_ZN14altered_carbon2js11JsConstants9UndefinedE = external constant %"cls.acjs::JsVariant"
@_ZN14altered_carbon2js11JsConstants4NullE = external constant %"cls.acjs::JsVariant"
@_ZN14altered_carbon2js11JsConstants3NaNE = external constant %"cls.acjs::JsVariant"
@_ZN14altered_carbon2js11JsConstants8InfinityE = external constant %"cls.acjs::JsVariant"
@_ZN14altered_carbon2js11JsConstants9TypeErrorE = external constant %"cls.acjs::JsVariant"
@_ZN14altered_carbon2js11JsConstants16NullPointerErrorE = external constant %"cls.acjs::JsVariant"
@.wstr = private unnamed_addr constant [10 x i32] [i32 98, i32 114, i32 101, i32 97, i32 107, i32 116, i32 101, i32 115, i32 116, i32 0], align 4

declare void @_ZN14altered_carbon2js9JsVariantD1Ev(%"cls.acjs::JsVariant"*)

declare void @_ZN14altered_carbon2js9JsVariantD0Ev(%"cls.acjs::JsVariant"*)

declare dereferenceable(56) %"cls.acjs::JsVariant"* @_ZNK14altered_carbon2js9JsVariant3bwaEPS1_RKS1_(%"cls.acjs::JsVariant"*, %"cls.acjs::JsVariant"*, %"cls.acjs::JsVariant"* dereferenceable(56))

declare dereferenceable(56) %"cls.acjs::JsVariant"* @_ZNK14altered_carbon2js9JsVariant3bwxEPS1_RKS1_(%"cls.acjs::JsVariant"*, %"cls.acjs::JsVariant"*, %"cls.acjs::JsVariant"* dereferenceable(56))

declare zeroext i1 @_ZNK14altered_carbon2js9JsVarianteqERKS1_(%"cls.acjs::JsVariant"*, %"cls.acjs::JsVariant"* dereferenceable(56))

declare zeroext i1 @_ZNK14altered_carbon2js9JsVariantneERKS1_(%"cls.acjs::JsVariant"*, %"cls.acjs::JsVariant"* dereferenceable(56))

declare zeroext i1 @_ZNK14altered_carbon2js9JsVariant4eqvtERKS1_(%"cls.acjs::JsVariant"*, %"cls.acjs::JsVariant"* dereferenceable(56))

declare zeroext i1 @_ZNK14altered_carbon2js9JsVariant4nevtERKS1_(%"cls.acjs::JsVariant"*, %"cls.acjs::JsVariant"* dereferenceable(56))

declare zeroext i1 @_ZNK14altered_carbon2js9JsVariantltERKS1_(%"cls.acjs::JsVariant"*, %"cls.acjs::JsVariant"* dereferenceable(56))

declare zeroext i1 @_ZNK14altered_carbon2js9JsVariantgtERKS1_(%"cls.acjs::JsVariant"*, %"cls.acjs::JsVariant"* dereferenceable(56))

declare zeroext i1 @_ZNK14altered_carbon2js9JsVariantleERKS1_(%"cls.acjs::JsVariant"*, %"cls.acjs::JsVariant"* dereferenceable(56))

declare zeroext i1 @_ZNK14altered_carbon2js9JsVariantgeERKS1_(%"cls.acjs::JsVariant"*, %"cls.acjs::JsVariant"* dereferenceable(56))

declare dereferenceable(56) %"cls.acjs::JsVariant"* @_ZNK14altered_carbon2js9JsVariant3ltsEPS1_RKS1_(%"cls.acjs::JsVariant"*, %"cls.acjs::JsVariant"*, %"cls.acjs::JsVariant"* dereferenceable(56))

declare dereferenceable(56) %"cls.acjs::JsVariant"* @_ZNK14altered_carbon2js9JsVariant3rtsEPS1_RKS1_(%"cls.acjs::JsVariant"*, %"cls.acjs::JsVariant"*, %"cls.acjs::JsVariant"* dereferenceable(56))

declare dereferenceable(56) %"cls.acjs::JsVariant"* @_ZNK14altered_carbon2js9JsVariant3rszEPS1_RKS1_(%"cls.acjs::JsVariant"*, %"cls.acjs::JsVariant"*, %"cls.acjs::JsVariant"* dereferenceable(56))

declare dereferenceable(56) %"cls.acjs::JsVariant"* @_ZNK14altered_carbon2js9JsVariant3addEPS1_RKS1_(%"cls.acjs::JsVariant"*, %"cls.acjs::JsVariant"*, %"cls.acjs::JsVariant"* dereferenceable(56))

declare void @_ZN14altered_carbon2js9JsVariantpsEv(%"cls.acjs::JsVariant"* noalias sret, %"cls.acjs::JsVariant"*)

declare dereferenceable(56) %"cls.acjs::JsVariant"* @_ZNK14altered_carbon2js9JsVariant3subEPS1_RKS1_(%"cls.acjs::JsVariant"*, %"cls.acjs::JsVariant"*, %"cls.acjs::JsVariant"* dereferenceable(56))

declare void @_ZN14altered_carbon2js9JsVariantngEv(%"cls.acjs::JsVariant"* noalias sret, %"cls.acjs::JsVariant"*)

declare dereferenceable(56) %"cls.acjs::JsVariant"* @_ZNK14altered_carbon2js9JsVariant3mulEPS1_RKS1_(%"cls.acjs::JsVariant"*, %"cls.acjs::JsVariant"*, %"cls.acjs::JsVariant"* dereferenceable(56))

declare dereferenceable(56) %"cls.acjs::JsVariant"* @_ZNK14altered_carbon2js9JsVariant3divEPS1_RKS1_(%"cls.acjs::JsVariant"*, %"cls.acjs::JsVariant"*, %"cls.acjs::JsVariant"* dereferenceable(56))

declare dereferenceable(56) %"cls.acjs::JsVariant"* @_ZNK14altered_carbon2js9JsVariant3modEPS1_RKS1_(%"cls.acjs::JsVariant"*, %"cls.acjs::JsVariant"*, %"cls.acjs::JsVariant"* dereferenceable(56))

declare void @_ZN14altered_carbon2js9JsVariantcoEv(%"cls.acjs::JsVariant"* noalias sret, %"cls.acjs::JsVariant"*)

declare void @_ZN14altered_carbon2js9JsVariantppEi(%"cls.acjs::JsVariant"* noalias sret, %"cls.acjs::JsVariant"*, i32)

declare dereferenceable(56) %"cls.acjs::JsVariant"* @_ZN14altered_carbon2js9JsVariantppEv(%"cls.acjs::JsVariant"*)

declare void @_ZN14altered_carbon2js9JsVariantmmEi(%"cls.acjs::JsVariant"* noalias sret, %"cls.acjs::JsVariant"*, i32)

declare dereferenceable(56) %"cls.acjs::JsVariant"* @_ZN14altered_carbon2js9JsVariantmmEv(%"cls.acjs::JsVariant"*)

declare dereferenceable(56) %"cls.acjs::JsVariant"* @_ZN14altered_carbon2js9JsVariantaSERKS1_(%"cls.acjs::JsVariant"*, %"cls.acjs::JsVariant"* dereferenceable(56))

declare dereferenceable(56) %"cls.acjs::JsVariant"* @_ZN14altered_carbon2js9JsVariantpLERKS1_(%"cls.acjs::JsVariant"*, %"cls.acjs::JsVariant"* dereferenceable(56))

declare dereferenceable(56) %"cls.acjs::JsVariant"* @_ZN14altered_carbon2js9JsVariantmIERKS1_(%"cls.acjs::JsVariant"*, %"cls.acjs::JsVariant"* dereferenceable(56))

declare dereferenceable(56) %"cls.acjs::JsVariant"* @_ZN14altered_carbon2js9JsVariantmLERKS1_(%"cls.acjs::JsVariant"*, %"cls.acjs::JsVariant"* dereferenceable(56))

declare dereferenceable(56) %"cls.acjs::JsVariant"* @_ZN14altered_carbon2js9JsVariantdVERKS1_(%"cls.acjs::JsVariant"*, %"cls.acjs::JsVariant"* dereferenceable(56))

declare dereferenceable(56) %"cls.acjs::JsVariant"* @_ZN14altered_carbon2js9JsVariantrMERKS1_(%"cls.acjs::JsVariant"*, %"cls.acjs::JsVariant"* dereferenceable(56))

declare dereferenceable(56) %"cls.acjs::JsVariant"* @_ZN14altered_carbon2js9JsVariantlSERKS1_(%"cls.acjs::JsVariant"*, %"cls.acjs::JsVariant"* dereferenceable(56))

declare dereferenceable(56) %"cls.acjs::JsVariant"* @_ZN14altered_carbon2js9JsVariantrSERKS1_(%"cls.acjs::JsVariant"*, %"cls.acjs::JsVariant"* dereferenceable(56))

declare dereferenceable(56) %"cls.acjs::JsVariant"* @_ZN14altered_carbon2js9JsVariant4arszERKS1_(%"cls.acjs::JsVariant"*, %"cls.acjs::JsVariant"* dereferenceable(56))

declare dereferenceable(56) %"cls.acjs::JsVariant"* @_ZN14altered_carbon2js9JsVariantaNERKS1_(%"cls.acjs::JsVariant"*, %"cls.acjs::JsVariant"* dereferenceable(56))

declare dereferenceable(56) %"cls.acjs::JsVariant"* @_ZN14altered_carbon2js9JsVariantoRERKS1_(%"cls.acjs::JsVariant"*, %"cls.acjs::JsVariant"* dereferenceable(56))

declare dereferenceable(56) %"cls.acjs::JsVariant"* @_ZN14altered_carbon2js9JsVarianteOERKS1_(%"cls.acjs::JsVariant"*, %"cls.acjs::JsVariant"* dereferenceable(56))

define void @_Z7_scriptPN14altered_carbon2js9JsVariantE(%"cls.acjs::JsVariant"*) {
init.bb:
  %ptr = alloca %"cls.acjs::JsVariant", align 8
  %1 = bitcast %"cls.acjs::JsVariant"* %ptr to i32 (...)***
  store i32 (...)** bitcast (i8** getelementptr inbounds ({ [4 x i8*] }, { [4 x i8*] }* @_ZTVN14altered_carbon2js9JsVariantE, i32 0, inrange i32 0, i32 2) to i32 (...)**), i32 (...)*** %1, align 8
  %2 = getelementptr inbounds %"cls.acjs::JsVariant", %"cls.acjs::JsVariant"* %ptr, i32 0, i32 1
  store i32 15, i32* %2, align 8
  %ptr1 = alloca %"cls.acjs::JsVariant", align 8
  %3 = bitcast %"cls.acjs::JsVariant"* %ptr1 to i32 (...)***
  store i32 (...)** bitcast (i8** getelementptr inbounds ({ [4 x i8*] }, { [4 x i8*] }* @_ZTVN14altered_carbon2js9JsVariantE, i32 0, inrange i32 0, i32 2) to i32 (...)**), i32 (...)*** %3, align 8
  %4 = getelementptr inbounds %"cls.acjs::JsVariant", %"cls.acjs::JsVariant"* %ptr1, i32 0, i32 1
  store i32 1, i32* %4, align 8
  %ptr2 = alloca [1 x %"cls.acjs::JsVariant"*], align 16
  %ptr3 = alloca %"cls.acjs::JsVariant", align 8
  %5 = bitcast %"cls.acjs::JsVariant"* %ptr3 to i32 (...)***
  store i32 (...)** bitcast (i8** getelementptr inbounds ({ [4 x i8*] }, { [4 x i8*] }* @_ZTVN14altered_carbon2js9JsVariantE, i32 0, inrange i32 0, i32 2) to i32 (...)**), i32 (...)*** %5, align 8
  %6 = getelementptr inbounds %"cls.acjs::JsVariant", %"cls.acjs::JsVariant"* %ptr3, i32 0, i32 1
  store i32 1, i32* %6, align 8
  %ptr4 = alloca %"cls.acjs::JsVariant", align 8
  %7 = bitcast %"cls.acjs::JsVariant"* %ptr4 to i32 (...)***
  store i32 (...)** bitcast (i8** getelementptr inbounds ({ [4 x i8*] }, { [4 x i8*] }* @_ZTVN14altered_carbon2js9JsVariantE, i32 0, inrange i32 0, i32 2) to i32 (...)**), i32 (...)*** %7, align 8
  %8 = getelementptr inbounds %"cls.acjs::JsVariant", %"cls.acjs::JsVariant"* %ptr4, i32 0, i32 1
  store i32 1, i32* %8, align 8
  br label %exec.bb

exec.bb:                                          ; preds = %init.bb
  %9 = getelementptr inbounds %"cls.acjs::JsVariant", %"cls.acjs::JsVariant"* %ptr, i32 0, i32 2
  %10 = bitcast %union.anon.6* %9 to %"cls.acjs::JsVariantFunc"*
  %11 = getelementptr inbounds %"cls.acjs::JsVariantFunc", %"cls.acjs::JsVariantFunc"* %10, i32 0, i32 0
  store void (%"cls.acjs::JsVariant"*, %"cls.acjs::JsVariant"*, %"cls.acjs::JsVariant"**, i64)* @_ZN3_js9breaktestEPN14altered_carbon2js9JsVariantEN4llvm8ArrayRefIS3_EE, void (%"cls.acjs::JsVariant"*, %"cls.acjs::JsVariant"*, %"cls.acjs::JsVariant"**, i64)** %11, align 8
  %12 = getelementptr inbounds %"cls.acjs::JsVariantFunc", %"cls.acjs::JsVariantFunc"* %10, i32 0, i32 1
  store i32* getelementptr inbounds ([10 x i32], [10 x i32]* @.wstr, i32 0, i32 0), i32** %12, align 8
  %13 = call %"cls.acjs::JsVariant"* @_ZN14altered_carbon2js9JsVariantaSEx(%"cls.acjs::JsVariant"* %ptr1, i64 1)
  %14 = getelementptr inbounds [1 x %"cls.acjs::JsVariant"*], [1 x %"cls.acjs::JsVariant"*]* %ptr2, i32 0, i32 0
  %15 = getelementptr inbounds %"cls.acjs::JsVariant"*, %"cls.acjs::JsVariant"** %14, i64 0
  store %"cls.acjs::JsVariant"* %ptr1, %"cls.acjs::JsVariant"** %15, align 8
  call void @_ZN3_js9breaktestEPN14altered_carbon2js9JsVariantEN4llvm8ArrayRefIS3_EE(%"cls.acjs::JsVariant"* %ptr3, %"cls.acjs::JsVariant"* null, %"cls.acjs::JsVariant"** %14, i64 1)
  %16 = getelementptr inbounds %"cls.acjs::JsVariant", %"cls.acjs::JsVariant"* %ptr4, i32 0, i32 1
  %17 = load i32, i32* %16, align 8
  %18 = icmp sle i32 %17, 6
  %19 = getelementptr inbounds %"cls.acjs::JsVariant", %"cls.acjs::JsVariant"* %ptr3, i32 0, i32 1
  %20 = load i32, i32* %19, align 8
  %21 = icmp sle i32 %20, 6
  %22 = and i1 %18, %21
  br i1 %22, label %copy.bb, label %fallback.bb

exit.bb:                                          ; preds = %copy.bbe
  %23 = call %"cls.acjs::JsVariant"* @_ZN14altered_carbon2js9JsVariantaSERKS1_(%"cls.acjs::JsVariant"* %0, %"cls.acjs::JsVariant"* dereferenceable(56) %ptr4)
  call void @_ZN14altered_carbon2js9JsVariantD1Ev(%"cls.acjs::JsVariant"* %ptr4)
  call void @_ZN14altered_carbon2js9JsVariantD1Ev(%"cls.acjs::JsVariant"* %ptr3)
  call void @_ZN14altered_carbon2js9JsVariantD1Ev(%"cls.acjs::JsVariant"* %ptr1)
  call void @_ZN14altered_carbon2js9JsVariantD1Ev(%"cls.acjs::JsVariant"* %ptr)
  ret void

copy.bb:                                          ; preds = %exec.bb
  switch i32 %20, label %fallback.bb [
    i32 -2, label %caseerr.bb
    i32 0, label %casenul_unf.bb
    i32 1, label %casenul_unf.bb
    i32 6, label %casebln.bb
    i32 2, label %casenum.bb
  ]

copy.bbe:                                         ; preds = %fallback.bb, %casenum.bb, %casebln.bb, %casenul_unf.bb, %caseerr.bb
  br label %exit.bb

fallback.bb:                                      ; preds = %copy.bb, %exec.bb
  %24 = call %"cls.acjs::JsVariant"* @_ZN14altered_carbon2js9JsVariantaSERKS1_(%"cls.acjs::JsVariant"* %ptr4, %"cls.acjs::JsVariant"* %ptr3)
  br label %copy.bbe

caseerr.bb:                                       ; preds = %copy.bb
  store i32 %20, i32* %16, align 8
  %25 = getelementptr inbounds %"cls.acjs::JsVariant", %"cls.acjs::JsVariant"* %ptr3, i32 0, i32 2
  %26 = bitcast %union.anon.6* %25 to i8**
  %27 = load i8*, i8** %26, align 8
  %28 = getelementptr inbounds %"cls.acjs::JsVariant", %"cls.acjs::JsVariant"* %ptr4, i32 0, i32 2
  %29 = bitcast %union.anon.6* %28 to i8**
  store i8* %27, i8** %29, align 8
  br label %copy.bbe

casenul_unf.bb:                                   ; preds = %copy.bb, %copy.bb
  store i32 %20, i32* %16, align 8
  br label %copy.bbe

casebln.bb:                                       ; preds = %copy.bb
  store i32 %20, i32* %16, align 8
  %30 = getelementptr inbounds %"cls.acjs::JsVariant", %"cls.acjs::JsVariant"* %ptr3, i32 0, i32 2
  %31 = bitcast %union.anon.6* %30 to i8*
  %32 = load i8, i8* %31, align 8
  %33 = getelementptr inbounds %"cls.acjs::JsVariant", %"cls.acjs::JsVariant"* %ptr4, i32 0, i32 2
  %34 = bitcast %union.anon.6* %33 to i8*
  store i8 %32, i8* %34, align 1
  br label %copy.bbe

casenum.bb:                                       ; preds = %copy.bb
  store i32 %20, i32* %16, align 8
  %35 = getelementptr inbounds %"cls.acjs::JsVariant", %"cls.acjs::JsVariant"* %ptr3, i32 0, i32 2
  %36 = bitcast %union.anon.6* %35 to %"cls.acjs::JsVariantNumber"*
  %37 = getelementptr inbounds %"cls.acjs::JsVariantNumber", %"cls.acjs::JsVariantNumber"* %36, i32 0, i32 0
  %38 = load i64, i64* %37, align 8
  %39 = getelementptr inbounds %"cls.acjs::JsVariantNumber", %"cls.acjs::JsVariantNumber"* %36, i32 0, i32 1
  %40 = load double, double* %39, align 8
  %41 = getelementptr inbounds %"cls.acjs::JsVariantNumber", %"cls.acjs::JsVariantNumber"* %36, i32 0, i32 2
  %42 = load i8, i8* %41, align 8
  %43 = getelementptr inbounds %"cls.acjs::JsVariant", %"cls.acjs::JsVariant"* %ptr4, i32 0, i32 2
  %44 = bitcast %union.anon.6* %43 to %"cls.acjs::JsVariantNumber"*
  %45 = getelementptr inbounds %"cls.acjs::JsVariantNumber", %"cls.acjs::JsVariantNumber"* %44, i32 0, i32 0
  store i64 %38, i64* %45, align 8
  %46 = getelementptr inbounds %"cls.acjs::JsVariantNumber", %"cls.acjs::JsVariantNumber"* %44, i32 0, i32 1
  store double %40, double* %46, align 8
  %47 = getelementptr inbounds %"cls.acjs::JsVariantNumber", %"cls.acjs::JsVariantNumber"* %44, i32 0, i32 2
  store i8 %42, i8* %47, align 8
  br label %copy.bbe
}

define void @_ZN3_js9breaktestEPN14altered_carbon2js9JsVariantEN4llvm8ArrayRefIS3_EE(%"cls.acjs::JsVariant"* noalias sret, %"cls.acjs::JsVariant"*, %"cls.acjs::JsVariant"**, i64) {
init.bb:
  %ptr = alloca %"cls.acjs::JsVariant"*, align 8
  %ptr2 = alloca %"cls.acjs::JsVariant", align 8
  %4 = bitcast %"cls.acjs::JsVariant"* %ptr2 to i32 (...)***
  store i32 (...)** bitcast (i8** getelementptr inbounds ({ [4 x i8*] }, { [4 x i8*] }* @_ZTVN14altered_carbon2js9JsVariantE, i32 0, inrange i32 0, i32 2) to i32 (...)**), i32 (...)*** %4, align 8
  %5 = getelementptr inbounds %"cls.acjs::JsVariant", %"cls.acjs::JsVariant"* %ptr2, i32 0, i32 1
  store i32 1, i32* %5, align 8
  %ptr3 = alloca %"cls.acjs::JsVariant", align 8
  %6 = bitcast %"cls.acjs::JsVariant"* %ptr3 to i32 (...)***
  store i32 (...)** bitcast (i8** getelementptr inbounds ({ [4 x i8*] }, { [4 x i8*] }* @_ZTVN14altered_carbon2js9JsVariantE, i32 0, inrange i32 0, i32 2) to i32 (...)**), i32 (...)*** %6, align 8
  %7 = getelementptr inbounds %"cls.acjs::JsVariant", %"cls.acjs::JsVariant"* %ptr3, i32 0, i32 1
  store i32 1, i32* %7, align 8
  %ptr4 = alloca %"cls.acjs::JsVariant", align 8
  %8 = bitcast %"cls.acjs::JsVariant"* %ptr4 to i32 (...)***
  store i32 (...)** bitcast (i8** getelementptr inbounds ({ [4 x i8*] }, { [4 x i8*] }* @_ZTVN14altered_carbon2js9JsVariantE, i32 0, inrange i32 0, i32 2) to i32 (...)**), i32 (...)*** %8, align 8
  %9 = getelementptr inbounds %"cls.acjs::JsVariant", %"cls.acjs::JsVariant"* %ptr4, i32 0, i32 1
  store i32 1, i32* %9, align 8
  %ptr8 = alloca %"cls.acjs::JsVariant", align 8
  %10 = bitcast %"cls.acjs::JsVariant"* %ptr8 to i32 (...)***
  store i32 (...)** bitcast (i8** getelementptr inbounds ({ [4 x i8*] }, { [4 x i8*] }* @_ZTVN14altered_carbon2js9JsVariantE, i32 0, inrange i32 0, i32 2) to i32 (...)**), i32 (...)*** %10, align 8
  %11 = getelementptr inbounds %"cls.acjs::JsVariant", %"cls.acjs::JsVariant"* %ptr8, i32 0, i32 1
  store i32 1, i32* %11, align 8
  %ptr9 = alloca %"cls.acjs::JsVariant", align 8
  %12 = bitcast %"cls.acjs::JsVariant"* %ptr9 to i32 (...)***
  store i32 (...)** bitcast (i8** getelementptr inbounds ({ [4 x i8*] }, { [4 x i8*] }* @_ZTVN14altered_carbon2js9JsVariantE, i32 0, inrange i32 0, i32 2) to i32 (...)**), i32 (...)*** %12, align 8
  %13 = getelementptr inbounds %"cls.acjs::JsVariant", %"cls.acjs::JsVariant"* %ptr9, i32 0, i32 1
  store i32 1, i32* %13, align 8
  %ptr10 = alloca %"cls.acjs::JsVariant", align 8
  %ptr12 = alloca %"cls.acjs::JsVariant", align 8
  %14 = bitcast %"cls.acjs::JsVariant"* %ptr12 to i32 (...)***
  store i32 (...)** bitcast (i8** getelementptr inbounds ({ [4 x i8*] }, { [4 x i8*] }* @_ZTVN14altered_carbon2js9JsVariantE, i32 0, inrange i32 0, i32 2) to i32 (...)**), i32 (...)*** %14, align 8
  %15 = getelementptr inbounds %"cls.acjs::JsVariant", %"cls.acjs::JsVariant"* %ptr12, i32 0, i32 1
  store i32 1, i32* %15, align 8
  %ptr13 = alloca %"cls.acjs::JsVariant", align 8
  %16 = bitcast %"cls.acjs::JsVariant"* %ptr13 to i32 (...)***
  store i32 (...)** bitcast (i8** getelementptr inbounds ({ [4 x i8*] }, { [4 x i8*] }* @_ZTVN14altered_carbon2js9JsVariantE, i32 0, inrange i32 0, i32 2) to i32 (...)**), i32 (...)*** %16, align 8
  %17 = getelementptr inbounds %"cls.acjs::JsVariant", %"cls.acjs::JsVariant"* %ptr13, i32 0, i32 1
  store i32 1, i32* %17, align 8
  %ptr14 = alloca %"cls.acjs::JsVariant", align 8
  %18 = bitcast %"cls.acjs::JsVariant"* %ptr14 to i32 (...)***
  store i32 (...)** bitcast (i8** getelementptr inbounds ({ [4 x i8*] }, { [4 x i8*] }* @_ZTVN14altered_carbon2js9JsVariantE, i32 0, inrange i32 0, i32 2) to i32 (...)**), i32 (...)*** %18, align 8
  %19 = getelementptr inbounds %"cls.acjs::JsVariant", %"cls.acjs::JsVariant"* %ptr14, i32 0, i32 1
  store i32 1, i32* %19, align 8
  %ptr15 = alloca %"cls.acjs::JsVariant", align 8
  %20 = bitcast %"cls.acjs::JsVariant"* %ptr15 to i32 (...)***
  store i32 (...)** bitcast (i8** getelementptr inbounds ({ [4 x i8*] }, { [4 x i8*] }* @_ZTVN14altered_carbon2js9JsVariantE, i32 0, inrange i32 0, i32 2) to i32 (...)**), i32 (...)*** %20, align 8
  %21 = getelementptr inbounds %"cls.acjs::JsVariant", %"cls.acjs::JsVariant"* %ptr15, i32 0, i32 1
  store i32 1, i32* %21, align 8
  %ptr19 = alloca %"cls.acjs::JsVariant", align 8
  %22 = bitcast %"cls.acjs::JsVariant"* %ptr19 to i32 (...)***
  store i32 (...)** bitcast (i8** getelementptr inbounds ({ [4 x i8*] }, { [4 x i8*] }* @_ZTVN14altered_carbon2js9JsVariantE, i32 0, inrange i32 0, i32 2) to i32 (...)**), i32 (...)*** %22, align 8
  %23 = getelementptr inbounds %"cls.acjs::JsVariant", %"cls.acjs::JsVariant"* %ptr19, i32 0, i32 1
  store i32 1, i32* %23, align 8
  %ptr20 = alloca %"cls.acjs::JsVariant", align 8
  %24 = bitcast %"cls.acjs::JsVariant"* %ptr20 to i32 (...)***
  store i32 (...)** bitcast (i8** getelementptr inbounds ({ [4 x i8*] }, { [4 x i8*] }* @_ZTVN14altered_carbon2js9JsVariantE, i32 0, inrange i32 0, i32 2) to i32 (...)**), i32 (...)*** %24, align 8
  %25 = getelementptr inbounds %"cls.acjs::JsVariant", %"cls.acjs::JsVariant"* %ptr20, i32 0, i32 1
  store i32 1, i32* %25, align 8
  %ptr27 = alloca %"cls.acjs::JsVariant", align 8
  %26 = bitcast %"cls.acjs::JsVariant"* %ptr27 to i32 (...)***
  store i32 (...)** bitcast (i8** getelementptr inbounds ({ [4 x i8*] }, { [4 x i8*] }* @_ZTVN14altered_carbon2js9JsVariantE, i32 0, inrange i32 0, i32 2) to i32 (...)**), i32 (...)*** %26, align 8
  %27 = getelementptr inbounds %"cls.acjs::JsVariant", %"cls.acjs::JsVariant"* %ptr27, i32 0, i32 1
  store i32 1, i32* %27, align 8
  br label %param.bb

exec.bb:                                          ; preds = %pcase.bb
  br label %blkalloc.bb

exit.bb:                                          ; preds = %blkalloc.bbe, %lpexit.bb
  call void @_ZN14altered_carbon2js9JsVariantD1Ev(%"cls.acjs::JsVariant"* %ptr27)
  call void @_ZN14altered_carbon2js9JsVariantD1Ev(%"cls.acjs::JsVariant"* %ptr20)
  call void @_ZN14altered_carbon2js9JsVariantD1Ev(%"cls.acjs::JsVariant"* %ptr19)
  call void @_ZN14altered_carbon2js9JsVariantD1Ev(%"cls.acjs::JsVariant"* %ptr15)
  call void @_ZN14altered_carbon2js9JsVariantD1Ev(%"cls.acjs::JsVariant"* %ptr14)
  call void @_ZN14altered_carbon2js9JsVariantD1Ev(%"cls.acjs::JsVariant"* %ptr13)
  call void @_ZN14altered_carbon2js9JsVariantD1Ev(%"cls.acjs::JsVariant"* %ptr12)
  call void @_ZN14altered_carbon2js9JsVariantD1Ev(%"cls.acjs::JsVariant"* %ptr9)
  call void @_ZN14altered_carbon2js9JsVariantD1Ev(%"cls.acjs::JsVariant"* %ptr8)
  call void @_ZN14altered_carbon2js9JsVariantD1Ev(%"cls.acjs::JsVariant"* %ptr4)
  call void @_ZN14altered_carbon2js9JsVariantD1Ev(%"cls.acjs::JsVariant"* %ptr3)
  call void @_ZN14altered_carbon2js9JsVariantD1Ev(%"cls.acjs::JsVariant"* %ptr2)
  ret void

param.bb:                                         ; preds = %init.bb
  switch i64 %3, label %pcase.bb1 [
    i64 0, label %pcase.bb
  ]

pcase.bb:                                         ; preds = %pcase.bb1, %param.bb
  br label %exec.bb

pcase.bb1:                                        ; preds = %param.bb
  %28 = getelementptr inbounds %"cls.acjs::JsVariant"*, %"cls.acjs::JsVariant"** %2, i64 0
  %29 = load %"cls.acjs::JsVariant"*, %"cls.acjs::JsVariant"** %28, align 8
  store %"cls.acjs::JsVariant"* %29, %"cls.acjs::JsVariant"** %ptr, align 8
  %30 = load %"cls.acjs::JsVariant"*, %"cls.acjs::JsVariant"** %ptr, align 8
  %31 = call %"cls.acjs::JsVariant"* @_ZN14altered_carbon2js9JsVariantaSERKS1_(%"cls.acjs::JsVariant"* %ptr2, %"cls.acjs::JsVariant"* %30)
  br label %pcase.bb

blkalloc.bb:                                      ; preds = %exec.bb
  br label %block

block:                                            ; preds = %blkalloc.bb
  %32 = getelementptr inbounds %"cls.acjs::JsVariant", %"cls.acjs::JsVariant"* %ptr3, i32 0, i32 1
  %33 = load i32, i32* %32, align 8
  %34 = icmp sle i32 %33, 6
  br i1 %34, label %assign.bb, label %fallback.bb

blkexit.bb:                                       ; No predecessors!
  br label %blkalloc.bbe

assign.bb:                                        ; preds = %block
  store i32 2, i32* %32, align 8
  %35 = getelementptr inbounds %"cls.acjs::JsVariant", %"cls.acjs::JsVariant"* %ptr3, i32 0, i32 2
  %36 = bitcast %union.anon.6* %35 to %"cls.acjs::JsVariantNumber"*
  %37 = getelementptr inbounds %"cls.acjs::JsVariantNumber", %"cls.acjs::JsVariantNumber"* %36, i32 0, i32 0
  %38 = getelementptr inbounds %"cls.acjs::JsVariantNumber", %"cls.acjs::JsVariantNumber"* %36, i32 0, i32 1
  %39 = getelementptr inbounds %"cls.acjs::JsVariantNumber", %"cls.acjs::JsVariantNumber"* %36, i32 0, i32 2
  store i64 0, i64* %37, align 8
  store double 0.000000e+00, double* %38, align 8
  store i8 1, i8* %39, align 8
  br label %assign.bbe

assign.bbe:                                       ; preds = %fallback.bb, %assign.bb
  %assignee = phi %"cls.acjs::JsVariant"* [ %ptr3, %assign.bb ], [ %ptr3, %fallback.bb ]
  %40 = getelementptr inbounds %"cls.acjs::JsVariant", %"cls.acjs::JsVariant"* %ptr4, i32 0, i32 1
  %41 = load i32, i32* %40, align 8
  %42 = icmp sle i32 %41, 6
  br i1 %42, label %assign.bb5, label %fallback.bb6

fallback.bb:                                      ; preds = %block
  %43 = call %"cls.acjs::JsVariant"* @_ZN14altered_carbon2js9JsVariantaSEx(%"cls.acjs::JsVariant"* %ptr3, i64 0)
  br label %assign.bbe

assign.bb5:                                       ; preds = %assign.bbe
  store i32 2, i32* %40, align 8
  %44 = getelementptr inbounds %"cls.acjs::JsVariant", %"cls.acjs::JsVariant"* %ptr4, i32 0, i32 2
  %45 = bitcast %union.anon.6* %44 to %"cls.acjs::JsVariantNumber"*
  %46 = getelementptr inbounds %"cls.acjs::JsVariantNumber", %"cls.acjs::JsVariantNumber"* %45, i32 0, i32 0
  %47 = getelementptr inbounds %"cls.acjs::JsVariantNumber", %"cls.acjs::JsVariantNumber"* %45, i32 0, i32 1
  %48 = getelementptr inbounds %"cls.acjs::JsVariantNumber", %"cls.acjs::JsVariantNumber"* %45, i32 0, i32 2
  store i64 1000, i64* %46, align 8
  store double 1.000000e+03, double* %47, align 8
  store i8 1, i8* %48, align 8
  br label %assign.bb5e

assign.bb5e:                                      ; preds = %fallback.bb6, %assign.bb5
  %assignee7 = phi %"cls.acjs::JsVariant"* [ %ptr4, %assign.bb5 ], [ %ptr4, %fallback.bb6 ]
  br label %cond.bb

fallback.bb6:                                     ; preds = %assign.bbe
  %49 = call %"cls.acjs::JsVariant"* @_ZN14altered_carbon2js9JsVariantaSEx(%"cls.acjs::JsVariant"* %ptr4, i64 1000)
  br label %assign.bb5e

lpalloc.bb:                                       ; preds = %cond.bb
  %50 = bitcast %"cls.acjs::JsVariant"* %ptr10 to i32 (...)***
  store i32 (...)** bitcast (i8** getelementptr inbounds ({ [4 x i8*] }, { [4 x i8*] }* @_ZTVN14altered_carbon2js9JsVariantE, i32 0, inrange i32 0, i32 2) to i32 (...)**), i32 (...)*** %50, align 8
  %51 = getelementptr inbounds %"cls.acjs::JsVariant", %"cls.acjs::JsVariant"* %ptr10, i32 0, i32 1
  store i32 1, i32* %51, align 8
  br label %while.bb

while.bb:                                         ; preds = %lpalloc.bb
  %52 = call %"cls.acjs::JsVariant"* @_ZN14altered_carbon2js9JsVariantaSEx(%"cls.acjs::JsVariant"* %ptr8, i64 10)
  %53 = call %"cls.acjs::JsVariant"* @_ZNK14altered_carbon2js9JsVariant3mulEPS1_RKS1_(%"cls.acjs::JsVariant"* %ptr2, %"cls.acjs::JsVariant"* %ptr9, %"cls.acjs::JsVariant"* %ptr8)
  %54 = getelementptr inbounds %"cls.acjs::JsVariant", %"cls.acjs::JsVariant"* %ptr10, i32 0, i32 1
  %55 = load i32, i32* %54, align 8
  %56 = icmp sle i32 %55, 6
  %57 = getelementptr inbounds %"cls.acjs::JsVariant", %"cls.acjs::JsVariant"* %53, i32 0, i32 1
  %58 = load i32, i32* %57, align 8
  %59 = icmp sle i32 %58, 6
  %60 = and i1 %56, %59
  br i1 %60, label %copy.bb, label %fallback.bb11

lpinc.bb:                                         ; preds = %ret.op23, %block17
  call void @_ZN14altered_carbon2js9JsVariantD1Ev(%"cls.acjs::JsVariant"* %ptr10)
  br label %cond.bb

lpexit.bb:                                        ; preds = %cond.bb, %block25
  %61 = call %"cls.acjs::JsVariant"* @_ZN14altered_carbon2js9JsVariantaSERKS1_(%"cls.acjs::JsVariant"* %0, %"cls.acjs::JsVariant"* %ptr3)
  br label %exit.bb

cond.bb:                                          ; preds = %assign.bb5e, %lpinc.bb
  br i1 true, label %lpalloc.bb, label %lpexit.bb

copy.bb:                                          ; preds = %while.bb
  switch i32 %58, label %fallback.bb11 [
    i32 -2, label %caseerr.bb
    i32 0, label %casenul_unf.bb
    i32 1, label %casenul_unf.bb
    i32 6, label %casebln.bb
    i32 2, label %casenum.bb
  ]

copy.bbe:                                         ; preds = %fallback.bb11, %casenum.bb, %casebln.bb, %casenul_unf.bb, %caseerr.bb
  call void @_ZN14altered_carbon2js9JsVariantppEi(%"cls.acjs::JsVariant"* %ptr12, %"cls.acjs::JsVariant"* %ptr2, i32 0)
  %62 = call %"cls.acjs::JsVariant"* @_ZN14altered_carbon2js9JsVariantaSEx(%"cls.acjs::JsVariant"* %ptr13, i64 2)
  %63 = call %"cls.acjs::JsVariant"* @_ZNK14altered_carbon2js9JsVariant3modEPS1_RKS1_(%"cls.acjs::JsVariant"* %ptr2, %"cls.acjs::JsVariant"* %ptr14, %"cls.acjs::JsVariant"* %ptr13)
  %64 = call %"cls.acjs::JsVariant"* @_ZN14altered_carbon2js9JsVariantaSEx(%"cls.acjs::JsVariant"* %ptr15, i64 0)
  %65 = call i1 @_ZNK14altered_carbon2js9JsVarianteqERKS1_(%"cls.acjs::JsVariant"* %63, %"cls.acjs::JsVariant"* %ptr15)
  br i1 %65, label %ret.lhs, label %ret.rhs

fallback.bb11:                                    ; preds = %copy.bb, %while.bb
  %66 = call %"cls.acjs::JsVariant"* @_ZN14altered_carbon2js9JsVariantaSERKS1_(%"cls.acjs::JsVariant"* %ptr10, %"cls.acjs::JsVariant"* %53)
  br label %copy.bbe

caseerr.bb:                                       ; preds = %copy.bb
  store i32 %58, i32* %54, align 8
  %67 = getelementptr inbounds %"cls.acjs::JsVariant", %"cls.acjs::JsVariant"* %53, i32 0, i32 2
  %68 = bitcast %union.anon.6* %67 to i8**
  %69 = load i8*, i8** %68, align 8
  %70 = getelementptr inbounds %"cls.acjs::JsVariant", %"cls.acjs::JsVariant"* %ptr10, i32 0, i32 2
  %71 = bitcast %union.anon.6* %70 to i8**
  store i8* %69, i8** %71, align 8
  br label %copy.bbe

casenul_unf.bb:                                   ; preds = %copy.bb, %copy.bb
  store i32 %58, i32* %54, align 8
  br label %copy.bbe

casebln.bb:                                       ; preds = %copy.bb
  store i32 %58, i32* %54, align 8
  %72 = getelementptr inbounds %"cls.acjs::JsVariant", %"cls.acjs::JsVariant"* %53, i32 0, i32 2
  %73 = bitcast %union.anon.6* %72 to i8*
  %74 = load i8, i8* %73, align 8
  %75 = getelementptr inbounds %"cls.acjs::JsVariant", %"cls.acjs::JsVariant"* %ptr10, i32 0, i32 2
  %76 = bitcast %union.anon.6* %75 to i8*
  store i8 %74, i8* %76, align 1
  br label %copy.bbe

casenum.bb:                                       ; preds = %copy.bb
  store i32 %58, i32* %54, align 8
  %77 = getelementptr inbounds %"cls.acjs::JsVariant", %"cls.acjs::JsVariant"* %53, i32 0, i32 2
  %78 = bitcast %union.anon.6* %77 to %"cls.acjs::JsVariantNumber"*
  %79 = getelementptr inbounds %"cls.acjs::JsVariantNumber", %"cls.acjs::JsVariantNumber"* %78, i32 0, i32 0
  %80 = load i64, i64* %79, align 8
  %81 = getelementptr inbounds %"cls.acjs::JsVariantNumber", %"cls.acjs::JsVariantNumber"* %78, i32 0, i32 1
  %82 = load double, double* %81, align 8
  %83 = getelementptr inbounds %"cls.acjs::JsVariantNumber", %"cls.acjs::JsVariantNumber"* %78, i32 0, i32 2
  %84 = load i8, i8* %83, align 8
  %85 = getelementptr inbounds %"cls.acjs::JsVariant", %"cls.acjs::JsVariant"* %ptr10, i32 0, i32 2
  %86 = bitcast %union.anon.6* %85 to %"cls.acjs::JsVariantNumber"*
  %87 = getelementptr inbounds %"cls.acjs::JsVariantNumber", %"cls.acjs::JsVariantNumber"* %86, i32 0, i32 0
  store i64 %80, i64* %87, align 8
  %88 = getelementptr inbounds %"cls.acjs::JsVariantNumber", %"cls.acjs::JsVariantNumber"* %86, i32 0, i32 1
  store double %82, double* %88, align 8
  %89 = getelementptr inbounds %"cls.acjs::JsVariantNumber", %"cls.acjs::JsVariantNumber"* %86, i32 0, i32 2
  store i8 %84, i8* %89, align 8
  br label %copy.bbe

ret.lhs:                                          ; preds = %copy.bbe
  br label %blkalloc.bb16

ret.rhs:                                          ; preds = %copy.bbe
  br label %ret.op

ret.op:                                           ; preds = %ret.rhs, %blkalloc.bb16e
  %90 = call %"cls.acjs::JsVariant"* @_ZN14altered_carbon2js9JsVariantaSEx(%"cls.acjs::JsVariant"* %ptr20, i64 10)
  %91 = call i1 @_ZNK14altered_carbon2js9JsVariantgtERKS1_(%"cls.acjs::JsVariant"* %ptr2, %"cls.acjs::JsVariant"* %ptr20)
  br i1 %91, label %ret.lhs21, label %ret.rhs22

blkalloc.bb16:                                    ; preds = %ret.lhs
  br label %block17

block17:                                          ; preds = %blkalloc.bb16
  br label %lpinc.bb

blkexit.bb18:                                     ; No predecessors!
  br label %blkalloc.bb16e

blkalloc.bb16e:                                   ; preds = %blkexit.bb18
  %92 = call %"cls.acjs::JsVariant"* @_ZN14altered_carbon2js9JsVariantaSEb(%"cls.acjs::JsVariant"* %ptr19, i1 zeroext true)
  br label %ret.op

ret.lhs21:                                        ; preds = %ret.op
  br label %blkalloc.bb24

ret.rhs22:                                        ; preds = %ret.op
  br label %ret.op23

ret.op23:                                         ; preds = %ret.rhs22, %blkalloc.bb24e
  %93 = call %"cls.acjs::JsVariant"* @_ZN14altered_carbon2js9JsVariantpLERKS1_(%"cls.acjs::JsVariant"* %ptr3, %"cls.acjs::JsVariant"* %ptr10)
  br label %lpinc.bb

blkalloc.bb24:                                    ; preds = %ret.lhs21
  br label %block25

block25:                                          ; preds = %blkalloc.bb24
  call void @_ZN14altered_carbon2js9JsVariantD1Ev(%"cls.acjs::JsVariant"* %ptr10)
  br label %lpexit.bb

blkexit.bb26:                                     ; No predecessors!
  br label %blkalloc.bb24e

blkalloc.bb24e:                                   ; preds = %blkexit.bb26
  %94 = call %"cls.acjs::JsVariant"* @_ZN14altered_carbon2js9JsVariantaSEb(%"cls.acjs::JsVariant"* %ptr27, i1 zeroext true)
  br label %ret.op23

blkalloc.bbe:                                     ; preds = %blkexit.bb
  br label %exit.bb
}

declare %"cls.acjs::JsVariant"* @_ZN14altered_carbon2js9JsVariantaSEx(%"cls.acjs::JsVariant"*, i64)

declare %"cls.acjs::JsVariant"* @_ZN14altered_carbon2js9JsVariantaSEb(%"cls.acjs::JsVariant"*, i1)
