; ModuleID = 'con.js'
source_filename = "con.js"

%"cls.acjs::JsVariant" = type { i32 (...)**, i32, %union.anon.6 }
%union.anon.6 = type { %"cls.acjs::JsVariantFunc", [24 x i8] }
%"cls.acjs::JsVariantFunc" = type { void (%"cls.acjs::JsVariant"*, %"cls.acjs::JsVariant"*, %"cls.acjs::JsVariant"**, i64)*, i32* }
%"cls.acjs::JsVariantNumber" = type <{ i64, double, i8, [16 x i8] }>

@_ZTVN10__cxxabiv117__class_type_infoE = external global i8*
@_ZTSN14altered_carbon2js9JsVariantE = linkonce_odr constant [32 x i8] c"N14altered_carbon2js9JsVariantE\00"
@_ZTIN14altered_carbon2js9JsVariantE = linkonce_odr constant { i8*, i8* } { i8* bitcast (i8** getelementptr inbounds (i8*, i8** @_ZTVN10__cxxabiv117__class_type_infoE, i64 2) to i8*), i8* getelementptr inbounds ([32 x i8], [32 x i8]* @_ZTSN14altered_carbon2js9JsVariantE, i32 0, i32 0) }
@_ZTVN14altered_carbon2js9JsVariantE = linkonce_odr unnamed_addr constant { [4 x i8*] } { [4 x i8*] [i8* null, i8* bitcast ({ i8*, i8* }* @_ZTIN14altered_carbon2js9JsVariantE to i8*), i8* bitcast (void (%"cls.acjs::JsVariant"*)* @_ZN14altered_carbon2js9JsVariantD1Ev to i8*), i8* bitcast (void (%"cls.acjs::JsVariant"*)* @_ZN14altered_carbon2js9JsVariantD0Ev to i8*)] }, align 8
@_ZN14altered_carbon2js11JsConstants9UndefinedE = external constant %"cls.acjs::JsVariant"
@_ZN14altered_carbon2js11JsConstants4NullE = external constant %"cls.acjs::JsVariant"
@_ZN14altered_carbon2js11JsConstants3NaNE = external constant %"cls.acjs::JsVariant"
@_ZN14altered_carbon2js11JsConstants8InfinityE = external constant %"cls.acjs::JsVariant"
@_ZN14altered_carbon2js11JsConstants9TypeErrorE = external constant %"cls.acjs::JsVariant"
@_ZN14altered_carbon2js11JsConstants16NullPointerErrorE = external constant %"cls.acjs::JsVariant"

declare void @_ZN14altered_carbon2js9JsVariantD1Ev(%"cls.acjs::JsVariant"*)

declare void @_ZN14altered_carbon2js9JsVariantD0Ev(%"cls.acjs::JsVariant"*)

declare dereferenceable(56) %"cls.acjs::JsVariant"* @_ZNK14altered_carbon2js9JsVariant3bwaEPS1_RKS1_(%"cls.acjs::JsVariant"*, %"cls.acjs::JsVariant"*, %"cls.acjs::JsVariant"* dereferenceable(56))

declare dereferenceable(56) %"cls.acjs::JsVariant"* @_ZNK14altered_carbon2js9JsVariant3bwxEPS1_RKS1_(%"cls.acjs::JsVariant"*, %"cls.acjs::JsVariant"*, %"cls.acjs::JsVariant"* dereferenceable(56))

declare zeroext i1 @_ZNK14altered_carbon2js9JsVarianteqERKS1_(%"cls.acjs::JsVariant"*, %"cls.acjs::JsVariant"* dereferenceable(56))

declare zeroext i1 @_ZNK14altered_carbon2js9JsVariantneERKS1_(%"cls.acjs::JsVariant"*, %"cls.acjs::JsVariant"* dereferenceable(56))

declare zeroext i1 @_ZNK14altered_carbon2js9JsVariant4eqvtERKS1_(%"cls.acjs::JsVariant"*, %"cls.acjs::JsVariant"* dereferenceable(56))

declare zeroext i1 @_ZNK14altered_carbon2js9JsVariant4nevtERKS1_(%"cls.acjs::JsVariant"*, %"cls.acjs::JsVariant"* dereferenceable(56))

declare zeroext i1 @_ZNK14altered_carbon2js9JsVariantltERKS1_(%"cls.acjs::JsVariant"*, %"cls.acjs::JsVariant"* dereferenceable(56))

declare zeroext i1 @_ZNK14altered_carbon2js9JsVariantgtERKS1_(%"cls.acjs::JsVariant"*, %"cls.acjs::JsVariant"* dereferenceable(56))

declare zeroext i1 @_ZNK14altered_carbon2js9JsVariantleERKS1_(%"cls.acjs::JsVariant"*, %"cls.acjs::JsVariant"* dereferenceable(56))

declare zeroext i1 @_ZNK14altered_carbon2js9JsVariantgeERKS1_(%"cls.acjs::JsVariant"*, %"cls.acjs::JsVariant"* dereferenceable(56))

declare dereferenceable(56) %"cls.acjs::JsVariant"* @_ZNK14altered_carbon2js9JsVariant3ltsEPS1_RKS1_(%"cls.acjs::JsVariant"*, %"cls.acjs::JsVariant"*, %"cls.acjs::JsVariant"* dereferenceable(56))

declare dereferenceable(56) %"cls.acjs::JsVariant"* @_ZNK14altered_carbon2js9JsVariant3rtsEPS1_RKS1_(%"cls.acjs::JsVariant"*, %"cls.acjs::JsVariant"*, %"cls.acjs::JsVariant"* dereferenceable(56))

declare dereferenceable(56) %"cls.acjs::JsVariant"* @_ZNK14altered_carbon2js9JsVariant3rszEPS1_RKS1_(%"cls.acjs::JsVariant"*, %"cls.acjs::JsVariant"*, %"cls.acjs::JsVariant"* dereferenceable(56))

declare dereferenceable(56) %"cls.acjs::JsVariant"* @_ZNK14altered_carbon2js9JsVariant3addEPS1_RKS1_(%"cls.acjs::JsVariant"*, %"cls.acjs::JsVariant"*, %"cls.acjs::JsVariant"* dereferenceable(56))

declare void @_ZN14altered_carbon2js9JsVariantpsEv(%"cls.acjs::JsVariant"* noalias sret, %"cls.acjs::JsVariant"*)

declare dereferenceable(56) %"cls.acjs::JsVariant"* @_ZNK14altered_carbon2js9JsVariant3subEPS1_RKS1_(%"cls.acjs::JsVariant"*, %"cls.acjs::JsVariant"*, %"cls.acjs::JsVariant"* dereferenceable(56))

declare void @_ZN14altered_carbon2js9JsVariantngEv(%"cls.acjs::JsVariant"* noalias sret, %"cls.acjs::JsVariant"*)

declare dereferenceable(56) %"cls.acjs::JsVariant"* @_ZNK14altered_carbon2js9JsVariant3mulEPS1_RKS1_(%"cls.acjs::JsVariant"*, %"cls.acjs::JsVariant"*, %"cls.acjs::JsVariant"* dereferenceable(56))

declare dereferenceable(56) %"cls.acjs::JsVariant"* @_ZNK14altered_carbon2js9JsVariant3divEPS1_RKS1_(%"cls.acjs::JsVariant"*, %"cls.acjs::JsVariant"*, %"cls.acjs::JsVariant"* dereferenceable(56))

declare dereferenceable(56) %"cls.acjs::JsVariant"* @_ZNK14altered_carbon2js9JsVariant3modEPS1_RKS1_(%"cls.acjs::JsVariant"*, %"cls.acjs::JsVariant"*, %"cls.acjs::JsVariant"* dereferenceable(56))

declare void @_ZN14altered_carbon2js9JsVariantcoEv(%"cls.acjs::JsVariant"* noalias sret, %"cls.acjs::JsVariant"*)

declare void @_ZN14altered_carbon2js9JsVariantppEi(%"cls.acjs::JsVariant"* noalias sret, %"cls.acjs::JsVariant"*, i32)

declare dereferenceable(56) %"cls.acjs::JsVariant"* @_ZN14altered_carbon2js9JsVariantppEv(%"cls.acjs::JsVariant"*)

declare void @_ZN14altered_carbon2js9JsVariantmmEi(%"cls.acjs::JsVariant"* noalias sret, %"cls.acjs::JsVariant"*, i32)

declare dereferenceable(56) %"cls.acjs::JsVariant"* @_ZN14altered_carbon2js9JsVariantmmEv(%"cls.acjs::JsVariant"*)

declare dereferenceable(56) %"cls.acjs::JsVariant"* @_ZN14altered_carbon2js9JsVariantaSERKS1_(%"cls.acjs::JsVariant"*, %"cls.acjs::JsVariant"* dereferenceable(56))

declare dereferenceable(56) %"cls.acjs::JsVariant"* @_ZN14altered_carbon2js9JsVariantpLERKS1_(%"cls.acjs::JsVariant"*, %"cls.acjs::JsVariant"* dereferenceable(56))

declare dereferenceable(56) %"cls.acjs::JsVariant"* @_ZN14altered_carbon2js9JsVariantmIERKS1_(%"cls.acjs::JsVariant"*, %"cls.acjs::JsVariant"* dereferenceable(56))

declare dereferenceable(56) %"cls.acjs::JsVariant"* @_ZN14altered_carbon2js9JsVariantmLERKS1_(%"cls.acjs::JsVariant"*, %"cls.acjs::JsVariant"* dereferenceable(56))

declare dereferenceable(56) %"cls.acjs::JsVariant"* @_ZN14altered_carbon2js9JsVariantdVERKS1_(%"cls.acjs::JsVariant"*, %"cls.acjs::JsVariant"* dereferenceable(56))

declare dereferenceable(56) %"cls.acjs::JsVariant"* @_ZN14altered_carbon2js9JsVariantrMERKS1_(%"cls.acjs::JsVariant"*, %"cls.acjs::JsVariant"* dereferenceable(56))

declare dereferenceable(56) %"cls.acjs::JsVariant"* @_ZN14altered_carbon2js9JsVariantlSERKS1_(%"cls.acjs::JsVariant"*, %"cls.acjs::JsVariant"* dereferenceable(56))

declare dereferenceable(56) %"cls.acjs::JsVariant"* @_ZN14altered_carbon2js9JsVariantrSERKS1_(%"cls.acjs::JsVariant"*, %"cls.acjs::JsVariant"* dereferenceable(56))

declare dereferenceable(56) %"cls.acjs::JsVariant"* @_ZN14altered_carbon2js9JsVariant4arszERKS1_(%"cls.acjs::JsVariant"*, %"cls.acjs::JsVariant"* dereferenceable(56))

declare dereferenceable(56) %"cls.acjs::JsVariant"* @_ZN14altered_carbon2js9JsVariantaNERKS1_(%"cls.acjs::JsVariant"*, %"cls.acjs::JsVariant"* dereferenceable(56))

declare dereferenceable(56) %"cls.acjs::JsVariant"* @_ZN14altered_carbon2js9JsVariantoRERKS1_(%"cls.acjs::JsVariant"*, %"cls.acjs::JsVariant"* dereferenceable(56))

declare dereferenceable(56) %"cls.acjs::JsVariant"* @_ZN14altered_carbon2js9JsVarianteOERKS1_(%"cls.acjs::JsVariant"*, %"cls.acjs::JsVariant"* dereferenceable(56))

define void @_Z7_scriptPN14altered_carbon2js9JsVariantE(%"cls.acjs::JsVariant"*) {
init.bb:
  %vptr = alloca %"cls.acjs::JsVariant", align 8
  %1 = bitcast %"cls.acjs::JsVariant"* %vptr to i32 (...)***
  store i32 (...)** bitcast (i8** getelementptr inbounds ({ [4 x i8*] }, { [4 x i8*] }* @_ZTVN14altered_carbon2js9JsVariantE, i32 0, inrange i32 0, i32 2) to i32 (...)**), i32 (...)*** %1, align 8
  %2 = getelementptr inbounds %"cls.acjs::JsVariant", %"cls.acjs::JsVariant"* %vptr, i32 0, i32 1
  store i32 1, i32* %2, align 8
  %vptr1 = alloca %"cls.acjs::JsVariant", align 8
  %3 = bitcast %"cls.acjs::JsVariant"* %vptr1 to i32 (...)***
  store i32 (...)** bitcast (i8** getelementptr inbounds ({ [4 x i8*] }, { [4 x i8*] }* @_ZTVN14altered_carbon2js9JsVariantE, i32 0, inrange i32 0, i32 2) to i32 (...)**), i32 (...)*** %3, align 8
  %4 = getelementptr inbounds %"cls.acjs::JsVariant", %"cls.acjs::JsVariant"* %vptr1, i32 0, i32 1
  store i32 1, i32* %4, align 8
  %vptr2 = alloca %"cls.acjs::JsVariant", align 8
  %5 = bitcast %"cls.acjs::JsVariant"* %vptr2 to i32 (...)***
  store i32 (...)** bitcast (i8** getelementptr inbounds ({ [4 x i8*] }, { [4 x i8*] }* @_ZTVN14altered_carbon2js9JsVariantE, i32 0, inrange i32 0, i32 2) to i32 (...)**), i32 (...)*** %5, align 8
  %6 = getelementptr inbounds %"cls.acjs::JsVariant", %"cls.acjs::JsVariant"* %vptr2, i32 0, i32 1
  store i32 1, i32* %6, align 8
  %vptr3 = alloca %"cls.acjs::JsVariant", align 8
  %7 = bitcast %"cls.acjs::JsVariant"* %vptr3 to i32 (...)***
  store i32 (...)** bitcast (i8** getelementptr inbounds ({ [4 x i8*] }, { [4 x i8*] }* @_ZTVN14altered_carbon2js9JsVariantE, i32 0, inrange i32 0, i32 2) to i32 (...)**), i32 (...)*** %7, align 8
  %8 = getelementptr inbounds %"cls.acjs::JsVariant", %"cls.acjs::JsVariant"* %vptr3, i32 0, i32 1
  store i32 1, i32* %8, align 8
  %vptr4 = alloca %"cls.acjs::JsVariant", align 8
  %9 = bitcast %"cls.acjs::JsVariant"* %vptr4 to i32 (...)***
  store i32 (...)** bitcast (i8** getelementptr inbounds ({ [4 x i8*] }, { [4 x i8*] }* @_ZTVN14altered_carbon2js9JsVariantE, i32 0, inrange i32 0, i32 2) to i32 (...)**), i32 (...)*** %9, align 8
  %10 = getelementptr inbounds %"cls.acjs::JsVariant", %"cls.acjs::JsVariant"* %vptr4, i32 0, i32 1
  store i32 1, i32* %10, align 8
  %vptr5 = alloca %"cls.acjs::JsVariant", align 8
  %11 = bitcast %"cls.acjs::JsVariant"* %vptr5 to i32 (...)***
  store i32 (...)** bitcast (i8** getelementptr inbounds ({ [4 x i8*] }, { [4 x i8*] }* @_ZTVN14altered_carbon2js9JsVariantE, i32 0, inrange i32 0, i32 2) to i32 (...)**), i32 (...)*** %11, align 8
  %12 = getelementptr inbounds %"cls.acjs::JsVariant", %"cls.acjs::JsVariant"* %vptr5, i32 0, i32 1
  store i32 1, i32* %12, align 8
  %vptr6 = alloca %"cls.acjs::JsVariant", align 8
  %13 = bitcast %"cls.acjs::JsVariant"* %vptr6 to i32 (...)***
  store i32 (...)** bitcast (i8** getelementptr inbounds ({ [4 x i8*] }, { [4 x i8*] }* @_ZTVN14altered_carbon2js9JsVariantE, i32 0, inrange i32 0, i32 2) to i32 (...)**), i32 (...)*** %13, align 8
  %14 = getelementptr inbounds %"cls.acjs::JsVariant", %"cls.acjs::JsVariant"* %vptr6, i32 0, i32 1
  store i32 1, i32* %14, align 8
  %vptr7 = alloca %"cls.acjs::JsVariant", align 8
  %15 = bitcast %"cls.acjs::JsVariant"* %vptr7 to i32 (...)***
  store i32 (...)** bitcast (i8** getelementptr inbounds ({ [4 x i8*] }, { [4 x i8*] }* @_ZTVN14altered_carbon2js9JsVariantE, i32 0, inrange i32 0, i32 2) to i32 (...)**), i32 (...)*** %15, align 8
  %16 = getelementptr inbounds %"cls.acjs::JsVariant", %"cls.acjs::JsVariant"* %vptr7, i32 0, i32 1
  store i32 1, i32* %16, align 8
  %vptr8 = alloca %"cls.acjs::JsVariant", align 8
  %17 = bitcast %"cls.acjs::JsVariant"* %vptr8 to i32 (...)***
  store i32 (...)** bitcast (i8** getelementptr inbounds ({ [4 x i8*] }, { [4 x i8*] }* @_ZTVN14altered_carbon2js9JsVariantE, i32 0, inrange i32 0, i32 2) to i32 (...)**), i32 (...)*** %17, align 8
  %18 = getelementptr inbounds %"cls.acjs::JsVariant", %"cls.acjs::JsVariant"* %vptr8, i32 0, i32 1
  store i32 1, i32* %18, align 8
  %ptr = alloca [9 x %"cls.acjs::JsVariant"*], align 16
  %vptr9 = alloca %"cls.acjs::JsVariant", align 8
  %19 = bitcast %"cls.acjs::JsVariant"* %vptr9 to i32 (...)***
  store i32 (...)** bitcast (i8** getelementptr inbounds ({ [4 x i8*] }, { [4 x i8*] }* @_ZTVN14altered_carbon2js9JsVariantE, i32 0, inrange i32 0, i32 2) to i32 (...)**), i32 (...)*** %19, align 8
  %20 = getelementptr inbounds %"cls.acjs::JsVariant", %"cls.acjs::JsVariant"* %vptr9, i32 0, i32 1
  store i32 1, i32* %20, align 8
  %cptr = alloca %"cls.acjs::JsVariant", align 8
  %21 = bitcast %"cls.acjs::JsVariant"* %cptr to i32 (...)***
  store i32 (...)** bitcast (i8** getelementptr inbounds ({ [4 x i8*] }, { [4 x i8*] }* @_ZTVN14altered_carbon2js9JsVariantE, i32 0, inrange i32 0, i32 2) to i32 (...)**), i32 (...)*** %21, align 8
  %22 = getelementptr inbounds %"cls.acjs::JsVariant", %"cls.acjs::JsVariant"* %cptr, i32 0, i32 1
  store i32 1, i32* %22, align 8
  br label %exec.bb

exec.bb:                                          ; preds = %init.bb
  %23 = call %"cls.acjs::JsVariant"* @_ZN14altered_carbon2js9JsVariantaSEx(%"cls.acjs::JsVariant"* %vptr, i64 1)
  %24 = call %"cls.acjs::JsVariant"* @_ZN14altered_carbon2js9JsVariantaSEx(%"cls.acjs::JsVariant"* %vptr1, i64 2)
  %25 = call %"cls.acjs::JsVariant"* @_ZN14altered_carbon2js9JsVariantaSEx(%"cls.acjs::JsVariant"* %vptr2, i64 1)
  %26 = call %"cls.acjs::JsVariant"* @_ZN14altered_carbon2js9JsVariantaSEx(%"cls.acjs::JsVariant"* %vptr3, i64 1)
  %27 = call %"cls.acjs::JsVariant"* @_ZN14altered_carbon2js9JsVariantaSEx(%"cls.acjs::JsVariant"* %vptr4, i64 2)
  %28 = call %"cls.acjs::JsVariant"* @_ZN14altered_carbon2js9JsVariantaSEx(%"cls.acjs::JsVariant"* %vptr5, i64 1)
  %29 = call %"cls.acjs::JsVariant"* @_ZN14altered_carbon2js9JsVariantaSEx(%"cls.acjs::JsVariant"* %vptr6, i64 3)
  %30 = call %"cls.acjs::JsVariant"* @_ZN14altered_carbon2js9JsVariantaSEx(%"cls.acjs::JsVariant"* %vptr7, i64 4)
  %31 = call %"cls.acjs::JsVariant"* @_ZN14altered_carbon2js9JsVariantaSEx(%"cls.acjs::JsVariant"* %vptr8, i64 1)
  %newalloc = call i8* @_Znam(i64 512)
  %32 = bitcast i8* %newalloc to i64*
  store i64 9, i64* %32, align 16
  %33 = getelementptr inbounds i8, i8* %newalloc, i64 8
  %34 = bitcast i8* %33 to %"cls.acjs::JsVariant"*
  %35 = getelementptr inbounds %"cls.acjs::JsVariant", %"cls.acjs::JsVariant"* %34, i64 9
  %36 = getelementptr inbounds [9 x %"cls.acjs::JsVariant"*], [9 x %"cls.acjs::JsVariant"*]* %ptr, i32 0, i32 0
  br label %initarr.bb

exit.bb:                                          ; preds = %copy.bbe
  %37 = call %"cls.acjs::JsVariant"* @_ZN14altered_carbon2js9JsVariantaSERKS1_(%"cls.acjs::JsVariant"* %0, %"cls.acjs::JsVariant"* dereferenceable(56) %cptr)
  call void @_ZN14altered_carbon2js9JsVariantD1Ev(%"cls.acjs::JsVariant"* %cptr)
  call void @_ZN14altered_carbon2js9JsVariantD1Ev(%"cls.acjs::JsVariant"* %vptr9)
  call void @_ZN14altered_carbon2js9JsVariantD1Ev(%"cls.acjs::JsVariant"* %vptr8)
  call void @_ZN14altered_carbon2js9JsVariantD1Ev(%"cls.acjs::JsVariant"* %vptr7)
  call void @_ZN14altered_carbon2js9JsVariantD1Ev(%"cls.acjs::JsVariant"* %vptr6)
  call void @_ZN14altered_carbon2js9JsVariantD1Ev(%"cls.acjs::JsVariant"* %vptr5)
  call void @_ZN14altered_carbon2js9JsVariantD1Ev(%"cls.acjs::JsVariant"* %vptr4)
  call void @_ZN14altered_carbon2js9JsVariantD1Ev(%"cls.acjs::JsVariant"* %vptr3)
  call void @_ZN14altered_carbon2js9JsVariantD1Ev(%"cls.acjs::JsVariant"* %vptr2)
  call void @_ZN14altered_carbon2js9JsVariantD1Ev(%"cls.acjs::JsVariant"* %vptr1)
  call void @_ZN14altered_carbon2js9JsVariantD1Ev(%"cls.acjs::JsVariant"* %vptr)
  ret void

initarr.bb:                                       ; preds = %initarr.bb, %exec.bb
  %iter = phi %"cls.acjs::JsVariant"* [ %34, %exec.bb ], [ %40, %initarr.bb ]
  %38 = bitcast %"cls.acjs::JsVariant"* %iter to i32 (...)***
  store i32 (...)** bitcast (i8** getelementptr inbounds ({ [4 x i8*] }, { [4 x i8*] }* @_ZTVN14altered_carbon2js9JsVariantE, i32 0, inrange i32 0, i32 2) to i32 (...)**), i32 (...)*** %38, align 8
  %39 = getelementptr inbounds %"cls.acjs::JsVariant", %"cls.acjs::JsVariant"* %iter, i32 0, i32 1
  store i32 1, i32* %39, align 8
  %40 = getelementptr inbounds %"cls.acjs::JsVariant", %"cls.acjs::JsVariant"* %iter, i64 1
  %41 = icmp eq %"cls.acjs::JsVariant"* %40, %35
  br i1 %41, label %initarr.bbe, label %initarr.bb

initarr.bbe:                                      ; preds = %initarr.bb
  %42 = getelementptr inbounds %"cls.acjs::JsVariant", %"cls.acjs::JsVariant"* %34, i64 0
  %43 = call %"cls.acjs::JsVariant"* @_ZN14altered_carbon2js9JsVariantaSERKS1_(%"cls.acjs::JsVariant"* %42, %"cls.acjs::JsVariant"* %vptr)
  %44 = getelementptr inbounds %"cls.acjs::JsVariant"*, %"cls.acjs::JsVariant"** %36, i64 0
  store %"cls.acjs::JsVariant"* %42, %"cls.acjs::JsVariant"** %44, align 8
  %45 = getelementptr inbounds %"cls.acjs::JsVariant", %"cls.acjs::JsVariant"* %34, i64 1
  %46 = call %"cls.acjs::JsVariant"* @_ZN14altered_carbon2js9JsVariantaSERKS1_(%"cls.acjs::JsVariant"* %45, %"cls.acjs::JsVariant"* %vptr1)
  %47 = getelementptr inbounds %"cls.acjs::JsVariant"*, %"cls.acjs::JsVariant"** %36, i64 1
  store %"cls.acjs::JsVariant"* %45, %"cls.acjs::JsVariant"** %47, align 8
  %48 = getelementptr inbounds %"cls.acjs::JsVariant", %"cls.acjs::JsVariant"* %34, i64 2
  %49 = call %"cls.acjs::JsVariant"* @_ZN14altered_carbon2js9JsVariantaSERKS1_(%"cls.acjs::JsVariant"* %48, %"cls.acjs::JsVariant"* %vptr2)
  %50 = getelementptr inbounds %"cls.acjs::JsVariant"*, %"cls.acjs::JsVariant"** %36, i64 2
  store %"cls.acjs::JsVariant"* %48, %"cls.acjs::JsVariant"** %50, align 8
  %51 = getelementptr inbounds %"cls.acjs::JsVariant", %"cls.acjs::JsVariant"* %34, i64 3
  %52 = call %"cls.acjs::JsVariant"* @_ZN14altered_carbon2js9JsVariantaSERKS1_(%"cls.acjs::JsVariant"* %51, %"cls.acjs::JsVariant"* %vptr3)
  %53 = getelementptr inbounds %"cls.acjs::JsVariant"*, %"cls.acjs::JsVariant"** %36, i64 3
  store %"cls.acjs::JsVariant"* %51, %"cls.acjs::JsVariant"** %53, align 8
  %54 = getelementptr inbounds %"cls.acjs::JsVariant", %"cls.acjs::JsVariant"* %34, i64 4
  %55 = call %"cls.acjs::JsVariant"* @_ZN14altered_carbon2js9JsVariantaSERKS1_(%"cls.acjs::JsVariant"* %54, %"cls.acjs::JsVariant"* %vptr4)
  %56 = getelementptr inbounds %"cls.acjs::JsVariant"*, %"cls.acjs::JsVariant"** %36, i64 4
  store %"cls.acjs::JsVariant"* %54, %"cls.acjs::JsVariant"** %56, align 8
  %57 = getelementptr inbounds %"cls.acjs::JsVariant", %"cls.acjs::JsVariant"* %34, i64 5
  %58 = call %"cls.acjs::JsVariant"* @_ZN14altered_carbon2js9JsVariantaSERKS1_(%"cls.acjs::JsVariant"* %57, %"cls.acjs::JsVariant"* %vptr5)
  %59 = getelementptr inbounds %"cls.acjs::JsVariant"*, %"cls.acjs::JsVariant"** %36, i64 5
  store %"cls.acjs::JsVariant"* %57, %"cls.acjs::JsVariant"** %59, align 8
  %60 = getelementptr inbounds %"cls.acjs::JsVariant", %"cls.acjs::JsVariant"* %34, i64 6
  %61 = call %"cls.acjs::JsVariant"* @_ZN14altered_carbon2js9JsVariantaSERKS1_(%"cls.acjs::JsVariant"* %60, %"cls.acjs::JsVariant"* %vptr6)
  %62 = getelementptr inbounds %"cls.acjs::JsVariant"*, %"cls.acjs::JsVariant"** %36, i64 6
  store %"cls.acjs::JsVariant"* %60, %"cls.acjs::JsVariant"** %62, align 8
  %63 = getelementptr inbounds %"cls.acjs::JsVariant", %"cls.acjs::JsVariant"* %34, i64 7
  %64 = call %"cls.acjs::JsVariant"* @_ZN14altered_carbon2js9JsVariantaSERKS1_(%"cls.acjs::JsVariant"* %63, %"cls.acjs::JsVariant"* %vptr7)
  %65 = getelementptr inbounds %"cls.acjs::JsVariant"*, %"cls.acjs::JsVariant"** %36, i64 7
  store %"cls.acjs::JsVariant"* %63, %"cls.acjs::JsVariant"** %65, align 8
  %66 = getelementptr inbounds %"cls.acjs::JsVariant", %"cls.acjs::JsVariant"* %34, i64 8
  %67 = call %"cls.acjs::JsVariant"* @_ZN14altered_carbon2js9JsVariantaSERKS1_(%"cls.acjs::JsVariant"* %66, %"cls.acjs::JsVariant"* %vptr8)
  %68 = getelementptr inbounds %"cls.acjs::JsVariant"*, %"cls.acjs::JsVariant"** %36, i64 8
  store %"cls.acjs::JsVariant"* %66, %"cls.acjs::JsVariant"** %68, align 8
  %69 = call %"cls.acjs::JsVariant"* @_ZN14altered_carbon2js9JsVariantaSEN4llvm8ArrayRefIPS1_EE(%"cls.acjs::JsVariant"* %vptr9, %"cls.acjs::JsVariant"** %36, i64 9)
  %70 = getelementptr inbounds %"cls.acjs::JsVariant", %"cls.acjs::JsVariant"* %cptr, i32 0, i32 1
  %71 = load i32, i32* %70, align 8
  %72 = icmp sle i32 %71, 6
  %73 = getelementptr inbounds %"cls.acjs::JsVariant", %"cls.acjs::JsVariant"* %vptr9, i32 0, i32 1
  %74 = load i32, i32* %73, align 8
  %75 = icmp sle i32 %74, 6
  %76 = and i1 %72, %75
  br i1 %76, label %copy.bb, label %fallback.bb

copy.bb:                                          ; preds = %initarr.bbe
  switch i32 %74, label %fallback.bb [
    i32 -2, label %caseerr.bb
    i32 0, label %casenul_unf.bb
    i32 1, label %casenul_unf.bb
    i32 6, label %casebln.bb
    i32 2, label %casenum.bb
  ]

copy.bbe:                                         ; preds = %fallback.bb, %casenum.bb, %casebln.bb, %casenul_unf.bb, %caseerr.bb
  br label %exit.bb

fallback.bb:                                      ; preds = %copy.bb, %initarr.bbe
  %77 = call %"cls.acjs::JsVariant"* @_ZN14altered_carbon2js9JsVariantaSERKS1_(%"cls.acjs::JsVariant"* %cptr, %"cls.acjs::JsVariant"* %vptr9)
  br label %copy.bbe

caseerr.bb:                                       ; preds = %copy.bb
  store i32 %74, i32* %70, align 8
  %78 = getelementptr inbounds %"cls.acjs::JsVariant", %"cls.acjs::JsVariant"* %vptr9, i32 0, i32 2
  %79 = bitcast %union.anon.6* %78 to i8**
  %80 = load i8*, i8** %79, align 8
  %81 = getelementptr inbounds %"cls.acjs::JsVariant", %"cls.acjs::JsVariant"* %cptr, i32 0, i32 2
  %82 = bitcast %union.anon.6* %81 to i8**
  store i8* %80, i8** %82, align 8
  br label %copy.bbe

casenul_unf.bb:                                   ; preds = %copy.bb, %copy.bb
  store i32 %74, i32* %70, align 8
  br label %copy.bbe

casebln.bb:                                       ; preds = %copy.bb
  store i32 %74, i32* %70, align 8
  %83 = getelementptr inbounds %"cls.acjs::JsVariant", %"cls.acjs::JsVariant"* %vptr9, i32 0, i32 2
  %84 = bitcast %union.anon.6* %83 to i8*
  %85 = load i8, i8* %84, align 8
  %86 = getelementptr inbounds %"cls.acjs::JsVariant", %"cls.acjs::JsVariant"* %cptr, i32 0, i32 2
  %87 = bitcast %union.anon.6* %86 to i8*
  store i8 %85, i8* %87, align 1
  br label %copy.bbe

casenum.bb:                                       ; preds = %copy.bb
  store i32 %74, i32* %70, align 8
  %88 = getelementptr inbounds %"cls.acjs::JsVariant", %"cls.acjs::JsVariant"* %vptr9, i32 0, i32 2
  %89 = bitcast %union.anon.6* %88 to %"cls.acjs::JsVariantNumber"*
  %90 = getelementptr inbounds %"cls.acjs::JsVariantNumber", %"cls.acjs::JsVariantNumber"* %89, i32 0, i32 0
  %91 = load i64, i64* %90, align 8
  %92 = getelementptr inbounds %"cls.acjs::JsVariantNumber", %"cls.acjs::JsVariantNumber"* %89, i32 0, i32 1
  %93 = load double, double* %92, align 8
  %94 = getelementptr inbounds %"cls.acjs::JsVariantNumber", %"cls.acjs::JsVariantNumber"* %89, i32 0, i32 2
  %95 = load i8, i8* %94, align 8
  %96 = getelementptr inbounds %"cls.acjs::JsVariant", %"cls.acjs::JsVariant"* %cptr, i32 0, i32 2
  %97 = bitcast %union.anon.6* %96 to %"cls.acjs::JsVariantNumber"*
  %98 = getelementptr inbounds %"cls.acjs::JsVariantNumber", %"cls.acjs::JsVariantNumber"* %97, i32 0, i32 0
  store i64 %91, i64* %98, align 8
  %99 = getelementptr inbounds %"cls.acjs::JsVariantNumber", %"cls.acjs::JsVariantNumber"* %97, i32 0, i32 1
  store double %93, double* %99, align 8
  %100 = getelementptr inbounds %"cls.acjs::JsVariantNumber", %"cls.acjs::JsVariantNumber"* %97, i32 0, i32 2
  store i8 %95, i8* %100, align 8
  br label %copy.bbe
}

declare %"cls.acjs::JsVariant"* @_ZN14altered_carbon2js9JsVariantaSEx(%"cls.acjs::JsVariant"*, i64)

declare i8* @_Znam(i64)

declare %"cls.acjs::JsVariant"* @_ZN14altered_carbon2js9JsVariantaSEN4llvm8ArrayRefIPS1_EE(%"cls.acjs::JsVariant"*, %"cls.acjs::JsVariant"**, i64)
