	.section	__TEXT,__text,regular,pure_instructions
	.macosx_version_min 10, 13
	.globl	__Z7_scriptPN14altered_carbon2js9JsVariantE ## -- Begin function _Z7_scriptPN14altered_carbon2js9JsVariantE
	.p2align	4, 0x90
__Z7_scriptPN14altered_carbon2js9JsVariantE: ## @_Z7_scriptPN14altered_carbon2js9JsVariantE
	.cfi_startproc
## %bb.0:                               ## %init.bb
	pushq	%rbp
	.cfi_def_cfa_offset 16
	pushq	%r15
	.cfi_def_cfa_offset 24
	pushq	%r14
	.cfi_def_cfa_offset 32
	pushq	%r13
	.cfi_def_cfa_offset 40
	pushq	%r12
	.cfi_def_cfa_offset 48
	pushq	%rbx
	.cfi_def_cfa_offset 56
	subq	$1992, %rsp             ## imm = 0x7C8
	.cfi_def_cfa_offset 2048
	.cfi_offset %rbx, -56
	.cfi_offset %r12, -48
	.cfi_offset %r13, -40
	.cfi_offset %r14, -32
	.cfi_offset %r15, -24
	.cfi_offset %rbp, -16
	movq	%rdi, 8(%rsp)           ## 8-byte Spill
	movq	__ZTVN14altered_carbon2js9JsVariantE@GOTPCREL(%rip), %rbx
	addq	$16, %rbx
	movq	%rbx, 1376(%rsp)
	movl	$1, 1384(%rsp)
	movq	%rbx, 1320(%rsp)
	movl	$1, 1328(%rsp)
	movq	%rbx, 1936(%rsp)
	movl	$1, 1944(%rsp)
	movq	%rbx, 312(%rsp)
	movl	$1, 320(%rsp)
	movq	%rbx, 1264(%rsp)
	movl	$1, 1272(%rsp)
	movq	%rbx, 1208(%rsp)
	movl	$1, 1216(%rsp)
	movq	%rbx, 1880(%rsp)
	movl	$1, 1888(%rsp)
	movq	%rbx, 256(%rsp)
	movl	$1, 264(%rsp)
	movq	%rbx, 1152(%rsp)
	movl	$1, 1160(%rsp)
	movq	%rbx, 1096(%rsp)
	movl	$1, 1104(%rsp)
	movq	%rbx, 1824(%rsp)
	movl	$1, 1832(%rsp)
	movq	%rbx, 200(%rsp)
	movl	$1, 208(%rsp)
	movq	%rbx, 1040(%rsp)
	movl	$1, 1048(%rsp)
	movq	%rbx, 984(%rsp)
	movl	$1, 992(%rsp)
	movq	%rbx, 1768(%rsp)
	movl	$1, 1776(%rsp)
	movq	%rbx, 144(%rsp)
	movl	$1, 152(%rsp)
	movq	%rbx, 928(%rsp)
	movl	$1, 936(%rsp)
	movq	%rbx, 872(%rsp)
	movl	$1, 880(%rsp)
	movq	%rbx, 1712(%rsp)
	movl	$1, 1720(%rsp)
	movq	%rbx, 88(%rsp)
	movl	$1, 96(%rsp)
	movq	%rbx, 816(%rsp)
	movl	$1, 824(%rsp)
	movq	%rbx, 760(%rsp)
	movl	$1, 768(%rsp)
	movq	%rbx, 1656(%rsp)
	movl	$1, 1664(%rsp)
	movq	%rbx, 704(%rsp)
	movl	$1, 712(%rsp)
	movq	%rbx, 648(%rsp)
	movl	$1, 656(%rsp)
	movq	%rbx, 592(%rsp)
	movl	$1, 600(%rsp)
	movq	%rbx, 1600(%rsp)
	movl	$1, 1608(%rsp)
	movq	%rbx, 536(%rsp)
	movl	$1, 544(%rsp)
	movq	%rbx, 480(%rsp)
	movl	$1, 488(%rsp)
	movq	%rbx, 424(%rsp)
	movl	$1, 432(%rsp)
	movq	%rbx, 1544(%rsp)
	movl	$1, 1552(%rsp)
	movq	%rbx, 368(%rsp)
	movl	$1, 376(%rsp)
	movq	%rbx, 1488(%rsp)
	movl	$1, 1496(%rsp)
	movq	%rbx, 1432(%rsp)
	movl	$1, 1440(%rsp)
	leaq	1376(%rsp), %r14
	movl	$1, %esi
	movq	%r14, %rdi
	callq	__ZN14altered_carbon2js9JsVariantaSEx
	leaq	1320(%rsp), %rbp
	movl	$1, %esi
	movq	%rbp, %rdi
	callq	__ZN14altered_carbon2js9JsVariantaSEb
	movq	%r14, %rdi
	movq	%rbp, %rsi
	callq	__ZNK14altered_carbon2js9JsVariant4eqvtERKS1_
	movzbl	%al, %esi
	leaq	312(%rsp), %rdi
	callq	__ZN14altered_carbon2js9JsVariantaSEb
	leaq	1264(%rsp), %r14
	movl	$1, %esi
	movq	%r14, %rdi
	callq	__ZN14altered_carbon2js9JsVariantaSEx
	leaq	1208(%rsp), %rbp
	movl	$1, %esi
	movq	%rbp, %rdi
	callq	__ZN14altered_carbon2js9JsVariantaSEb
	movq	%r14, %rdi
	movq	%rbp, %rsi
	callq	__ZNK14altered_carbon2js9JsVarianteqERKS1_
	movzbl	%al, %esi
	leaq	256(%rsp), %rdi
	callq	__ZN14altered_carbon2js9JsVariantaSEb
	leaq	1152(%rsp), %r14
	movl	$1, %esi
	movq	%r14, %rdi
	callq	__ZN14altered_carbon2js9JsVariantaSEx
	leaq	1096(%rsp), %rbp
	xorl	%esi, %esi
	movq	%rbp, %rdi
	callq	__ZN14altered_carbon2js9JsVariantaSEb
	movq	%r14, %rdi
	movq	%rbp, %rsi
	callq	__ZNK14altered_carbon2js9JsVariantneERKS1_
	movzbl	%al, %esi
	leaq	200(%rsp), %rdi
	callq	__ZN14altered_carbon2js9JsVariantaSEb
	leaq	1040(%rsp), %r14
	movl	$1, %esi
	movq	%r14, %rdi
	callq	__ZN14altered_carbon2js9JsVariantaSEx
	leaq	984(%rsp), %rbp
	xorl	%esi, %esi
	movq	%rbp, %rdi
	callq	__ZN14altered_carbon2js9JsVariantaSEb
	movq	%r14, %rdi
	movq	%rbp, %rsi
	callq	__ZNK14altered_carbon2js9JsVariant4nevtERKS1_
	movzbl	%al, %esi
	leaq	144(%rsp), %rdi
	callq	__ZN14altered_carbon2js9JsVariantaSEb
	leaq	928(%rsp), %r14
	movl	$1, %esi
	movq	%r14, %rdi
	callq	__ZN14altered_carbon2js9JsVariantaSEx
	leaq	872(%rsp), %rbp
	movl	$1, %esi
	movq	%rbp, %rdi
	callq	__ZN14altered_carbon2js9JsVariantaSEx
	movq	%r14, %rdi
	movq	%rbp, %rsi
	callq	__ZNK14altered_carbon2js9JsVariantgtERKS1_
	movzbl	%al, %esi
	leaq	88(%rsp), %rdi
	callq	__ZN14altered_carbon2js9JsVariantaSEb
	leaq	816(%rsp), %r14
	movl	$1, %esi
	movq	%r14, %rdi
	callq	__ZN14altered_carbon2js9JsVariantaSEx
	leaq	760(%rsp), %rbp
	movl	$1, %esi
	movq	%rbp, %rdi
	callq	__ZN14altered_carbon2js9JsVariantaSEx
	movq	%r14, %rdi
	movq	%rbp, %rsi
	callq	__ZNK14altered_carbon2js9JsVariantltERKS1_
	movzbl	%al, %esi
	leaq	704(%rsp), %rdi
	callq	__ZN14altered_carbon2js9JsVariantaSEb
	leaq	648(%rsp), %r14
	movl	$1, %esi
	movq	%r14, %rdi
	callq	__ZN14altered_carbon2js9JsVariantaSEx
	leaq	592(%rsp), %rbp
	movl	$1, %esi
	movq	%rbp, %rdi
	callq	__ZN14altered_carbon2js9JsVariantaSEx
	movq	%r14, %rdi
	movq	%rbp, %rsi
	callq	__ZNK14altered_carbon2js9JsVariantgeERKS1_
	movzbl	%al, %esi
	leaq	536(%rsp), %rdi
	callq	__ZN14altered_carbon2js9JsVariantaSEb
	leaq	480(%rsp), %r14
	movl	$1, %esi
	movq	%r14, %rdi
	callq	__ZN14altered_carbon2js9JsVariantaSEx
	leaq	424(%rsp), %rbp
	movl	$1, %esi
	movq	%rbp, %rdi
	callq	__ZN14altered_carbon2js9JsVariantaSEx
	movq	%r14, %rdi
	movq	%rbp, %rsi
	callq	__ZNK14altered_carbon2js9JsVariantleERKS1_
	movzbl	%al, %esi
	leaq	368(%rsp), %rdi
	callq	__ZN14altered_carbon2js9JsVariantaSEb
	movl	$456, %edi              ## imm = 0x1C8
	callq	__Znam
	movq	$8, (%rax)
	leaq	8(%rax), %r15
	addq	$456, %rax              ## imm = 0x1C8
	movq	%r15, %rcx
	.p2align	4, 0x90
LBB0_1:                                 ## %initarr.bb
                                        ## =>This Inner Loop Header: Depth=1
	movq	%rbx, (%rcx)
	movl	$1, 8(%rcx)
	addq	$56, %rcx
	cmpq	%rax, %rcx
	jne	LBB0_1
## %bb.2:                               ## %initarr.bbe
	leaq	312(%rsp), %rsi
	movq	%r15, %rdi
	callq	__ZN14altered_carbon2js9JsVariantaSERKS1_
	movq	%r15, 16(%rsp)
	leaq	56(%r15), %rbx
	leaq	256(%rsp), %rsi
	movq	%rbx, %rdi
	callq	__ZN14altered_carbon2js9JsVariantaSERKS1_
	movq	%rbx, 24(%rsp)
	leaq	112(%r15), %rbx
	leaq	200(%rsp), %rsi
	movq	%rbx, %rdi
	callq	__ZN14altered_carbon2js9JsVariantaSERKS1_
	movq	%rbx, 32(%rsp)
	leaq	168(%r15), %rbp
	leaq	144(%rsp), %rsi
	movq	%rbp, %rdi
	callq	__ZN14altered_carbon2js9JsVariantaSERKS1_
	movq	%rbp, 40(%rsp)
	leaq	224(%r15), %rbx
	leaq	88(%rsp), %rsi
	movq	%rbx, %rdi
	callq	__ZN14altered_carbon2js9JsVariantaSERKS1_
	movq	%rbx, 48(%rsp)
	leaq	280(%r15), %rbx
	leaq	704(%rsp), %r14
	movq	%rbx, %rdi
	movq	%r14, %rsi
	callq	__ZN14altered_carbon2js9JsVariantaSERKS1_
	movq	%rbx, 56(%rsp)
	leaq	336(%r15), %rbx
	leaq	536(%rsp), %r12
	movq	%rbx, %rdi
	movq	%r12, %rsi
	callq	__ZN14altered_carbon2js9JsVariantaSERKS1_
	movq	%rbx, 64(%rsp)
	addq	$392, %r15              ## imm = 0x188
	leaq	368(%rsp), %r13
	movq	%r15, %rdi
	movq	%r13, %rsi
	callq	__ZN14altered_carbon2js9JsVariantaSERKS1_
	movq	%r15, 72(%rsp)
	leaq	1488(%rsp), %rbx
	leaq	16(%rsp), %rsi
	movl	$8, %edx
	movq	%rbx, %rdi
	callq	__ZN14altered_carbon2js9JsVariantaSEN4llvm8ArrayRefIPS1_EE
	leaq	1432(%rsp), %rbp
	movq	%rbp, %rdi
	movq	%rbx, %rsi
	callq	__ZN14altered_carbon2js9JsVariantaSERKS1_
	movq	8(%rsp), %rdi           ## 8-byte Reload
	movq	%rbp, %rsi
	callq	__ZN14altered_carbon2js9JsVariantaSERKS1_
	movq	%rbp, %rdi
	callq	__ZN14altered_carbon2js9JsVariantD1Ev
	movq	%rbx, %rdi
	callq	__ZN14altered_carbon2js9JsVariantD1Ev
	movq	%r13, %rdi
	callq	__ZN14altered_carbon2js9JsVariantD1Ev
	leaq	1544(%rsp), %rdi
	callq	__ZN14altered_carbon2js9JsVariantD1Ev
	leaq	424(%rsp), %rdi
	callq	__ZN14altered_carbon2js9JsVariantD1Ev
	leaq	480(%rsp), %rdi
	callq	__ZN14altered_carbon2js9JsVariantD1Ev
	movq	%r12, %rdi
	callq	__ZN14altered_carbon2js9JsVariantD1Ev
	leaq	1600(%rsp), %rdi
	callq	__ZN14altered_carbon2js9JsVariantD1Ev
	leaq	592(%rsp), %rdi
	callq	__ZN14altered_carbon2js9JsVariantD1Ev
	leaq	648(%rsp), %rdi
	callq	__ZN14altered_carbon2js9JsVariantD1Ev
	movq	%r14, %rdi
	callq	__ZN14altered_carbon2js9JsVariantD1Ev
	leaq	1656(%rsp), %rdi
	callq	__ZN14altered_carbon2js9JsVariantD1Ev
	leaq	760(%rsp), %rdi
	callq	__ZN14altered_carbon2js9JsVariantD1Ev
	leaq	816(%rsp), %rdi
	callq	__ZN14altered_carbon2js9JsVariantD1Ev
	leaq	88(%rsp), %rdi
	callq	__ZN14altered_carbon2js9JsVariantD1Ev
	leaq	1712(%rsp), %rdi
	callq	__ZN14altered_carbon2js9JsVariantD1Ev
	leaq	872(%rsp), %rdi
	callq	__ZN14altered_carbon2js9JsVariantD1Ev
	leaq	928(%rsp), %rdi
	callq	__ZN14altered_carbon2js9JsVariantD1Ev
	leaq	144(%rsp), %rdi
	callq	__ZN14altered_carbon2js9JsVariantD1Ev
	leaq	1768(%rsp), %rdi
	callq	__ZN14altered_carbon2js9JsVariantD1Ev
	leaq	984(%rsp), %rdi
	callq	__ZN14altered_carbon2js9JsVariantD1Ev
	leaq	1040(%rsp), %rdi
	callq	__ZN14altered_carbon2js9JsVariantD1Ev
	leaq	200(%rsp), %rdi
	callq	__ZN14altered_carbon2js9JsVariantD1Ev
	leaq	1824(%rsp), %rdi
	callq	__ZN14altered_carbon2js9JsVariantD1Ev
	leaq	1096(%rsp), %rdi
	callq	__ZN14altered_carbon2js9JsVariantD1Ev
	leaq	1152(%rsp), %rdi
	callq	__ZN14altered_carbon2js9JsVariantD1Ev
	leaq	256(%rsp), %rdi
	callq	__ZN14altered_carbon2js9JsVariantD1Ev
	leaq	1880(%rsp), %rdi
	callq	__ZN14altered_carbon2js9JsVariantD1Ev
	leaq	1208(%rsp), %rdi
	callq	__ZN14altered_carbon2js9JsVariantD1Ev
	leaq	1264(%rsp), %rdi
	callq	__ZN14altered_carbon2js9JsVariantD1Ev
	leaq	312(%rsp), %rdi
	callq	__ZN14altered_carbon2js9JsVariantD1Ev
	leaq	1936(%rsp), %rdi
	callq	__ZN14altered_carbon2js9JsVariantD1Ev
	leaq	1320(%rsp), %rdi
	callq	__ZN14altered_carbon2js9JsVariantD1Ev
	leaq	1376(%rsp), %rdi
	callq	__ZN14altered_carbon2js9JsVariantD1Ev
	addq	$1992, %rsp             ## imm = 0x7C8
	popq	%rbx
	popq	%r12
	popq	%r13
	popq	%r14
	popq	%r15
	popq	%rbp
	retq
	.cfi_endproc
                                        ## -- End function
	.section	__TEXT,__const
	.globl	__ZTSN14altered_carbon2js9JsVariantE ## @_ZTSN14altered_carbon2js9JsVariantE
	.weak_definition	__ZTSN14altered_carbon2js9JsVariantE
	.p2align	4
__ZTSN14altered_carbon2js9JsVariantE:
	.asciz	"N14altered_carbon2js9JsVariantE"

	.section	__DATA,__const
	.globl	__ZTIN14altered_carbon2js9JsVariantE ## @_ZTIN14altered_carbon2js9JsVariantE
	.weak_definition	__ZTIN14altered_carbon2js9JsVariantE
	.p2align	3
__ZTIN14altered_carbon2js9JsVariantE:
	.quad	__ZTVN10__cxxabiv117__class_type_infoE+16
	.quad	__ZTSN14altered_carbon2js9JsVariantE

	.globl	__ZTVN14altered_carbon2js9JsVariantE ## @_ZTVN14altered_carbon2js9JsVariantE
	.weak_def_can_be_hidden	__ZTVN14altered_carbon2js9JsVariantE
	.p2align	3
__ZTVN14altered_carbon2js9JsVariantE:
	.quad	0
	.quad	__ZTIN14altered_carbon2js9JsVariantE
	.quad	__ZN14altered_carbon2js9JsVariantD1Ev
	.quad	__ZN14altered_carbon2js9JsVariantD0Ev


.subsections_via_symbols
