	.section	__TEXT,__text,regular,pure_instructions
	.macosx_version_min 10, 13
	.globl	__Z7_scriptPN14altered_carbon2js9JsVariantE ## -- Begin function _Z7_scriptPN14altered_carbon2js9JsVariantE
	.p2align	4, 0x90
__Z7_scriptPN14altered_carbon2js9JsVariantE: ## @_Z7_scriptPN14altered_carbon2js9JsVariantE
	.cfi_startproc
## %bb.0:                               ## %init.bb
	pushq	%rbp
	.cfi_def_cfa_offset 16
	pushq	%r15
	.cfi_def_cfa_offset 24
	pushq	%r14
	.cfi_def_cfa_offset 32
	pushq	%r13
	.cfi_def_cfa_offset 40
	pushq	%r12
	.cfi_def_cfa_offset 48
	pushq	%rbx
	.cfi_def_cfa_offset 56
	subq	$504, %rsp              ## imm = 0x1F8
	.cfi_def_cfa_offset 560
	.cfi_offset %rbx, -56
	.cfi_offset %r12, -48
	.cfi_offset %r13, -40
	.cfi_offset %r14, -32
	.cfi_offset %r15, -24
	.cfi_offset %rbp, -16
	movq	%rdi, %r14
	movq	__ZTVN14altered_carbon2js9JsVariantE@GOTPCREL(%rip), %rax
	addq	$16, %rax
	movq	%rax, 336(%rsp)
	movl	$1, 344(%rsp)
	movq	%rax, 280(%rsp)
	movl	$1, 288(%rsp)
	movq	%rax, 224(%rsp)
	movl	$1, 232(%rsp)
	movq	%rax, 168(%rsp)
	movl	$1, 176(%rsp)
	movq	%rax, 112(%rsp)
	movl	$1, 120(%rsp)
	movq	%rax, 448(%rsp)
	movl	$1, 456(%rsp)
	movq	%rax, 56(%rsp)
	movl	$1, 64(%rsp)
	movq	%rax, (%rsp)
	movl	$1, 8(%rsp)
	movq	%rax, 392(%rsp)
	movl	$1, 400(%rsp)
	leaq	336(%rsp), %rbx
	movl	$1, %esi
	movq	%rbx, %rdi
	callq	__ZN14altered_carbon2js9JsVariantaSEx
	leaq	280(%rsp), %r15
	movq	%r15, %rdi
	movq	%rbx, %rsi
	callq	__ZN14altered_carbon2js9JsVariantaSERKS1_
	leaq	224(%rsp), %rbp
	movl	$1, %esi
	movq	%rbp, %rdi
	callq	__ZN14altered_carbon2js9JsVariantaSEx
	leaq	168(%rsp), %rbx
	movq	%rbx, %rdi
	movq	%rbp, %rsi
	callq	__ZN14altered_carbon2js9JsVariantaSERKS1_
	leaq	112(%rsp), %r12
	leaq	56(%rsp), %r13
	movq	%rsp, %rbp
	jmp	LBB0_1
	.p2align	4, 0x90
LBB0_2:                                 ## %ret.lhs
                                        ##   in Loop: Header=BB0_1 Depth=1
	movl	$1, %esi
	movq	%rbp, %rdi
	callq	__ZN14altered_carbon2js9JsVariantaSEx
	movq	%rbx, %rdi
	movq	%rbp, %rsi
	callq	__ZN14altered_carbon2js9JsVariantpLERKS1_
LBB0_1:                                 ## %cond.bb
                                        ## =>This Inner Loop Header: Depth=1
	movq	%r15, %rdi
	movq	%rbx, %rsi
	callq	__ZN14altered_carbon2js9JsVariantmLERKS1_
	movl	$10, %esi
	movq	%r12, %rdi
	callq	__ZN14altered_carbon2js9JsVariantaSEx
	movq	%rbx, %rdi
	movq	%r12, %rsi
	callq	__ZNK14altered_carbon2js9JsVariantltERKS1_
	movzbl	%al, %esi
	movq	%r13, %rdi
	callq	__ZN14altered_carbon2js9JsVariantC1Eb
	movq	%r13, %rdi
	callq	__ZNK14altered_carbon2js9JsVariant9asBooleanEv
	testb	%al, %al
	jne	LBB0_2
## %bb.3:                               ## %ret.rhs
	leaq	392(%rsp), %rbp
	leaq	280(%rsp), %rbx
	movq	%rbp, %rdi
	movq	%rbx, %rsi
	callq	__ZN14altered_carbon2js9JsVariantaSERKS1_
	movq	%r14, %rdi
	movq	%rbp, %rsi
	callq	__ZN14altered_carbon2js9JsVariantaSERKS1_
	movq	%rbp, %rdi
	callq	__ZN14altered_carbon2js9JsVariantD1Ev
	movq	%rsp, %rdi
	callq	__ZN14altered_carbon2js9JsVariantD1Ev
	leaq	56(%rsp), %rdi
	callq	__ZN14altered_carbon2js9JsVariantD1Ev
	leaq	448(%rsp), %rdi
	callq	__ZN14altered_carbon2js9JsVariantD1Ev
	leaq	112(%rsp), %rdi
	callq	__ZN14altered_carbon2js9JsVariantD1Ev
	leaq	168(%rsp), %rdi
	callq	__ZN14altered_carbon2js9JsVariantD1Ev
	leaq	224(%rsp), %rdi
	callq	__ZN14altered_carbon2js9JsVariantD1Ev
	movq	%rbx, %rdi
	callq	__ZN14altered_carbon2js9JsVariantD1Ev
	leaq	336(%rsp), %rdi
	callq	__ZN14altered_carbon2js9JsVariantD1Ev
	addq	$504, %rsp              ## imm = 0x1F8
	popq	%rbx
	popq	%r12
	popq	%r13
	popq	%r14
	popq	%r15
	popq	%rbp
	retq
	.cfi_endproc
                                        ## -- End function
	.section	__TEXT,__const
	.globl	__ZTSN14altered_carbon2js9JsVariantE ## @_ZTSN14altered_carbon2js9JsVariantE
	.weak_definition	__ZTSN14altered_carbon2js9JsVariantE
	.p2align	4
__ZTSN14altered_carbon2js9JsVariantE:
	.asciz	"N14altered_carbon2js9JsVariantE"

	.section	__DATA,__const
	.globl	__ZTIN14altered_carbon2js9JsVariantE ## @_ZTIN14altered_carbon2js9JsVariantE
	.weak_definition	__ZTIN14altered_carbon2js9JsVariantE
	.p2align	3
__ZTIN14altered_carbon2js9JsVariantE:
	.quad	__ZTVN10__cxxabiv117__class_type_infoE+16
	.quad	__ZTSN14altered_carbon2js9JsVariantE

	.globl	__ZTVN14altered_carbon2js9JsVariantE ## @_ZTVN14altered_carbon2js9JsVariantE
	.weak_def_can_be_hidden	__ZTVN14altered_carbon2js9JsVariantE
	.p2align	3
__ZTVN14altered_carbon2js9JsVariantE:
	.quad	0
	.quad	__ZTIN14altered_carbon2js9JsVariantE
	.quad	__ZN14altered_carbon2js9JsVariantD1Ev
	.quad	__ZN14altered_carbon2js9JsVariantD0Ev


.subsections_via_symbols
