; ModuleID = 'func10.js'
source_filename = "func10.js"

%"cls.acjs::JsVariant" = type { i32 (...)**, i32, %union.anon.6 }
%union.anon.6 = type { %"cls.acjs::JsVariantFunc", [24 x i8] }
%"cls.acjs::JsVariantFunc" = type { void (%"cls.acjs::JsVariant"*, %"cls.acjs::JsVariant"*, %"cls.acjs::JsVariant"**, i64)*, i32* }

@_ZTVN10__cxxabiv117__class_type_infoE = external global i8*
@_ZTSN14altered_carbon2js9JsVariantE = linkonce_odr constant [32 x i8] c"N14altered_carbon2js9JsVariantE\00"
@_ZTIN14altered_carbon2js9JsVariantE = linkonce_odr constant { i8*, i8* } { i8* bitcast (i8** getelementptr inbounds (i8*, i8** @_ZTVN10__cxxabiv117__class_type_infoE, i64 2) to i8*), i8* getelementptr inbounds ([32 x i8], [32 x i8]* @_ZTSN14altered_carbon2js9JsVariantE, i32 0, i32 0) }
@_ZTVN14altered_carbon2js9JsVariantE = linkonce_odr unnamed_addr constant { [4 x i8*] } { [4 x i8*] [i8* null, i8* bitcast ({ i8*, i8* }* @_ZTIN14altered_carbon2js9JsVariantE to i8*), i8* bitcast (void (%"cls.acjs::JsVariant"*)* @_ZN14altered_carbon2js9JsVariantD1Ev to i8*), i8* bitcast (void (%"cls.acjs::JsVariant"*)* @_ZN14altered_carbon2js9JsVariantD0Ev to i8*)] }, align 8
@_ZN14altered_carbon2js11JsConstants9UndefinedE = external constant %"cls.acjs::JsVariant"
@_ZN14altered_carbon2js11JsConstants4NullE = external constant %"cls.acjs::JsVariant"
@_ZN14altered_carbon2js11JsConstants3NaNE = external constant %"cls.acjs::JsVariant"
@_ZN14altered_carbon2js11JsConstants8InfinityE = external constant %"cls.acjs::JsVariant"
@_ZN14altered_carbon2js11JsConstants9TypeErrorE = external constant %"cls.acjs::JsVariant"
@_ZN14altered_carbon2js11JsConstants16NullPointerErrorE = external constant %"cls.acjs::JsVariant"

declare void @_ZN14altered_carbon2js9JsVariantD1Ev(%"cls.acjs::JsVariant"*)

declare void @_ZN14altered_carbon2js9JsVariantD0Ev(%"cls.acjs::JsVariant"*)

declare dereferenceable(56) %"cls.acjs::JsVariant"* @_ZNK14altered_carbon2js9JsVariant3bwaEPS1_RKS1_(%"cls.acjs::JsVariant"*, %"cls.acjs::JsVariant"*, %"cls.acjs::JsVariant"* dereferenceable(56))

declare dereferenceable(56) %"cls.acjs::JsVariant"* @_ZNK14altered_carbon2js9JsVariant3bwxEPS1_RKS1_(%"cls.acjs::JsVariant"*, %"cls.acjs::JsVariant"*, %"cls.acjs::JsVariant"* dereferenceable(56))

declare zeroext i1 @_ZNK14altered_carbon2js9JsVarianteqERKS1_(%"cls.acjs::JsVariant"*, %"cls.acjs::JsVariant"* dereferenceable(56))

declare zeroext i1 @_ZNK14altered_carbon2js9JsVariantneERKS1_(%"cls.acjs::JsVariant"*, %"cls.acjs::JsVariant"* dereferenceable(56))

declare zeroext i1 @_ZNK14altered_carbon2js9JsVarianteqvtERKS1_(%"cls.acjs::JsVariant"*, %"cls.acjs::JsVariant"* dereferenceable(56))

declare zeroext i1 @_ZNK14altered_carbon2js9JsVariantnevtERKS1_(%"cls.acjs::JsVariant"*, %"cls.acjs::JsVariant"* dereferenceable(56))

declare zeroext i1 @_ZNK14altered_carbon2js9JsVariantltERKS1_(%"cls.acjs::JsVariant"*, %"cls.acjs::JsVariant"* dereferenceable(56))

declare zeroext i1 @_ZNK14altered_carbon2js9JsVariantgtERKS1_(%"cls.acjs::JsVariant"*, %"cls.acjs::JsVariant"* dereferenceable(56))

declare zeroext i1 @_ZNK14altered_carbon2js9JsVariantleERKS1_(%"cls.acjs::JsVariant"*, %"cls.acjs::JsVariant"* dereferenceable(56))

declare zeroext i1 @_ZNK14altered_carbon2js9JsVariantgeERKS1_(%"cls.acjs::JsVariant"*, %"cls.acjs::JsVariant"* dereferenceable(56))

declare dereferenceable(56) %"cls.acjs::JsVariant"* @_ZNK14altered_carbon2js9JsVariant3ltsEPS1_RKS1_(%"cls.acjs::JsVariant"*, %"cls.acjs::JsVariant"*, %"cls.acjs::JsVariant"* dereferenceable(56))

declare dereferenceable(56) %"cls.acjs::JsVariant"* @_ZNK14altered_carbon2js9JsVariant3rtsEPS1_RKS1_(%"cls.acjs::JsVariant"*, %"cls.acjs::JsVariant"*, %"cls.acjs::JsVariant"* dereferenceable(56))

declare dereferenceable(56) %"cls.acjs::JsVariant"* @_ZNK14altered_carbon2js9JsVariant3rszEPS1_RKS1_(%"cls.acjs::JsVariant"*, %"cls.acjs::JsVariant"*, %"cls.acjs::JsVariant"* dereferenceable(56))

declare dereferenceable(56) %"cls.acjs::JsVariant"* @_ZNK14altered_carbon2js9JsVariant3addEPS1_RKS1_(%"cls.acjs::JsVariant"*, %"cls.acjs::JsVariant"*, %"cls.acjs::JsVariant"* dereferenceable(56))

declare void @_ZN14altered_carbon2js9JsVariantpsEv(%"cls.acjs::JsVariant"* noalias sret, %"cls.acjs::JsVariant"*)

declare dereferenceable(56) %"cls.acjs::JsVariant"* @_ZNK14altered_carbon2js9JsVariant3subEPS1_RKS1_(%"cls.acjs::JsVariant"*, %"cls.acjs::JsVariant"*, %"cls.acjs::JsVariant"* dereferenceable(56))

declare void @_ZN14altered_carbon2js9JsVariantngEv(%"cls.acjs::JsVariant"* noalias sret, %"cls.acjs::JsVariant"*)

declare dereferenceable(56) %"cls.acjs::JsVariant"* @_ZNK14altered_carbon2js9JsVariant3mulEPS1_RKS1_(%"cls.acjs::JsVariant"*, %"cls.acjs::JsVariant"*, %"cls.acjs::JsVariant"* dereferenceable(56))

declare dereferenceable(56) %"cls.acjs::JsVariant"* @_ZNK14altered_carbon2js9JsVariant3divEPS1_RKS1_(%"cls.acjs::JsVariant"*, %"cls.acjs::JsVariant"*, %"cls.acjs::JsVariant"* dereferenceable(56))

declare dereferenceable(56) %"cls.acjs::JsVariant"* @_ZNK14altered_carbon2js9JsVariant3modEPS1_RKS1_(%"cls.acjs::JsVariant"*, %"cls.acjs::JsVariant"*, %"cls.acjs::JsVariant"* dereferenceable(56))

declare void @_ZN14altered_carbon2js9JsVariantcoEv(%"cls.acjs::JsVariant"* noalias sret, %"cls.acjs::JsVariant"*)

declare void @_ZN14altered_carbon2js9JsVariantppEi(%"cls.acjs::JsVariant"* noalias sret, %"cls.acjs::JsVariant"*, i32)

declare dereferenceable(56) %"cls.acjs::JsVariant"* @_ZN14altered_carbon2js9JsVariantppEv(%"cls.acjs::JsVariant"*)

declare void @_ZN14altered_carbon2js9JsVariantmmEi(%"cls.acjs::JsVariant"* noalias sret, %"cls.acjs::JsVariant"*, i32)

declare dereferenceable(56) %"cls.acjs::JsVariant"* @_ZN14altered_carbon2js9JsVariantmmEv(%"cls.acjs::JsVariant"*)

declare dereferenceable(56) %"cls.acjs::JsVariant"* @_ZN14altered_carbon2js9JsVariantaSERKS1_(%"cls.acjs::JsVariant"*, %"cls.acjs::JsVariant"* dereferenceable(56))

declare dereferenceable(56) %"cls.acjs::JsVariant"* @_ZN14altered_carbon2js9JsVariantpLERKS1_(%"cls.acjs::JsVariant"*, %"cls.acjs::JsVariant"* dereferenceable(56))

declare dereferenceable(56) %"cls.acjs::JsVariant"* @_ZN14altered_carbon2js9JsVariantmIERKS1_(%"cls.acjs::JsVariant"*, %"cls.acjs::JsVariant"* dereferenceable(56))

declare dereferenceable(56) %"cls.acjs::JsVariant"* @_ZN14altered_carbon2js9JsVariantmLERKS1_(%"cls.acjs::JsVariant"*, %"cls.acjs::JsVariant"* dereferenceable(56))

declare dereferenceable(56) %"cls.acjs::JsVariant"* @_ZN14altered_carbon2js9JsVariantdVERKS1_(%"cls.acjs::JsVariant"*, %"cls.acjs::JsVariant"* dereferenceable(56))

declare dereferenceable(56) %"cls.acjs::JsVariant"* @_ZN14altered_carbon2js9JsVariantrMERKS1_(%"cls.acjs::JsVariant"*, %"cls.acjs::JsVariant"* dereferenceable(56))

declare dereferenceable(56) %"cls.acjs::JsVariant"* @_ZN14altered_carbon2js9JsVariantlSERKS1_(%"cls.acjs::JsVariant"*, %"cls.acjs::JsVariant"* dereferenceable(56))

declare dereferenceable(56) %"cls.acjs::JsVariant"* @_ZN14altered_carbon2js9JsVariantrSERKS1_(%"cls.acjs::JsVariant"*, %"cls.acjs::JsVariant"* dereferenceable(56))

declare dereferenceable(56) %"cls.acjs::JsVariant"* @_ZN14altered_carbon2js9JsVariant4arszERKS1_(%"cls.acjs::JsVariant"*, %"cls.acjs::JsVariant"* dereferenceable(56))

declare dereferenceable(56) %"cls.acjs::JsVariant"* @_ZN14altered_carbon2js9JsVariantaNERKS1_(%"cls.acjs::JsVariant"*, %"cls.acjs::JsVariant"* dereferenceable(56))

declare dereferenceable(56) %"cls.acjs::JsVariant"* @_ZN14altered_carbon2js9JsVariantoRERKS1_(%"cls.acjs::JsVariant"*, %"cls.acjs::JsVariant"* dereferenceable(56))

declare dereferenceable(56) %"cls.acjs::JsVariant"* @_ZN14altered_carbon2js9JsVarianteOERKS1_(%"cls.acjs::JsVariant"*, %"cls.acjs::JsVariant"* dereferenceable(56))

define void @_Z7_scriptPN14altered_carbon2js9JsVariantE(%"cls.acjs::JsVariant"*) {
init.bb:
  %ptr = alloca %"cls.acjs::JsVariant", align 8
  %1 = bitcast %"cls.acjs::JsVariant"* %ptr to i32 (...)***
  store i32 (...)** bitcast (i8** getelementptr inbounds ({ [4 x i8*] }, { [4 x i8*] }* @_ZTVN14altered_carbon2js9JsVariantE, i32 0, inrange i32 0, i32 2) to i32 (...)**), i32 (...)*** %1, align 8
  %2 = getelementptr inbounds %"cls.acjs::JsVariant", %"cls.acjs::JsVariant"* %ptr, i32 0, i32 1
  store i32 1, i32* %2, align 8
  %ptr1 = alloca %"cls.acjs::JsVariant", align 8
  %3 = bitcast %"cls.acjs::JsVariant"* %ptr1 to i32 (...)***
  store i32 (...)** bitcast (i8** getelementptr inbounds ({ [4 x i8*] }, { [4 x i8*] }* @_ZTVN14altered_carbon2js9JsVariantE, i32 0, inrange i32 0, i32 2) to i32 (...)**), i32 (...)*** %3, align 8
  %4 = getelementptr inbounds %"cls.acjs::JsVariant", %"cls.acjs::JsVariant"* %ptr1, i32 0, i32 1
  store i32 1, i32* %4, align 8
  %ptr2 = alloca %"cls.acjs::JsVariant", align 8
  %5 = bitcast %"cls.acjs::JsVariant"* %ptr2 to i32 (...)***
  store i32 (...)** bitcast (i8** getelementptr inbounds ({ [4 x i8*] }, { [4 x i8*] }* @_ZTVN14altered_carbon2js9JsVariantE, i32 0, inrange i32 0, i32 2) to i32 (...)**), i32 (...)*** %5, align 8
  %6 = getelementptr inbounds %"cls.acjs::JsVariant", %"cls.acjs::JsVariant"* %ptr2, i32 0, i32 1
  store i32 1, i32* %6, align 8
  %ptr4 = alloca [1 x %"cls.acjs::JsVariant"*], align 16
  %ptr5 = alloca %"cls.acjs::JsVariant", align 8
  %7 = bitcast %"cls.acjs::JsVariant"* %ptr5 to i32 (...)***
  store i32 (...)** bitcast (i8** getelementptr inbounds ({ [4 x i8*] }, { [4 x i8*] }* @_ZTVN14altered_carbon2js9JsVariantE, i32 0, inrange i32 0, i32 2) to i32 (...)**), i32 (...)*** %7, align 8
  %8 = getelementptr inbounds %"cls.acjs::JsVariant", %"cls.acjs::JsVariant"* %ptr5, i32 0, i32 1
  store i32 1, i32* %8, align 8
  %ptr6 = alloca %"cls.acjs::JsVariant", align 8
  %9 = bitcast %"cls.acjs::JsVariant"* %ptr6 to i32 (...)***
  store i32 (...)** bitcast (i8** getelementptr inbounds ({ [4 x i8*] }, { [4 x i8*] }* @_ZTVN14altered_carbon2js9JsVariantE, i32 0, inrange i32 0, i32 2) to i32 (...)**), i32 (...)*** %9, align 8
  %10 = getelementptr inbounds %"cls.acjs::JsVariant", %"cls.acjs::JsVariant"* %ptr6, i32 0, i32 1
  store i32 1, i32* %10, align 8
  %ptr7 = alloca %"cls.acjs::JsVariant", align 8
  %11 = bitcast %"cls.acjs::JsVariant"* %ptr7 to i32 (...)***
  store i32 (...)** bitcast (i8** getelementptr inbounds ({ [4 x i8*] }, { [4 x i8*] }* @_ZTVN14altered_carbon2js9JsVariantE, i32 0, inrange i32 0, i32 2) to i32 (...)**), i32 (...)*** %11, align 8
  %12 = getelementptr inbounds %"cls.acjs::JsVariant", %"cls.acjs::JsVariant"* %ptr7, i32 0, i32 1
  store i32 1, i32* %12, align 8
  %ptr8 = alloca %"cls.acjs::JsVariant", align 8
  %13 = bitcast %"cls.acjs::JsVariant"* %ptr8 to i32 (...)***
  store i32 (...)** bitcast (i8** getelementptr inbounds ({ [4 x i8*] }, { [4 x i8*] }* @_ZTVN14altered_carbon2js9JsVariantE, i32 0, inrange i32 0, i32 2) to i32 (...)**), i32 (...)*** %13, align 8
  %14 = getelementptr inbounds %"cls.acjs::JsVariant", %"cls.acjs::JsVariant"* %ptr8, i32 0, i32 1
  store i32 1, i32* %14, align 8
  %ptr13 = alloca [1 x %"cls.acjs::JsVariant"*], align 16
  %ptr14 = alloca %"cls.acjs::JsVariant", align 8
  %15 = bitcast %"cls.acjs::JsVariant"* %ptr14 to i32 (...)***
  store i32 (...)** bitcast (i8** getelementptr inbounds ({ [4 x i8*] }, { [4 x i8*] }* @_ZTVN14altered_carbon2js9JsVariantE, i32 0, inrange i32 0, i32 2) to i32 (...)**), i32 (...)*** %15, align 8
  %16 = getelementptr inbounds %"cls.acjs::JsVariant", %"cls.acjs::JsVariant"* %ptr14, i32 0, i32 1
  store i32 1, i32* %16, align 8
  %ptr16 = alloca %"cls.acjs::JsVariant", align 8
  %17 = bitcast %"cls.acjs::JsVariant"* %ptr16 to i32 (...)***
  store i32 (...)** bitcast (i8** getelementptr inbounds ({ [4 x i8*] }, { [4 x i8*] }* @_ZTVN14altered_carbon2js9JsVariantE, i32 0, inrange i32 0, i32 2) to i32 (...)**), i32 (...)*** %17, align 8
  %18 = getelementptr inbounds %"cls.acjs::JsVariant", %"cls.acjs::JsVariant"* %ptr16, i32 0, i32 1
  store i32 1, i32* %18, align 8
  %ptr17 = alloca %"cls.acjs::JsVariant", align 8
  %19 = bitcast %"cls.acjs::JsVariant"* %ptr17 to i32 (...)***
  store i32 (...)** bitcast (i8** getelementptr inbounds ({ [4 x i8*] }, { [4 x i8*] }* @_ZTVN14altered_carbon2js9JsVariantE, i32 0, inrange i32 0, i32 2) to i32 (...)**), i32 (...)*** %19, align 8
  %20 = getelementptr inbounds %"cls.acjs::JsVariant", %"cls.acjs::JsVariant"* %ptr17, i32 0, i32 1
  store i32 1, i32* %20, align 8
  br label %exec.bb

exec.bb:                                          ; preds = %init.bb
  %21 = call %"cls.acjs::JsVariant"* @_ZN14altered_carbon2js9JsVariantaSEx(%"cls.acjs::JsVariant"* %ptr, i64 1)
  %22 = call %"cls.acjs::JsVariant"* @_ZN14altered_carbon2js9JsVariantaSERKS1_(%"cls.acjs::JsVariant"* %ptr1, %"cls.acjs::JsVariant"* %ptr)
  %23 = call %"cls.acjs::JsVariant"* @_ZN14altered_carbon2js9JsVariantaSEx(%"cls.acjs::JsVariant"* %ptr2, i64 1)
  %24 = getelementptr inbounds %"cls.acjs::JsVariant", %"cls.acjs::JsVariant"* %ptr1, i32 0, i32 1
  %25 = load i32, i32* %24, align 8
  %26 = icmp eq i32 %25, 15
  br i1 %26, label %npe.bb, label %err.bb

exit.bb:                                          ; preds = %npe.bb9e
  %27 = call %"cls.acjs::JsVariant"* @_ZN14altered_carbon2js9JsVariantaSERKS1_(%"cls.acjs::JsVariant"* %0, %"cls.acjs::JsVariant"* dereferenceable(56) %ptr17)
  call void @_ZN14altered_carbon2js9JsVariantD1Ev(%"cls.acjs::JsVariant"* %ptr17)
  call void @_ZN14altered_carbon2js9JsVariantD1Ev(%"cls.acjs::JsVariant"* %ptr16)
  call void @_ZN14altered_carbon2js9JsVariantD1Ev(%"cls.acjs::JsVariant"* %ptr14)
  call void @_ZN14altered_carbon2js9JsVariantD1Ev(%"cls.acjs::JsVariant"* %ptr8)
  call void @_ZN14altered_carbon2js9JsVariantD1Ev(%"cls.acjs::JsVariant"* %ptr7)
  call void @_ZN14altered_carbon2js9JsVariantD1Ev(%"cls.acjs::JsVariant"* %ptr6)
  call void @_ZN14altered_carbon2js9JsVariantD1Ev(%"cls.acjs::JsVariant"* %ptr5)
  call void @_ZN14altered_carbon2js9JsVariantD1Ev(%"cls.acjs::JsVariant"* %ptr2)
  call void @_ZN14altered_carbon2js9JsVariantD1Ev(%"cls.acjs::JsVariant"* %ptr1)
  call void @_ZN14altered_carbon2js9JsVariantD1Ev(%"cls.acjs::JsVariant"* %ptr)
  ret void

npe.bb:                                           ; preds = %exec.bb
  %28 = getelementptr inbounds %"cls.acjs::JsVariant", %"cls.acjs::JsVariant"* %ptr1, i32 0, i32 2
  %29 = bitcast %union.anon.6* %28 to %"cls.acjs::JsVariantFunc"*
  %30 = getelementptr inbounds %"cls.acjs::JsVariantFunc", %"cls.acjs::JsVariantFunc"* %29, i32 0, i32 0
  %31 = icmp ne void (%"cls.acjs::JsVariant"*, %"cls.acjs::JsVariant"*, %"cls.acjs::JsVariant"**, i64)** %30, null
  br i1 %31, label %call.bb, label %err.bb3

npe.bbe:                                          ; preds = %call.bb, %err.bb3, %err.bb
  %jsret = phi %"cls.acjs::JsVariant"* [ @_ZN14altered_carbon2js11JsConstants9TypeErrorE, %err.bb ], [ @_ZN14altered_carbon2js11JsConstants16NullPointerErrorE, %err.bb3 ], [ %ptr5, %call.bb ]
  %32 = call %"cls.acjs::JsVariant"* @_ZN14altered_carbon2js9JsVariantaSERKS1_(%"cls.acjs::JsVariant"* %ptr6, %"cls.acjs::JsVariant"* %jsret)
  %33 = call %"cls.acjs::JsVariant"* @_ZN14altered_carbon2js9JsVariantaSEx(%"cls.acjs::JsVariant"* %ptr7, i64 2)
  %34 = call %"cls.acjs::JsVariant"* @_ZN14altered_carbon2js9JsVariantpLERKS1_(%"cls.acjs::JsVariant"* %ptr6, %"cls.acjs::JsVariant"* %ptr7)
  %35 = call %"cls.acjs::JsVariant"* @_ZN14altered_carbon2js9JsVariantaSEx(%"cls.acjs::JsVariant"* %ptr8, i64 2)
  %36 = getelementptr inbounds %"cls.acjs::JsVariant", %"cls.acjs::JsVariant"* %ptr1, i32 0, i32 1
  %37 = load i32, i32* %36, align 8
  %38 = icmp eq i32 %37, 15
  br i1 %38, label %npe.bb9, label %err.bb10

err.bb:                                           ; preds = %exec.bb
  br label %npe.bbe

call.bb:                                          ; preds = %npe.bb
  %39 = load void (%"cls.acjs::JsVariant"*, %"cls.acjs::JsVariant"*, %"cls.acjs::JsVariant"**, i64)*, void (%"cls.acjs::JsVariant"*, %"cls.acjs::JsVariant"*, %"cls.acjs::JsVariant"**, i64)** %30, align 8
  %40 = getelementptr inbounds [1 x %"cls.acjs::JsVariant"*], [1 x %"cls.acjs::JsVariant"*]* %ptr4, i32 0, i32 0
  %41 = getelementptr inbounds %"cls.acjs::JsVariant"*, %"cls.acjs::JsVariant"** %40, i64 0
  store %"cls.acjs::JsVariant"* %ptr2, %"cls.acjs::JsVariant"** %41, align 8
  call void %39(%"cls.acjs::JsVariant"* %ptr5, %"cls.acjs::JsVariant"* null, %"cls.acjs::JsVariant"** %40, i64 1)
  br label %npe.bbe

err.bb3:                                          ; preds = %npe.bb
  br label %npe.bbe

npe.bb9:                                          ; preds = %npe.bbe
  %42 = getelementptr inbounds %"cls.acjs::JsVariant", %"cls.acjs::JsVariant"* %ptr1, i32 0, i32 2
  %43 = bitcast %union.anon.6* %42 to %"cls.acjs::JsVariantFunc"*
  %44 = getelementptr inbounds %"cls.acjs::JsVariantFunc", %"cls.acjs::JsVariantFunc"* %43, i32 0, i32 0
  %45 = icmp ne void (%"cls.acjs::JsVariant"*, %"cls.acjs::JsVariant"*, %"cls.acjs::JsVariant"**, i64)** %44, null
  br i1 %45, label %call.bb11, label %err.bb12

npe.bb9e:                                         ; preds = %call.bb11, %err.bb12, %err.bb10
  %jsret15 = phi %"cls.acjs::JsVariant"* [ @_ZN14altered_carbon2js11JsConstants9TypeErrorE, %err.bb10 ], [ @_ZN14altered_carbon2js11JsConstants16NullPointerErrorE, %err.bb12 ], [ %ptr14, %call.bb11 ]
  %46 = call %"cls.acjs::JsVariant"* @_ZN14altered_carbon2js9JsVariantaSERKS1_(%"cls.acjs::JsVariant"* %ptr16, %"cls.acjs::JsVariant"* %jsret15)
  %47 = call %"cls.acjs::JsVariant"* @_ZN14altered_carbon2js9JsVariantaSERKS1_(%"cls.acjs::JsVariant"* %ptr17, %"cls.acjs::JsVariant"* %ptr16)
  br label %exit.bb

err.bb10:                                         ; preds = %npe.bbe
  br label %npe.bb9e

call.bb11:                                        ; preds = %npe.bb9
  %48 = load void (%"cls.acjs::JsVariant"*, %"cls.acjs::JsVariant"*, %"cls.acjs::JsVariant"**, i64)*, void (%"cls.acjs::JsVariant"*, %"cls.acjs::JsVariant"*, %"cls.acjs::JsVariant"**, i64)** %44, align 8
  %49 = getelementptr inbounds [1 x %"cls.acjs::JsVariant"*], [1 x %"cls.acjs::JsVariant"*]* %ptr13, i32 0, i32 0
  %50 = getelementptr inbounds %"cls.acjs::JsVariant"*, %"cls.acjs::JsVariant"** %49, i64 0
  store %"cls.acjs::JsVariant"* %ptr8, %"cls.acjs::JsVariant"** %50, align 8
  call void %48(%"cls.acjs::JsVariant"* %ptr14, %"cls.acjs::JsVariant"* null, %"cls.acjs::JsVariant"** %49, i64 1)
  br label %npe.bb9e

err.bb12:                                         ; preds = %npe.bb9
  br label %npe.bb9e
}

declare %"cls.acjs::JsVariant"* @_ZN14altered_carbon2js9JsVariantaSEx(%"cls.acjs::JsVariant"*, i64)
