	.section	__TEXT,__text,regular,pure_instructions
	.macosx_version_min 10, 13
	.globl	__Z7_scriptPN14altered_carbon2js9JsVariantE ## -- Begin function _Z7_scriptPN14altered_carbon2js9JsVariantE
	.p2align	4, 0x90
__Z7_scriptPN14altered_carbon2js9JsVariantE: ## @_Z7_scriptPN14altered_carbon2js9JsVariantE
	.cfi_startproc
## %bb.0:                               ## %init.bb
	pushq	%r15
	.cfi_def_cfa_offset 16
	pushq	%r14
	.cfi_def_cfa_offset 24
	pushq	%rbx
	.cfi_def_cfa_offset 32
	subq	$288, %rsp              ## imm = 0x120
	.cfi_def_cfa_offset 320
	.cfi_offset %rbx, -32
	.cfi_offset %r14, -24
	.cfi_offset %r15, -16
	movq	%rdi, %r14
	movq	__ZTVN14altered_carbon2js9JsVariantE@GOTPCREL(%rip), %rax
	addq	$16, %rax
	movq	%rax, 176(%rsp)
	movl	$1, 184(%rsp)
	movq	%rax, 8(%rsp)
	movl	$1, 16(%rsp)
	movq	%rax, 120(%rsp)
	movl	$1, 128(%rsp)
	movq	%rax, 64(%rsp)
	movl	$1, 72(%rsp)
	movq	%rax, 232(%rsp)
	movl	$1, 240(%rsp)
	leaq	176(%rsp), %rbx
	xorl	%esi, %esi
	movq	%rbx, %rdi
	callq	__ZN14altered_carbon2js9JsVariantaSEx
	leaq	8(%rsp), %rdi
	movq	%rbx, %rsi
	callq	__ZN14altered_carbon2js9JsVariantaSERKS1_
	leaq	l_.wstr(%rip), %rdi
	callq	_wcslen
	testq	%rax, %rax
	je	LBB0_2
## %bb.1:                               ## %ret.lhs
	leaq	120(%rsp), %rbx
	movl	$2, %esi
	movq	%rbx, %rdi
	callq	__ZN14altered_carbon2js9JsVariantaSEx
	leaq	8(%rsp), %rdi
	movq	%rbx, %rsi
	callq	__ZN14altered_carbon2js9JsVariantpLERKS1_
LBB0_2:                                 ## %ret.op
	leaq	l_.wstr.1(%rip), %rdi
	callq	_wcslen
	testq	%rax, %rax
	je	LBB0_4
## %bb.3:                               ## %ret.lhs3
	leaq	64(%rsp), %rbx
	movl	$3, %esi
	movq	%rbx, %rdi
	callq	__ZN14altered_carbon2js9JsVariantaSEx
	leaq	8(%rsp), %rdi
	movq	%rbx, %rsi
	callq	__ZN14altered_carbon2js9JsVariantpLERKS1_
LBB0_4:                                 ## %ret.op5
	leaq	232(%rsp), %rbx
	leaq	8(%rsp), %r15
	movq	%rbx, %rdi
	movq	%r15, %rsi
	callq	__ZN14altered_carbon2js9JsVariantaSERKS1_
	movq	%r14, %rdi
	movq	%rbx, %rsi
	callq	__ZN14altered_carbon2js9JsVariantaSERKS1_
	movq	%rbx, %rdi
	callq	__ZN14altered_carbon2js9JsVariantD1Ev
	leaq	64(%rsp), %rdi
	callq	__ZN14altered_carbon2js9JsVariantD1Ev
	leaq	120(%rsp), %rdi
	callq	__ZN14altered_carbon2js9JsVariantD1Ev
	movq	%r15, %rdi
	callq	__ZN14altered_carbon2js9JsVariantD1Ev
	leaq	176(%rsp), %rdi
	callq	__ZN14altered_carbon2js9JsVariantD1Ev
	addq	$288, %rsp              ## imm = 0x120
	popq	%rbx
	popq	%r14
	popq	%r15
	retq
	.cfi_endproc
                                        ## -- End function
	.section	__TEXT,__const
	.globl	__ZTSN14altered_carbon2js9JsVariantE ## @_ZTSN14altered_carbon2js9JsVariantE
	.weak_definition	__ZTSN14altered_carbon2js9JsVariantE
	.p2align	4
__ZTSN14altered_carbon2js9JsVariantE:
	.asciz	"N14altered_carbon2js9JsVariantE"

	.section	__DATA,__const
	.globl	__ZTIN14altered_carbon2js9JsVariantE ## @_ZTIN14altered_carbon2js9JsVariantE
	.weak_definition	__ZTIN14altered_carbon2js9JsVariantE
	.p2align	3
__ZTIN14altered_carbon2js9JsVariantE:
	.quad	__ZTVN10__cxxabiv117__class_type_infoE+16
	.quad	__ZTSN14altered_carbon2js9JsVariantE

	.globl	__ZTVN14altered_carbon2js9JsVariantE ## @_ZTVN14altered_carbon2js9JsVariantE
	.weak_def_can_be_hidden	__ZTVN14altered_carbon2js9JsVariantE
	.p2align	3
__ZTVN14altered_carbon2js9JsVariantE:
	.quad	0
	.quad	__ZTIN14altered_carbon2js9JsVariantE
	.quad	__ZN14altered_carbon2js9JsVariantD1Ev
	.quad	__ZN14altered_carbon2js9JsVariantD0Ev

	.section	__TEXT,__const
	.p2align	2               ## @.wstr
l_.wstr:
	.space	4

	.p2align	2               ## @.wstr.1
l_.wstr.1:
	.long	104                     ## 0x68
	.long	101                     ## 0x65
	.long	108                     ## 0x6c
	.long	108                     ## 0x6c
	.long	111                     ## 0x6f
	.long	0                       ## 0x0


.subsections_via_symbols
