; ModuleID = 'temp.bc'
source_filename = "../jsprimitive1.cc"
target datalayout = "e-m:o-i64:64-f80:128-n8:16:32:64-S128"
target triple = "x86_64-apple-macosx10.13.0"

%"class.altered_carbon::js::ACJsBoolean" = type { %"class.altered_carbon::js::ACJsPrimitive.base", [3 x i8] }
%"class.altered_carbon::js::ACJsPrimitive.base" = type { %"class.altered_carbon::js::ACJsValue.base", i8 }
%"class.altered_carbon::js::ACJsValue.base" = type <{ i32 (...)**, i32 }>
%"class.altered_carbon::js::ACJsValue" = type <{ i32 (...)**, i32, [4 x i8] }>
%"class.altered_carbon::js::ACJsPrimitive" = type { %"class.altered_carbon::js::ACJsValue.base", i8, [3 x i8] }

; Function Attrs: noinline norecurse nounwind optnone ssp uwtable
define i32 @main(i32, i8**) #0 !dbg !3004 {
  %3 = alloca i32, align 4
  %4 = alloca i32, align 4
  %5 = alloca i8**, align 8
  %6 = alloca %"class.altered_carbon::js::ACJsBoolean", align 8
  %7 = alloca %"class.altered_carbon::js::ACJsValue"*, align 8
  store i32 0, i32* %3, align 4
  store i32 %0, i32* %4, align 4
  call void @llvm.dbg.declare(metadata i32* %4, metadata !3007, metadata !DIExpression()), !dbg !3008
  store i8** %1, i8*** %5, align 8
  call void @llvm.dbg.declare(metadata i8*** %5, metadata !3009, metadata !DIExpression()), !dbg !3010
  call void @llvm.dbg.declare(metadata %"class.altered_carbon::js::ACJsBoolean"* %6, metadata !3011, metadata !DIExpression()), !dbg !3052
  call void @_ZN14altered_carbon2js11ACJsBooleanC1Eb(%"class.altered_carbon::js::ACJsBoolean"* %6, i1 zeroext true), !dbg !3052
  call void @llvm.dbg.declare(metadata %"class.altered_carbon::js::ACJsValue"** %7, metadata !3053, metadata !DIExpression()), !dbg !3054
  %8 = bitcast %"class.altered_carbon::js::ACJsBoolean"* %6 to %"class.altered_carbon::js::ACJsValue"*, !dbg !3055
  store %"class.altered_carbon::js::ACJsValue"* %8, %"class.altered_carbon::js::ACJsValue"** %7, align 8, !dbg !3054
  %9 = load %"class.altered_carbon::js::ACJsValue"*, %"class.altered_carbon::js::ACJsValue"** %7, align 8, !dbg !3056
  %10 = bitcast %"class.altered_carbon::js::ACJsValue"* %9 to %"class.altered_carbon::js::ACJsValue"* (%"class.altered_carbon::js::ACJsValue"*)***, !dbg !3057
  %11 = load %"class.altered_carbon::js::ACJsValue"* (%"class.altered_carbon::js::ACJsValue"*)**, %"class.altered_carbon::js::ACJsValue"* (%"class.altered_carbon::js::ACJsValue"*)*** %10, align 8, !dbg !3057
  %12 = getelementptr inbounds %"class.altered_carbon::js::ACJsValue"* (%"class.altered_carbon::js::ACJsValue"*)*, %"class.altered_carbon::js::ACJsValue"* (%"class.altered_carbon::js::ACJsValue"*)** %11, i64 15, !dbg !3057
  %13 = load %"class.altered_carbon::js::ACJsValue"* (%"class.altered_carbon::js::ACJsValue"*)*, %"class.altered_carbon::js::ACJsValue"* (%"class.altered_carbon::js::ACJsValue"*)** %12, align 8, !dbg !3057
  %14 = call %"class.altered_carbon::js::ACJsValue"* %13(%"class.altered_carbon::js::ACJsValue"* %9), !dbg !3057
  %15 = bitcast %"class.altered_carbon::js::ACJsValue"* %14 to i1 (%"class.altered_carbon::js::ACJsValue"*)***, !dbg !3058
  %16 = load i1 (%"class.altered_carbon::js::ACJsValue"*)**, i1 (%"class.altered_carbon::js::ACJsValue"*)*** %15, align 8, !dbg !3058
  %17 = getelementptr inbounds i1 (%"class.altered_carbon::js::ACJsValue"*)*, i1 (%"class.altered_carbon::js::ACJsValue"*)** %16, i64 14, !dbg !3058
  %18 = load i1 (%"class.altered_carbon::js::ACJsValue"*)*, i1 (%"class.altered_carbon::js::ACJsValue"*)** %17, align 8, !dbg !3058
  %19 = call zeroext i1 %18(%"class.altered_carbon::js::ACJsValue"* %14), !dbg !3058
  %20 = zext i1 %19 to i32, !dbg !3056
  store i32 %20, i32* %3, align 4, !dbg !3059
  call void @_ZN14altered_carbon2js11ACJsBooleanD1Ev(%"class.altered_carbon::js::ACJsBoolean"* %6) #4, !dbg !3060
  %21 = load i32, i32* %3, align 4, !dbg !3060
  ret i32 %21, !dbg !3060
}

; Function Attrs: nounwind readnone speculatable
declare void @llvm.dbg.declare(metadata, metadata, metadata) #1

declare void @_ZN14altered_carbon2js11ACJsBooleanC1Eb(%"class.altered_carbon::js::ACJsBoolean"*, i1 zeroext) unnamed_addr #2

; Function Attrs: noinline nounwind optnone ssp uwtable
define linkonce_odr hidden void @_ZN14altered_carbon2js11ACJsBooleanD1Ev(%"class.altered_carbon::js::ACJsBoolean"*) unnamed_addr #3 align 2 !dbg !3061 {
  %2 = alloca %"class.altered_carbon::js::ACJsBoolean"*, align 8
  store %"class.altered_carbon::js::ACJsBoolean"* %0, %"class.altered_carbon::js::ACJsBoolean"** %2, align 8
  call void @llvm.dbg.declare(metadata %"class.altered_carbon::js::ACJsBoolean"** %2, metadata !3062, metadata !DIExpression()), !dbg !3064
  %3 = load %"class.altered_carbon::js::ACJsBoolean"*, %"class.altered_carbon::js::ACJsBoolean"** %2, align 8
  call void @_ZN14altered_carbon2js11ACJsBooleanD2Ev(%"class.altered_carbon::js::ACJsBoolean"* %3) #4, !dbg !3065
  ret void, !dbg !3066
}

; Function Attrs: noinline nounwind optnone ssp uwtable
define linkonce_odr hidden void @_ZN14altered_carbon2js11ACJsBooleanD2Ev(%"class.altered_carbon::js::ACJsBoolean"*) unnamed_addr #3 align 2 !dbg !3067 {
  %2 = alloca %"class.altered_carbon::js::ACJsBoolean"*, align 8
  store %"class.altered_carbon::js::ACJsBoolean"* %0, %"class.altered_carbon::js::ACJsBoolean"** %2, align 8
  call void @llvm.dbg.declare(metadata %"class.altered_carbon::js::ACJsBoolean"** %2, metadata !3068, metadata !DIExpression()), !dbg !3069
  %3 = load %"class.altered_carbon::js::ACJsBoolean"*, %"class.altered_carbon::js::ACJsBoolean"** %2, align 8
  %4 = bitcast %"class.altered_carbon::js::ACJsBoolean"* %3 to %"class.altered_carbon::js::ACJsPrimitive"*, !dbg !3070
  call void @_ZN14altered_carbon2js13ACJsPrimitiveIbED2Ev(%"class.altered_carbon::js::ACJsPrimitive"* %4) #4, !dbg !3070
  ret void, !dbg !3072
}

; Function Attrs: noinline nounwind optnone ssp uwtable
define linkonce_odr hidden void @_ZN14altered_carbon2js13ACJsPrimitiveIbED2Ev(%"class.altered_carbon::js::ACJsPrimitive"*) unnamed_addr #3 align 2 !dbg !3073 {
  %2 = alloca %"class.altered_carbon::js::ACJsPrimitive"*, align 8
  store %"class.altered_carbon::js::ACJsPrimitive"* %0, %"class.altered_carbon::js::ACJsPrimitive"** %2, align 8
  call void @llvm.dbg.declare(metadata %"class.altered_carbon::js::ACJsPrimitive"** %2, metadata !3074, metadata !DIExpression()), !dbg !3076
  %3 = load %"class.altered_carbon::js::ACJsPrimitive"*, %"class.altered_carbon::js::ACJsPrimitive"** %2, align 8
  %4 = bitcast %"class.altered_carbon::js::ACJsPrimitive"* %3 to %"class.altered_carbon::js::ACJsValue"*, !dbg !3077
  call void @_ZN14altered_carbon2js9ACJsValueD2Ev(%"class.altered_carbon::js::ACJsValue"* %4) #4, !dbg !3077
  ret void, !dbg !3079
}

; Function Attrs: noinline nounwind optnone ssp uwtable
define linkonce_odr hidden void @_ZN14altered_carbon2js9ACJsValueD2Ev(%"class.altered_carbon::js::ACJsValue"*) unnamed_addr #3 align 2 !dbg !3080 {
  %2 = alloca %"class.altered_carbon::js::ACJsValue"*, align 8
  store %"class.altered_carbon::js::ACJsValue"* %0, %"class.altered_carbon::js::ACJsValue"** %2, align 8
  call void @llvm.dbg.declare(metadata %"class.altered_carbon::js::ACJsValue"** %2, metadata !3081, metadata !DIExpression()), !dbg !3082
  %3 = load %"class.altered_carbon::js::ACJsValue"*, %"class.altered_carbon::js::ACJsValue"** %2, align 8
  ret void, !dbg !3083
}

attributes #0 = { noinline norecurse nounwind optnone ssp uwtable "correctly-rounded-divide-sqrt-fp-math"="false" "disable-tail-calls"="false" "less-precise-fpmad"="false" "no-frame-pointer-elim"="true" "no-frame-pointer-elim-non-leaf" "no-infs-fp-math"="false" "no-jump-tables"="false" "no-nans-fp-math"="false" "no-signed-zeros-fp-math"="false" "no-trapping-math"="false" "stack-protector-buffer-size"="8" "target-cpu"="penryn" "target-features"="+cx16,+fxsr,+mmx,+sse,+sse2,+sse3,+sse4.1,+ssse3,+x87" "unsafe-fp-math"="false" "use-soft-float"="false" }
attributes #1 = { nounwind readnone speculatable }
attributes #2 = { "correctly-rounded-divide-sqrt-fp-math"="false" "disable-tail-calls"="false" "less-precise-fpmad"="false" "no-frame-pointer-elim"="true" "no-frame-pointer-elim-non-leaf" "no-infs-fp-math"="false" "no-nans-fp-math"="false" "no-signed-zeros-fp-math"="false" "no-trapping-math"="false" "stack-protector-buffer-size"="8" "target-cpu"="penryn" "target-features"="+cx16,+fxsr,+mmx,+sse,+sse2,+sse3,+sse4.1,+ssse3,+x87" "unsafe-fp-math"="false" "use-soft-float"="false" }
attributes #3 = { noinline nounwind optnone ssp uwtable "correctly-rounded-divide-sqrt-fp-math"="false" "disable-tail-calls"="false" "less-precise-fpmad"="false" "no-frame-pointer-elim"="true" "no-frame-pointer-elim-non-leaf" "no-infs-fp-math"="false" "no-jump-tables"="false" "no-nans-fp-math"="false" "no-signed-zeros-fp-math"="false" "no-trapping-math"="false" "stack-protector-buffer-size"="8" "target-cpu"="penryn" "target-features"="+cx16,+fxsr,+mmx,+sse,+sse2,+sse3,+sse4.1,+ssse3,+x87" "unsafe-fp-math"="false" "use-soft-float"="false" }
attributes #4 = { nounwind }

!llvm.dbg.cu = !{!0}
!llvm.module.flags = !{!2999, !3000, !3001, !3002}
!llvm.ident = !{!3003}

!0 = distinct !DICompileUnit(language: DW_LANG_C_plus_plus, file: !1, producer: "Apple LLVM version 9.1.0 (clang-902.0.39.2)", isOptimized: false, runtimeVersion: 0, emissionKind: FullDebug, enums: !2, retainedTypes: !1783, imports: !1784)
!1 = !DIFile(filename: "../jsprimitive1.cc", directory: "/Users/ejiang/Projects/lls/ac/llfiles")
!2 = !{!3, !266, !1483}
!3 = !DICompositeType(tag: DW_TAG_enumeration_type, name: "JsValueType", scope: !5, file: !4, line: 66, size: 32, elements: !1766, identifier: "_ZTSN14altered_carbon2js9ACJsValue11JsValueTypeE")
!4 = !DIFile(filename: "../ac_vm_jsvalue.h", directory: "/Users/ejiang/Projects/lls/ac/llfiles")
!5 = distinct !DICompositeType(tag: DW_TAG_class_type, name: "ACJsValue", scope: !6, file: !4, line: 64, size: 128, elements: !8, vtableHolder: !5, identifier: "_ZTSN14altered_carbon2js9ACJsValueE")
!6 = !DINamespace(name: "js", scope: !7)
!7 = !DINamespace(name: "altered_carbon", scope: null)
!8 = !{!9, !15, !16, !179, !180, !181, !186, !189, !195, !1726, !1730, !1731, !1732, !1733, !1734, !1735, !1736, !1737, !1738, !1739, !1742, !1743, !1744, !1745, !1746, !1747, !1748, !1749, !1750, !1751, !1752, !1753, !1754, !1755, !1756, !1757, !1758, !1761, !1764, !1765}
!9 = !DIDerivedType(tag: DW_TAG_member, name: "_vptr$ACJsValue", scope: !4, file: !4, baseType: !10, size: 64, flags: DIFlagArtificial)
!10 = !DIDerivedType(tag: DW_TAG_pointer_type, baseType: !11, size: 64)
!11 = !DIDerivedType(tag: DW_TAG_pointer_type, name: "__vtbl_ptr_type", baseType: !12, size: 64)
!12 = !DISubroutineType(types: !13)
!13 = !{!14}
!14 = !DIBasicType(name: "int", size: 32, encoding: DW_ATE_signed)
!15 = !DIDerivedType(tag: DW_TAG_member, name: "type_", scope: !5, file: !4, line: 86, baseType: !3, size: 32, offset: 64, flags: DIFlagProtected)
!16 = !DIDerivedType(tag: DW_TAG_member, name: "Undefined", scope: !5, file: !4, line: 95, baseType: !17, flags: DIFlagPublic | DIFlagStaticMember)
!17 = !DIDerivedType(tag: DW_TAG_const_type, baseType: !18)
!18 = distinct !DICompositeType(tag: DW_TAG_class_type, name: "unique_ptr<altered_carbon::js::ACJsValue, std::__1::default_delete<altered_carbon::js::ACJsValue> >", scope: !20, file: !19, line: 2301, size: 64, elements: !22, templateParams: !149, identifier: "_ZTSNSt3__110unique_ptrIN14altered_carbon2js9ACJsValueENS_14default_deleteIS3_EEEE")
!19 = !DIFile(filename: "/Applications/Xcode.app/Contents/Developer/Toolchains/XcodeDefault.xctoolchain/usr/include/c++/v1/memory", directory: "/Users/ejiang/Projects/lls/ac/llfiles")
!20 = !DINamespace(name: "__1", scope: !21, exportSymbols: true)
!21 = !DINamespace(name: "std", scope: null)
!22 = !{!23, !112, !117, !121, !124, !130, !143, !156, !157, !162, !167, !170, !173, !176}
!23 = !DIDerivedType(tag: DW_TAG_member, name: "__ptr_", scope: !18, file: !19, line: 2311, baseType: !24, size: 64)
!24 = distinct !DICompositeType(tag: DW_TAG_class_type, name: "__compressed_pair<altered_carbon::js::ACJsValue *, std::__1::default_delete<altered_carbon::js::ACJsValue> >", scope: !20, file: !19, line: 2111, size: 64, elements: !25, templateParams: !109, identifier: "_ZTSNSt3__117__compressed_pairIPN14altered_carbon2js9ACJsValueENS_14default_deleteIS3_EEEE")
!25 = !{!26, !53, !90, !94, !99, !102, !105}
!26 = !DIDerivedType(tag: DW_TAG_inheritance, scope: !24, baseType: !27)
!27 = distinct !DICompositeType(tag: DW_TAG_structure_type, name: "__compressed_pair_elem<altered_carbon::js::ACJsValue *, 0, false>", scope: !20, file: !19, line: 2037, size: 64, elements: !28, templateParams: !48, identifier: "_ZTSNSt3__122__compressed_pair_elemIPN14altered_carbon2js9ACJsValueELi0ELb0EEE")
!28 = !{!29, !31, !35, !40}
!29 = !DIDerivedType(tag: DW_TAG_member, name: "__value_", scope: !27, file: !19, line: 2069, baseType: !30, size: 64, flags: DIFlagPrivate)
!30 = !DIDerivedType(tag: DW_TAG_pointer_type, baseType: !5, size: 64)
!31 = !DISubprogram(name: "__compressed_pair_elem", scope: !27, file: !19, line: 2043, type: !32, isLocal: false, isDefinition: false, scopeLine: 2043, flags: DIFlagPrototyped, isOptimized: false)
!32 = !DISubroutineType(types: !33)
!33 = !{null, !34}
!34 = !DIDerivedType(tag: DW_TAG_pointer_type, baseType: !27, size: 64, flags: DIFlagArtificial | DIFlagObjectPointer)
!35 = !DISubprogram(name: "__get", linkageName: "_ZNSt3__122__compressed_pair_elemIPN14altered_carbon2js9ACJsValueELi0ELb0EE5__getEv", scope: !27, file: !19, line: 2064, type: !36, isLocal: false, isDefinition: false, scopeLine: 2064, flags: DIFlagPrototyped, isOptimized: false)
!36 = !DISubroutineType(types: !37)
!37 = !{!38, !34}
!38 = !DIDerivedType(tag: DW_TAG_typedef, name: "reference", scope: !27, file: !19, line: 2039, baseType: !39)
!39 = !DIDerivedType(tag: DW_TAG_reference_type, baseType: !30, size: 64)
!40 = !DISubprogram(name: "__get", linkageName: "_ZNKSt3__122__compressed_pair_elemIPN14altered_carbon2js9ACJsValueELi0ELb0EE5__getEv", scope: !27, file: !19, line: 2066, type: !41, isLocal: false, isDefinition: false, scopeLine: 2066, flags: DIFlagPrototyped, isOptimized: false)
!41 = !DISubroutineType(types: !42)
!42 = !{!43, !46}
!43 = !DIDerivedType(tag: DW_TAG_typedef, name: "const_reference", scope: !27, file: !19, line: 2040, baseType: !44)
!44 = !DIDerivedType(tag: DW_TAG_reference_type, baseType: !45, size: 64)
!45 = !DIDerivedType(tag: DW_TAG_const_type, baseType: !30)
!46 = !DIDerivedType(tag: DW_TAG_pointer_type, baseType: !47, size: 64, flags: DIFlagArtificial | DIFlagObjectPointer)
!47 = !DIDerivedType(tag: DW_TAG_const_type, baseType: !27)
!48 = !{!49, !50, !51}
!49 = !DITemplateTypeParameter(name: "_Tp", type: !30)
!50 = !DITemplateValueParameter(name: "_Idx", type: !14, value: i32 0)
!51 = !DITemplateValueParameter(name: "_CanBeEmptyBase", type: !52, value: i8 0)
!52 = !DIBasicType(name: "bool", size: 8, encoding: DW_ATE_boolean)
!53 = !DIDerivedType(tag: DW_TAG_inheritance, scope: !24, baseType: !54)
!54 = distinct !DICompositeType(tag: DW_TAG_structure_type, name: "__compressed_pair_elem<std::__1::default_delete<altered_carbon::js::ACJsValue>, 1, true>", scope: !20, file: !19, line: 2073, size: 8, elements: !55, templateParams: !86, identifier: "_ZTSNSt3__122__compressed_pair_elemINS_14default_deleteIN14altered_carbon2js9ACJsValueEEELi1ELb1EEE")
!55 = !{!56, !70, !74, !79}
!56 = !DIDerivedType(tag: DW_TAG_inheritance, scope: !54, baseType: !57, flags: DIFlagPrivate)
!57 = distinct !DICompositeType(tag: DW_TAG_structure_type, name: "default_delete<altered_carbon::js::ACJsValue>", scope: !20, file: !19, line: 2220, size: 8, elements: !58, templateParams: !68, identifier: "_ZTSNSt3__114default_deleteIN14altered_carbon2js9ACJsValueEEE")
!58 = !{!59, !63}
!59 = !DISubprogram(name: "default_delete", scope: !57, file: !19, line: 2224, type: !60, isLocal: false, isDefinition: false, scopeLine: 2224, flags: DIFlagPrototyped, isOptimized: false)
!60 = !DISubroutineType(types: !61)
!61 = !{null, !62}
!62 = !DIDerivedType(tag: DW_TAG_pointer_type, baseType: !57, size: 64, flags: DIFlagArtificial | DIFlagObjectPointer)
!63 = !DISubprogram(name: "operator()", linkageName: "_ZNKSt3__114default_deleteIN14altered_carbon2js9ACJsValueEEclEPS3_", scope: !57, file: !19, line: 2234, type: !64, isLocal: false, isDefinition: false, scopeLine: 2234, flags: DIFlagPrototyped, isOptimized: false)
!64 = !DISubroutineType(types: !65)
!65 = !{null, !66, !30}
!66 = !DIDerivedType(tag: DW_TAG_pointer_type, baseType: !67, size: 64, flags: DIFlagArtificial | DIFlagObjectPointer)
!67 = !DIDerivedType(tag: DW_TAG_const_type, baseType: !57)
!68 = !{!69}
!69 = !DITemplateTypeParameter(name: "_Tp", type: !5)
!70 = !DISubprogram(name: "__compressed_pair_elem", scope: !54, file: !19, line: 2080, type: !71, isLocal: false, isDefinition: false, scopeLine: 2080, flags: DIFlagPrototyped, isOptimized: false)
!71 = !DISubroutineType(types: !72)
!72 = !{null, !73}
!73 = !DIDerivedType(tag: DW_TAG_pointer_type, baseType: !54, size: 64, flags: DIFlagArtificial | DIFlagObjectPointer)
!74 = !DISubprogram(name: "__get", linkageName: "_ZNSt3__122__compressed_pair_elemINS_14default_deleteIN14altered_carbon2js9ACJsValueEEELi1ELb1EE5__getEv", scope: !54, file: !19, line: 2102, type: !75, isLocal: false, isDefinition: false, scopeLine: 2102, flags: DIFlagPrototyped, isOptimized: false)
!75 = !DISubroutineType(types: !76)
!76 = !{!77, !73}
!77 = !DIDerivedType(tag: DW_TAG_typedef, name: "reference", scope: !54, file: !19, line: 2075, baseType: !78)
!78 = !DIDerivedType(tag: DW_TAG_reference_type, baseType: !57, size: 64)
!79 = !DISubprogram(name: "__get", linkageName: "_ZNKSt3__122__compressed_pair_elemINS_14default_deleteIN14altered_carbon2js9ACJsValueEEELi1ELb1EE5__getEv", scope: !54, file: !19, line: 2104, type: !80, isLocal: false, isDefinition: false, scopeLine: 2104, flags: DIFlagPrototyped, isOptimized: false)
!80 = !DISubroutineType(types: !81)
!81 = !{!82, !84}
!82 = !DIDerivedType(tag: DW_TAG_typedef, name: "const_reference", scope: !54, file: !19, line: 2076, baseType: !83)
!83 = !DIDerivedType(tag: DW_TAG_reference_type, baseType: !67, size: 64)
!84 = !DIDerivedType(tag: DW_TAG_pointer_type, baseType: !85, size: 64, flags: DIFlagArtificial | DIFlagObjectPointer)
!85 = !DIDerivedType(tag: DW_TAG_const_type, baseType: !54)
!86 = !{!87, !88, !89}
!87 = !DITemplateTypeParameter(name: "_Tp", type: !57)
!88 = !DITemplateValueParameter(name: "_Idx", type: !14, value: i32 1)
!89 = !DITemplateValueParameter(name: "_CanBeEmptyBase", type: !52, value: i8 1)
!90 = !DISubprogram(name: "first", linkageName: "_ZNSt3__117__compressed_pairIPN14altered_carbon2js9ACJsValueENS_14default_deleteIS3_EEE5firstEv", scope: !24, file: !19, line: 2179, type: !91, isLocal: false, isDefinition: false, scopeLine: 2179, flags: DIFlagPublic | DIFlagPrototyped, isOptimized: false)
!91 = !DISubroutineType(types: !92)
!92 = !{!38, !93}
!93 = !DIDerivedType(tag: DW_TAG_pointer_type, baseType: !24, size: 64, flags: DIFlagArtificial | DIFlagObjectPointer)
!94 = !DISubprogram(name: "first", linkageName: "_ZNKSt3__117__compressed_pairIPN14altered_carbon2js9ACJsValueENS_14default_deleteIS3_EEE5firstEv", scope: !24, file: !19, line: 2184, type: !95, isLocal: false, isDefinition: false, scopeLine: 2184, flags: DIFlagPublic | DIFlagPrototyped, isOptimized: false)
!95 = !DISubroutineType(types: !96)
!96 = !{!43, !97}
!97 = !DIDerivedType(tag: DW_TAG_pointer_type, baseType: !98, size: 64, flags: DIFlagArtificial | DIFlagObjectPointer)
!98 = !DIDerivedType(tag: DW_TAG_const_type, baseType: !24)
!99 = !DISubprogram(name: "second", linkageName: "_ZNSt3__117__compressed_pairIPN14altered_carbon2js9ACJsValueENS_14default_deleteIS3_EEE6secondEv", scope: !24, file: !19, line: 2189, type: !100, isLocal: false, isDefinition: false, scopeLine: 2189, flags: DIFlagPublic | DIFlagPrototyped, isOptimized: false)
!100 = !DISubroutineType(types: !101)
!101 = !{!77, !93}
!102 = !DISubprogram(name: "second", linkageName: "_ZNKSt3__117__compressed_pairIPN14altered_carbon2js9ACJsValueENS_14default_deleteIS3_EEE6secondEv", scope: !24, file: !19, line: 2194, type: !103, isLocal: false, isDefinition: false, scopeLine: 2194, flags: DIFlagPublic | DIFlagPrototyped, isOptimized: false)
!103 = !DISubroutineType(types: !104)
!104 = !{!82, !97}
!105 = !DISubprogram(name: "swap", linkageName: "_ZNSt3__117__compressed_pairIPN14altered_carbon2js9ACJsValueENS_14default_deleteIS3_EEE4swapERS7_", scope: !24, file: !19, line: 2199, type: !106, isLocal: false, isDefinition: false, scopeLine: 2199, flags: DIFlagPublic | DIFlagPrototyped, isOptimized: false)
!106 = !DISubroutineType(types: !107)
!107 = !{null, !93, !108}
!108 = !DIDerivedType(tag: DW_TAG_reference_type, baseType: !24, size: 64)
!109 = !{!110, !111}
!110 = !DITemplateTypeParameter(name: "_T1", type: !30)
!111 = !DITemplateTypeParameter(name: "_T2", type: !57)
!112 = !DISubprogram(name: "unique_ptr", scope: !18, file: !19, line: 2394, type: !113, isLocal: false, isDefinition: false, scopeLine: 2394, flags: DIFlagPublic | DIFlagPrototyped, isOptimized: false)
!113 = !DISubroutineType(types: !114)
!114 = !{null, !115, !116}
!115 = !DIDerivedType(tag: DW_TAG_pointer_type, baseType: !18, size: 64, flags: DIFlagArtificial | DIFlagObjectPointer)
!116 = !DIDerivedType(tag: DW_TAG_rvalue_reference_type, baseType: !18, size: 64)
!117 = !DISubprogram(name: "operator=", linkageName: "_ZNSt3__110unique_ptrIN14altered_carbon2js9ACJsValueENS_14default_deleteIS3_EEEaSEOS6_", scope: !18, file: !19, line: 2417, type: !118, isLocal: false, isDefinition: false, scopeLine: 2417, flags: DIFlagPublic | DIFlagPrototyped, isOptimized: false)
!118 = !DISubroutineType(types: !119)
!119 = !{!120, !115, !116}
!120 = !DIDerivedType(tag: DW_TAG_reference_type, baseType: !18, size: 64)
!121 = !DISubprogram(name: "~unique_ptr", scope: !18, file: !19, line: 2506, type: !122, isLocal: false, isDefinition: false, scopeLine: 2506, flags: DIFlagPublic | DIFlagPrototyped, isOptimized: false)
!122 = !DISubroutineType(types: !123)
!123 = !{null, !115}
!124 = !DISubprogram(name: "operator=", linkageName: "_ZNSt3__110unique_ptrIN14altered_carbon2js9ACJsValueENS_14default_deleteIS3_EEEaSEDn", scope: !18, file: !19, line: 2509, type: !125, isLocal: false, isDefinition: false, scopeLine: 2509, flags: DIFlagPublic | DIFlagPrototyped, isOptimized: false)
!125 = !DISubroutineType(types: !126)
!126 = !{!120, !115, !127}
!127 = !DIDerivedType(tag: DW_TAG_typedef, name: "nullptr_t", scope: !21, file: !128, line: 57, baseType: !129)
!128 = !DIFile(filename: "/Applications/Xcode.app/Contents/Developer/Toolchains/XcodeDefault.xctoolchain/usr/include/c++/v1/__nullptr", directory: "/Users/ejiang/Projects/lls/ac/llfiles")
!129 = !DIBasicType(tag: DW_TAG_unspecified_type, name: "decltype(nullptr)")
!130 = !DISubprogram(name: "operator*", linkageName: "_ZNKSt3__110unique_ptrIN14altered_carbon2js9ACJsValueENS_14default_deleteIS3_EEEdeEv", scope: !18, file: !19, line: 2516, type: !131, isLocal: false, isDefinition: false, scopeLine: 2516, flags: DIFlagPublic | DIFlagPrototyped, isOptimized: false)
!131 = !DISubroutineType(types: !132)
!132 = !{!133, !142}
!133 = !DIDerivedType(tag: DW_TAG_typedef, name: "type", scope: !135, file: !134, line: 1084, baseType: !137)
!134 = !DIFile(filename: "/Applications/Xcode.app/Contents/Developer/Toolchains/XcodeDefault.xctoolchain/usr/include/c++/v1/type_traits", directory: "/Users/ejiang/Projects/lls/ac/llfiles")
!135 = distinct !DICompositeType(tag: DW_TAG_structure_type, name: "add_lvalue_reference<altered_carbon::js::ACJsValue>", scope: !20, file: !134, line: 1083, size: 8, elements: !136, templateParams: !68, identifier: "_ZTSNSt3__120add_lvalue_referenceIN14altered_carbon2js9ACJsValueEEE")
!136 = !{}
!137 = !DIDerivedType(tag: DW_TAG_typedef, name: "type", scope: !138, file: !134, line: 1081, baseType: !141)
!138 = distinct !DICompositeType(tag: DW_TAG_structure_type, name: "__add_lvalue_reference_impl<altered_carbon::js::ACJsValue, true>", scope: !20, file: !134, line: 1081, size: 8, elements: !136, templateParams: !139, identifier: "_ZTSNSt3__127__add_lvalue_reference_implIN14altered_carbon2js9ACJsValueELb1EEE")
!139 = !{!69, !140}
!140 = !DITemplateValueParameter(type: !52, value: i8 1)
!141 = !DIDerivedType(tag: DW_TAG_reference_type, baseType: !5, size: 64)
!142 = !DIDerivedType(tag: DW_TAG_pointer_type, baseType: !17, size: 64, flags: DIFlagArtificial | DIFlagObjectPointer)
!143 = !DISubprogram(name: "operator->", linkageName: "_ZNKSt3__110unique_ptrIN14altered_carbon2js9ACJsValueENS_14default_deleteIS3_EEEptEv", scope: !18, file: !19, line: 2520, type: !144, isLocal: false, isDefinition: false, scopeLine: 2520, flags: DIFlagPublic | DIFlagPrototyped, isOptimized: false)
!144 = !DISubroutineType(types: !145)
!145 = !{!146, !142}
!146 = !DIDerivedType(tag: DW_TAG_typedef, name: "pointer", scope: !18, file: !19, line: 2305, baseType: !147)
!147 = !DIDerivedType(tag: DW_TAG_typedef, name: "type", scope: !148, file: !19, line: 1020, baseType: !151)
!148 = distinct !DICompositeType(tag: DW_TAG_structure_type, name: "__pointer_type<altered_carbon::js::ACJsValue, std::__1::default_delete<altered_carbon::js::ACJsValue> >", scope: !20, file: !19, line: 1018, size: 8, elements: !136, templateParams: !149, identifier: "_ZTSNSt3__114__pointer_typeIN14altered_carbon2js9ACJsValueENS_14default_deleteIS3_EEEE")
!149 = !{!69, !150}
!150 = !DITemplateTypeParameter(name: "_Dp", type: !57)
!151 = !DIDerivedType(tag: DW_TAG_typedef, name: "type", scope: !152, file: !19, line: 1012, baseType: !30)
!152 = distinct !DICompositeType(tag: DW_TAG_structure_type, name: "__pointer_type<altered_carbon::js::ACJsValue, std::__1::default_delete<altered_carbon::js::ACJsValue>, false>", scope: !153, file: !19, line: 1010, size: 8, elements: !136, templateParams: !154, identifier: "_ZTSNSt3__118__pointer_type_imp14__pointer_typeIN14altered_carbon2js9ACJsValueENS_14default_deleteIS4_EELb0EEE")
!153 = !DINamespace(name: "__pointer_type_imp", scope: !20)
!154 = !{!69, !150, !155}
!155 = !DITemplateValueParameter(type: !52, value: i8 0)
!156 = !DISubprogram(name: "get", linkageName: "_ZNKSt3__110unique_ptrIN14altered_carbon2js9ACJsValueENS_14default_deleteIS3_EEE3getEv", scope: !18, file: !19, line: 2524, type: !144, isLocal: false, isDefinition: false, scopeLine: 2524, flags: DIFlagPublic | DIFlagPrototyped, isOptimized: false)
!157 = !DISubprogram(name: "get_deleter", linkageName: "_ZNSt3__110unique_ptrIN14altered_carbon2js9ACJsValueENS_14default_deleteIS3_EEE11get_deleterEv", scope: !18, file: !19, line: 2528, type: !158, isLocal: false, isDefinition: false, scopeLine: 2528, flags: DIFlagPublic | DIFlagPrototyped, isOptimized: false)
!158 = !DISubroutineType(types: !159)
!159 = !{!160, !115}
!160 = !DIDerivedType(tag: DW_TAG_reference_type, baseType: !161, size: 64)
!161 = !DIDerivedType(tag: DW_TAG_typedef, name: "deleter_type", scope: !18, file: !19, line: 2304, baseType: !57)
!162 = !DISubprogram(name: "get_deleter", linkageName: "_ZNKSt3__110unique_ptrIN14altered_carbon2js9ACJsValueENS_14default_deleteIS3_EEE11get_deleterEv", scope: !18, file: !19, line: 2532, type: !163, isLocal: false, isDefinition: false, scopeLine: 2532, flags: DIFlagPublic | DIFlagPrototyped, isOptimized: false)
!163 = !DISubroutineType(types: !164)
!164 = !{!165, !142}
!165 = !DIDerivedType(tag: DW_TAG_reference_type, baseType: !166, size: 64)
!166 = !DIDerivedType(tag: DW_TAG_const_type, baseType: !161)
!167 = !DISubprogram(name: "operator bool", linkageName: "_ZNKSt3__110unique_ptrIN14altered_carbon2js9ACJsValueENS_14default_deleteIS3_EEEcvbEv", scope: !18, file: !19, line: 2536, type: !168, isLocal: false, isDefinition: false, scopeLine: 2536, flags: DIFlagPublic | DIFlagExplicit | DIFlagPrototyped, isOptimized: false)
!168 = !DISubroutineType(types: !169)
!169 = !{!52, !142}
!170 = !DISubprogram(name: "release", linkageName: "_ZNSt3__110unique_ptrIN14altered_carbon2js9ACJsValueENS_14default_deleteIS3_EEE7releaseEv", scope: !18, file: !19, line: 2541, type: !171, isLocal: false, isDefinition: false, scopeLine: 2541, flags: DIFlagPublic | DIFlagPrototyped, isOptimized: false)
!171 = !DISubroutineType(types: !172)
!172 = !{!146, !115}
!173 = !DISubprogram(name: "reset", linkageName: "_ZNSt3__110unique_ptrIN14altered_carbon2js9ACJsValueENS_14default_deleteIS3_EEE5resetEPS3_", scope: !18, file: !19, line: 2548, type: !174, isLocal: false, isDefinition: false, scopeLine: 2548, flags: DIFlagPublic | DIFlagPrototyped, isOptimized: false)
!174 = !DISubroutineType(types: !175)
!175 = !{null, !115, !146}
!176 = !DISubprogram(name: "swap", linkageName: "_ZNSt3__110unique_ptrIN14altered_carbon2js9ACJsValueENS_14default_deleteIS3_EEE4swapERS6_", scope: !18, file: !19, line: 2556, type: !177, isLocal: false, isDefinition: false, scopeLine: 2556, flags: DIFlagPublic | DIFlagPrototyped, isOptimized: false)
!177 = !DISubroutineType(types: !178)
!178 = !{null, !115, !120}
!179 = !DIDerivedType(tag: DW_TAG_member, name: "NaN", scope: !5, file: !4, line: 96, baseType: !17, flags: DIFlagPublic | DIFlagStaticMember)
!180 = !DIDerivedType(tag: DW_TAG_member, name: "Null", scope: !5, file: !4, line: 97, baseType: !17, flags: DIFlagPublic | DIFlagStaticMember)
!181 = !DISubprogram(name: "ACJsValue", scope: !5, file: !4, line: 89, type: !182, isLocal: false, isDefinition: false, scopeLine: 89, flags: DIFlagPublic | DIFlagPrototyped, isOptimized: false)
!182 = !DISubroutineType(types: !183)
!183 = !{null, !184, !185}
!184 = !DIDerivedType(tag: DW_TAG_pointer_type, baseType: !5, size: 64, flags: DIFlagArtificial | DIFlagObjectPointer)
!185 = !DIDerivedType(tag: DW_TAG_const_type, baseType: !3)
!186 = !DISubprogram(name: "~ACJsValue", scope: !5, file: !4, line: 90, type: !187, isLocal: false, isDefinition: false, scopeLine: 90, containingType: !5, virtuality: DW_VIRTUALITY_virtual, virtualIndex: 0, flags: DIFlagPublic | DIFlagPrototyped, isOptimized: false)
!187 = !DISubroutineType(types: !188)
!188 = !{null, !184}
!189 = !DISubprogram(name: "immutableValue", linkageName: "_ZNK14altered_carbon2js9ACJsValue14immutableValueEv", scope: !5, file: !4, line: 91, type: !190, isLocal: false, isDefinition: false, scopeLine: 91, containingType: !5, virtuality: DW_VIRTUALITY_virtual, virtualIndex: 2, flags: DIFlagPublic | DIFlagPrototyped, isOptimized: false)
!190 = !DISubroutineType(types: !191)
!191 = !{!192, !194}
!192 = !DIDerivedType(tag: DW_TAG_pointer_type, baseType: !193, size: 64)
!193 = !DIDerivedType(tag: DW_TAG_const_type, baseType: !5)
!194 = !DIDerivedType(tag: DW_TAG_pointer_type, baseType: !193, size: 64, flags: DIFlagArtificial | DIFlagObjectPointer)
!195 = !DISubprogram(name: "dump", linkageName: "_ZNK14altered_carbon2js9ACJsValue4dumpERNSt3__113basic_ostreamIcNS2_11char_traitsIcEEEE", scope: !5, file: !4, line: 92, type: !196, isLocal: false, isDefinition: false, scopeLine: 92, containingType: !5, virtuality: DW_VIRTUALITY_virtual, virtualIndex: 3, flags: DIFlagPublic | DIFlagPrototyped, isOptimized: false)
!196 = !DISubroutineType(types: !197)
!197 = !{null, !194, !198}
!198 = !DIDerivedType(tag: DW_TAG_reference_type, baseType: !199, size: 64)
!199 = !DIDerivedType(tag: DW_TAG_typedef, name: "ostream", scope: !20, file: !200, line: 147, baseType: !201)
!200 = !DIFile(filename: "/Applications/Xcode.app/Contents/Developer/Toolchains/XcodeDefault.xctoolchain/usr/include/c++/v1/iosfwd", directory: "/Users/ejiang/Projects/lls/ac/llfiles")
!201 = distinct !DICompositeType(tag: DW_TAG_class_type, name: "basic_ostream<char, std::__1::char_traits<char> >", scope: !20, file: !202, line: 1084, size: 1280, elements: !203, vtableHolder: !201, templateParams: !803, identifier: "_ZTSNSt3__113basic_ostreamIcNS_11char_traitsIcEEEE")
!202 = !DIFile(filename: "/Applications/Xcode.app/Contents/Developer/Toolchains/XcodeDefault.xctoolchain/usr/include/c++/v1/ostream", directory: "/Users/ejiang/Projects/lls/ac/llfiles")
!203 = !{!204, !1609, !1610, !1614, !1617, !1621, !1625, !1628, !1633, !1636, !1642, !1648, !1654, !1657, !1661, !1665, !1668, !1671, !1674, !1677, !1680, !1684, !1688, !1692, !1696, !1699, !1702, !1706, !1711, !1714, !1718, !1721, !1725}
!204 = !DIDerivedType(tag: DW_TAG_inheritance, scope: !201, baseType: !205, offset: 24, flags: DIFlagPublic | DIFlagVirtual)
!205 = distinct !DICompositeType(tag: DW_TAG_class_type, name: "basic_ios<char, std::__1::char_traits<char> >", scope: !20, file: !206, line: 486, size: 1216, elements: !207, vtableHolder: !209, templateParams: !803, identifier: "_ZTSNSt3__19basic_iosIcNS_11char_traitsIcEEEE")
!206 = !DIFile(filename: "/Applications/Xcode.app/Contents/Developer/Toolchains/XcodeDefault.xctoolchain/usr/include/c++/v1/streambuf", directory: "/Users/ejiang/Projects/lls/ac/llfiles")
!207 = !{!208, !1417, !1419, !1421, !1426, !1427, !1430, !1434, !1435, !1436, !1437, !1438, !1439, !1440, !1441, !1562, !1565, !1568, !1571, !1574, !1577, !1582, !1586, !1589, !1592, !1595, !1598, !1599, !1600, !1603, !1607, !1608}
!208 = !DIDerivedType(tag: DW_TAG_inheritance, scope: !205, baseType: !209, flags: DIFlagPublic)
!209 = distinct !DICompositeType(tag: DW_TAG_class_type, name: "ios_base", scope: !20, file: !210, line: 231, size: 1088, elements: !211, vtableHolder: !209, identifier: "_ZTSNSt3__18ios_baseE")
!210 = !DIFile(filename: "/Applications/Xcode.app/Contents/Developer/Toolchains/XcodeDefault.xctoolchain/usr/include/c++/v1/ios", directory: "/Users/ejiang/Projects/lls/ac/llfiles")
!211 = !{!212, !213, !217, !218, !219, !220, !221, !222, !223, !224, !225, !226, !227, !228, !229, !230, !231, !232, !233, !234, !237, !238, !239, !240, !243, !244, !245, !246, !247, !248, !249, !254, !255, !256, !257, !259, !260, !272, !274, !277, !278, !281, !283, !284, !285, !287, !288, !289, !294, !298, !299, !302, !305, !308, !311, !312, !313, !1355, !1358, !1359, !1363, !1367, !1370, !1373, !1377, !1380, !1383, !1386, !1389, !1390, !1393, !1394, !1395, !1396, !1397, !1398, !1399, !1400, !1401, !1404, !1407, !1408, !1411, !1412, !1415, !1416}
!212 = !DIDerivedType(tag: DW_TAG_member, name: "_vptr$ios_base", scope: !210, file: !210, baseType: !10, size: 64, flags: DIFlagArtificial)
!213 = !DIDerivedType(tag: DW_TAG_member, name: "boolalpha", scope: !209, file: !210, line: 237, baseType: !214, flags: DIFlagPublic | DIFlagStaticMember, extraData: i32 1)
!214 = !DIDerivedType(tag: DW_TAG_const_type, baseType: !215)
!215 = !DIDerivedType(tag: DW_TAG_typedef, name: "fmtflags", scope: !209, file: !210, line: 236, baseType: !216)
!216 = !DIBasicType(name: "unsigned int", size: 32, encoding: DW_ATE_unsigned)
!217 = !DIDerivedType(tag: DW_TAG_member, name: "dec", scope: !209, file: !210, line: 238, baseType: !214, flags: DIFlagPublic | DIFlagStaticMember, extraData: i32 2)
!218 = !DIDerivedType(tag: DW_TAG_member, name: "fixed", scope: !209, file: !210, line: 239, baseType: !214, flags: DIFlagPublic | DIFlagStaticMember, extraData: i32 4)
!219 = !DIDerivedType(tag: DW_TAG_member, name: "hex", scope: !209, file: !210, line: 240, baseType: !214, flags: DIFlagPublic | DIFlagStaticMember, extraData: i32 8)
!220 = !DIDerivedType(tag: DW_TAG_member, name: "internal", scope: !209, file: !210, line: 241, baseType: !214, flags: DIFlagPublic | DIFlagStaticMember, extraData: i32 16)
!221 = !DIDerivedType(tag: DW_TAG_member, name: "left", scope: !209, file: !210, line: 242, baseType: !214, flags: DIFlagPublic | DIFlagStaticMember, extraData: i32 32)
!222 = !DIDerivedType(tag: DW_TAG_member, name: "oct", scope: !209, file: !210, line: 243, baseType: !214, flags: DIFlagPublic | DIFlagStaticMember, extraData: i32 64)
!223 = !DIDerivedType(tag: DW_TAG_member, name: "right", scope: !209, file: !210, line: 244, baseType: !214, flags: DIFlagPublic | DIFlagStaticMember, extraData: i32 128)
!224 = !DIDerivedType(tag: DW_TAG_member, name: "scientific", scope: !209, file: !210, line: 245, baseType: !214, flags: DIFlagPublic | DIFlagStaticMember, extraData: i32 256)
!225 = !DIDerivedType(tag: DW_TAG_member, name: "showbase", scope: !209, file: !210, line: 246, baseType: !214, flags: DIFlagPublic | DIFlagStaticMember, extraData: i32 512)
!226 = !DIDerivedType(tag: DW_TAG_member, name: "showpoint", scope: !209, file: !210, line: 247, baseType: !214, flags: DIFlagPublic | DIFlagStaticMember, extraData: i32 1024)
!227 = !DIDerivedType(tag: DW_TAG_member, name: "showpos", scope: !209, file: !210, line: 248, baseType: !214, flags: DIFlagPublic | DIFlagStaticMember, extraData: i32 2048)
!228 = !DIDerivedType(tag: DW_TAG_member, name: "skipws", scope: !209, file: !210, line: 249, baseType: !214, flags: DIFlagPublic | DIFlagStaticMember, extraData: i32 4096)
!229 = !DIDerivedType(tag: DW_TAG_member, name: "unitbuf", scope: !209, file: !210, line: 250, baseType: !214, flags: DIFlagPublic | DIFlagStaticMember, extraData: i32 8192)
!230 = !DIDerivedType(tag: DW_TAG_member, name: "uppercase", scope: !209, file: !210, line: 251, baseType: !214, flags: DIFlagPublic | DIFlagStaticMember, extraData: i32 16384)
!231 = !DIDerivedType(tag: DW_TAG_member, name: "adjustfield", scope: !209, file: !210, line: 252, baseType: !214, flags: DIFlagPublic | DIFlagStaticMember, extraData: i32 176)
!232 = !DIDerivedType(tag: DW_TAG_member, name: "basefield", scope: !209, file: !210, line: 253, baseType: !214, flags: DIFlagPublic | DIFlagStaticMember, extraData: i32 74)
!233 = !DIDerivedType(tag: DW_TAG_member, name: "floatfield", scope: !209, file: !210, line: 254, baseType: !214, flags: DIFlagPublic | DIFlagStaticMember, extraData: i32 260)
!234 = !DIDerivedType(tag: DW_TAG_member, name: "badbit", scope: !209, file: !210, line: 257, baseType: !235, flags: DIFlagPublic | DIFlagStaticMember, extraData: i32 1)
!235 = !DIDerivedType(tag: DW_TAG_const_type, baseType: !236)
!236 = !DIDerivedType(tag: DW_TAG_typedef, name: "iostate", scope: !209, file: !210, line: 256, baseType: !216)
!237 = !DIDerivedType(tag: DW_TAG_member, name: "eofbit", scope: !209, file: !210, line: 258, baseType: !235, flags: DIFlagPublic | DIFlagStaticMember, extraData: i32 2)
!238 = !DIDerivedType(tag: DW_TAG_member, name: "failbit", scope: !209, file: !210, line: 259, baseType: !235, flags: DIFlagPublic | DIFlagStaticMember, extraData: i32 4)
!239 = !DIDerivedType(tag: DW_TAG_member, name: "goodbit", scope: !209, file: !210, line: 260, baseType: !235, flags: DIFlagPublic | DIFlagStaticMember, extraData: i32 0)
!240 = !DIDerivedType(tag: DW_TAG_member, name: "app", scope: !209, file: !210, line: 263, baseType: !241, flags: DIFlagPublic | DIFlagStaticMember, extraData: i32 1)
!241 = !DIDerivedType(tag: DW_TAG_const_type, baseType: !242)
!242 = !DIDerivedType(tag: DW_TAG_typedef, name: "openmode", scope: !209, file: !210, line: 262, baseType: !216)
!243 = !DIDerivedType(tag: DW_TAG_member, name: "ate", scope: !209, file: !210, line: 264, baseType: !241, flags: DIFlagPublic | DIFlagStaticMember, extraData: i32 2)
!244 = !DIDerivedType(tag: DW_TAG_member, name: "binary", scope: !209, file: !210, line: 265, baseType: !241, flags: DIFlagPublic | DIFlagStaticMember, extraData: i32 4)
!245 = !DIDerivedType(tag: DW_TAG_member, name: "in", scope: !209, file: !210, line: 266, baseType: !241, flags: DIFlagPublic | DIFlagStaticMember, extraData: i32 8)
!246 = !DIDerivedType(tag: DW_TAG_member, name: "out", scope: !209, file: !210, line: 267, baseType: !241, flags: DIFlagPublic | DIFlagStaticMember, extraData: i32 16)
!247 = !DIDerivedType(tag: DW_TAG_member, name: "trunc", scope: !209, file: !210, line: 268, baseType: !241, flags: DIFlagPublic | DIFlagStaticMember, extraData: i32 32)
!248 = !DIDerivedType(tag: DW_TAG_member, name: "__fmtflags_", scope: !209, file: !210, line: 362, baseType: !215, size: 32, offset: 64)
!249 = !DIDerivedType(tag: DW_TAG_member, name: "__precision_", scope: !209, file: !210, line: 363, baseType: !250, size: 64, offset: 128)
!250 = !DIDerivedType(tag: DW_TAG_typedef, name: "streamsize", scope: !20, file: !210, line: 229, baseType: !251)
!251 = !DIDerivedType(tag: DW_TAG_typedef, name: "ptrdiff_t", file: !252, line: 51, baseType: !253)
!252 = !DIFile(filename: "/Applications/Xcode.app/Contents/Developer/Toolchains/XcodeDefault.xctoolchain/usr/lib/clang/9.1.0/include/stddef.h", directory: "/Users/ejiang/Projects/lls/ac/llfiles")
!253 = !DIBasicType(name: "long int", size: 64, encoding: DW_ATE_signed)
!254 = !DIDerivedType(tag: DW_TAG_member, name: "__width_", scope: !209, file: !210, line: 364, baseType: !250, size: 64, offset: 192)
!255 = !DIDerivedType(tag: DW_TAG_member, name: "__rdstate_", scope: !209, file: !210, line: 365, baseType: !236, size: 32, offset: 256)
!256 = !DIDerivedType(tag: DW_TAG_member, name: "__exceptions_", scope: !209, file: !210, line: 366, baseType: !236, size: 32, offset: 288)
!257 = !DIDerivedType(tag: DW_TAG_member, name: "__rdbuf_", scope: !209, file: !210, line: 367, baseType: !258, size: 64, offset: 320)
!258 = !DIDerivedType(tag: DW_TAG_pointer_type, baseType: null, size: 64)
!259 = !DIDerivedType(tag: DW_TAG_member, name: "__loc_", scope: !209, file: !210, line: 368, baseType: !258, size: 64, offset: 384)
!260 = !DIDerivedType(tag: DW_TAG_member, name: "__fn_", scope: !209, file: !210, line: 369, baseType: !261, size: 64, offset: 448)
!261 = !DIDerivedType(tag: DW_TAG_pointer_type, baseType: !262, size: 64)
!262 = !DIDerivedType(tag: DW_TAG_typedef, name: "event_callback", scope: !209, file: !210, line: 309, baseType: !263)
!263 = !DIDerivedType(tag: DW_TAG_pointer_type, baseType: !264, size: 64)
!264 = !DISubroutineType(types: !265)
!265 = !{null, !266, !271, !14}
!266 = !DICompositeType(tag: DW_TAG_enumeration_type, name: "event", scope: !209, file: !210, line: 308, size: 32, elements: !267, identifier: "_ZTSNSt3__18ios_base5eventE")
!267 = !{!268, !269, !270}
!268 = !DIEnumerator(name: "erase_event", value: 0)
!269 = !DIEnumerator(name: "imbue_event", value: 1)
!270 = !DIEnumerator(name: "copyfmt_event", value: 2)
!271 = !DIDerivedType(tag: DW_TAG_reference_type, baseType: !209, size: 64)
!272 = !DIDerivedType(tag: DW_TAG_member, name: "__index_", scope: !209, file: !210, line: 370, baseType: !273, size: 64, offset: 512)
!273 = !DIDerivedType(tag: DW_TAG_pointer_type, baseType: !14, size: 64)
!274 = !DIDerivedType(tag: DW_TAG_member, name: "__event_size_", scope: !209, file: !210, line: 371, baseType: !275, size: 64, offset: 576)
!275 = !DIDerivedType(tag: DW_TAG_typedef, name: "size_t", file: !252, line: 62, baseType: !276)
!276 = !DIBasicType(name: "long unsigned int", size: 64, encoding: DW_ATE_unsigned)
!277 = !DIDerivedType(tag: DW_TAG_member, name: "__event_cap_", scope: !209, file: !210, line: 372, baseType: !275, size: 64, offset: 640)
!278 = !DIDerivedType(tag: DW_TAG_member, name: "__xindex_", scope: !209, file: !210, line: 376, baseType: !279, flags: DIFlagStaticMember)
!279 = !DICompositeType(tag: DW_TAG_structure_type, name: "atomic<int>", scope: !20, file: !280, line: 1084, flags: DIFlagFwdDecl, identifier: "_ZTSNSt3__16atomicIiEE")
!280 = !DIFile(filename: "/Applications/Xcode.app/Contents/Developer/Toolchains/XcodeDefault.xctoolchain/usr/include/c++/v1/atomic", directory: "/Users/ejiang/Projects/lls/ac/llfiles")
!281 = !DIDerivedType(tag: DW_TAG_member, name: "__iarray_", scope: !209, file: !210, line: 380, baseType: !282, size: 64, offset: 704)
!282 = !DIDerivedType(tag: DW_TAG_pointer_type, baseType: !253, size: 64)
!283 = !DIDerivedType(tag: DW_TAG_member, name: "__iarray_size_", scope: !209, file: !210, line: 381, baseType: !275, size: 64, offset: 768)
!284 = !DIDerivedType(tag: DW_TAG_member, name: "__iarray_cap_", scope: !209, file: !210, line: 382, baseType: !275, size: 64, offset: 832)
!285 = !DIDerivedType(tag: DW_TAG_member, name: "__parray_", scope: !209, file: !210, line: 383, baseType: !286, size: 64, offset: 896)
!286 = !DIDerivedType(tag: DW_TAG_pointer_type, baseType: !258, size: 64)
!287 = !DIDerivedType(tag: DW_TAG_member, name: "__parray_size_", scope: !209, file: !210, line: 384, baseType: !275, size: 64, offset: 960)
!288 = !DIDerivedType(tag: DW_TAG_member, name: "__parray_cap_", scope: !209, file: !210, line: 385, baseType: !275, size: 64, offset: 1024)
!289 = !DISubprogram(name: "flags", linkageName: "_ZNKSt3__18ios_base5flagsEv", scope: !209, file: !210, line: 284, type: !290, isLocal: false, isDefinition: false, scopeLine: 284, flags: DIFlagPublic | DIFlagPrototyped, isOptimized: false)
!290 = !DISubroutineType(types: !291)
!291 = !{!215, !292}
!292 = !DIDerivedType(tag: DW_TAG_pointer_type, baseType: !293, size: 64, flags: DIFlagArtificial | DIFlagObjectPointer)
!293 = !DIDerivedType(tag: DW_TAG_const_type, baseType: !209)
!294 = !DISubprogram(name: "flags", linkageName: "_ZNSt3__18ios_base5flagsEj", scope: !209, file: !210, line: 285, type: !295, isLocal: false, isDefinition: false, scopeLine: 285, flags: DIFlagPublic | DIFlagPrototyped, isOptimized: false)
!295 = !DISubroutineType(types: !296)
!296 = !{!215, !297, !215}
!297 = !DIDerivedType(tag: DW_TAG_pointer_type, baseType: !209, size: 64, flags: DIFlagArtificial | DIFlagObjectPointer)
!298 = !DISubprogram(name: "setf", linkageName: "_ZNSt3__18ios_base4setfEj", scope: !209, file: !210, line: 286, type: !295, isLocal: false, isDefinition: false, scopeLine: 286, flags: DIFlagPublic | DIFlagPrototyped, isOptimized: false)
!299 = !DISubprogram(name: "setf", linkageName: "_ZNSt3__18ios_base4setfEjj", scope: !209, file: !210, line: 287, type: !300, isLocal: false, isDefinition: false, scopeLine: 287, flags: DIFlagPublic | DIFlagPrototyped, isOptimized: false)
!300 = !DISubroutineType(types: !301)
!301 = !{!215, !297, !215, !215}
!302 = !DISubprogram(name: "unsetf", linkageName: "_ZNSt3__18ios_base6unsetfEj", scope: !209, file: !210, line: 288, type: !303, isLocal: false, isDefinition: false, scopeLine: 288, flags: DIFlagPublic | DIFlagPrototyped, isOptimized: false)
!303 = !DISubroutineType(types: !304)
!304 = !{null, !297, !215}
!305 = !DISubprogram(name: "precision", linkageName: "_ZNKSt3__18ios_base9precisionEv", scope: !209, file: !210, line: 290, type: !306, isLocal: false, isDefinition: false, scopeLine: 290, flags: DIFlagPublic | DIFlagPrototyped, isOptimized: false)
!306 = !DISubroutineType(types: !307)
!307 = !{!250, !292}
!308 = !DISubprogram(name: "precision", linkageName: "_ZNSt3__18ios_base9precisionEl", scope: !209, file: !210, line: 291, type: !309, isLocal: false, isDefinition: false, scopeLine: 291, flags: DIFlagPublic | DIFlagPrototyped, isOptimized: false)
!309 = !DISubroutineType(types: !310)
!310 = !{!250, !297, !250}
!311 = !DISubprogram(name: "width", linkageName: "_ZNKSt3__18ios_base5widthEv", scope: !209, file: !210, line: 292, type: !306, isLocal: false, isDefinition: false, scopeLine: 292, flags: DIFlagPublic | DIFlagPrototyped, isOptimized: false)
!312 = !DISubprogram(name: "width", linkageName: "_ZNSt3__18ios_base5widthEl", scope: !209, file: !210, line: 293, type: !309, isLocal: false, isDefinition: false, scopeLine: 293, flags: DIFlagPublic | DIFlagPrototyped, isOptimized: false)
!313 = !DISubprogram(name: "imbue", linkageName: "_ZNSt3__18ios_base5imbueERKNS_6localeE", scope: !209, file: !210, line: 296, type: !314, isLocal: false, isDefinition: false, scopeLine: 296, flags: DIFlagPublic | DIFlagPrototyped, isOptimized: false)
!314 = !DISubroutineType(types: !315)
!315 = !{!316, !297, !339}
!316 = distinct !DICompositeType(tag: DW_TAG_class_type, name: "locale", scope: !20, file: !317, line: 83, size: 64, elements: !318, identifier: "_ZTSNSt3__16localeE")
!317 = !DIFile(filename: "/Applications/Xcode.app/Contents/Developer/Toolchains/XcodeDefault.xctoolchain/usr/include/c++/v1/__locale", directory: "/Users/ejiang/Projects/lls/ac/llfiles")
!318 = !{!319, !322, !323, !324, !325, !326, !327, !328, !329, !332, !336, !341, !347, !1233, !1236, !1239, !1242, !1243, !1246, !1250, !1253, !1254, !1257, !1260, !1304, !1308, !1350}
!319 = !DIDerivedType(tag: DW_TAG_member, name: "none", scope: !316, file: !317, line: 93, baseType: !320, flags: DIFlagPublic | DIFlagStaticMember, extraData: i32 0)
!320 = !DIDerivedType(tag: DW_TAG_const_type, baseType: !321)
!321 = !DIDerivedType(tag: DW_TAG_typedef, name: "category", scope: !316, file: !317, line: 90, baseType: !14)
!322 = !DIDerivedType(tag: DW_TAG_member, name: "collate", scope: !316, file: !317, line: 94, baseType: !320, flags: DIFlagPublic | DIFlagStaticMember, extraData: i32 1)
!323 = !DIDerivedType(tag: DW_TAG_member, name: "ctype", scope: !316, file: !317, line: 95, baseType: !320, flags: DIFlagPublic | DIFlagStaticMember, extraData: i32 2)
!324 = !DIDerivedType(tag: DW_TAG_member, name: "monetary", scope: !316, file: !317, line: 96, baseType: !320, flags: DIFlagPublic | DIFlagStaticMember, extraData: i32 8)
!325 = !DIDerivedType(tag: DW_TAG_member, name: "numeric", scope: !316, file: !317, line: 97, baseType: !320, flags: DIFlagPublic | DIFlagStaticMember, extraData: i32 16)
!326 = !DIDerivedType(tag: DW_TAG_member, name: "time", scope: !316, file: !317, line: 98, baseType: !320, flags: DIFlagPublic | DIFlagStaticMember, extraData: i32 32)
!327 = !DIDerivedType(tag: DW_TAG_member, name: "messages", scope: !316, file: !317, line: 99, baseType: !320, flags: DIFlagPublic | DIFlagStaticMember, extraData: i32 4)
!328 = !DIDerivedType(tag: DW_TAG_member, name: "all", scope: !316, file: !317, line: 100, baseType: !320, flags: DIFlagPublic | DIFlagStaticMember, extraData: i32 63)
!329 = !DIDerivedType(tag: DW_TAG_member, name: "__locale_", scope: !316, file: !317, line: 136, baseType: !330, size: 64)
!330 = !DIDerivedType(tag: DW_TAG_pointer_type, baseType: !331, size: 64)
!331 = !DICompositeType(tag: DW_TAG_class_type, name: "__imp", scope: !316, file: !317, line: 135, flags: DIFlagFwdDecl, identifier: "_ZTSNSt3__16locale5__impE")
!332 = !DISubprogram(name: "locale", scope: !316, file: !317, line: 103, type: !333, isLocal: false, isDefinition: false, scopeLine: 103, flags: DIFlagPublic | DIFlagPrototyped, isOptimized: false)
!333 = !DISubroutineType(types: !334)
!334 = !{null, !335}
!335 = !DIDerivedType(tag: DW_TAG_pointer_type, baseType: !316, size: 64, flags: DIFlagArtificial | DIFlagObjectPointer)
!336 = !DISubprogram(name: "locale", scope: !316, file: !317, line: 104, type: !337, isLocal: false, isDefinition: false, scopeLine: 104, flags: DIFlagPublic | DIFlagPrototyped, isOptimized: false)
!337 = !DISubroutineType(types: !338)
!338 = !{null, !335, !339}
!339 = !DIDerivedType(tag: DW_TAG_reference_type, baseType: !340, size: 64)
!340 = !DIDerivedType(tag: DW_TAG_const_type, baseType: !316)
!341 = !DISubprogram(name: "locale", scope: !316, file: !317, line: 105, type: !342, isLocal: false, isDefinition: false, scopeLine: 105, flags: DIFlagPublic | DIFlagExplicit | DIFlagPrototyped, isOptimized: false)
!342 = !DISubroutineType(types: !343)
!343 = !{null, !335, !344}
!344 = !DIDerivedType(tag: DW_TAG_pointer_type, baseType: !345, size: 64)
!345 = !DIDerivedType(tag: DW_TAG_const_type, baseType: !346)
!346 = !DIBasicType(name: "char", size: 8, encoding: DW_ATE_signed_char)
!347 = !DISubprogram(name: "locale", scope: !316, file: !317, line: 106, type: !348, isLocal: false, isDefinition: false, scopeLine: 106, flags: DIFlagPublic | DIFlagExplicit | DIFlagPrototyped, isOptimized: false)
!348 = !DISubroutineType(types: !349)
!349 = !{null, !335, !350}
!350 = !DIDerivedType(tag: DW_TAG_reference_type, baseType: !351, size: 64)
!351 = !DIDerivedType(tag: DW_TAG_const_type, baseType: !352)
!352 = !DIDerivedType(tag: DW_TAG_typedef, name: "string", scope: !20, file: !200, line: 194, baseType: !353)
!353 = distinct !DICompositeType(tag: DW_TAG_class_type, name: "basic_string<char, std::__1::char_traits<char>, std::__1::allocator<char> >", scope: !20, file: !354, line: 4002, size: 192, elements: !355, templateParams: !1231, identifier: "_ZTSNSt3__112basic_stringIcNS_11char_traitsIcEENS_9allocatorIcEEEE")
!354 = !DIFile(filename: "/Applications/Xcode.app/Contents/Developer/Toolchains/XcodeDefault.xctoolchain/usr/include/c++/v1/string", directory: "/Users/ejiang/Projects/lls/ac/llfiles")
!355 = !{!356, !366, !513, !514, !617, !618, !622, !628, !633, !636, !640, !643, !646, !649, !652, !655, !658, !661, !664, !667, !855, !858, !884, !887, !888, !892, !896, !899, !902, !907, !910, !915, !920, !921, !922, !927, !932, !933, !934, !935, !936, !937, !938, !941, !942, !943, !944, !947, !950, !951, !952, !953, !956, !961, !966, !967, !968, !969, !972, !973, !974, !975, !976, !977, !980, !983, !984, !987, !988, !991, !992, !995, !998, !999, !1000, !1001, !1002, !1003, !1004, !1005, !1006, !1007, !1008, !1011, !1014, !1017, !1020, !1023, !1026, !1029, !1032, !1035, !1038, !1041, !1044, !1047, !1050, !1053, !1056, !1059, !1062, !1065, !1068, !1071, !1074, !1077, !1080, !1084, !1087, !1090, !1093, !1094, !1097, !1100, !1103, !1106, !1109, !1112, !1113, !1114, !1115, !1116, !1117, !1118, !1119, !1120, !1121, !1122, !1123, !1124, !1125, !1126, !1127, !1128, !1129, !1130, !1131, !1132, !1133, !1134, !1135, !1136, !1137, !1140, !1143, !1146, !1149, !1152, !1155, !1158, !1161, !1162, !1163, !1167, !1170, !1171, !1172, !1173, !1174, !1175, !1176, !1177, !1180, !1183, !1191, !1192, !1193, !1194, !1195, !1196, !1199, !1202, !1205, !1206, !1209, !1212, !1213, !1214, !1217, !1220, !1223, !1226, !1227, !1228, !1229, !1230}
!356 = !DIDerivedType(tag: DW_TAG_inheritance, scope: !353, baseType: !357)
!357 = distinct !DICompositeType(tag: DW_TAG_class_type, name: "__basic_string_common<true>", scope: !20, file: !354, line: 583, size: 8, elements: !358, templateParams: !365, identifier: "_ZTSNSt3__121__basic_string_commonILb1EEE")
!358 = !{!359, !364}
!359 = !DISubprogram(name: "__throw_length_error", linkageName: "_ZNKSt3__121__basic_string_commonILb1EE20__throw_length_errorEv", scope: !357, file: !354, line: 565, type: !360, isLocal: false, isDefinition: false, scopeLine: 565, flags: DIFlagProtected | DIFlagPrototyped, isOptimized: false)
!360 = !DISubroutineType(types: !361)
!361 = !{null, !362}
!362 = !DIDerivedType(tag: DW_TAG_pointer_type, baseType: !363, size: 64, flags: DIFlagArtificial | DIFlagObjectPointer)
!363 = !DIDerivedType(tag: DW_TAG_const_type, baseType: !357)
!364 = !DISubprogram(name: "__throw_out_of_range", linkageName: "_ZNKSt3__121__basic_string_commonILb1EE20__throw_out_of_rangeEv", scope: !357, file: !354, line: 566, type: !360, isLocal: false, isDefinition: false, scopeLine: 566, flags: DIFlagProtected | DIFlagPrototyped, isOptimized: false)
!365 = !{!140}
!366 = !DIDerivedType(tag: DW_TAG_member, name: "__short_mask", scope: !353, file: !354, line: 707, baseType: !367, flags: DIFlagStaticMember, extraData: i64 1)
!367 = !DIDerivedType(tag: DW_TAG_const_type, baseType: !368)
!368 = !DIDerivedType(tag: DW_TAG_typedef, name: "size_type", scope: !353, file: !354, line: 640, baseType: !369)
!369 = !DIDerivedType(tag: DW_TAG_typedef, name: "size_type", scope: !370, file: !19, line: 1478, baseType: !508)
!370 = distinct !DICompositeType(tag: DW_TAG_structure_type, name: "allocator_traits<std::__1::allocator<char> >", scope: !20, file: !19, line: 1467, size: 8, elements: !371, templateParams: !507, identifier: "_ZTSNSt3__116allocator_traitsINS_9allocatorIcEEEE")
!371 = !{!372, !427, !452, !455, !460, !463, !480, !495, !498, !501, !504}
!372 = !DISubprogram(name: "allocate", linkageName: "_ZNSt3__116allocator_traitsINS_9allocatorIcEEE8allocateERS2_m", scope: !370, file: !19, line: 1501, type: !373, isLocal: false, isDefinition: false, scopeLine: 1501, flags: DIFlagPrototyped, isOptimized: false)
!373 = !DISubroutineType(types: !374)
!374 = !{!375, !425, !369}
!375 = !DIDerivedType(tag: DW_TAG_typedef, name: "pointer", scope: !370, file: !19, line: 1472, baseType: !376)
!376 = !DIDerivedType(tag: DW_TAG_typedef, name: "type", scope: !377, file: !19, line: 1020, baseType: !422)
!377 = distinct !DICompositeType(tag: DW_TAG_structure_type, name: "__pointer_type<char, std::__1::allocator<char> >", scope: !20, file: !19, line: 1018, size: 8, elements: !136, templateParams: !378, identifier: "_ZTSNSt3__114__pointer_typeIcNS_9allocatorIcEEEE")
!378 = !{!379, !380}
!379 = !DITemplateTypeParameter(name: "_Tp", type: !346)
!380 = !DITemplateTypeParameter(name: "_Dp", type: !381)
!381 = distinct !DICompositeType(tag: DW_TAG_class_type, name: "allocator<char>", scope: !20, file: !19, line: 1720, size: 8, elements: !382, templateParams: !421, identifier: "_ZTSNSt3__19allocatorIcEE")
!382 = !{!383, !387, !396, !402, !412, !415, !418}
!383 = !DISubprogram(name: "allocator", scope: !381, file: !19, line: 1736, type: !384, isLocal: false, isDefinition: false, scopeLine: 1736, flags: DIFlagPublic | DIFlagPrototyped, isOptimized: false)
!384 = !DISubroutineType(types: !385)
!385 = !{null, !386}
!386 = !DIDerivedType(tag: DW_TAG_pointer_type, baseType: !381, size: 64, flags: DIFlagArtificial | DIFlagObjectPointer)
!387 = !DISubprogram(name: "address", linkageName: "_ZNKSt3__19allocatorIcE7addressERc", scope: !381, file: !19, line: 1738, type: !388, isLocal: false, isDefinition: false, scopeLine: 1738, flags: DIFlagPublic | DIFlagPrototyped, isOptimized: false)
!388 = !DISubroutineType(types: !389)
!389 = !{!390, !392, !394}
!390 = !DIDerivedType(tag: DW_TAG_typedef, name: "pointer", scope: !381, file: !19, line: 1725, baseType: !391)
!391 = !DIDerivedType(tag: DW_TAG_pointer_type, baseType: !346, size: 64)
!392 = !DIDerivedType(tag: DW_TAG_pointer_type, baseType: !393, size: 64, flags: DIFlagArtificial | DIFlagObjectPointer)
!393 = !DIDerivedType(tag: DW_TAG_const_type, baseType: !381)
!394 = !DIDerivedType(tag: DW_TAG_typedef, name: "reference", scope: !381, file: !19, line: 1727, baseType: !395)
!395 = !DIDerivedType(tag: DW_TAG_reference_type, baseType: !346, size: 64)
!396 = !DISubprogram(name: "address", linkageName: "_ZNKSt3__19allocatorIcE7addressERKc", scope: !381, file: !19, line: 1740, type: !397, isLocal: false, isDefinition: false, scopeLine: 1740, flags: DIFlagPublic | DIFlagPrototyped, isOptimized: false)
!397 = !DISubroutineType(types: !398)
!398 = !{!399, !392, !400}
!399 = !DIDerivedType(tag: DW_TAG_typedef, name: "const_pointer", scope: !381, file: !19, line: 1726, baseType: !344)
!400 = !DIDerivedType(tag: DW_TAG_typedef, name: "const_reference", scope: !381, file: !19, line: 1728, baseType: !401)
!401 = !DIDerivedType(tag: DW_TAG_reference_type, baseType: !345, size: 64)
!402 = !DISubprogram(name: "allocate", linkageName: "_ZNSt3__19allocatorIcE8allocateEmPKv", scope: !381, file: !19, line: 1742, type: !403, isLocal: false, isDefinition: false, scopeLine: 1742, flags: DIFlagPublic | DIFlagPrototyped, isOptimized: false)
!403 = !DISubroutineType(types: !404)
!404 = !{!390, !386, !405, !406}
!405 = !DIDerivedType(tag: DW_TAG_typedef, name: "size_type", file: !19, line: 1723, baseType: !275)
!406 = !DIDerivedType(tag: DW_TAG_typedef, name: "const_pointer", scope: !407, file: !19, line: 704, baseType: !410)
!407 = distinct !DICompositeType(tag: DW_TAG_class_type, name: "allocator<void>", scope: !20, file: !19, line: 700, size: 8, elements: !136, templateParams: !408, identifier: "_ZTSNSt3__19allocatorIvEE")
!408 = !{!409}
!409 = !DITemplateTypeParameter(name: "_Tp", type: null)
!410 = !DIDerivedType(tag: DW_TAG_pointer_type, baseType: !411, size: 64)
!411 = !DIDerivedType(tag: DW_TAG_const_type, baseType: null)
!412 = !DISubprogram(name: "deallocate", linkageName: "_ZNSt3__19allocatorIcE10deallocateEPcm", scope: !381, file: !19, line: 1749, type: !413, isLocal: false, isDefinition: false, scopeLine: 1749, flags: DIFlagPublic | DIFlagPrototyped, isOptimized: false)
!413 = !DISubroutineType(types: !414)
!414 = !{null, !386, !390, !405}
!415 = !DISubprogram(name: "max_size", linkageName: "_ZNKSt3__19allocatorIcE8max_sizeEv", scope: !381, file: !19, line: 1751, type: !416, isLocal: false, isDefinition: false, scopeLine: 1751, flags: DIFlagPublic | DIFlagPrototyped, isOptimized: false)
!416 = !DISubroutineType(types: !417)
!417 = !{!405, !392}
!418 = !DISubprogram(name: "destroy", linkageName: "_ZNSt3__19allocatorIcE7destroyEPc", scope: !381, file: !19, line: 1814, type: !419, isLocal: false, isDefinition: false, scopeLine: 1814, flags: DIFlagPublic | DIFlagPrototyped, isOptimized: false)
!419 = !DISubroutineType(types: !420)
!420 = !{null, !386, !390}
!421 = !{!379}
!422 = !DIDerivedType(tag: DW_TAG_typedef, name: "type", scope: !423, file: !19, line: 1006, baseType: !390)
!423 = distinct !DICompositeType(tag: DW_TAG_structure_type, name: "__pointer_type<char, std::__1::allocator<char>, true>", scope: !153, file: !19, line: 1004, size: 8, elements: !136, templateParams: !424, identifier: "_ZTSNSt3__118__pointer_type_imp14__pointer_typeIcNS_9allocatorIcEELb1EEE")
!424 = !{!379, !380, !140}
!425 = !DIDerivedType(tag: DW_TAG_reference_type, baseType: !426, size: 64)
!426 = !DIDerivedType(tag: DW_TAG_typedef, name: "allocator_type", scope: !370, file: !19, line: 1469, baseType: !381)
!427 = !DISubprogram(name: "allocate", linkageName: "_ZNSt3__116allocator_traitsINS_9allocatorIcEEE8allocateERS2_mPKv", scope: !370, file: !19, line: 1504, type: !428, isLocal: false, isDefinition: false, scopeLine: 1504, flags: DIFlagPrototyped, isOptimized: false)
!428 = !DISubroutineType(types: !429)
!429 = !{!375, !425, !369, !430}
!430 = !DIDerivedType(tag: DW_TAG_typedef, name: "const_void_pointer", scope: !370, file: !19, line: 1475, baseType: !431)
!431 = !DIDerivedType(tag: DW_TAG_typedef, name: "type", scope: !432, file: !19, line: 1086, baseType: !436)
!432 = distinct !DICompositeType(tag: DW_TAG_structure_type, name: "__const_void_pointer<char *, std::__1::allocator<char>, false>", scope: !20, file: !19, line: 1083, size: 8, elements: !136, templateParams: !433, identifier: "_ZTSNSt3__120__const_void_pointerIPcNS_9allocatorIcEELb0EEE")
!433 = !{!434, !435, !155}
!434 = !DITemplateTypeParameter(name: "_Ptr", type: !391)
!435 = !DITemplateTypeParameter(name: "_Alloc", type: !381)
!436 = !DIDerivedType(tag: DW_TAG_typedef, name: "rebind<const void>", scope: !437, file: !19, line: 968, baseType: !410)
!437 = distinct !DICompositeType(tag: DW_TAG_structure_type, name: "pointer_traits<char *>", scope: !20, file: !19, line: 961, size: 8, elements: !438, templateParams: !451, identifier: "_ZTSNSt3__114pointer_traitsIPcEE")
!438 = !{!439}
!439 = !DISubprogram(name: "pointer_to", linkageName: "_ZNSt3__114pointer_traitsIPcE10pointer_toERc", scope: !437, file: !19, line: 977, type: !440, isLocal: false, isDefinition: false, scopeLine: 977, flags: DIFlagPrototyped, isOptimized: false)
!440 = !DISubroutineType(types: !441)
!441 = !{!442, !443}
!442 = !DIDerivedType(tag: DW_TAG_typedef, name: "pointer", scope: !437, file: !19, line: 963, baseType: !391)
!443 = !DIDerivedType(tag: DW_TAG_reference_type, baseType: !444, size: 64)
!444 = !DIDerivedType(tag: DW_TAG_typedef, name: "type", scope: !445, file: !134, line: 414, baseType: !346)
!445 = distinct !DICompositeType(tag: DW_TAG_structure_type, name: "conditional<false, std::__1::pointer_traits<char *>::__nat, char>", scope: !20, file: !134, line: 414, size: 8, elements: !136, templateParams: !446, identifier: "_ZTSNSt3__111conditionalILb0ENS_14pointer_traitsIPcE5__natEcEE")
!446 = !{!447, !448, !450}
!447 = !DITemplateValueParameter(name: "_Bp", type: !52, value: i8 0)
!448 = !DITemplateTypeParameter(name: "_If", type: !449)
!449 = !DICompositeType(tag: DW_TAG_structure_type, name: "__nat", scope: !437, file: !19, line: 974, flags: DIFlagFwdDecl, identifier: "_ZTSNSt3__114pointer_traitsIPcE5__natE")
!450 = !DITemplateTypeParameter(name: "_Then", type: !346)
!451 = !{!434}
!452 = !DISubprogram(name: "deallocate", linkageName: "_ZNSt3__116allocator_traitsINS_9allocatorIcEEE10deallocateERS2_Pcm", scope: !370, file: !19, line: 1509, type: !453, isLocal: false, isDefinition: false, scopeLine: 1509, flags: DIFlagPrototyped, isOptimized: false)
!453 = !DISubroutineType(types: !454)
!454 = !{null, !425, !375, !369}
!455 = !DISubprogram(name: "max_size", linkageName: "_ZNSt3__116allocator_traitsINS_9allocatorIcEEE8max_sizeERKS2_", scope: !370, file: !19, line: 1553, type: !456, isLocal: false, isDefinition: false, scopeLine: 1553, flags: DIFlagPrototyped, isOptimized: false)
!456 = !DISubroutineType(types: !457)
!457 = !{!369, !458}
!458 = !DIDerivedType(tag: DW_TAG_reference_type, baseType: !459, size: 64)
!459 = !DIDerivedType(tag: DW_TAG_const_type, baseType: !426)
!460 = !DISubprogram(name: "select_on_container_copy_construction", linkageName: "_ZNSt3__116allocator_traitsINS_9allocatorIcEEE37select_on_container_copy_constructionERKS2_", scope: !370, file: !19, line: 1558, type: !461, isLocal: false, isDefinition: false, scopeLine: 1558, flags: DIFlagPrototyped, isOptimized: false)
!461 = !DISubroutineType(types: !462)
!462 = !{!426, !458}
!463 = !DISubprogram(name: "__allocate", linkageName: "_ZNSt3__116allocator_traitsINS_9allocatorIcEEE10__allocateERS2_mPKvNS_17integral_constantIbLb1EEE", scope: !370, file: !19, line: 1658, type: !464, isLocal: false, isDefinition: false, scopeLine: 1658, flags: DIFlagPrivate | DIFlagPrototyped, isOptimized: false)
!464 = !DISubroutineType(types: !465)
!465 = !{!375, !425, !369, !430, !466}
!466 = !DIDerivedType(tag: DW_TAG_typedef, name: "true_type", scope: !20, file: !134, line: 528, baseType: !467)
!467 = distinct !DICompositeType(tag: DW_TAG_structure_type, name: "integral_constant<bool, true>", scope: !20, file: !134, line: 504, size: 8, elements: !468, templateParams: !477, identifier: "_ZTSNSt3__117integral_constantIbLb1EEE")
!468 = !{!469, !471}
!469 = !DIDerivedType(tag: DW_TAG_member, name: "value", scope: !467, file: !134, line: 506, baseType: !470, flags: DIFlagStaticMember, extraData: i1 true)
!470 = !DIDerivedType(tag: DW_TAG_const_type, baseType: !52)
!471 = !DISubprogram(name: "operator bool", linkageName: "_ZNKSt3__117integral_constantIbLb1EEcvbEv", scope: !467, file: !134, line: 510, type: !472, isLocal: false, isDefinition: false, scopeLine: 510, flags: DIFlagPrototyped, isOptimized: false)
!472 = !DISubroutineType(types: !473)
!473 = !{!474, !475}
!474 = !DIDerivedType(tag: DW_TAG_typedef, name: "value_type", scope: !467, file: !134, line: 507, baseType: !52)
!475 = !DIDerivedType(tag: DW_TAG_pointer_type, baseType: !476, size: 64, flags: DIFlagArtificial | DIFlagObjectPointer)
!476 = !DIDerivedType(tag: DW_TAG_const_type, baseType: !467)
!477 = !{!478, !479}
!478 = !DITemplateTypeParameter(name: "_Tp", type: !52)
!479 = !DITemplateValueParameter(name: "__v", type: !52, value: i8 1)
!480 = !DISubprogram(name: "__allocate", linkageName: "_ZNSt3__116allocator_traitsINS_9allocatorIcEEE10__allocateERS2_mPKvNS_17integral_constantIbLb0EEE", scope: !370, file: !19, line: 1662, type: !481, isLocal: false, isDefinition: false, scopeLine: 1662, flags: DIFlagPrivate | DIFlagPrototyped, isOptimized: false)
!481 = !DISubroutineType(types: !482)
!482 = !{!375, !425, !369, !430, !483}
!483 = !DIDerivedType(tag: DW_TAG_typedef, name: "false_type", scope: !20, file: !134, line: 529, baseType: !484)
!484 = distinct !DICompositeType(tag: DW_TAG_structure_type, name: "integral_constant<bool, false>", scope: !20, file: !134, line: 504, size: 8, elements: !485, templateParams: !493, identifier: "_ZTSNSt3__117integral_constantIbLb0EEE")
!485 = !{!486, !487}
!486 = !DIDerivedType(tag: DW_TAG_member, name: "value", scope: !484, file: !134, line: 506, baseType: !470, flags: DIFlagStaticMember, extraData: i1 false)
!487 = !DISubprogram(name: "operator bool", linkageName: "_ZNKSt3__117integral_constantIbLb0EEcvbEv", scope: !484, file: !134, line: 510, type: !488, isLocal: false, isDefinition: false, scopeLine: 510, flags: DIFlagPrototyped, isOptimized: false)
!488 = !DISubroutineType(types: !489)
!489 = !{!490, !491}
!490 = !DIDerivedType(tag: DW_TAG_typedef, name: "value_type", scope: !484, file: !134, line: 507, baseType: !52)
!491 = !DIDerivedType(tag: DW_TAG_pointer_type, baseType: !492, size: 64, flags: DIFlagArtificial | DIFlagObjectPointer)
!492 = !DIDerivedType(tag: DW_TAG_const_type, baseType: !484)
!493 = !{!478, !494}
!494 = !DITemplateValueParameter(name: "__v", type: !52, value: i8 0)
!495 = !DISubprogram(name: "__max_size", linkageName: "_ZNSt3__116allocator_traitsINS_9allocatorIcEEE10__max_sizeENS_17integral_constantIbLb1EEERKS2_", scope: !370, file: !19, line: 1691, type: !496, isLocal: false, isDefinition: false, scopeLine: 1691, flags: DIFlagPrivate | DIFlagPrototyped, isOptimized: false)
!496 = !DISubroutineType(types: !497)
!497 = !{!369, !466, !458}
!498 = !DISubprogram(name: "__max_size", linkageName: "_ZNSt3__116allocator_traitsINS_9allocatorIcEEE10__max_sizeENS_17integral_constantIbLb0EEERKS2_", scope: !370, file: !19, line: 1694, type: !499, isLocal: false, isDefinition: false, scopeLine: 1694, flags: DIFlagPrivate | DIFlagPrototyped, isOptimized: false)
!499 = !DISubroutineType(types: !500)
!500 = !{!369, !483, !458}
!501 = !DISubprogram(name: "__select_on_container_copy_construction", linkageName: "_ZNSt3__116allocator_traitsINS_9allocatorIcEEE39__select_on_container_copy_constructionENS_17integral_constantIbLb1EEERKS2_", scope: !370, file: !19, line: 1699, type: !502, isLocal: false, isDefinition: false, scopeLine: 1699, flags: DIFlagPrivate | DIFlagPrototyped, isOptimized: false)
!502 = !DISubroutineType(types: !503)
!503 = !{!426, !466, !458}
!504 = !DISubprogram(name: "__select_on_container_copy_construction", linkageName: "_ZNSt3__116allocator_traitsINS_9allocatorIcEEE39__select_on_container_copy_constructionENS_17integral_constantIbLb0EEERKS2_", scope: !370, file: !19, line: 1703, type: !505, isLocal: false, isDefinition: false, scopeLine: 1703, flags: DIFlagPrivate | DIFlagPrototyped, isOptimized: false)
!505 = !DISubroutineType(types: !506)
!506 = !{!426, !483, !458}
!507 = !{!435}
!508 = !DIDerivedType(tag: DW_TAG_typedef, name: "type", scope: !509, file: !19, line: 1124, baseType: !512)
!509 = distinct !DICompositeType(tag: DW_TAG_structure_type, name: "__size_type<std::__1::allocator<char>, long, true>", scope: !20, file: !19, line: 1122, size: 8, elements: !136, templateParams: !510, identifier: "_ZTSNSt3__111__size_typeINS_9allocatorIcEElLb1EEE")
!510 = !{!435, !511, !140}
!511 = !DITemplateTypeParameter(name: "_DiffType", type: !253)
!512 = !DIDerivedType(tag: DW_TAG_typedef, name: "size_type", scope: !381, file: !19, line: 1723, baseType: !275)
!513 = !DIDerivedType(tag: DW_TAG_member, name: "__long_mask", scope: !353, file: !354, line: 708, baseType: !367, flags: DIFlagStaticMember, extraData: i64 1)
!514 = !DIDerivedType(tag: DW_TAG_member, name: "__r_", scope: !353, file: !354, line: 745, baseType: !515, size: 192)
!515 = distinct !DICompositeType(tag: DW_TAG_class_type, name: "__compressed_pair<std::__1::basic_string<char, std::__1::char_traits<char>, std::__1::allocator<char> >::__rep, std::__1::allocator<char> >", scope: !20, file: !19, line: 2111, size: 192, elements: !516, templateParams: !614, identifier: "_ZTSNSt3__117__compressed_pairINS_12basic_stringIcNS_11char_traitsIcEENS_9allocatorIcEEE5__repES5_EE")
!516 = !{!517, !573, !595, !599, !604, !607, !610}
!517 = !DIDerivedType(tag: DW_TAG_inheritance, scope: !515, baseType: !518)
!518 = distinct !DICompositeType(tag: DW_TAG_structure_type, name: "__compressed_pair_elem<std::__1::basic_string<char, std::__1::char_traits<char>, std::__1::allocator<char> >::__rep, 0, false>", scope: !20, file: !19, line: 2037, size: 192, elements: !519, templateParams: !571, identifier: "_ZTSNSt3__122__compressed_pair_elemINS_12basic_stringIcNS_11char_traitsIcEENS_9allocatorIcEEE5__repELi0ELb0EEE")
!519 = !{!520, !554, !558, !563}
!520 = !DIDerivedType(tag: DW_TAG_member, name: "__value_", scope: !518, file: !19, line: 2069, baseType: !521, size: 192, flags: DIFlagPrivate)
!521 = distinct !DICompositeType(tag: DW_TAG_structure_type, name: "__rep", scope: !353, file: !354, line: 735, size: 192, elements: !522, identifier: "_ZTSNSt3__112basic_stringIcNS_11char_traitsIcEENS_9allocatorIcEEE5__repE")
!522 = !{!523}
!523 = !DIDerivedType(tag: DW_TAG_member, scope: !521, file: !354, line: 737, baseType: !524, size: 192)
!524 = distinct !DICompositeType(tag: DW_TAG_union_type, scope: !521, file: !354, line: 737, size: 192, elements: !525, identifier: "_ZTSNSt3__112basic_stringIcNS_11char_traitsIcEENS_9allocatorIcEEE5__repUt_E")
!525 = !{!526, !533, !547}
!526 = !DIDerivedType(tag: DW_TAG_member, name: "__l", scope: !524, file: !354, line: 739, baseType: !527, size: 192)
!527 = distinct !DICompositeType(tag: DW_TAG_structure_type, name: "__long", scope: !353, file: !354, line: 696, size: 192, elements: !528, identifier: "_ZTSNSt3__112basic_stringIcNS_11char_traitsIcEENS_9allocatorIcEEE6__longE")
!528 = !{!529, !530, !531}
!529 = !DIDerivedType(tag: DW_TAG_member, name: "__cap_", scope: !527, file: !354, line: 698, baseType: !368, size: 64)
!530 = !DIDerivedType(tag: DW_TAG_member, name: "__size_", scope: !527, file: !354, line: 699, baseType: !368, size: 64, offset: 64)
!531 = !DIDerivedType(tag: DW_TAG_member, name: "__data_", scope: !527, file: !354, line: 700, baseType: !532, size: 64, offset: 128)
!532 = !DIDerivedType(tag: DW_TAG_typedef, name: "pointer", scope: !353, file: !354, line: 644, baseType: !375)
!533 = !DIDerivedType(tag: DW_TAG_member, name: "__s", scope: !524, file: !354, line: 740, baseType: !534, size: 192)
!534 = distinct !DICompositeType(tag: DW_TAG_structure_type, name: "__short", scope: !353, file: !354, line: 714, size: 192, elements: !535, identifier: "_ZTSNSt3__112basic_stringIcNS_11char_traitsIcEENS_9allocatorIcEEE7__shortE")
!535 = !{!536, !543}
!536 = !DIDerivedType(tag: DW_TAG_member, scope: !534, file: !354, line: 716, baseType: !537, size: 8)
!537 = distinct !DICompositeType(tag: DW_TAG_union_type, scope: !534, file: !354, line: 716, size: 8, elements: !538, identifier: "_ZTSNSt3__112basic_stringIcNS_11char_traitsIcEENS_9allocatorIcEEE7__shortUt_E")
!538 = !{!539, !541}
!539 = !DIDerivedType(tag: DW_TAG_member, name: "__size_", scope: !537, file: !354, line: 718, baseType: !540, size: 8)
!540 = !DIBasicType(name: "unsigned char", size: 8, encoding: DW_ATE_unsigned_char)
!541 = !DIDerivedType(tag: DW_TAG_member, name: "__lx", scope: !537, file: !354, line: 719, baseType: !542, size: 8)
!542 = !DIDerivedType(tag: DW_TAG_typedef, name: "value_type", scope: !353, file: !354, line: 637, baseType: !346)
!543 = !DIDerivedType(tag: DW_TAG_member, name: "__data_", scope: !534, file: !354, line: 721, baseType: !544, size: 184, offset: 8)
!544 = !DICompositeType(tag: DW_TAG_array_type, baseType: !542, size: 184, elements: !545)
!545 = !{!546}
!546 = !DISubrange(count: 23)
!547 = !DIDerivedType(tag: DW_TAG_member, name: "__r", scope: !524, file: !354, line: 741, baseType: !548, size: 192)
!548 = distinct !DICompositeType(tag: DW_TAG_structure_type, name: "__raw", scope: !353, file: !354, line: 730, size: 192, elements: !549, identifier: "_ZTSNSt3__112basic_stringIcNS_11char_traitsIcEENS_9allocatorIcEEE5__rawE")
!549 = !{!550}
!550 = !DIDerivedType(tag: DW_TAG_member, name: "__words", scope: !548, file: !354, line: 732, baseType: !551, size: 192)
!551 = !DICompositeType(tag: DW_TAG_array_type, baseType: !368, size: 192, elements: !552)
!552 = !{!553}
!553 = !DISubrange(count: 3)
!554 = !DISubprogram(name: "__compressed_pair_elem", scope: !518, file: !19, line: 2043, type: !555, isLocal: false, isDefinition: false, scopeLine: 2043, flags: DIFlagPrototyped, isOptimized: false)
!555 = !DISubroutineType(types: !556)
!556 = !{null, !557}
!557 = !DIDerivedType(tag: DW_TAG_pointer_type, baseType: !518, size: 64, flags: DIFlagArtificial | DIFlagObjectPointer)
!558 = !DISubprogram(name: "__get", linkageName: "_ZNSt3__122__compressed_pair_elemINS_12basic_stringIcNS_11char_traitsIcEENS_9allocatorIcEEE5__repELi0ELb0EE5__getEv", scope: !518, file: !19, line: 2064, type: !559, isLocal: false, isDefinition: false, scopeLine: 2064, flags: DIFlagPrototyped, isOptimized: false)
!559 = !DISubroutineType(types: !560)
!560 = !{!561, !557}
!561 = !DIDerivedType(tag: DW_TAG_typedef, name: "reference", scope: !518, file: !19, line: 2039, baseType: !562)
!562 = !DIDerivedType(tag: DW_TAG_reference_type, baseType: !521, size: 64)
!563 = !DISubprogram(name: "__get", linkageName: "_ZNKSt3__122__compressed_pair_elemINS_12basic_stringIcNS_11char_traitsIcEENS_9allocatorIcEEE5__repELi0ELb0EE5__getEv", scope: !518, file: !19, line: 2066, type: !564, isLocal: false, isDefinition: false, scopeLine: 2066, flags: DIFlagPrototyped, isOptimized: false)
!564 = !DISubroutineType(types: !565)
!565 = !{!566, !569}
!566 = !DIDerivedType(tag: DW_TAG_typedef, name: "const_reference", scope: !518, file: !19, line: 2040, baseType: !567)
!567 = !DIDerivedType(tag: DW_TAG_reference_type, baseType: !568, size: 64)
!568 = !DIDerivedType(tag: DW_TAG_const_type, baseType: !521)
!569 = !DIDerivedType(tag: DW_TAG_pointer_type, baseType: !570, size: 64, flags: DIFlagArtificial | DIFlagObjectPointer)
!570 = !DIDerivedType(tag: DW_TAG_const_type, baseType: !518)
!571 = !{!572, !50, !51}
!572 = !DITemplateTypeParameter(name: "_Tp", type: !521)
!573 = !DIDerivedType(tag: DW_TAG_inheritance, scope: !515, baseType: !574)
!574 = distinct !DICompositeType(tag: DW_TAG_structure_type, name: "__compressed_pair_elem<std::__1::allocator<char>, 1, true>", scope: !20, file: !19, line: 2073, size: 8, elements: !575, templateParams: !593, identifier: "_ZTSNSt3__122__compressed_pair_elemINS_9allocatorIcEELi1ELb1EEE")
!575 = !{!576, !577, !581, !586}
!576 = !DIDerivedType(tag: DW_TAG_inheritance, scope: !574, baseType: !381, flags: DIFlagPrivate)
!577 = !DISubprogram(name: "__compressed_pair_elem", scope: !574, file: !19, line: 2080, type: !578, isLocal: false, isDefinition: false, scopeLine: 2080, flags: DIFlagPrototyped, isOptimized: false)
!578 = !DISubroutineType(types: !579)
!579 = !{null, !580}
!580 = !DIDerivedType(tag: DW_TAG_pointer_type, baseType: !574, size: 64, flags: DIFlagArtificial | DIFlagObjectPointer)
!581 = !DISubprogram(name: "__get", linkageName: "_ZNSt3__122__compressed_pair_elemINS_9allocatorIcEELi1ELb1EE5__getEv", scope: !574, file: !19, line: 2102, type: !582, isLocal: false, isDefinition: false, scopeLine: 2102, flags: DIFlagPrototyped, isOptimized: false)
!582 = !DISubroutineType(types: !583)
!583 = !{!584, !580}
!584 = !DIDerivedType(tag: DW_TAG_typedef, name: "reference", scope: !574, file: !19, line: 2075, baseType: !585)
!585 = !DIDerivedType(tag: DW_TAG_reference_type, baseType: !381, size: 64)
!586 = !DISubprogram(name: "__get", linkageName: "_ZNKSt3__122__compressed_pair_elemINS_9allocatorIcEELi1ELb1EE5__getEv", scope: !574, file: !19, line: 2104, type: !587, isLocal: false, isDefinition: false, scopeLine: 2104, flags: DIFlagPrototyped, isOptimized: false)
!587 = !DISubroutineType(types: !588)
!588 = !{!589, !591}
!589 = !DIDerivedType(tag: DW_TAG_typedef, name: "const_reference", scope: !574, file: !19, line: 2076, baseType: !590)
!590 = !DIDerivedType(tag: DW_TAG_reference_type, baseType: !393, size: 64)
!591 = !DIDerivedType(tag: DW_TAG_pointer_type, baseType: !592, size: 64, flags: DIFlagArtificial | DIFlagObjectPointer)
!592 = !DIDerivedType(tag: DW_TAG_const_type, baseType: !574)
!593 = !{!594, !88, !89}
!594 = !DITemplateTypeParameter(name: "_Tp", type: !381)
!595 = !DISubprogram(name: "first", linkageName: "_ZNSt3__117__compressed_pairINS_12basic_stringIcNS_11char_traitsIcEENS_9allocatorIcEEE5__repES5_E5firstEv", scope: !515, file: !19, line: 2179, type: !596, isLocal: false, isDefinition: false, scopeLine: 2179, flags: DIFlagPublic | DIFlagPrototyped, isOptimized: false)
!596 = !DISubroutineType(types: !597)
!597 = !{!561, !598}
!598 = !DIDerivedType(tag: DW_TAG_pointer_type, baseType: !515, size: 64, flags: DIFlagArtificial | DIFlagObjectPointer)
!599 = !DISubprogram(name: "first", linkageName: "_ZNKSt3__117__compressed_pairINS_12basic_stringIcNS_11char_traitsIcEENS_9allocatorIcEEE5__repES5_E5firstEv", scope: !515, file: !19, line: 2184, type: !600, isLocal: false, isDefinition: false, scopeLine: 2184, flags: DIFlagPublic | DIFlagPrototyped, isOptimized: false)
!600 = !DISubroutineType(types: !601)
!601 = !{!566, !602}
!602 = !DIDerivedType(tag: DW_TAG_pointer_type, baseType: !603, size: 64, flags: DIFlagArtificial | DIFlagObjectPointer)
!603 = !DIDerivedType(tag: DW_TAG_const_type, baseType: !515)
!604 = !DISubprogram(name: "second", linkageName: "_ZNSt3__117__compressed_pairINS_12basic_stringIcNS_11char_traitsIcEENS_9allocatorIcEEE5__repES5_E6secondEv", scope: !515, file: !19, line: 2189, type: !605, isLocal: false, isDefinition: false, scopeLine: 2189, flags: DIFlagPublic | DIFlagPrototyped, isOptimized: false)
!605 = !DISubroutineType(types: !606)
!606 = !{!584, !598}
!607 = !DISubprogram(name: "second", linkageName: "_ZNKSt3__117__compressed_pairINS_12basic_stringIcNS_11char_traitsIcEENS_9allocatorIcEEE5__repES5_E6secondEv", scope: !515, file: !19, line: 2194, type: !608, isLocal: false, isDefinition: false, scopeLine: 2194, flags: DIFlagPublic | DIFlagPrototyped, isOptimized: false)
!608 = !DISubroutineType(types: !609)
!609 = !{!589, !602}
!610 = !DISubprogram(name: "swap", linkageName: "_ZNSt3__117__compressed_pairINS_12basic_stringIcNS_11char_traitsIcEENS_9allocatorIcEEE5__repES5_E4swapERS8_", scope: !515, file: !19, line: 2199, type: !611, isLocal: false, isDefinition: false, scopeLine: 2199, flags: DIFlagPublic | DIFlagPrototyped, isOptimized: false)
!611 = !DISubroutineType(types: !612)
!612 = !{null, !598, !613}
!613 = !DIDerivedType(tag: DW_TAG_reference_type, baseType: !515, size: 64)
!614 = !{!615, !616}
!615 = !DITemplateTypeParameter(name: "_T1", type: !521)
!616 = !DITemplateTypeParameter(name: "_T2", type: !381)
!617 = !DIDerivedType(tag: DW_TAG_member, name: "npos", scope: !353, file: !354, line: 748, baseType: !367, flags: DIFlagPublic | DIFlagStaticMember, extraData: i64 -1)
!618 = !DISubprogram(name: "basic_string", scope: !353, file: !354, line: 750, type: !619, isLocal: false, isDefinition: false, scopeLine: 750, flags: DIFlagPublic | DIFlagPrototyped, isOptimized: false)
!619 = !DISubroutineType(types: !620)
!620 = !{null, !621}
!621 = !DIDerivedType(tag: DW_TAG_pointer_type, baseType: !353, size: 64, flags: DIFlagArtificial | DIFlagObjectPointer)
!622 = !DISubprogram(name: "basic_string", scope: !353, file: !354, line: 753, type: !623, isLocal: false, isDefinition: false, scopeLine: 753, flags: DIFlagPublic | DIFlagExplicit | DIFlagPrototyped, isOptimized: false)
!623 = !DISubroutineType(types: !624)
!624 = !{null, !621, !625}
!625 = !DIDerivedType(tag: DW_TAG_reference_type, baseType: !626, size: 64)
!626 = !DIDerivedType(tag: DW_TAG_const_type, baseType: !627)
!627 = !DIDerivedType(tag: DW_TAG_typedef, name: "allocator_type", scope: !353, file: !354, line: 638, baseType: !381)
!628 = !DISubprogram(name: "basic_string", scope: !353, file: !354, line: 760, type: !629, isLocal: false, isDefinition: false, scopeLine: 760, flags: DIFlagPublic | DIFlagPrototyped, isOptimized: false)
!629 = !DISubroutineType(types: !630)
!630 = !{null, !621, !631}
!631 = !DIDerivedType(tag: DW_TAG_reference_type, baseType: !632, size: 64)
!632 = !DIDerivedType(tag: DW_TAG_const_type, baseType: !353)
!633 = !DISubprogram(name: "basic_string", scope: !353, file: !354, line: 761, type: !634, isLocal: false, isDefinition: false, scopeLine: 761, flags: DIFlagPublic | DIFlagPrototyped, isOptimized: false)
!634 = !DISubroutineType(types: !635)
!635 = !{null, !621, !631, !625}
!636 = !DISubprogram(name: "basic_string", scope: !353, file: !354, line: 765, type: !637, isLocal: false, isDefinition: false, scopeLine: 765, flags: DIFlagPublic | DIFlagPrototyped, isOptimized: false)
!637 = !DISubroutineType(types: !638)
!638 = !{null, !621, !639}
!639 = !DIDerivedType(tag: DW_TAG_rvalue_reference_type, baseType: !353, size: 64)
!640 = !DISubprogram(name: "basic_string", scope: !353, file: !354, line: 773, type: !641, isLocal: false, isDefinition: false, scopeLine: 773, flags: DIFlagPublic | DIFlagPrototyped, isOptimized: false)
!641 = !DISubroutineType(types: !642)
!642 = !{null, !621, !639, !625}
!643 = !DISubprogram(name: "basic_string", scope: !353, file: !354, line: 775, type: !644, isLocal: false, isDefinition: false, scopeLine: 775, flags: DIFlagPublic | DIFlagPrototyped, isOptimized: false)
!644 = !DISubroutineType(types: !645)
!645 = !{null, !621, !344}
!646 = !DISubprogram(name: "basic_string", scope: !353, file: !354, line: 777, type: !647, isLocal: false, isDefinition: false, scopeLine: 777, flags: DIFlagPublic | DIFlagPrototyped, isOptimized: false)
!647 = !DISubroutineType(types: !648)
!648 = !{null, !621, !344, !590}
!649 = !DISubprogram(name: "basic_string", scope: !353, file: !354, line: 779, type: !650, isLocal: false, isDefinition: false, scopeLine: 779, flags: DIFlagPublic | DIFlagPrototyped, isOptimized: false)
!650 = !DISubroutineType(types: !651)
!651 = !{null, !621, !344, !368}
!652 = !DISubprogram(name: "basic_string", scope: !353, file: !354, line: 781, type: !653, isLocal: false, isDefinition: false, scopeLine: 781, flags: DIFlagPublic | DIFlagPrototyped, isOptimized: false)
!653 = !DISubroutineType(types: !654)
!654 = !{null, !621, !344, !368, !590}
!655 = !DISubprogram(name: "basic_string", scope: !353, file: !354, line: 783, type: !656, isLocal: false, isDefinition: false, scopeLine: 783, flags: DIFlagPublic | DIFlagPrototyped, isOptimized: false)
!656 = !DISubroutineType(types: !657)
!657 = !{null, !621, !368, !346}
!658 = !DISubprogram(name: "basic_string", scope: !353, file: !354, line: 785, type: !659, isLocal: false, isDefinition: false, scopeLine: 785, flags: DIFlagPublic | DIFlagPrototyped, isOptimized: false)
!659 = !DISubroutineType(types: !660)
!660 = !{null, !621, !368, !346, !590}
!661 = !DISubprogram(name: "basic_string", scope: !353, file: !354, line: 786, type: !662, isLocal: false, isDefinition: false, scopeLine: 786, flags: DIFlagPublic | DIFlagPrototyped, isOptimized: false)
!662 = !DISubroutineType(types: !663)
!663 = !{null, !621, !631, !368, !368, !590}
!664 = !DISubprogram(name: "basic_string", scope: !353, file: !354, line: 789, type: !665, isLocal: false, isDefinition: false, scopeLine: 789, flags: DIFlagPublic | DIFlagPrototyped, isOptimized: false)
!665 = !DISubroutineType(types: !666)
!666 = !{null, !621, !631, !368, !590}
!667 = !DISubprogram(name: "basic_string", scope: !353, file: !354, line: 797, type: !668, isLocal: false, isDefinition: false, scopeLine: 797, flags: DIFlagPublic | DIFlagExplicit | DIFlagPrototyped, isOptimized: false)
!668 = !DISubroutineType(types: !669)
!669 = !{null, !621, !670}
!670 = !DIDerivedType(tag: DW_TAG_typedef, name: "__self_view", scope: !353, file: !354, line: 635, baseType: !671)
!671 = distinct !DICompositeType(tag: DW_TAG_class_type, name: "basic_string_view<char, std::__1::char_traits<char> >", scope: !20, file: !672, line: 187, size: 128, elements: !673, templateParams: !803, identifier: "_ZTSNSt3__117basic_string_viewIcNS_11char_traitsIcEEEE")
!672 = !DIFile(filename: "/Applications/Xcode.app/Contents/Developer/Toolchains/XcodeDefault.xctoolchain/usr/include/c++/v1/string_view", directory: "/Users/ejiang/Projects/lls/ac/llfiles")
!673 = !{!674, !677, !681, !682, !686, !691, !695, !698, !701, !707, !708, !709, !710, !716, !717, !718, !719, !722, !723, !724, !727, !731, !732, !735, !736, !739, !742, !743, !746, !750, !753, !756, !759, !762, !765, !768, !771, !774, !777, !780, !783, !784, !785, !786, !787, !788, !789, !790, !791, !792, !793, !794, !795, !796, !797, !798, !799, !800, !801, !802}
!674 = !DIDerivedType(tag: DW_TAG_member, name: "npos", scope: !671, file: !672, line: 202, baseType: !675, flags: DIFlagPublic | DIFlagStaticMember, extraData: i64 -1)
!675 = !DIDerivedType(tag: DW_TAG_const_type, baseType: !676)
!676 = !DIDerivedType(tag: DW_TAG_typedef, name: "size_type", file: !672, line: 200, baseType: !275)
!677 = !DIDerivedType(tag: DW_TAG_member, name: "__data", scope: !671, file: !672, line: 569, baseType: !678, size: 64)
!678 = !DIDerivedType(tag: DW_TAG_pointer_type, baseType: !679, size: 64)
!679 = !DIDerivedType(tag: DW_TAG_const_type, baseType: !680)
!680 = !DIDerivedType(tag: DW_TAG_typedef, name: "value_type", scope: !671, file: !672, line: 191, baseType: !346)
!681 = !DIDerivedType(tag: DW_TAG_member, name: "__size", scope: !671, file: !672, line: 570, baseType: !676, size: 64, offset: 64)
!682 = !DISubprogram(name: "basic_string_view", scope: !671, file: !672, line: 210, type: !683, isLocal: false, isDefinition: false, scopeLine: 210, flags: DIFlagPublic | DIFlagPrototyped, isOptimized: false)
!683 = !DISubroutineType(types: !684)
!684 = !{null, !685}
!685 = !DIDerivedType(tag: DW_TAG_pointer_type, baseType: !671, size: 64, flags: DIFlagArtificial | DIFlagObjectPointer)
!686 = !DISubprogram(name: "basic_string_view", scope: !671, file: !672, line: 213, type: !687, isLocal: false, isDefinition: false, scopeLine: 213, flags: DIFlagPublic | DIFlagPrototyped, isOptimized: false)
!687 = !DISubroutineType(types: !688)
!688 = !{null, !685, !689}
!689 = !DIDerivedType(tag: DW_TAG_reference_type, baseType: !690, size: 64)
!690 = !DIDerivedType(tag: DW_TAG_const_type, baseType: !671)
!691 = !DISubprogram(name: "operator=", linkageName: "_ZNSt3__117basic_string_viewIcNS_11char_traitsIcEEEaSERKS3_", scope: !671, file: !672, line: 216, type: !692, isLocal: false, isDefinition: false, scopeLine: 216, flags: DIFlagPublic | DIFlagPrototyped, isOptimized: false)
!692 = !DISubroutineType(types: !693)
!693 = !{!694, !685, !689}
!694 = !DIDerivedType(tag: DW_TAG_reference_type, baseType: !671, size: 64)
!695 = !DISubprogram(name: "basic_string_view", scope: !671, file: !672, line: 219, type: !696, isLocal: false, isDefinition: false, scopeLine: 219, flags: DIFlagPublic | DIFlagPrototyped, isOptimized: false)
!696 = !DISubroutineType(types: !697)
!697 = !{null, !685, !344, !676}
!698 = !DISubprogram(name: "basic_string_view", scope: !671, file: !672, line: 228, type: !699, isLocal: false, isDefinition: false, scopeLine: 228, flags: DIFlagPublic | DIFlagPrototyped, isOptimized: false)
!699 = !DISubroutineType(types: !700)
!700 = !{null, !685, !344}
!701 = !DISubprogram(name: "begin", linkageName: "_ZNKSt3__117basic_string_viewIcNS_11char_traitsIcEEE5beginEv", scope: !671, file: !672, line: 233, type: !702, isLocal: false, isDefinition: false, scopeLine: 233, flags: DIFlagPublic | DIFlagPrototyped, isOptimized: false)
!702 = !DISubroutineType(types: !703)
!703 = !{!704, !706}
!704 = !DIDerivedType(tag: DW_TAG_typedef, name: "const_iterator", scope: !671, file: !672, line: 196, baseType: !705)
!705 = !DIDerivedType(tag: DW_TAG_typedef, name: "const_pointer", scope: !671, file: !672, line: 193, baseType: !344)
!706 = !DIDerivedType(tag: DW_TAG_pointer_type, baseType: !690, size: 64, flags: DIFlagArtificial | DIFlagObjectPointer)
!707 = !DISubprogram(name: "end", linkageName: "_ZNKSt3__117basic_string_viewIcNS_11char_traitsIcEEE3endEv", scope: !671, file: !672, line: 236, type: !702, isLocal: false, isDefinition: false, scopeLine: 236, flags: DIFlagPublic | DIFlagPrototyped, isOptimized: false)
!708 = !DISubprogram(name: "cbegin", linkageName: "_ZNKSt3__117basic_string_viewIcNS_11char_traitsIcEEE6cbeginEv", scope: !671, file: !672, line: 239, type: !702, isLocal: false, isDefinition: false, scopeLine: 239, flags: DIFlagPublic | DIFlagPrototyped, isOptimized: false)
!709 = !DISubprogram(name: "cend", linkageName: "_ZNKSt3__117basic_string_viewIcNS_11char_traitsIcEEE4cendEv", scope: !671, file: !672, line: 242, type: !702, isLocal: false, isDefinition: false, scopeLine: 242, flags: DIFlagPublic | DIFlagPrototyped, isOptimized: false)
!710 = !DISubprogram(name: "rbegin", linkageName: "_ZNKSt3__117basic_string_viewIcNS_11char_traitsIcEEE6rbeginEv", scope: !671, file: !672, line: 245, type: !711, isLocal: false, isDefinition: false, scopeLine: 245, flags: DIFlagPublic | DIFlagPrototyped, isOptimized: false)
!711 = !DISubroutineType(types: !712)
!712 = !{!713, !706}
!713 = !DIDerivedType(tag: DW_TAG_typedef, name: "const_reverse_iterator", scope: !671, file: !672, line: 198, baseType: !714)
!714 = !DICompositeType(tag: DW_TAG_class_type, name: "reverse_iterator<const char *>", scope: !20, file: !715, line: 636, flags: DIFlagFwdDecl, identifier: "_ZTSNSt3__116reverse_iteratorIPKcEE")
!715 = !DIFile(filename: "/Applications/Xcode.app/Contents/Developer/Toolchains/XcodeDefault.xctoolchain/usr/include/c++/v1/iterator", directory: "/Users/ejiang/Projects/lls/ac/llfiles")
!716 = !DISubprogram(name: "rend", linkageName: "_ZNKSt3__117basic_string_viewIcNS_11char_traitsIcEEE4rendEv", scope: !671, file: !672, line: 248, type: !711, isLocal: false, isDefinition: false, scopeLine: 248, flags: DIFlagPublic | DIFlagPrototyped, isOptimized: false)
!717 = !DISubprogram(name: "crbegin", linkageName: "_ZNKSt3__117basic_string_viewIcNS_11char_traitsIcEEE7crbeginEv", scope: !671, file: !672, line: 251, type: !711, isLocal: false, isDefinition: false, scopeLine: 251, flags: DIFlagPublic | DIFlagPrototyped, isOptimized: false)
!718 = !DISubprogram(name: "crend", linkageName: "_ZNKSt3__117basic_string_viewIcNS_11char_traitsIcEEE5crendEv", scope: !671, file: !672, line: 254, type: !711, isLocal: false, isDefinition: false, scopeLine: 254, flags: DIFlagPublic | DIFlagPrototyped, isOptimized: false)
!719 = !DISubprogram(name: "size", linkageName: "_ZNKSt3__117basic_string_viewIcNS_11char_traitsIcEEE4sizeEv", scope: !671, file: !672, line: 258, type: !720, isLocal: false, isDefinition: false, scopeLine: 258, flags: DIFlagPublic | DIFlagPrototyped, isOptimized: false)
!720 = !DISubroutineType(types: !721)
!721 = !{!676, !706}
!722 = !DISubprogram(name: "length", linkageName: "_ZNKSt3__117basic_string_viewIcNS_11char_traitsIcEEE6lengthEv", scope: !671, file: !672, line: 261, type: !720, isLocal: false, isDefinition: false, scopeLine: 261, flags: DIFlagPublic | DIFlagPrototyped, isOptimized: false)
!723 = !DISubprogram(name: "max_size", linkageName: "_ZNKSt3__117basic_string_viewIcNS_11char_traitsIcEEE8max_sizeEv", scope: !671, file: !672, line: 264, type: !720, isLocal: false, isDefinition: false, scopeLine: 264, flags: DIFlagPublic | DIFlagPrototyped, isOptimized: false)
!724 = !DISubprogram(name: "empty", linkageName: "_ZNKSt3__117basic_string_viewIcNS_11char_traitsIcEEE5emptyEv", scope: !671, file: !672, line: 267, type: !725, isLocal: false, isDefinition: false, scopeLine: 267, flags: DIFlagPublic | DIFlagPrototyped, isOptimized: false)
!725 = !DISubroutineType(types: !726)
!726 = !{!52, !706}
!727 = !DISubprogram(name: "operator[]", linkageName: "_ZNKSt3__117basic_string_viewIcNS_11char_traitsIcEEEixEm", scope: !671, file: !672, line: 271, type: !728, isLocal: false, isDefinition: false, scopeLine: 271, flags: DIFlagPublic | DIFlagPrototyped, isOptimized: false)
!728 = !DISubroutineType(types: !729)
!729 = !{!730, !706, !676}
!730 = !DIDerivedType(tag: DW_TAG_typedef, name: "const_reference", scope: !671, file: !672, line: 195, baseType: !401)
!731 = !DISubprogram(name: "at", linkageName: "_ZNKSt3__117basic_string_viewIcNS_11char_traitsIcEEE2atEm", scope: !671, file: !672, line: 274, type: !728, isLocal: false, isDefinition: false, scopeLine: 274, flags: DIFlagPublic | DIFlagPrototyped, isOptimized: false)
!732 = !DISubprogram(name: "front", linkageName: "_ZNKSt3__117basic_string_viewIcNS_11char_traitsIcEEE5frontEv", scope: !671, file: !672, line: 282, type: !733, isLocal: false, isDefinition: false, scopeLine: 282, flags: DIFlagPublic | DIFlagPrototyped, isOptimized: false)
!733 = !DISubroutineType(types: !734)
!734 = !{!730, !706}
!735 = !DISubprogram(name: "back", linkageName: "_ZNKSt3__117basic_string_viewIcNS_11char_traitsIcEEE4backEv", scope: !671, file: !672, line: 288, type: !733, isLocal: false, isDefinition: false, scopeLine: 288, flags: DIFlagPublic | DIFlagPrototyped, isOptimized: false)
!736 = !DISubprogram(name: "data", linkageName: "_ZNKSt3__117basic_string_viewIcNS_11char_traitsIcEEE4dataEv", scope: !671, file: !672, line: 294, type: !737, isLocal: false, isDefinition: false, scopeLine: 294, flags: DIFlagPublic | DIFlagPrototyped, isOptimized: false)
!737 = !DISubroutineType(types: !738)
!738 = !{!705, !706}
!739 = !DISubprogram(name: "remove_prefix", linkageName: "_ZNSt3__117basic_string_viewIcNS_11char_traitsIcEEE13remove_prefixEm", scope: !671, file: !672, line: 298, type: !740, isLocal: false, isDefinition: false, scopeLine: 298, flags: DIFlagPublic | DIFlagPrototyped, isOptimized: false)
!740 = !DISubroutineType(types: !741)
!741 = !{null, !685, !676}
!742 = !DISubprogram(name: "remove_suffix", linkageName: "_ZNSt3__117basic_string_viewIcNS_11char_traitsIcEEE13remove_suffixEm", scope: !671, file: !672, line: 306, type: !740, isLocal: false, isDefinition: false, scopeLine: 306, flags: DIFlagPublic | DIFlagPrototyped, isOptimized: false)
!743 = !DISubprogram(name: "swap", linkageName: "_ZNSt3__117basic_string_viewIcNS_11char_traitsIcEEE4swapERS3_", scope: !671, file: !672, line: 313, type: !744, isLocal: false, isDefinition: false, scopeLine: 313, flags: DIFlagPublic | DIFlagPrototyped, isOptimized: false)
!744 = !DISubroutineType(types: !745)
!745 = !{null, !685, !694}
!746 = !DISubprogram(name: "copy", linkageName: "_ZNKSt3__117basic_string_viewIcNS_11char_traitsIcEEE4copyEPcmm", scope: !671, file: !672, line: 325, type: !747, isLocal: false, isDefinition: false, scopeLine: 325, flags: DIFlagPublic | DIFlagPrototyped, isOptimized: false)
!747 = !DISubroutineType(types: !748)
!748 = !{!749, !706, !391, !676, !676}
!749 = !DIDerivedType(tag: DW_TAG_typedef, name: "size_type", scope: !671, file: !672, line: 200, baseType: !275)
!750 = !DISubprogram(name: "substr", linkageName: "_ZNKSt3__117basic_string_viewIcNS_11char_traitsIcEEE6substrEmm", scope: !671, file: !672, line: 335, type: !751, isLocal: false, isDefinition: false, scopeLine: 335, flags: DIFlagPublic | DIFlagPrototyped, isOptimized: false)
!751 = !DISubroutineType(types: !752)
!752 = !{!671, !706, !676, !676}
!753 = !DISubprogram(name: "compare", linkageName: "_ZNKSt3__117basic_string_viewIcNS_11char_traitsIcEEE7compareES3_", scope: !671, file: !672, line: 342, type: !754, isLocal: false, isDefinition: false, scopeLine: 342, flags: DIFlagPublic | DIFlagPrototyped, isOptimized: false)
!754 = !DISubroutineType(types: !755)
!755 = !{!14, !706, !671}
!756 = !DISubprogram(name: "compare", linkageName: "_ZNKSt3__117basic_string_viewIcNS_11char_traitsIcEEE7compareEmmS3_", scope: !671, file: !672, line: 352, type: !757, isLocal: false, isDefinition: false, scopeLine: 352, flags: DIFlagPublic | DIFlagPrototyped, isOptimized: false)
!757 = !DISubroutineType(types: !758)
!758 = !{!14, !706, !676, !676, !671}
!759 = !DISubprogram(name: "compare", linkageName: "_ZNKSt3__117basic_string_viewIcNS_11char_traitsIcEEE7compareEmmS3_mm", scope: !671, file: !672, line: 358, type: !760, isLocal: false, isDefinition: false, scopeLine: 358, flags: DIFlagPublic | DIFlagPrototyped, isOptimized: false)
!760 = !DISubroutineType(types: !761)
!761 = !{!14, !706, !676, !676, !671, !676, !676}
!762 = !DISubprogram(name: "compare", linkageName: "_ZNKSt3__117basic_string_viewIcNS_11char_traitsIcEEE7compareEPKc", scope: !671, file: !672, line: 365, type: !763, isLocal: false, isDefinition: false, scopeLine: 365, flags: DIFlagPublic | DIFlagPrototyped, isOptimized: false)
!763 = !DISubroutineType(types: !764)
!764 = !{!14, !706, !344}
!765 = !DISubprogram(name: "compare", linkageName: "_ZNKSt3__117basic_string_viewIcNS_11char_traitsIcEEE7compareEmmPKc", scope: !671, file: !672, line: 371, type: !766, isLocal: false, isDefinition: false, scopeLine: 371, flags: DIFlagPublic | DIFlagPrototyped, isOptimized: false)
!766 = !DISubroutineType(types: !767)
!767 = !{!14, !706, !676, !676, !344}
!768 = !DISubprogram(name: "compare", linkageName: "_ZNKSt3__117basic_string_viewIcNS_11char_traitsIcEEE7compareEmmPKcm", scope: !671, file: !672, line: 377, type: !769, isLocal: false, isDefinition: false, scopeLine: 377, flags: DIFlagPublic | DIFlagPrototyped, isOptimized: false)
!769 = !DISubroutineType(types: !770)
!770 = !{!14, !706, !676, !676, !344, !676}
!771 = !DISubprogram(name: "find", linkageName: "_ZNKSt3__117basic_string_viewIcNS_11char_traitsIcEEE4findES3_m", scope: !671, file: !672, line: 384, type: !772, isLocal: false, isDefinition: false, scopeLine: 384, flags: DIFlagPublic | DIFlagPrototyped, isOptimized: false)
!772 = !DISubroutineType(types: !773)
!773 = !{!749, !706, !671, !676}
!774 = !DISubprogram(name: "find", linkageName: "_ZNKSt3__117basic_string_viewIcNS_11char_traitsIcEEE4findEcm", scope: !671, file: !672, line: 392, type: !775, isLocal: false, isDefinition: false, scopeLine: 392, flags: DIFlagPublic | DIFlagPrototyped, isOptimized: false)
!775 = !DISubroutineType(types: !776)
!776 = !{!749, !706, !346, !676}
!777 = !DISubprogram(name: "find", linkageName: "_ZNKSt3__117basic_string_viewIcNS_11char_traitsIcEEE4findEPKcmm", scope: !671, file: !672, line: 399, type: !778, isLocal: false, isDefinition: false, scopeLine: 399, flags: DIFlagPublic | DIFlagPrototyped, isOptimized: false)
!778 = !DISubroutineType(types: !779)
!779 = !{!749, !706, !344, !676, !676}
!780 = !DISubprogram(name: "find", linkageName: "_ZNKSt3__117basic_string_viewIcNS_11char_traitsIcEEE4findEPKcm", scope: !671, file: !672, line: 407, type: !781, isLocal: false, isDefinition: false, scopeLine: 407, flags: DIFlagPublic | DIFlagPrototyped, isOptimized: false)
!781 = !DISubroutineType(types: !782)
!782 = !{!749, !706, !344, !676}
!783 = !DISubprogram(name: "rfind", linkageName: "_ZNKSt3__117basic_string_viewIcNS_11char_traitsIcEEE5rfindES3_m", scope: !671, file: !672, line: 416, type: !772, isLocal: false, isDefinition: false, scopeLine: 416, flags: DIFlagPublic | DIFlagPrototyped, isOptimized: false)
!784 = !DISubprogram(name: "rfind", linkageName: "_ZNKSt3__117basic_string_viewIcNS_11char_traitsIcEEE5rfindEcm", scope: !671, file: !672, line: 424, type: !775, isLocal: false, isDefinition: false, scopeLine: 424, flags: DIFlagPublic | DIFlagPrototyped, isOptimized: false)
!785 = !DISubprogram(name: "rfind", linkageName: "_ZNKSt3__117basic_string_viewIcNS_11char_traitsIcEEE5rfindEPKcmm", scope: !671, file: !672, line: 431, type: !778, isLocal: false, isDefinition: false, scopeLine: 431, flags: DIFlagPublic | DIFlagPrototyped, isOptimized: false)
!786 = !DISubprogram(name: "rfind", linkageName: "_ZNKSt3__117basic_string_viewIcNS_11char_traitsIcEEE5rfindEPKcm", scope: !671, file: !672, line: 439, type: !781, isLocal: false, isDefinition: false, scopeLine: 439, flags: DIFlagPublic | DIFlagPrototyped, isOptimized: false)
!787 = !DISubprogram(name: "find_first_of", linkageName: "_ZNKSt3__117basic_string_viewIcNS_11char_traitsIcEEE13find_first_ofES3_m", scope: !671, file: !672, line: 448, type: !772, isLocal: false, isDefinition: false, scopeLine: 448, flags: DIFlagPublic | DIFlagPrototyped, isOptimized: false)
!788 = !DISubprogram(name: "find_first_of", linkageName: "_ZNKSt3__117basic_string_viewIcNS_11char_traitsIcEEE13find_first_ofEcm", scope: !671, file: !672, line: 456, type: !775, isLocal: false, isDefinition: false, scopeLine: 456, flags: DIFlagPublic | DIFlagPrototyped, isOptimized: false)
!789 = !DISubprogram(name: "find_first_of", linkageName: "_ZNKSt3__117basic_string_viewIcNS_11char_traitsIcEEE13find_first_ofEPKcmm", scope: !671, file: !672, line: 460, type: !778, isLocal: false, isDefinition: false, scopeLine: 460, flags: DIFlagPublic | DIFlagPrototyped, isOptimized: false)
!790 = !DISubprogram(name: "find_first_of", linkageName: "_ZNKSt3__117basic_string_viewIcNS_11char_traitsIcEEE13find_first_ofEPKcm", scope: !671, file: !672, line: 468, type: !781, isLocal: false, isDefinition: false, scopeLine: 468, flags: DIFlagPublic | DIFlagPrototyped, isOptimized: false)
!791 = !DISubprogram(name: "find_last_of", linkageName: "_ZNKSt3__117basic_string_viewIcNS_11char_traitsIcEEE12find_last_ofES3_m", scope: !671, file: !672, line: 477, type: !772, isLocal: false, isDefinition: false, scopeLine: 477, flags: DIFlagPublic | DIFlagPrototyped, isOptimized: false)
!792 = !DISubprogram(name: "find_last_of", linkageName: "_ZNKSt3__117basic_string_viewIcNS_11char_traitsIcEEE12find_last_ofEcm", scope: !671, file: !672, line: 485, type: !775, isLocal: false, isDefinition: false, scopeLine: 485, flags: DIFlagPublic | DIFlagPrototyped, isOptimized: false)
!793 = !DISubprogram(name: "find_last_of", linkageName: "_ZNKSt3__117basic_string_viewIcNS_11char_traitsIcEEE12find_last_ofEPKcmm", scope: !671, file: !672, line: 489, type: !778, isLocal: false, isDefinition: false, scopeLine: 489, flags: DIFlagPublic | DIFlagPrototyped, isOptimized: false)
!794 = !DISubprogram(name: "find_last_of", linkageName: "_ZNKSt3__117basic_string_viewIcNS_11char_traitsIcEEE12find_last_ofEPKcm", scope: !671, file: !672, line: 497, type: !781, isLocal: false, isDefinition: false, scopeLine: 497, flags: DIFlagPublic | DIFlagPrototyped, isOptimized: false)
!795 = !DISubprogram(name: "find_first_not_of", linkageName: "_ZNKSt3__117basic_string_viewIcNS_11char_traitsIcEEE17find_first_not_ofES3_m", scope: !671, file: !672, line: 506, type: !772, isLocal: false, isDefinition: false, scopeLine: 506, flags: DIFlagPublic | DIFlagPrototyped, isOptimized: false)
!796 = !DISubprogram(name: "find_first_not_of", linkageName: "_ZNKSt3__117basic_string_viewIcNS_11char_traitsIcEEE17find_first_not_ofEcm", scope: !671, file: !672, line: 514, type: !775, isLocal: false, isDefinition: false, scopeLine: 514, flags: DIFlagPublic | DIFlagPrototyped, isOptimized: false)
!797 = !DISubprogram(name: "find_first_not_of", linkageName: "_ZNKSt3__117basic_string_viewIcNS_11char_traitsIcEEE17find_first_not_ofEPKcmm", scope: !671, file: !672, line: 521, type: !778, isLocal: false, isDefinition: false, scopeLine: 521, flags: DIFlagPublic | DIFlagPrototyped, isOptimized: false)
!798 = !DISubprogram(name: "find_first_not_of", linkageName: "_ZNKSt3__117basic_string_viewIcNS_11char_traitsIcEEE17find_first_not_ofEPKcm", scope: !671, file: !672, line: 529, type: !781, isLocal: false, isDefinition: false, scopeLine: 529, flags: DIFlagPublic | DIFlagPrototyped, isOptimized: false)
!799 = !DISubprogram(name: "find_last_not_of", linkageName: "_ZNKSt3__117basic_string_viewIcNS_11char_traitsIcEEE16find_last_not_ofES3_m", scope: !671, file: !672, line: 538, type: !772, isLocal: false, isDefinition: false, scopeLine: 538, flags: DIFlagPublic | DIFlagPrototyped, isOptimized: false)
!800 = !DISubprogram(name: "find_last_not_of", linkageName: "_ZNKSt3__117basic_string_viewIcNS_11char_traitsIcEEE16find_last_not_ofEcm", scope: !671, file: !672, line: 546, type: !775, isLocal: false, isDefinition: false, scopeLine: 546, flags: DIFlagPublic | DIFlagPrototyped, isOptimized: false)
!801 = !DISubprogram(name: "find_last_not_of", linkageName: "_ZNKSt3__117basic_string_viewIcNS_11char_traitsIcEEE16find_last_not_ofEPKcmm", scope: !671, file: !672, line: 553, type: !778, isLocal: false, isDefinition: false, scopeLine: 553, flags: DIFlagPublic | DIFlagPrototyped, isOptimized: false)
!802 = !DISubprogram(name: "find_last_not_of", linkageName: "_ZNKSt3__117basic_string_viewIcNS_11char_traitsIcEEE16find_last_not_ofEPKcm", scope: !671, file: !672, line: 561, type: !781, isLocal: false, isDefinition: false, scopeLine: 561, flags: DIFlagPublic | DIFlagPrototyped, isOptimized: false)
!803 = !{!804, !805}
!804 = !DITemplateTypeParameter(name: "_CharT", type: !346)
!805 = !DITemplateTypeParameter(name: "_Traits", type: !806)
!806 = distinct !DICompositeType(tag: DW_TAG_structure_type, name: "char_traits<char>", scope: !20, file: !807, line: 199, size: 8, elements: !808, templateParams: !854, identifier: "_ZTSNSt3__111char_traitsIcEE")
!807 = !DIFile(filename: "/Applications/Xcode.app/Contents/Developer/Toolchains/XcodeDefault.xctoolchain/usr/include/c++/v1/__string", directory: "/Users/ejiang/Projects/lls/ac/llfiles")
!808 = !{!809, !816, !819, !820, !824, !827, !830, !834, !835, !838, !842, !845, !848, !851}
!809 = !DISubprogram(name: "assign", linkageName: "_ZNSt3__111char_traitsIcE6assignERcRKc", scope: !806, file: !807, line: 208, type: !810, isLocal: false, isDefinition: false, scopeLine: 208, flags: DIFlagPrototyped, isOptimized: false)
!810 = !DISubroutineType(types: !811)
!811 = !{null, !812, !814}
!812 = !DIDerivedType(tag: DW_TAG_reference_type, baseType: !813, size: 64)
!813 = !DIDerivedType(tag: DW_TAG_typedef, name: "char_type", scope: !806, file: !807, line: 201, baseType: !346)
!814 = !DIDerivedType(tag: DW_TAG_reference_type, baseType: !815, size: 64)
!815 = !DIDerivedType(tag: DW_TAG_const_type, baseType: !813)
!816 = !DISubprogram(name: "eq", linkageName: "_ZNSt3__111char_traitsIcE2eqEcc", scope: !806, file: !807, line: 209, type: !817, isLocal: false, isDefinition: false, scopeLine: 209, flags: DIFlagPrototyped, isOptimized: false)
!817 = !DISubroutineType(types: !818)
!818 = !{!52, !813, !813}
!819 = !DISubprogram(name: "lt", linkageName: "_ZNSt3__111char_traitsIcE2ltEcc", scope: !806, file: !807, line: 211, type: !817, isLocal: false, isDefinition: false, scopeLine: 211, flags: DIFlagPrototyped, isOptimized: false)
!820 = !DISubprogram(name: "compare", linkageName: "_ZNSt3__111char_traitsIcE7compareEPKcS3_m", scope: !806, file: !807, line: 215, type: !821, isLocal: false, isDefinition: false, scopeLine: 215, flags: DIFlagPrototyped, isOptimized: false)
!821 = !DISubroutineType(types: !822)
!822 = !{!14, !823, !823, !275}
!823 = !DIDerivedType(tag: DW_TAG_pointer_type, baseType: !815, size: 64)
!824 = !DISubprogram(name: "length", linkageName: "_ZNSt3__111char_traitsIcE6lengthEPKc", scope: !806, file: !807, line: 217, type: !825, isLocal: false, isDefinition: false, scopeLine: 217, flags: DIFlagPrototyped, isOptimized: false)
!825 = !DISubroutineType(types: !826)
!826 = !{!275, !823}
!827 = !DISubprogram(name: "find", linkageName: "_ZNSt3__111char_traitsIcE4findEPKcmRS2_", scope: !806, file: !807, line: 219, type: !828, isLocal: false, isDefinition: false, scopeLine: 219, flags: DIFlagPrototyped, isOptimized: false)
!828 = !DISubroutineType(types: !829)
!829 = !{!823, !823, !275, !814}
!830 = !DISubprogram(name: "move", linkageName: "_ZNSt3__111char_traitsIcE4moveEPcPKcm", scope: !806, file: !807, line: 220, type: !831, isLocal: false, isDefinition: false, scopeLine: 220, flags: DIFlagPrototyped, isOptimized: false)
!831 = !DISubroutineType(types: !832)
!832 = !{!833, !833, !823, !275}
!833 = !DIDerivedType(tag: DW_TAG_pointer_type, baseType: !813, size: 64)
!834 = !DISubprogram(name: "copy", linkageName: "_ZNSt3__111char_traitsIcE4copyEPcPKcm", scope: !806, file: !807, line: 222, type: !831, isLocal: false, isDefinition: false, scopeLine: 222, flags: DIFlagPrototyped, isOptimized: false)
!835 = !DISubprogram(name: "assign", linkageName: "_ZNSt3__111char_traitsIcE6assignEPcmc", scope: !806, file: !807, line: 227, type: !836, isLocal: false, isDefinition: false, scopeLine: 227, flags: DIFlagPrototyped, isOptimized: false)
!836 = !DISubroutineType(types: !837)
!837 = !{!833, !833, !275, !813}
!838 = !DISubprogram(name: "not_eof", linkageName: "_ZNSt3__111char_traitsIcE7not_eofEi", scope: !806, file: !807, line: 230, type: !839, isLocal: false, isDefinition: false, scopeLine: 230, flags: DIFlagPrototyped, isOptimized: false)
!839 = !DISubroutineType(types: !840)
!840 = !{!841, !841}
!841 = !DIDerivedType(tag: DW_TAG_typedef, name: "int_type", scope: !806, file: !807, line: 202, baseType: !14)
!842 = !DISubprogram(name: "to_char_type", linkageName: "_ZNSt3__111char_traitsIcE12to_char_typeEi", scope: !806, file: !807, line: 232, type: !843, isLocal: false, isDefinition: false, scopeLine: 232, flags: DIFlagPrototyped, isOptimized: false)
!843 = !DISubroutineType(types: !844)
!844 = !{!813, !841}
!845 = !DISubprogram(name: "to_int_type", linkageName: "_ZNSt3__111char_traitsIcE11to_int_typeEc", scope: !806, file: !807, line: 234, type: !846, isLocal: false, isDefinition: false, scopeLine: 234, flags: DIFlagPrototyped, isOptimized: false)
!846 = !DISubroutineType(types: !847)
!847 = !{!841, !813}
!848 = !DISubprogram(name: "eq_int_type", linkageName: "_ZNSt3__111char_traitsIcE11eq_int_typeEii", scope: !806, file: !807, line: 236, type: !849, isLocal: false, isDefinition: false, scopeLine: 236, flags: DIFlagPrototyped, isOptimized: false)
!849 = !DISubroutineType(types: !850)
!850 = !{!52, !841, !841}
!851 = !DISubprogram(name: "eof", linkageName: "_ZNSt3__111char_traitsIcE3eofEv", scope: !806, file: !807, line: 238, type: !852, isLocal: false, isDefinition: false, scopeLine: 238, flags: DIFlagPrototyped, isOptimized: false)
!852 = !DISubroutineType(types: !853)
!853 = !{!841}
!854 = !{!804}
!855 = !DISubprogram(name: "basic_string", scope: !353, file: !354, line: 799, type: !856, isLocal: false, isDefinition: false, scopeLine: 799, flags: DIFlagPublic | DIFlagPrototyped, isOptimized: false)
!856 = !DISubroutineType(types: !857)
!857 = !{null, !621, !670, !590}
!858 = !DISubprogram(name: "basic_string", scope: !353, file: !354, line: 808, type: !859, isLocal: false, isDefinition: false, scopeLine: 808, flags: DIFlagPublic | DIFlagPrototyped, isOptimized: false)
!859 = !DISubroutineType(types: !860)
!860 = !{null, !621, !861}
!861 = distinct !DICompositeType(tag: DW_TAG_class_type, name: "initializer_list<char>", scope: !21, file: !862, line: 59, size: 128, elements: !863, templateParams: !882, identifier: "_ZTSSt16initializer_listIcE")
!862 = !DIFile(filename: "/Applications/Xcode.app/Contents/Developer/Toolchains/XcodeDefault.xctoolchain/usr/include/c++/v1/initializer_list", directory: "/Users/ejiang/Projects/lls/ac/llfiles")
!863 = !{!864, !865, !866, !870, !873, !878, !881}
!864 = !DIDerivedType(tag: DW_TAG_member, name: "__begin_", scope: !861, file: !862, line: 61, baseType: !344, size: 64)
!865 = !DIDerivedType(tag: DW_TAG_member, name: "__size_", scope: !861, file: !862, line: 62, baseType: !275, size: 64, offset: 64)
!866 = !DISubprogram(name: "initializer_list", scope: !861, file: !862, line: 66, type: !867, isLocal: false, isDefinition: false, scopeLine: 66, flags: DIFlagPrototyped, isOptimized: false)
!867 = !DISubroutineType(types: !868)
!868 = !{null, !869, !344, !275}
!869 = !DIDerivedType(tag: DW_TAG_pointer_type, baseType: !861, size: 64, flags: DIFlagArtificial | DIFlagObjectPointer)
!870 = !DISubprogram(name: "initializer_list", scope: !861, file: !862, line: 81, type: !871, isLocal: false, isDefinition: false, scopeLine: 81, flags: DIFlagPublic | DIFlagPrototyped, isOptimized: false)
!871 = !DISubroutineType(types: !872)
!872 = !{null, !869}
!873 = !DISubprogram(name: "size", linkageName: "_ZNKSt16initializer_listIcE4sizeEv", scope: !861, file: !862, line: 85, type: !874, isLocal: false, isDefinition: false, scopeLine: 85, flags: DIFlagPublic | DIFlagPrototyped, isOptimized: false)
!874 = !DISubroutineType(types: !875)
!875 = !{!275, !876}
!876 = !DIDerivedType(tag: DW_TAG_pointer_type, baseType: !877, size: 64, flags: DIFlagArtificial | DIFlagObjectPointer)
!877 = !DIDerivedType(tag: DW_TAG_const_type, baseType: !861)
!878 = !DISubprogram(name: "begin", linkageName: "_ZNKSt16initializer_listIcE5beginEv", scope: !861, file: !862, line: 89, type: !879, isLocal: false, isDefinition: false, scopeLine: 89, flags: DIFlagPublic | DIFlagPrototyped, isOptimized: false)
!879 = !DISubroutineType(types: !880)
!880 = !{!344, !876}
!881 = !DISubprogram(name: "end", linkageName: "_ZNKSt16initializer_listIcE3endEv", scope: !861, file: !862, line: 93, type: !879, isLocal: false, isDefinition: false, scopeLine: 93, flags: DIFlagPublic | DIFlagPrototyped, isOptimized: false)
!882 = !{!883}
!883 = !DITemplateTypeParameter(name: "_Ep", type: !346)
!884 = !DISubprogram(name: "basic_string", scope: !353, file: !354, line: 810, type: !885, isLocal: false, isDefinition: false, scopeLine: 810, flags: DIFlagPublic | DIFlagPrototyped, isOptimized: false)
!885 = !DISubroutineType(types: !886)
!886 = !{null, !621, !861, !590}
!887 = !DISubprogram(name: "~basic_string", scope: !353, file: !354, line: 813, type: !619, isLocal: false, isDefinition: false, scopeLine: 813, flags: DIFlagPublic | DIFlagPrototyped, isOptimized: false)
!888 = !DISubprogram(name: "operator basic_string_view", linkageName: "_ZNKSt3__112basic_stringIcNS_11char_traitsIcEENS_9allocatorIcEEEcvNS_17basic_string_viewIcS2_EEEv", scope: !353, file: !354, line: 816, type: !889, isLocal: false, isDefinition: false, scopeLine: 816, flags: DIFlagPublic | DIFlagPrototyped, isOptimized: false)
!889 = !DISubroutineType(types: !890)
!890 = !{!670, !891}
!891 = !DIDerivedType(tag: DW_TAG_pointer_type, baseType: !632, size: 64, flags: DIFlagArtificial | DIFlagObjectPointer)
!892 = !DISubprogram(name: "operator=", linkageName: "_ZNSt3__112basic_stringIcNS_11char_traitsIcEENS_9allocatorIcEEEaSERKS5_", scope: !353, file: !354, line: 818, type: !893, isLocal: false, isDefinition: false, scopeLine: 818, flags: DIFlagPublic | DIFlagPrototyped, isOptimized: false)
!893 = !DISubroutineType(types: !894)
!894 = !{!895, !621, !631}
!895 = !DIDerivedType(tag: DW_TAG_reference_type, baseType: !353, size: 64)
!896 = !DISubprogram(name: "operator=", linkageName: "_ZNSt3__112basic_stringIcNS_11char_traitsIcEENS_9allocatorIcEEEaSEOS5_", scope: !353, file: !354, line: 827, type: !897, isLocal: false, isDefinition: false, scopeLine: 827, flags: DIFlagPublic | DIFlagPrototyped, isOptimized: false)
!897 = !DISubroutineType(types: !898)
!898 = !{!895, !621, !639}
!899 = !DISubprogram(name: "operator=", linkageName: "_ZNSt3__112basic_stringIcNS_11char_traitsIcEENS_9allocatorIcEEEaSESt16initializer_listIcE", scope: !353, file: !354, line: 830, type: !900, isLocal: false, isDefinition: false, scopeLine: 830, flags: DIFlagPublic | DIFlagPrototyped, isOptimized: false)
!900 = !DISubroutineType(types: !901)
!901 = !{!895, !621, !861}
!902 = !DISubprogram(name: "operator=", linkageName: "_ZNSt3__112basic_stringIcNS_11char_traitsIcEENS_9allocatorIcEEEaSEPKc", scope: !353, file: !354, line: 832, type: !903, isLocal: false, isDefinition: false, scopeLine: 832, flags: DIFlagPublic | DIFlagPrototyped, isOptimized: false)
!903 = !DISubroutineType(types: !904)
!904 = !{!895, !621, !905}
!905 = !DIDerivedType(tag: DW_TAG_pointer_type, baseType: !906, size: 64)
!906 = !DIDerivedType(tag: DW_TAG_const_type, baseType: !542)
!907 = !DISubprogram(name: "operator=", linkageName: "_ZNSt3__112basic_stringIcNS_11char_traitsIcEENS_9allocatorIcEEEaSEc", scope: !353, file: !354, line: 833, type: !908, isLocal: false, isDefinition: false, scopeLine: 833, flags: DIFlagPublic | DIFlagPrototyped, isOptimized: false)
!908 = !DISubroutineType(types: !909)
!909 = !{!895, !621, !542}
!910 = !DISubprogram(name: "begin", linkageName: "_ZNSt3__112basic_stringIcNS_11char_traitsIcEENS_9allocatorIcEEE5beginEv", scope: !353, file: !354, line: 850, type: !911, isLocal: false, isDefinition: false, scopeLine: 850, flags: DIFlagPublic | DIFlagPrototyped, isOptimized: false)
!911 = !DISubroutineType(types: !912)
!912 = !{!913, !621}
!913 = !DIDerivedType(tag: DW_TAG_typedef, name: "iterator", scope: !353, file: !354, line: 656, baseType: !914)
!914 = !DICompositeType(tag: DW_TAG_class_type, name: "__wrap_iter<char *>", scope: !20, file: !715, line: 1279, flags: DIFlagFwdDecl, identifier: "_ZTSNSt3__111__wrap_iterIPcEE")
!915 = !DISubprogram(name: "begin", linkageName: "_ZNKSt3__112basic_stringIcNS_11char_traitsIcEENS_9allocatorIcEEE5beginEv", scope: !353, file: !354, line: 853, type: !916, isLocal: false, isDefinition: false, scopeLine: 853, flags: DIFlagPublic | DIFlagPrototyped, isOptimized: false)
!916 = !DISubroutineType(types: !917)
!917 = !{!918, !891}
!918 = !DIDerivedType(tag: DW_TAG_typedef, name: "const_iterator", scope: !353, file: !354, line: 657, baseType: !919)
!919 = !DICompositeType(tag: DW_TAG_class_type, name: "__wrap_iter<const char *>", scope: !20, file: !715, line: 1279, flags: DIFlagFwdDecl, identifier: "_ZTSNSt3__111__wrap_iterIPKcEE")
!920 = !DISubprogram(name: "end", linkageName: "_ZNSt3__112basic_stringIcNS_11char_traitsIcEENS_9allocatorIcEEE3endEv", scope: !353, file: !354, line: 856, type: !911, isLocal: false, isDefinition: false, scopeLine: 856, flags: DIFlagPublic | DIFlagPrototyped, isOptimized: false)
!921 = !DISubprogram(name: "end", linkageName: "_ZNKSt3__112basic_stringIcNS_11char_traitsIcEENS_9allocatorIcEEE3endEv", scope: !353, file: !354, line: 859, type: !916, isLocal: false, isDefinition: false, scopeLine: 859, flags: DIFlagPublic | DIFlagPrototyped, isOptimized: false)
!922 = !DISubprogram(name: "rbegin", linkageName: "_ZNSt3__112basic_stringIcNS_11char_traitsIcEENS_9allocatorIcEEE6rbeginEv", scope: !353, file: !354, line: 863, type: !923, isLocal: false, isDefinition: false, scopeLine: 863, flags: DIFlagPublic | DIFlagPrototyped, isOptimized: false)
!923 = !DISubroutineType(types: !924)
!924 = !{!925, !621}
!925 = !DIDerivedType(tag: DW_TAG_typedef, name: "reverse_iterator", scope: !353, file: !354, line: 659, baseType: !926)
!926 = !DICompositeType(tag: DW_TAG_class_type, name: "reverse_iterator<std::__1::__wrap_iter<char *> >", scope: !20, file: !715, line: 636, flags: DIFlagFwdDecl, identifier: "_ZTSNSt3__116reverse_iteratorINS_11__wrap_iterIPcEEEE")
!927 = !DISubprogram(name: "rbegin", linkageName: "_ZNKSt3__112basic_stringIcNS_11char_traitsIcEENS_9allocatorIcEEE6rbeginEv", scope: !353, file: !354, line: 866, type: !928, isLocal: false, isDefinition: false, scopeLine: 866, flags: DIFlagPublic | DIFlagPrototyped, isOptimized: false)
!928 = !DISubroutineType(types: !929)
!929 = !{!930, !891}
!930 = !DIDerivedType(tag: DW_TAG_typedef, name: "const_reverse_iterator", scope: !353, file: !354, line: 660, baseType: !931)
!931 = !DICompositeType(tag: DW_TAG_class_type, name: "reverse_iterator<std::__1::__wrap_iter<const char *> >", scope: !20, file: !715, line: 636, flags: DIFlagFwdDecl, identifier: "_ZTSNSt3__116reverse_iteratorINS_11__wrap_iterIPKcEEEE")
!932 = !DISubprogram(name: "rend", linkageName: "_ZNSt3__112basic_stringIcNS_11char_traitsIcEENS_9allocatorIcEEE4rendEv", scope: !353, file: !354, line: 869, type: !923, isLocal: false, isDefinition: false, scopeLine: 869, flags: DIFlagPublic | DIFlagPrototyped, isOptimized: false)
!933 = !DISubprogram(name: "rend", linkageName: "_ZNKSt3__112basic_stringIcNS_11char_traitsIcEENS_9allocatorIcEEE4rendEv", scope: !353, file: !354, line: 872, type: !928, isLocal: false, isDefinition: false, scopeLine: 872, flags: DIFlagPublic | DIFlagPrototyped, isOptimized: false)
!934 = !DISubprogram(name: "cbegin", linkageName: "_ZNKSt3__112basic_stringIcNS_11char_traitsIcEENS_9allocatorIcEEE6cbeginEv", scope: !353, file: !354, line: 876, type: !916, isLocal: false, isDefinition: false, scopeLine: 876, flags: DIFlagPublic | DIFlagPrototyped, isOptimized: false)
!935 = !DISubprogram(name: "cend", linkageName: "_ZNKSt3__112basic_stringIcNS_11char_traitsIcEENS_9allocatorIcEEE4cendEv", scope: !353, file: !354, line: 879, type: !916, isLocal: false, isDefinition: false, scopeLine: 879, flags: DIFlagPublic | DIFlagPrototyped, isOptimized: false)
!936 = !DISubprogram(name: "crbegin", linkageName: "_ZNKSt3__112basic_stringIcNS_11char_traitsIcEENS_9allocatorIcEEE7crbeginEv", scope: !353, file: !354, line: 882, type: !928, isLocal: false, isDefinition: false, scopeLine: 882, flags: DIFlagPublic | DIFlagPrototyped, isOptimized: false)
!937 = !DISubprogram(name: "crend", linkageName: "_ZNKSt3__112basic_stringIcNS_11char_traitsIcEENS_9allocatorIcEEE5crendEv", scope: !353, file: !354, line: 885, type: !928, isLocal: false, isDefinition: false, scopeLine: 885, flags: DIFlagPublic | DIFlagPrototyped, isOptimized: false)
!938 = !DISubprogram(name: "size", linkageName: "_ZNKSt3__112basic_stringIcNS_11char_traitsIcEENS_9allocatorIcEEE4sizeEv", scope: !353, file: !354, line: 888, type: !939, isLocal: false, isDefinition: false, scopeLine: 888, flags: DIFlagPublic | DIFlagPrototyped, isOptimized: false)
!939 = !DISubroutineType(types: !940)
!940 = !{!368, !891}
!941 = !DISubprogram(name: "length", linkageName: "_ZNKSt3__112basic_stringIcNS_11char_traitsIcEENS_9allocatorIcEEE6lengthEv", scope: !353, file: !354, line: 890, type: !939, isLocal: false, isDefinition: false, scopeLine: 890, flags: DIFlagPublic | DIFlagPrototyped, isOptimized: false)
!942 = !DISubprogram(name: "max_size", linkageName: "_ZNKSt3__112basic_stringIcNS_11char_traitsIcEENS_9allocatorIcEEE8max_sizeEv", scope: !353, file: !354, line: 891, type: !939, isLocal: false, isDefinition: false, scopeLine: 891, flags: DIFlagPublic | DIFlagPrototyped, isOptimized: false)
!943 = !DISubprogram(name: "capacity", linkageName: "_ZNKSt3__112basic_stringIcNS_11char_traitsIcEENS_9allocatorIcEEE8capacityEv", scope: !353, file: !354, line: 892, type: !939, isLocal: false, isDefinition: false, scopeLine: 892, flags: DIFlagPublic | DIFlagPrototyped, isOptimized: false)
!944 = !DISubprogram(name: "resize", linkageName: "_ZNSt3__112basic_stringIcNS_11char_traitsIcEENS_9allocatorIcEEE6resizeEmc", scope: !353, file: !354, line: 896, type: !945, isLocal: false, isDefinition: false, scopeLine: 896, flags: DIFlagPublic | DIFlagPrototyped, isOptimized: false)
!945 = !DISubroutineType(types: !946)
!946 = !{null, !621, !368, !542}
!947 = !DISubprogram(name: "resize", linkageName: "_ZNSt3__112basic_stringIcNS_11char_traitsIcEENS_9allocatorIcEEE6resizeEm", scope: !353, file: !354, line: 897, type: !948, isLocal: false, isDefinition: false, scopeLine: 897, flags: DIFlagPublic | DIFlagPrototyped, isOptimized: false)
!948 = !DISubroutineType(types: !949)
!949 = !{null, !621, !368}
!950 = !DISubprogram(name: "reserve", linkageName: "_ZNSt3__112basic_stringIcNS_11char_traitsIcEENS_9allocatorIcEEE7reserveEm", scope: !353, file: !354, line: 899, type: !948, isLocal: false, isDefinition: false, scopeLine: 899, flags: DIFlagPublic | DIFlagPrototyped, isOptimized: false)
!951 = !DISubprogram(name: "shrink_to_fit", linkageName: "_ZNSt3__112basic_stringIcNS_11char_traitsIcEENS_9allocatorIcEEE13shrink_to_fitEv", scope: !353, file: !354, line: 901, type: !619, isLocal: false, isDefinition: false, scopeLine: 901, flags: DIFlagPublic | DIFlagPrototyped, isOptimized: false)
!952 = !DISubprogram(name: "clear", linkageName: "_ZNSt3__112basic_stringIcNS_11char_traitsIcEENS_9allocatorIcEEE5clearEv", scope: !353, file: !354, line: 903, type: !619, isLocal: false, isDefinition: false, scopeLine: 903, flags: DIFlagPublic | DIFlagPrototyped, isOptimized: false)
!953 = !DISubprogram(name: "empty", linkageName: "_ZNKSt3__112basic_stringIcNS_11char_traitsIcEENS_9allocatorIcEEE5emptyEv", scope: !353, file: !354, line: 904, type: !954, isLocal: false, isDefinition: false, scopeLine: 904, flags: DIFlagPublic | DIFlagPrototyped, isOptimized: false)
!954 = !DISubroutineType(types: !955)
!955 = !{!52, !891}
!956 = !DISubprogram(name: "operator[]", linkageName: "_ZNKSt3__112basic_stringIcNS_11char_traitsIcEENS_9allocatorIcEEEixEm", scope: !353, file: !354, line: 906, type: !957, isLocal: false, isDefinition: false, scopeLine: 906, flags: DIFlagPublic | DIFlagPrototyped, isOptimized: false)
!957 = !DISubroutineType(types: !958)
!958 = !{!959, !891, !368}
!959 = !DIDerivedType(tag: DW_TAG_typedef, name: "const_reference", scope: !353, file: !354, line: 643, baseType: !960)
!960 = !DIDerivedType(tag: DW_TAG_reference_type, baseType: !906, size: 64)
!961 = !DISubprogram(name: "operator[]", linkageName: "_ZNSt3__112basic_stringIcNS_11char_traitsIcEENS_9allocatorIcEEEixEm", scope: !353, file: !354, line: 907, type: !962, isLocal: false, isDefinition: false, scopeLine: 907, flags: DIFlagPublic | DIFlagPrototyped, isOptimized: false)
!962 = !DISubroutineType(types: !963)
!963 = !{!964, !621, !368}
!964 = !DIDerivedType(tag: DW_TAG_typedef, name: "reference", scope: !353, file: !354, line: 642, baseType: !965)
!965 = !DIDerivedType(tag: DW_TAG_reference_type, baseType: !542, size: 64)
!966 = !DISubprogram(name: "at", linkageName: "_ZNKSt3__112basic_stringIcNS_11char_traitsIcEENS_9allocatorIcEEE2atEm", scope: !353, file: !354, line: 909, type: !957, isLocal: false, isDefinition: false, scopeLine: 909, flags: DIFlagPublic | DIFlagPrototyped, isOptimized: false)
!967 = !DISubprogram(name: "at", linkageName: "_ZNSt3__112basic_stringIcNS_11char_traitsIcEENS_9allocatorIcEEE2atEm", scope: !353, file: !354, line: 910, type: !962, isLocal: false, isDefinition: false, scopeLine: 910, flags: DIFlagPublic | DIFlagPrototyped, isOptimized: false)
!968 = !DISubprogram(name: "operator+=", linkageName: "_ZNSt3__112basic_stringIcNS_11char_traitsIcEENS_9allocatorIcEEEpLERKS5_", scope: !353, file: !354, line: 912, type: !893, isLocal: false, isDefinition: false, scopeLine: 912, flags: DIFlagPublic | DIFlagPrototyped, isOptimized: false)
!969 = !DISubprogram(name: "operator+=", linkageName: "_ZNSt3__112basic_stringIcNS_11char_traitsIcEENS_9allocatorIcEEEpLENS_17basic_string_viewIcS2_EE", scope: !353, file: !354, line: 913, type: !970, isLocal: false, isDefinition: false, scopeLine: 913, flags: DIFlagPublic | DIFlagPrototyped, isOptimized: false)
!970 = !DISubroutineType(types: !971)
!971 = !{!895, !621, !670}
!972 = !DISubprogram(name: "operator+=", linkageName: "_ZNSt3__112basic_stringIcNS_11char_traitsIcEENS_9allocatorIcEEEpLEPKc", scope: !353, file: !354, line: 914, type: !903, isLocal: false, isDefinition: false, scopeLine: 914, flags: DIFlagPublic | DIFlagPrototyped, isOptimized: false)
!973 = !DISubprogram(name: "operator+=", linkageName: "_ZNSt3__112basic_stringIcNS_11char_traitsIcEENS_9allocatorIcEEEpLEc", scope: !353, file: !354, line: 915, type: !908, isLocal: false, isDefinition: false, scopeLine: 915, flags: DIFlagPublic | DIFlagPrototyped, isOptimized: false)
!974 = !DISubprogram(name: "operator+=", linkageName: "_ZNSt3__112basic_stringIcNS_11char_traitsIcEENS_9allocatorIcEEEpLESt16initializer_listIcE", scope: !353, file: !354, line: 917, type: !900, isLocal: false, isDefinition: false, scopeLine: 917, flags: DIFlagPublic | DIFlagPrototyped, isOptimized: false)
!975 = !DISubprogram(name: "append", linkageName: "_ZNSt3__112basic_stringIcNS_11char_traitsIcEENS_9allocatorIcEEE6appendERKS5_", scope: !353, file: !354, line: 921, type: !893, isLocal: false, isDefinition: false, scopeLine: 921, flags: DIFlagPublic | DIFlagPrototyped, isOptimized: false)
!976 = !DISubprogram(name: "append", linkageName: "_ZNSt3__112basic_stringIcNS_11char_traitsIcEENS_9allocatorIcEEE6appendENS_17basic_string_viewIcS2_EE", scope: !353, file: !354, line: 923, type: !970, isLocal: false, isDefinition: false, scopeLine: 923, flags: DIFlagPublic | DIFlagPrototyped, isOptimized: false)
!977 = !DISubprogram(name: "append", linkageName: "_ZNSt3__112basic_stringIcNS_11char_traitsIcEENS_9allocatorIcEEE6appendERKS5_mm", scope: !353, file: !354, line: 924, type: !978, isLocal: false, isDefinition: false, scopeLine: 924, flags: DIFlagPublic | DIFlagPrototyped, isOptimized: false)
!978 = !DISubroutineType(types: !979)
!979 = !{!895, !621, !631, !368, !368}
!980 = !DISubprogram(name: "append", linkageName: "_ZNSt3__112basic_stringIcNS_11char_traitsIcEENS_9allocatorIcEEE6appendEPKcm", scope: !353, file: !354, line: 933, type: !981, isLocal: false, isDefinition: false, scopeLine: 933, flags: DIFlagPublic | DIFlagPrototyped, isOptimized: false)
!981 = !DISubroutineType(types: !982)
!982 = !{!895, !621, !905, !368}
!983 = !DISubprogram(name: "append", linkageName: "_ZNSt3__112basic_stringIcNS_11char_traitsIcEENS_9allocatorIcEEE6appendEPKc", scope: !353, file: !354, line: 934, type: !903, isLocal: false, isDefinition: false, scopeLine: 934, flags: DIFlagPublic | DIFlagPrototyped, isOptimized: false)
!984 = !DISubprogram(name: "append", linkageName: "_ZNSt3__112basic_stringIcNS_11char_traitsIcEENS_9allocatorIcEEE6appendEmc", scope: !353, file: !354, line: 935, type: !985, isLocal: false, isDefinition: false, scopeLine: 935, flags: DIFlagPublic | DIFlagPrototyped, isOptimized: false)
!985 = !DISubroutineType(types: !986)
!986 = !{!895, !621, !368, !542}
!987 = !DISubprogram(name: "append", linkageName: "_ZNSt3__112basic_stringIcNS_11char_traitsIcEENS_9allocatorIcEEE6appendESt16initializer_listIcE", scope: !353, file: !354, line: 968, type: !900, isLocal: false, isDefinition: false, scopeLine: 968, flags: DIFlagPublic | DIFlagPrototyped, isOptimized: false)
!988 = !DISubprogram(name: "push_back", linkageName: "_ZNSt3__112basic_stringIcNS_11char_traitsIcEENS_9allocatorIcEEE9push_backEc", scope: !353, file: !354, line: 971, type: !989, isLocal: false, isDefinition: false, scopeLine: 971, flags: DIFlagPublic | DIFlagPrototyped, isOptimized: false)
!989 = !DISubroutineType(types: !990)
!990 = !{null, !621, !542}
!991 = !DISubprogram(name: "pop_back", linkageName: "_ZNSt3__112basic_stringIcNS_11char_traitsIcEENS_9allocatorIcEEE8pop_backEv", scope: !353, file: !354, line: 973, type: !619, isLocal: false, isDefinition: false, scopeLine: 973, flags: DIFlagPublic | DIFlagPrototyped, isOptimized: false)
!992 = !DISubprogram(name: "front", linkageName: "_ZNSt3__112basic_stringIcNS_11char_traitsIcEENS_9allocatorIcEEE5frontEv", scope: !353, file: !354, line: 974, type: !993, isLocal: false, isDefinition: false, scopeLine: 974, flags: DIFlagPublic | DIFlagPrototyped, isOptimized: false)
!993 = !DISubroutineType(types: !994)
!994 = !{!964, !621}
!995 = !DISubprogram(name: "front", linkageName: "_ZNKSt3__112basic_stringIcNS_11char_traitsIcEENS_9allocatorIcEEE5frontEv", scope: !353, file: !354, line: 975, type: !996, isLocal: false, isDefinition: false, scopeLine: 975, flags: DIFlagPublic | DIFlagPrototyped, isOptimized: false)
!996 = !DISubroutineType(types: !997)
!997 = !{!959, !891}
!998 = !DISubprogram(name: "back", linkageName: "_ZNSt3__112basic_stringIcNS_11char_traitsIcEENS_9allocatorIcEEE4backEv", scope: !353, file: !354, line: 976, type: !993, isLocal: false, isDefinition: false, scopeLine: 976, flags: DIFlagPublic | DIFlagPrototyped, isOptimized: false)
!999 = !DISubprogram(name: "back", linkageName: "_ZNKSt3__112basic_stringIcNS_11char_traitsIcEENS_9allocatorIcEEE4backEv", scope: !353, file: !354, line: 977, type: !996, isLocal: false, isDefinition: false, scopeLine: 977, flags: DIFlagPublic | DIFlagPrototyped, isOptimized: false)
!1000 = !DISubprogram(name: "assign", linkageName: "_ZNSt3__112basic_stringIcNS_11char_traitsIcEENS_9allocatorIcEEE6assignENS_17basic_string_viewIcS2_EE", scope: !353, file: !354, line: 980, type: !970, isLocal: false, isDefinition: false, scopeLine: 980, flags: DIFlagPublic | DIFlagPrototyped, isOptimized: false)
!1001 = !DISubprogram(name: "assign", linkageName: "_ZNSt3__112basic_stringIcNS_11char_traitsIcEENS_9allocatorIcEEE6assignERKS5_", scope: !353, file: !354, line: 982, type: !893, isLocal: false, isDefinition: false, scopeLine: 982, flags: DIFlagPublic | DIFlagPrototyped, isOptimized: false)
!1002 = !DISubprogram(name: "assign", linkageName: "_ZNSt3__112basic_stringIcNS_11char_traitsIcEENS_9allocatorIcEEE6assignEOS5_", scope: !353, file: !354, line: 985, type: !897, isLocal: false, isDefinition: false, scopeLine: 985, flags: DIFlagPublic | DIFlagPrototyped, isOptimized: false)
!1003 = !DISubprogram(name: "assign", linkageName: "_ZNSt3__112basic_stringIcNS_11char_traitsIcEENS_9allocatorIcEEE6assignERKS5_mm", scope: !353, file: !354, line: 989, type: !978, isLocal: false, isDefinition: false, scopeLine: 989, flags: DIFlagPublic | DIFlagPrototyped, isOptimized: false)
!1004 = !DISubprogram(name: "assign", linkageName: "_ZNSt3__112basic_stringIcNS_11char_traitsIcEENS_9allocatorIcEEE6assignEPKcm", scope: !353, file: !354, line: 998, type: !981, isLocal: false, isDefinition: false, scopeLine: 998, flags: DIFlagPublic | DIFlagPrototyped, isOptimized: false)
!1005 = !DISubprogram(name: "assign", linkageName: "_ZNSt3__112basic_stringIcNS_11char_traitsIcEENS_9allocatorIcEEE6assignEPKc", scope: !353, file: !354, line: 999, type: !903, isLocal: false, isDefinition: false, scopeLine: 999, flags: DIFlagPublic | DIFlagPrototyped, isOptimized: false)
!1006 = !DISubprogram(name: "assign", linkageName: "_ZNSt3__112basic_stringIcNS_11char_traitsIcEENS_9allocatorIcEEE6assignEmc", scope: !353, file: !354, line: 1000, type: !985, isLocal: false, isDefinition: false, scopeLine: 1000, flags: DIFlagPublic | DIFlagPrototyped, isOptimized: false)
!1007 = !DISubprogram(name: "assign", linkageName: "_ZNSt3__112basic_stringIcNS_11char_traitsIcEENS_9allocatorIcEEE6assignESt16initializer_listIcE", scope: !353, file: !354, line: 1021, type: !900, isLocal: false, isDefinition: false, scopeLine: 1021, flags: DIFlagPublic | DIFlagPrototyped, isOptimized: false)
!1008 = !DISubprogram(name: "insert", linkageName: "_ZNSt3__112basic_stringIcNS_11char_traitsIcEENS_9allocatorIcEEE6insertEmRKS5_", scope: !353, file: !354, line: 1025, type: !1009, isLocal: false, isDefinition: false, scopeLine: 1025, flags: DIFlagPublic | DIFlagPrototyped, isOptimized: false)
!1009 = !DISubroutineType(types: !1010)
!1010 = !{!895, !621, !368, !631}
!1011 = !DISubprogram(name: "insert", linkageName: "_ZNSt3__112basic_stringIcNS_11char_traitsIcEENS_9allocatorIcEEE6insertEmNS_17basic_string_viewIcS2_EE", scope: !353, file: !354, line: 1027, type: !1012, isLocal: false, isDefinition: false, scopeLine: 1027, flags: DIFlagPublic | DIFlagPrototyped, isOptimized: false)
!1012 = !DISubroutineType(types: !1013)
!1013 = !{!895, !621, !368, !670}
!1014 = !DISubprogram(name: "insert", linkageName: "_ZNSt3__112basic_stringIcNS_11char_traitsIcEENS_9allocatorIcEEE6insertEmRKS5_mm", scope: !353, file: !354, line: 1036, type: !1015, isLocal: false, isDefinition: false, scopeLine: 1036, flags: DIFlagPublic | DIFlagPrototyped, isOptimized: false)
!1015 = !DISubroutineType(types: !1016)
!1016 = !{!895, !621, !368, !631, !368, !368}
!1017 = !DISubprogram(name: "insert", linkageName: "_ZNSt3__112basic_stringIcNS_11char_traitsIcEENS_9allocatorIcEEE6insertEmPKcm", scope: !353, file: !354, line: 1037, type: !1018, isLocal: false, isDefinition: false, scopeLine: 1037, flags: DIFlagPublic | DIFlagPrototyped, isOptimized: false)
!1018 = !DISubroutineType(types: !1019)
!1019 = !{!895, !621, !368, !905, !368}
!1020 = !DISubprogram(name: "insert", linkageName: "_ZNSt3__112basic_stringIcNS_11char_traitsIcEENS_9allocatorIcEEE6insertEmPKc", scope: !353, file: !354, line: 1038, type: !1021, isLocal: false, isDefinition: false, scopeLine: 1038, flags: DIFlagPublic | DIFlagPrototyped, isOptimized: false)
!1021 = !DISubroutineType(types: !1022)
!1022 = !{!895, !621, !368, !905}
!1023 = !DISubprogram(name: "insert", linkageName: "_ZNSt3__112basic_stringIcNS_11char_traitsIcEENS_9allocatorIcEEE6insertEmmc", scope: !353, file: !354, line: 1039, type: !1024, isLocal: false, isDefinition: false, scopeLine: 1039, flags: DIFlagPublic | DIFlagPrototyped, isOptimized: false)
!1024 = !DISubroutineType(types: !1025)
!1025 = !{!895, !621, !368, !368, !542}
!1026 = !DISubprogram(name: "insert", linkageName: "_ZNSt3__112basic_stringIcNS_11char_traitsIcEENS_9allocatorIcEEE6insertENS_11__wrap_iterIPKcEEc", scope: !353, file: !354, line: 1040, type: !1027, isLocal: false, isDefinition: false, scopeLine: 1040, flags: DIFlagPublic | DIFlagPrototyped, isOptimized: false)
!1027 = !DISubroutineType(types: !1028)
!1028 = !{!913, !621, !918, !542}
!1029 = !DISubprogram(name: "insert", linkageName: "_ZNSt3__112basic_stringIcNS_11char_traitsIcEENS_9allocatorIcEEE6insertENS_11__wrap_iterIPKcEEmc", scope: !353, file: !354, line: 1042, type: !1030, isLocal: false, isDefinition: false, scopeLine: 1042, flags: DIFlagPublic | DIFlagPrototyped, isOptimized: false)
!1030 = !DISubroutineType(types: !1031)
!1031 = !{!913, !621, !918, !368, !542}
!1032 = !DISubprogram(name: "insert", linkageName: "_ZNSt3__112basic_stringIcNS_11char_traitsIcEENS_9allocatorIcEEE6insertENS_11__wrap_iterIPKcEESt16initializer_listIcE", scope: !353, file: !354, line: 1063, type: !1033, isLocal: false, isDefinition: false, scopeLine: 1063, flags: DIFlagPublic | DIFlagPrototyped, isOptimized: false)
!1033 = !DISubroutineType(types: !1034)
!1034 = !{!913, !621, !918, !861}
!1035 = !DISubprogram(name: "erase", linkageName: "_ZNSt3__112basic_stringIcNS_11char_traitsIcEENS_9allocatorIcEEE5eraseEmm", scope: !353, file: !354, line: 1067, type: !1036, isLocal: false, isDefinition: false, scopeLine: 1067, flags: DIFlagPublic | DIFlagPrototyped, isOptimized: false)
!1036 = !DISubroutineType(types: !1037)
!1037 = !{!895, !621, !368, !368}
!1038 = !DISubprogram(name: "erase", linkageName: "_ZNSt3__112basic_stringIcNS_11char_traitsIcEENS_9allocatorIcEEE5eraseENS_11__wrap_iterIPKcEE", scope: !353, file: !354, line: 1069, type: !1039, isLocal: false, isDefinition: false, scopeLine: 1069, flags: DIFlagPublic | DIFlagPrototyped, isOptimized: false)
!1039 = !DISubroutineType(types: !1040)
!1040 = !{!913, !621, !918}
!1041 = !DISubprogram(name: "erase", linkageName: "_ZNSt3__112basic_stringIcNS_11char_traitsIcEENS_9allocatorIcEEE5eraseENS_11__wrap_iterIPKcEES9_", scope: !353, file: !354, line: 1071, type: !1042, isLocal: false, isDefinition: false, scopeLine: 1071, flags: DIFlagPublic | DIFlagPrototyped, isOptimized: false)
!1042 = !DISubroutineType(types: !1043)
!1043 = !{!913, !621, !918, !918}
!1044 = !DISubprogram(name: "replace", linkageName: "_ZNSt3__112basic_stringIcNS_11char_traitsIcEENS_9allocatorIcEEE7replaceEmmRKS5_", scope: !353, file: !354, line: 1074, type: !1045, isLocal: false, isDefinition: false, scopeLine: 1074, flags: DIFlagPublic | DIFlagPrototyped, isOptimized: false)
!1045 = !DISubroutineType(types: !1046)
!1046 = !{!895, !621, !368, !368, !631}
!1047 = !DISubprogram(name: "replace", linkageName: "_ZNSt3__112basic_stringIcNS_11char_traitsIcEENS_9allocatorIcEEE7replaceEmmNS_17basic_string_viewIcS2_EE", scope: !353, file: !354, line: 1076, type: !1048, isLocal: false, isDefinition: false, scopeLine: 1076, flags: DIFlagPublic | DIFlagPrototyped, isOptimized: false)
!1048 = !DISubroutineType(types: !1049)
!1049 = !{!895, !621, !368, !368, !670}
!1050 = !DISubprogram(name: "replace", linkageName: "_ZNSt3__112basic_stringIcNS_11char_traitsIcEENS_9allocatorIcEEE7replaceEmmRKS5_mm", scope: !353, file: !354, line: 1077, type: !1051, isLocal: false, isDefinition: false, scopeLine: 1077, flags: DIFlagPublic | DIFlagPrototyped, isOptimized: false)
!1051 = !DISubroutineType(types: !1052)
!1052 = !{!895, !621, !368, !368, !631, !368, !368}
!1053 = !DISubprogram(name: "replace", linkageName: "_ZNSt3__112basic_stringIcNS_11char_traitsIcEENS_9allocatorIcEEE7replaceEmmPKcm", scope: !353, file: !354, line: 1086, type: !1054, isLocal: false, isDefinition: false, scopeLine: 1086, flags: DIFlagPublic | DIFlagPrototyped, isOptimized: false)
!1054 = !DISubroutineType(types: !1055)
!1055 = !{!895, !621, !368, !368, !905, !368}
!1056 = !DISubprogram(name: "replace", linkageName: "_ZNSt3__112basic_stringIcNS_11char_traitsIcEENS_9allocatorIcEEE7replaceEmmPKc", scope: !353, file: !354, line: 1087, type: !1057, isLocal: false, isDefinition: false, scopeLine: 1087, flags: DIFlagPublic | DIFlagPrototyped, isOptimized: false)
!1057 = !DISubroutineType(types: !1058)
!1058 = !{!895, !621, !368, !368, !905}
!1059 = !DISubprogram(name: "replace", linkageName: "_ZNSt3__112basic_stringIcNS_11char_traitsIcEENS_9allocatorIcEEE7replaceEmmmc", scope: !353, file: !354, line: 1088, type: !1060, isLocal: false, isDefinition: false, scopeLine: 1088, flags: DIFlagPublic | DIFlagPrototyped, isOptimized: false)
!1060 = !DISubroutineType(types: !1061)
!1061 = !{!895, !621, !368, !368, !368, !542}
!1062 = !DISubprogram(name: "replace", linkageName: "_ZNSt3__112basic_stringIcNS_11char_traitsIcEENS_9allocatorIcEEE7replaceENS_11__wrap_iterIPKcEES9_RKS5_", scope: !353, file: !354, line: 1090, type: !1063, isLocal: false, isDefinition: false, scopeLine: 1090, flags: DIFlagPublic | DIFlagPrototyped, isOptimized: false)
!1063 = !DISubroutineType(types: !1064)
!1064 = !{!895, !621, !918, !918, !631}
!1065 = !DISubprogram(name: "replace", linkageName: "_ZNSt3__112basic_stringIcNS_11char_traitsIcEENS_9allocatorIcEEE7replaceENS_11__wrap_iterIPKcEES9_NS_17basic_string_viewIcS2_EE", scope: !353, file: !354, line: 1092, type: !1066, isLocal: false, isDefinition: false, scopeLine: 1092, flags: DIFlagPublic | DIFlagPrototyped, isOptimized: false)
!1066 = !DISubroutineType(types: !1067)
!1067 = !{!895, !621, !918, !918, !670}
!1068 = !DISubprogram(name: "replace", linkageName: "_ZNSt3__112basic_stringIcNS_11char_traitsIcEENS_9allocatorIcEEE7replaceENS_11__wrap_iterIPKcEES9_S8_m", scope: !353, file: !354, line: 1094, type: !1069, isLocal: false, isDefinition: false, scopeLine: 1094, flags: DIFlagPublic | DIFlagPrototyped, isOptimized: false)
!1069 = !DISubroutineType(types: !1070)
!1070 = !{!895, !621, !918, !918, !905, !368}
!1071 = !DISubprogram(name: "replace", linkageName: "_ZNSt3__112basic_stringIcNS_11char_traitsIcEENS_9allocatorIcEEE7replaceENS_11__wrap_iterIPKcEES9_S8_", scope: !353, file: !354, line: 1096, type: !1072, isLocal: false, isDefinition: false, scopeLine: 1096, flags: DIFlagPublic | DIFlagPrototyped, isOptimized: false)
!1072 = !DISubroutineType(types: !1073)
!1073 = !{!895, !621, !918, !918, !905}
!1074 = !DISubprogram(name: "replace", linkageName: "_ZNSt3__112basic_stringIcNS_11char_traitsIcEENS_9allocatorIcEEE7replaceENS_11__wrap_iterIPKcEES9_mc", scope: !353, file: !354, line: 1098, type: !1075, isLocal: false, isDefinition: false, scopeLine: 1098, flags: DIFlagPublic | DIFlagPrototyped, isOptimized: false)
!1075 = !DISubroutineType(types: !1076)
!1076 = !{!895, !621, !918, !918, !368, !542}
!1077 = !DISubprogram(name: "replace", linkageName: "_ZNSt3__112basic_stringIcNS_11char_traitsIcEENS_9allocatorIcEEE7replaceENS_11__wrap_iterIPKcEES9_St16initializer_listIcE", scope: !353, file: !354, line: 1109, type: !1078, isLocal: false, isDefinition: false, scopeLine: 1109, flags: DIFlagPublic | DIFlagPrototyped, isOptimized: false)
!1078 = !DISubroutineType(types: !1079)
!1079 = !{!895, !621, !918, !918, !861}
!1080 = !DISubprogram(name: "copy", linkageName: "_ZNKSt3__112basic_stringIcNS_11char_traitsIcEENS_9allocatorIcEEE4copyEPcmm", scope: !353, file: !354, line: 1113, type: !1081, isLocal: false, isDefinition: false, scopeLine: 1113, flags: DIFlagPublic | DIFlagPrototyped, isOptimized: false)
!1081 = !DISubroutineType(types: !1082)
!1082 = !{!368, !891, !1083, !368, !368}
!1083 = !DIDerivedType(tag: DW_TAG_pointer_type, baseType: !542, size: 64)
!1084 = !DISubprogram(name: "substr", linkageName: "_ZNKSt3__112basic_stringIcNS_11char_traitsIcEENS_9allocatorIcEEE6substrEmm", scope: !353, file: !354, line: 1115, type: !1085, isLocal: false, isDefinition: false, scopeLine: 1115, flags: DIFlagPublic | DIFlagPrototyped, isOptimized: false)
!1085 = !DISubroutineType(types: !1086)
!1086 = !{!353, !891, !368, !368}
!1087 = !DISubprogram(name: "swap", linkageName: "_ZNSt3__112basic_stringIcNS_11char_traitsIcEENS_9allocatorIcEEE4swapERS5_", scope: !353, file: !354, line: 1118, type: !1088, isLocal: false, isDefinition: false, scopeLine: 1118, flags: DIFlagPublic | DIFlagPrototyped, isOptimized: false)
!1088 = !DISubroutineType(types: !1089)
!1089 = !{null, !621, !895}
!1090 = !DISubprogram(name: "c_str", linkageName: "_ZNKSt3__112basic_stringIcNS_11char_traitsIcEENS_9allocatorIcEEE5c_strEv", scope: !353, file: !354, line: 1127, type: !1091, isLocal: false, isDefinition: false, scopeLine: 1127, flags: DIFlagPublic | DIFlagPrototyped, isOptimized: false)
!1091 = !DISubroutineType(types: !1092)
!1092 = !{!905, !891}
!1093 = !DISubprogram(name: "data", linkageName: "_ZNKSt3__112basic_stringIcNS_11char_traitsIcEENS_9allocatorIcEEE4dataEv", scope: !353, file: !354, line: 1129, type: !1091, isLocal: false, isDefinition: false, scopeLine: 1129, flags: DIFlagPublic | DIFlagPrototyped, isOptimized: false)
!1094 = !DISubprogram(name: "get_allocator", linkageName: "_ZNKSt3__112basic_stringIcNS_11char_traitsIcEENS_9allocatorIcEEE13get_allocatorEv", scope: !353, file: !354, line: 1136, type: !1095, isLocal: false, isDefinition: false, scopeLine: 1136, flags: DIFlagPublic | DIFlagPrototyped, isOptimized: false)
!1095 = !DISubroutineType(types: !1096)
!1096 = !{!627, !891}
!1097 = !DISubprogram(name: "find", linkageName: "_ZNKSt3__112basic_stringIcNS_11char_traitsIcEENS_9allocatorIcEEE4findERKS5_m", scope: !353, file: !354, line: 1139, type: !1098, isLocal: false, isDefinition: false, scopeLine: 1139, flags: DIFlagPublic | DIFlagPrototyped, isOptimized: false)
!1098 = !DISubroutineType(types: !1099)
!1099 = !{!368, !891, !631, !368}
!1100 = !DISubprogram(name: "find", linkageName: "_ZNKSt3__112basic_stringIcNS_11char_traitsIcEENS_9allocatorIcEEE4findENS_17basic_string_viewIcS2_EEm", scope: !353, file: !354, line: 1141, type: !1101, isLocal: false, isDefinition: false, scopeLine: 1141, flags: DIFlagPublic | DIFlagPrototyped, isOptimized: false)
!1101 = !DISubroutineType(types: !1102)
!1102 = !{!368, !891, !670, !368}
!1103 = !DISubprogram(name: "find", linkageName: "_ZNKSt3__112basic_stringIcNS_11char_traitsIcEENS_9allocatorIcEEE4findEPKcmm", scope: !353, file: !354, line: 1142, type: !1104, isLocal: false, isDefinition: false, scopeLine: 1142, flags: DIFlagPublic | DIFlagPrototyped, isOptimized: false)
!1104 = !DISubroutineType(types: !1105)
!1105 = !{!368, !891, !905, !368, !368}
!1106 = !DISubprogram(name: "find", linkageName: "_ZNKSt3__112basic_stringIcNS_11char_traitsIcEENS_9allocatorIcEEE4findEPKcm", scope: !353, file: !354, line: 1144, type: !1107, isLocal: false, isDefinition: false, scopeLine: 1144, flags: DIFlagPublic | DIFlagPrototyped, isOptimized: false)
!1107 = !DISubroutineType(types: !1108)
!1108 = !{!368, !891, !905, !368}
!1109 = !DISubprogram(name: "find", linkageName: "_ZNKSt3__112basic_stringIcNS_11char_traitsIcEENS_9allocatorIcEEE4findEcm", scope: !353, file: !354, line: 1145, type: !1110, isLocal: false, isDefinition: false, scopeLine: 1145, flags: DIFlagPublic | DIFlagPrototyped, isOptimized: false)
!1110 = !DISubroutineType(types: !1111)
!1111 = !{!368, !891, !542, !368}
!1112 = !DISubprogram(name: "rfind", linkageName: "_ZNKSt3__112basic_stringIcNS_11char_traitsIcEENS_9allocatorIcEEE5rfindERKS5_m", scope: !353, file: !354, line: 1148, type: !1098, isLocal: false, isDefinition: false, scopeLine: 1148, flags: DIFlagPublic | DIFlagPrototyped, isOptimized: false)
!1113 = !DISubprogram(name: "rfind", linkageName: "_ZNKSt3__112basic_stringIcNS_11char_traitsIcEENS_9allocatorIcEEE5rfindENS_17basic_string_viewIcS2_EEm", scope: !353, file: !354, line: 1150, type: !1101, isLocal: false, isDefinition: false, scopeLine: 1150, flags: DIFlagPublic | DIFlagPrototyped, isOptimized: false)
!1114 = !DISubprogram(name: "rfind", linkageName: "_ZNKSt3__112basic_stringIcNS_11char_traitsIcEENS_9allocatorIcEEE5rfindEPKcmm", scope: !353, file: !354, line: 1151, type: !1104, isLocal: false, isDefinition: false, scopeLine: 1151, flags: DIFlagPublic | DIFlagPrototyped, isOptimized: false)
!1115 = !DISubprogram(name: "rfind", linkageName: "_ZNKSt3__112basic_stringIcNS_11char_traitsIcEENS_9allocatorIcEEE5rfindEPKcm", scope: !353, file: !354, line: 1153, type: !1107, isLocal: false, isDefinition: false, scopeLine: 1153, flags: DIFlagPublic | DIFlagPrototyped, isOptimized: false)
!1116 = !DISubprogram(name: "rfind", linkageName: "_ZNKSt3__112basic_stringIcNS_11char_traitsIcEENS_9allocatorIcEEE5rfindEcm", scope: !353, file: !354, line: 1154, type: !1110, isLocal: false, isDefinition: false, scopeLine: 1154, flags: DIFlagPublic | DIFlagPrototyped, isOptimized: false)
!1117 = !DISubprogram(name: "find_first_of", linkageName: "_ZNKSt3__112basic_stringIcNS_11char_traitsIcEENS_9allocatorIcEEE13find_first_ofERKS5_m", scope: !353, file: !354, line: 1157, type: !1098, isLocal: false, isDefinition: false, scopeLine: 1157, flags: DIFlagPublic | DIFlagPrototyped, isOptimized: false)
!1118 = !DISubprogram(name: "find_first_of", linkageName: "_ZNKSt3__112basic_stringIcNS_11char_traitsIcEENS_9allocatorIcEEE13find_first_ofENS_17basic_string_viewIcS2_EEm", scope: !353, file: !354, line: 1159, type: !1101, isLocal: false, isDefinition: false, scopeLine: 1159, flags: DIFlagPublic | DIFlagPrototyped, isOptimized: false)
!1119 = !DISubprogram(name: "find_first_of", linkageName: "_ZNKSt3__112basic_stringIcNS_11char_traitsIcEENS_9allocatorIcEEE13find_first_ofEPKcmm", scope: !353, file: !354, line: 1160, type: !1104, isLocal: false, isDefinition: false, scopeLine: 1160, flags: DIFlagPublic | DIFlagPrototyped, isOptimized: false)
!1120 = !DISubprogram(name: "find_first_of", linkageName: "_ZNKSt3__112basic_stringIcNS_11char_traitsIcEENS_9allocatorIcEEE13find_first_ofEPKcm", scope: !353, file: !354, line: 1162, type: !1107, isLocal: false, isDefinition: false, scopeLine: 1162, flags: DIFlagPublic | DIFlagPrototyped, isOptimized: false)
!1121 = !DISubprogram(name: "find_first_of", linkageName: "_ZNKSt3__112basic_stringIcNS_11char_traitsIcEENS_9allocatorIcEEE13find_first_ofEcm", scope: !353, file: !354, line: 1164, type: !1110, isLocal: false, isDefinition: false, scopeLine: 1164, flags: DIFlagPublic | DIFlagPrototyped, isOptimized: false)
!1122 = !DISubprogram(name: "find_last_of", linkageName: "_ZNKSt3__112basic_stringIcNS_11char_traitsIcEENS_9allocatorIcEEE12find_last_ofERKS5_m", scope: !353, file: !354, line: 1167, type: !1098, isLocal: false, isDefinition: false, scopeLine: 1167, flags: DIFlagPublic | DIFlagPrototyped, isOptimized: false)
!1123 = !DISubprogram(name: "find_last_of", linkageName: "_ZNKSt3__112basic_stringIcNS_11char_traitsIcEENS_9allocatorIcEEE12find_last_ofENS_17basic_string_viewIcS2_EEm", scope: !353, file: !354, line: 1169, type: !1101, isLocal: false, isDefinition: false, scopeLine: 1169, flags: DIFlagPublic | DIFlagPrototyped, isOptimized: false)
!1124 = !DISubprogram(name: "find_last_of", linkageName: "_ZNKSt3__112basic_stringIcNS_11char_traitsIcEENS_9allocatorIcEEE12find_last_ofEPKcmm", scope: !353, file: !354, line: 1170, type: !1104, isLocal: false, isDefinition: false, scopeLine: 1170, flags: DIFlagPublic | DIFlagPrototyped, isOptimized: false)
!1125 = !DISubprogram(name: "find_last_of", linkageName: "_ZNKSt3__112basic_stringIcNS_11char_traitsIcEENS_9allocatorIcEEE12find_last_ofEPKcm", scope: !353, file: !354, line: 1172, type: !1107, isLocal: false, isDefinition: false, scopeLine: 1172, flags: DIFlagPublic | DIFlagPrototyped, isOptimized: false)
!1126 = !DISubprogram(name: "find_last_of", linkageName: "_ZNKSt3__112basic_stringIcNS_11char_traitsIcEENS_9allocatorIcEEE12find_last_ofEcm", scope: !353, file: !354, line: 1174, type: !1110, isLocal: false, isDefinition: false, scopeLine: 1174, flags: DIFlagPublic | DIFlagPrototyped, isOptimized: false)
!1127 = !DISubprogram(name: "find_first_not_of", linkageName: "_ZNKSt3__112basic_stringIcNS_11char_traitsIcEENS_9allocatorIcEEE17find_first_not_ofERKS5_m", scope: !353, file: !354, line: 1177, type: !1098, isLocal: false, isDefinition: false, scopeLine: 1177, flags: DIFlagPublic | DIFlagPrototyped, isOptimized: false)
!1128 = !DISubprogram(name: "find_first_not_of", linkageName: "_ZNKSt3__112basic_stringIcNS_11char_traitsIcEENS_9allocatorIcEEE17find_first_not_ofENS_17basic_string_viewIcS2_EEm", scope: !353, file: !354, line: 1179, type: !1101, isLocal: false, isDefinition: false, scopeLine: 1179, flags: DIFlagPublic | DIFlagPrototyped, isOptimized: false)
!1129 = !DISubprogram(name: "find_first_not_of", linkageName: "_ZNKSt3__112basic_stringIcNS_11char_traitsIcEENS_9allocatorIcEEE17find_first_not_ofEPKcmm", scope: !353, file: !354, line: 1180, type: !1104, isLocal: false, isDefinition: false, scopeLine: 1180, flags: DIFlagPublic | DIFlagPrototyped, isOptimized: false)
!1130 = !DISubprogram(name: "find_first_not_of", linkageName: "_ZNKSt3__112basic_stringIcNS_11char_traitsIcEENS_9allocatorIcEEE17find_first_not_ofEPKcm", scope: !353, file: !354, line: 1182, type: !1107, isLocal: false, isDefinition: false, scopeLine: 1182, flags: DIFlagPublic | DIFlagPrototyped, isOptimized: false)
!1131 = !DISubprogram(name: "find_first_not_of", linkageName: "_ZNKSt3__112basic_stringIcNS_11char_traitsIcEENS_9allocatorIcEEE17find_first_not_ofEcm", scope: !353, file: !354, line: 1184, type: !1110, isLocal: false, isDefinition: false, scopeLine: 1184, flags: DIFlagPublic | DIFlagPrototyped, isOptimized: false)
!1132 = !DISubprogram(name: "find_last_not_of", linkageName: "_ZNKSt3__112basic_stringIcNS_11char_traitsIcEENS_9allocatorIcEEE16find_last_not_ofERKS5_m", scope: !353, file: !354, line: 1187, type: !1098, isLocal: false, isDefinition: false, scopeLine: 1187, flags: DIFlagPublic | DIFlagPrototyped, isOptimized: false)
!1133 = !DISubprogram(name: "find_last_not_of", linkageName: "_ZNKSt3__112basic_stringIcNS_11char_traitsIcEENS_9allocatorIcEEE16find_last_not_ofENS_17basic_string_viewIcS2_EEm", scope: !353, file: !354, line: 1189, type: !1101, isLocal: false, isDefinition: false, scopeLine: 1189, flags: DIFlagPublic | DIFlagPrototyped, isOptimized: false)
!1134 = !DISubprogram(name: "find_last_not_of", linkageName: "_ZNKSt3__112basic_stringIcNS_11char_traitsIcEENS_9allocatorIcEEE16find_last_not_ofEPKcmm", scope: !353, file: !354, line: 1190, type: !1104, isLocal: false, isDefinition: false, scopeLine: 1190, flags: DIFlagPublic | DIFlagPrototyped, isOptimized: false)
!1135 = !DISubprogram(name: "find_last_not_of", linkageName: "_ZNKSt3__112basic_stringIcNS_11char_traitsIcEENS_9allocatorIcEEE16find_last_not_ofEPKcm", scope: !353, file: !354, line: 1192, type: !1107, isLocal: false, isDefinition: false, scopeLine: 1192, flags: DIFlagPublic | DIFlagPrototyped, isOptimized: false)
!1136 = !DISubprogram(name: "find_last_not_of", linkageName: "_ZNKSt3__112basic_stringIcNS_11char_traitsIcEENS_9allocatorIcEEE16find_last_not_ofEcm", scope: !353, file: !354, line: 1194, type: !1110, isLocal: false, isDefinition: false, scopeLine: 1194, flags: DIFlagPublic | DIFlagPrototyped, isOptimized: false)
!1137 = !DISubprogram(name: "compare", linkageName: "_ZNKSt3__112basic_stringIcNS_11char_traitsIcEENS_9allocatorIcEEE7compareERKS5_", scope: !353, file: !354, line: 1197, type: !1138, isLocal: false, isDefinition: false, scopeLine: 1197, flags: DIFlagPublic | DIFlagPrototyped, isOptimized: false)
!1138 = !DISubroutineType(types: !1139)
!1139 = !{!14, !891, !631}
!1140 = !DISubprogram(name: "compare", linkageName: "_ZNKSt3__112basic_stringIcNS_11char_traitsIcEENS_9allocatorIcEEE7compareENS_17basic_string_viewIcS2_EE", scope: !353, file: !354, line: 1199, type: !1141, isLocal: false, isDefinition: false, scopeLine: 1199, flags: DIFlagPublic | DIFlagPrototyped, isOptimized: false)
!1141 = !DISubroutineType(types: !1142)
!1142 = !{!14, !891, !670}
!1143 = !DISubprogram(name: "compare", linkageName: "_ZNKSt3__112basic_stringIcNS_11char_traitsIcEENS_9allocatorIcEEE7compareEmmNS_17basic_string_viewIcS2_EE", scope: !353, file: !354, line: 1201, type: !1144, isLocal: false, isDefinition: false, scopeLine: 1201, flags: DIFlagPublic | DIFlagPrototyped, isOptimized: false)
!1144 = !DISubroutineType(types: !1145)
!1145 = !{!14, !891, !368, !368, !670}
!1146 = !DISubprogram(name: "compare", linkageName: "_ZNKSt3__112basic_stringIcNS_11char_traitsIcEENS_9allocatorIcEEE7compareEmmRKS5_", scope: !353, file: !354, line: 1203, type: !1147, isLocal: false, isDefinition: false, scopeLine: 1203, flags: DIFlagPublic | DIFlagPrototyped, isOptimized: false)
!1147 = !DISubroutineType(types: !1148)
!1148 = !{!14, !891, !368, !368, !631}
!1149 = !DISubprogram(name: "compare", linkageName: "_ZNKSt3__112basic_stringIcNS_11char_traitsIcEENS_9allocatorIcEEE7compareEmmRKS5_mm", scope: !353, file: !354, line: 1204, type: !1150, isLocal: false, isDefinition: false, scopeLine: 1204, flags: DIFlagPublic | DIFlagPrototyped, isOptimized: false)
!1150 = !DISubroutineType(types: !1151)
!1151 = !{!14, !891, !368, !368, !631, !368, !368}
!1152 = !DISubprogram(name: "compare", linkageName: "_ZNKSt3__112basic_stringIcNS_11char_traitsIcEENS_9allocatorIcEEE7compareEPKc", scope: !353, file: !354, line: 1213, type: !1153, isLocal: false, isDefinition: false, scopeLine: 1213, flags: DIFlagPublic | DIFlagPrototyped, isOptimized: false)
!1153 = !DISubroutineType(types: !1154)
!1154 = !{!14, !891, !905}
!1155 = !DISubprogram(name: "compare", linkageName: "_ZNKSt3__112basic_stringIcNS_11char_traitsIcEENS_9allocatorIcEEE7compareEmmPKc", scope: !353, file: !354, line: 1214, type: !1156, isLocal: false, isDefinition: false, scopeLine: 1214, flags: DIFlagPublic | DIFlagPrototyped, isOptimized: false)
!1156 = !DISubroutineType(types: !1157)
!1157 = !{!14, !891, !368, !368, !905}
!1158 = !DISubprogram(name: "compare", linkageName: "_ZNKSt3__112basic_stringIcNS_11char_traitsIcEENS_9allocatorIcEEE7compareEmmPKcm", scope: !353, file: !354, line: 1215, type: !1159, isLocal: false, isDefinition: false, scopeLine: 1215, flags: DIFlagPublic | DIFlagPrototyped, isOptimized: false)
!1159 = !DISubroutineType(types: !1160)
!1160 = !{!14, !891, !368, !368, !905, !368}
!1161 = !DISubprogram(name: "__invariants", linkageName: "_ZNKSt3__112basic_stringIcNS_11char_traitsIcEENS_9allocatorIcEEE12__invariantsEv", scope: !353, file: !354, line: 1217, type: !954, isLocal: false, isDefinition: false, scopeLine: 1217, flags: DIFlagPublic | DIFlagPrototyped, isOptimized: false)
!1162 = !DISubprogram(name: "__is_long", linkageName: "_ZNKSt3__112basic_stringIcNS_11char_traitsIcEENS_9allocatorIcEEE9__is_longEv", scope: !353, file: !354, line: 1220, type: !954, isLocal: false, isDefinition: false, scopeLine: 1220, flags: DIFlagPublic | DIFlagPrototyped, isOptimized: false)
!1163 = !DISubprogram(name: "__alloc", linkageName: "_ZNSt3__112basic_stringIcNS_11char_traitsIcEENS_9allocatorIcEEE7__allocEv", scope: !353, file: !354, line: 1234, type: !1164, isLocal: false, isDefinition: false, scopeLine: 1234, flags: DIFlagPrototyped, isOptimized: false)
!1164 = !DISubroutineType(types: !1165)
!1165 = !{!1166, !621}
!1166 = !DIDerivedType(tag: DW_TAG_reference_type, baseType: !627, size: 64)
!1167 = !DISubprogram(name: "__alloc", linkageName: "_ZNKSt3__112basic_stringIcNS_11char_traitsIcEENS_9allocatorIcEEE7__allocEv", scope: !353, file: !354, line: 1237, type: !1168, isLocal: false, isDefinition: false, scopeLine: 1237, flags: DIFlagPrototyped, isOptimized: false)
!1168 = !DISubroutineType(types: !1169)
!1169 = !{!625, !891}
!1170 = !DISubprogram(name: "__set_short_size", linkageName: "_ZNSt3__112basic_stringIcNS_11char_traitsIcEENS_9allocatorIcEEE16__set_short_sizeEm", scope: !353, file: !354, line: 1261, type: !948, isLocal: false, isDefinition: false, scopeLine: 1261, flags: DIFlagPrototyped, isOptimized: false)
!1171 = !DISubprogram(name: "__get_short_size", linkageName: "_ZNKSt3__112basic_stringIcNS_11char_traitsIcEENS_9allocatorIcEEE16__get_short_sizeEv", scope: !353, file: !354, line: 1269, type: !939, isLocal: false, isDefinition: false, scopeLine: 1269, flags: DIFlagPrototyped, isOptimized: false)
!1172 = !DISubprogram(name: "__set_long_size", linkageName: "_ZNSt3__112basic_stringIcNS_11char_traitsIcEENS_9allocatorIcEEE15__set_long_sizeEm", scope: !353, file: !354, line: 1279, type: !948, isLocal: false, isDefinition: false, scopeLine: 1279, flags: DIFlagPrototyped, isOptimized: false)
!1173 = !DISubprogram(name: "__get_long_size", linkageName: "_ZNKSt3__112basic_stringIcNS_11char_traitsIcEENS_9allocatorIcEEE15__get_long_sizeEv", scope: !353, file: !354, line: 1282, type: !939, isLocal: false, isDefinition: false, scopeLine: 1282, flags: DIFlagPrototyped, isOptimized: false)
!1174 = !DISubprogram(name: "__set_size", linkageName: "_ZNSt3__112basic_stringIcNS_11char_traitsIcEENS_9allocatorIcEEE10__set_sizeEm", scope: !353, file: !354, line: 1285, type: !948, isLocal: false, isDefinition: false, scopeLine: 1285, flags: DIFlagPrototyped, isOptimized: false)
!1175 = !DISubprogram(name: "__set_long_cap", linkageName: "_ZNSt3__112basic_stringIcNS_11char_traitsIcEENS_9allocatorIcEEE14__set_long_capEm", scope: !353, file: !354, line: 1289, type: !948, isLocal: false, isDefinition: false, scopeLine: 1289, flags: DIFlagPrototyped, isOptimized: false)
!1176 = !DISubprogram(name: "__get_long_cap", linkageName: "_ZNKSt3__112basic_stringIcNS_11char_traitsIcEENS_9allocatorIcEEE14__get_long_capEv", scope: !353, file: !354, line: 1292, type: !939, isLocal: false, isDefinition: false, scopeLine: 1292, flags: DIFlagPrototyped, isOptimized: false)
!1177 = !DISubprogram(name: "__set_long_pointer", linkageName: "_ZNSt3__112basic_stringIcNS_11char_traitsIcEENS_9allocatorIcEEE18__set_long_pointerEPc", scope: !353, file: !354, line: 1296, type: !1178, isLocal: false, isDefinition: false, scopeLine: 1296, flags: DIFlagPrototyped, isOptimized: false)
!1178 = !DISubroutineType(types: !1179)
!1179 = !{null, !621, !532}
!1180 = !DISubprogram(name: "__get_long_pointer", linkageName: "_ZNSt3__112basic_stringIcNS_11char_traitsIcEENS_9allocatorIcEEE18__get_long_pointerEv", scope: !353, file: !354, line: 1299, type: !1181, isLocal: false, isDefinition: false, scopeLine: 1299, flags: DIFlagPrototyped, isOptimized: false)
!1181 = !DISubroutineType(types: !1182)
!1182 = !{!532, !621}
!1183 = !DISubprogram(name: "__get_long_pointer", linkageName: "_ZNKSt3__112basic_stringIcNS_11char_traitsIcEENS_9allocatorIcEEE18__get_long_pointerEv", scope: !353, file: !354, line: 1302, type: !1184, isLocal: false, isDefinition: false, scopeLine: 1302, flags: DIFlagPrototyped, isOptimized: false)
!1184 = !DISubroutineType(types: !1185)
!1185 = !{!1186, !891}
!1186 = !DIDerivedType(tag: DW_TAG_typedef, name: "const_pointer", scope: !353, file: !354, line: 645, baseType: !1187)
!1187 = !DIDerivedType(tag: DW_TAG_typedef, name: "const_pointer", scope: !370, file: !19, line: 1473, baseType: !1188)
!1188 = !DIDerivedType(tag: DW_TAG_typedef, name: "type", scope: !1189, file: !19, line: 1033, baseType: !399)
!1189 = distinct !DICompositeType(tag: DW_TAG_structure_type, name: "__const_pointer<char, char *, std::__1::allocator<char>, true>", scope: !20, file: !19, line: 1031, size: 8, elements: !136, templateParams: !1190, identifier: "_ZTSNSt3__115__const_pointerIcPcNS_9allocatorIcEELb1EEE")
!1190 = !{!379, !434, !435, !140}
!1191 = !DISubprogram(name: "__get_short_pointer", linkageName: "_ZNSt3__112basic_stringIcNS_11char_traitsIcEENS_9allocatorIcEEE19__get_short_pointerEv", scope: !353, file: !354, line: 1305, type: !1181, isLocal: false, isDefinition: false, scopeLine: 1305, flags: DIFlagPrototyped, isOptimized: false)
!1192 = !DISubprogram(name: "__get_short_pointer", linkageName: "_ZNKSt3__112basic_stringIcNS_11char_traitsIcEENS_9allocatorIcEEE19__get_short_pointerEv", scope: !353, file: !354, line: 1308, type: !1184, isLocal: false, isDefinition: false, scopeLine: 1308, flags: DIFlagPrototyped, isOptimized: false)
!1193 = !DISubprogram(name: "__get_pointer", linkageName: "_ZNSt3__112basic_stringIcNS_11char_traitsIcEENS_9allocatorIcEEE13__get_pointerEv", scope: !353, file: !354, line: 1311, type: !1181, isLocal: false, isDefinition: false, scopeLine: 1311, flags: DIFlagPrototyped, isOptimized: false)
!1194 = !DISubprogram(name: "__get_pointer", linkageName: "_ZNKSt3__112basic_stringIcNS_11char_traitsIcEENS_9allocatorIcEEE13__get_pointerEv", scope: !353, file: !354, line: 1314, type: !1184, isLocal: false, isDefinition: false, scopeLine: 1314, flags: DIFlagPrototyped, isOptimized: false)
!1195 = !DISubprogram(name: "__zero", linkageName: "_ZNSt3__112basic_stringIcNS_11char_traitsIcEENS_9allocatorIcEEE6__zeroEv", scope: !353, file: !354, line: 1318, type: !619, isLocal: false, isDefinition: false, scopeLine: 1318, flags: DIFlagPrototyped, isOptimized: false)
!1196 = !DISubprogram(name: "__recommend", linkageName: "_ZNSt3__112basic_stringIcNS_11char_traitsIcEENS_9allocatorIcEEE11__recommendEm", scope: !353, file: !354, line: 1331, type: !1197, isLocal: false, isDefinition: false, scopeLine: 1331, flags: DIFlagPrototyped, isOptimized: false)
!1197 = !DISubroutineType(types: !1198)
!1198 = !{!368, !368}
!1199 = !DISubprogram(name: "__init", linkageName: "_ZNSt3__112basic_stringIcNS_11char_traitsIcEENS_9allocatorIcEEE6__initEPKcmm", scope: !353, file: !354, line: 1337, type: !1200, isLocal: false, isDefinition: false, scopeLine: 1337, flags: DIFlagPrototyped, isOptimized: false)
!1200 = !DISubroutineType(types: !1201)
!1201 = !{null, !621, !905, !368, !368}
!1202 = !DISubprogram(name: "__init", linkageName: "_ZNSt3__112basic_stringIcNS_11char_traitsIcEENS_9allocatorIcEEE6__initEPKcm", scope: !353, file: !354, line: 1339, type: !1203, isLocal: false, isDefinition: false, scopeLine: 1339, flags: DIFlagPrototyped, isOptimized: false)
!1203 = !DISubroutineType(types: !1204)
!1204 = !{null, !621, !905, !368}
!1205 = !DISubprogram(name: "__init", linkageName: "_ZNSt3__112basic_stringIcNS_11char_traitsIcEENS_9allocatorIcEEE6__initEmc", scope: !353, file: !354, line: 1341, type: !945, isLocal: false, isDefinition: false, scopeLine: 1341, flags: DIFlagPrototyped, isOptimized: false)
!1206 = !DISubprogram(name: "__grow_by", linkageName: "_ZNSt3__112basic_stringIcNS_11char_traitsIcEENS_9allocatorIcEEE9__grow_byEmmmmmm", scope: !353, file: !354, line: 1361, type: !1207, isLocal: false, isDefinition: false, scopeLine: 1361, flags: DIFlagPrototyped, isOptimized: false)
!1207 = !DISubroutineType(types: !1208)
!1208 = !{null, !621, !368, !368, !368, !368, !368, !368}
!1209 = !DISubprogram(name: "__grow_by_and_replace", linkageName: "_ZNSt3__112basic_stringIcNS_11char_traitsIcEENS_9allocatorIcEEE21__grow_by_and_replaceEmmmmmmPKc", scope: !353, file: !354, line: 1363, type: !1210, isLocal: false, isDefinition: false, scopeLine: 1363, flags: DIFlagPrototyped, isOptimized: false)
!1210 = !DISubroutineType(types: !1211)
!1211 = !{null, !621, !368, !368, !368, !368, !368, !368, !905}
!1212 = !DISubprogram(name: "__erase_to_end", linkageName: "_ZNSt3__112basic_stringIcNS_11char_traitsIcEENS_9allocatorIcEEE14__erase_to_endEm", scope: !353, file: !354, line: 1368, type: !948, isLocal: false, isDefinition: false, scopeLine: 1368, flags: DIFlagPrototyped, isOptimized: false)
!1213 = !DISubprogram(name: "__copy_assign_alloc", linkageName: "_ZNSt3__112basic_stringIcNS_11char_traitsIcEENS_9allocatorIcEEE19__copy_assign_allocERKS5_", scope: !353, file: !354, line: 1371, type: !629, isLocal: false, isDefinition: false, scopeLine: 1371, flags: DIFlagPrototyped, isOptimized: false)
!1214 = !DISubprogram(name: "__copy_assign_alloc", linkageName: "_ZNSt3__112basic_stringIcNS_11char_traitsIcEENS_9allocatorIcEEE19__copy_assign_allocERKS5_NS_17integral_constantIbLb1EEE", scope: !353, file: !354, line: 1376, type: !1215, isLocal: false, isDefinition: false, scopeLine: 1376, flags: DIFlagPrototyped, isOptimized: false)
!1215 = !DISubroutineType(types: !1216)
!1216 = !{null, !621, !631, !466}
!1217 = !DISubprogram(name: "__copy_assign_alloc", linkageName: "_ZNSt3__112basic_stringIcNS_11char_traitsIcEENS_9allocatorIcEEE19__copy_assign_allocERKS5_NS_17integral_constantIbLb0EEE", scope: !353, file: !354, line: 1403, type: !1218, isLocal: false, isDefinition: false, scopeLine: 1403, flags: DIFlagPrototyped, isOptimized: false)
!1218 = !DISubroutineType(types: !1219)
!1219 = !{null, !621, !631, !483}
!1220 = !DISubprogram(name: "__move_assign", linkageName: "_ZNSt3__112basic_stringIcNS_11char_traitsIcEENS_9allocatorIcEEE13__move_assignERS5_NS_17integral_constantIbLb0EEE", scope: !353, file: !354, line: 1408, type: !1221, isLocal: false, isDefinition: false, scopeLine: 1408, flags: DIFlagPrototyped, isOptimized: false)
!1221 = !DISubroutineType(types: !1222)
!1222 = !{null, !621, !895, !483}
!1223 = !DISubprogram(name: "__move_assign", linkageName: "_ZNSt3__112basic_stringIcNS_11char_traitsIcEENS_9allocatorIcEEE13__move_assignERS5_NS_17integral_constantIbLb1EEE", scope: !353, file: !354, line: 1411, type: !1224, isLocal: false, isDefinition: false, scopeLine: 1411, flags: DIFlagPrototyped, isOptimized: false)
!1224 = !DISubroutineType(types: !1225)
!1225 = !{null, !621, !895, !466}
!1226 = !DISubprogram(name: "__move_assign_alloc", linkageName: "_ZNSt3__112basic_stringIcNS_11char_traitsIcEENS_9allocatorIcEEE19__move_assign_allocERS5_", scope: !353, file: !354, line: 1421, type: !1088, isLocal: false, isDefinition: false, scopeLine: 1421, flags: DIFlagPrototyped, isOptimized: false)
!1227 = !DISubprogram(name: "__move_assign_alloc", linkageName: "_ZNSt3__112basic_stringIcNS_11char_traitsIcEENS_9allocatorIcEEE19__move_assign_allocERS5_NS_17integral_constantIbLb1EEE", scope: !353, file: !354, line: 1429, type: !1224, isLocal: false, isDefinition: false, scopeLine: 1429, flags: DIFlagPrototyped, isOptimized: false)
!1228 = !DISubprogram(name: "__move_assign_alloc", linkageName: "_ZNSt3__112basic_stringIcNS_11char_traitsIcEENS_9allocatorIcEEE19__move_assign_allocERS5_NS_17integral_constantIbLb0EEE", scope: !353, file: !354, line: 1436, type: !1221, isLocal: false, isDefinition: false, scopeLine: 1436, flags: DIFlagPrototyped, isOptimized: false)
!1229 = !DISubprogram(name: "__invalidate_all_iterators", linkageName: "_ZNSt3__112basic_stringIcNS_11char_traitsIcEENS_9allocatorIcEEE26__invalidate_all_iteratorsEv", scope: !353, file: !354, line: 1440, type: !619, isLocal: false, isDefinition: false, scopeLine: 1440, flags: DIFlagPrototyped, isOptimized: false)
!1230 = !DISubprogram(name: "__invalidate_iterators_past", linkageName: "_ZNSt3__112basic_stringIcNS_11char_traitsIcEENS_9allocatorIcEEE27__invalidate_iterators_pastEm", scope: !353, file: !354, line: 1441, type: !948, isLocal: false, isDefinition: false, scopeLine: 1441, flags: DIFlagPrototyped, isOptimized: false)
!1231 = !{!804, !805, !1232}
!1232 = !DITemplateTypeParameter(name: "_Allocator", type: !381)
!1233 = !DISubprogram(name: "locale", scope: !316, file: !317, line: 107, type: !1234, isLocal: false, isDefinition: false, scopeLine: 107, flags: DIFlagPublic | DIFlagPrototyped, isOptimized: false)
!1234 = !DISubroutineType(types: !1235)
!1235 = !{null, !335, !339, !344, !321}
!1236 = !DISubprogram(name: "locale", scope: !316, file: !317, line: 108, type: !1237, isLocal: false, isDefinition: false, scopeLine: 108, flags: DIFlagPublic | DIFlagPrototyped, isOptimized: false)
!1237 = !DISubroutineType(types: !1238)
!1238 = !{null, !335, !339, !350, !321}
!1239 = !DISubprogram(name: "locale", scope: !316, file: !317, line: 111, type: !1240, isLocal: false, isDefinition: false, scopeLine: 111, flags: DIFlagPublic | DIFlagPrototyped, isOptimized: false)
!1240 = !DISubroutineType(types: !1241)
!1241 = !{null, !335, !339, !339, !321}
!1242 = !DISubprogram(name: "~locale", scope: !316, file: !317, line: 113, type: !333, isLocal: false, isDefinition: false, scopeLine: 113, flags: DIFlagPublic | DIFlagPrototyped, isOptimized: false)
!1243 = !DISubprogram(name: "operator=", linkageName: "_ZNSt3__16localeaSERKS0_", scope: !316, file: !317, line: 115, type: !1244, isLocal: false, isDefinition: false, scopeLine: 115, flags: DIFlagPublic | DIFlagPrototyped, isOptimized: false)
!1244 = !DISubroutineType(types: !1245)
!1245 = !{!339, !335, !339}
!1246 = !DISubprogram(name: "name", linkageName: "_ZNKSt3__16locale4nameEv", scope: !316, file: !317, line: 122, type: !1247, isLocal: false, isDefinition: false, scopeLine: 122, flags: DIFlagPublic | DIFlagPrototyped, isOptimized: false)
!1247 = !DISubroutineType(types: !1248)
!1248 = !{!352, !1249}
!1249 = !DIDerivedType(tag: DW_TAG_pointer_type, baseType: !340, size: 64, flags: DIFlagArtificial | DIFlagObjectPointer)
!1250 = !DISubprogram(name: "operator==", linkageName: "_ZNKSt3__16localeeqERKS0_", scope: !316, file: !317, line: 123, type: !1251, isLocal: false, isDefinition: false, scopeLine: 123, flags: DIFlagPublic | DIFlagPrototyped, isOptimized: false)
!1251 = !DISubroutineType(types: !1252)
!1252 = !{!52, !1249, !339}
!1253 = !DISubprogram(name: "operator!=", linkageName: "_ZNKSt3__16localeneERKS0_", scope: !316, file: !317, line: 124, type: !1251, isLocal: false, isDefinition: false, scopeLine: 124, flags: DIFlagPublic | DIFlagPrototyped, isOptimized: false)
!1254 = !DISubprogram(name: "global", linkageName: "_ZNSt3__16locale6globalERKS0_", scope: !316, file: !317, line: 131, type: !1255, isLocal: false, isDefinition: false, scopeLine: 131, flags: DIFlagPublic | DIFlagPrototyped, isOptimized: false)
!1255 = !DISubroutineType(types: !1256)
!1256 = !{!316, !339}
!1257 = !DISubprogram(name: "classic", linkageName: "_ZNSt3__16locale7classicEv", scope: !316, file: !317, line: 132, type: !1258, isLocal: false, isDefinition: false, scopeLine: 132, flags: DIFlagPublic | DIFlagPrototyped, isOptimized: false)
!1258 = !DISubroutineType(types: !1259)
!1259 = !{!339}
!1260 = !DISubprogram(name: "__install_ctor", linkageName: "_ZNSt3__16locale14__install_ctorERKS0_PNS0_5facetEl", scope: !316, file: !317, line: 138, type: !1261, isLocal: false, isDefinition: false, scopeLine: 138, flags: DIFlagPrototyped, isOptimized: false)
!1261 = !DISubroutineType(types: !1262)
!1262 = !{null, !335, !339, !1263, !253}
!1263 = !DIDerivedType(tag: DW_TAG_pointer_type, baseType: !1264, size: 64)
!1264 = distinct !DICompositeType(tag: DW_TAG_class_type, name: "facet", scope: !316, file: !317, line: 147, size: 128, elements: !1265, vtableHolder: !1267, identifier: "_ZTSNSt3__16locale5facetE")
!1265 = !{!1266, !1296, !1300, !1303}
!1266 = !DIDerivedType(tag: DW_TAG_inheritance, scope: !1264, baseType: !1267, flags: DIFlagPublic)
!1267 = distinct !DICompositeType(tag: DW_TAG_class_type, name: "__shared_count", scope: !20, file: !19, line: 3416, size: 128, elements: !1268, vtableHolder: !1267, identifier: "_ZTSNSt3__114__shared_countE")
!1268 = !{!1269, !1270, !1271, !1277, !1281, !1284, !1285, !1288, !1289, !1292}
!1269 = !DIDerivedType(tag: DW_TAG_member, name: "_vptr$__shared_count", scope: !19, file: !19, baseType: !10, size: 64, flags: DIFlagArtificial)
!1270 = !DIDerivedType(tag: DW_TAG_member, name: "__shared_owners_", scope: !1267, file: !19, line: 3422, baseType: !253, size: 64, offset: 64, flags: DIFlagProtected)
!1271 = !DISubprogram(name: "__shared_count", scope: !1267, file: !19, line: 3418, type: !1272, isLocal: false, isDefinition: false, scopeLine: 3418, flags: DIFlagPrototyped, isOptimized: false)
!1272 = !DISubroutineType(types: !1273)
!1273 = !{null, !1274, !1275}
!1274 = !DIDerivedType(tag: DW_TAG_pointer_type, baseType: !1267, size: 64, flags: DIFlagArtificial | DIFlagObjectPointer)
!1275 = !DIDerivedType(tag: DW_TAG_reference_type, baseType: !1276, size: 64)
!1276 = !DIDerivedType(tag: DW_TAG_const_type, baseType: !1267)
!1277 = !DISubprogram(name: "operator=", linkageName: "_ZNSt3__114__shared_countaSERKS0_", scope: !1267, file: !19, line: 3419, type: !1278, isLocal: false, isDefinition: false, scopeLine: 3419, flags: DIFlagPrototyped, isOptimized: false)
!1278 = !DISubroutineType(types: !1279)
!1279 = !{!1280, !1274, !1275}
!1280 = !DIDerivedType(tag: DW_TAG_reference_type, baseType: !1267, size: 64)
!1281 = !DISubprogram(name: "~__shared_count", scope: !1267, file: !19, line: 3423, type: !1282, isLocal: false, isDefinition: false, scopeLine: 3423, containingType: !1267, virtuality: DW_VIRTUALITY_virtual, virtualIndex: 0, flags: DIFlagProtected | DIFlagPrototyped, isOptimized: false)
!1282 = !DISubroutineType(types: !1283)
!1283 = !{null, !1274}
!1284 = !DISubprogram(name: "__on_zero_shared", linkageName: "_ZNSt3__114__shared_count16__on_zero_sharedEv", scope: !1267, file: !19, line: 3425, type: !1282, isLocal: false, isDefinition: false, scopeLine: 3425, containingType: !1267, virtuality: DW_VIRTUALITY_pure_virtual, virtualIndex: 2, flags: DIFlagPrototyped, isOptimized: false)
!1285 = !DISubprogram(name: "__shared_count", scope: !1267, file: !19, line: 3429, type: !1286, isLocal: false, isDefinition: false, scopeLine: 3429, flags: DIFlagPublic | DIFlagExplicit | DIFlagPrototyped, isOptimized: false)
!1286 = !DISubroutineType(types: !1287)
!1287 = !{null, !1274, !253}
!1288 = !DISubprogram(name: "__add_shared", linkageName: "_ZNSt3__114__shared_count12__add_sharedEv", scope: !1267, file: !19, line: 3438, type: !1282, isLocal: false, isDefinition: false, scopeLine: 3438, flags: DIFlagPublic | DIFlagPrototyped, isOptimized: false)
!1289 = !DISubprogram(name: "__release_shared", linkageName: "_ZNSt3__114__shared_count16__release_sharedEv", scope: !1267, file: !19, line: 3442, type: !1290, isLocal: false, isDefinition: false, scopeLine: 3442, flags: DIFlagPublic | DIFlagPrototyped, isOptimized: false)
!1290 = !DISubroutineType(types: !1291)
!1291 = !{!52, !1274}
!1292 = !DISubprogram(name: "use_count", linkageName: "_ZNKSt3__114__shared_count9use_countEv", scope: !1267, file: !19, line: 3451, type: !1293, isLocal: false, isDefinition: false, scopeLine: 3451, flags: DIFlagPublic | DIFlagPrototyped, isOptimized: false)
!1293 = !DISubroutineType(types: !1294)
!1294 = !{!253, !1295}
!1295 = !DIDerivedType(tag: DW_TAG_pointer_type, baseType: !1276, size: 64, flags: DIFlagArtificial | DIFlagObjectPointer)
!1296 = !DISubprogram(name: "facet", scope: !1264, file: !317, line: 152, type: !1297, isLocal: false, isDefinition: false, scopeLine: 152, flags: DIFlagProtected | DIFlagExplicit | DIFlagPrototyped, isOptimized: false)
!1297 = !DISubroutineType(types: !1298)
!1298 = !{null, !1299, !275}
!1299 = !DIDerivedType(tag: DW_TAG_pointer_type, baseType: !1264, size: 64, flags: DIFlagArtificial | DIFlagObjectPointer)
!1300 = !DISubprogram(name: "~facet", scope: !1264, file: !317, line: 155, type: !1301, isLocal: false, isDefinition: false, scopeLine: 155, containingType: !1264, virtuality: DW_VIRTUALITY_virtual, virtualIndex: 0, flags: DIFlagProtected | DIFlagPrototyped, isOptimized: false)
!1301 = !DISubroutineType(types: !1302)
!1302 = !{null, !1299}
!1303 = !DISubprogram(name: "__on_zero_shared", linkageName: "_ZNSt3__16locale5facet16__on_zero_sharedEv", scope: !1264, file: !317, line: 160, type: !1301, isLocal: false, isDefinition: false, scopeLine: 160, containingType: !1264, virtuality: DW_VIRTUALITY_virtual, virtualIndex: 2, flags: DIFlagPrototyped, isOptimized: false)
!1304 = !DISubprogram(name: "__global", linkageName: "_ZNSt3__16locale8__globalEv", scope: !316, file: !317, line: 139, type: !1305, isLocal: false, isDefinition: false, scopeLine: 139, flags: DIFlagPrototyped, isOptimized: false)
!1305 = !DISubroutineType(types: !1306)
!1306 = !{!1307}
!1307 = !DIDerivedType(tag: DW_TAG_reference_type, baseType: !316, size: 64)
!1308 = !DISubprogram(name: "has_facet", linkageName: "_ZNKSt3__16locale9has_facetERNS0_2idE", scope: !316, file: !317, line: 140, type: !1309, isLocal: false, isDefinition: false, scopeLine: 140, flags: DIFlagPrototyped, isOptimized: false)
!1309 = !DISubroutineType(types: !1310)
!1310 = !{!52, !1249, !1311}
!1311 = !DIDerivedType(tag: DW_TAG_reference_type, baseType: !1312, size: 64)
!1312 = distinct !DICompositeType(tag: DW_TAG_class_type, name: "id", scope: !316, file: !317, line: 163, size: 128, elements: !1313, identifier: "_ZTSNSt3__16locale2idE")
!1313 = !{!1314, !1332, !1335, !1336, !1340, !1341, !1346, !1347}
!1314 = !DIDerivedType(tag: DW_TAG_member, name: "__flag_", scope: !1312, file: !317, line: 165, baseType: !1315, size: 64)
!1315 = distinct !DICompositeType(tag: DW_TAG_structure_type, name: "once_flag", scope: !20, file: !1316, line: 572, size: 64, elements: !1317, identifier: "_ZTSNSt3__19once_flagE")
!1316 = !DIFile(filename: "/Applications/Xcode.app/Contents/Developer/Toolchains/XcodeDefault.xctoolchain/usr/include/c++/v1/mutex", directory: "/Users/ejiang/Projects/lls/ac/llfiles")
!1317 = !{!1318, !1319, !1323, !1328}
!1318 = !DIDerivedType(tag: DW_TAG_member, name: "__state_", scope: !1315, file: !1316, line: 582, baseType: !276, size: 64, flags: DIFlagPrivate)
!1319 = !DISubprogram(name: "once_flag", scope: !1315, file: !1316, line: 576, type: !1320, isLocal: false, isDefinition: false, scopeLine: 576, flags: DIFlagPrototyped, isOptimized: false)
!1320 = !DISubroutineType(types: !1321)
!1321 = !{null, !1322}
!1322 = !DIDerivedType(tag: DW_TAG_pointer_type, baseType: !1315, size: 64, flags: DIFlagArtificial | DIFlagObjectPointer)
!1323 = !DISubprogram(name: "once_flag", scope: !1315, file: !1316, line: 579, type: !1324, isLocal: false, isDefinition: false, scopeLine: 579, flags: DIFlagPrivate | DIFlagPrototyped, isOptimized: false)
!1324 = !DISubroutineType(types: !1325)
!1325 = !{null, !1322, !1326}
!1326 = !DIDerivedType(tag: DW_TAG_reference_type, baseType: !1327, size: 64)
!1327 = !DIDerivedType(tag: DW_TAG_const_type, baseType: !1315)
!1328 = !DISubprogram(name: "operator=", linkageName: "_ZNSt3__19once_flagaSERKS0_", scope: !1315, file: !1316, line: 580, type: !1329, isLocal: false, isDefinition: false, scopeLine: 580, flags: DIFlagPrivate | DIFlagPrototyped, isOptimized: false)
!1329 = !DISubroutineType(types: !1330)
!1330 = !{!1331, !1322, !1326}
!1331 = !DIDerivedType(tag: DW_TAG_reference_type, baseType: !1315, size: 64)
!1332 = !DIDerivedType(tag: DW_TAG_member, name: "__id_", scope: !1312, file: !317, line: 166, baseType: !1333, size: 32, offset: 64)
!1333 = !DIDerivedType(tag: DW_TAG_typedef, name: "int32_t", file: !1334, line: 30, baseType: !14)
!1334 = !DIFile(filename: "/Applications/Xcode.app/Contents/Developer/Platforms/MacOSX.platform/Developer/SDKs/MacOSX10.13.sdk/usr/include/sys/_types/_int32_t.h", directory: "/Users/ejiang/Projects/lls/ac/llfiles")
!1335 = !DIDerivedType(tag: DW_TAG_member, name: "__next_id", scope: !1312, file: !317, line: 168, baseType: !1333, flags: DIFlagStaticMember)
!1336 = !DISubprogram(name: "id", scope: !1312, file: !317, line: 170, type: !1337, isLocal: false, isDefinition: false, scopeLine: 170, flags: DIFlagPublic | DIFlagPrototyped, isOptimized: false)
!1337 = !DISubroutineType(types: !1338)
!1338 = !{null, !1339}
!1339 = !DIDerivedType(tag: DW_TAG_pointer_type, baseType: !1312, size: 64, flags: DIFlagArtificial | DIFlagObjectPointer)
!1340 = !DISubprogram(name: "__init", linkageName: "_ZNSt3__16locale2id6__initEv", scope: !1312, file: !317, line: 172, type: !1337, isLocal: false, isDefinition: false, scopeLine: 172, flags: DIFlagPrototyped, isOptimized: false)
!1341 = !DISubprogram(name: "operator=", linkageName: "_ZNSt3__16locale2idaSERKS1_", scope: !1312, file: !317, line: 173, type: !1342, isLocal: false, isDefinition: false, scopeLine: 173, flags: DIFlagPrototyped, isOptimized: false)
!1342 = !DISubroutineType(types: !1343)
!1343 = !{null, !1339, !1344}
!1344 = !DIDerivedType(tag: DW_TAG_reference_type, baseType: !1345, size: 64)
!1345 = !DIDerivedType(tag: DW_TAG_const_type, baseType: !1312)
!1346 = !DISubprogram(name: "id", scope: !1312, file: !317, line: 174, type: !1342, isLocal: false, isDefinition: false, scopeLine: 174, flags: DIFlagPrototyped, isOptimized: false)
!1347 = !DISubprogram(name: "__get", linkageName: "_ZNSt3__16locale2id5__getEv", scope: !1312, file: !317, line: 176, type: !1348, isLocal: false, isDefinition: false, scopeLine: 176, flags: DIFlagPublic | DIFlagPrototyped, isOptimized: false)
!1348 = !DISubroutineType(types: !1349)
!1349 = !{!253, !1339}
!1350 = !DISubprogram(name: "use_facet", linkageName: "_ZNKSt3__16locale9use_facetERNS0_2idE", scope: !316, file: !317, line: 141, type: !1351, isLocal: false, isDefinition: false, scopeLine: 141, flags: DIFlagPrototyped, isOptimized: false)
!1351 = !DISubroutineType(types: !1352)
!1352 = !{!1353, !1249, !1311}
!1353 = !DIDerivedType(tag: DW_TAG_pointer_type, baseType: !1354, size: 64)
!1354 = !DIDerivedType(tag: DW_TAG_const_type, baseType: !1264)
!1355 = !DISubprogram(name: "getloc", linkageName: "_ZNKSt3__18ios_base6getlocEv", scope: !209, file: !210, line: 297, type: !1356, isLocal: false, isDefinition: false, scopeLine: 297, flags: DIFlagPublic | DIFlagPrototyped, isOptimized: false)
!1356 = !DISubroutineType(types: !1357)
!1357 = !{!316, !292}
!1358 = !DISubprogram(name: "xalloc", linkageName: "_ZNSt3__18ios_base6xallocEv", scope: !209, file: !210, line: 300, type: !12, isLocal: false, isDefinition: false, scopeLine: 300, flags: DIFlagPublic | DIFlagPrototyped, isOptimized: false)
!1359 = !DISubprogram(name: "iword", linkageName: "_ZNSt3__18ios_base5iwordEi", scope: !209, file: !210, line: 301, type: !1360, isLocal: false, isDefinition: false, scopeLine: 301, flags: DIFlagPublic | DIFlagPrototyped, isOptimized: false)
!1360 = !DISubroutineType(types: !1361)
!1361 = !{!1362, !297, !14}
!1362 = !DIDerivedType(tag: DW_TAG_reference_type, baseType: !253, size: 64)
!1363 = !DISubprogram(name: "pword", linkageName: "_ZNSt3__18ios_base5pwordEi", scope: !209, file: !210, line: 302, type: !1364, isLocal: false, isDefinition: false, scopeLine: 302, flags: DIFlagPublic | DIFlagPrototyped, isOptimized: false)
!1364 = !DISubroutineType(types: !1365)
!1365 = !{!1366, !297, !14}
!1366 = !DIDerivedType(tag: DW_TAG_reference_type, baseType: !258, size: 64)
!1367 = !DISubprogram(name: "~ios_base", scope: !209, file: !210, line: 305, type: !1368, isLocal: false, isDefinition: false, scopeLine: 305, containingType: !209, virtuality: DW_VIRTUALITY_virtual, virtualIndex: 0, flags: DIFlagPublic | DIFlagPrototyped, isOptimized: false)
!1368 = !DISubroutineType(types: !1369)
!1369 = !{null, !297}
!1370 = !DISubprogram(name: "register_callback", linkageName: "_ZNSt3__18ios_base17register_callbackEPFvNS0_5eventERS0_iEi", scope: !209, file: !210, line: 310, type: !1371, isLocal: false, isDefinition: false, scopeLine: 310, flags: DIFlagPublic | DIFlagPrototyped, isOptimized: false)
!1371 = !DISubroutineType(types: !1372)
!1372 = !{null, !297, !262, !14}
!1373 = !DISubprogram(name: "ios_base", scope: !209, file: !210, line: 313, type: !1374, isLocal: false, isDefinition: false, scopeLine: 313, flags: DIFlagPrototyped, isOptimized: false)
!1374 = !DISubroutineType(types: !1375)
!1375 = !{null, !297, !1376}
!1376 = !DIDerivedType(tag: DW_TAG_reference_type, baseType: !293, size: 64)
!1377 = !DISubprogram(name: "operator=", linkageName: "_ZNSt3__18ios_baseaSERKS0_", scope: !209, file: !210, line: 314, type: !1378, isLocal: false, isDefinition: false, scopeLine: 314, flags: DIFlagPrototyped, isOptimized: false)
!1378 = !DISubroutineType(types: !1379)
!1379 = !{!271, !297, !1376}
!1380 = !DISubprogram(name: "sync_with_stdio", linkageName: "_ZNSt3__18ios_base15sync_with_stdioEb", scope: !209, file: !210, line: 317, type: !1381, isLocal: false, isDefinition: false, scopeLine: 317, flags: DIFlagPublic | DIFlagPrototyped, isOptimized: false)
!1381 = !DISubroutineType(types: !1382)
!1382 = !{!52, !52}
!1383 = !DISubprogram(name: "rdstate", linkageName: "_ZNKSt3__18ios_base7rdstateEv", scope: !209, file: !210, line: 319, type: !1384, isLocal: false, isDefinition: false, scopeLine: 319, flags: DIFlagPublic | DIFlagPrototyped, isOptimized: false)
!1384 = !DISubroutineType(types: !1385)
!1385 = !{!236, !292}
!1386 = !DISubprogram(name: "clear", linkageName: "_ZNSt3__18ios_base5clearEj", scope: !209, file: !210, line: 320, type: !1387, isLocal: false, isDefinition: false, scopeLine: 320, flags: DIFlagPublic | DIFlagPrototyped, isOptimized: false)
!1387 = !DISubroutineType(types: !1388)
!1388 = !{null, !297, !236}
!1389 = !DISubprogram(name: "setstate", linkageName: "_ZNSt3__18ios_base8setstateEj", scope: !209, file: !210, line: 321, type: !1387, isLocal: false, isDefinition: false, scopeLine: 321, flags: DIFlagPublic | DIFlagPrototyped, isOptimized: false)
!1390 = !DISubprogram(name: "good", linkageName: "_ZNKSt3__18ios_base4goodEv", scope: !209, file: !210, line: 323, type: !1391, isLocal: false, isDefinition: false, scopeLine: 323, flags: DIFlagPublic | DIFlagPrototyped, isOptimized: false)
!1391 = !DISubroutineType(types: !1392)
!1392 = !{!52, !292}
!1393 = !DISubprogram(name: "eof", linkageName: "_ZNKSt3__18ios_base3eofEv", scope: !209, file: !210, line: 324, type: !1391, isLocal: false, isDefinition: false, scopeLine: 324, flags: DIFlagPublic | DIFlagPrototyped, isOptimized: false)
!1394 = !DISubprogram(name: "fail", linkageName: "_ZNKSt3__18ios_base4failEv", scope: !209, file: !210, line: 325, type: !1391, isLocal: false, isDefinition: false, scopeLine: 325, flags: DIFlagPublic | DIFlagPrototyped, isOptimized: false)
!1395 = !DISubprogram(name: "bad", linkageName: "_ZNKSt3__18ios_base3badEv", scope: !209, file: !210, line: 326, type: !1391, isLocal: false, isDefinition: false, scopeLine: 326, flags: DIFlagPublic | DIFlagPrototyped, isOptimized: false)
!1396 = !DISubprogram(name: "exceptions", linkageName: "_ZNKSt3__18ios_base10exceptionsEv", scope: !209, file: !210, line: 328, type: !1384, isLocal: false, isDefinition: false, scopeLine: 328, flags: DIFlagPublic | DIFlagPrototyped, isOptimized: false)
!1397 = !DISubprogram(name: "exceptions", linkageName: "_ZNSt3__18ios_base10exceptionsEj", scope: !209, file: !210, line: 329, type: !1387, isLocal: false, isDefinition: false, scopeLine: 329, flags: DIFlagPublic | DIFlagPrototyped, isOptimized: false)
!1398 = !DISubprogram(name: "__set_badbit_and_consider_rethrow", linkageName: "_ZNSt3__18ios_base33__set_badbit_and_consider_rethrowEv", scope: !209, file: !210, line: 331, type: !1368, isLocal: false, isDefinition: false, scopeLine: 331, flags: DIFlagPublic | DIFlagPrototyped, isOptimized: false)
!1399 = !DISubprogram(name: "__set_failbit_and_consider_rethrow", linkageName: "_ZNSt3__18ios_base34__set_failbit_and_consider_rethrowEv", scope: !209, file: !210, line: 332, type: !1368, isLocal: false, isDefinition: false, scopeLine: 332, flags: DIFlagPublic | DIFlagPrototyped, isOptimized: false)
!1400 = !DISubprogram(name: "ios_base", scope: !209, file: !210, line: 336, type: !1368, isLocal: false, isDefinition: false, scopeLine: 336, flags: DIFlagProtected | DIFlagPrototyped, isOptimized: false)
!1401 = !DISubprogram(name: "init", linkageName: "_ZNSt3__18ios_base4initEPv", scope: !209, file: !210, line: 339, type: !1402, isLocal: false, isDefinition: false, scopeLine: 339, flags: DIFlagProtected | DIFlagPrototyped, isOptimized: false)
!1402 = !DISubroutineType(types: !1403)
!1403 = !{null, !297, !258}
!1404 = !DISubprogram(name: "rdbuf", linkageName: "_ZNKSt3__18ios_base5rdbufEv", scope: !209, file: !210, line: 340, type: !1405, isLocal: false, isDefinition: false, scopeLine: 340, flags: DIFlagProtected | DIFlagPrototyped, isOptimized: false)
!1405 = !DISubroutineType(types: !1406)
!1406 = !{!258, !292}
!1407 = !DISubprogram(name: "rdbuf", linkageName: "_ZNSt3__18ios_base5rdbufEPv", scope: !209, file: !210, line: 343, type: !1402, isLocal: false, isDefinition: false, scopeLine: 343, flags: DIFlagProtected | DIFlagPrototyped, isOptimized: false)
!1408 = !DISubprogram(name: "__call_callbacks", linkageName: "_ZNSt3__18ios_base16__call_callbacksENS0_5eventE", scope: !209, file: !210, line: 349, type: !1409, isLocal: false, isDefinition: false, scopeLine: 349, flags: DIFlagProtected | DIFlagPrototyped, isOptimized: false)
!1409 = !DISubroutineType(types: !1410)
!1410 = !{null, !297, !266}
!1411 = !DISubprogram(name: "copyfmt", linkageName: "_ZNSt3__18ios_base7copyfmtERKS0_", scope: !209, file: !210, line: 350, type: !1374, isLocal: false, isDefinition: false, scopeLine: 350, flags: DIFlagProtected | DIFlagPrototyped, isOptimized: false)
!1412 = !DISubprogram(name: "move", linkageName: "_ZNSt3__18ios_base4moveERS0_", scope: !209, file: !210, line: 351, type: !1413, isLocal: false, isDefinition: false, scopeLine: 351, flags: DIFlagProtected | DIFlagPrototyped, isOptimized: false)
!1413 = !DISubroutineType(types: !1414)
!1414 = !{null, !297, !271}
!1415 = !DISubprogram(name: "swap", linkageName: "_ZNSt3__18ios_base4swapERS0_", scope: !209, file: !210, line: 352, type: !1413, isLocal: false, isDefinition: false, scopeLine: 352, flags: DIFlagProtected | DIFlagPrototyped, isOptimized: false)
!1416 = !DISubprogram(name: "set_rdbuf", linkageName: "_ZNSt3__18ios_base9set_rdbufEPv", scope: !209, file: !210, line: 355, type: !1402, isLocal: false, isDefinition: false, scopeLine: 355, flags: DIFlagProtected | DIFlagPrototyped, isOptimized: false)
!1417 = !DIDerivedType(tag: DW_TAG_member, name: "__tie_", scope: !205, file: !210, line: 669, baseType: !1418, size: 64, offset: 1088)
!1418 = !DIDerivedType(tag: DW_TAG_pointer_type, baseType: !201, size: 64)
!1419 = !DIDerivedType(tag: DW_TAG_member, name: "__fill_", scope: !205, file: !210, line: 670, baseType: !1420, size: 32, offset: 1152)
!1420 = !DIDerivedType(tag: DW_TAG_typedef, name: "int_type", scope: !205, file: !210, line: 591, baseType: !841)
!1421 = !DISubprogram(name: "operator bool", linkageName: "_ZNKSt3__19basic_iosIcNS_11char_traitsIcEEEcvbEv", scope: !205, file: !210, line: 605, type: !1422, isLocal: false, isDefinition: false, scopeLine: 605, flags: DIFlagPublic | DIFlagExplicit | DIFlagPrototyped, isOptimized: false)
!1422 = !DISubroutineType(types: !1423)
!1423 = !{!52, !1424}
!1424 = !DIDerivedType(tag: DW_TAG_pointer_type, baseType: !1425, size: 64, flags: DIFlagArtificial | DIFlagObjectPointer)
!1425 = !DIDerivedType(tag: DW_TAG_const_type, baseType: !205)
!1426 = !DISubprogram(name: "operator!", linkageName: "_ZNKSt3__19basic_iosIcNS_11char_traitsIcEEEntEv", scope: !205, file: !210, line: 608, type: !1422, isLocal: false, isDefinition: false, scopeLine: 608, flags: DIFlagPublic | DIFlagPrototyped, isOptimized: false)
!1427 = !DISubprogram(name: "rdstate", linkageName: "_ZNKSt3__19basic_iosIcNS_11char_traitsIcEEE7rdstateEv", scope: !205, file: !210, line: 609, type: !1428, isLocal: false, isDefinition: false, scopeLine: 609, flags: DIFlagPublic | DIFlagPrototyped, isOptimized: false)
!1428 = !DISubroutineType(types: !1429)
!1429 = !{!236, !1424}
!1430 = !DISubprogram(name: "clear", linkageName: "_ZNSt3__19basic_iosIcNS_11char_traitsIcEEE5clearEj", scope: !205, file: !210, line: 610, type: !1431, isLocal: false, isDefinition: false, scopeLine: 610, flags: DIFlagPublic | DIFlagPrototyped, isOptimized: false)
!1431 = !DISubroutineType(types: !1432)
!1432 = !{null, !1433, !236}
!1433 = !DIDerivedType(tag: DW_TAG_pointer_type, baseType: !205, size: 64, flags: DIFlagArtificial | DIFlagObjectPointer)
!1434 = !DISubprogram(name: "setstate", linkageName: "_ZNSt3__19basic_iosIcNS_11char_traitsIcEEE8setstateEj", scope: !205, file: !210, line: 611, type: !1431, isLocal: false, isDefinition: false, scopeLine: 611, flags: DIFlagPublic | DIFlagPrototyped, isOptimized: false)
!1435 = !DISubprogram(name: "good", linkageName: "_ZNKSt3__19basic_iosIcNS_11char_traitsIcEEE4goodEv", scope: !205, file: !210, line: 612, type: !1422, isLocal: false, isDefinition: false, scopeLine: 612, flags: DIFlagPublic | DIFlagPrototyped, isOptimized: false)
!1436 = !DISubprogram(name: "eof", linkageName: "_ZNKSt3__19basic_iosIcNS_11char_traitsIcEEE3eofEv", scope: !205, file: !210, line: 613, type: !1422, isLocal: false, isDefinition: false, scopeLine: 613, flags: DIFlagPublic | DIFlagPrototyped, isOptimized: false)
!1437 = !DISubprogram(name: "fail", linkageName: "_ZNKSt3__19basic_iosIcNS_11char_traitsIcEEE4failEv", scope: !205, file: !210, line: 614, type: !1422, isLocal: false, isDefinition: false, scopeLine: 614, flags: DIFlagPublic | DIFlagPrototyped, isOptimized: false)
!1438 = !DISubprogram(name: "bad", linkageName: "_ZNKSt3__19basic_iosIcNS_11char_traitsIcEEE3badEv", scope: !205, file: !210, line: 615, type: !1422, isLocal: false, isDefinition: false, scopeLine: 615, flags: DIFlagPublic | DIFlagPrototyped, isOptimized: false)
!1439 = !DISubprogram(name: "exceptions", linkageName: "_ZNKSt3__19basic_iosIcNS_11char_traitsIcEEE10exceptionsEv", scope: !205, file: !210, line: 617, type: !1428, isLocal: false, isDefinition: false, scopeLine: 617, flags: DIFlagPublic | DIFlagPrototyped, isOptimized: false)
!1440 = !DISubprogram(name: "exceptions", linkageName: "_ZNSt3__19basic_iosIcNS_11char_traitsIcEEE10exceptionsEj", scope: !205, file: !210, line: 618, type: !1431, isLocal: false, isDefinition: false, scopeLine: 618, flags: DIFlagPublic | DIFlagPrototyped, isOptimized: false)
!1441 = !DISubprogram(name: "basic_ios", scope: !205, file: !210, line: 622, type: !1442, isLocal: false, isDefinition: false, scopeLine: 622, flags: DIFlagPublic | DIFlagExplicit | DIFlagPrototyped, isOptimized: false)
!1442 = !DISubroutineType(types: !1443)
!1443 = !{null, !1433, !1444}
!1444 = !DIDerivedType(tag: DW_TAG_pointer_type, baseType: !1445, size: 64)
!1445 = distinct !DICompositeType(tag: DW_TAG_class_type, name: "basic_streambuf<char, std::__1::char_traits<char> >", scope: !20, file: !206, line: 483, size: 512, elements: !1446, vtableHolder: !1445, templateParams: !803, identifier: "_ZTSNSt3__115basic_streambufIcNS_11char_traitsIcEEEE")
!1446 = !{!1447, !1448, !1449, !1452, !1453, !1454, !1455, !1456, !1457, !1461, !1464, !1469, !1472, !1488, !1491, !1494, !1497, !1501, !1502, !1503, !1506, !1509, !1510, !1511, !1516, !1517, !1521, !1525, !1528, !1531, !1532, !1533, !1536, !1539, !1540, !1541, !1542, !1543, !1546, !1549, !1550, !1551, !1552, !1553, !1554, !1555, !1556, !1557, !1560, !1561}
!1447 = !DIDerivedType(tag: DW_TAG_member, name: "_vptr$basic_streambuf", scope: !206, file: !206, baseType: !10, size: 64, flags: DIFlagArtificial)
!1448 = !DIDerivedType(tag: DW_TAG_member, name: "__loc_", scope: !1445, file: !206, line: 290, baseType: !316, size: 64, offset: 64)
!1449 = !DIDerivedType(tag: DW_TAG_member, name: "__binp_", scope: !1445, file: !206, line: 291, baseType: !1450, size: 64, offset: 128)
!1450 = !DIDerivedType(tag: DW_TAG_pointer_type, baseType: !1451, size: 64)
!1451 = !DIDerivedType(tag: DW_TAG_typedef, name: "char_type", scope: !1445, file: !206, line: 129, baseType: !346)
!1452 = !DIDerivedType(tag: DW_TAG_member, name: "__ninp_", scope: !1445, file: !206, line: 292, baseType: !1450, size: 64, offset: 192)
!1453 = !DIDerivedType(tag: DW_TAG_member, name: "__einp_", scope: !1445, file: !206, line: 293, baseType: !1450, size: 64, offset: 256)
!1454 = !DIDerivedType(tag: DW_TAG_member, name: "__bout_", scope: !1445, file: !206, line: 294, baseType: !1450, size: 64, offset: 320)
!1455 = !DIDerivedType(tag: DW_TAG_member, name: "__nout_", scope: !1445, file: !206, line: 295, baseType: !1450, size: 64, offset: 384)
!1456 = !DIDerivedType(tag: DW_TAG_member, name: "__eout_", scope: !1445, file: !206, line: 296, baseType: !1450, size: 64, offset: 448)
!1457 = !DISubprogram(name: "~basic_streambuf", scope: !1445, file: !206, line: 135, type: !1458, isLocal: false, isDefinition: false, scopeLine: 135, containingType: !1445, virtuality: DW_VIRTUALITY_virtual, virtualIndex: 0, flags: DIFlagPublic | DIFlagPrototyped, isOptimized: false)
!1458 = !DISubroutineType(types: !1459)
!1459 = !{null, !1460}
!1460 = !DIDerivedType(tag: DW_TAG_pointer_type, baseType: !1445, size: 64, flags: DIFlagArtificial | DIFlagObjectPointer)
!1461 = !DISubprogram(name: "pubimbue", linkageName: "_ZNSt3__115basic_streambufIcNS_11char_traitsIcEEE8pubimbueERKNS_6localeE", scope: !1445, file: !206, line: 139, type: !1462, isLocal: false, isDefinition: false, scopeLine: 139, flags: DIFlagPublic | DIFlagPrototyped, isOptimized: false)
!1462 = !DISubroutineType(types: !1463)
!1463 = !{!316, !1460, !339}
!1464 = !DISubprogram(name: "getloc", linkageName: "_ZNKSt3__115basic_streambufIcNS_11char_traitsIcEEE6getlocEv", scope: !1445, file: !206, line: 147, type: !1465, isLocal: false, isDefinition: false, scopeLine: 147, flags: DIFlagPublic | DIFlagPrototyped, isOptimized: false)
!1465 = !DISubroutineType(types: !1466)
!1466 = !{!316, !1467}
!1467 = !DIDerivedType(tag: DW_TAG_pointer_type, baseType: !1468, size: 64, flags: DIFlagArtificial | DIFlagObjectPointer)
!1468 = !DIDerivedType(tag: DW_TAG_const_type, baseType: !1445)
!1469 = !DISubprogram(name: "pubsetbuf", linkageName: "_ZNSt3__115basic_streambufIcNS_11char_traitsIcEEE9pubsetbufEPcl", scope: !1445, file: !206, line: 151, type: !1470, isLocal: false, isDefinition: false, scopeLine: 151, flags: DIFlagPublic | DIFlagPrototyped, isOptimized: false)
!1470 = !DISubroutineType(types: !1471)
!1471 = !{!1444, !1460, !1450, !250}
!1472 = !DISubprogram(name: "pubseekoff", linkageName: "_ZNSt3__115basic_streambufIcNS_11char_traitsIcEEE10pubseekoffExNS_8ios_base7seekdirEj", scope: !1445, file: !206, line: 155, type: !1473, isLocal: false, isDefinition: false, scopeLine: 155, flags: DIFlagPublic | DIFlagPrototyped, isOptimized: false)
!1473 = !DISubroutineType(types: !1474)
!1474 = !{!1475, !1460, !1479, !1483, !242}
!1475 = !DIDerivedType(tag: DW_TAG_typedef, name: "pos_type", scope: !1445, file: !206, line: 132, baseType: !1476)
!1476 = !DIDerivedType(tag: DW_TAG_typedef, name: "pos_type", scope: !806, file: !807, line: 204, baseType: !1477)
!1477 = !DIDerivedType(tag: DW_TAG_typedef, name: "streampos", scope: !20, file: !200, line: 176, baseType: !1478)
!1478 = !DICompositeType(tag: DW_TAG_class_type, name: "fpos<__mbstate_t>", scope: !20, file: !200, line: 175, flags: DIFlagFwdDecl, identifier: "_ZTSNSt3__14fposI11__mbstate_tEE")
!1479 = !DIDerivedType(tag: DW_TAG_typedef, name: "off_type", scope: !1445, file: !206, line: 133, baseType: !1480)
!1480 = !DIDerivedType(tag: DW_TAG_typedef, name: "off_type", scope: !806, file: !807, line: 203, baseType: !1481)
!1481 = !DIDerivedType(tag: DW_TAG_typedef, name: "streamoff", scope: !20, file: !200, line: 187, baseType: !1482)
!1482 = !DIBasicType(name: "long long int", size: 64, encoding: DW_ATE_signed)
!1483 = !DICompositeType(tag: DW_TAG_enumeration_type, name: "seekdir", scope: !209, file: !210, line: 270, size: 32, elements: !1484, identifier: "_ZTSNSt3__18ios_base7seekdirE")
!1484 = !{!1485, !1486, !1487}
!1485 = !DIEnumerator(name: "beg", value: 0)
!1486 = !DIEnumerator(name: "cur", value: 1)
!1487 = !DIEnumerator(name: "end", value: 2)
!1488 = !DISubprogram(name: "pubseekpos", linkageName: "_ZNSt3__115basic_streambufIcNS_11char_traitsIcEEE10pubseekposENS_4fposI11__mbstate_tEEj", scope: !1445, file: !206, line: 160, type: !1489, isLocal: false, isDefinition: false, scopeLine: 160, flags: DIFlagPublic | DIFlagPrototyped, isOptimized: false)
!1489 = !DISubroutineType(types: !1490)
!1490 = !{!1475, !1460, !1475, !242}
!1491 = !DISubprogram(name: "pubsync", linkageName: "_ZNSt3__115basic_streambufIcNS_11char_traitsIcEEE7pubsyncEv", scope: !1445, file: !206, line: 165, type: !1492, isLocal: false, isDefinition: false, scopeLine: 165, flags: DIFlagPublic | DIFlagPrototyped, isOptimized: false)
!1492 = !DISubroutineType(types: !1493)
!1493 = !{!14, !1460}
!1494 = !DISubprogram(name: "in_avail", linkageName: "_ZNSt3__115basic_streambufIcNS_11char_traitsIcEEE8in_availEv", scope: !1445, file: !206, line: 170, type: !1495, isLocal: false, isDefinition: false, scopeLine: 170, flags: DIFlagPublic | DIFlagPrototyped, isOptimized: false)
!1495 = !DISubroutineType(types: !1496)
!1496 = !{!250, !1460}
!1497 = !DISubprogram(name: "snextc", linkageName: "_ZNSt3__115basic_streambufIcNS_11char_traitsIcEEE6snextcEv", scope: !1445, file: !206, line: 177, type: !1498, isLocal: false, isDefinition: false, scopeLine: 177, flags: DIFlagPublic | DIFlagPrototyped, isOptimized: false)
!1498 = !DISubroutineType(types: !1499)
!1499 = !{!1500, !1460}
!1500 = !DIDerivedType(tag: DW_TAG_typedef, name: "int_type", scope: !1445, file: !206, line: 131, baseType: !841)
!1501 = !DISubprogram(name: "sbumpc", linkageName: "_ZNSt3__115basic_streambufIcNS_11char_traitsIcEEE6sbumpcEv", scope: !1445, file: !206, line: 184, type: !1498, isLocal: false, isDefinition: false, scopeLine: 184, flags: DIFlagPublic | DIFlagPrototyped, isOptimized: false)
!1502 = !DISubprogram(name: "sgetc", linkageName: "_ZNSt3__115basic_streambufIcNS_11char_traitsIcEEE5sgetcEv", scope: !1445, file: !206, line: 191, type: !1498, isLocal: false, isDefinition: false, scopeLine: 191, flags: DIFlagPublic | DIFlagPrototyped, isOptimized: false)
!1503 = !DISubprogram(name: "sgetn", linkageName: "_ZNSt3__115basic_streambufIcNS_11char_traitsIcEEE5sgetnEPcl", scope: !1445, file: !206, line: 198, type: !1504, isLocal: false, isDefinition: false, scopeLine: 198, flags: DIFlagPublic | DIFlagPrototyped, isOptimized: false)
!1504 = !DISubroutineType(types: !1505)
!1505 = !{!250, !1460, !1450, !250}
!1506 = !DISubprogram(name: "sputbackc", linkageName: "_ZNSt3__115basic_streambufIcNS_11char_traitsIcEEE9sputbackcEc", scope: !1445, file: !206, line: 203, type: !1507, isLocal: false, isDefinition: false, scopeLine: 203, flags: DIFlagPublic | DIFlagPrototyped, isOptimized: false)
!1507 = !DISubroutineType(types: !1508)
!1508 = !{!1500, !1460, !1451}
!1509 = !DISubprogram(name: "sungetc", linkageName: "_ZNSt3__115basic_streambufIcNS_11char_traitsIcEEE7sungetcEv", scope: !1445, file: !206, line: 210, type: !1498, isLocal: false, isDefinition: false, scopeLine: 210, flags: DIFlagPublic | DIFlagPrototyped, isOptimized: false)
!1510 = !DISubprogram(name: "sputc", linkageName: "_ZNSt3__115basic_streambufIcNS_11char_traitsIcEEE5sputcEc", scope: !1445, file: !206, line: 218, type: !1507, isLocal: false, isDefinition: false, scopeLine: 218, flags: DIFlagPublic | DIFlagPrototyped, isOptimized: false)
!1511 = !DISubprogram(name: "sputn", linkageName: "_ZNSt3__115basic_streambufIcNS_11char_traitsIcEEE5sputnEPKcl", scope: !1445, file: !206, line: 226, type: !1512, isLocal: false, isDefinition: false, scopeLine: 226, flags: DIFlagPublic | DIFlagPrototyped, isOptimized: false)
!1512 = !DISubroutineType(types: !1513)
!1513 = !{!250, !1460, !1514, !250}
!1514 = !DIDerivedType(tag: DW_TAG_pointer_type, baseType: !1515, size: 64)
!1515 = !DIDerivedType(tag: DW_TAG_const_type, baseType: !1451)
!1516 = !DISubprogram(name: "basic_streambuf", scope: !1445, file: !206, line: 230, type: !1458, isLocal: false, isDefinition: false, scopeLine: 230, flags: DIFlagProtected | DIFlagPrototyped, isOptimized: false)
!1517 = !DISubprogram(name: "basic_streambuf", scope: !1445, file: !206, line: 231, type: !1518, isLocal: false, isDefinition: false, scopeLine: 231, flags: DIFlagProtected | DIFlagPrototyped, isOptimized: false)
!1518 = !DISubroutineType(types: !1519)
!1519 = !{null, !1460, !1520}
!1520 = !DIDerivedType(tag: DW_TAG_reference_type, baseType: !1468, size: 64)
!1521 = !DISubprogram(name: "operator=", linkageName: "_ZNSt3__115basic_streambufIcNS_11char_traitsIcEEEaSERKS3_", scope: !1445, file: !206, line: 232, type: !1522, isLocal: false, isDefinition: false, scopeLine: 232, flags: DIFlagProtected | DIFlagPrototyped, isOptimized: false)
!1522 = !DISubroutineType(types: !1523)
!1523 = !{!1524, !1460, !1520}
!1524 = !DIDerivedType(tag: DW_TAG_reference_type, baseType: !1445, size: 64)
!1525 = !DISubprogram(name: "swap", linkageName: "_ZNSt3__115basic_streambufIcNS_11char_traitsIcEEE4swapERS3_", scope: !1445, file: !206, line: 233, type: !1526, isLocal: false, isDefinition: false, scopeLine: 233, flags: DIFlagProtected | DIFlagPrototyped, isOptimized: false)
!1526 = !DISubroutineType(types: !1527)
!1527 = !{null, !1460, !1524}
!1528 = !DISubprogram(name: "eback", linkageName: "_ZNKSt3__115basic_streambufIcNS_11char_traitsIcEEE5ebackEv", scope: !1445, file: !206, line: 236, type: !1529, isLocal: false, isDefinition: false, scopeLine: 236, flags: DIFlagProtected | DIFlagPrototyped, isOptimized: false)
!1529 = !DISubroutineType(types: !1530)
!1530 = !{!1450, !1467}
!1531 = !DISubprogram(name: "gptr", linkageName: "_ZNKSt3__115basic_streambufIcNS_11char_traitsIcEEE4gptrEv", scope: !1445, file: !206, line: 237, type: !1529, isLocal: false, isDefinition: false, scopeLine: 237, flags: DIFlagProtected | DIFlagPrototyped, isOptimized: false)
!1532 = !DISubprogram(name: "egptr", linkageName: "_ZNKSt3__115basic_streambufIcNS_11char_traitsIcEEE5egptrEv", scope: !1445, file: !206, line: 238, type: !1529, isLocal: false, isDefinition: false, scopeLine: 238, flags: DIFlagProtected | DIFlagPrototyped, isOptimized: false)
!1533 = !DISubprogram(name: "gbump", linkageName: "_ZNSt3__115basic_streambufIcNS_11char_traitsIcEEE5gbumpEi", scope: !1445, file: !206, line: 241, type: !1534, isLocal: false, isDefinition: false, scopeLine: 241, flags: DIFlagProtected | DIFlagPrototyped, isOptimized: false)
!1534 = !DISubroutineType(types: !1535)
!1535 = !{null, !1460, !14}
!1536 = !DISubprogram(name: "setg", linkageName: "_ZNSt3__115basic_streambufIcNS_11char_traitsIcEEE4setgEPcS4_S4_", scope: !1445, file: !206, line: 244, type: !1537, isLocal: false, isDefinition: false, scopeLine: 244, flags: DIFlagProtected | DIFlagPrototyped, isOptimized: false)
!1537 = !DISubroutineType(types: !1538)
!1538 = !{null, !1460, !1450, !1450, !1450}
!1539 = !DISubprogram(name: "pbase", linkageName: "_ZNKSt3__115basic_streambufIcNS_11char_traitsIcEEE5pbaseEv", scope: !1445, file: !206, line: 251, type: !1529, isLocal: false, isDefinition: false, scopeLine: 251, flags: DIFlagProtected | DIFlagPrototyped, isOptimized: false)
!1540 = !DISubprogram(name: "pptr", linkageName: "_ZNKSt3__115basic_streambufIcNS_11char_traitsIcEEE4pptrEv", scope: !1445, file: !206, line: 252, type: !1529, isLocal: false, isDefinition: false, scopeLine: 252, flags: DIFlagProtected | DIFlagPrototyped, isOptimized: false)
!1541 = !DISubprogram(name: "epptr", linkageName: "_ZNKSt3__115basic_streambufIcNS_11char_traitsIcEEE5epptrEv", scope: !1445, file: !206, line: 253, type: !1529, isLocal: false, isDefinition: false, scopeLine: 253, flags: DIFlagProtected | DIFlagPrototyped, isOptimized: false)
!1542 = !DISubprogram(name: "pbump", linkageName: "_ZNSt3__115basic_streambufIcNS_11char_traitsIcEEE5pbumpEi", scope: !1445, file: !206, line: 256, type: !1534, isLocal: false, isDefinition: false, scopeLine: 256, flags: DIFlagProtected | DIFlagPrototyped, isOptimized: false)
!1543 = !DISubprogram(name: "setp", linkageName: "_ZNSt3__115basic_streambufIcNS_11char_traitsIcEEE4setpEPcS4_", scope: !1445, file: !206, line: 259, type: !1544, isLocal: false, isDefinition: false, scopeLine: 259, flags: DIFlagProtected | DIFlagPrototyped, isOptimized: false)
!1544 = !DISubroutineType(types: !1545)
!1545 = !{null, !1460, !1450, !1450}
!1546 = !DISubprogram(name: "imbue", linkageName: "_ZNSt3__115basic_streambufIcNS_11char_traitsIcEEE5imbueERKNS_6localeE", scope: !1445, file: !206, line: 266, type: !1547, isLocal: false, isDefinition: false, scopeLine: 266, containingType: !1445, virtuality: DW_VIRTUALITY_virtual, virtualIndex: 2, flags: DIFlagProtected | DIFlagPrototyped, isOptimized: false)
!1547 = !DISubroutineType(types: !1548)
!1548 = !{null, !1460, !339}
!1549 = !DISubprogram(name: "setbuf", linkageName: "_ZNSt3__115basic_streambufIcNS_11char_traitsIcEEE6setbufEPcl", scope: !1445, file: !206, line: 269, type: !1470, isLocal: false, isDefinition: false, scopeLine: 269, containingType: !1445, virtuality: DW_VIRTUALITY_virtual, virtualIndex: 3, flags: DIFlagProtected | DIFlagPrototyped, isOptimized: false)
!1550 = !DISubprogram(name: "seekoff", linkageName: "_ZNSt3__115basic_streambufIcNS_11char_traitsIcEEE7seekoffExNS_8ios_base7seekdirEj", scope: !1445, file: !206, line: 270, type: !1473, isLocal: false, isDefinition: false, scopeLine: 270, containingType: !1445, virtuality: DW_VIRTUALITY_virtual, virtualIndex: 4, flags: DIFlagProtected | DIFlagPrototyped, isOptimized: false)
!1551 = !DISubprogram(name: "seekpos", linkageName: "_ZNSt3__115basic_streambufIcNS_11char_traitsIcEEE7seekposENS_4fposI11__mbstate_tEEj", scope: !1445, file: !206, line: 272, type: !1489, isLocal: false, isDefinition: false, scopeLine: 272, containingType: !1445, virtuality: DW_VIRTUALITY_virtual, virtualIndex: 5, flags: DIFlagProtected | DIFlagPrototyped, isOptimized: false)
!1552 = !DISubprogram(name: "sync", linkageName: "_ZNSt3__115basic_streambufIcNS_11char_traitsIcEEE4syncEv", scope: !1445, file: !206, line: 274, type: !1492, isLocal: false, isDefinition: false, scopeLine: 274, containingType: !1445, virtuality: DW_VIRTUALITY_virtual, virtualIndex: 6, flags: DIFlagProtected | DIFlagPrototyped, isOptimized: false)
!1553 = !DISubprogram(name: "showmanyc", linkageName: "_ZNSt3__115basic_streambufIcNS_11char_traitsIcEEE9showmanycEv", scope: !1445, file: !206, line: 277, type: !1495, isLocal: false, isDefinition: false, scopeLine: 277, containingType: !1445, virtuality: DW_VIRTUALITY_virtual, virtualIndex: 7, flags: DIFlagProtected | DIFlagPrototyped, isOptimized: false)
!1554 = !DISubprogram(name: "xsgetn", linkageName: "_ZNSt3__115basic_streambufIcNS_11char_traitsIcEEE6xsgetnEPcl", scope: !1445, file: !206, line: 278, type: !1504, isLocal: false, isDefinition: false, scopeLine: 278, containingType: !1445, virtuality: DW_VIRTUALITY_virtual, virtualIndex: 8, flags: DIFlagProtected | DIFlagPrototyped, isOptimized: false)
!1555 = !DISubprogram(name: "underflow", linkageName: "_ZNSt3__115basic_streambufIcNS_11char_traitsIcEEE9underflowEv", scope: !1445, file: !206, line: 279, type: !1498, isLocal: false, isDefinition: false, scopeLine: 279, containingType: !1445, virtuality: DW_VIRTUALITY_virtual, virtualIndex: 9, flags: DIFlagProtected | DIFlagPrototyped, isOptimized: false)
!1556 = !DISubprogram(name: "uflow", linkageName: "_ZNSt3__115basic_streambufIcNS_11char_traitsIcEEE5uflowEv", scope: !1445, file: !206, line: 280, type: !1498, isLocal: false, isDefinition: false, scopeLine: 280, containingType: !1445, virtuality: DW_VIRTUALITY_virtual, virtualIndex: 10, flags: DIFlagProtected | DIFlagPrototyped, isOptimized: false)
!1557 = !DISubprogram(name: "pbackfail", linkageName: "_ZNSt3__115basic_streambufIcNS_11char_traitsIcEEE9pbackfailEi", scope: !1445, file: !206, line: 283, type: !1558, isLocal: false, isDefinition: false, scopeLine: 283, containingType: !1445, virtuality: DW_VIRTUALITY_virtual, virtualIndex: 11, flags: DIFlagProtected | DIFlagPrototyped, isOptimized: false)
!1558 = !DISubroutineType(types: !1559)
!1559 = !{!1500, !1460, !1500}
!1560 = !DISubprogram(name: "xsputn", linkageName: "_ZNSt3__115basic_streambufIcNS_11char_traitsIcEEE6xsputnEPKcl", scope: !1445, file: !206, line: 286, type: !1512, isLocal: false, isDefinition: false, scopeLine: 286, containingType: !1445, virtuality: DW_VIRTUALITY_virtual, virtualIndex: 12, flags: DIFlagProtected | DIFlagPrototyped, isOptimized: false)
!1561 = !DISubprogram(name: "overflow", linkageName: "_ZNSt3__115basic_streambufIcNS_11char_traitsIcEEE8overflowEi", scope: !1445, file: !206, line: 287, type: !1558, isLocal: false, isDefinition: false, scopeLine: 287, containingType: !1445, virtuality: DW_VIRTUALITY_virtual, virtualIndex: 13, flags: DIFlagProtected | DIFlagPrototyped, isOptimized: false)
!1562 = !DISubprogram(name: "~basic_ios", scope: !205, file: !210, line: 623, type: !1563, isLocal: false, isDefinition: false, scopeLine: 623, containingType: !205, virtuality: DW_VIRTUALITY_virtual, virtualIndex: 0, flags: DIFlagPublic | DIFlagPrototyped, isOptimized: false)
!1563 = !DISubroutineType(types: !1564)
!1564 = !{null, !1433}
!1565 = !DISubprogram(name: "tie", linkageName: "_ZNKSt3__19basic_iosIcNS_11char_traitsIcEEE3tieEv", scope: !205, file: !210, line: 627, type: !1566, isLocal: false, isDefinition: false, scopeLine: 627, flags: DIFlagPublic | DIFlagPrototyped, isOptimized: false)
!1566 = !DISubroutineType(types: !1567)
!1567 = !{!1418, !1424}
!1568 = !DISubprogram(name: "tie", linkageName: "_ZNSt3__19basic_iosIcNS_11char_traitsIcEEE3tieEPNS_13basic_ostreamIcS2_EE", scope: !205, file: !210, line: 629, type: !1569, isLocal: false, isDefinition: false, scopeLine: 629, flags: DIFlagPublic | DIFlagPrototyped, isOptimized: false)
!1569 = !DISubroutineType(types: !1570)
!1570 = !{!1418, !1433, !1418}
!1571 = !DISubprogram(name: "rdbuf", linkageName: "_ZNKSt3__19basic_iosIcNS_11char_traitsIcEEE5rdbufEv", scope: !205, file: !210, line: 632, type: !1572, isLocal: false, isDefinition: false, scopeLine: 632, flags: DIFlagPublic | DIFlagPrototyped, isOptimized: false)
!1572 = !DISubroutineType(types: !1573)
!1573 = !{!1444, !1424}
!1574 = !DISubprogram(name: "rdbuf", linkageName: "_ZNSt3__19basic_iosIcNS_11char_traitsIcEEE5rdbufEPNS_15basic_streambufIcS2_EE", scope: !205, file: !210, line: 634, type: !1575, isLocal: false, isDefinition: false, scopeLine: 634, flags: DIFlagPublic | DIFlagPrototyped, isOptimized: false)
!1575 = !DISubroutineType(types: !1576)
!1576 = !{!1444, !1433, !1444}
!1577 = !DISubprogram(name: "copyfmt", linkageName: "_ZNSt3__19basic_iosIcNS_11char_traitsIcEEE7copyfmtERKS3_", scope: !205, file: !210, line: 636, type: !1578, isLocal: false, isDefinition: false, scopeLine: 636, flags: DIFlagPublic | DIFlagPrototyped, isOptimized: false)
!1578 = !DISubroutineType(types: !1579)
!1579 = !{!1580, !1433, !1581}
!1580 = !DIDerivedType(tag: DW_TAG_reference_type, baseType: !205, size: 64)
!1581 = !DIDerivedType(tag: DW_TAG_reference_type, baseType: !1425, size: 64)
!1582 = !DISubprogram(name: "fill", linkageName: "_ZNKSt3__19basic_iosIcNS_11char_traitsIcEEE4fillEv", scope: !205, file: !210, line: 639, type: !1583, isLocal: false, isDefinition: false, scopeLine: 639, flags: DIFlagPublic | DIFlagPrototyped, isOptimized: false)
!1583 = !DISubroutineType(types: !1584)
!1584 = !{!1585, !1424}
!1585 = !DIDerivedType(tag: DW_TAG_typedef, name: "char_type", scope: !205, file: !210, line: 588, baseType: !346)
!1586 = !DISubprogram(name: "fill", linkageName: "_ZNSt3__19basic_iosIcNS_11char_traitsIcEEE4fillEc", scope: !205, file: !210, line: 641, type: !1587, isLocal: false, isDefinition: false, scopeLine: 641, flags: DIFlagPublic | DIFlagPrototyped, isOptimized: false)
!1587 = !DISubroutineType(types: !1588)
!1588 = !{!1585, !1433, !1585}
!1589 = !DISubprogram(name: "imbue", linkageName: "_ZNSt3__19basic_iosIcNS_11char_traitsIcEEE5imbueERKNS_6localeE", scope: !205, file: !210, line: 644, type: !1590, isLocal: false, isDefinition: false, scopeLine: 644, flags: DIFlagPublic | DIFlagPrototyped, isOptimized: false)
!1590 = !DISubroutineType(types: !1591)
!1591 = !{!316, !1433, !339}
!1592 = !DISubprogram(name: "narrow", linkageName: "_ZNKSt3__19basic_iosIcNS_11char_traitsIcEEE6narrowEcc", scope: !205, file: !210, line: 647, type: !1593, isLocal: false, isDefinition: false, scopeLine: 647, flags: DIFlagPublic | DIFlagPrototyped, isOptimized: false)
!1593 = !DISubroutineType(types: !1594)
!1594 = !{!346, !1424, !1585, !346}
!1595 = !DISubprogram(name: "widen", linkageName: "_ZNKSt3__19basic_iosIcNS_11char_traitsIcEEE5widenEc", scope: !205, file: !210, line: 649, type: !1596, isLocal: false, isDefinition: false, scopeLine: 649, flags: DIFlagPublic | DIFlagPrototyped, isOptimized: false)
!1596 = !DISubroutineType(types: !1597)
!1597 = !{!1585, !1424, !346}
!1598 = !DISubprogram(name: "basic_ios", scope: !205, file: !210, line: 653, type: !1563, isLocal: false, isDefinition: false, scopeLine: 653, flags: DIFlagProtected | DIFlagPrototyped, isOptimized: false)
!1599 = !DISubprogram(name: "init", linkageName: "_ZNSt3__19basic_iosIcNS_11char_traitsIcEEE4initEPNS_15basic_streambufIcS2_EE", scope: !205, file: !210, line: 656, type: !1442, isLocal: false, isDefinition: false, scopeLine: 656, flags: DIFlagProtected | DIFlagPrototyped, isOptimized: false)
!1600 = !DISubprogram(name: "move", linkageName: "_ZNSt3__19basic_iosIcNS_11char_traitsIcEEE4moveERS3_", scope: !205, file: !210, line: 659, type: !1601, isLocal: false, isDefinition: false, scopeLine: 659, flags: DIFlagProtected | DIFlagPrototyped, isOptimized: false)
!1601 = !DISubroutineType(types: !1602)
!1602 = !{null, !1433, !1580}
!1603 = !DISubprogram(name: "move", linkageName: "_ZNSt3__19basic_iosIcNS_11char_traitsIcEEE4moveEOS3_", scope: !205, file: !210, line: 662, type: !1604, isLocal: false, isDefinition: false, scopeLine: 662, flags: DIFlagProtected | DIFlagPrototyped, isOptimized: false)
!1604 = !DISubroutineType(types: !1605)
!1605 = !{null, !1433, !1606}
!1606 = !DIDerivedType(tag: DW_TAG_rvalue_reference_type, baseType: !205, size: 64)
!1607 = !DISubprogram(name: "swap", linkageName: "_ZNSt3__19basic_iosIcNS_11char_traitsIcEEE4swapERS3_", scope: !205, file: !210, line: 665, type: !1601, isLocal: false, isDefinition: false, scopeLine: 665, flags: DIFlagProtected | DIFlagPrototyped, isOptimized: false)
!1608 = !DISubprogram(name: "set_rdbuf", linkageName: "_ZNSt3__19basic_iosIcNS_11char_traitsIcEEE9set_rdbufEPNS_15basic_streambufIcS2_EE", scope: !205, file: !210, line: 667, type: !1442, isLocal: false, isDefinition: false, scopeLine: 667, flags: DIFlagProtected | DIFlagPrototyped, isOptimized: false)
!1609 = !DIDerivedType(tag: DW_TAG_member, name: "_vptr$basic_ostream", scope: !202, file: !202, baseType: !10, size: 64, flags: DIFlagArtificial)
!1610 = !DISubprogram(name: "basic_ostream", scope: !201, file: !202, line: 164, type: !1611, isLocal: false, isDefinition: false, scopeLine: 164, flags: DIFlagPublic | DIFlagExplicit | DIFlagPrototyped, isOptimized: false)
!1611 = !DISubroutineType(types: !1612)
!1612 = !{null, !1613, !1444}
!1613 = !DIDerivedType(tag: DW_TAG_pointer_type, baseType: !201, size: 64, flags: DIFlagArtificial | DIFlagObjectPointer)
!1614 = !DISubprogram(name: "~basic_ostream", scope: !201, file: !202, line: 166, type: !1615, isLocal: false, isDefinition: false, scopeLine: 166, containingType: !201, virtuality: DW_VIRTUALITY_virtual, virtualIndex: 0, flags: DIFlagPublic | DIFlagPrototyped, isOptimized: false)
!1615 = !DISubroutineType(types: !1616)
!1616 = !{null, !1613}
!1617 = !DISubprogram(name: "basic_ostream", scope: !201, file: !202, line: 170, type: !1618, isLocal: false, isDefinition: false, scopeLine: 170, flags: DIFlagProtected | DIFlagPrototyped, isOptimized: false)
!1618 = !DISubroutineType(types: !1619)
!1619 = !{null, !1613, !1620}
!1620 = !DIDerivedType(tag: DW_TAG_rvalue_reference_type, baseType: !201, size: 64)
!1621 = !DISubprogram(name: "operator=", linkageName: "_ZNSt3__113basic_ostreamIcNS_11char_traitsIcEEEaSEOS3_", scope: !201, file: !202, line: 174, type: !1622, isLocal: false, isDefinition: false, scopeLine: 174, flags: DIFlagProtected | DIFlagPrototyped, isOptimized: false)
!1622 = !DISubroutineType(types: !1623)
!1623 = !{!1624, !1613, !1620}
!1624 = !DIDerivedType(tag: DW_TAG_reference_type, baseType: !201, size: 64)
!1625 = !DISubprogram(name: "swap", linkageName: "_ZNSt3__113basic_ostreamIcNS_11char_traitsIcEEE4swapERS3_", scope: !201, file: !202, line: 177, type: !1626, isLocal: false, isDefinition: false, scopeLine: 177, flags: DIFlagProtected | DIFlagPrototyped, isOptimized: false)
!1626 = !DISubroutineType(types: !1627)
!1627 = !{null, !1613, !1624}
!1628 = !DISubprogram(name: "basic_ostream", scope: !201, file: !202, line: 181, type: !1629, isLocal: false, isDefinition: false, scopeLine: 181, flags: DIFlagProtected | DIFlagPrototyped, isOptimized: false)
!1629 = !DISubroutineType(types: !1630)
!1630 = !{null, !1613, !1631}
!1631 = !DIDerivedType(tag: DW_TAG_reference_type, baseType: !1632, size: 64)
!1632 = !DIDerivedType(tag: DW_TAG_const_type, baseType: !201)
!1633 = !DISubprogram(name: "operator=", linkageName: "_ZNSt3__113basic_ostreamIcNS_11char_traitsIcEEEaSERKS3_", scope: !201, file: !202, line: 182, type: !1634, isLocal: false, isDefinition: false, scopeLine: 182, flags: DIFlagProtected | DIFlagPrototyped, isOptimized: false)
!1634 = !DISubroutineType(types: !1635)
!1635 = !{!1624, !1613, !1631}
!1636 = !DISubprogram(name: "operator<<", linkageName: "_ZNSt3__113basic_ostreamIcNS_11char_traitsIcEEElsEPFRS3_S4_E", scope: !201, file: !202, line: 194, type: !1637, isLocal: false, isDefinition: false, scopeLine: 194, flags: DIFlagPublic | DIFlagPrototyped, isOptimized: false)
!1637 = !DISubroutineType(types: !1638)
!1638 = !{!1624, !1613, !1639}
!1639 = !DIDerivedType(tag: DW_TAG_pointer_type, baseType: !1640, size: 64)
!1640 = !DISubroutineType(types: !1641)
!1641 = !{!1624, !1624}
!1642 = !DISubprogram(name: "operator<<", linkageName: "_ZNSt3__113basic_ostreamIcNS_11char_traitsIcEEElsEPFRNS_9basic_iosIcS2_EES6_E", scope: !201, file: !202, line: 198, type: !1643, isLocal: false, isDefinition: false, scopeLine: 198, flags: DIFlagPublic | DIFlagPrototyped, isOptimized: false)
!1643 = !DISubroutineType(types: !1644)
!1644 = !{!1624, !1613, !1645}
!1645 = !DIDerivedType(tag: DW_TAG_pointer_type, baseType: !1646, size: 64)
!1646 = !DISubroutineType(types: !1647)
!1647 = !{!1580, !1580}
!1648 = !DISubprogram(name: "operator<<", linkageName: "_ZNSt3__113basic_ostreamIcNS_11char_traitsIcEEElsEPFRNS_8ios_baseES5_E", scope: !201, file: !202, line: 203, type: !1649, isLocal: false, isDefinition: false, scopeLine: 203, flags: DIFlagPublic | DIFlagPrototyped, isOptimized: false)
!1649 = !DISubroutineType(types: !1650)
!1650 = !{!1624, !1613, !1651}
!1651 = !DIDerivedType(tag: DW_TAG_pointer_type, baseType: !1652, size: 64)
!1652 = !DISubroutineType(types: !1653)
!1653 = !{!271, !271}
!1654 = !DISubprogram(name: "operator<<", linkageName: "_ZNSt3__113basic_ostreamIcNS_11char_traitsIcEEElsEb", scope: !201, file: !202, line: 206, type: !1655, isLocal: false, isDefinition: false, scopeLine: 206, flags: DIFlagPublic | DIFlagPrototyped, isOptimized: false)
!1655 = !DISubroutineType(types: !1656)
!1656 = !{!1624, !1613, !52}
!1657 = !DISubprogram(name: "operator<<", linkageName: "_ZNSt3__113basic_ostreamIcNS_11char_traitsIcEEElsEs", scope: !201, file: !202, line: 207, type: !1658, isLocal: false, isDefinition: false, scopeLine: 207, flags: DIFlagPublic | DIFlagPrototyped, isOptimized: false)
!1658 = !DISubroutineType(types: !1659)
!1659 = !{!1624, !1613, !1660}
!1660 = !DIBasicType(name: "short", size: 16, encoding: DW_ATE_signed)
!1661 = !DISubprogram(name: "operator<<", linkageName: "_ZNSt3__113basic_ostreamIcNS_11char_traitsIcEEElsEt", scope: !201, file: !202, line: 208, type: !1662, isLocal: false, isDefinition: false, scopeLine: 208, flags: DIFlagPublic | DIFlagPrototyped, isOptimized: false)
!1662 = !DISubroutineType(types: !1663)
!1663 = !{!1624, !1613, !1664}
!1664 = !DIBasicType(name: "unsigned short", size: 16, encoding: DW_ATE_unsigned)
!1665 = !DISubprogram(name: "operator<<", linkageName: "_ZNSt3__113basic_ostreamIcNS_11char_traitsIcEEElsEi", scope: !201, file: !202, line: 209, type: !1666, isLocal: false, isDefinition: false, scopeLine: 209, flags: DIFlagPublic | DIFlagPrototyped, isOptimized: false)
!1666 = !DISubroutineType(types: !1667)
!1667 = !{!1624, !1613, !14}
!1668 = !DISubprogram(name: "operator<<", linkageName: "_ZNSt3__113basic_ostreamIcNS_11char_traitsIcEEElsEj", scope: !201, file: !202, line: 210, type: !1669, isLocal: false, isDefinition: false, scopeLine: 210, flags: DIFlagPublic | DIFlagPrototyped, isOptimized: false)
!1669 = !DISubroutineType(types: !1670)
!1670 = !{!1624, !1613, !216}
!1671 = !DISubprogram(name: "operator<<", linkageName: "_ZNSt3__113basic_ostreamIcNS_11char_traitsIcEEElsEl", scope: !201, file: !202, line: 211, type: !1672, isLocal: false, isDefinition: false, scopeLine: 211, flags: DIFlagPublic | DIFlagPrototyped, isOptimized: false)
!1672 = !DISubroutineType(types: !1673)
!1673 = !{!1624, !1613, !253}
!1674 = !DISubprogram(name: "operator<<", linkageName: "_ZNSt3__113basic_ostreamIcNS_11char_traitsIcEEElsEm", scope: !201, file: !202, line: 212, type: !1675, isLocal: false, isDefinition: false, scopeLine: 212, flags: DIFlagPublic | DIFlagPrototyped, isOptimized: false)
!1675 = !DISubroutineType(types: !1676)
!1676 = !{!1624, !1613, !276}
!1677 = !DISubprogram(name: "operator<<", linkageName: "_ZNSt3__113basic_ostreamIcNS_11char_traitsIcEEElsEx", scope: !201, file: !202, line: 213, type: !1678, isLocal: false, isDefinition: false, scopeLine: 213, flags: DIFlagPublic | DIFlagPrototyped, isOptimized: false)
!1678 = !DISubroutineType(types: !1679)
!1679 = !{!1624, !1613, !1482}
!1680 = !DISubprogram(name: "operator<<", linkageName: "_ZNSt3__113basic_ostreamIcNS_11char_traitsIcEEElsEy", scope: !201, file: !202, line: 214, type: !1681, isLocal: false, isDefinition: false, scopeLine: 214, flags: DIFlagPublic | DIFlagPrototyped, isOptimized: false)
!1681 = !DISubroutineType(types: !1682)
!1682 = !{!1624, !1613, !1683}
!1683 = !DIBasicType(name: "long long unsigned int", size: 64, encoding: DW_ATE_unsigned)
!1684 = !DISubprogram(name: "operator<<", linkageName: "_ZNSt3__113basic_ostreamIcNS_11char_traitsIcEEElsEf", scope: !201, file: !202, line: 215, type: !1685, isLocal: false, isDefinition: false, scopeLine: 215, flags: DIFlagPublic | DIFlagPrototyped, isOptimized: false)
!1685 = !DISubroutineType(types: !1686)
!1686 = !{!1624, !1613, !1687}
!1687 = !DIBasicType(name: "float", size: 32, encoding: DW_ATE_float)
!1688 = !DISubprogram(name: "operator<<", linkageName: "_ZNSt3__113basic_ostreamIcNS_11char_traitsIcEEElsEd", scope: !201, file: !202, line: 216, type: !1689, isLocal: false, isDefinition: false, scopeLine: 216, flags: DIFlagPublic | DIFlagPrototyped, isOptimized: false)
!1689 = !DISubroutineType(types: !1690)
!1690 = !{!1624, !1613, !1691}
!1691 = !DIBasicType(name: "double", size: 64, encoding: DW_ATE_float)
!1692 = !DISubprogram(name: "operator<<", linkageName: "_ZNSt3__113basic_ostreamIcNS_11char_traitsIcEEElsEe", scope: !201, file: !202, line: 217, type: !1693, isLocal: false, isDefinition: false, scopeLine: 217, flags: DIFlagPublic | DIFlagPrototyped, isOptimized: false)
!1693 = !DISubroutineType(types: !1694)
!1694 = !{!1624, !1613, !1695}
!1695 = !DIBasicType(name: "long double", size: 128, encoding: DW_ATE_float)
!1696 = !DISubprogram(name: "operator<<", linkageName: "_ZNSt3__113basic_ostreamIcNS_11char_traitsIcEEElsEPKv", scope: !201, file: !202, line: 218, type: !1697, isLocal: false, isDefinition: false, scopeLine: 218, flags: DIFlagPublic | DIFlagPrototyped, isOptimized: false)
!1697 = !DISubroutineType(types: !1698)
!1698 = !{!1624, !1613, !410}
!1699 = !DISubprogram(name: "operator<<", linkageName: "_ZNSt3__113basic_ostreamIcNS_11char_traitsIcEEElsEPNS_15basic_streambufIcS2_EE", scope: !201, file: !202, line: 219, type: !1700, isLocal: false, isDefinition: false, scopeLine: 219, flags: DIFlagPublic | DIFlagPrototyped, isOptimized: false)
!1700 = !DISubroutineType(types: !1701)
!1701 = !{!1624, !1613, !1444}
!1702 = !DISubprogram(name: "put", linkageName: "_ZNSt3__113basic_ostreamIcNS_11char_traitsIcEEE3putEc", scope: !201, file: !202, line: 222, type: !1703, isLocal: false, isDefinition: false, scopeLine: 222, flags: DIFlagPublic | DIFlagPrototyped, isOptimized: false)
!1703 = !DISubroutineType(types: !1704)
!1704 = !{!1624, !1613, !1705}
!1705 = !DIDerivedType(tag: DW_TAG_typedef, name: "char_type", scope: !201, file: !202, line: 156, baseType: !346)
!1706 = !DISubprogram(name: "write", linkageName: "_ZNSt3__113basic_ostreamIcNS_11char_traitsIcEEE5writeEPKcl", scope: !201, file: !202, line: 223, type: !1707, isLocal: false, isDefinition: false, scopeLine: 223, flags: DIFlagPublic | DIFlagPrototyped, isOptimized: false)
!1707 = !DISubroutineType(types: !1708)
!1708 = !{!1624, !1613, !1709, !250}
!1709 = !DIDerivedType(tag: DW_TAG_pointer_type, baseType: !1710, size: 64)
!1710 = !DIDerivedType(tag: DW_TAG_const_type, baseType: !1705)
!1711 = !DISubprogram(name: "flush", linkageName: "_ZNSt3__113basic_ostreamIcNS_11char_traitsIcEEE5flushEv", scope: !201, file: !202, line: 224, type: !1712, isLocal: false, isDefinition: false, scopeLine: 224, flags: DIFlagPublic | DIFlagPrototyped, isOptimized: false)
!1712 = !DISubroutineType(types: !1713)
!1713 = !{!1624, !1613}
!1714 = !DISubprogram(name: "tellp", linkageName: "_ZNSt3__113basic_ostreamIcNS_11char_traitsIcEEE5tellpEv", scope: !201, file: !202, line: 228, type: !1715, isLocal: false, isDefinition: false, scopeLine: 228, flags: DIFlagPublic | DIFlagPrototyped, isOptimized: false)
!1715 = !DISubroutineType(types: !1716)
!1716 = !{!1717, !1613}
!1717 = !DIDerivedType(tag: DW_TAG_typedef, name: "pos_type", scope: !201, file: !202, line: 159, baseType: !1476)
!1718 = !DISubprogram(name: "seekp", linkageName: "_ZNSt3__113basic_ostreamIcNS_11char_traitsIcEEE5seekpENS_4fposI11__mbstate_tEE", scope: !201, file: !202, line: 230, type: !1719, isLocal: false, isDefinition: false, scopeLine: 230, flags: DIFlagPublic | DIFlagPrototyped, isOptimized: false)
!1719 = !DISubroutineType(types: !1720)
!1720 = !{!1624, !1613, !1717}
!1721 = !DISubprogram(name: "seekp", linkageName: "_ZNSt3__113basic_ostreamIcNS_11char_traitsIcEEE5seekpExNS_8ios_base7seekdirE", scope: !201, file: !202, line: 232, type: !1722, isLocal: false, isDefinition: false, scopeLine: 232, flags: DIFlagPublic | DIFlagPrototyped, isOptimized: false)
!1722 = !DISubroutineType(types: !1723)
!1723 = !{!1624, !1613, !1724, !1483}
!1724 = !DIDerivedType(tag: DW_TAG_typedef, name: "off_type", scope: !201, file: !202, line: 160, baseType: !1480)
!1725 = !DISubprogram(name: "basic_ostream", scope: !201, file: !202, line: 236, type: !1615, isLocal: false, isDefinition: false, scopeLine: 236, flags: DIFlagProtected | DIFlagPrototyped, isOptimized: false)
!1726 = !DISubprogram(name: "operator+=", linkageName: "_ZN14altered_carbon2js9ACJsValuepLERKNSt3__110unique_ptrIS1_NS2_14default_deleteIS1_EEEE", scope: !5, file: !4, line: 105, type: !1727, isLocal: false, isDefinition: false, scopeLine: 105, containingType: !5, virtuality: DW_VIRTUALITY_virtual, virtualIndex: 4, flags: DIFlagPublic | DIFlagPrototyped, isOptimized: false)
!1727 = !DISubroutineType(types: !1728)
!1728 = !{!141, !184, !1729}
!1729 = !DIDerivedType(tag: DW_TAG_reference_type, baseType: !17, size: 64)
!1730 = !DISubprogram(name: "operator-=", linkageName: "_ZN14altered_carbon2js9ACJsValuemIERKNSt3__110unique_ptrIS1_NS2_14default_deleteIS1_EEEE", scope: !5, file: !4, line: 106, type: !1727, isLocal: false, isDefinition: false, scopeLine: 106, containingType: !5, virtuality: DW_VIRTUALITY_virtual, virtualIndex: 5, flags: DIFlagPublic | DIFlagPrototyped, isOptimized: false)
!1731 = !DISubprogram(name: "operator*=", linkageName: "_ZN14altered_carbon2js9ACJsValuemLERKNSt3__110unique_ptrIS1_NS2_14default_deleteIS1_EEEE", scope: !5, file: !4, line: 107, type: !1727, isLocal: false, isDefinition: false, scopeLine: 107, containingType: !5, virtuality: DW_VIRTUALITY_virtual, virtualIndex: 6, flags: DIFlagPublic | DIFlagPrototyped, isOptimized: false)
!1732 = !DISubprogram(name: "operator/=", linkageName: "_ZN14altered_carbon2js9ACJsValuedVERKNSt3__110unique_ptrIS1_NS2_14default_deleteIS1_EEEE", scope: !5, file: !4, line: 108, type: !1727, isLocal: false, isDefinition: false, scopeLine: 108, containingType: !5, virtuality: DW_VIRTUALITY_virtual, virtualIndex: 7, flags: DIFlagPublic | DIFlagPrototyped, isOptimized: false)
!1733 = !DISubprogram(name: "operator%=", linkageName: "_ZN14altered_carbon2js9ACJsValuerMERKNSt3__110unique_ptrIS1_NS2_14default_deleteIS1_EEEE", scope: !5, file: !4, line: 109, type: !1727, isLocal: false, isDefinition: false, scopeLine: 109, containingType: !5, virtuality: DW_VIRTUALITY_virtual, virtualIndex: 8, flags: DIFlagPublic | DIFlagPrototyped, isOptimized: false)
!1734 = !DISubprogram(name: "operator^=", linkageName: "_ZN14altered_carbon2js9ACJsValueeOERKNSt3__110unique_ptrIS1_NS2_14default_deleteIS1_EEEE", scope: !5, file: !4, line: 110, type: !1727, isLocal: false, isDefinition: false, scopeLine: 110, containingType: !5, virtuality: DW_VIRTUALITY_virtual, virtualIndex: 9, flags: DIFlagPublic | DIFlagPrototyped, isOptimized: false)
!1735 = !DISubprogram(name: "operator|=", linkageName: "_ZN14altered_carbon2js9ACJsValueoRERKNSt3__110unique_ptrIS1_NS2_14default_deleteIS1_EEEE", scope: !5, file: !4, line: 111, type: !1727, isLocal: false, isDefinition: false, scopeLine: 111, containingType: !5, virtuality: DW_VIRTUALITY_virtual, virtualIndex: 10, flags: DIFlagPublic | DIFlagPrototyped, isOptimized: false)
!1736 = !DISubprogram(name: "operator&=", linkageName: "_ZN14altered_carbon2js9ACJsValueaNERKNSt3__110unique_ptrIS1_NS2_14default_deleteIS1_EEEE", scope: !5, file: !4, line: 112, type: !1727, isLocal: false, isDefinition: false, scopeLine: 112, containingType: !5, virtuality: DW_VIRTUALITY_virtual, virtualIndex: 11, flags: DIFlagPublic | DIFlagPrototyped, isOptimized: false)
!1737 = !DISubprogram(name: "operator>>=", linkageName: "_ZN14altered_carbon2js9ACJsValuerSERKNSt3__110unique_ptrIS1_NS2_14default_deleteIS1_EEEE", scope: !5, file: !4, line: 113, type: !1727, isLocal: false, isDefinition: false, scopeLine: 113, containingType: !5, virtuality: DW_VIRTUALITY_virtual, virtualIndex: 12, flags: DIFlagPublic | DIFlagPrototyped, isOptimized: false)
!1738 = !DISubprogram(name: "operator<<=", linkageName: "_ZN14altered_carbon2js9ACJsValuelSERKNSt3__110unique_ptrIS1_NS2_14default_deleteIS1_EEEE", scope: !5, file: !4, line: 114, type: !1727, isLocal: false, isDefinition: false, scopeLine: 114, containingType: !5, virtuality: DW_VIRTUALITY_virtual, virtualIndex: 13, flags: DIFlagPublic | DIFlagPrototyped, isOptimized: false)
!1739 = !DISubprogram(name: "isUndefined", linkageName: "_ZNK14altered_carbon2js9ACJsValue11isUndefinedEv", scope: !5, file: !4, line: 117, type: !1740, isLocal: false, isDefinition: false, scopeLine: 117, flags: DIFlagPublic | DIFlagPrototyped, isOptimized: false)
!1740 = !DISubroutineType(types: !1741)
!1741 = !{!52, !194}
!1742 = !DISubprogram(name: "isNaN", linkageName: "_ZNK14altered_carbon2js9ACJsValue5isNaNEv", scope: !5, file: !4, line: 118, type: !1740, isLocal: false, isDefinition: false, scopeLine: 118, flags: DIFlagPublic | DIFlagPrototyped, isOptimized: false)
!1743 = !DISubprogram(name: "isNull", linkageName: "_ZNK14altered_carbon2js9ACJsValue6isNullEv", scope: !5, file: !4, line: 119, type: !1740, isLocal: false, isDefinition: false, scopeLine: 119, flags: DIFlagPublic | DIFlagPrototyped, isOptimized: false)
!1744 = !DISubprogram(name: "isBoolean", linkageName: "_ZNK14altered_carbon2js9ACJsValue9isBooleanEv", scope: !5, file: !4, line: 122, type: !1740, isLocal: false, isDefinition: false, scopeLine: 122, flags: DIFlagPublic | DIFlagPrototyped, isOptimized: false)
!1745 = !DISubprogram(name: "isNumber", linkageName: "_ZNK14altered_carbon2js9ACJsValue8isNumberEv", scope: !5, file: !4, line: 123, type: !1740, isLocal: false, isDefinition: false, scopeLine: 123, flags: DIFlagPublic | DIFlagPrototyped, isOptimized: false)
!1746 = !DISubprogram(name: "isRegExp", linkageName: "_ZNK14altered_carbon2js9ACJsValue8isRegExpEv", scope: !5, file: !4, line: 124, type: !1740, isLocal: false, isDefinition: false, scopeLine: 124, flags: DIFlagPublic | DIFlagPrototyped, isOptimized: false)
!1747 = !DISubprogram(name: "isString", linkageName: "_ZNK14altered_carbon2js9ACJsValue8isStringEv", scope: !5, file: !4, line: 125, type: !1740, isLocal: false, isDefinition: false, scopeLine: 125, flags: DIFlagPublic | DIFlagPrototyped, isOptimized: false)
!1748 = !DISubprogram(name: "isBooleanObj", linkageName: "_ZNK14altered_carbon2js9ACJsValue12isBooleanObjEv", scope: !5, file: !4, line: 128, type: !1740, isLocal: false, isDefinition: false, scopeLine: 128, flags: DIFlagPublic | DIFlagPrototyped, isOptimized: false)
!1749 = !DISubprogram(name: "isNumberObj", linkageName: "_ZNK14altered_carbon2js9ACJsValue11isNumberObjEv", scope: !5, file: !4, line: 129, type: !1740, isLocal: false, isDefinition: false, scopeLine: 129, flags: DIFlagPublic | DIFlagPrototyped, isOptimized: false)
!1750 = !DISubprogram(name: "isRegExpObj", linkageName: "_ZNK14altered_carbon2js9ACJsValue11isRegExpObjEv", scope: !5, file: !4, line: 130, type: !1740, isLocal: false, isDefinition: false, scopeLine: 130, flags: DIFlagPublic | DIFlagPrototyped, isOptimized: false)
!1751 = !DISubprogram(name: "isStringObj", linkageName: "_ZNK14altered_carbon2js9ACJsValue11isStringObjEv", scope: !5, file: !4, line: 131, type: !1740, isLocal: false, isDefinition: false, scopeLine: 131, flags: DIFlagPublic | DIFlagPrototyped, isOptimized: false)
!1752 = !DISubprogram(name: "isArray", linkageName: "_ZNK14altered_carbon2js9ACJsValue7isArrayEv", scope: !5, file: !4, line: 134, type: !1740, isLocal: false, isDefinition: false, scopeLine: 134, flags: DIFlagPublic | DIFlagPrototyped, isOptimized: false)
!1753 = !DISubprogram(name: "isClass", linkageName: "_ZNK14altered_carbon2js9ACJsValue7isClassEv", scope: !5, file: !4, line: 135, type: !1740, isLocal: false, isDefinition: false, scopeLine: 135, flags: DIFlagPublic | DIFlagPrototyped, isOptimized: false)
!1754 = !DISubprogram(name: "isFunction", linkageName: "_ZNK14altered_carbon2js9ACJsValue10isFunctionEv", scope: !5, file: !4, line: 136, type: !1740, isLocal: false, isDefinition: false, scopeLine: 136, flags: DIFlagPublic | DIFlagPrototyped, isOptimized: false)
!1755 = !DISubprogram(name: "isXml", linkageName: "_ZNK14altered_carbon2js9ACJsValue5isXmlEv", scope: !5, file: !4, line: 139, type: !1740, isLocal: false, isDefinition: false, scopeLine: 139, flags: DIFlagPublic | DIFlagPrototyped, isOptimized: false)
!1756 = !DISubprogram(name: "isProtocolBuffer", linkageName: "_ZNK14altered_carbon2js9ACJsValue16isProtocolBufferEv", scope: !5, file: !4, line: 140, type: !1740, isLocal: false, isDefinition: false, scopeLine: 140, flags: DIFlagPublic | DIFlagPrototyped, isOptimized: false)
!1757 = !DISubprogram(name: "isObj", linkageName: "_ZNK14altered_carbon2js9ACJsValue5isObjEv", scope: !5, file: !4, line: 143, type: !1740, isLocal: false, isDefinition: false, scopeLine: 143, flags: DIFlagPublic | DIFlagPrototyped, isOptimized: false)
!1758 = !DISubprogram(name: "toBoolean", linkageName: "_ZN14altered_carbon2js9ACJsValue9toBooleanEv", scope: !5, file: !4, line: 146, type: !1759, isLocal: false, isDefinition: false, scopeLine: 146, containingType: !5, virtuality: DW_VIRTUALITY_virtual, virtualIndex: 14, flags: DIFlagPublic | DIFlagPrototyped, isOptimized: false)
!1759 = !DISubroutineType(types: !1760)
!1760 = !{!52, !184}
!1761 = !DISubprogram(name: "toNumber", linkageName: "_ZN14altered_carbon2js9ACJsValue8toNumberEv", scope: !5, file: !4, line: 147, type: !1762, isLocal: false, isDefinition: false, scopeLine: 147, containingType: !5, virtuality: DW_VIRTUALITY_virtual, virtualIndex: 15, flags: DIFlagPublic | DIFlagPrototyped, isOptimized: false)
!1762 = !DISubroutineType(types: !1763)
!1763 = !{!30, !184}
!1764 = !DISubprogram(name: "toRegExp", linkageName: "_ZN14altered_carbon2js9ACJsValue8toRegExpEv", scope: !5, file: !4, line: 150, type: !1762, isLocal: false, isDefinition: false, scopeLine: 150, containingType: !5, virtuality: DW_VIRTUALITY_virtual, virtualIndex: 16, flags: DIFlagPublic | DIFlagPrototyped, isOptimized: false)
!1765 = !DISubprogram(name: "toString", linkageName: "_ZN14altered_carbon2js9ACJsValue8toStringEv", scope: !5, file: !4, line: 153, type: !1762, isLocal: false, isDefinition: false, scopeLine: 153, containingType: !5, virtuality: DW_VIRTUALITY_virtual, virtualIndex: 17, flags: DIFlagPublic | DIFlagPrototyped, isOptimized: false)
!1766 = !{!1767, !1768, !1769, !1770, !1771, !1772, !1773, !1774, !1775, !1776, !1777, !1778, !1779, !1780, !1781, !1782}
!1767 = !DIEnumerator(name: "JS_UNDEFINED", value: -2)
!1768 = !DIEnumerator(name: "JS_NAN", value: -1)
!1769 = !DIEnumerator(name: "JS_NULL", value: 0)
!1770 = !DIEnumerator(name: "JS_BOOLEAN", value: 1)
!1771 = !DIEnumerator(name: "JS_NUMBER", value: 2)
!1772 = !DIEnumerator(name: "JS_REGEXP", value: 3)
!1773 = !DIEnumerator(name: "JS_STRING", value: 4)
!1774 = !DIEnumerator(name: "JS_BOOLEAN_OBJ", value: 11)
!1775 = !DIEnumerator(name: "JS_NUMBER_OBJ", value: 12)
!1776 = !DIEnumerator(name: "JS_REGEXP_OBJ", value: 13)
!1777 = !DIEnumerator(name: "JS_STRING_OBJ", value: 14)
!1778 = !DIEnumerator(name: "JS_ARRAY", value: 20)
!1779 = !DIEnumerator(name: "JS_CLASS", value: 21)
!1780 = !DIEnumerator(name: "JS_FUNCTION", value: 22)
!1781 = !DIEnumerator(name: "JS_PB", value: 23)
!1782 = !DIEnumerator(name: "JS_XML", value: 24)
!1783 = !{!30}
!1784 = !{!1785, !1787, !1788, !1791, !1793, !1800, !1806, !1812, !1816, !1820, !1824, !1828, !1833, !1837, !1841, !1845, !1849, !1853, !1857, !1859, !1863, !1867, !1871, !1875, !1879, !1883, !1888, !1892, !1894, !1898, !1900, !1907, !1911, !1916, !1920, !1922, !1926, !1930, !1932, !1936, !1942, !1946, !1950, !1956, !1961, !1964, !1965, !1968, !1971, !1974, !1977, !1980, !1983, !1985, !1987, !1989, !1991, !1993, !1995, !1997, !1999, !2001, !2003, !2005, !2007, !2009, !2011, !2013, !2018, !2021, !2024, !2027, !2029, !2034, !2036, !2040, !2044, !2046, !2048, !2052, !2056, !2060, !2062, !2066, !2071, !2075, !2079, !2081, !2083, !2085, !2087, !2089, !2091, !2095, !2099, !2101, !2105, !2107, !2112, !2116, !2118, !2120, !2124, !2126, !2128, !2130, !2132, !2134, !2136, !2138, !2142, !2146, !2148, !2150, !2155, !2160, !2162, !2164, !2166, !2168, !2170, !2172, !2174, !2176, !2178, !2180, !2182, !2184, !2186, !2188, !2190, !2192, !2196, !2198, !2200, !2202, !2206, !2208, !2212, !2214, !2216, !2218, !2220, !2224, !2226, !2228, !2232, !2234, !2236, !2240, !2242, !2246, !2248, !2250, !2254, !2256, !2258, !2260, !2262, !2264, !2266, !2270, !2272, !2274, !2276, !2278, !2280, !2282, !2284, !2288, !2292, !2294, !2296, !2298, !2300, !2302, !2304, !2306, !2308, !2310, !2312, !2314, !2316, !2318, !2320, !2322, !2324, !2326, !2328, !2330, !2334, !2336, !2338, !2340, !2344, !2346, !2350, !2352, !2354, !2356, !2358, !2362, !2364, !2368, !2370, !2372, !2374, !2376, !2380, !2382, !2384, !2388, !2390, !2392, !2394, !2447, !2448, !2449, !2455, !2457, !2461, !2465, !2469, !2471, !2475, !2479, !2483, !2494, !2496, !2500, !2504, !2508, !2510, !2514, !2518, !2522, !2524, !2526, !2528, !2532, !2536, !2541, !2545, !2551, !2555, !2559, !2561, !2563, !2565, !2569, !2573, !2577, !2579, !2581, !2585, !2589, !2591, !2593, !2597, !2601, !2603, !2607, !2609, !2611, !2615, !2617, !2619, !2621, !2623, !2625, !2627, !2629, !2631, !2633, !2635, !2637, !2639, !2641, !2646, !2651, !2656, !2661, !2663, !2666, !2668, !2670, !2672, !2674, !2676, !2678, !2680, !2682, !2684, !2688, !2692, !2696, !2698, !2702, !2706, !2719, !2720, !2735, !2736, !2737, !2742, !2744, !2748, !2752, !2756, !2760, !2762, !2766, !2770, !2774, !2778, !2782, !2786, !2788, !2790, !2794, !2799, !2803, !2807, !2811, !2815, !2819, !2823, !2827, !2831, !2833, !2835, !2839, !2841, !2845, !2849, !2854, !2856, !2858, !2860, !2864, !2868, !2872, !2874, !2878, !2880, !2882, !2884, !2886, !2892, !2896, !2898, !2904, !2909, !2913, !2917, !2922, !2927, !2931, !2935, !2939, !2943, !2945, !2947, !2949, !2954, !2955, !2959, !2960, !2964, !2968, !2973, !2978, !2982, !2988, !2992, !2994, !2998}
