; ModuleID = 'temp.bc'
source_filename = "../jsvalue1.cc"
target datalayout = "e-m:o-i64:64-f80:128-n8:16:32:64-S128"
target triple = "x86_64-apple-macosx10.13.0"

%"class.altered_carbon::js::ACJsValue" = type <{ i32 (...)**, i32, [4 x i8] }>

; Function Attrs: noinline norecurse nounwind optnone ssp uwtable
define i32 @main() #0 !dbg !1456 {
  %1 = alloca i32, align 4
  %2 = alloca %"class.altered_carbon::js::ACJsValue", align 8
  store i32 0, i32* %1, align 4
  call void @llvm.dbg.declare(metadata %"class.altered_carbon::js::ACJsValue"* %2, metadata !1457, metadata !DIExpression()), !dbg !1458
  call void @_ZN14altered_carbon2js9ACJsValueC1ENS1_11JsValueTypeE(%"class.altered_carbon::js::ACJsValue"* %2, i32 1), !dbg !1458
  %3 = call zeroext i1 @_ZN14altered_carbon2js9ACJsValue9toBooleanEv(%"class.altered_carbon::js::ACJsValue"* %2), !dbg !1459
  %4 = zext i1 %3 to i32, !dbg !1460
  store i32 %4, i32* %1, align 4, !dbg !1461
  call void @_ZN14altered_carbon2js9ACJsValueD1Ev(%"class.altered_carbon::js::ACJsValue"* %2) #4, !dbg !1462
  %5 = load i32, i32* %1, align 4, !dbg !1462
  ret i32 %5, !dbg !1462
}

; Function Attrs: nounwind readnone speculatable
declare void @llvm.dbg.declare(metadata, metadata, metadata) #1

declare void @_ZN14altered_carbon2js9ACJsValueC1ENS1_11JsValueTypeE(%"class.altered_carbon::js::ACJsValue"*, i32) unnamed_addr #2

; Function Attrs: noinline nounwind optnone ssp uwtable
define linkonce_odr hidden zeroext i1 @_ZN14altered_carbon2js9ACJsValue9toBooleanEv(%"class.altered_carbon::js::ACJsValue"*) unnamed_addr #3 align 2 !dbg !1463 {
  %2 = alloca %"class.altered_carbon::js::ACJsValue"*, align 8
  store %"class.altered_carbon::js::ACJsValue"* %0, %"class.altered_carbon::js::ACJsValue"** %2, align 8
  call void @llvm.dbg.declare(metadata %"class.altered_carbon::js::ACJsValue"** %2, metadata !1464, metadata !DIExpression()), !dbg !1465
  %3 = load %"class.altered_carbon::js::ACJsValue"*, %"class.altered_carbon::js::ACJsValue"** %2, align 8
  ret i1 false, !dbg !1466
}

; Function Attrs: noinline nounwind optnone ssp uwtable
define linkonce_odr hidden void @_ZN14altered_carbon2js9ACJsValueD1Ev(%"class.altered_carbon::js::ACJsValue"*) unnamed_addr #3 align 2 !dbg !1467 {
  %2 = alloca %"class.altered_carbon::js::ACJsValue"*, align 8
  store %"class.altered_carbon::js::ACJsValue"* %0, %"class.altered_carbon::js::ACJsValue"** %2, align 8
  call void @llvm.dbg.declare(metadata %"class.altered_carbon::js::ACJsValue"** %2, metadata !1468, metadata !DIExpression()), !dbg !1469
  %3 = load %"class.altered_carbon::js::ACJsValue"*, %"class.altered_carbon::js::ACJsValue"** %2, align 8
  call void @_ZN14altered_carbon2js9ACJsValueD2Ev(%"class.altered_carbon::js::ACJsValue"* %3) #4, !dbg !1470
  ret void, !dbg !1471
}

; Function Attrs: noinline nounwind optnone ssp uwtable
define linkonce_odr hidden void @_ZN14altered_carbon2js9ACJsValueD2Ev(%"class.altered_carbon::js::ACJsValue"*) unnamed_addr #3 align 2 !dbg !1472 {
  %2 = alloca %"class.altered_carbon::js::ACJsValue"*, align 8
  store %"class.altered_carbon::js::ACJsValue"* %0, %"class.altered_carbon::js::ACJsValue"** %2, align 8
  call void @llvm.dbg.declare(metadata %"class.altered_carbon::js::ACJsValue"** %2, metadata !1473, metadata !DIExpression()), !dbg !1474
  %3 = load %"class.altered_carbon::js::ACJsValue"*, %"class.altered_carbon::js::ACJsValue"** %2, align 8
  ret void, !dbg !1475
}

attributes #0 = { noinline norecurse nounwind optnone ssp uwtable "correctly-rounded-divide-sqrt-fp-math"="false" "disable-tail-calls"="false" "less-precise-fpmad"="false" "no-frame-pointer-elim"="true" "no-frame-pointer-elim-non-leaf" "no-infs-fp-math"="false" "no-jump-tables"="false" "no-nans-fp-math"="false" "no-signed-zeros-fp-math"="false" "no-trapping-math"="false" "stack-protector-buffer-size"="8" "target-cpu"="penryn" "target-features"="+cx16,+fxsr,+mmx,+sse,+sse2,+sse3,+sse4.1,+ssse3,+x87" "unsafe-fp-math"="false" "use-soft-float"="false" }
attributes #1 = { nounwind readnone speculatable }
attributes #2 = { "correctly-rounded-divide-sqrt-fp-math"="false" "disable-tail-calls"="false" "less-precise-fpmad"="false" "no-frame-pointer-elim"="true" "no-frame-pointer-elim-non-leaf" "no-infs-fp-math"="false" "no-nans-fp-math"="false" "no-signed-zeros-fp-math"="false" "no-trapping-math"="false" "stack-protector-buffer-size"="8" "target-cpu"="penryn" "target-features"="+cx16,+fxsr,+mmx,+sse,+sse2,+sse3,+sse4.1,+ssse3,+x87" "unsafe-fp-math"="false" "use-soft-float"="false" }
attributes #3 = { noinline nounwind optnone ssp uwtable "correctly-rounded-divide-sqrt-fp-math"="false" "disable-tail-calls"="false" "less-precise-fpmad"="false" "no-frame-pointer-elim"="true" "no-frame-pointer-elim-non-leaf" "no-infs-fp-math"="false" "no-jump-tables"="false" "no-nans-fp-math"="false" "no-signed-zeros-fp-math"="false" "no-trapping-math"="false" "stack-protector-buffer-size"="8" "target-cpu"="penryn" "target-features"="+cx16,+fxsr,+mmx,+sse,+sse2,+sse3,+sse4.1,+ssse3,+x87" "unsafe-fp-math"="false" "use-soft-float"="false" }
attributes #4 = { nounwind }

!llvm.dbg.cu = !{!0}
!llvm.module.flags = !{!1451, !1452, !1453, !1454}
!llvm.ident = !{!1455}

!0 = distinct !DICompileUnit(language: DW_LANG_C_plus_plus, file: !1, producer: "Apple LLVM version 9.1.0 (clang-902.0.39.2)", isOptimized: false, runtimeVersion: 0, emissionKind: FullDebug, enums: !2, imports: !259)
!1 = !DIFile(filename: "../jsvalue1.cc", directory: "/Users/ejiang/Projects/lls/ac/llfiles")
!2 = !{!3}
!3 = !DICompositeType(tag: DW_TAG_enumeration_type, name: "JsValueType", scope: !5, file: !4, line: 66, size: 32, elements: !242, identifier: "_ZTSN14altered_carbon2js9ACJsValue11JsValueTypeE")
!4 = !DIFile(filename: "../ac_vm_jsvalue.h", directory: "/Users/ejiang/Projects/lls/ac/llfiles")
!5 = distinct !DICompositeType(tag: DW_TAG_class_type, name: "ACJsValue", scope: !6, file: !4, line: 64, size: 128, elements: !8, vtableHolder: !5, identifier: "_ZTSN14altered_carbon2js9ACJsValueE")
!6 = !DINamespace(name: "js", scope: !7)
!7 = !DINamespace(name: "altered_carbon", scope: null)
!8 = !{!9, !15, !16, !179, !180, !181, !186, !189, !195, !202, !206, !207, !208, !209, !210, !211, !212, !213, !214, !215, !218, !219, !220, !221, !222, !223, !224, !225, !226, !227, !228, !229, !230, !231, !232, !233, !234, !237, !240, !241}
!9 = !DIDerivedType(tag: DW_TAG_member, name: "_vptr$ACJsValue", scope: !4, file: !4, baseType: !10, size: 64, flags: DIFlagArtificial)
!10 = !DIDerivedType(tag: DW_TAG_pointer_type, baseType: !11, size: 64)
!11 = !DIDerivedType(tag: DW_TAG_pointer_type, name: "__vtbl_ptr_type", baseType: !12, size: 64)
!12 = !DISubroutineType(types: !13)
!13 = !{!14}
!14 = !DIBasicType(name: "int", size: 32, encoding: DW_ATE_signed)
!15 = !DIDerivedType(tag: DW_TAG_member, name: "type_", scope: !5, file: !4, line: 86, baseType: !3, size: 32, offset: 64, flags: DIFlagProtected)
!16 = !DIDerivedType(tag: DW_TAG_member, name: "Undefined", scope: !5, file: !4, line: 95, baseType: !17, flags: DIFlagPublic | DIFlagStaticMember)
!17 = !DIDerivedType(tag: DW_TAG_const_type, baseType: !18)
!18 = distinct !DICompositeType(tag: DW_TAG_class_type, name: "unique_ptr<altered_carbon::js::ACJsValue, std::__1::default_delete<altered_carbon::js::ACJsValue> >", scope: !20, file: !19, line: 2301, size: 64, elements: !22, templateParams: !149, identifier: "_ZTSNSt3__110unique_ptrIN14altered_carbon2js9ACJsValueENS_14default_deleteIS3_EEEE")
!19 = !DIFile(filename: "/Applications/Xcode.app/Contents/Developer/Toolchains/XcodeDefault.xctoolchain/usr/include/c++/v1/memory", directory: "/Users/ejiang/Projects/lls/ac/llfiles")
!20 = !DINamespace(name: "__1", scope: !21, exportSymbols: true)
!21 = !DINamespace(name: "std", scope: null)
!22 = !{!23, !112, !117, !121, !124, !130, !143, !156, !157, !162, !167, !170, !173, !176}
!23 = !DIDerivedType(tag: DW_TAG_member, name: "__ptr_", scope: !18, file: !19, line: 2311, baseType: !24, size: 64)
!24 = distinct !DICompositeType(tag: DW_TAG_class_type, name: "__compressed_pair<altered_carbon::js::ACJsValue *, std::__1::default_delete<altered_carbon::js::ACJsValue> >", scope: !20, file: !19, line: 2111, size: 64, elements: !25, templateParams: !109, identifier: "_ZTSNSt3__117__compressed_pairIPN14altered_carbon2js9ACJsValueENS_14default_deleteIS3_EEEE")
!25 = !{!26, !53, !90, !94, !99, !102, !105}
!26 = !DIDerivedType(tag: DW_TAG_inheritance, scope: !24, baseType: !27)
!27 = distinct !DICompositeType(tag: DW_TAG_structure_type, name: "__compressed_pair_elem<altered_carbon::js::ACJsValue *, 0, false>", scope: !20, file: !19, line: 2037, size: 64, elements: !28, templateParams: !48, identifier: "_ZTSNSt3__122__compressed_pair_elemIPN14altered_carbon2js9ACJsValueELi0ELb0EEE")
!28 = !{!29, !31, !35, !40}
!29 = !DIDerivedType(tag: DW_TAG_member, name: "__value_", scope: !27, file: !19, line: 2069, baseType: !30, size: 64, flags: DIFlagPrivate)
!30 = !DIDerivedType(tag: DW_TAG_pointer_type, baseType: !5, size: 64)
!31 = !DISubprogram(name: "__compressed_pair_elem", scope: !27, file: !19, line: 2043, type: !32, isLocal: false, isDefinition: false, scopeLine: 2043, flags: DIFlagPrototyped, isOptimized: false)
!32 = !DISubroutineType(types: !33)
!33 = !{null, !34}
!34 = !DIDerivedType(tag: DW_TAG_pointer_type, baseType: !27, size: 64, flags: DIFlagArtificial | DIFlagObjectPointer)
!35 = !DISubprogram(name: "__get", linkageName: "_ZNSt3__122__compressed_pair_elemIPN14altered_carbon2js9ACJsValueELi0ELb0EE5__getEv", scope: !27, file: !19, line: 2064, type: !36, isLocal: false, isDefinition: false, scopeLine: 2064, flags: DIFlagPrototyped, isOptimized: false)
!36 = !DISubroutineType(types: !37)
!37 = !{!38, !34}
!38 = !DIDerivedType(tag: DW_TAG_typedef, name: "reference", scope: !27, file: !19, line: 2039, baseType: !39)
!39 = !DIDerivedType(tag: DW_TAG_reference_type, baseType: !30, size: 64)
!40 = !DISubprogram(name: "__get", linkageName: "_ZNKSt3__122__compressed_pair_elemIPN14altered_carbon2js9ACJsValueELi0ELb0EE5__getEv", scope: !27, file: !19, line: 2066, type: !41, isLocal: false, isDefinition: false, scopeLine: 2066, flags: DIFlagPrototyped, isOptimized: false)
!41 = !DISubroutineType(types: !42)
!42 = !{!43, !46}
!43 = !DIDerivedType(tag: DW_TAG_typedef, name: "const_reference", scope: !27, file: !19, line: 2040, baseType: !44)
!44 = !DIDerivedType(tag: DW_TAG_reference_type, baseType: !45, size: 64)
!45 = !DIDerivedType(tag: DW_TAG_const_type, baseType: !30)
!46 = !DIDerivedType(tag: DW_TAG_pointer_type, baseType: !47, size: 64, flags: DIFlagArtificial | DIFlagObjectPointer)
!47 = !DIDerivedType(tag: DW_TAG_const_type, baseType: !27)
!48 = !{!49, !50, !51}
!49 = !DITemplateTypeParameter(name: "_Tp", type: !30)
!50 = !DITemplateValueParameter(name: "_Idx", type: !14, value: i32 0)
!51 = !DITemplateValueParameter(name: "_CanBeEmptyBase", type: !52, value: i8 0)
!52 = !DIBasicType(name: "bool", size: 8, encoding: DW_ATE_boolean)
!53 = !DIDerivedType(tag: DW_TAG_inheritance, scope: !24, baseType: !54)
!54 = distinct !DICompositeType(tag: DW_TAG_structure_type, name: "__compressed_pair_elem<std::__1::default_delete<altered_carbon::js::ACJsValue>, 1, true>", scope: !20, file: !19, line: 2073, size: 8, elements: !55, templateParams: !86, identifier: "_ZTSNSt3__122__compressed_pair_elemINS_14default_deleteIN14altered_carbon2js9ACJsValueEEELi1ELb1EEE")
!55 = !{!56, !70, !74, !79}
!56 = !DIDerivedType(tag: DW_TAG_inheritance, scope: !54, baseType: !57, flags: DIFlagPrivate)
!57 = distinct !DICompositeType(tag: DW_TAG_structure_type, name: "default_delete<altered_carbon::js::ACJsValue>", scope: !20, file: !19, line: 2220, size: 8, elements: !58, templateParams: !68, identifier: "_ZTSNSt3__114default_deleteIN14altered_carbon2js9ACJsValueEEE")
!58 = !{!59, !63}
!59 = !DISubprogram(name: "default_delete", scope: !57, file: !19, line: 2224, type: !60, isLocal: false, isDefinition: false, scopeLine: 2224, flags: DIFlagPrototyped, isOptimized: false)
!60 = !DISubroutineType(types: !61)
!61 = !{null, !62}
!62 = !DIDerivedType(tag: DW_TAG_pointer_type, baseType: !57, size: 64, flags: DIFlagArtificial | DIFlagObjectPointer)
!63 = !DISubprogram(name: "operator()", linkageName: "_ZNKSt3__114default_deleteIN14altered_carbon2js9ACJsValueEEclEPS3_", scope: !57, file: !19, line: 2234, type: !64, isLocal: false, isDefinition: false, scopeLine: 2234, flags: DIFlagPrototyped, isOptimized: false)
!64 = !DISubroutineType(types: !65)
!65 = !{null, !66, !30}
!66 = !DIDerivedType(tag: DW_TAG_pointer_type, baseType: !67, size: 64, flags: DIFlagArtificial | DIFlagObjectPointer)
!67 = !DIDerivedType(tag: DW_TAG_const_type, baseType: !57)
!68 = !{!69}
!69 = !DITemplateTypeParameter(name: "_Tp", type: !5)
!70 = !DISubprogram(name: "__compressed_pair_elem", scope: !54, file: !19, line: 2080, type: !71, isLocal: false, isDefinition: false, scopeLine: 2080, flags: DIFlagPrototyped, isOptimized: false)
!71 = !DISubroutineType(types: !72)
!72 = !{null, !73}
!73 = !DIDerivedType(tag: DW_TAG_pointer_type, baseType: !54, size: 64, flags: DIFlagArtificial | DIFlagObjectPointer)
!74 = !DISubprogram(name: "__get", linkageName: "_ZNSt3__122__compressed_pair_elemINS_14default_deleteIN14altered_carbon2js9ACJsValueEEELi1ELb1EE5__getEv", scope: !54, file: !19, line: 2102, type: !75, isLocal: false, isDefinition: false, scopeLine: 2102, flags: DIFlagPrototyped, isOptimized: false)
!75 = !DISubroutineType(types: !76)
!76 = !{!77, !73}
!77 = !DIDerivedType(tag: DW_TAG_typedef, name: "reference", scope: !54, file: !19, line: 2075, baseType: !78)
!78 = !DIDerivedType(tag: DW_TAG_reference_type, baseType: !57, size: 64)
!79 = !DISubprogram(name: "__get", linkageName: "_ZNKSt3__122__compressed_pair_elemINS_14default_deleteIN14altered_carbon2js9ACJsValueEEELi1ELb1EE5__getEv", scope: !54, file: !19, line: 2104, type: !80, isLocal: false, isDefinition: false, scopeLine: 2104, flags: DIFlagPrototyped, isOptimized: false)
!80 = !DISubroutineType(types: !81)
!81 = !{!82, !84}
!82 = !DIDerivedType(tag: DW_TAG_typedef, name: "const_reference", scope: !54, file: !19, line: 2076, baseType: !83)
!83 = !DIDerivedType(tag: DW_TAG_reference_type, baseType: !67, size: 64)
!84 = !DIDerivedType(tag: DW_TAG_pointer_type, baseType: !85, size: 64, flags: DIFlagArtificial | DIFlagObjectPointer)
!85 = !DIDerivedType(tag: DW_TAG_const_type, baseType: !54)
!86 = !{!87, !88, !89}
!87 = !DITemplateTypeParameter(name: "_Tp", type: !57)
!88 = !DITemplateValueParameter(name: "_Idx", type: !14, value: i32 1)
!89 = !DITemplateValueParameter(name: "_CanBeEmptyBase", type: !52, value: i8 1)
!90 = !DISubprogram(name: "first", linkageName: "_ZNSt3__117__compressed_pairIPN14altered_carbon2js9ACJsValueENS_14default_deleteIS3_EEE5firstEv", scope: !24, file: !19, line: 2179, type: !91, isLocal: false, isDefinition: false, scopeLine: 2179, flags: DIFlagPublic | DIFlagPrototyped, isOptimized: false)
!91 = !DISubroutineType(types: !92)
!92 = !{!38, !93}
!93 = !DIDerivedType(tag: DW_TAG_pointer_type, baseType: !24, size: 64, flags: DIFlagArtificial | DIFlagObjectPointer)
!94 = !DISubprogram(name: "first", linkageName: "_ZNKSt3__117__compressed_pairIPN14altered_carbon2js9ACJsValueENS_14default_deleteIS3_EEE5firstEv", scope: !24, file: !19, line: 2184, type: !95, isLocal: false, isDefinition: false, scopeLine: 2184, flags: DIFlagPublic | DIFlagPrototyped, isOptimized: false)
!95 = !DISubroutineType(types: !96)
!96 = !{!43, !97}
!97 = !DIDerivedType(tag: DW_TAG_pointer_type, baseType: !98, size: 64, flags: DIFlagArtificial | DIFlagObjectPointer)
!98 = !DIDerivedType(tag: DW_TAG_const_type, baseType: !24)
!99 = !DISubprogram(name: "second", linkageName: "_ZNSt3__117__compressed_pairIPN14altered_carbon2js9ACJsValueENS_14default_deleteIS3_EEE6secondEv", scope: !24, file: !19, line: 2189, type: !100, isLocal: false, isDefinition: false, scopeLine: 2189, flags: DIFlagPublic | DIFlagPrototyped, isOptimized: false)
!100 = !DISubroutineType(types: !101)
!101 = !{!77, !93}
!102 = !DISubprogram(name: "second", linkageName: "_ZNKSt3__117__compressed_pairIPN14altered_carbon2js9ACJsValueENS_14default_deleteIS3_EEE6secondEv", scope: !24, file: !19, line: 2194, type: !103, isLocal: false, isDefinition: false, scopeLine: 2194, flags: DIFlagPublic | DIFlagPrototyped, isOptimized: false)
!103 = !DISubroutineType(types: !104)
!104 = !{!82, !97}
!105 = !DISubprogram(name: "swap", linkageName: "_ZNSt3__117__compressed_pairIPN14altered_carbon2js9ACJsValueENS_14default_deleteIS3_EEE4swapERS7_", scope: !24, file: !19, line: 2199, type: !106, isLocal: false, isDefinition: false, scopeLine: 2199, flags: DIFlagPublic | DIFlagPrototyped, isOptimized: false)
!106 = !DISubroutineType(types: !107)
!107 = !{null, !93, !108}
!108 = !DIDerivedType(tag: DW_TAG_reference_type, baseType: !24, size: 64)
!109 = !{!110, !111}
!110 = !DITemplateTypeParameter(name: "_T1", type: !30)
!111 = !DITemplateTypeParameter(name: "_T2", type: !57)
!112 = !DISubprogram(name: "unique_ptr", scope: !18, file: !19, line: 2394, type: !113, isLocal: false, isDefinition: false, scopeLine: 2394, flags: DIFlagPublic | DIFlagPrototyped, isOptimized: false)
!113 = !DISubroutineType(types: !114)
!114 = !{null, !115, !116}
!115 = !DIDerivedType(tag: DW_TAG_pointer_type, baseType: !18, size: 64, flags: DIFlagArtificial | DIFlagObjectPointer)
!116 = !DIDerivedType(tag: DW_TAG_rvalue_reference_type, baseType: !18, size: 64)
!117 = !DISubprogram(name: "operator=", linkageName: "_ZNSt3__110unique_ptrIN14altered_carbon2js9ACJsValueENS_14default_deleteIS3_EEEaSEOS6_", scope: !18, file: !19, line: 2417, type: !118, isLocal: false, isDefinition: false, scopeLine: 2417, flags: DIFlagPublic | DIFlagPrototyped, isOptimized: false)
!118 = !DISubroutineType(types: !119)
!119 = !{!120, !115, !116}
!120 = !DIDerivedType(tag: DW_TAG_reference_type, baseType: !18, size: 64)
!121 = !DISubprogram(name: "~unique_ptr", scope: !18, file: !19, line: 2506, type: !122, isLocal: false, isDefinition: false, scopeLine: 2506, flags: DIFlagPublic | DIFlagPrototyped, isOptimized: false)
!122 = !DISubroutineType(types: !123)
!123 = !{null, !115}
!124 = !DISubprogram(name: "operator=", linkageName: "_ZNSt3__110unique_ptrIN14altered_carbon2js9ACJsValueENS_14default_deleteIS3_EEEaSEDn", scope: !18, file: !19, line: 2509, type: !125, isLocal: false, isDefinition: false, scopeLine: 2509, flags: DIFlagPublic | DIFlagPrototyped, isOptimized: false)
!125 = !DISubroutineType(types: !126)
!126 = !{!120, !115, !127}
!127 = !DIDerivedType(tag: DW_TAG_typedef, name: "nullptr_t", scope: !21, file: !128, line: 57, baseType: !129)
!128 = !DIFile(filename: "/Applications/Xcode.app/Contents/Developer/Toolchains/XcodeDefault.xctoolchain/usr/include/c++/v1/__nullptr", directory: "/Users/ejiang/Projects/lls/ac/llfiles")
!129 = !DIBasicType(tag: DW_TAG_unspecified_type, name: "decltype(nullptr)")
!130 = !DISubprogram(name: "operator*", linkageName: "_ZNKSt3__110unique_ptrIN14altered_carbon2js9ACJsValueENS_14default_deleteIS3_EEEdeEv", scope: !18, file: !19, line: 2516, type: !131, isLocal: false, isDefinition: false, scopeLine: 2516, flags: DIFlagPublic | DIFlagPrototyped, isOptimized: false)
!131 = !DISubroutineType(types: !132)
!132 = !{!133, !142}
!133 = !DIDerivedType(tag: DW_TAG_typedef, name: "type", scope: !135, file: !134, line: 1084, baseType: !137)
!134 = !DIFile(filename: "/Applications/Xcode.app/Contents/Developer/Toolchains/XcodeDefault.xctoolchain/usr/include/c++/v1/type_traits", directory: "/Users/ejiang/Projects/lls/ac/llfiles")
!135 = distinct !DICompositeType(tag: DW_TAG_structure_type, name: "add_lvalue_reference<altered_carbon::js::ACJsValue>", scope: !20, file: !134, line: 1083, size: 8, elements: !136, templateParams: !68, identifier: "_ZTSNSt3__120add_lvalue_referenceIN14altered_carbon2js9ACJsValueEEE")
!136 = !{}
!137 = !DIDerivedType(tag: DW_TAG_typedef, name: "type", scope: !138, file: !134, line: 1081, baseType: !141)
!138 = distinct !DICompositeType(tag: DW_TAG_structure_type, name: "__add_lvalue_reference_impl<altered_carbon::js::ACJsValue, true>", scope: !20, file: !134, line: 1081, size: 8, elements: !136, templateParams: !139, identifier: "_ZTSNSt3__127__add_lvalue_reference_implIN14altered_carbon2js9ACJsValueELb1EEE")
!139 = !{!69, !140}
!140 = !DITemplateValueParameter(type: !52, value: i8 1)
!141 = !DIDerivedType(tag: DW_TAG_reference_type, baseType: !5, size: 64)
!142 = !DIDerivedType(tag: DW_TAG_pointer_type, baseType: !17, size: 64, flags: DIFlagArtificial | DIFlagObjectPointer)
!143 = !DISubprogram(name: "operator->", linkageName: "_ZNKSt3__110unique_ptrIN14altered_carbon2js9ACJsValueENS_14default_deleteIS3_EEEptEv", scope: !18, file: !19, line: 2520, type: !144, isLocal: false, isDefinition: false, scopeLine: 2520, flags: DIFlagPublic | DIFlagPrototyped, isOptimized: false)
!144 = !DISubroutineType(types: !145)
!145 = !{!146, !142}
!146 = !DIDerivedType(tag: DW_TAG_typedef, name: "pointer", scope: !18, file: !19, line: 2305, baseType: !147)
!147 = !DIDerivedType(tag: DW_TAG_typedef, name: "type", scope: !148, file: !19, line: 1020, baseType: !151)
!148 = distinct !DICompositeType(tag: DW_TAG_structure_type, name: "__pointer_type<altered_carbon::js::ACJsValue, std::__1::default_delete<altered_carbon::js::ACJsValue> >", scope: !20, file: !19, line: 1018, size: 8, elements: !136, templateParams: !149, identifier: "_ZTSNSt3__114__pointer_typeIN14altered_carbon2js9ACJsValueENS_14default_deleteIS3_EEEE")
!149 = !{!69, !150}
!150 = !DITemplateTypeParameter(name: "_Dp", type: !57)
!151 = !DIDerivedType(tag: DW_TAG_typedef, name: "type", scope: !152, file: !19, line: 1012, baseType: !30)
!152 = distinct !DICompositeType(tag: DW_TAG_structure_type, name: "__pointer_type<altered_carbon::js::ACJsValue, std::__1::default_delete<altered_carbon::js::ACJsValue>, false>", scope: !153, file: !19, line: 1010, size: 8, elements: !136, templateParams: !154, identifier: "_ZTSNSt3__118__pointer_type_imp14__pointer_typeIN14altered_carbon2js9ACJsValueENS_14default_deleteIS4_EELb0EEE")
!153 = !DINamespace(name: "__pointer_type_imp", scope: !20)
!154 = !{!69, !150, !155}
!155 = !DITemplateValueParameter(type: !52, value: i8 0)
!156 = !DISubprogram(name: "get", linkageName: "_ZNKSt3__110unique_ptrIN14altered_carbon2js9ACJsValueENS_14default_deleteIS3_EEE3getEv", scope: !18, file: !19, line: 2524, type: !144, isLocal: false, isDefinition: false, scopeLine: 2524, flags: DIFlagPublic | DIFlagPrototyped, isOptimized: false)
!157 = !DISubprogram(name: "get_deleter", linkageName: "_ZNSt3__110unique_ptrIN14altered_carbon2js9ACJsValueENS_14default_deleteIS3_EEE11get_deleterEv", scope: !18, file: !19, line: 2528, type: !158, isLocal: false, isDefinition: false, scopeLine: 2528, flags: DIFlagPublic | DIFlagPrototyped, isOptimized: false)
!158 = !DISubroutineType(types: !159)
!159 = !{!160, !115}
!160 = !DIDerivedType(tag: DW_TAG_reference_type, baseType: !161, size: 64)
!161 = !DIDerivedType(tag: DW_TAG_typedef, name: "deleter_type", scope: !18, file: !19, line: 2304, baseType: !57)
!162 = !DISubprogram(name: "get_deleter", linkageName: "_ZNKSt3__110unique_ptrIN14altered_carbon2js9ACJsValueENS_14default_deleteIS3_EEE11get_deleterEv", scope: !18, file: !19, line: 2532, type: !163, isLocal: false, isDefinition: false, scopeLine: 2532, flags: DIFlagPublic | DIFlagPrototyped, isOptimized: false)
!163 = !DISubroutineType(types: !164)
!164 = !{!165, !142}
!165 = !DIDerivedType(tag: DW_TAG_reference_type, baseType: !166, size: 64)
!166 = !DIDerivedType(tag: DW_TAG_const_type, baseType: !161)
!167 = !DISubprogram(name: "operator bool", linkageName: "_ZNKSt3__110unique_ptrIN14altered_carbon2js9ACJsValueENS_14default_deleteIS3_EEEcvbEv", scope: !18, file: !19, line: 2536, type: !168, isLocal: false, isDefinition: false, scopeLine: 2536, flags: DIFlagPublic | DIFlagExplicit | DIFlagPrototyped, isOptimized: false)
!168 = !DISubroutineType(types: !169)
!169 = !{!52, !142}
!170 = !DISubprogram(name: "release", linkageName: "_ZNSt3__110unique_ptrIN14altered_carbon2js9ACJsValueENS_14default_deleteIS3_EEE7releaseEv", scope: !18, file: !19, line: 2541, type: !171, isLocal: false, isDefinition: false, scopeLine: 2541, flags: DIFlagPublic | DIFlagPrototyped, isOptimized: false)
!171 = !DISubroutineType(types: !172)
!172 = !{!146, !115}
!173 = !DISubprogram(name: "reset", linkageName: "_ZNSt3__110unique_ptrIN14altered_carbon2js9ACJsValueENS_14default_deleteIS3_EEE5resetEPS3_", scope: !18, file: !19, line: 2548, type: !174, isLocal: false, isDefinition: false, scopeLine: 2548, flags: DIFlagPublic | DIFlagPrototyped, isOptimized: false)
!174 = !DISubroutineType(types: !175)
!175 = !{null, !115, !146}
!176 = !DISubprogram(name: "swap", linkageName: "_ZNSt3__110unique_ptrIN14altered_carbon2js9ACJsValueENS_14default_deleteIS3_EEE4swapERS6_", scope: !18, file: !19, line: 2556, type: !177, isLocal: false, isDefinition: false, scopeLine: 2556, flags: DIFlagPublic | DIFlagPrototyped, isOptimized: false)
!177 = !DISubroutineType(types: !178)
!178 = !{null, !115, !120}
!179 = !DIDerivedType(tag: DW_TAG_member, name: "NaN", scope: !5, file: !4, line: 96, baseType: !17, flags: DIFlagPublic | DIFlagStaticMember)
!180 = !DIDerivedType(tag: DW_TAG_member, name: "Null", scope: !5, file: !4, line: 97, baseType: !17, flags: DIFlagPublic | DIFlagStaticMember)
!181 = !DISubprogram(name: "ACJsValue", scope: !5, file: !4, line: 89, type: !182, isLocal: false, isDefinition: false, scopeLine: 89, flags: DIFlagPublic | DIFlagPrototyped, isOptimized: false)
!182 = !DISubroutineType(types: !183)
!183 = !{null, !184, !185}
!184 = !DIDerivedType(tag: DW_TAG_pointer_type, baseType: !5, size: 64, flags: DIFlagArtificial | DIFlagObjectPointer)
!185 = !DIDerivedType(tag: DW_TAG_const_type, baseType: !3)
!186 = !DISubprogram(name: "~ACJsValue", scope: !5, file: !4, line: 90, type: !187, isLocal: false, isDefinition: false, scopeLine: 90, containingType: !5, virtuality: DW_VIRTUALITY_virtual, virtualIndex: 0, flags: DIFlagPublic | DIFlagPrototyped, isOptimized: false)
!187 = !DISubroutineType(types: !188)
!188 = !{null, !184}
!189 = !DISubprogram(name: "immutableValue", linkageName: "_ZNK14altered_carbon2js9ACJsValue14immutableValueEv", scope: !5, file: !4, line: 91, type: !190, isLocal: false, isDefinition: false, scopeLine: 91, containingType: !5, virtuality: DW_VIRTUALITY_virtual, virtualIndex: 2, flags: DIFlagPublic | DIFlagPrototyped, isOptimized: false)
!190 = !DISubroutineType(types: !191)
!191 = !{!192, !194}
!192 = !DIDerivedType(tag: DW_TAG_pointer_type, baseType: !193, size: 64)
!193 = !DIDerivedType(tag: DW_TAG_const_type, baseType: !5)
!194 = !DIDerivedType(tag: DW_TAG_pointer_type, baseType: !193, size: 64, flags: DIFlagArtificial | DIFlagObjectPointer)
!195 = !DISubprogram(name: "dump", linkageName: "_ZNK14altered_carbon2js9ACJsValue4dumpERNSt3__113basic_ostreamIcNS2_11char_traitsIcEEEE", scope: !5, file: !4, line: 92, type: !196, isLocal: false, isDefinition: false, scopeLine: 92, containingType: !5, virtuality: DW_VIRTUALITY_virtual, virtualIndex: 3, flags: DIFlagPublic | DIFlagPrototyped, isOptimized: false)
!196 = !DISubroutineType(types: !197)
!197 = !{null, !194, !198}
!198 = !DIDerivedType(tag: DW_TAG_reference_type, baseType: !199, size: 64)
!199 = !DIDerivedType(tag: DW_TAG_typedef, name: "ostream", scope: !20, file: !200, line: 147, baseType: !201)
!200 = !DIFile(filename: "/Applications/Xcode.app/Contents/Developer/Toolchains/XcodeDefault.xctoolchain/usr/include/c++/v1/iosfwd", directory: "/Users/ejiang/Projects/lls/ac/llfiles")
!201 = !DICompositeType(tag: DW_TAG_class_type, name: "basic_ostream<char, std::__1::char_traits<char> >", scope: !20, file: !200, line: 111, flags: DIFlagFwdDecl, identifier: "_ZTSNSt3__113basic_ostreamIcNS_11char_traitsIcEEEE")
!202 = !DISubprogram(name: "operator+=", linkageName: "_ZN14altered_carbon2js9ACJsValuepLERKNSt3__110unique_ptrIS1_NS2_14default_deleteIS1_EEEE", scope: !5, file: !4, line: 105, type: !203, isLocal: false, isDefinition: false, scopeLine: 105, containingType: !5, virtuality: DW_VIRTUALITY_virtual, virtualIndex: 4, flags: DIFlagPublic | DIFlagPrototyped, isOptimized: false)
!203 = !DISubroutineType(types: !204)
!204 = !{!141, !184, !205}
!205 = !DIDerivedType(tag: DW_TAG_reference_type, baseType: !17, size: 64)
!206 = !DISubprogram(name: "operator-=", linkageName: "_ZN14altered_carbon2js9ACJsValuemIERKNSt3__110unique_ptrIS1_NS2_14default_deleteIS1_EEEE", scope: !5, file: !4, line: 106, type: !203, isLocal: false, isDefinition: false, scopeLine: 106, containingType: !5, virtuality: DW_VIRTUALITY_virtual, virtualIndex: 5, flags: DIFlagPublic | DIFlagPrototyped, isOptimized: false)
!207 = !DISubprogram(name: "operator*=", linkageName: "_ZN14altered_carbon2js9ACJsValuemLERKNSt3__110unique_ptrIS1_NS2_14default_deleteIS1_EEEE", scope: !5, file: !4, line: 107, type: !203, isLocal: false, isDefinition: false, scopeLine: 107, containingType: !5, virtuality: DW_VIRTUALITY_virtual, virtualIndex: 6, flags: DIFlagPublic | DIFlagPrototyped, isOptimized: false)
!208 = !DISubprogram(name: "operator/=", linkageName: "_ZN14altered_carbon2js9ACJsValuedVERKNSt3__110unique_ptrIS1_NS2_14default_deleteIS1_EEEE", scope: !5, file: !4, line: 108, type: !203, isLocal: false, isDefinition: false, scopeLine: 108, containingType: !5, virtuality: DW_VIRTUALITY_virtual, virtualIndex: 7, flags: DIFlagPublic | DIFlagPrototyped, isOptimized: false)
!209 = !DISubprogram(name: "operator%=", linkageName: "_ZN14altered_carbon2js9ACJsValuerMERKNSt3__110unique_ptrIS1_NS2_14default_deleteIS1_EEEE", scope: !5, file: !4, line: 109, type: !203, isLocal: false, isDefinition: false, scopeLine: 109, containingType: !5, virtuality: DW_VIRTUALITY_virtual, virtualIndex: 8, flags: DIFlagPublic | DIFlagPrototyped, isOptimized: false)
!210 = !DISubprogram(name: "operator^=", linkageName: "_ZN14altered_carbon2js9ACJsValueeOERKNSt3__110unique_ptrIS1_NS2_14default_deleteIS1_EEEE", scope: !5, file: !4, line: 110, type: !203, isLocal: false, isDefinition: false, scopeLine: 110, containingType: !5, virtuality: DW_VIRTUALITY_virtual, virtualIndex: 9, flags: DIFlagPublic | DIFlagPrototyped, isOptimized: false)
!211 = !DISubprogram(name: "operator|=", linkageName: "_ZN14altered_carbon2js9ACJsValueoRERKNSt3__110unique_ptrIS1_NS2_14default_deleteIS1_EEEE", scope: !5, file: !4, line: 111, type: !203, isLocal: false, isDefinition: false, scopeLine: 111, containingType: !5, virtuality: DW_VIRTUALITY_virtual, virtualIndex: 10, flags: DIFlagPublic | DIFlagPrototyped, isOptimized: false)
!212 = !DISubprogram(name: "operator&=", linkageName: "_ZN14altered_carbon2js9ACJsValueaNERKNSt3__110unique_ptrIS1_NS2_14default_deleteIS1_EEEE", scope: !5, file: !4, line: 112, type: !203, isLocal: false, isDefinition: false, scopeLine: 112, containingType: !5, virtuality: DW_VIRTUALITY_virtual, virtualIndex: 11, flags: DIFlagPublic | DIFlagPrototyped, isOptimized: false)
!213 = !DISubprogram(name: "operator>>=", linkageName: "_ZN14altered_carbon2js9ACJsValuerSERKNSt3__110unique_ptrIS1_NS2_14default_deleteIS1_EEEE", scope: !5, file: !4, line: 113, type: !203, isLocal: false, isDefinition: false, scopeLine: 113, containingType: !5, virtuality: DW_VIRTUALITY_virtual, virtualIndex: 12, flags: DIFlagPublic | DIFlagPrototyped, isOptimized: false)
!214 = !DISubprogram(name: "operator<<=", linkageName: "_ZN14altered_carbon2js9ACJsValuelSERKNSt3__110unique_ptrIS1_NS2_14default_deleteIS1_EEEE", scope: !5, file: !4, line: 114, type: !203, isLocal: false, isDefinition: false, scopeLine: 114, containingType: !5, virtuality: DW_VIRTUALITY_virtual, virtualIndex: 13, flags: DIFlagPublic | DIFlagPrototyped, isOptimized: false)
!215 = !DISubprogram(name: "isUndefined", linkageName: "_ZNK14altered_carbon2js9ACJsValue11isUndefinedEv", scope: !5, file: !4, line: 117, type: !216, isLocal: false, isDefinition: false, scopeLine: 117, flags: DIFlagPublic | DIFlagPrototyped, isOptimized: false)
!216 = !DISubroutineType(types: !217)
!217 = !{!52, !194}
!218 = !DISubprogram(name: "isNaN", linkageName: "_ZNK14altered_carbon2js9ACJsValue5isNaNEv", scope: !5, file: !4, line: 118, type: !216, isLocal: false, isDefinition: false, scopeLine: 118, flags: DIFlagPublic | DIFlagPrototyped, isOptimized: false)
!219 = !DISubprogram(name: "isNull", linkageName: "_ZNK14altered_carbon2js9ACJsValue6isNullEv", scope: !5, file: !4, line: 119, type: !216, isLocal: false, isDefinition: false, scopeLine: 119, flags: DIFlagPublic | DIFlagPrototyped, isOptimized: false)
!220 = !DISubprogram(name: "isBoolean", linkageName: "_ZNK14altered_carbon2js9ACJsValue9isBooleanEv", scope: !5, file: !4, line: 122, type: !216, isLocal: false, isDefinition: false, scopeLine: 122, flags: DIFlagPublic | DIFlagPrototyped, isOptimized: false)
!221 = !DISubprogram(name: "isNumber", linkageName: "_ZNK14altered_carbon2js9ACJsValue8isNumberEv", scope: !5, file: !4, line: 123, type: !216, isLocal: false, isDefinition: false, scopeLine: 123, flags: DIFlagPublic | DIFlagPrototyped, isOptimized: false)
!222 = !DISubprogram(name: "isRegExp", linkageName: "_ZNK14altered_carbon2js9ACJsValue8isRegExpEv", scope: !5, file: !4, line: 124, type: !216, isLocal: false, isDefinition: false, scopeLine: 124, flags: DIFlagPublic | DIFlagPrototyped, isOptimized: false)
!223 = !DISubprogram(name: "isString", linkageName: "_ZNK14altered_carbon2js9ACJsValue8isStringEv", scope: !5, file: !4, line: 125, type: !216, isLocal: false, isDefinition: false, scopeLine: 125, flags: DIFlagPublic | DIFlagPrototyped, isOptimized: false)
!224 = !DISubprogram(name: "isBooleanObj", linkageName: "_ZNK14altered_carbon2js9ACJsValue12isBooleanObjEv", scope: !5, file: !4, line: 128, type: !216, isLocal: false, isDefinition: false, scopeLine: 128, flags: DIFlagPublic | DIFlagPrototyped, isOptimized: false)
!225 = !DISubprogram(name: "isNumberObj", linkageName: "_ZNK14altered_carbon2js9ACJsValue11isNumberObjEv", scope: !5, file: !4, line: 129, type: !216, isLocal: false, isDefinition: false, scopeLine: 129, flags: DIFlagPublic | DIFlagPrototyped, isOptimized: false)
!226 = !DISubprogram(name: "isRegExpObj", linkageName: "_ZNK14altered_carbon2js9ACJsValue11isRegExpObjEv", scope: !5, file: !4, line: 130, type: !216, isLocal: false, isDefinition: false, scopeLine: 130, flags: DIFlagPublic | DIFlagPrototyped, isOptimized: false)
!227 = !DISubprogram(name: "isStringObj", linkageName: "_ZNK14altered_carbon2js9ACJsValue11isStringObjEv", scope: !5, file: !4, line: 131, type: !216, isLocal: false, isDefinition: false, scopeLine: 131, flags: DIFlagPublic | DIFlagPrototyped, isOptimized: false)
!228 = !DISubprogram(name: "isArray", linkageName: "_ZNK14altered_carbon2js9ACJsValue7isArrayEv", scope: !5, file: !4, line: 134, type: !216, isLocal: false, isDefinition: false, scopeLine: 134, flags: DIFlagPublic | DIFlagPrototyped, isOptimized: false)
!229 = !DISubprogram(name: "isClass", linkageName: "_ZNK14altered_carbon2js9ACJsValue7isClassEv", scope: !5, file: !4, line: 135, type: !216, isLocal: false, isDefinition: false, scopeLine: 135, flags: DIFlagPublic | DIFlagPrototyped, isOptimized: false)
!230 = !DISubprogram(name: "isFunction", linkageName: "_ZNK14altered_carbon2js9ACJsValue10isFunctionEv", scope: !5, file: !4, line: 136, type: !216, isLocal: false, isDefinition: false, scopeLine: 136, flags: DIFlagPublic | DIFlagPrototyped, isOptimized: false)
!231 = !DISubprogram(name: "isXml", linkageName: "_ZNK14altered_carbon2js9ACJsValue5isXmlEv", scope: !5, file: !4, line: 139, type: !216, isLocal: false, isDefinition: false, scopeLine: 139, flags: DIFlagPublic | DIFlagPrototyped, isOptimized: false)
!232 = !DISubprogram(name: "isProtocolBuffer", linkageName: "_ZNK14altered_carbon2js9ACJsValue16isProtocolBufferEv", scope: !5, file: !4, line: 140, type: !216, isLocal: false, isDefinition: false, scopeLine: 140, flags: DIFlagPublic | DIFlagPrototyped, isOptimized: false)
!233 = !DISubprogram(name: "isObj", linkageName: "_ZNK14altered_carbon2js9ACJsValue5isObjEv", scope: !5, file: !4, line: 143, type: !216, isLocal: false, isDefinition: false, scopeLine: 143, flags: DIFlagPublic | DIFlagPrototyped, isOptimized: false)
!234 = !DISubprogram(name: "toBoolean", linkageName: "_ZN14altered_carbon2js9ACJsValue9toBooleanEv", scope: !5, file: !4, line: 146, type: !235, isLocal: false, isDefinition: false, scopeLine: 146, containingType: !5, virtuality: DW_VIRTUALITY_virtual, virtualIndex: 14, flags: DIFlagPublic | DIFlagPrototyped, isOptimized: false)
!235 = !DISubroutineType(types: !236)
!236 = !{!52, !184}
!237 = !DISubprogram(name: "toNumber", linkageName: "_ZN14altered_carbon2js9ACJsValue8toNumberEv", scope: !5, file: !4, line: 147, type: !238, isLocal: false, isDefinition: false, scopeLine: 147, containingType: !5, virtuality: DW_VIRTUALITY_virtual, virtualIndex: 15, flags: DIFlagPublic | DIFlagPrototyped, isOptimized: false)
!238 = !DISubroutineType(types: !239)
!239 = !{!30, !184}
!240 = !DISubprogram(name: "toRegExp", linkageName: "_ZN14altered_carbon2js9ACJsValue8toRegExpEv", scope: !5, file: !4, line: 150, type: !238, isLocal: false, isDefinition: false, scopeLine: 150, containingType: !5, virtuality: DW_VIRTUALITY_virtual, virtualIndex: 16, flags: DIFlagPublic | DIFlagPrototyped, isOptimized: false)
!241 = !DISubprogram(name: "toString", linkageName: "_ZN14altered_carbon2js9ACJsValue8toStringEv", scope: !5, file: !4, line: 153, type: !238, isLocal: false, isDefinition: false, scopeLine: 153, containingType: !5, virtuality: DW_VIRTUALITY_virtual, virtualIndex: 17, flags: DIFlagPublic | DIFlagPrototyped, isOptimized: false)
!242 = !{!243, !244, !245, !246, !247, !248, !249, !250, !251, !252, !253, !254, !255, !256, !257, !258}
!243 = !DIEnumerator(name: "JS_UNDEFINED", value: -2)
!244 = !DIEnumerator(name: "JS_NAN", value: -1)
!245 = !DIEnumerator(name: "JS_NULL", value: 0)
!246 = !DIEnumerator(name: "JS_BOOLEAN", value: 1)
!247 = !DIEnumerator(name: "JS_NUMBER", value: 2)
!248 = !DIEnumerator(name: "JS_REGEXP", value: 3)
!249 = !DIEnumerator(name: "JS_STRING", value: 4)
!250 = !DIEnumerator(name: "JS_BOOLEAN_OBJ", value: 11)
!251 = !DIEnumerator(name: "JS_NUMBER_OBJ", value: 12)
!252 = !DIEnumerator(name: "JS_REGEXP_OBJ", value: 13)
!253 = !DIEnumerator(name: "JS_STRING_OBJ", value: 14)
!254 = !DIEnumerator(name: "JS_ARRAY", value: 20)
!255 = !DIEnumerator(name: "JS_CLASS", value: 21)
!256 = !DIEnumerator(name: "JS_FUNCTION", value: 22)
!257 = !DIEnumerator(name: "JS_PB", value: 23)
!258 = !DIEnumerator(name: "JS_XML", value: 24)
!259 = !{!260, !265, !268, !272, !274, !281, !287, !294, !302, !306, !310, !314, !320, !325, !329, !333, !337, !341, !346, !348, !353, !358, !362, !366, !370, !374, !379, !383, !385, !389, !391, !400, !404, !409, !413, !415, !419, !423, !425, !429, !435, !439, !443, !449, !454, !458, !461, !464, !468, !472, !475, !478, !481, !483, !485, !487, !489, !491, !493, !495, !497, !499, !501, !503, !505, !507, !509, !511, !516, !519, !522, !525, !527, !532, !534, !538, !542, !544, !546, !550, !554, !558, !560, !564, !569, !573, !577, !579, !581, !583, !585, !587, !589, !593, !597, !599, !603, !605, !610, !614, !616, !618, !622, !624, !626, !628, !630, !632, !634, !636, !641, !645, !647, !649, !654, !659, !661, !663, !665, !667, !669, !671, !673, !675, !677, !679, !681, !683, !685, !687, !689, !691, !695, !697, !699, !701, !705, !707, !711, !713, !715, !717, !719, !723, !725, !727, !731, !733, !735, !739, !741, !745, !747, !749, !753, !755, !757, !759, !761, !763, !765, !769, !771, !773, !775, !777, !779, !781, !783, !787, !791, !793, !795, !797, !799, !801, !803, !805, !807, !809, !811, !813, !815, !817, !819, !821, !823, !825, !827, !829, !833, !835, !837, !839, !843, !845, !849, !851, !853, !855, !857, !861, !863, !867, !869, !871, !873, !875, !879, !881, !883, !887, !889, !891, !893, !948, !949, !950, !956, !958, !962, !966, !970, !972, !976, !980, !984, !995, !997, !1001, !1005, !1009, !1011, !1015, !1019, !1023, !1025, !1027, !1029, !1033, !1037, !1042, !1046, !1052, !1056, !1060, !1062, !1064, !1066, !1070, !1074, !1078, !1080, !1082, !1086, !1090, !1092, !1094, !1098, !1102, !1104, !1108, !1110, !1112, !1116, !1118, !1120, !1122, !1124, !1126, !1128, !1130, !1132, !1134, !1136, !1138, !1140, !1142, !1147, !1152, !1157, !1162, !1164, !1167, !1169, !1171, !1173, !1175, !1177, !1179, !1181, !1183, !1185, !1189, !1193, !1197, !1199, !1203, !1207, !1220, !1221, !1236, !1237, !1238, !1243, !1245, !1249, !1253, !1257, !1261, !1263, !1267, !1271, !1275, !1279, !1283, !1287, !1289, !1291, !1295, !1300, !1304, !1308, !1312, !1316, !1320, !1324, !1328, !1332, !1334, !1336, !1340, !1342, !1346, !1350, !1355, !1357, !1359, !1361, !1365, !1369, !1373, !1375, !1379, !1381, !1383, !1385, !1387, !1393, !1397, !1399, !1405, !1410, !1414, !1418, !1423, !1428, !1432, !1436, !1440, !1444, !1446, !1448, !1450}
!260 = !DIImportedEntity(tag: DW_TAG_imported_declaration, scope: !20, entity: !261, file: !264, line: 49)
!261 = !DIDerivedType(tag: DW_TAG_typedef, name: "ptrdiff_t", file: !262, line: 51, baseType: !263)
!262 = !DIFile(filename: "/Applications/Xcode.app/Contents/Developer/Toolchains/XcodeDefault.xctoolchain/usr/lib/clang/9.1.0/include/stddef.h", directory: "/Users/ejiang/Projects/lls/ac/llfiles")
!263 = !DIBasicType(name: "long int", size: 64, encoding: DW_ATE_signed)
!264 = !DIFile(filename: "/Applications/Xcode.app/Contents/Developer/Toolchains/XcodeDefault.xctoolchain/usr/include/c++/v1/cstddef", directory: "/Users/ejiang/Projects/lls/ac/llfiles")
!265 = !DIImportedEntity(tag: DW_TAG_imported_declaration, scope: !20, entity: !266, file: !264, line: 50)
!266 = !DIDerivedType(tag: DW_TAG_typedef, name: "size_t", file: !262, line: 62, baseType: !267)
!267 = !DIBasicType(name: "long unsigned int", size: 64, encoding: DW_ATE_unsigned)
!268 = !DIImportedEntity(tag: DW_TAG_imported_declaration, scope: !20, entity: !269, file: !264, line: 55)
!269 = !DIDerivedType(tag: DW_TAG_typedef, name: "max_align_t", file: !270, line: 32, baseType: !271)
!270 = !DIFile(filename: "/Applications/Xcode.app/Contents/Developer/Toolchains/XcodeDefault.xctoolchain/usr/lib/clang/9.1.0/include/__stddef_max_align_t.h", directory: "/Users/ejiang/Projects/lls/ac/llfiles")
!271 = !DIBasicType(name: "long double", size: 128, encoding: DW_ATE_float)
!272 = !DIImportedEntity(tag: DW_TAG_imported_declaration, scope: !20, entity: !266, file: !273, line: 100)
!273 = !DIFile(filename: "/Applications/Xcode.app/Contents/Developer/Toolchains/XcodeDefault.xctoolchain/usr/include/c++/v1/cstdlib", directory: "/Users/ejiang/Projects/lls/ac/llfiles")
!274 = !DIImportedEntity(tag: DW_TAG_imported_declaration, scope: !20, entity: !275, file: !273, line: 101)
!275 = !DIDerivedType(tag: DW_TAG_typedef, name: "div_t", file: !276, line: 85, baseType: !277)
!276 = !DIFile(filename: "/Applications/Xcode.app/Contents/Developer/Platforms/MacOSX.platform/Developer/SDKs/MacOSX10.13.sdk/usr/include/stdlib.h", directory: "/Users/ejiang/Projects/lls/ac/llfiles")
!277 = distinct !DICompositeType(tag: DW_TAG_structure_type, file: !276, line: 82, size: 64, elements: !278, identifier: "_ZTS5div_t")
!278 = !{!279, !280}
!279 = !DIDerivedType(tag: DW_TAG_member, name: "quot", scope: !277, file: !276, line: 83, baseType: !14, size: 32)
!280 = !DIDerivedType(tag: DW_TAG_member, name: "rem", scope: !277, file: !276, line: 84, baseType: !14, size: 32, offset: 32)
!281 = !DIImportedEntity(tag: DW_TAG_imported_declaration, scope: !20, entity: !282, file: !273, line: 102)
!282 = !DIDerivedType(tag: DW_TAG_typedef, name: "ldiv_t", file: !276, line: 90, baseType: !283)
!283 = distinct !DICompositeType(tag: DW_TAG_structure_type, file: !276, line: 87, size: 128, elements: !284, identifier: "_ZTS6ldiv_t")
!284 = !{!285, !286}
!285 = !DIDerivedType(tag: DW_TAG_member, name: "quot", scope: !283, file: !276, line: 88, baseType: !263, size: 64)
!286 = !DIDerivedType(tag: DW_TAG_member, name: "rem", scope: !283, file: !276, line: 89, baseType: !263, size: 64, offset: 64)
!287 = !DIImportedEntity(tag: DW_TAG_imported_declaration, scope: !20, entity: !288, file: !273, line: 104)
!288 = !DIDerivedType(tag: DW_TAG_typedef, name: "lldiv_t", file: !276, line: 96, baseType: !289)
!289 = distinct !DICompositeType(tag: DW_TAG_structure_type, file: !276, line: 93, size: 128, elements: !290, identifier: "_ZTS7lldiv_t")
!290 = !{!291, !293}
!291 = !DIDerivedType(tag: DW_TAG_member, name: "quot", scope: !289, file: !276, line: 94, baseType: !292, size: 64)
!292 = !DIBasicType(name: "long long int", size: 64, encoding: DW_ATE_signed)
!293 = !DIDerivedType(tag: DW_TAG_member, name: "rem", scope: !289, file: !276, line: 95, baseType: !292, size: 64, offset: 64)
!294 = !DIImportedEntity(tag: DW_TAG_imported_declaration, scope: !20, entity: !295, file: !273, line: 106)
!295 = !DISubprogram(name: "atof", scope: !276, file: !276, line: 139, type: !296, isLocal: false, isDefinition: false, flags: DIFlagPrototyped, isOptimized: false)
!296 = !DISubroutineType(types: !297)
!297 = !{!298, !299}
!298 = !DIBasicType(name: "double", size: 64, encoding: DW_ATE_float)
!299 = !DIDerivedType(tag: DW_TAG_pointer_type, baseType: !300, size: 64)
!300 = !DIDerivedType(tag: DW_TAG_const_type, baseType: !301)
!301 = !DIBasicType(name: "char", size: 8, encoding: DW_ATE_signed_char)
!302 = !DIImportedEntity(tag: DW_TAG_imported_declaration, scope: !20, entity: !303, file: !273, line: 107)
!303 = !DISubprogram(name: "atoi", scope: !276, file: !276, line: 140, type: !304, isLocal: false, isDefinition: false, flags: DIFlagPrototyped, isOptimized: false)
!304 = !DISubroutineType(types: !305)
!305 = !{!14, !299}
!306 = !DIImportedEntity(tag: DW_TAG_imported_declaration, scope: !20, entity: !307, file: !273, line: 108)
!307 = !DISubprogram(name: "atol", scope: !276, file: !276, line: 141, type: !308, isLocal: false, isDefinition: false, flags: DIFlagPrototyped, isOptimized: false)
!308 = !DISubroutineType(types: !309)
!309 = !{!263, !299}
!310 = !DIImportedEntity(tag: DW_TAG_imported_declaration, scope: !20, entity: !311, file: !273, line: 110)
!311 = !DISubprogram(name: "atoll", scope: !276, file: !276, line: 144, type: !312, isLocal: false, isDefinition: false, flags: DIFlagPrototyped, isOptimized: false)
!312 = !DISubroutineType(types: !313)
!313 = !{!292, !299}
!314 = !DIImportedEntity(tag: DW_TAG_imported_declaration, scope: !20, entity: !315, file: !273, line: 112)
!315 = !DISubprogram(name: "strtod", linkageName: "\01_strtod", scope: !276, file: !276, line: 170, type: !316, isLocal: false, isDefinition: false, flags: DIFlagPrototyped, isOptimized: false)
!316 = !DISubroutineType(types: !317)
!317 = !{!298, !299, !318}
!318 = !DIDerivedType(tag: DW_TAG_pointer_type, baseType: !319, size: 64)
!319 = !DIDerivedType(tag: DW_TAG_pointer_type, baseType: !301, size: 64)
!320 = !DIImportedEntity(tag: DW_TAG_imported_declaration, scope: !20, entity: !321, file: !273, line: 113)
!321 = !DISubprogram(name: "strtof", linkageName: "\01_strtof", scope: !276, file: !276, line: 171, type: !322, isLocal: false, isDefinition: false, flags: DIFlagPrototyped, isOptimized: false)
!322 = !DISubroutineType(types: !323)
!323 = !{!324, !299, !318}
!324 = !DIBasicType(name: "float", size: 32, encoding: DW_ATE_float)
!325 = !DIImportedEntity(tag: DW_TAG_imported_declaration, scope: !20, entity: !326, file: !273, line: 114)
!326 = !DISubprogram(name: "strtold", scope: !276, file: !276, line: 174, type: !327, isLocal: false, isDefinition: false, flags: DIFlagPrototyped, isOptimized: false)
!327 = !DISubroutineType(types: !328)
!328 = !{!271, !299, !318}
!329 = !DIImportedEntity(tag: DW_TAG_imported_declaration, scope: !20, entity: !330, file: !273, line: 115)
!330 = !DISubprogram(name: "strtol", scope: !276, file: !276, line: 172, type: !331, isLocal: false, isDefinition: false, flags: DIFlagPrototyped, isOptimized: false)
!331 = !DISubroutineType(types: !332)
!332 = !{!263, !299, !318, !14}
!333 = !DIImportedEntity(tag: DW_TAG_imported_declaration, scope: !20, entity: !334, file: !273, line: 117)
!334 = !DISubprogram(name: "strtoll", scope: !276, file: !276, line: 177, type: !335, isLocal: false, isDefinition: false, flags: DIFlagPrototyped, isOptimized: false)
!335 = !DISubroutineType(types: !336)
!336 = !{!292, !299, !318, !14}
!337 = !DIImportedEntity(tag: DW_TAG_imported_declaration, scope: !20, entity: !338, file: !273, line: 119)
!338 = !DISubprogram(name: "strtoul", scope: !276, file: !276, line: 180, type: !339, isLocal: false, isDefinition: false, flags: DIFlagPrototyped, isOptimized: false)
!339 = !DISubroutineType(types: !340)
!340 = !{!267, !299, !318, !14}
!341 = !DIImportedEntity(tag: DW_TAG_imported_declaration, scope: !20, entity: !342, file: !273, line: 121)
!342 = !DISubprogram(name: "strtoull", scope: !276, file: !276, line: 183, type: !343, isLocal: false, isDefinition: false, flags: DIFlagPrototyped, isOptimized: false)
!343 = !DISubroutineType(types: !344)
!344 = !{!345, !299, !318, !14}
!345 = !DIBasicType(name: "long long unsigned int", size: 64, encoding: DW_ATE_unsigned)
!346 = !DIImportedEntity(tag: DW_TAG_imported_declaration, scope: !20, entity: !347, file: !273, line: 123)
!347 = !DISubprogram(name: "rand", scope: !276, file: !276, line: 167, type: !12, isLocal: false, isDefinition: false, flags: DIFlagPrototyped, isOptimized: false)
!348 = !DIImportedEntity(tag: DW_TAG_imported_declaration, scope: !20, entity: !349, file: !273, line: 124)
!349 = !DISubprogram(name: "srand", scope: !276, file: !276, line: 169, type: !350, isLocal: false, isDefinition: false, flags: DIFlagPrototyped, isOptimized: false)
!350 = !DISubroutineType(types: !351)
!351 = !{null, !352}
!352 = !DIBasicType(name: "unsigned int", size: 32, encoding: DW_ATE_unsigned)
!353 = !DIImportedEntity(tag: DW_TAG_imported_declaration, scope: !20, entity: !354, file: !273, line: 125)
!354 = !DISubprogram(name: "calloc", scope: !276, file: !276, line: 148, type: !355, isLocal: false, isDefinition: false, flags: DIFlagPrototyped, isOptimized: false)
!355 = !DISubroutineType(types: !356)
!356 = !{!357, !266, !266}
!357 = !DIDerivedType(tag: DW_TAG_pointer_type, baseType: null, size: 64)
!358 = !DIImportedEntity(tag: DW_TAG_imported_declaration, scope: !20, entity: !359, file: !273, line: 126)
!359 = !DISubprogram(name: "free", scope: !276, file: !276, line: 151, type: !360, isLocal: false, isDefinition: false, flags: DIFlagPrototyped, isOptimized: false)
!360 = !DISubroutineType(types: !361)
!361 = !{null, !357}
!362 = !DIImportedEntity(tag: DW_TAG_imported_declaration, scope: !20, entity: !363, file: !273, line: 127)
!363 = !DISubprogram(name: "malloc", scope: !276, file: !276, line: 160, type: !364, isLocal: false, isDefinition: false, flags: DIFlagPrototyped, isOptimized: false)
!364 = !DISubroutineType(types: !365)
!365 = !{!357, !266}
!366 = !DIImportedEntity(tag: DW_TAG_imported_declaration, scope: !20, entity: !367, file: !273, line: 128)
!367 = !DISubprogram(name: "realloc", scope: !276, file: !276, line: 168, type: !368, isLocal: false, isDefinition: false, flags: DIFlagPrototyped, isOptimized: false)
!368 = !DISubroutineType(types: !369)
!369 = !{!357, !357, !266}
!370 = !DIImportedEntity(tag: DW_TAG_imported_declaration, scope: !20, entity: !371, file: !273, line: 129)
!371 = !DISubprogram(name: "abort", scope: !276, file: !276, line: 136, type: !372, isLocal: false, isDefinition: false, flags: DIFlagPrototyped | DIFlagNoReturn, isOptimized: false)
!372 = !DISubroutineType(types: !373)
!373 = !{null}
!374 = !DIImportedEntity(tag: DW_TAG_imported_declaration, scope: !20, entity: !375, file: !273, line: 130)
!375 = !DISubprogram(name: "atexit", scope: !276, file: !276, line: 138, type: !376, isLocal: false, isDefinition: false, flags: DIFlagPrototyped, isOptimized: false)
!376 = !DISubroutineType(types: !377)
!377 = !{!14, !378}
!378 = !DIDerivedType(tag: DW_TAG_pointer_type, baseType: !372, size: 64)
!379 = !DIImportedEntity(tag: DW_TAG_imported_declaration, scope: !20, entity: !380, file: !273, line: 131)
!380 = !DISubprogram(name: "exit", scope: !276, file: !276, line: 150, type: !381, isLocal: false, isDefinition: false, flags: DIFlagPrototyped | DIFlagNoReturn, isOptimized: false)
!381 = !DISubroutineType(types: !382)
!382 = !{null, !14}
!383 = !DIImportedEntity(tag: DW_TAG_imported_declaration, scope: !20, entity: !384, file: !273, line: 132)
!384 = !DISubprogram(name: "_Exit", scope: !276, file: !276, line: 203, type: !381, isLocal: false, isDefinition: false, flags: DIFlagPrototyped | DIFlagNoReturn, isOptimized: false)
!385 = !DIImportedEntity(tag: DW_TAG_imported_declaration, scope: !20, entity: !386, file: !273, line: 134)
!386 = !DISubprogram(name: "getenv", scope: !276, file: !276, line: 152, type: !387, isLocal: false, isDefinition: false, flags: DIFlagPrototyped, isOptimized: false)
!387 = !DISubroutineType(types: !388)
!388 = !{!319, !299}
!389 = !DIImportedEntity(tag: DW_TAG_imported_declaration, scope: !20, entity: !390, file: !273, line: 135)
!390 = !DISubprogram(name: "system", linkageName: "\01_system", scope: !276, file: !276, line: 195, type: !304, isLocal: false, isDefinition: false, flags: DIFlagPrototyped, isOptimized: false)
!391 = !DIImportedEntity(tag: DW_TAG_imported_declaration, scope: !20, entity: !392, file: !273, line: 137)
!392 = !DISubprogram(name: "bsearch", scope: !276, file: !276, line: 146, type: !393, isLocal: false, isDefinition: false, flags: DIFlagPrototyped, isOptimized: false)
!393 = !DISubroutineType(types: !394)
!394 = !{!357, !395, !395, !266, !266, !397}
!395 = !DIDerivedType(tag: DW_TAG_pointer_type, baseType: !396, size: 64)
!396 = !DIDerivedType(tag: DW_TAG_const_type, baseType: null)
!397 = !DIDerivedType(tag: DW_TAG_pointer_type, baseType: !398, size: 64)
!398 = !DISubroutineType(types: !399)
!399 = !{!14, !395, !395}
!400 = !DIImportedEntity(tag: DW_TAG_imported_declaration, scope: !20, entity: !401, file: !273, line: 138)
!401 = !DISubprogram(name: "qsort", scope: !276, file: !276, line: 165, type: !402, isLocal: false, isDefinition: false, flags: DIFlagPrototyped, isOptimized: false)
!402 = !DISubroutineType(types: !403)
!403 = !{null, !357, !266, !266, !397}
!404 = !DIImportedEntity(tag: DW_TAG_imported_declaration, scope: !20, entity: !405, file: !273, line: 139)
!405 = !DISubprogram(name: "abs", linkageName: "_Z3absx", scope: !406, file: !406, line: 113, type: !407, isLocal: false, isDefinition: false, flags: DIFlagPrototyped, isOptimized: false)
!406 = !DIFile(filename: "/Applications/Xcode.app/Contents/Developer/Toolchains/XcodeDefault.xctoolchain/usr/include/c++/v1/stdlib.h", directory: "/Users/ejiang/Projects/lls/ac/llfiles")
!407 = !DISubroutineType(types: !408)
!408 = !{!292, !292}
!409 = !DIImportedEntity(tag: DW_TAG_imported_declaration, scope: !20, entity: !410, file: !273, line: 140)
!410 = !DISubprogram(name: "labs", scope: !276, file: !276, line: 153, type: !411, isLocal: false, isDefinition: false, flags: DIFlagPrototyped, isOptimized: false)
!411 = !DISubroutineType(types: !412)
!412 = !{!263, !263}
!413 = !DIImportedEntity(tag: DW_TAG_imported_declaration, scope: !20, entity: !414, file: !273, line: 142)
!414 = !DISubprogram(name: "llabs", scope: !276, file: !276, line: 157, type: !407, isLocal: false, isDefinition: false, flags: DIFlagPrototyped, isOptimized: false)
!415 = !DIImportedEntity(tag: DW_TAG_imported_declaration, scope: !20, entity: !416, file: !273, line: 144)
!416 = !DISubprogram(name: "div", linkageName: "_Z3divxx", scope: !406, file: !406, line: 118, type: !417, isLocal: false, isDefinition: false, flags: DIFlagPrototyped, isOptimized: false)
!417 = !DISubroutineType(types: !418)
!418 = !{!288, !292, !292}
!419 = !DIImportedEntity(tag: DW_TAG_imported_declaration, scope: !20, entity: !420, file: !273, line: 145)
!420 = !DISubprogram(name: "ldiv", scope: !276, file: !276, line: 154, type: !421, isLocal: false, isDefinition: false, flags: DIFlagPrototyped, isOptimized: false)
!421 = !DISubroutineType(types: !422)
!422 = !{!282, !263, !263}
!423 = !DIImportedEntity(tag: DW_TAG_imported_declaration, scope: !20, entity: !424, file: !273, line: 147)
!424 = !DISubprogram(name: "lldiv", scope: !276, file: !276, line: 158, type: !417, isLocal: false, isDefinition: false, flags: DIFlagPrototyped, isOptimized: false)
!425 = !DIImportedEntity(tag: DW_TAG_imported_declaration, scope: !20, entity: !426, file: !273, line: 149)
!426 = !DISubprogram(name: "mblen", scope: !276, file: !276, line: 161, type: !427, isLocal: false, isDefinition: false, flags: DIFlagPrototyped, isOptimized: false)
!427 = !DISubroutineType(types: !428)
!428 = !{!14, !299, !266}
!429 = !DIImportedEntity(tag: DW_TAG_imported_declaration, scope: !20, entity: !430, file: !273, line: 150)
!430 = !DISubprogram(name: "mbtowc", scope: !276, file: !276, line: 163, type: !431, isLocal: false, isDefinition: false, flags: DIFlagPrototyped, isOptimized: false)
!431 = !DISubroutineType(types: !432)
!432 = !{!14, !433, !299, !266}
!433 = !DIDerivedType(tag: DW_TAG_pointer_type, baseType: !434, size: 64)
!434 = !DIBasicType(name: "wchar_t", size: 32, encoding: DW_ATE_signed)
!435 = !DIImportedEntity(tag: DW_TAG_imported_declaration, scope: !20, entity: !436, file: !273, line: 151)
!436 = !DISubprogram(name: "wctomb", scope: !276, file: !276, line: 200, type: !437, isLocal: false, isDefinition: false, flags: DIFlagPrototyped, isOptimized: false)
!437 = !DISubroutineType(types: !438)
!438 = !{!14, !319, !434}
!439 = !DIImportedEntity(tag: DW_TAG_imported_declaration, scope: !20, entity: !440, file: !273, line: 152)
!440 = !DISubprogram(name: "mbstowcs", scope: !276, file: !276, line: 162, type: !441, isLocal: false, isDefinition: false, flags: DIFlagPrototyped, isOptimized: false)
!441 = !DISubroutineType(types: !442)
!442 = !{!266, !433, !299, !266}
!443 = !DIImportedEntity(tag: DW_TAG_imported_declaration, scope: !20, entity: !444, file: !273, line: 153)
!444 = !DISubprogram(name: "wcstombs", scope: !276, file: !276, line: 199, type: !445, isLocal: false, isDefinition: false, flags: DIFlagPrototyped, isOptimized: false)
!445 = !DISubroutineType(types: !446)
!446 = !{!266, !319, !447, !266}
!447 = !DIDerivedType(tag: DW_TAG_pointer_type, baseType: !448, size: 64)
!448 = !DIDerivedType(tag: DW_TAG_const_type, baseType: !434)
!449 = !DIImportedEntity(tag: DW_TAG_imported_declaration, scope: !20, entity: !450, file: !453, line: 153)
!450 = !DIDerivedType(tag: DW_TAG_typedef, name: "int8_t", file: !451, line: 30, baseType: !452)
!451 = !DIFile(filename: "/Applications/Xcode.app/Contents/Developer/Platforms/MacOSX.platform/Developer/SDKs/MacOSX10.13.sdk/usr/include/sys/_types/_int8_t.h", directory: "/Users/ejiang/Projects/lls/ac/llfiles")
!452 = !DIBasicType(name: "signed char", size: 8, encoding: DW_ATE_signed_char)
!453 = !DIFile(filename: "/Applications/Xcode.app/Contents/Developer/Toolchains/XcodeDefault.xctoolchain/usr/include/c++/v1/cstdint", directory: "/Users/ejiang/Projects/lls/ac/llfiles")
!454 = !DIImportedEntity(tag: DW_TAG_imported_declaration, scope: !20, entity: !455, file: !453, line: 154)
!455 = !DIDerivedType(tag: DW_TAG_typedef, name: "int16_t", file: !456, line: 30, baseType: !457)
!456 = !DIFile(filename: "/Applications/Xcode.app/Contents/Developer/Platforms/MacOSX.platform/Developer/SDKs/MacOSX10.13.sdk/usr/include/sys/_types/_int16_t.h", directory: "/Users/ejiang/Projects/lls/ac/llfiles")
!457 = !DIBasicType(name: "short", size: 16, encoding: DW_ATE_signed)
!458 = !DIImportedEntity(tag: DW_TAG_imported_declaration, scope: !20, entity: !459, file: !453, line: 155)
!459 = !DIDerivedType(tag: DW_TAG_typedef, name: "int32_t", file: !460, line: 30, baseType: !14)
!460 = !DIFile(filename: "/Applications/Xcode.app/Contents/Developer/Platforms/MacOSX.platform/Developer/SDKs/MacOSX10.13.sdk/usr/include/sys/_types/_int32_t.h", directory: "/Users/ejiang/Projects/lls/ac/llfiles")
!461 = !DIImportedEntity(tag: DW_TAG_imported_declaration, scope: !20, entity: !462, file: !453, line: 156)
!462 = !DIDerivedType(tag: DW_TAG_typedef, name: "int64_t", file: !463, line: 30, baseType: !292)
!463 = !DIFile(filename: "/Applications/Xcode.app/Contents/Developer/Platforms/MacOSX.platform/Developer/SDKs/MacOSX10.13.sdk/usr/include/sys/_types/_int64_t.h", directory: "/Users/ejiang/Projects/lls/ac/llfiles")
!464 = !DIImportedEntity(tag: DW_TAG_imported_declaration, scope: !20, entity: !465, file: !453, line: 158)
!465 = !DIDerivedType(tag: DW_TAG_typedef, name: "uint8_t", file: !466, line: 31, baseType: !467)
!466 = !DIFile(filename: "/Applications/Xcode.app/Contents/Developer/Platforms/MacOSX.platform/Developer/SDKs/MacOSX10.13.sdk/usr/include/_types/_uint8_t.h", directory: "/Users/ejiang/Projects/lls/ac/llfiles")
!467 = !DIBasicType(name: "unsigned char", size: 8, encoding: DW_ATE_unsigned_char)
!468 = !DIImportedEntity(tag: DW_TAG_imported_declaration, scope: !20, entity: !469, file: !453, line: 159)
!469 = !DIDerivedType(tag: DW_TAG_typedef, name: "uint16_t", file: !470, line: 31, baseType: !471)
!470 = !DIFile(filename: "/Applications/Xcode.app/Contents/Developer/Platforms/MacOSX.platform/Developer/SDKs/MacOSX10.13.sdk/usr/include/_types/_uint16_t.h", directory: "/Users/ejiang/Projects/lls/ac/llfiles")
!471 = !DIBasicType(name: "unsigned short", size: 16, encoding: DW_ATE_unsigned)
!472 = !DIImportedEntity(tag: DW_TAG_imported_declaration, scope: !20, entity: !473, file: !453, line: 160)
!473 = !DIDerivedType(tag: DW_TAG_typedef, name: "uint32_t", file: !474, line: 31, baseType: !352)
!474 = !DIFile(filename: "/Applications/Xcode.app/Contents/Developer/Platforms/MacOSX.platform/Developer/SDKs/MacOSX10.13.sdk/usr/include/_types/_uint32_t.h", directory: "/Users/ejiang/Projects/lls/ac/llfiles")
!475 = !DIImportedEntity(tag: DW_TAG_imported_declaration, scope: !20, entity: !476, file: !453, line: 161)
!476 = !DIDerivedType(tag: DW_TAG_typedef, name: "uint64_t", file: !477, line: 31, baseType: !345)
!477 = !DIFile(filename: "/Applications/Xcode.app/Contents/Developer/Platforms/MacOSX.platform/Developer/SDKs/MacOSX10.13.sdk/usr/include/_types/_uint64_t.h", directory: "/Users/ejiang/Projects/lls/ac/llfiles")
!478 = !DIImportedEntity(tag: DW_TAG_imported_declaration, scope: !20, entity: !479, file: !453, line: 163)
!479 = !DIDerivedType(tag: DW_TAG_typedef, name: "int_least8_t", file: !480, line: 29, baseType: !450)
!480 = !DIFile(filename: "/Applications/Xcode.app/Contents/Developer/Platforms/MacOSX.platform/Developer/SDKs/MacOSX10.13.sdk/usr/include/stdint.h", directory: "/Users/ejiang/Projects/lls/ac/llfiles")
!481 = !DIImportedEntity(tag: DW_TAG_imported_declaration, scope: !20, entity: !482, file: !453, line: 164)
!482 = !DIDerivedType(tag: DW_TAG_typedef, name: "int_least16_t", file: !480, line: 30, baseType: !455)
!483 = !DIImportedEntity(tag: DW_TAG_imported_declaration, scope: !20, entity: !484, file: !453, line: 165)
!484 = !DIDerivedType(tag: DW_TAG_typedef, name: "int_least32_t", file: !480, line: 31, baseType: !459)
!485 = !DIImportedEntity(tag: DW_TAG_imported_declaration, scope: !20, entity: !486, file: !453, line: 166)
!486 = !DIDerivedType(tag: DW_TAG_typedef, name: "int_least64_t", file: !480, line: 32, baseType: !462)
!487 = !DIImportedEntity(tag: DW_TAG_imported_declaration, scope: !20, entity: !488, file: !453, line: 168)
!488 = !DIDerivedType(tag: DW_TAG_typedef, name: "uint_least8_t", file: !480, line: 33, baseType: !465)
!489 = !DIImportedEntity(tag: DW_TAG_imported_declaration, scope: !20, entity: !490, file: !453, line: 169)
!490 = !DIDerivedType(tag: DW_TAG_typedef, name: "uint_least16_t", file: !480, line: 34, baseType: !469)
!491 = !DIImportedEntity(tag: DW_TAG_imported_declaration, scope: !20, entity: !492, file: !453, line: 170)
!492 = !DIDerivedType(tag: DW_TAG_typedef, name: "uint_least32_t", file: !480, line: 35, baseType: !473)
!493 = !DIImportedEntity(tag: DW_TAG_imported_declaration, scope: !20, entity: !494, file: !453, line: 171)
!494 = !DIDerivedType(tag: DW_TAG_typedef, name: "uint_least64_t", file: !480, line: 36, baseType: !476)
!495 = !DIImportedEntity(tag: DW_TAG_imported_declaration, scope: !20, entity: !496, file: !453, line: 173)
!496 = !DIDerivedType(tag: DW_TAG_typedef, name: "int_fast8_t", file: !480, line: 40, baseType: !450)
!497 = !DIImportedEntity(tag: DW_TAG_imported_declaration, scope: !20, entity: !498, file: !453, line: 174)
!498 = !DIDerivedType(tag: DW_TAG_typedef, name: "int_fast16_t", file: !480, line: 41, baseType: !455)
!499 = !DIImportedEntity(tag: DW_TAG_imported_declaration, scope: !20, entity: !500, file: !453, line: 175)
!500 = !DIDerivedType(tag: DW_TAG_typedef, name: "int_fast32_t", file: !480, line: 42, baseType: !459)
!501 = !DIImportedEntity(tag: DW_TAG_imported_declaration, scope: !20, entity: !502, file: !453, line: 176)
!502 = !DIDerivedType(tag: DW_TAG_typedef, name: "int_fast64_t", file: !480, line: 43, baseType: !462)
!503 = !DIImportedEntity(tag: DW_TAG_imported_declaration, scope: !20, entity: !504, file: !453, line: 178)
!504 = !DIDerivedType(tag: DW_TAG_typedef, name: "uint_fast8_t", file: !480, line: 44, baseType: !465)
!505 = !DIImportedEntity(tag: DW_TAG_imported_declaration, scope: !20, entity: !506, file: !453, line: 179)
!506 = !DIDerivedType(tag: DW_TAG_typedef, name: "uint_fast16_t", file: !480, line: 45, baseType: !469)
!507 = !DIImportedEntity(tag: DW_TAG_imported_declaration, scope: !20, entity: !508, file: !453, line: 180)
!508 = !DIDerivedType(tag: DW_TAG_typedef, name: "uint_fast32_t", file: !480, line: 46, baseType: !473)
!509 = !DIImportedEntity(tag: DW_TAG_imported_declaration, scope: !20, entity: !510, file: !453, line: 181)
!510 = !DIDerivedType(tag: DW_TAG_typedef, name: "uint_fast64_t", file: !480, line: 47, baseType: !476)
!511 = !DIImportedEntity(tag: DW_TAG_imported_declaration, scope: !20, entity: !512, file: !453, line: 183)
!512 = !DIDerivedType(tag: DW_TAG_typedef, name: "intptr_t", file: !513, line: 32, baseType: !514)
!513 = !DIFile(filename: "/Applications/Xcode.app/Contents/Developer/Platforms/MacOSX.platform/Developer/SDKs/MacOSX10.13.sdk/usr/include/sys/_types/_intptr_t.h", directory: "/Users/ejiang/Projects/lls/ac/llfiles")
!514 = !DIDerivedType(tag: DW_TAG_typedef, name: "__darwin_intptr_t", file: !515, line: 49, baseType: !263)
!515 = !DIFile(filename: "/Applications/Xcode.app/Contents/Developer/Platforms/MacOSX.platform/Developer/SDKs/MacOSX10.13.sdk/usr/include/i386/_types.h", directory: "/Users/ejiang/Projects/lls/ac/llfiles")
!516 = !DIImportedEntity(tag: DW_TAG_imported_declaration, scope: !20, entity: !517, file: !453, line: 184)
!517 = !DIDerivedType(tag: DW_TAG_typedef, name: "uintptr_t", file: !518, line: 30, baseType: !267)
!518 = !DIFile(filename: "/Applications/Xcode.app/Contents/Developer/Platforms/MacOSX.platform/Developer/SDKs/MacOSX10.13.sdk/usr/include/sys/_types/_uintptr_t.h", directory: "/Users/ejiang/Projects/lls/ac/llfiles")
!519 = !DIImportedEntity(tag: DW_TAG_imported_declaration, scope: !20, entity: !520, file: !453, line: 186)
!520 = !DIDerivedType(tag: DW_TAG_typedef, name: "intmax_t", file: !521, line: 32, baseType: !263)
!521 = !DIFile(filename: "/Applications/Xcode.app/Contents/Developer/Platforms/MacOSX.platform/Developer/SDKs/MacOSX10.13.sdk/usr/include/_types/_intmax_t.h", directory: "/Users/ejiang/Projects/lls/ac/llfiles")
!522 = !DIImportedEntity(tag: DW_TAG_imported_declaration, scope: !20, entity: !523, file: !453, line: 187)
!523 = !DIDerivedType(tag: DW_TAG_typedef, name: "uintmax_t", file: !524, line: 32, baseType: !267)
!524 = !DIFile(filename: "/Applications/Xcode.app/Contents/Developer/Platforms/MacOSX.platform/Developer/SDKs/MacOSX10.13.sdk/usr/include/_types/_uintmax_t.h", directory: "/Users/ejiang/Projects/lls/ac/llfiles")
!525 = !DIImportedEntity(tag: DW_TAG_imported_declaration, scope: !20, entity: !266, file: !526, line: 69)
!526 = !DIFile(filename: "/Applications/Xcode.app/Contents/Developer/Toolchains/XcodeDefault.xctoolchain/usr/include/c++/v1/cstring", directory: "/Users/ejiang/Projects/lls/ac/llfiles")
!527 = !DIImportedEntity(tag: DW_TAG_imported_declaration, scope: !20, entity: !528, file: !526, line: 70)
!528 = !DISubprogram(name: "memcpy", scope: !529, file: !529, line: 72, type: !530, isLocal: false, isDefinition: false, flags: DIFlagPrototyped, isOptimized: false)
!529 = !DIFile(filename: "/Applications/Xcode.app/Contents/Developer/Platforms/MacOSX.platform/Developer/SDKs/MacOSX10.13.sdk/usr/include/string.h", directory: "/Users/ejiang/Projects/lls/ac/llfiles")
!530 = !DISubroutineType(types: !531)
!531 = !{!357, !357, !395, !266}
!532 = !DIImportedEntity(tag: DW_TAG_imported_declaration, scope: !20, entity: !533, file: !526, line: 71)
!533 = !DISubprogram(name: "memmove", scope: !529, file: !529, line: 73, type: !530, isLocal: false, isDefinition: false, flags: DIFlagPrototyped, isOptimized: false)
!534 = !DIImportedEntity(tag: DW_TAG_imported_declaration, scope: !20, entity: !535, file: !526, line: 72)
!535 = !DISubprogram(name: "strcpy", scope: !529, file: !529, line: 79, type: !536, isLocal: false, isDefinition: false, flags: DIFlagPrototyped, isOptimized: false)
!536 = !DISubroutineType(types: !537)
!537 = !{!319, !319, !299}
!538 = !DIImportedEntity(tag: DW_TAG_imported_declaration, scope: !20, entity: !539, file: !526, line: 73)
!539 = !DISubprogram(name: "strncpy", scope: !529, file: !529, line: 85, type: !540, isLocal: false, isDefinition: false, flags: DIFlagPrototyped, isOptimized: false)
!540 = !DISubroutineType(types: !541)
!541 = !{!319, !319, !299, !266}
!542 = !DIImportedEntity(tag: DW_TAG_imported_declaration, scope: !20, entity: !543, file: !526, line: 74)
!543 = !DISubprogram(name: "strcat", scope: !529, file: !529, line: 75, type: !536, isLocal: false, isDefinition: false, flags: DIFlagPrototyped, isOptimized: false)
!544 = !DIImportedEntity(tag: DW_TAG_imported_declaration, scope: !20, entity: !545, file: !526, line: 75)
!545 = !DISubprogram(name: "strncat", scope: !529, file: !529, line: 83, type: !540, isLocal: false, isDefinition: false, flags: DIFlagPrototyped, isOptimized: false)
!546 = !DIImportedEntity(tag: DW_TAG_imported_declaration, scope: !20, entity: !547, file: !526, line: 76)
!547 = !DISubprogram(name: "memcmp", scope: !529, file: !529, line: 71, type: !548, isLocal: false, isDefinition: false, flags: DIFlagPrototyped, isOptimized: false)
!548 = !DISubroutineType(types: !549)
!549 = !{!14, !395, !395, !266}
!550 = !DIImportedEntity(tag: DW_TAG_imported_declaration, scope: !20, entity: !551, file: !526, line: 77)
!551 = !DISubprogram(name: "strcmp", scope: !529, file: !529, line: 77, type: !552, isLocal: false, isDefinition: false, flags: DIFlagPrototyped, isOptimized: false)
!552 = !DISubroutineType(types: !553)
!553 = !{!14, !299, !299}
!554 = !DIImportedEntity(tag: DW_TAG_imported_declaration, scope: !20, entity: !555, file: !526, line: 78)
!555 = !DISubprogram(name: "strncmp", scope: !529, file: !529, line: 84, type: !556, isLocal: false, isDefinition: false, flags: DIFlagPrototyped, isOptimized: false)
!556 = !DISubroutineType(types: !557)
!557 = !{!14, !299, !299, !266}
!558 = !DIImportedEntity(tag: DW_TAG_imported_declaration, scope: !20, entity: !559, file: !526, line: 79)
!559 = !DISubprogram(name: "strcoll", scope: !529, file: !529, line: 78, type: !552, isLocal: false, isDefinition: false, flags: DIFlagPrototyped, isOptimized: false)
!560 = !DIImportedEntity(tag: DW_TAG_imported_declaration, scope: !20, entity: !561, file: !526, line: 80)
!561 = !DISubprogram(name: "strxfrm", scope: !529, file: !529, line: 91, type: !562, isLocal: false, isDefinition: false, flags: DIFlagPrototyped, isOptimized: false)
!562 = !DISubroutineType(types: !563)
!563 = !{!266, !319, !299, !266}
!564 = !DIImportedEntity(tag: DW_TAG_imported_declaration, scope: !20, entity: !565, file: !526, line: 81)
!565 = !DISubprogram(name: "memchr", linkageName: "_Z6memchrUa9enable_ifIXLb1EEEPvim", scope: !566, file: !566, line: 99, type: !567, isLocal: false, isDefinition: false, flags: DIFlagPrototyped, isOptimized: false)
!566 = !DIFile(filename: "/Applications/Xcode.app/Contents/Developer/Toolchains/XcodeDefault.xctoolchain/usr/include/c++/v1/string.h", directory: "/Users/ejiang/Projects/lls/ac/llfiles")
!567 = !DISubroutineType(types: !568)
!568 = !{!357, !357, !14, !266}
!569 = !DIImportedEntity(tag: DW_TAG_imported_declaration, scope: !20, entity: !570, file: !526, line: 82)
!570 = !DISubprogram(name: "strchr", linkageName: "_Z6strchrUa9enable_ifIXLb1EEEPci", scope: !566, file: !566, line: 78, type: !571, isLocal: false, isDefinition: false, flags: DIFlagPrototyped, isOptimized: false)
!571 = !DISubroutineType(types: !572)
!572 = !{!319, !319, !14}
!573 = !DIImportedEntity(tag: DW_TAG_imported_declaration, scope: !20, entity: !574, file: !526, line: 83)
!574 = !DISubprogram(name: "strcspn", scope: !529, file: !529, line: 80, type: !575, isLocal: false, isDefinition: false, flags: DIFlagPrototyped, isOptimized: false)
!575 = !DISubroutineType(types: !576)
!576 = !{!266, !299, !299}
!577 = !DIImportedEntity(tag: DW_TAG_imported_declaration, scope: !20, entity: !578, file: !526, line: 84)
!578 = !DISubprogram(name: "strpbrk", linkageName: "_Z7strpbrkUa9enable_ifIXLb1EEEPcPKc", scope: !566, file: !566, line: 85, type: !536, isLocal: false, isDefinition: false, flags: DIFlagPrototyped, isOptimized: false)
!579 = !DIImportedEntity(tag: DW_TAG_imported_declaration, scope: !20, entity: !580, file: !526, line: 85)
!580 = !DISubprogram(name: "strrchr", linkageName: "_Z7strrchrUa9enable_ifIXLb1EEEPci", scope: !566, file: !566, line: 92, type: !571, isLocal: false, isDefinition: false, flags: DIFlagPrototyped, isOptimized: false)
!581 = !DIImportedEntity(tag: DW_TAG_imported_declaration, scope: !20, entity: !582, file: !526, line: 86)
!582 = !DISubprogram(name: "strspn", scope: !529, file: !529, line: 88, type: !575, isLocal: false, isDefinition: false, flags: DIFlagPrototyped, isOptimized: false)
!583 = !DIImportedEntity(tag: DW_TAG_imported_declaration, scope: !20, entity: !584, file: !526, line: 87)
!584 = !DISubprogram(name: "strstr", linkageName: "_Z6strstrUa9enable_ifIXLb1EEEPcPKc", scope: !566, file: !566, line: 106, type: !536, isLocal: false, isDefinition: false, flags: DIFlagPrototyped, isOptimized: false)
!585 = !DIImportedEntity(tag: DW_TAG_imported_declaration, scope: !20, entity: !586, file: !526, line: 89)
!586 = !DISubprogram(name: "strtok", scope: !529, file: !529, line: 90, type: !536, isLocal: false, isDefinition: false, flags: DIFlagPrototyped, isOptimized: false)
!587 = !DIImportedEntity(tag: DW_TAG_imported_declaration, scope: !20, entity: !588, file: !526, line: 91)
!588 = !DISubprogram(name: "memset", scope: !529, file: !529, line: 74, type: !567, isLocal: false, isDefinition: false, flags: DIFlagPrototyped, isOptimized: false)
!589 = !DIImportedEntity(tag: DW_TAG_imported_declaration, scope: !20, entity: !590, file: !526, line: 92)
!590 = !DISubprogram(name: "strerror", linkageName: "\01_strerror", scope: !529, file: !529, line: 81, type: !591, isLocal: false, isDefinition: false, flags: DIFlagPrototyped, isOptimized: false)
!591 = !DISubroutineType(types: !592)
!592 = !{!319, !14}
!593 = !DIImportedEntity(tag: DW_TAG_imported_declaration, scope: !20, entity: !594, file: !526, line: 93)
!594 = !DISubprogram(name: "strlen", scope: !529, file: !529, line: 82, type: !595, isLocal: false, isDefinition: false, flags: DIFlagPrototyped, isOptimized: false)
!595 = !DISubroutineType(types: !596)
!596 = !{!266, !299}
!597 = !DIImportedEntity(tag: DW_TAG_imported_declaration, scope: !0, entity: !127, file: !598, line: 52)
!598 = !DIFile(filename: "/Applications/Xcode.app/Contents/Developer/Toolchains/XcodeDefault.xctoolchain/usr/include/c++/v1/stddef.h", directory: "/Users/ejiang/Projects/lls/ac/llfiles")
!599 = !DIImportedEntity(tag: DW_TAG_imported_declaration, scope: !20, entity: !600, file: !602, line: 327)
!600 = !DIDerivedType(tag: DW_TAG_typedef, name: "float_t", file: !601, line: 44, baseType: !324)
!601 = !DIFile(filename: "/Applications/Xcode.app/Contents/Developer/Platforms/MacOSX.platform/Developer/SDKs/MacOSX10.13.sdk/usr/include/math.h", directory: "/Users/ejiang/Projects/lls/ac/llfiles")
!602 = !DIFile(filename: "/Applications/Xcode.app/Contents/Developer/Toolchains/XcodeDefault.xctoolchain/usr/include/c++/v1/cmath", directory: "/Users/ejiang/Projects/lls/ac/llfiles")
!603 = !DIImportedEntity(tag: DW_TAG_imported_declaration, scope: !20, entity: !604, file: !602, line: 328)
!604 = !DIDerivedType(tag: DW_TAG_typedef, name: "double_t", file: !601, line: 45, baseType: !298)
!605 = !DIImportedEntity(tag: DW_TAG_imported_declaration, scope: !20, entity: !606, file: !602, line: 331)
!606 = !DISubprogram(name: "abs", linkageName: "_Z3abse", scope: !607, file: !607, line: 741, type: !608, isLocal: false, isDefinition: false, flags: DIFlagPrototyped, isOptimized: false)
!607 = !DIFile(filename: "/Applications/Xcode.app/Contents/Developer/Toolchains/XcodeDefault.xctoolchain/usr/include/c++/v1/math.h", directory: "/Users/ejiang/Projects/lls/ac/llfiles")
!608 = !DISubroutineType(types: !609)
!609 = !{!271, !271}
!610 = !DIImportedEntity(tag: DW_TAG_imported_declaration, scope: !20, entity: !611, file: !602, line: 335)
!611 = !DISubprogram(name: "acosf", scope: !601, file: !601, line: 322, type: !612, isLocal: false, isDefinition: false, flags: DIFlagPrototyped, isOptimized: false)
!612 = !DISubroutineType(types: !613)
!613 = !{!324, !324}
!614 = !DIImportedEntity(tag: DW_TAG_imported_declaration, scope: !20, entity: !615, file: !602, line: 337)
!615 = !DISubprogram(name: "asinf", scope: !601, file: !601, line: 326, type: !612, isLocal: false, isDefinition: false, flags: DIFlagPrototyped, isOptimized: false)
!616 = !DIImportedEntity(tag: DW_TAG_imported_declaration, scope: !20, entity: !617, file: !602, line: 339)
!617 = !DISubprogram(name: "atanf", scope: !601, file: !601, line: 330, type: !612, isLocal: false, isDefinition: false, flags: DIFlagPrototyped, isOptimized: false)
!618 = !DIImportedEntity(tag: DW_TAG_imported_declaration, scope: !20, entity: !619, file: !602, line: 341)
!619 = !DISubprogram(name: "atan2f", scope: !601, file: !601, line: 334, type: !620, isLocal: false, isDefinition: false, flags: DIFlagPrototyped, isOptimized: false)
!620 = !DISubroutineType(types: !621)
!621 = !{!324, !324, !324}
!622 = !DIImportedEntity(tag: DW_TAG_imported_declaration, scope: !20, entity: !623, file: !602, line: 343)
!623 = !DISubprogram(name: "ceilf", scope: !601, file: !601, line: 469, type: !612, isLocal: false, isDefinition: false, flags: DIFlagPrototyped, isOptimized: false)
!624 = !DIImportedEntity(tag: DW_TAG_imported_declaration, scope: !20, entity: !625, file: !602, line: 345)
!625 = !DISubprogram(name: "cosf", scope: !601, file: !601, line: 338, type: !612, isLocal: false, isDefinition: false, flags: DIFlagPrototyped, isOptimized: false)
!626 = !DIImportedEntity(tag: DW_TAG_imported_declaration, scope: !20, entity: !627, file: !602, line: 347)
!627 = !DISubprogram(name: "coshf", scope: !601, file: !601, line: 362, type: !612, isLocal: false, isDefinition: false, flags: DIFlagPrototyped, isOptimized: false)
!628 = !DIImportedEntity(tag: DW_TAG_imported_declaration, scope: !20, entity: !629, file: !602, line: 350)
!629 = !DISubprogram(name: "expf", scope: !601, file: !601, line: 374, type: !612, isLocal: false, isDefinition: false, flags: DIFlagPrototyped, isOptimized: false)
!630 = !DIImportedEntity(tag: DW_TAG_imported_declaration, scope: !20, entity: !631, file: !602, line: 353)
!631 = !DISubprogram(name: "fabsf", scope: !601, file: !601, line: 430, type: !612, isLocal: false, isDefinition: false, flags: DIFlagPrototyped, isOptimized: false)
!632 = !DIImportedEntity(tag: DW_TAG_imported_declaration, scope: !20, entity: !633, file: !602, line: 355)
!633 = !DISubprogram(name: "floorf", scope: !601, file: !601, line: 473, type: !612, isLocal: false, isDefinition: false, flags: DIFlagPrototyped, isOptimized: false)
!634 = !DIImportedEntity(tag: DW_TAG_imported_declaration, scope: !20, entity: !635, file: !602, line: 358)
!635 = !DISubprogram(name: "fmodf", scope: !601, file: !601, line: 513, type: !620, isLocal: false, isDefinition: false, flags: DIFlagPrototyped, isOptimized: false)
!636 = !DIImportedEntity(tag: DW_TAG_imported_declaration, scope: !20, entity: !637, file: !602, line: 361)
!637 = !DISubprogram(name: "frexpf", scope: !601, file: !601, line: 414, type: !638, isLocal: false, isDefinition: false, flags: DIFlagPrototyped, isOptimized: false)
!638 = !DISubroutineType(types: !639)
!639 = !{!324, !324, !640}
!640 = !DIDerivedType(tag: DW_TAG_pointer_type, baseType: !14, size: 64)
!641 = !DIImportedEntity(tag: DW_TAG_imported_declaration, scope: !20, entity: !642, file: !602, line: 363)
!642 = !DISubprogram(name: "ldexpf", scope: !601, file: !601, line: 410, type: !643, isLocal: false, isDefinition: false, flags: DIFlagPrototyped, isOptimized: false)
!643 = !DISubroutineType(types: !644)
!644 = !{!324, !324, !14}
!645 = !DIImportedEntity(tag: DW_TAG_imported_declaration, scope: !20, entity: !646, file: !602, line: 366)
!646 = !DISubprogram(name: "logf", scope: !601, file: !601, line: 386, type: !612, isLocal: false, isDefinition: false, flags: DIFlagPrototyped, isOptimized: false)
!647 = !DIImportedEntity(tag: DW_TAG_imported_declaration, scope: !20, entity: !648, file: !602, line: 369)
!648 = !DISubprogram(name: "log10f", scope: !601, file: !601, line: 390, type: !612, isLocal: false, isDefinition: false, flags: DIFlagPrototyped, isOptimized: false)
!649 = !DIImportedEntity(tag: DW_TAG_imported_declaration, scope: !20, entity: !650, file: !602, line: 370)
!650 = !DISubprogram(name: "modf", linkageName: "_Z4modfePe", scope: !607, file: !607, line: 950, type: !651, isLocal: false, isDefinition: false, flags: DIFlagPrototyped, isOptimized: false)
!651 = !DISubroutineType(types: !652)
!652 = !{!271, !271, !653}
!653 = !DIDerivedType(tag: DW_TAG_pointer_type, baseType: !271, size: 64)
!654 = !DIImportedEntity(tag: DW_TAG_imported_declaration, scope: !20, entity: !655, file: !602, line: 371)
!655 = !DISubprogram(name: "modff", scope: !601, file: !601, line: 406, type: !656, isLocal: false, isDefinition: false, flags: DIFlagPrototyped, isOptimized: false)
!656 = !DISubroutineType(types: !657)
!657 = !{!324, !324, !658}
!658 = !DIDerivedType(tag: DW_TAG_pointer_type, baseType: !324, size: 64)
!659 = !DIImportedEntity(tag: DW_TAG_imported_declaration, scope: !20, entity: !660, file: !602, line: 374)
!660 = !DISubprogram(name: "powf", scope: !601, file: !601, line: 442, type: !620, isLocal: false, isDefinition: false, flags: DIFlagPrototyped, isOptimized: false)
!661 = !DIImportedEntity(tag: DW_TAG_imported_declaration, scope: !20, entity: !662, file: !602, line: 377)
!662 = !DISubprogram(name: "sinf", scope: !601, file: !601, line: 342, type: !612, isLocal: false, isDefinition: false, flags: DIFlagPrototyped, isOptimized: false)
!663 = !DIImportedEntity(tag: DW_TAG_imported_declaration, scope: !20, entity: !664, file: !602, line: 379)
!664 = !DISubprogram(name: "sinhf", scope: !601, file: !601, line: 366, type: !612, isLocal: false, isDefinition: false, flags: DIFlagPrototyped, isOptimized: false)
!665 = !DIImportedEntity(tag: DW_TAG_imported_declaration, scope: !20, entity: !666, file: !602, line: 382)
!666 = !DISubprogram(name: "sqrtf", scope: !601, file: !601, line: 446, type: !612, isLocal: false, isDefinition: false, flags: DIFlagPrototyped, isOptimized: false)
!667 = !DIImportedEntity(tag: DW_TAG_imported_declaration, scope: !20, entity: !668, file: !602, line: 384)
!668 = !DISubprogram(name: "tanf", scope: !601, file: !601, line: 346, type: !612, isLocal: false, isDefinition: false, flags: DIFlagPrototyped, isOptimized: false)
!669 = !DIImportedEntity(tag: DW_TAG_imported_declaration, scope: !20, entity: !670, file: !602, line: 387)
!670 = !DISubprogram(name: "tanhf", scope: !601, file: !601, line: 370, type: !612, isLocal: false, isDefinition: false, flags: DIFlagPrototyped, isOptimized: false)
!671 = !DIImportedEntity(tag: DW_TAG_imported_declaration, scope: !20, entity: !672, file: !602, line: 390)
!672 = !DISubprogram(name: "acoshf", scope: !601, file: !601, line: 350, type: !612, isLocal: false, isDefinition: false, flags: DIFlagPrototyped, isOptimized: false)
!673 = !DIImportedEntity(tag: DW_TAG_imported_declaration, scope: !20, entity: !674, file: !602, line: 392)
!674 = !DISubprogram(name: "asinhf", scope: !601, file: !601, line: 354, type: !612, isLocal: false, isDefinition: false, flags: DIFlagPrototyped, isOptimized: false)
!675 = !DIImportedEntity(tag: DW_TAG_imported_declaration, scope: !20, entity: !676, file: !602, line: 394)
!676 = !DISubprogram(name: "atanhf", scope: !601, file: !601, line: 358, type: !612, isLocal: false, isDefinition: false, flags: DIFlagPrototyped, isOptimized: false)
!677 = !DIImportedEntity(tag: DW_TAG_imported_declaration, scope: !20, entity: !678, file: !602, line: 396)
!678 = !DISubprogram(name: "cbrtf", scope: !601, file: !601, line: 434, type: !612, isLocal: false, isDefinition: false, flags: DIFlagPrototyped, isOptimized: false)
!679 = !DIImportedEntity(tag: DW_TAG_imported_declaration, scope: !20, entity: !680, file: !602, line: 399)
!680 = !DISubprogram(name: "copysignf", scope: !601, file: !601, line: 525, type: !620, isLocal: false, isDefinition: false, flags: DIFlagPrototyped, isOptimized: false)
!681 = !DIImportedEntity(tag: DW_TAG_imported_declaration, scope: !20, entity: !682, file: !602, line: 402)
!682 = !DISubprogram(name: "erff", scope: !601, file: !601, line: 450, type: !612, isLocal: false, isDefinition: false, flags: DIFlagPrototyped, isOptimized: false)
!683 = !DIImportedEntity(tag: DW_TAG_imported_declaration, scope: !20, entity: !684, file: !602, line: 404)
!684 = !DISubprogram(name: "erfcf", scope: !601, file: !601, line: 454, type: !612, isLocal: false, isDefinition: false, flags: DIFlagPrototyped, isOptimized: false)
!685 = !DIImportedEntity(tag: DW_TAG_imported_declaration, scope: !20, entity: !686, file: !602, line: 406)
!686 = !DISubprogram(name: "exp2f", scope: !601, file: !601, line: 378, type: !612, isLocal: false, isDefinition: false, flags: DIFlagPrototyped, isOptimized: false)
!687 = !DIImportedEntity(tag: DW_TAG_imported_declaration, scope: !20, entity: !688, file: !602, line: 408)
!688 = !DISubprogram(name: "expm1f", scope: !601, file: !601, line: 382, type: !612, isLocal: false, isDefinition: false, flags: DIFlagPrototyped, isOptimized: false)
!689 = !DIImportedEntity(tag: DW_TAG_imported_declaration, scope: !20, entity: !690, file: !602, line: 410)
!690 = !DISubprogram(name: "fdimf", scope: !601, file: !601, line: 541, type: !620, isLocal: false, isDefinition: false, flags: DIFlagPrototyped, isOptimized: false)
!691 = !DIImportedEntity(tag: DW_TAG_imported_declaration, scope: !20, entity: !692, file: !602, line: 411)
!692 = !DISubprogram(name: "fmaf", scope: !601, file: !601, line: 553, type: !693, isLocal: false, isDefinition: false, flags: DIFlagPrototyped, isOptimized: false)
!693 = !DISubroutineType(types: !694)
!694 = !{!324, !324, !324, !324}
!695 = !DIImportedEntity(tag: DW_TAG_imported_declaration, scope: !20, entity: !696, file: !602, line: 414)
!696 = !DISubprogram(name: "fmaxf", scope: !601, file: !601, line: 545, type: !620, isLocal: false, isDefinition: false, flags: DIFlagPrototyped, isOptimized: false)
!697 = !DIImportedEntity(tag: DW_TAG_imported_declaration, scope: !20, entity: !698, file: !602, line: 416)
!698 = !DISubprogram(name: "fminf", scope: !601, file: !601, line: 549, type: !620, isLocal: false, isDefinition: false, flags: DIFlagPrototyped, isOptimized: false)
!699 = !DIImportedEntity(tag: DW_TAG_imported_declaration, scope: !20, entity: !700, file: !602, line: 418)
!700 = !DISubprogram(name: "hypotf", scope: !601, file: !601, line: 438, type: !620, isLocal: false, isDefinition: false, flags: DIFlagPrototyped, isOptimized: false)
!701 = !DIImportedEntity(tag: DW_TAG_imported_declaration, scope: !20, entity: !702, file: !602, line: 420)
!702 = !DISubprogram(name: "ilogbf", scope: !601, file: !601, line: 418, type: !703, isLocal: false, isDefinition: false, flags: DIFlagPrototyped, isOptimized: false)
!703 = !DISubroutineType(types: !704)
!704 = !{!14, !324}
!705 = !DIImportedEntity(tag: DW_TAG_imported_declaration, scope: !20, entity: !706, file: !602, line: 422)
!706 = !DISubprogram(name: "lgammaf", scope: !601, file: !601, line: 461, type: !612, isLocal: false, isDefinition: false, flags: DIFlagPrototyped, isOptimized: false)
!707 = !DIImportedEntity(tag: DW_TAG_imported_declaration, scope: !20, entity: !708, file: !602, line: 424)
!708 = !DISubprogram(name: "llrintf", scope: !601, file: !601, line: 500, type: !709, isLocal: false, isDefinition: false, flags: DIFlagPrototyped, isOptimized: false)
!709 = !DISubroutineType(types: !710)
!710 = !{!292, !324}
!711 = !DIImportedEntity(tag: DW_TAG_imported_declaration, scope: !20, entity: !712, file: !602, line: 426)
!712 = !DISubprogram(name: "llroundf", scope: !601, file: !601, line: 504, type: !709, isLocal: false, isDefinition: false, flags: DIFlagPrototyped, isOptimized: false)
!713 = !DIImportedEntity(tag: DW_TAG_imported_declaration, scope: !20, entity: !714, file: !602, line: 428)
!714 = !DISubprogram(name: "log1pf", scope: !601, file: !601, line: 398, type: !612, isLocal: false, isDefinition: false, flags: DIFlagPrototyped, isOptimized: false)
!715 = !DIImportedEntity(tag: DW_TAG_imported_declaration, scope: !20, entity: !716, file: !602, line: 430)
!716 = !DISubprogram(name: "log2f", scope: !601, file: !601, line: 394, type: !612, isLocal: false, isDefinition: false, flags: DIFlagPrototyped, isOptimized: false)
!717 = !DIImportedEntity(tag: DW_TAG_imported_declaration, scope: !20, entity: !718, file: !602, line: 432)
!718 = !DISubprogram(name: "logbf", scope: !601, file: !601, line: 402, type: !612, isLocal: false, isDefinition: false, flags: DIFlagPrototyped, isOptimized: false)
!719 = !DIImportedEntity(tag: DW_TAG_imported_declaration, scope: !20, entity: !720, file: !602, line: 434)
!720 = !DISubprogram(name: "lrintf", scope: !601, file: !601, line: 485, type: !721, isLocal: false, isDefinition: false, flags: DIFlagPrototyped, isOptimized: false)
!721 = !DISubroutineType(types: !722)
!722 = !{!263, !324}
!723 = !DIImportedEntity(tag: DW_TAG_imported_declaration, scope: !20, entity: !724, file: !602, line: 436)
!724 = !DISubprogram(name: "lroundf", scope: !601, file: !601, line: 493, type: !721, isLocal: false, isDefinition: false, flags: DIFlagPrototyped, isOptimized: false)
!725 = !DIImportedEntity(tag: DW_TAG_imported_declaration, scope: !20, entity: !726, file: !602, line: 438)
!726 = !DISubprogram(name: "nan", scope: !601, file: !601, line: 530, type: !296, isLocal: false, isDefinition: false, flags: DIFlagPrototyped, isOptimized: false)
!727 = !DIImportedEntity(tag: DW_TAG_imported_declaration, scope: !20, entity: !728, file: !602, line: 439)
!728 = !DISubprogram(name: "nanf", scope: !601, file: !601, line: 529, type: !729, isLocal: false, isDefinition: false, flags: DIFlagPrototyped, isOptimized: false)
!729 = !DISubroutineType(types: !730)
!730 = !{!324, !299}
!731 = !DIImportedEntity(tag: DW_TAG_imported_declaration, scope: !20, entity: !732, file: !602, line: 442)
!732 = !DISubprogram(name: "nearbyintf", scope: !601, file: !601, line: 477, type: !612, isLocal: false, isDefinition: false, flags: DIFlagPrototyped, isOptimized: false)
!733 = !DIImportedEntity(tag: DW_TAG_imported_declaration, scope: !20, entity: !734, file: !602, line: 444)
!734 = !DISubprogram(name: "nextafterf", scope: !601, file: !601, line: 533, type: !620, isLocal: false, isDefinition: false, flags: DIFlagPrototyped, isOptimized: false)
!735 = !DIImportedEntity(tag: DW_TAG_imported_declaration, scope: !20, entity: !736, file: !602, line: 446)
!736 = !DISubprogram(name: "nexttowardf", scope: !601, file: !601, line: 538, type: !737, isLocal: false, isDefinition: false, flags: DIFlagPrototyped, isOptimized: false)
!737 = !DISubroutineType(types: !738)
!738 = !{!324, !324, !271}
!739 = !DIImportedEntity(tag: DW_TAG_imported_declaration, scope: !20, entity: !740, file: !602, line: 448)
!740 = !DISubprogram(name: "remainderf", scope: !601, file: !601, line: 517, type: !620, isLocal: false, isDefinition: false, flags: DIFlagPrototyped, isOptimized: false)
!741 = !DIImportedEntity(tag: DW_TAG_imported_declaration, scope: !20, entity: !742, file: !602, line: 450)
!742 = !DISubprogram(name: "remquof", scope: !601, file: !601, line: 521, type: !743, isLocal: false, isDefinition: false, flags: DIFlagPrototyped, isOptimized: false)
!743 = !DISubroutineType(types: !744)
!744 = !{!324, !324, !324, !640}
!745 = !DIImportedEntity(tag: DW_TAG_imported_declaration, scope: !20, entity: !746, file: !602, line: 452)
!746 = !DISubprogram(name: "rintf", scope: !601, file: !601, line: 481, type: !612, isLocal: false, isDefinition: false, flags: DIFlagPrototyped, isOptimized: false)
!747 = !DIImportedEntity(tag: DW_TAG_imported_declaration, scope: !20, entity: !748, file: !602, line: 454)
!748 = !DISubprogram(name: "roundf", scope: !601, file: !601, line: 489, type: !612, isLocal: false, isDefinition: false, flags: DIFlagPrototyped, isOptimized: false)
!749 = !DIImportedEntity(tag: DW_TAG_imported_declaration, scope: !20, entity: !750, file: !602, line: 456)
!750 = !DISubprogram(name: "scalblnf", scope: !601, file: !601, line: 426, type: !751, isLocal: false, isDefinition: false, flags: DIFlagPrototyped, isOptimized: false)
!751 = !DISubroutineType(types: !752)
!752 = !{!324, !324, !263}
!753 = !DIImportedEntity(tag: DW_TAG_imported_declaration, scope: !20, entity: !754, file: !602, line: 458)
!754 = !DISubprogram(name: "scalbnf", scope: !601, file: !601, line: 422, type: !643, isLocal: false, isDefinition: false, flags: DIFlagPrototyped, isOptimized: false)
!755 = !DIImportedEntity(tag: DW_TAG_imported_declaration, scope: !20, entity: !756, file: !602, line: 460)
!756 = !DISubprogram(name: "tgammaf", scope: !601, file: !601, line: 465, type: !612, isLocal: false, isDefinition: false, flags: DIFlagPrototyped, isOptimized: false)
!757 = !DIImportedEntity(tag: DW_TAG_imported_declaration, scope: !20, entity: !758, file: !602, line: 462)
!758 = !DISubprogram(name: "truncf", scope: !601, file: !601, line: 509, type: !612, isLocal: false, isDefinition: false, flags: DIFlagPrototyped, isOptimized: false)
!759 = !DIImportedEntity(tag: DW_TAG_imported_declaration, scope: !20, entity: !760, file: !602, line: 464)
!760 = !DISubprogram(name: "acosl", scope: !601, file: !601, line: 324, type: !608, isLocal: false, isDefinition: false, flags: DIFlagPrototyped, isOptimized: false)
!761 = !DIImportedEntity(tag: DW_TAG_imported_declaration, scope: !20, entity: !762, file: !602, line: 465)
!762 = !DISubprogram(name: "asinl", scope: !601, file: !601, line: 328, type: !608, isLocal: false, isDefinition: false, flags: DIFlagPrototyped, isOptimized: false)
!763 = !DIImportedEntity(tag: DW_TAG_imported_declaration, scope: !20, entity: !764, file: !602, line: 466)
!764 = !DISubprogram(name: "atanl", scope: !601, file: !601, line: 332, type: !608, isLocal: false, isDefinition: false, flags: DIFlagPrototyped, isOptimized: false)
!765 = !DIImportedEntity(tag: DW_TAG_imported_declaration, scope: !20, entity: !766, file: !602, line: 467)
!766 = !DISubprogram(name: "atan2l", scope: !601, file: !601, line: 336, type: !767, isLocal: false, isDefinition: false, flags: DIFlagPrototyped, isOptimized: false)
!767 = !DISubroutineType(types: !768)
!768 = !{!271, !271, !271}
!769 = !DIImportedEntity(tag: DW_TAG_imported_declaration, scope: !20, entity: !770, file: !602, line: 468)
!770 = !DISubprogram(name: "ceill", scope: !601, file: !601, line: 471, type: !608, isLocal: false, isDefinition: false, flags: DIFlagPrototyped, isOptimized: false)
!771 = !DIImportedEntity(tag: DW_TAG_imported_declaration, scope: !20, entity: !772, file: !602, line: 469)
!772 = !DISubprogram(name: "cosl", scope: !601, file: !601, line: 340, type: !608, isLocal: false, isDefinition: false, flags: DIFlagPrototyped, isOptimized: false)
!773 = !DIImportedEntity(tag: DW_TAG_imported_declaration, scope: !20, entity: !774, file: !602, line: 470)
!774 = !DISubprogram(name: "coshl", scope: !601, file: !601, line: 364, type: !608, isLocal: false, isDefinition: false, flags: DIFlagPrototyped, isOptimized: false)
!775 = !DIImportedEntity(tag: DW_TAG_imported_declaration, scope: !20, entity: !776, file: !602, line: 471)
!776 = !DISubprogram(name: "expl", scope: !601, file: !601, line: 376, type: !608, isLocal: false, isDefinition: false, flags: DIFlagPrototyped, isOptimized: false)
!777 = !DIImportedEntity(tag: DW_TAG_imported_declaration, scope: !20, entity: !778, file: !602, line: 472)
!778 = !DISubprogram(name: "fabsl", scope: !601, file: !601, line: 432, type: !608, isLocal: false, isDefinition: false, flags: DIFlagPrototyped, isOptimized: false)
!779 = !DIImportedEntity(tag: DW_TAG_imported_declaration, scope: !20, entity: !780, file: !602, line: 473)
!780 = !DISubprogram(name: "floorl", scope: !601, file: !601, line: 475, type: !608, isLocal: false, isDefinition: false, flags: DIFlagPrototyped, isOptimized: false)
!781 = !DIImportedEntity(tag: DW_TAG_imported_declaration, scope: !20, entity: !782, file: !602, line: 474)
!782 = !DISubprogram(name: "fmodl", scope: !601, file: !601, line: 515, type: !767, isLocal: false, isDefinition: false, flags: DIFlagPrototyped, isOptimized: false)
!783 = !DIImportedEntity(tag: DW_TAG_imported_declaration, scope: !20, entity: !784, file: !602, line: 475)
!784 = !DISubprogram(name: "frexpl", scope: !601, file: !601, line: 416, type: !785, isLocal: false, isDefinition: false, flags: DIFlagPrototyped, isOptimized: false)
!785 = !DISubroutineType(types: !786)
!786 = !{!271, !271, !640}
!787 = !DIImportedEntity(tag: DW_TAG_imported_declaration, scope: !20, entity: !788, file: !602, line: 476)
!788 = !DISubprogram(name: "ldexpl", scope: !601, file: !601, line: 412, type: !789, isLocal: false, isDefinition: false, flags: DIFlagPrototyped, isOptimized: false)
!789 = !DISubroutineType(types: !790)
!790 = !{!271, !271, !14}
!791 = !DIImportedEntity(tag: DW_TAG_imported_declaration, scope: !20, entity: !792, file: !602, line: 477)
!792 = !DISubprogram(name: "logl", scope: !601, file: !601, line: 388, type: !608, isLocal: false, isDefinition: false, flags: DIFlagPrototyped, isOptimized: false)
!793 = !DIImportedEntity(tag: DW_TAG_imported_declaration, scope: !20, entity: !794, file: !602, line: 478)
!794 = !DISubprogram(name: "log10l", scope: !601, file: !601, line: 392, type: !608, isLocal: false, isDefinition: false, flags: DIFlagPrototyped, isOptimized: false)
!795 = !DIImportedEntity(tag: DW_TAG_imported_declaration, scope: !20, entity: !796, file: !602, line: 479)
!796 = !DISubprogram(name: "modfl", scope: !601, file: !601, line: 408, type: !651, isLocal: false, isDefinition: false, flags: DIFlagPrototyped, isOptimized: false)
!797 = !DIImportedEntity(tag: DW_TAG_imported_declaration, scope: !20, entity: !798, file: !602, line: 480)
!798 = !DISubprogram(name: "powl", scope: !601, file: !601, line: 444, type: !767, isLocal: false, isDefinition: false, flags: DIFlagPrototyped, isOptimized: false)
!799 = !DIImportedEntity(tag: DW_TAG_imported_declaration, scope: !20, entity: !800, file: !602, line: 481)
!800 = !DISubprogram(name: "sinl", scope: !601, file: !601, line: 344, type: !608, isLocal: false, isDefinition: false, flags: DIFlagPrototyped, isOptimized: false)
!801 = !DIImportedEntity(tag: DW_TAG_imported_declaration, scope: !20, entity: !802, file: !602, line: 482)
!802 = !DISubprogram(name: "sinhl", scope: !601, file: !601, line: 368, type: !608, isLocal: false, isDefinition: false, flags: DIFlagPrototyped, isOptimized: false)
!803 = !DIImportedEntity(tag: DW_TAG_imported_declaration, scope: !20, entity: !804, file: !602, line: 483)
!804 = !DISubprogram(name: "sqrtl", scope: !601, file: !601, line: 448, type: !608, isLocal: false, isDefinition: false, flags: DIFlagPrototyped, isOptimized: false)
!805 = !DIImportedEntity(tag: DW_TAG_imported_declaration, scope: !20, entity: !806, file: !602, line: 484)
!806 = !DISubprogram(name: "tanl", scope: !601, file: !601, line: 348, type: !608, isLocal: false, isDefinition: false, flags: DIFlagPrototyped, isOptimized: false)
!807 = !DIImportedEntity(tag: DW_TAG_imported_declaration, scope: !20, entity: !808, file: !602, line: 486)
!808 = !DISubprogram(name: "tanhl", scope: !601, file: !601, line: 372, type: !608, isLocal: false, isDefinition: false, flags: DIFlagPrototyped, isOptimized: false)
!809 = !DIImportedEntity(tag: DW_TAG_imported_declaration, scope: !20, entity: !810, file: !602, line: 487)
!810 = !DISubprogram(name: "acoshl", scope: !601, file: !601, line: 352, type: !608, isLocal: false, isDefinition: false, flags: DIFlagPrototyped, isOptimized: false)
!811 = !DIImportedEntity(tag: DW_TAG_imported_declaration, scope: !20, entity: !812, file: !602, line: 488)
!812 = !DISubprogram(name: "asinhl", scope: !601, file: !601, line: 356, type: !608, isLocal: false, isDefinition: false, flags: DIFlagPrototyped, isOptimized: false)
!813 = !DIImportedEntity(tag: DW_TAG_imported_declaration, scope: !20, entity: !814, file: !602, line: 489)
!814 = !DISubprogram(name: "atanhl", scope: !601, file: !601, line: 360, type: !608, isLocal: false, isDefinition: false, flags: DIFlagPrototyped, isOptimized: false)
!815 = !DIImportedEntity(tag: DW_TAG_imported_declaration, scope: !20, entity: !816, file: !602, line: 490)
!816 = !DISubprogram(name: "cbrtl", scope: !601, file: !601, line: 436, type: !608, isLocal: false, isDefinition: false, flags: DIFlagPrototyped, isOptimized: false)
!817 = !DIImportedEntity(tag: DW_TAG_imported_declaration, scope: !20, entity: !818, file: !602, line: 492)
!818 = !DISubprogram(name: "copysignl", scope: !601, file: !601, line: 527, type: !767, isLocal: false, isDefinition: false, flags: DIFlagPrototyped, isOptimized: false)
!819 = !DIImportedEntity(tag: DW_TAG_imported_declaration, scope: !20, entity: !820, file: !602, line: 494)
!820 = !DISubprogram(name: "erfl", scope: !601, file: !601, line: 452, type: !608, isLocal: false, isDefinition: false, flags: DIFlagPrototyped, isOptimized: false)
!821 = !DIImportedEntity(tag: DW_TAG_imported_declaration, scope: !20, entity: !822, file: !602, line: 495)
!822 = !DISubprogram(name: "erfcl", scope: !601, file: !601, line: 456, type: !608, isLocal: false, isDefinition: false, flags: DIFlagPrototyped, isOptimized: false)
!823 = !DIImportedEntity(tag: DW_TAG_imported_declaration, scope: !20, entity: !824, file: !602, line: 496)
!824 = !DISubprogram(name: "exp2l", scope: !601, file: !601, line: 380, type: !608, isLocal: false, isDefinition: false, flags: DIFlagPrototyped, isOptimized: false)
!825 = !DIImportedEntity(tag: DW_TAG_imported_declaration, scope: !20, entity: !826, file: !602, line: 497)
!826 = !DISubprogram(name: "expm1l", scope: !601, file: !601, line: 384, type: !608, isLocal: false, isDefinition: false, flags: DIFlagPrototyped, isOptimized: false)
!827 = !DIImportedEntity(tag: DW_TAG_imported_declaration, scope: !20, entity: !828, file: !602, line: 498)
!828 = !DISubprogram(name: "fdiml", scope: !601, file: !601, line: 543, type: !767, isLocal: false, isDefinition: false, flags: DIFlagPrototyped, isOptimized: false)
!829 = !DIImportedEntity(tag: DW_TAG_imported_declaration, scope: !20, entity: !830, file: !602, line: 499)
!830 = !DISubprogram(name: "fmal", scope: !601, file: !601, line: 555, type: !831, isLocal: false, isDefinition: false, flags: DIFlagPrototyped, isOptimized: false)
!831 = !DISubroutineType(types: !832)
!832 = !{!271, !271, !271, !271}
!833 = !DIImportedEntity(tag: DW_TAG_imported_declaration, scope: !20, entity: !834, file: !602, line: 500)
!834 = !DISubprogram(name: "fmaxl", scope: !601, file: !601, line: 547, type: !767, isLocal: false, isDefinition: false, flags: DIFlagPrototyped, isOptimized: false)
!835 = !DIImportedEntity(tag: DW_TAG_imported_declaration, scope: !20, entity: !836, file: !602, line: 501)
!836 = !DISubprogram(name: "fminl", scope: !601, file: !601, line: 551, type: !767, isLocal: false, isDefinition: false, flags: DIFlagPrototyped, isOptimized: false)
!837 = !DIImportedEntity(tag: DW_TAG_imported_declaration, scope: !20, entity: !838, file: !602, line: 502)
!838 = !DISubprogram(name: "hypotl", scope: !601, file: !601, line: 440, type: !767, isLocal: false, isDefinition: false, flags: DIFlagPrototyped, isOptimized: false)
!839 = !DIImportedEntity(tag: DW_TAG_imported_declaration, scope: !20, entity: !840, file: !602, line: 503)
!840 = !DISubprogram(name: "ilogbl", scope: !601, file: !601, line: 420, type: !841, isLocal: false, isDefinition: false, flags: DIFlagPrototyped, isOptimized: false)
!841 = !DISubroutineType(types: !842)
!842 = !{!14, !271}
!843 = !DIImportedEntity(tag: DW_TAG_imported_declaration, scope: !20, entity: !844, file: !602, line: 504)
!844 = !DISubprogram(name: "lgammal", scope: !601, file: !601, line: 463, type: !608, isLocal: false, isDefinition: false, flags: DIFlagPrototyped, isOptimized: false)
!845 = !DIImportedEntity(tag: DW_TAG_imported_declaration, scope: !20, entity: !846, file: !602, line: 505)
!846 = !DISubprogram(name: "llrintl", scope: !601, file: !601, line: 502, type: !847, isLocal: false, isDefinition: false, flags: DIFlagPrototyped, isOptimized: false)
!847 = !DISubroutineType(types: !848)
!848 = !{!292, !271}
!849 = !DIImportedEntity(tag: DW_TAG_imported_declaration, scope: !20, entity: !850, file: !602, line: 506)
!850 = !DISubprogram(name: "llroundl", scope: !601, file: !601, line: 506, type: !847, isLocal: false, isDefinition: false, flags: DIFlagPrototyped, isOptimized: false)
!851 = !DIImportedEntity(tag: DW_TAG_imported_declaration, scope: !20, entity: !852, file: !602, line: 507)
!852 = !DISubprogram(name: "log1pl", scope: !601, file: !601, line: 400, type: !608, isLocal: false, isDefinition: false, flags: DIFlagPrototyped, isOptimized: false)
!853 = !DIImportedEntity(tag: DW_TAG_imported_declaration, scope: !20, entity: !854, file: !602, line: 508)
!854 = !DISubprogram(name: "log2l", scope: !601, file: !601, line: 396, type: !608, isLocal: false, isDefinition: false, flags: DIFlagPrototyped, isOptimized: false)
!855 = !DIImportedEntity(tag: DW_TAG_imported_declaration, scope: !20, entity: !856, file: !602, line: 509)
!856 = !DISubprogram(name: "logbl", scope: !601, file: !601, line: 404, type: !608, isLocal: false, isDefinition: false, flags: DIFlagPrototyped, isOptimized: false)
!857 = !DIImportedEntity(tag: DW_TAG_imported_declaration, scope: !20, entity: !858, file: !602, line: 510)
!858 = !DISubprogram(name: "lrintl", scope: !601, file: !601, line: 487, type: !859, isLocal: false, isDefinition: false, flags: DIFlagPrototyped, isOptimized: false)
!859 = !DISubroutineType(types: !860)
!860 = !{!263, !271}
!861 = !DIImportedEntity(tag: DW_TAG_imported_declaration, scope: !20, entity: !862, file: !602, line: 511)
!862 = !DISubprogram(name: "lroundl", scope: !601, file: !601, line: 495, type: !859, isLocal: false, isDefinition: false, flags: DIFlagPrototyped, isOptimized: false)
!863 = !DIImportedEntity(tag: DW_TAG_imported_declaration, scope: !20, entity: !864, file: !602, line: 512)
!864 = !DISubprogram(name: "nanl", scope: !601, file: !601, line: 531, type: !865, isLocal: false, isDefinition: false, flags: DIFlagPrototyped, isOptimized: false)
!865 = !DISubroutineType(types: !866)
!866 = !{!271, !299}
!867 = !DIImportedEntity(tag: DW_TAG_imported_declaration, scope: !20, entity: !868, file: !602, line: 513)
!868 = !DISubprogram(name: "nearbyintl", scope: !601, file: !601, line: 479, type: !608, isLocal: false, isDefinition: false, flags: DIFlagPrototyped, isOptimized: false)
!869 = !DIImportedEntity(tag: DW_TAG_imported_declaration, scope: !20, entity: !870, file: !602, line: 514)
!870 = !DISubprogram(name: "nextafterl", scope: !601, file: !601, line: 535, type: !767, isLocal: false, isDefinition: false, flags: DIFlagPrototyped, isOptimized: false)
!871 = !DIImportedEntity(tag: DW_TAG_imported_declaration, scope: !20, entity: !872, file: !602, line: 515)
!872 = !DISubprogram(name: "nexttowardl", scope: !601, file: !601, line: 539, type: !767, isLocal: false, isDefinition: false, flags: DIFlagPrototyped, isOptimized: false)
!873 = !DIImportedEntity(tag: DW_TAG_imported_declaration, scope: !20, entity: !874, file: !602, line: 516)
!874 = !DISubprogram(name: "remainderl", scope: !601, file: !601, line: 519, type: !767, isLocal: false, isDefinition: false, flags: DIFlagPrototyped, isOptimized: false)
!875 = !DIImportedEntity(tag: DW_TAG_imported_declaration, scope: !20, entity: !876, file: !602, line: 517)
!876 = !DISubprogram(name: "remquol", scope: !601, file: !601, line: 523, type: !877, isLocal: false, isDefinition: false, flags: DIFlagPrototyped, isOptimized: false)
!877 = !DISubroutineType(types: !878)
!878 = !{!271, !271, !271, !640}
!879 = !DIImportedEntity(tag: DW_TAG_imported_declaration, scope: !20, entity: !880, file: !602, line: 518)
!880 = !DISubprogram(name: "rintl", scope: !601, file: !601, line: 483, type: !608, isLocal: false, isDefinition: false, flags: DIFlagPrototyped, isOptimized: false)
!881 = !DIImportedEntity(tag: DW_TAG_imported_declaration, scope: !20, entity: !882, file: !602, line: 519)
!882 = !DISubprogram(name: "roundl", scope: !601, file: !601, line: 491, type: !608, isLocal: false, isDefinition: false, flags: DIFlagPrototyped, isOptimized: false)
!883 = !DIImportedEntity(tag: DW_TAG_imported_declaration, scope: !20, entity: !884, file: !602, line: 520)
!884 = !DISubprogram(name: "scalblnl", scope: !601, file: !601, line: 428, type: !885, isLocal: false, isDefinition: false, flags: DIFlagPrototyped, isOptimized: false)
!885 = !DISubroutineType(types: !886)
!886 = !{!271, !271, !263}
!887 = !DIImportedEntity(tag: DW_TAG_imported_declaration, scope: !20, entity: !888, file: !602, line: 521)
!888 = !DISubprogram(name: "scalbnl", scope: !601, file: !601, line: 424, type: !789, isLocal: false, isDefinition: false, flags: DIFlagPrototyped, isOptimized: false)
!889 = !DIImportedEntity(tag: DW_TAG_imported_declaration, scope: !20, entity: !890, file: !602, line: 522)
!890 = !DISubprogram(name: "tgammal", scope: !601, file: !601, line: 467, type: !608, isLocal: false, isDefinition: false, flags: DIFlagPrototyped, isOptimized: false)
!891 = !DIImportedEntity(tag: DW_TAG_imported_declaration, scope: !20, entity: !892, file: !602, line: 523)
!892 = !DISubprogram(name: "truncl", scope: !601, file: !601, line: 511, type: !608, isLocal: false, isDefinition: false, flags: DIFlagPrototyped, isOptimized: false)
!893 = !DIImportedEntity(tag: DW_TAG_imported_declaration, scope: !20, entity: !894, file: !947, line: 108)
!894 = !DIDerivedType(tag: DW_TAG_typedef, name: "FILE", file: !895, line: 157, baseType: !896)
!895 = !DIFile(filename: "/Applications/Xcode.app/Contents/Developer/Platforms/MacOSX.platform/Developer/SDKs/MacOSX10.13.sdk/usr/include/_stdio.h", directory: "/Users/ejiang/Projects/lls/ac/llfiles")
!896 = distinct !DICompositeType(tag: DW_TAG_structure_type, name: "__sFILE", file: !895, line: 126, size: 1216, elements: !897, identifier: "_ZTS7__sFILE")
!897 = !{!898, !900, !901, !902, !903, !904, !909, !910, !911, !915, !919, !927, !931, !932, !935, !936, !940, !944, !945, !946}
!898 = !DIDerivedType(tag: DW_TAG_member, name: "_p", scope: !896, file: !895, line: 127, baseType: !899, size: 64)
!899 = !DIDerivedType(tag: DW_TAG_pointer_type, baseType: !467, size: 64)
!900 = !DIDerivedType(tag: DW_TAG_member, name: "_r", scope: !896, file: !895, line: 128, baseType: !14, size: 32, offset: 64)
!901 = !DIDerivedType(tag: DW_TAG_member, name: "_w", scope: !896, file: !895, line: 129, baseType: !14, size: 32, offset: 96)
!902 = !DIDerivedType(tag: DW_TAG_member, name: "_flags", scope: !896, file: !895, line: 130, baseType: !457, size: 16, offset: 128)
!903 = !DIDerivedType(tag: DW_TAG_member, name: "_file", scope: !896, file: !895, line: 131, baseType: !457, size: 16, offset: 144)
!904 = !DIDerivedType(tag: DW_TAG_member, name: "_bf", scope: !896, file: !895, line: 132, baseType: !905, size: 128, offset: 192)
!905 = distinct !DICompositeType(tag: DW_TAG_structure_type, name: "__sbuf", file: !895, line: 92, size: 128, elements: !906, identifier: "_ZTS6__sbuf")
!906 = !{!907, !908}
!907 = !DIDerivedType(tag: DW_TAG_member, name: "_base", scope: !905, file: !895, line: 93, baseType: !899, size: 64)
!908 = !DIDerivedType(tag: DW_TAG_member, name: "_size", scope: !905, file: !895, line: 94, baseType: !14, size: 32, offset: 64)
!909 = !DIDerivedType(tag: DW_TAG_member, name: "_lbfsize", scope: !896, file: !895, line: 133, baseType: !14, size: 32, offset: 320)
!910 = !DIDerivedType(tag: DW_TAG_member, name: "_cookie", scope: !896, file: !895, line: 136, baseType: !357, size: 64, offset: 384)
!911 = !DIDerivedType(tag: DW_TAG_member, name: "_close", scope: !896, file: !895, line: 137, baseType: !912, size: 64, offset: 448)
!912 = !DIDerivedType(tag: DW_TAG_pointer_type, baseType: !913, size: 64)
!913 = !DISubroutineType(types: !914)
!914 = !{!14, !357}
!915 = !DIDerivedType(tag: DW_TAG_member, name: "_read", scope: !896, file: !895, line: 138, baseType: !916, size: 64, offset: 512)
!916 = !DIDerivedType(tag: DW_TAG_pointer_type, baseType: !917, size: 64)
!917 = !DISubroutineType(types: !918)
!918 = !{!14, !357, !319, !14}
!919 = !DIDerivedType(tag: DW_TAG_member, name: "_seek", scope: !896, file: !895, line: 139, baseType: !920, size: 64, offset: 576)
!920 = !DIDerivedType(tag: DW_TAG_pointer_type, baseType: !921, size: 64)
!921 = !DISubroutineType(types: !922)
!922 = !{!923, !357, !923, !14}
!923 = !DIDerivedType(tag: DW_TAG_typedef, name: "fpos_t", file: !895, line: 81, baseType: !924)
!924 = !DIDerivedType(tag: DW_TAG_typedef, name: "__darwin_off_t", file: !925, line: 71, baseType: !926)
!925 = !DIFile(filename: "/Applications/Xcode.app/Contents/Developer/Platforms/MacOSX.platform/Developer/SDKs/MacOSX10.13.sdk/usr/include/sys/_types.h", directory: "/Users/ejiang/Projects/lls/ac/llfiles")
!926 = !DIDerivedType(tag: DW_TAG_typedef, name: "__int64_t", file: !515, line: 46, baseType: !292)
!927 = !DIDerivedType(tag: DW_TAG_member, name: "_write", scope: !896, file: !895, line: 140, baseType: !928, size: 64, offset: 640)
!928 = !DIDerivedType(tag: DW_TAG_pointer_type, baseType: !929, size: 64)
!929 = !DISubroutineType(types: !930)
!930 = !{!14, !357, !299, !14}
!931 = !DIDerivedType(tag: DW_TAG_member, name: "_ub", scope: !896, file: !895, line: 143, baseType: !905, size: 128, offset: 704)
!932 = !DIDerivedType(tag: DW_TAG_member, name: "_extra", scope: !896, file: !895, line: 144, baseType: !933, size: 64, offset: 832)
!933 = !DIDerivedType(tag: DW_TAG_pointer_type, baseType: !934, size: 64)
!934 = !DICompositeType(tag: DW_TAG_structure_type, name: "__sFILEX", file: !895, line: 98, flags: DIFlagFwdDecl, identifier: "_ZTS8__sFILEX")
!935 = !DIDerivedType(tag: DW_TAG_member, name: "_ur", scope: !896, file: !895, line: 145, baseType: !14, size: 32, offset: 896)
!936 = !DIDerivedType(tag: DW_TAG_member, name: "_ubuf", scope: !896, file: !895, line: 148, baseType: !937, size: 24, offset: 928)
!937 = !DICompositeType(tag: DW_TAG_array_type, baseType: !467, size: 24, elements: !938)
!938 = !{!939}
!939 = !DISubrange(count: 3)
!940 = !DIDerivedType(tag: DW_TAG_member, name: "_nbuf", scope: !896, file: !895, line: 149, baseType: !941, size: 8, offset: 952)
!941 = !DICompositeType(tag: DW_TAG_array_type, baseType: !467, size: 8, elements: !942)
!942 = !{!943}
!943 = !DISubrange(count: 1)
!944 = !DIDerivedType(tag: DW_TAG_member, name: "_lb", scope: !896, file: !895, line: 152, baseType: !905, size: 128, offset: 960)
!945 = !DIDerivedType(tag: DW_TAG_member, name: "_blksize", scope: !896, file: !895, line: 155, baseType: !14, size: 32, offset: 1088)
!946 = !DIDerivedType(tag: DW_TAG_member, name: "_offset", scope: !896, file: !895, line: 156, baseType: !923, size: 64, offset: 1152)
!947 = !DIFile(filename: "/Applications/Xcode.app/Contents/Developer/Toolchains/XcodeDefault.xctoolchain/usr/include/c++/v1/cstdio", directory: "/Users/ejiang/Projects/lls/ac/llfiles")
!948 = !DIImportedEntity(tag: DW_TAG_imported_declaration, scope: !20, entity: !923, file: !947, line: 109)
!949 = !DIImportedEntity(tag: DW_TAG_imported_declaration, scope: !20, entity: !266, file: !947, line: 110)
!950 = !DIImportedEntity(tag: DW_TAG_imported_declaration, scope: !20, entity: !951, file: !947, line: 112)
!951 = !DISubprogram(name: "fclose", scope: !952, file: !952, line: 143, type: !953, isLocal: false, isDefinition: false, flags: DIFlagPrototyped, isOptimized: false)
!952 = !DIFile(filename: "/Applications/Xcode.app/Contents/Developer/Platforms/MacOSX.platform/Developer/SDKs/MacOSX10.13.sdk/usr/include/stdio.h", directory: "/Users/ejiang/Projects/lls/ac/llfiles")
!953 = !DISubroutineType(types: !954)
!954 = !{!14, !955}
!955 = !DIDerivedType(tag: DW_TAG_pointer_type, baseType: !894, size: 64)
!956 = !DIImportedEntity(tag: DW_TAG_imported_declaration, scope: !20, entity: !957, file: !947, line: 113)
!957 = !DISubprogram(name: "fflush", scope: !952, file: !952, line: 146, type: !953, isLocal: false, isDefinition: false, flags: DIFlagPrototyped, isOptimized: false)
!958 = !DIImportedEntity(tag: DW_TAG_imported_declaration, scope: !20, entity: !959, file: !947, line: 114)
!959 = !DISubprogram(name: "setbuf", scope: !952, file: !952, line: 178, type: !960, isLocal: false, isDefinition: false, flags: DIFlagPrototyped, isOptimized: false)
!960 = !DISubroutineType(types: !961)
!961 = !{null, !955, !319}
!962 = !DIImportedEntity(tag: DW_TAG_imported_declaration, scope: !20, entity: !963, file: !947, line: 115)
!963 = !DISubprogram(name: "setvbuf", scope: !952, file: !952, line: 179, type: !964, isLocal: false, isDefinition: false, flags: DIFlagPrototyped, isOptimized: false)
!964 = !DISubroutineType(types: !965)
!965 = !{!14, !955, !319, !14, !266}
!966 = !DIImportedEntity(tag: DW_TAG_imported_declaration, scope: !20, entity: !967, file: !947, line: 116)
!967 = !DISubprogram(name: "fprintf", scope: !952, file: !952, line: 155, type: !968, isLocal: false, isDefinition: false, flags: DIFlagPrototyped, isOptimized: false)
!968 = !DISubroutineType(types: !969)
!969 = !{!14, !955, !299, null}
!970 = !DIImportedEntity(tag: DW_TAG_imported_declaration, scope: !20, entity: !971, file: !947, line: 117)
!971 = !DISubprogram(name: "fscanf", scope: !952, file: !952, line: 161, type: !968, isLocal: false, isDefinition: false, flags: DIFlagPrototyped, isOptimized: false)
!972 = !DIImportedEntity(tag: DW_TAG_imported_declaration, scope: !20, entity: !973, file: !947, line: 118)
!973 = !DISubprogram(name: "snprintf", scope: !952, file: !952, line: 338, type: !974, isLocal: false, isDefinition: false, flags: DIFlagPrototyped, isOptimized: false)
!974 = !DISubroutineType(types: !975)
!975 = !{!14, !319, !266, !299, null}
!976 = !DIImportedEntity(tag: DW_TAG_imported_declaration, scope: !20, entity: !977, file: !947, line: 119)
!977 = !DISubprogram(name: "sprintf", scope: !952, file: !952, line: 180, type: !978, isLocal: false, isDefinition: false, flags: DIFlagPrototyped, isOptimized: false)
!978 = !DISubroutineType(types: !979)
!979 = !{!14, !319, !299, null}
!980 = !DIImportedEntity(tag: DW_TAG_imported_declaration, scope: !20, entity: !981, file: !947, line: 120)
!981 = !DISubprogram(name: "sscanf", scope: !952, file: !952, line: 181, type: !982, isLocal: false, isDefinition: false, flags: DIFlagPrototyped, isOptimized: false)
!982 = !DISubroutineType(types: !983)
!983 = !{!14, !299, !299, null}
!984 = !DIImportedEntity(tag: DW_TAG_imported_declaration, scope: !20, entity: !985, file: !947, line: 121)
!985 = !DISubprogram(name: "vfprintf", scope: !952, file: !952, line: 190, type: !986, isLocal: false, isDefinition: false, flags: DIFlagPrototyped, isOptimized: false)
!986 = !DISubroutineType(types: !987)
!987 = !{!14, !955, !299, !988}
!988 = !DIDerivedType(tag: DW_TAG_pointer_type, baseType: !989, size: 64)
!989 = distinct !DICompositeType(tag: DW_TAG_structure_type, name: "__va_list_tag", file: !1, size: 192, elements: !990, identifier: "_ZTS13__va_list_tag")
!990 = !{!991, !992, !993, !994}
!991 = !DIDerivedType(tag: DW_TAG_member, name: "gp_offset", scope: !989, file: !1, baseType: !352, size: 32)
!992 = !DIDerivedType(tag: DW_TAG_member, name: "fp_offset", scope: !989, file: !1, baseType: !352, size: 32, offset: 32)
!993 = !DIDerivedType(tag: DW_TAG_member, name: "overflow_arg_area", scope: !989, file: !1, baseType: !357, size: 64, offset: 64)
!994 = !DIDerivedType(tag: DW_TAG_member, name: "reg_save_area", scope: !989, file: !1, baseType: !357, size: 64, offset: 128)
!995 = !DIImportedEntity(tag: DW_TAG_imported_declaration, scope: !20, entity: !996, file: !947, line: 122)
!996 = !DISubprogram(name: "vfscanf", scope: !952, file: !952, line: 339, type: !986, isLocal: false, isDefinition: false, flags: DIFlagPrototyped, isOptimized: false)
!997 = !DIImportedEntity(tag: DW_TAG_imported_declaration, scope: !20, entity: !998, file: !947, line: 123)
!998 = !DISubprogram(name: "vsscanf", scope: !952, file: !952, line: 342, type: !999, isLocal: false, isDefinition: false, flags: DIFlagPrototyped, isOptimized: false)
!999 = !DISubroutineType(types: !1000)
!1000 = !{!14, !299, !299, !988}
!1001 = !DIImportedEntity(tag: DW_TAG_imported_declaration, scope: !20, entity: !1002, file: !947, line: 124)
!1002 = !DISubprogram(name: "vsnprintf", scope: !952, file: !952, line: 341, type: !1003, isLocal: false, isDefinition: false, flags: DIFlagPrototyped, isOptimized: false)
!1003 = !DISubroutineType(types: !1004)
!1004 = !{!14, !319, !266, !299, !988}
!1005 = !DIImportedEntity(tag: DW_TAG_imported_declaration, scope: !20, entity: !1006, file: !947, line: 125)
!1006 = !DISubprogram(name: "vsprintf", scope: !952, file: !952, line: 192, type: !1007, isLocal: false, isDefinition: false, flags: DIFlagPrototyped, isOptimized: false)
!1007 = !DISubroutineType(types: !1008)
!1008 = !{!14, !319, !299, !988}
!1009 = !DIImportedEntity(tag: DW_TAG_imported_declaration, scope: !20, entity: !1010, file: !947, line: 126)
!1010 = !DISubprogram(name: "fgetc", scope: !952, file: !952, line: 147, type: !953, isLocal: false, isDefinition: false, flags: DIFlagPrototyped, isOptimized: false)
!1011 = !DIImportedEntity(tag: DW_TAG_imported_declaration, scope: !20, entity: !1012, file: !947, line: 127)
!1012 = !DISubprogram(name: "fgets", scope: !952, file: !952, line: 149, type: !1013, isLocal: false, isDefinition: false, flags: DIFlagPrototyped, isOptimized: false)
!1013 = !DISubroutineType(types: !1014)
!1014 = !{!319, !319, !14, !955}
!1015 = !DIImportedEntity(tag: DW_TAG_imported_declaration, scope: !20, entity: !1016, file: !947, line: 128)
!1016 = !DISubprogram(name: "fputc", scope: !952, file: !952, line: 156, type: !1017, isLocal: false, isDefinition: false, flags: DIFlagPrototyped, isOptimized: false)
!1017 = !DISubroutineType(types: !1018)
!1018 = !{!14, !14, !955}
!1019 = !DIImportedEntity(tag: DW_TAG_imported_declaration, scope: !20, entity: !1020, file: !947, line: 129)
!1020 = !DISubprogram(name: "fputs", linkageName: "\01_fputs", scope: !952, file: !952, line: 157, type: !1021, isLocal: false, isDefinition: false, flags: DIFlagPrototyped, isOptimized: false)
!1021 = !DISubroutineType(types: !1022)
!1022 = !{!14, !299, !955}
!1023 = !DIImportedEntity(tag: DW_TAG_imported_declaration, scope: !20, entity: !1024, file: !947, line: 130)
!1024 = !DISubprogram(name: "getc", scope: !952, file: !952, line: 166, type: !953, isLocal: false, isDefinition: false, flags: DIFlagPrototyped, isOptimized: false)
!1025 = !DIImportedEntity(tag: DW_TAG_imported_declaration, scope: !20, entity: !1026, file: !947, line: 131)
!1026 = !DISubprogram(name: "putc", scope: !952, file: !952, line: 171, type: !1017, isLocal: false, isDefinition: false, flags: DIFlagPrototyped, isOptimized: false)
!1027 = !DIImportedEntity(tag: DW_TAG_imported_declaration, scope: !20, entity: !1028, file: !947, line: 132)
!1028 = !DISubprogram(name: "ungetc", scope: !952, file: !952, line: 189, type: !1017, isLocal: false, isDefinition: false, flags: DIFlagPrototyped, isOptimized: false)
!1029 = !DIImportedEntity(tag: DW_TAG_imported_declaration, scope: !20, entity: !1030, file: !947, line: 133)
!1030 = !DISubprogram(name: "fread", scope: !952, file: !952, line: 158, type: !1031, isLocal: false, isDefinition: false, flags: DIFlagPrototyped, isOptimized: false)
!1031 = !DISubroutineType(types: !1032)
!1032 = !{!266, !357, !266, !266, !955}
!1033 = !DIImportedEntity(tag: DW_TAG_imported_declaration, scope: !20, entity: !1034, file: !947, line: 134)
!1034 = !DISubprogram(name: "fwrite", linkageName: "\01_fwrite", scope: !952, file: !952, line: 165, type: !1035, isLocal: false, isDefinition: false, flags: DIFlagPrototyped, isOptimized: false)
!1035 = !DISubroutineType(types: !1036)
!1036 = !{!266, !395, !266, !266, !955}
!1037 = !DIImportedEntity(tag: DW_TAG_imported_declaration, scope: !20, entity: !1038, file: !947, line: 135)
!1038 = !DISubprogram(name: "fgetpos", scope: !952, file: !952, line: 148, type: !1039, isLocal: false, isDefinition: false, flags: DIFlagPrototyped, isOptimized: false)
!1039 = !DISubroutineType(types: !1040)
!1040 = !{!14, !955, !1041}
!1041 = !DIDerivedType(tag: DW_TAG_pointer_type, baseType: !923, size: 64)
!1042 = !DIImportedEntity(tag: DW_TAG_imported_declaration, scope: !20, entity: !1043, file: !947, line: 136)
!1043 = !DISubprogram(name: "fseek", scope: !952, file: !952, line: 162, type: !1044, isLocal: false, isDefinition: false, flags: DIFlagPrototyped, isOptimized: false)
!1044 = !DISubroutineType(types: !1045)
!1045 = !{!14, !955, !263, !14}
!1046 = !DIImportedEntity(tag: DW_TAG_imported_declaration, scope: !20, entity: !1047, file: !947, line: 137)
!1047 = !DISubprogram(name: "fsetpos", scope: !952, file: !952, line: 163, type: !1048, isLocal: false, isDefinition: false, flags: DIFlagPrototyped, isOptimized: false)
!1048 = !DISubroutineType(types: !1049)
!1049 = !{!14, !955, !1050}
!1050 = !DIDerivedType(tag: DW_TAG_pointer_type, baseType: !1051, size: 64)
!1051 = !DIDerivedType(tag: DW_TAG_const_type, baseType: !923)
!1052 = !DIImportedEntity(tag: DW_TAG_imported_declaration, scope: !20, entity: !1053, file: !947, line: 138)
!1053 = !DISubprogram(name: "ftell", scope: !952, file: !952, line: 164, type: !1054, isLocal: false, isDefinition: false, flags: DIFlagPrototyped, isOptimized: false)
!1054 = !DISubroutineType(types: !1055)
!1055 = !{!263, !955}
!1056 = !DIImportedEntity(tag: DW_TAG_imported_declaration, scope: !20, entity: !1057, file: !947, line: 139)
!1057 = !DISubprogram(name: "rewind", scope: !952, file: !952, line: 176, type: !1058, isLocal: false, isDefinition: false, flags: DIFlagPrototyped, isOptimized: false)
!1058 = !DISubroutineType(types: !1059)
!1059 = !{null, !955}
!1060 = !DIImportedEntity(tag: DW_TAG_imported_declaration, scope: !20, entity: !1061, file: !947, line: 140)
!1061 = !DISubprogram(name: "clearerr", scope: !952, file: !952, line: 142, type: !1058, isLocal: false, isDefinition: false, flags: DIFlagPrototyped, isOptimized: false)
!1062 = !DIImportedEntity(tag: DW_TAG_imported_declaration, scope: !20, entity: !1063, file: !947, line: 141)
!1063 = !DISubprogram(name: "feof", scope: !952, file: !952, line: 144, type: !953, isLocal: false, isDefinition: false, flags: DIFlagPrototyped, isOptimized: false)
!1064 = !DIImportedEntity(tag: DW_TAG_imported_declaration, scope: !20, entity: !1065, file: !947, line: 142)
!1065 = !DISubprogram(name: "ferror", scope: !952, file: !952, line: 145, type: !953, isLocal: false, isDefinition: false, flags: DIFlagPrototyped, isOptimized: false)
!1066 = !DIImportedEntity(tag: DW_TAG_imported_declaration, scope: !20, entity: !1067, file: !947, line: 143)
!1067 = !DISubprogram(name: "perror", scope: !952, file: !952, line: 169, type: !1068, isLocal: false, isDefinition: false, flags: DIFlagPrototyped, isOptimized: false)
!1068 = !DISubroutineType(types: !1069)
!1069 = !{null, !299}
!1070 = !DIImportedEntity(tag: DW_TAG_imported_declaration, scope: !20, entity: !1071, file: !947, line: 146)
!1071 = !DISubprogram(name: "fopen", linkageName: "\01_fopen", scope: !952, file: !952, line: 153, type: !1072, isLocal: false, isDefinition: false, flags: DIFlagPrototyped, isOptimized: false)
!1072 = !DISubroutineType(types: !1073)
!1073 = !{!955, !299, !299}
!1074 = !DIImportedEntity(tag: DW_TAG_imported_declaration, scope: !20, entity: !1075, file: !947, line: 147)
!1075 = !DISubprogram(name: "freopen", linkageName: "\01_freopen", scope: !952, file: !952, line: 159, type: !1076, isLocal: false, isDefinition: false, flags: DIFlagPrototyped, isOptimized: false)
!1076 = !DISubroutineType(types: !1077)
!1077 = !{!955, !299, !299, !955}
!1078 = !DIImportedEntity(tag: DW_TAG_imported_declaration, scope: !20, entity: !1079, file: !947, line: 148)
!1079 = !DISubprogram(name: "remove", scope: !952, file: !952, line: 174, type: !304, isLocal: false, isDefinition: false, flags: DIFlagPrototyped, isOptimized: false)
!1080 = !DIImportedEntity(tag: DW_TAG_imported_declaration, scope: !20, entity: !1081, file: !947, line: 149)
!1081 = !DISubprogram(name: "rename", scope: !952, file: !952, line: 175, type: !552, isLocal: false, isDefinition: false, flags: DIFlagPrototyped, isOptimized: false)
!1082 = !DIImportedEntity(tag: DW_TAG_imported_declaration, scope: !20, entity: !1083, file: !947, line: 150)
!1083 = !DISubprogram(name: "tmpfile", scope: !952, file: !952, line: 182, type: !1084, isLocal: false, isDefinition: false, flags: DIFlagPrototyped, isOptimized: false)
!1084 = !DISubroutineType(types: !1085)
!1085 = !{!955}
!1086 = !DIImportedEntity(tag: DW_TAG_imported_declaration, scope: !20, entity: !1087, file: !947, line: 151)
!1087 = !DISubprogram(name: "tmpnam", scope: !952, file: !952, line: 188, type: !1088, isLocal: false, isDefinition: false, flags: DIFlagPrototyped, isOptimized: false)
!1088 = !DISubroutineType(types: !1089)
!1089 = !{!319, !319}
!1090 = !DIImportedEntity(tag: DW_TAG_imported_declaration, scope: !20, entity: !1091, file: !947, line: 155)
!1091 = !DISubprogram(name: "getchar", scope: !952, file: !952, line: 167, type: !12, isLocal: false, isDefinition: false, flags: DIFlagPrototyped, isOptimized: false)
!1092 = !DIImportedEntity(tag: DW_TAG_imported_declaration, scope: !20, entity: !1093, file: !947, line: 157)
!1093 = !DISubprogram(name: "gets", scope: !952, file: !952, line: 168, type: !1088, isLocal: false, isDefinition: false, flags: DIFlagPrototyped, isOptimized: false)
!1094 = !DIImportedEntity(tag: DW_TAG_imported_declaration, scope: !20, entity: !1095, file: !947, line: 159)
!1095 = !DISubprogram(name: "scanf", scope: !952, file: !952, line: 177, type: !1096, isLocal: false, isDefinition: false, flags: DIFlagPrototyped, isOptimized: false)
!1096 = !DISubroutineType(types: !1097)
!1097 = !{!14, !299, null}
!1098 = !DIImportedEntity(tag: DW_TAG_imported_declaration, scope: !20, entity: !1099, file: !947, line: 160)
!1099 = !DISubprogram(name: "vscanf", scope: !952, file: !952, line: 340, type: !1100, isLocal: false, isDefinition: false, flags: DIFlagPrototyped, isOptimized: false)
!1100 = !DISubroutineType(types: !1101)
!1101 = !{!14, !299, !988}
!1102 = !DIImportedEntity(tag: DW_TAG_imported_declaration, scope: !20, entity: !1103, file: !947, line: 164)
!1103 = !DISubprogram(name: "printf", scope: !952, file: !952, line: 170, type: !1096, isLocal: false, isDefinition: false, flags: DIFlagPrototyped, isOptimized: false)
!1104 = !DIImportedEntity(tag: DW_TAG_imported_declaration, scope: !20, entity: !1105, file: !947, line: 165)
!1105 = !DISubprogram(name: "putchar", scope: !952, file: !952, line: 172, type: !1106, isLocal: false, isDefinition: false, flags: DIFlagPrototyped, isOptimized: false)
!1106 = !DISubroutineType(types: !1107)
!1107 = !{!14, !14}
!1108 = !DIImportedEntity(tag: DW_TAG_imported_declaration, scope: !20, entity: !1109, file: !947, line: 166)
!1109 = !DISubprogram(name: "puts", scope: !952, file: !952, line: 173, type: !304, isLocal: false, isDefinition: false, flags: DIFlagPrototyped, isOptimized: false)
!1110 = !DIImportedEntity(tag: DW_TAG_imported_declaration, scope: !20, entity: !1111, file: !947, line: 167)
!1111 = !DISubprogram(name: "vprintf", scope: !952, file: !952, line: 191, type: !1100, isLocal: false, isDefinition: false, flags: DIFlagPrototyped, isOptimized: false)
!1112 = !DIImportedEntity(tag: DW_TAG_imported_declaration, scope: !20, entity: !1113, file: !1115, line: 104)
!1113 = !DISubprogram(name: "isalnum", linkageName: "_Z7isalnumi", scope: !1114, file: !1114, line: 212, type: !1106, isLocal: false, isDefinition: false, flags: DIFlagPrototyped, isOptimized: false)
!1114 = !DIFile(filename: "/Applications/Xcode.app/Contents/Developer/Platforms/MacOSX.platform/Developer/SDKs/MacOSX10.13.sdk/usr/include/_ctype.h", directory: "/Users/ejiang/Projects/lls/ac/llfiles")
!1115 = !DIFile(filename: "/Applications/Xcode.app/Contents/Developer/Toolchains/XcodeDefault.xctoolchain/usr/include/c++/v1/cctype", directory: "/Users/ejiang/Projects/lls/ac/llfiles")
!1116 = !DIImportedEntity(tag: DW_TAG_imported_declaration, scope: !20, entity: !1117, file: !1115, line: 105)
!1117 = !DISubprogram(name: "isalpha", linkageName: "_Z7isalphai", scope: !1114, file: !1114, line: 218, type: !1106, isLocal: false, isDefinition: false, flags: DIFlagPrototyped, isOptimized: false)
!1118 = !DIImportedEntity(tag: DW_TAG_imported_declaration, scope: !20, entity: !1119, file: !1115, line: 106)
!1119 = !DISubprogram(name: "isblank", linkageName: "_Z7isblanki", scope: !1114, file: !1114, line: 224, type: !1106, isLocal: false, isDefinition: false, flags: DIFlagPrototyped, isOptimized: false)
!1120 = !DIImportedEntity(tag: DW_TAG_imported_declaration, scope: !20, entity: !1121, file: !1115, line: 107)
!1121 = !DISubprogram(name: "iscntrl", linkageName: "_Z7iscntrli", scope: !1114, file: !1114, line: 230, type: !1106, isLocal: false, isDefinition: false, flags: DIFlagPrototyped, isOptimized: false)
!1122 = !DIImportedEntity(tag: DW_TAG_imported_declaration, scope: !20, entity: !1123, file: !1115, line: 108)
!1123 = !DISubprogram(name: "isdigit", linkageName: "_Z7isdigiti", scope: !1114, file: !1114, line: 237, type: !1106, isLocal: false, isDefinition: false, flags: DIFlagPrototyped, isOptimized: false)
!1124 = !DIImportedEntity(tag: DW_TAG_imported_declaration, scope: !20, entity: !1125, file: !1115, line: 109)
!1125 = !DISubprogram(name: "isgraph", linkageName: "_Z7isgraphi", scope: !1114, file: !1114, line: 243, type: !1106, isLocal: false, isDefinition: false, flags: DIFlagPrototyped, isOptimized: false)
!1126 = !DIImportedEntity(tag: DW_TAG_imported_declaration, scope: !20, entity: !1127, file: !1115, line: 110)
!1127 = !DISubprogram(name: "islower", linkageName: "_Z7isloweri", scope: !1114, file: !1114, line: 249, type: !1106, isLocal: false, isDefinition: false, flags: DIFlagPrototyped, isOptimized: false)
!1128 = !DIImportedEntity(tag: DW_TAG_imported_declaration, scope: !20, entity: !1129, file: !1115, line: 111)
!1129 = !DISubprogram(name: "isprint", linkageName: "_Z7isprinti", scope: !1114, file: !1114, line: 255, type: !1106, isLocal: false, isDefinition: false, flags: DIFlagPrototyped, isOptimized: false)
!1130 = !DIImportedEntity(tag: DW_TAG_imported_declaration, scope: !20, entity: !1131, file: !1115, line: 112)
!1131 = !DISubprogram(name: "ispunct", linkageName: "_Z7ispuncti", scope: !1114, file: !1114, line: 261, type: !1106, isLocal: false, isDefinition: false, flags: DIFlagPrototyped, isOptimized: false)
!1132 = !DIImportedEntity(tag: DW_TAG_imported_declaration, scope: !20, entity: !1133, file: !1115, line: 113)
!1133 = !DISubprogram(name: "isspace", linkageName: "_Z7isspacei", scope: !1114, file: !1114, line: 267, type: !1106, isLocal: false, isDefinition: false, flags: DIFlagPrototyped, isOptimized: false)
!1134 = !DIImportedEntity(tag: DW_TAG_imported_declaration, scope: !20, entity: !1135, file: !1115, line: 114)
!1135 = !DISubprogram(name: "isupper", linkageName: "_Z7isupperi", scope: !1114, file: !1114, line: 273, type: !1106, isLocal: false, isDefinition: false, flags: DIFlagPrototyped, isOptimized: false)
!1136 = !DIImportedEntity(tag: DW_TAG_imported_declaration, scope: !20, entity: !1137, file: !1115, line: 115)
!1137 = !DISubprogram(name: "isxdigit", linkageName: "_Z8isxdigiti", scope: !1114, file: !1114, line: 280, type: !1106, isLocal: false, isDefinition: false, flags: DIFlagPrototyped, isOptimized: false)
!1138 = !DIImportedEntity(tag: DW_TAG_imported_declaration, scope: !20, entity: !1139, file: !1115, line: 116)
!1139 = !DISubprogram(name: "tolower", linkageName: "_Z7toloweri", scope: !1114, file: !1114, line: 292, type: !1106, isLocal: false, isDefinition: false, flags: DIFlagPrototyped, isOptimized: false)
!1140 = !DIImportedEntity(tag: DW_TAG_imported_declaration, scope: !20, entity: !1141, file: !1115, line: 117)
!1141 = !DISubprogram(name: "toupper", linkageName: "_Z7toupperi", scope: !1114, file: !1114, line: 298, type: !1106, isLocal: false, isDefinition: false, flags: DIFlagPrototyped, isOptimized: false)
!1142 = !DIImportedEntity(tag: DW_TAG_imported_declaration, scope: !20, entity: !1143, file: !1146, line: 63)
!1143 = !DIDerivedType(tag: DW_TAG_typedef, name: "wint_t", file: !1144, line: 32, baseType: !1145)
!1144 = !DIFile(filename: "/Applications/Xcode.app/Contents/Developer/Platforms/MacOSX.platform/Developer/SDKs/MacOSX10.13.sdk/usr/include/sys/_types/_wint_t.h", directory: "/Users/ejiang/Projects/lls/ac/llfiles")
!1145 = !DIDerivedType(tag: DW_TAG_typedef, name: "__darwin_wint_t", file: !515, line: 112, baseType: !14)
!1146 = !DIFile(filename: "/Applications/Xcode.app/Contents/Developer/Toolchains/XcodeDefault.xctoolchain/usr/include/c++/v1/cwctype", directory: "/Users/ejiang/Projects/lls/ac/llfiles")
!1147 = !DIImportedEntity(tag: DW_TAG_imported_declaration, scope: !20, entity: !1148, file: !1146, line: 64)
!1148 = !DIDerivedType(tag: DW_TAG_typedef, name: "wctrans_t", file: !1149, line: 32, baseType: !1150)
!1149 = !DIFile(filename: "/Applications/Xcode.app/Contents/Developer/Platforms/MacOSX.platform/Developer/SDKs/MacOSX10.13.sdk/usr/include/_types/_wctrans_t.h", directory: "/Users/ejiang/Projects/lls/ac/llfiles")
!1150 = !DIDerivedType(tag: DW_TAG_typedef, name: "__darwin_wctrans_t", file: !1151, line: 41, baseType: !14)
!1151 = !DIFile(filename: "/Applications/Xcode.app/Contents/Developer/Platforms/MacOSX.platform/Developer/SDKs/MacOSX10.13.sdk/usr/include/_types.h", directory: "/Users/ejiang/Projects/lls/ac/llfiles")
!1152 = !DIImportedEntity(tag: DW_TAG_imported_declaration, scope: !20, entity: !1153, file: !1146, line: 65)
!1153 = !DIDerivedType(tag: DW_TAG_typedef, name: "wctype_t", file: !1154, line: 32, baseType: !1155)
!1154 = !DIFile(filename: "/Applications/Xcode.app/Contents/Developer/Platforms/MacOSX.platform/Developer/SDKs/MacOSX10.13.sdk/usr/include/_types/_wctype_t.h", directory: "/Users/ejiang/Projects/lls/ac/llfiles")
!1155 = !DIDerivedType(tag: DW_TAG_typedef, name: "__darwin_wctype_t", file: !1151, line: 43, baseType: !1156)
!1156 = !DIDerivedType(tag: DW_TAG_typedef, name: "__uint32_t", file: !515, line: 45, baseType: !352)
!1157 = !DIImportedEntity(tag: DW_TAG_imported_declaration, scope: !20, entity: !1158, file: !1146, line: 66)
!1158 = !DISubprogram(name: "iswalnum", linkageName: "_Z8iswalnumi", scope: !1159, file: !1159, line: 51, type: !1160, isLocal: false, isDefinition: false, flags: DIFlagPrototyped, isOptimized: false)
!1159 = !DIFile(filename: "/Applications/Xcode.app/Contents/Developer/Platforms/MacOSX.platform/Developer/SDKs/MacOSX10.13.sdk/usr/include/_wctype.h", directory: "/Users/ejiang/Projects/lls/ac/llfiles")
!1160 = !DISubroutineType(types: !1161)
!1161 = !{!14, !1143}
!1162 = !DIImportedEntity(tag: DW_TAG_imported_declaration, scope: !20, entity: !1163, file: !1146, line: 67)
!1163 = !DISubprogram(name: "iswalpha", linkageName: "_Z8iswalphai", scope: !1159, file: !1159, line: 57, type: !1160, isLocal: false, isDefinition: false, flags: DIFlagPrototyped, isOptimized: false)
!1164 = !DIImportedEntity(tag: DW_TAG_imported_declaration, scope: !20, entity: !1165, file: !1146, line: 68)
!1165 = !DISubprogram(name: "iswblank", linkageName: "_Z8iswblanki", scope: !1166, file: !1166, line: 50, type: !1160, isLocal: false, isDefinition: false, flags: DIFlagPrototyped, isOptimized: false)
!1166 = !DIFile(filename: "/Applications/Xcode.app/Contents/Developer/Platforms/MacOSX.platform/Developer/SDKs/MacOSX10.13.sdk/usr/include/wctype.h", directory: "/Users/ejiang/Projects/lls/ac/llfiles")
!1167 = !DIImportedEntity(tag: DW_TAG_imported_declaration, scope: !20, entity: !1168, file: !1146, line: 69)
!1168 = !DISubprogram(name: "iswcntrl", linkageName: "_Z8iswcntrli", scope: !1159, file: !1159, line: 63, type: !1160, isLocal: false, isDefinition: false, flags: DIFlagPrototyped, isOptimized: false)
!1169 = !DIImportedEntity(tag: DW_TAG_imported_declaration, scope: !20, entity: !1170, file: !1146, line: 70)
!1170 = !DISubprogram(name: "iswdigit", linkageName: "_Z8iswdigiti", scope: !1159, file: !1159, line: 75, type: !1160, isLocal: false, isDefinition: false, flags: DIFlagPrototyped, isOptimized: false)
!1171 = !DIImportedEntity(tag: DW_TAG_imported_declaration, scope: !20, entity: !1172, file: !1146, line: 71)
!1172 = !DISubprogram(name: "iswgraph", linkageName: "_Z8iswgraphi", scope: !1159, file: !1159, line: 81, type: !1160, isLocal: false, isDefinition: false, flags: DIFlagPrototyped, isOptimized: false)
!1173 = !DIImportedEntity(tag: DW_TAG_imported_declaration, scope: !20, entity: !1174, file: !1146, line: 72)
!1174 = !DISubprogram(name: "iswlower", linkageName: "_Z8iswloweri", scope: !1159, file: !1159, line: 87, type: !1160, isLocal: false, isDefinition: false, flags: DIFlagPrototyped, isOptimized: false)
!1175 = !DIImportedEntity(tag: DW_TAG_imported_declaration, scope: !20, entity: !1176, file: !1146, line: 73)
!1176 = !DISubprogram(name: "iswprint", linkageName: "_Z8iswprinti", scope: !1159, file: !1159, line: 93, type: !1160, isLocal: false, isDefinition: false, flags: DIFlagPrototyped, isOptimized: false)
!1177 = !DIImportedEntity(tag: DW_TAG_imported_declaration, scope: !20, entity: !1178, file: !1146, line: 74)
!1178 = !DISubprogram(name: "iswpunct", linkageName: "_Z8iswpuncti", scope: !1159, file: !1159, line: 99, type: !1160, isLocal: false, isDefinition: false, flags: DIFlagPrototyped, isOptimized: false)
!1179 = !DIImportedEntity(tag: DW_TAG_imported_declaration, scope: !20, entity: !1180, file: !1146, line: 75)
!1180 = !DISubprogram(name: "iswspace", linkageName: "_Z8iswspacei", scope: !1159, file: !1159, line: 105, type: !1160, isLocal: false, isDefinition: false, flags: DIFlagPrototyped, isOptimized: false)
!1181 = !DIImportedEntity(tag: DW_TAG_imported_declaration, scope: !20, entity: !1182, file: !1146, line: 76)
!1182 = !DISubprogram(name: "iswupper", linkageName: "_Z8iswupperi", scope: !1159, file: !1159, line: 111, type: !1160, isLocal: false, isDefinition: false, flags: DIFlagPrototyped, isOptimized: false)
!1183 = !DIImportedEntity(tag: DW_TAG_imported_declaration, scope: !20, entity: !1184, file: !1146, line: 77)
!1184 = !DISubprogram(name: "iswxdigit", linkageName: "_Z9iswxdigiti", scope: !1159, file: !1159, line: 117, type: !1160, isLocal: false, isDefinition: false, flags: DIFlagPrototyped, isOptimized: false)
!1185 = !DIImportedEntity(tag: DW_TAG_imported_declaration, scope: !20, entity: !1186, file: !1146, line: 78)
!1186 = !DISubprogram(name: "iswctype", linkageName: "_Z8iswctypeij", scope: !1159, file: !1159, line: 69, type: !1187, isLocal: false, isDefinition: false, flags: DIFlagPrototyped, isOptimized: false)
!1187 = !DISubroutineType(types: !1188)
!1188 = !{!14, !1143, !1153}
!1189 = !DIImportedEntity(tag: DW_TAG_imported_declaration, scope: !20, entity: !1190, file: !1146, line: 79)
!1190 = !DISubprogram(name: "wctype", scope: !1159, file: !1159, line: 157, type: !1191, isLocal: false, isDefinition: false, flags: DIFlagPrototyped, isOptimized: false)
!1191 = !DISubroutineType(types: !1192)
!1192 = !{!1153, !299}
!1193 = !DIImportedEntity(tag: DW_TAG_imported_declaration, scope: !20, entity: !1194, file: !1146, line: 80)
!1194 = !DISubprogram(name: "towlower", linkageName: "_Z8towloweri", scope: !1159, file: !1159, line: 123, type: !1195, isLocal: false, isDefinition: false, flags: DIFlagPrototyped, isOptimized: false)
!1195 = !DISubroutineType(types: !1196)
!1196 = !{!1143, !1143}
!1197 = !DIImportedEntity(tag: DW_TAG_imported_declaration, scope: !20, entity: !1198, file: !1146, line: 81)
!1198 = !DISubprogram(name: "towupper", linkageName: "_Z8towupperi", scope: !1159, file: !1159, line: 129, type: !1195, isLocal: false, isDefinition: false, flags: DIFlagPrototyped, isOptimized: false)
!1199 = !DIImportedEntity(tag: DW_TAG_imported_declaration, scope: !20, entity: !1200, file: !1146, line: 82)
!1200 = !DISubprogram(name: "towctrans", scope: !1166, file: !1166, line: 121, type: !1201, isLocal: false, isDefinition: false, flags: DIFlagPrototyped, isOptimized: false)
!1201 = !DISubroutineType(types: !1202)
!1202 = !{!1143, !1143, !1148}
!1203 = !DIImportedEntity(tag: DW_TAG_imported_declaration, scope: !20, entity: !1204, file: !1146, line: 83)
!1204 = !DISubprogram(name: "wctrans", scope: !1166, file: !1166, line: 123, type: !1205, isLocal: false, isDefinition: false, flags: DIFlagPrototyped, isOptimized: false)
!1205 = !DISubroutineType(types: !1206)
!1206 = !{!1148, !299}
!1207 = !DIImportedEntity(tag: DW_TAG_imported_declaration, scope: !20, entity: !1208, file: !1219, line: 116)
!1208 = !DIDerivedType(tag: DW_TAG_typedef, name: "mbstate_t", file: !1209, line: 32, baseType: !1210)
!1209 = !DIFile(filename: "/Applications/Xcode.app/Contents/Developer/Platforms/MacOSX.platform/Developer/SDKs/MacOSX10.13.sdk/usr/include/sys/_types/_mbstate_t.h", directory: "/Users/ejiang/Projects/lls/ac/llfiles")
!1210 = !DIDerivedType(tag: DW_TAG_typedef, name: "__darwin_mbstate_t", file: !515, line: 81, baseType: !1211)
!1211 = !DIDerivedType(tag: DW_TAG_typedef, name: "__mbstate_t", file: !515, line: 79, baseType: !1212)
!1212 = distinct !DICompositeType(tag: DW_TAG_union_type, file: !515, line: 76, size: 1024, elements: !1213, identifier: "_ZTS11__mbstate_t")
!1213 = !{!1214, !1218}
!1214 = !DIDerivedType(tag: DW_TAG_member, name: "__mbstate8", scope: !1212, file: !515, line: 77, baseType: !1215, size: 1024)
!1215 = !DICompositeType(tag: DW_TAG_array_type, baseType: !301, size: 1024, elements: !1216)
!1216 = !{!1217}
!1217 = !DISubrange(count: 128)
!1218 = !DIDerivedType(tag: DW_TAG_member, name: "_mbstateL", scope: !1212, file: !515, line: 78, baseType: !292, size: 64)
!1219 = !DIFile(filename: "/Applications/Xcode.app/Contents/Developer/Toolchains/XcodeDefault.xctoolchain/usr/include/c++/v1/cwchar", directory: "/Users/ejiang/Projects/lls/ac/llfiles")
!1220 = !DIImportedEntity(tag: DW_TAG_imported_declaration, scope: !20, entity: !266, file: !1219, line: 117)
!1221 = !DIImportedEntity(tag: DW_TAG_imported_declaration, scope: !20, entity: !1222, file: !1219, line: 118)
!1222 = distinct !DICompositeType(tag: DW_TAG_structure_type, name: "tm", file: !1223, line: 74, size: 448, elements: !1224, identifier: "_ZTS2tm")
!1223 = !DIFile(filename: "/Applications/Xcode.app/Contents/Developer/Platforms/MacOSX.platform/Developer/SDKs/MacOSX10.13.sdk/usr/include/time.h", directory: "/Users/ejiang/Projects/lls/ac/llfiles")
!1224 = !{!1225, !1226, !1227, !1228, !1229, !1230, !1231, !1232, !1233, !1234, !1235}
!1225 = !DIDerivedType(tag: DW_TAG_member, name: "tm_sec", scope: !1222, file: !1223, line: 75, baseType: !14, size: 32)
!1226 = !DIDerivedType(tag: DW_TAG_member, name: "tm_min", scope: !1222, file: !1223, line: 76, baseType: !14, size: 32, offset: 32)
!1227 = !DIDerivedType(tag: DW_TAG_member, name: "tm_hour", scope: !1222, file: !1223, line: 77, baseType: !14, size: 32, offset: 64)
!1228 = !DIDerivedType(tag: DW_TAG_member, name: "tm_mday", scope: !1222, file: !1223, line: 78, baseType: !14, size: 32, offset: 96)
!1229 = !DIDerivedType(tag: DW_TAG_member, name: "tm_mon", scope: !1222, file: !1223, line: 79, baseType: !14, size: 32, offset: 128)
!1230 = !DIDerivedType(tag: DW_TAG_member, name: "tm_year", scope: !1222, file: !1223, line: 80, baseType: !14, size: 32, offset: 160)
!1231 = !DIDerivedType(tag: DW_TAG_member, name: "tm_wday", scope: !1222, file: !1223, line: 81, baseType: !14, size: 32, offset: 192)
!1232 = !DIDerivedType(tag: DW_TAG_member, name: "tm_yday", scope: !1222, file: !1223, line: 82, baseType: !14, size: 32, offset: 224)
!1233 = !DIDerivedType(tag: DW_TAG_member, name: "tm_isdst", scope: !1222, file: !1223, line: 83, baseType: !14, size: 32, offset: 256)
!1234 = !DIDerivedType(tag: DW_TAG_member, name: "tm_gmtoff", scope: !1222, file: !1223, line: 84, baseType: !263, size: 64, offset: 320)
!1235 = !DIDerivedType(tag: DW_TAG_member, name: "tm_zone", scope: !1222, file: !1223, line: 85, baseType: !319, size: 64, offset: 384)
!1236 = !DIImportedEntity(tag: DW_TAG_imported_declaration, scope: !20, entity: !1143, file: !1219, line: 119)
!1237 = !DIImportedEntity(tag: DW_TAG_imported_declaration, scope: !20, entity: !894, file: !1219, line: 120)
!1238 = !DIImportedEntity(tag: DW_TAG_imported_declaration, scope: !20, entity: !1239, file: !1219, line: 121)
!1239 = !DISubprogram(name: "fwprintf", scope: !1240, file: !1240, line: 103, type: !1241, isLocal: false, isDefinition: false, flags: DIFlagPrototyped, isOptimized: false)
!1240 = !DIFile(filename: "/Applications/Xcode.app/Contents/Developer/Platforms/MacOSX.platform/Developer/SDKs/MacOSX10.13.sdk/usr/include/wchar.h", directory: "/Users/ejiang/Projects/lls/ac/llfiles")
!1241 = !DISubroutineType(types: !1242)
!1242 = !{!14, !955, !447, null}
!1243 = !DIImportedEntity(tag: DW_TAG_imported_declaration, scope: !20, entity: !1244, file: !1219, line: 122)
!1244 = !DISubprogram(name: "fwscanf", scope: !1240, file: !1240, line: 104, type: !1241, isLocal: false, isDefinition: false, flags: DIFlagPrototyped, isOptimized: false)
!1245 = !DIImportedEntity(tag: DW_TAG_imported_declaration, scope: !20, entity: !1246, file: !1219, line: 123)
!1246 = !DISubprogram(name: "swprintf", scope: !1240, file: !1240, line: 115, type: !1247, isLocal: false, isDefinition: false, flags: DIFlagPrototyped, isOptimized: false)
!1247 = !DISubroutineType(types: !1248)
!1248 = !{!14, !433, !266, !447, null}
!1249 = !DIImportedEntity(tag: DW_TAG_imported_declaration, scope: !20, entity: !1250, file: !1219, line: 124)
!1250 = !DISubprogram(name: "vfwprintf", scope: !1240, file: !1240, line: 118, type: !1251, isLocal: false, isDefinition: false, flags: DIFlagPrototyped, isOptimized: false)
!1251 = !DISubroutineType(types: !1252)
!1252 = !{!14, !955, !447, !988}
!1253 = !DIImportedEntity(tag: DW_TAG_imported_declaration, scope: !20, entity: !1254, file: !1219, line: 125)
!1254 = !DISubprogram(name: "vswprintf", scope: !1240, file: !1240, line: 120, type: !1255, isLocal: false, isDefinition: false, flags: DIFlagPrototyped, isOptimized: false)
!1255 = !DISubroutineType(types: !1256)
!1256 = !{!14, !433, !266, !447, !988}
!1257 = !DIImportedEntity(tag: DW_TAG_imported_declaration, scope: !20, entity: !1258, file: !1219, line: 126)
!1258 = !DISubprogram(name: "swscanf", scope: !1240, file: !1240, line: 116, type: !1259, isLocal: false, isDefinition: false, flags: DIFlagPrototyped, isOptimized: false)
!1259 = !DISubroutineType(types: !1260)
!1260 = !{!14, !447, !447, null}
!1261 = !DIImportedEntity(tag: DW_TAG_imported_declaration, scope: !20, entity: !1262, file: !1219, line: 127)
!1262 = !DISubprogram(name: "vfwscanf", scope: !1240, file: !1240, line: 170, type: !1251, isLocal: false, isDefinition: false, flags: DIFlagPrototyped, isOptimized: false)
!1263 = !DIImportedEntity(tag: DW_TAG_imported_declaration, scope: !20, entity: !1264, file: !1219, line: 128)
!1264 = !DISubprogram(name: "vswscanf", scope: !1240, file: !1240, line: 172, type: !1265, isLocal: false, isDefinition: false, flags: DIFlagPrototyped, isOptimized: false)
!1265 = !DISubroutineType(types: !1266)
!1266 = !{!14, !447, !447, !988}
!1267 = !DIImportedEntity(tag: DW_TAG_imported_declaration, scope: !20, entity: !1268, file: !1219, line: 129)
!1268 = !DISubprogram(name: "fgetwc", scope: !1240, file: !1240, line: 98, type: !1269, isLocal: false, isDefinition: false, flags: DIFlagPrototyped, isOptimized: false)
!1269 = !DISubroutineType(types: !1270)
!1270 = !{!1143, !955}
!1271 = !DIImportedEntity(tag: DW_TAG_imported_declaration, scope: !20, entity: !1272, file: !1219, line: 130)
!1272 = !DISubprogram(name: "fgetws", scope: !1240, file: !1240, line: 99, type: !1273, isLocal: false, isDefinition: false, flags: DIFlagPrototyped, isOptimized: false)
!1273 = !DISubroutineType(types: !1274)
!1274 = !{!433, !433, !14, !955}
!1275 = !DIImportedEntity(tag: DW_TAG_imported_declaration, scope: !20, entity: !1276, file: !1219, line: 131)
!1276 = !DISubprogram(name: "fputwc", scope: !1240, file: !1240, line: 100, type: !1277, isLocal: false, isDefinition: false, flags: DIFlagPrototyped, isOptimized: false)
!1277 = !DISubroutineType(types: !1278)
!1278 = !{!1143, !434, !955}
!1279 = !DIImportedEntity(tag: DW_TAG_imported_declaration, scope: !20, entity: !1280, file: !1219, line: 132)
!1280 = !DISubprogram(name: "fputws", scope: !1240, file: !1240, line: 101, type: !1281, isLocal: false, isDefinition: false, flags: DIFlagPrototyped, isOptimized: false)
!1281 = !DISubroutineType(types: !1282)
!1282 = !{!14, !447, !955}
!1283 = !DIImportedEntity(tag: DW_TAG_imported_declaration, scope: !20, entity: !1284, file: !1219, line: 133)
!1284 = !DISubprogram(name: "fwide", scope: !1240, file: !1240, line: 102, type: !1285, isLocal: false, isDefinition: false, flags: DIFlagPrototyped, isOptimized: false)
!1285 = !DISubroutineType(types: !1286)
!1286 = !{!14, !955, !14}
!1287 = !DIImportedEntity(tag: DW_TAG_imported_declaration, scope: !20, entity: !1288, file: !1219, line: 134)
!1288 = !DISubprogram(name: "getwc", scope: !1240, file: !1240, line: 105, type: !1269, isLocal: false, isDefinition: false, flags: DIFlagPrototyped, isOptimized: false)
!1289 = !DIImportedEntity(tag: DW_TAG_imported_declaration, scope: !20, entity: !1290, file: !1219, line: 135)
!1290 = !DISubprogram(name: "putwc", scope: !1240, file: !1240, line: 113, type: !1277, isLocal: false, isDefinition: false, flags: DIFlagPrototyped, isOptimized: false)
!1291 = !DIImportedEntity(tag: DW_TAG_imported_declaration, scope: !20, entity: !1292, file: !1219, line: 136)
!1292 = !DISubprogram(name: "ungetwc", scope: !1240, file: !1240, line: 117, type: !1293, isLocal: false, isDefinition: false, flags: DIFlagPrototyped, isOptimized: false)
!1293 = !DISubroutineType(types: !1294)
!1294 = !{!1143, !1143, !955}
!1295 = !DIImportedEntity(tag: DW_TAG_imported_declaration, scope: !20, entity: !1296, file: !1219, line: 137)
!1296 = !DISubprogram(name: "wcstod", scope: !1240, file: !1240, line: 144, type: !1297, isLocal: false, isDefinition: false, flags: DIFlagPrototyped, isOptimized: false)
!1297 = !DISubroutineType(types: !1298)
!1298 = !{!298, !447, !1299}
!1299 = !DIDerivedType(tag: DW_TAG_pointer_type, baseType: !433, size: 64)
!1300 = !DIImportedEntity(tag: DW_TAG_imported_declaration, scope: !20, entity: !1301, file: !1219, line: 138)
!1301 = !DISubprogram(name: "wcstof", scope: !1240, file: !1240, line: 175, type: !1302, isLocal: false, isDefinition: false, flags: DIFlagPrototyped, isOptimized: false)
!1302 = !DISubroutineType(types: !1303)
!1303 = !{!324, !447, !1299}
!1304 = !DIImportedEntity(tag: DW_TAG_imported_declaration, scope: !20, entity: !1305, file: !1219, line: 139)
!1305 = !DISubprogram(name: "wcstold", scope: !1240, file: !1240, line: 177, type: !1306, isLocal: false, isDefinition: false, flags: DIFlagPrototyped, isOptimized: false)
!1306 = !DISubroutineType(types: !1307)
!1307 = !{!271, !447, !1299}
!1308 = !DIImportedEntity(tag: DW_TAG_imported_declaration, scope: !20, entity: !1309, file: !1219, line: 140)
!1309 = !DISubprogram(name: "wcstol", scope: !1240, file: !1240, line: 147, type: !1310, isLocal: false, isDefinition: false, flags: DIFlagPrototyped, isOptimized: false)
!1310 = !DISubroutineType(types: !1311)
!1311 = !{!263, !447, !1299, !14}
!1312 = !DIImportedEntity(tag: DW_TAG_imported_declaration, scope: !20, entity: !1313, file: !1219, line: 142)
!1313 = !DISubprogram(name: "wcstoll", scope: !1240, file: !1240, line: 180, type: !1314, isLocal: false, isDefinition: false, flags: DIFlagPrototyped, isOptimized: false)
!1314 = !DISubroutineType(types: !1315)
!1315 = !{!292, !447, !1299, !14}
!1316 = !DIImportedEntity(tag: DW_TAG_imported_declaration, scope: !20, entity: !1317, file: !1219, line: 144)
!1317 = !DISubprogram(name: "wcstoul", scope: !1240, file: !1240, line: 149, type: !1318, isLocal: false, isDefinition: false, flags: DIFlagPrototyped, isOptimized: false)
!1318 = !DISubroutineType(types: !1319)
!1319 = !{!267, !447, !1299, !14}
!1320 = !DIImportedEntity(tag: DW_TAG_imported_declaration, scope: !20, entity: !1321, file: !1219, line: 146)
!1321 = !DISubprogram(name: "wcstoull", scope: !1240, file: !1240, line: 182, type: !1322, isLocal: false, isDefinition: false, flags: DIFlagPrototyped, isOptimized: false)
!1322 = !DISubroutineType(types: !1323)
!1323 = !{!345, !447, !1299, !14}
!1324 = !DIImportedEntity(tag: DW_TAG_imported_declaration, scope: !20, entity: !1325, file: !1219, line: 148)
!1325 = !DISubprogram(name: "wcscpy", scope: !1240, file: !1240, line: 128, type: !1326, isLocal: false, isDefinition: false, flags: DIFlagPrototyped, isOptimized: false)
!1326 = !DISubroutineType(types: !1327)
!1327 = !{!433, !433, !447}
!1328 = !DIImportedEntity(tag: DW_TAG_imported_declaration, scope: !20, entity: !1329, file: !1219, line: 149)
!1329 = !DISubprogram(name: "wcsncpy", scope: !1240, file: !1240, line: 135, type: !1330, isLocal: false, isDefinition: false, flags: DIFlagPrototyped, isOptimized: false)
!1330 = !DISubroutineType(types: !1331)
!1331 = !{!433, !433, !447, !266}
!1332 = !DIImportedEntity(tag: DW_TAG_imported_declaration, scope: !20, entity: !1333, file: !1219, line: 150)
!1333 = !DISubprogram(name: "wcscat", scope: !1240, file: !1240, line: 124, type: !1326, isLocal: false, isDefinition: false, flags: DIFlagPrototyped, isOptimized: false)
!1334 = !DIImportedEntity(tag: DW_TAG_imported_declaration, scope: !20, entity: !1335, file: !1219, line: 151)
!1335 = !DISubprogram(name: "wcsncat", scope: !1240, file: !1240, line: 133, type: !1330, isLocal: false, isDefinition: false, flags: DIFlagPrototyped, isOptimized: false)
!1336 = !DIImportedEntity(tag: DW_TAG_imported_declaration, scope: !20, entity: !1337, file: !1219, line: 152)
!1337 = !DISubprogram(name: "wcscmp", scope: !1240, file: !1240, line: 126, type: !1338, isLocal: false, isDefinition: false, flags: DIFlagPrototyped, isOptimized: false)
!1338 = !DISubroutineType(types: !1339)
!1339 = !{!14, !447, !447}
!1340 = !DIImportedEntity(tag: DW_TAG_imported_declaration, scope: !20, entity: !1341, file: !1219, line: 153)
!1341 = !DISubprogram(name: "wcscoll", scope: !1240, file: !1240, line: 127, type: !1338, isLocal: false, isDefinition: false, flags: DIFlagPrototyped, isOptimized: false)
!1342 = !DIImportedEntity(tag: DW_TAG_imported_declaration, scope: !20, entity: !1343, file: !1219, line: 154)
!1343 = !DISubprogram(name: "wcsncmp", scope: !1240, file: !1240, line: 134, type: !1344, isLocal: false, isDefinition: false, flags: DIFlagPrototyped, isOptimized: false)
!1344 = !DISubroutineType(types: !1345)
!1345 = !{!14, !447, !447, !266}
!1346 = !DIImportedEntity(tag: DW_TAG_imported_declaration, scope: !20, entity: !1347, file: !1219, line: 155)
!1347 = !DISubprogram(name: "wcsxfrm", scope: !1240, file: !1240, line: 142, type: !1348, isLocal: false, isDefinition: false, flags: DIFlagPrototyped, isOptimized: false)
!1348 = !DISubroutineType(types: !1349)
!1349 = !{!266, !433, !447, !266}
!1350 = !DIImportedEntity(tag: DW_TAG_imported_declaration, scope: !20, entity: !1351, file: !1219, line: 156)
!1351 = !DISubprogram(name: "wcschr", linkageName: "_Z6wcschrUa9enable_ifIXLb1EEEPww", scope: !1352, file: !1352, line: 137, type: !1353, isLocal: false, isDefinition: false, flags: DIFlagPrototyped, isOptimized: false)
!1352 = !DIFile(filename: "/Applications/Xcode.app/Contents/Developer/Toolchains/XcodeDefault.xctoolchain/usr/include/c++/v1/wchar.h", directory: "/Users/ejiang/Projects/lls/ac/llfiles")
!1353 = !DISubroutineType(types: !1354)
!1354 = !{!433, !433, !434}
!1355 = !DIImportedEntity(tag: DW_TAG_imported_declaration, scope: !20, entity: !1356, file: !1219, line: 157)
!1356 = !DISubprogram(name: "wcspbrk", linkageName: "_Z7wcspbrkUa9enable_ifIXLb1EEEPwPKw", scope: !1352, file: !1352, line: 144, type: !1326, isLocal: false, isDefinition: false, flags: DIFlagPrototyped, isOptimized: false)
!1357 = !DIImportedEntity(tag: DW_TAG_imported_declaration, scope: !20, entity: !1358, file: !1219, line: 158)
!1358 = !DISubprogram(name: "wcsrchr", linkageName: "_Z7wcsrchrUa9enable_ifIXLb1EEEPww", scope: !1352, file: !1352, line: 151, type: !1353, isLocal: false, isDefinition: false, flags: DIFlagPrototyped, isOptimized: false)
!1359 = !DIImportedEntity(tag: DW_TAG_imported_declaration, scope: !20, entity: !1360, file: !1219, line: 159)
!1360 = !DISubprogram(name: "wcsstr", linkageName: "_Z6wcsstrUa9enable_ifIXLb1EEEPwPKw", scope: !1352, file: !1352, line: 158, type: !1326, isLocal: false, isDefinition: false, flags: DIFlagPrototyped, isOptimized: false)
!1361 = !DIImportedEntity(tag: DW_TAG_imported_declaration, scope: !20, entity: !1362, file: !1219, line: 160)
!1362 = !DISubprogram(name: "wmemchr", linkageName: "_Z7wmemchrUa9enable_ifIXLb1EEEPwwm", scope: !1352, file: !1352, line: 165, type: !1363, isLocal: false, isDefinition: false, flags: DIFlagPrototyped, isOptimized: false)
!1363 = !DISubroutineType(types: !1364)
!1364 = !{!433, !433, !434, !266}
!1365 = !DIImportedEntity(tag: DW_TAG_imported_declaration, scope: !20, entity: !1366, file: !1219, line: 161)
!1366 = !DISubprogram(name: "wcscspn", scope: !1240, file: !1240, line: 129, type: !1367, isLocal: false, isDefinition: false, flags: DIFlagPrototyped, isOptimized: false)
!1367 = !DISubroutineType(types: !1368)
!1368 = !{!266, !447, !447}
!1369 = !DIImportedEntity(tag: DW_TAG_imported_declaration, scope: !20, entity: !1370, file: !1219, line: 162)
!1370 = !DISubprogram(name: "wcslen", scope: !1240, file: !1240, line: 132, type: !1371, isLocal: false, isDefinition: false, flags: DIFlagPrototyped, isOptimized: false)
!1371 = !DISubroutineType(types: !1372)
!1372 = !{!266, !447}
!1373 = !DIImportedEntity(tag: DW_TAG_imported_declaration, scope: !20, entity: !1374, file: !1219, line: 163)
!1374 = !DISubprogram(name: "wcsspn", scope: !1240, file: !1240, line: 140, type: !1367, isLocal: false, isDefinition: false, flags: DIFlagPrototyped, isOptimized: false)
!1375 = !DIImportedEntity(tag: DW_TAG_imported_declaration, scope: !20, entity: !1376, file: !1219, line: 164)
!1376 = !DISubprogram(name: "wcstok", scope: !1240, file: !1240, line: 145, type: !1377, isLocal: false, isDefinition: false, flags: DIFlagPrototyped, isOptimized: false)
!1377 = !DISubroutineType(types: !1378)
!1378 = !{!433, !433, !447, !1299}
!1379 = !DIImportedEntity(tag: DW_TAG_imported_declaration, scope: !20, entity: !1380, file: !1219, line: 165)
!1380 = !DISubprogram(name: "wmemcmp", scope: !1240, file: !1240, line: 151, type: !1344, isLocal: false, isDefinition: false, flags: DIFlagPrototyped, isOptimized: false)
!1381 = !DIImportedEntity(tag: DW_TAG_imported_declaration, scope: !20, entity: !1382, file: !1219, line: 166)
!1382 = !DISubprogram(name: "wmemcpy", scope: !1240, file: !1240, line: 152, type: !1330, isLocal: false, isDefinition: false, flags: DIFlagPrototyped, isOptimized: false)
!1383 = !DIImportedEntity(tag: DW_TAG_imported_declaration, scope: !20, entity: !1384, file: !1219, line: 167)
!1384 = !DISubprogram(name: "wmemmove", scope: !1240, file: !1240, line: 153, type: !1330, isLocal: false, isDefinition: false, flags: DIFlagPrototyped, isOptimized: false)
!1385 = !DIImportedEntity(tag: DW_TAG_imported_declaration, scope: !20, entity: !1386, file: !1219, line: 168)
!1386 = !DISubprogram(name: "wmemset", scope: !1240, file: !1240, line: 154, type: !1363, isLocal: false, isDefinition: false, flags: DIFlagPrototyped, isOptimized: false)
!1387 = !DIImportedEntity(tag: DW_TAG_imported_declaration, scope: !20, entity: !1388, file: !1219, line: 169)
!1388 = !DISubprogram(name: "wcsftime", linkageName: "\01_wcsftime", scope: !1240, file: !1240, line: 130, type: !1389, isLocal: false, isDefinition: false, flags: DIFlagPrototyped, isOptimized: false)
!1389 = !DISubroutineType(types: !1390)
!1390 = !{!266, !433, !266, !447, !1391}
!1391 = !DIDerivedType(tag: DW_TAG_pointer_type, baseType: !1392, size: 64)
!1392 = !DIDerivedType(tag: DW_TAG_const_type, baseType: !1222)
!1393 = !DIImportedEntity(tag: DW_TAG_imported_declaration, scope: !20, entity: !1394, file: !1219, line: 170)
!1394 = !DISubprogram(name: "btowc", scope: !1240, file: !1240, line: 97, type: !1395, isLocal: false, isDefinition: false, flags: DIFlagPrototyped, isOptimized: false)
!1395 = !DISubroutineType(types: !1396)
!1396 = !{!1143, !14}
!1397 = !DIImportedEntity(tag: DW_TAG_imported_declaration, scope: !20, entity: !1398, file: !1219, line: 171)
!1398 = !DISubprogram(name: "wctob", scope: !1240, file: !1240, line: 143, type: !1160, isLocal: false, isDefinition: false, flags: DIFlagPrototyped, isOptimized: false)
!1399 = !DIImportedEntity(tag: DW_TAG_imported_declaration, scope: !20, entity: !1400, file: !1219, line: 172)
!1400 = !DISubprogram(name: "mbsinit", scope: !1240, file: !1240, line: 110, type: !1401, isLocal: false, isDefinition: false, flags: DIFlagPrototyped, isOptimized: false)
!1401 = !DISubroutineType(types: !1402)
!1402 = !{!14, !1403}
!1403 = !DIDerivedType(tag: DW_TAG_pointer_type, baseType: !1404, size: 64)
!1404 = !DIDerivedType(tag: DW_TAG_const_type, baseType: !1208)
!1405 = !DIImportedEntity(tag: DW_TAG_imported_declaration, scope: !20, entity: !1406, file: !1219, line: 173)
!1406 = !DISubprogram(name: "mbrlen", scope: !1240, file: !1240, line: 107, type: !1407, isLocal: false, isDefinition: false, flags: DIFlagPrototyped, isOptimized: false)
!1407 = !DISubroutineType(types: !1408)
!1408 = !{!266, !299, !266, !1409}
!1409 = !DIDerivedType(tag: DW_TAG_pointer_type, baseType: !1208, size: 64)
!1410 = !DIImportedEntity(tag: DW_TAG_imported_declaration, scope: !20, entity: !1411, file: !1219, line: 174)
!1411 = !DISubprogram(name: "mbrtowc", scope: !1240, file: !1240, line: 108, type: !1412, isLocal: false, isDefinition: false, flags: DIFlagPrototyped, isOptimized: false)
!1412 = !DISubroutineType(types: !1413)
!1413 = !{!266, !433, !299, !266, !1409}
!1414 = !DIImportedEntity(tag: DW_TAG_imported_declaration, scope: !20, entity: !1415, file: !1219, line: 175)
!1415 = !DISubprogram(name: "wcrtomb", scope: !1240, file: !1240, line: 123, type: !1416, isLocal: false, isDefinition: false, flags: DIFlagPrototyped, isOptimized: false)
!1416 = !DISubroutineType(types: !1417)
!1417 = !{!266, !319, !434, !1409}
!1418 = !DIImportedEntity(tag: DW_TAG_imported_declaration, scope: !20, entity: !1419, file: !1219, line: 176)
!1419 = !DISubprogram(name: "mbsrtowcs", scope: !1240, file: !1240, line: 111, type: !1420, isLocal: false, isDefinition: false, flags: DIFlagPrototyped, isOptimized: false)
!1420 = !DISubroutineType(types: !1421)
!1421 = !{!266, !433, !1422, !266, !1409}
!1422 = !DIDerivedType(tag: DW_TAG_pointer_type, baseType: !299, size: 64)
!1423 = !DIImportedEntity(tag: DW_TAG_imported_declaration, scope: !20, entity: !1424, file: !1219, line: 177)
!1424 = !DISubprogram(name: "wcsrtombs", scope: !1240, file: !1240, line: 138, type: !1425, isLocal: false, isDefinition: false, flags: DIFlagPrototyped, isOptimized: false)
!1425 = !DISubroutineType(types: !1426)
!1426 = !{!266, !319, !1427, !266, !1409}
!1427 = !DIDerivedType(tag: DW_TAG_pointer_type, baseType: !447, size: 64)
!1428 = !DIImportedEntity(tag: DW_TAG_imported_declaration, scope: !20, entity: !1429, file: !1219, line: 180)
!1429 = !DISubprogram(name: "getwchar", scope: !1240, file: !1240, line: 106, type: !1430, isLocal: false, isDefinition: false, flags: DIFlagPrototyped, isOptimized: false)
!1430 = !DISubroutineType(types: !1431)
!1431 = !{!1143}
!1432 = !DIImportedEntity(tag: DW_TAG_imported_declaration, scope: !20, entity: !1433, file: !1219, line: 181)
!1433 = !DISubprogram(name: "vwscanf", scope: !1240, file: !1240, line: 174, type: !1434, isLocal: false, isDefinition: false, flags: DIFlagPrototyped, isOptimized: false)
!1434 = !DISubroutineType(types: !1435)
!1435 = !{!14, !447, !988}
!1436 = !DIImportedEntity(tag: DW_TAG_imported_declaration, scope: !20, entity: !1437, file: !1219, line: 182)
!1437 = !DISubprogram(name: "wscanf", scope: !1240, file: !1240, line: 156, type: !1438, isLocal: false, isDefinition: false, flags: DIFlagPrototyped, isOptimized: false)
!1438 = !DISubroutineType(types: !1439)
!1439 = !{!14, !447, null}
!1440 = !DIImportedEntity(tag: DW_TAG_imported_declaration, scope: !20, entity: !1441, file: !1219, line: 186)
!1441 = !DISubprogram(name: "putwchar", scope: !1240, file: !1240, line: 114, type: !1442, isLocal: false, isDefinition: false, flags: DIFlagPrototyped, isOptimized: false)
!1442 = !DISubroutineType(types: !1443)
!1443 = !{!1143, !434}
!1444 = !DIImportedEntity(tag: DW_TAG_imported_declaration, scope: !20, entity: !1445, file: !1219, line: 187)
!1445 = !DISubprogram(name: "vwprintf", scope: !1240, file: !1240, line: 122, type: !1434, isLocal: false, isDefinition: false, flags: DIFlagPrototyped, isOptimized: false)
!1446 = !DIImportedEntity(tag: DW_TAG_imported_declaration, scope: !20, entity: !1447, file: !1219, line: 188)
!1447 = !DISubprogram(name: "wprintf", scope: !1240, file: !1240, line: 155, type: !1438, isLocal: false, isDefinition: false, flags: DIFlagPrototyped, isOptimized: false)
!1448 = !DIImportedEntity(tag: DW_TAG_imported_module, scope: !0, entity: !1449, file: !4, line: 7)
!1449 = !DINamespace(name: "llvm", scope: null)
!1450 = !DIImportedEntity(tag: DW_TAG_imported_module, scope: !0, entity: !6, file: !1, line: 3)
!1451 = !{i32 2, !"Dwarf Version", i32 4}
!1452 = !{i32 2, !"Debug Info Version", i32 3}
!1453 = !{i32 1, !"wchar_size", i32 4}
!1454 = !{i32 7, !"PIC Level", i32 2}
!1455 = !{!"Apple LLVM version 9.1.0 (clang-902.0.39.2)"}
!1456 = distinct !DISubprogram(name: "main", scope: !1, file: !1, line: 5, type: !12, isLocal: false, isDefinition: true, scopeLine: 5, flags: DIFlagPrototyped, isOptimized: false, unit: !0, retainedNodes: !136)
!1457 = !DILocalVariable(name: "value", scope: !1456, file: !1, line: 6, type: !5)
!1458 = !DILocation(line: 6, column: 13, scope: !1456)
!1459 = !DILocation(line: 8, column: 16, scope: !1456)
!1460 = !DILocation(line: 8, column: 10, scope: !1456)
!1461 = !DILocation(line: 8, column: 3, scope: !1456)
!1462 = !DILocation(line: 9, column: 1, scope: !1456)
!1463 = distinct !DISubprogram(name: "toBoolean", linkageName: "_ZN14altered_carbon2js9ACJsValue9toBooleanEv", scope: !5, file: !4, line: 146, type: !235, isLocal: false, isDefinition: true, scopeLine: 146, flags: DIFlagPrototyped, isOptimized: false, unit: !0, declaration: !234, retainedNodes: !136)
!1464 = !DILocalVariable(name: "this", arg: 1, scope: !1463, type: !30, flags: DIFlagArtificial | DIFlagObjectPointer)
!1465 = !DILocation(line: 0, scope: !1463)
!1466 = !DILocation(line: 146, column: 30, scope: !1463)
!1467 = distinct !DISubprogram(name: "~ACJsValue", linkageName: "_ZN14altered_carbon2js9ACJsValueD1Ev", scope: !5, file: !4, line: 90, type: !187, isLocal: false, isDefinition: true, scopeLine: 90, flags: DIFlagPrototyped, isOptimized: false, unit: !0, declaration: !186, retainedNodes: !136)
!1468 = !DILocalVariable(name: "this", arg: 1, scope: !1467, type: !30, flags: DIFlagArtificial | DIFlagObjectPointer)
!1469 = !DILocation(line: 0, scope: !1467)
!1470 = !DILocation(line: 90, column: 24, scope: !1467)
!1471 = !DILocation(line: 90, column: 25, scope: !1467)
!1472 = distinct !DISubprogram(name: "~ACJsValue", linkageName: "_ZN14altered_carbon2js9ACJsValueD2Ev", scope: !5, file: !4, line: 90, type: !187, isLocal: false, isDefinition: true, scopeLine: 90, flags: DIFlagPrototyped, isOptimized: false, unit: !0, declaration: !186, retainedNodes: !136)
!1473 = !DILocalVariable(name: "this", arg: 1, scope: !1472, type: !30, flags: DIFlagArtificial | DIFlagObjectPointer)
!1474 = !DILocation(line: 0, scope: !1472)
!1475 = !DILocation(line: 90, column: 25, scope: !1472)
