	.section	__TEXT,__text,regular,pure_instructions
	.macosx_version_min 10, 13
	.globl	__Z7_scriptPN14altered_carbon2js9JsVariantE ## -- Begin function _Z7_scriptPN14altered_carbon2js9JsVariantE
	.p2align	4, 0x90
__Z7_scriptPN14altered_carbon2js9JsVariantE: ## @_Z7_scriptPN14altered_carbon2js9JsVariantE
	.cfi_startproc
## %bb.0:                               ## %init.bb
	pushq	%r14
	.cfi_def_cfa_offset 16
	pushq	%rbx
	.cfi_def_cfa_offset 24
	subq	$232, %rsp
	.cfi_def_cfa_offset 256
	.cfi_offset %rbx, -24
	.cfi_offset %r14, -16
	movq	%rdi, %r14
	movq	__ZTVN14altered_carbon2js9JsVariantE@GOTPCREL(%rip), %rax
	addq	$16, %rax
	movq	%rax, 64(%rsp)
	movl	$1, 72(%rsp)
	movq	%rax, 176(%rsp)
	movl	$1, 184(%rsp)
	movq	%rax, 120(%rsp)
	movl	$1, 128(%rsp)
	movq	%rax, 8(%rsp)
	movl	$1, 16(%rsp)
	xorl	%eax, %eax
	testb	%al, %al
	jne	LBB0_12
## %bb.1:                               ## %assign.bb
	movl	$2, 72(%rsp)
	movq	$11, 80(%rsp)
	movabsq	$4622382067542392832, %rax ## imm = 0x4026000000000000
	movq	%rax, 88(%rsp)
	movb	$1, 96(%rsp)
	jmp	LBB0_2
LBB0_12:                                ## %fallback.bb
	leaq	64(%rsp), %rdi
	movl	$11, %esi
	callq	__ZN14altered_carbon2js9JsVariantaSEx
LBB0_2:                                 ## %assign.bbe
	leaq	176(%rsp), %rbx
	movl	$2, %esi
	movq	%rbx, %rdi
	callq	__ZN14altered_carbon2js9JsVariantaSEx
	leaq	64(%rsp), %rdi
	leaq	120(%rsp), %rsi
	movq	%rbx, %rdx
	callq	__ZNK14altered_carbon2js9JsVariant3modEPS1_RKS1_
	cmpl	$6, 16(%rsp)
	jg	LBB0_6
## %bb.3:                               ## %assign.bbe
	movl	8(%rax), %ecx
	cmpl	$7, %ecx
	jge	LBB0_6
## %bb.4:                               ## %copy.bb
	leal	2(%rcx), %edx
	cmpl	$8, %edx
	ja	LBB0_6
## %bb.5:                               ## %copy.bb
	leaq	LJTI0_0(%rip), %rsi
	movslq	(%rsi,%rdx,4), %rdx
	addq	%rsi, %rdx
	jmpq	*%rdx
LBB0_8:                                 ## %casenul_unf.bb
	movl	%ecx, 16(%rsp)
	jmp	LBB0_11
LBB0_6:                                 ## %fallback.bb4
	leaq	8(%rsp), %rdi
	movq	%rax, %rsi
	callq	__ZN14altered_carbon2js9JsVariantaSERKS1_
LBB0_11:                                ## %copy.bbe
	leaq	8(%rsp), %rbx
	movq	%r14, %rdi
	movq	%rbx, %rsi
	callq	__ZN14altered_carbon2js9JsVariantaSERKS1_
	movq	%rbx, %rdi
	callq	__ZN14altered_carbon2js9JsVariantD1Ev
	leaq	120(%rsp), %rdi
	callq	__ZN14altered_carbon2js9JsVariantD1Ev
	leaq	176(%rsp), %rdi
	callq	__ZN14altered_carbon2js9JsVariantD1Ev
	leaq	64(%rsp), %rdi
	callq	__ZN14altered_carbon2js9JsVariantD1Ev
	addq	$232, %rsp
	popq	%rbx
	popq	%r14
	retq
LBB0_7:                                 ## %caseerr.bb
	movl	%ecx, 16(%rsp)
	movq	16(%rax), %rax
	movq	%rax, 24(%rsp)
	jmp	LBB0_11
LBB0_10:                                ## %casenum.bb
	movl	%ecx, 16(%rsp)
	movq	16(%rax), %rcx
	movsd	24(%rax), %xmm0         ## xmm0 = mem[0],zero
	movb	32(%rax), %al
	movq	%rcx, 24(%rsp)
	movsd	%xmm0, 32(%rsp)
	movb	%al, 40(%rsp)
	jmp	LBB0_11
LBB0_9:                                 ## %casebln.bb
	movl	%ecx, 16(%rsp)
	movb	16(%rax), %al
	movb	%al, 24(%rsp)
	jmp	LBB0_11
	.cfi_endproc
	.p2align	2, 0x90
	.data_region jt32
.set L0_0_set_7, LBB0_7-LJTI0_0
.set L0_0_set_6, LBB0_6-LJTI0_0
.set L0_0_set_8, LBB0_8-LJTI0_0
.set L0_0_set_10, LBB0_10-LJTI0_0
.set L0_0_set_9, LBB0_9-LJTI0_0
LJTI0_0:
	.long	L0_0_set_7
	.long	L0_0_set_6
	.long	L0_0_set_8
	.long	L0_0_set_8
	.long	L0_0_set_10
	.long	L0_0_set_6
	.long	L0_0_set_6
	.long	L0_0_set_6
	.long	L0_0_set_9
	.end_data_region
                                        ## -- End function
	.section	__TEXT,__const
	.globl	__ZTSN14altered_carbon2js9JsVariantE ## @_ZTSN14altered_carbon2js9JsVariantE
	.weak_definition	__ZTSN14altered_carbon2js9JsVariantE
	.p2align	4
__ZTSN14altered_carbon2js9JsVariantE:
	.asciz	"N14altered_carbon2js9JsVariantE"

	.section	__DATA,__const
	.globl	__ZTIN14altered_carbon2js9JsVariantE ## @_ZTIN14altered_carbon2js9JsVariantE
	.weak_definition	__ZTIN14altered_carbon2js9JsVariantE
	.p2align	3
__ZTIN14altered_carbon2js9JsVariantE:
	.quad	__ZTVN10__cxxabiv117__class_type_infoE+16
	.quad	__ZTSN14altered_carbon2js9JsVariantE

	.globl	__ZTVN14altered_carbon2js9JsVariantE ## @_ZTVN14altered_carbon2js9JsVariantE
	.weak_def_can_be_hidden	__ZTVN14altered_carbon2js9JsVariantE
	.p2align	3
__ZTVN14altered_carbon2js9JsVariantE:
	.quad	0
	.quad	__ZTIN14altered_carbon2js9JsVariantE
	.quad	__ZN14altered_carbon2js9JsVariantD1Ev
	.quad	__ZN14altered_carbon2js9JsVariantD0Ev


.subsections_via_symbols
