; ModuleID = 'qs1.ll'
source_filename = "llvm-link"
target datalayout = "e-m:o-i64:64-f80:128-n8:16:32:64-S128"
target triple = "x86_64-apple-macosx10.13.0"

%"class.std::__1::basic_ostream" = type { i32 (...)**, %"class.std::__1::basic_ios.base" }
%"class.std::__1::basic_ios.base" = type <{ %"class.std::__1::ios_base", %"class.std::__1::basic_ostream"*, i32 }>
%"class.std::__1::ios_base" = type { i32 (...)**, i32, i64, i64, i32, i32, i8*, i8*, void (i32, %"class.std::__1::ios_base"*, i32)**, i32*, i64, i64, i64*, i64, i64, i8**, i64, i64 }
%struct.__sFILE = type { i8*, i32, i32, i16, i16, %struct.__sbuf, i32, i8*, i32 (i8*)*, i32 (i8*, i8*, i32)*, i64 (i8*, i64, i32)*, i32 (i8*, i8*, i32)*, %struct.__sbuf, %struct.__sFILEX*, i32, [3 x i8], [1 x i8], %struct.__sbuf, i32, i64 }
%struct.__sFILEX = type opaque
%struct.__sbuf = type { i8*, i32 }
%"class.std::__1::locale::id" = type <{ %"struct.std::__1::once_flag", i32, [4 x i8] }>
%"struct.std::__1::once_flag" = type { i64 }
%"class.altered_carbon::js::JsVariant" = type { i32 (...)**, i32, %union.anon }
%union.anon = type { %"class.std::__1::basic_string", [16 x i8] }
%"class.std::__1::basic_string" = type { %"class.std::__1::__compressed_pair" }
%"class.std::__1::__compressed_pair" = type { %"struct.std::__1::__compressed_pair_elem" }
%"struct.std::__1::__compressed_pair_elem" = type { %"struct.std::__1::basic_string<wchar_t, std::__1::char_traits<wchar_t>, std::__1::allocator<wchar_t> >::__rep" }
%"struct.std::__1::basic_string<wchar_t, std::__1::char_traits<wchar_t>, std::__1::allocator<wchar_t> >::__rep" = type { %union.anon.0 }
%union.anon.0 = type { %"struct.std::__1::basic_string<wchar_t, std::__1::char_traits<wchar_t>, std::__1::allocator<wchar_t> >::__long" }
%"struct.std::__1::basic_string<wchar_t, std::__1::char_traits<wchar_t>, std::__1::allocator<wchar_t> >::__long" = type { i64, i64, i32* }
%"class.altered_carbon::js::ACLexNumber" = type { i32 (...)**, i8, %union.anon.4 }
%union.anon.4 = type { double }
%"class.std::__1::ctype" = type <{ %"class.std::__1::locale::facet", i32*, i8, [7 x i8] }>
%"class.std::__1::locale::facet" = type { %"class.std::__1::__shared_count" }
%"class.std::__1::__shared_count" = type { i32 (...)**, i64 }
%"class.std::__1::locale" = type { %"class.std::__1::locale::__imp"* }
%"class.std::__1::locale::__imp" = type opaque
%"class.std::__1::basic_ios" = type <{ %"class.std::__1::ios_base", %"class.std::__1::basic_ostream"*, i32, [4 x i8] }>
%"class.std::__1::ostreambuf_iterator" = type { %"class.std::__1::basic_streambuf"* }
%"class.std::__1::basic_streambuf" = type { i32 (...)**, %"class.std::__1::locale", i8*, i8*, i8*, i8*, i8*, i8* }
%"class.std::__1::basic_ostream<char, std::__1::char_traits<char> >::sentry" = type { i8, %"class.std::__1::basic_ostream"* }
%"struct.std::__1::iterator" = type { i8 }
%"struct.std::__1::__compressed_pair_elem.10" = type { %"struct.std::__1::basic_string<char, std::__1::char_traits<char>, std::__1::allocator<char> >::__rep" }
%"struct.std::__1::basic_string<char, std::__1::char_traits<char>, std::__1::allocator<char> >::__rep" = type { %union.anon.0.11 }
%union.anon.0.11 = type { %"struct.std::__1::basic_string<char, std::__1::char_traits<char>, std::__1::allocator<char> >::__long" }
%"struct.std::__1::basic_string<char, std::__1::char_traits<char>, std::__1::allocator<char> >::__long" = type { i64, i64, i8* }
%"class.std::__1::__compressed_pair.9" = type { %"struct.std::__1::__compressed_pair_elem.10" }
%"class.std::__1::basic_string.8" = type { %"class.std::__1::__compressed_pair.9" }
%"struct.std::__1::basic_string<char, std::__1::char_traits<char>, std::__1::allocator<char> >::__short" = type { %"struct.std::__1::iterator", [23 x i8] }
%"class.altered_carbon::js::ACLexRegex" = type <{ i32 (...)**, %"class.std::__1::basic_string.8", i8, i8, i8, [5 x i8] }>
%"class.std::__1::basic_ifstream" = type { %"class.std::__1::__shared_count", %"class.std::__1::basic_filebuf", %"class.std::__1::basic_ios.base" }
%"class.std::__1::basic_filebuf" = type <{ %"class.std::__1::basic_streambuf", i8*, i8*, i8*, [8 x i8], i64, i8*, i64, %struct.__sFILE*, %"class.std::__1::codecvt"*, %union.__mbstate_t, %union.__mbstate_t, i32, i32, i8, i8, i8, [5 x i8] }>
%"class.std::__1::codecvt" = type { %"class.std::__1::locale::facet" }
%union.__mbstate_t = type { i64, [120 x i8] }
%"class.std::__1::back_insert_iterator" = type { %"class.std::__1::basic_string.8"* }
%"class.std::__1::basic_istream" = type { i32 (...)**, i64, %"class.std::__1::basic_ios.base" }
%"class.std::__1::fpos" = type { %union.__mbstate_t, i64 }
%"struct.std::__1::__compressed_pair_elem.4" = type { %struct.__sFILE* }
%"class.std::__1::__compressed_pair.3" = type { %"struct.std::__1::__compressed_pair_elem.4", %"struct.std::__1::__compressed_pair_elem.5" }
%"struct.std::__1::__compressed_pair_elem.5" = type { i32 (%struct.__sFILE*)* }
%"class.std::__1::unique_ptr" = type { %"class.std::__1::__compressed_pair.3" }
%"class.altered_carbon::js::ACLexToken" = type { i32 (...)**, i32, i64, %"class.std::__1::basic_string_view", %"struct.altered_carbon::js::ACLexPosition", %"class.std::__1::basic_string" }
%"class.std::__1::basic_string_view" = type { i8*, i64 }
%"struct.altered_carbon::js::ACLexPosition" = type { i32 (...)**, i64, i32, i64 }
%"struct.std::__1::basic_string<wchar_t, std::__1::char_traits<wchar_t>, std::__1::allocator<wchar_t> >::__short" = type { %union.anon.0.44, [5 x i32] }
%union.anon.0.44 = type { i32 }
%"class.std::__1::unique_ptr.46" = type { %"class.std::__1::__compressed_pair.3.47" }
%"class.std::__1::__compressed_pair.3.47" = type { %"struct.std::__1::__compressed_pair_elem.4.48" }
%"struct.std::__1::__compressed_pair_elem.4.48" = type { %"class.altered_carbon::js::ACLexRegex"* }
%"class.altered_carbon::js::ACLexNumberToken" = type <{ %"class.altered_carbon::js::ACLexToken", %"class.altered_carbon::js::ACLexNumber", i32, [4 x i8] }>
%"class.altered_carbon::js::ACLexRegexToken" = type { %"class.altered_carbon::js::ACLexToken", %"class.std::__1::unique_ptr.46" }
%"struct.std::__1::basic_string<wchar_t, std::__1::char_traits<wchar_t>, std::__1::allocator<wchar_t> >::__raw" = type { [3 x i64] }
%"class.altered_carbon::js::RefCountedPtr" = type { %"class.altered_carbon::js::RefCounted"* }
%"class.altered_carbon::js::RefCounted" = type { %"class.altered_carbon::js::JsVariant", %"struct.std::__1::atomic" }
%"struct.std::__1::atomic" = type { %"struct.std::__1::__atomic_base" }
%"struct.std::__1::__atomic_base" = type { %"struct.std::__1::once_flag" }
%"class.altered_carbon::js::RefCountedPtr.11" = type { %"class.altered_carbon::js::RefCounted.12"* }
%"class.altered_carbon::js::RefCounted.12" = type { %"class.altered_carbon::js::JsVariantArray", %"struct.std::__1::atomic" }
%"class.altered_carbon::js::JsVariantArray" = type { i32 (...)**, %"class.altered_carbon::js::RBTreeNode"* }
%"class.altered_carbon::js::RBTreeNode" = type { i32 (...)**, i32, i32, i32, i32, %"class.altered_carbon::js::RBTreeNode"*, %"class.altered_carbon::js::RBTreeNode"*, %"class.altered_carbon::js::RBTreeNode"*, %"class.std::__1::vector" }
%"class.std::__1::vector" = type { %"class.std::__1::__vector_base" }
%"class.std::__1::__vector_base" = type { %"class.altered_carbon::js::JsVariant"**, %"class.altered_carbon::js::JsVariant"**, %"class.std::__1::__compressed_pair.13" }
%"class.std::__1::__compressed_pair.13" = type { %"struct.std::__1::__compressed_pair_elem.14" }
%"struct.std::__1::__compressed_pair_elem.14" = type { %"class.altered_carbon::js::JsVariant"** }
%"struct.altered_carbon::js::JsVariantNumber" = type <{ i64, double, i8, [7 x i8] }>
%"class.std::__1::__compressed_pair.19" = type { %"class.altered_carbon::js::RefCountedPtr.11" }
%"class.std::__1::unique_ptr.77" = type { %"class.std::__1::__compressed_pair.19" }
%"class.std::__1::__compressed_pair.23" = type { %"class.altered_carbon::js::RefCountedPtr" }
%"class.std::__1::unique_ptr.22" = type { %"class.std::__1::__compressed_pair.23" }
%"class.llvm::ArrayRef" = type { %"class.altered_carbon::js::JsVariant"**, i64 }
%"class.std::__1::__compressed_pair.31" = type { %"struct.std::__1::__compressed_pair_elem.32" }
%"struct.std::__1::__compressed_pair_elem.32" = type { %"class.altered_carbon::js::RBTreeNode"* }
%"class.std::__1::unique_ptr.30" = type { %"class.std::__1::__compressed_pair.31" }
%"struct.std::__1::__split_buffer" = type { %"class.altered_carbon::js::JsVariant"**, %"class.altered_carbon::js::JsVariant"**, %"class.altered_carbon::js::JsVariant"**, %"class.std::__1::__compressed_pair.36" }
%"class.std::__1::__compressed_pair.36" = type { %"struct.std::__1::__compressed_pair_elem.14", %"struct.std::__1::__compressed_pair_elem.37" }
%"struct.std::__1::__compressed_pair_elem.37" = type { %"struct.std::__1::iterator"* }
%"class.std::__1::basic_string_view.83" = type { i32*, i64 }
%"class.llvm::Value" = type opaque
%"class.llvm::ArrayRef.29" = type { %"class.llvm::Value"**, i64 }

@_ZNSt3__14coutE = external global %"class.std::__1::basic_ostream", align 8
@__stdoutp = external global %struct.__sFILE*, align 8
@.str = private unnamed_addr constant [2 x i8] c"\0A\00", align 1
@_ZTVN10__cxxabiv117__class_type_infoE = external global i8*
@_ZTVN14altered_carbon2js11ACLexNumberE = linkonce_odr unnamed_addr constant { [4 x i8*] } { [4 x i8*] [i8* null, i8* bitcast ({ i8*, i8* }* @_ZTIN14altered_carbon2js11ACLexNumberE to i8*), i8* bitcast (void (%"class.altered_carbon::js::ACLexNumber"*)* @_ZN14altered_carbon2js11ACLexNumberD1Ev to i8*), i8* bitcast (void (%"class.altered_carbon::js::ACLexNumber"*)* @_ZN14altered_carbon2js11ACLexNumberD0Ev to i8*)] }, align 8
@_ZTIN14altered_carbon2js11ACLexNumberE = linkonce_odr constant { i8*, i8* } { i8* bitcast (i8** getelementptr inbounds (i8*, i8** @_ZTVN10__cxxabiv117__class_type_infoE, i64 2) to i8*), i8* getelementptr inbounds ([35 x i8], [35 x i8]* @_ZTSN14altered_carbon2js11ACLexNumberE, i32 0, i32 0) }
@_ZTSN14altered_carbon2js11ACLexNumberE = linkonce_odr constant [35 x i8] c"N14altered_carbon2js11ACLexNumberE\00"
@.str.3 = private unnamed_addr constant [4 x i8] c"(I)\00", align 1
@.str.1 = private unnamed_addr constant [4 x i8] c"(R)\00", align 1
@_ZNSt3__15ctypeIcE2idE = external global %"class.std::__1::locale::id", align 8
@_ZTVN14altered_carbon2js10ACLexRegexE = linkonce_odr unnamed_addr constant { [4 x i8*] } { [4 x i8*] [i8* null, i8* bitcast ({ i8*, i8* }* @_ZTIN14altered_carbon2js10ACLexRegexE to i8*), i8* bitcast (void (%"class.altered_carbon::js::ACLexRegex"*)* @_ZN14altered_carbon2js10ACLexRegexD1Ev to i8*), i8* bitcast (void (%"class.altered_carbon::js::ACLexRegex"*)* @_ZN14altered_carbon2js10ACLexRegexD0Ev to i8*)] }, align 8
@_ZTIN14altered_carbon2js10ACLexRegexE = linkonce_odr constant { i8*, i8* } { i8* bitcast (i8** getelementptr inbounds (i8*, i8** @_ZTVN10__cxxabiv117__class_type_infoE, i64 2) to i8*), i8* getelementptr inbounds ([34 x i8], [34 x i8]* @_ZTSN14altered_carbon2js10ACLexRegexE, i32 0, i32 0) }
@_ZTSN14altered_carbon2js10ACLexRegexE = linkonce_odr constant [34 x i8] c"N14altered_carbon2js10ACLexRegexE\00"
@.str.2 = private unnamed_addr constant [1 x i8] zeroinitializer, align 1
@.str.3.4 = private unnamed_addr constant [2 x i8] c"/\00", align 1
@.str.4 = private unnamed_addr constant [2 x i8] c"i\00", align 1
@.str.5 = private unnamed_addr constant [2 x i8] c"g\00", align 1
@.str.6 = private unnamed_addr constant [2 x i8] c"m\00", align 1
@_ZZN14altered_carbon2js11utf8_decodeEPKcPwPiE7lengths = internal constant [32 x i8] c"\01\01\01\01\01\01\01\01\01\01\01\01\01\01\01\01\00\00\00\00\00\00\00\00\02\02\02\02\03\03\04\00", align 16
@_ZZN14altered_carbon2js11utf8_decodeEPKcPwPiE5masks = internal constant [5 x i32] [i32 0, i32 127, i32 31, i32 15, i32 7], align 16
@_ZZN14altered_carbon2js11utf8_decodeEPKcPwPiE10shift_char = internal constant [5 x i32] [i32 0, i32 18, i32 12, i32 6, i32 0], align 16
@_ZZN14altered_carbon2js11utf8_decodeEPKcPwPiE4mins = internal constant [5 x i32] [i32 4194304, i32 0, i32 128, i32 2048, i32 65536], align 16
@_ZZN14altered_carbon2js11utf8_decodeEPKcPwPiE9shift_err = internal constant [5 x i32] [i32 0, i32 6, i32 4, i32 2, i32 0], align 16
@_ZTVNSt3__18ios_baseE = external unnamed_addr constant { [4 x i8*] }
@_ZTVNSt3__19basic_iosIcNS_11char_traitsIcEEEE = external unnamed_addr constant { [4 x i8*] }
@_ZTVNSt3__114basic_ifstreamIcNS_11char_traitsIcEEEE = linkonce_odr unnamed_addr constant { [5 x i8*], [5 x i8*] } { [5 x i8*] [i8* inttoptr (i64 424 to i8*), i8* null, i8* bitcast ({ i8*, i8*, i8* }* @_ZTINSt3__114basic_ifstreamIcNS_11char_traitsIcEEEE to i8*), i8* bitcast (void (%"class.std::__1::basic_ifstream"*)* @_ZNSt3__114basic_ifstreamIcNS_11char_traitsIcEEED1Ev to i8*), i8* bitcast (void (%"class.std::__1::basic_ifstream"*)* @_ZNSt3__114basic_ifstreamIcNS_11char_traitsIcEEED0Ev to i8*)], [5 x i8*] [i8* inttoptr (i64 -424 to i8*), i8* inttoptr (i64 -424 to i8*), i8* bitcast ({ i8*, i8*, i8* }* @_ZTINSt3__114basic_ifstreamIcNS_11char_traitsIcEEEE to i8*), i8* bitcast (void (%"class.std::__1::basic_ifstream"*)* @_ZTv0_n24_NSt3__114basic_ifstreamIcNS_11char_traitsIcEEED1Ev to i8*), i8* bitcast (void (%"class.std::__1::basic_ifstream"*)* @_ZTv0_n24_NSt3__114basic_ifstreamIcNS_11char_traitsIcEEED0Ev to i8*)] }, align 8
@_ZTTNSt3__114basic_ifstreamIcNS_11char_traitsIcEEEE = linkonce_odr unnamed_addr constant [4 x i8*] [i8* bitcast (i8** getelementptr inbounds ({ [5 x i8*], [5 x i8*] }, { [5 x i8*], [5 x i8*] }* @_ZTVNSt3__114basic_ifstreamIcNS_11char_traitsIcEEEE, i32 0, inrange i32 0, i32 3) to i8*), i8* bitcast (i8** getelementptr inbounds ({ [5 x i8*], [5 x i8*] }, { [5 x i8*], [5 x i8*] }* @_ZTCNSt3__114basic_ifstreamIcNS_11char_traitsIcEEEE0_NS_13basic_istreamIcS2_EE, i32 0, inrange i32 0, i32 3) to i8*), i8* bitcast (i8** getelementptr inbounds ({ [5 x i8*], [5 x i8*] }, { [5 x i8*], [5 x i8*] }* @_ZTCNSt3__114basic_ifstreamIcNS_11char_traitsIcEEEE0_NS_13basic_istreamIcS2_EE, i32 0, inrange i32 1, i32 3) to i8*), i8* bitcast (i8** getelementptr inbounds ({ [5 x i8*], [5 x i8*] }, { [5 x i8*], [5 x i8*] }* @_ZTVNSt3__114basic_ifstreamIcNS_11char_traitsIcEEEE, i32 0, inrange i32 1, i32 3) to i8*)]
@_ZN14altered_carbon2jsL5TRIALE = internal global i8* getelementptr inbounds ([11 x i8], [11 x i8]* @.str.7, i32 0, i32 0), align 8
@_ZTVNSt3__113basic_filebufIcNS_11char_traitsIcEEEE = linkonce_odr unnamed_addr constant { [16 x i8*] } { [16 x i8*] [i8* null, i8* bitcast ({ i8*, i8*, i8* }* @_ZTINSt3__113basic_filebufIcNS_11char_traitsIcEEEE to i8*), i8* bitcast (void (%"class.std::__1::basic_filebuf"*)* @_ZNSt3__113basic_filebufIcNS_11char_traitsIcEEED1Ev to i8*), i8* bitcast (void (%"class.std::__1::basic_filebuf"*)* @_ZNSt3__113basic_filebufIcNS_11char_traitsIcEEED0Ev to i8*), i8* bitcast (void (%"class.std::__1::basic_filebuf"*, %"class.std::__1::locale"*)* @_ZNSt3__113basic_filebufIcNS_11char_traitsIcEEE5imbueERKNS_6localeE to i8*), i8* bitcast (%"class.std::__1::basic_streambuf"* (%"class.std::__1::basic_filebuf"*, i8*, i64)* @_ZNSt3__113basic_filebufIcNS_11char_traitsIcEEE6setbufEPcl to i8*), i8* bitcast (void (%"class.std::__1::fpos"*, %"class.std::__1::basic_filebuf"*, i64, i32, i32)* @_ZNSt3__113basic_filebufIcNS_11char_traitsIcEEE7seekoffExNS_8ios_base7seekdirEj to i8*), i8* bitcast (void (%"class.std::__1::fpos"*, %"class.std::__1::basic_filebuf"*, %"class.std::__1::fpos"*, i32)* @_ZNSt3__113basic_filebufIcNS_11char_traitsIcEEE7seekposENS_4fposI11__mbstate_tEEj to i8*), i8* bitcast (i32 (%"class.std::__1::basic_filebuf"*)* @_ZNSt3__113basic_filebufIcNS_11char_traitsIcEEE4syncEv to i8*), i8* bitcast (i64 (%"class.std::__1::basic_streambuf"*)* @_ZNSt3__115basic_streambufIcNS_11char_traitsIcEEE9showmanycEv to i8*), i8* bitcast (i64 (%"class.std::__1::basic_streambuf"*, i8*, i64)* @_ZNSt3__115basic_streambufIcNS_11char_traitsIcEEE6xsgetnEPcl to i8*), i8* bitcast (i32 (%"class.std::__1::basic_filebuf"*)* @_ZNSt3__113basic_filebufIcNS_11char_traitsIcEEE9underflowEv to i8*), i8* bitcast (i32 (%"class.std::__1::basic_streambuf"*)* @_ZNSt3__115basic_streambufIcNS_11char_traitsIcEEE5uflowEv to i8*), i8* bitcast (i32 (%"class.std::__1::basic_filebuf"*, i32)* @_ZNSt3__113basic_filebufIcNS_11char_traitsIcEEE9pbackfailEi to i8*), i8* bitcast (i64 (%"class.std::__1::basic_streambuf"*, i8*, i64)* @_ZNSt3__115basic_streambufIcNS_11char_traitsIcEEE6xsputnEPKcl to i8*), i8* bitcast (i32 (%"class.std::__1::basic_filebuf"*, i32)* @_ZNSt3__113basic_filebufIcNS_11char_traitsIcEEE8overflowEi to i8*)] }, align 8
@_ZTINSt3__113basic_filebufIcNS_11char_traitsIcEEEE = linkonce_odr constant { i8*, i8*, i8* } { i8* bitcast (i8** getelementptr inbounds (i8*, i8** @_ZTVN10__cxxabiv120__si_class_type_infoE, i64 2) to i8*), i8* getelementptr inbounds ([47 x i8], [47 x i8]* @_ZTSNSt3__113basic_filebufIcNS_11char_traitsIcEEEE, i32 0, i32 0), i8* bitcast (i8** @_ZTINSt3__115basic_streambufIcNS_11char_traitsIcEEEE to i8*) }
@_ZNSt3__17codecvtIcc11__mbstate_tE2idE = external global %"class.std::__1::locale::id", align 8
@_ZTVN10__cxxabiv120__si_class_type_infoE = external global i8*
@_ZTSNSt3__113basic_filebufIcNS_11char_traitsIcEEEE = linkonce_odr constant [47 x i8] c"NSt3__113basic_filebufIcNS_11char_traitsIcEEEE\00"
@_ZTINSt3__115basic_streambufIcNS_11char_traitsIcEEEE = external constant i8*
@.str.7 = private unnamed_addr constant [11 x i8] c"// ac_end.\00", align 1
@.str.1.8 = private unnamed_addr constant [2 x i8] c"w\00", align 1
@.str.2.9 = private unnamed_addr constant [2 x i8] c"a\00", align 1
@.str.3.10 = private unnamed_addr constant [2 x i8] c"r\00", align 1
@.str.4.11 = private unnamed_addr constant [3 x i8] c"r+\00", align 1
@.str.5.12 = private unnamed_addr constant [3 x i8] c"w+\00", align 1
@.str.6.13 = private unnamed_addr constant [3 x i8] c"a+\00", align 1
@.str.7.14 = private unnamed_addr constant [3 x i8] c"wb\00", align 1
@.str.8 = private unnamed_addr constant [3 x i8] c"ab\00", align 1
@.str.9 = private unnamed_addr constant [3 x i8] c"rb\00", align 1
@.str.10 = private unnamed_addr constant [4 x i8] c"r+b\00", align 1
@.str.11 = private unnamed_addr constant [4 x i8] c"w+b\00", align 1
@.str.12 = private unnamed_addr constant [4 x i8] c"a+b\00", align 1
@_ZTCNSt3__114basic_ifstreamIcNS_11char_traitsIcEEEE0_NS_13basic_istreamIcS2_EE = linkonce_odr unnamed_addr constant { [5 x i8*], [5 x i8*] } { [5 x i8*] [i8* inttoptr (i64 424 to i8*), i8* null, i8* bitcast (i8** @_ZTINSt3__113basic_istreamIcNS_11char_traitsIcEEEE to i8*), i8* bitcast (void (%"class.std::__1::basic_istream"*)* @_ZNSt3__113basic_istreamIcNS_11char_traitsIcEEED1Ev to i8*), i8* bitcast (void (%"class.std::__1::basic_istream"*)* @_ZNSt3__113basic_istreamIcNS_11char_traitsIcEEED0Ev to i8*)], [5 x i8*] [i8* inttoptr (i64 -424 to i8*), i8* inttoptr (i64 -424 to i8*), i8* bitcast (i8** @_ZTINSt3__113basic_istreamIcNS_11char_traitsIcEEEE to i8*), i8* bitcast (void (%"class.std::__1::basic_istream"*)* @_ZTv0_n24_NSt3__113basic_istreamIcNS_11char_traitsIcEEED1Ev to i8*), i8* bitcast (void (%"class.std::__1::basic_istream"*)* @_ZTv0_n24_NSt3__113basic_istreamIcNS_11char_traitsIcEEED0Ev to i8*)] }
@_ZTINSt3__113basic_istreamIcNS_11char_traitsIcEEEE = external constant i8*
@_ZTINSt3__114basic_ifstreamIcNS_11char_traitsIcEEEE = linkonce_odr constant { i8*, i8*, i8* } { i8* bitcast (i8** getelementptr inbounds (i8*, i8** @_ZTVN10__cxxabiv120__si_class_type_infoE, i64 2) to i8*), i8* getelementptr inbounds ([48 x i8], [48 x i8]* @_ZTSNSt3__114basic_ifstreamIcNS_11char_traitsIcEEEE, i32 0, i32 0), i8* bitcast (i8** @_ZTINSt3__113basic_istreamIcNS_11char_traitsIcEEEE to i8*) }
@_ZTSNSt3__114basic_ifstreamIcNS_11char_traitsIcEEEE = linkonce_odr constant [48 x i8] c"NSt3__114basic_ifstreamIcNS_11char_traitsIcEEEE\00"
@_ZN14altered_carbon2js10ACLexToken11TOKEN_NAMESE = global [258 x i8*] [i8* getelementptr inbounds ([8 x i8], [8 x i8]* @.str.15, i32 0, i32 0), i8* getelementptr inbounds ([4 x i8], [4 x i8]* @.str.1.16, i32 0, i32 0), i8* getelementptr inbounds ([11 x i8], [11 x i8]* @.str.2.17, i32 0, i32 0), i8* getelementptr inbounds ([8 x i8], [8 x i8]* @.str.3.18, i32 0, i32 0), i8* getelementptr inbounds ([8 x i8], [8 x i8]* @.str.4.19, i32 0, i32 0), i8* getelementptr inbounds ([11 x i8], [11 x i8]* @.str.5.20, i32 0, i32 0), i8* getelementptr inbounds ([7 x i8], [7 x i8]* @.str.6.21, i32 0, i32 0), i8* getelementptr inbounds ([6 x i8], [6 x i8]* @.str.7.22, i32 0, i32 0), i8* getelementptr inbounds ([9 x i8], [9 x i8]* @.str.8.23, i32 0, i32 0), i8* getelementptr inbounds ([2 x i8], [2 x i8]* @.str.9.24, i32 0, i32 0), i8* getelementptr inbounds ([5 x i8], [5 x i8]* @.str.10.25, i32 0, i32 0), i8* getelementptr inbounds ([4 x i8], [4 x i8]* @.str.11.26, i32 0, i32 0), i8* getelementptr inbounds ([5 x i8], [5 x i8]* @.str.12.27, i32 0, i32 0), i8* getelementptr inbounds ([6 x i8], [6 x i8]* @.str.13, i32 0, i32 0), i8* getelementptr inbounds ([10 x i8], [10 x i8]* @.str.14, i32 0, i32 0), i8* getelementptr inbounds ([9 x i8], [9 x i8]* @.str.15.28, i32 0, i32 0), i8* getelementptr inbounds ([12 x i8], [12 x i8]* @.str.16, i32 0, i32 0), i8* getelementptr inbounds ([11 x i8], [11 x i8]* @.str.17, i32 0, i32 0), i8* getelementptr inbounds ([19 x i8], [19 x i8]* @.str.18, i32 0, i32 0), i8* getelementptr inbounds ([20 x i8], [20 x i8]* @.str.19, i32 0, i32 0), i8* getelementptr inbounds ([20 x i8], [20 x i8]* @.str.20, i32 0, i32 0), i8* getelementptr inbounds ([21 x i8], [21 x i8]* @.str.21, i32 0, i32 0), i8* getelementptr inbounds ([10 x i8], [10 x i8]* @.str.22, i32 0, i32 0), i8* getelementptr inbounds ([2 x i8], [2 x i8]* @.str.9.24, i32 0, i32 0), i8* getelementptr inbounds ([2 x i8], [2 x i8]* @.str.9.24, i32 0, i32 0), i8* getelementptr inbounds ([2 x i8], [2 x i8]* @.str.9.24, i32 0, i32 0), i8* getelementptr inbounds ([2 x i8], [2 x i8]* @.str.9.24, i32 0, i32 0), i8* getelementptr inbounds ([2 x i8], [2 x i8]* @.str.9.24, i32 0, i32 0), i8* getelementptr inbounds ([2 x i8], [2 x i8]* @.str.9.24, i32 0, i32 0), i8* getelementptr inbounds ([2 x i8], [2 x i8]* @.str.9.24, i32 0, i32 0), i8* getelementptr inbounds ([2 x i8], [2 x i8]* @.str.9.24, i32 0, i32 0), i8* getelementptr inbounds ([2 x i8], [2 x i8]* @.str.9.24, i32 0, i32 0), i8* getelementptr inbounds ([2 x i8], [2 x i8]* @.str.9.24, i32 0, i32 0), i8* getelementptr inbounds ([2 x i8], [2 x i8]* @.str.9.24, i32 0, i32 0), i8* getelementptr inbounds ([2 x i8], [2 x i8]* @.str.9.24, i32 0, i32 0), i8* getelementptr inbounds ([2 x i8], [2 x i8]* @.str.9.24, i32 0, i32 0), i8* getelementptr inbounds ([2 x i8], [2 x i8]* @.str.9.24, i32 0, i32 0), i8* getelementptr inbounds ([2 x i8], [2 x i8]* @.str.9.24, i32 0, i32 0), i8* getelementptr inbounds ([2 x i8], [2 x i8]* @.str.9.24, i32 0, i32 0), i8* getelementptr inbounds ([2 x i8], [2 x i8]* @.str.9.24, i32 0, i32 0), i8* getelementptr inbounds ([2 x i8], [2 x i8]* @.str.9.24, i32 0, i32 0), i8* getelementptr inbounds ([2 x i8], [2 x i8]* @.str.9.24, i32 0, i32 0), i8* getelementptr inbounds ([2 x i8], [2 x i8]* @.str.9.24, i32 0, i32 0), i8* getelementptr inbounds ([2 x i8], [2 x i8]* @.str.9.24, i32 0, i32 0), i8* getelementptr inbounds ([2 x i8], [2 x i8]* @.str.9.24, i32 0, i32 0), i8* getelementptr inbounds ([2 x i8], [2 x i8]* @.str.9.24, i32 0, i32 0), i8* getelementptr inbounds ([2 x i8], [2 x i8]* @.str.9.24, i32 0, i32 0), i8* getelementptr inbounds ([2 x i8], [2 x i8]* @.str.9.24, i32 0, i32 0), i8* getelementptr inbounds ([2 x i8], [2 x i8]* @.str.9.24, i32 0, i32 0), i8* getelementptr inbounds ([2 x i8], [2 x i8]* @.str.9.24, i32 0, i32 0), i8* getelementptr inbounds ([2 x i8], [2 x i8]* @.str.9.24, i32 0, i32 0), i8* getelementptr inbounds ([2 x i8], [2 x i8]* @.str.9.24, i32 0, i32 0), i8* getelementptr inbounds ([2 x i8], [2 x i8]* @.str.9.24, i32 0, i32 0), i8* getelementptr inbounds ([2 x i8], [2 x i8]* @.str.9.24, i32 0, i32 0), i8* getelementptr inbounds ([2 x i8], [2 x i8]* @.str.9.24, i32 0, i32 0), i8* getelementptr inbounds ([2 x i8], [2 x i8]* @.str.9.24, i32 0, i32 0), i8* getelementptr inbounds ([2 x i8], [2 x i8]* @.str.9.24, i32 0, i32 0), i8* getelementptr inbounds ([2 x i8], [2 x i8]* @.str.9.24, i32 0, i32 0), i8* getelementptr inbounds ([2 x i8], [2 x i8]* @.str.9.24, i32 0, i32 0), i8* getelementptr inbounds ([2 x i8], [2 x i8]* @.str.9.24, i32 0, i32 0), i8* getelementptr inbounds ([2 x i8], [2 x i8]* @.str.9.24, i32 0, i32 0), i8* getelementptr inbounds ([2 x i8], [2 x i8]* @.str.9.24, i32 0, i32 0), i8* getelementptr inbounds ([2 x i8], [2 x i8]* @.str.9.24, i32 0, i32 0), i8* getelementptr inbounds ([2 x i8], [2 x i8]* @.str.9.24, i32 0, i32 0), i8* getelementptr inbounds ([2 x i8], [2 x i8]* @.str.9.24, i32 0, i32 0), i8* getelementptr inbounds ([2 x i8], [2 x i8]* @.str.9.24, i32 0, i32 0), i8* getelementptr inbounds ([2 x i8], [2 x i8]* @.str.9.24, i32 0, i32 0), i8* getelementptr inbounds ([2 x i8], [2 x i8]* @.str.9.24, i32 0, i32 0), i8* getelementptr inbounds ([2 x i8], [2 x i8]* @.str.9.24, i32 0, i32 0), i8* getelementptr inbounds ([2 x i8], [2 x i8]* @.str.9.24, i32 0, i32 0), i8* getelementptr inbounds ([2 x i8], [2 x i8]* @.str.9.24, i32 0, i32 0), i8* getelementptr inbounds ([2 x i8], [2 x i8]* @.str.9.24, i32 0, i32 0), i8* getelementptr inbounds ([2 x i8], [2 x i8]* @.str.9.24, i32 0, i32 0), i8* getelementptr inbounds ([2 x i8], [2 x i8]* @.str.9.24, i32 0, i32 0), i8* getelementptr inbounds ([2 x i8], [2 x i8]* @.str.9.24, i32 0, i32 0), i8* getelementptr inbounds ([2 x i8], [2 x i8]* @.str.9.24, i32 0, i32 0), i8* getelementptr inbounds ([2 x i8], [2 x i8]* @.str.9.24, i32 0, i32 0), i8* getelementptr inbounds ([2 x i8], [2 x i8]* @.str.9.24, i32 0, i32 0), i8* getelementptr inbounds ([2 x i8], [2 x i8]* @.str.9.24, i32 0, i32 0), i8* getelementptr inbounds ([2 x i8], [2 x i8]* @.str.9.24, i32 0, i32 0), i8* getelementptr inbounds ([2 x i8], [2 x i8]* @.str.9.24, i32 0, i32 0), i8* getelementptr inbounds ([2 x i8], [2 x i8]* @.str.9.24, i32 0, i32 0), i8* getelementptr inbounds ([2 x i8], [2 x i8]* @.str.9.24, i32 0, i32 0), i8* getelementptr inbounds ([2 x i8], [2 x i8]* @.str.9.24, i32 0, i32 0), i8* getelementptr inbounds ([2 x i8], [2 x i8]* @.str.9.24, i32 0, i32 0), i8* getelementptr inbounds ([2 x i8], [2 x i8]* @.str.9.24, i32 0, i32 0), i8* getelementptr inbounds ([2 x i8], [2 x i8]* @.str.9.24, i32 0, i32 0), i8* getelementptr inbounds ([2 x i8], [2 x i8]* @.str.9.24, i32 0, i32 0), i8* getelementptr inbounds ([2 x i8], [2 x i8]* @.str.9.24, i32 0, i32 0), i8* getelementptr inbounds ([2 x i8], [2 x i8]* @.str.9.24, i32 0, i32 0), i8* getelementptr inbounds ([2 x i8], [2 x i8]* @.str.9.24, i32 0, i32 0), i8* getelementptr inbounds ([2 x i8], [2 x i8]* @.str.9.24, i32 0, i32 0), i8* getelementptr inbounds ([2 x i8], [2 x i8]* @.str.9.24, i32 0, i32 0), i8* getelementptr inbounds ([2 x i8], [2 x i8]* @.str.9.24, i32 0, i32 0), i8* getelementptr inbounds ([2 x i8], [2 x i8]* @.str.9.24, i32 0, i32 0), i8* getelementptr inbounds ([2 x i8], [2 x i8]* @.str.9.24, i32 0, i32 0), i8* getelementptr inbounds ([2 x i8], [2 x i8]* @.str.9.24, i32 0, i32 0), i8* getelementptr inbounds ([2 x i8], [2 x i8]* @.str.9.24, i32 0, i32 0), i8* getelementptr inbounds ([2 x i8], [2 x i8]* @.str.9.24, i32 0, i32 0), i8* getelementptr inbounds ([2 x i8], [2 x i8]* @.str.9.24, i32 0, i32 0), i8* getelementptr inbounds ([12 x i8], [12 x i8]* @.str.23, i32 0, i32 0), i8* getelementptr inbounds ([12 x i8], [12 x i8]* @.str.24, i32 0, i32 0), i8* getelementptr inbounds ([13 x i8], [13 x i8]* @.str.25, i32 0, i32 0), i8* getelementptr inbounds ([10 x i8], [10 x i8]* @.str.26, i32 0, i32 0), i8* getelementptr inbounds ([11 x i8], [11 x i8]* @.str.27, i32 0, i32 0), i8* getelementptr inbounds ([11 x i8], [11 x i8]* @.str.28, i32 0, i32 0), i8* getelementptr inbounds ([12 x i8], [12 x i8]* @.str.29, i32 0, i32 0), i8* getelementptr inbounds ([16 x i8], [16 x i8]* @.str.30, i32 0, i32 0), i8* getelementptr inbounds ([14 x i8], [14 x i8]* @.str.31, i32 0, i32 0), i8* getelementptr inbounds ([18 x i8], [18 x i8]* @.str.32, i32 0, i32 0), i8* getelementptr inbounds ([6 x i8], [6 x i8]* @.str.33, i32 0, i32 0), i8* getelementptr inbounds ([6 x i8], [6 x i8]* @.str.34, i32 0, i32 0), i8* getelementptr inbounds ([8 x i8], [8 x i8]* @.str.35, i32 0, i32 0), i8* getelementptr inbounds ([8 x i8], [8 x i8]* @.str.36, i32 0, i32 0), i8* getelementptr inbounds ([12 x i8], [12 x i8]* @.str.37, i32 0, i32 0), i8* getelementptr inbounds ([3 x i8], [3 x i8]* @.str.38, i32 0, i32 0), i8* getelementptr inbounds ([16 x i8], [16 x i8]* @.str.39, i32 0, i32 0), i8* getelementptr inbounds ([16 x i8], [16 x i8]* @.str.40, i32 0, i32 0), i8* getelementptr inbounds ([18 x i8], [18 x i8]* @.str.41, i32 0, i32 0), i8* getelementptr inbounds ([8 x i8], [8 x i8]* @.str.42, i32 0, i32 0), i8* getelementptr inbounds ([9 x i8], [9 x i8]* @.str.43, i32 0, i32 0), i8* getelementptr inbounds ([12 x i8], [12 x i8]* @.str.44, i32 0, i32 0), i8* getelementptr inbounds ([10 x i8], [10 x i8]* @.str.45, i32 0, i32 0), i8* getelementptr inbounds ([7 x i8], [7 x i8]* @.str.46, i32 0, i32 0), i8* getelementptr inbounds ([7 x i8], [7 x i8]* @.str.47, i32 0, i32 0), i8* getelementptr inbounds ([9 x i8], [9 x i8]* @.str.48, i32 0, i32 0), i8* getelementptr inbounds ([17 x i8], [17 x i8]* @.str.49, i32 0, i32 0), i8* getelementptr inbounds ([9 x i8], [9 x i8]* @.str.50, i32 0, i32 0), i8* getelementptr inbounds ([9 x i8], [9 x i8]* @.str.51, i32 0, i32 0), i8* getelementptr inbounds ([14 x i8], [14 x i8]* @.str.52, i32 0, i32 0), i8* getelementptr inbounds ([15 x i8], [15 x i8]* @.str.53, i32 0, i32 0), i8* getelementptr inbounds ([11 x i8], [11 x i8]* @.str.54, i32 0, i32 0), i8* getelementptr inbounds ([12 x i8], [12 x i8]* @.str.55, i32 0, i32 0), i8* getelementptr inbounds ([2 x i8], [2 x i8]* @.str.9.24, i32 0, i32 0), i8* getelementptr inbounds ([2 x i8], [2 x i8]* @.str.9.24, i32 0, i32 0), i8* getelementptr inbounds ([2 x i8], [2 x i8]* @.str.9.24, i32 0, i32 0), i8* getelementptr inbounds ([2 x i8], [2 x i8]* @.str.9.24, i32 0, i32 0), i8* getelementptr inbounds ([2 x i8], [2 x i8]* @.str.9.24, i32 0, i32 0), i8* getelementptr inbounds ([2 x i8], [2 x i8]* @.str.9.24, i32 0, i32 0), i8* getelementptr inbounds ([2 x i8], [2 x i8]* @.str.9.24, i32 0, i32 0), i8* getelementptr inbounds ([16 x i8], [16 x i8]* @.str.56, i32 0, i32 0), i8* getelementptr inbounds ([16 x i8], [16 x i8]* @.str.57, i32 0, i32 0), i8* getelementptr inbounds ([17 x i8], [17 x i8]* @.str.58, i32 0, i32 0), i8* getelementptr inbounds ([20 x i8], [20 x i8]* @.str.59, i32 0, i32 0), i8* getelementptr inbounds ([18 x i8], [18 x i8]* @.str.60, i32 0, i32 0), i8* getelementptr inbounds ([15 x i8], [15 x i8]* @.str.61, i32 0, i32 0), i8* getelementptr inbounds ([23 x i8], [23 x i8]* @.str.62, i32 0, i32 0), i8* getelementptr inbounds ([24 x i8], [24 x i8]* @.str.63, i32 0, i32 0), i8* getelementptr inbounds ([26 x i8], [26 x i8]* @.str.64, i32 0, i32 0), i8* getelementptr inbounds ([19 x i8], [19 x i8]* @.str.65, i32 0, i32 0), i8* getelementptr inbounds ([18 x i8], [18 x i8]* @.str.66, i32 0, i32 0), i8* getelementptr inbounds ([19 x i8], [19 x i8]* @.str.67, i32 0, i32 0), i8* getelementptr inbounds ([15 x i8], [15 x i8]* @.str.68, i32 0, i32 0), i8* getelementptr inbounds ([2 x i8], [2 x i8]* @.str.9.24, i32 0, i32 0), i8* getelementptr inbounds ([2 x i8], [2 x i8]* @.str.9.24, i32 0, i32 0), i8* getelementptr inbounds ([2 x i8], [2 x i8]* @.str.9.24, i32 0, i32 0), i8* getelementptr inbounds ([2 x i8], [2 x i8]* @.str.9.24, i32 0, i32 0), i8* getelementptr inbounds ([2 x i8], [2 x i8]* @.str.9.24, i32 0, i32 0), i8* getelementptr inbounds ([2 x i8], [2 x i8]* @.str.9.24, i32 0, i32 0), i8* getelementptr inbounds ([2 x i8], [2 x i8]* @.str.9.24, i32 0, i32 0), i8* getelementptr inbounds ([2 x i8], [2 x i8]* @.str.9.24, i32 0, i32 0), i8* getelementptr inbounds ([2 x i8], [2 x i8]* @.str.9.24, i32 0, i32 0), i8* getelementptr inbounds ([2 x i8], [2 x i8]* @.str.9.24, i32 0, i32 0), i8* getelementptr inbounds ([2 x i8], [2 x i8]* @.str.9.24, i32 0, i32 0), i8* getelementptr inbounds ([2 x i8], [2 x i8]* @.str.9.24, i32 0, i32 0), i8* getelementptr inbounds ([2 x i8], [2 x i8]* @.str.9.24, i32 0, i32 0), i8* getelementptr inbounds ([2 x i8], [2 x i8]* @.str.9.24, i32 0, i32 0), i8* getelementptr inbounds ([2 x i8], [2 x i8]* @.str.9.24, i32 0, i32 0), i8* getelementptr inbounds ([2 x i8], [2 x i8]* @.str.9.24, i32 0, i32 0), i8* getelementptr inbounds ([2 x i8], [2 x i8]* @.str.9.24, i32 0, i32 0), i8* getelementptr inbounds ([2 x i8], [2 x i8]* @.str.9.24, i32 0, i32 0), i8* getelementptr inbounds ([2 x i8], [2 x i8]* @.str.9.24, i32 0, i32 0), i8* getelementptr inbounds ([2 x i8], [2 x i8]* @.str.9.24, i32 0, i32 0), i8* getelementptr inbounds ([2 x i8], [2 x i8]* @.str.9.24, i32 0, i32 0), i8* getelementptr inbounds ([2 x i8], [2 x i8]* @.str.9.24, i32 0, i32 0), i8* getelementptr inbounds ([2 x i8], [2 x i8]* @.str.9.24, i32 0, i32 0), i8* getelementptr inbounds ([2 x i8], [2 x i8]* @.str.9.24, i32 0, i32 0), i8* getelementptr inbounds ([2 x i8], [2 x i8]* @.str.9.24, i32 0, i32 0), i8* getelementptr inbounds ([2 x i8], [2 x i8]* @.str.9.24, i32 0, i32 0), i8* getelementptr inbounds ([2 x i8], [2 x i8]* @.str.9.24, i32 0, i32 0), i8* getelementptr inbounds ([2 x i8], [2 x i8]* @.str.9.24, i32 0, i32 0), i8* getelementptr inbounds ([2 x i8], [2 x i8]* @.str.9.24, i32 0, i32 0), i8* getelementptr inbounds ([2 x i8], [2 x i8]* @.str.9.24, i32 0, i32 0), i8* getelementptr inbounds ([2 x i8], [2 x i8]* @.str.9.24, i32 0, i32 0), i8* getelementptr inbounds ([2 x i8], [2 x i8]* @.str.9.24, i32 0, i32 0), i8* getelementptr inbounds ([2 x i8], [2 x i8]* @.str.9.24, i32 0, i32 0), i8* getelementptr inbounds ([2 x i8], [2 x i8]* @.str.9.24, i32 0, i32 0), i8* getelementptr inbounds ([2 x i8], [2 x i8]* @.str.9.24, i32 0, i32 0), i8* getelementptr inbounds ([2 x i8], [2 x i8]* @.str.9.24, i32 0, i32 0), i8* getelementptr inbounds ([2 x i8], [2 x i8]* @.str.9.24, i32 0, i32 0), i8* getelementptr inbounds ([2 x i8], [2 x i8]* @.str.9.24, i32 0, i32 0), i8* getelementptr inbounds ([2 x i8], [2 x i8]* @.str.9.24, i32 0, i32 0), i8* getelementptr inbounds ([2 x i8], [2 x i8]* @.str.9.24, i32 0, i32 0), i8* getelementptr inbounds ([2 x i8], [2 x i8]* @.str.9.24, i32 0, i32 0), i8* getelementptr inbounds ([2 x i8], [2 x i8]* @.str.9.24, i32 0, i32 0), i8* getelementptr inbounds ([2 x i8], [2 x i8]* @.str.9.24, i32 0, i32 0), i8* getelementptr inbounds ([2 x i8], [2 x i8]* @.str.9.24, i32 0, i32 0), i8* getelementptr inbounds ([2 x i8], [2 x i8]* @.str.9.24, i32 0, i32 0), i8* getelementptr inbounds ([2 x i8], [2 x i8]* @.str.9.24, i32 0, i32 0), i8* getelementptr inbounds ([2 x i8], [2 x i8]* @.str.9.24, i32 0, i32 0), i8* getelementptr inbounds ([9 x i8], [9 x i8]* @.str.69, i32 0, i32 0), i8* getelementptr inbounds ([8 x i8], [8 x i8]* @.str.70, i32 0, i32 0), i8* getelementptr inbounds ([6 x i8], [6 x i8]* @.str.71, i32 0, i32 0), i8* getelementptr inbounds ([5 x i8], [5 x i8]* @.str.72, i32 0, i32 0), i8* getelementptr inbounds ([5 x i8], [5 x i8]* @.str.73, i32 0, i32 0), i8* getelementptr inbounds ([6 x i8], [6 x i8]* @.str.74, i32 0, i32 0), i8* getelementptr inbounds ([5 x i8], [5 x i8]* @.str.75, i32 0, i32 0), i8* getelementptr inbounds ([6 x i8], [6 x i8]* @.str.76, i32 0, i32 0), i8* getelementptr inbounds ([6 x i8], [6 x i8]* @.str.77, i32 0, i32 0), i8* getelementptr inbounds ([9 x i8], [9 x i8]* @.str.78, i32 0, i32 0), i8* getelementptr inbounds ([9 x i8], [9 x i8]* @.str.79, i32 0, i32 0), i8* getelementptr inbounds ([8 x i8], [8 x i8]* @.str.80, i32 0, i32 0), i8* getelementptr inbounds ([7 x i8], [7 x i8]* @.str.81, i32 0, i32 0), i8* getelementptr inbounds ([3 x i8], [3 x i8]* @.str.82, i32 0, i32 0), i8* getelementptr inbounds ([7 x i8], [7 x i8]* @.str.83, i32 0, i32 0), i8* getelementptr inbounds ([5 x i8], [5 x i8]* @.str.84, i32 0, i32 0), i8* getelementptr inbounds ([5 x i8], [5 x i8]* @.str.85, i32 0, i32 0), i8* getelementptr inbounds ([7 x i8], [7 x i8]* @.str.86, i32 0, i32 0), i8* getelementptr inbounds ([8 x i8], [8 x i8]* @.str.87, i32 0, i32 0), i8* getelementptr inbounds ([6 x i8], [6 x i8]* @.str.88, i32 0, i32 0), i8* getelementptr inbounds ([8 x i8], [8 x i8]* @.str.89, i32 0, i32 0), i8* getelementptr inbounds ([6 x i8], [6 x i8]* @.str.90, i32 0, i32 0), i8* getelementptr inbounds ([4 x i8], [4 x i8]* @.str.91, i32 0, i32 0), i8* getelementptr inbounds ([9 x i8], [9 x i8]* @.str.92, i32 0, i32 0), i8* getelementptr inbounds ([5 x i8], [5 x i8]* @.str.93, i32 0, i32 0), i8* getelementptr inbounds ([3 x i8], [3 x i8]* @.str.94, i32 0, i32 0), i8* getelementptr inbounds ([11 x i8], [11 x i8]* @.str.95, i32 0, i32 0), i8* getelementptr inbounds ([7 x i8], [7 x i8]* @.str.96, i32 0, i32 0), i8* getelementptr inbounds ([3 x i8], [3 x i8]* @.str.97, i32 0, i32 0), i8* getelementptr inbounds ([11 x i8], [11 x i8]* @.str.98, i32 0, i32 0), i8* getelementptr inbounds ([4 x i8], [4 x i8]* @.str.99, i32 0, i32 0), i8* getelementptr inbounds ([10 x i8], [10 x i8]* @.str.100, i32 0, i32 0), i8* getelementptr inbounds ([4 x i8], [4 x i8]* @.str.101, i32 0, i32 0), i8* getelementptr inbounds ([5 x i8], [5 x i8]* @.str.102, i32 0, i32 0), i8* getelementptr inbounds ([7 x i8], [7 x i8]* @.str.103, i32 0, i32 0), i8* getelementptr inbounds ([4 x i8], [4 x i8]* @.str.104, i32 0, i32 0), i8* getelementptr inbounds ([8 x i8], [8 x i8]* @.str.105, i32 0, i32 0), i8* getelementptr inbounds ([8 x i8], [8 x i8]* @.str.106, i32 0, i32 0), i8* getelementptr inbounds ([10 x i8], [10 x i8]* @.str.107, i32 0, i32 0), i8* getelementptr inbounds ([7 x i8], [7 x i8]* @.str.108, i32 0, i32 0), i8* getelementptr inbounds ([7 x i8], [7 x i8]* @.str.109, i32 0, i32 0), i8* getelementptr inbounds ([6 x i8], [6 x i8]* @.str.110, i32 0, i32 0), i8* getelementptr inbounds ([7 x i8], [7 x i8]* @.str.111, i32 0, i32 0), i8* getelementptr inbounds ([6 x i8], [6 x i8]* @.str.112, i32 0, i32 0), i8* getelementptr inbounds ([7 x i8], [7 x i8]* @.str.113, i32 0, i32 0), i8* getelementptr inbounds ([13 x i8], [13 x i8]* @.str.114, i32 0, i32 0), i8* getelementptr inbounds ([5 x i8], [5 x i8]* @.str.115, i32 0, i32 0), i8* getelementptr inbounds ([6 x i8], [6 x i8]* @.str.116, i32 0, i32 0), i8* getelementptr inbounds ([7 x i8], [7 x i8]* @.str.117, i32 0, i32 0), i8* getelementptr inbounds ([10 x i8], [10 x i8]* @.str.118, i32 0, i32 0), i8* getelementptr inbounds ([4 x i8], [4 x i8]* @.str.119, i32 0, i32 0), i8* getelementptr inbounds ([7 x i8], [7 x i8]* @.str.120, i32 0, i32 0), i8* getelementptr inbounds ([4 x i8], [4 x i8]* @.str.121, i32 0, i32 0), i8* getelementptr inbounds ([5 x i8], [5 x i8]* @.str.122, i32 0, i32 0), i8* getelementptr inbounds ([9 x i8], [9 x i8]* @.str.123, i32 0, i32 0), i8* getelementptr inbounds ([6 x i8], [6 x i8]* @.str.124, i32 0, i32 0), i8* getelementptr inbounds ([5 x i8], [5 x i8]* @.str.125, i32 0, i32 0), i8* getelementptr inbounds ([6 x i8], [6 x i8]* @.str.126, i32 0, i32 0)], align 16
@.str.15 = private unnamed_addr constant [8 x i8] c"INVALID\00", align 1
@.str.1.16 = private unnamed_addr constant [4 x i8] c"EOF\00", align 1
@.str.2.17 = private unnamed_addr constant [11 x i8] c"IDENTIFIER\00", align 1
@.str.3.18 = private unnamed_addr constant [8 x i8] c"KEYWORD\00", align 1
@.str.4.19 = private unnamed_addr constant [8 x i8] c"NUMERIC\00", align 1
@.str.5.20 = private unnamed_addr constant [11 x i8] c"PUNCTUATOR\00", align 1
@.str.6.21 = private unnamed_addr constant [7 x i8] c"STRING\00", align 1
@.str.7.22 = private unnamed_addr constant [6 x i8] c"REGEX\00", align 1
@.str.8.23 = private unnamed_addr constant [9 x i8] c"TEMPLATE\00", align 1
@.str.9.24 = private unnamed_addr constant [2 x i8] c"?\00", align 1
@.str.10.25 = private unnamed_addr constant [5 x i8] c"NULL\00", align 1
@.str.11.26 = private unnamed_addr constant [4 x i8] c"NAN\00", align 1
@.str.12.27 = private unnamed_addr constant [5 x i8] c"TRUE\00", align 1
@.str.13 = private unnamed_addr constant [6 x i8] c"FALSE\00", align 1
@.str.14 = private unnamed_addr constant [10 x i8] c"UNDEFINED\00", align 1
@.str.15.28 = private unnamed_addr constant [9 x i8] c"INFINITY\00", align 1
@.str.16 = private unnamed_addr constant [12 x i8] c"PAREN_RIGHT\00", align 1
@.str.17 = private unnamed_addr constant [11 x i8] c"PAREN_LEFT\00", align 1
@.str.18 = private unnamed_addr constant [19 x i8] c"CURLY_BRACKET_LEFT\00", align 1
@.str.19 = private unnamed_addr constant [20 x i8] c"CURLY_BRACKET_RIGHT\00", align 1
@.str.20 = private unnamed_addr constant [20 x i8] c"SQUARE_BRACKET_LEFT\00", align 1
@.str.21 = private unnamed_addr constant [21 x i8] c"SQUARE_BRACKET_RIGHT\00", align 1
@.str.22 = private unnamed_addr constant [10 x i8] c"SEMICOLON\00", align 1
@.str.23 = private unnamed_addr constant [12 x i8] c"BOOL_NOT(!)\00", align 1
@.str.24 = private unnamed_addr constant [12 x i8] c"BOOL_OR(||)\00", align 1
@.str.25 = private unnamed_addr constant [13 x i8] c"BOOL_AND(&&)\00", align 1
@.str.26 = private unnamed_addr constant [10 x i8] c"BIT_OR(|)\00", align 1
@.str.27 = private unnamed_addr constant [11 x i8] c"BIT_XOR(^)\00", align 1
@.str.28 = private unnamed_addr constant [11 x i8] c"BIT_AND(&)\00", align 1
@.str.29 = private unnamed_addr constant [12 x i8] c"EQUAL_V(==)\00", align 1
@.str.30 = private unnamed_addr constant [16 x i8] c"NOT_EQUAL_V(!=)\00", align 1
@.str.31 = private unnamed_addr constant [14 x i8] c"EQUAL_VT(===)\00", align 1
@.str.32 = private unnamed_addr constant [18 x i8] c"NOT_EQUAL_VT(!==)\00", align 1
@.str.33 = private unnamed_addr constant [6 x i8] c"LT(<)\00", align 1
@.str.34 = private unnamed_addr constant [6 x i8] c"GT(>)\00", align 1
@.str.35 = private unnamed_addr constant [8 x i8] c"LTE(<=)\00", align 1
@.str.36 = private unnamed_addr constant [8 x i8] c"GTE(>=)\00", align 1
@.str.37 = private unnamed_addr constant [12 x i8] c"INSTANCE_OF\00", align 1
@.str.38 = private unnamed_addr constant [3 x i8] c"IN\00", align 1
@.str.39 = private unnamed_addr constant [16 x i8] c"BIT_SHIFT_L(<<)\00", align 1
@.str.40 = private unnamed_addr constant [16 x i8] c"BIT_SHIFT_R(>>)\00", align 1
@.str.41 = private unnamed_addr constant [18 x i8] c"BIT_SHIFT_RZ(>>>)\00", align 1
@.str.42 = private unnamed_addr constant [8 x i8] c"PLUS(+)\00", align 1
@.str.43 = private unnamed_addr constant [9 x i8] c"MINUS(-)\00", align 1
@.str.44 = private unnamed_addr constant [12 x i8] c"MULTIPLY(*)\00", align 1
@.str.45 = private unnamed_addr constant [10 x i8] c"DIVIDE(/)\00", align 1
@.str.46 = private unnamed_addr constant [7 x i8] c"MOD(%)\00", align 1
@.str.47 = private unnamed_addr constant [7 x i8] c"DOT(.)\00", align 1
@.str.48 = private unnamed_addr constant [9 x i8] c"COLON(:)\00", align 1
@.str.49 = private unnamed_addr constant [17 x i8] c"QUESTION_MARK(?)\00", align 1
@.str.50 = private unnamed_addr constant [9 x i8] c"TILDA(~)\00", align 1
@.str.51 = private unnamed_addr constant [9 x i8] c"COMMA(,)\00", align 1
@.str.52 = private unnamed_addr constant [14 x i8] c"SELF_PLUS(++)\00", align 1
@.str.53 = private unnamed_addr constant [15 x i8] c"SELF_MINUS(--)\00", align 1
@.str.54 = private unnamed_addr constant [11 x i8] c"LAMBDA(=>)\00", align 1
@.str.55 = private unnamed_addr constant [12 x i8] c"SPREAD(...)\00", align 1
@.str.56 = private unnamed_addr constant [16 x i8] c"ASSIGN_EQUAL(=)\00", align 1
@.str.57 = private unnamed_addr constant [16 x i8] c"ASSIGN_PLUS(+=)\00", align 1
@.str.58 = private unnamed_addr constant [17 x i8] c"ASSIGN_MINUS(-=)\00", align 1
@.str.59 = private unnamed_addr constant [20 x i8] c"ASSIGN_MULTIPLY(*=)\00", align 1
@.str.60 = private unnamed_addr constant [18 x i8] c"ASSIGN_DIVIDE(/=)\00", align 1
@.str.61 = private unnamed_addr constant [15 x i8] c"ASSIGN_MOD(%=)\00", align 1
@.str.62 = private unnamed_addr constant [23 x i8] c"ASSIGN_SHIFT_LEFT(<<=)\00", align 1
@.str.63 = private unnamed_addr constant [24 x i8] c"ASSIGN_SHIFT_RIGHT(>>=)\00", align 1
@.str.64 = private unnamed_addr constant [26 x i8] c"ASSIGN_SHIFT_RIGHTZ(>>>=)\00", align 1
@.str.65 = private unnamed_addr constant [19 x i8] c"ASSIGN_BIT_AND(&=)\00", align 1
@.str.66 = private unnamed_addr constant [18 x i8] c"ASSIGN_BIT_OR(|=)\00", align 1
@.str.67 = private unnamed_addr constant [19 x i8] c"ASSIGN_BIT_XOR(^=)\00", align 1
@.str.68 = private unnamed_addr constant [15 x i8] c"(ASSIGN_COMMA)\00", align 1
@.str.69 = private unnamed_addr constant [9 x i8] c"abstract\00", align 1
@.str.70 = private unnamed_addr constant [8 x i8] c"boolean\00", align 1
@.str.71 = private unnamed_addr constant [6 x i8] c"break\00", align 1
@.str.72 = private unnamed_addr constant [5 x i8] c"byte\00", align 1
@.str.73 = private unnamed_addr constant [5 x i8] c"case\00", align 1
@.str.74 = private unnamed_addr constant [6 x i8] c"catch\00", align 1
@.str.75 = private unnamed_addr constant [5 x i8] c"char\00", align 1
@.str.76 = private unnamed_addr constant [6 x i8] c"class\00", align 1
@.str.77 = private unnamed_addr constant [6 x i8] c"const\00", align 1
@.str.78 = private unnamed_addr constant [9 x i8] c"continue\00", align 1
@.str.79 = private unnamed_addr constant [9 x i8] c"debugger\00", align 1
@.str.80 = private unnamed_addr constant [8 x i8] c"default\00", align 1
@.str.81 = private unnamed_addr constant [7 x i8] c"delete\00", align 1
@.str.82 = private unnamed_addr constant [3 x i8] c"do\00", align 1
@.str.83 = private unnamed_addr constant [7 x i8] c"double\00", align 1
@.str.84 = private unnamed_addr constant [5 x i8] c"else\00", align 1
@.str.85 = private unnamed_addr constant [5 x i8] c"enum\00", align 1
@.str.86 = private unnamed_addr constant [7 x i8] c"export\00", align 1
@.str.87 = private unnamed_addr constant [8 x i8] c"extends\00", align 1
@.str.88 = private unnamed_addr constant [6 x i8] c"final\00", align 1
@.str.89 = private unnamed_addr constant [8 x i8] c"finally\00", align 1
@.str.90 = private unnamed_addr constant [6 x i8] c"float\00", align 1
@.str.91 = private unnamed_addr constant [4 x i8] c"for\00", align 1
@.str.92 = private unnamed_addr constant [9 x i8] c"function\00", align 1
@.str.93 = private unnamed_addr constant [5 x i8] c"goto\00", align 1
@.str.94 = private unnamed_addr constant [3 x i8] c"if\00", align 1
@.str.95 = private unnamed_addr constant [11 x i8] c"implements\00", align 1
@.str.96 = private unnamed_addr constant [7 x i8] c"import\00", align 1
@.str.97 = private unnamed_addr constant [3 x i8] c"in\00", align 1
@.str.98 = private unnamed_addr constant [11 x i8] c"instanceof\00", align 1
@.str.99 = private unnamed_addr constant [4 x i8] c"int\00", align 1
@.str.100 = private unnamed_addr constant [10 x i8] c"interface\00", align 1
@.str.101 = private unnamed_addr constant [4 x i8] c"let\00", align 1
@.str.102 = private unnamed_addr constant [5 x i8] c"long\00", align 1
@.str.103 = private unnamed_addr constant [7 x i8] c"native\00", align 1
@.str.104 = private unnamed_addr constant [4 x i8] c"new\00", align 1
@.str.105 = private unnamed_addr constant [8 x i8] c"package\00", align 1
@.str.106 = private unnamed_addr constant [8 x i8] c"private\00", align 1
@.str.107 = private unnamed_addr constant [10 x i8] c"projected\00", align 1
@.str.108 = private unnamed_addr constant [7 x i8] c"public\00", align 1
@.str.109 = private unnamed_addr constant [7 x i8] c"return\00", align 1
@.str.110 = private unnamed_addr constant [6 x i8] c"short\00", align 1
@.str.111 = private unnamed_addr constant [7 x i8] c"static\00", align 1
@.str.112 = private unnamed_addr constant [6 x i8] c"super\00", align 1
@.str.113 = private unnamed_addr constant [7 x i8] c"switch\00", align 1
@.str.114 = private unnamed_addr constant [13 x i8] c"synchronized\00", align 1
@.str.115 = private unnamed_addr constant [5 x i8] c"this\00", align 1
@.str.116 = private unnamed_addr constant [6 x i8] c"throw\00", align 1
@.str.117 = private unnamed_addr constant [7 x i8] c"throws\00", align 1
@.str.118 = private unnamed_addr constant [10 x i8] c"transient\00", align 1
@.str.119 = private unnamed_addr constant [4 x i8] c"try\00", align 1
@.str.120 = private unnamed_addr constant [7 x i8] c"typeof\00", align 1
@.str.121 = private unnamed_addr constant [4 x i8] c"var\00", align 1
@.str.122 = private unnamed_addr constant [5 x i8] c"void\00", align 1
@.str.123 = private unnamed_addr constant [9 x i8] c"volatile\00", align 1
@.str.124 = private unnamed_addr constant [6 x i8] c"while\00", align 1
@.str.125 = private unnamed_addr constant [5 x i8] c"with\00", align 1
@.str.126 = private unnamed_addr constant [6 x i8] c"yield\00", align 1
@_ZTVN14altered_carbon2js10ACLexTokenE = unnamed_addr constant { [7 x i8*] } { [7 x i8*] [i8* null, i8* bitcast ({ i8*, i8* }* @_ZTIN14altered_carbon2js10ACLexTokenE to i8*), i8* bitcast (void (%"class.altered_carbon::js::ACLexToken"*, %"class.std::__1::basic_ostream"*)* @_ZNK14altered_carbon2js10ACLexToken4dumpERNSt3__113basic_ostreamIcNS2_11char_traitsIcEEEE to i8*), i8* bitcast (void (%"class.altered_carbon::js::ACLexToken"*)* @_ZN14altered_carbon2js10ACLexTokenD1Ev to i8*), i8* bitcast (void (%"class.altered_carbon::js::ACLexToken"*)* @_ZN14altered_carbon2js10ACLexTokenD0Ev to i8*), i8* bitcast (void (%"class.altered_carbon::js::ACLexNumber"*, %"class.altered_carbon::js::ACLexToken"*)* @_ZNK14altered_carbon2js10ACLexToken11numberValueEv to i8*), i8* bitcast (void (%"class.std::__1::unique_ptr.46"*, %"class.altered_carbon::js::ACLexToken"*)* @_ZN14altered_carbon2js10ACLexToken10regexValueEv to i8*)] }, align 8
@_ZTIN14altered_carbon2js10ACLexTokenE = constant { i8*, i8* } { i8* bitcast (i8** getelementptr inbounds (i8*, i8** @_ZTVN10__cxxabiv117__class_type_infoE, i64 2) to i8*), i8* getelementptr inbounds ([34 x i8], [34 x i8]* @_ZTSN14altered_carbon2js10ACLexTokenE, i32 0, i32 0) }
@.str.128 = private unnamed_addr constant [7 x i8] c"{Type(\00", align 1
@.str.129 = private unnamed_addr constant [3 x i8] c")=\00", align 1
@.str.130 = private unnamed_addr constant [7 x i8] c", Pos=\00", align 1
@.str.131 = private unnamed_addr constant [7 x i8] c", len=\00", align 1
@.str.132 = private unnamed_addr constant [4 x i8] c", `\00", align 1
@.str.133 = private unnamed_addr constant [2 x i8] c"'\00", align 1
@.str.134 = private unnamed_addr constant [14 x i8] c"(unicode len=\00", align 1
@.str.135 = private unnamed_addr constant [2 x i8] c"[\00", align 1
@.str.136 = private unnamed_addr constant [2 x i8] c"]\00", align 1
@.str.137 = private unnamed_addr constant [3 x i8] c")}\00", align 1
@.str.138 = private unnamed_addr constant [7 x i8] c"{Line=\00", align 1
@.str.139 = private unnamed_addr constant [7 x i8] c", Col=\00", align 1
@.str.140 = private unnamed_addr constant [10 x i8] c", AbsPos=\00", align 1
@.str.141 = private unnamed_addr constant [11 x i8] c", LinePos=\00", align 1
@.str.142 = private unnamed_addr constant [2 x i8] c"}\00", align 1
@_ZTSN14altered_carbon2js10ACLexTokenE = constant [34 x i8] c"N14altered_carbon2js10ACLexTokenE\00"
@_ZTVN14altered_carbon2js16ACLexNumberTokenE = unnamed_addr constant { [7 x i8*] } { [7 x i8*] [i8* null, i8* bitcast ({ i8*, i8*, i8* }* @_ZTIN14altered_carbon2js16ACLexNumberTokenE to i8*), i8* bitcast (void (%"class.altered_carbon::js::ACLexNumberToken"*, %"class.std::__1::basic_ostream"*)* @_ZNK14altered_carbon2js16ACLexNumberToken4dumpERNSt3__113basic_ostreamIcNS2_11char_traitsIcEEEE to i8*), i8* bitcast (void (%"class.altered_carbon::js::ACLexNumberToken"*)* @_ZN14altered_carbon2js16ACLexNumberTokenD1Ev to i8*), i8* bitcast (void (%"class.altered_carbon::js::ACLexNumberToken"*)* @_ZN14altered_carbon2js16ACLexNumberTokenD0Ev to i8*), i8* bitcast (void (%"class.altered_carbon::js::ACLexNumber"*, %"class.altered_carbon::js::ACLexNumberToken"*)* @_ZNK14altered_carbon2js16ACLexNumberToken11numberValueEv to i8*), i8* bitcast (void (%"class.std::__1::unique_ptr.46"*, %"class.altered_carbon::js::ACLexToken"*)* @_ZN14altered_carbon2js10ACLexToken10regexValueEv to i8*)] }, align 8
@_ZTIN14altered_carbon2js16ACLexNumberTokenE = constant { i8*, i8*, i8* } { i8* bitcast (i8** getelementptr inbounds (i8*, i8** @_ZTVN10__cxxabiv120__si_class_type_infoE, i64 2) to i8*), i8* getelementptr inbounds ([40 x i8], [40 x i8]* @_ZTSN14altered_carbon2js16ACLexNumberTokenE, i32 0, i32 0), i8* bitcast ({ i8*, i8* }* @_ZTIN14altered_carbon2js10ACLexTokenE to i8*) }
@.str.143 = private unnamed_addr constant [16 x i8] c"(numeric value=\00", align 1
@.str.144 = private unnamed_addr constant [8 x i8] c" [Base=\00", align 1
@_ZTSN14altered_carbon2js16ACLexNumberTokenE = constant [40 x i8] c"N14altered_carbon2js16ACLexNumberTokenE\00"
@_ZTVN14altered_carbon2js15ACLexRegexTokenE = unnamed_addr constant { [7 x i8*] } { [7 x i8*] [i8* null, i8* bitcast ({ i8*, i8*, i8* }* @_ZTIN14altered_carbon2js15ACLexRegexTokenE to i8*), i8* bitcast (void (%"class.altered_carbon::js::ACLexRegexToken"*, %"class.std::__1::basic_ostream"*)* @_ZNK14altered_carbon2js15ACLexRegexToken4dumpERNSt3__113basic_ostreamIcNS2_11char_traitsIcEEEE to i8*), i8* bitcast (void (%"class.altered_carbon::js::ACLexRegexToken"*)* @_ZN14altered_carbon2js15ACLexRegexTokenD1Ev to i8*), i8* bitcast (void (%"class.altered_carbon::js::ACLexRegexToken"*)* @_ZN14altered_carbon2js15ACLexRegexTokenD0Ev to i8*), i8* bitcast (void (%"class.altered_carbon::js::ACLexNumber"*, %"class.altered_carbon::js::ACLexToken"*)* @_ZNK14altered_carbon2js10ACLexToken11numberValueEv to i8*), i8* bitcast (void (%"class.std::__1::unique_ptr.46"*, %"class.altered_carbon::js::ACLexRegexToken"*)* @_ZN14altered_carbon2js15ACLexRegexToken10regexValueEv to i8*)] }, align 8
@_ZTIN14altered_carbon2js15ACLexRegexTokenE = constant { i8*, i8*, i8* } { i8* bitcast (i8** getelementptr inbounds (i8*, i8** @_ZTVN10__cxxabiv120__si_class_type_infoE, i64 2) to i8*), i8* getelementptr inbounds ([39 x i8], [39 x i8]* @_ZTSN14altered_carbon2js15ACLexRegexTokenE, i32 0, i32 0), i8* bitcast ({ i8*, i8* }* @_ZTIN14altered_carbon2js10ACLexTokenE to i8*) }
@.str.145 = private unnamed_addr constant [3 x i8] c"'(\00", align 1
@_ZTSN14altered_carbon2js15ACLexRegexTokenE = constant [39 x i8] c"N14altered_carbon2js15ACLexRegexTokenE\00"
@.str.127 = private unnamed_addr constant [1 x i8] zeroinitializer, align 1
@_ZTVN14altered_carbon2js13ACLexPositionE = linkonce_odr unnamed_addr constant { [4 x i8*] } { [4 x i8*] [i8* null, i8* bitcast ({ i8*, i8* }* @_ZTIN14altered_carbon2js13ACLexPositionE to i8*), i8* bitcast (void (%"struct.altered_carbon::js::ACLexPosition"*)* @_ZN14altered_carbon2js13ACLexPositionD1Ev to i8*), i8* bitcast (void (%"struct.altered_carbon::js::ACLexPosition"*)* @_ZN14altered_carbon2js13ACLexPositionD0Ev to i8*)] }, align 8
@_ZTIN14altered_carbon2js13ACLexPositionE = linkonce_odr constant { i8*, i8* } { i8* bitcast (i8** getelementptr inbounds (i8*, i8** @_ZTVN10__cxxabiv117__class_type_infoE, i64 2) to i8*), i8* getelementptr inbounds ([37 x i8], [37 x i8]* @_ZTSN14altered_carbon2js13ACLexPositionE, i32 0, i32 0) }
@_ZTSN14altered_carbon2js13ACLexPositionE = linkonce_odr constant [37 x i8] c"N14altered_carbon2js13ACLexPositionE\00"
@_ZTVN14altered_carbon2js9JsVariantE = unnamed_addr constant { [4 x i8*] } { [4 x i8*] [i8* null, i8* bitcast ({ i8*, i8* }* @_ZTIN14altered_carbon2js9JsVariantE to i8*), i8* bitcast (void (%"class.altered_carbon::js::JsVariant"*)* @_ZN14altered_carbon2js9JsVariantD1Ev to i8*), i8* bitcast (void (%"class.altered_carbon::js::JsVariant"*)* @_ZN14altered_carbon2js9JsVariantD0Ev to i8*)] }, align 8
@_ZTIN14altered_carbon2js9JsVariantE = constant { i8*, i8* } { i8* bitcast (i8** getelementptr inbounds (i8*, i8** @_ZTVN10__cxxabiv117__class_type_infoE, i64 2) to i8*), i8* getelementptr inbounds ([32 x i8], [32 x i8]* @_ZTSN14altered_carbon2js9JsVariantE, i32 0, i32 0) }
@_ZNSt3__14cerrE = external global %"class.std::__1::basic_ostream", align 8
@.str.3.37 = private unnamed_addr constant [12 x i8] c"~JsVariant(\00", align 1
@.str.4.38 = private unnamed_addr constant [11 x i8] c") called.\0A\00", align 1
@_ZTSN14altered_carbon2js9JsVariantE = constant [32 x i8] c"N14altered_carbon2js9JsVariantE\00"
@_ZN14altered_carbon2js11JsConstants3NaNE = global %"class.altered_carbon::js::JsVariant" zeroinitializer, align 8
@_ZN14altered_carbon2js11JsConstants9UndefinedE = global %"class.altered_carbon::js::JsVariant" zeroinitializer, align 8
@_ZN14altered_carbon2js11JsConstants4NullE = global %"class.altered_carbon::js::JsVariant" zeroinitializer, align 8
@_ZN14altered_carbon2js11JsConstants8InfinityE = global %"class.altered_carbon::js::JsVariant" zeroinitializer, align 8
@llvm.global_ctors = appending global [1 x { i32, void ()*, i8* }] [{ i32, void ()*, i8* } { i32 65535, void ()* @_GLOBAL__sub_I_ac_vm_jsvariant.cc, i8* null }]
@__dso_handle = external hidden global i8
@.str.53.41 = private unnamed_addr constant [1 x i8] zeroinitializer, align 1
@_ZTVN14altered_carbon2js10RefCountedINS0_14JsVariantArrayEEE = linkonce_odr unnamed_addr constant { [4 x i8*] } { [4 x i8*] [i8* null, i8* bitcast ({ i8*, i8*, i8* }* @_ZTIN14altered_carbon2js10RefCountedINS0_14JsVariantArrayEEE to i8*), i8* bitcast (void (%"class.altered_carbon::js::RefCounted.12"*)* @_ZN14altered_carbon2js10RefCountedINS0_14JsVariantArrayEED1Ev to i8*), i8* bitcast (void (%"class.altered_carbon::js::RefCounted.12"*)* @_ZN14altered_carbon2js10RefCountedINS0_14JsVariantArrayEED0Ev to i8*)] }, align 8
@_ZTIN14altered_carbon2js10RefCountedINS0_14JsVariantArrayEEE = linkonce_odr constant { i8*, i8*, i8* } { i8* bitcast (i8** getelementptr inbounds (i8*, i8** @_ZTVN10__cxxabiv120__si_class_type_infoE, i64 2) to i8*), i8* getelementptr inbounds ([57 x i8], [57 x i8]* @_ZTSN14altered_carbon2js10RefCountedINS0_14JsVariantArrayEEE, i32 0, i32 0), i8* bitcast ({ i8*, i8* }* @_ZTIN14altered_carbon2js14JsVariantArrayE to i8*) }
@_ZTVN14altered_carbon2js14JsVariantArrayE = linkonce_odr unnamed_addr constant { [4 x i8*] } { [4 x i8*] [i8* null, i8* bitcast ({ i8*, i8* }* @_ZTIN14altered_carbon2js14JsVariantArrayE to i8*), i8* bitcast (void (%"class.altered_carbon::js::JsVariantArray"*)* @_ZN14altered_carbon2js14JsVariantArrayD1Ev to i8*), i8* bitcast (void (%"class.altered_carbon::js::JsVariantArray"*)* @_ZN14altered_carbon2js14JsVariantArrayD0Ev to i8*)] }, align 8
@_ZTIN14altered_carbon2js14JsVariantArrayE = linkonce_odr constant { i8*, i8* } { i8* bitcast (i8** getelementptr inbounds (i8*, i8** @_ZTVN10__cxxabiv117__class_type_infoE, i64 2) to i8*), i8* getelementptr inbounds ([38 x i8], [38 x i8]* @_ZTSN14altered_carbon2js14JsVariantArrayE, i32 0, i32 0) }
@_ZTSN14altered_carbon2js14JsVariantArrayE = linkonce_odr constant [38 x i8] c"N14altered_carbon2js14JsVariantArrayE\00"
@_ZTSN14altered_carbon2js10RefCountedINS0_14JsVariantArrayEEE = linkonce_odr constant [57 x i8] c"N14altered_carbon2js10RefCountedINS0_14JsVariantArrayEEE\00"
@__func__._ZN14altered_carbon2js9JsVariantC2ENS1_13JsVariantTypeEPS1_ = private unnamed_addr constant [10 x i8] c"JsVariant\00", align 1
@.str.146 = private unnamed_addr constant [19 x i8] c"ac_vm_jsvariant.cc\00", align 1
@.str.1.147 = private unnamed_addr constant [4 x i8] c"!!v\00", align 1
@.str.2.148 = private unnamed_addr constant [6 x i8] c"false\00", align 1
@_ZTVN14altered_carbon2js10RefCountedINS0_9JsVariantEEE = linkonce_odr unnamed_addr constant { [4 x i8*] } { [4 x i8*] [i8* null, i8* bitcast ({ i8*, i8*, i8* }* @_ZTIN14altered_carbon2js10RefCountedINS0_9JsVariantEEE to i8*), i8* bitcast (void (%"class.altered_carbon::js::RefCounted"*)* @_ZN14altered_carbon2js10RefCountedINS0_9JsVariantEED1Ev to i8*), i8* bitcast (void (%"class.altered_carbon::js::RefCounted"*)* @_ZN14altered_carbon2js10RefCountedINS0_9JsVariantEED0Ev to i8*)] }, align 8
@_ZTIN14altered_carbon2js10RefCountedINS0_9JsVariantEEE = linkonce_odr constant { i8*, i8*, i8* } { i8* bitcast (i8** getelementptr inbounds (i8*, i8** @_ZTVN10__cxxabiv120__si_class_type_infoE, i64 2) to i8*), i8* getelementptr inbounds ([51 x i8], [51 x i8]* @_ZTSN14altered_carbon2js10RefCountedINS0_9JsVariantEEE, i32 0, i32 0), i8* bitcast ({ i8*, i8* }* @_ZTIN14altered_carbon2js9JsVariantE to i8*) }
@_ZTSN14altered_carbon2js10RefCountedINS0_9JsVariantEEE = linkonce_odr constant [51 x i8] c"N14altered_carbon2js10RefCountedINS0_9JsVariantEEE\00"
@__func__._ZN14altered_carbon2js13RefCountedPtrINS0_9JsVariantEEC2EPNS0_10RefCountedIS2_EE = private unnamed_addr constant [14 x i8] c"RefCountedPtr\00", align 1
@.str.65.149 = private unnamed_addr constant [20 x i8] c"./ac_vm_jsvariant.h\00", align 1
@.str.66.150 = private unnamed_addr constant [4 x i8] c"!!p\00", align 1
@__func__._ZN14altered_carbon2js9JsVariant4convEi = private unnamed_addr constant [5 x i8] c"conv\00", align 1
@.str.22.151 = private unnamed_addr constant [28 x i8] c"false && \22Unsupported type\22\00", align 1
@.str.23.152 = private unnamed_addr constant [10 x i32] [i32 117, i32 110, i32 100, i32 101, i32 102, i32 105, i32 110, i32 101, i32 100, i32 0], align 4
@.str.24.153 = private unnamed_addr constant [5 x i32] [i32 110, i32 117, i32 108, i32 108, i32 0], align 4
@.str.25.154 = private unnamed_addr constant [5 x i32] [i32 116, i32 114, i32 117, i32 101, i32 0], align 4
@.str.26.155 = private unnamed_addr constant [6 x i32] [i32 102, i32 97, i32 108, i32 115, i32 101, i32 0], align 4
@.str.27.156 = private unnamed_addr constant [10 x i8] c"TypeError\00", align 1
@.str.5.159 = private unnamed_addr constant [6 x i8] c"[ACJ]\00", align 1
@.str.6.160 = private unnamed_addr constant [6 x i8] c"empty\00", align 1
@.str.7.161 = private unnamed_addr constant [10 x i8] c"undefined\00", align 1
@.str.8.162 = private unnamed_addr constant [5 x i8] c"null\00", align 1
@.str.9.163 = private unnamed_addr constant [5 x i8] c"true\00", align 1
@.str.10.164 = private unnamed_addr constant [4 x i8] c"(I)\00", align 1
@.str.11.165 = private unnamed_addr constant [4 x i8] c"(R)\00", align 1
@.str.12.166 = private unnamed_addr constant [20 x i8] c"(JSSTRING length = \00", align 1
@.str.13.167 = private unnamed_addr constant [2 x i8] c")\00", align 1
@.str.14.168 = private unnamed_addr constant [11 x i8] c"(JSERROR: \00", align 1
@.str.15.169 = private unnamed_addr constant [3 x i8] c"{}\00", align 1
@__func__._ZNK14altered_carbon2js9JsVariant4dumpERNSt3__113basic_ostreamIcNS2_11char_traitsIcEEEE = private unnamed_addr constant [5 x i8] c"dump\00", align 1
@.str.17.170 = private unnamed_addr constant [45 x i8] c"!!obj_r_.get() && \22Object shouldn't be null\22\00", align 1
@.str.18.171 = private unnamed_addr constant [3 x i8] c"[]\00", align 1
@.str.20.172 = private unnamed_addr constant [53 x i8] c"!!arr_r_.get() && \22JsVariantArray shouldn't be null\22\00", align 1
@.str.39.173 = private unnamed_addr constant [5 x i8] c"{L} \00", align 1
@.str.40.174 = private unnamed_addr constant [3 x i8] c"{*\00", align 1
@.str.41.175 = private unnamed_addr constant [4 x i8] c"RED\00", align 1
@.str.42.176 = private unnamed_addr constant [6 x i8] c"BLACK\00", align 1
@.str.43.177 = private unnamed_addr constant [4 x i8] c"*} \00", align 1
@.str.44.178 = private unnamed_addr constant [6 x i8] c"\0A{R} \00", align 1
@.str.45.179 = private unnamed_addr constant [7 x i8] c"{nil} \00", align 1
@.str.34.180 = private unnamed_addr constant [2 x i8] c"{\00", align 1
@.str.35.181 = private unnamed_addr constant [9 x i8] c"Empty X \00", align 1
@.str.36.182 = private unnamed_addr constant [3 x i8] c", \00", align 1
@.str.37.183 = private unnamed_addr constant [2 x i8] c":\00", align 1
@.str.38.184 = private unnamed_addr constant [2 x i8] c"}\00", align 1
@__func__._ZN14altered_carbon2js14JsVariantArray21insertVariantIntervalEjjN4llvm8ArrayRefIPNS0_9JsVariantEEENS0_10RBTreeNodeIS4_E10AllocStyleE = private unnamed_addr constant [22 x i8] c"insertVariantInterval\00", align 1
@.str.48.185 = private unnamed_addr constant [29 x i8] c"vars.size() == max - min + 1\00", align 1
@.str.49.186 = private unnamed_addr constant [65 x i8] c"max < matched_node->min_index_ || min > matched_node->max_index_\00", align 1
@__func__._ZN14altered_carbon2js10RBTreeNodeINS0_9JsVariantEE6assignEjjN4llvm8ArrayRefIPS2_EE = private unnamed_addr constant [7 x i8] c"assign\00", align 1
@.str.32.187 = private unnamed_addr constant [51 x i8] c"min_index >= min_index_ && max_index <= max_index_\00", align 1
@.str.68.190 = private unnamed_addr constant [68 x i8] c"allocator<T>::allocate(size_t n) 'n' exceeds maximum supported size\00", align 1
@_ZTVN14altered_carbon2js10RBTreeNodeINS0_9JsVariantEEE = linkonce_odr unnamed_addr constant { [4 x i8*] } { [4 x i8*] [i8* null, i8* bitcast ({ i8*, i8* }* @_ZTIN14altered_carbon2js10RBTreeNodeINS0_9JsVariantEEE to i8*), i8* bitcast (void (%"class.altered_carbon::js::RBTreeNode"*)* @_ZN14altered_carbon2js10RBTreeNodeINS0_9JsVariantEED1Ev to i8*), i8* bitcast (void (%"class.altered_carbon::js::RBTreeNode"*)* @_ZN14altered_carbon2js10RBTreeNodeINS0_9JsVariantEED0Ev to i8*)] }, align 8
@__func__._ZN14altered_carbon2js10RBTreeNodeINS0_9JsVariantEEC2EjjN4llvm8ArrayRefIPS2_EENS3_10AllocStyleE = private unnamed_addr constant [11 x i8] c"RBTreeNode\00", align 1
@.str.69.191 = private unnamed_addr constant [40 x i8] c"v.size() == (max_index - min_index + 1)\00", align 1
@_ZTIN14altered_carbon2js10RBTreeNodeINS0_9JsVariantEEE = linkonce_odr constant { i8*, i8* } { i8* bitcast (i8** getelementptr inbounds (i8*, i8** @_ZTVN10__cxxabiv117__class_type_infoE, i64 2) to i8*), i8* getelementptr inbounds ([51 x i8], [51 x i8]* @_ZTSN14altered_carbon2js10RBTreeNodeINS0_9JsVariantEEE, i32 0, i32 0) }
@_ZTSN14altered_carbon2js10RBTreeNodeINS0_9JsVariantEEE = linkonce_odr constant [51 x i8] c"N14altered_carbon2js10RBTreeNodeINS0_9JsVariantEEE\00"
@__func__._ZNK14altered_carbon2js9JsVariant9asBooleanEv = private unnamed_addr constant [10 x i8] c"asBoolean\00", align 1
@.str.21.192 = private unnamed_addr constant [50 x i8] c"false && \22empty jsvariant shouldn't be evaluated\22\00", align 1
@__func__._ZNK14altered_carbon2js9JsVarianteqERKS1_ = private unnamed_addr constant [11 x i8] c"operator==\00", align 1
@__func__._ZNK14altered_carbon2js9JsVariantneERKS1_ = private unnamed_addr constant [11 x i8] c"operator!=\00", align 1
@__func__._ZNK14altered_carbon2js9JsVariantgtERKS1_ = private unnamed_addr constant [10 x i8] c"operator>\00", align 1
@__func__._ZNK14altered_carbon2js9JsVariantltERKS1_ = private unnamed_addr constant [10 x i8] c"operator<\00", align 1
@__func__._ZNK14altered_carbon2js9JsVariantgeERKS1_ = private unnamed_addr constant [11 x i8] c"operator>=\00", align 1
@__func__._ZNK14altered_carbon2js9JsVariantleERKS1_ = private unnamed_addr constant [11 x i8] c"operator<=\00", align 1
@__func__._ZNK14altered_carbon2js9JsVariantixEj = private unnamed_addr constant [11 x i8] c"operator[]\00", align 1
@.str.28.205 = private unnamed_addr constant [15 x i8] c"!!arr_r_.get()\00", align 1
@.str.67.206 = private unnamed_addr constant [36 x i8] c"i >= 0 && i < member_values_.size()\00", align 1
@.str.29.209 = private unnamed_addr constant [43 x i8] c"false && \22Number parsing is not supported\22\00", align 1
@.str.30.210 = private unnamed_addr constant [36 x i8] c"false && \22Unsupported object deref\22\00", align 1
@__func__._ZN14altered_carbon2js10RBTreeNodeINS0_9JsVariantEE10assign_newEjjPS2_ = private unnamed_addr constant [11 x i8] c"assign_new\00", align 1
@.str.33.211 = private unnamed_addr constant [48 x i8] c"seg_start[i].type() == JsVariant::JS_UNASSIGNED\00", align 1
@.str.31.214 = private unnamed_addr constant [22 x i8] c"type_ == JS_ARRAY_REF\00", align 1
@.str.46.215 = private unnamed_addr constant [15 x i8] c"digraph BST {\0A\00", align 1
@.str.47.216 = private unnamed_addr constant [3 x i8] c"}\0A\00", align 1
@.str.55.217 = private unnamed_addr constant [81 x i8] c" [ shape=circle fontcolor=white color=black fillcolor=red width=1 style=filled ]\00", align 1
@.str.56.218 = private unnamed_addr constant [83 x i8] c" [ shape=circle fontcolor=white color=black fillcolor=black width=1 style=filled ]\00", align 1
@.str.57.219 = private unnamed_addr constant [2 x i8] c"\0A\00", align 1
@.str.58.220 = private unnamed_addr constant [2 x i8] c"l\00", align 1
@.str.59.221 = private unnamed_addr constant [2 x i8] c"r\00", align 1
@.str.63.222 = private unnamed_addr constant [5 x i8] c" -> \00", align 1
@.str.61.223 = private unnamed_addr constant [4 x i8] c"nil\00", align 1
@.str.62.224 = private unnamed_addr constant [106 x i8] c" [ shape=rectangle fontcolor=red color=black fillcolor=black height=.25 width=.5 label=nil style=filled ]\00", align 1
@.str.64.225 = private unnamed_addr constant [5 x i8] c"nil\0A\00", align 1
@.str.60.226 = private unnamed_addr constant [2 x i8] c"_\00", align 1
@__func__._ZN14altered_carbon2js14JsVariantArray10deleteNodeEPNS0_10RBTreeNodeINS0_9JsVariantEEE = private unnamed_addr constant [11 x i8] c"deleteNode\00", align 1
@.str.50.227 = private unnamed_addr constant [50 x i8] c"orig->left_ == replace || orig->right_ == replace\00", align 1

; Function Attrs: noinline norecurse nounwind optnone ssp uwtable
define i32 @main(i32, i8**) #0 {
  %3 = alloca i32, align 4
  %4 = alloca i32, align 4
  %5 = alloca i8**, align 8
  %6 = alloca %"class.altered_carbon::js::JsVariant", align 8
  store i32 0, i32* %3, align 4
  store i32 %0, i32* %4, align 4
  store i8** %1, i8*** %5, align 8
  call void @_ZN14altered_carbon2js9JsVariantC1ENS1_13JsVariantTypeE(%"class.altered_carbon::js::JsVariant"* %6, i32 -1)
  call void @_Z7_scriptPN14altered_carbon2js9JsVariantE(%"class.altered_carbon::js::JsVariant"* %6)
  call void @_ZNK14altered_carbon2js9JsVariant4dumpERNSt3__113basic_ostreamIcNS2_11char_traitsIcEEEE(%"class.altered_carbon::js::JsVariant"* %6, %"class.std::__1::basic_ostream"* dereferenceable(160) @_ZNSt3__14coutE)
  %7 = load %struct.__sFILE*, %struct.__sFILE** @__stdoutp, align 8
  %8 = call i32 (%struct.__sFILE*, i8*, ...) @fprintf(%struct.__sFILE* %7, i8* getelementptr inbounds ([2 x i8], [2 x i8]* @.str, i32 0, i32 0))
  store i32 0, i32* %3, align 4
  call void @_ZN14altered_carbon2js9JsVariantD1Ev(%"class.altered_carbon::js::JsVariant"* %6) #9
  %9 = load i32, i32* %3, align 4
  ret i32 %9
}

declare i32 @fprintf(%struct.__sFILE*, i8*, ...) #1

define void @_Z7_scriptPN14altered_carbon2js9JsVariantE(%"class.altered_carbon::js::JsVariant"*) {
init.bb:
  %ptr = alloca %"class.altered_carbon::js::JsVariant", align 8
  %1 = bitcast %"class.altered_carbon::js::JsVariant"* %ptr to i32 (...)***
  store i32 (...)** bitcast (i8** getelementptr inbounds ({ [4 x i8*] }, { [4 x i8*] }* @_ZTVN14altered_carbon2js9JsVariantE, i32 0, inrange i32 0, i32 2) to i32 (...)**), i32 (...)*** %1, align 8
  %2 = getelementptr inbounds %"class.altered_carbon::js::JsVariant", %"class.altered_carbon::js::JsVariant"* %ptr, i32 0, i32 1
  store i32 1, i32* %2, align 8
  %ptr1 = alloca %"class.altered_carbon::js::JsVariant", align 8
  %3 = bitcast %"class.altered_carbon::js::JsVariant"* %ptr1 to i32 (...)***
  store i32 (...)** bitcast (i8** getelementptr inbounds ({ [4 x i8*] }, { [4 x i8*] }* @_ZTVN14altered_carbon2js9JsVariantE, i32 0, inrange i32 0, i32 2) to i32 (...)**), i32 (...)*** %3, align 8
  %4 = getelementptr inbounds %"class.altered_carbon::js::JsVariant", %"class.altered_carbon::js::JsVariant"* %ptr1, i32 0, i32 1
  store i32 1, i32* %4, align 8
  %ptr2 = alloca %"class.altered_carbon::js::JsVariant", align 8
  %5 = bitcast %"class.altered_carbon::js::JsVariant"* %ptr2 to i32 (...)***
  store i32 (...)** bitcast (i8** getelementptr inbounds ({ [4 x i8*] }, { [4 x i8*] }* @_ZTVN14altered_carbon2js9JsVariantE, i32 0, inrange i32 0, i32 2) to i32 (...)**), i32 (...)*** %5, align 8
  %6 = getelementptr inbounds %"class.altered_carbon::js::JsVariant", %"class.altered_carbon::js::JsVariant"* %ptr2, i32 0, i32 1
  store i32 1, i32* %6, align 8
  %ptr3 = alloca %"class.altered_carbon::js::JsVariant", align 8
  %7 = bitcast %"class.altered_carbon::js::JsVariant"* %ptr3 to i32 (...)***
  store i32 (...)** bitcast (i8** getelementptr inbounds ({ [4 x i8*] }, { [4 x i8*] }* @_ZTVN14altered_carbon2js9JsVariantE, i32 0, inrange i32 0, i32 2) to i32 (...)**), i32 (...)*** %7, align 8
  %8 = getelementptr inbounds %"class.altered_carbon::js::JsVariant", %"class.altered_carbon::js::JsVariant"* %ptr3, i32 0, i32 1
  store i32 1, i32* %8, align 8
  %ptr4 = alloca %"class.altered_carbon::js::JsVariant", align 8
  %9 = bitcast %"class.altered_carbon::js::JsVariant"* %ptr4 to i32 (...)***
  store i32 (...)** bitcast (i8** getelementptr inbounds ({ [4 x i8*] }, { [4 x i8*] }* @_ZTVN14altered_carbon2js9JsVariantE, i32 0, inrange i32 0, i32 2) to i32 (...)**), i32 (...)*** %9, align 8
  %10 = getelementptr inbounds %"class.altered_carbon::js::JsVariant", %"class.altered_carbon::js::JsVariant"* %ptr4, i32 0, i32 1
  store i32 1, i32* %10, align 8
  %ptr5 = alloca %"class.altered_carbon::js::JsVariant", align 8
  %11 = bitcast %"class.altered_carbon::js::JsVariant"* %ptr5 to i32 (...)***
  store i32 (...)** bitcast (i8** getelementptr inbounds ({ [4 x i8*] }, { [4 x i8*] }* @_ZTVN14altered_carbon2js9JsVariantE, i32 0, inrange i32 0, i32 2) to i32 (...)**), i32 (...)*** %11, align 8
  %12 = getelementptr inbounds %"class.altered_carbon::js::JsVariant", %"class.altered_carbon::js::JsVariant"* %ptr5, i32 0, i32 1
  store i32 1, i32* %12, align 8
  %ptr6 = alloca %"class.altered_carbon::js::JsVariant", align 8
  %13 = bitcast %"class.altered_carbon::js::JsVariant"* %ptr6 to i32 (...)***
  store i32 (...)** bitcast (i8** getelementptr inbounds ({ [4 x i8*] }, { [4 x i8*] }* @_ZTVN14altered_carbon2js9JsVariantE, i32 0, inrange i32 0, i32 2) to i32 (...)**), i32 (...)*** %13, align 8
  %14 = getelementptr inbounds %"class.altered_carbon::js::JsVariant", %"class.altered_carbon::js::JsVariant"* %ptr6, i32 0, i32 1
  store i32 1, i32* %14, align 8
  %ptr7 = alloca %"class.altered_carbon::js::JsVariant", align 8
  %15 = bitcast %"class.altered_carbon::js::JsVariant"* %ptr7 to i32 (...)***
  store i32 (...)** bitcast (i8** getelementptr inbounds ({ [4 x i8*] }, { [4 x i8*] }* @_ZTVN14altered_carbon2js9JsVariantE, i32 0, inrange i32 0, i32 2) to i32 (...)**), i32 (...)*** %15, align 8
  %16 = getelementptr inbounds %"class.altered_carbon::js::JsVariant", %"class.altered_carbon::js::JsVariant"* %ptr7, i32 0, i32 1
  store i32 1, i32* %16, align 8
  %ptr8 = alloca %"class.altered_carbon::js::JsVariant", align 8
  %17 = bitcast %"class.altered_carbon::js::JsVariant"* %ptr8 to i32 (...)***
  store i32 (...)** bitcast (i8** getelementptr inbounds ({ [4 x i8*] }, { [4 x i8*] }* @_ZTVN14altered_carbon2js9JsVariantE, i32 0, inrange i32 0, i32 2) to i32 (...)**), i32 (...)*** %17, align 8
  %18 = getelementptr inbounds %"class.altered_carbon::js::JsVariant", %"class.altered_carbon::js::JsVariant"* %ptr8, i32 0, i32 1
  store i32 1, i32* %18, align 8
  %ptr9 = alloca %"class.altered_carbon::js::JsVariant", align 8
  %19 = bitcast %"class.altered_carbon::js::JsVariant"* %ptr9 to i32 (...)***
  store i32 (...)** bitcast (i8** getelementptr inbounds ({ [4 x i8*] }, { [4 x i8*] }* @_ZTVN14altered_carbon2js9JsVariantE, i32 0, inrange i32 0, i32 2) to i32 (...)**), i32 (...)*** %19, align 8
  %20 = getelementptr inbounds %"class.altered_carbon::js::JsVariant", %"class.altered_carbon::js::JsVariant"* %ptr9, i32 0, i32 1
  store i32 1, i32* %20, align 8
  %ptr10 = alloca %"class.altered_carbon::js::JsVariant", align 8
  %21 = bitcast %"class.altered_carbon::js::JsVariant"* %ptr10 to i32 (...)***
  store i32 (...)** bitcast (i8** getelementptr inbounds ({ [4 x i8*] }, { [4 x i8*] }* @_ZTVN14altered_carbon2js9JsVariantE, i32 0, inrange i32 0, i32 2) to i32 (...)**), i32 (...)*** %21, align 8
  %22 = getelementptr inbounds %"class.altered_carbon::js::JsVariant", %"class.altered_carbon::js::JsVariant"* %ptr10, i32 0, i32 1
  store i32 1, i32* %22, align 8
  %ptr11 = alloca %"class.altered_carbon::js::JsVariant", align 8
  %23 = bitcast %"class.altered_carbon::js::JsVariant"* %ptr11 to i32 (...)***
  store i32 (...)** bitcast (i8** getelementptr inbounds ({ [4 x i8*] }, { [4 x i8*] }* @_ZTVN14altered_carbon2js9JsVariantE, i32 0, inrange i32 0, i32 2) to i32 (...)**), i32 (...)*** %23, align 8
  %24 = getelementptr inbounds %"class.altered_carbon::js::JsVariant", %"class.altered_carbon::js::JsVariant"* %ptr11, i32 0, i32 1
  store i32 1, i32* %24, align 8
  %ptr12 = alloca %"class.altered_carbon::js::JsVariant", align 8
  %25 = bitcast %"class.altered_carbon::js::JsVariant"* %ptr12 to i32 (...)***
  store i32 (...)** bitcast (i8** getelementptr inbounds ({ [4 x i8*] }, { [4 x i8*] }* @_ZTVN14altered_carbon2js9JsVariantE, i32 0, inrange i32 0, i32 2) to i32 (...)**), i32 (...)*** %25, align 8
  %26 = getelementptr inbounds %"class.altered_carbon::js::JsVariant", %"class.altered_carbon::js::JsVariant"* %ptr12, i32 0, i32 1
  store i32 1, i32* %26, align 8
  %ptr13 = alloca %"class.altered_carbon::js::JsVariant", align 8
  %27 = bitcast %"class.altered_carbon::js::JsVariant"* %ptr13 to i32 (...)***
  store i32 (...)** bitcast (i8** getelementptr inbounds ({ [4 x i8*] }, { [4 x i8*] }* @_ZTVN14altered_carbon2js9JsVariantE, i32 0, inrange i32 0, i32 2) to i32 (...)**), i32 (...)*** %27, align 8
  %28 = getelementptr inbounds %"class.altered_carbon::js::JsVariant", %"class.altered_carbon::js::JsVariant"* %ptr13, i32 0, i32 1
  store i32 1, i32* %28, align 8
  %ptr14 = alloca %"class.altered_carbon::js::JsVariant", align 8
  %29 = bitcast %"class.altered_carbon::js::JsVariant"* %ptr14 to i32 (...)***
  store i32 (...)** bitcast (i8** getelementptr inbounds ({ [4 x i8*] }, { [4 x i8*] }* @_ZTVN14altered_carbon2js9JsVariantE, i32 0, inrange i32 0, i32 2) to i32 (...)**), i32 (...)*** %29, align 8
  %30 = getelementptr inbounds %"class.altered_carbon::js::JsVariant", %"class.altered_carbon::js::JsVariant"* %ptr14, i32 0, i32 1
  store i32 1, i32* %30, align 8
  %ptr15 = alloca %"class.altered_carbon::js::JsVariant", align 8
  %31 = bitcast %"class.altered_carbon::js::JsVariant"* %ptr15 to i32 (...)***
  store i32 (...)** bitcast (i8** getelementptr inbounds ({ [4 x i8*] }, { [4 x i8*] }* @_ZTVN14altered_carbon2js9JsVariantE, i32 0, inrange i32 0, i32 2) to i32 (...)**), i32 (...)*** %31, align 8
  %32 = getelementptr inbounds %"class.altered_carbon::js::JsVariant", %"class.altered_carbon::js::JsVariant"* %ptr15, i32 0, i32 1
  store i32 1, i32* %32, align 8
  %ptr16 = alloca %"class.altered_carbon::js::JsVariant", align 8
  %33 = bitcast %"class.altered_carbon::js::JsVariant"* %ptr16 to i32 (...)***
  store i32 (...)** bitcast (i8** getelementptr inbounds ({ [4 x i8*] }, { [4 x i8*] }* @_ZTVN14altered_carbon2js9JsVariantE, i32 0, inrange i32 0, i32 2) to i32 (...)**), i32 (...)*** %33, align 8
  %34 = getelementptr inbounds %"class.altered_carbon::js::JsVariant", %"class.altered_carbon::js::JsVariant"* %ptr16, i32 0, i32 1
  store i32 1, i32* %34, align 8
  %ptr17 = alloca %"class.altered_carbon::js::JsVariant", align 8
  %35 = bitcast %"class.altered_carbon::js::JsVariant"* %ptr17 to i32 (...)***
  store i32 (...)** bitcast (i8** getelementptr inbounds ({ [4 x i8*] }, { [4 x i8*] }* @_ZTVN14altered_carbon2js9JsVariantE, i32 0, inrange i32 0, i32 2) to i32 (...)**), i32 (...)*** %35, align 8
  %36 = getelementptr inbounds %"class.altered_carbon::js::JsVariant", %"class.altered_carbon::js::JsVariant"* %ptr17, i32 0, i32 1
  store i32 1, i32* %36, align 8
  %ptr18 = alloca %"class.altered_carbon::js::JsVariant", align 8
  %37 = bitcast %"class.altered_carbon::js::JsVariant"* %ptr18 to i32 (...)***
  store i32 (...)** bitcast (i8** getelementptr inbounds ({ [4 x i8*] }, { [4 x i8*] }* @_ZTVN14altered_carbon2js9JsVariantE, i32 0, inrange i32 0, i32 2) to i32 (...)**), i32 (...)*** %37, align 8
  %38 = getelementptr inbounds %"class.altered_carbon::js::JsVariant", %"class.altered_carbon::js::JsVariant"* %ptr18, i32 0, i32 1
  store i32 1, i32* %38, align 8
  %ptr19 = alloca %"class.altered_carbon::js::JsVariant", align 8
  %39 = bitcast %"class.altered_carbon::js::JsVariant"* %ptr19 to i32 (...)***
  store i32 (...)** bitcast (i8** getelementptr inbounds ({ [4 x i8*] }, { [4 x i8*] }* @_ZTVN14altered_carbon2js9JsVariantE, i32 0, inrange i32 0, i32 2) to i32 (...)**), i32 (...)*** %39, align 8
  %40 = getelementptr inbounds %"class.altered_carbon::js::JsVariant", %"class.altered_carbon::js::JsVariant"* %ptr19, i32 0, i32 1
  store i32 1, i32* %40, align 8
  %ptr20 = alloca [20 x %"class.altered_carbon::js::JsVariant"*], align 16
  %ptr21 = alloca %"class.altered_carbon::js::JsVariant", align 8
  %41 = bitcast %"class.altered_carbon::js::JsVariant"* %ptr21 to i32 (...)***
  store i32 (...)** bitcast (i8** getelementptr inbounds ({ [4 x i8*] }, { [4 x i8*] }* @_ZTVN14altered_carbon2js9JsVariantE, i32 0, inrange i32 0, i32 2) to i32 (...)**), i32 (...)*** %41, align 8
  %42 = getelementptr inbounds %"class.altered_carbon::js::JsVariant", %"class.altered_carbon::js::JsVariant"* %ptr21, i32 0, i32 1
  store i32 1, i32* %42, align 8
  %ptr22 = alloca %"class.altered_carbon::js::JsVariant", align 8
  %43 = bitcast %"class.altered_carbon::js::JsVariant"* %ptr22 to i32 (...)***
  store i32 (...)** bitcast (i8** getelementptr inbounds ({ [4 x i8*] }, { [4 x i8*] }* @_ZTVN14altered_carbon2js9JsVariantE, i32 0, inrange i32 0, i32 2) to i32 (...)**), i32 (...)*** %43, align 8
  %44 = getelementptr inbounds %"class.altered_carbon::js::JsVariant", %"class.altered_carbon::js::JsVariant"* %ptr22, i32 0, i32 1
  store i32 1, i32* %44, align 8
  %ptr23 = alloca %"class.altered_carbon::js::JsVariant", align 8
  %45 = bitcast %"class.altered_carbon::js::JsVariant"* %ptr23 to i32 (...)***
  store i32 (...)** bitcast (i8** getelementptr inbounds ({ [4 x i8*] }, { [4 x i8*] }* @_ZTVN14altered_carbon2js9JsVariantE, i32 0, inrange i32 0, i32 2) to i32 (...)**), i32 (...)*** %45, align 8
  %46 = getelementptr inbounds %"class.altered_carbon::js::JsVariant", %"class.altered_carbon::js::JsVariant"* %ptr23, i32 0, i32 1
  store i32 1, i32* %46, align 8
  %ptr24 = alloca %"class.altered_carbon::js::JsVariant", align 8
  %47 = bitcast %"class.altered_carbon::js::JsVariant"* %ptr24 to i32 (...)***
  store i32 (...)** bitcast (i8** getelementptr inbounds ({ [4 x i8*] }, { [4 x i8*] }* @_ZTVN14altered_carbon2js9JsVariantE, i32 0, inrange i32 0, i32 2) to i32 (...)**), i32 (...)*** %47, align 8
  %48 = getelementptr inbounds %"class.altered_carbon::js::JsVariant", %"class.altered_carbon::js::JsVariant"* %ptr24, i32 0, i32 1
  store i32 1, i32* %48, align 8
  %ptr25 = alloca [4 x %"class.altered_carbon::js::JsVariant"*], align 16
  %ptr26 = alloca %"class.altered_carbon::js::JsVariant", align 8
  %49 = bitcast %"class.altered_carbon::js::JsVariant"* %ptr26 to i32 (...)***
  store i32 (...)** bitcast (i8** getelementptr inbounds ({ [4 x i8*] }, { [4 x i8*] }* @_ZTVN14altered_carbon2js9JsVariantE, i32 0, inrange i32 0, i32 2) to i32 (...)**), i32 (...)*** %49, align 8
  %50 = getelementptr inbounds %"class.altered_carbon::js::JsVariant", %"class.altered_carbon::js::JsVariant"* %ptr26, i32 0, i32 1
  store i32 1, i32* %50, align 8
  %ptr27 = alloca %"class.altered_carbon::js::JsVariant", align 8
  %51 = bitcast %"class.altered_carbon::js::JsVariant"* %ptr27 to i32 (...)***
  store i32 (...)** bitcast (i8** getelementptr inbounds ({ [4 x i8*] }, { [4 x i8*] }* @_ZTVN14altered_carbon2js9JsVariantE, i32 0, inrange i32 0, i32 2) to i32 (...)**), i32 (...)*** %51, align 8
  %52 = getelementptr inbounds %"class.altered_carbon::js::JsVariant", %"class.altered_carbon::js::JsVariant"* %ptr27, i32 0, i32 1
  store i32 1, i32* %52, align 8
  br label %exec.bb

exec.bb:                                          ; preds = %init.bb
  %53 = call %"class.altered_carbon::js::JsVariant"* @_ZN14altered_carbon2js9JsVariantaSEx(%"class.altered_carbon::js::JsVariant"* %ptr, i64 11)
  %54 = call %"class.altered_carbon::js::JsVariant"* @_ZN14altered_carbon2js9JsVariantaSEx(%"class.altered_carbon::js::JsVariant"* %ptr1, i64 8)
  %55 = call %"class.altered_carbon::js::JsVariant"* @_ZN14altered_carbon2js9JsVariantaSEx(%"class.altered_carbon::js::JsVariant"* %ptr2, i64 14)
  %56 = call %"class.altered_carbon::js::JsVariant"* @_ZN14altered_carbon2js9JsVariantaSEx(%"class.altered_carbon::js::JsVariant"* %ptr3, i64 3)
  %57 = call %"class.altered_carbon::js::JsVariant"* @_ZN14altered_carbon2js9JsVariantaSEx(%"class.altered_carbon::js::JsVariant"* %ptr4, i64 6)
  %58 = call %"class.altered_carbon::js::JsVariant"* @_ZN14altered_carbon2js9JsVariantaSEx(%"class.altered_carbon::js::JsVariant"* %ptr5, i64 2)
  %59 = call %"class.altered_carbon::js::JsVariant"* @_ZN14altered_carbon2js9JsVariantaSEx(%"class.altered_carbon::js::JsVariant"* %ptr6, i64 7)
  %60 = call %"class.altered_carbon::js::JsVariant"* @_ZN14altered_carbon2js9JsVariantaSEx(%"class.altered_carbon::js::JsVariant"* %ptr7, i64 11)
  %61 = call %"class.altered_carbon::js::JsVariant"* @_ZN14altered_carbon2js9JsVariantaSEx(%"class.altered_carbon::js::JsVariant"* %ptr8, i64 8)
  %62 = call %"class.altered_carbon::js::JsVariant"* @_ZN14altered_carbon2js9JsVariantaSEx(%"class.altered_carbon::js::JsVariant"* %ptr9, i64 14)
  %63 = call %"class.altered_carbon::js::JsVariant"* @_ZN14altered_carbon2js9JsVariantaSEx(%"class.altered_carbon::js::JsVariant"* %ptr10, i64 3)
  %64 = call %"class.altered_carbon::js::JsVariant"* @_ZN14altered_carbon2js9JsVariantaSEx(%"class.altered_carbon::js::JsVariant"* %ptr11, i64 6)
  %65 = call %"class.altered_carbon::js::JsVariant"* @_ZN14altered_carbon2js9JsVariantaSEx(%"class.altered_carbon::js::JsVariant"* %ptr12, i64 2)
  %66 = call %"class.altered_carbon::js::JsVariant"* @_ZN14altered_carbon2js9JsVariantaSEx(%"class.altered_carbon::js::JsVariant"* %ptr13, i64 7)
  %67 = call %"class.altered_carbon::js::JsVariant"* @_ZN14altered_carbon2js9JsVariantaSEx(%"class.altered_carbon::js::JsVariant"* %ptr14, i64 11)
  %68 = call %"class.altered_carbon::js::JsVariant"* @_ZN14altered_carbon2js9JsVariantaSEx(%"class.altered_carbon::js::JsVariant"* %ptr15, i64 8)
  %69 = call %"class.altered_carbon::js::JsVariant"* @_ZN14altered_carbon2js9JsVariantaSEx(%"class.altered_carbon::js::JsVariant"* %ptr16, i64 14)
  %70 = call %"class.altered_carbon::js::JsVariant"* @_ZN14altered_carbon2js9JsVariantaSEx(%"class.altered_carbon::js::JsVariant"* %ptr17, i64 3)
  %71 = call %"class.altered_carbon::js::JsVariant"* @_ZN14altered_carbon2js9JsVariantaSEx(%"class.altered_carbon::js::JsVariant"* %ptr18, i64 6)
  %72 = call %"class.altered_carbon::js::JsVariant"* @_ZN14altered_carbon2js9JsVariantaSEx(%"class.altered_carbon::js::JsVariant"* %ptr19, i64 2)
  %newalloc = call i8* @_Znam(i64 1128)
  %73 = bitcast i8* %newalloc to i64*
  store i64 20, i64* %73, align 16
  %74 = getelementptr inbounds i8, i8* %newalloc, i64 8
  %75 = bitcast i8* %74 to %"class.altered_carbon::js::JsVariant"*
  %76 = getelementptr inbounds %"class.altered_carbon::js::JsVariant", %"class.altered_carbon::js::JsVariant"* %75, i64 20
  %77 = getelementptr inbounds [20 x %"class.altered_carbon::js::JsVariant"*], [20 x %"class.altered_carbon::js::JsVariant"*]* %ptr20, i32 0, i32 0
  br label %initarr.bb

exit.bb:                                          ; preds = %initarr.bbe
  %78 = call %"class.altered_carbon::js::JsVariant"* @_ZN14altered_carbon2js9JsVariantaSERKS1_(%"class.altered_carbon::js::JsVariant"* %0, %"class.altered_carbon::js::JsVariant"* dereferenceable(56) %ptr27)
  call void @_ZN14altered_carbon2js9JsVariantD1Ev(%"class.altered_carbon::js::JsVariant"* %ptr27)
  call void @_ZN14altered_carbon2js9JsVariantD1Ev(%"class.altered_carbon::js::JsVariant"* %ptr26)
  call void @_ZN14altered_carbon2js9JsVariantD1Ev(%"class.altered_carbon::js::JsVariant"* %ptr24)
  call void @_ZN14altered_carbon2js9JsVariantD1Ev(%"class.altered_carbon::js::JsVariant"* %ptr23)
  call void @_ZN14altered_carbon2js9JsVariantD1Ev(%"class.altered_carbon::js::JsVariant"* %ptr22)
  call void @_ZN14altered_carbon2js9JsVariantD1Ev(%"class.altered_carbon::js::JsVariant"* %ptr21)
  call void @_ZN14altered_carbon2js9JsVariantD1Ev(%"class.altered_carbon::js::JsVariant"* %ptr19)
  call void @_ZN14altered_carbon2js9JsVariantD1Ev(%"class.altered_carbon::js::JsVariant"* %ptr18)
  call void @_ZN14altered_carbon2js9JsVariantD1Ev(%"class.altered_carbon::js::JsVariant"* %ptr17)
  call void @_ZN14altered_carbon2js9JsVariantD1Ev(%"class.altered_carbon::js::JsVariant"* %ptr16)
  call void @_ZN14altered_carbon2js9JsVariantD1Ev(%"class.altered_carbon::js::JsVariant"* %ptr15)
  call void @_ZN14altered_carbon2js9JsVariantD1Ev(%"class.altered_carbon::js::JsVariant"* %ptr14)
  call void @_ZN14altered_carbon2js9JsVariantD1Ev(%"class.altered_carbon::js::JsVariant"* %ptr13)
  call void @_ZN14altered_carbon2js9JsVariantD1Ev(%"class.altered_carbon::js::JsVariant"* %ptr12)
  call void @_ZN14altered_carbon2js9JsVariantD1Ev(%"class.altered_carbon::js::JsVariant"* %ptr11)
  call void @_ZN14altered_carbon2js9JsVariantD1Ev(%"class.altered_carbon::js::JsVariant"* %ptr10)
  call void @_ZN14altered_carbon2js9JsVariantD1Ev(%"class.altered_carbon::js::JsVariant"* %ptr9)
  call void @_ZN14altered_carbon2js9JsVariantD1Ev(%"class.altered_carbon::js::JsVariant"* %ptr8)
  call void @_ZN14altered_carbon2js9JsVariantD1Ev(%"class.altered_carbon::js::JsVariant"* %ptr7)
  call void @_ZN14altered_carbon2js9JsVariantD1Ev(%"class.altered_carbon::js::JsVariant"* %ptr6)
  call void @_ZN14altered_carbon2js9JsVariantD1Ev(%"class.altered_carbon::js::JsVariant"* %ptr5)
  call void @_ZN14altered_carbon2js9JsVariantD1Ev(%"class.altered_carbon::js::JsVariant"* %ptr4)
  call void @_ZN14altered_carbon2js9JsVariantD1Ev(%"class.altered_carbon::js::JsVariant"* %ptr3)
  call void @_ZN14altered_carbon2js9JsVariantD1Ev(%"class.altered_carbon::js::JsVariant"* %ptr2)
  call void @_ZN14altered_carbon2js9JsVariantD1Ev(%"class.altered_carbon::js::JsVariant"* %ptr1)
  call void @_ZN14altered_carbon2js9JsVariantD1Ev(%"class.altered_carbon::js::JsVariant"* %ptr)
  ret void

initarr.bb:                                       ; preds = %initarr.bb, %exec.bb
  %iter = phi %"class.altered_carbon::js::JsVariant"* [ %75, %exec.bb ], [ %81, %initarr.bb ]
  %79 = bitcast %"class.altered_carbon::js::JsVariant"* %iter to i32 (...)***
  store i32 (...)** bitcast (i8** getelementptr inbounds ({ [4 x i8*] }, { [4 x i8*] }* @_ZTVN14altered_carbon2js9JsVariantE, i32 0, inrange i32 0, i32 2) to i32 (...)**), i32 (...)*** %79, align 8
  %80 = getelementptr inbounds %"class.altered_carbon::js::JsVariant", %"class.altered_carbon::js::JsVariant"* %iter, i32 0, i32 1
  store i32 1, i32* %80, align 8
  %81 = getelementptr inbounds %"class.altered_carbon::js::JsVariant", %"class.altered_carbon::js::JsVariant"* %iter, i64 1
  %82 = icmp eq %"class.altered_carbon::js::JsVariant"* %81, %76
  br i1 %82, label %initarr.bbe, label %initarr.bb

initarr.bbe:                                      ; preds = %initarr.bb
  %83 = getelementptr inbounds %"class.altered_carbon::js::JsVariant", %"class.altered_carbon::js::JsVariant"* %75, i64 0
  %84 = call %"class.altered_carbon::js::JsVariant"* @_ZN14altered_carbon2js9JsVariantaSERKS1_(%"class.altered_carbon::js::JsVariant"* %83, %"class.altered_carbon::js::JsVariant"* %ptr)
  %85 = getelementptr inbounds %"class.altered_carbon::js::JsVariant"*, %"class.altered_carbon::js::JsVariant"** %77, i64 0
  store %"class.altered_carbon::js::JsVariant"* %83, %"class.altered_carbon::js::JsVariant"** %85, align 8
  %86 = getelementptr inbounds %"class.altered_carbon::js::JsVariant", %"class.altered_carbon::js::JsVariant"* %75, i64 1
  %87 = call %"class.altered_carbon::js::JsVariant"* @_ZN14altered_carbon2js9JsVariantaSERKS1_(%"class.altered_carbon::js::JsVariant"* %86, %"class.altered_carbon::js::JsVariant"* %ptr1)
  %88 = getelementptr inbounds %"class.altered_carbon::js::JsVariant"*, %"class.altered_carbon::js::JsVariant"** %77, i64 1
  store %"class.altered_carbon::js::JsVariant"* %86, %"class.altered_carbon::js::JsVariant"** %88, align 8
  %89 = getelementptr inbounds %"class.altered_carbon::js::JsVariant", %"class.altered_carbon::js::JsVariant"* %75, i64 2
  %90 = call %"class.altered_carbon::js::JsVariant"* @_ZN14altered_carbon2js9JsVariantaSERKS1_(%"class.altered_carbon::js::JsVariant"* %89, %"class.altered_carbon::js::JsVariant"* %ptr2)
  %91 = getelementptr inbounds %"class.altered_carbon::js::JsVariant"*, %"class.altered_carbon::js::JsVariant"** %77, i64 2
  store %"class.altered_carbon::js::JsVariant"* %89, %"class.altered_carbon::js::JsVariant"** %91, align 8
  %92 = getelementptr inbounds %"class.altered_carbon::js::JsVariant", %"class.altered_carbon::js::JsVariant"* %75, i64 3
  %93 = call %"class.altered_carbon::js::JsVariant"* @_ZN14altered_carbon2js9JsVariantaSERKS1_(%"class.altered_carbon::js::JsVariant"* %92, %"class.altered_carbon::js::JsVariant"* %ptr3)
  %94 = getelementptr inbounds %"class.altered_carbon::js::JsVariant"*, %"class.altered_carbon::js::JsVariant"** %77, i64 3
  store %"class.altered_carbon::js::JsVariant"* %92, %"class.altered_carbon::js::JsVariant"** %94, align 8
  %95 = getelementptr inbounds %"class.altered_carbon::js::JsVariant", %"class.altered_carbon::js::JsVariant"* %75, i64 4
  %96 = call %"class.altered_carbon::js::JsVariant"* @_ZN14altered_carbon2js9JsVariantaSERKS1_(%"class.altered_carbon::js::JsVariant"* %95, %"class.altered_carbon::js::JsVariant"* %ptr4)
  %97 = getelementptr inbounds %"class.altered_carbon::js::JsVariant"*, %"class.altered_carbon::js::JsVariant"** %77, i64 4
  store %"class.altered_carbon::js::JsVariant"* %95, %"class.altered_carbon::js::JsVariant"** %97, align 8
  %98 = getelementptr inbounds %"class.altered_carbon::js::JsVariant", %"class.altered_carbon::js::JsVariant"* %75, i64 5
  %99 = call %"class.altered_carbon::js::JsVariant"* @_ZN14altered_carbon2js9JsVariantaSERKS1_(%"class.altered_carbon::js::JsVariant"* %98, %"class.altered_carbon::js::JsVariant"* %ptr5)
  %100 = getelementptr inbounds %"class.altered_carbon::js::JsVariant"*, %"class.altered_carbon::js::JsVariant"** %77, i64 5
  store %"class.altered_carbon::js::JsVariant"* %98, %"class.altered_carbon::js::JsVariant"** %100, align 8
  %101 = getelementptr inbounds %"class.altered_carbon::js::JsVariant", %"class.altered_carbon::js::JsVariant"* %75, i64 6
  %102 = call %"class.altered_carbon::js::JsVariant"* @_ZN14altered_carbon2js9JsVariantaSERKS1_(%"class.altered_carbon::js::JsVariant"* %101, %"class.altered_carbon::js::JsVariant"* %ptr6)
  %103 = getelementptr inbounds %"class.altered_carbon::js::JsVariant"*, %"class.altered_carbon::js::JsVariant"** %77, i64 6
  store %"class.altered_carbon::js::JsVariant"* %101, %"class.altered_carbon::js::JsVariant"** %103, align 8
  %104 = getelementptr inbounds %"class.altered_carbon::js::JsVariant", %"class.altered_carbon::js::JsVariant"* %75, i64 7
  %105 = call %"class.altered_carbon::js::JsVariant"* @_ZN14altered_carbon2js9JsVariantaSERKS1_(%"class.altered_carbon::js::JsVariant"* %104, %"class.altered_carbon::js::JsVariant"* %ptr7)
  %106 = getelementptr inbounds %"class.altered_carbon::js::JsVariant"*, %"class.altered_carbon::js::JsVariant"** %77, i64 7
  store %"class.altered_carbon::js::JsVariant"* %104, %"class.altered_carbon::js::JsVariant"** %106, align 8
  %107 = getelementptr inbounds %"class.altered_carbon::js::JsVariant", %"class.altered_carbon::js::JsVariant"* %75, i64 8
  %108 = call %"class.altered_carbon::js::JsVariant"* @_ZN14altered_carbon2js9JsVariantaSERKS1_(%"class.altered_carbon::js::JsVariant"* %107, %"class.altered_carbon::js::JsVariant"* %ptr8)
  %109 = getelementptr inbounds %"class.altered_carbon::js::JsVariant"*, %"class.altered_carbon::js::JsVariant"** %77, i64 8
  store %"class.altered_carbon::js::JsVariant"* %107, %"class.altered_carbon::js::JsVariant"** %109, align 8
  %110 = getelementptr inbounds %"class.altered_carbon::js::JsVariant", %"class.altered_carbon::js::JsVariant"* %75, i64 9
  %111 = call %"class.altered_carbon::js::JsVariant"* @_ZN14altered_carbon2js9JsVariantaSERKS1_(%"class.altered_carbon::js::JsVariant"* %110, %"class.altered_carbon::js::JsVariant"* %ptr9)
  %112 = getelementptr inbounds %"class.altered_carbon::js::JsVariant"*, %"class.altered_carbon::js::JsVariant"** %77, i64 9
  store %"class.altered_carbon::js::JsVariant"* %110, %"class.altered_carbon::js::JsVariant"** %112, align 8
  %113 = getelementptr inbounds %"class.altered_carbon::js::JsVariant", %"class.altered_carbon::js::JsVariant"* %75, i64 10
  %114 = call %"class.altered_carbon::js::JsVariant"* @_ZN14altered_carbon2js9JsVariantaSERKS1_(%"class.altered_carbon::js::JsVariant"* %113, %"class.altered_carbon::js::JsVariant"* %ptr10)
  %115 = getelementptr inbounds %"class.altered_carbon::js::JsVariant"*, %"class.altered_carbon::js::JsVariant"** %77, i64 10
  store %"class.altered_carbon::js::JsVariant"* %113, %"class.altered_carbon::js::JsVariant"** %115, align 8
  %116 = getelementptr inbounds %"class.altered_carbon::js::JsVariant", %"class.altered_carbon::js::JsVariant"* %75, i64 11
  %117 = call %"class.altered_carbon::js::JsVariant"* @_ZN14altered_carbon2js9JsVariantaSERKS1_(%"class.altered_carbon::js::JsVariant"* %116, %"class.altered_carbon::js::JsVariant"* %ptr11)
  %118 = getelementptr inbounds %"class.altered_carbon::js::JsVariant"*, %"class.altered_carbon::js::JsVariant"** %77, i64 11
  store %"class.altered_carbon::js::JsVariant"* %116, %"class.altered_carbon::js::JsVariant"** %118, align 8
  %119 = getelementptr inbounds %"class.altered_carbon::js::JsVariant", %"class.altered_carbon::js::JsVariant"* %75, i64 12
  %120 = call %"class.altered_carbon::js::JsVariant"* @_ZN14altered_carbon2js9JsVariantaSERKS1_(%"class.altered_carbon::js::JsVariant"* %119, %"class.altered_carbon::js::JsVariant"* %ptr12)
  %121 = getelementptr inbounds %"class.altered_carbon::js::JsVariant"*, %"class.altered_carbon::js::JsVariant"** %77, i64 12
  store %"class.altered_carbon::js::JsVariant"* %119, %"class.altered_carbon::js::JsVariant"** %121, align 8
  %122 = getelementptr inbounds %"class.altered_carbon::js::JsVariant", %"class.altered_carbon::js::JsVariant"* %75, i64 13
  %123 = call %"class.altered_carbon::js::JsVariant"* @_ZN14altered_carbon2js9JsVariantaSERKS1_(%"class.altered_carbon::js::JsVariant"* %122, %"class.altered_carbon::js::JsVariant"* %ptr13)
  %124 = getelementptr inbounds %"class.altered_carbon::js::JsVariant"*, %"class.altered_carbon::js::JsVariant"** %77, i64 13
  store %"class.altered_carbon::js::JsVariant"* %122, %"class.altered_carbon::js::JsVariant"** %124, align 8
  %125 = getelementptr inbounds %"class.altered_carbon::js::JsVariant", %"class.altered_carbon::js::JsVariant"* %75, i64 14
  %126 = call %"class.altered_carbon::js::JsVariant"* @_ZN14altered_carbon2js9JsVariantaSERKS1_(%"class.altered_carbon::js::JsVariant"* %125, %"class.altered_carbon::js::JsVariant"* %ptr14)
  %127 = getelementptr inbounds %"class.altered_carbon::js::JsVariant"*, %"class.altered_carbon::js::JsVariant"** %77, i64 14
  store %"class.altered_carbon::js::JsVariant"* %125, %"class.altered_carbon::js::JsVariant"** %127, align 8
  %128 = getelementptr inbounds %"class.altered_carbon::js::JsVariant", %"class.altered_carbon::js::JsVariant"* %75, i64 15
  %129 = call %"class.altered_carbon::js::JsVariant"* @_ZN14altered_carbon2js9JsVariantaSERKS1_(%"class.altered_carbon::js::JsVariant"* %128, %"class.altered_carbon::js::JsVariant"* %ptr15)
  %130 = getelementptr inbounds %"class.altered_carbon::js::JsVariant"*, %"class.altered_carbon::js::JsVariant"** %77, i64 15
  store %"class.altered_carbon::js::JsVariant"* %128, %"class.altered_carbon::js::JsVariant"** %130, align 8
  %131 = getelementptr inbounds %"class.altered_carbon::js::JsVariant", %"class.altered_carbon::js::JsVariant"* %75, i64 16
  %132 = call %"class.altered_carbon::js::JsVariant"* @_ZN14altered_carbon2js9JsVariantaSERKS1_(%"class.altered_carbon::js::JsVariant"* %131, %"class.altered_carbon::js::JsVariant"* %ptr16)
  %133 = getelementptr inbounds %"class.altered_carbon::js::JsVariant"*, %"class.altered_carbon::js::JsVariant"** %77, i64 16
  store %"class.altered_carbon::js::JsVariant"* %131, %"class.altered_carbon::js::JsVariant"** %133, align 8
  %134 = getelementptr inbounds %"class.altered_carbon::js::JsVariant", %"class.altered_carbon::js::JsVariant"* %75, i64 17
  %135 = call %"class.altered_carbon::js::JsVariant"* @_ZN14altered_carbon2js9JsVariantaSERKS1_(%"class.altered_carbon::js::JsVariant"* %134, %"class.altered_carbon::js::JsVariant"* %ptr17)
  %136 = getelementptr inbounds %"class.altered_carbon::js::JsVariant"*, %"class.altered_carbon::js::JsVariant"** %77, i64 17
  store %"class.altered_carbon::js::JsVariant"* %134, %"class.altered_carbon::js::JsVariant"** %136, align 8
  %137 = getelementptr inbounds %"class.altered_carbon::js::JsVariant", %"class.altered_carbon::js::JsVariant"* %75, i64 18
  %138 = call %"class.altered_carbon::js::JsVariant"* @_ZN14altered_carbon2js9JsVariantaSERKS1_(%"class.altered_carbon::js::JsVariant"* %137, %"class.altered_carbon::js::JsVariant"* %ptr18)
  %139 = getelementptr inbounds %"class.altered_carbon::js::JsVariant"*, %"class.altered_carbon::js::JsVariant"** %77, i64 18
  store %"class.altered_carbon::js::JsVariant"* %137, %"class.altered_carbon::js::JsVariant"** %139, align 8
  %140 = getelementptr inbounds %"class.altered_carbon::js::JsVariant", %"class.altered_carbon::js::JsVariant"* %75, i64 19
  %141 = call %"class.altered_carbon::js::JsVariant"* @_ZN14altered_carbon2js9JsVariantaSERKS1_(%"class.altered_carbon::js::JsVariant"* %140, %"class.altered_carbon::js::JsVariant"* %ptr19)
  %142 = getelementptr inbounds %"class.altered_carbon::js::JsVariant"*, %"class.altered_carbon::js::JsVariant"** %77, i64 19
  store %"class.altered_carbon::js::JsVariant"* %140, %"class.altered_carbon::js::JsVariant"** %142, align 8
  %143 = call %"class.altered_carbon::js::JsVariant"* @_ZN14altered_carbon2js9JsVariantaSEN4llvm8ArrayRefIPS1_EE(%"class.altered_carbon::js::JsVariant"* %ptr21, %"class.altered_carbon::js::JsVariant"** %77, i64 20)
  %144 = call %"class.altered_carbon::js::JsVariant"* @_ZN14altered_carbon2js9JsVariantaSEx(%"class.altered_carbon::js::JsVariant"* %ptr22, i64 0)
  %145 = call %"class.altered_carbon::js::JsVariant"* @_ZN14altered_carbon2js9JsVariantaSEx(%"class.altered_carbon::js::JsVariant"* %ptr23, i64 19)
  %146 = call %"class.altered_carbon::js::JsVariant"* @_ZN14altered_carbon2js9JsVariantaSEx(%"class.altered_carbon::js::JsVariant"* %ptr24, i64 20)
  %147 = getelementptr inbounds [4 x %"class.altered_carbon::js::JsVariant"*], [4 x %"class.altered_carbon::js::JsVariant"*]* %ptr25, i32 0, i32 0
  %148 = getelementptr inbounds %"class.altered_carbon::js::JsVariant"*, %"class.altered_carbon::js::JsVariant"** %147, i64 0
  store %"class.altered_carbon::js::JsVariant"* %ptr21, %"class.altered_carbon::js::JsVariant"** %148, align 8
  %149 = getelementptr inbounds %"class.altered_carbon::js::JsVariant"*, %"class.altered_carbon::js::JsVariant"** %147, i64 1
  store %"class.altered_carbon::js::JsVariant"* %ptr22, %"class.altered_carbon::js::JsVariant"** %149, align 8
  %150 = getelementptr inbounds %"class.altered_carbon::js::JsVariant"*, %"class.altered_carbon::js::JsVariant"** %147, i64 2
  store %"class.altered_carbon::js::JsVariant"* %ptr23, %"class.altered_carbon::js::JsVariant"** %150, align 8
  %151 = getelementptr inbounds %"class.altered_carbon::js::JsVariant"*, %"class.altered_carbon::js::JsVariant"** %147, i64 3
  store %"class.altered_carbon::js::JsVariant"* %ptr24, %"class.altered_carbon::js::JsVariant"** %151, align 8
  call void @_ZN3_js9quickSortEPN14altered_carbon2js9JsVariantEN4llvm8ArrayRefIS3_EE(%"class.altered_carbon::js::JsVariant"* %ptr26, %"class.altered_carbon::js::JsVariant"* null, %"class.altered_carbon::js::JsVariant"** %147, i64 4)
  %152 = call %"class.altered_carbon::js::JsVariant"* @_ZN14altered_carbon2js9JsVariantaSERKS1_(%"class.altered_carbon::js::JsVariant"* %ptr27, %"class.altered_carbon::js::JsVariant"* %ptr26)
  br label %exit.bb
}

declare i8* @_Znam(i64)

define void @_ZN3_js9quickSortEPN14altered_carbon2js9JsVariantEN4llvm8ArrayRefIS3_EE(%"class.altered_carbon::js::JsVariant"* noalias sret, %"class.altered_carbon::js::JsVariant"*, %"class.altered_carbon::js::JsVariant"**, i64) {
init.bb:
  %ptr = alloca %"class.altered_carbon::js::JsVariant"*, align 8
  %ptr5 = alloca %"class.altered_carbon::js::JsVariant", align 8
  %4 = bitcast %"class.altered_carbon::js::JsVariant"* %ptr5 to i32 (...)***
  store i32 (...)** bitcast (i8** getelementptr inbounds ({ [4 x i8*] }, { [4 x i8*] }* @_ZTVN14altered_carbon2js9JsVariantE, i32 0, inrange i32 0, i32 2) to i32 (...)**), i32 (...)*** %4, align 8
  %5 = getelementptr inbounds %"class.altered_carbon::js::JsVariant", %"class.altered_carbon::js::JsVariant"* %ptr5, i32 0, i32 1
  store i32 1, i32* %5, align 8
  %ptr6 = alloca %"class.altered_carbon::js::JsVariant"*, align 8
  %ptr7 = alloca %"class.altered_carbon::js::JsVariant", align 8
  %6 = bitcast %"class.altered_carbon::js::JsVariant"* %ptr7 to i32 (...)***
  store i32 (...)** bitcast (i8** getelementptr inbounds ({ [4 x i8*] }, { [4 x i8*] }* @_ZTVN14altered_carbon2js9JsVariantE, i32 0, inrange i32 0, i32 2) to i32 (...)**), i32 (...)*** %6, align 8
  %7 = getelementptr inbounds %"class.altered_carbon::js::JsVariant", %"class.altered_carbon::js::JsVariant"* %ptr7, i32 0, i32 1
  store i32 1, i32* %7, align 8
  %ptr8 = alloca %"class.altered_carbon::js::JsVariant"*, align 8
  %ptr9 = alloca %"class.altered_carbon::js::JsVariant", align 8
  %8 = bitcast %"class.altered_carbon::js::JsVariant"* %ptr9 to i32 (...)***
  store i32 (...)** bitcast (i8** getelementptr inbounds ({ [4 x i8*] }, { [4 x i8*] }* @_ZTVN14altered_carbon2js9JsVariantE, i32 0, inrange i32 0, i32 2) to i32 (...)**), i32 (...)*** %8, align 8
  %9 = getelementptr inbounds %"class.altered_carbon::js::JsVariant", %"class.altered_carbon::js::JsVariant"* %ptr9, i32 0, i32 1
  store i32 1, i32* %9, align 8
  %ptr10 = alloca %"class.altered_carbon::js::JsVariant"*, align 8
  %ptr11 = alloca %"class.altered_carbon::js::JsVariant", align 8
  %10 = bitcast %"class.altered_carbon::js::JsVariant"* %ptr11 to i32 (...)***
  store i32 (...)** bitcast (i8** getelementptr inbounds ({ [4 x i8*] }, { [4 x i8*] }* @_ZTVN14altered_carbon2js9JsVariantE, i32 0, inrange i32 0, i32 2) to i32 (...)**), i32 (...)*** %10, align 8
  %11 = getelementptr inbounds %"class.altered_carbon::js::JsVariant", %"class.altered_carbon::js::JsVariant"* %ptr11, i32 0, i32 1
  store i32 1, i32* %11, align 8
  %ptr12 = alloca %"class.altered_carbon::js::JsVariant", align 8
  %12 = bitcast %"class.altered_carbon::js::JsVariant"* %ptr12 to i32 (...)***
  store i32 (...)** bitcast (i8** getelementptr inbounds ({ [4 x i8*] }, { [4 x i8*] }* @_ZTVN14altered_carbon2js9JsVariantE, i32 0, inrange i32 0, i32 2) to i32 (...)**), i32 (...)*** %12, align 8
  %13 = getelementptr inbounds %"class.altered_carbon::js::JsVariant", %"class.altered_carbon::js::JsVariant"* %ptr12, i32 0, i32 1
  store i32 1, i32* %13, align 8
  %ptr14 = alloca %"class.altered_carbon::js::JsVariant", align 8
  %14 = bitcast %"class.altered_carbon::js::JsVariant"* %ptr14 to i32 (...)***
  store i32 (...)** bitcast (i8** getelementptr inbounds ({ [4 x i8*] }, { [4 x i8*] }* @_ZTVN14altered_carbon2js9JsVariantE, i32 0, inrange i32 0, i32 2) to i32 (...)**), i32 (...)*** %14, align 8
  %15 = getelementptr inbounds %"class.altered_carbon::js::JsVariant", %"class.altered_carbon::js::JsVariant"* %ptr14, i32 0, i32 1
  store i32 1, i32* %15, align 8
  %ptr15 = alloca [5 x %"class.altered_carbon::js::JsVariant"*], align 16
  %ptr16 = alloca %"class.altered_carbon::js::JsVariant", align 8
  %16 = bitcast %"class.altered_carbon::js::JsVariant"* %ptr16 to i32 (...)***
  store i32 (...)** bitcast (i8** getelementptr inbounds ({ [4 x i8*] }, { [4 x i8*] }* @_ZTVN14altered_carbon2js9JsVariantE, i32 0, inrange i32 0, i32 2) to i32 (...)**), i32 (...)*** %16, align 8
  %17 = getelementptr inbounds %"class.altered_carbon::js::JsVariant", %"class.altered_carbon::js::JsVariant"* %ptr16, i32 0, i32 1
  store i32 1, i32* %17, align 8
  %ptr17 = alloca %"class.altered_carbon::js::JsVariant", align 8
  %18 = bitcast %"class.altered_carbon::js::JsVariant"* %ptr17 to i32 (...)***
  store i32 (...)** bitcast (i8** getelementptr inbounds ({ [4 x i8*] }, { [4 x i8*] }* @_ZTVN14altered_carbon2js9JsVariantE, i32 0, inrange i32 0, i32 2) to i32 (...)**), i32 (...)*** %18, align 8
  %19 = getelementptr inbounds %"class.altered_carbon::js::JsVariant", %"class.altered_carbon::js::JsVariant"* %ptr17, i32 0, i32 1
  store i32 1, i32* %19, align 8
  %ptr18 = alloca %"class.altered_carbon::js::JsVariant", align 8
  %20 = bitcast %"class.altered_carbon::js::JsVariant"* %ptr18 to i32 (...)***
  store i32 (...)** bitcast (i8** getelementptr inbounds ({ [4 x i8*] }, { [4 x i8*] }* @_ZTVN14altered_carbon2js9JsVariantE, i32 0, inrange i32 0, i32 2) to i32 (...)**), i32 (...)*** %20, align 8
  %21 = getelementptr inbounds %"class.altered_carbon::js::JsVariant", %"class.altered_carbon::js::JsVariant"* %ptr18, i32 0, i32 1
  store i32 1, i32* %21, align 8
  %ptr19 = alloca %"class.altered_carbon::js::JsVariant", align 8
  %22 = bitcast %"class.altered_carbon::js::JsVariant"* %ptr19 to i32 (...)***
  store i32 (...)** bitcast (i8** getelementptr inbounds ({ [4 x i8*] }, { [4 x i8*] }* @_ZTVN14altered_carbon2js9JsVariantE, i32 0, inrange i32 0, i32 2) to i32 (...)**), i32 (...)*** %22, align 8
  %23 = getelementptr inbounds %"class.altered_carbon::js::JsVariant", %"class.altered_carbon::js::JsVariant"* %ptr19, i32 0, i32 1
  store i32 1, i32* %23, align 8
  %ptr20 = alloca [4 x %"class.altered_carbon::js::JsVariant"*], align 16
  %ptr21 = alloca %"class.altered_carbon::js::JsVariant", align 8
  %24 = bitcast %"class.altered_carbon::js::JsVariant"* %ptr21 to i32 (...)***
  store i32 (...)** bitcast (i8** getelementptr inbounds ({ [4 x i8*] }, { [4 x i8*] }* @_ZTVN14altered_carbon2js9JsVariantE, i32 0, inrange i32 0, i32 2) to i32 (...)**), i32 (...)*** %24, align 8
  %25 = getelementptr inbounds %"class.altered_carbon::js::JsVariant", %"class.altered_carbon::js::JsVariant"* %ptr21, i32 0, i32 1
  store i32 1, i32* %25, align 8
  %ptr22 = alloca %"class.altered_carbon::js::JsVariant", align 8
  %26 = bitcast %"class.altered_carbon::js::JsVariant"* %ptr22 to i32 (...)***
  store i32 (...)** bitcast (i8** getelementptr inbounds ({ [4 x i8*] }, { [4 x i8*] }* @_ZTVN14altered_carbon2js9JsVariantE, i32 0, inrange i32 0, i32 2) to i32 (...)**), i32 (...)*** %26, align 8
  %27 = getelementptr inbounds %"class.altered_carbon::js::JsVariant", %"class.altered_carbon::js::JsVariant"* %ptr22, i32 0, i32 1
  store i32 1, i32* %27, align 8
  %ptr23 = alloca %"class.altered_carbon::js::JsVariant", align 8
  %28 = bitcast %"class.altered_carbon::js::JsVariant"* %ptr23 to i32 (...)***
  store i32 (...)** bitcast (i8** getelementptr inbounds ({ [4 x i8*] }, { [4 x i8*] }* @_ZTVN14altered_carbon2js9JsVariantE, i32 0, inrange i32 0, i32 2) to i32 (...)**), i32 (...)*** %28, align 8
  %29 = getelementptr inbounds %"class.altered_carbon::js::JsVariant", %"class.altered_carbon::js::JsVariant"* %ptr23, i32 0, i32 1
  store i32 1, i32* %29, align 8
  %ptr24 = alloca [4 x %"class.altered_carbon::js::JsVariant"*], align 16
  %ptr25 = alloca %"class.altered_carbon::js::JsVariant", align 8
  %30 = bitcast %"class.altered_carbon::js::JsVariant"* %ptr25 to i32 (...)***
  store i32 (...)** bitcast (i8** getelementptr inbounds ({ [4 x i8*] }, { [4 x i8*] }* @_ZTVN14altered_carbon2js9JsVariantE, i32 0, inrange i32 0, i32 2) to i32 (...)**), i32 (...)*** %30, align 8
  %31 = getelementptr inbounds %"class.altered_carbon::js::JsVariant", %"class.altered_carbon::js::JsVariant"* %ptr25, i32 0, i32 1
  store i32 1, i32* %31, align 8
  br label %param.bb

exec.bb:                                          ; preds = %pcase.bb
  br label %block

exit.bb:                                          ; preds = %blocke, %ret.op
  call void @_ZN14altered_carbon2js9JsVariantD1Ev(%"class.altered_carbon::js::JsVariant"* %ptr25)
  call void @_ZN14altered_carbon2js9JsVariantD1Ev(%"class.altered_carbon::js::JsVariant"* %ptr23)
  call void @_ZN14altered_carbon2js9JsVariantD1Ev(%"class.altered_carbon::js::JsVariant"* %ptr22)
  call void @_ZN14altered_carbon2js9JsVariantD1Ev(%"class.altered_carbon::js::JsVariant"* %ptr21)
  call void @_ZN14altered_carbon2js9JsVariantD1Ev(%"class.altered_carbon::js::JsVariant"* %ptr19)
  call void @_ZN14altered_carbon2js9JsVariantD1Ev(%"class.altered_carbon::js::JsVariant"* %ptr18)
  call void @_ZN14altered_carbon2js9JsVariantD1Ev(%"class.altered_carbon::js::JsVariant"* %ptr17)
  call void @_ZN14altered_carbon2js9JsVariantD1Ev(%"class.altered_carbon::js::JsVariant"* %ptr16)
  call void @_ZN14altered_carbon2js9JsVariantD1Ev(%"class.altered_carbon::js::JsVariant"* %ptr14)
  call void @_ZN14altered_carbon2js9JsVariantD1Ev(%"class.altered_carbon::js::JsVariant"* %ptr12)
  call void @_ZN14altered_carbon2js9JsVariantD1Ev(%"class.altered_carbon::js::JsVariant"* %ptr11)
  call void @_ZN14altered_carbon2js9JsVariantD1Ev(%"class.altered_carbon::js::JsVariant"* %ptr9)
  call void @_ZN14altered_carbon2js9JsVariantD1Ev(%"class.altered_carbon::js::JsVariant"* %ptr7)
  call void @_ZN14altered_carbon2js9JsVariantD1Ev(%"class.altered_carbon::js::JsVariant"* %ptr5)
  ret void

param.bb:                                         ; preds = %init.bb
  switch i64 %3, label %pcase.bb4 [
    i64 3, label %pcase.bb3
    i64 2, label %pcase.bb2
    i64 1, label %pcase.bb1
    i64 0, label %pcase.bb
  ]

pcase.bb:                                         ; preds = %pcase.bb1, %param.bb
  br label %exec.bb

pcase.bb1:                                        ; preds = %pcase.bb2, %param.bb
  %32 = getelementptr inbounds %"class.altered_carbon::js::JsVariant"*, %"class.altered_carbon::js::JsVariant"** %2, i64 0
  %33 = load %"class.altered_carbon::js::JsVariant"*, %"class.altered_carbon::js::JsVariant"** %32, align 8
  store %"class.altered_carbon::js::JsVariant"* %33, %"class.altered_carbon::js::JsVariant"** %ptr10, align 8
  %34 = load %"class.altered_carbon::js::JsVariant"*, %"class.altered_carbon::js::JsVariant"** %ptr10, align 8
  %35 = call %"class.altered_carbon::js::JsVariant"* @_ZN14altered_carbon2js9JsVariantaSERKS1_(%"class.altered_carbon::js::JsVariant"* %ptr11, %"class.altered_carbon::js::JsVariant"* %34)
  br label %pcase.bb

pcase.bb2:                                        ; preds = %pcase.bb3, %param.bb
  %36 = getelementptr inbounds %"class.altered_carbon::js::JsVariant"*, %"class.altered_carbon::js::JsVariant"** %2, i64 1
  %37 = load %"class.altered_carbon::js::JsVariant"*, %"class.altered_carbon::js::JsVariant"** %36, align 8
  store %"class.altered_carbon::js::JsVariant"* %37, %"class.altered_carbon::js::JsVariant"** %ptr8, align 8
  %38 = load %"class.altered_carbon::js::JsVariant"*, %"class.altered_carbon::js::JsVariant"** %ptr8, align 8
  %39 = call %"class.altered_carbon::js::JsVariant"* @_ZN14altered_carbon2js9JsVariantaSERKS1_(%"class.altered_carbon::js::JsVariant"* %ptr9, %"class.altered_carbon::js::JsVariant"* %38)
  br label %pcase.bb1

pcase.bb3:                                        ; preds = %pcase.bb4, %param.bb
  %40 = getelementptr inbounds %"class.altered_carbon::js::JsVariant"*, %"class.altered_carbon::js::JsVariant"** %2, i64 2
  %41 = load %"class.altered_carbon::js::JsVariant"*, %"class.altered_carbon::js::JsVariant"** %40, align 8
  store %"class.altered_carbon::js::JsVariant"* %41, %"class.altered_carbon::js::JsVariant"** %ptr6, align 8
  %42 = load %"class.altered_carbon::js::JsVariant"*, %"class.altered_carbon::js::JsVariant"** %ptr6, align 8
  %43 = call %"class.altered_carbon::js::JsVariant"* @_ZN14altered_carbon2js9JsVariantaSERKS1_(%"class.altered_carbon::js::JsVariant"* %ptr7, %"class.altered_carbon::js::JsVariant"* %42)
  br label %pcase.bb2

pcase.bb4:                                        ; preds = %param.bb
  %44 = getelementptr inbounds %"class.altered_carbon::js::JsVariant"*, %"class.altered_carbon::js::JsVariant"** %2, i64 3
  %45 = load %"class.altered_carbon::js::JsVariant"*, %"class.altered_carbon::js::JsVariant"** %44, align 8
  store %"class.altered_carbon::js::JsVariant"* %45, %"class.altered_carbon::js::JsVariant"** %ptr, align 8
  %46 = load %"class.altered_carbon::js::JsVariant"*, %"class.altered_carbon::js::JsVariant"** %ptr, align 8
  %47 = call %"class.altered_carbon::js::JsVariant"* @_ZN14altered_carbon2js9JsVariantaSERKS1_(%"class.altered_carbon::js::JsVariant"* %ptr5, %"class.altered_carbon::js::JsVariant"* %46)
  br label %pcase.bb3

block:                                            ; preds = %exec.bb
  %48 = call i1 @_ZNK14altered_carbon2js9JsVariantltERKS1_(%"class.altered_carbon::js::JsVariant"* %ptr9, %"class.altered_carbon::js::JsVariant"* %ptr7)
  br i1 %48, label %ret.lhs, label %ret.rhs

ret.lhs:                                          ; preds = %block
  br label %block13

ret.rhs:                                          ; preds = %block
  br label %ret.op

ret.op:                                           ; preds = %block13e, %ret.rhs
  %49 = call %"class.altered_carbon::js::JsVariant"* @_ZN14altered_carbon2js9JsVariantaSERKS1_(%"class.altered_carbon::js::JsVariant"* %0, %"class.altered_carbon::js::JsVariant"* %ptr11)
  br label %exit.bb

block13:                                          ; preds = %ret.lhs
  %50 = call %"class.altered_carbon::js::JsVariant"* @_ZN14altered_carbon2js9JsVariantaSERKS1_(%"class.altered_carbon::js::JsVariant"* %ptr14, %"class.altered_carbon::js::JsVariant"* %ptr7)
  %51 = getelementptr inbounds [5 x %"class.altered_carbon::js::JsVariant"*], [5 x %"class.altered_carbon::js::JsVariant"*]* %ptr15, i32 0, i32 0
  %52 = getelementptr inbounds %"class.altered_carbon::js::JsVariant"*, %"class.altered_carbon::js::JsVariant"** %51, i64 0
  store %"class.altered_carbon::js::JsVariant"* %ptr11, %"class.altered_carbon::js::JsVariant"** %52, align 8
  %53 = getelementptr inbounds %"class.altered_carbon::js::JsVariant"*, %"class.altered_carbon::js::JsVariant"** %51, i64 1
  store %"class.altered_carbon::js::JsVariant"* %ptr14, %"class.altered_carbon::js::JsVariant"** %53, align 8
  %54 = getelementptr inbounds %"class.altered_carbon::js::JsVariant"*, %"class.altered_carbon::js::JsVariant"** %51, i64 2
  store %"class.altered_carbon::js::JsVariant"* %ptr9, %"class.altered_carbon::js::JsVariant"** %54, align 8
  %55 = getelementptr inbounds %"class.altered_carbon::js::JsVariant"*, %"class.altered_carbon::js::JsVariant"** %51, i64 3
  store %"class.altered_carbon::js::JsVariant"* %ptr7, %"class.altered_carbon::js::JsVariant"** %55, align 8
  %56 = getelementptr inbounds %"class.altered_carbon::js::JsVariant"*, %"class.altered_carbon::js::JsVariant"** %51, i64 4
  store %"class.altered_carbon::js::JsVariant"* %ptr5, %"class.altered_carbon::js::JsVariant"** %56, align 8
  call void @_ZN3_js9partitionEPN14altered_carbon2js9JsVariantEN4llvm8ArrayRefIS3_EE(%"class.altered_carbon::js::JsVariant"* %ptr16, %"class.altered_carbon::js::JsVariant"* null, %"class.altered_carbon::js::JsVariant"** %51, i64 5)
  %57 = call %"class.altered_carbon::js::JsVariant"* @_ZN14altered_carbon2js9JsVariantaSERKS1_(%"class.altered_carbon::js::JsVariant"* %ptr17, %"class.altered_carbon::js::JsVariant"* %ptr16)
  %58 = call %"class.altered_carbon::js::JsVariant"* @_ZN14altered_carbon2js9JsVariantaSEx(%"class.altered_carbon::js::JsVariant"* %ptr18, i64 1)
  %59 = call %"class.altered_carbon::js::JsVariant"* @_ZNK14altered_carbon2js9JsVariant3subEPS1_RKS1_(%"class.altered_carbon::js::JsVariant"* %ptr17, %"class.altered_carbon::js::JsVariant"* %ptr19, %"class.altered_carbon::js::JsVariant"* %ptr18)
  %60 = getelementptr inbounds [4 x %"class.altered_carbon::js::JsVariant"*], [4 x %"class.altered_carbon::js::JsVariant"*]* %ptr20, i32 0, i32 0
  %61 = getelementptr inbounds %"class.altered_carbon::js::JsVariant"*, %"class.altered_carbon::js::JsVariant"** %60, i64 0
  store %"class.altered_carbon::js::JsVariant"* %ptr11, %"class.altered_carbon::js::JsVariant"** %61, align 8
  %62 = getelementptr inbounds %"class.altered_carbon::js::JsVariant"*, %"class.altered_carbon::js::JsVariant"** %60, i64 1
  store %"class.altered_carbon::js::JsVariant"* %ptr9, %"class.altered_carbon::js::JsVariant"** %62, align 8
  %63 = getelementptr inbounds %"class.altered_carbon::js::JsVariant"*, %"class.altered_carbon::js::JsVariant"** %60, i64 2
  store %"class.altered_carbon::js::JsVariant"* %59, %"class.altered_carbon::js::JsVariant"** %63, align 8
  %64 = getelementptr inbounds %"class.altered_carbon::js::JsVariant"*, %"class.altered_carbon::js::JsVariant"** %60, i64 3
  store %"class.altered_carbon::js::JsVariant"* %ptr5, %"class.altered_carbon::js::JsVariant"** %64, align 8
  call void @_ZN3_js9quickSortEPN14altered_carbon2js9JsVariantEN4llvm8ArrayRefIS3_EE(%"class.altered_carbon::js::JsVariant"* %ptr21, %"class.altered_carbon::js::JsVariant"* null, %"class.altered_carbon::js::JsVariant"** %60, i64 4)
  %65 = call %"class.altered_carbon::js::JsVariant"* @_ZN14altered_carbon2js9JsVariantaSEx(%"class.altered_carbon::js::JsVariant"* %ptr22, i64 1)
  %66 = call %"class.altered_carbon::js::JsVariant"* @_ZNK14altered_carbon2js9JsVariant3addEPS1_RKS1_(%"class.altered_carbon::js::JsVariant"* %ptr17, %"class.altered_carbon::js::JsVariant"* %ptr23, %"class.altered_carbon::js::JsVariant"* %ptr22)
  %67 = getelementptr inbounds [4 x %"class.altered_carbon::js::JsVariant"*], [4 x %"class.altered_carbon::js::JsVariant"*]* %ptr24, i32 0, i32 0
  %68 = getelementptr inbounds %"class.altered_carbon::js::JsVariant"*, %"class.altered_carbon::js::JsVariant"** %67, i64 0
  store %"class.altered_carbon::js::JsVariant"* %ptr11, %"class.altered_carbon::js::JsVariant"** %68, align 8
  %69 = getelementptr inbounds %"class.altered_carbon::js::JsVariant"*, %"class.altered_carbon::js::JsVariant"** %67, i64 1
  store %"class.altered_carbon::js::JsVariant"* %66, %"class.altered_carbon::js::JsVariant"** %69, align 8
  %70 = getelementptr inbounds %"class.altered_carbon::js::JsVariant"*, %"class.altered_carbon::js::JsVariant"** %67, i64 2
  store %"class.altered_carbon::js::JsVariant"* %ptr7, %"class.altered_carbon::js::JsVariant"** %70, align 8
  %71 = getelementptr inbounds %"class.altered_carbon::js::JsVariant"*, %"class.altered_carbon::js::JsVariant"** %67, i64 3
  store %"class.altered_carbon::js::JsVariant"* %ptr5, %"class.altered_carbon::js::JsVariant"** %71, align 8
  call void @_ZN3_js9quickSortEPN14altered_carbon2js9JsVariantEN4llvm8ArrayRefIS3_EE(%"class.altered_carbon::js::JsVariant"* %ptr25, %"class.altered_carbon::js::JsVariant"* null, %"class.altered_carbon::js::JsVariant"** %67, i64 4)
  br label %block13e

block13e:                                         ; preds = %block13
  br label %ret.op

blocke:                                           ; No predecessors!
  br label %exit.bb
}

define void @_ZN3_js9partitionEPN14altered_carbon2js9JsVariantEN4llvm8ArrayRefIS3_EE(%"class.altered_carbon::js::JsVariant"* noalias sret, %"class.altered_carbon::js::JsVariant"*, %"class.altered_carbon::js::JsVariant"**, i64) {
init.bb:
  %ptr = alloca %"class.altered_carbon::js::JsVariant"*, align 8
  %ptr5 = alloca %"class.altered_carbon::js::JsVariant", align 8
  %4 = bitcast %"class.altered_carbon::js::JsVariant"* %ptr5 to i32 (...)***
  store i32 (...)** bitcast (i8** getelementptr inbounds ({ [4 x i8*] }, { [4 x i8*] }* @_ZTVN14altered_carbon2js9JsVariantE, i32 0, inrange i32 0, i32 2) to i32 (...)**), i32 (...)*** %4, align 8
  %5 = getelementptr inbounds %"class.altered_carbon::js::JsVariant", %"class.altered_carbon::js::JsVariant"* %ptr5, i32 0, i32 1
  store i32 1, i32* %5, align 8
  %ptr6 = alloca %"class.altered_carbon::js::JsVariant"*, align 8
  %ptr7 = alloca %"class.altered_carbon::js::JsVariant", align 8
  %6 = bitcast %"class.altered_carbon::js::JsVariant"* %ptr7 to i32 (...)***
  store i32 (...)** bitcast (i8** getelementptr inbounds ({ [4 x i8*] }, { [4 x i8*] }* @_ZTVN14altered_carbon2js9JsVariantE, i32 0, inrange i32 0, i32 2) to i32 (...)**), i32 (...)*** %6, align 8
  %7 = getelementptr inbounds %"class.altered_carbon::js::JsVariant", %"class.altered_carbon::js::JsVariant"* %ptr7, i32 0, i32 1
  store i32 1, i32* %7, align 8
  %ptr8 = alloca %"class.altered_carbon::js::JsVariant"*, align 8
  %ptr9 = alloca %"class.altered_carbon::js::JsVariant", align 8
  %8 = bitcast %"class.altered_carbon::js::JsVariant"* %ptr9 to i32 (...)***
  store i32 (...)** bitcast (i8** getelementptr inbounds ({ [4 x i8*] }, { [4 x i8*] }* @_ZTVN14altered_carbon2js9JsVariantE, i32 0, inrange i32 0, i32 2) to i32 (...)**), i32 (...)*** %8, align 8
  %9 = getelementptr inbounds %"class.altered_carbon::js::JsVariant", %"class.altered_carbon::js::JsVariant"* %ptr9, i32 0, i32 1
  store i32 1, i32* %9, align 8
  %ptr10 = alloca %"class.altered_carbon::js::JsVariant"*, align 8
  %ptr11 = alloca %"class.altered_carbon::js::JsVariant", align 8
  %10 = bitcast %"class.altered_carbon::js::JsVariant"* %ptr11 to i32 (...)***
  store i32 (...)** bitcast (i8** getelementptr inbounds ({ [4 x i8*] }, { [4 x i8*] }* @_ZTVN14altered_carbon2js9JsVariantE, i32 0, inrange i32 0, i32 2) to i32 (...)**), i32 (...)*** %10, align 8
  %11 = getelementptr inbounds %"class.altered_carbon::js::JsVariant", %"class.altered_carbon::js::JsVariant"* %ptr11, i32 0, i32 1
  store i32 1, i32* %11, align 8
  %ptr12 = alloca %"class.altered_carbon::js::JsVariant", align 8
  %12 = bitcast %"class.altered_carbon::js::JsVariant"* %ptr12 to i32 (...)***
  store i32 (...)** bitcast (i8** getelementptr inbounds ({ [4 x i8*] }, { [4 x i8*] }* @_ZTVN14altered_carbon2js9JsVariantE, i32 0, inrange i32 0, i32 2) to i32 (...)**), i32 (...)*** %12, align 8
  %13 = getelementptr inbounds %"class.altered_carbon::js::JsVariant", %"class.altered_carbon::js::JsVariant"* %ptr12, i32 0, i32 1
  store i32 1, i32* %13, align 8
  %ptr13 = alloca %"class.altered_carbon::js::JsVariant", align 8
  %14 = bitcast %"class.altered_carbon::js::JsVariant"* %ptr13 to i32 (...)***
  store i32 (...)** bitcast (i8** getelementptr inbounds ({ [4 x i8*] }, { [4 x i8*] }* @_ZTVN14altered_carbon2js9JsVariantE, i32 0, inrange i32 0, i32 2) to i32 (...)**), i32 (...)*** %14, align 8
  %15 = getelementptr inbounds %"class.altered_carbon::js::JsVariant", %"class.altered_carbon::js::JsVariant"* %ptr13, i32 0, i32 1
  store i32 1, i32* %15, align 8
  %ptr14 = alloca %"class.altered_carbon::js::JsVariant", align 8
  %16 = bitcast %"class.altered_carbon::js::JsVariant"* %ptr14 to i32 (...)***
  store i32 (...)** bitcast (i8** getelementptr inbounds ({ [4 x i8*] }, { [4 x i8*] }* @_ZTVN14altered_carbon2js9JsVariantE, i32 0, inrange i32 0, i32 2) to i32 (...)**), i32 (...)*** %16, align 8
  %17 = getelementptr inbounds %"class.altered_carbon::js::JsVariant", %"class.altered_carbon::js::JsVariant"* %ptr14, i32 0, i32 1
  store i32 1, i32* %17, align 8
  %ptr15 = alloca %"class.altered_carbon::js::JsVariant", align 8
  %18 = bitcast %"class.altered_carbon::js::JsVariant"* %ptr15 to i32 (...)***
  store i32 (...)** bitcast (i8** getelementptr inbounds ({ [4 x i8*] }, { [4 x i8*] }* @_ZTVN14altered_carbon2js9JsVariantE, i32 0, inrange i32 0, i32 2) to i32 (...)**), i32 (...)*** %18, align 8
  %19 = getelementptr inbounds %"class.altered_carbon::js::JsVariant", %"class.altered_carbon::js::JsVariant"* %ptr15, i32 0, i32 1
  store i32 1, i32* %19, align 8
  %ptr17 = alloca %"class.altered_carbon::js::JsVariant", align 8
  %20 = bitcast %"class.altered_carbon::js::JsVariant"* %ptr17 to i32 (...)***
  store i32 (...)** bitcast (i8** getelementptr inbounds ({ [4 x i8*] }, { [4 x i8*] }* @_ZTVN14altered_carbon2js9JsVariantE, i32 0, inrange i32 0, i32 2) to i32 (...)**), i32 (...)*** %20, align 8
  %21 = getelementptr inbounds %"class.altered_carbon::js::JsVariant", %"class.altered_carbon::js::JsVariant"* %ptr17, i32 0, i32 1
  store i32 1, i32* %21, align 8
  %ptr18 = alloca %"class.altered_carbon::js::JsVariant", align 8
  %22 = bitcast %"class.altered_carbon::js::JsVariant"* %ptr18 to i32 (...)***
  store i32 (...)** bitcast (i8** getelementptr inbounds ({ [4 x i8*] }, { [4 x i8*] }* @_ZTVN14altered_carbon2js9JsVariantE, i32 0, inrange i32 0, i32 2) to i32 (...)**), i32 (...)*** %22, align 8
  %23 = getelementptr inbounds %"class.altered_carbon::js::JsVariant", %"class.altered_carbon::js::JsVariant"* %ptr18, i32 0, i32 1
  store i32 1, i32* %23, align 8
  %ptr20 = alloca [3 x %"class.altered_carbon::js::JsVariant"*], align 16
  %ptr21 = alloca %"class.altered_carbon::js::JsVariant", align 8
  %24 = bitcast %"class.altered_carbon::js::JsVariant"* %ptr21 to i32 (...)***
  store i32 (...)** bitcast (i8** getelementptr inbounds ({ [4 x i8*] }, { [4 x i8*] }* @_ZTVN14altered_carbon2js9JsVariantE, i32 0, inrange i32 0, i32 2) to i32 (...)**), i32 (...)*** %24, align 8
  %25 = getelementptr inbounds %"class.altered_carbon::js::JsVariant", %"class.altered_carbon::js::JsVariant"* %ptr21, i32 0, i32 1
  store i32 1, i32* %25, align 8
  %ptr22 = alloca %"class.altered_carbon::js::JsVariant", align 8
  %26 = bitcast %"class.altered_carbon::js::JsVariant"* %ptr22 to i32 (...)***
  store i32 (...)** bitcast (i8** getelementptr inbounds ({ [4 x i8*] }, { [4 x i8*] }* @_ZTVN14altered_carbon2js9JsVariantE, i32 0, inrange i32 0, i32 2) to i32 (...)**), i32 (...)*** %26, align 8
  %27 = getelementptr inbounds %"class.altered_carbon::js::JsVariant", %"class.altered_carbon::js::JsVariant"* %ptr22, i32 0, i32 1
  store i32 1, i32* %27, align 8
  %ptr23 = alloca %"class.altered_carbon::js::JsVariant", align 8
  %28 = bitcast %"class.altered_carbon::js::JsVariant"* %ptr23 to i32 (...)***
  store i32 (...)** bitcast (i8** getelementptr inbounds ({ [4 x i8*] }, { [4 x i8*] }* @_ZTVN14altered_carbon2js9JsVariantE, i32 0, inrange i32 0, i32 2) to i32 (...)**), i32 (...)*** %28, align 8
  %29 = getelementptr inbounds %"class.altered_carbon::js::JsVariant", %"class.altered_carbon::js::JsVariant"* %ptr23, i32 0, i32 1
  store i32 1, i32* %29, align 8
  %ptr24 = alloca %"class.altered_carbon::js::JsVariant", align 8
  %30 = bitcast %"class.altered_carbon::js::JsVariant"* %ptr24 to i32 (...)***
  store i32 (...)** bitcast (i8** getelementptr inbounds ({ [4 x i8*] }, { [4 x i8*] }* @_ZTVN14altered_carbon2js9JsVariantE, i32 0, inrange i32 0, i32 2) to i32 (...)**), i32 (...)*** %30, align 8
  %31 = getelementptr inbounds %"class.altered_carbon::js::JsVariant", %"class.altered_carbon::js::JsVariant"* %ptr24, i32 0, i32 1
  store i32 1, i32* %31, align 8
  %ptr25 = alloca [3 x %"class.altered_carbon::js::JsVariant"*], align 16
  %ptr26 = alloca %"class.altered_carbon::js::JsVariant", align 8
  %32 = bitcast %"class.altered_carbon::js::JsVariant"* %ptr26 to i32 (...)***
  store i32 (...)** bitcast (i8** getelementptr inbounds ({ [4 x i8*] }, { [4 x i8*] }* @_ZTVN14altered_carbon2js9JsVariantE, i32 0, inrange i32 0, i32 2) to i32 (...)**), i32 (...)*** %32, align 8
  %33 = getelementptr inbounds %"class.altered_carbon::js::JsVariant", %"class.altered_carbon::js::JsVariant"* %ptr26, i32 0, i32 1
  store i32 1, i32* %33, align 8
  br label %param.bb

exec.bb:                                          ; preds = %pcase.bb
  br label %block

exit.bb:                                          ; preds = %blocke, %exit.bb16
  call void @_ZN14altered_carbon2js9JsVariantD1Ev(%"class.altered_carbon::js::JsVariant"* %ptr26)
  call void @_ZN14altered_carbon2js9JsVariantD1Ev(%"class.altered_carbon::js::JsVariant"* %ptr24)
  call void @_ZN14altered_carbon2js9JsVariantD1Ev(%"class.altered_carbon::js::JsVariant"* %ptr23)
  call void @_ZN14altered_carbon2js9JsVariantD1Ev(%"class.altered_carbon::js::JsVariant"* %ptr22)
  call void @_ZN14altered_carbon2js9JsVariantD1Ev(%"class.altered_carbon::js::JsVariant"* %ptr21)
  call void @_ZN14altered_carbon2js9JsVariantD1Ev(%"class.altered_carbon::js::JsVariant"* %ptr18)
  call void @_ZN14altered_carbon2js9JsVariantD1Ev(%"class.altered_carbon::js::JsVariant"* %ptr17)
  call void @_ZN14altered_carbon2js9JsVariantD1Ev(%"class.altered_carbon::js::JsVariant"* %ptr15)
  call void @_ZN14altered_carbon2js9JsVariantD1Ev(%"class.altered_carbon::js::JsVariant"* %ptr14)
  call void @_ZN14altered_carbon2js9JsVariantD1Ev(%"class.altered_carbon::js::JsVariant"* %ptr13)
  call void @_ZN14altered_carbon2js9JsVariantD1Ev(%"class.altered_carbon::js::JsVariant"* %ptr12)
  call void @_ZN14altered_carbon2js9JsVariantD1Ev(%"class.altered_carbon::js::JsVariant"* %ptr11)
  call void @_ZN14altered_carbon2js9JsVariantD1Ev(%"class.altered_carbon::js::JsVariant"* %ptr9)
  call void @_ZN14altered_carbon2js9JsVariantD1Ev(%"class.altered_carbon::js::JsVariant"* %ptr7)
  call void @_ZN14altered_carbon2js9JsVariantD1Ev(%"class.altered_carbon::js::JsVariant"* %ptr5)
  ret void

param.bb:                                         ; preds = %init.bb
  switch i64 %3, label %pcase.bb4 [
    i64 3, label %pcase.bb3
    i64 2, label %pcase.bb2
    i64 1, label %pcase.bb1
    i64 0, label %pcase.bb
  ]

pcase.bb:                                         ; preds = %pcase.bb1, %param.bb
  br label %exec.bb

pcase.bb1:                                        ; preds = %pcase.bb2, %param.bb
  %34 = getelementptr inbounds %"class.altered_carbon::js::JsVariant"*, %"class.altered_carbon::js::JsVariant"** %2, i64 0
  %35 = load %"class.altered_carbon::js::JsVariant"*, %"class.altered_carbon::js::JsVariant"** %34, align 8
  store %"class.altered_carbon::js::JsVariant"* %35, %"class.altered_carbon::js::JsVariant"** %ptr10, align 8
  %36 = load %"class.altered_carbon::js::JsVariant"*, %"class.altered_carbon::js::JsVariant"** %ptr10, align 8
  %37 = call %"class.altered_carbon::js::JsVariant"* @_ZN14altered_carbon2js9JsVariantaSERKS1_(%"class.altered_carbon::js::JsVariant"* %ptr11, %"class.altered_carbon::js::JsVariant"* %36)
  br label %pcase.bb

pcase.bb2:                                        ; preds = %pcase.bb3, %param.bb
  %38 = getelementptr inbounds %"class.altered_carbon::js::JsVariant"*, %"class.altered_carbon::js::JsVariant"** %2, i64 1
  %39 = load %"class.altered_carbon::js::JsVariant"*, %"class.altered_carbon::js::JsVariant"** %38, align 8
  store %"class.altered_carbon::js::JsVariant"* %39, %"class.altered_carbon::js::JsVariant"** %ptr8, align 8
  %40 = load %"class.altered_carbon::js::JsVariant"*, %"class.altered_carbon::js::JsVariant"** %ptr8, align 8
  %41 = call %"class.altered_carbon::js::JsVariant"* @_ZN14altered_carbon2js9JsVariantaSERKS1_(%"class.altered_carbon::js::JsVariant"* %ptr9, %"class.altered_carbon::js::JsVariant"* %40)
  br label %pcase.bb1

pcase.bb3:                                        ; preds = %pcase.bb4, %param.bb
  %42 = getelementptr inbounds %"class.altered_carbon::js::JsVariant"*, %"class.altered_carbon::js::JsVariant"** %2, i64 2
  %43 = load %"class.altered_carbon::js::JsVariant"*, %"class.altered_carbon::js::JsVariant"** %42, align 8
  store %"class.altered_carbon::js::JsVariant"* %43, %"class.altered_carbon::js::JsVariant"** %ptr6, align 8
  %44 = load %"class.altered_carbon::js::JsVariant"*, %"class.altered_carbon::js::JsVariant"** %ptr6, align 8
  %45 = call %"class.altered_carbon::js::JsVariant"* @_ZN14altered_carbon2js9JsVariantaSERKS1_(%"class.altered_carbon::js::JsVariant"* %ptr7, %"class.altered_carbon::js::JsVariant"* %44)
  br label %pcase.bb2

pcase.bb4:                                        ; preds = %param.bb
  %46 = getelementptr inbounds %"class.altered_carbon::js::JsVariant"*, %"class.altered_carbon::js::JsVariant"** %2, i64 3
  %47 = load %"class.altered_carbon::js::JsVariant"*, %"class.altered_carbon::js::JsVariant"** %46, align 8
  store %"class.altered_carbon::js::JsVariant"* %47, %"class.altered_carbon::js::JsVariant"** %ptr, align 8
  %48 = load %"class.altered_carbon::js::JsVariant"*, %"class.altered_carbon::js::JsVariant"** %ptr, align 8
  %49 = call %"class.altered_carbon::js::JsVariant"* @_ZN14altered_carbon2js9JsVariantaSERKS1_(%"class.altered_carbon::js::JsVariant"* %ptr5, %"class.altered_carbon::js::JsVariant"* %48)
  br label %pcase.bb3

block:                                            ; preds = %exec.bb
  call void @_ZNK14altered_carbon2js9JsVariantixERS1_(%"class.altered_carbon::js::JsVariant"* %ptr12, %"class.altered_carbon::js::JsVariant"* %ptr11, %"class.altered_carbon::js::JsVariant"* %ptr9)
  %50 = call %"class.altered_carbon::js::JsVariant"* @_ZN14altered_carbon2js9JsVariantaSERKS1_(%"class.altered_carbon::js::JsVariant"* %ptr13, %"class.altered_carbon::js::JsVariant"* %ptr12)
  %51 = call %"class.altered_carbon::js::JsVariant"* @_ZN14altered_carbon2js9JsVariantaSERKS1_(%"class.altered_carbon::js::JsVariant"* %ptr14, %"class.altered_carbon::js::JsVariant"* %ptr7)
  %52 = call %"class.altered_carbon::js::JsVariant"* @_ZN14altered_carbon2js9JsVariantaSERKS1_(%"class.altered_carbon::js::JsVariant"* %ptr15, %"class.altered_carbon::js::JsVariant"* %ptr7)
  br label %cond.bb

for.bb:                                           ; preds = %cond.bb
  call void @_ZNK14altered_carbon2js9JsVariantixERS1_(%"class.altered_carbon::js::JsVariant"* %ptr17, %"class.altered_carbon::js::JsVariant"* %ptr11, %"class.altered_carbon::js::JsVariant"* %ptr15)
  %53 = call i1 @_ZNK14altered_carbon2js9JsVariantltERKS1_(%"class.altered_carbon::js::JsVariant"* %ptr17, %"class.altered_carbon::js::JsVariant"* %ptr13)
  br i1 %53, label %ret.lhs, label %ret.rhs

inc.bb:                                           ; preds = %ret.op
  call void @_ZN14altered_carbon2js9JsVariantppEi(%"class.altered_carbon::js::JsVariant"* %ptr23, %"class.altered_carbon::js::JsVariant"* %ptr15, i32 0)
  br label %cond.bb

exit.bb16:                                        ; preds = %cond.bb
  %54 = getelementptr inbounds [3 x %"class.altered_carbon::js::JsVariant"*], [3 x %"class.altered_carbon::js::JsVariant"*]* %ptr25, i32 0, i32 0
  %55 = getelementptr inbounds %"class.altered_carbon::js::JsVariant"*, %"class.altered_carbon::js::JsVariant"** %54, i64 0
  store %"class.altered_carbon::js::JsVariant"* %ptr11, %"class.altered_carbon::js::JsVariant"** %55, align 8
  %56 = getelementptr inbounds %"class.altered_carbon::js::JsVariant"*, %"class.altered_carbon::js::JsVariant"** %54, i64 1
  store %"class.altered_carbon::js::JsVariant"* %ptr5, %"class.altered_carbon::js::JsVariant"** %56, align 8
  %57 = getelementptr inbounds %"class.altered_carbon::js::JsVariant"*, %"class.altered_carbon::js::JsVariant"** %54, i64 2
  store %"class.altered_carbon::js::JsVariant"* %ptr14, %"class.altered_carbon::js::JsVariant"** %57, align 8
  call void @_ZN3_js4swapEPN14altered_carbon2js9JsVariantEN4llvm8ArrayRefIS3_EE(%"class.altered_carbon::js::JsVariant"* %ptr26, %"class.altered_carbon::js::JsVariant"* null, %"class.altered_carbon::js::JsVariant"** %54, i64 3)
  %58 = call %"class.altered_carbon::js::JsVariant"* @_ZN14altered_carbon2js9JsVariantaSERKS1_(%"class.altered_carbon::js::JsVariant"* %0, %"class.altered_carbon::js::JsVariant"* %ptr14)
  br label %exit.bb

cond.bb:                                          ; preds = %inc.bb, %block
  %59 = call i1 @_ZNK14altered_carbon2js9JsVariantltERKS1_(%"class.altered_carbon::js::JsVariant"* %ptr15, %"class.altered_carbon::js::JsVariant"* %ptr5)
  br i1 %59, label %for.bb, label %exit.bb16

ret.lhs:                                          ; preds = %for.bb
  br label %block19

ret.rhs:                                          ; preds = %for.bb
  br label %ret.op

ret.op:                                           ; preds = %block19e, %ret.rhs
  br label %inc.bb

block19:                                          ; preds = %ret.lhs
  %60 = getelementptr inbounds [3 x %"class.altered_carbon::js::JsVariant"*], [3 x %"class.altered_carbon::js::JsVariant"*]* %ptr20, i32 0, i32 0
  %61 = getelementptr inbounds %"class.altered_carbon::js::JsVariant"*, %"class.altered_carbon::js::JsVariant"** %60, i64 0
  store %"class.altered_carbon::js::JsVariant"* %ptr11, %"class.altered_carbon::js::JsVariant"** %61, align 8
  %62 = getelementptr inbounds %"class.altered_carbon::js::JsVariant"*, %"class.altered_carbon::js::JsVariant"** %60, i64 1
  store %"class.altered_carbon::js::JsVariant"* %ptr15, %"class.altered_carbon::js::JsVariant"** %62, align 8
  %63 = getelementptr inbounds %"class.altered_carbon::js::JsVariant"*, %"class.altered_carbon::js::JsVariant"** %60, i64 2
  store %"class.altered_carbon::js::JsVariant"* %ptr14, %"class.altered_carbon::js::JsVariant"** %63, align 8
  call void @_ZN3_js4swapEPN14altered_carbon2js9JsVariantEN4llvm8ArrayRefIS3_EE(%"class.altered_carbon::js::JsVariant"* %ptr21, %"class.altered_carbon::js::JsVariant"* null, %"class.altered_carbon::js::JsVariant"** %60, i64 3)
  call void @_ZN14altered_carbon2js9JsVariantppEi(%"class.altered_carbon::js::JsVariant"* %ptr22, %"class.altered_carbon::js::JsVariant"* %ptr14, i32 0)
  br label %block19e

block19e:                                         ; preds = %block19
  br label %ret.op

blocke:                                           ; No predecessors!
  br label %exit.bb
}

define void @_ZN3_js4swapEPN14altered_carbon2js9JsVariantEN4llvm8ArrayRefIS3_EE(%"class.altered_carbon::js::JsVariant"* noalias sret, %"class.altered_carbon::js::JsVariant"*, %"class.altered_carbon::js::JsVariant"**, i64) {
init.bb:
  %ptr = alloca %"class.altered_carbon::js::JsVariant"*, align 8
  %ptr4 = alloca %"class.altered_carbon::js::JsVariant", align 8
  %4 = bitcast %"class.altered_carbon::js::JsVariant"* %ptr4 to i32 (...)***
  store i32 (...)** bitcast (i8** getelementptr inbounds ({ [4 x i8*] }, { [4 x i8*] }* @_ZTVN14altered_carbon2js9JsVariantE, i32 0, inrange i32 0, i32 2) to i32 (...)**), i32 (...)*** %4, align 8
  %5 = getelementptr inbounds %"class.altered_carbon::js::JsVariant", %"class.altered_carbon::js::JsVariant"* %ptr4, i32 0, i32 1
  store i32 1, i32* %5, align 8
  %ptr5 = alloca %"class.altered_carbon::js::JsVariant"*, align 8
  %ptr6 = alloca %"class.altered_carbon::js::JsVariant", align 8
  %6 = bitcast %"class.altered_carbon::js::JsVariant"* %ptr6 to i32 (...)***
  store i32 (...)** bitcast (i8** getelementptr inbounds ({ [4 x i8*] }, { [4 x i8*] }* @_ZTVN14altered_carbon2js9JsVariantE, i32 0, inrange i32 0, i32 2) to i32 (...)**), i32 (...)*** %6, align 8
  %7 = getelementptr inbounds %"class.altered_carbon::js::JsVariant", %"class.altered_carbon::js::JsVariant"* %ptr6, i32 0, i32 1
  store i32 1, i32* %7, align 8
  %ptr7 = alloca %"class.altered_carbon::js::JsVariant"*, align 8
  %ptr8 = alloca %"class.altered_carbon::js::JsVariant", align 8
  %8 = bitcast %"class.altered_carbon::js::JsVariant"* %ptr8 to i32 (...)***
  store i32 (...)** bitcast (i8** getelementptr inbounds ({ [4 x i8*] }, { [4 x i8*] }* @_ZTVN14altered_carbon2js9JsVariantE, i32 0, inrange i32 0, i32 2) to i32 (...)**), i32 (...)*** %8, align 8
  %9 = getelementptr inbounds %"class.altered_carbon::js::JsVariant", %"class.altered_carbon::js::JsVariant"* %ptr8, i32 0, i32 1
  store i32 1, i32* %9, align 8
  %ptr9 = alloca %"class.altered_carbon::js::JsVariant", align 8
  %10 = bitcast %"class.altered_carbon::js::JsVariant"* %ptr9 to i32 (...)***
  store i32 (...)** bitcast (i8** getelementptr inbounds ({ [4 x i8*] }, { [4 x i8*] }* @_ZTVN14altered_carbon2js9JsVariantE, i32 0, inrange i32 0, i32 2) to i32 (...)**), i32 (...)*** %10, align 8
  %11 = getelementptr inbounds %"class.altered_carbon::js::JsVariant", %"class.altered_carbon::js::JsVariant"* %ptr9, i32 0, i32 1
  store i32 1, i32* %11, align 8
  %ptr10 = alloca %"class.altered_carbon::js::JsVariant", align 8
  %12 = bitcast %"class.altered_carbon::js::JsVariant"* %ptr10 to i32 (...)***
  store i32 (...)** bitcast (i8** getelementptr inbounds ({ [4 x i8*] }, { [4 x i8*] }* @_ZTVN14altered_carbon2js9JsVariantE, i32 0, inrange i32 0, i32 2) to i32 (...)**), i32 (...)*** %12, align 8
  %13 = getelementptr inbounds %"class.altered_carbon::js::JsVariant", %"class.altered_carbon::js::JsVariant"* %ptr10, i32 0, i32 1
  store i32 1, i32* %13, align 8
  %ptr11 = alloca %"class.altered_carbon::js::JsVariant", align 8
  %14 = bitcast %"class.altered_carbon::js::JsVariant"* %ptr11 to i32 (...)***
  store i32 (...)** bitcast (i8** getelementptr inbounds ({ [4 x i8*] }, { [4 x i8*] }* @_ZTVN14altered_carbon2js9JsVariantE, i32 0, inrange i32 0, i32 2) to i32 (...)**), i32 (...)*** %14, align 8
  %15 = getelementptr inbounds %"class.altered_carbon::js::JsVariant", %"class.altered_carbon::js::JsVariant"* %ptr11, i32 0, i32 1
  store i32 1, i32* %15, align 8
  %ptr12 = alloca %"class.altered_carbon::js::JsVariant", align 8
  %16 = bitcast %"class.altered_carbon::js::JsVariant"* %ptr12 to i32 (...)***
  store i32 (...)** bitcast (i8** getelementptr inbounds ({ [4 x i8*] }, { [4 x i8*] }* @_ZTVN14altered_carbon2js9JsVariantE, i32 0, inrange i32 0, i32 2) to i32 (...)**), i32 (...)*** %16, align 8
  %17 = getelementptr inbounds %"class.altered_carbon::js::JsVariant", %"class.altered_carbon::js::JsVariant"* %ptr12, i32 0, i32 1
  store i32 1, i32* %17, align 8
  %ptr16 = alloca %"class.altered_carbon::js::JsVariant", align 8
  %18 = bitcast %"class.altered_carbon::js::JsVariant"* %ptr16 to i32 (...)***
  store i32 (...)** bitcast (i8** getelementptr inbounds ({ [4 x i8*] }, { [4 x i8*] }* @_ZTVN14altered_carbon2js9JsVariantE, i32 0, inrange i32 0, i32 2) to i32 (...)**), i32 (...)*** %18, align 8
  %19 = getelementptr inbounds %"class.altered_carbon::js::JsVariant", %"class.altered_carbon::js::JsVariant"* %ptr16, i32 0, i32 1
  store i32 1, i32* %19, align 8
  br label %param.bb

exec.bb:                                          ; preds = %pcase.bb
  br label %block

exit.bb:                                          ; preds = %blocke
  call void @_ZN14altered_carbon2js9JsVariantD1Ev(%"class.altered_carbon::js::JsVariant"* %ptr16)
  call void @_ZN14altered_carbon2js9JsVariantD1Ev(%"class.altered_carbon::js::JsVariant"* %ptr12)
  call void @_ZN14altered_carbon2js9JsVariantD1Ev(%"class.altered_carbon::js::JsVariant"* %ptr11)
  call void @_ZN14altered_carbon2js9JsVariantD1Ev(%"class.altered_carbon::js::JsVariant"* %ptr10)
  call void @_ZN14altered_carbon2js9JsVariantD1Ev(%"class.altered_carbon::js::JsVariant"* %ptr9)
  call void @_ZN14altered_carbon2js9JsVariantD1Ev(%"class.altered_carbon::js::JsVariant"* %ptr8)
  call void @_ZN14altered_carbon2js9JsVariantD1Ev(%"class.altered_carbon::js::JsVariant"* %ptr6)
  call void @_ZN14altered_carbon2js9JsVariantD1Ev(%"class.altered_carbon::js::JsVariant"* %ptr4)
  ret void

param.bb:                                         ; preds = %init.bb
  switch i64 %3, label %pcase.bb3 [
    i64 2, label %pcase.bb2
    i64 1, label %pcase.bb1
    i64 0, label %pcase.bb
  ]

pcase.bb:                                         ; preds = %pcase.bb1, %param.bb
  br label %exec.bb

pcase.bb1:                                        ; preds = %pcase.bb2, %param.bb
  %20 = getelementptr inbounds %"class.altered_carbon::js::JsVariant"*, %"class.altered_carbon::js::JsVariant"** %2, i64 0
  %21 = load %"class.altered_carbon::js::JsVariant"*, %"class.altered_carbon::js::JsVariant"** %20, align 8
  store %"class.altered_carbon::js::JsVariant"* %21, %"class.altered_carbon::js::JsVariant"** %ptr7, align 8
  %22 = load %"class.altered_carbon::js::JsVariant"*, %"class.altered_carbon::js::JsVariant"** %ptr7, align 8
  %23 = call %"class.altered_carbon::js::JsVariant"* @_ZN14altered_carbon2js9JsVariantaSERKS1_(%"class.altered_carbon::js::JsVariant"* %ptr8, %"class.altered_carbon::js::JsVariant"* %22)
  br label %pcase.bb

pcase.bb2:                                        ; preds = %pcase.bb3, %param.bb
  %24 = getelementptr inbounds %"class.altered_carbon::js::JsVariant"*, %"class.altered_carbon::js::JsVariant"** %2, i64 1
  %25 = load %"class.altered_carbon::js::JsVariant"*, %"class.altered_carbon::js::JsVariant"** %24, align 8
  store %"class.altered_carbon::js::JsVariant"* %25, %"class.altered_carbon::js::JsVariant"** %ptr5, align 8
  %26 = load %"class.altered_carbon::js::JsVariant"*, %"class.altered_carbon::js::JsVariant"** %ptr5, align 8
  %27 = call %"class.altered_carbon::js::JsVariant"* @_ZN14altered_carbon2js9JsVariantaSERKS1_(%"class.altered_carbon::js::JsVariant"* %ptr6, %"class.altered_carbon::js::JsVariant"* %26)
  br label %pcase.bb1

pcase.bb3:                                        ; preds = %param.bb
  %28 = getelementptr inbounds %"class.altered_carbon::js::JsVariant"*, %"class.altered_carbon::js::JsVariant"** %2, i64 2
  %29 = load %"class.altered_carbon::js::JsVariant"*, %"class.altered_carbon::js::JsVariant"** %28, align 8
  store %"class.altered_carbon::js::JsVariant"* %29, %"class.altered_carbon::js::JsVariant"** %ptr, align 8
  %30 = load %"class.altered_carbon::js::JsVariant"*, %"class.altered_carbon::js::JsVariant"** %ptr, align 8
  %31 = call %"class.altered_carbon::js::JsVariant"* @_ZN14altered_carbon2js9JsVariantaSERKS1_(%"class.altered_carbon::js::JsVariant"* %ptr4, %"class.altered_carbon::js::JsVariant"* %30)
  br label %pcase.bb2

block:                                            ; preds = %exec.bb
  call void @_ZNK14altered_carbon2js9JsVariantixERS1_(%"class.altered_carbon::js::JsVariant"* %ptr9, %"class.altered_carbon::js::JsVariant"* %ptr8, %"class.altered_carbon::js::JsVariant"* %ptr6)
  %32 = call %"class.altered_carbon::js::JsVariant"* @_ZN14altered_carbon2js9JsVariantaSERKS1_(%"class.altered_carbon::js::JsVariant"* %ptr10, %"class.altered_carbon::js::JsVariant"* %ptr9)
  call void @_ZNK14altered_carbon2js9JsVariantixERS1_(%"class.altered_carbon::js::JsVariant"* %ptr11, %"class.altered_carbon::js::JsVariant"* %ptr8, %"class.altered_carbon::js::JsVariant"* %ptr4)
  %33 = getelementptr inbounds %"class.altered_carbon::js::JsVariant", %"class.altered_carbon::js::JsVariant"* %ptr8, i32 0, i32 1
  %34 = load i32, i32* %33, align 8
  %35 = icmp eq i32 %34, 13
  %36 = icmp eq i32 %34, 11
  %37 = or i1 %35, %36
  %38 = icmp eq i32 %34, 14
  %39 = icmp eq i32 %34, 12
  %40 = or i1 %38, %39
  %41 = or i1 %37, %40
  br i1 %41, label %ixaccess.bb, label %ixonly.bb

ixaccess.bb:                                      ; preds = %block
  %42 = call %"class.altered_carbon::js::JsVariant"* @_ZN14altered_carbon2js9JsVariantixERS1_(%"class.altered_carbon::js::JsVariant"* %ptr8, %"class.altered_carbon::js::JsVariant"* %ptr6)
  br label %ixexit.bb

ixonly.bb:                                        ; preds = %block
  call void @_ZNK14altered_carbon2js9JsVariantixERS1_(%"class.altered_carbon::js::JsVariant"* %ptr12, %"class.altered_carbon::js::JsVariant"* %ptr8, %"class.altered_carbon::js::JsVariant"* %ptr6)
  br label %ixexit.bb

ixexit.bb:                                        ; preds = %ixonly.bb, %ixaccess.bb
  %subscript = phi %"class.altered_carbon::js::JsVariant"* [ %42, %ixaccess.bb ], [ %ptr12, %ixonly.bb ]
  %43 = call %"class.altered_carbon::js::JsVariant"* @_ZN14altered_carbon2js9JsVariantaSERKS1_(%"class.altered_carbon::js::JsVariant"* %subscript, %"class.altered_carbon::js::JsVariant"* %ptr11)
  %44 = getelementptr inbounds %"class.altered_carbon::js::JsVariant", %"class.altered_carbon::js::JsVariant"* %ptr8, i32 0, i32 1
  %45 = load i32, i32* %44, align 8
  %46 = icmp eq i32 %45, 13
  %47 = icmp eq i32 %45, 11
  %48 = or i1 %46, %47
  %49 = icmp eq i32 %45, 14
  %50 = icmp eq i32 %45, 12
  %51 = or i1 %49, %50
  %52 = or i1 %48, %51
  br i1 %52, label %ixaccess.bb13, label %ixonly.bb14

ixaccess.bb13:                                    ; preds = %ixexit.bb
  %53 = call %"class.altered_carbon::js::JsVariant"* @_ZN14altered_carbon2js9JsVariantixERS1_(%"class.altered_carbon::js::JsVariant"* %ptr8, %"class.altered_carbon::js::JsVariant"* %ptr4)
  br label %ixexit.bb15

ixonly.bb14:                                      ; preds = %ixexit.bb
  call void @_ZNK14altered_carbon2js9JsVariantixERS1_(%"class.altered_carbon::js::JsVariant"* %ptr16, %"class.altered_carbon::js::JsVariant"* %ptr8, %"class.altered_carbon::js::JsVariant"* %ptr4)
  br label %ixexit.bb15

ixexit.bb15:                                      ; preds = %ixonly.bb14, %ixaccess.bb13
  %subscript17 = phi %"class.altered_carbon::js::JsVariant"* [ %53, %ixaccess.bb13 ], [ %ptr16, %ixonly.bb14 ]
  %54 = call %"class.altered_carbon::js::JsVariant"* @_ZN14altered_carbon2js9JsVariantaSERKS1_(%"class.altered_carbon::js::JsVariant"* %subscript17, %"class.altered_carbon::js::JsVariant"* %ptr10)
  br label %blocke

blocke:                                           ; preds = %ixexit.bb15
  br label %exit.bb
}

; Function Attrs: noinline nounwind optnone ssp uwtable
define void @_ZN14altered_carbon2js11ACLexNumberC2Ev(%"class.altered_carbon::js::ACLexNumber"*) unnamed_addr #2 align 2 {
  %2 = alloca %"class.altered_carbon::js::ACLexNumber"*, align 8
  store %"class.altered_carbon::js::ACLexNumber"* %0, %"class.altered_carbon::js::ACLexNumber"** %2, align 8
  %3 = load %"class.altered_carbon::js::ACLexNumber"*, %"class.altered_carbon::js::ACLexNumber"** %2, align 8
  %4 = bitcast %"class.altered_carbon::js::ACLexNumber"* %3 to i32 (...)***
  store i32 (...)** bitcast (i8** getelementptr inbounds ({ [4 x i8*] }, { [4 x i8*] }* @_ZTVN14altered_carbon2js11ACLexNumberE, i32 0, inrange i32 0, i32 2) to i32 (...)**), i32 (...)*** %4, align 8
  %5 = getelementptr inbounds %"class.altered_carbon::js::ACLexNumber", %"class.altered_carbon::js::ACLexNumber"* %3, i32 0, i32 1
  store i8 1, i8* %5, align 8
  %6 = getelementptr inbounds %"class.altered_carbon::js::ACLexNumber", %"class.altered_carbon::js::ACLexNumber"* %3, i32 0, i32 2
  %7 = bitcast %union.anon.4* %6 to i64*
  store i64 0, i64* %7, align 8
  ret void
}

; Function Attrs: noinline nounwind optnone ssp uwtable
define linkonce_odr hidden void @_ZN14altered_carbon2js11ACLexNumberD1Ev(%"class.altered_carbon::js::ACLexNumber"*) unnamed_addr #2 align 2 {
  %2 = alloca %"class.altered_carbon::js::ACLexNumber"*, align 8
  store %"class.altered_carbon::js::ACLexNumber"* %0, %"class.altered_carbon::js::ACLexNumber"** %2, align 8
  %3 = load %"class.altered_carbon::js::ACLexNumber"*, %"class.altered_carbon::js::ACLexNumber"** %2, align 8
  call void @_ZN14altered_carbon2js11ACLexNumberD2Ev(%"class.altered_carbon::js::ACLexNumber"* %3) #9
  ret void
}

; Function Attrs: noinline nounwind optnone ssp uwtable
define linkonce_odr hidden void @_ZN14altered_carbon2js11ACLexNumberD0Ev(%"class.altered_carbon::js::ACLexNumber"*) unnamed_addr #2 align 2 {
  %2 = alloca %"class.altered_carbon::js::ACLexNumber"*, align 8
  store %"class.altered_carbon::js::ACLexNumber"* %0, %"class.altered_carbon::js::ACLexNumber"** %2, align 8
  %3 = load %"class.altered_carbon::js::ACLexNumber"*, %"class.altered_carbon::js::ACLexNumber"** %2, align 8
  call void @_ZN14altered_carbon2js11ACLexNumberD1Ev(%"class.altered_carbon::js::ACLexNumber"* %3) #9
  %4 = bitcast %"class.altered_carbon::js::ACLexNumber"* %3 to i8*
  call void @_ZdlPv(i8* %4) #13
  ret void
}

; Function Attrs: nobuiltin nounwind
declare void @_ZdlPv(i8*) #3

; Function Attrs: noinline nounwind optnone ssp uwtable
define linkonce_odr hidden void @_ZN14altered_carbon2js11ACLexNumberD2Ev(%"class.altered_carbon::js::ACLexNumber"*) unnamed_addr #2 align 2 {
  %2 = alloca %"class.altered_carbon::js::ACLexNumber"*, align 8
  store %"class.altered_carbon::js::ACLexNumber"* %0, %"class.altered_carbon::js::ACLexNumber"** %2, align 8
  %3 = load %"class.altered_carbon::js::ACLexNumber"*, %"class.altered_carbon::js::ACLexNumber"** %2, align 8
  %4 = bitcast %"class.altered_carbon::js::ACLexNumber"* %3 to i32 (...)***
  store i32 (...)** bitcast (i8** getelementptr inbounds ({ [4 x i8*] }, { [4 x i8*] }* @_ZTVN14altered_carbon2js11ACLexNumberE, i32 0, inrange i32 0, i32 2) to i32 (...)**), i32 (...)*** %4, align 8
  ret void
}

; Function Attrs: noinline nounwind optnone ssp uwtable
define void @_ZN14altered_carbon2js11ACLexNumberC1Ev(%"class.altered_carbon::js::ACLexNumber"*) unnamed_addr #2 align 2 {
  %2 = alloca %"class.altered_carbon::js::ACLexNumber"*, align 8
  store %"class.altered_carbon::js::ACLexNumber"* %0, %"class.altered_carbon::js::ACLexNumber"** %2, align 8
  %3 = load %"class.altered_carbon::js::ACLexNumber"*, %"class.altered_carbon::js::ACLexNumber"** %2, align 8
  call void @_ZN14altered_carbon2js11ACLexNumberC2Ev(%"class.altered_carbon::js::ACLexNumber"* %3)
  ret void
}

; Function Attrs: noinline nounwind optnone ssp uwtable
define void @_ZN14altered_carbon2js11ACLexNumberC2Ex(%"class.altered_carbon::js::ACLexNumber"*, i64) unnamed_addr #2 align 2 {
  %3 = alloca %"class.altered_carbon::js::ACLexNumber"*, align 8
  %4 = alloca i64, align 8
  store %"class.altered_carbon::js::ACLexNumber"* %0, %"class.altered_carbon::js::ACLexNumber"** %3, align 8
  store i64 %1, i64* %4, align 8
  %5 = load %"class.altered_carbon::js::ACLexNumber"*, %"class.altered_carbon::js::ACLexNumber"** %3, align 8
  %6 = bitcast %"class.altered_carbon::js::ACLexNumber"* %5 to i32 (...)***
  store i32 (...)** bitcast (i8** getelementptr inbounds ({ [4 x i8*] }, { [4 x i8*] }* @_ZTVN14altered_carbon2js11ACLexNumberE, i32 0, inrange i32 0, i32 2) to i32 (...)**), i32 (...)*** %6, align 8
  %7 = getelementptr inbounds %"class.altered_carbon::js::ACLexNumber", %"class.altered_carbon::js::ACLexNumber"* %5, i32 0, i32 1
  store i8 1, i8* %7, align 8
  %8 = getelementptr inbounds %"class.altered_carbon::js::ACLexNumber", %"class.altered_carbon::js::ACLexNumber"* %5, i32 0, i32 2
  %9 = bitcast %union.anon.4* %8 to i64*
  %10 = load i64, i64* %4, align 8
  store i64 %10, i64* %9, align 8
  ret void
}

; Function Attrs: noinline nounwind optnone ssp uwtable
define void @_ZN14altered_carbon2js11ACLexNumberC1Ex(%"class.altered_carbon::js::ACLexNumber"*, i64) unnamed_addr #2 align 2 {
  %3 = alloca %"class.altered_carbon::js::ACLexNumber"*, align 8
  %4 = alloca i64, align 8
  store %"class.altered_carbon::js::ACLexNumber"* %0, %"class.altered_carbon::js::ACLexNumber"** %3, align 8
  store i64 %1, i64* %4, align 8
  %5 = load %"class.altered_carbon::js::ACLexNumber"*, %"class.altered_carbon::js::ACLexNumber"** %3, align 8
  %6 = load i64, i64* %4, align 8
  call void @_ZN14altered_carbon2js11ACLexNumberC2Ex(%"class.altered_carbon::js::ACLexNumber"* %5, i64 %6)
  ret void
}

; Function Attrs: noinline nounwind optnone ssp uwtable
define void @_ZN14altered_carbon2js11ACLexNumberC2Ed(%"class.altered_carbon::js::ACLexNumber"*, double) unnamed_addr #2 align 2 {
  %3 = alloca %"class.altered_carbon::js::ACLexNumber"*, align 8
  %4 = alloca double, align 8
  store %"class.altered_carbon::js::ACLexNumber"* %0, %"class.altered_carbon::js::ACLexNumber"** %3, align 8
  store double %1, double* %4, align 8
  %5 = load %"class.altered_carbon::js::ACLexNumber"*, %"class.altered_carbon::js::ACLexNumber"** %3, align 8
  %6 = bitcast %"class.altered_carbon::js::ACLexNumber"* %5 to i32 (...)***
  store i32 (...)** bitcast (i8** getelementptr inbounds ({ [4 x i8*] }, { [4 x i8*] }* @_ZTVN14altered_carbon2js11ACLexNumberE, i32 0, inrange i32 0, i32 2) to i32 (...)**), i32 (...)*** %6, align 8
  %7 = getelementptr inbounds %"class.altered_carbon::js::ACLexNumber", %"class.altered_carbon::js::ACLexNumber"* %5, i32 0, i32 1
  store i8 0, i8* %7, align 8
  %8 = getelementptr inbounds %"class.altered_carbon::js::ACLexNumber", %"class.altered_carbon::js::ACLexNumber"* %5, i32 0, i32 2
  %9 = bitcast %union.anon.4* %8 to double*
  %10 = load double, double* %4, align 8
  store double %10, double* %9, align 8
  ret void
}

; Function Attrs: noinline nounwind optnone ssp uwtable
define void @_ZN14altered_carbon2js11ACLexNumberC1Ed(%"class.altered_carbon::js::ACLexNumber"*, double) unnamed_addr #2 align 2 {
  %3 = alloca %"class.altered_carbon::js::ACLexNumber"*, align 8
  %4 = alloca double, align 8
  store %"class.altered_carbon::js::ACLexNumber"* %0, %"class.altered_carbon::js::ACLexNumber"** %3, align 8
  store double %1, double* %4, align 8
  %5 = load %"class.altered_carbon::js::ACLexNumber"*, %"class.altered_carbon::js::ACLexNumber"** %3, align 8
  %6 = load double, double* %4, align 8
  call void @_ZN14altered_carbon2js11ACLexNumberC2Ed(%"class.altered_carbon::js::ACLexNumber"* %5, double %6)
  ret void
}

; Function Attrs: noinline nounwind optnone ssp uwtable
define void @_ZN14altered_carbon2js11ACLexNumberC2ERKS1_(%"class.altered_carbon::js::ACLexNumber"*, %"class.altered_carbon::js::ACLexNumber"* dereferenceable(24)) unnamed_addr #2 align 2 {
  %3 = alloca %"class.altered_carbon::js::ACLexNumber"*, align 8
  %4 = alloca %"class.altered_carbon::js::ACLexNumber"*, align 8
  store %"class.altered_carbon::js::ACLexNumber"* %0, %"class.altered_carbon::js::ACLexNumber"** %3, align 8
  store %"class.altered_carbon::js::ACLexNumber"* %1, %"class.altered_carbon::js::ACLexNumber"** %4, align 8
  %5 = load %"class.altered_carbon::js::ACLexNumber"*, %"class.altered_carbon::js::ACLexNumber"** %3, align 8
  %6 = bitcast %"class.altered_carbon::js::ACLexNumber"* %5 to i32 (...)***
  store i32 (...)** bitcast (i8** getelementptr inbounds ({ [4 x i8*] }, { [4 x i8*] }* @_ZTVN14altered_carbon2js11ACLexNumberE, i32 0, inrange i32 0, i32 2) to i32 (...)**), i32 (...)*** %6, align 8
  %7 = load %"class.altered_carbon::js::ACLexNumber"*, %"class.altered_carbon::js::ACLexNumber"** %4, align 8
  %8 = call dereferenceable(24) %"class.altered_carbon::js::ACLexNumber"* @_ZN14altered_carbon2js11ACLexNumberaSERKS1_(%"class.altered_carbon::js::ACLexNumber"* %5, %"class.altered_carbon::js::ACLexNumber"* dereferenceable(24) %7)
  ret void
}

; Function Attrs: noinline nounwind optnone ssp uwtable
define dereferenceable(24) %"class.altered_carbon::js::ACLexNumber"* @_ZN14altered_carbon2js11ACLexNumberaSERKS1_(%"class.altered_carbon::js::ACLexNumber"*, %"class.altered_carbon::js::ACLexNumber"* dereferenceable(24)) #2 align 2 {
  %3 = alloca %"class.altered_carbon::js::ACLexNumber"*, align 8
  %4 = alloca %"class.altered_carbon::js::ACLexNumber"*, align 8
  %5 = alloca %"class.altered_carbon::js::ACLexNumber"*, align 8
  store %"class.altered_carbon::js::ACLexNumber"* %0, %"class.altered_carbon::js::ACLexNumber"** %4, align 8
  store %"class.altered_carbon::js::ACLexNumber"* %1, %"class.altered_carbon::js::ACLexNumber"** %5, align 8
  %6 = load %"class.altered_carbon::js::ACLexNumber"*, %"class.altered_carbon::js::ACLexNumber"** %4, align 8
  %7 = load %"class.altered_carbon::js::ACLexNumber"*, %"class.altered_carbon::js::ACLexNumber"** %5, align 8
  %8 = getelementptr inbounds %"class.altered_carbon::js::ACLexNumber", %"class.altered_carbon::js::ACLexNumber"* %7, i32 0, i32 1
  %9 = load i8, i8* %8, align 8
  %10 = trunc i8 %9 to i1
  br i1 %10, label %11, label %17

; <label>:11:                                     ; preds = %2
  %12 = load %"class.altered_carbon::js::ACLexNumber"*, %"class.altered_carbon::js::ACLexNumber"** %5, align 8
  %13 = getelementptr inbounds %"class.altered_carbon::js::ACLexNumber", %"class.altered_carbon::js::ACLexNumber"* %12, i32 0, i32 2
  %14 = bitcast %union.anon.4* %13 to i64*
  %15 = load i64, i64* %14, align 8
  %16 = call dereferenceable(24) %"class.altered_carbon::js::ACLexNumber"* @_ZN14altered_carbon2js11ACLexNumberaSEx(%"class.altered_carbon::js::ACLexNumber"* %6, i64 %15)
  store %"class.altered_carbon::js::ACLexNumber"* %16, %"class.altered_carbon::js::ACLexNumber"** %3, align 8
  br label %23

; <label>:17:                                     ; preds = %2
  %18 = load %"class.altered_carbon::js::ACLexNumber"*, %"class.altered_carbon::js::ACLexNumber"** %5, align 8
  %19 = getelementptr inbounds %"class.altered_carbon::js::ACLexNumber", %"class.altered_carbon::js::ACLexNumber"* %18, i32 0, i32 2
  %20 = bitcast %union.anon.4* %19 to double*
  %21 = load double, double* %20, align 8
  %22 = call dereferenceable(24) %"class.altered_carbon::js::ACLexNumber"* @_ZN14altered_carbon2js11ACLexNumberaSEd(%"class.altered_carbon::js::ACLexNumber"* %6, double %21)
  store %"class.altered_carbon::js::ACLexNumber"* %22, %"class.altered_carbon::js::ACLexNumber"** %3, align 8
  br label %23

; <label>:23:                                     ; preds = %17, %11
  %24 = load %"class.altered_carbon::js::ACLexNumber"*, %"class.altered_carbon::js::ACLexNumber"** %3, align 8
  ret %"class.altered_carbon::js::ACLexNumber"* %24
}

; Function Attrs: noinline nounwind optnone ssp uwtable
define dereferenceable(24) %"class.altered_carbon::js::ACLexNumber"* @_ZN14altered_carbon2js11ACLexNumberaSEx(%"class.altered_carbon::js::ACLexNumber"*, i64) #2 align 2 {
  %3 = alloca %"class.altered_carbon::js::ACLexNumber"*, align 8
  %4 = alloca i64, align 8
  store %"class.altered_carbon::js::ACLexNumber"* %0, %"class.altered_carbon::js::ACLexNumber"** %3, align 8
  store i64 %1, i64* %4, align 8
  %5 = load %"class.altered_carbon::js::ACLexNumber"*, %"class.altered_carbon::js::ACLexNumber"** %3, align 8
  %6 = getelementptr inbounds %"class.altered_carbon::js::ACLexNumber", %"class.altered_carbon::js::ACLexNumber"* %5, i32 0, i32 1
  store i8 1, i8* %6, align 8
  %7 = load i64, i64* %4, align 8
  %8 = getelementptr inbounds %"class.altered_carbon::js::ACLexNumber", %"class.altered_carbon::js::ACLexNumber"* %5, i32 0, i32 2
  %9 = bitcast %union.anon.4* %8 to i64*
  store i64 %7, i64* %9, align 8
  ret %"class.altered_carbon::js::ACLexNumber"* %5
}

; Function Attrs: noinline nounwind optnone ssp uwtable
define dereferenceable(24) %"class.altered_carbon::js::ACLexNumber"* @_ZN14altered_carbon2js11ACLexNumberaSEd(%"class.altered_carbon::js::ACLexNumber"*, double) #2 align 2 {
  %3 = alloca %"class.altered_carbon::js::ACLexNumber"*, align 8
  %4 = alloca double, align 8
  store %"class.altered_carbon::js::ACLexNumber"* %0, %"class.altered_carbon::js::ACLexNumber"** %3, align 8
  store double %1, double* %4, align 8
  %5 = load %"class.altered_carbon::js::ACLexNumber"*, %"class.altered_carbon::js::ACLexNumber"** %3, align 8
  %6 = getelementptr inbounds %"class.altered_carbon::js::ACLexNumber", %"class.altered_carbon::js::ACLexNumber"* %5, i32 0, i32 1
  store i8 0, i8* %6, align 8
  %7 = load double, double* %4, align 8
  %8 = getelementptr inbounds %"class.altered_carbon::js::ACLexNumber", %"class.altered_carbon::js::ACLexNumber"* %5, i32 0, i32 2
  %9 = bitcast %union.anon.4* %8 to double*
  store double %7, double* %9, align 8
  ret %"class.altered_carbon::js::ACLexNumber"* %5
}

; Function Attrs: noinline nounwind optnone ssp uwtable
define void @_ZN14altered_carbon2js11ACLexNumberC1ERKS1_(%"class.altered_carbon::js::ACLexNumber"*, %"class.altered_carbon::js::ACLexNumber"* dereferenceable(24)) unnamed_addr #2 align 2 {
  %3 = alloca %"class.altered_carbon::js::ACLexNumber"*, align 8
  %4 = alloca %"class.altered_carbon::js::ACLexNumber"*, align 8
  store %"class.altered_carbon::js::ACLexNumber"* %0, %"class.altered_carbon::js::ACLexNumber"** %3, align 8
  store %"class.altered_carbon::js::ACLexNumber"* %1, %"class.altered_carbon::js::ACLexNumber"** %4, align 8
  %5 = load %"class.altered_carbon::js::ACLexNumber"*, %"class.altered_carbon::js::ACLexNumber"** %3, align 8
  %6 = load %"class.altered_carbon::js::ACLexNumber"*, %"class.altered_carbon::js::ACLexNumber"** %4, align 8
  call void @_ZN14altered_carbon2js11ACLexNumberC2ERKS1_(%"class.altered_carbon::js::ACLexNumber"* %5, %"class.altered_carbon::js::ACLexNumber"* dereferenceable(24) %6)
  ret void
}

; Function Attrs: noinline nounwind optnone ssp uwtable
define zeroext i1 @_ZNK14altered_carbon2js11ACLexNumbereqEx(%"class.altered_carbon::js::ACLexNumber"*, i64) #2 align 2 {
  %3 = alloca i1, align 1
  %4 = alloca %"class.altered_carbon::js::ACLexNumber"*, align 8
  %5 = alloca i64, align 8
  store %"class.altered_carbon::js::ACLexNumber"* %0, %"class.altered_carbon::js::ACLexNumber"** %4, align 8
  store i64 %1, i64* %5, align 8
  %6 = load %"class.altered_carbon::js::ACLexNumber"*, %"class.altered_carbon::js::ACLexNumber"** %4, align 8
  %7 = getelementptr inbounds %"class.altered_carbon::js::ACLexNumber", %"class.altered_carbon::js::ACLexNumber"* %6, i32 0, i32 1
  %8 = load i8, i8* %7, align 8
  %9 = trunc i8 %8 to i1
  br i1 %9, label %10, label %16

; <label>:10:                                     ; preds = %2
  %11 = getelementptr inbounds %"class.altered_carbon::js::ACLexNumber", %"class.altered_carbon::js::ACLexNumber"* %6, i32 0, i32 2
  %12 = bitcast %union.anon.4* %11 to i64*
  %13 = load i64, i64* %12, align 8
  %14 = load i64, i64* %5, align 8
  %15 = icmp eq i64 %13, %14
  store i1 %15, i1* %3, align 1
  br label %23

; <label>:16:                                     ; preds = %2
  %17 = getelementptr inbounds %"class.altered_carbon::js::ACLexNumber", %"class.altered_carbon::js::ACLexNumber"* %6, i32 0, i32 2
  %18 = bitcast %union.anon.4* %17 to double*
  %19 = load double, double* %18, align 8
  %20 = fptosi double %19 to i64
  %21 = load i64, i64* %5, align 8
  %22 = icmp eq i64 %20, %21
  store i1 %22, i1* %3, align 1
  br label %23

; <label>:23:                                     ; preds = %16, %10
  %24 = load i1, i1* %3, align 1
  ret i1 %24
}

; Function Attrs: noinline nounwind optnone ssp uwtable
define zeroext i1 @_ZNK14altered_carbon2js11ACLexNumbereqEd(%"class.altered_carbon::js::ACLexNumber"*, double) #2 align 2 {
  %3 = alloca i1, align 1
  %4 = alloca %"class.altered_carbon::js::ACLexNumber"*, align 8
  %5 = alloca double, align 8
  store %"class.altered_carbon::js::ACLexNumber"* %0, %"class.altered_carbon::js::ACLexNumber"** %4, align 8
  store double %1, double* %5, align 8
  %6 = load %"class.altered_carbon::js::ACLexNumber"*, %"class.altered_carbon::js::ACLexNumber"** %4, align 8
  %7 = getelementptr inbounds %"class.altered_carbon::js::ACLexNumber", %"class.altered_carbon::js::ACLexNumber"* %6, i32 0, i32 1
  %8 = load i8, i8* %7, align 8
  %9 = trunc i8 %8 to i1
  br i1 %9, label %10, label %17

; <label>:10:                                     ; preds = %2
  %11 = getelementptr inbounds %"class.altered_carbon::js::ACLexNumber", %"class.altered_carbon::js::ACLexNumber"* %6, i32 0, i32 2
  %12 = bitcast %union.anon.4* %11 to i64*
  %13 = load i64, i64* %12, align 8
  %14 = sitofp i64 %13 to double
  %15 = load double, double* %5, align 8
  %16 = fcmp oeq double %14, %15
  store i1 %16, i1* %3, align 1
  br label %23

; <label>:17:                                     ; preds = %2
  %18 = getelementptr inbounds %"class.altered_carbon::js::ACLexNumber", %"class.altered_carbon::js::ACLexNumber"* %6, i32 0, i32 2
  %19 = bitcast %union.anon.4* %18 to double*
  %20 = load double, double* %19, align 8
  %21 = load double, double* %5, align 8
  %22 = fcmp oeq double %20, %21
  store i1 %22, i1* %3, align 1
  br label %23

; <label>:23:                                     ; preds = %17, %10
  %24 = load i1, i1* %3, align 1
  ret i1 %24
}

; Function Attrs: noinline nounwind optnone ssp uwtable
define zeroext i1 @_ZNK14altered_carbon2js11ACLexNumbereqERKS1_(%"class.altered_carbon::js::ACLexNumber"*, %"class.altered_carbon::js::ACLexNumber"* dereferenceable(24)) #2 align 2 {
  %3 = alloca i1, align 1
  %4 = alloca %"class.altered_carbon::js::ACLexNumber"*, align 8
  %5 = alloca %"class.altered_carbon::js::ACLexNumber"*, align 8
  store %"class.altered_carbon::js::ACLexNumber"* %0, %"class.altered_carbon::js::ACLexNumber"** %4, align 8
  store %"class.altered_carbon::js::ACLexNumber"* %1, %"class.altered_carbon::js::ACLexNumber"** %5, align 8
  %6 = load %"class.altered_carbon::js::ACLexNumber"*, %"class.altered_carbon::js::ACLexNumber"** %4, align 8
  %7 = call zeroext i1 @_ZNK14altered_carbon2js11ACLexNumber5isNaNEv(%"class.altered_carbon::js::ACLexNumber"* %6)
  br i1 %7, label %11, label %8

; <label>:8:                                      ; preds = %2
  %9 = load %"class.altered_carbon::js::ACLexNumber"*, %"class.altered_carbon::js::ACLexNumber"** %5, align 8
  %10 = call zeroext i1 @_ZNK14altered_carbon2js11ACLexNumber5isNaNEv(%"class.altered_carbon::js::ACLexNumber"* %9)
  br i1 %10, label %11, label %12

; <label>:11:                                     ; preds = %8, %2
  store i1 false, i1* %3, align 1
  br label %25

; <label>:12:                                     ; preds = %8
  %13 = load %"class.altered_carbon::js::ACLexNumber"*, %"class.altered_carbon::js::ACLexNumber"** %5, align 8
  %14 = getelementptr inbounds %"class.altered_carbon::js::ACLexNumber", %"class.altered_carbon::js::ACLexNumber"* %13, i32 0, i32 1
  %15 = load i8, i8* %14, align 8
  %16 = trunc i8 %15 to i1
  br i1 %16, label %17, label %21

; <label>:17:                                     ; preds = %12
  %18 = load %"class.altered_carbon::js::ACLexNumber"*, %"class.altered_carbon::js::ACLexNumber"** %5, align 8
  %19 = call i64 @_ZNK14altered_carbon2js11ACLexNumber6getIntEv(%"class.altered_carbon::js::ACLexNumber"* %18)
  %20 = call zeroext i1 @_ZNK14altered_carbon2js11ACLexNumbereqEx(%"class.altered_carbon::js::ACLexNumber"* %6, i64 %19)
  store i1 %20, i1* %3, align 1
  br label %25

; <label>:21:                                     ; preds = %12
  %22 = load %"class.altered_carbon::js::ACLexNumber"*, %"class.altered_carbon::js::ACLexNumber"** %5, align 8
  %23 = call double @_ZNK14altered_carbon2js11ACLexNumber8getFloatEv(%"class.altered_carbon::js::ACLexNumber"* %22)
  %24 = call zeroext i1 @_ZNK14altered_carbon2js11ACLexNumbereqEd(%"class.altered_carbon::js::ACLexNumber"* %6, double %23)
  store i1 %24, i1* %3, align 1
  br label %25

; <label>:25:                                     ; preds = %21, %17, %11
  %26 = load i1, i1* %3, align 1
  ret i1 %26
}

; Function Attrs: noinline nounwind optnone ssp uwtable
define linkonce_odr hidden zeroext i1 @_ZNK14altered_carbon2js11ACLexNumber5isNaNEv(%"class.altered_carbon::js::ACLexNumber"*) #2 align 2 {
  %2 = alloca double, align 8
  %3 = alloca double, align 8
  %4 = alloca double, align 8
  %5 = alloca %"class.altered_carbon::js::ACLexNumber"*, align 8
  store %"class.altered_carbon::js::ACLexNumber"* %0, %"class.altered_carbon::js::ACLexNumber"** %5, align 8
  %6 = load %"class.altered_carbon::js::ACLexNumber"*, %"class.altered_carbon::js::ACLexNumber"** %5, align 8
  %7 = getelementptr inbounds %"class.altered_carbon::js::ACLexNumber", %"class.altered_carbon::js::ACLexNumber"* %6, i32 0, i32 1
  %8 = load i8, i8* %7, align 8
  %9 = trunc i8 %8 to i1
  br i1 %9, label %20, label %10

; <label>:10:                                     ; preds = %1
  %11 = getelementptr inbounds %"class.altered_carbon::js::ACLexNumber", %"class.altered_carbon::js::ACLexNumber"* %6, i32 0, i32 2
  %12 = bitcast %union.anon.4* %11 to double*
  %13 = load double, double* %12, align 8
  store double %13, double* %4, align 8
  %14 = load double, double* %4, align 8
  store double %14, double* %3, align 8
  %15 = load double, double* %3, align 8
  store double %15, double* %2, align 8
  %16 = load double, double* %2, align 8
  %17 = load double, double* %2, align 8
  %18 = fcmp une double %16, %17
  %19 = zext i1 %18 to i32
  br label %20

; <label>:20:                                     ; preds = %10, %1
  %21 = phi i1 [ false, %1 ], [ %18, %10 ]
  ret i1 %21
}

; Function Attrs: noinline nounwind optnone ssp uwtable
define linkonce_odr hidden i64 @_ZNK14altered_carbon2js11ACLexNumber6getIntEv(%"class.altered_carbon::js::ACLexNumber"*) #2 align 2 {
  %2 = alloca i64, align 8
  %3 = alloca %"class.altered_carbon::js::ACLexNumber"*, align 8
  store %"class.altered_carbon::js::ACLexNumber"* %0, %"class.altered_carbon::js::ACLexNumber"** %3, align 8
  %4 = load %"class.altered_carbon::js::ACLexNumber"*, %"class.altered_carbon::js::ACLexNumber"** %3, align 8
  %5 = call zeroext i1 @_ZNK14altered_carbon2js11ACLexNumber5isNaNEv(%"class.altered_carbon::js::ACLexNumber"* %4)
  br i1 %5, label %8, label %6

; <label>:6:                                      ; preds = %1
  %7 = call zeroext i1 @_ZNK14altered_carbon2js11ACLexNumber10isInfiniteEv(%"class.altered_carbon::js::ACLexNumber"* %4)
  br i1 %7, label %8, label %9

; <label>:8:                                      ; preds = %6, %1
  store i64 0, i64* %2, align 8
  br label %24

; <label>:9:                                      ; preds = %6
  %10 = getelementptr inbounds %"class.altered_carbon::js::ACLexNumber", %"class.altered_carbon::js::ACLexNumber"* %4, i32 0, i32 1
  %11 = load i8, i8* %10, align 8
  %12 = trunc i8 %11 to i1
  br i1 %12, label %13, label %17

; <label>:13:                                     ; preds = %9
  %14 = getelementptr inbounds %"class.altered_carbon::js::ACLexNumber", %"class.altered_carbon::js::ACLexNumber"* %4, i32 0, i32 2
  %15 = bitcast %union.anon.4* %14 to i64*
  %16 = load i64, i64* %15, align 8
  br label %22

; <label>:17:                                     ; preds = %9
  %18 = getelementptr inbounds %"class.altered_carbon::js::ACLexNumber", %"class.altered_carbon::js::ACLexNumber"* %4, i32 0, i32 2
  %19 = bitcast %union.anon.4* %18 to double*
  %20 = load double, double* %19, align 8
  %21 = fptosi double %20 to i64
  br label %22

; <label>:22:                                     ; preds = %17, %13
  %23 = phi i64 [ %16, %13 ], [ %21, %17 ]
  store i64 %23, i64* %2, align 8
  br label %24

; <label>:24:                                     ; preds = %22, %8
  %25 = load i64, i64* %2, align 8
  ret i64 %25
}

; Function Attrs: noinline nounwind optnone ssp uwtable
define linkonce_odr hidden double @_ZNK14altered_carbon2js11ACLexNumber8getFloatEv(%"class.altered_carbon::js::ACLexNumber"*) #2 align 2 {
  %2 = alloca %"class.altered_carbon::js::ACLexNumber"*, align 8
  store %"class.altered_carbon::js::ACLexNumber"* %0, %"class.altered_carbon::js::ACLexNumber"** %2, align 8
  %3 = load %"class.altered_carbon::js::ACLexNumber"*, %"class.altered_carbon::js::ACLexNumber"** %2, align 8
  %4 = getelementptr inbounds %"class.altered_carbon::js::ACLexNumber", %"class.altered_carbon::js::ACLexNumber"* %3, i32 0, i32 1
  %5 = load i8, i8* %4, align 8
  %6 = trunc i8 %5 to i1
  br i1 %6, label %7, label %12

; <label>:7:                                      ; preds = %1
  %8 = getelementptr inbounds %"class.altered_carbon::js::ACLexNumber", %"class.altered_carbon::js::ACLexNumber"* %3, i32 0, i32 2
  %9 = bitcast %union.anon.4* %8 to i64*
  %10 = load i64, i64* %9, align 8
  %11 = sitofp i64 %10 to double
  br label %16

; <label>:12:                                     ; preds = %1
  %13 = getelementptr inbounds %"class.altered_carbon::js::ACLexNumber", %"class.altered_carbon::js::ACLexNumber"* %3, i32 0, i32 2
  %14 = bitcast %union.anon.4* %13 to double*
  %15 = load double, double* %14, align 8
  br label %16

; <label>:16:                                     ; preds = %12, %7
  %17 = phi double [ %11, %7 ], [ %15, %12 ]
  ret double %17
}

; Function Attrs: noinline nounwind optnone ssp uwtable
define linkonce_odr hidden zeroext i1 @_ZNK14altered_carbon2js11ACLexNumber10isInfiniteEv(%"class.altered_carbon::js::ACLexNumber"*) #2 align 2 {
  %2 = alloca double, align 8
  %3 = alloca double, align 8
  %4 = alloca double, align 8
  %5 = alloca %"class.altered_carbon::js::ACLexNumber"*, align 8
  store %"class.altered_carbon::js::ACLexNumber"* %0, %"class.altered_carbon::js::ACLexNumber"** %5, align 8
  %6 = load %"class.altered_carbon::js::ACLexNumber"*, %"class.altered_carbon::js::ACLexNumber"** %5, align 8
  %7 = getelementptr inbounds %"class.altered_carbon::js::ACLexNumber", %"class.altered_carbon::js::ACLexNumber"* %6, i32 0, i32 1
  %8 = load i8, i8* %7, align 8
  %9 = trunc i8 %8 to i1
  br i1 %9, label %20, label %10

; <label>:10:                                     ; preds = %1
  %11 = getelementptr inbounds %"class.altered_carbon::js::ACLexNumber", %"class.altered_carbon::js::ACLexNumber"* %6, i32 0, i32 2
  %12 = bitcast %union.anon.4* %11 to double*
  %13 = load double, double* %12, align 8
  store double %13, double* %4, align 8
  %14 = load double, double* %4, align 8
  store double %14, double* %3, align 8
  %15 = load double, double* %3, align 8
  store double %15, double* %2, align 8
  %16 = load double, double* %2, align 8
  %17 = call double @llvm.fabs.f64(double %16) #9
  %18 = fcmp oeq double %17, 0x7FF0000000000000
  %19 = zext i1 %18 to i32
  br label %20

; <label>:20:                                     ; preds = %10, %1
  %21 = phi i1 [ false, %1 ], [ %18, %10 ]
  ret i1 %21
}

; Function Attrs: nounwind readnone speculatable
declare double @llvm.fabs.f64(double) #4

; Function Attrs: noinline nounwind optnone ssp uwtable
define zeroext i1 @_ZNK14altered_carbon2js11ACLexNumbergtERKS1_(%"class.altered_carbon::js::ACLexNumber"*, %"class.altered_carbon::js::ACLexNumber"* dereferenceable(24)) #2 align 2 {
  %3 = alloca i1, align 1
  %4 = alloca %"class.altered_carbon::js::ACLexNumber"*, align 8
  %5 = alloca %"class.altered_carbon::js::ACLexNumber"*, align 8
  store %"class.altered_carbon::js::ACLexNumber"* %0, %"class.altered_carbon::js::ACLexNumber"** %4, align 8
  store %"class.altered_carbon::js::ACLexNumber"* %1, %"class.altered_carbon::js::ACLexNumber"** %5, align 8
  %6 = load %"class.altered_carbon::js::ACLexNumber"*, %"class.altered_carbon::js::ACLexNumber"** %4, align 8
  %7 = call zeroext i1 @_ZNK14altered_carbon2js11ACLexNumber5isNaNEv(%"class.altered_carbon::js::ACLexNumber"* %6)
  br i1 %7, label %11, label %8

; <label>:8:                                      ; preds = %2
  %9 = load %"class.altered_carbon::js::ACLexNumber"*, %"class.altered_carbon::js::ACLexNumber"** %5, align 8
  %10 = call zeroext i1 @_ZNK14altered_carbon2js11ACLexNumber5isNaNEv(%"class.altered_carbon::js::ACLexNumber"* %9)
  br i1 %10, label %11, label %12

; <label>:11:                                     ; preds = %8, %2
  store i1 false, i1* %3, align 1
  br label %17

; <label>:12:                                     ; preds = %8
  %13 = call double @_ZNK14altered_carbon2js11ACLexNumber8getFloatEv(%"class.altered_carbon::js::ACLexNumber"* %6)
  %14 = load %"class.altered_carbon::js::ACLexNumber"*, %"class.altered_carbon::js::ACLexNumber"** %5, align 8
  %15 = call double @_ZNK14altered_carbon2js11ACLexNumber8getFloatEv(%"class.altered_carbon::js::ACLexNumber"* %14)
  %16 = fcmp ogt double %13, %15
  store i1 %16, i1* %3, align 1
  br label %17

; <label>:17:                                     ; preds = %12, %11
  %18 = load i1, i1* %3, align 1
  ret i1 %18
}

; Function Attrs: noinline nounwind optnone ssp uwtable
define zeroext i1 @_ZNK14altered_carbon2js11ACLexNumberltERKS1_(%"class.altered_carbon::js::ACLexNumber"*, %"class.altered_carbon::js::ACLexNumber"* dereferenceable(24)) #2 align 2 {
  %3 = alloca i1, align 1
  %4 = alloca %"class.altered_carbon::js::ACLexNumber"*, align 8
  %5 = alloca %"class.altered_carbon::js::ACLexNumber"*, align 8
  store %"class.altered_carbon::js::ACLexNumber"* %0, %"class.altered_carbon::js::ACLexNumber"** %4, align 8
  store %"class.altered_carbon::js::ACLexNumber"* %1, %"class.altered_carbon::js::ACLexNumber"** %5, align 8
  %6 = load %"class.altered_carbon::js::ACLexNumber"*, %"class.altered_carbon::js::ACLexNumber"** %4, align 8
  %7 = call zeroext i1 @_ZNK14altered_carbon2js11ACLexNumber5isNaNEv(%"class.altered_carbon::js::ACLexNumber"* %6)
  br i1 %7, label %11, label %8

; <label>:8:                                      ; preds = %2
  %9 = load %"class.altered_carbon::js::ACLexNumber"*, %"class.altered_carbon::js::ACLexNumber"** %5, align 8
  %10 = call zeroext i1 @_ZNK14altered_carbon2js11ACLexNumber5isNaNEv(%"class.altered_carbon::js::ACLexNumber"* %9)
  br i1 %10, label %11, label %12

; <label>:11:                                     ; preds = %8, %2
  store i1 false, i1* %3, align 1
  br label %17

; <label>:12:                                     ; preds = %8
  %13 = call double @_ZNK14altered_carbon2js11ACLexNumber8getFloatEv(%"class.altered_carbon::js::ACLexNumber"* %6)
  %14 = load %"class.altered_carbon::js::ACLexNumber"*, %"class.altered_carbon::js::ACLexNumber"** %5, align 8
  %15 = call double @_ZNK14altered_carbon2js11ACLexNumber8getFloatEv(%"class.altered_carbon::js::ACLexNumber"* %14)
  %16 = fcmp olt double %13, %15
  store i1 %16, i1* %3, align 1
  br label %17

; <label>:17:                                     ; preds = %12, %11
  %18 = load i1, i1* %3, align 1
  ret i1 %18
}

; Function Attrs: noinline nounwind optnone ssp uwtable
define zeroext i1 @_ZNK14altered_carbon2js11ACLexNumbergeERKS1_(%"class.altered_carbon::js::ACLexNumber"*, %"class.altered_carbon::js::ACLexNumber"* dereferenceable(24)) #2 align 2 {
  %3 = alloca i1, align 1
  %4 = alloca %"class.altered_carbon::js::ACLexNumber"*, align 8
  %5 = alloca %"class.altered_carbon::js::ACLexNumber"*, align 8
  store %"class.altered_carbon::js::ACLexNumber"* %0, %"class.altered_carbon::js::ACLexNumber"** %4, align 8
  store %"class.altered_carbon::js::ACLexNumber"* %1, %"class.altered_carbon::js::ACLexNumber"** %5, align 8
  %6 = load %"class.altered_carbon::js::ACLexNumber"*, %"class.altered_carbon::js::ACLexNumber"** %4, align 8
  %7 = call zeroext i1 @_ZNK14altered_carbon2js11ACLexNumber5isNaNEv(%"class.altered_carbon::js::ACLexNumber"* %6)
  br i1 %7, label %11, label %8

; <label>:8:                                      ; preds = %2
  %9 = load %"class.altered_carbon::js::ACLexNumber"*, %"class.altered_carbon::js::ACLexNumber"** %5, align 8
  %10 = call zeroext i1 @_ZNK14altered_carbon2js11ACLexNumber5isNaNEv(%"class.altered_carbon::js::ACLexNumber"* %9)
  br i1 %10, label %11, label %12

; <label>:11:                                     ; preds = %8, %2
  store i1 false, i1* %3, align 1
  br label %17

; <label>:12:                                     ; preds = %8
  %13 = call double @_ZNK14altered_carbon2js11ACLexNumber8getFloatEv(%"class.altered_carbon::js::ACLexNumber"* %6)
  %14 = load %"class.altered_carbon::js::ACLexNumber"*, %"class.altered_carbon::js::ACLexNumber"** %5, align 8
  %15 = call double @_ZNK14altered_carbon2js11ACLexNumber8getFloatEv(%"class.altered_carbon::js::ACLexNumber"* %14)
  %16 = fcmp oge double %13, %15
  store i1 %16, i1* %3, align 1
  br label %17

; <label>:17:                                     ; preds = %12, %11
  %18 = load i1, i1* %3, align 1
  ret i1 %18
}

; Function Attrs: noinline nounwind optnone ssp uwtable
define zeroext i1 @_ZNK14altered_carbon2js11ACLexNumberleERKS1_(%"class.altered_carbon::js::ACLexNumber"*, %"class.altered_carbon::js::ACLexNumber"* dereferenceable(24)) #2 align 2 {
  %3 = alloca i1, align 1
  %4 = alloca %"class.altered_carbon::js::ACLexNumber"*, align 8
  %5 = alloca %"class.altered_carbon::js::ACLexNumber"*, align 8
  store %"class.altered_carbon::js::ACLexNumber"* %0, %"class.altered_carbon::js::ACLexNumber"** %4, align 8
  store %"class.altered_carbon::js::ACLexNumber"* %1, %"class.altered_carbon::js::ACLexNumber"** %5, align 8
  %6 = load %"class.altered_carbon::js::ACLexNumber"*, %"class.altered_carbon::js::ACLexNumber"** %4, align 8
  %7 = call zeroext i1 @_ZNK14altered_carbon2js11ACLexNumber5isNaNEv(%"class.altered_carbon::js::ACLexNumber"* %6)
  br i1 %7, label %11, label %8

; <label>:8:                                      ; preds = %2
  %9 = load %"class.altered_carbon::js::ACLexNumber"*, %"class.altered_carbon::js::ACLexNumber"** %5, align 8
  %10 = call zeroext i1 @_ZNK14altered_carbon2js11ACLexNumber5isNaNEv(%"class.altered_carbon::js::ACLexNumber"* %9)
  br i1 %10, label %11, label %12

; <label>:11:                                     ; preds = %8, %2
  store i1 false, i1* %3, align 1
  br label %17

; <label>:12:                                     ; preds = %8
  %13 = call double @_ZNK14altered_carbon2js11ACLexNumber8getFloatEv(%"class.altered_carbon::js::ACLexNumber"* %6)
  %14 = load %"class.altered_carbon::js::ACLexNumber"*, %"class.altered_carbon::js::ACLexNumber"** %5, align 8
  %15 = call double @_ZNK14altered_carbon2js11ACLexNumber8getFloatEv(%"class.altered_carbon::js::ACLexNumber"* %14)
  %16 = fcmp ole double %13, %15
  store i1 %16, i1* %3, align 1
  br label %17

; <label>:17:                                     ; preds = %12, %11
  %18 = load i1, i1* %3, align 1
  ret i1 %18
}

; Function Attrs: noinline nounwind optnone ssp uwtable
define zeroext i1 @_ZNK14altered_carbon2js11ACLexNumberneERKS1_(%"class.altered_carbon::js::ACLexNumber"*, %"class.altered_carbon::js::ACLexNumber"* dereferenceable(24)) #2 align 2 {
  %3 = alloca i1, align 1
  %4 = alloca %"class.altered_carbon::js::ACLexNumber"*, align 8
  %5 = alloca %"class.altered_carbon::js::ACLexNumber"*, align 8
  store %"class.altered_carbon::js::ACLexNumber"* %0, %"class.altered_carbon::js::ACLexNumber"** %4, align 8
  store %"class.altered_carbon::js::ACLexNumber"* %1, %"class.altered_carbon::js::ACLexNumber"** %5, align 8
  %6 = load %"class.altered_carbon::js::ACLexNumber"*, %"class.altered_carbon::js::ACLexNumber"** %4, align 8
  %7 = call zeroext i1 @_ZNK14altered_carbon2js11ACLexNumber5isNaNEv(%"class.altered_carbon::js::ACLexNumber"* %6)
  br i1 %7, label %11, label %8

; <label>:8:                                      ; preds = %2
  %9 = load %"class.altered_carbon::js::ACLexNumber"*, %"class.altered_carbon::js::ACLexNumber"** %5, align 8
  %10 = call zeroext i1 @_ZNK14altered_carbon2js11ACLexNumber5isNaNEv(%"class.altered_carbon::js::ACLexNumber"* %9)
  br i1 %10, label %11, label %12

; <label>:11:                                     ; preds = %8, %2
  store i1 false, i1* %3, align 1
  br label %17

; <label>:12:                                     ; preds = %8
  %13 = call double @_ZNK14altered_carbon2js11ACLexNumber8getFloatEv(%"class.altered_carbon::js::ACLexNumber"* %6)
  %14 = load %"class.altered_carbon::js::ACLexNumber"*, %"class.altered_carbon::js::ACLexNumber"** %5, align 8
  %15 = call double @_ZNK14altered_carbon2js11ACLexNumber8getFloatEv(%"class.altered_carbon::js::ACLexNumber"* %14)
  %16 = fcmp une double %13, %15
  store i1 %16, i1* %3, align 1
  br label %17

; <label>:17:                                     ; preds = %12, %11
  %18 = load i1, i1* %3, align 1
  ret i1 %18
}

; Function Attrs: noinline nounwind optnone ssp uwtable
define void @_ZNK14altered_carbon2js11ACLexNumberplERKS1_(%"class.altered_carbon::js::ACLexNumber"* noalias sret, %"class.altered_carbon::js::ACLexNumber"*, %"class.altered_carbon::js::ACLexNumber"* dereferenceable(24)) #2 align 2 {
  %4 = alloca %"class.altered_carbon::js::ACLexNumber"*, align 8
  %5 = alloca %"class.altered_carbon::js::ACLexNumber"*, align 8
  store %"class.altered_carbon::js::ACLexNumber"* %1, %"class.altered_carbon::js::ACLexNumber"** %4, align 8
  store %"class.altered_carbon::js::ACLexNumber"* %2, %"class.altered_carbon::js::ACLexNumber"** %5, align 8
  %6 = load %"class.altered_carbon::js::ACLexNumber"*, %"class.altered_carbon::js::ACLexNumber"** %4, align 8
  %7 = getelementptr inbounds %"class.altered_carbon::js::ACLexNumber", %"class.altered_carbon::js::ACLexNumber"* %6, i32 0, i32 1
  %8 = load i8, i8* %7, align 8
  %9 = trunc i8 %8 to i1
  br i1 %9, label %10, label %20

; <label>:10:                                     ; preds = %3
  %11 = load %"class.altered_carbon::js::ACLexNumber"*, %"class.altered_carbon::js::ACLexNumber"** %5, align 8
  %12 = getelementptr inbounds %"class.altered_carbon::js::ACLexNumber", %"class.altered_carbon::js::ACLexNumber"* %11, i32 0, i32 1
  %13 = load i8, i8* %12, align 8
  %14 = trunc i8 %13 to i1
  br i1 %14, label %15, label %20

; <label>:15:                                     ; preds = %10
  %16 = call i64 @_ZNK14altered_carbon2js11ACLexNumber6getIntEv(%"class.altered_carbon::js::ACLexNumber"* %6)
  %17 = load %"class.altered_carbon::js::ACLexNumber"*, %"class.altered_carbon::js::ACLexNumber"** %5, align 8
  %18 = call i64 @_ZNK14altered_carbon2js11ACLexNumber6getIntEv(%"class.altered_carbon::js::ACLexNumber"* %17)
  %19 = add nsw i64 %16, %18
  call void @_ZN14altered_carbon2js11ACLexNumberC1Ex(%"class.altered_carbon::js::ACLexNumber"* %0, i64 %19)
  br label %25

; <label>:20:                                     ; preds = %10, %3
  %21 = call double @_ZNK14altered_carbon2js11ACLexNumber8getFloatEv(%"class.altered_carbon::js::ACLexNumber"* %6)
  %22 = load %"class.altered_carbon::js::ACLexNumber"*, %"class.altered_carbon::js::ACLexNumber"** %5, align 8
  %23 = call double @_ZNK14altered_carbon2js11ACLexNumber8getFloatEv(%"class.altered_carbon::js::ACLexNumber"* %22)
  %24 = fadd double %21, %23
  call void @_ZN14altered_carbon2js11ACLexNumberC1Ed(%"class.altered_carbon::js::ACLexNumber"* %0, double %24)
  br label %25

; <label>:25:                                     ; preds = %20, %15
  ret void
}

; Function Attrs: noinline nounwind optnone ssp uwtable
define void @_ZNK14altered_carbon2js11ACLexNumbermiERKS1_(%"class.altered_carbon::js::ACLexNumber"* noalias sret, %"class.altered_carbon::js::ACLexNumber"*, %"class.altered_carbon::js::ACLexNumber"* dereferenceable(24)) #2 align 2 {
  %4 = alloca %"class.altered_carbon::js::ACLexNumber"*, align 8
  %5 = alloca %"class.altered_carbon::js::ACLexNumber"*, align 8
  store %"class.altered_carbon::js::ACLexNumber"* %1, %"class.altered_carbon::js::ACLexNumber"** %4, align 8
  store %"class.altered_carbon::js::ACLexNumber"* %2, %"class.altered_carbon::js::ACLexNumber"** %5, align 8
  %6 = load %"class.altered_carbon::js::ACLexNumber"*, %"class.altered_carbon::js::ACLexNumber"** %4, align 8
  %7 = getelementptr inbounds %"class.altered_carbon::js::ACLexNumber", %"class.altered_carbon::js::ACLexNumber"* %6, i32 0, i32 1
  %8 = load i8, i8* %7, align 8
  %9 = trunc i8 %8 to i1
  br i1 %9, label %10, label %20

; <label>:10:                                     ; preds = %3
  %11 = load %"class.altered_carbon::js::ACLexNumber"*, %"class.altered_carbon::js::ACLexNumber"** %5, align 8
  %12 = getelementptr inbounds %"class.altered_carbon::js::ACLexNumber", %"class.altered_carbon::js::ACLexNumber"* %11, i32 0, i32 1
  %13 = load i8, i8* %12, align 8
  %14 = trunc i8 %13 to i1
  br i1 %14, label %15, label %20

; <label>:15:                                     ; preds = %10
  %16 = call i64 @_ZNK14altered_carbon2js11ACLexNumber6getIntEv(%"class.altered_carbon::js::ACLexNumber"* %6)
  %17 = load %"class.altered_carbon::js::ACLexNumber"*, %"class.altered_carbon::js::ACLexNumber"** %5, align 8
  %18 = call i64 @_ZNK14altered_carbon2js11ACLexNumber6getIntEv(%"class.altered_carbon::js::ACLexNumber"* %17)
  %19 = sub nsw i64 %16, %18
  call void @_ZN14altered_carbon2js11ACLexNumberC1Ex(%"class.altered_carbon::js::ACLexNumber"* %0, i64 %19)
  br label %25

; <label>:20:                                     ; preds = %10, %3
  %21 = call double @_ZNK14altered_carbon2js11ACLexNumber8getFloatEv(%"class.altered_carbon::js::ACLexNumber"* %6)
  %22 = load %"class.altered_carbon::js::ACLexNumber"*, %"class.altered_carbon::js::ACLexNumber"** %5, align 8
  %23 = call double @_ZNK14altered_carbon2js11ACLexNumber8getFloatEv(%"class.altered_carbon::js::ACLexNumber"* %22)
  %24 = fsub double %21, %23
  call void @_ZN14altered_carbon2js11ACLexNumberC1Ed(%"class.altered_carbon::js::ACLexNumber"* %0, double %24)
  br label %25

; <label>:25:                                     ; preds = %20, %15
  ret void
}

; Function Attrs: noinline nounwind optnone ssp uwtable
define void @_ZNK14altered_carbon2js11ACLexNumbermlERKS1_(%"class.altered_carbon::js::ACLexNumber"* noalias sret, %"class.altered_carbon::js::ACLexNumber"*, %"class.altered_carbon::js::ACLexNumber"* dereferenceable(24)) #2 align 2 {
  %4 = alloca %"class.altered_carbon::js::ACLexNumber"*, align 8
  %5 = alloca %"class.altered_carbon::js::ACLexNumber"*, align 8
  store %"class.altered_carbon::js::ACLexNumber"* %1, %"class.altered_carbon::js::ACLexNumber"** %4, align 8
  store %"class.altered_carbon::js::ACLexNumber"* %2, %"class.altered_carbon::js::ACLexNumber"** %5, align 8
  %6 = load %"class.altered_carbon::js::ACLexNumber"*, %"class.altered_carbon::js::ACLexNumber"** %4, align 8
  %7 = getelementptr inbounds %"class.altered_carbon::js::ACLexNumber", %"class.altered_carbon::js::ACLexNumber"* %6, i32 0, i32 1
  %8 = load i8, i8* %7, align 8
  %9 = trunc i8 %8 to i1
  br i1 %9, label %10, label %20

; <label>:10:                                     ; preds = %3
  %11 = load %"class.altered_carbon::js::ACLexNumber"*, %"class.altered_carbon::js::ACLexNumber"** %5, align 8
  %12 = getelementptr inbounds %"class.altered_carbon::js::ACLexNumber", %"class.altered_carbon::js::ACLexNumber"* %11, i32 0, i32 1
  %13 = load i8, i8* %12, align 8
  %14 = trunc i8 %13 to i1
  br i1 %14, label %15, label %20

; <label>:15:                                     ; preds = %10
  %16 = call i64 @_ZNK14altered_carbon2js11ACLexNumber6getIntEv(%"class.altered_carbon::js::ACLexNumber"* %6)
  %17 = load %"class.altered_carbon::js::ACLexNumber"*, %"class.altered_carbon::js::ACLexNumber"** %5, align 8
  %18 = call i64 @_ZNK14altered_carbon2js11ACLexNumber6getIntEv(%"class.altered_carbon::js::ACLexNumber"* %17)
  %19 = mul nsw i64 %16, %18
  call void @_ZN14altered_carbon2js11ACLexNumberC1Ex(%"class.altered_carbon::js::ACLexNumber"* %0, i64 %19)
  br label %25

; <label>:20:                                     ; preds = %10, %3
  %21 = call double @_ZNK14altered_carbon2js11ACLexNumber8getFloatEv(%"class.altered_carbon::js::ACLexNumber"* %6)
  %22 = load %"class.altered_carbon::js::ACLexNumber"*, %"class.altered_carbon::js::ACLexNumber"** %5, align 8
  %23 = call double @_ZNK14altered_carbon2js11ACLexNumber8getFloatEv(%"class.altered_carbon::js::ACLexNumber"* %22)
  %24 = fmul double %21, %23
  call void @_ZN14altered_carbon2js11ACLexNumberC1Ed(%"class.altered_carbon::js::ACLexNumber"* %0, double %24)
  br label %25

; <label>:25:                                     ; preds = %20, %15
  ret void
}

; Function Attrs: noinline nounwind optnone ssp uwtable
define void @_ZNK14altered_carbon2js11ACLexNumberdvERKS1_(%"class.altered_carbon::js::ACLexNumber"* noalias sret, %"class.altered_carbon::js::ACLexNumber"*, %"class.altered_carbon::js::ACLexNumber"* dereferenceable(24)) #2 align 2 {
  %4 = alloca %"class.altered_carbon::js::ACLexNumber"*, align 8
  %5 = alloca %"class.altered_carbon::js::ACLexNumber"*, align 8
  %6 = alloca i64, align 8
  store %"class.altered_carbon::js::ACLexNumber"* %1, %"class.altered_carbon::js::ACLexNumber"** %4, align 8
  store %"class.altered_carbon::js::ACLexNumber"* %2, %"class.altered_carbon::js::ACLexNumber"** %5, align 8
  %7 = load %"class.altered_carbon::js::ACLexNumber"*, %"class.altered_carbon::js::ACLexNumber"** %4, align 8
  %8 = getelementptr inbounds %"class.altered_carbon::js::ACLexNumber", %"class.altered_carbon::js::ACLexNumber"* %7, i32 0, i32 1
  %9 = load i8, i8* %8, align 8
  %10 = trunc i8 %9 to i1
  br i1 %10, label %11, label %32

; <label>:11:                                     ; preds = %3
  %12 = load %"class.altered_carbon::js::ACLexNumber"*, %"class.altered_carbon::js::ACLexNumber"** %5, align 8
  %13 = getelementptr inbounds %"class.altered_carbon::js::ACLexNumber", %"class.altered_carbon::js::ACLexNumber"* %12, i32 0, i32 1
  %14 = load i8, i8* %13, align 8
  %15 = trunc i8 %14 to i1
  br i1 %15, label %16, label %32

; <label>:16:                                     ; preds = %11
  %17 = call i64 @_ZNK14altered_carbon2js11ACLexNumber6getIntEv(%"class.altered_carbon::js::ACLexNumber"* %7)
  %18 = load %"class.altered_carbon::js::ACLexNumber"*, %"class.altered_carbon::js::ACLexNumber"** %5, align 8
  %19 = call i64 @_ZNK14altered_carbon2js11ACLexNumber6getIntEv(%"class.altered_carbon::js::ACLexNumber"* %18)
  %20 = srem i64 %17, %19
  store i64 %20, i64* %6, align 8
  %21 = load i64, i64* %6, align 8
  %22 = icmp eq i64 %21, 0
  br i1 %22, label %26, label %23

; <label>:23:                                     ; preds = %16
  %24 = load i64, i64* %6, align 8
  %25 = icmp eq i64 %24, 0
  br i1 %25, label %26, label %31

; <label>:26:                                     ; preds = %23, %16
  %27 = call i64 @_ZNK14altered_carbon2js11ACLexNumber6getIntEv(%"class.altered_carbon::js::ACLexNumber"* %7)
  %28 = load %"class.altered_carbon::js::ACLexNumber"*, %"class.altered_carbon::js::ACLexNumber"** %5, align 8
  %29 = call i64 @_ZNK14altered_carbon2js11ACLexNumber6getIntEv(%"class.altered_carbon::js::ACLexNumber"* %28)
  %30 = sdiv i64 %27, %29
  call void @_ZN14altered_carbon2js11ACLexNumberC1Ex(%"class.altered_carbon::js::ACLexNumber"* %0, i64 %30)
  br label %37

; <label>:31:                                     ; preds = %23
  br label %32

; <label>:32:                                     ; preds = %31, %11, %3
  %33 = call double @_ZNK14altered_carbon2js11ACLexNumber8getFloatEv(%"class.altered_carbon::js::ACLexNumber"* %7)
  %34 = load %"class.altered_carbon::js::ACLexNumber"*, %"class.altered_carbon::js::ACLexNumber"** %5, align 8
  %35 = call double @_ZNK14altered_carbon2js11ACLexNumber8getFloatEv(%"class.altered_carbon::js::ACLexNumber"* %34)
  %36 = fdiv double %33, %35
  call void @_ZN14altered_carbon2js11ACLexNumberC1Ed(%"class.altered_carbon::js::ACLexNumber"* %0, double %36)
  br label %37

; <label>:37:                                     ; preds = %32, %26
  ret void
}

; Function Attrs: noinline nounwind optnone ssp uwtable
define void @_ZNK14altered_carbon2js11ACLexNumberrmERKS1_(%"class.altered_carbon::js::ACLexNumber"* noalias sret, %"class.altered_carbon::js::ACLexNumber"*, %"class.altered_carbon::js::ACLexNumber"* dereferenceable(24)) #2 align 2 {
  %4 = alloca %"class.altered_carbon::js::ACLexNumber"*, align 8
  %5 = alloca %"class.altered_carbon::js::ACLexNumber"*, align 8
  %6 = alloca double, align 8
  store %"class.altered_carbon::js::ACLexNumber"* %1, %"class.altered_carbon::js::ACLexNumber"** %4, align 8
  store %"class.altered_carbon::js::ACLexNumber"* %2, %"class.altered_carbon::js::ACLexNumber"** %5, align 8
  %7 = load %"class.altered_carbon::js::ACLexNumber"*, %"class.altered_carbon::js::ACLexNumber"** %4, align 8
  %8 = getelementptr inbounds %"class.altered_carbon::js::ACLexNumber", %"class.altered_carbon::js::ACLexNumber"* %7, i32 0, i32 1
  %9 = load i8, i8* %8, align 8
  %10 = trunc i8 %9 to i1
  br i1 %10, label %11, label %23

; <label>:11:                                     ; preds = %3
  %12 = load %"class.altered_carbon::js::ACLexNumber"*, %"class.altered_carbon::js::ACLexNumber"** %5, align 8
  %13 = getelementptr inbounds %"class.altered_carbon::js::ACLexNumber", %"class.altered_carbon::js::ACLexNumber"* %12, i32 0, i32 1
  %14 = load i8, i8* %13, align 8
  %15 = trunc i8 %14 to i1
  br i1 %15, label %16, label %23

; <label>:16:                                     ; preds = %11
  %17 = getelementptr inbounds %"class.altered_carbon::js::ACLexNumber", %"class.altered_carbon::js::ACLexNumber"* %7, i32 0, i32 2
  %18 = bitcast %union.anon.4* %17 to i64*
  %19 = load i64, i64* %18, align 8
  %20 = load %"class.altered_carbon::js::ACLexNumber"*, %"class.altered_carbon::js::ACLexNumber"** %5, align 8
  %21 = call i64 @_ZNK14altered_carbon2js11ACLexNumber6getIntEv(%"class.altered_carbon::js::ACLexNumber"* %20)
  %22 = srem i64 %19, %21
  call void @_ZN14altered_carbon2js11ACLexNumberC1Ex(%"class.altered_carbon::js::ACLexNumber"* %0, i64 %22)
  br label %39

; <label>:23:                                     ; preds = %11, %3
  %24 = load %"class.altered_carbon::js::ACLexNumber"*, %"class.altered_carbon::js::ACLexNumber"** %5, align 8
  %25 = call double @_ZNK14altered_carbon2js11ACLexNumber8getFloatEv(%"class.altered_carbon::js::ACLexNumber"* %24)
  store double %25, double* %6, align 8
  %26 = getelementptr inbounds %"class.altered_carbon::js::ACLexNumber", %"class.altered_carbon::js::ACLexNumber"* %7, i32 0, i32 2
  %27 = bitcast %union.anon.4* %26 to double*
  %28 = load double, double* %27, align 8
  %29 = getelementptr inbounds %"class.altered_carbon::js::ACLexNumber", %"class.altered_carbon::js::ACLexNumber"* %7, i32 0, i32 2
  %30 = bitcast %union.anon.4* %29 to double*
  %31 = load double, double* %30, align 8
  %32 = load double, double* %6, align 8
  %33 = fdiv double %31, %32
  %34 = fptosi double %33 to i64
  %35 = sitofp i64 %34 to double
  %36 = load double, double* %6, align 8
  %37 = fmul double %35, %36
  %38 = fsub double %28, %37
  call void @_ZN14altered_carbon2js11ACLexNumberC1Ed(%"class.altered_carbon::js::ACLexNumber"* %0, double %38)
  br label %39

; <label>:39:                                     ; preds = %23, %16
  ret void
}

; Function Attrs: noinline nounwind optnone ssp uwtable
define void @_ZNK14altered_carbon2js11ACLexNumbereoERKS1_(%"class.altered_carbon::js::ACLexNumber"* noalias sret, %"class.altered_carbon::js::ACLexNumber"*, %"class.altered_carbon::js::ACLexNumber"* dereferenceable(24)) #2 align 2 {
  %4 = alloca %"class.altered_carbon::js::ACLexNumber"*, align 8
  %5 = alloca %"class.altered_carbon::js::ACLexNumber"*, align 8
  %6 = alloca i64, align 8
  store %"class.altered_carbon::js::ACLexNumber"* %1, %"class.altered_carbon::js::ACLexNumber"** %4, align 8
  store %"class.altered_carbon::js::ACLexNumber"* %2, %"class.altered_carbon::js::ACLexNumber"** %5, align 8
  %7 = load %"class.altered_carbon::js::ACLexNumber"*, %"class.altered_carbon::js::ACLexNumber"** %4, align 8
  store i64 0, i64* %6, align 8
  %8 = call zeroext i1 @_ZNK14altered_carbon2js11ACLexNumber5isNaNEv(%"class.altered_carbon::js::ACLexNumber"* %7)
  br i1 %8, label %17, label %9

; <label>:9:                                      ; preds = %3
  %10 = load %"class.altered_carbon::js::ACLexNumber"*, %"class.altered_carbon::js::ACLexNumber"** %5, align 8
  %11 = call zeroext i1 @_ZNK14altered_carbon2js11ACLexNumber5isNaNEv(%"class.altered_carbon::js::ACLexNumber"* %10)
  br i1 %11, label %17, label %12

; <label>:12:                                     ; preds = %9
  %13 = call i64 @_ZNK14altered_carbon2js11ACLexNumber6getIntEv(%"class.altered_carbon::js::ACLexNumber"* %7)
  %14 = load %"class.altered_carbon::js::ACLexNumber"*, %"class.altered_carbon::js::ACLexNumber"** %5, align 8
  %15 = call i64 @_ZNK14altered_carbon2js11ACLexNumber6getIntEv(%"class.altered_carbon::js::ACLexNumber"* %14)
  %16 = xor i64 %13, %15
  store i64 %16, i64* %6, align 8
  br label %17

; <label>:17:                                     ; preds = %12, %9, %3
  %18 = load i64, i64* %6, align 8
  call void @_ZN14altered_carbon2js11ACLexNumberC1Ex(%"class.altered_carbon::js::ACLexNumber"* %0, i64 %18)
  ret void
}

; Function Attrs: noinline nounwind optnone ssp uwtable
define void @_ZNK14altered_carbon2js11ACLexNumberorERKS1_(%"class.altered_carbon::js::ACLexNumber"* noalias sret, %"class.altered_carbon::js::ACLexNumber"*, %"class.altered_carbon::js::ACLexNumber"* dereferenceable(24)) #2 align 2 {
  %4 = alloca %"class.altered_carbon::js::ACLexNumber"*, align 8
  %5 = alloca %"class.altered_carbon::js::ACLexNumber"*, align 8
  %6 = alloca i64, align 8
  store %"class.altered_carbon::js::ACLexNumber"* %1, %"class.altered_carbon::js::ACLexNumber"** %4, align 8
  store %"class.altered_carbon::js::ACLexNumber"* %2, %"class.altered_carbon::js::ACLexNumber"** %5, align 8
  %7 = load %"class.altered_carbon::js::ACLexNumber"*, %"class.altered_carbon::js::ACLexNumber"** %4, align 8
  store i64 0, i64* %6, align 8
  %8 = call zeroext i1 @_ZNK14altered_carbon2js11ACLexNumber5isNaNEv(%"class.altered_carbon::js::ACLexNumber"* %7)
  br i1 %8, label %17, label %9

; <label>:9:                                      ; preds = %3
  %10 = load %"class.altered_carbon::js::ACLexNumber"*, %"class.altered_carbon::js::ACLexNumber"** %5, align 8
  %11 = call zeroext i1 @_ZNK14altered_carbon2js11ACLexNumber5isNaNEv(%"class.altered_carbon::js::ACLexNumber"* %10)
  br i1 %11, label %17, label %12

; <label>:12:                                     ; preds = %9
  %13 = call i64 @_ZNK14altered_carbon2js11ACLexNumber6getIntEv(%"class.altered_carbon::js::ACLexNumber"* %7)
  %14 = load %"class.altered_carbon::js::ACLexNumber"*, %"class.altered_carbon::js::ACLexNumber"** %5, align 8
  %15 = call i64 @_ZNK14altered_carbon2js11ACLexNumber6getIntEv(%"class.altered_carbon::js::ACLexNumber"* %14)
  %16 = or i64 %13, %15
  store i64 %16, i64* %6, align 8
  br label %17

; <label>:17:                                     ; preds = %12, %9, %3
  %18 = load i64, i64* %6, align 8
  call void @_ZN14altered_carbon2js11ACLexNumberC1Ex(%"class.altered_carbon::js::ACLexNumber"* %0, i64 %18)
  ret void
}

; Function Attrs: noinline nounwind optnone ssp uwtable
define void @_ZNK14altered_carbon2js11ACLexNumberanERKS1_(%"class.altered_carbon::js::ACLexNumber"* noalias sret, %"class.altered_carbon::js::ACLexNumber"*, %"class.altered_carbon::js::ACLexNumber"* dereferenceable(24)) #2 align 2 {
  %4 = alloca %"class.altered_carbon::js::ACLexNumber"*, align 8
  %5 = alloca %"class.altered_carbon::js::ACLexNumber"*, align 8
  %6 = alloca i64, align 8
  store %"class.altered_carbon::js::ACLexNumber"* %1, %"class.altered_carbon::js::ACLexNumber"** %4, align 8
  store %"class.altered_carbon::js::ACLexNumber"* %2, %"class.altered_carbon::js::ACLexNumber"** %5, align 8
  %7 = load %"class.altered_carbon::js::ACLexNumber"*, %"class.altered_carbon::js::ACLexNumber"** %4, align 8
  store i64 0, i64* %6, align 8
  %8 = call zeroext i1 @_ZNK14altered_carbon2js11ACLexNumber5isNaNEv(%"class.altered_carbon::js::ACLexNumber"* %7)
  br i1 %8, label %17, label %9

; <label>:9:                                      ; preds = %3
  %10 = load %"class.altered_carbon::js::ACLexNumber"*, %"class.altered_carbon::js::ACLexNumber"** %5, align 8
  %11 = call zeroext i1 @_ZNK14altered_carbon2js11ACLexNumber5isNaNEv(%"class.altered_carbon::js::ACLexNumber"* %10)
  br i1 %11, label %17, label %12

; <label>:12:                                     ; preds = %9
  %13 = call i64 @_ZNK14altered_carbon2js11ACLexNumber6getIntEv(%"class.altered_carbon::js::ACLexNumber"* %7)
  %14 = load %"class.altered_carbon::js::ACLexNumber"*, %"class.altered_carbon::js::ACLexNumber"** %5, align 8
  %15 = call i64 @_ZNK14altered_carbon2js11ACLexNumber6getIntEv(%"class.altered_carbon::js::ACLexNumber"* %14)
  %16 = and i64 %13, %15
  store i64 %16, i64* %6, align 8
  br label %17

; <label>:17:                                     ; preds = %12, %9, %3
  %18 = load i64, i64* %6, align 8
  call void @_ZN14altered_carbon2js11ACLexNumberC1Ex(%"class.altered_carbon::js::ACLexNumber"* %0, i64 %18)
  ret void
}

; Function Attrs: noinline nounwind optnone ssp uwtable
define void @_ZNK14altered_carbon2js11ACLexNumberrsERKS1_(%"class.altered_carbon::js::ACLexNumber"* noalias sret, %"class.altered_carbon::js::ACLexNumber"*, %"class.altered_carbon::js::ACLexNumber"* dereferenceable(24)) #2 align 2 {
  %4 = alloca %"class.altered_carbon::js::ACLexNumber"*, align 8
  %5 = alloca %"class.altered_carbon::js::ACLexNumber"*, align 8
  %6 = alloca i64, align 8
  store %"class.altered_carbon::js::ACLexNumber"* %1, %"class.altered_carbon::js::ACLexNumber"** %4, align 8
  store %"class.altered_carbon::js::ACLexNumber"* %2, %"class.altered_carbon::js::ACLexNumber"** %5, align 8
  %7 = load %"class.altered_carbon::js::ACLexNumber"*, %"class.altered_carbon::js::ACLexNumber"** %4, align 8
  store i64 0, i64* %6, align 8
  %8 = call zeroext i1 @_ZNK14altered_carbon2js11ACLexNumber5isNaNEv(%"class.altered_carbon::js::ACLexNumber"* %7)
  br i1 %8, label %17, label %9

; <label>:9:                                      ; preds = %3
  %10 = load %"class.altered_carbon::js::ACLexNumber"*, %"class.altered_carbon::js::ACLexNumber"** %5, align 8
  %11 = call zeroext i1 @_ZNK14altered_carbon2js11ACLexNumber5isNaNEv(%"class.altered_carbon::js::ACLexNumber"* %10)
  br i1 %11, label %17, label %12

; <label>:12:                                     ; preds = %9
  %13 = call i64 @_ZNK14altered_carbon2js11ACLexNumber6getIntEv(%"class.altered_carbon::js::ACLexNumber"* %7)
  %14 = load %"class.altered_carbon::js::ACLexNumber"*, %"class.altered_carbon::js::ACLexNumber"** %5, align 8
  %15 = call i64 @_ZNK14altered_carbon2js11ACLexNumber6getIntEv(%"class.altered_carbon::js::ACLexNumber"* %14)
  %16 = ashr i64 %13, %15
  store i64 %16, i64* %6, align 8
  br label %17

; <label>:17:                                     ; preds = %12, %9, %3
  %18 = load i64, i64* %6, align 8
  call void @_ZN14altered_carbon2js11ACLexNumberC1Ex(%"class.altered_carbon::js::ACLexNumber"* %0, i64 %18)
  ret void
}

; Function Attrs: noinline nounwind optnone ssp uwtable
define void @_ZNK14altered_carbon2js11ACLexNumberlsERKS1_(%"class.altered_carbon::js::ACLexNumber"* noalias sret, %"class.altered_carbon::js::ACLexNumber"*, %"class.altered_carbon::js::ACLexNumber"* dereferenceable(24)) #2 align 2 {
  %4 = alloca %"class.altered_carbon::js::ACLexNumber"*, align 8
  %5 = alloca %"class.altered_carbon::js::ACLexNumber"*, align 8
  %6 = alloca i64, align 8
  store %"class.altered_carbon::js::ACLexNumber"* %1, %"class.altered_carbon::js::ACLexNumber"** %4, align 8
  store %"class.altered_carbon::js::ACLexNumber"* %2, %"class.altered_carbon::js::ACLexNumber"** %5, align 8
  %7 = load %"class.altered_carbon::js::ACLexNumber"*, %"class.altered_carbon::js::ACLexNumber"** %4, align 8
  store i64 0, i64* %6, align 8
  %8 = call zeroext i1 @_ZNK14altered_carbon2js11ACLexNumber5isNaNEv(%"class.altered_carbon::js::ACLexNumber"* %7)
  br i1 %8, label %17, label %9

; <label>:9:                                      ; preds = %3
  %10 = load %"class.altered_carbon::js::ACLexNumber"*, %"class.altered_carbon::js::ACLexNumber"** %5, align 8
  %11 = call zeroext i1 @_ZNK14altered_carbon2js11ACLexNumber5isNaNEv(%"class.altered_carbon::js::ACLexNumber"* %10)
  br i1 %11, label %17, label %12

; <label>:12:                                     ; preds = %9
  %13 = call i64 @_ZNK14altered_carbon2js11ACLexNumber6getIntEv(%"class.altered_carbon::js::ACLexNumber"* %7)
  %14 = load %"class.altered_carbon::js::ACLexNumber"*, %"class.altered_carbon::js::ACLexNumber"** %5, align 8
  %15 = call i64 @_ZNK14altered_carbon2js11ACLexNumber6getIntEv(%"class.altered_carbon::js::ACLexNumber"* %14)
  %16 = shl i64 %13, %15
  store i64 %16, i64* %6, align 8
  br label %17

; <label>:17:                                     ; preds = %12, %9, %3
  %18 = load i64, i64* %6, align 8
  call void @_ZN14altered_carbon2js11ACLexNumberC1Ex(%"class.altered_carbon::js::ACLexNumber"* %0, i64 %18)
  ret void
}

; Function Attrs: noinline nounwind optnone ssp uwtable
define void @_ZNK14altered_carbon2js11ACLexNumber3rszERKS1_(%"class.altered_carbon::js::ACLexNumber"* noalias sret, %"class.altered_carbon::js::ACLexNumber"*, %"class.altered_carbon::js::ACLexNumber"* dereferenceable(24)) #2 align 2 {
  %4 = alloca %"class.altered_carbon::js::ACLexNumber"*, align 8
  %5 = alloca %"class.altered_carbon::js::ACLexNumber"*, align 8
  store %"class.altered_carbon::js::ACLexNumber"* %1, %"class.altered_carbon::js::ACLexNumber"** %4, align 8
  store %"class.altered_carbon::js::ACLexNumber"* %2, %"class.altered_carbon::js::ACLexNumber"** %5, align 8
  %6 = load %"class.altered_carbon::js::ACLexNumber"*, %"class.altered_carbon::js::ACLexNumber"** %4, align 8
  %7 = call i64 @_ZNK14altered_carbon2js11ACLexNumber6getIntEv(%"class.altered_carbon::js::ACLexNumber"* %6)
  %8 = load %"class.altered_carbon::js::ACLexNumber"*, %"class.altered_carbon::js::ACLexNumber"** %5, align 8
  %9 = call i64 @_ZNK14altered_carbon2js11ACLexNumber6getIntEv(%"class.altered_carbon::js::ACLexNumber"* %8)
  %10 = lshr i64 %7, %9
  call void @_ZN14altered_carbon2js11ACLexNumberC1Ex(%"class.altered_carbon::js::ACLexNumber"* %0, i64 %10)
  ret void
}

; Function Attrs: noinline nounwind optnone ssp uwtable
define dereferenceable(160) %"class.std::__1::basic_ostream"* @_ZN14altered_carbon2jslsERNSt3__113basic_ostreamIcNS1_11char_traitsIcEEEERKNS0_11ACLexNumberE(%"class.std::__1::basic_ostream"* dereferenceable(160), %"class.altered_carbon::js::ACLexNumber"* dereferenceable(24)) #2 {
  %3 = alloca %"class.std::__1::basic_ostream"*, align 8
  %4 = alloca %"class.altered_carbon::js::ACLexNumber"*, align 8
  store %"class.std::__1::basic_ostream"* %0, %"class.std::__1::basic_ostream"** %3, align 8
  store %"class.altered_carbon::js::ACLexNumber"* %1, %"class.altered_carbon::js::ACLexNumber"** %4, align 8
  %5 = load %"class.altered_carbon::js::ACLexNumber"*, %"class.altered_carbon::js::ACLexNumber"** %4, align 8
  %6 = getelementptr inbounds %"class.altered_carbon::js::ACLexNumber", %"class.altered_carbon::js::ACLexNumber"* %5, i32 0, i32 1
  %7 = load i8, i8* %6, align 8
  %8 = trunc i8 %7 to i1
  br i1 %8, label %9, label %17

; <label>:9:                                      ; preds = %2
  %10 = load %"class.std::__1::basic_ostream"*, %"class.std::__1::basic_ostream"** %3, align 8
  %11 = call dereferenceable(160) %"class.std::__1::basic_ostream"* @_ZNSt3__1lsINS_11char_traitsIcEEEERNS_13basic_ostreamIcT_EES6_PKc(%"class.std::__1::basic_ostream"* dereferenceable(160) %10, i8* getelementptr inbounds ([4 x i8], [4 x i8]* @.str.3, i32 0, i32 0))
  %12 = load %"class.altered_carbon::js::ACLexNumber"*, %"class.altered_carbon::js::ACLexNumber"** %4, align 8
  %13 = getelementptr inbounds %"class.altered_carbon::js::ACLexNumber", %"class.altered_carbon::js::ACLexNumber"* %12, i32 0, i32 2
  %14 = bitcast %union.anon.4* %13 to i64*
  %15 = load i64, i64* %14, align 8
  %16 = call dereferenceable(160) %"class.std::__1::basic_ostream"* @_ZNSt3__113basic_ostreamIcNS_11char_traitsIcEEElsEx(%"class.std::__1::basic_ostream"* %11, i64 %15)
  br label %25

; <label>:17:                                     ; preds = %2
  %18 = load %"class.std::__1::basic_ostream"*, %"class.std::__1::basic_ostream"** %3, align 8
  %19 = call dereferenceable(160) %"class.std::__1::basic_ostream"* @_ZNSt3__1lsINS_11char_traitsIcEEEERNS_13basic_ostreamIcT_EES6_PKc(%"class.std::__1::basic_ostream"* dereferenceable(160) %18, i8* getelementptr inbounds ([4 x i8], [4 x i8]* @.str.1, i32 0, i32 0))
  %20 = load %"class.altered_carbon::js::ACLexNumber"*, %"class.altered_carbon::js::ACLexNumber"** %4, align 8
  %21 = getelementptr inbounds %"class.altered_carbon::js::ACLexNumber", %"class.altered_carbon::js::ACLexNumber"* %20, i32 0, i32 2
  %22 = bitcast %union.anon.4* %21 to double*
  %23 = load double, double* %22, align 8
  %24 = call dereferenceable(160) %"class.std::__1::basic_ostream"* @_ZNSt3__113basic_ostreamIcNS_11char_traitsIcEEElsEd(%"class.std::__1::basic_ostream"* %19, double %23)
  br label %25

; <label>:25:                                     ; preds = %17, %9
  %26 = load %"class.std::__1::basic_ostream"*, %"class.std::__1::basic_ostream"** %3, align 8
  ret %"class.std::__1::basic_ostream"* %26
}

; Function Attrs: noinline nounwind optnone ssp uwtable
define linkonce_odr dereferenceable(160) %"class.std::__1::basic_ostream"* @_ZNSt3__1lsINS_11char_traitsIcEEEERNS_13basic_ostreamIcT_EES6_PKc(%"class.std::__1::basic_ostream"* dereferenceable(160), i8*) #2 {
  %3 = alloca %"class.std::__1::basic_ostream"*, align 8
  %4 = alloca i8*, align 8
  store %"class.std::__1::basic_ostream"* %0, %"class.std::__1::basic_ostream"** %3, align 8
  store i8* %1, i8** %4, align 8
  %5 = load %"class.std::__1::basic_ostream"*, %"class.std::__1::basic_ostream"** %3, align 8
  %6 = load i8*, i8** %4, align 8
  %7 = load i8*, i8** %4, align 8
  %8 = call i64 @_ZNSt3__111char_traitsIcE6lengthEPKc(i8* %7) #9
  %9 = call dereferenceable(160) %"class.std::__1::basic_ostream"* @_ZNSt3__124__put_character_sequenceIcNS_11char_traitsIcEEEERNS_13basic_ostreamIT_T0_EES7_PKS4_m(%"class.std::__1::basic_ostream"* dereferenceable(160) %5, i8* %6, i64 %8)
  ret %"class.std::__1::basic_ostream"* %9
}

declare dereferenceable(160) %"class.std::__1::basic_ostream"* @_ZNSt3__113basic_ostreamIcNS_11char_traitsIcEEElsEx(%"class.std::__1::basic_ostream"*, i64) #1

declare dereferenceable(160) %"class.std::__1::basic_ostream"* @_ZNSt3__113basic_ostreamIcNS_11char_traitsIcEEElsEd(%"class.std::__1::basic_ostream"*, double) #1

; Function Attrs: noinline nounwind optnone ssp uwtable
define linkonce_odr hidden i64 @_ZNSt3__111char_traitsIcE6lengthEPKc(i8*) #2 align 2 {
  %2 = alloca i8*, align 8
  store i8* %0, i8** %2, align 8
  %3 = load i8*, i8** %2, align 8
  %4 = call i64 @strlen(i8* %3) #9
  ret i64 %4
}

; Function Attrs: noinline nounwind optnone ssp uwtable
define linkonce_odr dereferenceable(160) %"class.std::__1::basic_ostream"* @_ZNSt3__124__put_character_sequenceIcNS_11char_traitsIcEEEERNS_13basic_ostreamIT_T0_EES7_PKS4_m(%"class.std::__1::basic_ostream"* dereferenceable(160), i8*, i64) #2 {
  %4 = alloca %"class.std::__1::ctype"*, align 8
  %5 = alloca i8, align 1
  %6 = alloca %"class.std::__1::locale"*, align 8
  %7 = alloca %"class.std::__1::basic_ios"*, align 8
  %8 = alloca i8, align 1
  %9 = alloca %"class.std::__1::locale", align 8
  %10 = alloca %"class.std::__1::basic_ios"*, align 8
  %11 = alloca %"class.std::__1::ios_base"*, align 8
  %12 = alloca %"class.std::__1::ostreambuf_iterator"*, align 8
  %13 = alloca %"class.std::__1::ios_base"*, align 8
  %14 = alloca %"class.std::__1::basic_ios"*, align 8
  %15 = alloca %"class.std::__1::ostreambuf_iterator"*, align 8
  %16 = alloca %"class.std::__1::basic_ostream"*, align 8
  %17 = alloca %"class.std::__1::ostreambuf_iterator"*, align 8
  %18 = alloca %"class.std::__1::basic_ostream"*, align 8
  %19 = alloca %"class.std::__1::ios_base"*, align 8
  %20 = alloca i32, align 4
  %21 = alloca %"class.std::__1::basic_ios"*, align 8
  %22 = alloca i32, align 4
  %23 = alloca %"class.std::__1::basic_ostream<char, std::__1::char_traits<char> >::sentry"*, align 8
  %24 = alloca %"class.std::__1::basic_ostream"*, align 8
  %25 = alloca i8*, align 8
  %26 = alloca i64, align 8
  %27 = alloca %"class.std::__1::basic_ostream<char, std::__1::char_traits<char> >::sentry", align 8
  %28 = alloca %"class.std::__1::ostreambuf_iterator", align 8
  %29 = alloca %"class.std::__1::ostreambuf_iterator", align 8
  store %"class.std::__1::basic_ostream"* %0, %"class.std::__1::basic_ostream"** %24, align 8
  store i8* %1, i8** %25, align 8
  store i64 %2, i64* %26, align 8
  %30 = load %"class.std::__1::basic_ostream"*, %"class.std::__1::basic_ostream"** %24, align 8
  call void @_ZNSt3__113basic_ostreamIcNS_11char_traitsIcEEE6sentryC1ERS3_(%"class.std::__1::basic_ostream<char, std::__1::char_traits<char> >::sentry"* %27, %"class.std::__1::basic_ostream"* dereferenceable(160) %30)
  store %"class.std::__1::basic_ostream<char, std::__1::char_traits<char> >::sentry"* %27, %"class.std::__1::basic_ostream<char, std::__1::char_traits<char> >::sentry"** %23, align 8
  %31 = load %"class.std::__1::basic_ostream<char, std::__1::char_traits<char> >::sentry"*, %"class.std::__1::basic_ostream<char, std::__1::char_traits<char> >::sentry"** %23, align 8
  %32 = getelementptr inbounds %"class.std::__1::basic_ostream<char, std::__1::char_traits<char> >::sentry", %"class.std::__1::basic_ostream<char, std::__1::char_traits<char> >::sentry"* %31, i32 0, i32 0
  %33 = load i8, i8* %32, align 8
  %34 = trunc i8 %33 to i1
  br i1 %34, label %35, label %153

; <label>:35:                                     ; preds = %3
  %36 = load %"class.std::__1::basic_ostream"*, %"class.std::__1::basic_ostream"** %24, align 8
  store %"class.std::__1::ostreambuf_iterator"* %29, %"class.std::__1::ostreambuf_iterator"** %17, align 8
  store %"class.std::__1::basic_ostream"* %36, %"class.std::__1::basic_ostream"** %18, align 8
  %37 = load %"class.std::__1::ostreambuf_iterator"*, %"class.std::__1::ostreambuf_iterator"** %17, align 8
  %38 = load %"class.std::__1::basic_ostream"*, %"class.std::__1::basic_ostream"** %18, align 8
  store %"class.std::__1::ostreambuf_iterator"* %37, %"class.std::__1::ostreambuf_iterator"** %15, align 8
  store %"class.std::__1::basic_ostream"* %38, %"class.std::__1::basic_ostream"** %16, align 8
  %39 = load %"class.std::__1::ostreambuf_iterator"*, %"class.std::__1::ostreambuf_iterator"** %15, align 8
  %40 = bitcast %"class.std::__1::ostreambuf_iterator"* %39 to %"struct.std::__1::iterator"*
  %41 = getelementptr inbounds %"class.std::__1::ostreambuf_iterator", %"class.std::__1::ostreambuf_iterator"* %39, i32 0, i32 0
  %42 = load %"class.std::__1::basic_ostream"*, %"class.std::__1::basic_ostream"** %16, align 8
  %43 = bitcast %"class.std::__1::basic_ostream"* %42 to i8**
  %44 = load i8*, i8** %43, align 8
  %45 = getelementptr i8, i8* %44, i64 -24
  %46 = bitcast i8* %45 to i64*
  %47 = load i64, i64* %46, align 8
  %48 = bitcast %"class.std::__1::basic_ostream"* %42 to i8*
  %49 = getelementptr inbounds i8, i8* %48, i64 %47
  %50 = bitcast i8* %49 to %"class.std::__1::basic_ios"*
  store %"class.std::__1::basic_ios"* %50, %"class.std::__1::basic_ios"** %14, align 8
  %51 = load %"class.std::__1::basic_ios"*, %"class.std::__1::basic_ios"** %14, align 8
  %52 = bitcast %"class.std::__1::basic_ios"* %51 to %"class.std::__1::ios_base"*
  store %"class.std::__1::ios_base"* %52, %"class.std::__1::ios_base"** %13, align 8
  %53 = load %"class.std::__1::ios_base"*, %"class.std::__1::ios_base"** %13, align 8
  %54 = getelementptr inbounds %"class.std::__1::ios_base", %"class.std::__1::ios_base"* %53, i32 0, i32 6
  %55 = load i8*, i8** %54, align 8
  %56 = bitcast i8* %55 to %"class.std::__1::basic_streambuf"*
  store %"class.std::__1::basic_streambuf"* %56, %"class.std::__1::basic_streambuf"** %41, align 8
  %57 = load i8*, i8** %25, align 8
  %58 = load %"class.std::__1::basic_ostream"*, %"class.std::__1::basic_ostream"** %24, align 8
  %59 = bitcast %"class.std::__1::basic_ostream"* %58 to i8**
  %60 = load i8*, i8** %59, align 8
  %61 = getelementptr i8, i8* %60, i64 -24
  %62 = bitcast i8* %61 to i64*
  %63 = load i64, i64* %62, align 8
  %64 = bitcast %"class.std::__1::basic_ostream"* %58 to i8*
  %65 = getelementptr inbounds i8, i8* %64, i64 %63
  %66 = bitcast i8* %65 to %"class.std::__1::ios_base"*
  store %"class.std::__1::ios_base"* %66, %"class.std::__1::ios_base"** %11, align 8
  %67 = load %"class.std::__1::ios_base"*, %"class.std::__1::ios_base"** %11, align 8
  %68 = getelementptr inbounds %"class.std::__1::ios_base", %"class.std::__1::ios_base"* %67, i32 0, i32 1
  %69 = load i32, i32* %68, align 8
  %70 = and i32 %69, 176
  %71 = icmp eq i32 %70, 32
  br i1 %71, label %72, label %76

; <label>:72:                                     ; preds = %35
  %73 = load i8*, i8** %25, align 8
  %74 = load i64, i64* %26, align 8
  %75 = getelementptr inbounds i8, i8* %73, i64 %74
  br label %78

; <label>:76:                                     ; preds = %35
  %77 = load i8*, i8** %25, align 8
  br label %78

; <label>:78:                                     ; preds = %76, %72
  %79 = phi i8* [ %75, %72 ], [ %77, %76 ]
  %80 = load i8*, i8** %25, align 8
  %81 = load i64, i64* %26, align 8
  %82 = getelementptr inbounds i8, i8* %80, i64 %81
  %83 = load %"class.std::__1::basic_ostream"*, %"class.std::__1::basic_ostream"** %24, align 8
  %84 = bitcast %"class.std::__1::basic_ostream"* %83 to i8**
  %85 = load i8*, i8** %84, align 8
  %86 = getelementptr i8, i8* %85, i64 -24
  %87 = bitcast i8* %86 to i64*
  %88 = load i64, i64* %87, align 8
  %89 = bitcast %"class.std::__1::basic_ostream"* %83 to i8*
  %90 = getelementptr inbounds i8, i8* %89, i64 %88
  %91 = bitcast i8* %90 to %"class.std::__1::ios_base"*
  %92 = load %"class.std::__1::basic_ostream"*, %"class.std::__1::basic_ostream"** %24, align 8
  %93 = bitcast %"class.std::__1::basic_ostream"* %92 to i8**
  %94 = load i8*, i8** %93, align 8
  %95 = getelementptr i8, i8* %94, i64 -24
  %96 = bitcast i8* %95 to i64*
  %97 = load i64, i64* %96, align 8
  %98 = bitcast %"class.std::__1::basic_ostream"* %92 to i8*
  %99 = getelementptr inbounds i8, i8* %98, i64 %97
  %100 = bitcast i8* %99 to %"class.std::__1::basic_ios"*
  store %"class.std::__1::basic_ios"* %100, %"class.std::__1::basic_ios"** %10, align 8
  %101 = load %"class.std::__1::basic_ios"*, %"class.std::__1::basic_ios"** %10, align 8
  %102 = call i32 @_ZNSt3__111char_traitsIcE3eofEv() #9
  %103 = getelementptr inbounds %"class.std::__1::basic_ios", %"class.std::__1::basic_ios"* %101, i32 0, i32 2
  %104 = load i32, i32* %103, align 8
  %105 = call zeroext i1 @_ZNSt3__111char_traitsIcE11eq_int_typeEii(i32 %102, i32 %104) #9
  br i1 %105, label %106, label %122

; <label>:106:                                    ; preds = %78
  store %"class.std::__1::basic_ios"* %101, %"class.std::__1::basic_ios"** %7, align 8
  store i8 32, i8* %8, align 1
  %107 = load %"class.std::__1::basic_ios"*, %"class.std::__1::basic_ios"** %7, align 8
  %108 = bitcast %"class.std::__1::basic_ios"* %107 to %"class.std::__1::ios_base"*
  call void @_ZNKSt3__18ios_base6getlocEv(%"class.std::__1::locale"* sret %9, %"class.std::__1::ios_base"* %108) #9
  store %"class.std::__1::locale"* %9, %"class.std::__1::locale"** %6, align 8
  %109 = load %"class.std::__1::locale"*, %"class.std::__1::locale"** %6, align 8
  %110 = call %"class.std::__1::locale::facet"* @_ZNKSt3__16locale9use_facetERNS0_2idE(%"class.std::__1::locale"* %109, %"class.std::__1::locale::id"* dereferenceable(16) @_ZNSt3__15ctypeIcE2idE) #9
  %111 = bitcast %"class.std::__1::locale::facet"* %110 to %"class.std::__1::ctype"*
  %112 = load i8, i8* %8, align 1
  store %"class.std::__1::ctype"* %111, %"class.std::__1::ctype"** %4, align 8
  store i8 %112, i8* %5, align 1
  %113 = load %"class.std::__1::ctype"*, %"class.std::__1::ctype"** %4, align 8
  %114 = bitcast %"class.std::__1::ctype"* %113 to i8 (%"class.std::__1::ctype"*, i8)***
  %115 = load i8 (%"class.std::__1::ctype"*, i8)**, i8 (%"class.std::__1::ctype"*, i8)*** %114, align 8
  %116 = getelementptr inbounds i8 (%"class.std::__1::ctype"*, i8)*, i8 (%"class.std::__1::ctype"*, i8)** %115, i64 7
  %117 = load i8 (%"class.std::__1::ctype"*, i8)*, i8 (%"class.std::__1::ctype"*, i8)** %116, align 8
  %118 = load i8, i8* %5, align 1
  %119 = call signext i8 %117(%"class.std::__1::ctype"* %113, i8 signext %118) #9
  call void @_ZNSt3__16localeD1Ev(%"class.std::__1::locale"* %9) #9
  %120 = sext i8 %119 to i32
  %121 = getelementptr inbounds %"class.std::__1::basic_ios", %"class.std::__1::basic_ios"* %101, i32 0, i32 2
  store i32 %120, i32* %121, align 8
  br label %122

; <label>:122:                                    ; preds = %106, %78
  %123 = getelementptr inbounds %"class.std::__1::basic_ios", %"class.std::__1::basic_ios"* %101, i32 0, i32 2
  %124 = load i32, i32* %123, align 8
  %125 = trunc i32 %124 to i8
  %126 = getelementptr inbounds %"class.std::__1::ostreambuf_iterator", %"class.std::__1::ostreambuf_iterator"* %29, i32 0, i32 0
  %127 = load %"class.std::__1::basic_streambuf"*, %"class.std::__1::basic_streambuf"** %126, align 8
  %128 = call %"class.std::__1::basic_streambuf"* @_ZNSt3__116__pad_and_outputIcNS_11char_traitsIcEEEENS_19ostreambuf_iteratorIT_T0_EES6_PKS4_S8_S8_RNS_8ios_baseES4_(%"class.std::__1::basic_streambuf"* %127, i8* %57, i8* %79, i8* %82, %"class.std::__1::ios_base"* dereferenceable(136) %91, i8 signext %125)
  %129 = getelementptr inbounds %"class.std::__1::ostreambuf_iterator", %"class.std::__1::ostreambuf_iterator"* %28, i32 0, i32 0
  store %"class.std::__1::basic_streambuf"* %128, %"class.std::__1::basic_streambuf"** %129, align 8
  store %"class.std::__1::ostreambuf_iterator"* %28, %"class.std::__1::ostreambuf_iterator"** %12, align 8
  %130 = load %"class.std::__1::ostreambuf_iterator"*, %"class.std::__1::ostreambuf_iterator"** %12, align 8
  %131 = getelementptr inbounds %"class.std::__1::ostreambuf_iterator", %"class.std::__1::ostreambuf_iterator"* %130, i32 0, i32 0
  %132 = load %"class.std::__1::basic_streambuf"*, %"class.std::__1::basic_streambuf"** %131, align 8
  %133 = icmp eq %"class.std::__1::basic_streambuf"* %132, null
  br i1 %133, label %134, label %152

; <label>:134:                                    ; preds = %122
  %135 = load %"class.std::__1::basic_ostream"*, %"class.std::__1::basic_ostream"** %24, align 8
  %136 = bitcast %"class.std::__1::basic_ostream"* %135 to i8**
  %137 = load i8*, i8** %136, align 8
  %138 = getelementptr i8, i8* %137, i64 -24
  %139 = bitcast i8* %138 to i64*
  %140 = load i64, i64* %139, align 8
  %141 = bitcast %"class.std::__1::basic_ostream"* %135 to i8*
  %142 = getelementptr inbounds i8, i8* %141, i64 %140
  %143 = bitcast i8* %142 to %"class.std::__1::basic_ios"*
  store %"class.std::__1::basic_ios"* %143, %"class.std::__1::basic_ios"** %21, align 8
  store i32 5, i32* %22, align 4
  %144 = load %"class.std::__1::basic_ios"*, %"class.std::__1::basic_ios"** %21, align 8
  %145 = bitcast %"class.std::__1::basic_ios"* %144 to %"class.std::__1::ios_base"*
  %146 = load i32, i32* %22, align 4
  store %"class.std::__1::ios_base"* %145, %"class.std::__1::ios_base"** %19, align 8
  store i32 %146, i32* %20, align 4
  %147 = load %"class.std::__1::ios_base"*, %"class.std::__1::ios_base"** %19, align 8
  %148 = getelementptr inbounds %"class.std::__1::ios_base", %"class.std::__1::ios_base"* %147, i32 0, i32 4
  %149 = load i32, i32* %148, align 8
  %150 = load i32, i32* %20, align 4
  %151 = or i32 %149, %150
  call void @_ZNSt3__18ios_base5clearEj(%"class.std::__1::ios_base"* %147, i32 %151) #9
  br label %152

; <label>:152:                                    ; preds = %134, %122
  br label %153

; <label>:153:                                    ; preds = %152, %3
  %154 = load %"class.std::__1::basic_ostream"*, %"class.std::__1::basic_ostream"** %24, align 8
  call void @_ZNSt3__113basic_ostreamIcNS_11char_traitsIcEEE6sentryD1Ev(%"class.std::__1::basic_ostream<char, std::__1::char_traits<char> >::sentry"* %27) #9
  ret %"class.std::__1::basic_ostream"* %154
}

declare void @_ZNSt3__113basic_ostreamIcNS_11char_traitsIcEEE6sentryC1ERS3_(%"class.std::__1::basic_ostream<char, std::__1::char_traits<char> >::sentry"*, %"class.std::__1::basic_ostream"* dereferenceable(160)) unnamed_addr #1

; Function Attrs: noinline nounwind optnone ssp uwtable
define linkonce_odr hidden i32 @_ZNSt3__111char_traitsIcE3eofEv() #2 align 2 {
  ret i32 -1
}

; Function Attrs: noinline nounwind optnone ssp uwtable
define linkonce_odr hidden zeroext i1 @_ZNSt3__111char_traitsIcE11eq_int_typeEii(i32, i32) #2 align 2 {
  %3 = alloca i32, align 4
  %4 = alloca i32, align 4
  store i32 %0, i32* %3, align 4
  store i32 %1, i32* %4, align 4
  %5 = load i32, i32* %3, align 4
  %6 = load i32, i32* %4, align 4
  %7 = icmp eq i32 %5, %6
  ret i1 %7
}

declare void @_ZNKSt3__18ios_base6getlocEv(%"class.std::__1::locale"* sret, %"class.std::__1::ios_base"*) #1

declare %"class.std::__1::locale::facet"* @_ZNKSt3__16locale9use_facetERNS0_2idE(%"class.std::__1::locale"*, %"class.std::__1::locale::id"* dereferenceable(16)) #1

; Function Attrs: nounwind
declare void @_ZNSt3__16localeD1Ev(%"class.std::__1::locale"*) unnamed_addr #5

; Function Attrs: noinline nounwind optnone ssp uwtable
define linkonce_odr hidden %"class.std::__1::basic_streambuf"* @_ZNSt3__116__pad_and_outputIcNS_11char_traitsIcEEEENS_19ostreambuf_iteratorIT_T0_EES6_PKS4_S8_S8_RNS_8ios_baseES4_(%"class.std::__1::basic_streambuf"*, i8*, i8*, i8*, %"class.std::__1::ios_base"* dereferenceable(136), i8 signext) #2 {
  %7 = alloca %"class.std::__1::basic_streambuf"*, align 8
  %8 = alloca i8*, align 8
  %9 = alloca i64, align 8
  %10 = alloca i8*, align 8
  %11 = alloca %"struct.std::__1::__compressed_pair_elem.10"*, align 8
  %12 = alloca %"class.std::__1::__compressed_pair.9"*, align 8
  %13 = alloca %"class.std::__1::basic_string.8"*, align 8
  %14 = alloca i8*, align 8
  %15 = alloca i8*, align 8
  %16 = alloca %"struct.std::__1::__compressed_pair_elem.10"*, align 8
  %17 = alloca %"class.std::__1::__compressed_pair.9"*, align 8
  %18 = alloca %"class.std::__1::basic_string.8"*, align 8
  %19 = alloca %"struct.std::__1::__compressed_pair_elem.10"*, align 8
  %20 = alloca %"class.std::__1::__compressed_pair.9"*, align 8
  %21 = alloca %"class.std::__1::basic_string.8"*, align 8
  %22 = alloca %"class.std::__1::basic_string.8"*, align 8
  %23 = alloca %"class.std::__1::basic_string.8"*, align 8
  %24 = alloca %"struct.std::__1::iterator"*, align 8
  %25 = alloca %"struct.std::__1::iterator"*, align 8
  %26 = alloca %"struct.std::__1::__compressed_pair_elem.10"*, align 8
  %27 = alloca %"class.std::__1::__compressed_pair.9"*, align 8
  %28 = alloca %"class.std::__1::__compressed_pair.9"*, align 8
  %29 = alloca %"class.std::__1::basic_string.8"*, align 8
  %30 = alloca i64, align 8
  %31 = alloca i8, align 1
  %32 = alloca %"class.std::__1::basic_string.8"*, align 8
  %33 = alloca i64, align 8
  %34 = alloca i8, align 1
  %35 = alloca %"class.std::__1::basic_streambuf"*, align 8
  %36 = alloca i8*, align 8
  %37 = alloca i64, align 8
  %38 = alloca %"class.std::__1::basic_streambuf"*, align 8
  %39 = alloca i8*, align 8
  %40 = alloca i64, align 8
  %41 = alloca %"class.std::__1::ios_base"*, align 8
  %42 = alloca i64, align 8
  %43 = alloca i64, align 8
  %44 = alloca %"class.std::__1::ios_base"*, align 8
  %45 = alloca %"class.std::__1::ostreambuf_iterator", align 8
  %46 = alloca %"class.std::__1::ostreambuf_iterator", align 8
  %47 = alloca i8*, align 8
  %48 = alloca i8*, align 8
  %49 = alloca i8*, align 8
  %50 = alloca %"class.std::__1::ios_base"*, align 8
  %51 = alloca i8, align 1
  %52 = alloca i64, align 8
  %53 = alloca i64, align 8
  %54 = alloca i64, align 8
  %55 = alloca %"class.std::__1::basic_string.8", align 8
  %56 = alloca i32
  %57 = getelementptr inbounds %"class.std::__1::ostreambuf_iterator", %"class.std::__1::ostreambuf_iterator"* %46, i32 0, i32 0
  store %"class.std::__1::basic_streambuf"* %0, %"class.std::__1::basic_streambuf"** %57, align 8
  store i8* %1, i8** %47, align 8
  store i8* %2, i8** %48, align 8
  store i8* %3, i8** %49, align 8
  store %"class.std::__1::ios_base"* %4, %"class.std::__1::ios_base"** %50, align 8
  store i8 %5, i8* %51, align 1
  %58 = getelementptr inbounds %"class.std::__1::ostreambuf_iterator", %"class.std::__1::ostreambuf_iterator"* %46, i32 0, i32 0
  %59 = load %"class.std::__1::basic_streambuf"*, %"class.std::__1::basic_streambuf"** %58, align 8
  %60 = icmp eq %"class.std::__1::basic_streambuf"* %59, null
  br i1 %60, label %61, label %64

; <label>:61:                                     ; preds = %6
  %62 = bitcast %"class.std::__1::ostreambuf_iterator"* %45 to i8*
  %63 = bitcast %"class.std::__1::ostreambuf_iterator"* %46 to i8*
  call void @llvm.memcpy.p0i8.p0i8.i64(i8* align 8 %62, i8* align 8 %63, i64 8, i1 false)
  br label %236

; <label>:64:                                     ; preds = %6
  %65 = load i8*, i8** %49, align 8
  %66 = load i8*, i8** %47, align 8
  %67 = ptrtoint i8* %65 to i64
  %68 = ptrtoint i8* %66 to i64
  %69 = sub i64 %67, %68
  store i64 %69, i64* %52, align 8
  %70 = load %"class.std::__1::ios_base"*, %"class.std::__1::ios_base"** %50, align 8
  store %"class.std::__1::ios_base"* %70, %"class.std::__1::ios_base"** %44, align 8
  %71 = load %"class.std::__1::ios_base"*, %"class.std::__1::ios_base"** %44, align 8
  %72 = getelementptr inbounds %"class.std::__1::ios_base", %"class.std::__1::ios_base"* %71, i32 0, i32 3
  %73 = load i64, i64* %72, align 8
  store i64 %73, i64* %53, align 8
  %74 = load i64, i64* %53, align 8
  %75 = load i64, i64* %52, align 8
  %76 = icmp sgt i64 %74, %75
  br i1 %76, label %77, label %81

; <label>:77:                                     ; preds = %64
  %78 = load i64, i64* %52, align 8
  %79 = load i64, i64* %53, align 8
  %80 = sub nsw i64 %79, %78
  store i64 %80, i64* %53, align 8
  br label %82

; <label>:81:                                     ; preds = %64
  store i64 0, i64* %53, align 8
  br label %82

; <label>:82:                                     ; preds = %81, %77
  %83 = load i8*, i8** %48, align 8
  %84 = load i8*, i8** %47, align 8
  %85 = ptrtoint i8* %83 to i64
  %86 = ptrtoint i8* %84 to i64
  %87 = sub i64 %85, %86
  store i64 %87, i64* %54, align 8
  %88 = load i64, i64* %54, align 8
  %89 = icmp sgt i64 %88, 0
  br i1 %89, label %90, label %110

; <label>:90:                                     ; preds = %82
  %91 = getelementptr inbounds %"class.std::__1::ostreambuf_iterator", %"class.std::__1::ostreambuf_iterator"* %46, i32 0, i32 0
  %92 = load %"class.std::__1::basic_streambuf"*, %"class.std::__1::basic_streambuf"** %91, align 8
  %93 = load i8*, i8** %47, align 8
  %94 = load i64, i64* %54, align 8
  store %"class.std::__1::basic_streambuf"* %92, %"class.std::__1::basic_streambuf"** %35, align 8
  store i8* %93, i8** %36, align 8
  store i64 %94, i64* %37, align 8
  %95 = load %"class.std::__1::basic_streambuf"*, %"class.std::__1::basic_streambuf"** %35, align 8
  %96 = bitcast %"class.std::__1::basic_streambuf"* %95 to i64 (%"class.std::__1::basic_streambuf"*, i8*, i64)***
  %97 = load i64 (%"class.std::__1::basic_streambuf"*, i8*, i64)**, i64 (%"class.std::__1::basic_streambuf"*, i8*, i64)*** %96, align 8
  %98 = getelementptr inbounds i64 (%"class.std::__1::basic_streambuf"*, i8*, i64)*, i64 (%"class.std::__1::basic_streambuf"*, i8*, i64)** %97, i64 12
  %99 = load i64 (%"class.std::__1::basic_streambuf"*, i8*, i64)*, i64 (%"class.std::__1::basic_streambuf"*, i8*, i64)** %98, align 8
  %100 = load i8*, i8** %36, align 8
  %101 = load i64, i64* %37, align 8
  %102 = call i64 %99(%"class.std::__1::basic_streambuf"* %95, i8* %100, i64 %101) #9
  %103 = load i64, i64* %54, align 8
  %104 = icmp ne i64 %102, %103
  br i1 %104, label %105, label %109

; <label>:105:                                    ; preds = %90
  %106 = getelementptr inbounds %"class.std::__1::ostreambuf_iterator", %"class.std::__1::ostreambuf_iterator"* %46, i32 0, i32 0
  store %"class.std::__1::basic_streambuf"* null, %"class.std::__1::basic_streambuf"** %106, align 8
  %107 = bitcast %"class.std::__1::ostreambuf_iterator"* %45 to i8*
  %108 = bitcast %"class.std::__1::ostreambuf_iterator"* %46 to i8*
  call void @llvm.memcpy.p0i8.p0i8.i64(i8* align 8 %107, i8* align 8 %108, i64 8, i1 false)
  br label %236

; <label>:109:                                    ; preds = %90
  br label %110

; <label>:110:                                    ; preds = %109, %82
  %111 = load i64, i64* %53, align 8
  %112 = icmp sgt i64 %111, 0
  br i1 %112, label %113, label %198

; <label>:113:                                    ; preds = %110
  %114 = load i64, i64* %53, align 8
  %115 = load i8, i8* %51, align 1
  store %"class.std::__1::basic_string.8"* %55, %"class.std::__1::basic_string.8"** %32, align 8
  store i64 %114, i64* %33, align 8
  store i8 %115, i8* %34, align 1
  %116 = load %"class.std::__1::basic_string.8"*, %"class.std::__1::basic_string.8"** %32, align 8
  %117 = load i64, i64* %33, align 8
  %118 = load i8, i8* %34, align 1
  store %"class.std::__1::basic_string.8"* %116, %"class.std::__1::basic_string.8"** %29, align 8
  store i64 %117, i64* %30, align 8
  store i8 %118, i8* %31, align 1
  %119 = load %"class.std::__1::basic_string.8"*, %"class.std::__1::basic_string.8"** %29, align 8
  %120 = bitcast %"class.std::__1::basic_string.8"* %119 to %"struct.std::__1::iterator"*
  %121 = getelementptr inbounds %"class.std::__1::basic_string.8", %"class.std::__1::basic_string.8"* %119, i32 0, i32 0
  store %"class.std::__1::__compressed_pair.9"* %121, %"class.std::__1::__compressed_pair.9"** %28, align 8
  %122 = load %"class.std::__1::__compressed_pair.9"*, %"class.std::__1::__compressed_pair.9"** %28, align 8
  store %"class.std::__1::__compressed_pair.9"* %122, %"class.std::__1::__compressed_pair.9"** %27, align 8
  %123 = load %"class.std::__1::__compressed_pair.9"*, %"class.std::__1::__compressed_pair.9"** %27, align 8
  %124 = bitcast %"class.std::__1::__compressed_pair.9"* %123 to %"struct.std::__1::__compressed_pair_elem.10"*
  store %"struct.std::__1::__compressed_pair_elem.10"* %124, %"struct.std::__1::__compressed_pair_elem.10"** %26, align 8
  %125 = load %"struct.std::__1::__compressed_pair_elem.10"*, %"struct.std::__1::__compressed_pair_elem.10"** %26, align 8
  %126 = getelementptr inbounds %"struct.std::__1::__compressed_pair_elem.10", %"struct.std::__1::__compressed_pair_elem.10"* %125, i32 0, i32 0
  %127 = bitcast %"struct.std::__1::basic_string<char, std::__1::char_traits<char>, std::__1::allocator<char> >::__rep"* %126 to i8*
  call void @llvm.memset.p0i8.i64(i8* align 8 %127, i8 0, i64 24, i1 false)
  %128 = bitcast %"class.std::__1::__compressed_pair.9"* %123 to %"struct.std::__1::iterator"*
  store %"struct.std::__1::iterator"* %128, %"struct.std::__1::iterator"** %25, align 8
  %129 = load %"struct.std::__1::iterator"*, %"struct.std::__1::iterator"** %25, align 8
  %130 = bitcast %"struct.std::__1::iterator"* %129 to %"struct.std::__1::iterator"*
  store %"struct.std::__1::iterator"* %130, %"struct.std::__1::iterator"** %24, align 8
  %131 = load %"struct.std::__1::iterator"*, %"struct.std::__1::iterator"** %24, align 8
  %132 = load i64, i64* %30, align 8
  %133 = load i8, i8* %31, align 1
  call void @_ZNSt3__112basic_stringIcNS_11char_traitsIcEENS_9allocatorIcEEE6__initEmc(%"class.std::__1::basic_string.8"* %119, i64 %132, i8 signext %133) #9
  %134 = getelementptr inbounds %"class.std::__1::ostreambuf_iterator", %"class.std::__1::ostreambuf_iterator"* %46, i32 0, i32 0
  %135 = load %"class.std::__1::basic_streambuf"*, %"class.std::__1::basic_streambuf"** %134, align 8
  store %"class.std::__1::basic_string.8"* %55, %"class.std::__1::basic_string.8"** %23, align 8
  %136 = load %"class.std::__1::basic_string.8"*, %"class.std::__1::basic_string.8"** %23, align 8
  store %"class.std::__1::basic_string.8"* %136, %"class.std::__1::basic_string.8"** %22, align 8
  %137 = load %"class.std::__1::basic_string.8"*, %"class.std::__1::basic_string.8"** %22, align 8
  store %"class.std::__1::basic_string.8"* %137, %"class.std::__1::basic_string.8"** %21, align 8
  %138 = load %"class.std::__1::basic_string.8"*, %"class.std::__1::basic_string.8"** %21, align 8
  %139 = getelementptr inbounds %"class.std::__1::basic_string.8", %"class.std::__1::basic_string.8"* %138, i32 0, i32 0
  store %"class.std::__1::__compressed_pair.9"* %139, %"class.std::__1::__compressed_pair.9"** %20, align 8
  %140 = load %"class.std::__1::__compressed_pair.9"*, %"class.std::__1::__compressed_pair.9"** %20, align 8
  %141 = bitcast %"class.std::__1::__compressed_pair.9"* %140 to %"struct.std::__1::__compressed_pair_elem.10"*
  store %"struct.std::__1::__compressed_pair_elem.10"* %141, %"struct.std::__1::__compressed_pair_elem.10"** %19, align 8
  %142 = load %"struct.std::__1::__compressed_pair_elem.10"*, %"struct.std::__1::__compressed_pair_elem.10"** %19, align 8
  %143 = getelementptr inbounds %"struct.std::__1::__compressed_pair_elem.10", %"struct.std::__1::__compressed_pair_elem.10"* %142, i32 0, i32 0
  %144 = getelementptr inbounds %"struct.std::__1::basic_string<char, std::__1::char_traits<char>, std::__1::allocator<char> >::__rep", %"struct.std::__1::basic_string<char, std::__1::char_traits<char>, std::__1::allocator<char> >::__rep"* %143, i32 0, i32 0
  %145 = bitcast %union.anon.0.11* %144 to %"struct.std::__1::basic_string<char, std::__1::char_traits<char>, std::__1::allocator<char> >::__short"*
  %146 = getelementptr inbounds %"struct.std::__1::basic_string<char, std::__1::char_traits<char>, std::__1::allocator<char> >::__short", %"struct.std::__1::basic_string<char, std::__1::char_traits<char>, std::__1::allocator<char> >::__short"* %145, i32 0, i32 0
  %147 = bitcast %"struct.std::__1::iterator"* %146 to i8*
  %148 = load i8, i8* %147, align 8
  %149 = zext i8 %148 to i64
  %150 = and i64 %149, 1
  %151 = icmp ne i64 %150, 0
  br i1 %151, label %152, label %163

; <label>:152:                                    ; preds = %113
  store %"class.std::__1::basic_string.8"* %137, %"class.std::__1::basic_string.8"** %13, align 8
  %153 = load %"class.std::__1::basic_string.8"*, %"class.std::__1::basic_string.8"** %13, align 8
  %154 = getelementptr inbounds %"class.std::__1::basic_string.8", %"class.std::__1::basic_string.8"* %153, i32 0, i32 0
  store %"class.std::__1::__compressed_pair.9"* %154, %"class.std::__1::__compressed_pair.9"** %12, align 8
  %155 = load %"class.std::__1::__compressed_pair.9"*, %"class.std::__1::__compressed_pair.9"** %12, align 8
  %156 = bitcast %"class.std::__1::__compressed_pair.9"* %155 to %"struct.std::__1::__compressed_pair_elem.10"*
  store %"struct.std::__1::__compressed_pair_elem.10"* %156, %"struct.std::__1::__compressed_pair_elem.10"** %11, align 8
  %157 = load %"struct.std::__1::__compressed_pair_elem.10"*, %"struct.std::__1::__compressed_pair_elem.10"** %11, align 8
  %158 = getelementptr inbounds %"struct.std::__1::__compressed_pair_elem.10", %"struct.std::__1::__compressed_pair_elem.10"* %157, i32 0, i32 0
  %159 = getelementptr inbounds %"struct.std::__1::basic_string<char, std::__1::char_traits<char>, std::__1::allocator<char> >::__rep", %"struct.std::__1::basic_string<char, std::__1::char_traits<char>, std::__1::allocator<char> >::__rep"* %158, i32 0, i32 0
  %160 = bitcast %union.anon.0.11* %159 to %"struct.std::__1::basic_string<char, std::__1::char_traits<char>, std::__1::allocator<char> >::__long"*
  %161 = getelementptr inbounds %"struct.std::__1::basic_string<char, std::__1::char_traits<char>, std::__1::allocator<char> >::__long", %"struct.std::__1::basic_string<char, std::__1::char_traits<char>, std::__1::allocator<char> >::__long"* %160, i32 0, i32 2
  %162 = load i8*, i8** %161, align 8
  br label %176

; <label>:163:                                    ; preds = %113
  store %"class.std::__1::basic_string.8"* %137, %"class.std::__1::basic_string.8"** %18, align 8
  %164 = load %"class.std::__1::basic_string.8"*, %"class.std::__1::basic_string.8"** %18, align 8
