; ModuleID = 'temp.bc'
source_filename = "../reference.cc"
target datalayout = "e-m:o-i64:64-f80:128-n8:16:32:64-S128"
target triple = "x86_64-apple-macosx10.13.0"

%"struct.std::__1::__compressed_pair_elem.0" = type { i8 }
%"class.std::__1::__compressed_pair" = type { %"struct.std::__1::__compressed_pair_elem" }
%"struct.std::__1::__compressed_pair_elem" = type { %class.a* }
%class.a = type { i32 }
%"struct.std::__1::default_delete" = type { i8 }
%"class.std::__1::unique_ptr" = type { %"class.std::__1::__compressed_pair" }

@.str = private unnamed_addr constant [11 x i8] c"size: %ld\0A\00", align 1

; Function Attrs: noinline norecurse nounwind optnone ssp uwtable
define i32 @main(i32, i8**) #0 !dbg !1369 {
  %3 = alloca %"struct.std::__1::__compressed_pair_elem.0"*, align 8
  call void @llvm.dbg.declare(metadata %"struct.std::__1::__compressed_pair_elem.0"** %3, metadata !1372, metadata !DIExpression()), !dbg !1375
  %4 = alloca %"class.std::__1::__compressed_pair"*, align 8
  call void @llvm.dbg.declare(metadata %"class.std::__1::__compressed_pair"** %4, metadata !1387, metadata !DIExpression()), !dbg !1389
  %5 = alloca %"struct.std::__1::__compressed_pair_elem"*, align 8
  call void @llvm.dbg.declare(metadata %"struct.std::__1::__compressed_pair_elem"** %5, metadata !1390, metadata !DIExpression()), !dbg !1393
  %6 = alloca %"class.std::__1::__compressed_pair"*, align 8
  call void @llvm.dbg.declare(metadata %"class.std::__1::__compressed_pair"** %6, metadata !1397, metadata !DIExpression()), !dbg !1398
  %7 = alloca %"struct.std::__1::default_delete"*, align 8
  call void @llvm.dbg.declare(metadata %"struct.std::__1::default_delete"** %7, metadata !1399, metadata !DIExpression()), !dbg !1402
  %8 = alloca %class.a*, align 8
  call void @llvm.dbg.declare(metadata %class.a** %8, metadata !1404, metadata !DIExpression()), !dbg !1405
  %9 = alloca %"struct.std::__1::__compressed_pair_elem"*, align 8
  call void @llvm.dbg.declare(metadata %"struct.std::__1::__compressed_pair_elem"** %9, metadata !1390, metadata !DIExpression()), !dbg !1406
  %10 = alloca %"class.std::__1::__compressed_pair"*, align 8
  call void @llvm.dbg.declare(metadata %"class.std::__1::__compressed_pair"** %10, metadata !1397, metadata !DIExpression()), !dbg !1409
  %11 = alloca %"class.std::__1::unique_ptr"*, align 8
  call void @llvm.dbg.declare(metadata %"class.std::__1::unique_ptr"** %11, metadata !1410, metadata !DIExpression()), !dbg !1412
  %12 = alloca %class.a*, align 8
  call void @llvm.dbg.declare(metadata %class.a** %12, metadata !1413, metadata !DIExpression()), !dbg !1414
  %13 = alloca %class.a*, align 8
  call void @llvm.dbg.declare(metadata %class.a** %13, metadata !1415, metadata !DIExpression()), !dbg !1416
  %14 = alloca %"class.std::__1::unique_ptr"*, align 8
  call void @llvm.dbg.declare(metadata %"class.std::__1::unique_ptr"** %14, metadata !1417, metadata !DIExpression()), !dbg !1418
  %15 = alloca %"class.std::__1::unique_ptr"*, align 8
  call void @llvm.dbg.declare(metadata %"class.std::__1::unique_ptr"** %15, metadata !1419, metadata !DIExpression()), !dbg !1420
  %16 = alloca %"struct.std::__1::__compressed_pair_elem"*, align 8
  call void @llvm.dbg.declare(metadata %"struct.std::__1::__compressed_pair_elem"** %16, metadata !1421, metadata !DIExpression()), !dbg !1424
  %17 = alloca %"class.std::__1::__compressed_pair"*, align 8
  call void @llvm.dbg.declare(metadata %"class.std::__1::__compressed_pair"** %17, metadata !1430, metadata !DIExpression()), !dbg !1432
  %18 = alloca %"class.std::__1::unique_ptr"*, align 8
  call void @llvm.dbg.declare(metadata %"class.std::__1::unique_ptr"** %18, metadata !1433, metadata !DIExpression()), !dbg !1435
  %19 = alloca i32, align 4
  %20 = alloca i32, align 4
  %21 = alloca i8**, align 8
  %22 = alloca %"class.std::__1::unique_ptr", align 8
  %23 = alloca i32, align 4
  store i32 0, i32* %19, align 4
  store i32 %0, i32* %20, align 4
  call void @llvm.dbg.declare(metadata i32* %20, metadata !1436, metadata !DIExpression()), !dbg !1437
  store i8** %1, i8*** %21, align 8
  call void @llvm.dbg.declare(metadata i8*** %21, metadata !1438, metadata !DIExpression()), !dbg !1439
  call void @llvm.dbg.declare(metadata %"class.std::__1::unique_ptr"* %22, metadata !1440, metadata !DIExpression()), !dbg !1441
  store i32 1, i32* %23, align 4, !dbg !1442
  call void @_ZN4llvm11make_uniqueI1aJiEEENSt3__19enable_ifIXntsr3std8is_arrayIT_EE5valueENS2_10unique_ptrIS4_NS2_14default_deleteIS4_EEEEE4typeEDpOT0_(%"class.std::__1::unique_ptr"* sret %22, i32* dereferenceable(4) %23), !dbg !1443
  %24 = call i32 (i8*, ...) @printf(i8* getelementptr inbounds ([11 x i8], [11 x i8]* @.str, i32 0, i32 0), i64 8), !dbg !1444
  store %"class.std::__1::unique_ptr"* %22, %"class.std::__1::unique_ptr"** %18, align 8
  %25 = load %"class.std::__1::unique_ptr"*, %"class.std::__1::unique_ptr"** %18, align 8
  %26 = getelementptr inbounds %"class.std::__1::unique_ptr", %"class.std::__1::unique_ptr"* %25, i32 0, i32 0, !dbg !1445
  store %"class.std::__1::__compressed_pair"* %26, %"class.std::__1::__compressed_pair"** %17, align 8
  %27 = load %"class.std::__1::__compressed_pair"*, %"class.std::__1::__compressed_pair"** %17, align 8
  %28 = bitcast %"class.std::__1::__compressed_pair"* %27 to %"struct.std::__1::__compressed_pair_elem"*, !dbg !1446
  store %"struct.std::__1::__compressed_pair_elem"* %28, %"struct.std::__1::__compressed_pair_elem"** %16, align 8
  %29 = load %"struct.std::__1::__compressed_pair_elem"*, %"struct.std::__1::__compressed_pair_elem"** %16, align 8
  %30 = getelementptr inbounds %"struct.std::__1::__compressed_pair_elem", %"struct.std::__1::__compressed_pair_elem"* %29, i32 0, i32 0, !dbg !1447
  %31 = load %class.a*, %class.a** %30, align 8, !dbg !1448
  %32 = getelementptr inbounds %class.a, %class.a* %31, i32 0, i32 0, !dbg !1449
  %33 = load i32, i32* %32, align 4, !dbg !1449
  store i32 %33, i32* %19, align 4, !dbg !1450
  store %"class.std::__1::unique_ptr"* %22, %"class.std::__1::unique_ptr"** %15, align 8
  %34 = load %"class.std::__1::unique_ptr"*, %"class.std::__1::unique_ptr"** %15, align 8
  store %"class.std::__1::unique_ptr"* %34, %"class.std::__1::unique_ptr"** %14, align 8
  %35 = load %"class.std::__1::unique_ptr"*, %"class.std::__1::unique_ptr"** %14, align 8
  store %"class.std::__1::unique_ptr"* %35, %"class.std::__1::unique_ptr"** %11, align 8
  store %class.a* null, %class.a** %12, align 8
  %36 = load %"class.std::__1::unique_ptr"*, %"class.std::__1::unique_ptr"** %11, align 8
  %37 = getelementptr inbounds %"class.std::__1::unique_ptr", %"class.std::__1::unique_ptr"* %36, i32 0, i32 0, !dbg !1451
  store %"class.std::__1::__compressed_pair"* %37, %"class.std::__1::__compressed_pair"** %10, align 8
  %38 = load %"class.std::__1::__compressed_pair"*, %"class.std::__1::__compressed_pair"** %10, align 8
  %39 = bitcast %"class.std::__1::__compressed_pair"* %38 to %"struct.std::__1::__compressed_pair_elem"*, !dbg !1452
  store %"struct.std::__1::__compressed_pair_elem"* %39, %"struct.std::__1::__compressed_pair_elem"** %9, align 8
  %40 = load %"struct.std::__1::__compressed_pair_elem"*, %"struct.std::__1::__compressed_pair_elem"** %9, align 8
  %41 = getelementptr inbounds %"struct.std::__1::__compressed_pair_elem", %"struct.std::__1::__compressed_pair_elem"* %40, i32 0, i32 0, !dbg !1453
  %42 = load %class.a*, %class.a** %41, align 8, !dbg !1454
  store %class.a* %42, %class.a** %13, align 8, !dbg !1416
  %43 = load %class.a*, %class.a** %12, align 8, !dbg !1455
  %44 = getelementptr inbounds %"class.std::__1::unique_ptr", %"class.std::__1::unique_ptr"* %36, i32 0, i32 0, !dbg !1456
  store %"class.std::__1::__compressed_pair"* %44, %"class.std::__1::__compressed_pair"** %6, align 8
  %45 = load %"class.std::__1::__compressed_pair"*, %"class.std::__1::__compressed_pair"** %6, align 8
  %46 = bitcast %"class.std::__1::__compressed_pair"* %45 to %"struct.std::__1::__compressed_pair_elem"*, !dbg !1457
  store %"struct.std::__1::__compressed_pair_elem"* %46, %"struct.std::__1::__compressed_pair_elem"** %5, align 8
  %47 = load %"struct.std::__1::__compressed_pair_elem"*, %"struct.std::__1::__compressed_pair_elem"** %5, align 8
  %48 = getelementptr inbounds %"struct.std::__1::__compressed_pair_elem", %"struct.std::__1::__compressed_pair_elem"* %47, i32 0, i32 0, !dbg !1458
  store %class.a* %43, %class.a** %48, align 8, !dbg !1459
  %49 = load %class.a*, %class.a** %13, align 8, !dbg !1460
  %50 = icmp ne %class.a* %49, null, !dbg !1460
  br i1 %50, label %51, label %64, !dbg !1461

; <label>:51:                                     ; preds = %2
  %52 = getelementptr inbounds %"class.std::__1::unique_ptr", %"class.std::__1::unique_ptr"* %36, i32 0, i32 0, !dbg !1462
  store %"class.std::__1::__compressed_pair"* %52, %"class.std::__1::__compressed_pair"** %4, align 8
  %53 = load %"class.std::__1::__compressed_pair"*, %"class.std::__1::__compressed_pair"** %4, align 8
  %54 = bitcast %"class.std::__1::__compressed_pair"* %53 to %"struct.std::__1::__compressed_pair_elem.0"*, !dbg !1463
  store %"struct.std::__1::__compressed_pair_elem.0"* %54, %"struct.std::__1::__compressed_pair_elem.0"** %3, align 8
  %55 = load %"struct.std::__1::__compressed_pair_elem.0"*, %"struct.std::__1::__compressed_pair_elem.0"** %3, align 8
  %56 = bitcast %"struct.std::__1::__compressed_pair_elem.0"* %55 to %"struct.std::__1::default_delete"*, !dbg !1464
  %57 = load %class.a*, %class.a** %13, align 8, !dbg !1465
  store %"struct.std::__1::default_delete"* %56, %"struct.std::__1::default_delete"** %7, align 8
  store %class.a* %57, %class.a** %8, align 8
  %58 = load %"struct.std::__1::default_delete"*, %"struct.std::__1::default_delete"** %7, align 8
  %59 = load %class.a*, %class.a** %8, align 8, !dbg !1466
  %60 = icmp eq %class.a* %59, null, !dbg !1467
  br i1 %60, label %63, label %61, !dbg !1467

; <label>:61:                                     ; preds = %51
  %62 = bitcast %class.a* %59 to i8*, !dbg !1467
  call void @_ZdlPv(i8* %62) #6, !dbg !1467
  br label %63, !dbg !1467

; <label>:63:                                     ; preds = %61, %51
  br label %64, !dbg !1462

; <label>:64:                                     ; preds = %2, %63
  %65 = load i32, i32* %19, align 4, !dbg !1468
  ret i32 %65, !dbg !1468
}

; Function Attrs: nounwind readnone speculatable
declare void @llvm.dbg.declare(metadata, metadata, metadata) #1

; Function Attrs: noinline nounwind optnone ssp uwtable
define linkonce_odr void @_ZN4llvm11make_uniqueI1aJiEEENSt3__19enable_ifIXntsr3std8is_arrayIT_EE5valueENS2_10unique_ptrIS4_NS2_14default_deleteIS4_EEEEE4typeEDpOT0_(%"class.std::__1::unique_ptr"* noalias sret, i32* dereferenceable(4)) #2 !dbg !1469 {
  %3 = alloca %class.a**, align 8
  call void @llvm.dbg.declare(metadata %class.a*** %3, metadata !1484, metadata !DIExpression()), !dbg !1493
  %4 = alloca %"struct.std::__1::__compressed_pair_elem"*, align 8
  call void @llvm.dbg.declare(metadata %"struct.std::__1::__compressed_pair_elem"** %4, metadata !1518, metadata !DIExpression()), !dbg !1519
  %5 = alloca %class.a**, align 8
  call void @llvm.dbg.declare(metadata %class.a*** %5, metadata !1520, metadata !DIExpression()), !dbg !1521
  %6 = alloca %class.a**, align 8
  call void @llvm.dbg.declare(metadata %class.a*** %6, metadata !1484, metadata !DIExpression()), !dbg !1522
  %7 = alloca %"class.std::__1::__compressed_pair"*, align 8
  call void @llvm.dbg.declare(metadata %"class.std::__1::__compressed_pair"** %7, metadata !1524, metadata !DIExpression()), !dbg !1525
  %8 = alloca %class.a**, align 8
  call void @llvm.dbg.declare(metadata %class.a*** %8, metadata !1526, metadata !DIExpression()), !dbg !1527
  %9 = alloca %"class.std::__1::__compressed_pair"*, align 8
  call void @llvm.dbg.declare(metadata %"class.std::__1::__compressed_pair"** %9, metadata !1528, metadata !DIExpression()), !dbg !1529
  %10 = alloca %class.a**, align 8
  call void @llvm.dbg.declare(metadata %class.a*** %10, metadata !1530, metadata !DIExpression()), !dbg !1531
  %11 = alloca %"class.std::__1::unique_ptr"*, align 8
  call void @llvm.dbg.declare(metadata %"class.std::__1::unique_ptr"** %11, metadata !1532, metadata !DIExpression()), !dbg !1533
  %12 = alloca %class.a*, align 8
  call void @llvm.dbg.declare(metadata %class.a** %12, metadata !1534, metadata !DIExpression()), !dbg !1535
  %13 = alloca %"class.std::__1::unique_ptr"*, align 8
  call void @llvm.dbg.declare(metadata %"class.std::__1::unique_ptr"** %13, metadata !1536, metadata !DIExpression()), !dbg !1537
  %14 = alloca %class.a*, align 8
  call void @llvm.dbg.declare(metadata %class.a** %14, metadata !1538, metadata !DIExpression()), !dbg !1539
  %15 = alloca i32*, align 8
  call void @llvm.dbg.declare(metadata i32** %15, metadata !1540, metadata !DIExpression()), !dbg !1549
  %16 = alloca i32*, align 8
  store i32* %1, i32** %16, align 8
  call void @llvm.dbg.declare(metadata i32** %16, metadata !1551, metadata !DIExpression()), !dbg !1552
  %17 = call i8* @_Znwm(i64 4) #7, !dbg !1553
  %18 = bitcast i8* %17 to %class.a*, !dbg !1553
  %19 = load i32*, i32** %16, align 8, !dbg !1554
  store i32* %19, i32** %15, align 8
  %20 = load i32*, i32** %15, align 8, !dbg !1555
  %21 = load i32, i32* %20, align 4, !dbg !1556
  call void @_ZN1aC1Ei(%class.a* %18, i32 %21), !dbg !1557
  store %"class.std::__1::unique_ptr"* %0, %"class.std::__1::unique_ptr"** %13, align 8
  store %class.a* %18, %class.a** %14, align 8
  %22 = load %"class.std::__1::unique_ptr"*, %"class.std::__1::unique_ptr"** %13, align 8
  %23 = load %class.a*, %class.a** %14, align 8, !dbg !1558
  store %"class.std::__1::unique_ptr"* %22, %"class.std::__1::unique_ptr"** %11, align 8
  store %class.a* %23, %class.a** %12, align 8
  %24 = load %"class.std::__1::unique_ptr"*, %"class.std::__1::unique_ptr"** %11, align 8
  %25 = getelementptr inbounds %"class.std::__1::unique_ptr", %"class.std::__1::unique_ptr"* %24, i32 0, i32 0, !dbg !1559
  store %"class.std::__1::__compressed_pair"* %25, %"class.std::__1::__compressed_pair"** %9, align 8
  store %class.a** %12, %class.a*** %10, align 8
  %26 = load %"class.std::__1::__compressed_pair"*, %"class.std::__1::__compressed_pair"** %9, align 8
  %27 = load %class.a**, %class.a*** %10, align 8, !dbg !1560
  store %"class.std::__1::__compressed_pair"* %26, %"class.std::__1::__compressed_pair"** %7, align 8
  store %class.a** %27, %class.a*** %8, align 8
  %28 = load %"class.std::__1::__compressed_pair"*, %"class.std::__1::__compressed_pair"** %7, align 8
  %29 = bitcast %"class.std::__1::__compressed_pair"* %28 to %"struct.std::__1::__compressed_pair_elem"*, !dbg !1561
  %30 = load %class.a**, %class.a*** %8, align 8, !dbg !1562
  store %class.a** %30, %class.a*** %6, align 8
  %31 = load %class.a**, %class.a*** %6, align 8, !dbg !1563
  store %"struct.std::__1::__compressed_pair_elem"* %29, %"struct.std::__1::__compressed_pair_elem"** %4, align 8
  store %class.a** %31, %class.a*** %5, align 8
  %32 = load %"struct.std::__1::__compressed_pair_elem"*, %"struct.std::__1::__compressed_pair_elem"** %4, align 8
  %33 = getelementptr inbounds %"struct.std::__1::__compressed_pair_elem", %"struct.std::__1::__compressed_pair_elem"* %32, i32 0, i32 0, !dbg !1564
  %34 = load %class.a**, %class.a*** %5, align 8, !dbg !1565
  store %class.a** %34, %class.a*** %3, align 8
  %35 = load %class.a**, %class.a*** %3, align 8, !dbg !1566
  %36 = load %class.a*, %class.a** %35, align 8, !dbg !1567
  store %class.a* %36, %class.a** %33, align 8, !dbg !1564
  %37 = bitcast %"class.std::__1::__compressed_pair"* %28 to %"struct.std::__1::__compressed_pair_elem.0"*, !dbg !1561
  ret void, !dbg !1568
}

declare i32 @printf(i8*, ...) #3

; Function Attrs: nobuiltin
declare noalias i8* @_Znwm(i64) #4

; Function Attrs: noinline nounwind optnone ssp uwtable
define linkonce_odr hidden void @_ZN1aC1Ei(%class.a*, i32) unnamed_addr #2 align 2 !dbg !1569 {
  %3 = alloca %class.a*, align 8
  %4 = alloca i32, align 4
  store %class.a* %0, %class.a** %3, align 8
  call void @llvm.dbg.declare(metadata %class.a** %3, metadata !1570, metadata !DIExpression()), !dbg !1571
  store i32 %1, i32* %4, align 4
  call void @llvm.dbg.declare(metadata i32* %4, metadata !1572, metadata !DIExpression()), !dbg !1573
  %5 = load %class.a*, %class.a** %3, align 8
  %6 = load i32, i32* %4, align 4, !dbg !1574
  call void @_ZN1aC2Ei(%class.a* %5, i32 %6), !dbg !1574
  ret void, !dbg !1575
}

; Function Attrs: noinline nounwind optnone ssp uwtable
define linkonce_odr hidden void @_ZN1aC2Ei(%class.a*, i32) unnamed_addr #2 align 2 !dbg !1576 {
  %3 = alloca %class.a*, align 8
  %4 = alloca i32, align 4
  store %class.a* %0, %class.a** %3, align 8
  call void @llvm.dbg.declare(metadata %class.a** %3, metadata !1577, metadata !DIExpression()), !dbg !1578
  store i32 %1, i32* %4, align 4
  call void @llvm.dbg.declare(metadata i32* %4, metadata !1579, metadata !DIExpression()), !dbg !1580
  %5 = load %class.a*, %class.a** %3, align 8
  %6 = load i32, i32* %4, align 4, !dbg !1581
  %7 = getelementptr inbounds %class.a, %class.a* %5, i32 0, i32 0, !dbg !1583
  store i32 %6, i32* %7, align 4, !dbg !1584
  ret void, !dbg !1585
}

; Function Attrs: nobuiltin nounwind
declare void @_ZdlPv(i8*) #5

attributes #0 = { noinline norecurse nounwind optnone ssp uwtable "correctly-rounded-divide-sqrt-fp-math"="false" "disable-tail-calls"="false" "less-precise-fpmad"="false" "no-frame-pointer-elim"="true" "no-frame-pointer-elim-non-leaf" "no-infs-fp-math"="false" "no-jump-tables"="false" "no-nans-fp-math"="false" "no-signed-zeros-fp-math"="false" "no-trapping-math"="false" "stack-protector-buffer-size"="8" "target-cpu"="penryn" "target-features"="+cx16,+fxsr,+mmx,+sse,+sse2,+sse3,+sse4.1,+ssse3,+x87" "unsafe-fp-math"="false" "use-soft-float"="false" }
attributes #1 = { nounwind readnone speculatable }
attributes #2 = { noinline nounwind optnone ssp uwtable "correctly-rounded-divide-sqrt-fp-math"="false" "disable-tail-calls"="false" "less-precise-fpmad"="false" "no-frame-pointer-elim"="true" "no-frame-pointer-elim-non-leaf" "no-infs-fp-math"="false" "no-jump-tables"="false" "no-nans-fp-math"="false" "no-signed-zeros-fp-math"="false" "no-trapping-math"="false" "stack-protector-buffer-size"="8" "target-cpu"="penryn" "target-features"="+cx16,+fxsr,+mmx,+sse,+sse2,+sse3,+sse4.1,+ssse3,+x87" "unsafe-fp-math"="false" "use-soft-float"="false" }
attributes #3 = { "correctly-rounded-divide-sqrt-fp-math"="false" "disable-tail-calls"="false" "less-precise-fpmad"="false" "no-frame-pointer-elim"="true" "no-frame-pointer-elim-non-leaf" "no-infs-fp-math"="false" "no-nans-fp-math"="false" "no-signed-zeros-fp-math"="false" "no-trapping-math"="false" "stack-protector-buffer-size"="8" "target-cpu"="penryn" "target-features"="+cx16,+fxsr,+mmx,+sse,+sse2,+sse3,+sse4.1,+ssse3,+x87" "unsafe-fp-math"="false" "use-soft-float"="false" }
attributes #4 = { nobuiltin "correctly-rounded-divide-sqrt-fp-math"="false" "disable-tail-calls"="false" "less-precise-fpmad"="false" "no-frame-pointer-elim"="true" "no-frame-pointer-elim-non-leaf" "no-infs-fp-math"="false" "no-nans-fp-math"="false" "no-signed-zeros-fp-math"="false" "no-trapping-math"="false" "stack-protector-buffer-size"="8" "target-cpu"="penryn" "target-features"="+cx16,+fxsr,+mmx,+sse,+sse2,+sse3,+sse4.1,+ssse3,+x87" "unsafe-fp-math"="false" "use-soft-float"="false" }
attributes #5 = { nobuiltin nounwind "correctly-rounded-divide-sqrt-fp-math"="false" "disable-tail-calls"="false" "less-precise-fpmad"="false" "no-frame-pointer-elim"="true" "no-frame-pointer-elim-non-leaf" "no-infs-fp-math"="false" "no-nans-fp-math"="false" "no-signed-zeros-fp-math"="false" "no-trapping-math"="false" "stack-protector-buffer-size"="8" "target-cpu"="penryn" "target-features"="+cx16,+fxsr,+mmx,+sse,+sse2,+sse3,+sse4.1,+ssse3,+x87" "unsafe-fp-math"="false" "use-soft-float"="false" }
attributes #6 = { builtin nounwind }
attributes #7 = { builtin }

!llvm.dbg.cu = !{!0}
!llvm.module.flags = !{!1364, !1365, !1366, !1367}
!llvm.ident = !{!1368}

!0 = distinct !DICompileUnit(language: DW_LANG_C_plus_plus, file: !1, producer: "Apple LLVM version 9.1.0 (clang-902.0.39.2)", isOptimized: false, runtimeVersion: 0, emissionKind: FullDebug, enums: !2, retainedTypes: !3, imports: !173)
!1 = !DIFile(filename: "../reference.cc", directory: "/Users/ejiang/Projects/lls/ac/llfiles")
!2 = !{}
!3 = !{!4}
!4 = distinct !DICompositeType(tag: DW_TAG_class_type, name: "unique_ptr<a, std::__1::default_delete<a> >", scope: !6, file: !5, line: 2301, size: 64, elements: !8, templateParams: !143, identifier: "_ZTSNSt3__110unique_ptrI1aNS_14default_deleteIS1_EEEE")
!5 = !DIFile(filename: "/Applications/Xcode.app/Contents/Developer/Toolchains/XcodeDefault.xctoolchain/usr/include/c++/v1/memory", directory: "/Users/ejiang/Projects/lls/ac/llfiles")
!6 = !DINamespace(name: "__1", scope: !7, exportSymbols: true)
!7 = !DINamespace(name: "std", scope: null)
!8 = !{!9, !106, !111, !115, !118, !124, !137, !150, !151, !156, !161, !164, !167, !170}
!9 = !DIDerivedType(tag: DW_TAG_member, name: "__ptr_", scope: !4, file: !5, line: 2311, baseType: !10, size: 64)
!10 = distinct !DICompositeType(tag: DW_TAG_class_type, name: "__compressed_pair<a *, std::__1::default_delete<a> >", scope: !6, file: !5, line: 2111, size: 64, elements: !11, templateParams: !103, identifier: "_ZTSNSt3__117__compressed_pairIP1aNS_14default_deleteIS1_EEEE")
!11 = !{!12, !47, !84, !88, !93, !96, !99}
!12 = !DIDerivedType(tag: DW_TAG_inheritance, scope: !10, baseType: !13)
!13 = distinct !DICompositeType(tag: DW_TAG_structure_type, name: "__compressed_pair_elem<a *, 0, false>", scope: !6, file: !5, line: 2037, size: 64, elements: !14, templateParams: !42, identifier: "_ZTSNSt3__122__compressed_pair_elemIP1aLi0ELb0EEE")
!14 = !{!15, !25, !29, !34}
!15 = !DIDerivedType(tag: DW_TAG_member, name: "__value_", scope: !13, file: !5, line: 2069, baseType: !16, size: 64, flags: DIFlagPrivate)
!16 = !DIDerivedType(tag: DW_TAG_pointer_type, baseType: !17, size: 64)
!17 = distinct !DICompositeType(tag: DW_TAG_class_type, name: "a", file: !1, line: 3, size: 32, elements: !18, identifier: "_ZTS1a")
!18 = !{!19, !21}
!19 = !DIDerivedType(tag: DW_TAG_member, name: "b", scope: !17, file: !1, line: 6, baseType: !20, size: 32, flags: DIFlagPublic)
!20 = !DIBasicType(name: "int", size: 32, encoding: DW_ATE_signed)
!21 = !DISubprogram(name: "a", scope: !17, file: !1, line: 5, type: !22, isLocal: false, isDefinition: false, scopeLine: 5, flags: DIFlagPublic | DIFlagPrototyped, isOptimized: false)
!22 = !DISubroutineType(types: !23)
!23 = !{null, !24, !20}
!24 = !DIDerivedType(tag: DW_TAG_pointer_type, baseType: !17, size: 64, flags: DIFlagArtificial | DIFlagObjectPointer)
!25 = !DISubprogram(name: "__compressed_pair_elem", scope: !13, file: !5, line: 2043, type: !26, isLocal: false, isDefinition: false, scopeLine: 2043, flags: DIFlagPrototyped, isOptimized: false)
!26 = !DISubroutineType(types: !27)
!27 = !{null, !28}
!28 = !DIDerivedType(tag: DW_TAG_pointer_type, baseType: !13, size: 64, flags: DIFlagArtificial | DIFlagObjectPointer)
!29 = !DISubprogram(name: "__get", linkageName: "_ZNSt3__122__compressed_pair_elemIP1aLi0ELb0EE5__getEv", scope: !13, file: !5, line: 2064, type: !30, isLocal: false, isDefinition: false, scopeLine: 2064, flags: DIFlagPrototyped, isOptimized: false)
!30 = !DISubroutineType(types: !31)
!31 = !{!32, !28}
!32 = !DIDerivedType(tag: DW_TAG_typedef, name: "reference", scope: !13, file: !5, line: 2039, baseType: !33)
!33 = !DIDerivedType(tag: DW_TAG_reference_type, baseType: !16, size: 64)
!34 = !DISubprogram(name: "__get", linkageName: "_ZNKSt3__122__compressed_pair_elemIP1aLi0ELb0EE5__getEv", scope: !13, file: !5, line: 2066, type: !35, isLocal: false, isDefinition: false, scopeLine: 2066, flags: DIFlagPrototyped, isOptimized: false)
!35 = !DISubroutineType(types: !36)
!36 = !{!37, !40}
!37 = !DIDerivedType(tag: DW_TAG_typedef, name: "const_reference", scope: !13, file: !5, line: 2040, baseType: !38)
!38 = !DIDerivedType(tag: DW_TAG_reference_type, baseType: !39, size: 64)
!39 = !DIDerivedType(tag: DW_TAG_const_type, baseType: !16)
!40 = !DIDerivedType(tag: DW_TAG_pointer_type, baseType: !41, size: 64, flags: DIFlagArtificial | DIFlagObjectPointer)
!41 = !DIDerivedType(tag: DW_TAG_const_type, baseType: !13)
!42 = !{!43, !44, !45}
!43 = !DITemplateTypeParameter(name: "_Tp", type: !16)
!44 = !DITemplateValueParameter(name: "_Idx", type: !20, value: i32 0)
!45 = !DITemplateValueParameter(name: "_CanBeEmptyBase", type: !46, value: i8 0)
!46 = !DIBasicType(name: "bool", size: 8, encoding: DW_ATE_boolean)
!47 = !DIDerivedType(tag: DW_TAG_inheritance, scope: !10, baseType: !48)
!48 = distinct !DICompositeType(tag: DW_TAG_structure_type, name: "__compressed_pair_elem<std::__1::default_delete<a>, 1, true>", scope: !6, file: !5, line: 2073, size: 8, elements: !49, templateParams: !80, identifier: "_ZTSNSt3__122__compressed_pair_elemINS_14default_deleteI1aEELi1ELb1EEE")
!49 = !{!50, !64, !68, !73}
!50 = !DIDerivedType(tag: DW_TAG_inheritance, scope: !48, baseType: !51, flags: DIFlagPrivate)
!51 = distinct !DICompositeType(tag: DW_TAG_structure_type, name: "default_delete<a>", scope: !6, file: !5, line: 2220, size: 8, elements: !52, templateParams: !62, identifier: "_ZTSNSt3__114default_deleteI1aEE")
!52 = !{!53, !57}
!53 = !DISubprogram(name: "default_delete", scope: !51, file: !5, line: 2224, type: !54, isLocal: false, isDefinition: false, scopeLine: 2224, flags: DIFlagPrototyped, isOptimized: false)
!54 = !DISubroutineType(types: !55)
!55 = !{null, !56}
!56 = !DIDerivedType(tag: DW_TAG_pointer_type, baseType: !51, size: 64, flags: DIFlagArtificial | DIFlagObjectPointer)
!57 = !DISubprogram(name: "operator()", linkageName: "_ZNKSt3__114default_deleteI1aEclEPS1_", scope: !51, file: !5, line: 2234, type: !58, isLocal: false, isDefinition: false, scopeLine: 2234, flags: DIFlagPrototyped, isOptimized: false)
!58 = !DISubroutineType(types: !59)
!59 = !{null, !60, !16}
!60 = !DIDerivedType(tag: DW_TAG_pointer_type, baseType: !61, size: 64, flags: DIFlagArtificial | DIFlagObjectPointer)
!61 = !DIDerivedType(tag: DW_TAG_const_type, baseType: !51)
!62 = !{!63}
!63 = !DITemplateTypeParameter(name: "_Tp", type: !17)
!64 = !DISubprogram(name: "__compressed_pair_elem", scope: !48, file: !5, line: 2080, type: !65, isLocal: false, isDefinition: false, scopeLine: 2080, flags: DIFlagPrototyped, isOptimized: false)
!65 = !DISubroutineType(types: !66)
!66 = !{null, !67}
!67 = !DIDerivedType(tag: DW_TAG_pointer_type, baseType: !48, size: 64, flags: DIFlagArtificial | DIFlagObjectPointer)
!68 = !DISubprogram(name: "__get", linkageName: "_ZNSt3__122__compressed_pair_elemINS_14default_deleteI1aEELi1ELb1EE5__getEv", scope: !48, file: !5, line: 2102, type: !69, isLocal: false, isDefinition: false, scopeLine: 2102, flags: DIFlagPrototyped, isOptimized: false)
!69 = !DISubroutineType(types: !70)
!70 = !{!71, !67}
!71 = !DIDerivedType(tag: DW_TAG_typedef, name: "reference", scope: !48, file: !5, line: 2075, baseType: !72)
!72 = !DIDerivedType(tag: DW_TAG_reference_type, baseType: !51, size: 64)
!73 = !DISubprogram(name: "__get", linkageName: "_ZNKSt3__122__compressed_pair_elemINS_14default_deleteI1aEELi1ELb1EE5__getEv", scope: !48, file: !5, line: 2104, type: !74, isLocal: false, isDefinition: false, scopeLine: 2104, flags: DIFlagPrototyped, isOptimized: false)
!74 = !DISubroutineType(types: !75)
!75 = !{!76, !78}
!76 = !DIDerivedType(tag: DW_TAG_typedef, name: "const_reference", scope: !48, file: !5, line: 2076, baseType: !77)
!77 = !DIDerivedType(tag: DW_TAG_reference_type, baseType: !61, size: 64)
!78 = !DIDerivedType(tag: DW_TAG_pointer_type, baseType: !79, size: 64, flags: DIFlagArtificial | DIFlagObjectPointer)
!79 = !DIDerivedType(tag: DW_TAG_const_type, baseType: !48)
!80 = !{!81, !82, !83}
!81 = !DITemplateTypeParameter(name: "_Tp", type: !51)
!82 = !DITemplateValueParameter(name: "_Idx", type: !20, value: i32 1)
!83 = !DITemplateValueParameter(name: "_CanBeEmptyBase", type: !46, value: i8 1)
!84 = !DISubprogram(name: "first", linkageName: "_ZNSt3__117__compressed_pairIP1aNS_14default_deleteIS1_EEE5firstEv", scope: !10, file: !5, line: 2179, type: !85, isLocal: false, isDefinition: false, scopeLine: 2179, flags: DIFlagPublic | DIFlagPrototyped, isOptimized: false)
!85 = !DISubroutineType(types: !86)
!86 = !{!32, !87}
!87 = !DIDerivedType(tag: DW_TAG_pointer_type, baseType: !10, size: 64, flags: DIFlagArtificial | DIFlagObjectPointer)
!88 = !DISubprogram(name: "first", linkageName: "_ZNKSt3__117__compressed_pairIP1aNS_14default_deleteIS1_EEE5firstEv", scope: !10, file: !5, line: 2184, type: !89, isLocal: false, isDefinition: false, scopeLine: 2184, flags: DIFlagPublic | DIFlagPrototyped, isOptimized: false)
!89 = !DISubroutineType(types: !90)
!90 = !{!37, !91}
!91 = !DIDerivedType(tag: DW_TAG_pointer_type, baseType: !92, size: 64, flags: DIFlagArtificial | DIFlagObjectPointer)
!92 = !DIDerivedType(tag: DW_TAG_const_type, baseType: !10)
!93 = !DISubprogram(name: "second", linkageName: "_ZNSt3__117__compressed_pairIP1aNS_14default_deleteIS1_EEE6secondEv", scope: !10, file: !5, line: 2189, type: !94, isLocal: false, isDefinition: false, scopeLine: 2189, flags: DIFlagPublic | DIFlagPrototyped, isOptimized: false)
!94 = !DISubroutineType(types: !95)
!95 = !{!71, !87}
!96 = !DISubprogram(name: "second", linkageName: "_ZNKSt3__117__compressed_pairIP1aNS_14default_deleteIS1_EEE6secondEv", scope: !10, file: !5, line: 2194, type: !97, isLocal: false, isDefinition: false, scopeLine: 2194, flags: DIFlagPublic | DIFlagPrototyped, isOptimized: false)
!97 = !DISubroutineType(types: !98)
!98 = !{!76, !91}
!99 = !DISubprogram(name: "swap", linkageName: "_ZNSt3__117__compressed_pairIP1aNS_14default_deleteIS1_EEE4swapERS5_", scope: !10, file: !5, line: 2199, type: !100, isLocal: false, isDefinition: false, scopeLine: 2199, flags: DIFlagPublic | DIFlagPrototyped, isOptimized: false)
!100 = !DISubroutineType(types: !101)
!101 = !{null, !87, !102}
!102 = !DIDerivedType(tag: DW_TAG_reference_type, baseType: !10, size: 64)
!103 = !{!104, !105}
!104 = !DITemplateTypeParameter(name: "_T1", type: !16)
!105 = !DITemplateTypeParameter(name: "_T2", type: !51)
!106 = !DISubprogram(name: "unique_ptr", scope: !4, file: !5, line: 2394, type: !107, isLocal: false, isDefinition: false, scopeLine: 2394, flags: DIFlagPublic | DIFlagPrototyped, isOptimized: false)
!107 = !DISubroutineType(types: !108)
!108 = !{null, !109, !110}
!109 = !DIDerivedType(tag: DW_TAG_pointer_type, baseType: !4, size: 64, flags: DIFlagArtificial | DIFlagObjectPointer)
!110 = !DIDerivedType(tag: DW_TAG_rvalue_reference_type, baseType: !4, size: 64)
!111 = !DISubprogram(name: "operator=", linkageName: "_ZNSt3__110unique_ptrI1aNS_14default_deleteIS1_EEEaSEOS4_", scope: !4, file: !5, line: 2417, type: !112, isLocal: false, isDefinition: false, scopeLine: 2417, flags: DIFlagPublic | DIFlagPrototyped, isOptimized: false)
!112 = !DISubroutineType(types: !113)
!113 = !{!114, !109, !110}
!114 = !DIDerivedType(tag: DW_TAG_reference_type, baseType: !4, size: 64)
!115 = !DISubprogram(name: "~unique_ptr", scope: !4, file: !5, line: 2506, type: !116, isLocal: false, isDefinition: false, scopeLine: 2506, flags: DIFlagPublic | DIFlagPrototyped, isOptimized: false)
!116 = !DISubroutineType(types: !117)
!117 = !{null, !109}
!118 = !DISubprogram(name: "operator=", linkageName: "_ZNSt3__110unique_ptrI1aNS_14default_deleteIS1_EEEaSEDn", scope: !4, file: !5, line: 2509, type: !119, isLocal: false, isDefinition: false, scopeLine: 2509, flags: DIFlagPublic | DIFlagPrototyped, isOptimized: false)
!119 = !DISubroutineType(types: !120)
!120 = !{!114, !109, !121}
!121 = !DIDerivedType(tag: DW_TAG_typedef, name: "nullptr_t", scope: !7, file: !122, line: 57, baseType: !123)
!122 = !DIFile(filename: "/Applications/Xcode.app/Contents/Developer/Toolchains/XcodeDefault.xctoolchain/usr/include/c++/v1/__nullptr", directory: "/Users/ejiang/Projects/lls/ac/llfiles")
!123 = !DIBasicType(tag: DW_TAG_unspecified_type, name: "decltype(nullptr)")
!124 = !DISubprogram(name: "operator*", linkageName: "_ZNKSt3__110unique_ptrI1aNS_14default_deleteIS1_EEEdeEv", scope: !4, file: !5, line: 2516, type: !125, isLocal: false, isDefinition: false, scopeLine: 2516, flags: DIFlagPublic | DIFlagPrototyped, isOptimized: false)
!125 = !DISubroutineType(types: !126)
!126 = !{!127, !135}
!127 = !DIDerivedType(tag: DW_TAG_typedef, name: "type", scope: !129, file: !128, line: 1084, baseType: !130)
!128 = !DIFile(filename: "/Applications/Xcode.app/Contents/Developer/Toolchains/XcodeDefault.xctoolchain/usr/include/c++/v1/type_traits", directory: "/Users/ejiang/Projects/lls/ac/llfiles")
!129 = distinct !DICompositeType(tag: DW_TAG_structure_type, name: "add_lvalue_reference<a>", scope: !6, file: !128, line: 1083, size: 8, elements: !2, templateParams: !62, identifier: "_ZTSNSt3__120add_lvalue_referenceI1aEE")
!130 = !DIDerivedType(tag: DW_TAG_typedef, name: "type", scope: !131, file: !128, line: 1081, baseType: !134)
!131 = distinct !DICompositeType(tag: DW_TAG_structure_type, name: "__add_lvalue_reference_impl<a, true>", scope: !6, file: !128, line: 1081, size: 8, elements: !2, templateParams: !132, identifier: "_ZTSNSt3__127__add_lvalue_reference_implI1aLb1EEE")
!132 = !{!63, !133}
!133 = !DITemplateValueParameter(type: !46, value: i8 1)
!134 = !DIDerivedType(tag: DW_TAG_reference_type, baseType: !17, size: 64)
!135 = !DIDerivedType(tag: DW_TAG_pointer_type, baseType: !136, size: 64, flags: DIFlagArtificial | DIFlagObjectPointer)
!136 = !DIDerivedType(tag: DW_TAG_const_type, baseType: !4)
!137 = !DISubprogram(name: "operator->", linkageName: "_ZNKSt3__110unique_ptrI1aNS_14default_deleteIS1_EEEptEv", scope: !4, file: !5, line: 2520, type: !138, isLocal: false, isDefinition: false, scopeLine: 2520, flags: DIFlagPublic | DIFlagPrototyped, isOptimized: false)
!138 = !DISubroutineType(types: !139)
!139 = !{!140, !135}
!140 = !DIDerivedType(tag: DW_TAG_typedef, name: "pointer", scope: !4, file: !5, line: 2305, baseType: !141)
!141 = !DIDerivedType(tag: DW_TAG_typedef, name: "type", scope: !142, file: !5, line: 1020, baseType: !145)
!142 = distinct !DICompositeType(tag: DW_TAG_structure_type, name: "__pointer_type<a, std::__1::default_delete<a> >", scope: !6, file: !5, line: 1018, size: 8, elements: !2, templateParams: !143, identifier: "_ZTSNSt3__114__pointer_typeI1aNS_14default_deleteIS1_EEEE")
!143 = !{!63, !144}
!144 = !DITemplateTypeParameter(name: "_Dp", type: !51)
!145 = !DIDerivedType(tag: DW_TAG_typedef, name: "type", scope: !146, file: !5, line: 1012, baseType: !16)
!146 = distinct !DICompositeType(tag: DW_TAG_structure_type, name: "__pointer_type<a, std::__1::default_delete<a>, false>", scope: !147, file: !5, line: 1010, size: 8, elements: !2, templateParams: !148, identifier: "_ZTSNSt3__118__pointer_type_imp14__pointer_typeI1aNS_14default_deleteIS2_EELb0EEE")
!147 = !DINamespace(name: "__pointer_type_imp", scope: !6)
!148 = !{!63, !144, !149}
!149 = !DITemplateValueParameter(type: !46, value: i8 0)
!150 = !DISubprogram(name: "get", linkageName: "_ZNKSt3__110unique_ptrI1aNS_14default_deleteIS1_EEE3getEv", scope: !4, file: !5, line: 2524, type: !138, isLocal: false, isDefinition: false, scopeLine: 2524, flags: DIFlagPublic | DIFlagPrototyped, isOptimized: false)
!151 = !DISubprogram(name: "get_deleter", linkageName: "_ZNSt3__110unique_ptrI1aNS_14default_deleteIS1_EEE11get_deleterEv", scope: !4, file: !5, line: 2528, type: !152, isLocal: false, isDefinition: false, scopeLine: 2528, flags: DIFlagPublic | DIFlagPrototyped, isOptimized: false)
!152 = !DISubroutineType(types: !153)
!153 = !{!154, !109}
!154 = !DIDerivedType(tag: DW_TAG_reference_type, baseType: !155, size: 64)
!155 = !DIDerivedType(tag: DW_TAG_typedef, name: "deleter_type", scope: !4, file: !5, line: 2304, baseType: !51)
!156 = !DISubprogram(name: "get_deleter", linkageName: "_ZNKSt3__110unique_ptrI1aNS_14default_deleteIS1_EEE11get_deleterEv", scope: !4, file: !5, line: 2532, type: !157, isLocal: false, isDefinition: false, scopeLine: 2532, flags: DIFlagPublic | DIFlagPrototyped, isOptimized: false)
!157 = !DISubroutineType(types: !158)
!158 = !{!159, !135}
!159 = !DIDerivedType(tag: DW_TAG_reference_type, baseType: !160, size: 64)
!160 = !DIDerivedType(tag: DW_TAG_const_type, baseType: !155)
!161 = !DISubprogram(name: "operator bool", linkageName: "_ZNKSt3__110unique_ptrI1aNS_14default_deleteIS1_EEEcvbEv", scope: !4, file: !5, line: 2536, type: !162, isLocal: false, isDefinition: false, scopeLine: 2536, flags: DIFlagPublic | DIFlagExplicit | DIFlagPrototyped, isOptimized: false)
!162 = !DISubroutineType(types: !163)
!163 = !{!46, !135}
!164 = !DISubprogram(name: "release", linkageName: "_ZNSt3__110unique_ptrI1aNS_14default_deleteIS1_EEE7releaseEv", scope: !4, file: !5, line: 2541, type: !165, isLocal: false, isDefinition: false, scopeLine: 2541, flags: DIFlagPublic | DIFlagPrototyped, isOptimized: false)
!165 = !DISubroutineType(types: !166)
!166 = !{!140, !109}
!167 = !DISubprogram(name: "reset", linkageName: "_ZNSt3__110unique_ptrI1aNS_14default_deleteIS1_EEE5resetEPS1_", scope: !4, file: !5, line: 2548, type: !168, isLocal: false, isDefinition: false, scopeLine: 2548, flags: DIFlagPublic | DIFlagPrototyped, isOptimized: false)
!168 = !DISubroutineType(types: !169)
!169 = !{null, !109, !140}
!170 = !DISubprogram(name: "swap", linkageName: "_ZNSt3__110unique_ptrI1aNS_14default_deleteIS1_EEE4swapERS4_", scope: !4, file: !5, line: 2556, type: !171, isLocal: false, isDefinition: false, scopeLine: 2556, flags: DIFlagPublic | DIFlagPrototyped, isOptimized: false)
!171 = !DISubroutineType(types: !172)
!172 = !{null, !109, !114}
!173 = !{!174, !179, !182, !186, !188, !195, !201, !208, !216, !220, !224, !228, !234, !239, !243, !247, !251, !255, !260, !264, !269, !274, !278, !282, !286, !290, !295, !299, !301, !305, !307, !316, !320, !325, !329, !331, !335, !339, !341, !345, !351, !355, !359, !365, !367, !369, !374, !376, !380, !384, !386, !388, !392, !396, !400, !402, !406, !411, !415, !419, !421, !423, !425, !427, !429, !431, !435, !439, !444, !448, !451, !454, !458, !462, !465, !468, !471, !473, !475, !477, !479, !481, !483, !485, !487, !489, !491, !493, !495, !497, !499, !501, !506, !509, !512, !515, !519, !521, !526, !530, !532, !534, !538, !540, !542, !544, !546, !548, !550, !552, !557, !561, !563, !565, !570, !575, !577, !579, !581, !583, !585, !587, !589, !591, !593, !595, !597, !599, !601, !603, !605, !607, !611, !613, !615, !617, !621, !623, !627, !629, !631, !633, !635, !639, !641, !643, !647, !649, !651, !655, !657, !661, !663, !665, !669, !671, !673, !675, !677, !679, !681, !685, !687, !689, !691, !693, !695, !697, !699, !703, !707, !709, !711, !713, !715, !717, !719, !721, !723, !725, !727, !729, !731, !733, !735, !737, !739, !741, !743, !745, !749, !751, !753, !755, !759, !761, !765, !767, !769, !771, !773, !777, !779, !783, !785, !787, !789, !791, !795, !797, !799, !803, !805, !807, !809, !864, !865, !866, !872, !874, !878, !882, !886, !888, !892, !896, !900, !911, !913, !917, !921, !925, !927, !931, !935, !939, !941, !943, !945, !949, !953, !958, !962, !968, !972, !976, !978, !980, !982, !986, !990, !994, !996, !998, !1002, !1006, !1008, !1010, !1014, !1018, !1020, !1024, !1026, !1028, !1032, !1034, !1036, !1038, !1040, !1042, !1044, !1046, !1048, !1050, !1052, !1054, !1056, !1058, !1063, !1068, !1073, !1078, !1080, !1083, !1085, !1087, !1089, !1091, !1093, !1095, !1097, !1099, !1101, !1105, !1109, !1113, !1115, !1119, !1123, !1136, !1137, !1152, !1153, !1154, !1159, !1161, !1165, !1169, !1173, !1177, !1179, !1183, !1187, !1191, !1195, !1199, !1203, !1205, !1207, !1211, !1216, !1220, !1224, !1228, !1232, !1236, !1240, !1244, !1248, !1250, !1252, !1256, !1258, !1262, !1266, !1271, !1273, !1275, !1277, !1281, !1285, !1289, !1291, !1295, !1297, !1299, !1301, !1303, !1309, !1313, !1315, !1321, !1326, !1330, !1334, !1339, !1344, !1348, !1352, !1356, !1360, !1362}
!174 = !DIImportedEntity(tag: DW_TAG_imported_declaration, scope: !6, entity: !175, file: !178, line: 49)
!175 = !DIDerivedType(tag: DW_TAG_typedef, name: "ptrdiff_t", file: !176, line: 51, baseType: !177)
!176 = !DIFile(filename: "/Applications/Xcode.app/Contents/Developer/Toolchains/XcodeDefault.xctoolchain/usr/lib/clang/9.1.0/include/stddef.h", directory: "/Users/ejiang/Projects/lls/ac/llfiles")
!177 = !DIBasicType(name: "long int", size: 64, encoding: DW_ATE_signed)
!178 = !DIFile(filename: "/Applications/Xcode.app/Contents/Developer/Toolchains/XcodeDefault.xctoolchain/usr/include/c++/v1/cstddef", directory: "/Users/ejiang/Projects/lls/ac/llfiles")
!179 = !DIImportedEntity(tag: DW_TAG_imported_declaration, scope: !6, entity: !180, file: !178, line: 50)
!180 = !DIDerivedType(tag: DW_TAG_typedef, name: "size_t", file: !176, line: 62, baseType: !181)
!181 = !DIBasicType(name: "long unsigned int", size: 64, encoding: DW_ATE_unsigned)
!182 = !DIImportedEntity(tag: DW_TAG_imported_declaration, scope: !6, entity: !183, file: !178, line: 55)
!183 = !DIDerivedType(tag: DW_TAG_typedef, name: "max_align_t", file: !184, line: 32, baseType: !185)
!184 = !DIFile(filename: "/Applications/Xcode.app/Contents/Developer/Toolchains/XcodeDefault.xctoolchain/usr/lib/clang/9.1.0/include/__stddef_max_align_t.h", directory: "/Users/ejiang/Projects/lls/ac/llfiles")
!185 = !DIBasicType(name: "long double", size: 128, encoding: DW_ATE_float)
!186 = !DIImportedEntity(tag: DW_TAG_imported_declaration, scope: !6, entity: !180, file: !187, line: 100)
!187 = !DIFile(filename: "/Applications/Xcode.app/Contents/Developer/Toolchains/XcodeDefault.xctoolchain/usr/include/c++/v1/cstdlib", directory: "/Users/ejiang/Projects/lls/ac/llfiles")
!188 = !DIImportedEntity(tag: DW_TAG_imported_declaration, scope: !6, entity: !189, file: !187, line: 101)
!189 = !DIDerivedType(tag: DW_TAG_typedef, name: "div_t", file: !190, line: 85, baseType: !191)
!190 = !DIFile(filename: "/Applications/Xcode.app/Contents/Developer/Platforms/MacOSX.platform/Developer/SDKs/MacOSX10.13.sdk/usr/include/stdlib.h", directory: "/Users/ejiang/Projects/lls/ac/llfiles")
!191 = distinct !DICompositeType(tag: DW_TAG_structure_type, file: !190, line: 82, size: 64, elements: !192, identifier: "_ZTS5div_t")
!192 = !{!193, !194}
!193 = !DIDerivedType(tag: DW_TAG_member, name: "quot", scope: !191, file: !190, line: 83, baseType: !20, size: 32)
!194 = !DIDerivedType(tag: DW_TAG_member, name: "rem", scope: !191, file: !190, line: 84, baseType: !20, size: 32, offset: 32)
!195 = !DIImportedEntity(tag: DW_TAG_imported_declaration, scope: !6, entity: !196, file: !187, line: 102)
!196 = !DIDerivedType(tag: DW_TAG_typedef, name: "ldiv_t", file: !190, line: 90, baseType: !197)
!197 = distinct !DICompositeType(tag: DW_TAG_structure_type, file: !190, line: 87, size: 128, elements: !198, identifier: "_ZTS6ldiv_t")
!198 = !{!199, !200}
!199 = !DIDerivedType(tag: DW_TAG_member, name: "quot", scope: !197, file: !190, line: 88, baseType: !177, size: 64)
!200 = !DIDerivedType(tag: DW_TAG_member, name: "rem", scope: !197, file: !190, line: 89, baseType: !177, size: 64, offset: 64)
!201 = !DIImportedEntity(tag: DW_TAG_imported_declaration, scope: !6, entity: !202, file: !187, line: 104)
!202 = !DIDerivedType(tag: DW_TAG_typedef, name: "lldiv_t", file: !190, line: 96, baseType: !203)
!203 = distinct !DICompositeType(tag: DW_TAG_structure_type, file: !190, line: 93, size: 128, elements: !204, identifier: "_ZTS7lldiv_t")
!204 = !{!205, !207}
!205 = !DIDerivedType(tag: DW_TAG_member, name: "quot", scope: !203, file: !190, line: 94, baseType: !206, size: 64)
!206 = !DIBasicType(name: "long long int", size: 64, encoding: DW_ATE_signed)
!207 = !DIDerivedType(tag: DW_TAG_member, name: "rem", scope: !203, file: !190, line: 95, baseType: !206, size: 64, offset: 64)
!208 = !DIImportedEntity(tag: DW_TAG_imported_declaration, scope: !6, entity: !209, file: !187, line: 106)
!209 = !DISubprogram(name: "atof", scope: !190, file: !190, line: 139, type: !210, isLocal: false, isDefinition: false, flags: DIFlagPrototyped, isOptimized: false)
!210 = !DISubroutineType(types: !211)
!211 = !{!212, !213}
!212 = !DIBasicType(name: "double", size: 64, encoding: DW_ATE_float)
!213 = !DIDerivedType(tag: DW_TAG_pointer_type, baseType: !214, size: 64)
!214 = !DIDerivedType(tag: DW_TAG_const_type, baseType: !215)
!215 = !DIBasicType(name: "char", size: 8, encoding: DW_ATE_signed_char)
!216 = !DIImportedEntity(tag: DW_TAG_imported_declaration, scope: !6, entity: !217, file: !187, line: 107)
!217 = !DISubprogram(name: "atoi", scope: !190, file: !190, line: 140, type: !218, isLocal: false, isDefinition: false, flags: DIFlagPrototyped, isOptimized: false)
!218 = !DISubroutineType(types: !219)
!219 = !{!20, !213}
!220 = !DIImportedEntity(tag: DW_TAG_imported_declaration, scope: !6, entity: !221, file: !187, line: 108)
!221 = !DISubprogram(name: "atol", scope: !190, file: !190, line: 141, type: !222, isLocal: false, isDefinition: false, flags: DIFlagPrototyped, isOptimized: false)
!222 = !DISubroutineType(types: !223)
!223 = !{!177, !213}
!224 = !DIImportedEntity(tag: DW_TAG_imported_declaration, scope: !6, entity: !225, file: !187, line: 110)
!225 = !DISubprogram(name: "atoll", scope: !190, file: !190, line: 144, type: !226, isLocal: false, isDefinition: false, flags: DIFlagPrototyped, isOptimized: false)
!226 = !DISubroutineType(types: !227)
!227 = !{!206, !213}
!228 = !DIImportedEntity(tag: DW_TAG_imported_declaration, scope: !6, entity: !229, file: !187, line: 112)
!229 = !DISubprogram(name: "strtod", linkageName: "\01_strtod", scope: !190, file: !190, line: 170, type: !230, isLocal: false, isDefinition: false, flags: DIFlagPrototyped, isOptimized: false)
!230 = !DISubroutineType(types: !231)
!231 = !{!212, !213, !232}
!232 = !DIDerivedType(tag: DW_TAG_pointer_type, baseType: !233, size: 64)
!233 = !DIDerivedType(tag: DW_TAG_pointer_type, baseType: !215, size: 64)
!234 = !DIImportedEntity(tag: DW_TAG_imported_declaration, scope: !6, entity: !235, file: !187, line: 113)
!235 = !DISubprogram(name: "strtof", linkageName: "\01_strtof", scope: !190, file: !190, line: 171, type: !236, isLocal: false, isDefinition: false, flags: DIFlagPrototyped, isOptimized: false)
!236 = !DISubroutineType(types: !237)
!237 = !{!238, !213, !232}
!238 = !DIBasicType(name: "float", size: 32, encoding: DW_ATE_float)
!239 = !DIImportedEntity(tag: DW_TAG_imported_declaration, scope: !6, entity: !240, file: !187, line: 114)
!240 = !DISubprogram(name: "strtold", scope: !190, file: !190, line: 174, type: !241, isLocal: false, isDefinition: false, flags: DIFlagPrototyped, isOptimized: false)
!241 = !DISubroutineType(types: !242)
!242 = !{!185, !213, !232}
!243 = !DIImportedEntity(tag: DW_TAG_imported_declaration, scope: !6, entity: !244, file: !187, line: 115)
!244 = !DISubprogram(name: "strtol", scope: !190, file: !190, line: 172, type: !245, isLocal: false, isDefinition: false, flags: DIFlagPrototyped, isOptimized: false)
!245 = !DISubroutineType(types: !246)
!246 = !{!177, !213, !232, !20}
!247 = !DIImportedEntity(tag: DW_TAG_imported_declaration, scope: !6, entity: !248, file: !187, line: 117)
!248 = !DISubprogram(name: "strtoll", scope: !190, file: !190, line: 177, type: !249, isLocal: false, isDefinition: false, flags: DIFlagPrototyped, isOptimized: false)
!249 = !DISubroutineType(types: !250)
!250 = !{!206, !213, !232, !20}
!251 = !DIImportedEntity(tag: DW_TAG_imported_declaration, scope: !6, entity: !252, file: !187, line: 119)
!252 = !DISubprogram(name: "strtoul", scope: !190, file: !190, line: 180, type: !253, isLocal: false, isDefinition: false, flags: DIFlagPrototyped, isOptimized: false)
!253 = !DISubroutineType(types: !254)
!254 = !{!181, !213, !232, !20}
!255 = !DIImportedEntity(tag: DW_TAG_imported_declaration, scope: !6, entity: !256, file: !187, line: 121)
!256 = !DISubprogram(name: "strtoull", scope: !190, file: !190, line: 183, type: !257, isLocal: false, isDefinition: false, flags: DIFlagPrototyped, isOptimized: false)
!257 = !DISubroutineType(types: !258)
!258 = !{!259, !213, !232, !20}
!259 = !DIBasicType(name: "long long unsigned int", size: 64, encoding: DW_ATE_unsigned)
!260 = !DIImportedEntity(tag: DW_TAG_imported_declaration, scope: !6, entity: !261, file: !187, line: 123)
!261 = !DISubprogram(name: "rand", scope: !190, file: !190, line: 167, type: !262, isLocal: false, isDefinition: false, flags: DIFlagPrototyped, isOptimized: false)
!262 = !DISubroutineType(types: !263)
!263 = !{!20}
!264 = !DIImportedEntity(tag: DW_TAG_imported_declaration, scope: !6, entity: !265, file: !187, line: 124)
!265 = !DISubprogram(name: "srand", scope: !190, file: !190, line: 169, type: !266, isLocal: false, isDefinition: false, flags: DIFlagPrototyped, isOptimized: false)
!266 = !DISubroutineType(types: !267)
!267 = !{null, !268}
!268 = !DIBasicType(name: "unsigned int", size: 32, encoding: DW_ATE_unsigned)
!269 = !DIImportedEntity(tag: DW_TAG_imported_declaration, scope: !6, entity: !270, file: !187, line: 125)
!270 = !DISubprogram(name: "calloc", scope: !190, file: !190, line: 148, type: !271, isLocal: false, isDefinition: false, flags: DIFlagPrototyped, isOptimized: false)
!271 = !DISubroutineType(types: !272)
!272 = !{!273, !180, !180}
!273 = !DIDerivedType(tag: DW_TAG_pointer_type, baseType: null, size: 64)
!274 = !DIImportedEntity(tag: DW_TAG_imported_declaration, scope: !6, entity: !275, file: !187, line: 126)
!275 = !DISubprogram(name: "free", scope: !190, file: !190, line: 151, type: !276, isLocal: false, isDefinition: false, flags: DIFlagPrototyped, isOptimized: false)
!276 = !DISubroutineType(types: !277)
!277 = !{null, !273}
!278 = !DIImportedEntity(tag: DW_TAG_imported_declaration, scope: !6, entity: !279, file: !187, line: 127)
!279 = !DISubprogram(name: "malloc", scope: !190, file: !190, line: 160, type: !280, isLocal: false, isDefinition: false, flags: DIFlagPrototyped, isOptimized: false)
!280 = !DISubroutineType(types: !281)
!281 = !{!273, !180}
!282 = !DIImportedEntity(tag: DW_TAG_imported_declaration, scope: !6, entity: !283, file: !187, line: 128)
!283 = !DISubprogram(name: "realloc", scope: !190, file: !190, line: 168, type: !284, isLocal: false, isDefinition: false, flags: DIFlagPrototyped, isOptimized: false)
!284 = !DISubroutineType(types: !285)
!285 = !{!273, !273, !180}
!286 = !DIImportedEntity(tag: DW_TAG_imported_declaration, scope: !6, entity: !287, file: !187, line: 129)
!287 = !DISubprogram(name: "abort", scope: !190, file: !190, line: 136, type: !288, isLocal: false, isDefinition: false, flags: DIFlagPrototyped | DIFlagNoReturn, isOptimized: false)
!288 = !DISubroutineType(types: !289)
!289 = !{null}
!290 = !DIImportedEntity(tag: DW_TAG_imported_declaration, scope: !6, entity: !291, file: !187, line: 130)
!291 = !DISubprogram(name: "atexit", scope: !190, file: !190, line: 138, type: !292, isLocal: false, isDefinition: false, flags: DIFlagPrototyped, isOptimized: false)
!292 = !DISubroutineType(types: !293)
!293 = !{!20, !294}
!294 = !DIDerivedType(tag: DW_TAG_pointer_type, baseType: !288, size: 64)
!295 = !DIImportedEntity(tag: DW_TAG_imported_declaration, scope: !6, entity: !296, file: !187, line: 131)
!296 = !DISubprogram(name: "exit", scope: !190, file: !190, line: 150, type: !297, isLocal: false, isDefinition: false, flags: DIFlagPrototyped | DIFlagNoReturn, isOptimized: false)
!297 = !DISubroutineType(types: !298)
!298 = !{null, !20}
!299 = !DIImportedEntity(tag: DW_TAG_imported_declaration, scope: !6, entity: !300, file: !187, line: 132)
!300 = !DISubprogram(name: "_Exit", scope: !190, file: !190, line: 203, type: !297, isLocal: false, isDefinition: false, flags: DIFlagPrototyped | DIFlagNoReturn, isOptimized: false)
!301 = !DIImportedEntity(tag: DW_TAG_imported_declaration, scope: !6, entity: !302, file: !187, line: 134)
!302 = !DISubprogram(name: "getenv", scope: !190, file: !190, line: 152, type: !303, isLocal: false, isDefinition: false, flags: DIFlagPrototyped, isOptimized: false)
!303 = !DISubroutineType(types: !304)
!304 = !{!233, !213}
!305 = !DIImportedEntity(tag: DW_TAG_imported_declaration, scope: !6, entity: !306, file: !187, line: 135)
!306 = !DISubprogram(name: "system", linkageName: "\01_system", scope: !190, file: !190, line: 195, type: !218, isLocal: false, isDefinition: false, flags: DIFlagPrototyped, isOptimized: false)
!307 = !DIImportedEntity(tag: DW_TAG_imported_declaration, scope: !6, entity: !308, file: !187, line: 137)
!308 = !DISubprogram(name: "bsearch", scope: !190, file: !190, line: 146, type: !309, isLocal: false, isDefinition: false, flags: DIFlagPrototyped, isOptimized: false)
!309 = !DISubroutineType(types: !310)
!310 = !{!273, !311, !311, !180, !180, !313}
!311 = !DIDerivedType(tag: DW_TAG_pointer_type, baseType: !312, size: 64)
!312 = !DIDerivedType(tag: DW_TAG_const_type, baseType: null)
!313 = !DIDerivedType(tag: DW_TAG_pointer_type, baseType: !314, size: 64)
!314 = !DISubroutineType(types: !315)
!315 = !{!20, !311, !311}
!316 = !DIImportedEntity(tag: DW_TAG_imported_declaration, scope: !6, entity: !317, file: !187, line: 138)
!317 = !DISubprogram(name: "qsort", scope: !190, file: !190, line: 165, type: !318, isLocal: false, isDefinition: false, flags: DIFlagPrototyped, isOptimized: false)
!318 = !DISubroutineType(types: !319)
!319 = !{null, !273, !180, !180, !313}
!320 = !DIImportedEntity(tag: DW_TAG_imported_declaration, scope: !6, entity: !321, file: !187, line: 139)
!321 = !DISubprogram(name: "abs", linkageName: "_Z3absx", scope: !322, file: !322, line: 113, type: !323, isLocal: false, isDefinition: false, flags: DIFlagPrototyped, isOptimized: false)
!322 = !DIFile(filename: "/Applications/Xcode.app/Contents/Developer/Toolchains/XcodeDefault.xctoolchain/usr/include/c++/v1/stdlib.h", directory: "/Users/ejiang/Projects/lls/ac/llfiles")
!323 = !DISubroutineType(types: !324)
!324 = !{!206, !206}
!325 = !DIImportedEntity(tag: DW_TAG_imported_declaration, scope: !6, entity: !326, file: !187, line: 140)
!326 = !DISubprogram(name: "labs", scope: !190, file: !190, line: 153, type: !327, isLocal: false, isDefinition: false, flags: DIFlagPrototyped, isOptimized: false)
!327 = !DISubroutineType(types: !328)
!328 = !{!177, !177}
!329 = !DIImportedEntity(tag: DW_TAG_imported_declaration, scope: !6, entity: !330, file: !187, line: 142)
!330 = !DISubprogram(name: "llabs", scope: !190, file: !190, line: 157, type: !323, isLocal: false, isDefinition: false, flags: DIFlagPrototyped, isOptimized: false)
!331 = !DIImportedEntity(tag: DW_TAG_imported_declaration, scope: !6, entity: !332, file: !187, line: 144)
!332 = !DISubprogram(name: "div", linkageName: "_Z3divxx", scope: !322, file: !322, line: 118, type: !333, isLocal: false, isDefinition: false, flags: DIFlagPrototyped, isOptimized: false)
!333 = !DISubroutineType(types: !334)
!334 = !{!202, !206, !206}
!335 = !DIImportedEntity(tag: DW_TAG_imported_declaration, scope: !6, entity: !336, file: !187, line: 145)
!336 = !DISubprogram(name: "ldiv", scope: !190, file: !190, line: 154, type: !337, isLocal: false, isDefinition: false, flags: DIFlagPrototyped, isOptimized: false)
!337 = !DISubroutineType(types: !338)
!338 = !{!196, !177, !177}
!339 = !DIImportedEntity(tag: DW_TAG_imported_declaration, scope: !6, entity: !340, file: !187, line: 147)
!340 = !DISubprogram(name: "lldiv", scope: !190, file: !190, line: 158, type: !333, isLocal: false, isDefinition: false, flags: DIFlagPrototyped, isOptimized: false)
!341 = !DIImportedEntity(tag: DW_TAG_imported_declaration, scope: !6, entity: !342, file: !187, line: 149)
!342 = !DISubprogram(name: "mblen", scope: !190, file: !190, line: 161, type: !343, isLocal: false, isDefinition: false, flags: DIFlagPrototyped, isOptimized: false)
!343 = !DISubroutineType(types: !344)
!344 = !{!20, !213, !180}
!345 = !DIImportedEntity(tag: DW_TAG_imported_declaration, scope: !6, entity: !346, file: !187, line: 150)
!346 = !DISubprogram(name: "mbtowc", scope: !190, file: !190, line: 163, type: !347, isLocal: false, isDefinition: false, flags: DIFlagPrototyped, isOptimized: false)
!347 = !DISubroutineType(types: !348)
!348 = !{!20, !349, !213, !180}
!349 = !DIDerivedType(tag: DW_TAG_pointer_type, baseType: !350, size: 64)
!350 = !DIBasicType(name: "wchar_t", size: 32, encoding: DW_ATE_signed)
!351 = !DIImportedEntity(tag: DW_TAG_imported_declaration, scope: !6, entity: !352, file: !187, line: 151)
!352 = !DISubprogram(name: "wctomb", scope: !190, file: !190, line: 200, type: !353, isLocal: false, isDefinition: false, flags: DIFlagPrototyped, isOptimized: false)
!353 = !DISubroutineType(types: !354)
!354 = !{!20, !233, !350}
!355 = !DIImportedEntity(tag: DW_TAG_imported_declaration, scope: !6, entity: !356, file: !187, line: 152)
!356 = !DISubprogram(name: "mbstowcs", scope: !190, file: !190, line: 162, type: !357, isLocal: false, isDefinition: false, flags: DIFlagPrototyped, isOptimized: false)
!357 = !DISubroutineType(types: !358)
!358 = !{!180, !349, !213, !180}
!359 = !DIImportedEntity(tag: DW_TAG_imported_declaration, scope: !6, entity: !360, file: !187, line: 153)
!360 = !DISubprogram(name: "wcstombs", scope: !190, file: !190, line: 199, type: !361, isLocal: false, isDefinition: false, flags: DIFlagPrototyped, isOptimized: false)
!361 = !DISubroutineType(types: !362)
!362 = !{!180, !233, !363, !180}
!363 = !DIDerivedType(tag: DW_TAG_pointer_type, baseType: !364, size: 64)
!364 = !DIDerivedType(tag: DW_TAG_const_type, baseType: !350)
!365 = !DIImportedEntity(tag: DW_TAG_imported_declaration, scope: !0, entity: !121, file: !366, line: 52)
!366 = !DIFile(filename: "/Applications/Xcode.app/Contents/Developer/Toolchains/XcodeDefault.xctoolchain/usr/include/c++/v1/stddef.h", directory: "/Users/ejiang/Projects/lls/ac/llfiles")
!367 = !DIImportedEntity(tag: DW_TAG_imported_declaration, scope: !6, entity: !180, file: !368, line: 69)
!368 = !DIFile(filename: "/Applications/Xcode.app/Contents/Developer/Toolchains/XcodeDefault.xctoolchain/usr/include/c++/v1/cstring", directory: "/Users/ejiang/Projects/lls/ac/llfiles")
!369 = !DIImportedEntity(tag: DW_TAG_imported_declaration, scope: !6, entity: !370, file: !368, line: 70)
!370 = !DISubprogram(name: "memcpy", scope: !371, file: !371, line: 72, type: !372, isLocal: false, isDefinition: false, flags: DIFlagPrototyped, isOptimized: false)
!371 = !DIFile(filename: "/Applications/Xcode.app/Contents/Developer/Platforms/MacOSX.platform/Developer/SDKs/MacOSX10.13.sdk/usr/include/string.h", directory: "/Users/ejiang/Projects/lls/ac/llfiles")
!372 = !DISubroutineType(types: !373)
!373 = !{!273, !273, !311, !180}
!374 = !DIImportedEntity(tag: DW_TAG_imported_declaration, scope: !6, entity: !375, file: !368, line: 71)
!375 = !DISubprogram(name: "memmove", scope: !371, file: !371, line: 73, type: !372, isLocal: false, isDefinition: false, flags: DIFlagPrototyped, isOptimized: false)
!376 = !DIImportedEntity(tag: DW_TAG_imported_declaration, scope: !6, entity: !377, file: !368, line: 72)
!377 = !DISubprogram(name: "strcpy", scope: !371, file: !371, line: 79, type: !378, isLocal: false, isDefinition: false, flags: DIFlagPrototyped, isOptimized: false)
!378 = !DISubroutineType(types: !379)
!379 = !{!233, !233, !213}
!380 = !DIImportedEntity(tag: DW_TAG_imported_declaration, scope: !6, entity: !381, file: !368, line: 73)
!381 = !DISubprogram(name: "strncpy", scope: !371, file: !371, line: 85, type: !382, isLocal: false, isDefinition: false, flags: DIFlagPrototyped, isOptimized: false)
!382 = !DISubroutineType(types: !383)
!383 = !{!233, !233, !213, !180}
!384 = !DIImportedEntity(tag: DW_TAG_imported_declaration, scope: !6, entity: !385, file: !368, line: 74)
!385 = !DISubprogram(name: "strcat", scope: !371, file: !371, line: 75, type: !378, isLocal: false, isDefinition: false, flags: DIFlagPrototyped, isOptimized: false)
!386 = !DIImportedEntity(tag: DW_TAG_imported_declaration, scope: !6, entity: !387, file: !368, line: 75)
!387 = !DISubprogram(name: "strncat", scope: !371, file: !371, line: 83, type: !382, isLocal: false, isDefinition: false, flags: DIFlagPrototyped, isOptimized: false)
!388 = !DIImportedEntity(tag: DW_TAG_imported_declaration, scope: !6, entity: !389, file: !368, line: 76)
!389 = !DISubprogram(name: "memcmp", scope: !371, file: !371, line: 71, type: !390, isLocal: false, isDefinition: false, flags: DIFlagPrototyped, isOptimized: false)
!390 = !DISubroutineType(types: !391)
!391 = !{!20, !311, !311, !180}
!392 = !DIImportedEntity(tag: DW_TAG_imported_declaration, scope: !6, entity: !393, file: !368, line: 77)
!393 = !DISubprogram(name: "strcmp", scope: !371, file: !371, line: 77, type: !394, isLocal: false, isDefinition: false, flags: DIFlagPrototyped, isOptimized: false)
!394 = !DISubroutineType(types: !395)
!395 = !{!20, !213, !213}
!396 = !DIImportedEntity(tag: DW_TAG_imported_declaration, scope: !6, entity: !397, file: !368, line: 78)
!397 = !DISubprogram(name: "strncmp", scope: !371, file: !371, line: 84, type: !398, isLocal: false, isDefinition: false, flags: DIFlagPrototyped, isOptimized: false)
!398 = !DISubroutineType(types: !399)
!399 = !{!20, !213, !213, !180}
!400 = !DIImportedEntity(tag: DW_TAG_imported_declaration, scope: !6, entity: !401, file: !368, line: 79)
!401 = !DISubprogram(name: "strcoll", scope: !371, file: !371, line: 78, type: !394, isLocal: false, isDefinition: false, flags: DIFlagPrototyped, isOptimized: false)
!402 = !DIImportedEntity(tag: DW_TAG_imported_declaration, scope: !6, entity: !403, file: !368, line: 80)
!403 = !DISubprogram(name: "strxfrm", scope: !371, file: !371, line: 91, type: !404, isLocal: false, isDefinition: false, flags: DIFlagPrototyped, isOptimized: false)
!404 = !DISubroutineType(types: !405)
!405 = !{!180, !233, !213, !180}
!406 = !DIImportedEntity(tag: DW_TAG_imported_declaration, scope: !6, entity: !407, file: !368, line: 81)
!407 = !DISubprogram(name: "memchr", linkageName: "_Z6memchrUa9enable_ifIXLb1EEEPvim", scope: !408, file: !408, line: 99, type: !409, isLocal: false, isDefinition: false, flags: DIFlagPrototyped, isOptimized: false)
!408 = !DIFile(filename: "/Applications/Xcode.app/Contents/Developer/Toolchains/XcodeDefault.xctoolchain/usr/include/c++/v1/string.h", directory: "/Users/ejiang/Projects/lls/ac/llfiles")
!409 = !DISubroutineType(types: !410)
!410 = !{!273, !273, !20, !180}
!411 = !DIImportedEntity(tag: DW_TAG_imported_declaration, scope: !6, entity: !412, file: !368, line: 82)
!412 = !DISubprogram(name: "strchr", linkageName: "_Z6strchrUa9enable_ifIXLb1EEEPci", scope: !408, file: !408, line: 78, type: !413, isLocal: false, isDefinition: false, flags: DIFlagPrototyped, isOptimized: false)
!413 = !DISubroutineType(types: !414)
!414 = !{!233, !233, !20}
!415 = !DIImportedEntity(tag: DW_TAG_imported_declaration, scope: !6, entity: !416, file: !368, line: 83)
!416 = !DISubprogram(name: "strcspn", scope: !371, file: !371, line: 80, type: !417, isLocal: false, isDefinition: false, flags: DIFlagPrototyped, isOptimized: false)
!417 = !DISubroutineType(types: !418)
!418 = !{!180, !213, !213}
!419 = !DIImportedEntity(tag: DW_TAG_imported_declaration, scope: !6, entity: !420, file: !368, line: 84)
!420 = !DISubprogram(name: "strpbrk", linkageName: "_Z7strpbrkUa9enable_ifIXLb1EEEPcPKc", scope: !408, file: !408, line: 85, type: !378, isLocal: false, isDefinition: false, flags: DIFlagPrototyped, isOptimized: false)
!421 = !DIImportedEntity(tag: DW_TAG_imported_declaration, scope: !6, entity: !422, file: !368, line: 85)
!422 = !DISubprogram(name: "strrchr", linkageName: "_Z7strrchrUa9enable_ifIXLb1EEEPci", scope: !408, file: !408, line: 92, type: !413, isLocal: false, isDefinition: false, flags: DIFlagPrototyped, isOptimized: false)
!423 = !DIImportedEntity(tag: DW_TAG_imported_declaration, scope: !6, entity: !424, file: !368, line: 86)
!424 = !DISubprogram(name: "strspn", scope: !371, file: !371, line: 88, type: !417, isLocal: false, isDefinition: false, flags: DIFlagPrototyped, isOptimized: false)
!425 = !DIImportedEntity(tag: DW_TAG_imported_declaration, scope: !6, entity: !426, file: !368, line: 87)
!426 = !DISubprogram(name: "strstr", linkageName: "_Z6strstrUa9enable_ifIXLb1EEEPcPKc", scope: !408, file: !408, line: 106, type: !378, isLocal: false, isDefinition: false, flags: DIFlagPrototyped, isOptimized: false)
!427 = !DIImportedEntity(tag: DW_TAG_imported_declaration, scope: !6, entity: !428, file: !368, line: 89)
!428 = !DISubprogram(name: "strtok", scope: !371, file: !371, line: 90, type: !378, isLocal: false, isDefinition: false, flags: DIFlagPrototyped, isOptimized: false)
!429 = !DIImportedEntity(tag: DW_TAG_imported_declaration, scope: !6, entity: !430, file: !368, line: 91)
!430 = !DISubprogram(name: "memset", scope: !371, file: !371, line: 74, type: !409, isLocal: false, isDefinition: false, flags: DIFlagPrototyped, isOptimized: false)
!431 = !DIImportedEntity(tag: DW_TAG_imported_declaration, scope: !6, entity: !432, file: !368, line: 92)
!432 = !DISubprogram(name: "strerror", linkageName: "\01_strerror", scope: !371, file: !371, line: 81, type: !433, isLocal: false, isDefinition: false, flags: DIFlagPrototyped, isOptimized: false)
!433 = !DISubroutineType(types: !434)
!434 = !{!233, !20}
!435 = !DIImportedEntity(tag: DW_TAG_imported_declaration, scope: !6, entity: !436, file: !368, line: 93)
!436 = !DISubprogram(name: "strlen", scope: !371, file: !371, line: 82, type: !437, isLocal: false, isDefinition: false, flags: DIFlagPrototyped, isOptimized: false)
!437 = !DISubroutineType(types: !438)
!438 = !{!180, !213}
!439 = !DIImportedEntity(tag: DW_TAG_imported_declaration, scope: !6, entity: !440, file: !443, line: 153)
!440 = !DIDerivedType(tag: DW_TAG_typedef, name: "int8_t", file: !441, line: 30, baseType: !442)
!441 = !DIFile(filename: "/Applications/Xcode.app/Contents/Developer/Platforms/MacOSX.platform/Developer/SDKs/MacOSX10.13.sdk/usr/include/sys/_types/_int8_t.h", directory: "/Users/ejiang/Projects/lls/ac/llfiles")
!442 = !DIBasicType(name: "signed char", size: 8, encoding: DW_ATE_signed_char)
!443 = !DIFile(filename: "/Applications/Xcode.app/Contents/Developer/Toolchains/XcodeDefault.xctoolchain/usr/include/c++/v1/cstdint", directory: "/Users/ejiang/Projects/lls/ac/llfiles")
!444 = !DIImportedEntity(tag: DW_TAG_imported_declaration, scope: !6, entity: !445, file: !443, line: 154)
!445 = !DIDerivedType(tag: DW_TAG_typedef, name: "int16_t", file: !446, line: 30, baseType: !447)
!446 = !DIFile(filename: "/Applications/Xcode.app/Contents/Developer/Platforms/MacOSX.platform/Developer/SDKs/MacOSX10.13.sdk/usr/include/sys/_types/_int16_t.h", directory: "/Users/ejiang/Projects/lls/ac/llfiles")
!447 = !DIBasicType(name: "short", size: 16, encoding: DW_ATE_signed)
!448 = !DIImportedEntity(tag: DW_TAG_imported_declaration, scope: !6, entity: !449, file: !443, line: 155)
!449 = !DIDerivedType(tag: DW_TAG_typedef, name: "int32_t", file: !450, line: 30, baseType: !20)
!450 = !DIFile(filename: "/Applications/Xcode.app/Contents/Developer/Platforms/MacOSX.platform/Developer/SDKs/MacOSX10.13.sdk/usr/include/sys/_types/_int32_t.h", directory: "/Users/ejiang/Projects/lls/ac/llfiles")
!451 = !DIImportedEntity(tag: DW_TAG_imported_declaration, scope: !6, entity: !452, file: !443, line: 156)
!452 = !DIDerivedType(tag: DW_TAG_typedef, name: "int64_t", file: !453, line: 30, baseType: !206)
!453 = !DIFile(filename: "/Applications/Xcode.app/Contents/Developer/Platforms/MacOSX.platform/Developer/SDKs/MacOSX10.13.sdk/usr/include/sys/_types/_int64_t.h", directory: "/Users/ejiang/Projects/lls/ac/llfiles")
!454 = !DIImportedEntity(tag: DW_TAG_imported_declaration, scope: !6, entity: !455, file: !443, line: 158)
!455 = !DIDerivedType(tag: DW_TAG_typedef, name: "uint8_t", file: !456, line: 31, baseType: !457)
!456 = !DIFile(filename: "/Applications/Xcode.app/Contents/Developer/Platforms/MacOSX.platform/Developer/SDKs/MacOSX10.13.sdk/usr/include/_types/_uint8_t.h", directory: "/Users/ejiang/Projects/lls/ac/llfiles")
!457 = !DIBasicType(name: "unsigned char", size: 8, encoding: DW_ATE_unsigned_char)
!458 = !DIImportedEntity(tag: DW_TAG_imported_declaration, scope: !6, entity: !459, file: !443, line: 159)
!459 = !DIDerivedType(tag: DW_TAG_typedef, name: "uint16_t", file: !460, line: 31, baseType: !461)
!460 = !DIFile(filename: "/Applications/Xcode.app/Contents/Developer/Platforms/MacOSX.platform/Developer/SDKs/MacOSX10.13.sdk/usr/include/_types/_uint16_t.h", directory: "/Users/ejiang/Projects/lls/ac/llfiles")
!461 = !DIBasicType(name: "unsigned short", size: 16, encoding: DW_ATE_unsigned)
!462 = !DIImportedEntity(tag: DW_TAG_imported_declaration, scope: !6, entity: !463, file: !443, line: 160)
!463 = !DIDerivedType(tag: DW_TAG_typedef, name: "uint32_t", file: !464, line: 31, baseType: !268)
!464 = !DIFile(filename: "/Applications/Xcode.app/Contents/Developer/Platforms/MacOSX.platform/Developer/SDKs/MacOSX10.13.sdk/usr/include/_types/_uint32_t.h", directory: "/Users/ejiang/Projects/lls/ac/llfiles")
!465 = !DIImportedEntity(tag: DW_TAG_imported_declaration, scope: !6, entity: !466, file: !443, line: 161)
!466 = !DIDerivedType(tag: DW_TAG_typedef, name: "uint64_t", file: !467, line: 31, baseType: !259)
!467 = !DIFile(filename: "/Applications/Xcode.app/Contents/Developer/Platforms/MacOSX.platform/Developer/SDKs/MacOSX10.13.sdk/usr/include/_types/_uint64_t.h", directory: "/Users/ejiang/Projects/lls/ac/llfiles")
!468 = !DIImportedEntity(tag: DW_TAG_imported_declaration, scope: !6, entity: !469, file: !443, line: 163)
!469 = !DIDerivedType(tag: DW_TAG_typedef, name: "int_least8_t", file: !470, line: 29, baseType: !440)
!470 = !DIFile(filename: "/Applications/Xcode.app/Contents/Developer/Platforms/MacOSX.platform/Developer/SDKs/MacOSX10.13.sdk/usr/include/stdint.h", directory: "/Users/ejiang/Projects/lls/ac/llfiles")
!471 = !DIImportedEntity(tag: DW_TAG_imported_declaration, scope: !6, entity: !472, file: !443, line: 164)
!472 = !DIDerivedType(tag: DW_TAG_typedef, name: "int_least16_t", file: !470, line: 30, baseType: !445)
!473 = !DIImportedEntity(tag: DW_TAG_imported_declaration, scope: !6, entity: !474, file: !443, line: 165)
!474 = !DIDerivedType(tag: DW_TAG_typedef, name: "int_least32_t", file: !470, line: 31, baseType: !449)
!475 = !DIImportedEntity(tag: DW_TAG_imported_declaration, scope: !6, entity: !476, file: !443, line: 166)
!476 = !DIDerivedType(tag: DW_TAG_typedef, name: "int_least64_t", file: !470, line: 32, baseType: !452)
!477 = !DIImportedEntity(tag: DW_TAG_imported_declaration, scope: !6, entity: !478, file: !443, line: 168)
!478 = !DIDerivedType(tag: DW_TAG_typedef, name: "uint_least8_t", file: !470, line: 33, baseType: !455)
!479 = !DIImportedEntity(tag: DW_TAG_imported_declaration, scope: !6, entity: !480, file: !443, line: 169)
!480 = !DIDerivedType(tag: DW_TAG_typedef, name: "uint_least16_t", file: !470, line: 34, baseType: !459)
!481 = !DIImportedEntity(tag: DW_TAG_imported_declaration, scope: !6, entity: !482, file: !443, line: 170)
!482 = !DIDerivedType(tag: DW_TAG_typedef, name: "uint_least32_t", file: !470, line: 35, baseType: !463)
!483 = !DIImportedEntity(tag: DW_TAG_imported_declaration, scope: !6, entity: !484, file: !443, line: 171)
!484 = !DIDerivedType(tag: DW_TAG_typedef, name: "uint_least64_t", file: !470, line: 36, baseType: !466)
!485 = !DIImportedEntity(tag: DW_TAG_imported_declaration, scope: !6, entity: !486, file: !443, line: 173)
!486 = !DIDerivedType(tag: DW_TAG_typedef, name: "int_fast8_t", file: !470, line: 40, baseType: !440)
!487 = !DIImportedEntity(tag: DW_TAG_imported_declaration, scope: !6, entity: !488, file: !443, line: 174)
!488 = !DIDerivedType(tag: DW_TAG_typedef, name: "int_fast16_t", file: !470, line: 41, baseType: !445)
!489 = !DIImportedEntity(tag: DW_TAG_imported_declaration, scope: !6, entity: !490, file: !443, line: 175)
!490 = !DIDerivedType(tag: DW_TAG_typedef, name: "int_fast32_t", file: !470, line: 42, baseType: !449)
!491 = !DIImportedEntity(tag: DW_TAG_imported_declaration, scope: !6, entity: !492, file: !443, line: 176)
!492 = !DIDerivedType(tag: DW_TAG_typedef, name: "int_fast64_t", file: !470, line: 43, baseType: !452)
!493 = !DIImportedEntity(tag: DW_TAG_imported_declaration, scope: !6, entity: !494, file: !443, line: 178)
!494 = !DIDerivedType(tag: DW_TAG_typedef, name: "uint_fast8_t", file: !470, line: 44, baseType: !455)
!495 = !DIImportedEntity(tag: DW_TAG_imported_declaration, scope: !6, entity: !496, file: !443, line: 179)
!496 = !DIDerivedType(tag: DW_TAG_typedef, name: "uint_fast16_t", file: !470, line: 45, baseType: !459)
!497 = !DIImportedEntity(tag: DW_TAG_imported_declaration, scope: !6, entity: !498, file: !443, line: 180)
!498 = !DIDerivedType(tag: DW_TAG_typedef, name: "uint_fast32_t", file: !470, line: 46, baseType: !463)
!499 = !DIImportedEntity(tag: DW_TAG_imported_declaration, scope: !6, entity: !500, file: !443, line: 181)
!500 = !DIDerivedType(tag: DW_TAG_typedef, name: "uint_fast64_t", file: !470, line: 47, baseType: !466)
!501 = !DIImportedEntity(tag: DW_TAG_imported_declaration, scope: !6, entity: !502, file: !443, line: 183)
!502 = !DIDerivedType(tag: DW_TAG_typedef, name: "intptr_t", file: !503, line: 32, baseType: !504)
!503 = !DIFile(filename: "/Applications/Xcode.app/Contents/Developer/Platforms/MacOSX.platform/Developer/SDKs/MacOSX10.13.sdk/usr/include/sys/_types/_intptr_t.h", directory: "/Users/ejiang/Projects/lls/ac/llfiles")
!504 = !DIDerivedType(tag: DW_TAG_typedef, name: "__darwin_intptr_t", file: !505, line: 49, baseType: !177)
!505 = !DIFile(filename: "/Applications/Xcode.app/Contents/Developer/Platforms/MacOSX.platform/Developer/SDKs/MacOSX10.13.sdk/usr/include/i386/_types.h", directory: "/Users/ejiang/Projects/lls/ac/llfiles")
!506 = !DIImportedEntity(tag: DW_TAG_imported_declaration, scope: !6, entity: !507, file: !443, line: 184)
!507 = !DIDerivedType(tag: DW_TAG_typedef, name: "uintptr_t", file: !508, line: 30, baseType: !181)
!508 = !DIFile(filename: "/Applications/Xcode.app/Contents/Developer/Platforms/MacOSX.platform/Developer/SDKs/MacOSX10.13.sdk/usr/include/sys/_types/_uintptr_t.h", directory: "/Users/ejiang/Projects/lls/ac/llfiles")
!509 = !DIImportedEntity(tag: DW_TAG_imported_declaration, scope: !6, entity: !510, file: !443, line: 186)
!510 = !DIDerivedType(tag: DW_TAG_typedef, name: "intmax_t", file: !511, line: 32, baseType: !177)
!511 = !DIFile(filename: "/Applications/Xcode.app/Contents/Developer/Platforms/MacOSX.platform/Developer/SDKs/MacOSX10.13.sdk/usr/include/_types/_intmax_t.h", directory: "/Users/ejiang/Projects/lls/ac/llfiles")
!512 = !DIImportedEntity(tag: DW_TAG_imported_declaration, scope: !6, entity: !513, file: !443, line: 187)
!513 = !DIDerivedType(tag: DW_TAG_typedef, name: "uintmax_t", file: !514, line: 32, baseType: !181)
!514 = !DIFile(filename: "/Applications/Xcode.app/Contents/Developer/Platforms/MacOSX.platform/Developer/SDKs/MacOSX10.13.sdk/usr/include/_types/_uintmax_t.h", directory: "/Users/ejiang/Projects/lls/ac/llfiles")
!515 = !DIImportedEntity(tag: DW_TAG_imported_declaration, scope: !6, entity: !516, file: !518, line: 327)
!516 = !DIDerivedType(tag: DW_TAG_typedef, name: "float_t", file: !517, line: 44, baseType: !238)
!517 = !DIFile(filename: "/Applications/Xcode.app/Contents/Developer/Platforms/MacOSX.platform/Developer/SDKs/MacOSX10.13.sdk/usr/include/math.h", directory: "/Users/ejiang/Projects/lls/ac/llfiles")
!518 = !DIFile(filename: "/Applications/Xcode.app/Contents/Developer/Toolchains/XcodeDefault.xctoolchain/usr/include/c++/v1/cmath", directory: "/Users/ejiang/Projects/lls/ac/llfiles")
!519 = !DIImportedEntity(tag: DW_TAG_imported_declaration, scope: !6, entity: !520, file: !518, line: 328)
!520 = !DIDerivedType(tag: DW_TAG_typedef, name: "double_t", file: !517, line: 45, baseType: !212)
!521 = !DIImportedEntity(tag: DW_TAG_imported_declaration, scope: !6, entity: !522, file: !518, line: 331)
!522 = !DISubprogram(name: "abs", linkageName: "_Z3abse", scope: !523, file: !523, line: 741, type: !524, isLocal: false, isDefinition: false, flags: DIFlagPrototyped, isOptimized: false)
!523 = !DIFile(filename: "/Applications/Xcode.app/Contents/Developer/Toolchains/XcodeDefault.xctoolchain/usr/include/c++/v1/math.h", directory: "/Users/ejiang/Projects/lls/ac/llfiles")
!524 = !DISubroutineType(types: !525)
!525 = !{!185, !185}
!526 = !DIImportedEntity(tag: DW_TAG_imported_declaration, scope: !6, entity: !527, file: !518, line: 335)
!527 = !DISubprogram(name: "acosf", scope: !517, file: !517, line: 322, type: !528, isLocal: false, isDefinition: false, flags: DIFlagPrototyped, isOptimized: false)
!528 = !DISubroutineType(types: !529)
!529 = !{!238, !238}
!530 = !DIImportedEntity(tag: DW_TAG_imported_declaration, scope: !6, entity: !531, file: !518, line: 337)
!531 = !DISubprogram(name: "asinf", scope: !517, file: !517, line: 326, type: !528, isLocal: false, isDefinition: false, flags: DIFlagPrototyped, isOptimized: false)
!532 = !DIImportedEntity(tag: DW_TAG_imported_declaration, scope: !6, entity: !533, file: !518, line: 339)
!533 = !DISubprogram(name: "atanf", scope: !517, file: !517, line: 330, type: !528, isLocal: false, isDefinition: false, flags: DIFlagPrototyped, isOptimized: false)
!534 = !DIImportedEntity(tag: DW_TAG_imported_declaration, scope: !6, entity: !535, file: !518, line: 341)
!535 = !DISubprogram(name: "atan2f", scope: !517, file: !517, line: 334, type: !536, isLocal: false, isDefinition: false, flags: DIFlagPrototyped, isOptimized: false)
!536 = !DISubroutineType(types: !537)
!537 = !{!238, !238, !238}
!538 = !DIImportedEntity(tag: DW_TAG_imported_declaration, scope: !6, entity: !539, file: !518, line: 343)
!539 = !DISubprogram(name: "ceilf", scope: !517, file: !517, line: 469, type: !528, isLocal: false, isDefinition: false, flags: DIFlagPrototyped, isOptimized: false)
!540 = !DIImportedEntity(tag: DW_TAG_imported_declaration, scope: !6, entity: !541, file: !518, line: 345)
!541 = !DISubprogram(name: "cosf", scope: !517, file: !517, line: 338, type: !528, isLocal: false, isDefinition: false, flags: DIFlagPrototyped, isOptimized: false)
!542 = !DIImportedEntity(tag: DW_TAG_imported_declaration, scope: !6, entity: !543, file: !518, line: 347)
!543 = !DISubprogram(name: "coshf", scope: !517, file: !517, line: 362, type: !528, isLocal: false, isDefinition: false, flags: DIFlagPrototyped, isOptimized: false)
!544 = !DIImportedEntity(tag: DW_TAG_imported_declaration, scope: !6, entity: !545, file: !518, line: 350)
!545 = !DISubprogram(name: "expf", scope: !517, file: !517, line: 374, type: !528, isLocal: false, isDefinition: false, flags: DIFlagPrototyped, isOptimized: false)
!546 = !DIImportedEntity(tag: DW_TAG_imported_declaration, scope: !6, entity: !547, file: !518, line: 353)
!547 = !DISubprogram(name: "fabsf", scope: !517, file: !517, line: 430, type: !528, isLocal: false, isDefinition: false, flags: DIFlagPrototyped, isOptimized: false)
!548 = !DIImportedEntity(tag: DW_TAG_imported_declaration, scope: !6, entity: !549, file: !518, line: 355)
!549 = !DISubprogram(name: "floorf", scope: !517, file: !517, line: 473, type: !528, isLocal: false, isDefinition: false, flags: DIFlagPrototyped, isOptimized: false)
!550 = !DIImportedEntity(tag: DW_TAG_imported_declaration, scope: !6, entity: !551, file: !518, line: 358)
!551 = !DISubprogram(name: "fmodf", scope: !517, file: !517, line: 513, type: !536, isLocal: false, isDefinition: false, flags: DIFlagPrototyped, isOptimized: false)
!552 = !DIImportedEntity(tag: DW_TAG_imported_declaration, scope: !6, entity: !553, file: !518, line: 361)
!553 = !DISubprogram(name: "frexpf", scope: !517, file: !517, line: 414, type: !554, isLocal: false, isDefinition: false, flags: DIFlagPrototyped, isOptimized: false)
!554 = !DISubroutineType(types: !555)
!555 = !{!238, !238, !556}
!556 = !DIDerivedType(tag: DW_TAG_pointer_type, baseType: !20, size: 64)
!557 = !DIImportedEntity(tag: DW_TAG_imported_declaration, scope: !6, entity: !558, file: !518, line: 363)
!558 = !DISubprogram(name: "ldexpf", scope: !517, file: !517, line: 410, type: !559, isLocal: false, isDefinition: false, flags: DIFlagPrototyped, isOptimized: false)
!559 = !DISubroutineType(types: !560)
!560 = !{!238, !238, !20}
!561 = !DIImportedEntity(tag: DW_TAG_imported_declaration, scope: !6, entity: !562, file: !518, line: 366)
!562 = !DISubprogram(name: "logf", scope: !517, file: !517, line: 386, type: !528, isLocal: false, isDefinition: false, flags: DIFlagPrototyped, isOptimized: false)
!563 = !DIImportedEntity(tag: DW_TAG_imported_declaration, scope: !6, entity: !564, file: !518, line: 369)
!564 = !DISubprogram(name: "log10f", scope: !517, file: !517, line: 390, type: !528, isLocal: false, isDefinition: false, flags: DIFlagPrototyped, isOptimized: false)
!565 = !DIImportedEntity(tag: DW_TAG_imported_declaration, scope: !6, entity: !566, file: !518, line: 370)
!566 = !DISubprogram(name: "modf", linkageName: "_Z4modfePe", scope: !523, file: !523, line: 950, type: !567, isLocal: false, isDefinition: false, flags: DIFlagPrototyped, isOptimized: false)
!567 = !DISubroutineType(types: !568)
!568 = !{!185, !185, !569}
!569 = !DIDerivedType(tag: DW_TAG_pointer_type, baseType: !185, size: 64)
!570 = !DIImportedEntity(tag: DW_TAG_imported_declaration, scope: !6, entity: !571, file: !518, line: 371)
!571 = !DISubprogram(name: "modff", scope: !517, file: !517, line: 406, type: !572, isLocal: false, isDefinition: false, flags: DIFlagPrototyped, isOptimized: false)
!572 = !DISubroutineType(types: !573)
!573 = !{!238, !238, !574}
!574 = !DIDerivedType(tag: DW_TAG_pointer_type, baseType: !238, size: 64)
!575 = !DIImportedEntity(tag: DW_TAG_imported_declaration, scope: !6, entity: !576, file: !518, line: 374)
!576 = !DISubprogram(name: "powf", scope: !517, file: !517, line: 442, type: !536, isLocal: false, isDefinition: false, flags: DIFlagPrototyped, isOptimized: false)
!577 = !DIImportedEntity(tag: DW_TAG_imported_declaration, scope: !6, entity: !578, file: !518, line: 377)
!578 = !DISubprogram(name: "sinf", scope: !517, file: !517, line: 342, type: !528, isLocal: false, isDefinition: false, flags: DIFlagPrototyped, isOptimized: false)
!579 = !DIImportedEntity(tag: DW_TAG_imported_declaration, scope: !6, entity: !580, file: !518, line: 379)
!580 = !DISubprogram(name: "sinhf", scope: !517, file: !517, line: 366, type: !528, isLocal: false, isDefinition: false, flags: DIFlagPrototyped, isOptimized: false)
!581 = !DIImportedEntity(tag: DW_TAG_imported_declaration, scope: !6, entity: !582, file: !518, line: 382)
!582 = !DISubprogram(name: "sqrtf", scope: !517, file: !517, line: 446, type: !528, isLocal: false, isDefinition: false, flags: DIFlagPrototyped, isOptimized: false)
!583 = !DIImportedEntity(tag: DW_TAG_imported_declaration, scope: !6, entity: !584, file: !518, line: 384)
!584 = !DISubprogram(name: "tanf", scope: !517, file: !517, line: 346, type: !528, isLocal: false, isDefinition: false, flags: DIFlagPrototyped, isOptimized: false)
!585 = !DIImportedEntity(tag: DW_TAG_imported_declaration, scope: !6, entity: !586, file: !518, line: 387)
!586 = !DISubprogram(name: "tanhf", scope: !517, file: !517, line: 370, type: !528, isLocal: false, isDefinition: false, flags: DIFlagPrototyped, isOptimized: false)
!587 = !DIImportedEntity(tag: DW_TAG_imported_declaration, scope: !6, entity: !588, file: !518, line: 390)
!588 = !DISubprogram(name: "acoshf", scope: !517, file: !517, line: 350, type: !528, isLocal: false, isDefinition: false, flags: DIFlagPrototyped, isOptimized: false)
!589 = !DIImportedEntity(tag: DW_TAG_imported_declaration, scope: !6, entity: !590, file: !518, line: 392)
!590 = !DISubprogram(name: "asinhf", scope: !517, file: !517, line: 354, type: !528, isLocal: false, isDefinition: false, flags: DIFlagPrototyped, isOptimized: false)
!591 = !DIImportedEntity(tag: DW_TAG_imported_declaration, scope: !6, entity: !592, file: !518, line: 394)
!592 = !DISubprogram(name: "atanhf", scope: !517, file: !517, line: 358, type: !528, isLocal: false, isDefinition: false, flags: DIFlagPrototyped, isOptimized: false)
!593 = !DIImportedEntity(tag: DW_TAG_imported_declaration, scope: !6, entity: !594, file: !518, line: 396)
!594 = !DISubprogram(name: "cbrtf", scope: !517, file: !517, line: 434, type: !528, isLocal: false, isDefinition: false, flags: DIFlagPrototyped, isOptimized: false)
!595 = !DIImportedEntity(tag: DW_TAG_imported_declaration, scope: !6, entity: !596, file: !518, line: 399)
!596 = !DISubprogram(name: "copysignf", scope: !517, file: !517, line: 525, type: !536, isLocal: false, isDefinition: false, flags: DIFlagPrototyped, isOptimized: false)
!597 = !DIImportedEntity(tag: DW_TAG_imported_declaration, scope: !6, entity: !598, file: !518, line: 402)
!598 = !DISubprogram(name: "erff", scope: !517, file: !517, line: 450, type: !528, isLocal: false, isDefinition: false, flags: DIFlagPrototyped, isOptimized: false)
!599 = !DIImportedEntity(tag: DW_TAG_imported_declaration, scope: !6, entity: !600, file: !518, line: 404)
!600 = !DISubprogram(name: "erfcf", scope: !517, file: !517, line: 454, type: !528, isLocal: false, isDefinition: false, flags: DIFlagPrototyped, isOptimized: false)
!601 = !DIImportedEntity(tag: DW_TAG_imported_declaration, scope: !6, entity: !602, file: !518, line: 406)
!602 = !DISubprogram(name: "exp2f", scope: !517, file: !517, line: 378, type: !528, isLocal: false, isDefinition: false, flags: DIFlagPrototyped, isOptimized: false)
!603 = !DIImportedEntity(tag: DW_TAG_imported_declaration, scope: !6, entity: !604, file: !518, line: 408)
!604 = !DISubprogram(name: "expm1f", scope: !517, file: !517, line: 382, type: !528, isLocal: false, isDefinition: false, flags: DIFlagPrototyped, isOptimized: false)
!605 = !DIImportedEntity(tag: DW_TAG_imported_declaration, scope: !6, entity: !606, file: !518, line: 410)
!606 = !DISubprogram(name: "fdimf", scope: !517, file: !517, line: 541, type: !536, isLocal: false, isDefinition: false, flags: DIFlagPrototyped, isOptimized: false)
!607 = !DIImportedEntity(tag: DW_TAG_imported_declaration, scope: !6, entity: !608, file: !518, line: 411)
!608 = !DISubprogram(name: "fmaf", scope: !517, file: !517, line: 553, type: !609, isLocal: false, isDefinition: false, flags: DIFlagPrototyped, isOptimized: false)
!609 = !DISubroutineType(types: !610)
!610 = !{!238, !238, !238, !238}
!611 = !DIImportedEntity(tag: DW_TAG_imported_declaration, scope: !6, entity: !612, file: !518, line: 414)
!612 = !DISubprogram(name: "fmaxf", scope: !517, file: !517, line: 545, type: !536, isLocal: false, isDefinition: false, flags: DIFlagPrototyped, isOptimized: false)
!613 = !DIImportedEntity(tag: DW_TAG_imported_declaration, scope: !6, entity: !614, file: !518, line: 416)
!614 = !DISubprogram(name: "fminf", scope: !517, file: !517, line: 549, type: !536, isLocal: false, isDefinition: false, flags: DIFlagPrototyped, isOptimized: false)
!615 = !DIImportedEntity(tag: DW_TAG_imported_declaration, scope: !6, entity: !616, file: !518, line: 418)
!616 = !DISubprogram(name: "hypotf", scope: !517, file: !517, line: 438, type: !536, isLocal: false, isDefinition: false, flags: DIFlagPrototyped, isOptimized: false)
!617 = !DIImportedEntity(tag: DW_TAG_imported_declaration, scope: !6, entity: !618, file: !518, line: 420)
!618 = !DISubprogram(name: "ilogbf", scope: !517, file: !517, line: 418, type: !619, isLocal: false, isDefinition: false, flags: DIFlagPrototyped, isOptimized: false)
!619 = !DISubroutineType(types: !620)
!620 = !{!20, !238}
!621 = !DIImportedEntity(tag: DW_TAG_imported_declaration, scope: !6, entity: !622, file: !518, line: 422)
!622 = !DISubprogram(name: "lgammaf", scope: !517, file: !517, line: 461, type: !528, isLocal: false, isDefinition: false, flags: DIFlagPrototyped, isOptimized: false)
!623 = !DIImportedEntity(tag: DW_TAG_imported_declaration, scope: !6, entity: !624, file: !518, line: 424)
!624 = !DISubprogram(name: "llrintf", scope: !517, file: !517, line: 500, type: !625, isLocal: false, isDefinition: false, flags: DIFlagPrototyped, isOptimized: false)
!625 = !DISubroutineType(types: !626)
!626 = !{!206, !238}
!627 = !DIImportedEntity(tag: DW_TAG_imported_declaration, scope: !6, entity: !628, file: !518, line: 426)
!628 = !DISubprogram(name: "llroundf", scope: !517, file: !517, line: 504, type: !625, isLocal: false, isDefinition: false, flags: DIFlagPrototyped, isOptimized: false)
!629 = !DIImportedEntity(tag: DW_TAG_imported_declaration, scope: !6, entity: !630, file: !518, line: 428)
!630 = !DISubprogram(name: "log1pf", scope: !517, file: !517, line: 398, type: !528, isLocal: false, isDefinition: false, flags: DIFlagPrototyped, isOptimized: false)
!631 = !DIImportedEntity(tag: DW_TAG_imported_declaration, scope: !6, entity: !632, file: !518, line: 430)
!632 = !DISubprogram(name: "log2f", scope: !517, file: !517, line: 394, type: !528, isLocal: false, isDefinition: false, flags: DIFlagPrototyped, isOptimized: false)
!633 = !DIImportedEntity(tag: DW_TAG_imported_declaration, scope: !6, entity: !634, file: !518, line: 432)
!634 = !DISubprogram(name: "logbf", scope: !517, file: !517, line: 402, type: !528, isLocal: false, isDefinition: false, flags: DIFlagPrototyped, isOptimized: false)
!635 = !DIImportedEntity(tag: DW_TAG_imported_declaration, scope: !6, entity: !636, file: !518, line: 434)
!636 = !DISubprogram(name: "lrintf", scope: !517, file: !517, line: 485, type: !637, isLocal: false, isDefinition: false, flags: DIFlagPrototyped, isOptimized: false)
!637 = !DISubroutineType(types: !638)
!638 = !{!177, !238}
!639 = !DIImportedEntity(tag: DW_TAG_imported_declaration, scope: !6, entity: !640, file: !518, line: 436)
!640 = !DISubprogram(name: "lroundf", scope: !517, file: !517, line: 493, type: !637, isLocal: false, isDefinition: false, flags: DIFlagPrototyped, isOptimized: false)
!641 = !DIImportedEntity(tag: DW_TAG_imported_declaration, scope: !6, entity: !642, file: !518, line: 438)
!642 = !DISubprogram(name: "nan", scope: !517, file: !517, line: 530, type: !210, isLocal: false, isDefinition: false, flags: DIFlagPrototyped, isOptimized: false)
!643 = !DIImportedEntity(tag: DW_TAG_imported_declaration, scope: !6, entity: !644, file: !518, line: 439)
!644 = !DISubprogram(name: "nanf", scope: !517, file: !517, line: 529, type: !645, isLocal: false, isDefinition: false, flags: DIFlagPrototyped, isOptimized: false)
!645 = !DISubroutineType(types: !646)
!646 = !{!238, !213}
!647 = !DIImportedEntity(tag: DW_TAG_imported_declaration, scope: !6, entity: !648, file: !518, line: 442)
!648 = !DISubprogram(name: "nearbyintf", scope: !517, file: !517, line: 477, type: !528, isLocal: false, isDefinition: false, flags: DIFlagPrototyped, isOptimized: false)
!649 = !DIImportedEntity(tag: DW_TAG_imported_declaration, scope: !6, entity: !650, file: !518, line: 444)
!650 = !DISubprogram(name: "nextafterf", scope: !517, file: !517, line: 533, type: !536, isLocal: false, isDefinition: false, flags: DIFlagPrototyped, isOptimized: false)
!651 = !DIImportedEntity(tag: DW_TAG_imported_declaration, scope: !6, entity: !652, file: !518, line: 446)
!652 = !DISubprogram(name: "nexttowardf", scope: !517, file: !517, line: 538, type: !653, isLocal: false, isDefinition: false, flags: DIFlagPrototyped, isOptimized: false)
!653 = !DISubroutineType(types: !654)
!654 = !{!238, !238, !185}
!655 = !DIImportedEntity(tag: DW_TAG_imported_declaration, scope: !6, entity: !656, file: !518, line: 448)
!656 = !DISubprogram(name: "remainderf", scope: !517, file: !517, line: 517, type: !536, isLocal: false, isDefinition: false, flags: DIFlagPrototyped, isOptimized: false)
!657 = !DIImportedEntity(tag: DW_TAG_imported_declaration, scope: !6, entity: !658, file: !518, line: 450)
!658 = !DISubprogram(name: "remquof", scope: !517, file: !517, line: 521, type: !659, isLocal: false, isDefinition: false, flags: DIFlagPrototyped, isOptimized: false)
!659 = !DISubroutineType(types: !660)
!660 = !{!238, !238, !238, !556}
!661 = !DIImportedEntity(tag: DW_TAG_imported_declaration, scope: !6, entity: !662, file: !518, line: 452)
!662 = !DISubprogram(name: "rintf", scope: !517, file: !517, line: 481, type: !528, isLocal: false, isDefinition: false, flags: DIFlagPrototyped, isOptimized: false)
!663 = !DIImportedEntity(tag: DW_TAG_imported_declaration, scope: !6, entity: !664, file: !518, line: 454)
!664 = !DISubprogram(name: "roundf", scope: !517, file: !517, line: 489, type: !528, isLocal: false, isDefinition: false, flags: DIFlagPrototyped, isOptimized: false)
!665 = !DIImportedEntity(tag: DW_TAG_imported_declaration, scope: !6, entity: !666, file: !518, line: 456)
!666 = !DISubprogram(name: "scalblnf", scope: !517, file: !517, line: 426, type: !667, isLocal: false, isDefinition: false, flags: DIFlagPrototyped, isOptimized: false)
!667 = !DISubroutineType(types: !668)
!668 = !{!238, !238, !177}
!669 = !DIImportedEntity(tag: DW_TAG_imported_declaration, scope: !6, entity: !670, file: !518, line: 458)
!670 = !DISubprogram(name: "scalbnf", scope: !517, file: !517, line: 422, type: !559, isLocal: false, isDefinition: false, flags: DIFlagPrototyped, isOptimized: false)
!671 = !DIImportedEntity(tag: DW_TAG_imported_declaration, scope: !6, entity: !672, file: !518, line: 460)
!672 = !DISubprogram(name: "tgammaf", scope: !517, file: !517, line: 465, type: !528, isLocal: false, isDefinition: false, flags: DIFlagPrototyped, isOptimized: false)
!673 = !DIImportedEntity(tag: DW_TAG_imported_declaration, scope: !6, entity: !674, file: !518, line: 462)
!674 = !DISubprogram(name: "truncf", scope: !517, file: !517, line: 509, type: !528, isLocal: false, isDefinition: false, flags: DIFlagPrototyped, isOptimized: false)
!675 = !DIImportedEntity(tag: DW_TAG_imported_declaration, scope: !6, entity: !676, file: !518, line: 464)
!676 = !DISubprogram(name: "acosl", scope: !517, file: !517, line: 324, type: !524, isLocal: false, isDefinition: false, flags: DIFlagPrototyped, isOptimized: false)
!677 = !DIImportedEntity(tag: DW_TAG_imported_declaration, scope: !6, entity: !678, file: !518, line: 465)
!678 = !DISubprogram(name: "asinl", scope: !517, file: !517, line: 328, type: !524, isLocal: false, isDefinition: false, flags: DIFlagPrototyped, isOptimized: false)
!679 = !DIImportedEntity(tag: DW_TAG_imported_declaration, scope: !6, entity: !680, file: !518, line: 466)
!680 = !DISubprogram(name: "atanl", scope: !517, file: !517, line: 332, type: !524, isLocal: false, isDefinition: false, flags: DIFlagPrototyped, isOptimized: false)
!681 = !DIImportedEntity(tag: DW_TAG_imported_declaration, scope: !6, entity: !682, file: !518, line: 467)
!682 = !DISubprogram(name: "atan2l", scope: !517, file: !517, line: 336, type: !683, isLocal: false, isDefinition: false, flags: DIFlagPrototyped, isOptimized: false)
!683 = !DISubroutineType(types: !684)
!684 = !{!185, !185, !185}
!685 = !DIImportedEntity(tag: DW_TAG_imported_declaration, scope: !6, entity: !686, file: !518, line: 468)
!686 = !DISubprogram(name: "ceill", scope: !517, file: !517, line: 471, type: !524, isLocal: false, isDefinition: false, flags: DIFlagPrototyped, isOptimized: false)
!687 = !DIImportedEntity(tag: DW_TAG_imported_declaration, scope: !6, entity: !688, file: !518, line: 469)
!688 = !DISubprogram(name: "cosl", scope: !517, file: !517, line: 340, type: !524, isLocal: false, isDefinition: false, flags: DIFlagPrototyped, isOptimized: false)
!689 = !DIImportedEntity(tag: DW_TAG_imported_declaration, scope: !6, entity: !690, file: !518, line: 470)
!690 = !DISubprogram(name: "coshl", scope: !517, file: !517, line: 364, type: !524, isLocal: false, isDefinition: false, flags: DIFlagPrototyped, isOptimized: false)
!691 = !DIImportedEntity(tag: DW_TAG_imported_declaration, scope: !6, entity: !692, file: !518, line: 471)
!692 = !DISubprogram(name: "expl", scope: !517, file: !517, line: 376, type: !524, isLocal: false, isDefinition: false, flags: DIFlagPrototyped, isOptimized: false)
!693 = !DIImportedEntity(tag: DW_TAG_imported_declaration, scope: !6, entity: !694, file: !518, line: 472)
!694 = !DISubprogram(name: "fabsl", scope: !517, file: !517, line: 432, type: !524, isLocal: false, isDefinition: false, flags: DIFlagPrototyped, isOptimized: false)
!695 = !DIImportedEntity(tag: DW_TAG_imported_declaration, scope: !6, entity: !696, file: !518, line: 473)
!696 = !DISubprogram(name: "floorl", scope: !517, file: !517, line: 475, type: !524, isLocal: false, isDefinition: false, flags: DIFlagPrototyped, isOptimized: false)
!697 = !DIImportedEntity(tag: DW_TAG_imported_declaration, scope: !6, entity: !698, file: !518, line: 474)
!698 = !DISubprogram(name: "fmodl", scope: !517, file: !517, line: 515, type: !683, isLocal: false, isDefinition: false, flags: DIFlagPrototyped, isOptimized: false)
!699 = !DIImportedEntity(tag: DW_TAG_imported_declaration, scope: !6, entity: !700, file: !518, line: 475)
!700 = !DISubprogram(name: "frexpl", scope: !517, file: !517, line: 416, type: !701, isLocal: false, isDefinition: false, flags: DIFlagPrototyped, isOptimized: false)
!701 = !DISubroutineType(types: !702)
!702 = !{!185, !185, !556}
!703 = !DIImportedEntity(tag: DW_TAG_imported_declaration, scope: !6, entity: !704, file: !518, line: 476)
!704 = !DISubprogram(name: "ldexpl", scope: !517, file: !517, line: 412, type: !705, isLocal: false, isDefinition: false, flags: DIFlagPrototyped, isOptimized: false)
!705 = !DISubroutineType(types: !706)
!706 = !{!185, !185, !20}
!707 = !DIImportedEntity(tag: DW_TAG_imported_declaration, scope: !6, entity: !708, file: !518, line: 477)
!708 = !DISubprogram(name: "logl", scope: !517, file: !517, line: 388, type: !524, isLocal: false, isDefinition: false, flags: DIFlagPrototyped, isOptimized: false)
!709 = !DIImportedEntity(tag: DW_TAG_imported_declaration, scope: !6, entity: !710, file: !518, line: 478)
!710 = !DISubprogram(name: "log10l", scope: !517, file: !517, line: 392, type: !524, isLocal: false, isDefinition: false, flags: DIFlagPrototyped, isOptimized: false)
!711 = !DIImportedEntity(tag: DW_TAG_imported_declaration, scope: !6, entity: !712, file: !518, line: 479)
!712 = !DISubprogram(name: "modfl", scope: !517, file: !517, line: 408, type: !567, isLocal: false, isDefinition: false, flags: DIFlagPrototyped, isOptimized: false)
!713 = !DIImportedEntity(tag: DW_TAG_imported_declaration, scope: !6, entity: !714, file: !518, line: 480)
!714 = !DISubprogram(name: "powl", scope: !517, file: !517, line: 444, type: !683, isLocal: false, isDefinition: false, flags: DIFlagPrototyped, isOptimized: false)
!715 = !DIImportedEntity(tag: DW_TAG_imported_declaration, scope: !6, entity: !716, file: !518, line: 481)
!716 = !DISubprogram(name: "sinl", scope: !517, file: !517, line: 344, type: !524, isLocal: false, isDefinition: false, flags: DIFlagPrototyped, isOptimized: false)
!717 = !DIImportedEntity(tag: DW_TAG_imported_declaration, scope: !6, entity: !718, file: !518, line: 482)
!718 = !DISubprogram(name: "sinhl", scope: !517, file: !517, line: 368, type: !524, isLocal: false, isDefinition: false, flags: DIFlagPrototyped, isOptimized: false)
!719 = !DIImportedEntity(tag: DW_TAG_imported_declaration, scope: !6, entity: !720, file: !518, line: 483)
!720 = !DISubprogram(name: "sqrtl", scope: !517, file: !517, line: 448, type: !524, isLocal: false, isDefinition: false, flags: DIFlagPrototyped, isOptimized: false)
!721 = !DIImportedEntity(tag: DW_TAG_imported_declaration, scope: !6, entity: !722, file: !518, line: 484)
!722 = !DISubprogram(name: "tanl", scope: !517, file: !517, line: 348, type: !524, isLocal: false, isDefinition: false, flags: DIFlagPrototyped, isOptimized: false)
!723 = !DIImportedEntity(tag: DW_TAG_imported_declaration, scope: !6, entity: !724, file: !518, line: 486)
!724 = !DISubprogram(name: "tanhl", scope: !517, file: !517, line: 372, type: !524, isLocal: false, isDefinition: false, flags: DIFlagPrototyped, isOptimized: false)
!725 = !DIImportedEntity(tag: DW_TAG_imported_declaration, scope: !6, entity: !726, file: !518, line: 487)
!726 = !DISubprogram(name: "acoshl", scope: !517, file: !517, line: 352, type: !524, isLocal: false, isDefinition: false, flags: DIFlagPrototyped, isOptimized: false)
!727 = !DIImportedEntity(tag: DW_TAG_imported_declaration, scope: !6, entity: !728, file: !518, line: 488)
!728 = !DISubprogram(name: "asinhl", scope: !517, file: !517, line: 356, type: !524, isLocal: false, isDefinition: false, flags: DIFlagPrototyped, isOptimized: false)
!729 = !DIImportedEntity(tag: DW_TAG_imported_declaration, scope: !6, entity: !730, file: !518, line: 489)
!730 = !DISubprogram(name: "atanhl", scope: !517, file: !517, line: 360, type: !524, isLocal: false, isDefinition: false, flags: DIFlagPrototyped, isOptimized: false)
!731 = !DIImportedEntity(tag: DW_TAG_imported_declaration, scope: !6, entity: !732, file: !518, line: 490)
!732 = !DISubprogram(name: "cbrtl", scope: !517, file: !517, line: 436, type: !524, isLocal: false, isDefinition: false, flags: DIFlagPrototyped, isOptimized: false)
!733 = !DIImportedEntity(tag: DW_TAG_imported_declaration, scope: !6, entity: !734, file: !518, line: 492)
!734 = !DISubprogram(name: "copysignl", scope: !517, file: !517, line: 527, type: !683, isLocal: false, isDefinition: false, flags: DIFlagPrototyped, isOptimized: false)
!735 = !DIImportedEntity(tag: DW_TAG_imported_declaration, scope: !6, entity: !736, file: !518, line: 494)
!736 = !DISubprogram(name: "erfl", scope: !517, file: !517, line: 452, type: !524, isLocal: false, isDefinition: false, flags: DIFlagPrototyped, isOptimized: false)
!737 = !DIImportedEntity(tag: DW_TAG_imported_declaration, scope: !6, entity: !738, file: !518, line: 495)
!738 = !DISubprogram(name: "erfcl", scope: !517, file: !517, line: 456, type: !524, isLocal: false, isDefinition: false, flags: DIFlagPrototyped, isOptimized: false)
!739 = !DIImportedEntity(tag: DW_TAG_imported_declaration, scope: !6, entity: !740, file: !518, line: 496)
!740 = !DISubprogram(name: "exp2l", scope: !517, file: !517, line: 380, type: !524, isLocal: false, isDefinition: false, flags: DIFlagPrototyped, isOptimized: false)
!741 = !DIImportedEntity(tag: DW_TAG_imported_declaration, scope: !6, entity: !742, file: !518, line: 497)
!742 = !DISubprogram(name: "expm1l", scope: !517, file: !517, line: 384, type: !524, isLocal: false, isDefinition: false, flags: DIFlagPrototyped, isOptimized: false)
!743 = !DIImportedEntity(tag: DW_TAG_imported_declaration, scope: !6, entity: !744, file: !518, line: 498)
!744 = !DISubprogram(name: "fdiml", scope: !517, file: !517, line: 543, type: !683, isLocal: false, isDefinition: false, flags: DIFlagPrototyped, isOptimized: false)
!745 = !DIImportedEntity(tag: DW_TAG_imported_declaration, scope: !6, entity: !746, file: !518, line: 499)
!746 = !DISubprogram(name: "fmal", scope: !517, file: !517, line: 555, type: !747, isLocal: false, isDefinition: false, flags: DIFlagPrototyped, isOptimized: false)
!747 = !DISubroutineType(types: !748)
!748 = !{!185, !185, !185, !185}
!749 = !DIImportedEntity(tag: DW_TAG_imported_declaration, scope: !6, entity: !750, file: !518, line: 500)
!750 = !DISubprogram(name: "fmaxl", scope: !517, file: !517, line: 547, type: !683, isLocal: false, isDefinition: false, flags: DIFlagPrototyped, isOptimized: false)
!751 = !DIImportedEntity(tag: DW_TAG_imported_declaration, scope: !6, entity: !752, file: !518, line: 501)
!752 = !DISubprogram(name: "fminl", scope: !517, file: !517, line: 551, type: !683, isLocal: false, isDefinition: false, flags: DIFlagPrototyped, isOptimized: false)
!753 = !DIImportedEntity(tag: DW_TAG_imported_declaration, scope: !6, entity: !754, file: !518, line: 502)
!754 = !DISubprogram(name: "hypotl", scope: !517, file: !517, line: 440, type: !683, isLocal: false, isDefinition: false, flags: DIFlagPrototyped, isOptimized: false)
!755 = !DIImportedEntity(tag: DW_TAG_imported_declaration, scope: !6, entity: !756, file: !518, line: 503)
!756 = !DISubprogram(name: "ilogbl", scope: !517, file: !517, line: 420, type: !757, isLocal: false, isDefinition: false, flags: DIFlagPrototyped, isOptimized: false)
!757 = !DISubroutineType(types: !758)
!758 = !{!20, !185}
!759 = !DIImportedEntity(tag: DW_TAG_imported_declaration, scope: !6, entity: !760, file: !518, line: 504)
!760 = !DISubprogram(name: "lgammal", scope: !517, file: !517, line: 463, type: !524, isLocal: false, isDefinition: false, flags: DIFlagPrototyped, isOptimized: false)
!761 = !DIImportedEntity(tag: DW_TAG_imported_declaration, scope: !6, entity: !762, file: !518, line: 505)
!762 = !DISubprogram(name: "llrintl", scope: !517, file: !517, line: 502, type: !763, isLocal: false, isDefinition: false, flags: DIFlagPrototyped, isOptimized: false)
!763 = !DISubroutineType(types: !764)
!764 = !{!206, !185}
!765 = !DIImportedEntity(tag: DW_TAG_imported_declaration, scope: !6, entity: !766, file: !518, line: 506)
!766 = !DISubprogram(name: "llroundl", scope: !517, file: !517, line: 506, type: !763, isLocal: false, isDefinition: false, flags: DIFlagPrototyped, isOptimized: false)
!767 = !DIImportedEntity(tag: DW_TAG_imported_declaration, scope: !6, entity: !768, file: !518, line: 507)
!768 = !DISubprogram(name: "log1pl", scope: !517, file: !517, line: 400, type: !524, isLocal: false, isDefinition: false, flags: DIFlagPrototyped, isOptimized: false)
!769 = !DIImportedEntity(tag: DW_TAG_imported_declaration, scope: !6, entity: !770, file: !518, line: 508)
!770 = !DISubprogram(name: "log2l", scope: !517, file: !517, line: 396, type: !524, isLocal: false, isDefinition: false, flags: DIFlagPrototyped, isOptimized: false)
!771 = !DIImportedEntity(tag: DW_TAG_imported_declaration, scope: !6, entity: !772, file: !518, line: 509)
!772 = !DISubprogram(name: "logbl", scope: !517, file: !517, line: 404, type: !524, isLocal: false, isDefinition: false, flags: DIFlagPrototyped, isOptimized: false)
!773 = !DIImportedEntity(tag: DW_TAG_imported_declaration, scope: !6, entity: !774, file: !518, line: 510)
!774 = !DISubprogram(name: "lrintl", scope: !517, file: !517, line: 487, type: !775, isLocal: false, isDefinition: false, flags: DIFlagPrototyped, isOptimized: false)
!775 = !DISubroutineType(types: !776)
!776 = !{!177, !185}
!777 = !DIImportedEntity(tag: DW_TAG_imported_declaration, scope: !6, entity: !778, file: !518, line: 511)
!778 = !DISubprogram(name: "lroundl", scope: !517, file: !517, line: 495, type: !775, isLocal: false, isDefinition: false, flags: DIFlagPrototyped, isOptimized: false)
!779 = !DIImportedEntity(tag: DW_TAG_imported_declaration, scope: !6, entity: !780, file: !518, line: 512)
!780 = !DISubprogram(name: "nanl", scope: !517, file: !517, line: 531, type: !781, isLocal: false, isDefinition: false, flags: DIFlagPrototyped, isOptimized: false)
!781 = !DISubroutineType(types: !782)
!782 = !{!185, !213}
!783 = !DIImportedEntity(tag: DW_TAG_imported_declaration, scope: !6, entity: !784, file: !518, line: 513)
!784 = !DISubprogram(name: "nearbyintl", scope: !517, file: !517, line: 479, type: !524, isLocal: false, isDefinition: false, flags: DIFlagPrototyped, isOptimized: false)
!785 = !DIImportedEntity(tag: DW_TAG_imported_declaration, scope: !6, entity: !786, file: !518, line: 514)
!786 = !DISubprogram(name: "nextafterl", scope: !517, file: !517, line: 535, type: !683, isLocal: false, isDefinition: false, flags: DIFlagPrototyped, isOptimized: false)
!787 = !DIImportedEntity(tag: DW_TAG_imported_declaration, scope: !6, entity: !788, file: !518, line: 515)
!788 = !DISubprogram(name: "nexttowardl", scope: !517, file: !517, line: 539, type: !683, isLocal: false, isDefinition: false, flags: DIFlagPrototyped, isOptimized: false)
!789 = !DIImportedEntity(tag: DW_TAG_imported_declaration, scope: !6, entity: !790, file: !518, line: 516)
!790 = !DISubprogram(name: "remainderl", scope: !517, file: !517, line: 519, type: !683, isLocal: false, isDefinition: false, flags: DIFlagPrototyped, isOptimized: false)
!791 = !DIImportedEntity(tag: DW_TAG_imported_declaration, scope: !6, entity: !792, file: !518, line: 517)
!792 = !DISubprogram(name: "remquol", scope: !517, file: !517, line: 523, type: !793, isLocal: false, isDefinition: false, flags: DIFlagPrototyped, isOptimized: false)
!793 = !DISubroutineType(types: !794)
!794 = !{!185, !185, !185, !556}
!795 = !DIImportedEntity(tag: DW_TAG_imported_declaration, scope: !6, entity: !796, file: !518, line: 518)
!796 = !DISubprogram(name: "rintl", scope: !517, file: !517, line: 483, type: !524, isLocal: false, isDefinition: false, flags: DIFlagPrototyped, isOptimized: false)
!797 = !DIImportedEntity(tag: DW_TAG_imported_declaration, scope: !6, entity: !798, file: !518, line: 519)
!798 = !DISubprogram(name: "roundl", scope: !517, file: !517, line: 491, type: !524, isLocal: false, isDefinition: false, flags: DIFlagPrototyped, isOptimized: false)
!799 = !DIImportedEntity(tag: DW_TAG_imported_declaration, scope: !6, entity: !800, file: !518, line: 520)
!800 = !DISubprogram(name: "scalblnl", scope: !517, file: !517, line: 428, type: !801, isLocal: false, isDefinition: false, flags: DIFlagPrototyped, isOptimized: false)
!801 = !DISubroutineType(types: !802)
!802 = !{!185, !185, !177}
!803 = !DIImportedEntity(tag: DW_TAG_imported_declaration, scope: !6, entity: !804, file: !518, line: 521)
!804 = !DISubprogram(name: "scalbnl", scope: !517, file: !517, line: 424, type: !705, isLocal: false, isDefinition: false, flags: DIFlagPrototyped, isOptimized: false)
!805 = !DIImportedEntity(tag: DW_TAG_imported_declaration, scope: !6, entity: !806, file: !518, line: 522)
!806 = !DISubprogram(name: "tgammal", scope: !517, file: !517, line: 467, type: !524, isLocal: false, isDefinition: false, flags: DIFlagPrototyped, isOptimized: false)
!807 = !DIImportedEntity(tag: DW_TAG_imported_declaration, scope: !6, entity: !808, file: !518, line: 523)
!808 = !DISubprogram(name: "truncl", scope: !517, file: !517, line: 511, type: !524, isLocal: false, isDefinition: false, flags: DIFlagPrototyped, isOptimized: false)
!809 = !DIImportedEntity(tag: DW_TAG_imported_declaration, scope: !6, entity: !810, file: !863, line: 108)
!810 = !DIDerivedType(tag: DW_TAG_typedef, name: "FILE", file: !811, line: 157, baseType: !812)
!811 = !DIFile(filename: "/Applications/Xcode.app/Contents/Developer/Platforms/MacOSX.platform/Developer/SDKs/MacOSX10.13.sdk/usr/include/_stdio.h", directory: "/Users/ejiang/Projects/lls/ac/llfiles")
!812 = distinct !DICompositeType(tag: DW_TAG_structure_type, name: "__sFILE", file: !811, line: 126, size: 1216, elements: !813, identifier: "_ZTS7__sFILE")
!813 = !{!814, !816, !817, !818, !819, !820, !825, !826, !827, !831, !835, !843, !847, !848, !851, !852, !856, !860, !861, !862}
!814 = !DIDerivedType(tag: DW_TAG_member, name: "_p", scope: !812, file: !811, line: 127, baseType: !815, size: 64)
!815 = !DIDerivedType(tag: DW_TAG_pointer_type, baseType: !457, size: 64)
!816 = !DIDerivedType(tag: DW_TAG_member, name: "_r", scope: !812, file: !811, line: 128, baseType: !20, size: 32, offset: 64)
!817 = !DIDerivedType(tag: DW_TAG_member, name: "_w", scope: !812, file: !811, line: 129, baseType: !20, size: 32, offset: 96)
!818 = !DIDerivedType(tag: DW_TAG_member, name: "_flags", scope: !812, file: !811, line: 130, baseType: !447, size: 16, offset: 128)
!819 = !DIDerivedType(tag: DW_TAG_member, name: "_file", scope: !812, file: !811, line: 131, baseType: !447, size: 16, offset: 144)
!820 = !DIDerivedType(tag: DW_TAG_member, name: "_bf", scope: !812, file: !811, line: 132, baseType: !821, size: 128, offset: 192)
!821 = distinct !DICompositeType(tag: DW_TAG_structure_type, name: "__sbuf", file: !811, line: 92, size: 128, elements: !822, identifier: "_ZTS6__sbuf")
!822 = !{!823, !824}
!823 = !DIDerivedType(tag: DW_TAG_member, name: "_base", scope: !821, file: !811, line: 93, baseType: !815, size: 64)
!824 = !DIDerivedType(tag: DW_TAG_member, name: "_size", scope: !821, file: !811, line: 94, baseType: !20, size: 32, offset: 64)
!825 = !DIDerivedType(tag: DW_TAG_member, name: "_lbfsize", scope: !812, file: !811, line: 133, baseType: !20, size: 32, offset: 320)
!826 = !DIDerivedType(tag: DW_TAG_member, name: "_cookie", scope: !812, file: !811, line: 136, baseType: !273, size: 64, offset: 384)
!827 = !DIDerivedType(tag: DW_TAG_member, name: "_close", scope: !812, file: !811, line: 137, baseType: !828, size: 64, offset: 448)
!828 = !DIDerivedType(tag: DW_TAG_pointer_type, baseType: !829, size: 64)
!829 = !DISubroutineType(types: !830)
!830 = !{!20, !273}
!831 = !DIDerivedType(tag: DW_TAG_member, name: "_read", scope: !812, file: !811, line: 138, baseType: !832, size: 64, offset: 512)
!832 = !DIDerivedType(tag: DW_TAG_pointer_type, baseType: !833, size: 64)
!833 = !DISubroutineType(types: !834)
!834 = !{!20, !273, !233, !20}
!835 = !DIDerivedType(tag: DW_TAG_member, name: "_seek", scope: !812, file: !811, line: 139, baseType: !836, size: 64, offset: 576)
!836 = !DIDerivedType(tag: DW_TAG_pointer_type, baseType: !837, size: 64)
!837 = !DISubroutineType(types: !838)
!838 = !{!839, !273, !839, !20}
!839 = !DIDerivedType(tag: DW_TAG_typedef, name: "fpos_t", file: !811, line: 81, baseType: !840)
!840 = !DIDerivedType(tag: DW_TAG_typedef, name: "__darwin_off_t", file: !841, line: 71, baseType: !842)
!841 = !DIFile(filename: "/Applications/Xcode.app/Contents/Developer/Platforms/MacOSX.platform/Developer/SDKs/MacOSX10.13.sdk/usr/include/sys/_types.h", directory: "/Users/ejiang/Projects/lls/ac/llfiles")
!842 = !DIDerivedType(tag: DW_TAG_typedef, name: "__int64_t", file: !505, line: 46, baseType: !206)
!843 = !DIDerivedType(tag: DW_TAG_member, name: "_write", scope: !812, file: !811, line: 140, baseType: !844, size: 64, offset: 640)
!844 = !DIDerivedType(tag: DW_TAG_pointer_type, baseType: !845, size: 64)
!845 = !DISubroutineType(types: !846)
!846 = !{!20, !273, !213, !20}
!847 = !DIDerivedType(tag: DW_TAG_member, name: "_ub", scope: !812, file: !811, line: 143, baseType: !821, size: 128, offset: 704)
!848 = !DIDerivedType(tag: DW_TAG_member, name: "_extra", scope: !812, file: !811, line: 144, baseType: !849, size: 64, offset: 832)
!849 = !DIDerivedType(tag: DW_TAG_pointer_type, baseType: !850, size: 64)
!850 = !DICompositeType(tag: DW_TAG_structure_type, name: "__sFILEX", file: !811, line: 98, flags: DIFlagFwdDecl, identifier: "_ZTS8__sFILEX")
!851 = !DIDerivedType(tag: DW_TAG_member, name: "_ur", scope: !812, file: !811, line: 145, baseType: !20, size: 32, offset: 896)
!852 = !DIDerivedType(tag: DW_TAG_member, name: "_ubuf", scope: !812, file: !811, line: 148, baseType: !853, size: 24, offset: 928)
!853 = !DICompositeType(tag: DW_TAG_array_type, baseType: !457, size: 24, elements: !854)
!854 = !{!855}
!855 = !DISubrange(count: 3)
!856 = !DIDerivedType(tag: DW_TAG_member, name: "_nbuf", scope: !812, file: !811, line: 149, baseType: !857, size: 8, offset: 952)
!857 = !DICompositeType(tag: DW_TAG_array_type, baseType: !457, size: 8, elements: !858)
!858 = !{!859}
!859 = !DISubrange(count: 1)
!860 = !DIDerivedType(tag: DW_TAG_member, name: "_lb", scope: !812, file: !811, line: 152, baseType: !821, size: 128, offset: 960)
!861 = !DIDerivedType(tag: DW_TAG_member, name: "_blksize", scope: !812, file: !811, line: 155, baseType: !20, size: 32, offset: 1088)
!862 = !DIDerivedType(tag: DW_TAG_member, name: "_offset", scope: !812, file: !811, line: 156, baseType: !839, size: 64, offset: 1152)
!863 = !DIFile(filename: "/Applications/Xcode.app/Contents/Developer/Toolchains/XcodeDefault.xctoolchain/usr/include/c++/v1/cstdio", directory: "/Users/ejiang/Projects/lls/ac/llfiles")
!864 = !DIImportedEntity(tag: DW_TAG_imported_declaration, scope: !6, entity: !839, file: !863, line: 109)
!865 = !DIImportedEntity(tag: DW_TAG_imported_declaration, scope: !6, entity: !180, file: !863, line: 110)
!866 = !DIImportedEntity(tag: DW_TAG_imported_declaration, scope: !6, entity: !867, file: !863, line: 112)
!867 = !DISubprogram(name: "fclose", scope: !868, file: !868, line: 143, type: !869, isLocal: false, isDefinition: false, flags: DIFlagPrototyped, isOptimized: false)
!868 = !DIFile(filename: "/Applications/Xcode.app/Contents/Developer/Platforms/MacOSX.platform/Developer/SDKs/MacOSX10.13.sdk/usr/include/stdio.h", directory: "/Users/ejiang/Projects/lls/ac/llfiles")
!869 = !DISubroutineType(types: !870)
!870 = !{!20, !871}
!871 = !DIDerivedType(tag: DW_TAG_pointer_type, baseType: !810, size: 64)
!872 = !DIImportedEntity(tag: DW_TAG_imported_declaration, scope: !6, entity: !873, file: !863, line: 113)
!873 = !DISubprogram(name: "fflush", scope: !868, file: !868, line: 146, type: !869, isLocal: false, isDefinition: false, flags: DIFlagPrototyped, isOptimized: false)
!874 = !DIImportedEntity(tag: DW_TAG_imported_declaration, scope: !6, entity: !875, file: !863, line: 114)
!875 = !DISubprogram(name: "setbuf", scope: !868, file: !868, line: 178, type: !876, isLocal: false, isDefinition: false, flags: DIFlagPrototyped, isOptimized: false)
!876 = !DISubroutineType(types: !877)
!877 = !{null, !871, !233}
!878 = !DIImportedEntity(tag: DW_TAG_imported_declaration, scope: !6, entity: !879, file: !863, line: 115)
!879 = !DISubprogram(name: "setvbuf", scope: !868, file: !868, line: 179, type: !880, isLocal: false, isDefinition: false, flags: DIFlagPrototyped, isOptimized: false)
!880 = !DISubroutineType(types: !881)
!881 = !{!20, !871, !233, !20, !180}
!882 = !DIImportedEntity(tag: DW_TAG_imported_declaration, scope: !6, entity: !883, file: !863, line: 116)
!883 = !DISubprogram(name: "fprintf", scope: !868, file: !868, line: 155, type: !884, isLocal: false, isDefinition: false, flags: DIFlagPrototyped, isOptimized: false)
!884 = !DISubroutineType(types: !885)
!885 = !{!20, !871, !213, null}
!886 = !DIImportedEntity(tag: DW_TAG_imported_declaration, scope: !6, entity: !887, file: !863, line: 117)
!887 = !DISubprogram(name: "fscanf", scope: !868, file: !868, line: 161, type: !884, isLocal: false, isDefinition: false, flags: DIFlagPrototyped, isOptimized: false)
!888 = !DIImportedEntity(tag: DW_TAG_imported_declaration, scope: !6, entity: !889, file: !863, line: 118)
!889 = !DISubprogram(name: "snprintf", scope: !868, file: !868, line: 338, type: !890, isLocal: false, isDefinition: false, flags: DIFlagPrototyped, isOptimized: false)
!890 = !DISubroutineType(types: !891)
!891 = !{!20, !233, !180, !213, null}
!892 = !DIImportedEntity(tag: DW_TAG_imported_declaration, scope: !6, entity: !893, file: !863, line: 119)
!893 = !DISubprogram(name: "sprintf", scope: !868, file: !868, line: 180, type: !894, isLocal: false, isDefinition: false, flags: DIFlagPrototyped, isOptimized: false)
!894 = !DISubroutineType(types: !895)
!895 = !{!20, !233, !213, null}
!896 = !DIImportedEntity(tag: DW_TAG_imported_declaration, scope: !6, entity: !897, file: !863, line: 120)
!897 = !DISubprogram(name: "sscanf", scope: !868, file: !868, line: 181, type: !898, isLocal: false, isDefinition: false, flags: DIFlagPrototyped, isOptimized: false)
!898 = !DISubroutineType(types: !899)
!899 = !{!20, !213, !213, null}
!900 = !DIImportedEntity(tag: DW_TAG_imported_declaration, scope: !6, entity: !901, file: !863, line: 121)
!901 = !DISubprogram(name: "vfprintf", scope: !868, file: !868, line: 190, type: !902, isLocal: false, isDefinition: false, flags: DIFlagPrototyped, isOptimized: false)
!902 = !DISubroutineType(types: !903)
!903 = !{!20, !871, !213, !904}
!904 = !DIDerivedType(tag: DW_TAG_pointer_type, baseType: !905, size: 64)
!905 = distinct !DICompositeType(tag: DW_TAG_structure_type, name: "__va_list_tag", file: !1, size: 192, elements: !906, identifier: "_ZTS13__va_list_tag")
!906 = !{!907, !908, !909, !910}
!907 = !DIDerivedType(tag: DW_TAG_member, name: "gp_offset", scope: !905, file: !1, baseType: !268, size: 32)
!908 = !DIDerivedType(tag: DW_TAG_member, name: "fp_offset", scope: !905, file: !1, baseType: !268, size: 32, offset: 32)
!909 = !DIDerivedType(tag: DW_TAG_member, name: "overflow_arg_area", scope: !905, file: !1, baseType: !273, size: 64, offset: 64)
!910 = !DIDerivedType(tag: DW_TAG_member, name: "reg_save_area", scope: !905, file: !1, baseType: !273, size: 64, offset: 128)
!911 = !DIImportedEntity(tag: DW_TAG_imported_declaration, scope: !6, entity: !912, file: !863, line: 122)
!912 = !DISubprogram(name: "vfscanf", scope: !868, file: !868, line: 339, type: !902, isLocal: false, isDefinition: false, flags: DIFlagPrototyped, isOptimized: false)
!913 = !DIImportedEntity(tag: DW_TAG_imported_declaration, scope: !6, entity: !914, file: !863, line: 123)
!914 = !DISubprogram(name: "vsscanf", scope: !868, file: !868, line: 342, type: !915, isLocal: false, isDefinition: false, flags: DIFlagPrototyped, isOptimized: false)
!915 = !DISubroutineType(types: !916)
!916 = !{!20, !213, !213, !904}
!917 = !DIImportedEntity(tag: DW_TAG_imported_declaration, scope: !6, entity: !918, file: !863, line: 124)
!918 = !DISubprogram(name: "vsnprintf", scope: !868, file: !868, line: 341, type: !919, isLocal: false, isDefinition: false, flags: DIFlagPrototyped, isOptimized: false)
!919 = !DISubroutineType(types: !920)
!920 = !{!20, !233, !180, !213, !904}
!921 = !DIImportedEntity(tag: DW_TAG_imported_declaration, scope: !6, entity: !922, file: !863, line: 125)
!922 = !DISubprogram(name: "vsprintf", scope: !868, file: !868, line: 192, type: !923, isLocal: false, isDefinition: false, flags: DIFlagPrototyped, isOptimized: false)
!923 = !DISubroutineType(types: !924)
!924 = !{!20, !233, !213, !904}
!925 = !DIImportedEntity(tag: DW_TAG_imported_declaration, scope: !6, entity: !926, file: !863, line: 126)
!926 = !DISubprogram(name: "fgetc", scope: !868, file: !868, line: 147, type: !869, isLocal: false, isDefinition: false, flags: DIFlagPrototyped, isOptimized: false)
!927 = !DIImportedEntity(tag: DW_TAG_imported_declaration, scope: !6, entity: !928, file: !863, line: 127)
!928 = !DISubprogram(name: "fgets", scope: !868, file: !868, line: 149, type: !929, isLocal: false, isDefinition: false, flags: DIFlagPrototyped, isOptimized: false)
!929 = !DISubroutineType(types: !930)
!930 = !{!233, !233, !20, !871}
!931 = !DIImportedEntity(tag: DW_TAG_imported_declaration, scope: !6, entity: !932, file: !863, line: 128)
!932 = !DISubprogram(name: "fputc", scope: !868, file: !868, line: 156, type: !933, isLocal: false, isDefinition: false, flags: DIFlagPrototyped, isOptimized: false)
!933 = !DISubroutineType(types: !934)
!934 = !{!20, !20, !871}
!935 = !DIImportedEntity(tag: DW_TAG_imported_declaration, scope: !6, entity: !936, file: !863, line: 129)
!936 = !DISubprogram(name: "fputs", linkageName: "\01_fputs", scope: !868, file: !868, line: 157, type: !937, isLocal: false, isDefinition: false, flags: DIFlagPrototyped, isOptimized: false)
!937 = !DISubroutineType(types: !938)
!938 = !{!20, !213, !871}
!939 = !DIImportedEntity(tag: DW_TAG_imported_declaration, scope: !6, entity: !940, file: !863, line: 130)
!940 = !DISubprogram(name: "getc", scope: !868, file: !868, line: 166, type: !869, isLocal: false, isDefinition: false, flags: DIFlagPrototyped, isOptimized: false)
!941 = !DIImportedEntity(tag: DW_TAG_imported_declaration, scope: !6, entity: !942, file: !863, line: 131)
!942 = !DISubprogram(name: "putc", scope: !868, file: !868, line: 171, type: !933, isLocal: false, isDefinition: false, flags: DIFlagPrototyped, isOptimized: false)
!943 = !DIImportedEntity(tag: DW_TAG_imported_declaration, scope: !6, entity: !944, file: !863, line: 132)
!944 = !DISubprogram(name: "ungetc", scope: !868, file: !868, line: 189, type: !933, isLocal: false, isDefinition: false, flags: DIFlagPrototyped, isOptimized: false)
!945 = !DIImportedEntity(tag: DW_TAG_imported_declaration, scope: !6, entity: !946, file: !863, line: 133)
!946 = !DISubprogram(name: "fread", scope: !868, file: !868, line: 158, type: !947, isLocal: false, isDefinition: false, flags: DIFlagPrototyped, isOptimized: false)
!947 = !DISubroutineType(types: !948)
!948 = !{!180, !273, !180, !180, !871}
!949 = !DIImportedEntity(tag: DW_TAG_imported_declaration, scope: !6, entity: !950, file: !863, line: 134)
!950 = !DISubprogram(name: "fwrite", linkageName: "\01_fwrite", scope: !868, file: !868, line: 165, type: !951, isLocal: false, isDefinition: false, flags: DIFlagPrototyped, isOptimized: false)
!951 = !DISubroutineType(types: !952)
!952 = !{!180, !311, !180, !180, !871}
!953 = !DIImportedEntity(tag: DW_TAG_imported_declaration, scope: !6, entity: !954, file: !863, line: 135)
!954 = !DISubprogram(name: "fgetpos", scope: !868, file: !868, line: 148, type: !955, isLocal: false, isDefinition: false, flags: DIFlagPrototyped, isOptimized: false)
!955 = !DISubroutineType(types: !956)
!956 = !{!20, !871, !957}
!957 = !DIDerivedType(tag: DW_TAG_pointer_type, baseType: !839, size: 64)
!958 = !DIImportedEntity(tag: DW_TAG_imported_declaration, scope: !6, entity: !959, file: !863, line: 136)
!959 = !DISubprogram(name: "fseek", scope: !868, file: !868, line: 162, type: !960, isLocal: false, isDefinition: false, flags: DIFlagPrototyped, isOptimized: false)
!960 = !DISubroutineType(types: !961)
!961 = !{!20, !871, !177, !20}
!962 = !DIImportedEntity(tag: DW_TAG_imported_declaration, scope: !6, entity: !963, file: !863, line: 137)
!963 = !DISubprogram(name: "fsetpos", scope: !868, file: !868, line: 163, type: !964, isLocal: false, isDefinition: false, flags: DIFlagPrototyped, isOptimized: false)
!964 = !DISubroutineType(types: !965)
!965 = !{!20, !871, !966}
!966 = !DIDerivedType(tag: DW_TAG_pointer_type, baseType: !967, size: 64)
!967 = !DIDerivedType(tag: DW_TAG_const_type, baseType: !839)
!968 = !DIImportedEntity(tag: DW_TAG_imported_declaration, scope: !6, entity: !969, file: !863, line: 138)
!969 = !DISubprogram(name: "ftell", scope: !868, file: !868, line: 164, type: !970, isLocal: false, isDefinition: false, flags: DIFlagPrototyped, isOptimized: false)
!970 = !DISubroutineType(types: !971)
!971 = !{!177, !871}
!972 = !DIImportedEntity(tag: DW_TAG_imported_declaration, scope: !6, entity: !973, file: !863, line: 139)
!973 = !DISubprogram(name: "rewind", scope: !868, file: !868, line: 176, type: !974, isLocal: false, isDefinition: false, flags: DIFlagPrototyped, isOptimized: false)
!974 = !DISubroutineType(types: !975)
!975 = !{null, !871}
!976 = !DIImportedEntity(tag: DW_TAG_imported_declaration, scope: !6, entity: !977, file: !863, line: 140)
!977 = !DISubprogram(name: "clearerr", scope: !868, file: !868, line: 142, type: !974, isLocal: false, isDefinition: false, flags: DIFlagPrototyped, isOptimized: false)
!978 = !DIImportedEntity(tag: DW_TAG_imported_declaration, scope: !6, entity: !979, file: !863, line: 141)
!979 = !DISubprogram(name: "feof", scope: !868, file: !868, line: 144, type: !869, isLocal: false, isDefinition: false, flags: DIFlagPrototyped, isOptimized: false)
!980 = !DIImportedEntity(tag: DW_TAG_imported_declaration, scope: !6, entity: !981, file: !863, line: 142)
!981 = !DISubprogram(name: "ferror", scope: !868, file: !868, line: 145, type: !869, isLocal: false, isDefinition: false, flags: DIFlagPrototyped, isOptimized: false)
!982 = !DIImportedEntity(tag: DW_TAG_imported_declaration, scope: !6, entity: !983, file: !863, line: 143)
!983 = !DISubprogram(name: "perror", scope: !868, file: !868, line: 169, type: !984, isLocal: false, isDefinition: false, flags: DIFlagPrototyped, isOptimized: false)
!984 = !DISubroutineType(types: !985)
!985 = !{null, !213}
!986 = !DIImportedEntity(tag: DW_TAG_imported_declaration, scope: !6, entity: !987, file: !863, line: 146)
!987 = !DISubprogram(name: "fopen", linkageName: "\01_fopen", scope: !868, file: !868, line: 153, type: !988, isLocal: false, isDefinition: false, flags: DIFlagPrototyped, isOptimized: false)
!988 = !DISubroutineType(types: !989)
!989 = !{!871, !213, !213}
!990 = !DIImportedEntity(tag: DW_TAG_imported_declaration, scope: !6, entity: !991, file: !863, line: 147)
!991 = !DISubprogram(name: "freopen", linkageName: "\01_freopen", scope: !868, file: !868, line: 159, type: !992, isLocal: false, isDefinition: false, flags: DIFlagPrototyped, isOptimized: false)
!992 = !DISubroutineType(types: !993)
!993 = !{!871, !213, !213, !871}
!994 = !DIImportedEntity(tag: DW_TAG_imported_declaration, scope: !6, entity: !995, file: !863, line: 148)
!995 = !DISubprogram(name: "remove", scope: !868, file: !868, line: 174, type: !218, isLocal: false, isDefinition: false, flags: DIFlagPrototyped, isOptimized: false)
!996 = !DIImportedEntity(tag: DW_TAG_imported_declaration, scope: !6, entity: !997, file: !863, line: 149)
!997 = !DISubprogram(name: "rename", scope: !868, file: !868, line: 175, type: !394, isLocal: false, isDefinition: false, flags: DIFlagPrototyped, isOptimized: false)
!998 = !DIImportedEntity(tag: DW_TAG_imported_declaration, scope: !6, entity: !999, file: !863, line: 150)
!999 = !DISubprogram(name: "tmpfile", scope: !868, file: !868, line: 182, type: !1000, isLocal: false, isDefinition: false, flags: DIFlagPrototyped, isOptimized: false)
!1000 = !DISubroutineType(types: !1001)
!1001 = !{!871}
!1002 = !DIImportedEntity(tag: DW_TAG_imported_declaration, scope: !6, entity: !1003, file: !863, line: 151)
!1003 = !DISubprogram(name: "tmpnam", scope: !868, file: !868, line: 188, type: !1004, isLocal: false, isDefinition: false, flags: DIFlagPrototyped, isOptimized: false)
!1004 = !DISubroutineType(types: !1005)
!1005 = !{!233, !233}
!1006 = !DIImportedEntity(tag: DW_TAG_imported_declaration, scope: !6, entity: !1007, file: !863, line: 155)
!1007 = !DISubprogram(name: "getchar", scope: !868, file: !868, line: 167, type: !262, isLocal: false, isDefinition: false, flags: DIFlagPrototyped, isOptimized: false)
!1008 = !DIImportedEntity(tag: DW_TAG_imported_declaration, scope: !6, entity: !1009, file: !863, line: 157)
!1009 = !DISubprogram(name: "gets", scope: !868, file: !868, line: 168, type: !1004, isLocal: false, isDefinition: false, flags: DIFlagPrototyped, isOptimized: false)
!1010 = !DIImportedEntity(tag: DW_TAG_imported_declaration, scope: !6, entity: !1011, file: !863, line: 159)
!1011 = !DISubprogram(name: "scanf", scope: !868, file: !868, line: 177, type: !1012, isLocal: false, isDefinition: false, flags: DIFlagPrototyped, isOptimized: false)
!1012 = !DISubroutineType(types: !1013)
!1013 = !{!20, !213, null}
!1014 = !DIImportedEntity(tag: DW_TAG_imported_declaration, scope: !6, entity: !1015, file: !863, line: 160)
!1015 = !DISubprogram(name: "vscanf", scope: !868, file: !868, line: 340, type: !1016, isLocal: false, isDefinition: false, flags: DIFlagPrototyped, isOptimized: false)
!1016 = !DISubroutineType(types: !1017)
!1017 = !{!20, !213, !904}
!1018 = !DIImportedEntity(tag: DW_TAG_imported_declaration, scope: !6, entity: !1019, file: !863, line: 164)
!1019 = !DISubprogram(name: "printf", scope: !868, file: !868, line: 170, type: !1012, isLocal: false, isDefinition: false, flags: DIFlagPrototyped, isOptimized: false)
!1020 = !DIImportedEntity(tag: DW_TAG_imported_declaration, scope: !6, entity: !1021, file: !863, line: 165)
!1021 = !DISubprogram(name: "putchar", scope: !868, file: !868, line: 172, type: !1022, isLocal: false, isDefinition: false, flags: DIFlagPrototyped, isOptimized: false)
!1022 = !DISubroutineType(types: !1023)
!1023 = !{!20, !20}
!1024 = !DIImportedEntity(tag: DW_TAG_imported_declaration, scope: !6, entity: !1025, file: !863, line: 166)
!1025 = !DISubprogram(name: "puts", scope: !868, file: !868, line: 173, type: !218, isLocal: false, isDefinition: false, flags: DIFlagPrototyped, isOptimized: false)
!1026 = !DIImportedEntity(tag: DW_TAG_imported_declaration, scope: !6, entity: !1027, file: !863, line: 167)
!1027 = !DISubprogram(name: "vprintf", scope: !868, file: !868, line: 191, type: !1016, isLocal: false, isDefinition: false, flags: DIFlagPrototyped, isOptimized: false)
!1028 = !DIImportedEntity(tag: DW_TAG_imported_declaration, scope: !6, entity: !1029, file: !1031, line: 104)
!1029 = !DISubprogram(name: "isalnum", linkageName: "_Z7isalnumi", scope: !1030, file: !1030, line: 212, type: !1022, isLocal: false, isDefinition: false, flags: DIFlagPrototyped, isOptimized: false)
!1030 = !DIFile(filename: "/Applications/Xcode.app/Contents/Developer/Platforms/MacOSX.platform/Developer/SDKs/MacOSX10.13.sdk/usr/include/_ctype.h", directory: "/Users/ejiang/Projects/lls/ac/llfiles")
!1031 = !DIFile(filename: "/Applications/Xcode.app/Contents/Developer/Toolchains/XcodeDefault.xctoolchain/usr/include/c++/v1/cctype", directory: "/Users/ejiang/Projects/lls/ac/llfiles")
!1032 = !DIImportedEntity(tag: DW_TAG_imported_declaration, scope: !6, entity: !1033, file: !1031, line: 105)
!1033 = !DISubprogram(name: "isalpha", linkageName: "_Z7isalphai", scope: !1030, file: !1030, line: 218, type: !1022, isLocal: false, isDefinition: false, flags: DIFlagPrototyped, isOptimized: false)
!1034 = !DIImportedEntity(tag: DW_TAG_imported_declaration, scope: !6, entity: !1035, file: !1031, line: 106)
!1035 = !DISubprogram(name: "isblank", linkageName: "_Z7isblanki", scope: !1030, file: !1030, line: 224, type: !1022, isLocal: false, isDefinition: false, flags: DIFlagPrototyped, isOptimized: false)
!1036 = !DIImportedEntity(tag: DW_TAG_imported_declaration, scope: !6, entity: !1037, file: !1031, line: 107)
!1037 = !DISubprogram(name: "iscntrl", linkageName: "_Z7iscntrli", scope: !1030, file: !1030, line: 230, type: !1022, isLocal: false, isDefinition: false, flags: DIFlagPrototyped, isOptimized: false)
!1038 = !DIImportedEntity(tag: DW_TAG_imported_declaration, scope: !6, entity: !1039, file: !1031, line: 108)
!1039 = !DISubprogram(name: "isdigit", linkageName: "_Z7isdigiti", scope: !1030, file: !1030, line: 237, type: !1022, isLocal: false, isDefinition: false, flags: DIFlagPrototyped, isOptimized: false)
!1040 = !DIImportedEntity(tag: DW_TAG_imported_declaration, scope: !6, entity: !1041, file: !1031, line: 109)
!1041 = !DISubprogram(name: "isgraph", linkageName: "_Z7isgraphi", scope: !1030, file: !1030, line: 243, type: !1022, isLocal: false, isDefinition: false, flags: DIFlagPrototyped, isOptimized: false)
!1042 = !DIImportedEntity(tag: DW_TAG_imported_declaration, scope: !6, entity: !1043, file: !1031, line: 110)
!1043 = !DISubprogram(name: "islower", linkageName: "_Z7isloweri", scope: !1030, file: !1030, line: 249, type: !1022, isLocal: false, isDefinition: false, flags: DIFlagPrototyped, isOptimized: false)
!1044 = !DIImportedEntity(tag: DW_TAG_imported_declaration, scope: !6, entity: !1045, file: !1031, line: 111)
!1045 = !DISubprogram(name: "isprint", linkageName: "_Z7isprinti", scope: !1030, file: !1030, line: 255, type: !1022, isLocal: false, isDefinition: false, flags: DIFlagPrototyped, isOptimized: false)
!1046 = !DIImportedEntity(tag: DW_TAG_imported_declaration, scope: !6, entity: !1047, file: !1031, line: 112)
!1047 = !DISubprogram(name: "ispunct", linkageName: "_Z7ispuncti", scope: !1030, file: !1030, line: 261, type: !1022, isLocal: false, isDefinition: false, flags: DIFlagPrototyped, isOptimized: false)
!1048 = !DIImportedEntity(tag: DW_TAG_imported_declaration, scope: !6, entity: !1049, file: !1031, line: 113)
!1049 = !DISubprogram(name: "isspace", linkageName: "_Z7isspacei", scope: !1030, file: !1030, line: 267, type: !1022, isLocal: false, isDefinition: false, flags: DIFlagPrototyped, isOptimized: false)
!1050 = !DIImportedEntity(tag: DW_TAG_imported_declaration, scope: !6, entity: !1051, file: !1031, line: 114)
!1051 = !DISubprogram(name: "isupper", linkageName: "_Z7isupperi", scope: !1030, file: !1030, line: 273, type: !1022, isLocal: false, isDefinition: false, flags: DIFlagPrototyped, isOptimized: false)
!1052 = !DIImportedEntity(tag: DW_TAG_imported_declaration, scope: !6, entity: !1053, file: !1031, line: 115)
!1053 = !DISubprogram(name: "isxdigit", linkageName: "_Z8isxdigiti", scope: !1030, file: !1030, line: 280, type: !1022, isLocal: false, isDefinition: false, flags: DIFlagPrototyped, isOptimized: false)
!1054 = !DIImportedEntity(tag: DW_TAG_imported_declaration, scope: !6, entity: !1055, file: !1031, line: 116)
!1055 = !DISubprogram(name: "tolower", linkageName: "_Z7toloweri", scope: !1030, file: !1030, line: 292, type: !1022, isLocal: false, isDefinition: false, flags: DIFlagPrototyped, isOptimized: false)
!1056 = !DIImportedEntity(tag: DW_TAG_imported_declaration, scope: !6, entity: !1057, file: !1031, line: 117)
!1057 = !DISubprogram(name: "toupper", linkageName: "_Z7toupperi", scope: !1030, file: !1030, line: 298, type: !1022, isLocal: false, isDefinition: false, flags: DIFlagPrototyped, isOptimized: false)
!1058 = !DIImportedEntity(tag: DW_TAG_imported_declaration, scope: !6, entity: !1059, file: !1062, line: 63)
!1059 = !DIDerivedType(tag: DW_TAG_typedef, name: "wint_t", file: !1060, line: 32, baseType: !1061)
!1060 = !DIFile(filename: "/Applications/Xcode.app/Contents/Developer/Platforms/MacOSX.platform/Developer/SDKs/MacOSX10.13.sdk/usr/include/sys/_types/_wint_t.h", directory: "/Users/ejiang/Projects/lls/ac/llfiles")
!1061 = !DIDerivedType(tag: DW_TAG_typedef, name: "__darwin_wint_t", file: !505, line: 112, baseType: !20)
!1062 = !DIFile(filename: "/Applications/Xcode.app/Contents/Developer/Toolchains/XcodeDefault.xctoolchain/usr/include/c++/v1/cwctype", directory: "/Users/ejiang/Projects/lls/ac/llfiles")
!1063 = !DIImportedEntity(tag: DW_TAG_imported_declaration, scope: !6, entity: !1064, file: !1062, line: 64)
!1064 = !DIDerivedType(tag: DW_TAG_typedef, name: "wctrans_t", file: !1065, line: 32, baseType: !1066)
!1065 = !DIFile(filename: "/Applications/Xcode.app/Contents/Developer/Platforms/MacOSX.platform/Developer/SDKs/MacOSX10.13.sdk/usr/include/_types/_wctrans_t.h", directory: "/Users/ejiang/Projects/lls/ac/llfiles")
!1066 = !DIDerivedType(tag: DW_TAG_typedef, name: "__darwin_wctrans_t", file: !1067, line: 41, baseType: !20)
!1067 = !DIFile(filename: "/Applications/Xcode.app/Contents/Developer/Platforms/MacOSX.platform/Developer/SDKs/MacOSX10.13.sdk/usr/include/_types.h", directory: "/Users/ejiang/Projects/lls/ac/llfiles")
!1068 = !DIImportedEntity(tag: DW_TAG_imported_declaration, scope: !6, entity: !1069, file: !1062, line: 65)
!1069 = !DIDerivedType(tag: DW_TAG_typedef, name: "wctype_t", file: !1070, line: 32, baseType: !1071)
!1070 = !DIFile(filename: "/Applications/Xcode.app/Contents/Developer/Platforms/MacOSX.platform/Developer/SDKs/MacOSX10.13.sdk/usr/include/_types/_wctype_t.h", directory: "/Users/ejiang/Projects/lls/ac/llfiles")
!1071 = !DIDerivedType(tag: DW_TAG_typedef, name: "__darwin_wctype_t", file: !1067, line: 43, baseType: !1072)
!1072 = !DIDerivedType(tag: DW_TAG_typedef, name: "__uint32_t", file: !505, line: 45, baseType: !268)
!1073 = !DIImportedEntity(tag: DW_TAG_imported_declaration, scope: !6, entity: !1074, file: !1062, line: 66)
!1074 = !DISubprogram(name: "iswalnum", linkageName: "_Z8iswalnumi", scope: !1075, file: !1075, line: 51, type: !1076, isLocal: false, isDefinition: false, flags: DIFlagPrototyped, isOptimized: false)
!1075 = !DIFile(filename: "/Applications/Xcode.app/Contents/Developer/Platforms/MacOSX.platform/Developer/SDKs/MacOSX10.13.sdk/usr/include/_wctype.h", directory: "/Users/ejiang/Projects/lls/ac/llfiles")
!1076 = !DISubroutineType(types: !1077)
!1077 = !{!20, !1059}
!1078 = !DIImportedEntity(tag: DW_TAG_imported_declaration, scope: !6, entity: !1079, file: !1062, line: 67)
!1079 = !DISubprogram(name: "iswalpha", linkageName: "_Z8iswalphai", scope: !1075, file: !1075, line: 57, type: !1076, isLocal: false, isDefinition: false, flags: DIFlagPrototyped, isOptimized: false)
!1080 = !DIImportedEntity(tag: DW_TAG_imported_declaration, scope: !6, entity: !1081, file: !1062, line: 68)
!1081 = !DISubprogram(name: "iswblank", linkageName: "_Z8iswblanki", scope: !1082, file: !1082, line: 50, type: !1076, isLocal: false, isDefinition: false, flags: DIFlagPrototyped, isOptimized: false)
!1082 = !DIFile(filename: "/Applications/Xcode.app/Contents/Developer/Platforms/MacOSX.platform/Developer/SDKs/MacOSX10.13.sdk/usr/include/wctype.h", directory: "/Users/ejiang/Projects/lls/ac/llfiles")
!1083 = !DIImportedEntity(tag: DW_TAG_imported_declaration, scope: !6, entity: !1084, file: !1062, line: 69)
!1084 = !DISubprogram(name: "iswcntrl", linkageName: "_Z8iswcntrli", scope: !1075, file: !1075, line: 63, type: !1076, isLocal: false, isDefinition: false, flags: DIFlagPrototyped, isOptimized: false)
!1085 = !DIImportedEntity(tag: DW_TAG_imported_declaration, scope: !6, entity: !1086, file: !1062, line: 70)
!1086 = !DISubprogram(name: "iswdigit", linkageName: "_Z8iswdigiti", scope: !1075, file: !1075, line: 75, type: !1076, isLocal: false, isDefinition: false, flags: DIFlagPrototyped, isOptimized: false)
!1087 = !DIImportedEntity(tag: DW_TAG_imported_declaration, scope: !6, entity: !1088, file: !1062, line: 71)
!1088 = !DISubprogram(name: "iswgraph", linkageName: "_Z8iswgraphi", scope: !1075, file: !1075, line: 81, type: !1076, isLocal: false, isDefinition: false, flags: DIFlagPrototyped, isOptimized: false)
!1089 = !DIImportedEntity(tag: DW_TAG_imported_declaration, scope: !6, entity: !1090, file: !1062, line: 72)
!1090 = !DISubprogram(name: "iswlower", linkageName: "_Z8iswloweri", scope: !1075, file: !1075, line: 87, type: !1076, isLocal: false, isDefinition: false, flags: DIFlagPrototyped, isOptimized: false)
!1091 = !DIImportedEntity(tag: DW_TAG_imported_declaration, scope: !6, entity: !1092, file: !1062, line: 73)
!1092 = !DISubprogram(name: "iswprint", linkageName: "_Z8iswprinti", scope: !1075, file: !1075, line: 93, type: !1076, isLocal: false, isDefinition: false, flags: DIFlagPrototyped, isOptimized: false)
!1093 = !DIImportedEntity(tag: DW_TAG_imported_declaration, scope: !6, entity: !1094, file: !1062, line: 74)
!1094 = !DISubprogram(name: "iswpunct", linkageName: "_Z8iswpuncti", scope: !1075, file: !1075, line: 99, type: !1076, isLocal: false, isDefinition: false, flags: DIFlagPrototyped, isOptimized: false)
!1095 = !DIImportedEntity(tag: DW_TAG_imported_declaration, scope: !6, entity: !1096, file: !1062, line: 75)
!1096 = !DISubprogram(name: "iswspace", linkageName: "_Z8iswspacei", scope: !1075, file: !1075, line: 105, type: !1076, isLocal: false, isDefinition: false, flags: DIFlagPrototyped, isOptimized: false)
!1097 = !DIImportedEntity(tag: DW_TAG_imported_declaration, scope: !6, entity: !1098, file: !1062, line: 76)
!1098 = !DISubprogram(name: "iswupper", linkageName: "_Z8iswupperi", scope: !1075, file: !1075, line: 111, type: !1076, isLocal: false, isDefinition: false, flags: DIFlagPrototyped, isOptimized: false)
!1099 = !DIImportedEntity(tag: DW_TAG_imported_declaration, scope: !6, entity: !1100, file: !1062, line: 77)
!1100 = !DISubprogram(name: "iswxdigit", linkageName: "_Z9iswxdigiti", scope: !1075, file: !1075, line: 117, type: !1076, isLocal: false, isDefinition: false, flags: DIFlagPrototyped, isOptimized: false)
!1101 = !DIImportedEntity(tag: DW_TAG_imported_declaration, scope: !6, entity: !1102, file: !1062, line: 78)
!1102 = !DISubprogram(name: "iswctype", linkageName: "_Z8iswctypeij", scope: !1075, file: !1075, line: 69, type: !1103, isLocal: false, isDefinition: false, flags: DIFlagPrototyped, isOptimized: false)
!1103 = !DISubroutineType(types: !1104)
!1104 = !{!20, !1059, !1069}
!1105 = !DIImportedEntity(tag: DW_TAG_imported_declaration, scope: !6, entity: !1106, file: !1062, line: 79)
!1106 = !DISubprogram(name: "wctype", scope: !1075, file: !1075, line: 157, type: !1107, isLocal: false, isDefinition: false, flags: DIFlagPrototyped, isOptimized: false)
!1107 = !DISubroutineType(types: !1108)
!1108 = !{!1069, !213}
!1109 = !DIImportedEntity(tag: DW_TAG_imported_declaration, scope: !6, entity: !1110, file: !1062, line: 80)
!1110 = !DISubprogram(name: "towlower", linkageName: "_Z8towloweri", scope: !1075, file: !1075, line: 123, type: !1111, isLocal: false, isDefinition: false, flags: DIFlagPrototyped, isOptimized: false)
!1111 = !DISubroutineType(types: !1112)
!1112 = !{!1059, !1059}
!1113 = !DIImportedEntity(tag: DW_TAG_imported_declaration, scope: !6, entity: !1114, file: !1062, line: 81)
!1114 = !DISubprogram(name: "towupper", linkageName: "_Z8towupperi", scope: !1075, file: !1075, line: 129, type: !1111, isLocal: false, isDefinition: false, flags: DIFlagPrototyped, isOptimized: false)
!1115 = !DIImportedEntity(tag: DW_TAG_imported_declaration, scope: !6, entity: !1116, file: !1062, line: 82)
!1116 = !DISubprogram(name: "towctrans", scope: !1082, file: !1082, line: 121, type: !1117, isLocal: false, isDefinition: false, flags: DIFlagPrototyped, isOptimized: false)
!1117 = !DISubroutineType(types: !1118)
!1118 = !{!1059, !1059, !1064}
!1119 = !DIImportedEntity(tag: DW_TAG_imported_declaration, scope: !6, entity: !1120, file: !1062, line: 83)
!1120 = !DISubprogram(name: "wctrans", scope: !1082, file: !1082, line: 123, type: !1121, isLocal: false, isDefinition: false, flags: DIFlagPrototyped, isOptimized: false)
!1121 = !DISubroutineType(types: !1122)
!1122 = !{!1064, !213}
!1123 = !DIImportedEntity(tag: DW_TAG_imported_declaration, scope: !6, entity: !1124, file: !1135, line: 116)
!1124 = !DIDerivedType(tag: DW_TAG_typedef, name: "mbstate_t", file: !1125, line: 32, baseType: !1126)
!1125 = !DIFile(filename: "/Applications/Xcode.app/Contents/Developer/Platforms/MacOSX.platform/Developer/SDKs/MacOSX10.13.sdk/usr/include/sys/_types/_mbstate_t.h", directory: "/Users/ejiang/Projects/lls/ac/llfiles")
!1126 = !DIDerivedType(tag: DW_TAG_typedef, name: "__darwin_mbstate_t", file: !505, line: 81, baseType: !1127)
!1127 = !DIDerivedType(tag: DW_TAG_typedef, name: "__mbstate_t", file: !505, line: 79, baseType: !1128)
!1128 = distinct !DICompositeType(tag: DW_TAG_union_type, file: !505, line: 76, size: 1024, elements: !1129, identifier: "_ZTS11__mbstate_t")
!1129 = !{!1130, !1134}
!1130 = !DIDerivedType(tag: DW_TAG_member, name: "__mbstate8", scope: !1128, file: !505, line: 77, baseType: !1131, size: 1024)
!1131 = !DICompositeType(tag: DW_TAG_array_type, baseType: !215, size: 1024, elements: !1132)
!1132 = !{!1133}
!1133 = !DISubrange(count: 128)
!1134 = !DIDerivedType(tag: DW_TAG_member, name: "_mbstateL", scope: !1128, file: !505, line: 78, baseType: !206, size: 64)
!1135 = !DIFile(filename: "/Applications/Xcode.app/Contents/Developer/Toolchains/XcodeDefault.xctoolchain/usr/include/c++/v1/cwchar", directory: "/Users/ejiang/Projects/lls/ac/llfiles")
!1136 = !DIImportedEntity(tag: DW_TAG_imported_declaration, scope: !6, entity: !180, file: !1135, line: 117)
!1137 = !DIImportedEntity(tag: DW_TAG_imported_declaration, scope: !6, entity: !1138, file: !1135, line: 118)
!1138 = distinct !DICompositeType(tag: DW_TAG_structure_type, name: "tm", file: !1139, line: 74, size: 448, elements: !1140, identifier: "_ZTS2tm")
!1139 = !DIFile(filename: "/Applications/Xcode.app/Contents/Developer/Platforms/MacOSX.platform/Developer/SDKs/MacOSX10.13.sdk/usr/include/time.h", directory: "/Users/ejiang/Projects/lls/ac/llfiles")
!1140 = !{!1141, !1142, !1143, !1144, !1145, !1146, !1147, !1148, !1149, !1150, !1151}
!1141 = !DIDerivedType(tag: DW_TAG_member, name: "tm_sec", scope: !1138, file: !1139, line: 75, baseType: !20, size: 32)
!1142 = !DIDerivedType(tag: DW_TAG_member, name: "tm_min", scope: !1138, file: !1139, line: 76, baseType: !20, size: 32, offset: 32)
!1143 = !DIDerivedType(tag: DW_TAG_member, name: "tm_hour", scope: !1138, file: !1139, line: 77, baseType: !20, size: 32, offset: 64)
!1144 = !DIDerivedType(tag: DW_TAG_member, name: "tm_mday", scope: !1138, file: !1139, line: 78, baseType: !20, size: 32, offset: 96)
!1145 = !DIDerivedType(tag: DW_TAG_member, name: "tm_mon", scope: !1138, file: !1139, line: 79, baseType: !20, size: 32, offset: 128)
!1146 = !DIDerivedType(tag: DW_TAG_member, name: "tm_year", scope: !1138, file: !1139, line: 80, baseType: !20, size: 32, offset: 160)
!1147 = !DIDerivedType(tag: DW_TAG_member, name: "tm_wday", scope: !1138, file: !1139, line: 81, baseType: !20, size: 32, offset: 192)
!1148 = !DIDerivedType(tag: DW_TAG_member, name: "tm_yday", scope: !1138, file: !1139, line: 82, baseType: !20, size: 32, offset: 224)
!1149 = !DIDerivedType(tag: DW_TAG_member, name: "tm_isdst", scope: !1138, file: !1139, line: 83, baseType: !20, size: 32, offset: 256)
!1150 = !DIDerivedType(tag: DW_TAG_member, name: "tm_gmtoff", scope: !1138, file: !1139, line: 84, baseType: !177, size: 64, offset: 320)
!1151 = !DIDerivedType(tag: DW_TAG_member, name: "tm_zone", scope: !1138, file: !1139, line: 85, baseType: !233, size: 64, offset: 384)
!1152 = !DIImportedEntity(tag: DW_TAG_imported_declaration, scope: !6, entity: !1059, file: !1135, line: 119)
!1153 = !DIImportedEntity(tag: DW_TAG_imported_declaration, scope: !6, entity: !810, file: !1135, line: 120)
!1154 = !DIImportedEntity(tag: DW_TAG_imported_declaration, scope: !6, entity: !1155, file: !1135, line: 121)
!1155 = !DISubprogram(name: "fwprintf", scope: !1156, file: !1156, line: 103, type: !1157, isLocal: false, isDefinition: false, flags: DIFlagPrototyped, isOptimized: false)
!1156 = !DIFile(filename: "/Applications/Xcode.app/Contents/Developer/Platforms/MacOSX.platform/Developer/SDKs/MacOSX10.13.sdk/usr/include/wchar.h", directory: "/Users/ejiang/Projects/lls/ac/llfiles")
!1157 = !DISubroutineType(types: !1158)
!1158 = !{!20, !871, !363, null}
!1159 = !DIImportedEntity(tag: DW_TAG_imported_declaration, scope: !6, entity: !1160, file: !1135, line: 122)
!1160 = !DISubprogram(name: "fwscanf", scope: !1156, file: !1156, line: 104, type: !1157, isLocal: false, isDefinition: false, flags: DIFlagPrototyped, isOptimized: false)
!1161 = !DIImportedEntity(tag: DW_TAG_imported_declaration, scope: !6, entity: !1162, file: !1135, line: 123)
!1162 = !DISubprogram(name: "swprintf", scope: !1156, file: !1156, line: 115, type: !1163, isLocal: false, isDefinition: false, flags: DIFlagPrototyped, isOptimized: false)
!1163 = !DISubroutineType(types: !1164)
!1164 = !{!20, !349, !180, !363, null}
!1165 = !DIImportedEntity(tag: DW_TAG_imported_declaration, scope: !6, entity: !1166, file: !1135, line: 124)
!1166 = !DISubprogram(name: "vfwprintf", scope: !1156, file: !1156, line: 118, type: !1167, isLocal: false, isDefinition: false, flags: DIFlagPrototyped, isOptimized: false)
!1167 = !DISubroutineType(types: !1168)
!1168 = !{!20, !871, !363, !904}
!1169 = !DIImportedEntity(tag: DW_TAG_imported_declaration, scope: !6, entity: !1170, file: !1135, line: 125)
!1170 = !DISubprogram(name: "vswprintf", scope: !1156, file: !1156, line: 120, type: !1171, isLocal: false, isDefinition: false, flags: DIFlagPrototyped, isOptimized: false)
!1171 = !DISubroutineType(types: !1172)
!1172 = !{!20, !349, !180, !363, !904}
!1173 = !DIImportedEntity(tag: DW_TAG_imported_declaration, scope: !6, entity: !1174, file: !1135, line: 126)
!1174 = !DISubprogram(name: "swscanf", scope: !1156, file: !1156, line: 116, type: !1175, isLocal: false, isDefinition: false, flags: DIFlagPrototyped, isOptimized: false)
!1175 = !DISubroutineType(types: !1176)
!1176 = !{!20, !363, !363, null}
!1177 = !DIImportedEntity(tag: DW_TAG_imported_declaration, scope: !6, entity: !1178, file: !1135, line: 127)
!1178 = !DISubprogram(name: "vfwscanf", scope: !1156, file: !1156, line: 170, type: !1167, isLocal: false, isDefinition: false, flags: DIFlagPrototyped, isOptimized: false)
!1179 = !DIImportedEntity(tag: DW_TAG_imported_declaration, scope: !6, entity: !1180, file: !1135, line: 128)
!1180 = !DISubprogram(name: "vswscanf", scope: !1156, file: !1156, line: 172, type: !1181, isLocal: false, isDefinition: false, flags: DIFlagPrototyped, isOptimized: false)
!1181 = !DISubroutineType(types: !1182)
!1182 = !{!20, !363, !363, !904}
!1183 = !DIImportedEntity(tag: DW_TAG_imported_declaration, scope: !6, entity: !1184, file: !1135, line: 129)
!1184 = !DISubprogram(name: "fgetwc", scope: !1156, file: !1156, line: 98, type: !1185, isLocal: false, isDefinition: false, flags: DIFlagPrototyped, isOptimized: false)
!1185 = !DISubroutineType(types: !1186)
!1186 = !{!1059, !871}
!1187 = !DIImportedEntity(tag: DW_TAG_imported_declaration, scope: !6, entity: !1188, file: !1135, line: 130)
!1188 = !DISubprogram(name: "fgetws", scope: !1156, file: !1156, line: 99, type: !1189, isLocal: false, isDefinition: false, flags: DIFlagPrototyped, isOptimized: false)
!1189 = !DISubroutineType(types: !1190)
!1190 = !{!349, !349, !20, !871}
!1191 = !DIImportedEntity(tag: DW_TAG_imported_declaration, scope: !6, entity: !1192, file: !1135, line: 131)
!1192 = !DISubprogram(name: "fputwc", scope: !1156, file: !1156, line: 100, type: !1193, isLocal: false, isDefinition: false, flags: DIFlagPrototyped, isOptimized: false)
!1193 = !DISubroutineType(types: !1194)
!1194 = !{!1059, !350, !871}
!1195 = !DIImportedEntity(tag: DW_TAG_imported_declaration, scope: !6, entity: !1196, file: !1135, line: 132)
!1196 = !DISubprogram(name: "fputws", scope: !1156, file: !1156, line: 101, type: !1197, isLocal: false, isDefinition: false, flags: DIFlagPrototyped, isOptimized: false)
!1197 = !DISubroutineType(types: !1198)
!1198 = !{!20, !363, !871}
!1199 = !DIImportedEntity(tag: DW_TAG_imported_declaration, scope: !6, entity: !1200, file: !1135, line: 133)
!1200 = !DISubprogram(name: "fwide", scope: !1156, file: !1156, line: 102, type: !1201, isLocal: false, isDefinition: false, flags: DIFlagPrototyped, isOptimized: false)
!1201 = !DISubroutineType(types: !1202)
!1202 = !{!20, !871, !20}
!1203 = !DIImportedEntity(tag: DW_TAG_imported_declaration, scope: !6, entity: !1204, file: !1135, line: 134)
!1204 = !DISubprogram(name: "getwc", scope: !1156, file: !1156, line: 105, type: !1185, isLocal: false, isDefinition: false, flags: DIFlagPrototyped, isOptimized: false)
!1205 = !DIImportedEntity(tag: DW_TAG_imported_declaration, scope: !6, entity: !1206, file: !1135, line: 135)
!1206 = !DISubprogram(name: "putwc", scope: !1156, file: !1156, line: 113, type: !1193, isLocal: false, isDefinition: false, flags: DIFlagPrototyped, isOptimized: false)
!1207 = !DIImportedEntity(tag: DW_TAG_imported_declaration, scope: !6, entity: !1208, file: !1135, line: 136)
!1208 = !DISubprogram(name: "ungetwc", scope: !1156, file: !1156, line: 117, type: !1209, isLocal: false, isDefinition: false, flags: DIFlagPrototyped, isOptimized: false)
!1209 = !DISubroutineType(types: !1210)
!1210 = !{!1059, !1059, !871}
!1211 = !DIImportedEntity(tag: DW_TAG_imported_declaration, scope: !6, entity: !1212, file: !1135, line: 137)
!1212 = !DISubprogram(name: "wcstod", scope: !1156, file: !1156, line: 144, type: !1213, isLocal: false, isDefinition: false, flags: DIFlagPrototyped, isOptimized: false)
!1213 = !DISubroutineType(types: !1214)
!1214 = !{!212, !363, !1215}
!1215 = !DIDerivedType(tag: DW_TAG_pointer_type, baseType: !349, size: 64)
!1216 = !DIImportedEntity(tag: DW_TAG_imported_declaration, scope: !6, entity: !1217, file: !1135, line: 138)
!1217 = !DISubprogram(name: "wcstof", scope: !1156, file: !1156, line: 175, type: !1218, isLocal: false, isDefinition: false, flags: DIFlagPrototyped, isOptimized: false)
!1218 = !DISubroutineType(types: !1219)
!1219 = !{!238, !363, !1215}
!1220 = !DIImportedEntity(tag: DW_TAG_imported_declaration, scope: !6, entity: !1221, file: !1135, line: 139)
!1221 = !DISubprogram(name: "wcstold", scope: !1156, file: !1156, line: 177, type: !1222, isLocal: false, isDefinition: false, flags: DIFlagPrototyped, isOptimized: false)
!1222 = !DISubroutineType(types: !1223)
!1223 = !{!185, !363, !1215}
!1224 = !DIImportedEntity(tag: DW_TAG_imported_declaration, scope: !6, entity: !1225, file: !1135, line: 140)
!1225 = !DISubprogram(name: "wcstol", scope: !1156, file: !1156, line: 147, type: !1226, isLocal: false, isDefinition: false, flags: DIFlagPrototyped, isOptimized: false)
!1226 = !DISubroutineType(types: !1227)
!1227 = !{!177, !363, !1215, !20}
!1228 = !DIImportedEntity(tag: DW_TAG_imported_declaration, scope: !6, entity: !1229, file: !1135, line: 142)
!1229 = !DISubprogram(name: "wcstoll", scope: !1156, file: !1156, line: 180, type: !1230, isLocal: false, isDefinition: false, flags: DIFlagPrototyped, isOptimized: false)
!1230 = !DISubroutineType(types: !1231)
!1231 = !{!206, !363, !1215, !20}
!1232 = !DIImportedEntity(tag: DW_TAG_imported_declaration, scope: !6, entity: !1233, file: !1135, line: 144)
!1233 = !DISubprogram(name: "wcstoul", scope: !1156, file: !1156, line: 149, type: !1234, isLocal: false, isDefinition: false, flags: DIFlagPrototyped, isOptimized: false)
!1234 = !DISubroutineType(types: !1235)
!1235 = !{!181, !363, !1215, !20}
!1236 = !DIImportedEntity(tag: DW_TAG_imported_declaration, scope: !6, entity: !1237, file: !1135, line: 146)
!1237 = !DISubprogram(name: "wcstoull", scope: !1156, file: !1156, line: 182, type: !1238, isLocal: false, isDefinition: false, flags: DIFlagPrototyped, isOptimized: false)
!1238 = !DISubroutineType(types: !1239)
!1239 = !{!259, !363, !1215, !20}
!1240 = !DIImportedEntity(tag: DW_TAG_imported_declaration, scope: !6, entity: !1241, file: !1135, line: 148)
!1241 = !DISubprogram(name: "wcscpy", scope: !1156, file: !1156, line: 128, type: !1242, isLocal: false, isDefinition: false, flags: DIFlagPrototyped, isOptimized: false)
!1242 = !DISubroutineType(types: !1243)
!1243 = !{!349, !349, !363}
!1244 = !DIImportedEntity(tag: DW_TAG_imported_declaration, scope: !6, entity: !1245, file: !1135, line: 149)
!1245 = !DISubprogram(name: "wcsncpy", scope: !1156, file: !1156, line: 135, type: !1246, isLocal: false, isDefinition: false, flags: DIFlagPrototyped, isOptimized: false)
!1246 = !DISubroutineType(types: !1247)
!1247 = !{!349, !349, !363, !180}
!1248 = !DIImportedEntity(tag: DW_TAG_imported_declaration, scope: !6, entity: !1249, file: !1135, line: 150)
!1249 = !DISubprogram(name: "wcscat", scope: !1156, file: !1156, line: 124, type: !1242, isLocal: false, isDefinition: false, flags: DIFlagPrototyped, isOptimized: false)
!1250 = !DIImportedEntity(tag: DW_TAG_imported_declaration, scope: !6, entity: !1251, file: !1135, line: 151)
!1251 = !DISubprogram(name: "wcsncat", scope: !1156, file: !1156, line: 133, type: !1246, isLocal: false, isDefinition: false, flags: DIFlagPrototyped, isOptimized: false)
!1252 = !DIImportedEntity(tag: DW_TAG_imported_declaration, scope: !6, entity: !1253, file: !1135, line: 152)
!1253 = !DISubprogram(name: "wcscmp", scope: !1156, file: !1156, line: 126, type: !1254, isLocal: false, isDefinition: false, flags: DIFlagPrototyped, isOptimized: false)
!1254 = !DISubroutineType(types: !1255)
!1255 = !{!20, !363, !363}
!1256 = !DIImportedEntity(tag: DW_TAG_imported_declaration, scope: !6, entity: !1257, file: !1135, line: 153)
!1257 = !DISubprogram(name: "wcscoll", scope: !1156, file: !1156, line: 127, type: !1254, isLocal: false, isDefinition: false, flags: DIFlagPrototyped, isOptimized: false)
!1258 = !DIImportedEntity(tag: DW_TAG_imported_declaration, scope: !6, entity: !1259, file: !1135, line: 154)
!1259 = !DISubprogram(name: "wcsncmp", scope: !1156, file: !1156, line: 134, type: !1260, isLocal: false, isDefinition: false, flags: DIFlagPrototyped, isOptimized: false)
!1260 = !DISubroutineType(types: !1261)
!1261 = !{!20, !363, !363, !180}
!1262 = !DIImportedEntity(tag: DW_TAG_imported_declaration, scope: !6, entity: !1263, file: !1135, line: 155)
!1263 = !DISubprogram(name: "wcsxfrm", scope: !1156, file: !1156, line: 142, type: !1264, isLocal: false, isDefinition: false, flags: DIFlagPrototyped, isOptimized: false)
!1264 = !DISubroutineType(types: !1265)
!1265 = !{!180, !349, !363, !180}
!1266 = !DIImportedEntity(tag: DW_TAG_imported_declaration, scope: !6, entity: !1267, file: !1135, line: 156)
!1267 = !DISubprogram(name: "wcschr", linkageName: "_Z6wcschrUa9enable_ifIXLb1EEEPww", scope: !1268, file: !1268, line: 137, type: !1269, isLocal: false, isDefinition: false, flags: DIFlagPrototyped, isOptimized: false)
!1268 = !DIFile(filename: "/Applications/Xcode.app/Contents/Developer/Toolchains/XcodeDefault.xctoolchain/usr/include/c++/v1/wchar.h", directory: "/Users/ejiang/Projects/lls/ac/llfiles")
!1269 = !DISubroutineType(types: !1270)
!1270 = !{!349, !349, !350}
!1271 = !DIImportedEntity(tag: DW_TAG_imported_declaration, scope: !6, entity: !1272, file: !1135, line: 157)
!1272 = !DISubprogram(name: "wcspbrk", linkageName: "_Z7wcspbrkUa9enable_ifIXLb1EEEPwPKw", scope: !1268, file: !1268, line: 144, type: !1242, isLocal: false, isDefinition: false, flags: DIFlagPrototyped, isOptimized: false)
!1273 = !DIImportedEntity(tag: DW_TAG_imported_declaration, scope: !6, entity: !1274, file: !1135, line: 158)
!1274 = !DISubprogram(name: "wcsrchr", linkageName: "_Z7wcsrchrUa9enable_ifIXLb1EEEPww", scope: !1268, file: !1268, line: 151, type: !1269, isLocal: false, isDefinition: false, flags: DIFlagPrototyped, isOptimized: false)
!1275 = !DIImportedEntity(tag: DW_TAG_imported_declaration, scope: !6, entity: !1276, file: !1135, line: 159)
!1276 = !DISubprogram(name: "wcsstr", linkageName: "_Z6wcsstrUa9enable_ifIXLb1EEEPwPKw", scope: !1268, file: !1268, line: 158, type: !1242, isLocal: false, isDefinition: false, flags: DIFlagPrototyped, isOptimized: false)
!1277 = !DIImportedEntity(tag: DW_TAG_imported_declaration, scope: !6, entity: !1278, file: !1135, line: 160)
!1278 = !DISubprogram(name: "wmemchr", linkageName: "_Z7wmemchrUa9enable_ifIXLb1EEEPwwm", scope: !1268, file: !1268, line: 165, type: !1279, isLocal: false, isDefinition: false, flags: DIFlagPrototyped, isOptimized: false)
!1279 = !DISubroutineType(types: !1280)
!1280 = !{!349, !349, !350, !180}
!1281 = !DIImportedEntity(tag: DW_TAG_imported_declaration, scope: !6, entity: !1282, file: !1135, line: 161)
!1282 = !DISubprogram(name: "wcscspn", scope: !1156, file: !1156, line: 129, type: !1283, isLocal: false, isDefinition: false, flags: DIFlagPrototyped, isOptimized: false)
!1283 = !DISubroutineType(types: !1284)
!1284 = !{!180, !363, !363}
!1285 = !DIImportedEntity(tag: DW_TAG_imported_declaration, scope: !6, entity: !1286, file: !1135, line: 162)
!1286 = !DISubprogram(name: "wcslen", scope: !1156, file: !1156, line: 132, type: !1287, isLocal: false, isDefinition: false, flags: DIFlagPrototyped, isOptimized: false)
!1287 = !DISubroutineType(types: !1288)
!1288 = !{!180, !363}
!1289 = !DIImportedEntity(tag: DW_TAG_imported_declaration, scope: !6, entity: !1290, file: !1135, line: 163)
!1290 = !DISubprogram(name: "wcsspn", scope: !1156, file: !1156, line: 140, type: !1283, isLocal: false, isDefinition: false, flags: DIFlagPrototyped, isOptimized: false)
!1291 = !DIImportedEntity(tag: DW_TAG_imported_declaration, scope: !6, entity: !1292, file: !1135, line: 164)
!1292 = !DISubprogram(name: "wcstok", scope: !1156, file: !1156, line: 145, type: !1293, isLocal: false, isDefinition: false, flags: DIFlagPrototyped, isOptimized: false)
!1293 = !DISubroutineType(types: !1294)
!1294 = !{!349, !349, !363, !1215}
!1295 = !DIImportedEntity(tag: DW_TAG_imported_declaration, scope: !6, entity: !1296, file: !1135, line: 165)
!1296 = !DISubprogram(name: "wmemcmp", scope: !1156, file: !1156, line: 151, type: !1260, isLocal: false, isDefinition: false, flags: DIFlagPrototyped, isOptimized: false)
!1297 = !DIImportedEntity(tag: DW_TAG_imported_declaration, scope: !6, entity: !1298, file: !1135, line: 166)
!1298 = !DISubprogram(name: "wmemcpy", scope: !1156, file: !1156, line: 152, type: !1246, isLocal: false, isDefinition: false, flags: DIFlagPrototyped, isOptimized: false)
!1299 = !DIImportedEntity(tag: DW_TAG_imported_declaration, scope: !6, entity: !1300, file: !1135, line: 167)
!1300 = !DISubprogram(name: "wmemmove", scope: !1156, file: !1156, line: 153, type: !1246, isLocal: false, isDefinition: false, flags: DIFlagPrototyped, isOptimized: false)
!1301 = !DIImportedEntity(tag: DW_TAG_imported_declaration, scope: !6, entity: !1302, file: !1135, line: 168)
!1302 = !DISubprogram(name: "wmemset", scope: !1156, file: !1156, line: 154, type: !1279, isLocal: false, isDefinition: false, flags: DIFlagPrototyped, isOptimized: false)
!1303 = !DIImportedEntity(tag: DW_TAG_imported_declaration, scope: !6, entity: !1304, file: !1135, line: 169)
!1304 = !DISubprogram(name: "wcsftime", linkageName: "\01_wcsftime", scope: !1156, file: !1156, line: 130, type: !1305, isLocal: false, isDefinition: false, flags: DIFlagPrototyped, isOptimized: false)
!1305 = !DISubroutineType(types: !1306)
!1306 = !{!180, !349, !180, !363, !1307}
!1307 = !DIDerivedType(tag: DW_TAG_pointer_type, baseType: !1308, size: 64)
!1308 = !DIDerivedType(tag: DW_TAG_const_type, baseType: !1138)
!1309 = !DIImportedEntity(tag: DW_TAG_imported_declaration, scope: !6, entity: !1310, file: !1135, line: 170)
!1310 = !DISubprogram(name: "btowc", scope: !1156, file: !1156, line: 97, type: !1311, isLocal: false, isDefinition: false, flags: DIFlagPrototyped, isOptimized: false)
!1311 = !DISubroutineType(types: !1312)
!1312 = !{!1059, !20}
!1313 = !DIImportedEntity(tag: DW_TAG_imported_declaration, scope: !6, entity: !1314, file: !1135, line: 171)
!1314 = !DISubprogram(name: "wctob", scope: !1156, file: !1156, line: 143, type: !1076, isLocal: false, isDefinition: false, flags: DIFlagPrototyped, isOptimized: false)
!1315 = !DIImportedEntity(tag: DW_TAG_imported_declaration, scope: !6, entity: !1316, file: !1135, line: 172)
!1316 = !DISubprogram(name: "mbsinit", scope: !1156, file: !1156, line: 110, type: !1317, isLocal: false, isDefinition: false, flags: DIFlagPrototyped, isOptimized: false)
!1317 = !DISubroutineType(types: !1318)
!1318 = !{!20, !1319}
!1319 = !DIDerivedType(tag: DW_TAG_pointer_type, baseType: !1320, size: 64)
!1320 = !DIDerivedType(tag: DW_TAG_const_type, baseType: !1124)
!1321 = !DIImportedEntity(tag: DW_TAG_imported_declaration, scope: !6, entity: !1322, file: !1135, line: 173)
!1322 = !DISubprogram(name: "mbrlen", scope: !1156, file: !1156, line: 107, type: !1323, isLocal: false, isDefinition: false, flags: DIFlagPrototyped, isOptimized: false)
!1323 = !DISubroutineType(types: !1324)
!1324 = !{!180, !213, !180, !1325}
!1325 = !DIDerivedType(tag: DW_TAG_pointer_type, baseType: !1124, size: 64)
!1326 = !DIImportedEntity(tag: DW_TAG_imported_declaration, scope: !6, entity: !1327, file: !1135, line: 174)
!1327 = !DISubprogram(name: "mbrtowc", scope: !1156, file: !1156, line: 108, type: !1328, isLocal: false, isDefinition: false, flags: DIFlagPrototyped, isOptimized: false)
!1328 = !DISubroutineType(types: !1329)
!1329 = !{!180, !349, !213, !180, !1325}
!1330 = !DIImportedEntity(tag: DW_TAG_imported_declaration, scope: !6, entity: !1331, file: !1135, line: 175)
!1331 = !DISubprogram(name: "wcrtomb", scope: !1156, file: !1156, line: 123, type: !1332, isLocal: false, isDefinition: false, flags: DIFlagPrototyped, isOptimized: false)
!1332 = !DISubroutineType(types: !1333)
!1333 = !{!180, !233, !350, !1325}
!1334 = !DIImportedEntity(tag: DW_TAG_imported_declaration, scope: !6, entity: !1335, file: !1135, line: 176)
!1335 = !DISubprogram(name: "mbsrtowcs", scope: !1156, file: !1156, line: 111, type: !1336, isLocal: false, isDefinition: false, flags: DIFlagPrototyped, isOptimized: false)
!1336 = !DISubroutineType(types: !1337)
!1337 = !{!180, !349, !1338, !180, !1325}
!1338 = !DIDerivedType(tag: DW_TAG_pointer_type, baseType: !213, size: 64)
!1339 = !DIImportedEntity(tag: DW_TAG_imported_declaration, scope: !6, entity: !1340, file: !1135, line: 177)
!1340 = !DISubprogram(name: "wcsrtombs", scope: !1156, file: !1156, line: 138, type: !1341, isLocal: false, isDefinition: false, flags: DIFlagPrototyped, isOptimized: false)
!1341 = !DISubroutineType(types: !1342)
!1342 = !{!180, !233, !1343, !180, !1325}
!1343 = !DIDerivedType(tag: DW_TAG_pointer_type, baseType: !363, size: 64)
!1344 = !DIImportedEntity(tag: DW_TAG_imported_declaration, scope: !6, entity: !1345, file: !1135, line: 180)
!1345 = !DISubprogram(name: "getwchar", scope: !1156, file: !1156, line: 106, type: !1346, isLocal: false, isDefinition: false, flags: DIFlagPrototyped, isOptimized: false)
!1346 = !DISubroutineType(types: !1347)
!1347 = !{!1059}
!1348 = !DIImportedEntity(tag: DW_TAG_imported_declaration, scope: !6, entity: !1349, file: !1135, line: 181)
!1349 = !DISubprogram(name: "vwscanf", scope: !1156, file: !1156, line: 174, type: !1350, isLocal: false, isDefinition: false, flags: DIFlagPrototyped, isOptimized: false)
!1350 = !DISubroutineType(types: !1351)
!1351 = !{!20, !363, !904}
!1352 = !DIImportedEntity(tag: DW_TAG_imported_declaration, scope: !6, entity: !1353, file: !1135, line: 182)
!1353 = !DISubprogram(name: "wscanf", scope: !1156, file: !1156, line: 156, type: !1354, isLocal: false, isDefinition: false, flags: DIFlagPrototyped, isOptimized: false)
!1354 = !DISubroutineType(types: !1355)
!1355 = !{!20, !363, null}
!1356 = !DIImportedEntity(tag: DW_TAG_imported_declaration, scope: !6, entity: !1357, file: !1135, line: 186)
!1357 = !DISubprogram(name: "putwchar", scope: !1156, file: !1156, line: 114, type: !1358, isLocal: false, isDefinition: false, flags: DIFlagPrototyped, isOptimized: false)
!1358 = !DISubroutineType(types: !1359)
!1359 = !{!1059, !350}
!1360 = !DIImportedEntity(tag: DW_TAG_imported_declaration, scope: !6, entity: !1361, file: !1135, line: 187)
!1361 = !DISubprogram(name: "vwprintf", scope: !1156, file: !1156, line: 122, type: !1350, isLocal: false, isDefinition: false, flags: DIFlagPrototyped, isOptimized: false)
!1362 = !DIImportedEntity(tag: DW_TAG_imported_declaration, scope: !6, entity: !1363, file: !1135, line: 188)
!1363 = !DISubprogram(name: "wprintf", scope: !1156, file: !1156, line: 155, type: !1354, isLocal: false, isDefinition: false, flags: DIFlagPrototyped, isOptimized: false)
!1364 = !{i32 2, !"Dwarf Version", i32 4}
!1365 = !{i32 2, !"Debug Info Version", i32 3}
!1366 = !{i32 1, !"wchar_size", i32 4}
!1367 = !{i32 7, !"PIC Level", i32 2}
!1368 = !{!"Apple LLVM version 9.1.0 (clang-902.0.39.2)"}
!1369 = distinct !DISubprogram(name: "main", scope: !1, file: !1, line: 9, type: !1370, isLocal: false, isDefinition: true, scopeLine: 9, flags: DIFlagPrototyped, isOptimized: false, unit: !0, retainedNodes: !2)
!1370 = !DISubroutineType(types: !1371)
!1371 = !{!20, !20, !232}
!1372 = !DILocalVariable(name: "this", arg: 1, scope: !1373, type: !1374, flags: DIFlagArtificial | DIFlagObjectPointer)
!1373 = distinct !DISubprogram(name: "__get", linkageName: "_ZNSt3__122__compressed_pair_elemINS_14default_deleteI1aEELi1ELb1EE5__getEv", scope: !48, file: !5, line: 2102, type: !69, isLocal: false, isDefinition: true, scopeLine: 2102, flags: DIFlagPrototyped, isOptimized: false, unit: !0, declaration: !68, retainedNodes: !2)
!1374 = !DIDerivedType(tag: DW_TAG_pointer_type, baseType: !48, size: 64)
!1375 = !DILocation(line: 0, scope: !1373, inlinedAt: !1376)
!1376 = distinct !DILocation(line: 2190, column: 40, scope: !1377, inlinedAt: !1378)
!1377 = distinct !DISubprogram(name: "second", linkageName: "_ZNSt3__117__compressed_pairIP1aNS_14default_deleteIS1_EEE6secondEv", scope: !10, file: !5, line: 2189, type: !94, isLocal: false, isDefinition: true, scopeLine: 2189, flags: DIFlagPrototyped, isOptimized: false, unit: !0, declaration: !93, retainedNodes: !2)
!1378 = distinct !DILocation(line: 2552, column: 14, scope: !1379, inlinedAt: !1381)
!1379 = distinct !DILexicalBlock(scope: !1380, file: !5, line: 2551, column: 9)
!1380 = distinct !DISubprogram(name: "reset", linkageName: "_ZNSt3__110unique_ptrI1aNS_14default_deleteIS1_EEE5resetEPS1_", scope: !4, file: !5, line: 2548, type: !168, isLocal: false, isDefinition: true, scopeLine: 2548, flags: DIFlagPrototyped, isOptimized: false, unit: !0, declaration: !167, retainedNodes: !2)
!1381 = distinct !DILocation(line: 2506, column: 19, scope: !1382, inlinedAt: !1384)
!1382 = distinct !DILexicalBlock(scope: !1383, file: !5, line: 2506, column: 17)
!1383 = distinct !DISubprogram(name: "~unique_ptr", linkageName: "_ZNSt3__110unique_ptrI1aNS_14default_deleteIS1_EEED2Ev", scope: !4, file: !5, line: 2506, type: !116, isLocal: false, isDefinition: true, scopeLine: 2506, flags: DIFlagPrototyped, isOptimized: false, unit: !0, declaration: !115, retainedNodes: !2)
!1384 = distinct !DILocation(line: 2506, column: 17, scope: !1385, inlinedAt: !1386)
!1385 = distinct !DISubprogram(name: "~unique_ptr", linkageName: "_ZNSt3__110unique_ptrI1aNS_14default_deleteIS1_EEED1Ev", scope: !4, file: !5, line: 2506, type: !116, isLocal: false, isDefinition: true, scopeLine: 2506, flags: DIFlagPrototyped, isOptimized: false, unit: !0, declaration: !115, retainedNodes: !2)
!1386 = distinct !DILocation(line: 13, column: 1, scope: !1369)
!1387 = !DILocalVariable(name: "this", arg: 1, scope: !1377, type: !1388, flags: DIFlagArtificial | DIFlagObjectPointer)
!1388 = !DIDerivedType(tag: DW_TAG_pointer_type, baseType: !10, size: 64)
!1389 = !DILocation(line: 0, scope: !1377, inlinedAt: !1378)
!1390 = !DILocalVariable(name: "this", arg: 1, scope: !1391, type: !1392, flags: DIFlagArtificial | DIFlagObjectPointer)
!1391 = distinct !DISubprogram(name: "__get", linkageName: "_ZNSt3__122__compressed_pair_elemIP1aLi0ELb0EE5__getEv", scope: !13, file: !5, line: 2064, type: !30, isLocal: false, isDefinition: true, scopeLine: 2064, flags: DIFlagPrototyped, isOptimized: false, unit: !0, declaration: !29, retainedNodes: !2)
!1392 = !DIDerivedType(tag: DW_TAG_pointer_type, baseType: !13, size: 64)
!1393 = !DILocation(line: 0, scope: !1391, inlinedAt: !1394)
!1394 = distinct !DILocation(line: 2180, column: 40, scope: !1395, inlinedAt: !1396)
!1395 = distinct !DISubprogram(name: "first", linkageName: "_ZNSt3__117__compressed_pairIP1aNS_14default_deleteIS1_EEE5firstEv", scope: !10, file: !5, line: 2179, type: !85, isLocal: false, isDefinition: true, scopeLine: 2179, flags: DIFlagPrototyped, isOptimized: false, unit: !0, declaration: !84, retainedNodes: !2)
!1396 = distinct !DILocation(line: 2550, column: 12, scope: !1380, inlinedAt: !1381)
!1397 = !DILocalVariable(name: "this", arg: 1, scope: !1395, type: !1388, flags: DIFlagArtificial | DIFlagObjectPointer)
!1398 = !DILocation(line: 0, scope: !1395, inlinedAt: !1396)
!1399 = !DILocalVariable(name: "this", arg: 1, scope: !1400, type: !1401, flags: DIFlagArtificial | DIFlagObjectPointer)
!1400 = distinct !DISubprogram(name: "operator()", linkageName: "_ZNKSt3__114default_deleteI1aEclEPS1_", scope: !51, file: !5, line: 2234, type: !58, isLocal: false, isDefinition: true, scopeLine: 2234, flags: DIFlagPrototyped, isOptimized: false, unit: !0, declaration: !57, retainedNodes: !2)
!1401 = !DIDerivedType(tag: DW_TAG_pointer_type, baseType: !61, size: 64)
!1402 = !DILocation(line: 0, scope: !1400, inlinedAt: !1403)
!1403 = distinct !DILocation(line: 2552, column: 7, scope: !1379, inlinedAt: !1381)
!1404 = !DILocalVariable(name: "__ptr", arg: 2, scope: !1400, file: !5, line: 2234, type: !16)
!1405 = !DILocation(line: 2234, column: 50, scope: !1400, inlinedAt: !1403)
!1406 = !DILocation(line: 0, scope: !1391, inlinedAt: !1407)
!1407 = distinct !DILocation(line: 2180, column: 40, scope: !1395, inlinedAt: !1408)
!1408 = distinct !DILocation(line: 2549, column: 28, scope: !1380, inlinedAt: !1381)
!1409 = !DILocation(line: 0, scope: !1395, inlinedAt: !1408)
!1410 = !DILocalVariable(name: "this", arg: 1, scope: !1380, type: !1411, flags: DIFlagArtificial | DIFlagObjectPointer)
!1411 = !DIDerivedType(tag: DW_TAG_pointer_type, baseType: !4, size: 64)
!1412 = !DILocation(line: 0, scope: !1380, inlinedAt: !1381)
!1413 = !DILocalVariable(name: "__p", arg: 2, scope: !1380, file: !5, line: 2548, type: !140)
!1414 = !DILocation(line: 2548, column: 22, scope: !1380, inlinedAt: !1381)
!1415 = !DILocalVariable(name: "__tmp", scope: !1380, file: !5, line: 2549, type: !140)
!1416 = !DILocation(line: 2549, column: 13, scope: !1380, inlinedAt: !1381)
!1417 = !DILocalVariable(name: "this", arg: 1, scope: !1383, type: !1411, flags: DIFlagArtificial | DIFlagObjectPointer)
!1418 = !DILocation(line: 0, scope: !1383, inlinedAt: !1384)
!1419 = !DILocalVariable(name: "this", arg: 1, scope: !1385, type: !1411, flags: DIFlagArtificial | DIFlagObjectPointer)
!1420 = !DILocation(line: 0, scope: !1385, inlinedAt: !1386)
!1421 = !DILocalVariable(name: "this", arg: 1, scope: !1422, type: !1423, flags: DIFlagArtificial | DIFlagObjectPointer)
!1422 = distinct !DISubprogram(name: "__get", linkageName: "_ZNKSt3__122__compressed_pair_elemIP1aLi0ELb0EE5__getEv", scope: !13, file: !5, line: 2066, type: !35, isLocal: false, isDefinition: true, scopeLine: 2066, flags: DIFlagPrototyped, isOptimized: false, unit: !0, declaration: !34, retainedNodes: !2)
!1423 = !DIDerivedType(tag: DW_TAG_pointer_type, baseType: !41, size: 64)
!1424 = !DILocation(line: 0, scope: !1422, inlinedAt: !1425)
!1425 = distinct !DILocation(line: 2185, column: 46, scope: !1426, inlinedAt: !1427)
!1426 = distinct !DISubprogram(name: "first", linkageName: "_ZNKSt3__117__compressed_pairIP1aNS_14default_deleteIS1_EEE5firstEv", scope: !10, file: !5, line: 2184, type: !89, isLocal: false, isDefinition: true, scopeLine: 2184, flags: DIFlagPrototyped, isOptimized: false, unit: !0, declaration: !88, retainedNodes: !2)
!1427 = distinct !DILocation(line: 2521, column: 19, scope: !1428, inlinedAt: !1429)
!1428 = distinct !DISubprogram(name: "operator->", linkageName: "_ZNKSt3__110unique_ptrI1aNS_14default_deleteIS1_EEEptEv", scope: !4, file: !5, line: 2520, type: !138, isLocal: false, isDefinition: true, scopeLine: 2520, flags: DIFlagPrototyped, isOptimized: false, unit: !0, declaration: !137, retainedNodes: !2)
!1429 = distinct !DILocation(line: 12, column: 10, scope: !1369)
!1430 = !DILocalVariable(name: "this", arg: 1, scope: !1426, type: !1431, flags: DIFlagArtificial | DIFlagObjectPointer)
!1431 = !DIDerivedType(tag: DW_TAG_pointer_type, baseType: !92, size: 64)
!1432 = !DILocation(line: 0, scope: !1426, inlinedAt: !1427)
!1433 = !DILocalVariable(name: "this", arg: 1, scope: !1428, type: !1434, flags: DIFlagArtificial | DIFlagObjectPointer)
!1434 = !DIDerivedType(tag: DW_TAG_pointer_type, baseType: !136, size: 64)
!1435 = !DILocation(line: 0, scope: !1428, inlinedAt: !1429)
!1436 = !DILocalVariable(name: "argc", arg: 1, scope: !1369, file: !1, line: 9, type: !20)
!1437 = !DILocation(line: 9, column: 14, scope: !1369)
!1438 = !DILocalVariable(name: "argv", arg: 2, scope: !1369, file: !1, line: 9, type: !232)
!1439 = !DILocation(line: 9, column: 27, scope: !1369)
!1440 = !DILocalVariable(name: "ref", scope: !1369, file: !1, line: 10, type: !4)
!1441 = !DILocation(line: 10, column: 22, scope: !1369)
!1442 = !DILocation(line: 10, column: 49, scope: !1369)
!1443 = !DILocation(line: 10, column: 28, scope: !1369)
!1444 = !DILocation(line: 11, column: 3, scope: !1369)
!1445 = !DILocation(line: 2521, column: 12, scope: !1428, inlinedAt: !1429)
!1446 = !DILocation(line: 2185, column: 39, scope: !1426, inlinedAt: !1427)
!1447 = !DILocation(line: 2066, column: 52, scope: !1422, inlinedAt: !1425)
!1448 = !DILocation(line: 2521, column: 19, scope: !1428, inlinedAt: !1429)
!1449 = !DILocation(line: 12, column: 15, scope: !1369)
!1450 = !DILocation(line: 12, column: 3, scope: !1369)
!1451 = !DILocation(line: 2549, column: 21, scope: !1380, inlinedAt: !1381)
!1452 = !DILocation(line: 2180, column: 33, scope: !1395, inlinedAt: !1408)
!1453 = !DILocation(line: 2064, column: 66, scope: !1391, inlinedAt: !1407)
!1454 = !DILocation(line: 2549, column: 28, scope: !1380, inlinedAt: !1381)
!1455 = !DILocation(line: 2550, column: 22, scope: !1380, inlinedAt: !1381)
!1456 = !DILocation(line: 2550, column: 5, scope: !1380, inlinedAt: !1381)
!1457 = !DILocation(line: 2180, column: 33, scope: !1395, inlinedAt: !1396)
!1458 = !DILocation(line: 2064, column: 66, scope: !1391, inlinedAt: !1394)
!1459 = !DILocation(line: 2550, column: 20, scope: !1380, inlinedAt: !1381)
!1460 = !DILocation(line: 2551, column: 9, scope: !1379, inlinedAt: !1381)
!1461 = !DILocation(line: 2551, column: 9, scope: !1380, inlinedAt: !1381)
!1462 = !DILocation(line: 2552, column: 7, scope: !1379, inlinedAt: !1381)
!1463 = !DILocation(line: 2190, column: 33, scope: !1377, inlinedAt: !1378)
!1464 = !DILocation(line: 2102, column: 66, scope: !1373, inlinedAt: !1376)
!1465 = !DILocation(line: 2552, column: 23, scope: !1379, inlinedAt: !1381)
!1466 = !DILocation(line: 2239, column: 12, scope: !1400, inlinedAt: !1403)
!1467 = !DILocation(line: 2239, column: 5, scope: !1400, inlinedAt: !1403)
!1468 = !DILocation(line: 13, column: 1, scope: !1369)
!1469 = distinct !DISubprogram(name: "make_unique<a, int>", linkageName: "_ZN4llvm11make_uniqueI1aJiEEENSt3__19enable_ifIXntsr3std8is_arrayIT_EE5valueENS2_10unique_ptrIS4_NS2_14default_deleteIS4_EEEEE4typeEDpOT0_", scope: !1471, file: !1470, line: 1069, type: !1472, isLocal: false, isDefinition: true, scopeLine: 1069, flags: DIFlagPrototyped, isOptimized: false, unit: !0, templateParams: !1479, retainedNodes: !2)
!1470 = !DIFile(filename: "/usr/local/include/llvm/ADT/STLExtras.h", directory: "/Users/ejiang/Projects/lls/ac/llfiles")
!1471 = !DINamespace(name: "llvm", scope: null)
!1472 = !DISubroutineType(types: !1473)
!1473 = !{!1474, !1478}
!1474 = !DIDerivedType(tag: DW_TAG_typedef, name: "type", scope: !1475, file: !128, line: 424, baseType: !4)
!1475 = distinct !DICompositeType(tag: DW_TAG_structure_type, name: "enable_if<true, std::__1::unique_ptr<a, std::__1::default_delete<a> > >", scope: !6, file: !128, line: 424, size: 8, elements: !2, templateParams: !1476, identifier: "_ZTSNSt3__19enable_ifILb1ENS_10unique_ptrI1aNS_14default_deleteIS2_EEEEEE")
!1476 = !{!133, !1477}
!1477 = !DITemplateTypeParameter(name: "_Tp", type: !4)
!1478 = !DIDerivedType(tag: DW_TAG_rvalue_reference_type, baseType: !20, size: 64)
!1479 = !{!1480, !1481}
!1480 = !DITemplateTypeParameter(name: "T", type: !17)
!1481 = !DITemplateValueParameter(tag: DW_TAG_GNU_template_parameter_pack, name: "Args", value: !1482)
!1482 = !{!1483}
!1483 = !DITemplateTypeParameter(type: !20)
!1484 = !DILocalVariable(name: "__t", arg: 1, scope: !1485, file: !128, line: 2219, type: !1488)
!1485 = distinct !DISubprogram(name: "forward<a *&>", linkageName: "_ZNSt3__17forwardIRP1aEEOT_RNS_16remove_referenceIS4_E4typeE", scope: !6, file: !128, line: 2219, type: !1486, isLocal: false, isDefinition: true, scopeLine: 2220, flags: DIFlagPrototyped, isOptimized: false, unit: !0, templateParams: !1491, retainedNodes: !2)
!1486 = !DISubroutineType(types: !1487)
!1487 = !{!33, !1488}
!1488 = !DIDerivedType(tag: DW_TAG_reference_type, baseType: !1489, size: 64)
!1489 = !DIDerivedType(tag: DW_TAG_typedef, name: "type", scope: !1490, file: !128, line: 1069, baseType: !16)
!1490 = distinct !DICompositeType(tag: DW_TAG_structure_type, name: "remove_reference<a *&>", scope: !6, file: !128, line: 1069, size: 8, elements: !2, templateParams: !1491, identifier: "_ZTSNSt3__116remove_referenceIRP1aEE")
!1491 = !{!1492}
!1492 = !DITemplateTypeParameter(name: "_Tp", type: !33)
!1493 = !DILocation(line: 2219, column: 47, scope: !1485, inlinedAt: !1494)
!1494 = distinct !DILocation(line: 2051, column: 18, scope: !1495, inlinedAt: !1502)
!1495 = distinct !DISubprogram(name: "__compressed_pair_elem<a *&, void>", linkageName: "_ZNSt3__122__compressed_pair_elemIP1aLi0ELb0EEC2IRS2_vEEOT_", scope: !13, file: !5, line: 2050, type: !1496, isLocal: false, isDefinition: true, scopeLine: 2051, flags: DIFlagPrototyped, isOptimized: false, unit: !0, templateParams: !1499, declaration: !1498, retainedNodes: !2)
!1496 = !DISubroutineType(types: !1497)
!1497 = !{null, !28, !33}
!1498 = !DISubprogram(name: "__compressed_pair_elem<a *&, void>", scope: !13, file: !5, line: 2050, type: !1496, isLocal: false, isDefinition: false, scopeLine: 2050, flags: DIFlagExplicit | DIFlagPrototyped, isOptimized: false, templateParams: !1499)
!1499 = !{!1500, !1501}
!1500 = !DITemplateTypeParameter(name: "_Up", type: !33)
!1501 = !DITemplateTypeParameter(type: null)
!1502 = distinct !DILocation(line: 2141, column: 9, scope: !1503, inlinedAt: !1508)
!1503 = distinct !DISubprogram(name: "__compressed_pair<a *&, true>", linkageName: "_ZNSt3__117__compressed_pairIP1aNS_14default_deleteIS1_EEEC2IRS2_Lb1EEEOT_", scope: !10, file: !5, line: 2140, type: !1504, isLocal: false, isDefinition: true, scopeLine: 2141, flags: DIFlagPrototyped, isOptimized: false, unit: !0, templateParams: !1507, declaration: !1506, retainedNodes: !2)
!1504 = !DISubroutineType(types: !1505)
!1505 = !{null, !87, !33}
!1506 = !DISubprogram(name: "__compressed_pair<a *&, true>", scope: !10, file: !5, line: 2140, type: !1504, isLocal: false, isDefinition: false, scopeLine: 2140, flags: DIFlagPublic | DIFlagExplicit | DIFlagPrototyped, isOptimized: false, templateParams: !1507)
!1507 = !{!1492, !133}
!1508 = distinct !DILocation(line: 2141, column: 50, scope: !1509, inlinedAt: !1510)
!1509 = distinct !DISubprogram(name: "__compressed_pair<a *&, true>", linkageName: "_ZNSt3__117__compressed_pairIP1aNS_14default_deleteIS1_EEEC1IRS2_Lb1EEEOT_", scope: !10, file: !5, line: 2140, type: !1504, isLocal: false, isDefinition: true, scopeLine: 2141, flags: DIFlagPrototyped, isOptimized: false, unit: !0, templateParams: !1507, declaration: !1506, retainedNodes: !2)
!1510 = distinct !DILocation(line: 2371, column: 47, scope: !1511, inlinedAt: !1515)
!1511 = distinct !DISubprogram(name: "unique_ptr<true, void>", linkageName: "_ZNSt3__110unique_ptrI1aNS_14default_deleteIS1_EEEC2ILb1EvEEPS1_", scope: !4, file: !5, line: 2371, type: !168, isLocal: false, isDefinition: true, scopeLine: 2371, flags: DIFlagPrototyped, isOptimized: false, unit: !0, templateParams: !1513, declaration: !1512, retainedNodes: !2)
!1512 = !DISubprogram(name: "unique_ptr<true, void>", scope: !4, file: !5, line: 2371, type: !168, isLocal: false, isDefinition: false, scopeLine: 2371, flags: DIFlagPublic | DIFlagExplicit | DIFlagPrototyped, isOptimized: false, templateParams: !1513)
!1513 = !{!1514, !1501}
!1514 = !DITemplateValueParameter(name: "_Dummy", type: !46, value: i8 1)
!1515 = distinct !DILocation(line: 2371, column: 59, scope: !1516, inlinedAt: !1517)
!1516 = distinct !DISubprogram(name: "unique_ptr<true, void>", linkageName: "_ZNSt3__110unique_ptrI1aNS_14default_deleteIS1_EEEC1ILb1EvEEPS1_", scope: !4, file: !5, line: 2371, type: !168, isLocal: false, isDefinition: true, scopeLine: 2371, flags: DIFlagPrototyped, isOptimized: false, unit: !0, templateParams: !1513, declaration: !1512, retainedNodes: !2)
!1517 = distinct !DILocation(line: 1070, column: 10, scope: !1469)
!1518 = !DILocalVariable(name: "this", arg: 1, scope: !1495, type: !1392, flags: DIFlagArtificial | DIFlagObjectPointer)
!1519 = !DILocation(line: 0, scope: !1495, inlinedAt: !1502)
!1520 = !DILocalVariable(name: "__u", arg: 2, scope: !1495, file: !5, line: 2050, type: !33)
!1521 = !DILocation(line: 2050, column: 32, scope: !1495, inlinedAt: !1502)
!1522 = !DILocation(line: 2219, column: 47, scope: !1485, inlinedAt: !1523)
!1523 = distinct !DILocation(line: 2141, column: 16, scope: !1503, inlinedAt: !1508)
!1524 = !DILocalVariable(name: "this", arg: 1, scope: !1503, type: !1388, flags: DIFlagArtificial | DIFlagObjectPointer)
!1525 = !DILocation(line: 0, scope: !1503, inlinedAt: !1508)
!1526 = !DILocalVariable(name: "__t", arg: 2, scope: !1503, file: !5, line: 2140, type: !33)
!1527 = !DILocation(line: 2140, column: 27, scope: !1503, inlinedAt: !1508)
!1528 = !DILocalVariable(name: "this", arg: 1, scope: !1509, type: !1388, flags: DIFlagArtificial | DIFlagObjectPointer)
!1529 = !DILocation(line: 0, scope: !1509, inlinedAt: !1510)
!1530 = !DILocalVariable(name: "__t", arg: 2, scope: !1509, file: !5, line: 2140, type: !33)
!1531 = !DILocation(line: 2140, column: 27, scope: !1509, inlinedAt: !1510)
!1532 = !DILocalVariable(name: "this", arg: 1, scope: !1511, type: !1411, flags: DIFlagArtificial | DIFlagObjectPointer)
!1533 = !DILocation(line: 0, scope: !1511, inlinedAt: !1515)
!1534 = !DILocalVariable(name: "__p", arg: 2, scope: !1511, file: !5, line: 2371, type: !140)
!1535 = !DILocation(line: 2371, column: 31, scope: !1511, inlinedAt: !1515)
!1536 = !DILocalVariable(name: "this", arg: 1, scope: !1516, type: !1411, flags: DIFlagArtificial | DIFlagObjectPointer)
!1537 = !DILocation(line: 0, scope: !1516, inlinedAt: !1517)
!1538 = !DILocalVariable(name: "__p", arg: 2, scope: !1516, file: !5, line: 2371, type: !140)
!1539 = !DILocation(line: 2371, column: 31, scope: !1516, inlinedAt: !1517)
!1540 = !DILocalVariable(name: "__t", arg: 1, scope: !1541, file: !128, line: 2219, type: !1544)
!1541 = distinct !DISubprogram(name: "forward<int>", linkageName: "_ZNSt3__17forwardIiEEOT_RNS_16remove_referenceIS1_E4typeE", scope: !6, file: !128, line: 2219, type: !1542, isLocal: false, isDefinition: true, scopeLine: 2220, flags: DIFlagPrototyped, isOptimized: false, unit: !0, templateParams: !1547, retainedNodes: !2)
!1542 = !DISubroutineType(types: !1543)
!1543 = !{!1478, !1544}
!1544 = !DIDerivedType(tag: DW_TAG_reference_type, baseType: !1545, size: 64)
!1545 = !DIDerivedType(tag: DW_TAG_typedef, name: "type", scope: !1546, file: !128, line: 1068, baseType: !20)
!1546 = distinct !DICompositeType(tag: DW_TAG_structure_type, name: "remove_reference<int>", scope: !6, file: !128, line: 1068, size: 8, elements: !2, templateParams: !1547, identifier: "_ZTSNSt3__116remove_referenceIiEE")
!1547 = !{!1548}
!1548 = !DITemplateTypeParameter(name: "_Tp", type: !20)
!1549 = !DILocation(line: 2219, column: 47, scope: !1541, inlinedAt: !1550)
!1550 = distinct !DILocation(line: 1070, column: 35, scope: !1469)
!1551 = !DILocalVariable(name: "args", arg: 1, scope: !1469, file: !1470, line: 1069, type: !1478)
!1552 = !DILocation(line: 1069, column: 24, scope: !1469)
!1553 = !DILocation(line: 1070, column: 29, scope: !1469)
!1554 = !DILocation(line: 1070, column: 54, scope: !1469)
!1555 = !DILocation(line: 2221, column: 31, scope: !1541, inlinedAt: !1550)
!1556 = !DILocation(line: 1070, column: 35, scope: !1469)
!1557 = !DILocation(line: 1070, column: 33, scope: !1469)
!1558 = !DILocation(line: 2371, column: 59, scope: !1516, inlinedAt: !1517)
!1559 = !DILocation(line: 2371, column: 47, scope: !1511, inlinedAt: !1515)
!1560 = !DILocation(line: 2141, column: 50, scope: !1509, inlinedAt: !1510)
!1561 = !DILocation(line: 2141, column: 50, scope: !1503, inlinedAt: !1508)
!1562 = !DILocation(line: 2141, column: 34, scope: !1503, inlinedAt: !1508)
!1563 = !DILocation(line: 2221, column: 31, scope: !1485, inlinedAt: !1523)
!1564 = !DILocation(line: 2051, column: 9, scope: !1495, inlinedAt: !1502)
!1565 = !DILocation(line: 2051, column: 38, scope: !1495, inlinedAt: !1502)
!1566 = !DILocation(line: 2221, column: 31, scope: !1485, inlinedAt: !1494)
!1567 = !DILocation(line: 2051, column: 18, scope: !1495, inlinedAt: !1502)
!1568 = !DILocation(line: 1070, column: 3, scope: !1469)
!1569 = distinct !DISubprogram(name: "a", linkageName: "_ZN1aC1Ei", scope: !17, file: !1, line: 5, type: !22, isLocal: false, isDefinition: true, scopeLine: 5, flags: DIFlagPrototyped, isOptimized: false, unit: !0, declaration: !21, retainedNodes: !2)
!1570 = !DILocalVariable(name: "this", arg: 1, scope: !1569, type: !16, flags: DIFlagArtificial | DIFlagObjectPointer)
!1571 = !DILocation(line: 0, scope: !1569)
!1572 = !DILocalVariable(name: "v", arg: 2, scope: !1569, file: !1, line: 5, type: !20)
!1573 = !DILocation(line: 5, column: 9, scope: !1569)
!1574 = !DILocation(line: 5, column: 12, scope: !1569)
!1575 = !DILocation(line: 5, column: 21, scope: !1569)
!1576 = distinct !DISubprogram(name: "a", linkageName: "_ZN1aC2Ei", scope: !17, file: !1, line: 5, type: !22, isLocal: false, isDefinition: true, scopeLine: 5, flags: DIFlagPrototyped, isOptimized: false, unit: !0, declaration: !21, retainedNodes: !2)
!1577 = !DILocalVariable(name: "this", arg: 1, scope: !1576, type: !16, flags: DIFlagArtificial | DIFlagObjectPointer)
!1578 = !DILocation(line: 0, scope: !1576)
!1579 = !DILocalVariable(name: "v", arg: 2, scope: !1576, file: !1, line: 5, type: !20)
!1580 = !DILocation(line: 5, column: 9, scope: !1576)
!1581 = !DILocation(line: 5, column: 18, scope: !1582)
!1582 = distinct !DILexicalBlock(scope: !1576, file: !1, line: 5, column: 12)
!1583 = !DILocation(line: 5, column: 14, scope: !1582)
!1584 = !DILocation(line: 5, column: 16, scope: !1582)
!1585 = !DILocation(line: 5, column: 21, scope: !1576)
