; ModuleID = '/Users/ejiang/Projects/lls/ac/script111.js'
source_filename = "/Users/ejiang/Projects/lls/ac/script111.js"

%"cls.acjs::JsVariant" = type { i32 (...)**, i32, %union.anon.6 }
%union.anon.6 = type { %"cls.acjs::JsVariantFunc", [24 x i8] }
%"cls.acjs::JsVariantFunc" = type { void (%"cls.acjs::JsVariant"*, %"cls.acjs::JsVariant"*, %"cls.acjs::JsVariant"**, i64)*, i32* }
%"str.acjs::JsVariantIterator" = type { %"cls.acjs::RefCountedPtr", %"cls.acjs::RBTreeNode"*, i32, i32 }
%"cls.acjs::RefCountedPtr" = type { %"cls.acjs::RefCounted"* }
%"cls.acjs::RefCounted" = type { %"cls.acjs::JsVariantArray", %"str.acjs::RefCounter" }
%"cls.acjs::JsVariantArray" = type { i32 (...)**, %"cls.acjs::RBTreeNode"* }
%"str.acjs::RefCounter" = type { %"struct.std::__1::__atomic" }
%"struct.std::__1::__atomic" = type { %"struct.std::__1::__atomic_base.9" }
%"struct.std::__1::__atomic_base.9" = type { %"struct.std::__1::__atomic_base" }
%"struct.std::__1::__atomic_base" = type { i64 }
%"cls.acjs::RBTreeNode" = type { i32 (...)**, i32, i32, i32, i32, %"cls.acjs::RBTreeNode"*, %"cls.acjs::RBTreeNode"*, %"cls.acjs::RBTreeNode"*, %"struct.std::__1::__vector" }
%"struct.std::__1::__vector" = type { %"struct.std::__1::__vector_base" }
%"struct.std::__1::__vector_base" = type { %"cls.acjs::JsVariant"**, %"cls.acjs::JsVariant"**, %"class.std::__1::__compressed_pair.8" }
%"class.std::__1::__compressed_pair.8" = type { %"struct.std::__1::__compressed_pair_elem.7" }
%"struct.std::__1::__compressed_pair_elem.7" = type { %"cls.acjs::JsVariant"** }
%"cls.acjs::JsVariantNumber" = type <{ i64, double, i8, [16 x i8] }>

@_ZTVN10__cxxabiv117__class_type_infoE = external global i8*
@_ZTSN14altered_carbon2js9JsVariantE = linkonce_odr constant [32 x i8] c"N14altered_carbon2js9JsVariantE\00"
@_ZTIN14altered_carbon2js9JsVariantE = linkonce_odr constant { i8*, i8* } { i8* bitcast (i8** getelementptr inbounds (i8*, i8** @_ZTVN10__cxxabiv117__class_type_infoE, i64 2) to i8*), i8* getelementptr inbounds ([32 x i8], [32 x i8]* @_ZTSN14altered_carbon2js9JsVariantE, i32 0, i32 0) }
@_ZTVN14altered_carbon2js9JsVariantE = linkonce_odr unnamed_addr constant { [4 x i8*] } { [4 x i8*] [i8* null, i8* bitcast ({ i8*, i8* }* @_ZTIN14altered_carbon2js9JsVariantE to i8*), i8* bitcast (void (%"cls.acjs::JsVariant"*)* @_ZN14altered_carbon2js9JsVariantD1Ev to i8*), i8* bitcast (void (%"cls.acjs::JsVariant"*)* @_ZN14altered_carbon2js9JsVariantD0Ev to i8*)] }, align 8
@_ZTVN14altered_carbon2js9JsVariantE_GEP = internal constant i8** getelementptr inbounds ({ [4 x i8*] }, { [4 x i8*] }* @_ZTVN14altered_carbon2js9JsVariantE, i32 0, inrange i32 0, i32 2)
@_ZN14altered_carbon2js11JsConstants9UndefinedE = external constant %"cls.acjs::JsVariant"
@_ZN14altered_carbon2js11JsConstants4NullE = external constant %"cls.acjs::JsVariant"
@_ZN14altered_carbon2js11JsConstants3NaNE = external constant %"cls.acjs::JsVariant"
@_ZN14altered_carbon2js11JsConstants8InfinityE = external constant %"cls.acjs::JsVariant"
@_ZN14altered_carbon2js11JsConstants9TypeErrorE = external constant %"cls.acjs::JsVariant"
@_ZN14altered_carbon2js11JsConstants16NullPointerErrorE = external constant %"cls.acjs::JsVariant"
@_ZN14altered_carbon2js11JsConstants3EndE = external constant %"str.acjs::JsVariantIterator"
@_ZN14altered_carbon2js11JsConstants4REndE = external constant %"str.acjs::JsVariantIterator"
@.wstr = private unnamed_addr constant [3 x i32] [i32 97, i32 49, i32 0], align 4
@.wstr.1 = private unnamed_addr constant [3 x i32] [i32 97, i32 50, i32 0], align 4

declare void @_ZN14altered_carbon2js9JsVariantD1Ev(%"cls.acjs::JsVariant"*)

declare void @_ZN14altered_carbon2js9JsVariantD0Ev(%"cls.acjs::JsVariant"*)

declare dereferenceable(56) %"cls.acjs::JsVariant"* @_ZNK14altered_carbon2js9JsVariant3bwaEPS1_RKS1_(%"cls.acjs::JsVariant"*, %"cls.acjs::JsVariant"*, %"cls.acjs::JsVariant"* dereferenceable(56))

declare dereferenceable(56) %"cls.acjs::JsVariant"* @_ZNK14altered_carbon2js9JsVariant3bwxEPS1_RKS1_(%"cls.acjs::JsVariant"*, %"cls.acjs::JsVariant"*, %"cls.acjs::JsVariant"* dereferenceable(56))

declare zeroext i1 @_ZNK14altered_carbon2js9JsVarianteqERKS1_(%"cls.acjs::JsVariant"*, %"cls.acjs::JsVariant"* dereferenceable(56))

declare zeroext i1 @_ZNK14altered_carbon2js9JsVariantneERKS1_(%"cls.acjs::JsVariant"*, %"cls.acjs::JsVariant"* dereferenceable(56))

declare zeroext i1 @_ZNK14altered_carbon2js9JsVariant4eqvtERKS1_(%"cls.acjs::JsVariant"*, %"cls.acjs::JsVariant"* dereferenceable(56))

declare zeroext i1 @_ZNK14altered_carbon2js9JsVariant4nevtERKS1_(%"cls.acjs::JsVariant"*, %"cls.acjs::JsVariant"* dereferenceable(56))

declare zeroext i1 @_ZNK14altered_carbon2js9JsVariantltERKS1_(%"cls.acjs::JsVariant"*, %"cls.acjs::JsVariant"* dereferenceable(56))

declare zeroext i1 @_ZNK14altered_carbon2js9JsVariantgtERKS1_(%"cls.acjs::JsVariant"*, %"cls.acjs::JsVariant"* dereferenceable(56))

declare zeroext i1 @_ZNK14altered_carbon2js9JsVariantleERKS1_(%"cls.acjs::JsVariant"*, %"cls.acjs::JsVariant"* dereferenceable(56))

declare zeroext i1 @_ZNK14altered_carbon2js9JsVariantgeERKS1_(%"cls.acjs::JsVariant"*, %"cls.acjs::JsVariant"* dereferenceable(56))

declare dereferenceable(56) %"cls.acjs::JsVariant"* @_ZNK14altered_carbon2js9JsVariant3ltsEPS1_RKS1_(%"cls.acjs::JsVariant"*, %"cls.acjs::JsVariant"*, %"cls.acjs::JsVariant"* dereferenceable(56))

declare dereferenceable(56) %"cls.acjs::JsVariant"* @_ZNK14altered_carbon2js9JsVariant3rtsEPS1_RKS1_(%"cls.acjs::JsVariant"*, %"cls.acjs::JsVariant"*, %"cls.acjs::JsVariant"* dereferenceable(56))

declare dereferenceable(56) %"cls.acjs::JsVariant"* @_ZNK14altered_carbon2js9JsVariant3rszEPS1_RKS1_(%"cls.acjs::JsVariant"*, %"cls.acjs::JsVariant"*, %"cls.acjs::JsVariant"* dereferenceable(56))

declare dereferenceable(56) %"cls.acjs::JsVariant"* @_ZNK14altered_carbon2js9JsVariant3addEPS1_RKS1_(%"cls.acjs::JsVariant"*, %"cls.acjs::JsVariant"*, %"cls.acjs::JsVariant"* dereferenceable(56))

declare void @_ZN14altered_carbon2js9JsVariantpsEv(%"cls.acjs::JsVariant"* noalias sret, %"cls.acjs::JsVariant"*)

declare dereferenceable(56) %"cls.acjs::JsVariant"* @_ZNK14altered_carbon2js9JsVariant3subEPS1_RKS1_(%"cls.acjs::JsVariant"*, %"cls.acjs::JsVariant"*, %"cls.acjs::JsVariant"* dereferenceable(56))

declare void @_ZN14altered_carbon2js9JsVariantngEv(%"cls.acjs::JsVariant"* noalias sret, %"cls.acjs::JsVariant"*)

declare dereferenceable(56) %"cls.acjs::JsVariant"* @_ZNK14altered_carbon2js9JsVariant3mulEPS1_RKS1_(%"cls.acjs::JsVariant"*, %"cls.acjs::JsVariant"*, %"cls.acjs::JsVariant"* dereferenceable(56))

declare dereferenceable(56) %"cls.acjs::JsVariant"* @_ZNK14altered_carbon2js9JsVariant3divEPS1_RKS1_(%"cls.acjs::JsVariant"*, %"cls.acjs::JsVariant"*, %"cls.acjs::JsVariant"* dereferenceable(56))

declare dereferenceable(56) %"cls.acjs::JsVariant"* @_ZNK14altered_carbon2js9JsVariant3modEPS1_RKS1_(%"cls.acjs::JsVariant"*, %"cls.acjs::JsVariant"*, %"cls.acjs::JsVariant"* dereferenceable(56))

declare void @_ZN14altered_carbon2js9JsVariantcoEv(%"cls.acjs::JsVariant"* noalias sret, %"cls.acjs::JsVariant"*)

declare void @_ZN14altered_carbon2js9JsVariantppEi(%"cls.acjs::JsVariant"* noalias sret, %"cls.acjs::JsVariant"*, i32)

declare dereferenceable(56) %"cls.acjs::JsVariant"* @_ZN14altered_carbon2js9JsVariantppEv(%"cls.acjs::JsVariant"*)

declare void @_ZN14altered_carbon2js9JsVariantmmEi(%"cls.acjs::JsVariant"* noalias sret, %"cls.acjs::JsVariant"*, i32)

declare dereferenceable(56) %"cls.acjs::JsVariant"* @_ZN14altered_carbon2js9JsVariantmmEv(%"cls.acjs::JsVariant"*)

declare dereferenceable(56) %"cls.acjs::JsVariant"* @_ZN14altered_carbon2js9JsVariantaSERKS1_(%"cls.acjs::JsVariant"*, %"cls.acjs::JsVariant"* dereferenceable(56))

declare dereferenceable(56) %"cls.acjs::JsVariant"* @_ZN14altered_carbon2js9JsVariantpLERKS1_(%"cls.acjs::JsVariant"*, %"cls.acjs::JsVariant"* dereferenceable(56))

declare dereferenceable(56) %"cls.acjs::JsVariant"* @_ZN14altered_carbon2js9JsVariantmIERKS1_(%"cls.acjs::JsVariant"*, %"cls.acjs::JsVariant"* dereferenceable(56))

declare dereferenceable(56) %"cls.acjs::JsVariant"* @_ZN14altered_carbon2js9JsVariantmLERKS1_(%"cls.acjs::JsVariant"*, %"cls.acjs::JsVariant"* dereferenceable(56))

declare dereferenceable(56) %"cls.acjs::JsVariant"* @_ZN14altered_carbon2js9JsVariantdVERKS1_(%"cls.acjs::JsVariant"*, %"cls.acjs::JsVariant"* dereferenceable(56))

declare dereferenceable(56) %"cls.acjs::JsVariant"* @_ZN14altered_carbon2js9JsVariantrMERKS1_(%"cls.acjs::JsVariant"*, %"cls.acjs::JsVariant"* dereferenceable(56))

declare dereferenceable(56) %"cls.acjs::JsVariant"* @_ZN14altered_carbon2js9JsVariantlSERKS1_(%"cls.acjs::JsVariant"*, %"cls.acjs::JsVariant"* dereferenceable(56))

declare dereferenceable(56) %"cls.acjs::JsVariant"* @_ZN14altered_carbon2js9JsVariantrSERKS1_(%"cls.acjs::JsVariant"*, %"cls.acjs::JsVariant"* dereferenceable(56))

declare dereferenceable(56) %"cls.acjs::JsVariant"* @_ZN14altered_carbon2js9JsVariant4arszERKS1_(%"cls.acjs::JsVariant"*, %"cls.acjs::JsVariant"* dereferenceable(56))

declare dereferenceable(56) %"cls.acjs::JsVariant"* @_ZN14altered_carbon2js9JsVariantaNERKS1_(%"cls.acjs::JsVariant"*, %"cls.acjs::JsVariant"* dereferenceable(56))

declare dereferenceable(56) %"cls.acjs::JsVariant"* @_ZN14altered_carbon2js9JsVariantoRERKS1_(%"cls.acjs::JsVariant"*, %"cls.acjs::JsVariant"* dereferenceable(56))

declare dereferenceable(56) %"cls.acjs::JsVariant"* @_ZN14altered_carbon2js9JsVarianteOERKS1_(%"cls.acjs::JsVariant"*, %"cls.acjs::JsVariant"* dereferenceable(56))

define void @_Z7_scriptPN14altered_carbon2js9JsVariantE(%"cls.acjs::JsVariant"*) {
init.bb:
  %vptr = alloca %"cls.acjs::JsVariant", align 8
  %1 = bitcast %"cls.acjs::JsVariant"* %vptr to i32 (...)***
  store i32 (...)** bitcast (i8*** @_ZTVN14altered_carbon2js9JsVariantE_GEP to i32 (...)**), i32 (...)*** %1, align 8
  %2 = getelementptr inbounds %"cls.acjs::JsVariant", %"cls.acjs::JsVariant"* %vptr, i32 0, i32 1
  store i32 15, i32* %2, align 8
  %vptr1 = alloca %"cls.acjs::JsVariant", align 8
  %3 = bitcast %"cls.acjs::JsVariant"* %vptr1 to i32 (...)***
  store i32 (...)** bitcast (i8*** @_ZTVN14altered_carbon2js9JsVariantE_GEP to i32 (...)**), i32 (...)*** %3, align 8
  %4 = getelementptr inbounds %"cls.acjs::JsVariant", %"cls.acjs::JsVariant"* %vptr1, i32 0, i32 1
  store i32 15, i32* %4, align 8
  %vptr2 = alloca %"cls.acjs::JsVariant", align 8
  %5 = bitcast %"cls.acjs::JsVariant"* %vptr2 to i32 (...)***
  store i32 (...)** bitcast (i8*** @_ZTVN14altered_carbon2js9JsVariantE_GEP to i32 (...)**), i32 (...)*** %5, align 8
  %6 = getelementptr inbounds %"cls.acjs::JsVariant", %"cls.acjs::JsVariant"* %vptr2, i32 0, i32 1
  store i32 1, i32* %6, align 8
  %vptr3 = alloca %"cls.acjs::JsVariant", align 8
  %7 = bitcast %"cls.acjs::JsVariant"* %vptr3 to i32 (...)***
  store i32 (...)** bitcast (i8*** @_ZTVN14altered_carbon2js9JsVariantE_GEP to i32 (...)**), i32 (...)*** %7, align 8
  %8 = getelementptr inbounds %"cls.acjs::JsVariant", %"cls.acjs::JsVariant"* %vptr3, i32 0, i32 1
  store i32 1, i32* %8, align 8
  %vptr4 = alloca %"cls.acjs::JsVariant", align 8
  %9 = bitcast %"cls.acjs::JsVariant"* %vptr4 to i32 (...)***
  store i32 (...)** bitcast (i8*** @_ZTVN14altered_carbon2js9JsVariantE_GEP to i32 (...)**), i32 (...)*** %9, align 8
  %10 = getelementptr inbounds %"cls.acjs::JsVariant", %"cls.acjs::JsVariant"* %vptr4, i32 0, i32 1
  store i32 1, i32* %10, align 8
  %ptr = alloca [3 x %"cls.acjs::JsVariant"*], align 16
  %vptr5 = alloca %"cls.acjs::JsVariant", align 8
  %11 = bitcast %"cls.acjs::JsVariant"* %vptr5 to i32 (...)***
  store i32 (...)** bitcast (i8*** @_ZTVN14altered_carbon2js9JsVariantE_GEP to i32 (...)**), i32 (...)*** %11, align 8
  %12 = getelementptr inbounds %"cls.acjs::JsVariant", %"cls.acjs::JsVariant"* %vptr5, i32 0, i32 1
  store i32 1, i32* %12, align 8
  %vptr6 = alloca %"cls.acjs::JsVariant", align 8
  %13 = bitcast %"cls.acjs::JsVariant"* %vptr6 to i32 (...)***
  store i32 (...)** bitcast (i8*** @_ZTVN14altered_carbon2js9JsVariantE_GEP to i32 (...)**), i32 (...)*** %13, align 8
  %14 = getelementptr inbounds %"cls.acjs::JsVariant", %"cls.acjs::JsVariant"* %vptr6, i32 0, i32 1
  store i32 1, i32* %14, align 8
  %vptr7 = alloca %"cls.acjs::JsVariant", align 8
  %15 = bitcast %"cls.acjs::JsVariant"* %vptr7 to i32 (...)***
  store i32 (...)** bitcast (i8*** @_ZTVN14altered_carbon2js9JsVariantE_GEP to i32 (...)**), i32 (...)*** %15, align 8
  %16 = getelementptr inbounds %"cls.acjs::JsVariant", %"cls.acjs::JsVariant"* %vptr7, i32 0, i32 1
  store i32 1, i32* %16, align 8
  %vptr8 = alloca %"cls.acjs::JsVariant", align 8
  %17 = bitcast %"cls.acjs::JsVariant"* %vptr8 to i32 (...)***
  store i32 (...)** bitcast (i8*** @_ZTVN14altered_carbon2js9JsVariantE_GEP to i32 (...)**), i32 (...)*** %17, align 8
  %18 = getelementptr inbounds %"cls.acjs::JsVariant", %"cls.acjs::JsVariant"* %vptr8, i32 0, i32 1
  store i32 1, i32* %18, align 8
  %vptr9 = alloca %"cls.acjs::JsVariant", align 8
  %19 = bitcast %"cls.acjs::JsVariant"* %vptr9 to i32 (...)***
  store i32 (...)** bitcast (i8*** @_ZTVN14altered_carbon2js9JsVariantE_GEP to i32 (...)**), i32 (...)*** %19, align 8
  %20 = getelementptr inbounds %"cls.acjs::JsVariant", %"cls.acjs::JsVariant"* %vptr9, i32 0, i32 1
  store i32 1, i32* %20, align 8
  %ptr10 = alloca [3 x %"cls.acjs::JsVariant"*], align 16
  %vptr11 = alloca %"cls.acjs::JsVariant", align 8
  %21 = bitcast %"cls.acjs::JsVariant"* %vptr11 to i32 (...)***
  store i32 (...)** bitcast (i8*** @_ZTVN14altered_carbon2js9JsVariantE_GEP to i32 (...)**), i32 (...)*** %21, align 8
  %22 = getelementptr inbounds %"cls.acjs::JsVariant", %"cls.acjs::JsVariant"* %vptr11, i32 0, i32 1
  store i32 1, i32* %22, align 8
  %vptr12 = alloca %"cls.acjs::JsVariant", align 8
  %23 = bitcast %"cls.acjs::JsVariant"* %vptr12 to i32 (...)***
  store i32 (...)** bitcast (i8*** @_ZTVN14altered_carbon2js9JsVariantE_GEP to i32 (...)**), i32 (...)*** %23, align 8
  %24 = getelementptr inbounds %"cls.acjs::JsVariant", %"cls.acjs::JsVariant"* %vptr12, i32 0, i32 1
  store i32 1, i32* %24, align 8
  %vptr13 = alloca %"cls.acjs::JsVariant", align 8
  %25 = bitcast %"cls.acjs::JsVariant"* %vptr13 to i32 (...)***
  store i32 (...)** bitcast (i8*** @_ZTVN14altered_carbon2js9JsVariantE_GEP to i32 (...)**), i32 (...)*** %25, align 8
  %26 = getelementptr inbounds %"cls.acjs::JsVariant", %"cls.acjs::JsVariant"* %vptr13, i32 0, i32 1
  store i32 1, i32* %26, align 8
  br label %exec.bb

exec.bb:                                          ; preds = %init.bb
  %27 = getelementptr inbounds %"cls.acjs::JsVariant", %"cls.acjs::JsVariant"* %vptr, i32 0, i32 2
  %28 = bitcast %union.anon.6* %27 to %"cls.acjs::JsVariantFunc"*
  %29 = getelementptr inbounds %"cls.acjs::JsVariantFunc", %"cls.acjs::JsVariantFunc"* %28, i32 0, i32 0
  store void (%"cls.acjs::JsVariant"*, %"cls.acjs::JsVariant"*, %"cls.acjs::JsVariant"**, i64)* @_ZN3_js2a1EPN14altered_carbon2js9JsVariantEN4llvm8ArrayRefIS3_EE, void (%"cls.acjs::JsVariant"*, %"cls.acjs::JsVariant"*, %"cls.acjs::JsVariant"**, i64)** %29, align 8
  %30 = getelementptr inbounds %"cls.acjs::JsVariantFunc", %"cls.acjs::JsVariantFunc"* %28, i32 0, i32 1
  store i32* getelementptr inbounds ([3 x i32], [3 x i32]* @.wstr, i32 0, i32 0), i32** %30, align 8
  %31 = getelementptr inbounds %"cls.acjs::JsVariant", %"cls.acjs::JsVariant"* %vptr1, i32 0, i32 2
  %32 = bitcast %union.anon.6* %31 to %"cls.acjs::JsVariantFunc"*
  %33 = getelementptr inbounds %"cls.acjs::JsVariantFunc", %"cls.acjs::JsVariantFunc"* %32, i32 0, i32 0
  store void (%"cls.acjs::JsVariant"*, %"cls.acjs::JsVariant"*, %"cls.acjs::JsVariant"**, i64)* @_ZN3_js2a2EPN14altered_carbon2js9JsVariantEN4llvm8ArrayRefIS3_EE, void (%"cls.acjs::JsVariant"*, %"cls.acjs::JsVariant"*, %"cls.acjs::JsVariant"**, i64)** %33, align 8
  %34 = getelementptr inbounds %"cls.acjs::JsVariantFunc", %"cls.acjs::JsVariantFunc"* %32, i32 0, i32 1
  store i32* getelementptr inbounds ([3 x i32], [3 x i32]* @.wstr.1, i32 0, i32 0), i32** %34, align 8
  %35 = call %"cls.acjs::JsVariant"* @_ZN14altered_carbon2js9JsVariantaSEx(%"cls.acjs::JsVariant"* %vptr2, i64 1)
  %36 = call %"cls.acjs::JsVariant"* @_ZN14altered_carbon2js9JsVariantaSEx(%"cls.acjs::JsVariant"* %vptr3, i64 2)
  %37 = call %"cls.acjs::JsVariant"* @_ZN14altered_carbon2js9JsVariantaSEx(%"cls.acjs::JsVariant"* %vptr4, i64 3)
  %38 = getelementptr inbounds [3 x %"cls.acjs::JsVariant"*], [3 x %"cls.acjs::JsVariant"*]* %ptr, i32 0, i32 0
  %39 = getelementptr inbounds %"cls.acjs::JsVariant"*, %"cls.acjs::JsVariant"** %38, i64 0
  store %"cls.acjs::JsVariant"* %vptr2, %"cls.acjs::JsVariant"** %39, align 8
  %40 = getelementptr inbounds %"cls.acjs::JsVariant"*, %"cls.acjs::JsVariant"** %38, i64 1
  store %"cls.acjs::JsVariant"* %vptr3, %"cls.acjs::JsVariant"** %40, align 8
  %41 = getelementptr inbounds %"cls.acjs::JsVariant"*, %"cls.acjs::JsVariant"** %38, i64 2
  store %"cls.acjs::JsVariant"* %vptr4, %"cls.acjs::JsVariant"** %41, align 8
  call void @_ZN3_js2a1EPN14altered_carbon2js9JsVariantEN4llvm8ArrayRefIS3_EE(%"cls.acjs::JsVariant"* %vptr5, %"cls.acjs::JsVariant"* null, %"cls.acjs::JsVariant"** %38, i64 3)
  %42 = call %"cls.acjs::JsVariant"* @_ZN14altered_carbon2js9JsVariantaSEx(%"cls.acjs::JsVariant"* %vptr6, i64 2)
  %43 = call %"cls.acjs::JsVariant"* @_ZN14altered_carbon2js9JsVariantaSEx(%"cls.acjs::JsVariant"* %vptr7, i64 2)
  call void @_ZN14altered_carbon2js9JsVariantngEv(%"cls.acjs::JsVariant"* %vptr8, %"cls.acjs::JsVariant"* %vptr7)
  %44 = call %"cls.acjs::JsVariant"* @_ZN14altered_carbon2js9JsVariantaSEx(%"cls.acjs::JsVariant"* %vptr9, i64 3)
  %45 = getelementptr inbounds [3 x %"cls.acjs::JsVariant"*], [3 x %"cls.acjs::JsVariant"*]* %ptr10, i32 0, i32 0
  %46 = getelementptr inbounds %"cls.acjs::JsVariant"*, %"cls.acjs::JsVariant"** %45, i64 0
  store %"cls.acjs::JsVariant"* %vptr6, %"cls.acjs::JsVariant"** %46, align 8
  %47 = getelementptr inbounds %"cls.acjs::JsVariant"*, %"cls.acjs::JsVariant"** %45, i64 1
  store %"cls.acjs::JsVariant"* %vptr8, %"cls.acjs::JsVariant"** %47, align 8
  %48 = getelementptr inbounds %"cls.acjs::JsVariant"*, %"cls.acjs::JsVariant"** %45, i64 2
  store %"cls.acjs::JsVariant"* %vptr9, %"cls.acjs::JsVariant"** %48, align 8
  call void @_ZN3_js2a2EPN14altered_carbon2js9JsVariantEN4llvm8ArrayRefIS3_EE(%"cls.acjs::JsVariant"* %vptr11, %"cls.acjs::JsVariant"* null, %"cls.acjs::JsVariant"** %45, i64 3)
  %49 = call %"cls.acjs::JsVariant"* @_ZNK14altered_carbon2js9JsVariant3subEPS1_RKS1_(%"cls.acjs::JsVariant"* %vptr5, %"cls.acjs::JsVariant"* %vptr12, %"cls.acjs::JsVariant"* %vptr11)
  %50 = getelementptr inbounds %"cls.acjs::JsVariant", %"cls.acjs::JsVariant"* %vptr13, i32 0, i32 1
  %51 = load i32, i32* %50, align 8
  %52 = icmp sle i32 %51, 6
  %53 = getelementptr inbounds %"cls.acjs::JsVariant", %"cls.acjs::JsVariant"* %49, i32 0, i32 1
  %54 = load i32, i32* %53, align 8
  %55 = icmp sle i32 %54, 6
  %56 = and i1 %52, %55
  br i1 %56, label %copy.bb, label %fallback.bb

exit.bb:                                          ; preds = %copy.bbe
  %57 = call %"cls.acjs::JsVariant"* @_ZN14altered_carbon2js9JsVariantaSERKS1_(%"cls.acjs::JsVariant"* %0, %"cls.acjs::JsVariant"* dereferenceable(56) %vptr13)
  call void @_ZN14altered_carbon2js9JsVariantD1Ev(%"cls.acjs::JsVariant"* %vptr13)
  call void @_ZN14altered_carbon2js9JsVariantD1Ev(%"cls.acjs::JsVariant"* %vptr12)
  call void @_ZN14altered_carbon2js9JsVariantD1Ev(%"cls.acjs::JsVariant"* %vptr11)
  call void @_ZN14altered_carbon2js9JsVariantD1Ev(%"cls.acjs::JsVariant"* %vptr9)
  call void @_ZN14altered_carbon2js9JsVariantD1Ev(%"cls.acjs::JsVariant"* %vptr8)
  call void @_ZN14altered_carbon2js9JsVariantD1Ev(%"cls.acjs::JsVariant"* %vptr7)
  call void @_ZN14altered_carbon2js9JsVariantD1Ev(%"cls.acjs::JsVariant"* %vptr6)
  call void @_ZN14altered_carbon2js9JsVariantD1Ev(%"cls.acjs::JsVariant"* %vptr5)
  call void @_ZN14altered_carbon2js9JsVariantD1Ev(%"cls.acjs::JsVariant"* %vptr4)
  call void @_ZN14altered_carbon2js9JsVariantD1Ev(%"cls.acjs::JsVariant"* %vptr3)
  call void @_ZN14altered_carbon2js9JsVariantD1Ev(%"cls.acjs::JsVariant"* %vptr2)
  call void @_ZN14altered_carbon2js9JsVariantD1Ev(%"cls.acjs::JsVariant"* %vptr1)
  call void @_ZN14altered_carbon2js9JsVariantD1Ev(%"cls.acjs::JsVariant"* %vptr)
  ret void

copy.bb:                                          ; preds = %exec.bb
  switch i32 %54, label %fallback.bb [
    i32 -2, label %caseerr.bb
    i32 0, label %casenul_unf.bb
    i32 1, label %casenul_unf.bb
    i32 6, label %casebln.bb
    i32 2, label %casenum.bb
  ]

copy.bbe:                                         ; preds = %fallback.bb, %casenum.bb, %casebln.bb, %casenul_unf.bb, %caseerr.bb
  br label %exit.bb

fallback.bb:                                      ; preds = %copy.bb, %exec.bb
  %58 = call %"cls.acjs::JsVariant"* @_ZN14altered_carbon2js9JsVariantaSERKS1_(%"cls.acjs::JsVariant"* %vptr13, %"cls.acjs::JsVariant"* %49)
  br label %copy.bbe

caseerr.bb:                                       ; preds = %copy.bb
  store i32 %54, i32* %50, align 8
  %59 = getelementptr inbounds %"cls.acjs::JsVariant", %"cls.acjs::JsVariant"* %49, i32 0, i32 2
  %60 = bitcast %union.anon.6* %59 to i8**
  %61 = load i8*, i8** %60, align 8
  %62 = getelementptr inbounds %"cls.acjs::JsVariant", %"cls.acjs::JsVariant"* %vptr13, i32 0, i32 2
  %63 = bitcast %union.anon.6* %62 to i8**
  store i8* %61, i8** %63, align 8
  br label %copy.bbe

casenul_unf.bb:                                   ; preds = %copy.bb, %copy.bb
  store i32 %54, i32* %50, align 8
  br label %copy.bbe

casebln.bb:                                       ; preds = %copy.bb
  store i32 %54, i32* %50, align 8
  %64 = getelementptr inbounds %"cls.acjs::JsVariant", %"cls.acjs::JsVariant"* %49, i32 0, i32 2
  %65 = bitcast %union.anon.6* %64 to i8*
  %66 = load i8, i8* %65, align 8
  %67 = getelementptr inbounds %"cls.acjs::JsVariant", %"cls.acjs::JsVariant"* %vptr13, i32 0, i32 2
  %68 = bitcast %union.anon.6* %67 to i8*
  store i8 %66, i8* %68, align 1
  br label %copy.bbe

casenum.bb:                                       ; preds = %copy.bb
  store i32 %54, i32* %50, align 8
  %69 = getelementptr inbounds %"cls.acjs::JsVariant", %"cls.acjs::JsVariant"* %49, i32 0, i32 2
  %70 = bitcast %union.anon.6* %69 to %"cls.acjs::JsVariantNumber"*
  %71 = getelementptr inbounds %"cls.acjs::JsVariantNumber", %"cls.acjs::JsVariantNumber"* %70, i32 0, i32 0
  %72 = load i64, i64* %71, align 8
  %73 = getelementptr inbounds %"cls.acjs::JsVariantNumber", %"cls.acjs::JsVariantNumber"* %70, i32 0, i32 1
  %74 = load double, double* %73, align 8
  %75 = getelementptr inbounds %"cls.acjs::JsVariantNumber", %"cls.acjs::JsVariantNumber"* %70, i32 0, i32 2
  %76 = load i8, i8* %75, align 8
  %77 = getelementptr inbounds %"cls.acjs::JsVariant", %"cls.acjs::JsVariant"* %vptr13, i32 0, i32 2
  %78 = bitcast %union.anon.6* %77 to %"cls.acjs::JsVariantNumber"*
  %79 = getelementptr inbounds %"cls.acjs::JsVariantNumber", %"cls.acjs::JsVariantNumber"* %78, i32 0, i32 0
  store i64 %72, i64* %79, align 8
  %80 = getelementptr inbounds %"cls.acjs::JsVariantNumber", %"cls.acjs::JsVariantNumber"* %78, i32 0, i32 1
  store double %74, double* %80, align 8
  %81 = getelementptr inbounds %"cls.acjs::JsVariantNumber", %"cls.acjs::JsVariantNumber"* %78, i32 0, i32 2
  store i8 %76, i8* %81, align 8
  br label %copy.bbe
}

define void @_ZN3_js2a1EPN14altered_carbon2js9JsVariantEN4llvm8ArrayRefIS3_EE(%"cls.acjs::JsVariant"* noalias sret, %"cls.acjs::JsVariant"*, %"cls.acjs::JsVariant"**, i64) {
init.bb:
  %ptr = alloca %"cls.acjs::JsVariant"*, align 8
  %vptr = alloca %"cls.acjs::JsVariant", align 8
  %4 = bitcast %"cls.acjs::JsVariant"* %vptr to i32 (...)***
  store i32 (...)** bitcast (i8*** @_ZTVN14altered_carbon2js9JsVariantE_GEP to i32 (...)**), i32 (...)*** %4, align 8
  %5 = getelementptr inbounds %"cls.acjs::JsVariant", %"cls.acjs::JsVariant"* %vptr, i32 0, i32 1
  store i32 1, i32* %5, align 8
  %ptr4 = alloca %"cls.acjs::JsVariant"*, align 8
  %vptr5 = alloca %"cls.acjs::JsVariant", align 8
  %6 = bitcast %"cls.acjs::JsVariant"* %vptr5 to i32 (...)***
  store i32 (...)** bitcast (i8*** @_ZTVN14altered_carbon2js9JsVariantE_GEP to i32 (...)**), i32 (...)*** %6, align 8
  %7 = getelementptr inbounds %"cls.acjs::JsVariant", %"cls.acjs::JsVariant"* %vptr5, i32 0, i32 1
  store i32 1, i32* %7, align 8
  %ptr6 = alloca %"cls.acjs::JsVariant"*, align 8
  %vptr7 = alloca %"cls.acjs::JsVariant", align 8
  %8 = bitcast %"cls.acjs::JsVariant"* %vptr7 to i32 (...)***
  store i32 (...)** bitcast (i8*** @_ZTVN14altered_carbon2js9JsVariantE_GEP to i32 (...)**), i32 (...)*** %8, align 8
  %9 = getelementptr inbounds %"cls.acjs::JsVariant", %"cls.acjs::JsVariant"* %vptr7, i32 0, i32 1
  store i32 1, i32* %9, align 8
  %vptr8 = alloca %"cls.acjs::JsVariant", align 8
  %10 = bitcast %"cls.acjs::JsVariant"* %vptr8 to i32 (...)***
  store i32 (...)** bitcast (i8*** @_ZTVN14altered_carbon2js9JsVariantE_GEP to i32 (...)**), i32 (...)*** %10, align 8
  %11 = getelementptr inbounds %"cls.acjs::JsVariant", %"cls.acjs::JsVariant"* %vptr8, i32 0, i32 1
  store i32 1, i32* %11, align 8
  %vptr12 = alloca %"cls.acjs::JsVariant", align 8
  %12 = bitcast %"cls.acjs::JsVariant"* %vptr12 to i32 (...)***
  store i32 (...)** bitcast (i8*** @_ZTVN14altered_carbon2js9JsVariantE_GEP to i32 (...)**), i32 (...)*** %12, align 8
  %13 = getelementptr inbounds %"cls.acjs::JsVariant", %"cls.acjs::JsVariant"* %vptr12, i32 0, i32 1
  store i32 1, i32* %13, align 8
  %vptr13 = alloca %"cls.acjs::JsVariant", align 8
  %14 = bitcast %"cls.acjs::JsVariant"* %vptr13 to i32 (...)***
  store i32 (...)** bitcast (i8*** @_ZTVN14altered_carbon2js9JsVariantE_GEP to i32 (...)**), i32 (...)*** %14, align 8
  %15 = getelementptr inbounds %"cls.acjs::JsVariant", %"cls.acjs::JsVariant"* %vptr13, i32 0, i32 1
  store i32 1, i32* %15, align 8
  %vptr17 = alloca %"cls.acjs::JsVariant", align 8
  %16 = bitcast %"cls.acjs::JsVariant"* %vptr17 to i32 (...)***
  store i32 (...)** bitcast (i8*** @_ZTVN14altered_carbon2js9JsVariantE_GEP to i32 (...)**), i32 (...)*** %16, align 8
  %17 = getelementptr inbounds %"cls.acjs::JsVariant", %"cls.acjs::JsVariant"* %vptr17, i32 0, i32 1
  store i32 1, i32* %17, align 8
  %vptr18 = alloca %"cls.acjs::JsVariant", align 8
  %18 = bitcast %"cls.acjs::JsVariant"* %vptr18 to i32 (...)***
  store i32 (...)** bitcast (i8*** @_ZTVN14altered_carbon2js9JsVariantE_GEP to i32 (...)**), i32 (...)*** %18, align 8
  %19 = getelementptr inbounds %"cls.acjs::JsVariant", %"cls.acjs::JsVariant"* %vptr18, i32 0, i32 1
  store i32 1, i32* %19, align 8
  br label %param.bb

exec.bb:                                          ; preds = %pcase.bb
  br label %blkalloc.bb

exit.bb:                                          ; preds = %blkalloc.bbe, %block15, %block10
  call void @_ZN14altered_carbon2js9JsVariantD1Ev(%"cls.acjs::JsVariant"* %vptr18)
  call void @_ZN14altered_carbon2js9JsVariantD1Ev(%"cls.acjs::JsVariant"* %vptr17)
  call void @_ZN14altered_carbon2js9JsVariantD1Ev(%"cls.acjs::JsVariant"* %vptr13)
  call void @_ZN14altered_carbon2js9JsVariantD1Ev(%"cls.acjs::JsVariant"* %vptr12)
  call void @_ZN14altered_carbon2js9JsVariantD1Ev(%"cls.acjs::JsVariant"* %vptr8)
  call void @_ZN14altered_carbon2js9JsVariantD1Ev(%"cls.acjs::JsVariant"* %vptr7)
  call void @_ZN14altered_carbon2js9JsVariantD1Ev(%"cls.acjs::JsVariant"* %vptr5)
  call void @_ZN14altered_carbon2js9JsVariantD1Ev(%"cls.acjs::JsVariant"* %vptr)
  ret void

param.bb:                                         ; preds = %init.bb
  switch i64 %3, label %pcase.bb3 [
    i64 2, label %pcase.bb2
    i64 1, label %pcase.bb1
    i64 0, label %pcase.bb
  ]

pcase.bb:                                         ; preds = %pcase.bb1, %param.bb
  br label %exec.bb

pcase.bb1:                                        ; preds = %pcase.bb2, %param.bb
  %20 = getelementptr inbounds %"cls.acjs::JsVariant"*, %"cls.acjs::JsVariant"** %2, i64 0
  %21 = load %"cls.acjs::JsVariant"*, %"cls.acjs::JsVariant"** %20, align 8
  store %"cls.acjs::JsVariant"* %21, %"cls.acjs::JsVariant"** %ptr6, align 8
  %22 = load %"cls.acjs::JsVariant"*, %"cls.acjs::JsVariant"** %ptr6, align 8
  %23 = call %"cls.acjs::JsVariant"* @_ZN14altered_carbon2js9JsVariantaSERKS1_(%"cls.acjs::JsVariant"* %vptr7, %"cls.acjs::JsVariant"* %22)
  br label %pcase.bb

pcase.bb2:                                        ; preds = %pcase.bb3, %param.bb
  %24 = getelementptr inbounds %"cls.acjs::JsVariant"*, %"cls.acjs::JsVariant"** %2, i64 1
  %25 = load %"cls.acjs::JsVariant"*, %"cls.acjs::JsVariant"** %24, align 8
  store %"cls.acjs::JsVariant"* %25, %"cls.acjs::JsVariant"** %ptr4, align 8
  %26 = load %"cls.acjs::JsVariant"*, %"cls.acjs::JsVariant"** %ptr4, align 8
  %27 = call %"cls.acjs::JsVariant"* @_ZN14altered_carbon2js9JsVariantaSERKS1_(%"cls.acjs::JsVariant"* %vptr5, %"cls.acjs::JsVariant"* %26)
  br label %pcase.bb1

pcase.bb3:                                        ; preds = %param.bb
  %28 = getelementptr inbounds %"cls.acjs::JsVariant"*, %"cls.acjs::JsVariant"** %2, i64 2
  %29 = load %"cls.acjs::JsVariant"*, %"cls.acjs::JsVariant"** %28, align 8
  store %"cls.acjs::JsVariant"* %29, %"cls.acjs::JsVariant"** %ptr, align 8
  %30 = load %"cls.acjs::JsVariant"*, %"cls.acjs::JsVariant"** %ptr, align 8
  %31 = call %"cls.acjs::JsVariant"* @_ZN14altered_carbon2js9JsVariantaSERKS1_(%"cls.acjs::JsVariant"* %vptr, %"cls.acjs::JsVariant"* %30)
  br label %pcase.bb2

blkalloc.bb:                                      ; preds = %exec.bb
  br label %block

block:                                            ; preds = %blkalloc.bb
  %32 = call %"cls.acjs::JsVariant"* @_ZN14altered_carbon2js9JsVariantaSEx(%"cls.acjs::JsVariant"* %vptr8, i64 0)
  %33 = call i1 @_ZNK14altered_carbon2js9JsVariantgtERKS1_(%"cls.acjs::JsVariant"* %vptr7, %"cls.acjs::JsVariant"* %vptr8)
  br i1 %33, label %ret.lhs, label %ret.rhs

blkexit.bb:                                       ; preds = %ret.op
  br label %blkalloc.bbe

ret.lhs:                                          ; preds = %block
  br label %blkalloc.bb9

ret.rhs:                                          ; preds = %block
  br label %blkalloc.bb14

ret.op:                                           ; preds = %blkalloc.bb14e, %blkalloc.bb9e
  br label %blkexit.bb

blkalloc.bb9:                                     ; preds = %ret.lhs
  br label %block10

block10:                                          ; preds = %blkalloc.bb9
  %34 = call %"cls.acjs::JsVariant"* @_ZNK14altered_carbon2js9JsVariant3addEPS1_RKS1_(%"cls.acjs::JsVariant"* %vptr7, %"cls.acjs::JsVariant"* %vptr12, %"cls.acjs::JsVariant"* %vptr5)
  %35 = call %"cls.acjs::JsVariant"* @_ZNK14altered_carbon2js9JsVariant3addEPS1_RKS1_(%"cls.acjs::JsVariant"* %34, %"cls.acjs::JsVariant"* %vptr13, %"cls.acjs::JsVariant"* %vptr)
  %36 = call %"cls.acjs::JsVariant"* @_ZN14altered_carbon2js9JsVariantaSERKS1_(%"cls.acjs::JsVariant"* %0, %"cls.acjs::JsVariant"* %35)
  br label %exit.bb

blkexit.bb11:                                     ; No predecessors!
  br label %blkalloc.bb9e

blkalloc.bb9e:                                    ; preds = %blkexit.bb11
  br label %ret.op

blkalloc.bb14:                                    ; preds = %ret.rhs
  br label %block15

block15:                                          ; preds = %blkalloc.bb14
  %37 = call %"cls.acjs::JsVariant"* @_ZNK14altered_carbon2js9JsVariant3subEPS1_RKS1_(%"cls.acjs::JsVariant"* %vptr7, %"cls.acjs::JsVariant"* %vptr17, %"cls.acjs::JsVariant"* %vptr5)
  %38 = call %"cls.acjs::JsVariant"* @_ZNK14altered_carbon2js9JsVariant3subEPS1_RKS1_(%"cls.acjs::JsVariant"* %37, %"cls.acjs::JsVariant"* %vptr18, %"cls.acjs::JsVariant"* %vptr)
  %39 = call %"cls.acjs::JsVariant"* @_ZN14altered_carbon2js9JsVariantaSERKS1_(%"cls.acjs::JsVariant"* %0, %"cls.acjs::JsVariant"* %38)
  br label %exit.bb

blkexit.bb16:                                     ; No predecessors!
  br label %blkalloc.bb14e

blkalloc.bb14e:                                   ; preds = %blkexit.bb16
  br label %ret.op

blkalloc.bbe:                                     ; preds = %blkexit.bb
  br label %exit.bb
}

declare %"cls.acjs::JsVariant"* @_ZN14altered_carbon2js9JsVariantaSEx(%"cls.acjs::JsVariant"*, i64)

define void @_ZN3_js2a2EPN14altered_carbon2js9JsVariantEN4llvm8ArrayRefIS3_EE(%"cls.acjs::JsVariant"* noalias sret, %"cls.acjs::JsVariant"*, %"cls.acjs::JsVariant"**, i64) {
init.bb:
  %ptr = alloca %"cls.acjs::JsVariant"*, align 8
  %vptr = alloca %"cls.acjs::JsVariant", align 8
  %4 = bitcast %"cls.acjs::JsVariant"* %vptr to i32 (...)***
  store i32 (...)** bitcast (i8*** @_ZTVN14altered_carbon2js9JsVariantE_GEP to i32 (...)**), i32 (...)*** %4, align 8
  %5 = getelementptr inbounds %"cls.acjs::JsVariant", %"cls.acjs::JsVariant"* %vptr, i32 0, i32 1
  store i32 1, i32* %5, align 8
  %ptr4 = alloca %"cls.acjs::JsVariant"*, align 8
  %vptr5 = alloca %"cls.acjs::JsVariant", align 8
  %6 = bitcast %"cls.acjs::JsVariant"* %vptr5 to i32 (...)***
  store i32 (...)** bitcast (i8*** @_ZTVN14altered_carbon2js9JsVariantE_GEP to i32 (...)**), i32 (...)*** %6, align 8
  %7 = getelementptr inbounds %"cls.acjs::JsVariant", %"cls.acjs::JsVariant"* %vptr5, i32 0, i32 1
  store i32 1, i32* %7, align 8
  %ptr6 = alloca %"cls.acjs::JsVariant"*, align 8
  %vptr7 = alloca %"cls.acjs::JsVariant", align 8
  %8 = bitcast %"cls.acjs::JsVariant"* %vptr7 to i32 (...)***
  store i32 (...)** bitcast (i8*** @_ZTVN14altered_carbon2js9JsVariantE_GEP to i32 (...)**), i32 (...)*** %8, align 8
  %9 = getelementptr inbounds %"cls.acjs::JsVariant", %"cls.acjs::JsVariant"* %vptr7, i32 0, i32 1
  store i32 1, i32* %9, align 8
  %vptr8 = alloca %"cls.acjs::JsVariant", align 8
  %10 = bitcast %"cls.acjs::JsVariant"* %vptr8 to i32 (...)***
  store i32 (...)** bitcast (i8*** @_ZTVN14altered_carbon2js9JsVariantE_GEP to i32 (...)**), i32 (...)*** %10, align 8
  %11 = getelementptr inbounds %"cls.acjs::JsVariant", %"cls.acjs::JsVariant"* %vptr8, i32 0, i32 1
  store i32 1, i32* %11, align 8
  %vptr9 = alloca %"cls.acjs::JsVariant", align 8
  %12 = bitcast %"cls.acjs::JsVariant"* %vptr9 to i32 (...)***
  store i32 (...)** bitcast (i8*** @_ZTVN14altered_carbon2js9JsVariantE_GEP to i32 (...)**), i32 (...)*** %12, align 8
  %13 = getelementptr inbounds %"cls.acjs::JsVariant", %"cls.acjs::JsVariant"* %vptr9, i32 0, i32 1
  store i32 1, i32* %13, align 8
  %vptr10 = alloca %"cls.acjs::JsVariant", align 8
  %14 = bitcast %"cls.acjs::JsVariant"* %vptr10 to i32 (...)***
  store i32 (...)** bitcast (i8*** @_ZTVN14altered_carbon2js9JsVariantE_GEP to i32 (...)**), i32 (...)*** %14, align 8
  %15 = getelementptr inbounds %"cls.acjs::JsVariant", %"cls.acjs::JsVariant"* %vptr10, i32 0, i32 1
  store i32 1, i32* %15, align 8
  %vptr11 = alloca %"cls.acjs::JsVariant", align 8
  %16 = bitcast %"cls.acjs::JsVariant"* %vptr11 to i32 (...)***
  store i32 (...)** bitcast (i8*** @_ZTVN14altered_carbon2js9JsVariantE_GEP to i32 (...)**), i32 (...)*** %16, align 8
  %17 = getelementptr inbounds %"cls.acjs::JsVariant", %"cls.acjs::JsVariant"* %vptr11, i32 0, i32 1
  store i32 1, i32* %17, align 8
  %vptr12 = alloca %"cls.acjs::JsVariant", align 8
  %18 = bitcast %"cls.acjs::JsVariant"* %vptr12 to i32 (...)***
  store i32 (...)** bitcast (i8*** @_ZTVN14altered_carbon2js9JsVariantE_GEP to i32 (...)**), i32 (...)*** %18, align 8
  %19 = getelementptr inbounds %"cls.acjs::JsVariant", %"cls.acjs::JsVariant"* %vptr12, i32 0, i32 1
  store i32 1, i32* %19, align 8
  %vptr13 = alloca %"cls.acjs::JsVariant", align 8
  %20 = bitcast %"cls.acjs::JsVariant"* %vptr13 to i32 (...)***
  store i32 (...)** bitcast (i8*** @_ZTVN14altered_carbon2js9JsVariantE_GEP to i32 (...)**), i32 (...)*** %20, align 8
  %21 = getelementptr inbounds %"cls.acjs::JsVariant", %"cls.acjs::JsVariant"* %vptr13, i32 0, i32 1
  store i32 1, i32* %21, align 8
  %vptr14 = alloca %"cls.acjs::JsVariant", align 8
  %22 = bitcast %"cls.acjs::JsVariant"* %vptr14 to i32 (...)***
  store i32 (...)** bitcast (i8*** @_ZTVN14altered_carbon2js9JsVariantE_GEP to i32 (...)**), i32 (...)*** %22, align 8
  %23 = getelementptr inbounds %"cls.acjs::JsVariant", %"cls.acjs::JsVariant"* %vptr14, i32 0, i32 1
  store i32 1, i32* %23, align 8
  %vptr15 = alloca %"cls.acjs::JsVariant", align 8
  %24 = bitcast %"cls.acjs::JsVariant"* %vptr15 to i32 (...)***
  store i32 (...)** bitcast (i8*** @_ZTVN14altered_carbon2js9JsVariantE_GEP to i32 (...)**), i32 (...)*** %24, align 8
  %25 = getelementptr inbounds %"cls.acjs::JsVariant", %"cls.acjs::JsVariant"* %vptr15, i32 0, i32 1
  store i32 1, i32* %25, align 8
  br label %param.bb

exec.bb:                                          ; preds = %pcase.bb
  br label %blkalloc.bb

exit.bb:                                          ; preds = %blkalloc.bbe, %block
  call void @_ZN14altered_carbon2js9JsVariantD1Ev(%"cls.acjs::JsVariant"* %vptr15)
  call void @_ZN14altered_carbon2js9JsVariantD1Ev(%"cls.acjs::JsVariant"* %vptr14)
  call void @_ZN14altered_carbon2js9JsVariantD1Ev(%"cls.acjs::JsVariant"* %vptr13)
  call void @_ZN14altered_carbon2js9JsVariantD1Ev(%"cls.acjs::JsVariant"* %vptr12)
  call void @_ZN14altered_carbon2js9JsVariantD1Ev(%"cls.acjs::JsVariant"* %vptr11)
  call void @_ZN14altered_carbon2js9JsVariantD1Ev(%"cls.acjs::JsVariant"* %vptr10)
  call void @_ZN14altered_carbon2js9JsVariantD1Ev(%"cls.acjs::JsVariant"* %vptr9)
  call void @_ZN14altered_carbon2js9JsVariantD1Ev(%"cls.acjs::JsVariant"* %vptr8)
  call void @_ZN14altered_carbon2js9JsVariantD1Ev(%"cls.acjs::JsVariant"* %vptr7)
  call void @_ZN14altered_carbon2js9JsVariantD1Ev(%"cls.acjs::JsVariant"* %vptr5)
  call void @_ZN14altered_carbon2js9JsVariantD1Ev(%"cls.acjs::JsVariant"* %vptr)
  ret void

param.bb:                                         ; preds = %init.bb
  switch i64 %3, label %pcase.bb3 [
    i64 2, label %pcase.bb2
    i64 1, label %pcase.bb1
    i64 0, label %pcase.bb
  ]

pcase.bb:                                         ; preds = %pcase.bb1, %param.bb
  br label %exec.bb

pcase.bb1:                                        ; preds = %pcase.bb2, %param.bb
  %26 = getelementptr inbounds %"cls.acjs::JsVariant"*, %"cls.acjs::JsVariant"** %2, i64 0
  %27 = load %"cls.acjs::JsVariant"*, %"cls.acjs::JsVariant"** %26, align 8
  store %"cls.acjs::JsVariant"* %27, %"cls.acjs::JsVariant"** %ptr6, align 8
  %28 = load %"cls.acjs::JsVariant"*, %"cls.acjs::JsVariant"** %ptr6, align 8
  %29 = call %"cls.acjs::JsVariant"* @_ZN14altered_carbon2js9JsVariantaSERKS1_(%"cls.acjs::JsVariant"* %vptr7, %"cls.acjs::JsVariant"* %28)
  br label %pcase.bb

pcase.bb2:                                        ; preds = %pcase.bb3, %param.bb
  %30 = getelementptr inbounds %"cls.acjs::JsVariant"*, %"cls.acjs::JsVariant"** %2, i64 1
  %31 = load %"cls.acjs::JsVariant"*, %"cls.acjs::JsVariant"** %30, align 8
  store %"cls.acjs::JsVariant"* %31, %"cls.acjs::JsVariant"** %ptr4, align 8
  %32 = load %"cls.acjs::JsVariant"*, %"cls.acjs::JsVariant"** %ptr4, align 8
  %33 = call %"cls.acjs::JsVariant"* @_ZN14altered_carbon2js9JsVariantaSERKS1_(%"cls.acjs::JsVariant"* %vptr5, %"cls.acjs::JsVariant"* %32)
  br label %pcase.bb1

pcase.bb3:                                        ; preds = %param.bb
  %34 = getelementptr inbounds %"cls.acjs::JsVariant"*, %"cls.acjs::JsVariant"** %2, i64 2
  %35 = load %"cls.acjs::JsVariant"*, %"cls.acjs::JsVariant"** %34, align 8
  store %"cls.acjs::JsVariant"* %35, %"cls.acjs::JsVariant"** %ptr, align 8
  %36 = load %"cls.acjs::JsVariant"*, %"cls.acjs::JsVariant"** %ptr, align 8
  %37 = call %"cls.acjs::JsVariant"* @_ZN14altered_carbon2js9JsVariantaSERKS1_(%"cls.acjs::JsVariant"* %vptr, %"cls.acjs::JsVariant"* %36)
  br label %pcase.bb2

blkalloc.bb:                                      ; preds = %exec.bb
  br label %block

block:                                            ; preds = %blkalloc.bb
  %38 = call %"cls.acjs::JsVariant"* @_ZN14altered_carbon2js9JsVariantaSEx(%"cls.acjs::JsVariant"* %vptr8, i64 2)
  %39 = call %"cls.acjs::JsVariant"* @_ZNK14altered_carbon2js9JsVariant3mulEPS1_RKS1_(%"cls.acjs::JsVariant"* %vptr7, %"cls.acjs::JsVariant"* %vptr9, %"cls.acjs::JsVariant"* %vptr8)
  %40 = call %"cls.acjs::JsVariant"* @_ZN14altered_carbon2js9JsVariantaSEx(%"cls.acjs::JsVariant"* %vptr10, i64 3)
  %41 = call %"cls.acjs::JsVariant"* @_ZNK14altered_carbon2js9JsVariant3mulEPS1_RKS1_(%"cls.acjs::JsVariant"* %vptr5, %"cls.acjs::JsVariant"* %vptr11, %"cls.acjs::JsVariant"* %vptr10)
  %42 = call %"cls.acjs::JsVariant"* @_ZNK14altered_carbon2js9JsVariant3addEPS1_RKS1_(%"cls.acjs::JsVariant"* %39, %"cls.acjs::JsVariant"* %vptr12, %"cls.acjs::JsVariant"* %41)
  %43 = call %"cls.acjs::JsVariant"* @_ZN14altered_carbon2js9JsVariantaSEx(%"cls.acjs::JsVariant"* %vptr13, i64 4)
  %44 = call %"cls.acjs::JsVariant"* @_ZNK14altered_carbon2js9JsVariant3mulEPS1_RKS1_(%"cls.acjs::JsVariant"* %vptr, %"cls.acjs::JsVariant"* %vptr14, %"cls.acjs::JsVariant"* %vptr13)
  %45 = call %"cls.acjs::JsVariant"* @_ZNK14altered_carbon2js9JsVariant3addEPS1_RKS1_(%"cls.acjs::JsVariant"* %42, %"cls.acjs::JsVariant"* %vptr15, %"cls.acjs::JsVariant"* %44)
  %46 = call %"cls.acjs::JsVariant"* @_ZN14altered_carbon2js9JsVariantaSERKS1_(%"cls.acjs::JsVariant"* %0, %"cls.acjs::JsVariant"* %45)
  br label %exit.bb

blkexit.bb:                                       ; No predecessors!
  br label %blkalloc.bbe

blkalloc.bbe:                                     ; preds = %blkexit.bb
  br label %exit.bb
}
