; ModuleID = 'script53.js'
source_filename = "script53.js"

%"class.altered_carbon::js::JsValueRef" = type { i32 (...)**, %"class.std::__1::shared_ptr" }
%"class.std::__1::shared_ptr" = type { %"class.altered_carbon::js::ACJsValue"*, %"class.std::__1::__shared_weak_count"* }
%"class.altered_carbon::js::ACJsValue" = type <{ i32 (...)**, i32, [4 x i8] }>
%"class.std::__1::__shared_weak_count" = type { %"class.std::__1::__shared_count", i64 }
%"class.std::__1::__shared_count" = type { i32 (...)**, i64 }
%"class.altered_carbon::js::ACJsNumber" = type { %"class.altered_carbon::js::ACJsPrimitive" }
%"class.altered_carbon::js::ACJsPrimitive" = type { %"class.altered_carbon::js::ACJsValue.base", %"class.altered_carbon::js::ACLexNumber" }
%"class.altered_carbon::js::ACJsValue.base" = type { i32 (...)**, i32 }
%"class.altered_carbon::js::ACLexNumber" = type { i32 (...)**, i8, %union.anon.4 }
%union.anon.4 = type { double }

@_ZN14altered_carbon2js11JSConstants9UndefinedE = external unnamed_addr constant %"class.altered_carbon::js::JsValueRef", align 8

define void @_Z7_scriptPN14altered_carbon2js10JsValueRefE(%"class.altered_carbon::js::JsValueRef"*) {
init.bb:
  %ptr = alloca %"class.altered_carbon::js::JsValueRef", align 8
  call void @_ZN14altered_carbon2js10JsValueRefC1Ev(%"class.altered_carbon::js::JsValueRef"* %ptr)
  %ptr1 = alloca %"class.altered_carbon::js::JsValueRef", align 8
  call void @_ZN14altered_carbon2js10JsValueRefC1Ev(%"class.altered_carbon::js::JsValueRef"* %ptr1)
  br label %exec.bb

exec.bb:                                          ; preds = %init.bb
  %newop = call i8* @_Znwm(i64 40)
  %jsobj = bitcast i8* %newop to %"class.altered_carbon::js::ACJsNumber"*
  call void @_ZN14altered_carbon2js10ACJsNumberC1Ex(%"class.altered_carbon::js::ACJsNumber"* %jsobj, i64 1)
  %jsvalue = bitcast %"class.altered_carbon::js::ACJsNumber"* %jsobj to %"class.altered_carbon::js::ACJsValue"*
  call void @_ZN14altered_carbon2js10JsValueRefC1EPNS0_9ACJsValueE(%"class.altered_carbon::js::JsValueRef"* %ptr, %"class.altered_carbon::js::ACJsValue"* %jsvalue)
  call void @_ZN14altered_carbon2js8binaryOpEPNS0_10JsValueRefEiRS1_S3_(%"class.altered_carbon::js::JsValueRef"* %ptr1, i32 119, %"class.altered_carbon::js::JsValueRef"* dereferenceable(24) @_ZN14altered_carbon2js11JSConstants9UndefinedE, %"class.altered_carbon::js::JsValueRef"* dereferenceable(24) %ptr)
  br label %exit.bb

exit.bb:                                          ; preds = %exec.bb
  call void @_ZN14altered_carbon2js10JsValueRefD1Ev(%"class.altered_carbon::js::JsValueRef"* %ptr1)
  call void @_ZN14altered_carbon2js10JsValueRefD1Ev(%"class.altered_carbon::js::JsValueRef"* %ptr)
  ret void
}

declare void @_ZN14altered_carbon2js10ACJsNumberC1Ex(%"class.altered_carbon::js::ACJsNumber"*, i64)

declare i8* @_Znwm(i64)

declare void @_ZN14altered_carbon2js10JsValueRefC1Ev(%"class.altered_carbon::js::JsValueRef"*)

declare void @_ZN14altered_carbon2js10JsValueRefC1EPNS0_9ACJsValueE(%"class.altered_carbon::js::JsValueRef"*, %"class.altered_carbon::js::ACJsValue"*)

declare void @_ZN14altered_carbon2js8binaryOpEPNS0_10JsValueRefEiRS1_S3_(%"class.altered_carbon::js::JsValueRef"*, i32, %"class.altered_carbon::js::JsValueRef"* dereferenceable(24), %"class.altered_carbon::js::JsValueRef"* dereferenceable(24))

declare void @_ZN14altered_carbon2js10JsValueRefD1Ev(%"class.altered_carbon::js::JsValueRef"*)
