	.section	__TEXT,__text,regular,pure_instructions
	.macosx_version_min 10, 13
	.section	__TEXT,__literal8,8byte_literals
	.p2align	3               ## -- Begin function _Z7_scripti
LCPI0_0:
	.quad	4607182418800017408     ## double 1
LCPI0_1:
	.quad	4611686018427387904     ## double 2
LCPI0_2:
	.quad	4613937818241073152     ## double 3
LCPI0_3:
	.quad	4616189618054758400     ## double 4
LCPI0_4:
	.quad	4617315517961601024     ## double 5
LCPI0_5:
	.quad	4618441417868443648     ## double 6
LCPI0_6:
	.quad	4619567317775286272     ## double 7
LCPI0_7:
	.quad	4620693217682128896     ## double 8
LCPI0_8:
	.quad	4621256167635550208     ## double 9
LCPI0_9:
	.quad	4621819117588971520     ## double 10
LCPI0_10:
	.quad	4622382067542392832     ## double 11
	.section	__TEXT,__text,regular,pure_instructions
	.globl	__Z7_scripti
	.p2align	4, 0x90
__Z7_scripti:                           ## @_Z7_scripti
	.cfi_startproc
## %bb.0:                               ## %init.bb
	pushq	%r14
	.cfi_def_cfa_offset 16
	pushq	%rbx
	.cfi_def_cfa_offset 24
	subq	$24632, %rsp            ## imm = 0x6038
	.cfi_def_cfa_offset 24656
	.cfi_offset %rbx, -24
	.cfi_offset %r14, -16
	movq	$0, 23512(%rsp)
	movq	$0, 23504(%rsp)
	movq	$0, 23496(%rsp)
	movq	$0, 23488(%rsp)
	movq	$0, 23480(%rsp)
	movq	$0, 23472(%rsp)
	movq	$0, 23464(%rsp)
	movq	$0, 23456(%rsp)
	movq	$0, 23448(%rsp)
	movq	$0, 23440(%rsp)
	movq	$0, 23432(%rsp)
	movq	$0, 23424(%rsp)
	movq	$0, 23416(%rsp)
	movq	$0, 23408(%rsp)
	movq	$0, 23400(%rsp)
	movq	$0, 23392(%rsp)
	movq	$0, 23384(%rsp)
	movq	$0, 23376(%rsp)
	movq	$0, 23368(%rsp)
	movq	$0, 23360(%rsp)
	movq	$0, 23352(%rsp)
	movq	$0, 23344(%rsp)
	movq	$0, 23336(%rsp)
	movq	$0, 23328(%rsp)
	movq	$0, 23320(%rsp)
	movq	$0, 23312(%rsp)
	movq	$0, 23304(%rsp)
	movq	$0, 23296(%rsp)
	movq	$0, 23288(%rsp)
	movq	$0, 23280(%rsp)
	movq	$0, 23272(%rsp)
	movq	$0, 23264(%rsp)
	movq	$0, 23256(%rsp)
	movq	$0, 23248(%rsp)
	movq	$0, 23240(%rsp)
	movq	$0, 23232(%rsp)
	movq	$0, 23224(%rsp)
	movq	$0, 23216(%rsp)
	movq	$0, 23208(%rsp)
	movq	$0, 23200(%rsp)
	movq	$0, 23192(%rsp)
	movq	$0, 23184(%rsp)
	movq	$0, 23176(%rsp)
	movq	$0, 23168(%rsp)
	movq	$0, 23160(%rsp)
	movq	$0, 23152(%rsp)
	movq	$0, 23144(%rsp)
	movq	$0, 23136(%rsp)
	movq	$0, 23128(%rsp)
	movq	$0, 23120(%rsp)
	movq	$0, 23112(%rsp)
	movq	$0, 23104(%rsp)
	movq	$0, 23096(%rsp)
	movq	$0, 23088(%rsp)
	movq	$0, 23080(%rsp)
	movq	$0, 23072(%rsp)
	movq	$0, 23064(%rsp)
	movq	$0, 23056(%rsp)
	movq	$0, 23048(%rsp)
	movq	$0, 23040(%rsp)
	movq	$0, 23032(%rsp)
	movq	$0, 23024(%rsp)
	movq	$0, 23016(%rsp)
	movq	$0, 23008(%rsp)
	movq	$0, 23000(%rsp)
	movq	$0, 22992(%rsp)
	movq	$0, 22984(%rsp)
	movq	$0, 22976(%rsp)
	movq	$0, 22968(%rsp)
	movq	$0, 22960(%rsp)
	movq	$0, 22952(%rsp)
	movq	$0, 22944(%rsp)
	movq	$0, 22936(%rsp)
	movq	$0, 22928(%rsp)
	movq	$0, 22920(%rsp)
	movq	$0, 22912(%rsp)
	movq	$0, 22904(%rsp)
	movq	$0, 22896(%rsp)
	movq	$0, 22888(%rsp)
	movq	$0, 22880(%rsp)
	movq	$0, 22872(%rsp)
	movq	$0, 22864(%rsp)
	movq	$0, 22856(%rsp)
	movq	$0, 22848(%rsp)
	movq	$0, 22840(%rsp)
	movq	$0, 22832(%rsp)
	movq	$0, 22824(%rsp)
	movq	$0, 22816(%rsp)
	movq	$0, 22808(%rsp)
	movq	$0, 22800(%rsp)
	movq	$0, 22792(%rsp)
	movq	$0, 22784(%rsp)
	movq	$0, 22776(%rsp)
	movq	$0, 22768(%rsp)
	movq	$0, 22760(%rsp)
	movq	$0, 22752(%rsp)
	movq	$0, 22744(%rsp)
	movq	$0, 22736(%rsp)
	movq	$0, 22728(%rsp)
	movq	$0, 22720(%rsp)
	movq	$0, 22712(%rsp)
	movq	$0, 22704(%rsp)
	movq	$0, 22696(%rsp)
	movq	$0, 22688(%rsp)
	movq	$0, 22680(%rsp)
	movq	$0, 22672(%rsp)
	movq	$0, 22664(%rsp)
	movq	$0, 22656(%rsp)
	movq	$0, 22648(%rsp)
	movq	$0, 22640(%rsp)
	movq	$0, 22632(%rsp)
	movq	$0, 22624(%rsp)
	movq	$0, 22616(%rsp)
	movq	$0, 22608(%rsp)
	movq	$0, 22600(%rsp)
	movq	$0, 22592(%rsp)
	movq	$0, 22584(%rsp)
	movq	$0, 22576(%rsp)
	movq	$0, 22568(%rsp)
	movq	$0, 22560(%rsp)
	movq	$0, 22552(%rsp)
	movq	$0, 22544(%rsp)
	movq	$0, 22536(%rsp)
	movq	$0, 22528(%rsp)
	movq	$0, 22520(%rsp)
	movq	$0, 22512(%rsp)
	movq	$0, 22504(%rsp)
	movq	$0, 22496(%rsp)
	movq	$0, 22488(%rsp)
	movq	$0, 22480(%rsp)
	movq	$0, 22472(%rsp)
	movq	$0, 22464(%rsp)
	movq	$0, 22456(%rsp)
	movq	$0, 22448(%rsp)
	movq	$0, 22440(%rsp)
	movq	$0, 22432(%rsp)
	movq	$0, 22424(%rsp)
	movq	$0, 22416(%rsp)
	movq	$0, 22408(%rsp)
	movq	$0, 22400(%rsp)
	movq	$0, 22392(%rsp)
	movq	$0, 22384(%rsp)
	movq	$0, 22376(%rsp)
	movq	$0, 22368(%rsp)
	movq	$0, 22360(%rsp)
	movq	$0, 22352(%rsp)
	movq	$0, 22344(%rsp)
	movq	$0, 22336(%rsp)
	movq	$0, 22328(%rsp)
	movq	$0, 22320(%rsp)
	movq	$0, 22312(%rsp)
	movq	$0, 22304(%rsp)
	movq	$0, 22296(%rsp)
	movq	$0, 22288(%rsp)
	movq	$0, 22280(%rsp)
	movq	$0, 22272(%rsp)
	movq	$0, 22264(%rsp)
	movq	$0, 22256(%rsp)
	movq	$0, 22248(%rsp)
	movq	$0, 22240(%rsp)
	movq	$0, 22232(%rsp)
	movq	$0, 22224(%rsp)
	movq	$0, 22216(%rsp)
	movq	$0, 22208(%rsp)
	movq	$0, 22200(%rsp)
	movq	$0, 22192(%rsp)
	movq	$0, 22184(%rsp)
	movq	$0, 22176(%rsp)
	movq	$0, 22168(%rsp)
	movq	$0, 22160(%rsp)
	movq	$0, 22152(%rsp)
	movq	$0, 22144(%rsp)
	movq	$0, 22136(%rsp)
	movq	$0, 22128(%rsp)
	movq	$0, 22120(%rsp)
	movq	$0, 22112(%rsp)
	movq	$0, 22104(%rsp)
	movq	$0, 22096(%rsp)
	movq	$0, 22088(%rsp)
	movq	$0, 22080(%rsp)
	movq	$0, 22072(%rsp)
	movq	$0, 22064(%rsp)
	movq	$0, 22056(%rsp)
	movq	$0, 22048(%rsp)
	movq	$0, 22040(%rsp)
	movq	$0, 22032(%rsp)
	movq	$0, 22024(%rsp)
	movq	$0, 22016(%rsp)
	movq	$0, 22008(%rsp)
	movq	$0, 22000(%rsp)
	movq	$0, 21992(%rsp)
	movq	$0, 21984(%rsp)
	movq	$0, 21976(%rsp)
	movq	$0, 21968(%rsp)
	movq	$0, 21960(%rsp)
	movq	$0, 21952(%rsp)
	movq	$0, 21944(%rsp)
	movq	$0, 21936(%rsp)
	movq	$0, 21928(%rsp)
	movq	$0, 21920(%rsp)
	movq	$0, 21912(%rsp)
	movq	$0, 21904(%rsp)
	movq	$0, 21896(%rsp)
	movq	$0, 21888(%rsp)
	movq	$0, 21880(%rsp)
	movq	$0, 21872(%rsp)
	movq	$0, 21864(%rsp)
	movq	$0, 21856(%rsp)
	movq	$0, 21848(%rsp)
	movq	$0, 21840(%rsp)
	movq	$0, 21832(%rsp)
	movq	$0, 21824(%rsp)
	movq	$0, 21816(%rsp)
	movq	$0, 21808(%rsp)
	movq	$0, 21800(%rsp)
	movq	$0, 21792(%rsp)
	movq	$0, 21784(%rsp)
	movq	$0, 21776(%rsp)
	movq	$0, 21768(%rsp)
	movq	$0, 21760(%rsp)
	movq	$0, 21752(%rsp)
	movq	$0, 21744(%rsp)
	movq	$0, 21736(%rsp)
	movq	$0, 21728(%rsp)
	movq	$0, 21720(%rsp)
	movq	$0, 21712(%rsp)
	movq	$0, 21704(%rsp)
	movq	$0, 21696(%rsp)
	movq	$0, 21688(%rsp)
	movq	$0, 21680(%rsp)
	movq	$0, 21672(%rsp)
	movq	$0, 21664(%rsp)
	movq	$0, 21656(%rsp)
	movq	$0, 21648(%rsp)
	movq	$0, 21640(%rsp)
	movq	$0, 21632(%rsp)
	movq	$0, 21624(%rsp)
	movq	$0, 21616(%rsp)
	movq	$0, 21608(%rsp)
	movq	$0, 21600(%rsp)
	movq	$0, 21592(%rsp)
	movq	$0, 21584(%rsp)
	movq	$0, 21576(%rsp)
	movq	$0, 21568(%rsp)
	movq	$0, 21560(%rsp)
	movq	$0, 21552(%rsp)
	movq	$0, 21544(%rsp)
	movq	$0, 21536(%rsp)
	movq	$0, 21528(%rsp)
	movq	$0, 21520(%rsp)
	movq	$0, 21512(%rsp)
	movq	$0, 21504(%rsp)
	movq	$0, 16064(%rsp)
	movq	$0, 16056(%rsp)
	movq	$0, 16048(%rsp)
	movq	$0, 16040(%rsp)
	movq	$0, 16096(%rsp)
	movq	$0, 16088(%rsp)
	movq	$0, 16080(%rsp)
	movq	$0, 16072(%rsp)
	movq	$0, 16128(%rsp)
	movq	$0, 16120(%rsp)
	movq	$0, 16112(%rsp)
	movq	$0, 16104(%rsp)
	movq	$0, 16160(%rsp)
	movq	$0, 16152(%rsp)
	movq	$0, 16144(%rsp)
	movq	$0, 16136(%rsp)
	movq	$0, 16192(%rsp)
	movq	$0, 16184(%rsp)
	movq	$0, 16176(%rsp)
	movq	$0, 16168(%rsp)
	movq	$0, 16224(%rsp)
	movq	$0, 16216(%rsp)
	movq	$0, 16208(%rsp)
	movq	$0, 16200(%rsp)
	movq	$0, 16256(%rsp)
	movq	$0, 16248(%rsp)
	movq	$0, 16240(%rsp)
	movq	$0, 16232(%rsp)
	movq	$0, 16288(%rsp)
	movq	$0, 16280(%rsp)
	movq	$0, 16272(%rsp)
	movq	$0, 16264(%rsp)
	movq	$0, 16320(%rsp)
	movq	$0, 16312(%rsp)
	movq	$0, 16304(%rsp)
	movq	$0, 16296(%rsp)
	movq	$0, 16352(%rsp)
	movq	$0, 16344(%rsp)
	movq	$0, 16336(%rsp)
	movq	$0, 16328(%rsp)
	movq	$0, 16384(%rsp)
	movq	$0, 16376(%rsp)
	movq	$0, 16368(%rsp)
	movq	$0, 16360(%rsp)
	movq	$0, 16416(%rsp)
	movq	$0, 16408(%rsp)
	movq	$0, 16400(%rsp)
	movq	$0, 16392(%rsp)
	movq	$0, 16448(%rsp)
	movq	$0, 16440(%rsp)
	movq	$0, 16432(%rsp)
	movq	$0, 16424(%rsp)
	movq	$0, 16480(%rsp)
	movq	$0, 16472(%rsp)
	movq	$0, 16464(%rsp)
	movq	$0, 16456(%rsp)
	movq	$0, 16512(%rsp)
	movq	$0, 16504(%rsp)
	movq	$0, 16496(%rsp)
	movq	$0, 16488(%rsp)
	movq	$0, 16544(%rsp)
	movq	$0, 16536(%rsp)
	movq	$0, 16528(%rsp)
	movq	$0, 16520(%rsp)
	movq	$0, 16576(%rsp)
	movq	$0, 16568(%rsp)
	movq	$0, 16560(%rsp)
	movq	$0, 16552(%rsp)
	movq	$0, 16608(%rsp)
	movq	$0, 16600(%rsp)
	movq	$0, 16592(%rsp)
	movq	$0, 16584(%rsp)
	movq	$0, 16640(%rsp)
	movq	$0, 16632(%rsp)
	movq	$0, 16624(%rsp)
	movq	$0, 16616(%rsp)
	movq	$0, 16672(%rsp)
	movq	$0, 16664(%rsp)
	movq	$0, 16656(%rsp)
	movq	$0, 16648(%rsp)
	movq	$0, 16704(%rsp)
	movq	$0, 16696(%rsp)
	movq	$0, 16688(%rsp)
	movq	$0, 16680(%rsp)
	movq	$0, 16736(%rsp)
	movq	$0, 16728(%rsp)
	movq	$0, 16720(%rsp)
	movq	$0, 16712(%rsp)
	movq	$0, 16768(%rsp)
	movq	$0, 16760(%rsp)
	movq	$0, 16752(%rsp)
	movq	$0, 16744(%rsp)
	movq	$0, 16800(%rsp)
	movq	$0, 16792(%rsp)
	movq	$0, 16784(%rsp)
	movq	$0, 16776(%rsp)
	movq	$0, 16832(%rsp)
	movq	$0, 16824(%rsp)
	movq	$0, 16816(%rsp)
	movq	$0, 16808(%rsp)
	movq	$0, 16864(%rsp)
	movq	$0, 16856(%rsp)
	movq	$0, 16848(%rsp)
	movq	$0, 16840(%rsp)
	movq	$0, 16896(%rsp)
	movq	$0, 16888(%rsp)
	movq	$0, 16880(%rsp)
	movq	$0, 16872(%rsp)
	movq	$0, 16928(%rsp)
	movq	$0, 16920(%rsp)
	movq	$0, 16912(%rsp)
	movq	$0, 16904(%rsp)
	movq	$0, 16960(%rsp)
	movq	$0, 16952(%rsp)
	movq	$0, 16944(%rsp)
	movq	$0, 16936(%rsp)
	movq	$0, 16992(%rsp)
	movq	$0, 16984(%rsp)
	movq	$0, 16976(%rsp)
	movq	$0, 16968(%rsp)
	movq	$0, 17024(%rsp)
	movq	$0, 17016(%rsp)
	movq	$0, 17008(%rsp)
	movq	$0, 17000(%rsp)
	movq	$0, 17056(%rsp)
	movq	$0, 17048(%rsp)
	movq	$0, 17040(%rsp)
	movq	$0, 17032(%rsp)
	movq	$0, 17088(%rsp)
	movq	$0, 17080(%rsp)
	movq	$0, 17072(%rsp)
	movq	$0, 17064(%rsp)
	movq	$0, 17120(%rsp)
	movq	$0, 17112(%rsp)
	movq	$0, 17104(%rsp)
	movq	$0, 17096(%rsp)
	movq	$0, 17152(%rsp)
	movq	$0, 17144(%rsp)
	movq	$0, 17136(%rsp)
	movq	$0, 17128(%rsp)
	movq	$0, 17184(%rsp)
	movq	$0, 17176(%rsp)
	movq	$0, 17168(%rsp)
	movq	$0, 17160(%rsp)
	movq	$0, 17216(%rsp)
	movq	$0, 17208(%rsp)
	movq	$0, 17200(%rsp)
	movq	$0, 17192(%rsp)
	movq	$0, 17248(%rsp)
	movq	$0, 17240(%rsp)
	movq	$0, 17232(%rsp)
	movq	$0, 17224(%rsp)
	movq	$0, 17280(%rsp)
	movq	$0, 17272(%rsp)
	movq	$0, 17264(%rsp)
	movq	$0, 17256(%rsp)
	movq	$0, 17312(%rsp)
	movq	$0, 17304(%rsp)
	movq	$0, 17296(%rsp)
	movq	$0, 17288(%rsp)
	movq	$0, 17344(%rsp)
	movq	$0, 17336(%rsp)
	movq	$0, 17328(%rsp)
	movq	$0, 17320(%rsp)
	movq	$0, 17376(%rsp)
	movq	$0, 17368(%rsp)
	movq	$0, 17360(%rsp)
	movq	$0, 17352(%rsp)
	movq	$0, 17408(%rsp)
	movq	$0, 17400(%rsp)
	movq	$0, 17392(%rsp)
	movq	$0, 17384(%rsp)
	movq	$0, 17440(%rsp)
	movq	$0, 17432(%rsp)
	movq	$0, 17424(%rsp)
	movq	$0, 17416(%rsp)
	movq	$0, 17472(%rsp)
	movq	$0, 17464(%rsp)
	movq	$0, 17456(%rsp)
	movq	$0, 17448(%rsp)
	movq	$0, 17504(%rsp)
	movq	$0, 17496(%rsp)
	movq	$0, 17488(%rsp)
	movq	$0, 17480(%rsp)
	movq	$0, 17536(%rsp)
	movq	$0, 17528(%rsp)
	movq	$0, 17520(%rsp)
	movq	$0, 17512(%rsp)
	movq	$0, 17568(%rsp)
	movq	$0, 17560(%rsp)
	movq	$0, 17552(%rsp)
	movq	$0, 17544(%rsp)
	movq	$0, 17600(%rsp)
	movq	$0, 17592(%rsp)
	movq	$0, 17584(%rsp)
	movq	$0, 17576(%rsp)
	movq	$0, 17632(%rsp)
	movq	$0, 17624(%rsp)
	movq	$0, 17616(%rsp)
	movq	$0, 17608(%rsp)
	movq	$0, 17664(%rsp)
	movq	$0, 17656(%rsp)
	movq	$0, 17648(%rsp)
	movq	$0, 17640(%rsp)
	movq	$0, 17696(%rsp)
	movq	$0, 17688(%rsp)
	movq	$0, 17680(%rsp)
	movq	$0, 17672(%rsp)
	movq	$0, 17728(%rsp)
	movq	$0, 17720(%rsp)
	movq	$0, 17712(%rsp)
	movq	$0, 17704(%rsp)
	movq	$0, 17760(%rsp)
	movq	$0, 17752(%rsp)
	movq	$0, 17744(%rsp)
	movq	$0, 17736(%rsp)
	movq	$0, 17792(%rsp)
	movq	$0, 17784(%rsp)
	movq	$0, 17776(%rsp)
	movq	$0, 17768(%rsp)
	movq	$0, 17824(%rsp)
	movq	$0, 17816(%rsp)
	movq	$0, 17808(%rsp)
	movq	$0, 17800(%rsp)
	movq	$0, 17856(%rsp)
	movq	$0, 17848(%rsp)
	movq	$0, 17840(%rsp)
	movq	$0, 17832(%rsp)
	movq	$0, 17888(%rsp)
	movq	$0, 17880(%rsp)
	movq	$0, 17872(%rsp)
	movq	$0, 17864(%rsp)
	movq	$0, 17920(%rsp)
	movq	$0, 17912(%rsp)
	movq	$0, 17904(%rsp)
	movq	$0, 17896(%rsp)
	movq	$0, 17952(%rsp)
	movq	$0, 17944(%rsp)
	movq	$0, 17936(%rsp)
	movq	$0, 17928(%rsp)
	movq	$0, 17984(%rsp)
	movq	$0, 17976(%rsp)
	movq	$0, 17968(%rsp)
	movq	$0, 17960(%rsp)
	movq	$0, 20032(%rsp)
	movq	$0, 20024(%rsp)
	movq	$0, 18000(%rsp)
	movq	$0, 17992(%rsp)
	movq	$0, 20064(%rsp)
	movq	$0, 20056(%rsp)
	movq	$0, 20048(%rsp)
	movq	$0, 20040(%rsp)
	movq	$0, 20096(%rsp)
	movq	$0, 20088(%rsp)
	movq	$0, 20080(%rsp)
	movq	$0, 20072(%rsp)
	movq	$0, 20128(%rsp)
	movq	$0, 20120(%rsp)
	movq	$0, 20112(%rsp)
	movq	$0, 20104(%rsp)
	movq	$0, 20160(%rsp)
	movq	$0, 20152(%rsp)
	movq	$0, 20144(%rsp)
	movq	$0, 20136(%rsp)
	movq	$0, 20192(%rsp)
	movq	$0, 20184(%rsp)
	movq	$0, 20176(%rsp)
	movq	$0, 20168(%rsp)
	movq	$0, 20224(%rsp)
	movq	$0, 20216(%rsp)
	movq	$0, 20208(%rsp)
	movq	$0, 20200(%rsp)
	movq	$0, 20256(%rsp)
	movq	$0, 20248(%rsp)
	movq	$0, 20240(%rsp)
	movq	$0, 20232(%rsp)
	movq	$0, 20288(%rsp)
	movq	$0, 20280(%rsp)
	movq	$0, 20272(%rsp)
	movq	$0, 20264(%rsp)
	movq	$0, 20320(%rsp)
	movq	$0, 20312(%rsp)
	movq	$0, 20304(%rsp)
	movq	$0, 20296(%rsp)
	movq	$0, 20352(%rsp)
	movq	$0, 20344(%rsp)
	movq	$0, 20336(%rsp)
	movq	$0, 20328(%rsp)
	movq	$0, 20384(%rsp)
	movq	$0, 20376(%rsp)
	movq	$0, 20368(%rsp)
	movq	$0, 20360(%rsp)
	movq	$0, 20416(%rsp)
	movq	$0, 20408(%rsp)
	movq	$0, 20400(%rsp)
	movq	$0, 20392(%rsp)
	movq	$0, 20448(%rsp)
	movq	$0, 20440(%rsp)
	movq	$0, 20432(%rsp)
	movq	$0, 20424(%rsp)
	movq	$0, 20480(%rsp)
	movq	$0, 20472(%rsp)
	movq	$0, 20464(%rsp)
	movq	$0, 20456(%rsp)
	movq	$0, 20512(%rsp)
	movq	$0, 20504(%rsp)
	movq	$0, 20496(%rsp)
	movq	$0, 20488(%rsp)
	movq	$0, 20544(%rsp)
	movq	$0, 20536(%rsp)
	movq	$0, 20528(%rsp)
	movq	$0, 20520(%rsp)
	movq	$0, 20576(%rsp)
	movq	$0, 20568(%rsp)
	movq	$0, 20560(%rsp)
	movq	$0, 20552(%rsp)
	movq	$0, 20608(%rsp)
	movq	$0, 20600(%rsp)
	movq	$0, 20592(%rsp)
	movq	$0, 20584(%rsp)
	movq	$0, 20640(%rsp)
	movq	$0, 20632(%rsp)
	movq	$0, 20624(%rsp)
	movq	$0, 20616(%rsp)
	movq	$0, 20672(%rsp)
	movq	$0, 20664(%rsp)
	movq	$0, 20656(%rsp)
	movq	$0, 20648(%rsp)
	movq	$0, 20704(%rsp)
	movq	$0, 20696(%rsp)
	movq	$0, 20688(%rsp)
	movq	$0, 20680(%rsp)
	movq	$0, 20736(%rsp)
	movq	$0, 20728(%rsp)
	movq	$0, 20720(%rsp)
	movq	$0, 20712(%rsp)
	movq	$0, 20768(%rsp)
	movq	$0, 20760(%rsp)
	movq	$0, 20752(%rsp)
	movq	$0, 20744(%rsp)
	movq	$0, 20800(%rsp)
	movq	$0, 20792(%rsp)
	movq	$0, 20784(%rsp)
	movq	$0, 20776(%rsp)
	movq	$0, 20832(%rsp)
	movq	$0, 20824(%rsp)
	movq	$0, 20816(%rsp)
	movq	$0, 20808(%rsp)
	movq	$0, 20864(%rsp)
	movq	$0, 20856(%rsp)
	movq	$0, 20848(%rsp)
	movq	$0, 20840(%rsp)
	movq	$0, 20896(%rsp)
	movq	$0, 20888(%rsp)
	movq	$0, 20880(%rsp)
	movq	$0, 20872(%rsp)
	movq	$0, 20928(%rsp)
	movq	$0, 20920(%rsp)
	movq	$0, 20912(%rsp)
	movq	$0, 20904(%rsp)
	movq	$0, 20960(%rsp)
	movq	$0, 20952(%rsp)
	movq	$0, 20944(%rsp)
	movq	$0, 20936(%rsp)
	movq	$0, 20992(%rsp)
	movq	$0, 20984(%rsp)
	movq	$0, 20976(%rsp)
	movq	$0, 20968(%rsp)
	movq	$0, 21024(%rsp)
	movq	$0, 21016(%rsp)
	movq	$0, 21008(%rsp)
	movq	$0, 21000(%rsp)
	movq	$0, 21056(%rsp)
	movq	$0, 21048(%rsp)
	movq	$0, 21040(%rsp)
	movq	$0, 21032(%rsp)
	movq	$0, 21088(%rsp)
	movq	$0, 21080(%rsp)
	movq	$0, 21072(%rsp)
	movq	$0, 21064(%rsp)
	movq	$0, 21120(%rsp)
	movq	$0, 21112(%rsp)
	movq	$0, 21104(%rsp)
	movq	$0, 21096(%rsp)
	movq	$0, 21152(%rsp)
	movq	$0, 21144(%rsp)
	movq	$0, 21136(%rsp)
	movq	$0, 21128(%rsp)
	movq	$0, 21184(%rsp)
	movq	$0, 21176(%rsp)
	movq	$0, 21168(%rsp)
	movq	$0, 21160(%rsp)
	movq	$0, 21216(%rsp)
	movq	$0, 21208(%rsp)
	movq	$0, 21200(%rsp)
	movq	$0, 21192(%rsp)
	movq	$0, 21248(%rsp)
	movq	$0, 21240(%rsp)
	movq	$0, 21232(%rsp)
	movq	$0, 21224(%rsp)
	movq	$0, 21280(%rsp)
	movq	$0, 21272(%rsp)
	movq	$0, 21264(%rsp)
	movq	$0, 21256(%rsp)
	movq	$0, 21312(%rsp)
	movq	$0, 21304(%rsp)
	movq	$0, 21296(%rsp)
	movq	$0, 21288(%rsp)
	movq	$0, 21344(%rsp)
	movq	$0, 21336(%rsp)
	movq	$0, 21328(%rsp)
	movq	$0, 21320(%rsp)
	movq	$0, 21376(%rsp)
	movq	$0, 21368(%rsp)
	movq	$0, 21360(%rsp)
	movq	$0, 21352(%rsp)
	movq	$0, 21408(%rsp)
	movq	$0, 21400(%rsp)
	movq	$0, 21392(%rsp)
	movq	$0, 21384(%rsp)
	movq	$0, 21440(%rsp)
	movq	$0, 21432(%rsp)
	movq	$0, 21424(%rsp)
	movq	$0, 21416(%rsp)
	movq	$0, 21472(%rsp)
	movq	$0, 21464(%rsp)
	movq	$0, 21456(%rsp)
	movq	$0, 21448(%rsp)
	movq	$0, 21496(%rsp)
	movq	$0, 21488(%rsp)
	movq	$0, 21480(%rsp)
	movq	$0, 20016(%rsp)
	movq	$0, 20008(%rsp)
	movq	$0, 20000(%rsp)
	movq	$0, 19992(%rsp)
	movq	$0, 19984(%rsp)
	movq	$0, 19976(%rsp)
	movq	$0, 19968(%rsp)
	movq	$0, 19960(%rsp)
	movq	$0, 19952(%rsp)
	movq	$0, 19944(%rsp)
	movq	$0, 19936(%rsp)
	movq	$0, 19928(%rsp)
	movq	$0, 19920(%rsp)
	movq	$0, 19912(%rsp)
	movq	$0, 19904(%rsp)
	movq	$0, 19896(%rsp)
	movq	$0, 19888(%rsp)
	movq	$0, 19880(%rsp)
	movq	$0, 19872(%rsp)
	movq	$0, 19864(%rsp)
	movq	$0, 19856(%rsp)
	movq	$0, 19848(%rsp)
	movq	$0, 19840(%rsp)
	movq	$0, 19832(%rsp)
	movq	$0, 19824(%rsp)
	movq	$0, 19816(%rsp)
	movq	$0, 19808(%rsp)
	movq	$0, 19800(%rsp)
	movq	$0, 19792(%rsp)
	movq	$0, 19784(%rsp)
	movq	$0, 19776(%rsp)
	movq	$0, 19768(%rsp)
	movq	$0, 19760(%rsp)
	movq	$0, 19752(%rsp)
	movq	$0, 19744(%rsp)
	movq	$0, 19736(%rsp)
	movq	$0, 19728(%rsp)
	movq	$0, 19720(%rsp)
	movq	$0, 19712(%rsp)
	movq	$0, 19704(%rsp)
	movq	$0, 19696(%rsp)
	movq	$0, 19688(%rsp)
	movq	$0, 19680(%rsp)
	movq	$0, 19672(%rsp)
	movq	$0, 19664(%rsp)
	movq	$0, 19656(%rsp)
	movq	$0, 19648(%rsp)
	movq	$0, 19640(%rsp)
	movq	$0, 19632(%rsp)
	movq	$0, 19624(%rsp)
	movq	$0, 19616(%rsp)
	movq	$0, 19608(%rsp)
	movq	$0, 19600(%rsp)
	movq	$0, 19592(%rsp)
	movq	$0, 19584(%rsp)
	movq	$0, 19576(%rsp)
	movq	$0, 19568(%rsp)
	movq	$0, 19560(%rsp)
	movq	$0, 19552(%rsp)
	movq	$0, 19544(%rsp)
	movq	$0, 19536(%rsp)
	movq	$0, 19528(%rsp)
	movq	$0, 19520(%rsp)
	movq	$0, 19512(%rsp)
	movq	$0, 19504(%rsp)
	movq	$0, 19496(%rsp)
	movq	$0, 19488(%rsp)
	movq	$0, 19480(%rsp)
	movq	$0, 19472(%rsp)
	movq	$0, 19464(%rsp)
	movq	$0, 19456(%rsp)
	movq	$0, 19448(%rsp)
	movq	$0, 19440(%rsp)
	movq	$0, 19432(%rsp)
	movq	$0, 19424(%rsp)
	movq	$0, 19416(%rsp)
	movq	$0, 19408(%rsp)
	movq	$0, 19400(%rsp)
	movq	$0, 19392(%rsp)
	movq	$0, 19384(%rsp)
	movq	$0, 19376(%rsp)
	movq	$0, 19368(%rsp)
	movq	$0, 19360(%rsp)
	movq	$0, 19352(%rsp)
	movq	$0, 19344(%rsp)
	movq	$0, 19336(%rsp)
	movq	$0, 19328(%rsp)
	movq	$0, 19320(%rsp)
	movq	$0, 19312(%rsp)
	movq	$0, 19304(%rsp)
	movq	$0, 19296(%rsp)
	movq	$0, 19288(%rsp)
	movq	$0, 19280(%rsp)
	movq	$0, 19272(%rsp)
	movq	$0, 19264(%rsp)
	movq	$0, 19256(%rsp)
	movq	$0, 19248(%rsp)
	movq	$0, 19240(%rsp)
	movq	$0, 19232(%rsp)
	movq	$0, 19224(%rsp)
	movq	$0, 19216(%rsp)
	movq	$0, 19208(%rsp)
	movq	$0, 19200(%rsp)
	movq	$0, 19192(%rsp)
	movq	$0, 19184(%rsp)
	movq	$0, 19176(%rsp)
	movq	$0, 19168(%rsp)
	movq	$0, 19160(%rsp)
	movq	$0, 19152(%rsp)
	movq	$0, 19144(%rsp)
	movq	$0, 19136(%rsp)
	movq	$0, 19128(%rsp)
	movq	$0, 19120(%rsp)
	movq	$0, 19112(%rsp)
	movq	$0, 19104(%rsp)
	movq	$0, 19096(%rsp)
	movq	$0, 19088(%rsp)
	movq	$0, 19080(%rsp)
	movq	$0, 19072(%rsp)
	movq	$0, 19064(%rsp)
	movq	$0, 19056(%rsp)
	movq	$0, 19048(%rsp)
	movq	$0, 19040(%rsp)
	movq	$0, 19032(%rsp)
	movq	$0, 19024(%rsp)
	movq	$0, 19016(%rsp)
	movq	$0, 19008(%rsp)
	movq	$0, 19000(%rsp)
	movq	$0, 18992(%rsp)
	movq	$0, 18984(%rsp)
	movq	$0, 18976(%rsp)
	movq	$0, 18968(%rsp)
	movq	$0, 18960(%rsp)
	movq	$0, 18952(%rsp)
	movq	$0, 18944(%rsp)
	movq	$0, 18936(%rsp)
	movq	$0, 18928(%rsp)
	movq	$0, 18920(%rsp)
	movq	$0, 18912(%rsp)
	movq	$0, 18904(%rsp)
	movq	$0, 18896(%rsp)
	movq	$0, 18888(%rsp)
	movq	$0, 18880(%rsp)
	movq	$0, 18872(%rsp)
	movq	$0, 18864(%rsp)
	movq	$0, 18856(%rsp)
	movq	$0, 18848(%rsp)
	movq	$0, 18840(%rsp)
	movq	$0, 18832(%rsp)
	movq	$0, 18824(%rsp)
	movq	$0, 18816(%rsp)
	movq	$0, 18808(%rsp)
	movq	$0, 18800(%rsp)
	movq	$0, 18792(%rsp)
	movq	$0, 18784(%rsp)
	movq	$0, 18776(%rsp)
	movq	$0, 18768(%rsp)
	movq	$0, 18760(%rsp)
	movq	$0, 18752(%rsp)
	movq	$0, 18744(%rsp)
	movq	$0, 18736(%rsp)
	movq	$0, 18728(%rsp)
	movq	$0, 18720(%rsp)
	movq	$0, 18712(%rsp)
	movq	$0, 18704(%rsp)
	movq	$0, 18696(%rsp)
	movq	$0, 18688(%rsp)
	movq	$0, 18680(%rsp)
	movq	$0, 18672(%rsp)
	movq	$0, 18664(%rsp)
	movq	$0, 18656(%rsp)
	movq	$0, 18648(%rsp)
	movq	$0, 18640(%rsp)
	movq	$0, 18632(%rsp)
	movq	$0, 18624(%rsp)
	movq	$0, 18616(%rsp)
	movq	$0, 18608(%rsp)
	movq	$0, 18600(%rsp)
	movq	$0, 18592(%rsp)
	movq	$0, 18584(%rsp)
	movq	$0, 18576(%rsp)
	movq	$0, 18568(%rsp)
	movq	$0, 18560(%rsp)
	movq	$0, 18552(%rsp)
	movq	$0, 18544(%rsp)
	movq	$0, 18536(%rsp)
	movq	$0, 18528(%rsp)
	movq	$0, 18520(%rsp)
	movq	$0, 18512(%rsp)
	movq	$0, 18504(%rsp)
	movq	$0, 18496(%rsp)
	movq	$0, 18488(%rsp)
	movq	$0, 18480(%rsp)
	movq	$0, 18472(%rsp)
	movq	$0, 18464(%rsp)
	movq	$0, 18456(%rsp)
	movq	$0, 18448(%rsp)
	movq	$0, 18440(%rsp)
	movq	$0, 18432(%rsp)
	movq	$0, 18424(%rsp)
	movq	$0, 18416(%rsp)
	movq	$0, 18408(%rsp)
	movq	$0, 18400(%rsp)
	movq	$0, 18392(%rsp)
	movq	$0, 18384(%rsp)
	movq	$0, 18376(%rsp)
	movq	$0, 18368(%rsp)
	movq	$0, 18360(%rsp)
	movq	$0, 18352(%rsp)
	movq	$0, 18344(%rsp)
	movq	$0, 18336(%rsp)
	movq	$0, 18328(%rsp)
	movq	$0, 18320(%rsp)
	movq	$0, 18312(%rsp)
	movq	$0, 18304(%rsp)
	movq	$0, 18296(%rsp)
	movq	$0, 18288(%rsp)
	movq	$0, 18280(%rsp)
	movq	$0, 18272(%rsp)
	movq	$0, 18264(%rsp)
	movq	$0, 18256(%rsp)
	movq	$0, 18248(%rsp)
	movq	$0, 18240(%rsp)
	movq	$0, 18232(%rsp)
	movq	$0, 18224(%rsp)
	movq	$0, 18216(%rsp)
	movq	$0, 18208(%rsp)
	movq	$0, 18200(%rsp)
	movq	$0, 18192(%rsp)
	movq	$0, 18184(%rsp)
	movq	$0, 18176(%rsp)
	movq	$0, 18168(%rsp)
	movq	$0, 18160(%rsp)
	movq	$0, 18152(%rsp)
	movq	$0, 18144(%rsp)
	movq	$0, 18136(%rsp)
	movq	$0, 18128(%rsp)
	movq	$0, 18120(%rsp)
	movq	$0, 18112(%rsp)
	movq	$0, 18104(%rsp)
	movq	$0, 18096(%rsp)
	movq	$0, 18088(%rsp)
	movq	$0, 18080(%rsp)
	movq	$0, 18072(%rsp)
	movq	$0, 18064(%rsp)
	movq	$0, 18056(%rsp)
	movq	$0, 18048(%rsp)
	movq	$0, 18040(%rsp)
	movq	$0, 18032(%rsp)
	movq	$0, 18024(%rsp)
	movq	$0, 18016(%rsp)
	movq	$0, 18008(%rsp)
	movq	$0, 16032(%rsp)
	movq	$0, 16024(%rsp)
	movq	$0, 16016(%rsp)
	movq	$0, 16008(%rsp)
	movq	$0, 16000(%rsp)
	movq	$0, 15992(%rsp)
	movq	$0, 15984(%rsp)
	movq	$0, 15976(%rsp)
	movq	$0, 15968(%rsp)
	movq	$0, 15960(%rsp)
	movq	$0, 15952(%rsp)
	movq	$0, 15944(%rsp)
	movq	$0, 15936(%rsp)
	movq	$0, 15928(%rsp)
	movq	$0, 15920(%rsp)
	movq	$0, 15912(%rsp)
	movq	$0, 15904(%rsp)
	movq	$0, 15896(%rsp)
	movq	$0, 15888(%rsp)
	movq	$0, 15880(%rsp)
	movq	$0, 15872(%rsp)
	movq	$0, 15864(%rsp)
	movq	$0, 15856(%rsp)
	movq	$0, 15848(%rsp)
	movq	$0, 15840(%rsp)
	movq	$0, 15832(%rsp)
	movq	$0, 15824(%rsp)
	movq	$0, 15816(%rsp)
	movq	$0, 15808(%rsp)
	movq	$0, 15800(%rsp)
	movq	$0, 15792(%rsp)
	movq	$0, 15784(%rsp)
	movq	$0, 15776(%rsp)
	movq	$0, 15768(%rsp)
	movq	$0, 15760(%rsp)
	movq	$0, 15752(%rsp)
	movq	$0, 15744(%rsp)
	movq	$0, 15736(%rsp)
	movq	$0, 15728(%rsp)
	movq	$0, 15720(%rsp)
	movq	$0, 15712(%rsp)
	movq	$0, 15704(%rsp)
	movq	$0, 15696(%rsp)
	movq	$0, 15688(%rsp)
	movq	$0, 15680(%rsp)
	movq	$0, 15672(%rsp)
	movq	$0, 15664(%rsp)
	movq	$0, 15656(%rsp)
	movq	$0, 15648(%rsp)
	movq	$0, 15640(%rsp)
	movq	$0, 15632(%rsp)
	movq	$0, 15624(%rsp)
	movq	$0, 15616(%rsp)
	movq	$0, 15608(%rsp)
	movq	$0, 15600(%rsp)
	movq	$0, 15592(%rsp)
	movq	$0, 15584(%rsp)
	movq	$0, 15576(%rsp)
	movq	$0, 15568(%rsp)
	movq	$0, 15560(%rsp)
	movq	$0, 15552(%rsp)
	movq	$0, 15544(%rsp)
	movq	$0, 15536(%rsp)
	movq	$0, 15528(%rsp)
	movq	$0, 15520(%rsp)
	movq	$0, 15512(%rsp)
	movq	$0, 15504(%rsp)
	movq	$0, 15496(%rsp)
	movq	$0, 15488(%rsp)
	movq	$0, 15480(%rsp)
	movq	$0, 15472(%rsp)
	movq	$0, 15464(%rsp)
	movq	$0, 15456(%rsp)
	movq	$0, 15448(%rsp)
	movq	$0, 15440(%rsp)
	movq	$0, 15432(%rsp)
	movq	$0, 15424(%rsp)
	movq	$0, 15416(%rsp)
	movq	$0, 15408(%rsp)
	movq	$0, 15400(%rsp)
	movq	$0, 15392(%rsp)
	movq	$0, 15384(%rsp)
	movq	$0, 15376(%rsp)
	movq	$0, 15368(%rsp)
	movq	$0, 15360(%rsp)
	movq	$0, 15352(%rsp)
	movq	$0, 15344(%rsp)
	movq	$0, 15336(%rsp)
	movq	$0, 15328(%rsp)
	movq	$0, 15320(%rsp)
	movq	$0, 15312(%rsp)
	movq	$0, 15304(%rsp)
	movq	$0, 15296(%rsp)
	movq	$0, 15288(%rsp)
	movq	$0, 15280(%rsp)
	movq	$0, 15272(%rsp)
	movq	$0, 15264(%rsp)
	movq	$0, 15256(%rsp)
	movq	$0, 15248(%rsp)
	movq	$0, 15240(%rsp)
	movq	$0, 15232(%rsp)
	movq	$0, 15224(%rsp)
	movq	$0, 15216(%rsp)
	movq	$0, 15208(%rsp)
	movq	$0, 15200(%rsp)
	movq	$0, 15192(%rsp)
	movq	$0, 15184(%rsp)
	movq	$0, 15176(%rsp)
	movq	$0, 15168(%rsp)
	movq	$0, 15160(%rsp)
	movq	$0, 15152(%rsp)
	movq	$0, 15144(%rsp)
	movq	$0, 15136(%rsp)
	movq	$0, 15128(%rsp)
	movq	$0, 15120(%rsp)
	movq	$0, 15112(%rsp)
	movq	$0, 15104(%rsp)
	movq	$0, 15096(%rsp)
	movq	$0, 15088(%rsp)
	movq	$0, 15080(%rsp)
	movq	$0, 15072(%rsp)
	movq	$0, 15064(%rsp)
	movq	$0, 15056(%rsp)
	movq	$0, 15048(%rsp)
	movq	$0, 15040(%rsp)
	movq	$0, 15032(%rsp)
	movq	$0, 15024(%rsp)
	movq	$0, 15016(%rsp)
	movq	$0, 15008(%rsp)
	movq	$0, 15000(%rsp)
	movq	$0, 14992(%rsp)
	movq	$0, 14984(%rsp)
	movq	$0, 14976(%rsp)
	movq	$0, 14968(%rsp)
	movq	$0, 14960(%rsp)
	movq	$0, 14952(%rsp)
	movq	$0, 14944(%rsp)
	movq	$0, 14936(%rsp)
	movq	$0, 14928(%rsp)
	movq	$0, 14920(%rsp)
	movq	$0, 14912(%rsp)
	movq	$0, 14904(%rsp)
	movq	$0, 14896(%rsp)
	movq	$0, 14888(%rsp)
	movq	$0, 14880(%rsp)
	movq	$0, 14872(%rsp)
	movq	$0, 14864(%rsp)
	movq	$0, 14856(%rsp)
	movq	$0, 14848(%rsp)
	movq	$0, 14840(%rsp)
	movq	$0, 14832(%rsp)
	movq	$0, 14824(%rsp)
	movq	$0, 14816(%rsp)
	movq	$0, 14808(%rsp)
	movq	$0, 14800(%rsp)
	movq	$0, 14792(%rsp)
	movq	$0, 14784(%rsp)
	movq	$0, 14776(%rsp)
	movq	$0, 14768(%rsp)
	movq	$0, 14760(%rsp)
	movq	$0, 14752(%rsp)
	movq	$0, 14744(%rsp)
	movq	$0, 14736(%rsp)
	movq	$0, 14728(%rsp)
	movq	$0, 14720(%rsp)
	movq	$0, 14712(%rsp)
	movq	$0, 14704(%rsp)
	movq	$0, 14696(%rsp)
	movq	$0, 14688(%rsp)
	movq	$0, 14680(%rsp)
	movq	$0, 14672(%rsp)
	movq	$0, 14664(%rsp)
	movq	$0, 14656(%rsp)
	movq	$0, 14648(%rsp)
	movq	$0, 14640(%rsp)
	movq	$0, 14632(%rsp)
	movq	$0, 14624(%rsp)
	movq	$0, 14616(%rsp)
	movq	$0, 14608(%rsp)
	movq	$0, 14600(%rsp)
	movq	$0, 14592(%rsp)
	movq	$0, 14584(%rsp)
	movq	$0, 14576(%rsp)
	movq	$0, 14568(%rsp)
	movq	$0, 14560(%rsp)
	movq	$0, 14552(%rsp)
	movq	$0, 14544(%rsp)
	movq	$0, 14536(%rsp)
	movq	$0, 14528(%rsp)
	movq	$0, 14520(%rsp)
	movq	$0, 14512(%rsp)
	movq	$0, 14504(%rsp)
	movq	$0, 14496(%rsp)
	movq	$0, 14488(%rsp)
	movq	$0, 14480(%rsp)
	movq	$0, 14472(%rsp)
	movq	$0, 14464(%rsp)
	movq	$0, 14456(%rsp)
	movq	$0, 14448(%rsp)
	movq	$0, 14440(%rsp)
	movq	$0, 14432(%rsp)
	movq	$0, 14424(%rsp)
	movq	$0, 14416(%rsp)
	movq	$0, 14408(%rsp)
	movq	$0, 14400(%rsp)
	movq	$0, 14392(%rsp)
	movq	$0, 14384(%rsp)
	movq	$0, 14376(%rsp)
	movq	$0, 14368(%rsp)
	movq	$0, 14360(%rsp)
	movq	$0, 14352(%rsp)
	movq	$0, 14344(%rsp)
	movq	$0, 14336(%rsp)
	movq	$0, 14328(%rsp)
	movq	$0, 14320(%rsp)
	movq	$0, 14312(%rsp)
	movq	$0, 14304(%rsp)
	movq	$0, 14296(%rsp)
	movq	$0, 14288(%rsp)
	movq	$0, 14280(%rsp)
	movq	$0, 14272(%rsp)
	movq	$0, 14264(%rsp)
	movq	$0, 14256(%rsp)
	movq	$0, 14248(%rsp)
	movq	$0, 14240(%rsp)
	movq	$0, 14232(%rsp)
	movq	$0, 14224(%rsp)
	movq	$0, 14216(%rsp)
	movq	$0, 14208(%rsp)
	movq	$0, 14200(%rsp)
	movq	$0, 14192(%rsp)
	movq	$0, 14184(%rsp)
	movq	$0, 14176(%rsp)
	movq	$0, 14168(%rsp)
	movq	$0, 14160(%rsp)
	movq	$0, 14152(%rsp)
	movq	$0, 14144(%rsp)
	movq	$0, 14136(%rsp)
	movq	$0, 14128(%rsp)
	movq	$0, 14120(%rsp)
	movq	$0, 14112(%rsp)
	movq	$0, 14104(%rsp)
	movq	$0, 14096(%rsp)
	movq	$0, 14088(%rsp)
	movq	$0, 14080(%rsp)
	movq	$0, 14072(%rsp)
	movq	$0, 14064(%rsp)
	movq	$0, 14056(%rsp)
	movq	$0, 14048(%rsp)
	movq	$0, 14040(%rsp)
	movq	$0, 14032(%rsp)
	movq	$0, 14024(%rsp)
	movq	$0, 14016(%rsp)
	movq	$0, 14008(%rsp)
	movq	$0, 14000(%rsp)
	movq	$0, 13992(%rsp)
	movq	$0, 13984(%rsp)
	movq	$0, 13976(%rsp)
	movq	$0, 11992(%rsp)
	movq	$0, 8048(%rsp)
	movq	$0, 8040(%rsp)
	movq	$0, 8080(%rsp)
	movq	$0, 8072(%rsp)
	movq	$0, 8064(%rsp)
	movq	$0, 8056(%rsp)
	movq	$0, 8112(%rsp)
	movq	$0, 8104(%rsp)
	movq	$0, 8096(%rsp)
	movq	$0, 8088(%rsp)
	movq	$0, 8144(%rsp)
	movq	$0, 8136(%rsp)
	movq	$0, 8128(%rsp)
	movq	$0, 8120(%rsp)
	movq	$0, 8176(%rsp)
	movq	$0, 8168(%rsp)
	movq	$0, 8160(%rsp)
	movq	$0, 8152(%rsp)
	movq	$0, 8208(%rsp)
	movq	$0, 8200(%rsp)
	movq	$0, 8192(%rsp)
	movq	$0, 8184(%rsp)
	movq	$0, 8240(%rsp)
	movq	$0, 8232(%rsp)
	movq	$0, 8224(%rsp)
	movq	$0, 8216(%rsp)
	movq	$0, 8272(%rsp)
	movq	$0, 8264(%rsp)
	movq	$0, 8256(%rsp)
	movq	$0, 8248(%rsp)
	movq	$0, 8304(%rsp)
	movq	$0, 8296(%rsp)
	movq	$0, 8288(%rsp)
	movq	$0, 8280(%rsp)
	movq	$0, 8336(%rsp)
	movq	$0, 8328(%rsp)
	movq	$0, 8320(%rsp)
	movq	$0, 8312(%rsp)
	movq	$0, 8368(%rsp)
	movq	$0, 8360(%rsp)
	movq	$0, 8352(%rsp)
	movq	$0, 8344(%rsp)
	movq	$0, 8400(%rsp)
	movq	$0, 8392(%rsp)
	movq	$0, 8384(%rsp)
	movq	$0, 8376(%rsp)
	movq	$0, 8432(%rsp)
	movq	$0, 8424(%rsp)
	movq	$0, 8416(%rsp)
	movq	$0, 8408(%rsp)
	movq	$0, 8464(%rsp)
	movq	$0, 8456(%rsp)
	movq	$0, 8448(%rsp)
	movq	$0, 8440(%rsp)
	movq	$0, 8496(%rsp)
	movq	$0, 8488(%rsp)
	movq	$0, 8480(%rsp)
	movq	$0, 8472(%rsp)
	movq	$0, 8528(%rsp)
	movq	$0, 8520(%rsp)
	movq	$0, 8512(%rsp)
	movq	$0, 8504(%rsp)
	movq	$0, 8560(%rsp)
	movq	$0, 8552(%rsp)
	movq	$0, 8544(%rsp)
	movq	$0, 8536(%rsp)
	movq	$0, 8592(%rsp)
	movq	$0, 8584(%rsp)
	movq	$0, 8576(%rsp)
	movq	$0, 8568(%rsp)
	movq	$0, 8624(%rsp)
	movq	$0, 8616(%rsp)
	movq	$0, 8608(%rsp)
	movq	$0, 8600(%rsp)
	movq	$0, 8656(%rsp)
	movq	$0, 8648(%rsp)
	movq	$0, 8640(%rsp)
	movq	$0, 8632(%rsp)
	movq	$0, 8688(%rsp)
	movq	$0, 8680(%rsp)
	movq	$0, 8672(%rsp)
	movq	$0, 8664(%rsp)
	movq	$0, 8720(%rsp)
	movq	$0, 8712(%rsp)
	movq	$0, 8704(%rsp)
	movq	$0, 8696(%rsp)
	movq	$0, 8752(%rsp)
	movq	$0, 8744(%rsp)
	movq	$0, 8736(%rsp)
	movq	$0, 8728(%rsp)
	movq	$0, 8784(%rsp)
	movq	$0, 8776(%rsp)
	movq	$0, 8768(%rsp)
	movq	$0, 8760(%rsp)
	movq	$0, 8816(%rsp)
	movq	$0, 8808(%rsp)
	movq	$0, 8800(%rsp)
	movq	$0, 8792(%rsp)
	movq	$0, 8848(%rsp)
	movq	$0, 8840(%rsp)
	movq	$0, 8832(%rsp)
	movq	$0, 8824(%rsp)
	movq	$0, 8880(%rsp)
	movq	$0, 8872(%rsp)
	movq	$0, 8864(%rsp)
	movq	$0, 8856(%rsp)
	movq	$0, 8912(%rsp)
	movq	$0, 8904(%rsp)
	movq	$0, 8896(%rsp)
	movq	$0, 8888(%rsp)
	movq	$0, 8944(%rsp)
	movq	$0, 8936(%rsp)
	movq	$0, 8928(%rsp)
	movq	$0, 8920(%rsp)
	movq	$0, 8976(%rsp)
	movq	$0, 8968(%rsp)
	movq	$0, 8960(%rsp)
	movq	$0, 8952(%rsp)
	movq	$0, 9008(%rsp)
	movq	$0, 9000(%rsp)
	movq	$0, 8992(%rsp)
	movq	$0, 8984(%rsp)
	movq	$0, 9040(%rsp)
	movq	$0, 9032(%rsp)
	movq	$0, 9024(%rsp)
	movq	$0, 9016(%rsp)
	movq	$0, 9072(%rsp)
	movq	$0, 9064(%rsp)
	movq	$0, 9056(%rsp)
	movq	$0, 9048(%rsp)
	movq	$0, 9104(%rsp)
	movq	$0, 9096(%rsp)
	movq	$0, 9088(%rsp)
	movq	$0, 9080(%rsp)
	movq	$0, 9136(%rsp)
	movq	$0, 9128(%rsp)
	movq	$0, 9120(%rsp)
	movq	$0, 9112(%rsp)
	movq	$0, 9168(%rsp)
	movq	$0, 9160(%rsp)
	movq	$0, 9152(%rsp)
	movq	$0, 9144(%rsp)
	movq	$0, 9200(%rsp)
	movq	$0, 9192(%rsp)
	movq	$0, 9184(%rsp)
	movq	$0, 9176(%rsp)
	movq	$0, 9232(%rsp)
	movq	$0, 9224(%rsp)
	movq	$0, 9216(%rsp)
	movq	$0, 9208(%rsp)
	movq	$0, 9264(%rsp)
	movq	$0, 9256(%rsp)
	movq	$0, 9248(%rsp)
	movq	$0, 9240(%rsp)
	movq	$0, 9296(%rsp)
	movq	$0, 9288(%rsp)
	movq	$0, 9280(%rsp)
	movq	$0, 9272(%rsp)
	movq	$0, 9328(%rsp)
	movq	$0, 9320(%rsp)
	movq	$0, 9312(%rsp)
	movq	$0, 9304(%rsp)
	movq	$0, 9360(%rsp)
	movq	$0, 9352(%rsp)
	movq	$0, 9344(%rsp)
	movq	$0, 9336(%rsp)
	movq	$0, 9392(%rsp)
	movq	$0, 9384(%rsp)
	movq	$0, 9376(%rsp)
	movq	$0, 9368(%rsp)
	movq	$0, 9424(%rsp)
	movq	$0, 9416(%rsp)
	movq	$0, 9408(%rsp)
	movq	$0, 9400(%rsp)
	movq	$0, 9456(%rsp)
	movq	$0, 9448(%rsp)
	movq	$0, 9440(%rsp)
	movq	$0, 9432(%rsp)
	movq	$0, 9488(%rsp)
	movq	$0, 9480(%rsp)
	movq	$0, 9472(%rsp)
	movq	$0, 9464(%rsp)
	movq	$0, 9520(%rsp)
	movq	$0, 9512(%rsp)
	movq	$0, 9504(%rsp)
	movq	$0, 9496(%rsp)
	movq	$0, 9552(%rsp)
	movq	$0, 9544(%rsp)
	movq	$0, 9536(%rsp)
	movq	$0, 9528(%rsp)
	movq	$0, 9584(%rsp)
	movq	$0, 9576(%rsp)
	movq	$0, 9568(%rsp)
	movq	$0, 9560(%rsp)
	movq	$0, 9616(%rsp)
	movq	$0, 9608(%rsp)
	movq	$0, 9600(%rsp)
	movq	$0, 9592(%rsp)
	movq	$0, 9648(%rsp)
	movq	$0, 9640(%rsp)
	movq	$0, 9632(%rsp)
	movq	$0, 9624(%rsp)
	movq	$0, 9680(%rsp)
	movq	$0, 9672(%rsp)
	movq	$0, 9664(%rsp)
	movq	$0, 9656(%rsp)
	movq	$0, 9712(%rsp)
	movq	$0, 9704(%rsp)
	movq	$0, 9696(%rsp)
	movq	$0, 9688(%rsp)
	movq	$0, 9744(%rsp)
	movq	$0, 9736(%rsp)
	movq	$0, 9728(%rsp)
	movq	$0, 9720(%rsp)
	movq	$0, 9776(%rsp)
	movq	$0, 9768(%rsp)
	movq	$0, 9760(%rsp)
	movq	$0, 9752(%rsp)
	movq	$0, 9808(%rsp)
	movq	$0, 9800(%rsp)
	movq	$0, 9792(%rsp)
	movq	$0, 9784(%rsp)
	movq	$0, 9840(%rsp)
	movq	$0, 9832(%rsp)
	movq	$0, 9824(%rsp)
	movq	$0, 9816(%rsp)
	movq	$0, 9872(%rsp)
	movq	$0, 9864(%rsp)
	movq	$0, 9856(%rsp)
	movq	$0, 9848(%rsp)
	movq	$0, 9904(%rsp)
	movq	$0, 9896(%rsp)
	movq	$0, 9888(%rsp)
	movq	$0, 9880(%rsp)
	movq	$0, 9936(%rsp)
	movq	$0, 9928(%rsp)
	movq	$0, 9920(%rsp)
	movq	$0, 9912(%rsp)
	movq	$0, 9968(%rsp)
	movq	$0, 9960(%rsp)
	movq	$0, 9952(%rsp)
	movq	$0, 9944(%rsp)
	movq	$0, 12024(%rsp)
	movq	$0, 9992(%rsp)
	movq	$0, 9984(%rsp)
	movq	$0, 9976(%rsp)
	movq	$0, 12056(%rsp)
	movq	$0, 12048(%rsp)
	movq	$0, 12040(%rsp)
	movq	$0, 12032(%rsp)
	movq	$0, 12088(%rsp)
	movq	$0, 12080(%rsp)
	movq	$0, 12072(%rsp)
	movq	$0, 12064(%rsp)
	movq	$0, 12120(%rsp)
	movq	$0, 12112(%rsp)
	movq	$0, 12104(%rsp)
	movq	$0, 12096(%rsp)
	movq	$0, 12152(%rsp)
	movq	$0, 12144(%rsp)
	movq	$0, 12136(%rsp)
	movq	$0, 12128(%rsp)
	movq	$0, 12184(%rsp)
	movq	$0, 12176(%rsp)
	movq	$0, 12168(%rsp)
	movq	$0, 12160(%rsp)
	movq	$0, 12216(%rsp)
	movq	$0, 12208(%rsp)
	movq	$0, 12200(%rsp)
	movq	$0, 12192(%rsp)
	movq	$0, 12248(%rsp)
	movq	$0, 12240(%rsp)
	movq	$0, 12232(%rsp)
	movq	$0, 12224(%rsp)
	movq	$0, 12280(%rsp)
	movq	$0, 12272(%rsp)
	movq	$0, 12264(%rsp)
	movq	$0, 12256(%rsp)
	movq	$0, 12312(%rsp)
	movq	$0, 12304(%rsp)
	movq	$0, 12296(%rsp)
	movq	$0, 12288(%rsp)
	movq	$0, 12344(%rsp)
	movq	$0, 12336(%rsp)
	movq	$0, 12328(%rsp)
	movq	$0, 12320(%rsp)
	movq	$0, 12376(%rsp)
	movq	$0, 12368(%rsp)
	movq	$0, 12360(%rsp)
	movq	$0, 12352(%rsp)
	movq	$0, 12408(%rsp)
	movq	$0, 12400(%rsp)
	movq	$0, 12392(%rsp)
	movq	$0, 12384(%rsp)
	movq	$0, 12440(%rsp)
	movq	$0, 12432(%rsp)
	movq	$0, 12424(%rsp)
	movq	$0, 12416(%rsp)
	movq	$0, 12472(%rsp)
	movq	$0, 12464(%rsp)
	movq	$0, 12456(%rsp)
	movq	$0, 12448(%rsp)
	movq	$0, 12504(%rsp)
	movq	$0, 12496(%rsp)
	movq	$0, 12488(%rsp)
	movq	$0, 12480(%rsp)
	movq	$0, 12536(%rsp)
	movq	$0, 12528(%rsp)
	movq	$0, 12520(%rsp)
	movq	$0, 12512(%rsp)
	movq	$0, 12568(%rsp)
	movq	$0, 12560(%rsp)
	movq	$0, 12552(%rsp)
	movq	$0, 12544(%rsp)
	movq	$0, 12600(%rsp)
	movq	$0, 12592(%rsp)
	movq	$0, 12584(%rsp)
	movq	$0, 12576(%rsp)
	movq	$0, 12632(%rsp)
	movq	$0, 12624(%rsp)
	movq	$0, 12616(%rsp)
	movq	$0, 12608(%rsp)
	movq	$0, 12664(%rsp)
	movq	$0, 12656(%rsp)
	movq	$0, 12648(%rsp)
	movq	$0, 12640(%rsp)
	movq	$0, 12696(%rsp)
	movq	$0, 12688(%rsp)
	movq	$0, 12680(%rsp)
	movq	$0, 12672(%rsp)
	movq	$0, 12728(%rsp)
	movq	$0, 12720(%rsp)
	movq	$0, 12712(%rsp)
	movq	$0, 12704(%rsp)
	movq	$0, 12760(%rsp)
	movq	$0, 12752(%rsp)
	movq	$0, 12744(%rsp)
	movq	$0, 12736(%rsp)
	movq	$0, 12792(%rsp)
	movq	$0, 12784(%rsp)
	movq	$0, 12776(%rsp)
	movq	$0, 12768(%rsp)
	movq	$0, 12824(%rsp)
	movq	$0, 12816(%rsp)
	movq	$0, 12808(%rsp)
	movq	$0, 12800(%rsp)
	movq	$0, 12856(%rsp)
	movq	$0, 12848(%rsp)
	movq	$0, 12840(%rsp)
	movq	$0, 12832(%rsp)
	movq	$0, 12888(%rsp)
	movq	$0, 12880(%rsp)
	movq	$0, 12872(%rsp)
	movq	$0, 12864(%rsp)
	movq	$0, 12920(%rsp)
	movq	$0, 12912(%rsp)
	movq	$0, 12904(%rsp)
	movq	$0, 12896(%rsp)
	movq	$0, 12952(%rsp)
	movq	$0, 12944(%rsp)
	movq	$0, 12936(%rsp)
	movq	$0, 12928(%rsp)
	movq	$0, 12984(%rsp)
	movq	$0, 12976(%rsp)
	movq	$0, 12968(%rsp)
	movq	$0, 12960(%rsp)
	movq	$0, 13016(%rsp)
	movq	$0, 13008(%rsp)
	movq	$0, 13000(%rsp)
	movq	$0, 12992(%rsp)
	movq	$0, 13048(%rsp)
	movq	$0, 13040(%rsp)
	movq	$0, 13032(%rsp)
	movq	$0, 13024(%rsp)
	movq	$0, 13080(%rsp)
	movq	$0, 13072(%rsp)
	movq	$0, 13064(%rsp)
	movq	$0, 13056(%rsp)
	movq	$0, 13112(%rsp)
	movq	$0, 13104(%rsp)
	movq	$0, 13096(%rsp)
	movq	$0, 13088(%rsp)
	movq	$0, 13144(%rsp)
	movq	$0, 13136(%rsp)
	movq	$0, 13128(%rsp)
	movq	$0, 13120(%rsp)
	movq	$0, 13176(%rsp)
	movq	$0, 13168(%rsp)
	movq	$0, 13160(%rsp)
	movq	$0, 13152(%rsp)
	movq	$0, 13208(%rsp)
	movq	$0, 13200(%rsp)
	movq	$0, 13192(%rsp)
	movq	$0, 13184(%rsp)
	movq	$0, 13240(%rsp)
	movq	$0, 13232(%rsp)
	movq	$0, 13224(%rsp)
	movq	$0, 13216(%rsp)
	movq	$0, 13272(%rsp)
	movq	$0, 13264(%rsp)
	movq	$0, 13256(%rsp)
	movq	$0, 13248(%rsp)
	movq	$0, 13304(%rsp)
	movq	$0, 13296(%rsp)
	movq	$0, 13288(%rsp)
	movq	$0, 13280(%rsp)
	movq	$0, 13336(%rsp)
	movq	$0, 13328(%rsp)
	movq	$0, 13320(%rsp)
	movq	$0, 13312(%rsp)
	movq	$0, 13368(%rsp)
	movq	$0, 13360(%rsp)
	movq	$0, 13352(%rsp)
	movq	$0, 13344(%rsp)
	movq	$0, 13400(%rsp)
	movq	$0, 13392(%rsp)
	movq	$0, 13384(%rsp)
	movq	$0, 13376(%rsp)
	movq	$0, 13432(%rsp)
	movq	$0, 13424(%rsp)
	movq	$0, 13416(%rsp)
	movq	$0, 13408(%rsp)
	movq	$0, 13464(%rsp)
	movq	$0, 13456(%rsp)
	movq	$0, 13448(%rsp)
	movq	$0, 13440(%rsp)
	movq	$0, 13496(%rsp)
	movq	$0, 13488(%rsp)
	movq	$0, 13480(%rsp)
	movq	$0, 13472(%rsp)
	movq	$0, 13528(%rsp)
	movq	$0, 13520(%rsp)
	movq	$0, 13512(%rsp)
	movq	$0, 13504(%rsp)
	movq	$0, 13560(%rsp)
	movq	$0, 13552(%rsp)
	movq	$0, 13544(%rsp)
	movq	$0, 13536(%rsp)
	movq	$0, 13592(%rsp)
	movq	$0, 13584(%rsp)
	movq	$0, 13576(%rsp)
	movq	$0, 13568(%rsp)
	movq	$0, 13624(%rsp)
	movq	$0, 13616(%rsp)
	movq	$0, 13608(%rsp)
	movq	$0, 13600(%rsp)
	movq	$0, 13656(%rsp)
	movq	$0, 13648(%rsp)
	movq	$0, 13640(%rsp)
	movq	$0, 13632(%rsp)
	movq	$0, 13688(%rsp)
	movq	$0, 13680(%rsp)
	movq	$0, 13672(%rsp)
	movq	$0, 13664(%rsp)
	movq	$0, 13720(%rsp)
	movq	$0, 13712(%rsp)
	movq	$0, 13704(%rsp)
	movq	$0, 13696(%rsp)
	movq	$0, 13752(%rsp)
	movq	$0, 13744(%rsp)
	movq	$0, 13736(%rsp)
	movq	$0, 13728(%rsp)
	movq	$0, 13784(%rsp)
	movq	$0, 13776(%rsp)
	movq	$0, 13768(%rsp)
	movq	$0, 13760(%rsp)
	movq	$0, 13816(%rsp)
	movq	$0, 13808(%rsp)
	movq	$0, 13800(%rsp)
	movq	$0, 13792(%rsp)
	movq	$0, 13848(%rsp)
	movq	$0, 13840(%rsp)
	movq	$0, 13832(%rsp)
	movq	$0, 13824(%rsp)
	movq	$0, 13880(%rsp)
	movq	$0, 13872(%rsp)
	movq	$0, 13864(%rsp)
	movq	$0, 13856(%rsp)
	movq	$0, 13912(%rsp)
	movq	$0, 13904(%rsp)
	movq	$0, 13896(%rsp)
	movq	$0, 13888(%rsp)
	movq	$0, 13944(%rsp)
	movq	$0, 13936(%rsp)
	movq	$0, 13928(%rsp)
	movq	$0, 13920(%rsp)
	movq	$0, 13968(%rsp)
	movq	$0, 13960(%rsp)
	movq	$0, 13952(%rsp)
	movq	$0, 12016(%rsp)
	movq	$0, 12008(%rsp)
	movq	$0, 12000(%rsp)
	movq	$0, 11984(%rsp)
	movq	$0, 11976(%rsp)
	movq	$0, 11968(%rsp)
	movq	$0, 11960(%rsp)
	movq	$0, 11952(%rsp)
	movq	$0, 11944(%rsp)
	movq	$0, 11936(%rsp)
	movq	$0, 11928(%rsp)
	movq	$0, 11920(%rsp)
	movq	$0, 11912(%rsp)
	movq	$0, 11904(%rsp)
	movq	$0, 11896(%rsp)
	movq	$0, 11888(%rsp)
	movq	$0, 11880(%rsp)
	movq	$0, 11872(%rsp)
	movq	$0, 11864(%rsp)
	movq	$0, 11856(%rsp)
	movq	$0, 11848(%rsp)
	movq	$0, 11840(%rsp)
	movq	$0, 11832(%rsp)
	movq	$0, 11824(%rsp)
	movq	$0, 11816(%rsp)
	movq	$0, 11808(%rsp)
	movq	$0, 11800(%rsp)
	movq	$0, 11792(%rsp)
	movq	$0, 11784(%rsp)
	movq	$0, 11776(%rsp)
	movq	$0, 11768(%rsp)
	movq	$0, 11760(%rsp)
	movq	$0, 11752(%rsp)
	movq	$0, 11744(%rsp)
	movq	$0, 11736(%rsp)
	movq	$0, 11728(%rsp)
	movq	$0, 11720(%rsp)
	movq	$0, 11712(%rsp)
	movq	$0, 11704(%rsp)
	movq	$0, 11696(%rsp)
	movq	$0, 11688(%rsp)
	movq	$0, 11680(%rsp)
	movq	$0, 11672(%rsp)
	movq	$0, 11664(%rsp)
	movq	$0, 11656(%rsp)
	movq	$0, 11648(%rsp)
	movq	$0, 11640(%rsp)
	movq	$0, 11632(%rsp)
	movq	$0, 11624(%rsp)
	movq	$0, 11616(%rsp)
	movq	$0, 11608(%rsp)
	movq	$0, 11600(%rsp)
	movq	$0, 11592(%rsp)
	movq	$0, 11584(%rsp)
	movq	$0, 11576(%rsp)
	movq	$0, 11568(%rsp)
	movq	$0, 11560(%rsp)
	movq	$0, 11552(%rsp)
	movq	$0, 11544(%rsp)
	movq	$0, 11536(%rsp)
	movq	$0, 11528(%rsp)
	movq	$0, 11520(%rsp)
	movq	$0, 11512(%rsp)
	movq	$0, 11504(%rsp)
	movq	$0, 11496(%rsp)
	movq	$0, 11488(%rsp)
	movq	$0, 11480(%rsp)
	movq	$0, 11472(%rsp)
	movq	$0, 11464(%rsp)
	movq	$0, 11456(%rsp)
	movq	$0, 11448(%rsp)
	movq	$0, 11440(%rsp)
	movq	$0, 11432(%rsp)
	movq	$0, 11424(%rsp)
	movq	$0, 11416(%rsp)
	movq	$0, 11408(%rsp)
	movq	$0, 11400(%rsp)
	movq	$0, 11392(%rsp)
	movq	$0, 11384(%rsp)
	movq	$0, 11376(%rsp)
	movq	$0, 11368(%rsp)
	movq	$0, 11360(%rsp)
	movq	$0, 11352(%rsp)
	movq	$0, 11344(%rsp)
	movq	$0, 11336(%rsp)
	movq	$0, 11328(%rsp)
	movq	$0, 11320(%rsp)
	movq	$0, 11312(%rsp)
	movq	$0, 11304(%rsp)
	movq	$0, 11296(%rsp)
	movq	$0, 11288(%rsp)
	movq	$0, 11280(%rsp)
	movq	$0, 11272(%rsp)
	movq	$0, 11264(%rsp)
	movq	$0, 11256(%rsp)
	movq	$0, 11248(%rsp)
	movq	$0, 11240(%rsp)
	movq	$0, 11232(%rsp)
	movq	$0, 11224(%rsp)
	movq	$0, 11216(%rsp)
	movq	$0, 11208(%rsp)
	movq	$0, 11200(%rsp)
	movq	$0, 11192(%rsp)
	movq	$0, 11184(%rsp)
	movq	$0, 11176(%rsp)
	movq	$0, 11168(%rsp)
	movq	$0, 11160(%rsp)
	movq	$0, 11152(%rsp)
	movq	$0, 11144(%rsp)
	movq	$0, 11136(%rsp)
	movq	$0, 11128(%rsp)
	movq	$0, 11120(%rsp)
	movq	$0, 11112(%rsp)
	movq	$0, 11104(%rsp)
	movq	$0, 11096(%rsp)
	movq	$0, 11088(%rsp)
	movq	$0, 11080(%rsp)
	movq	$0, 11072(%rsp)
	movq	$0, 11064(%rsp)
	movq	$0, 11056(%rsp)
	movq	$0, 11048(%rsp)
	movq	$0, 11040(%rsp)
	movq	$0, 11032(%rsp)
	movq	$0, 11024(%rsp)
	movq	$0, 11016(%rsp)
	movq	$0, 11008(%rsp)
	movq	$0, 11000(%rsp)
	movq	$0, 10992(%rsp)
	movq	$0, 10984(%rsp)
	movq	$0, 10976(%rsp)
	movq	$0, 10968(%rsp)
	movq	$0, 10960(%rsp)
	movq	$0, 10952(%rsp)
	movq	$0, 10944(%rsp)
	movq	$0, 10936(%rsp)
	movq	$0, 10928(%rsp)
	movq	$0, 10920(%rsp)
	movq	$0, 10912(%rsp)
	movq	$0, 10904(%rsp)
	movq	$0, 10896(%rsp)
	movq	$0, 10888(%rsp)
	movq	$0, 10880(%rsp)
	movq	$0, 10872(%rsp)
	movq	$0, 10864(%rsp)
	movq	$0, 10856(%rsp)
	movq	$0, 10848(%rsp)
	movq	$0, 10840(%rsp)
	movq	$0, 10832(%rsp)
	movq	$0, 10824(%rsp)
	movq	$0, 10816(%rsp)
	movq	$0, 10808(%rsp)
	movq	$0, 10800(%rsp)
	movq	$0, 10792(%rsp)
	movq	$0, 10784(%rsp)
	movq	$0, 10776(%rsp)
	movq	$0, 10768(%rsp)
	movq	$0, 10760(%rsp)
	movq	$0, 10752(%rsp)
	movq	$0, 10744(%rsp)
	movq	$0, 10736(%rsp)
	movq	$0, 10728(%rsp)
	movq	$0, 10720(%rsp)
	movq	$0, 10712(%rsp)
	movq	$0, 10704(%rsp)
	movq	$0, 10696(%rsp)
	movq	$0, 10688(%rsp)
	movq	$0, 10680(%rsp)
	movq	$0, 10672(%rsp)
	movq	$0, 10664(%rsp)
	movq	$0, 10656(%rsp)
	movq	$0, 10648(%rsp)
	movq	$0, 10640(%rsp)
	movq	$0, 10632(%rsp)
	movq	$0, 10624(%rsp)
	movq	$0, 10616(%rsp)
	movq	$0, 10608(%rsp)
	movq	$0, 10600(%rsp)
	movq	$0, 10592(%rsp)
	movq	$0, 10584(%rsp)
	movq	$0, 10576(%rsp)
	movq	$0, 10568(%rsp)
	movq	$0, 10560(%rsp)
	movq	$0, 10552(%rsp)
	movq	$0, 10544(%rsp)
	movq	$0, 10536(%rsp)
	movq	$0, 10528(%rsp)
	movq	$0, 10520(%rsp)
	movq	$0, 10512(%rsp)
	movq	$0, 10504(%rsp)
	movq	$0, 10496(%rsp)
	movq	$0, 10488(%rsp)
	movq	$0, 10480(%rsp)
	movq	$0, 10472(%rsp)
	movq	$0, 10464(%rsp)
	movq	$0, 10456(%rsp)
	movq	$0, 10448(%rsp)
	movq	$0, 10440(%rsp)
	movq	$0, 10432(%rsp)
	movq	$0, 10424(%rsp)
	movq	$0, 10416(%rsp)
	movq	$0, 10408(%rsp)
	movq	$0, 10400(%rsp)
	movq	$0, 10392(%rsp)
	movq	$0, 10384(%rsp)
	movq	$0, 10376(%rsp)
	movq	$0, 10368(%rsp)
	movq	$0, 10360(%rsp)
	movq	$0, 10352(%rsp)
	movq	$0, 10344(%rsp)
	movq	$0, 10336(%rsp)
	movq	$0, 10328(%rsp)
	movq	$0, 10320(%rsp)
	movq	$0, 10312(%rsp)
	movq	$0, 10304(%rsp)
	movq	$0, 10296(%rsp)
	movq	$0, 10288(%rsp)
	movq	$0, 10280(%rsp)
	movq	$0, 10272(%rsp)
	movq	$0, 10264(%rsp)
	movq	$0, 10256(%rsp)
	movq	$0, 10248(%rsp)
	movq	$0, 10240(%rsp)
	movq	$0, 10232(%rsp)
	movq	$0, 10224(%rsp)
	movq	$0, 10216(%rsp)
	movq	$0, 10208(%rsp)
	movq	$0, 10200(%rsp)
	movq	$0, 10192(%rsp)
	movq	$0, 10184(%rsp)
	movq	$0, 10176(%rsp)
	movq	$0, 10168(%rsp)
	movq	$0, 10160(%rsp)
	movq	$0, 10152(%rsp)
	movq	$0, 10144(%rsp)
	movq	$0, 10136(%rsp)
	movq	$0, 10128(%rsp)
	movq	$0, 10120(%rsp)
	movq	$0, 10112(%rsp)
	movq	$0, 10104(%rsp)
	movq	$0, 10096(%rsp)
	movq	$0, 10088(%rsp)
	movq	$0, 10080(%rsp)
	movq	$0, 10072(%rsp)
	movq	$0, 10064(%rsp)
	movq	$0, 10056(%rsp)
	movq	$0, 10048(%rsp)
	movq	$0, 10040(%rsp)
	movq	$0, 10032(%rsp)
	movq	$0, 10024(%rsp)
	movq	$0, 10016(%rsp)
	movq	$0, 10008(%rsp)
	movq	$0, 10000(%rsp)
	movq	$0, 8032(%rsp)
	movq	$0, 8024(%rsp)
	movq	$0, 8016(%rsp)
	movq	$0, 8008(%rsp)
	movq	$0, 8000(%rsp)
	movq	$0, 7992(%rsp)
	movq	$0, 7984(%rsp)
	movq	$0, 7976(%rsp)
	movq	$0, 7968(%rsp)
	movq	$0, 7960(%rsp)
	movq	$0, 7952(%rsp)
	movq	$0, 7944(%rsp)
	movq	$0, 7936(%rsp)
	movq	$0, 7928(%rsp)
	movq	$0, 7920(%rsp)
	movq	$0, 7912(%rsp)
	movq	$0, 7904(%rsp)
	movq	$0, 7896(%rsp)
	movq	$0, 7888(%rsp)
	movq	$0, 7880(%rsp)
	movq	$0, 7872(%rsp)
	movq	$0, 7864(%rsp)
	movq	$0, 7856(%rsp)
	movq	$0, 7848(%rsp)
	movq	$0, 7840(%rsp)
	movq	$0, 7832(%rsp)
	movq	$0, 7824(%rsp)
	movq	$0, 7816(%rsp)
	movq	$0, 7808(%rsp)
	movq	$0, 7800(%rsp)
	movq	$0, 7792(%rsp)
	movq	$0, 7784(%rsp)
	movq	$0, 7776(%rsp)
	movq	$0, 7768(%rsp)
	movq	$0, 7760(%rsp)
	movq	$0, 7752(%rsp)
	movq	$0, 7744(%rsp)
	movq	$0, 7736(%rsp)
	movq	$0, 7728(%rsp)
	movq	$0, 7720(%rsp)
	movq	$0, 7712(%rsp)
	movq	$0, 7704(%rsp)
	movq	$0, 7696(%rsp)
	movq	$0, 7688(%rsp)
	movq	$0, 7680(%rsp)
	movq	$0, 7672(%rsp)
	movq	$0, 7664(%rsp)
	movq	$0, 7656(%rsp)
	movq	$0, 7648(%rsp)
	movq	$0, 7640(%rsp)
	movq	$0, 7632(%rsp)
	movq	$0, 7624(%rsp)
	movq	$0, 7616(%rsp)
	movq	$0, 7608(%rsp)
	movq	$0, 7600(%rsp)
	movq	$0, 7592(%rsp)
	movq	$0, 7584(%rsp)
	movq	$0, 7576(%rsp)
	movq	$0, 7568(%rsp)
	movq	$0, 7560(%rsp)
	movq	$0, 7552(%rsp)
	movq	$0, 7544(%rsp)
	movq	$0, 7536(%rsp)
	movq	$0, 7528(%rsp)
	movq	$0, 7520(%rsp)
	movq	$0, 7512(%rsp)
	movq	$0, 7504(%rsp)
	movq	$0, 7496(%rsp)
	movq	$0, 7488(%rsp)
	movq	$0, 7480(%rsp)
	movq	$0, 7472(%rsp)
	movq	$0, 7464(%rsp)
	movq	$0, 7456(%rsp)
	movq	$0, 7448(%rsp)
	movq	$0, 7440(%rsp)
	movq	$0, 7432(%rsp)
	movq	$0, 7424(%rsp)
	movq	$0, 7416(%rsp)
	movq	$0, 7408(%rsp)
	movq	$0, 7400(%rsp)
	movq	$0, 7392(%rsp)
	movq	$0, 7384(%rsp)
	movq	$0, 7376(%rsp)
	movq	$0, 7368(%rsp)
	movq	$0, 7360(%rsp)
	movq	$0, 7352(%rsp)
	movq	$0, 7344(%rsp)
	movq	$0, 7336(%rsp)
	movq	$0, 7328(%rsp)
	movq	$0, 7320(%rsp)
	movq	$0, 7312(%rsp)
	movq	$0, 7304(%rsp)
	movq	$0, 7296(%rsp)
	movq	$0, 7288(%rsp)
	movq	$0, 7280(%rsp)
	movq	$0, 7272(%rsp)
	movq	$0, 7264(%rsp)
	movq	$0, 7256(%rsp)
	movq	$0, 7248(%rsp)
	movq	$0, 7240(%rsp)
	movq	$0, 7232(%rsp)
	movq	$0, 7224(%rsp)
	movq	$0, 7216(%rsp)
	movq	$0, 7208(%rsp)
	movq	$0, 7200(%rsp)
	movq	$0, 7192(%rsp)
	movq	$0, 7184(%rsp)
	movq	$0, 7176(%rsp)
	movq	$0, 7168(%rsp)
	movq	$0, 7160(%rsp)
	movq	$0, 7152(%rsp)
	movq	$0, 7144(%rsp)
	movq	$0, 7136(%rsp)
	movq	$0, 7128(%rsp)
	movq	$0, 7120(%rsp)
	movq	$0, 7112(%rsp)
	movq	$0, 7104(%rsp)
	movq	$0, 7096(%rsp)
	movq	$0, 7088(%rsp)
	movq	$0, 7080(%rsp)
	movq	$0, 7072(%rsp)
	movq	$0, 7064(%rsp)
	movq	$0, 7056(%rsp)
	movq	$0, 7048(%rsp)
	movq	$0, 7040(%rsp)
	movq	$0, 7032(%rsp)
	movq	$0, 7024(%rsp)
	movq	$0, 7016(%rsp)
	movq	$0, 7008(%rsp)
	movq	$0, 7000(%rsp)
	movq	$0, 6992(%rsp)
	movq	$0, 6984(%rsp)
	movq	$0, 6976(%rsp)
	movq	$0, 6968(%rsp)
	movq	$0, 6960(%rsp)
	movq	$0, 6952(%rsp)
	movq	$0, 6944(%rsp)
	movq	$0, 6936(%rsp)
	movq	$0, 6928(%rsp)
	movq	$0, 6920(%rsp)
	movq	$0, 6912(%rsp)
	movq	$0, 6904(%rsp)
	movq	$0, 6896(%rsp)
	movq	$0, 6888(%rsp)
	movq	$0, 6880(%rsp)
	movq	$0, 6872(%rsp)
	movq	$0, 6864(%rsp)
	movq	$0, 6856(%rsp)
	movq	$0, 6848(%rsp)
	movq	$0, 6840(%rsp)
	movq	$0, 6832(%rsp)
	movq	$0, 6824(%rsp)
	movq	$0, 6816(%rsp)
	movq	$0, 6808(%rsp)
	movq	$0, 6800(%rsp)
	movq	$0, 6792(%rsp)
	movq	$0, 6784(%rsp)
	movq	$0, 6776(%rsp)
	movq	$0, 6768(%rsp)
	movq	$0, 6760(%rsp)
	movq	$0, 6752(%rsp)
	movq	$0, 6744(%rsp)
	movq	$0, 6736(%rsp)
	movq	$0, 6728(%rsp)
	movq	$0, 6720(%rsp)
	movq	$0, 6712(%rsp)
	movq	$0, 6704(%rsp)
	movq	$0, 6696(%rsp)
	movq	$0, 6688(%rsp)
	movq	$0, 6680(%rsp)
	movq	$0, 6672(%rsp)
	movq	$0, 6664(%rsp)
	movq	$0, 6656(%rsp)
	movq	$0, 6648(%rsp)
	movq	$0, 6640(%rsp)
	movq	$0, 6632(%rsp)
	movq	$0, 6624(%rsp)
	movq	$0, 6616(%rsp)
	movq	$0, 6608(%rsp)
	movq	$0, 6600(%rsp)
	movq	$0, 6592(%rsp)
	movq	$0, 6584(%rsp)
	movq	$0, 6576(%rsp)
	movq	$0, 6568(%rsp)
	movq	$0, 6560(%rsp)
	movq	$0, 6552(%rsp)
	movq	$0, 6544(%rsp)
	movq	$0, 6536(%rsp)
	movq	$0, 6528(%rsp)
	movq	$0, 6520(%rsp)
	movq	$0, 6512(%rsp)
	movq	$0, 6504(%rsp)
	movq	$0, 6496(%rsp)
	movq	$0, 6488(%rsp)
	movq	$0, 6480(%rsp)
	movq	$0, 6472(%rsp)
	movq	$0, 6464(%rsp)
	movq	$0, 6456(%rsp)
	movq	$0, 6448(%rsp)
	movq	$0, 6440(%rsp)
	movq	$0, 6432(%rsp)
	movq	$0, 6424(%rsp)
	movq	$0, 6416(%rsp)
	movq	$0, 6408(%rsp)
	movq	$0, 6400(%rsp)
	movq	$0, 6392(%rsp)
	movq	$0, 6384(%rsp)
	movq	$0, 6376(%rsp)
	movq	$0, 6368(%rsp)
	movq	$0, 6360(%rsp)
	movq	$0, 6352(%rsp)
	movq	$0, 6344(%rsp)
	movq	$0, 6336(%rsp)
	movq	$0, 6328(%rsp)
	movq	$0, 6320(%rsp)
	movq	$0, 6312(%rsp)
	movq	$0, 6304(%rsp)
	movq	$0, 6296(%rsp)
	movq	$0, 6288(%rsp)
	movq	$0, 6280(%rsp)
	movq	$0, 6272(%rsp)
	movq	$0, 6264(%rsp)
	movq	$0, 6256(%rsp)
	movq	$0, 6248(%rsp)
	movq	$0, 6240(%rsp)
	movq	$0, 6232(%rsp)
	movq	$0, 6224(%rsp)
	movq	$0, 6216(%rsp)
	movq	$0, 6208(%rsp)
	movq	$0, 6200(%rsp)
	movq	$0, 6192(%rsp)
	movq	$0, 6184(%rsp)
	movq	$0, 6176(%rsp)
	movq	$0, 6168(%rsp)
	movq	$0, 6160(%rsp)
	movq	$0, 6152(%rsp)
	movq	$0, 6144(%rsp)
	movq	$0, 6136(%rsp)
	movq	$0, 6128(%rsp)
	movq	$0, 6120(%rsp)
	movq	$0, 6112(%rsp)
	movq	$0, 6104(%rsp)
	movq	$0, 6096(%rsp)
	movq	$0, 6088(%rsp)
	movq	$0, 6080(%rsp)
	movq	$0, 6072(%rsp)
	movq	$0, 6064(%rsp)
	movq	$0, 6056(%rsp)
	movq	$0, 6048(%rsp)
	movq	$0, 6040(%rsp)
	movq	$0, 6032(%rsp)
	movq	$0, 6024(%rsp)
	movq	$0, 6016(%rsp)
	movq	$0, 6008(%rsp)
	movq	$0, 6000(%rsp)
	movq	$0, 5992(%rsp)
	movq	$0, 5984(%rsp)
	movq	$0, 5976(%rsp)
	movq	$0, 3992(%rsp)
	movq	$0, 2064(%rsp)
	movq	$0, 2056(%rsp)
	movq	$0, 2096(%rsp)
	movq	$0, 2088(%rsp)
	movq	$0, 2080(%rsp)
	movq	$0, 2072(%rsp)
	movq	$0, 2128(%rsp)
	movq	$0, 2120(%rsp)
	movq	$0, 2112(%rsp)
	movq	$0, 2104(%rsp)
	movq	$0, 2160(%rsp)
	movq	$0, 2152(%rsp)
	movq	$0, 2144(%rsp)
	movq	$0, 2136(%rsp)
	movq	$0, 2192(%rsp)
	movq	$0, 2184(%rsp)
	movq	$0, 2176(%rsp)
	movq	$0, 2168(%rsp)
	movq	$0, 2224(%rsp)
	movq	$0, 2216(%rsp)
	movq	$0, 2208(%rsp)
	movq	$0, 2200(%rsp)
	movq	$0, 2256(%rsp)
	movq	$0, 2248(%rsp)
	movq	$0, 2240(%rsp)
	movq	$0, 2232(%rsp)
	movq	$0, 2288(%rsp)
	movq	$0, 2280(%rsp)
	movq	$0, 2272(%rsp)
	movq	$0, 2264(%rsp)
	movq	$0, 2320(%rsp)
	movq	$0, 2312(%rsp)
	movq	$0, 2304(%rsp)
	movq	$0, 2296(%rsp)
	movq	$0, 2352(%rsp)
	movq	$0, 2344(%rsp)
	movq	$0, 2336(%rsp)
	movq	$0, 2328(%rsp)
	movq	$0, 2384(%rsp)
	movq	$0, 2376(%rsp)
	movq	$0, 2368(%rsp)
	movq	$0, 2360(%rsp)
	movq	$0, 2416(%rsp)
	movq	$0, 2408(%rsp)
	movq	$0, 2400(%rsp)
	movq	$0, 2392(%rsp)
	movq	$0, 2448(%rsp)
	movq	$0, 2440(%rsp)
	movq	$0, 2432(%rsp)
	movq	$0, 2424(%rsp)
	movq	$0, 2480(%rsp)
	movq	$0, 2472(%rsp)
	movq	$0, 2464(%rsp)
	movq	$0, 2456(%rsp)
	movq	$0, 2512(%rsp)
	movq	$0, 2504(%rsp)
	movq	$0, 2496(%rsp)
	movq	$0, 2488(%rsp)
	movq	$0, 2544(%rsp)
	movq	$0, 2536(%rsp)
	movq	$0, 2528(%rsp)
	movq	$0, 2520(%rsp)
	movq	$0, 2576(%rsp)
	movq	$0, 2568(%rsp)
	movq	$0, 2560(%rsp)
	movq	$0, 2552(%rsp)
	movq	$0, 2608(%rsp)
	movq	$0, 2600(%rsp)
	movq	$0, 2592(%rsp)
	movq	$0, 2584(%rsp)
	movq	$0, 2640(%rsp)
	movq	$0, 2632(%rsp)
	movq	$0, 2624(%rsp)
	movq	$0, 2616(%rsp)
	movq	$0, 2672(%rsp)
	movq	$0, 2664(%rsp)
	movq	$0, 2656(%rsp)
	movq	$0, 2648(%rsp)
	movq	$0, 2704(%rsp)
	movq	$0, 2696(%rsp)
	movq	$0, 2688(%rsp)
	movq	$0, 2680(%rsp)
	movq	$0, 2736(%rsp)
	movq	$0, 2728(%rsp)
	movq	$0, 2720(%rsp)
	movq	$0, 2712(%rsp)
	movq	$0, 2768(%rsp)
	movq	$0, 2760(%rsp)
	movq	$0, 2752(%rsp)
	movq	$0, 2744(%rsp)
	movq	$0, 2800(%rsp)
	movq	$0, 2792(%rsp)
	movq	$0, 2784(%rsp)
	movq	$0, 2776(%rsp)
	movq	$0, 2832(%rsp)
	movq	$0, 2824(%rsp)
	movq	$0, 2816(%rsp)
	movq	$0, 2808(%rsp)
	movq	$0, 2864(%rsp)
	movq	$0, 2856(%rsp)
	movq	$0, 2848(%rsp)
	movq	$0, 2840(%rsp)
	movq	$0, 2896(%rsp)
	movq	$0, 2888(%rsp)
	movq	$0, 2880(%rsp)
	movq	$0, 2872(%rsp)
	movq	$0, 2928(%rsp)
	movq	$0, 2920(%rsp)
	movq	$0, 2912(%rsp)
	movq	$0, 2904(%rsp)
	movq	$0, 2960(%rsp)
	movq	$0, 2952(%rsp)
	movq	$0, 2944(%rsp)
	movq	$0, 2936(%rsp)
	movq	$0, 2992(%rsp)
	movq	$0, 2984(%rsp)
	movq	$0, 2976(%rsp)
	movq	$0, 2968(%rsp)
	movq	$0, 3024(%rsp)
	movq	$0, 3016(%rsp)
	movq	$0, 3008(%rsp)
	movq	$0, 3000(%rsp)
	movq	$0, 3056(%rsp)
	movq	$0, 3048(%rsp)
	movq	$0, 3040(%rsp)
	movq	$0, 3032(%rsp)
	movq	$0, 3088(%rsp)
	movq	$0, 3080(%rsp)
	movq	$0, 3072(%rsp)
	movq	$0, 3064(%rsp)
	movq	$0, 3120(%rsp)
	movq	$0, 3112(%rsp)
	movq	$0, 3104(%rsp)
	movq	$0, 3096(%rsp)
	movq	$0, 3152(%rsp)
	movq	$0, 3144(%rsp)
	movq	$0, 3136(%rsp)
	movq	$0, 3128(%rsp)
	movq	$0, 3184(%rsp)
	movq	$0, 3176(%rsp)
	movq	$0, 3168(%rsp)
	movq	$0, 3160(%rsp)
	movq	$0, 3216(%rsp)
	movq	$0, 3208(%rsp)
	movq	$0, 3200(%rsp)
	movq	$0, 3192(%rsp)
	movq	$0, 3248(%rsp)
	movq	$0, 3240(%rsp)
	movq	$0, 3232(%rsp)
	movq	$0, 3224(%rsp)
	movq	$0, 3280(%rsp)
	movq	$0, 3272(%rsp)
	movq	$0, 3264(%rsp)
	movq	$0, 3256(%rsp)
	movq	$0, 3312(%rsp)
	movq	$0, 3304(%rsp)
	movq	$0, 3296(%rsp)
	movq	$0, 3288(%rsp)
	movq	$0, 3344(%rsp)
	movq	$0, 3336(%rsp)
	movq	$0, 3328(%rsp)
	movq	$0, 3320(%rsp)
	movq	$0, 3376(%rsp)
	movq	$0, 3368(%rsp)
	movq	$0, 3360(%rsp)
	movq	$0, 3352(%rsp)
	movq	$0, 3408(%rsp)
	movq	$0, 3400(%rsp)
	movq	$0, 3392(%rsp)
	movq	$0, 3384(%rsp)
	movq	$0, 3440(%rsp)
	movq	$0, 3432(%rsp)
	movq	$0, 3424(%rsp)
	movq	$0, 3416(%rsp)
	movq	$0, 3472(%rsp)
	movq	$0, 3464(%rsp)
	movq	$0, 3456(%rsp)
	movq	$0, 3448(%rsp)
	movq	$0, 3504(%rsp)
	movq	$0, 3496(%rsp)
	movq	$0, 3488(%rsp)
	movq	$0, 3480(%rsp)
	movq	$0, 3536(%rsp)
	movq	$0, 3528(%rsp)
	movq	$0, 3520(%rsp)
	movq	$0, 3512(%rsp)
	movq	$0, 3568(%rsp)
	movq	$0, 3560(%rsp)
	movq	$0, 3552(%rsp)
	movq	$0, 3544(%rsp)
	movq	$0, 3600(%rsp)
	movq	$0, 3592(%rsp)
	movq	$0, 3584(%rsp)
	movq	$0, 3576(%rsp)
	movq	$0, 3632(%rsp)
	movq	$0, 3624(%rsp)
	movq	$0, 3616(%rsp)
	movq	$0, 3608(%rsp)
	movq	$0, 3664(%rsp)
	movq	$0, 3656(%rsp)
	movq	$0, 3648(%rsp)
	movq	$0, 3640(%rsp)
	movq	$0, 3696(%rsp)
	movq	$0, 3688(%rsp)
	movq	$0, 3680(%rsp)
	movq	$0, 3672(%rsp)
	movq	$0, 3728(%rsp)
	movq	$0, 3720(%rsp)
	movq	$0, 3712(%rsp)
	movq	$0, 3704(%rsp)
	movq	$0, 3760(%rsp)
	movq	$0, 3752(%rsp)
	movq	$0, 3744(%rsp)
	movq	$0, 3736(%rsp)
	movq	$0, 3792(%rsp)
	movq	$0, 3784(%rsp)
	movq	$0, 3776(%rsp)
	movq	$0, 3768(%rsp)
	movq	$0, 3824(%rsp)
	movq	$0, 3816(%rsp)
	movq	$0, 3808(%rsp)
	movq	$0, 3800(%rsp)
	movq	$0, 3856(%rsp)
	movq	$0, 3848(%rsp)
	movq	$0, 3840(%rsp)
	movq	$0, 3832(%rsp)
	movq	$0, 3888(%rsp)
	movq	$0, 3880(%rsp)
	movq	$0, 3872(%rsp)
	movq	$0, 3864(%rsp)
	movq	$0, 3920(%rsp)
	movq	$0, 3912(%rsp)
	movq	$0, 3904(%rsp)
	movq	$0, 3896(%rsp)
	movq	$0, 3952(%rsp)
	movq	$0, 3944(%rsp)
	movq	$0, 3936(%rsp)
	movq	$0, 3928(%rsp)
	movq	$0, 3984(%rsp)
	movq	$0, 3976(%rsp)
	movq	$0, 3968(%rsp)
	movq	$0, 3960(%rsp)
	movq	$0, 4024(%rsp)
	movq	$0, 4016(%rsp)
	movq	$0, 4008(%rsp)
	movq	$0, 4000(%rsp)
	movq	$0, 4056(%rsp)
	movq	$0, 4048(%rsp)
	movq	$0, 4040(%rsp)
	movq	$0, 4032(%rsp)
	movq	$0, 4088(%rsp)
	movq	$0, 4080(%rsp)
	movq	$0, 4072(%rsp)
	movq	$0, 4064(%rsp)
	movq	$0, 4120(%rsp)
	movq	$0, 4112(%rsp)
	movq	$0, 4104(%rsp)
	movq	$0, 4096(%rsp)
	movq	$0, 4152(%rsp)
	movq	$0, 4144(%rsp)
	movq	$0, 4136(%rsp)
	movq	$0, 4128(%rsp)
	movq	$0, 4184(%rsp)
	movq	$0, 4176(%rsp)
	movq	$0, 4168(%rsp)
	movq	$0, 4160(%rsp)
	movq	$0, 4216(%rsp)
	movq	$0, 4208(%rsp)
	movq	$0, 4200(%rsp)
	movq	$0, 4192(%rsp)
	movq	$0, 4248(%rsp)
	movq	$0, 4240(%rsp)
	movq	$0, 4232(%rsp)
	movq	$0, 4224(%rsp)
	movq	$0, 4280(%rsp)
	movq	$0, 4272(%rsp)
	movq	$0, 4264(%rsp)
	movq	$0, 4256(%rsp)
	movq	$0, 4312(%rsp)
	movq	$0, 4304(%rsp)
	movq	$0, 4296(%rsp)
	movq	$0, 4288(%rsp)
	movq	$0, 4344(%rsp)
	movq	$0, 4336(%rsp)
	movq	$0, 4328(%rsp)
	movq	$0, 4320(%rsp)
	movq	$0, 4376(%rsp)
	movq	$0, 4368(%rsp)
	movq	$0, 4360(%rsp)
	movq	$0, 4352(%rsp)
	movq	$0, 4408(%rsp)
	movq	$0, 4400(%rsp)
	movq	$0, 4392(%rsp)
	movq	$0, 4384(%rsp)
	movq	$0, 4440(%rsp)
	movq	$0, 4432(%rsp)
	movq	$0, 4424(%rsp)
	movq	$0, 4416(%rsp)
	movq	$0, 4472(%rsp)
	movq	$0, 4464(%rsp)
	movq	$0, 4456(%rsp)
	movq	$0, 4448(%rsp)
	movq	$0, 4504(%rsp)
	movq	$0, 4496(%rsp)
	movq	$0, 4488(%rsp)
	movq	$0, 4480(%rsp)
	movq	$0, 4536(%rsp)
	movq	$0, 4528(%rsp)
	movq	$0, 4520(%rsp)
	movq	$0, 4512(%rsp)
	movq	$0, 4568(%rsp)
	movq	$0, 4560(%rsp)
	movq	$0, 4552(%rsp)
	movq	$0, 4544(%rsp)
	movq	$0, 4600(%rsp)
	movq	$0, 4592(%rsp)
	movq	$0, 4584(%rsp)
	movq	$0, 4576(%rsp)
	movq	$0, 4632(%rsp)
	movq	$0, 4624(%rsp)
	movq	$0, 4616(%rsp)
	movq	$0, 4608(%rsp)
	movq	$0, 4664(%rsp)
	movq	$0, 4656(%rsp)
	movq	$0, 4648(%rsp)
	movq	$0, 4640(%rsp)
	movq	$0, 4696(%rsp)
	movq	$0, 4688(%rsp)
	movq	$0, 4680(%rsp)
	movq	$0, 4672(%rsp)
	movq	$0, 4728(%rsp)
	movq	$0, 4720(%rsp)
	movq	$0, 4712(%rsp)
	movq	$0, 4704(%rsp)
	movq	$0, 4760(%rsp)
	movq	$0, 4752(%rsp)
	movq	$0, 4744(%rsp)
	movq	$0, 4736(%rsp)
	movq	$0, 4792(%rsp)
	movq	$0, 4784(%rsp)
	movq	$0, 4776(%rsp)
	movq	$0, 4768(%rsp)
	movq	$0, 4824(%rsp)
	movq	$0, 4816(%rsp)
	movq	$0, 4808(%rsp)
	movq	$0, 4800(%rsp)
	movq	$0, 4856(%rsp)
	movq	$0, 4848(%rsp)
	movq	$0, 4840(%rsp)
	movq	$0, 4832(%rsp)
	movq	$0, 4888(%rsp)
	movq	$0, 4880(%rsp)
	movq	$0, 4872(%rsp)
	movq	$0, 4864(%rsp)
	movq	$0, 4920(%rsp)
	movq	$0, 4912(%rsp)
	movq	$0, 4904(%rsp)
	movq	$0, 4896(%rsp)
	movq	$0, 4952(%rsp)
	movq	$0, 4944(%rsp)
	movq	$0, 4936(%rsp)
	movq	$0, 4928(%rsp)
	movq	$0, 4984(%rsp)
	movq	$0, 4976(%rsp)
	movq	$0, 4968(%rsp)
	movq	$0, 4960(%rsp)
	movq	$0, 5016(%rsp)
	movq	$0, 5008(%rsp)
	movq	$0, 5000(%rsp)
	movq	$0, 4992(%rsp)
	movq	$0, 5048(%rsp)
	movq	$0, 5040(%rsp)
	movq	$0, 5032(%rsp)
	movq	$0, 5024(%rsp)
	movq	$0, 5080(%rsp)
	movq	$0, 5072(%rsp)
	movq	$0, 5064(%rsp)
	movq	$0, 5056(%rsp)
	movq	$0, 5112(%rsp)
	movq	$0, 5104(%rsp)
	movq	$0, 5096(%rsp)
	movq	$0, 5088(%rsp)
	movq	$0, 5144(%rsp)
	movq	$0, 5136(%rsp)
	movq	$0, 5128(%rsp)
	movq	$0, 5120(%rsp)
	movq	$0, 5176(%rsp)
	movq	$0, 5168(%rsp)
	movq	$0, 5160(%rsp)
	movq	$0, 5152(%rsp)
	movq	$0, 5208(%rsp)
	movq	$0, 5200(%rsp)
	movq	$0, 5192(%rsp)
	movq	$0, 5184(%rsp)
	movq	$0, 5240(%rsp)
	movq	$0, 5232(%rsp)
	movq	$0, 5224(%rsp)
	movq	$0, 5216(%rsp)
	movq	$0, 5272(%rsp)
	movq	$0, 5264(%rsp)
	movq	$0, 5256(%rsp)
	movq	$0, 5248(%rsp)
	movq	$0, 5304(%rsp)
	movq	$0, 5296(%rsp)
	movq	$0, 5288(%rsp)
	movq	$0, 5280(%rsp)
	movq	$0, 5336(%rsp)
	movq	$0, 5328(%rsp)
	movq	$0, 5320(%rsp)
	movq	$0, 5312(%rsp)
	movq	$0, 5368(%rsp)
	movq	$0, 5360(%rsp)
	movq	$0, 5352(%rsp)
	movq	$0, 5344(%rsp)
	movq	$0, 5400(%rsp)
	movq	$0, 5392(%rsp)
	movq	$0, 5384(%rsp)
	movq	$0, 5376(%rsp)
	movq	$0, 5432(%rsp)
	movq	$0, 5424(%rsp)
	movq	$0, 5416(%rsp)
	movq	$0, 5408(%rsp)
	movq	$0, 5464(%rsp)
	movq	$0, 5456(%rsp)
	movq	$0, 5448(%rsp)
	movq	$0, 5440(%rsp)
	movq	$0, 5496(%rsp)
	movq	$0, 5488(%rsp)
	movq	$0, 5480(%rsp)
	movq	$0, 5472(%rsp)
	movq	$0, 5528(%rsp)
	movq	$0, 5520(%rsp)
	movq	$0, 5512(%rsp)
	movq	$0, 5504(%rsp)
	movq	$0, 5560(%rsp)
	movq	$0, 5552(%rsp)
	movq	$0, 5544(%rsp)
	movq	$0, 5536(%rsp)
	movq	$0, 5592(%rsp)
	movq	$0, 5584(%rsp)
	movq	$0, 5576(%rsp)
	movq	$0, 5568(%rsp)
	movq	$0, 5624(%rsp)
	movq	$0, 5616(%rsp)
	movq	$0, 5608(%rsp)
	movq	$0, 5600(%rsp)
	movq	$0, 5656(%rsp)
	movq	$0, 5648(%rsp)
	movq	$0, 5640(%rsp)
	movq	$0, 5632(%rsp)
	movq	$0, 5688(%rsp)
	movq	$0, 5680(%rsp)
	movq	$0, 5672(%rsp)
	movq	$0, 5664(%rsp)
	movq	$0, 5720(%rsp)
	movq	$0, 5712(%rsp)
	movq	$0, 5704(%rsp)
	movq	$0, 5696(%rsp)
	movq	$0, 5752(%rsp)
	movq	$0, 5744(%rsp)
	movq	$0, 5736(%rsp)
	movq	$0, 5728(%rsp)
	movq	$0, 5784(%rsp)
	movq	$0, 5776(%rsp)
	movq	$0, 5768(%rsp)
	movq	$0, 5760(%rsp)
	movq	$0, 5816(%rsp)
	movq	$0, 5808(%rsp)
	movq	$0, 5800(%rsp)
	movq	$0, 5792(%rsp)
	movq	$0, 5848(%rsp)
	movq	$0, 5840(%rsp)
	movq	$0, 5832(%rsp)
	movq	$0, 5824(%rsp)
	movq	$0, 5880(%rsp)
	movq	$0, 5872(%rsp)
	movq	$0, 5864(%rsp)
	movq	$0, 5856(%rsp)
	movq	$0, 5912(%rsp)
	movq	$0, 5904(%rsp)
	movq	$0, 5896(%rsp)
	movq	$0, 5888(%rsp)
	movq	$0, 5944(%rsp)
	movq	$0, 5936(%rsp)
	movq	$0, 5928(%rsp)
	movq	$0, 5920(%rsp)
	movq	$0, 5968(%rsp)
	movq	$0, 5960(%rsp)
	movq	$0, 5952(%rsp)
	movq	$0, 2048(%rsp)
	movq	$0, 2040(%rsp)
	movq	$0, 2032(%rsp)
	movq	$0, 2024(%rsp)
	movq	$0, 2016(%rsp)
	movq	$0, 2008(%rsp)
	movq	$0, 2000(%rsp)
	movq	$0, 1992(%rsp)
	movq	$0, 1984(%rsp)
	movq	$0, 1976(%rsp)
	movq	$0, 1968(%rsp)
	movq	$0, 1960(%rsp)
	movq	$0, 1952(%rsp)
	movq	$0, 1944(%rsp)
	movq	$0, 1936(%rsp)
	movq	$0, 1928(%rsp)
	movq	$0, 1920(%rsp)
	movq	$0, 1912(%rsp)
	movq	$0, 1904(%rsp)
	movq	$0, 1896(%rsp)
	movq	$0, 1888(%rsp)
	movq	$0, 1880(%rsp)
	movq	$0, 1872(%rsp)
	movq	$0, 1864(%rsp)
	movq	$0, 1856(%rsp)
	movq	$0, 1848(%rsp)
	movq	$0, 1840(%rsp)
	movq	$0, 1832(%rsp)
	movq	$0, 1824(%rsp)
	movq	$0, 1816(%rsp)
	movq	$0, 1808(%rsp)
	movq	$0, 1800(%rsp)
	movq	$0, 1792(%rsp)
	movq	$0, 1784(%rsp)
	movq	$0, 1776(%rsp)
	movq	$0, 1768(%rsp)
	movq	$0, 1760(%rsp)
	movq	$0, 1752(%rsp)
	movq	$0, 1744(%rsp)
	movq	$0, 1736(%rsp)
	movq	$0, 1728(%rsp)
	movq	$0, 1720(%rsp)
	movq	$0, 1712(%rsp)
	movq	$0, 1704(%rsp)
	movq	$0, 1696(%rsp)
	movq	$0, 1688(%rsp)
	movq	$0, 1680(%rsp)
	movq	$0, 1672(%rsp)
	movq	$0, 1664(%rsp)
	movq	$0, 1656(%rsp)
	movq	$0, 1648(%rsp)
	movq	$0, 1640(%rsp)
	movq	$0, 1632(%rsp)
	movq	$0, 1624(%rsp)
	movq	$0, 1616(%rsp)
	movq	$0, 1608(%rsp)
	movq	$0, 1600(%rsp)
	movq	$0, 1592(%rsp)
	movq	$0, 1584(%rsp)
	movq	$0, 1576(%rsp)
	movq	$0, 1568(%rsp)
	movq	$0, 1560(%rsp)
	movq	$0, 1552(%rsp)
	movq	$0, 1544(%rsp)
	movq	$0, 1536(%rsp)
	movq	$0, 1528(%rsp)
	movq	$0, 1520(%rsp)
	movq	$0, 1512(%rsp)
	movq	$0, 1504(%rsp)
	movq	$0, 1496(%rsp)
	movq	$0, 1488(%rsp)
	movq	$0, 1480(%rsp)
	movq	$0, 1472(%rsp)
	movq	$0, 1464(%rsp)
	movq	$0, 1456(%rsp)
	movq	$0, 1448(%rsp)
	movq	$0, 1440(%rsp)
	movq	$0, 1432(%rsp)
	movq	$0, 1424(%rsp)
	movq	$0, 1416(%rsp)
	movq	$0, 1408(%rsp)
	movq	$0, 1400(%rsp)
	movq	$0, 1392(%rsp)
	movq	$0, 1384(%rsp)
	movq	$0, 1376(%rsp)
	movq	$0, 1368(%rsp)
	movq	$0, 1360(%rsp)
	movq	$0, 1352(%rsp)
	movq	$0, 1344(%rsp)
	movq	$0, 1336(%rsp)
	movq	$0, 1328(%rsp)
	movq	$0, 1320(%rsp)
	movq	$0, 1312(%rsp)
	movq	$0, 1304(%rsp)
	movq	$0, 1296(%rsp)
	movq	$0, 1288(%rsp)
	movq	$0, 1280(%rsp)
	movq	$0, 1272(%rsp)
	movq	$0, 1264(%rsp)
	movq	$0, 1256(%rsp)
	movq	$0, 1248(%rsp)
	movq	$0, 1240(%rsp)
	movq	$0, 1232(%rsp)
	movq	$0, 1224(%rsp)
	movq	$0, 1216(%rsp)
	movq	$0, 1208(%rsp)
	movq	$0, 1200(%rsp)
	movq	$0, 1192(%rsp)
	movq	$0, 1184(%rsp)
	movq	$0, 1176(%rsp)
	movq	$0, 1168(%rsp)
	movq	$0, 1160(%rsp)
	movq	$0, 1152(%rsp)
	movq	$0, 1144(%rsp)
	movq	$0, 1136(%rsp)
	movq	$0, 1128(%rsp)
	movq	$0, 1120(%rsp)
	movq	$0, 1112(%rsp)
	movq	$0, 1104(%rsp)
	movq	$0, 1096(%rsp)
	movq	$0, 1088(%rsp)
	movq	$0, 1080(%rsp)
	movq	$0, 1072(%rsp)
	movq	$0, 1064(%rsp)
	movq	$0, 1056(%rsp)
	movq	$0, 1048(%rsp)
	movq	$0, 1040(%rsp)
	movq	$0, 1032(%rsp)
	movq	$0, 1024(%rsp)
	movq	$0, 1016(%rsp)
	movq	$0, 1008(%rsp)
	movq	$0, 1000(%rsp)
	movq	$0, 992(%rsp)
	movq	$0, 984(%rsp)
	movq	$0, 976(%rsp)
	movq	$0, 968(%rsp)
	movq	$0, 960(%rsp)
	movq	$0, 952(%rsp)
	movq	$0, 944(%rsp)
	movq	$0, 936(%rsp)
	movq	$0, 928(%rsp)
	movq	$0, 920(%rsp)
	movq	$0, 912(%rsp)
	movq	$0, 904(%rsp)
	movq	$0, 896(%rsp)
	movq	$0, 888(%rsp)
	movq	$0, 880(%rsp)
	movq	$0, 872(%rsp)
	movq	$0, 864(%rsp)
	movq	$0, 856(%rsp)
	movq	$0, 848(%rsp)
	movq	$0, 840(%rsp)
	movq	$0, 832(%rsp)
	movq	$0, 824(%rsp)
	movq	$0, 816(%rsp)
	movq	$0, 808(%rsp)
	movq	$0, 800(%rsp)
	movq	$0, 792(%rsp)
	movq	$0, 784(%rsp)
	movq	$0, 776(%rsp)
	movq	$0, 768(%rsp)
	movq	$0, 760(%rsp)
	movq	$0, 752(%rsp)
	movq	$0, 744(%rsp)
	movq	$0, 736(%rsp)
	movq	$0, 728(%rsp)
	movq	$0, 720(%rsp)
	movq	$0, 712(%rsp)
	movq	$0, 704(%rsp)
	movq	$0, 696(%rsp)
	movq	$0, 688(%rsp)
	movq	$0, 680(%rsp)
	movq	$0, 672(%rsp)
	movq	$0, 664(%rsp)
	movq	$0, 656(%rsp)
	movq	$0, 648(%rsp)
	movq	$0, 640(%rsp)
	movq	$0, 632(%rsp)
	movq	$0, 624(%rsp)
	movq	$0, 616(%rsp)
	movq	$0, 608(%rsp)
	movq	$0, 600(%rsp)
	movq	$0, 592(%rsp)
	movq	$0, 584(%rsp)
	movq	$0, 576(%rsp)
	movq	$0, 568(%rsp)
	movq	$0, 560(%rsp)
	movq	$0, 552(%rsp)
	movq	$0, 544(%rsp)
	movq	$0, 536(%rsp)
	movq	$0, 528(%rsp)
	movq	$0, 520(%rsp)
	movq	$0, 512(%rsp)
	movq	$0, 504(%rsp)
	movq	$0, 496(%rsp)
	movq	$0, 488(%rsp)
	movq	$0, 480(%rsp)
	movq	$0, 472(%rsp)
	movq	$0, 464(%rsp)
	movq	$0, 456(%rsp)
	movq	$0, 448(%rsp)
	movq	$0, 440(%rsp)
	movq	$0, 432(%rsp)
	movq	$0, 424(%rsp)
	movq	$0, 416(%rsp)
	movq	$0, 408(%rsp)
	movq	$0, 400(%rsp)
	movq	$0, 392(%rsp)
	movq	$0, 384(%rsp)
	movq	$0, 376(%rsp)
	movq	$0, 368(%rsp)
	movq	$0, 360(%rsp)
	movq	$0, 352(%rsp)
	movq	$0, 344(%rsp)
	movq	$0, 336(%rsp)
	movq	$0, 328(%rsp)
	movq	$0, 320(%rsp)
	movq	$0, 312(%rsp)
	movq	$0, 304(%rsp)
	movq	$0, 296(%rsp)
	movq	$0, 288(%rsp)
	movq	$0, 280(%rsp)
	movq	$0, 272(%rsp)
	movq	$0, 264(%rsp)
	movq	$0, 256(%rsp)
	movq	$0, 248(%rsp)
	movq	$0, 240(%rsp)
	movq	$0, 232(%rsp)
	movq	$0, 224(%rsp)
	movq	$0, 216(%rsp)
	movq	$0, 208(%rsp)
	movq	$0, 200(%rsp)
	movq	$0, 192(%rsp)
	movq	$0, 184(%rsp)
	movq	$0, 176(%rsp)
	movq	$0, 168(%rsp)
	movq	$0, 160(%rsp)
	movq	$0, 152(%rsp)
	movq	$0, 144(%rsp)
	movq	$0, 136(%rsp)
	movq	$0, 128(%rsp)
	movq	$0, 120(%rsp)
	movq	$0, 112(%rsp)
	movq	$0, 104(%rsp)
	movq	$0, 96(%rsp)
	movq	$0, 88(%rsp)
	movq	$0, 80(%rsp)
	movq	$0, 72(%rsp)
	movq	$0, 64(%rsp)
	movq	$0, 56(%rsp)
	movq	$0, 48(%rsp)
	movq	$0, 40(%rsp)
	movq	$0, 32(%rsp)
	movq	$0, 24(%rsp)
	movq	$0, 16(%rsp)
	movq	$0, 8(%rsp)
	movq	$0, (%rsp)
	movl	$40, %edi
	callq	__Znwm
	movq	%rax, %rbx
	movsd	LCPI0_0(%rip), %xmm0    ## xmm0 = mem[0],zero
	movq	%rax, %rdi
	callq	__ZN14altered_carbon2js10ACJsNumberC1Ed
	movq	%rbx, 23512(%rsp)
	movl	$40, %edi
	callq	__Znwm
	movq	%rax, %rbx
	movsd	LCPI0_1(%rip), %xmm0    ## xmm0 = mem[0],zero
	movq	%rax, %rdi
	callq	__ZN14altered_carbon2js10ACJsNumberC1Ed
	movq	%rbx, 23504(%rsp)
	movl	$40, %edi
	callq	__Znwm
	movq	%rax, %rbx
	movsd	LCPI0_2(%rip), %xmm0    ## xmm0 = mem[0],zero
	movq	%rax, %rdi
	callq	__ZN14altered_carbon2js10ACJsNumberC1Ed
	movq	%rbx, 23496(%rsp)
	leaq	23504(%rsp), %rsi
	leaq	23496(%rsp), %rdx
	movl	$122, %edi
	callq	__ZN14altered_carbon2js8binaryOpEiRNSt3__18auto_ptrINS0_9ACJsValueEEES5_
	movq	%rax, 23488(%rsp)
	leaq	23512(%rsp), %rsi
	leaq	23488(%rsp), %rdx
	movl	$119, %edi
	callq	__ZN14altered_carbon2js8binaryOpEiRNSt3__18auto_ptrINS0_9ACJsValueEEES5_
	movq	%rax, 23480(%rsp)
	movl	$40, %edi
	callq	__Znwm
	movq	%rax, %rbx
	movsd	LCPI0_3(%rip), %xmm0    ## xmm0 = mem[0],zero
	movq	%rax, %rdi
	callq	__ZN14altered_carbon2js10ACJsNumberC1Ed
	movq	%rbx, 23472(%rsp)
	movl	$40, %edi
	callq	__Znwm
	movq	%rax, %rbx
	movsd	LCPI0_4(%rip), %xmm0    ## xmm0 = mem[0],zero
	movq	%rax, %rdi
	callq	__ZN14altered_carbon2js10ACJsNumberC1Ed
	movq	%rbx, 23464(%rsp)
	leaq	23472(%rsp), %rsi
	leaq	23464(%rsp), %rdx
	movl	$122, %edi
	callq	__ZN14altered_carbon2js8binaryOpEiRNSt3__18auto_ptrINS0_9ACJsValueEEES5_
	movq	%rax, 23456(%rsp)
	leaq	23480(%rsp), %rsi
	leaq	23456(%rsp), %rdx
	movl	$119, %edi
	callq	__ZN14altered_carbon2js8binaryOpEiRNSt3__18auto_ptrINS0_9ACJsValueEEES5_
	movq	%rax, 23448(%rsp)
	movl	$40, %edi
	callq	__Znwm
	movq	%rax, %rbx
	movsd	LCPI0_5(%rip), %xmm0    ## xmm0 = mem[0],zero
	movq	%rax, %rdi
	callq	__ZN14altered_carbon2js10ACJsNumberC1Ed
	movq	%rbx, 23440(%rsp)
	movl	$40, %edi
	callq	__Znwm
	movq	%rax, %rbx
	movsd	LCPI0_6(%rip), %xmm0    ## xmm0 = mem[0],zero
	movq	%rax, %rdi
	callq	__ZN14altered_carbon2js10ACJsNumberC1Ed
	movq	%rbx, 23432(%rsp)
	leaq	23440(%rsp), %rsi
	leaq	23432(%rsp), %rdx
	movl	$122, %edi
	callq	__ZN14altered_carbon2js8binaryOpEiRNSt3__18auto_ptrINS0_9ACJsValueEEES5_
	movq	%rax, 23424(%rsp)
	leaq	23448(%rsp), %rsi
	leaq	23424(%rsp), %rdx
	movl	$119, %edi
	callq	__ZN14altered_carbon2js8binaryOpEiRNSt3__18auto_ptrINS0_9ACJsValueEEES5_
	movq	%rax, 23416(%rsp)
	movl	$40, %edi
	callq	__Znwm
	movq	%rax, %rbx
	movsd	LCPI0_7(%rip), %xmm0    ## xmm0 = mem[0],zero
	movq	%rax, %rdi
	callq	__ZN14altered_carbon2js10ACJsNumberC1Ed
	movq	%rbx, 23408(%rsp)
	movl	$40, %edi
	callq	__Znwm
	movq	%rax, %rbx
	movsd	LCPI0_8(%rip), %xmm0    ## xmm0 = mem[0],zero
	movq	%rax, %rdi
	callq	__ZN14altered_carbon2js10ACJsNumberC1Ed
	movq	%rbx, 23400(%rsp)
	leaq	23408(%rsp), %rsi
	leaq	23400(%rsp), %rdx
	movl	$122, %edi
	callq	__ZN14altered_carbon2js8binaryOpEiRNSt3__18auto_ptrINS0_9ACJsValueEEES5_
	movq	%rax, 23392(%rsp)
	leaq	23416(%rsp), %rsi
	leaq	23392(%rsp), %rdx
	movl	$119, %edi
	callq	__ZN14altered_carbon2js8binaryOpEiRNSt3__18auto_ptrINS0_9ACJsValueEEES5_
	movq	%rax, 23384(%rsp)
	movl	$40, %edi
	callq	__Znwm
	movq	%rax, %rbx
	movsd	LCPI0_9(%rip), %xmm0    ## xmm0 = mem[0],zero
	movq	%rax, %rdi
	callq	__ZN14altered_carbon2js10ACJsNumberC1Ed
	movq	%rbx, 23376(%rsp)
	movl	$40, %edi
	callq	__Znwm
	movq	%rax, %rbx
	movsd	LCPI0_10(%rip), %xmm0   ## xmm0 = mem[0],zero
	movq	%rax, %rdi
	callq	__ZN14altered_carbon2js10ACJsNumberC1Ed
	movq	%rbx, 23368(%rsp)
	leaq	23376(%rsp), %rsi
	leaq	23368(%rsp), %rdx
	movl	$122, %edi
	callq	__ZN14altered_carbon2js8binaryOpEiRNSt3__18auto_ptrINS0_9ACJsValueEEES5_
	movq	%rax, 23360(%rsp)
	leaq	23384(%rsp), %rsi
	leaq	23360(%rsp), %rdx
	movl	$119, %edi
	callq	__ZN14altered_carbon2js8binaryOpEiRNSt3__18auto_ptrINS0_9ACJsValueEEES5_
	movq	%rax, 23352(%rsp)
	movq	(%rax), %rcx
	movq	%rax, %rdi
	callq	*168(%rcx)
	testb	$1, %al
	je	LBB0_1
## %bb.2:                               ## %ret.rhs
	movl	$40, %edi
	callq	__Znwm
	movq	%rax, %rbx
	movsd	LCPI0_0(%rip), %xmm0    ## xmm0 = mem[0],zero
	movq	%rax, %rdi
	callq	__ZN14altered_carbon2js10ACJsNumberC1Ed
	movq	%rbx, 23344(%rsp)
	movl	$40, %edi
	callq	__Znwm
	movq	%rax, %rbx
	movsd	LCPI0_1(%rip), %xmm0    ## xmm0 = mem[0],zero
	movq	%rax, %rdi
	callq	__ZN14altered_carbon2js10ACJsNumberC1Ed
	movq	%rbx, 23336(%rsp)
	movl	$40, %edi
	callq	__Znwm
	movq	%rax, %rbx
	movsd	LCPI0_2(%rip), %xmm0    ## xmm0 = mem[0],zero
	movq	%rax, %rdi
	callq	__ZN14altered_carbon2js10ACJsNumberC1Ed
	movq	%rbx, 23328(%rsp)
	leaq	23336(%rsp), %rsi
	leaq	23328(%rsp), %rdx
	movl	$122, %edi
	callq	__ZN14altered_carbon2js8binaryOpEiRNSt3__18auto_ptrINS0_9ACJsValueEEES5_
	movq	%rax, 23320(%rsp)
	leaq	23344(%rsp), %rsi
	leaq	23320(%rsp), %rdx
	movl	$119, %edi
	callq	__ZN14altered_carbon2js8binaryOpEiRNSt3__18auto_ptrINS0_9ACJsValueEEES5_
	movq	%rax, 23312(%rsp)
	movl	$40, %edi
	callq	__Znwm
	movq	%rax, %rbx
	movsd	LCPI0_3(%rip), %xmm0    ## xmm0 = mem[0],zero
	movq	%rax, %rdi
	callq	__ZN14altered_carbon2js10ACJsNumberC1Ed
	movq	%rbx, 23304(%rsp)
	movl	$40, %edi
	callq	__Znwm
	movq	%rax, %rbx
	movsd	LCPI0_4(%rip), %xmm0    ## xmm0 = mem[0],zero
	movq	%rax, %rdi
	callq	__ZN14altered_carbon2js10ACJsNumberC1Ed
	movq	%rbx, 23296(%rsp)
	leaq	23304(%rsp), %rsi
	leaq	23296(%rsp), %rdx
	movl	$122, %edi
	callq	__ZN14altered_carbon2js8binaryOpEiRNSt3__18auto_ptrINS0_9ACJsValueEEES5_
	movq	%rax, 23288(%rsp)
	leaq	23312(%rsp), %rsi
	leaq	23288(%rsp), %rdx
	movl	$119, %edi
	callq	__ZN14altered_carbon2js8binaryOpEiRNSt3__18auto_ptrINS0_9ACJsValueEEES5_
	movq	%rax, 23280(%rsp)
	movl	$40, %edi
	callq	__Znwm
	movq	%rax, %rbx
	movsd	LCPI0_5(%rip), %xmm0    ## xmm0 = mem[0],zero
	movq	%rax, %rdi
	callq	__ZN14altered_carbon2js10ACJsNumberC1Ed
	movq	%rbx, 23272(%rsp)
	movl	$40, %edi
	callq	__Znwm
	movq	%rax, %rbx
	movsd	LCPI0_6(%rip), %xmm0    ## xmm0 = mem[0],zero
	movq	%rax, %rdi
	callq	__ZN14altered_carbon2js10ACJsNumberC1Ed
	movq	%rbx, 23264(%rsp)
	leaq	23272(%rsp), %rsi
	leaq	23264(%rsp), %rdx
	movl	$122, %edi
	callq	__ZN14altered_carbon2js8binaryOpEiRNSt3__18auto_ptrINS0_9ACJsValueEEES5_
	movq	%rax, 23256(%rsp)
	leaq	23280(%rsp), %rsi
	leaq	23256(%rsp), %rdx
	movl	$119, %edi
	callq	__ZN14altered_carbon2js8binaryOpEiRNSt3__18auto_ptrINS0_9ACJsValueEEES5_
	movq	%rax, 23248(%rsp)
	movl	$40, %edi
	callq	__Znwm
	movq	%rax, %rbx
	movsd	LCPI0_7(%rip), %xmm0    ## xmm0 = mem[0],zero
	movq	%rax, %rdi
	callq	__ZN14altered_carbon2js10ACJsNumberC1Ed
	movq	%rbx, 23240(%rsp)
	movl	$40, %edi
	callq	__Znwm
	movq	%rax, %rbx
	movsd	LCPI0_8(%rip), %xmm0    ## xmm0 = mem[0],zero
	movq	%rax, %rdi
	callq	__ZN14altered_carbon2js10ACJsNumberC1Ed
	movq	%rbx, 23232(%rsp)
	leaq	23240(%rsp), %rsi
	leaq	23232(%rsp), %rdx
	movl	$122, %edi
	callq	__ZN14altered_carbon2js8binaryOpEiRNSt3__18auto_ptrINS0_9ACJsValueEEES5_
	movq	%rax, 23224(%rsp)
	leaq	23248(%rsp), %rsi
	leaq	23224(%rsp), %rdx
	movl	$119, %edi
	callq	__ZN14altered_carbon2js8binaryOpEiRNSt3__18auto_ptrINS0_9ACJsValueEEES5_
	movq	%rax, 23216(%rsp)
	movl	$40, %edi
	callq	__Znwm
	movq	%rax, %rbx
	movsd	LCPI0_9(%rip), %xmm0    ## xmm0 = mem[0],zero
	movq	%rax, %rdi
	callq	__ZN14altered_carbon2js10ACJsNumberC1Ed
	movq	%rbx, 23208(%rsp)
	movl	$40, %edi
	callq	__Znwm
	movq	%rax, %rbx
	movsd	LCPI0_10(%rip), %xmm0   ## xmm0 = mem[0],zero
	movq	%rax, %rdi
	callq	__ZN14altered_carbon2js10ACJsNumberC1Ed
	movq	%rbx, 23200(%rsp)
	leaq	23208(%rsp), %rsi
	leaq	23200(%rsp), %rdx
	movl	$122, %edi
	callq	__ZN14altered_carbon2js8binaryOpEiRNSt3__18auto_ptrINS0_9ACJsValueEEES5_
	movq	%rax, 23192(%rsp)
	leaq	23216(%rsp), %rsi
	leaq	23192(%rsp), %rdx
	movl	$119, %edi
	callq	__ZN14altered_carbon2js8binaryOpEiRNSt3__18auto_ptrINS0_9ACJsValueEEES5_
	movq	%rax, 23184(%rsp)
	leaq	23184(%rsp), %rbx
	jmp	LBB0_3
LBB0_1:                                 ## %ret.lhs
	leaq	23352(%rsp), %rbx
LBB0_3:                                 ## %ret.op
	movq	%rbx, 24624(%rsp)
	movq	(%rbx), %rdi
	movq	(%rdi), %rax
	callq	*168(%rax)
	testb	$1, %al
	je	LBB0_5
## %bb.4:                               ## %ret.rhs175
	movl	$40, %edi
	callq	__Znwm
	movq	%rax, %rbx
	movsd	LCPI0_0(%rip), %xmm0    ## xmm0 = mem[0],zero
	movq	%rax, %rdi
	callq	__ZN14altered_carbon2js10ACJsNumberC1Ed
	movq	%rbx, 23176(%rsp)
	movl	$40, %edi
	callq	__Znwm
	movq	%rax, %rbx
	movsd	LCPI0_1(%rip), %xmm0    ## xmm0 = mem[0],zero
	movq	%rax, %rdi
	callq	__ZN14altered_carbon2js10ACJsNumberC1Ed
	movq	%rbx, 23168(%rsp)
	movl	$40, %edi
	callq	__Znwm
	movq	%rax, %rbx
	movsd	LCPI0_2(%rip), %xmm0    ## xmm0 = mem[0],zero
	movq	%rax, %rdi
	callq	__ZN14altered_carbon2js10ACJsNumberC1Ed
	movq	%rbx, 23160(%rsp)
	leaq	23168(%rsp), %rsi
	leaq	23160(%rsp), %rdx
	movl	$122, %edi
	callq	__ZN14altered_carbon2js8binaryOpEiRNSt3__18auto_ptrINS0_9ACJsValueEEES5_
	movq	%rax, 23152(%rsp)
	leaq	23176(%rsp), %rsi
	leaq	23152(%rsp), %rdx
	movl	$119, %edi
	callq	__ZN14altered_carbon2js8binaryOpEiRNSt3__18auto_ptrINS0_9ACJsValueEEES5_
	movq	%rax, 23144(%rsp)
	movl	$40, %edi
	callq	__Znwm
	movq	%rax, %rbx
	movsd	LCPI0_3(%rip), %xmm0    ## xmm0 = mem[0],zero
	movq	%rax, %rdi
	callq	__ZN14altered_carbon2js10ACJsNumberC1Ed
	movq	%rbx, 23136(%rsp)
	movl	$40, %edi
	callq	__Znwm
	movq	%rax, %rbx
	movsd	LCPI0_4(%rip), %xmm0    ## xmm0 = mem[0],zero
	movq	%rax, %rdi
	callq	__ZN14altered_carbon2js10ACJsNumberC1Ed
	movq	%rbx, 23128(%rsp)
	leaq	23136(%rsp), %rsi
	leaq	23128(%rsp), %rdx
	movl	$122, %edi
	callq	__ZN14altered_carbon2js8binaryOpEiRNSt3__18auto_ptrINS0_9ACJsValueEEES5_
	movq	%rax, 23120(%rsp)
	leaq	23144(%rsp), %rsi
	leaq	23120(%rsp), %rdx
	movl	$119, %edi
	callq	__ZN14altered_carbon2js8binaryOpEiRNSt3__18auto_ptrINS0_9ACJsValueEEES5_
	movq	%rax, 23112(%rsp)
	movl	$40, %edi
	callq	__Znwm
	movq	%rax, %rbx
	movsd	LCPI0_5(%rip), %xmm0    ## xmm0 = mem[0],zero
	movq	%rax, %rdi
	callq	__ZN14altered_carbon2js10ACJsNumberC1Ed
	movq	%rbx, 23104(%rsp)
	movl	$40, %edi
	callq	__Znwm
	movq	%rax, %rbx
	movsd	LCPI0_6(%rip), %xmm0    ## xmm0 = mem[0],zero
	movq	%rax, %rdi
	callq	__ZN14altered_carbon2js10ACJsNumberC1Ed
	movq	%rbx, 23096(%rsp)
	leaq	23104(%rsp), %rsi
	leaq	23096(%rsp), %rdx
	movl	$122, %edi
	callq	__ZN14altered_carbon2js8binaryOpEiRNSt3__18auto_ptrINS0_9ACJsValueEEES5_
	movq	%rax, 23088(%rsp)
	leaq	23112(%rsp), %rsi
	leaq	23088(%rsp), %rdx
	movl	$119, %edi
	callq	__ZN14altered_carbon2js8binaryOpEiRNSt3__18auto_ptrINS0_9ACJsValueEEES5_
	movq	%rax, 23080(%rsp)
	movl	$40, %edi
	callq	__Znwm
	movq	%rax, %rbx
	movsd	LCPI0_7(%rip), %xmm0    ## xmm0 = mem[0],zero
	movq	%rax, %rdi
	callq	__ZN14altered_carbon2js10ACJsNumberC1Ed
	movq	%rbx, 23072(%rsp)
	movl	$40, %edi
	callq	__Znwm
	movq	%rax, %rbx
	movsd	LCPI0_8(%rip), %xmm0    ## xmm0 = mem[0],zero
	movq	%rax, %rdi
	callq	__ZN14altered_carbon2js10ACJsNumberC1Ed
	movq	%rbx, 23064(%rsp)
	leaq	23072(%rsp), %rsi
	leaq	23064(%rsp), %rdx
	movl	$122, %edi
	callq	__ZN14altered_carbon2js8binaryOpEiRNSt3__18auto_ptrINS0_9ACJsValueEEES5_
	movq	%rax, 23056(%rsp)
	leaq	23080(%rsp), %rsi
	leaq	23056(%rsp), %rdx
	movl	$119, %edi
	callq	__ZN14altered_carbon2js8binaryOpEiRNSt3__18auto_ptrINS0_9ACJsValueEEES5_
	movq	%rax, 23048(%rsp)
	movl	$40, %edi
	callq	__Znwm
	movq	%rax, %rbx
	movsd	LCPI0_9(%rip), %xmm0    ## xmm0 = mem[0],zero
	movq	%rax, %rdi
	callq	__ZN14altered_carbon2js10ACJsNumberC1Ed
	movq	%rbx, 23040(%rsp)
	movl	$40, %edi
	callq	__Znwm
	movq	%rax, %rbx
	movsd	LCPI0_10(%rip), %xmm0   ## xmm0 = mem[0],zero
	movq	%rax, %rdi
	callq	__ZN14altered_carbon2js10ACJsNumberC1Ed
	movq	%rbx, 23032(%rsp)
	leaq	23040(%rsp), %rsi
	leaq	23032(%rsp), %rdx
	movl	$122, %edi
	callq	__ZN14altered_carbon2js8binaryOpEiRNSt3__18auto_ptrINS0_9ACJsValueEEES5_
	movq	%rax, 23024(%rsp)
	leaq	23048(%rsp), %rsi
	leaq	23024(%rsp), %rdx
	movl	$119, %edi
	callq	__ZN14altered_carbon2js8binaryOpEiRNSt3__18auto_ptrINS0_9ACJsValueEEES5_
	movq	%rax, 23016(%rsp)
	leaq	23016(%rsp), %rbx
LBB0_5:                                 ## %ret.op176
	movq	%rbx, 24616(%rsp)
	movq	(%rbx), %rdi
	movq	(%rdi), %rax
	callq	*168(%rax)
	testb	$1, %al
	je	LBB0_7
## %bb.6:                               ## %ret.rhs271
	movl	$40, %edi
	callq	__Znwm
	movq	%rax, %rbx
	movsd	LCPI0_0(%rip), %xmm0    ## xmm0 = mem[0],zero
	movq	%rax, %rdi
	callq	__ZN14altered_carbon2js10ACJsNumberC1Ed
	movq	%rbx, 23008(%rsp)
	movl	$40, %edi
	callq	__Znwm
	movq	%rax, %rbx
	movsd	LCPI0_1(%rip), %xmm0    ## xmm0 = mem[0],zero
	movq	%rax, %rdi
	callq	__ZN14altered_carbon2js10ACJsNumberC1Ed
	movq	%rbx, 23000(%rsp)
	movl	$40, %edi
	callq	__Znwm
	movq	%rax, %rbx
	movsd	LCPI0_2(%rip), %xmm0    ## xmm0 = mem[0],zero
	movq	%rax, %rdi
	callq	__ZN14altered_carbon2js10ACJsNumberC1Ed
	movq	%rbx, 22992(%rsp)
	leaq	23000(%rsp), %rsi
	leaq	22992(%rsp), %rdx
	movl	$122, %edi
	callq	__ZN14altered_carbon2js8binaryOpEiRNSt3__18auto_ptrINS0_9ACJsValueEEES5_
	movq	%rax, 22984(%rsp)
	leaq	23008(%rsp), %rsi
	leaq	22984(%rsp), %rdx
	movl	$119, %edi
	callq	__ZN14altered_carbon2js8binaryOpEiRNSt3__18auto_ptrINS0_9ACJsValueEEES5_
	movq	%rax, 22976(%rsp)
	movl	$40, %edi
	callq	__Znwm
	movq	%rax, %rbx
	movsd	LCPI0_3(%rip), %xmm0    ## xmm0 = mem[0],zero
	movq	%rax, %rdi
	callq	__ZN14altered_carbon2js10ACJsNumberC1Ed
	movq	%rbx, 22968(%rsp)
	movl	$40, %edi
	callq	__Znwm
	movq	%rax, %rbx
	movsd	LCPI0_4(%rip), %xmm0    ## xmm0 = mem[0],zero
	movq	%rax, %rdi
	callq	__ZN14altered_carbon2js10ACJsNumberC1Ed
	movq	%rbx, 22960(%rsp)
	leaq	22968(%rsp), %rsi
	leaq	22960(%rsp), %rdx
	movl	$122, %edi
	callq	__ZN14altered_carbon2js8binaryOpEiRNSt3__18auto_ptrINS0_9ACJsValueEEES5_
	movq	%rax, 22952(%rsp)
	leaq	22976(%rsp), %rsi
	leaq	22952(%rsp), %rdx
	movl	$119, %edi
	callq	__ZN14altered_carbon2js8binaryOpEiRNSt3__18auto_ptrINS0_9ACJsValueEEES5_
	movq	%rax, 22944(%rsp)
	movl	$40, %edi
	callq	__Znwm
	movq	%rax, %rbx
	movsd	LCPI0_5(%rip), %xmm0    ## xmm0 = mem[0],zero
	movq	%rax, %rdi
	callq	__ZN14altered_carbon2js10ACJsNumberC1Ed
	movq	%rbx, 22936(%rsp)
	movl	$40, %edi
	callq	__Znwm
	movq	%rax, %rbx
	movsd	LCPI0_6(%rip), %xmm0    ## xmm0 = mem[0],zero
	movq	%rax, %rdi
	callq	__ZN14altered_carbon2js10ACJsNumberC1Ed
	movq	%rbx, 22928(%rsp)
	leaq	22936(%rsp), %rsi
	leaq	22928(%rsp), %rdx
	movl	$122, %edi
	callq	__ZN14altered_carbon2js8binaryOpEiRNSt3__18auto_ptrINS0_9ACJsValueEEES5_
	movq	%rax, 22920(%rsp)
	leaq	22944(%rsp), %rsi
	leaq	22920(%rsp), %rdx
	movl	$119, %edi
	callq	__ZN14altered_carbon2js8binaryOpEiRNSt3__18auto_ptrINS0_9ACJsValueEEES5_
	movq	%rax, 22912(%rsp)
	movl	$40, %edi
	callq	__Znwm
	movq	%rax, %rbx
	movsd	LCPI0_7(%rip), %xmm0    ## xmm0 = mem[0],zero
	movq	%rax, %rdi
	callq	__ZN14altered_carbon2js10ACJsNumberC1Ed
	movq	%rbx, 22904(%rsp)
	movl	$40, %edi
	callq	__Znwm
	movq	%rax, %rbx
	movsd	LCPI0_8(%rip), %xmm0    ## xmm0 = mem[0],zero
	movq	%rax, %rdi
	callq	__ZN14altered_carbon2js10ACJsNumberC1Ed
	movq	%rbx, 22896(%rsp)
	leaq	22904(%rsp), %rsi
	leaq	22896(%rsp), %rdx
	movl	$122, %edi
	callq	__ZN14altered_carbon2js8binaryOpEiRNSt3__18auto_ptrINS0_9ACJsValueEEES5_
	movq	%rax, 22888(%rsp)
	leaq	22912(%rsp), %rsi
	leaq	22888(%rsp), %rdx
	movl	$119, %edi
	callq	__ZN14altered_carbon2js8binaryOpEiRNSt3__18auto_ptrINS0_9ACJsValueEEES5_
	movq	%rax, 22880(%rsp)
	movl	$40, %edi
	callq	__Znwm
	movq	%rax, %rbx
	movsd	LCPI0_9(%rip), %xmm0    ## xmm0 = mem[0],zero
	movq	%rax, %rdi
	callq	__ZN14altered_carbon2js10ACJsNumberC1Ed
	movq	%rbx, 22872(%rsp)
	movl	$40, %edi
	callq	__Znwm
	movq	%rax, %rbx
	movsd	LCPI0_10(%rip), %xmm0   ## xmm0 = mem[0],zero
	movq	%rax, %rdi
	callq	__ZN14altered_carbon2js10ACJsNumberC1Ed
	movq	%rbx, 22864(%rsp)
	leaq	22872(%rsp), %rsi
	leaq	22864(%rsp), %rdx
	movl	$122, %edi
	callq	__ZN14altered_carbon2js8binaryOpEiRNSt3__18auto_ptrINS0_9ACJsValueEEES5_
	movq	%rax, 22856(%rsp)
	leaq	22880(%rsp), %rsi
	leaq	22856(%rsp), %rdx
	movl	$119, %edi
	callq	__ZN14altered_carbon2js8binaryOpEiRNSt3__18auto_ptrINS0_9ACJsValueEEES5_
	movq	%rax, 22848(%rsp)
	leaq	22848(%rsp), %rbx
LBB0_7:                                 ## %ret.op272
	movq	%rbx, 24608(%rsp)
	movq	(%rbx), %rdi
	movq	(%rdi), %rax
	callq	*168(%rax)
	testb	$1, %al
	je	LBB0_9
## %bb.8:                               ## %ret.rhs367
	movl	$40, %edi
	callq	__Znwm
	movq	%rax, %rbx
	movsd	LCPI0_0(%rip), %xmm0    ## xmm0 = mem[0],zero
	movq	%rax, %rdi
	callq	__ZN14altered_carbon2js10ACJsNumberC1Ed
	movq	%rbx, 22840(%rsp)
	movl	$40, %edi
	callq	__Znwm
	movq	%rax, %rbx
	movsd	LCPI0_1(%rip), %xmm0    ## xmm0 = mem[0],zero
	movq	%rax, %rdi
	callq	__ZN14altered_carbon2js10ACJsNumberC1Ed
	movq	%rbx, 22832(%rsp)
	movl	$40, %edi
	callq	__Znwm
	movq	%rax, %rbx
	movsd	LCPI0_2(%rip), %xmm0    ## xmm0 = mem[0],zero
	movq	%rax, %rdi
	callq	__ZN14altered_carbon2js10ACJsNumberC1Ed
	movq	%rbx, 22824(%rsp)
	leaq	22832(%rsp), %rsi
	leaq	22824(%rsp), %rdx
	movl	$122, %edi
	callq	__ZN14altered_carbon2js8binaryOpEiRNSt3__18auto_ptrINS0_9ACJsValueEEES5_
	movq	%rax, 22816(%rsp)
	leaq	22840(%rsp), %rsi
	leaq	22816(%rsp), %rdx
	movl	$119, %edi
	callq	__ZN14altered_carbon2js8binaryOpEiRNSt3__18auto_ptrINS0_9ACJsValueEEES5_
	movq	%rax, 22808(%rsp)
	movl	$40, %edi
	callq	__Znwm
	movq	%rax, %rbx
	movsd	LCPI0_3(%rip), %xmm0    ## xmm0 = mem[0],zero
	movq	%rax, %rdi
	callq	__ZN14altered_carbon2js10ACJsNumberC1Ed
	movq	%rbx, 22800(%rsp)
	movl	$40, %edi
	callq	__Znwm
	movq	%rax, %rbx
	movsd	LCPI0_4(%rip), %xmm0    ## xmm0 = mem[0],zero
	movq	%rax, %rdi
	callq	__ZN14altered_carbon2js10ACJsNumberC1Ed
	movq	%rbx, 22792(%rsp)
	leaq	22800(%rsp), %rsi
	leaq	22792(%rsp), %rdx
	movl	$122, %edi
	callq	__ZN14altered_carbon2js8binaryOpEiRNSt3__18auto_ptrINS0_9ACJsValueEEES5_
	movq	%rax, 22784(%rsp)
	leaq	22808(%rsp), %rsi
	leaq	22784(%rsp), %rdx
	movl	$119, %edi
	callq	__ZN14altered_carbon2js8binaryOpEiRNSt3__18auto_ptrINS0_9ACJsValueEEES5_
	movq	%rax, 22776(%rsp)
	movl	$40, %edi
	callq	__Znwm
	movq	%rax, %rbx
	movsd	LCPI0_5(%rip), %xmm0    ## xmm0 = mem[0],zero
	movq	%rax, %rdi
	callq	__ZN14altered_carbon2js10ACJsNumberC1Ed
	movq	%rbx, 22768(%rsp)
	movl	$40, %edi
	callq	__Znwm
	movq	%rax, %rbx
	movsd	LCPI0_6(%rip), %xmm0    ## xmm0 = mem[0],zero
	movq	%rax, %rdi
	callq	__ZN14altered_carbon2js10ACJsNumberC1Ed
	movq	%rbx, 22760(%rsp)
	leaq	22768(%rsp), %rsi
	leaq	22760(%rsp), %rdx
	movl	$122, %edi
	callq	__ZN14altered_carbon2js8binaryOpEiRNSt3__18auto_ptrINS0_9ACJsValueEEES5_
	movq	%rax, 22752(%rsp)
	leaq	22776(%rsp), %rsi
	leaq	22752(%rsp), %rdx
	movl	$119, %edi
	callq	__ZN14altered_carbon2js8binaryOpEiRNSt3__18auto_ptrINS0_9ACJsValueEEES5_
	movq	%rax, 22744(%rsp)
	movl	$40, %edi
	callq	__Znwm
	movq	%rax, %rbx
	movsd	LCPI0_7(%rip), %xmm0    ## xmm0 = mem[0],zero
	movq	%rax, %rdi
	callq	__ZN14altered_carbon2js10ACJsNumberC1Ed
	movq	%rbx, 22736(%rsp)
	movl	$40, %edi
	callq	__Znwm
	movq	%rax, %rbx
	movsd	LCPI0_8(%rip), %xmm0    ## xmm0 = mem[0],zero
	movq	%rax, %rdi
	callq	__ZN14altered_carbon2js10ACJsNumberC1Ed
	movq	%rbx, 22728(%rsp)
	leaq	22736(%rsp), %rsi
	leaq	22728(%rsp), %rdx
	movl	$122, %edi
	callq	__ZN14altered_carbon2js8binaryOpEiRNSt3__18auto_ptrINS0_9ACJsValueEEES5_
	movq	%rax, 22720(%rsp)
	leaq	22744(%rsp), %rsi
	leaq	22720(%rsp), %rdx
	movl	$119, %edi
	callq	__ZN14altered_carbon2js8binaryOpEiRNSt3__18auto_ptrINS0_9ACJsValueEEES5_
	movq	%rax, 22712(%rsp)
	movl	$40, %edi
	callq	__Znwm
	movq	%rax, %rbx
	movsd	LCPI0_9(%rip), %xmm0    ## xmm0 = mem[0],zero
	movq	%rax, %rdi
	callq	__ZN14altered_carbon2js10ACJsNumberC1Ed
	movq	%rbx, 22704(%rsp)
	movl	$40, %edi
	callq	__Znwm
	movq	%rax, %rbx
	movsd	LCPI0_10(%rip), %xmm0   ## xmm0 = mem[0],zero
	movq	%rax, %rdi
	callq	__ZN14altered_carbon2js10ACJsNumberC1Ed
	movq	%rbx, 22696(%rsp)
	leaq	22704(%rsp), %rsi
	leaq	22696(%rsp), %rdx
	movl	$122, %edi
	callq	__ZN14altered_carbon2js8binaryOpEiRNSt3__18auto_ptrINS0_9ACJsValueEEES5_
	movq	%rax, 22688(%rsp)
	leaq	22712(%rsp), %rsi
	leaq	22688(%rsp), %rdx
	movl	$119, %edi
	callq	__ZN14altered_carbon2js8binaryOpEiRNSt3__18auto_ptrINS0_9ACJsValueEEES5_
	movq	%rax, 22680(%rsp)
	leaq	22680(%rsp), %rbx
LBB0_9:                                 ## %ret.op368
	movq	%rbx, 24600(%rsp)
	movq	(%rbx), %rdi
	movq	(%rdi), %rax
	callq	*168(%rax)
	testb	$1, %al
	je	LBB0_11
## %bb.10:                              ## %ret.rhs463
	movl	$40, %edi
	callq	__Znwm
	movq	%rax, %rbx
	movsd	LCPI0_0(%rip), %xmm0    ## xmm0 = mem[0],zero
	movq	%rax, %rdi
	callq	__ZN14altered_carbon2js10ACJsNumberC1Ed
	movq	%rbx, 22672(%rsp)
	movl	$40, %edi
	callq	__Znwm
	movq	%rax, %rbx
	movsd	LCPI0_1(%rip), %xmm0    ## xmm0 = mem[0],zero
	movq	%rax, %rdi
	callq	__ZN14altered_carbon2js10ACJsNumberC1Ed
	movq	%rbx, 22664(%rsp)
	movl	$40, %edi
	callq	__Znwm
	movq	%rax, %rbx
	movsd	LCPI0_2(%rip), %xmm0    ## xmm0 = mem[0],zero
	movq	%rax, %rdi
	callq	__ZN14altered_carbon2js10ACJsNumberC1Ed
	movq	%rbx, 22656(%rsp)
	leaq	22664(%rsp), %rsi
	leaq	22656(%rsp), %rdx
	movl	$122, %edi
	callq	__ZN14altered_carbon2js8binaryOpEiRNSt3__18auto_ptrINS0_9ACJsValueEEES5_
	movq	%rax, 22648(%rsp)
	leaq	22672(%rsp), %rsi
	leaq	22648(%rsp), %rdx
	movl	$119, %edi
	callq	__ZN14altered_carbon2js8binaryOpEiRNSt3__18auto_ptrINS0_9ACJsValueEEES5_
	movq	%rax, 22640(%rsp)
	movl	$40, %edi
	callq	__Znwm
	movq	%rax, %rbx
	movsd	LCPI0_3(%rip), %xmm0    ## xmm0 = mem[0],zero
	movq	%rax, %rdi
	callq	__ZN14altered_carbon2js10ACJsNumberC1Ed
	movq	%rbx, 22632(%rsp)
	movl	$40, %edi
	callq	__Znwm
	movq	%rax, %rbx
	movsd	LCPI0_4(%rip), %xmm0    ## xmm0 = mem[0],zero
	movq	%rax, %rdi
	callq	__ZN14altered_carbon2js10ACJsNumberC1Ed
	movq	%rbx, 22624(%rsp)
	leaq	22632(%rsp), %rsi
	leaq	22624(%rsp), %rdx
	movl	$122, %edi
	callq	__ZN14altered_carbon2js8binaryOpEiRNSt3__18auto_ptrINS0_9ACJsValueEEES5_
	movq	%rax, 22616(%rsp)
	leaq	22640(%rsp), %rsi
	leaq	22616(%rsp), %rdx
	movl	$119, %edi
	callq	__ZN14altered_carbon2js8binaryOpEiRNSt3__18auto_ptrINS0_9ACJsValueEEES5_
	movq	%rax, 22608(%rsp)
	movl	$40, %edi
	callq	__Znwm
	movq	%rax, %rbx
	movsd	LCPI0_5(%rip), %xmm0    ## xmm0 = mem[0],zero
	movq	%rax, %rdi
	callq	__ZN14altered_carbon2js10ACJsNumberC1Ed
	movq	%rbx, 22600(%rsp)
	movl	$40, %edi
	callq	__Znwm
	movq	%rax, %rbx
	movsd	LCPI0_6(%rip), %xmm0    ## xmm0 = mem[0],zero
	movq	%rax, %rdi
	callq	__ZN14altered_carbon2js10ACJsNumberC1Ed
	movq	%rbx, 22592(%rsp)
	leaq	22600(%rsp), %rsi
	leaq	22592(%rsp), %rdx
	movl	$122, %edi
	callq	__ZN14altered_carbon2js8binaryOpEiRNSt3__18auto_ptrINS0_9ACJsValueEEES5_
	movq	%rax, 22584(%rsp)
	leaq	22608(%rsp), %rsi
	leaq	22584(%rsp), %rdx
	movl	$119, %edi
	callq	__ZN14altered_carbon2js8binaryOpEiRNSt3__18auto_ptrINS0_9ACJsValueEEES5_
	movq	%rax, 22576(%rsp)
	movl	$40, %edi
	callq	__Znwm
	movq	%rax, %rbx
	movsd	LCPI0_7(%rip), %xmm0    ## xmm0 = mem[0],zero
	movq	%rax, %rdi
	callq	__ZN14altered_carbon2js10ACJsNumberC1Ed
	movq	%rbx, 22568(%rsp)
	movl	$40, %edi
	callq	__Znwm
	movq	%rax, %rbx
	movsd	LCPI0_8(%rip), %xmm0    ## xmm0 = mem[0],zero
	movq	%rax, %rdi
	callq	__ZN14altered_carbon2js10ACJsNumberC1Ed
	movq	%rbx, 22560(%rsp)
	leaq	22568(%rsp), %rsi
	leaq	22560(%rsp), %rdx
	movl	$122, %edi
	callq	__ZN14altered_carbon2js8binaryOpEiRNSt3__18auto_ptrINS0_9ACJsValueEEES5_
	movq	%rax, 22552(%rsp)
	leaq	22576(%rsp), %rsi
	leaq	22552(%rsp), %rdx
	movl	$119, %edi
	callq	__ZN14altered_carbon2js8binaryOpEiRNSt3__18auto_ptrINS0_9ACJsValueEEES5_
	movq	%rax, 22544(%rsp)
	movl	$40, %edi
	callq	__Znwm
	movq	%rax, %rbx
	movsd	LCPI0_9(%rip), %xmm0    ## xmm0 = mem[0],zero
	movq	%rax, %rdi
	callq	__ZN14altered_carbon2js10ACJsNumberC1Ed
	movq	%rbx, 22536(%rsp)
	movl	$40, %edi
	callq	__Znwm
	movq	%rax, %rbx
	movsd	LCPI0_10(%rip), %xmm0   ## xmm0 = mem[0],zero
	movq	%rax, %rdi
	callq	__ZN14altered_carbon2js10ACJsNumberC1Ed
	movq	%rbx, 22528(%rsp)
	leaq	22536(%rsp), %rsi
	leaq	22528(%rsp), %rdx
	movl	$122, %edi
	callq	__ZN14altered_carbon2js8binaryOpEiRNSt3__18auto_ptrINS0_9ACJsValueEEES5_
	movq	%rax, 22520(%rsp)
	leaq	22544(%rsp), %rsi
	leaq	22520(%rsp), %rdx
	movl	$119, %edi
	callq	__ZN14altered_carbon2js8binaryOpEiRNSt3__18auto_ptrINS0_9ACJsValueEEES5_
	movq	%rax, 22512(%rsp)
	leaq	22512(%rsp), %rbx
LBB0_11:                                ## %ret.op464
	movq	%rbx, 24592(%rsp)
	movq	(%rbx), %rdi
	movq	(%rdi), %rax
	callq	*168(%rax)
	testb	$1, %al
	je	LBB0_13
## %bb.12:                              ## %ret.rhs559
	movl	$40, %edi
	callq	__Znwm
	movq	%rax, %rbx
	movsd	LCPI0_0(%rip), %xmm0    ## xmm0 = mem[0],zero
	movq	%rax, %rdi
	callq	__ZN14altered_carbon2js10ACJsNumberC1Ed
	movq	%rbx, 22504(%rsp)
	movl	$40, %edi
	callq	__Znwm
	movq	%rax, %rbx
	movsd	LCPI0_1(%rip), %xmm0    ## xmm0 = mem[0],zero
	movq	%rax, %rdi
	callq	__ZN14altered_carbon2js10ACJsNumberC1Ed
	movq	%rbx, 22496(%rsp)
	movl	$40, %edi
	callq	__Znwm
	movq	%rax, %rbx
	movsd	LCPI0_2(%rip), %xmm0    ## xmm0 = mem[0],zero
	movq	%rax, %rdi
	callq	__ZN14altered_carbon2js10ACJsNumberC1Ed
	movq	%rbx, 22488(%rsp)
	leaq	22496(%rsp), %rsi
	leaq	22488(%rsp), %rdx
	movl	$122, %edi
	callq	__ZN14altered_carbon2js8binaryOpEiRNSt3__18auto_ptrINS0_9ACJsValueEEES5_
	movq	%rax, 22480(%rsp)
	leaq	22504(%rsp), %rsi
	leaq	22480(%rsp), %rdx
	movl	$119, %edi
	callq	__ZN14altered_carbon2js8binaryOpEiRNSt3__18auto_ptrINS0_9ACJsValueEEES5_
	movq	%rax, 22472(%rsp)
	movl	$40, %edi
	callq	__Znwm
	movq	%rax, %rbx
	movsd	LCPI0_3(%rip), %xmm0    ## xmm0 = mem[0],zero
	movq	%rax, %rdi
	callq	__ZN14altered_carbon2js10ACJsNumberC1Ed
	movq	%rbx, 22464(%rsp)
	movl	$40, %edi
	callq	__Znwm
	movq	%rax, %rbx
	movsd	LCPI0_4(%rip), %xmm0    ## xmm0 = mem[0],zero
	movq	%rax, %rdi
	callq	__ZN14altered_carbon2js10ACJsNumberC1Ed
	movq	%rbx, 22456(%rsp)
	leaq	22464(%rsp), %rsi
	leaq	22456(%rsp), %rdx
	movl	$122, %edi
	callq	__ZN14altered_carbon2js8binaryOpEiRNSt3__18auto_ptrINS0_9ACJsValueEEES5_
	movq	%rax, 22448(%rsp)
	leaq	22472(%rsp), %rsi
	leaq	22448(%rsp), %rdx
	movl	$119, %edi
	callq	__ZN14altered_carbon2js8binaryOpEiRNSt3__18auto_ptrINS0_9ACJsValueEEES5_
	movq	%rax, 22440(%rsp)
	movl	$40, %edi
	callq	__Znwm
	movq	%rax, %rbx
	movsd	LCPI0_5(%rip), %xmm0    ## xmm0 = mem[0],zero
	movq	%rax, %rdi
	callq	__ZN14altered_carbon2js10ACJsNumberC1Ed
	movq	%rbx, 22432(%rsp)
	movl	$40, %edi
	callq	__Znwm
	movq	%rax, %rbx
	movsd	LCPI0_6(%rip), %xmm0    ## xmm0 = mem[0],zero
	movq	%rax, %rdi
	callq	__ZN14altered_carbon2js10ACJsNumberC1Ed
	movq	%rbx, 22424(%rsp)
	leaq	22432(%rsp), %rsi
	leaq	22424(%rsp), %rdx
	movl	$122, %edi
	callq	__ZN14altered_carbon2js8binaryOpEiRNSt3__18auto_ptrINS0_9ACJsValueEEES5_
	movq	%rax, 22416(%rsp)
	leaq	22440(%rsp), %rsi
	leaq	22416(%rsp), %rdx
	movl	$119, %edi
	callq	__ZN14altered_carbon2js8binaryOpEiRNSt3__18auto_ptrINS0_9ACJsValueEEES5_
	movq	%rax, 22408(%rsp)
	movl	$40, %edi
	callq	__Znwm
	movq	%rax, %rbx
	movsd	LCPI0_7(%rip), %xmm0    ## xmm0 = mem[0],zero
	movq	%rax, %rdi
	callq	__ZN14altered_carbon2js10ACJsNumberC1Ed
	movq	%rbx, 22400(%rsp)
	movl	$40, %edi
	callq	__Znwm
	movq	%rax, %rbx
	movsd	LCPI0_8(%rip), %xmm0    ## xmm0 = mem[0],zero
	movq	%rax, %rdi
	callq	__ZN14altered_carbon2js10ACJsNumberC1Ed
	movq	%rbx, 22392(%rsp)
	leaq	22400(%rsp), %rsi
	leaq	22392(%rsp), %rdx
	movl	$122, %edi
	callq	__ZN14altered_carbon2js8binaryOpEiRNSt3__18auto_ptrINS0_9ACJsValueEEES5_
	movq	%rax, 22384(%rsp)
	leaq	22408(%rsp), %rsi
	leaq	22384(%rsp), %rdx
	movl	$119, %edi
	callq	__ZN14altered_carbon2js8binaryOpEiRNSt3__18auto_ptrINS0_9ACJsValueEEES5_
	movq	%rax, 22376(%rsp)
	movl	$40, %edi
	callq	__Znwm
	movq	%rax, %rbx
	movsd	LCPI0_9(%rip), %xmm0    ## xmm0 = mem[0],zero
	movq	%rax, %rdi
	callq	__ZN14altered_carbon2js10ACJsNumberC1Ed
	movq	%rbx, 22368(%rsp)
	movl	$40, %edi
	callq	__Znwm
	movq	%rax, %rbx
	movsd	LCPI0_10(%rip), %xmm0   ## xmm0 = mem[0],zero
	movq	%rax, %rdi
	callq	__ZN14altered_carbon2js10ACJsNumberC1Ed
	movq	%rbx, 22360(%rsp)
	leaq	22368(%rsp), %rsi
	leaq	22360(%rsp), %rdx
	movl	$122, %edi
	callq	__ZN14altered_carbon2js8binaryOpEiRNSt3__18auto_ptrINS0_9ACJsValueEEES5_
	movq	%rax, 22352(%rsp)
	leaq	22376(%rsp), %rsi
	leaq	22352(%rsp), %rdx
	movl	$119, %edi
	callq	__ZN14altered_carbon2js8binaryOpEiRNSt3__18auto_ptrINS0_9ACJsValueEEES5_
	movq	%rax, 22344(%rsp)
	leaq	22344(%rsp), %rbx
LBB0_13:                                ## %ret.op560
	movq	%rbx, 24584(%rsp)
	movq	(%rbx), %rdi
	movq	(%rdi), %rax
	callq	*168(%rax)
	testb	$1, %al
	je	LBB0_15
## %bb.14:                              ## %ret.rhs655
	movl	$40, %edi
	callq	__Znwm
	movq	%rax, %rbx
	movsd	LCPI0_0(%rip), %xmm0    ## xmm0 = mem[0],zero
	movq	%rax, %rdi
	callq	__ZN14altered_carbon2js10ACJsNumberC1Ed
	movq	%rbx, 22336(%rsp)
	movl	$40, %edi
	callq	__Znwm
	movq	%rax, %rbx
	movsd	LCPI0_1(%rip), %xmm0    ## xmm0 = mem[0],zero
	movq	%rax, %rdi
	callq	__ZN14altered_carbon2js10ACJsNumberC1Ed
	movq	%rbx, 22328(%rsp)
	movl	$40, %edi
	callq	__Znwm
	movq	%rax, %rbx
	movsd	LCPI0_2(%rip), %xmm0    ## xmm0 = mem[0],zero
	movq	%rax, %rdi
	callq	__ZN14altered_carbon2js10ACJsNumberC1Ed
	movq	%rbx, 22320(%rsp)
	leaq	22328(%rsp), %rsi
	leaq	22320(%rsp), %rdx
	movl	$122, %edi
	callq	__ZN14altered_carbon2js8binaryOpEiRNSt3__18auto_ptrINS0_9ACJsValueEEES5_
	movq	%rax, 22312(%rsp)
	leaq	22336(%rsp), %rsi
	leaq	22312(%rsp), %rdx
	movl	$119, %edi
	callq	__ZN14altered_carbon2js8binaryOpEiRNSt3__18auto_ptrINS0_9ACJsValueEEES5_
	movq	%rax, 22304(%rsp)
	movl	$40, %edi
	callq	__Znwm
	movq	%rax, %rbx
	movsd	LCPI0_3(%rip), %xmm0    ## xmm0 = mem[0],zero
	movq	%rax, %rdi
	callq	__ZN14altered_carbon2js10ACJsNumberC1Ed
	movq	%rbx, 22296(%rsp)
	movl	$40, %edi
	callq	__Znwm
	movq	%rax, %rbx
	movsd	LCPI0_4(%rip), %xmm0    ## xmm0 = mem[0],zero
	movq	%rax, %rdi
	callq	__ZN14altered_carbon2js10ACJsNumberC1Ed
	movq	%rbx, 22288(%rsp)
	leaq	22296(%rsp), %rsi
	leaq	22288(%rsp), %rdx
	movl	$122, %edi
	callq	__ZN14altered_carbon2js8binaryOpEiRNSt3__18auto_ptrINS0_9ACJsValueEEES5_
	movq	%rax, 22280(%rsp)
	leaq	22304(%rsp), %rsi
	leaq	22280(%rsp), %rdx
	movl	$119, %edi
	callq	__ZN14altered_carbon2js8binaryOpEiRNSt3__18auto_ptrINS0_9ACJsValueEEES5_
	movq	%rax, 22272(%rsp)
	movl	$40, %edi
	callq	__Znwm
	movq	%rax, %rbx
	movsd	LCPI0_5(%rip), %xmm0    ## xmm0 = mem[0],zero
	movq	%rax, %rdi
	callq	__ZN14altered_carbon2js10ACJsNumberC1Ed
	movq	%rbx, 22264(%rsp)
	movl	$40, %edi
	callq	__Znwm
	movq	%rax, %rbx
	movsd	LCPI0_6(%rip), %xmm0    ## xmm0 = mem[0],zero
	movq	%rax, %rdi
	callq	__ZN14altered_carbon2js10ACJsNumberC1Ed
	movq	%rbx, 22256(%rsp)
	leaq	22264(%rsp), %rsi
	leaq	22256(%rsp), %rdx
	movl	$122, %edi
	callq	__ZN14altered_carbon2js8binaryOpEiRNSt3__18auto_ptrINS0_9ACJsValueEEES5_
	movq	%rax, 22248(%rsp)
	leaq	22272(%rsp), %rsi
	leaq	22248(%rsp), %rdx
	movl	$119, %edi
	callq	__ZN14altered_carbon2js8binaryOpEiRNSt3__18auto_ptrINS0_9ACJsValueEEES5_
	movq	%rax, 22240(%rsp)
	movl	$40, %edi
	callq	__Znwm
	movq	%rax, %rbx
	movsd	LCPI0_7(%rip), %xmm0    ## xmm0 = mem[0],zero
	movq	%rax, %rdi
	callq	__ZN14altered_carbon2js10ACJsNumberC1Ed
	movq	%rbx, 22232(%rsp)
	movl	$40, %edi
	callq	__Znwm
	movq	%rax, %rbx
	movsd	LCPI0_8(%rip), %xmm0    ## xmm0 = mem[0],zero
	movq	%rax, %rdi
	callq	__ZN14altered_carbon2js10ACJsNumberC1Ed
	movq	%rbx, 22224(%rsp)
	leaq	22232(%rsp), %rsi
	leaq	22224(%rsp), %rdx
	movl	$122, %edi
	callq	__ZN14altered_carbon2js8binaryOpEiRNSt3__18auto_ptrINS0_9ACJsValueEEES5_
	movq	%rax, 22216(%rsp)
	leaq	22240(%rsp), %rsi
	leaq	22216(%rsp), %rdx
	movl	$119, %edi
	callq	__ZN14altered_carbon2js8binaryOpEiRNSt3__18auto_ptrINS0_9ACJsValueEEES5_
	movq	%rax, 22208(%rsp)
	movl	$40, %edi
	callq	__Znwm
	movq	%rax, %rbx
	movsd	LCPI0_9(%rip), %xmm0    ## xmm0 = mem[0],zero
	movq	%rax, %rdi
	callq	__ZN14altered_carbon2js10ACJsNumberC1Ed
	movq	%rbx, 22200(%rsp)
	movl	$40, %edi
	callq	__Znwm
	movq	%rax, %rbx
	movsd	LCPI0_10(%rip), %xmm0   ## xmm0 = mem[0],zero
	movq	%rax, %rdi
	callq	__ZN14altered_carbon2js10ACJsNumberC1Ed
	movq	%rbx, 22192(%rsp)
	leaq	22200(%rsp), %rsi
	leaq	22192(%rsp), %rdx
	movl	$122, %edi
	callq	__ZN14altered_carbon2js8binaryOpEiRNSt3__18auto_ptrINS0_9ACJsValueEEES5_
	movq	%rax, 22184(%rsp)
	leaq	22208(%rsp), %rsi
	leaq	22184(%rsp), %rdx
	movl	$119, %edi
	callq	__ZN14altered_carbon2js8binaryOpEiRNSt3__18auto_ptrINS0_9ACJsValueEEES5_
	movq	%rax, 22176(%rsp)
	leaq	22176(%rsp), %rbx
LBB0_15:                                ## %ret.op656
	movq	%rbx, 24576(%rsp)
	movq	(%rbx), %rdi
	movq	(%rdi), %rax
	callq	*168(%rax)
	testb	$1, %al
	je	LBB0_17
## %bb.16:                              ## %ret.rhs751
	movl	$40, %edi
	callq	__Znwm
	movq	%rax, %rbx
	movsd	LCPI0_0(%rip), %xmm0    ## xmm0 = mem[0],zero
	movq	%rax, %rdi
	callq	__ZN14altered_carbon2js10ACJsNumberC1Ed
	movq	%rbx, 22168(%rsp)
	movl	$40, %edi
	callq	__Znwm
	movq	%rax, %rbx
	movsd	LCPI0_1(%rip), %xmm0    ## xmm0 = mem[0],zero
	movq	%rax, %rdi
	callq	__ZN14altered_carbon2js10ACJsNumberC1Ed
	movq	%rbx, 22160(%rsp)
	movl	$40, %edi
	callq	__Znwm
	movq	%rax, %rbx
	movsd	LCPI0_2(%rip), %xmm0    ## xmm0 = mem[0],zero
	movq	%rax, %rdi
	callq	__ZN14altered_carbon2js10ACJsNumberC1Ed
	movq	%rbx, 22152(%rsp)
	leaq	22160(%rsp), %rsi
	leaq	22152(%rsp), %rdx
	movl	$122, %edi
	callq	__ZN14altered_carbon2js8binaryOpEiRNSt3__18auto_ptrINS0_9ACJsValueEEES5_
	movq	%rax, 22144(%rsp)
	leaq	22168(%rsp), %rsi
	leaq	22144(%rsp), %rdx
	movl	$119, %edi
	callq	__ZN14altered_carbon2js8binaryOpEiRNSt3__18auto_ptrINS0_9ACJsValueEEES5_
	movq	%rax, 22136(%rsp)
	movl	$40, %edi
	callq	__Znwm
	movq	%rax, %rbx
	movsd	LCPI0_3(%rip), %xmm0    ## xmm0 = mem[0],zero
	movq	%rax, %rdi
	callq	__ZN14altered_carbon2js10ACJsNumberC1Ed
	movq	%rbx, 22128(%rsp)
	movl	$40, %edi
	callq	__Znwm
	movq	%rax, %rbx
	movsd	LCPI0_4(%rip), %xmm0    ## xmm0 = mem[0],zero
	movq	%rax, %rdi
	callq	__ZN14altered_carbon2js10ACJsNumberC1Ed
	movq	%rbx, 22120(%rsp)
	leaq	22128(%rsp), %rsi
	leaq	22120(%rsp), %rdx
	movl	$122, %edi
	callq	__ZN14altered_carbon2js8binaryOpEiRNSt3__18auto_ptrINS0_9ACJsValueEEES5_
	movq	%rax, 22112(%rsp)
	leaq	22136(%rsp), %rsi
	leaq	22112(%rsp), %rdx
	movl	$119, %edi
	callq	__ZN14altered_carbon2js8binaryOpEiRNSt3__18auto_ptrINS0_9ACJsValueEEES5_
	movq	%rax, 22104(%rsp)
	movl	$40, %edi
	callq	__Znwm
	movq	%rax, %rbx
	movsd	LCPI0_5(%rip), %xmm0    ## xmm0 = mem[0],zero
	movq	%rax, %rdi
	callq	__ZN14altered_carbon2js10ACJsNumberC1Ed
	movq	%rbx, 22096(%rsp)
	movl	$40, %edi
	callq	__Znwm
	movq	%rax, %rbx
	movsd	LCPI0_6(%rip), %xmm0    ## xmm0 = mem[0],zero
	movq	%rax, %rdi
	callq	__ZN14altered_carbon2js10ACJsNumberC1Ed
	movq	%rbx, 22088(%rsp)
	leaq	22096(%rsp), %rsi
	leaq	22088(%rsp), %rdx
	movl	$122, %edi
	callq	__ZN14altered_carbon2js8binaryOpEiRNSt3__18auto_ptrINS0_9ACJsValueEEES5_
	movq	%rax, 22080(%rsp)
	leaq	22104(%rsp), %rsi
	leaq	22080(%rsp), %rdx
	movl	$119, %edi
	callq	__ZN14altered_carbon2js8binaryOpEiRNSt3__18auto_ptrINS0_9ACJsValueEEES5_
	movq	%rax, 22072(%rsp)
	movl	$40, %edi
	callq	__Znwm
	movq	%rax, %rbx
	movsd	LCPI0_7(%rip), %xmm0    ## xmm0 = mem[0],zero
	movq	%rax, %rdi
	callq	__ZN14altered_carbon2js10ACJsNumberC1Ed
	movq	%rbx, 22064(%rsp)
	movl	$40, %edi
	callq	__Znwm
	movq	%rax, %rbx
	movsd	LCPI0_8(%rip), %xmm0    ## xmm0 = mem[0],zero
	movq	%rax, %rdi
	callq	__ZN14altered_carbon2js10ACJsNumberC1Ed
	movq	%rbx, 22056(%rsp)
	leaq	22064(%rsp), %rsi
	leaq	22056(%rsp), %rdx
	movl	$122, %edi
	callq	__ZN14altered_carbon2js8binaryOpEiRNSt3__18auto_ptrINS0_9ACJsValueEEES5_
	movq	%rax, 22048(%rsp)
	leaq	22072(%rsp), %rsi
	leaq	22048(%rsp), %rdx
	movl	$119, %edi
	callq	__ZN14altered_carbon2js8binaryOpEiRNSt3__18auto_ptrINS0_9ACJsValueEEES5_
	movq	%rax, 22040(%rsp)
	movl	$40, %edi
	callq	__Znwm
	movq	%rax, %rbx
	movsd	LCPI0_9(%rip), %xmm0    ## xmm0 = mem[0],zero
	movq	%rax, %rdi
	callq	__ZN14altered_carbon2js10ACJsNumberC1Ed
	movq	%rbx, 22032(%rsp)
	movl	$40, %edi
	callq	__Znwm
	movq	%rax, %rbx
	movsd	LCPI0_10(%rip), %xmm0   ## xmm0 = mem[0],zero
	movq	%rax, %rdi
	callq	__ZN14altered_carbon2js10ACJsNumberC1Ed
	movq	%rbx, 22024(%rsp)
	leaq	22032(%rsp), %rsi
	leaq	22024(%rsp), %rdx
	movl	$122, %edi
	callq	__ZN14altered_carbon2js8binaryOpEiRNSt3__18auto_ptrINS0_9ACJsValueEEES5_
	movq	%rax, 22016(%rsp)
	leaq	22040(%rsp), %rsi
	leaq	22016(%rsp), %rdx
	movl	$119, %edi
	callq	__ZN14altered_carbon2js8binaryOpEiRNSt3__18auto_ptrINS0_9ACJsValueEEES5_
	movq	%rax, 22008(%rsp)
	leaq	22008(%rsp), %rbx
LBB0_17:                                ## %ret.op752
	movq	%rbx, 24568(%rsp)
	movq	(%rbx), %rdi
	movq	(%rdi), %rax
	callq	*168(%rax)
	testb	$1, %al
	je	LBB0_19
## %bb.18:                              ## %ret.rhs847
	movl	$40, %edi
	callq	__Znwm
	movq	%rax, %rbx
	movsd	LCPI0_0(%rip), %xmm0    ## xmm0 = mem[0],zero
	movq	%rax, %rdi
	callq	__ZN14altered_carbon2js10ACJsNumberC1Ed
	movq	%rbx, 22000(%rsp)
	movl	$40, %edi
	callq	__Znwm
	movq	%rax, %rbx
	movsd	LCPI0_1(%rip), %xmm0    ## xmm0 = mem[0],zero
	movq	%rax, %rdi
	callq	__ZN14altered_carbon2js10ACJsNumberC1Ed
	movq	%rbx, 21992(%rsp)
	movl	$40, %edi
	callq	__Znwm
	movq	%rax, %rbx
	movsd	LCPI0_2(%rip), %xmm0    ## xmm0 = mem[0],zero
	movq	%rax, %rdi
	callq	__ZN14altered_carbon2js10ACJsNumberC1Ed
	movq	%rbx, 21984(%rsp)
	leaq	21992(%rsp), %rsi
	leaq	21984(%rsp), %rdx
	movl	$122, %edi
	callq	__ZN14altered_carbon2js8binaryOpEiRNSt3__18auto_ptrINS0_9ACJsValueEEES5_
	movq	%rax, 21976(%rsp)
	leaq	22000(%rsp), %rsi
	leaq	21976(%rsp), %rdx
	movl	$119, %edi
	callq	__ZN14altered_carbon2js8binaryOpEiRNSt3__18auto_ptrINS0_9ACJsValueEEES5_
	movq	%rax, 21968(%rsp)
	movl	$40, %edi
	callq	__Znwm
	movq	%rax, %rbx
	movsd	LCPI0_3(%rip), %xmm0    ## xmm0 = mem[0],zero
	movq	%rax, %rdi
	callq	__ZN14altered_carbon2js10ACJsNumberC1Ed
	movq	%rbx, 21960(%rsp)
	movl	$40, %edi
	callq	__Znwm
	movq	%rax, %rbx
	movsd	LCPI0_4(%rip), %xmm0    ## xmm0 = mem[0],zero
	movq	%rax, %rdi
	callq	__ZN14altered_carbon2js10ACJsNumberC1Ed
	movq	%rbx, 21952(%rsp)
	leaq	21960(%rsp), %rsi
	leaq	21952(%rsp), %rdx
	movl	$122, %edi
	callq	__ZN14altered_carbon2js8binaryOpEiRNSt3__18auto_ptrINS0_9ACJsValueEEES5_
	movq	%rax, 21944(%rsp)
	leaq	21968(%rsp), %rsi
	leaq	21944(%rsp), %rdx
	movl	$119, %edi
	callq	__ZN14altered_carbon2js8binaryOpEiRNSt3__18auto_ptrINS0_9ACJsValueEEES5_
	movq	%rax, 21936(%rsp)
	movl	$40, %edi
	callq	__Znwm
	movq	%rax, %rbx
	movsd	LCPI0_5(%rip), %xmm0    ## xmm0 = mem[0],zero
	movq	%rax, %rdi
	callq	__ZN14altered_carbon2js10ACJsNumberC1Ed
	movq	%rbx, 21928(%rsp)
	movl	$40, %edi
	callq	__Znwm
	movq	%rax, %rbx
	movsd	LCPI0_6(%rip), %xmm0    ## xmm0 = mem[0],zero
	movq	%rax, %rdi
	callq	__ZN14altered_carbon2js10ACJsNumberC1Ed
	movq	%rbx, 21920(%rsp)
	leaq	21928(%rsp), %rsi
	leaq	21920(%rsp), %rdx
	movl	$122, %edi
	callq	__ZN14altered_carbon2js8binaryOpEiRNSt3__18auto_ptrINS0_9ACJsValueEEES5_
	movq	%rax, 21912(%rsp)
	leaq	21936(%rsp), %rsi
	leaq	21912(%rsp), %rdx
	movl	$119, %edi
	callq	__ZN14altered_carbon2js8binaryOpEiRNSt3__18auto_ptrINS0_9ACJsValueEEES5_
	movq	%rax, 21904(%rsp)
	movl	$40, %edi
	callq	__Znwm
	movq	%rax, %rbx
	movsd	LCPI0_7(%rip), %xmm0    ## xmm0 = mem[0],zero
	movq	%rax, %rdi
	callq	__ZN14altered_carbon2js10ACJsNumberC1Ed
	movq	%rbx, 21896(%rsp)
	movl	$40, %edi
	callq	__Znwm
	movq	%rax, %rbx
	movsd	LCPI0_8(%rip), %xmm0    ## xmm0 = mem[0],zero
	movq	%rax, %rdi
	callq	__ZN14altered_carbon2js10ACJsNumberC1Ed
	movq	%rbx, 21888(%rsp)
	leaq	21896(%rsp), %rsi
	leaq	21888(%rsp), %rdx
	movl	$122, %edi
	callq	__ZN14altered_carbon2js8binaryOpEiRNSt3__18auto_ptrINS0_9ACJsValueEEES5_
	movq	%rax, 21880(%rsp)
	leaq	21904(%rsp), %rsi
	leaq	21880(%rsp), %rdx
	movl	$119, %edi
	callq	__ZN14altered_carbon2js8binaryOpEiRNSt3__18auto_ptrINS0_9ACJsValueEEES5_
	movq	%rax, 21872(%rsp)
	movl	$40, %edi
	callq	__Znwm
	movq	%rax, %rbx
	movsd	LCPI0_9(%rip), %xmm0    ## xmm0 = mem[0],zero
	movq	%rax, %rdi
	callq	__ZN14altered_carbon2js10ACJsNumberC1Ed
	movq	%rbx, 21864(%rsp)
	movl	$40, %edi
	callq	__Znwm
	movq	%rax, %rbx
	movsd	LCPI0_10(%rip), %xmm0   ## xmm0 = mem[0],zero
	movq	%rax, %rdi
	callq	__ZN14altered_carbon2js10ACJsNumberC1Ed
	movq	%rbx, 21856(%rsp)
	leaq	21864(%rsp), %rsi
	leaq	21856(%rsp), %rdx
	movl	$122, %edi
	callq	__ZN14altered_carbon2js8binaryOpEiRNSt3__18auto_ptrINS0_9ACJsValueEEES5_
	movq	%rax, 21848(%rsp)
	leaq	21872(%rsp), %rsi
	leaq	21848(%rsp), %rdx
	movl	$119, %edi
	callq	__ZN14altered_carbon2js8binaryOpEiRNSt3__18auto_ptrINS0_9ACJsValueEEES5_
	movq	%rax, 21840(%rsp)
	leaq	21840(%rsp), %rbx
LBB0_19:                                ## %ret.op848
	movq	%rbx, 24560(%rsp)
	movq	(%rbx), %rdi
	movq	(%rdi), %rax
	callq	*168(%rax)
	testb	$1, %al
	je	LBB0_21
## %bb.20:                              ## %ret.rhs943
	movl	$40, %edi
	callq	__Znwm
	movq	%rax, %rbx
	movsd	LCPI0_0(%rip), %xmm0    ## xmm0 = mem[0],zero
	movq	%rax, %rdi
	callq	__ZN14altered_carbon2js10ACJsNumberC1Ed
	movq	%rbx, 21832(%rsp)
	movl	$40, %edi
	callq	__Znwm
	movq	%rax, %rbx
	movsd	LCPI0_1(%rip), %xmm0    ## xmm0 = mem[0],zero
	movq	%rax, %rdi
	callq	__ZN14altered_carbon2js10ACJsNumberC1Ed
	movq	%rbx, 21824(%rsp)
	movl	$40, %edi
	callq	__Znwm
	movq	%rax, %rbx
	movsd	LCPI0_2(%rip), %xmm0    ## xmm0 = mem[0],zero
	movq	%rax, %rdi
	callq	__ZN14altered_carbon2js10ACJsNumberC1Ed
	movq	%rbx, 21816(%rsp)
	leaq	21824(%rsp), %rsi
	leaq	21816(%rsp), %rdx
	movl	$122, %edi
	callq	__ZN14altered_carbon2js8binaryOpEiRNSt3__18auto_ptrINS0_9ACJsValueEEES5_
	movq	%rax, 21808(%rsp)
	leaq	21832(%rsp), %rsi
	leaq	21808(%rsp), %rdx
	movl	$119, %edi
	callq	__ZN14altered_carbon2js8binaryOpEiRNSt3__18auto_ptrINS0_9ACJsValueEEES5_
	movq	%rax, 21800(%rsp)
	movl	$40, %edi
	callq	__Znwm
	movq	%rax, %rbx
	movsd	LCPI0_3(%rip), %xmm0    ## xmm0 = mem[0],zero
	movq	%rax, %rdi
	callq	__ZN14altered_carbon2js10ACJsNumberC1Ed
	movq	%rbx, 21792(%rsp)
	movl	$40, %edi
	callq	__Znwm
	movq	%rax, %rbx
	movsd	LCPI0_4(%rip), %xmm0    ## xmm0 = mem[0],zero
	movq	%rax, %rdi
	callq	__ZN14altered_carbon2js10ACJsNumberC1Ed
	movq	%rbx, 21784(%rsp)
	leaq	21792(%rsp), %rsi
	leaq	21784(%rsp), %rdx
	movl	$122, %edi
	callq	__ZN14altered_carbon2js8binaryOpEiRNSt3__18auto_ptrINS0_9ACJsValueEEES5_
	movq	%rax, 21776(%rsp)
	leaq	21800(%rsp), %rsi
	leaq	21776(%rsp), %rdx
	movl	$119, %edi
	callq	__ZN14altered_carbon2js8binaryOpEiRNSt3__18auto_ptrINS0_9ACJsValueEEES5_
	movq	%rax, 21768(%rsp)
	movl	$40, %edi
	callq	__Znwm
	movq	%rax, %rbx
	movsd	LCPI0_5(%rip), %xmm0    ## xmm0 = mem[0],zero
	movq	%rax, %rdi
	callq	__ZN14altered_carbon2js10ACJsNumberC1Ed
	movq	%rbx, 21760(%rsp)
	movl	$40, %edi
	callq	__Znwm
	movq	%rax, %rbx
	movsd	LCPI0_6(%rip), %xmm0    ## xmm0 = mem[0],zero
	movq	%rax, %rdi
	callq	__ZN14altered_carbon2js10ACJsNumberC1Ed
	movq	%rbx, 21752(%rsp)
	leaq	21760(%rsp), %rsi
	leaq	21752(%rsp), %rdx
	movl	$122, %edi
	callq	__ZN14altered_carbon2js8binaryOpEiRNSt3__18auto_ptrINS0_9ACJsValueEEES5_
	movq	%rax, 21744(%rsp)
	leaq	21768(%rsp), %rsi
	leaq	21744(%rsp), %rdx
	movl	$119, %edi
	callq	__ZN14altered_carbon2js8binaryOpEiRNSt3__18auto_ptrINS0_9ACJsValueEEES5_
	movq	%rax, 21736(%rsp)
	movl	$40, %edi
	callq	__Znwm
	movq	%rax, %rbx
	movsd	LCPI0_7(%rip), %xmm0    ## xmm0 = mem[0],zero
	movq	%rax, %rdi
	callq	__ZN14altered_carbon2js10ACJsNumberC1Ed
	movq	%rbx, 21728(%rsp)
	movl	$40, %edi
	callq	__Znwm
	movq	%rax, %rbx
	movsd	LCPI0_8(%rip), %xmm0    ## xmm0 = mem[0],zero
	movq	%rax, %rdi
	callq	__ZN14altered_carbon2js10ACJsNumberC1Ed
	movq	%rbx, 21720(%rsp)
	leaq	21728(%rsp), %rsi
	leaq	21720(%rsp), %rdx
	movl	$122, %edi
	callq	__ZN14altered_carbon2js8binaryOpEiRNSt3__18auto_ptrINS0_9ACJsValueEEES5_
	movq	%rax, 21712(%rsp)
	leaq	21736(%rsp), %rsi
	leaq	21712(%rsp), %rdx
	movl	$119, %edi
	callq	__ZN14altered_carbon2js8binaryOpEiRNSt3__18auto_ptrINS0_9ACJsValueEEES5_
	movq	%rax, 21704(%rsp)
	movl	$40, %edi
	callq	__Znwm
	movq	%rax, %rbx
	movsd	LCPI0_9(%rip), %xmm0    ## xmm0 = mem[0],zero
	movq	%rax, %rdi
	callq	__ZN14altered_carbon2js10ACJsNumberC1Ed
	movq	%rbx, 21696(%rsp)
	movl	$40, %edi
	callq	__Znwm
	movq	%rax, %rbx
	movsd	LCPI0_10(%rip), %xmm0   ## xmm0 = mem[0],zero
	movq	%rax, %rdi
	callq	__ZN14altered_carbon2js10ACJsNumberC1Ed
	movq	%rbx, 21688(%rsp)
	leaq	21696(%rsp), %rsi
	leaq	21688(%rsp), %rdx
	movl	$122, %edi
	callq	__ZN14altered_carbon2js8binaryOpEiRNSt3__18auto_ptrINS0_9ACJsValueEEES5_
	movq	%rax, 21680(%rsp)
	leaq	21704(%rsp), %rsi
	leaq	21680(%rsp), %rdx
	movl	$119, %edi
	callq	__ZN14altered_carbon2js8binaryOpEiRNSt3__18auto_ptrINS0_9ACJsValueEEES5_
	movq	%rax, 21672(%rsp)
	leaq	21672(%rsp), %rbx
LBB0_21:                                ## %ret.op944
	movq	%rbx, 24552(%rsp)
	movq	(%rbx), %rdi
	movq	(%rdi), %rax
	callq	*168(%rax)
	testb	$1, %al
	je	LBB0_23
## %bb.22:                              ## %ret.rhs1039
	movl	$40, %edi
	callq	__Znwm
	movq	%rax, %rbx
	movsd	LCPI0_0(%rip), %xmm0    ## xmm0 = mem[0],zero
	movq	%rax, %rdi
	callq	__ZN14altered_carbon2js10ACJsNumberC1Ed
	movq	%rbx, 21664(%rsp)
	movl	$40, %edi
	callq	__Znwm
	movq	%rax, %rbx
	movsd	LCPI0_1(%rip), %xmm0    ## xmm0 = mem[0],zero
	movq	%rax, %rdi
	callq	__ZN14altered_carbon2js10ACJsNumberC1Ed
	movq	%rbx, 21656(%rsp)
	movl	$40, %edi
	callq	__Znwm
	movq	%rax, %rbx
	movsd	LCPI0_2(%rip), %xmm0    ## xmm0 = mem[0],zero
	movq	%rax, %rdi
	callq	__ZN14altered_carbon2js10ACJsNumberC1Ed
	movq	%rbx, 21648(%rsp)
	leaq	21656(%rsp), %rsi
	leaq	21648(%rsp), %rdx
	movl	$122, %edi
	callq	__ZN14altered_carbon2js8binaryOpEiRNSt3__18auto_ptrINS0_9ACJsValueEEES5_
	movq	%rax, 21640(%rsp)
	leaq	21664(%rsp), %rsi
	leaq	21640(%rsp), %rdx
	movl	$119, %edi
	callq	__ZN14altered_carbon2js8binaryOpEiRNSt3__18auto_ptrINS0_9ACJsValueEEES5_
	movq	%rax, 21632(%rsp)
	movl	$40, %edi
	callq	__Znwm
	movq	%rax, %rbx
	movsd	LCPI0_3(%rip), %xmm0    ## xmm0 = mem[0],zero
	movq	%rax, %rdi
	callq	__ZN14altered_carbon2js10ACJsNumberC1Ed
	movq	%rbx, 21624(%rsp)
	movl	$40, %edi
	callq	__Znwm
	movq	%rax, %rbx
	movsd	LCPI0_4(%rip), %xmm0    ## xmm0 = mem[0],zero
	movq	%rax, %rdi
	callq	__ZN14altered_carbon2js10ACJsNumberC1Ed
	movq	%rbx, 21616(%rsp)
	leaq	21624(%rsp), %rsi
	leaq	21616(%rsp), %rdx
	movl	$122, %edi
	callq	__ZN14altered_carbon2js8binaryOpEiRNSt3__18auto_ptrINS0_9ACJsValueEEES5_
	movq	%rax, 21608(%rsp)
	leaq	21632(%rsp), %rsi
	leaq	21608(%rsp), %rdx
	movl	$119, %edi
	callq	__ZN14altered_carbon2js8binaryOpEiRNSt3__18auto_ptrINS0_9ACJsValueEEES5_
	movq	%rax, 21600(%rsp)
	movl	$40, %edi
	callq	__Znwm
	movq	%rax, %rbx
	movsd	LCPI0_5(%rip), %xmm0    ## xmm0 = mem[0],zero
	movq	%rax, %rdi
	callq	__ZN14altered_carbon2js10ACJsNumberC1Ed
	movq	%rbx, 21592(%rsp)
	movl	$40, %edi
	callq	__Znwm
	movq	%rax, %rbx
	movsd	LCPI0_6(%rip), %xmm0    ## xmm0 = mem[0],zero
	movq	%rax, %rdi
	callq	__ZN14altered_carbon2js10ACJsNumberC1Ed
	movq	%rbx, 21584(%rsp)
	leaq	21592(%rsp), %rsi
	leaq	21584(%rsp), %rdx
	movl	$122, %edi
	callq	__ZN14altered_carbon2js8binaryOpEiRNSt3__18auto_ptrINS0_9ACJsValueEEES5_
	movq	%rax, 21576(%rsp)
	leaq	21600(%rsp), %rsi
	leaq	21576(%rsp), %rdx
	movl	$119, %edi
	callq	__ZN14altered_carbon2js8binaryOpEiRNSt3__18auto_ptrINS0_9ACJsValueEEES5_
	movq	%rax, 21568(%rsp)
	movl	$40, %edi
	callq	__Znwm
	movq	%rax, %rbx
	movsd	LCPI0_7(%rip), %xmm0    ## xmm0 = mem[0],zero
	movq	%rax, %rdi
	callq	__ZN14altered_carbon2js10ACJsNumberC1Ed
	movq	%rbx, 21560(%rsp)
	movl	$40, %edi
	callq	__Znwm
	movq	%rax, %rbx
	movsd	LCPI0_8(%rip), %xmm0    ## xmm0 = mem[0],zero
	movq	%rax, %rdi
	callq	__ZN14altered_carbon2js10ACJsNumberC1Ed
	movq	%rbx, 21552(%rsp)
	leaq	21560(%rsp), %rsi
	leaq	21552(%rsp), %rdx
	movl	$122, %edi
	callq	__ZN14altered_carbon2js8binaryOpEiRNSt3__18auto_ptrINS0_9ACJsValueEEES5_
	movq	%rax, 21544(%rsp)
	leaq	21568(%rsp), %rsi
	leaq	21544(%rsp), %rdx
	movl	$119, %edi
	callq	__ZN14altered_carbon2js8binaryOpEiRNSt3__18auto_ptrINS0_9ACJsValueEEES5_
	movq	%rax, 21536(%rsp)
	movl	$40, %edi
	callq	__Znwm
	movq	%rax, %rbx
	movsd	LCPI0_9(%rip), %xmm0    ## xmm0 = mem[0],zero
	movq	%rax, %rdi
	callq	__ZN14altered_carbon2js10ACJsNumberC1Ed
	movq	%rbx, 21528(%rsp)
	movl	$40, %edi
	callq	__Znwm
	movq	%rax, %rbx
	movsd	LCPI0_10(%rip), %xmm0   ## xmm0 = mem[0],zero
	movq	%rax, %rdi
	callq	__ZN14altered_carbon2js10ACJsNumberC1Ed
	movq	%rbx, 21520(%rsp)
	leaq	21528(%rsp), %rsi
	leaq	21520(%rsp), %rdx
	movl	$122, %edi
	callq	__ZN14altered_carbon2js8binaryOpEiRNSt3__18auto_ptrINS0_9ACJsValueEEES5_
	movq	%rax, 21512(%rsp)
	leaq	21536(%rsp), %rsi
	leaq	21512(%rsp), %rdx
	movl	$119, %edi
	callq	__ZN14altered_carbon2js8binaryOpEiRNSt3__18auto_ptrINS0_9ACJsValueEEES5_
	movq	%rax, 21504(%rsp)
	leaq	21504(%rsp), %rbx
LBB0_23:                                ## %ret.op1040
	movq	%rbx, 24544(%rsp)
	movq	(%rbx), %rdi
	movq	(%rdi), %rax
	callq	*168(%rax)
	testb	$1, %al
	je	LBB0_25
## %bb.24:                              ## %ret.rhs1135
	movl	$40, %edi
	callq	__Znwm
	movq	%rax, %rbx
	movsd	LCPI0_0(%rip), %xmm0    ## xmm0 = mem[0],zero
	movq	%rax, %rdi
	callq	__ZN14altered_carbon2js10ACJsNumberC1Ed
	movq	%rbx, 21496(%rsp)
	movl	$40, %edi
	callq	__Znwm
	movq	%rax, %rbx
	movsd	LCPI0_1(%rip), %xmm0    ## xmm0 = mem[0],zero
	movq	%rax, %rdi
	callq	__ZN14altered_carbon2js10ACJsNumberC1Ed
	movq	%rbx, 21488(%rsp)
	movl	$40, %edi
	callq	__Znwm
	movq	%rax, %rbx
	movsd	LCPI0_2(%rip), %xmm0    ## xmm0 = mem[0],zero
	movq	%rax, %rdi
	callq	__ZN14altered_carbon2js10ACJsNumberC1Ed
	movq	%rbx, 21480(%rsp)
	leaq	21488(%rsp), %rsi
	leaq	21480(%rsp), %rdx
	movl	$122, %edi
	callq	__ZN14altered_carbon2js8binaryOpEiRNSt3__18auto_ptrINS0_9ACJsValueEEES5_
	movq	%rax, 21472(%rsp)
	leaq	21496(%rsp), %rsi
	leaq	21472(%rsp), %rdx
	movl	$119, %edi
	callq	__ZN14altered_carbon2js8binaryOpEiRNSt3__18auto_ptrINS0_9ACJsValueEEES5_
	movq	%rax, 21464(%rsp)
	movl	$40, %edi
	callq	__Znwm
	movq	%rax, %rbx
	movsd	LCPI0_3(%rip), %xmm0    ## xmm0 = mem[0],zero
	movq	%rax, %rdi
	callq	__ZN14altered_carbon2js10ACJsNumberC1Ed
	movq	%rbx, 21456(%rsp)
	movl	$40, %edi
	callq	__Znwm
	movq	%rax, %rbx
	movsd	LCPI0_4(%rip), %xmm0    ## xmm0 = mem[0],zero
	movq	%rax, %rdi
	callq	__ZN14altered_carbon2js10ACJsNumberC1Ed
	movq	%rbx, 21448(%rsp)
	leaq	21456(%rsp), %rsi
	leaq	21448(%rsp), %rdx
	movl	$122, %edi
	callq	__ZN14altered_carbon2js8binaryOpEiRNSt3__18auto_ptrINS0_9ACJsValueEEES5_
	movq	%rax, 21440(%rsp)
	leaq	21464(%rsp), %rsi
	leaq	21440(%rsp), %rdx
	movl	$119, %edi
	callq	__ZN14altered_carbon2js8binaryOpEiRNSt3__18auto_ptrINS0_9ACJsValueEEES5_
	movq	%rax, 21432(%rsp)
	movl	$40, %edi
	callq	__Znwm
	movq	%rax, %rbx
	movsd	LCPI0_5(%rip), %xmm0    ## xmm0 = mem[0],zero
	movq	%rax, %rdi
	callq	__ZN14altered_carbon2js10ACJsNumberC1Ed
	movq	%rbx, 21424(%rsp)
	movl	$40, %edi
	callq	__Znwm
	movq	%rax, %rbx
	movsd	LCPI0_6(%rip), %xmm0    ## xmm0 = mem[0],zero
	movq	%rax, %rdi
	callq	__ZN14altered_carbon2js10ACJsNumberC1Ed
	movq	%rbx, 21416(%rsp)
	leaq	21424(%rsp), %rsi
	leaq	21416(%rsp), %rdx
	movl	$122, %edi
	callq	__ZN14altered_carbon2js8binaryOpEiRNSt3__18auto_ptrINS0_9ACJsValueEEES5_
	movq	%rax, 21408(%rsp)
	leaq	21432(%rsp), %rsi
	leaq	21408(%rsp), %rdx
	movl	$119, %edi
	callq	__ZN14altered_carbon2js8binaryOpEiRNSt3__18auto_ptrINS0_9ACJsValueEEES5_
	movq	%rax, 21400(%rsp)
	movl	$40, %edi
	callq	__Znwm
	movq	%rax, %rbx
	movsd	LCPI0_7(%rip), %xmm0    ## xmm0 = mem[0],zero
	movq	%rax, %rdi
	callq	__ZN14altered_carbon2js10ACJsNumberC1Ed
	movq	%rbx, 21392(%rsp)
	movl	$40, %edi
	callq	__Znwm
	movq	%rax, %rbx
	movsd	LCPI0_8(%rip), %xmm0    ## xmm0 = mem[0],zero
	movq	%rax, %rdi
	callq	__ZN14altered_carbon2js10ACJsNumberC1Ed
	movq	%rbx, 21384(%rsp)
	leaq	21392(%rsp), %rsi
	leaq	21384(%rsp), %rdx
	movl	$122, %edi
	callq	__ZN14altered_carbon2js8binaryOpEiRNSt3__18auto_ptrINS0_9ACJsValueEEES5_
	movq	%rax, 21376(%rsp)
	leaq	21400(%rsp), %rsi
	leaq	21376(%rsp), %rdx
	movl	$119, %edi
	callq	__ZN14altered_carbon2js8binaryOpEiRNSt3__18auto_ptrINS0_9ACJsValueEEES5_
	movq	%rax, 21368(%rsp)
	movl	$40, %edi
	callq	__Znwm
	movq	%rax, %rbx
	movsd	LCPI0_9(%rip), %xmm0    ## xmm0 = mem[0],zero
	movq	%rax, %rdi
	callq	__ZN14altered_carbon2js10ACJsNumberC1Ed
	movq	%rbx, 21360(%rsp)
	movl	$40, %edi
	callq	__Znwm
	movq	%rax, %rbx
	movsd	LCPI0_10(%rip), %xmm0   ## xmm0 = mem[0],zero
	movq	%rax, %rdi
	callq	__ZN14altered_carbon2js10ACJsNumberC1Ed
	movq	%rbx, 21352(%rsp)
	leaq	21360(%rsp), %rsi
	leaq	21352(%rsp), %rdx
	movl	$122, %edi
	callq	__ZN14altered_carbon2js8binaryOpEiRNSt3__18auto_ptrINS0_9ACJsValueEEES5_
	movq	%rax, 21344(%rsp)
	leaq	21368(%rsp), %rsi
	leaq	21344(%rsp), %rdx
	movl	$119, %edi
	callq	__ZN14altered_carbon2js8binaryOpEiRNSt3__18auto_ptrINS0_9ACJsValueEEES5_
	movq	%rax, 21336(%rsp)
	leaq	21336(%rsp), %rbx
LBB0_25:                                ## %ret.op1136
	movq	%rbx, 24536(%rsp)
	movq	(%rbx), %rdi
	movq	(%rdi), %rax
	callq	*168(%rax)
	testb	$1, %al
	je	LBB0_27
## %bb.26:                              ## %ret.rhs1231
	movl	$40, %edi
	callq	__Znwm
	movq	%rax, %rbx
	movsd	LCPI0_0(%rip), %xmm0    ## xmm0 = mem[0],zero
	movq	%rax, %rdi
	callq	__ZN14altered_carbon2js10ACJsNumberC1Ed
	movq	%rbx, 21328(%rsp)
	movl	$40, %edi
	callq	__Znwm
	movq	%rax, %rbx
	movsd	LCPI0_1(%rip), %xmm0    ## xmm0 = mem[0],zero
	movq	%rax, %rdi
	callq	__ZN14altered_carbon2js10ACJsNumberC1Ed
	movq	%rbx, 21320(%rsp)
	movl	$40, %edi
	callq	__Znwm
	movq	%rax, %rbx
	movsd	LCPI0_2(%rip), %xmm0    ## xmm0 = mem[0],zero
	movq	%rax, %rdi
	callq	__ZN14altered_carbon2js10ACJsNumberC1Ed
	movq	%rbx, 21312(%rsp)
	leaq	21320(%rsp), %rsi
	leaq	21312(%rsp), %rdx
	movl	$122, %edi
	callq	__ZN14altered_carbon2js8binaryOpEiRNSt3__18auto_ptrINS0_9ACJsValueEEES5_
	movq	%rax, 21304(%rsp)
	leaq	21328(%rsp), %rsi
	leaq	21304(%rsp), %rdx
	movl	$119, %edi
	callq	__ZN14altered_carbon2js8binaryOpEiRNSt3__18auto_ptrINS0_9ACJsValueEEES5_
	movq	%rax, 21296(%rsp)
	movl	$40, %edi
	callq	__Znwm
	movq	%rax, %rbx
	movsd	LCPI0_3(%rip), %xmm0    ## xmm0 = mem[0],zero
	movq	%rax, %rdi
	callq	__ZN14altered_carbon2js10ACJsNumberC1Ed
	movq	%rbx, 21288(%rsp)
	movl	$40, %edi
	callq	__Znwm
	movq	%rax, %rbx
	movsd	LCPI0_4(%rip), %xmm0    ## xmm0 = mem[0],zero
	movq	%rax, %rdi
	callq	__ZN14altered_carbon2js10ACJsNumberC1Ed
	movq	%rbx, 21280(%rsp)
	leaq	21288(%rsp), %rsi
	leaq	21280(%rsp), %rdx
	movl	$122, %edi
	callq	__ZN14altered_carbon2js8binaryOpEiRNSt3__18auto_ptrINS0_9ACJsValueEEES5_
	movq	%rax, 21272(%rsp)
	leaq	21296(%rsp), %rsi
	leaq	21272(%rsp), %rdx
	movl	$119, %edi
	callq	__ZN14altered_carbon2js8binaryOpEiRNSt3__18auto_ptrINS0_9ACJsValueEEES5_
	movq	%rax, 21264(%rsp)
	movl	$40, %edi
	callq	__Znwm
	movq	%rax, %rbx
	movsd	LCPI0_5(%rip), %xmm0    ## xmm0 = mem[0],zero
	movq	%rax, %rdi
	callq	__ZN14altered_carbon2js10ACJsNumberC1Ed
	movq	%rbx, 21256(%rsp)
	movl	$40, %edi
	callq	__Znwm
	movq	%rax, %rbx
	movsd	LCPI0_6(%rip), %xmm0    ## xmm0 = mem[0],zero
	movq	%rax, %rdi
	callq	__ZN14altered_carbon2js10ACJsNumberC1Ed
	movq	%rbx, 21248(%rsp)
	leaq	21256(%rsp), %rsi
	leaq	21248(%rsp), %rdx
	movl	$122, %edi
	callq	__ZN14altered_carbon2js8binaryOpEiRNSt3__18auto_ptrINS0_9ACJsValueEEES5_
	movq	%rax, 21240(%rsp)
	leaq	21264(%rsp), %rsi
	leaq	21240(%rsp), %rdx
	movl	$119, %edi
	callq	__ZN14altered_carbon2js8binaryOpEiRNSt3__18auto_ptrINS0_9ACJsValueEEES5_
	movq	%rax, 21232(%rsp)
	movl	$40, %edi
	callq	__Znwm
	movq	%rax, %rbx
	movsd	LCPI0_7(%rip), %xmm0    ## xmm0 = mem[0],zero
	movq	%rax, %rdi
	callq	__ZN14altered_carbon2js10ACJsNumberC1Ed
	movq	%rbx, 21224(%rsp)
	movl	$40, %edi
	callq	__Znwm
	movq	%rax, %rbx
	movsd	LCPI0_8(%rip), %xmm0    ## xmm0 = mem[0],zero
	movq	%rax, %rdi
	callq	__ZN14altered_carbon2js10ACJsNumberC1Ed
	movq	%rbx, 21216(%rsp)
	leaq	21224(%rsp), %rsi
	leaq	21216(%rsp), %rdx
	movl	$122, %edi
	callq	__ZN14altered_carbon2js8binaryOpEiRNSt3__18auto_ptrINS0_9ACJsValueEEES5_
	movq	%rax, 21208(%rsp)
	leaq	21232(%rsp), %rsi
	leaq	21208(%rsp), %rdx
	movl	$119, %edi
	callq	__ZN14altered_carbon2js8binaryOpEiRNSt3__18auto_ptrINS0_9ACJsValueEEES5_
	movq	%rax, 21200(%rsp)
	movl	$40, %edi
	callq	__Znwm
	movq	%rax, %rbx
	movsd	LCPI0_9(%rip), %xmm0    ## xmm0 = mem[0],zero
	movq	%rax, %rdi
	callq	__ZN14altered_carbon2js10ACJsNumberC1Ed
	movq	%rbx, 21192(%rsp)
	movl	$40, %edi
	callq	__Znwm
	movq	%rax, %rbx
	movsd	LCPI0_10(%rip), %xmm0   ## xmm0 = mem[0],zero
	movq	%rax, %rdi
	callq	__ZN14altered_carbon2js10ACJsNumberC1Ed
	movq	%rbx, 21184(%rsp)
	leaq	21192(%rsp), %rsi
	leaq	21184(%rsp), %rdx
	movl	$122, %edi
	callq	__ZN14altered_carbon2js8binaryOpEiRNSt3__18auto_ptrINS0_9ACJsValueEEES5_
	movq	%rax, 21176(%rsp)
	leaq	21200(%rsp), %rsi
	leaq	21176(%rsp), %rdx
	movl	$119, %edi
	callq	__ZN14altered_carbon2js8binaryOpEiRNSt3__18auto_ptrINS0_9ACJsValueEEES5_
	movq	%rax, 21168(%rsp)
	leaq	21168(%rsp), %rbx
LBB0_27:                                ## %ret.op1232
	movq	%rbx, 24528(%rsp)
	movq	(%rbx), %rdi
	movq	(%rdi), %rax
	callq	*168(%rax)
	testb	$1, %al
	je	LBB0_29
## %bb.28:                              ## %ret.rhs1327
	movl	$40, %edi
	callq	__Znwm
	movq	%rax, %rbx
	movsd	LCPI0_0(%rip), %xmm0    ## xmm0 = mem[0],zero
	movq	%rax, %rdi
	callq	__ZN14altered_carbon2js10ACJsNumberC1Ed
	movq	%rbx, 21160(%rsp)
	movl	$40, %edi
	callq	__Znwm
	movq	%rax, %rbx
	movsd	LCPI0_1(%rip), %xmm0    ## xmm0 = mem[0],zero
	movq	%rax, %rdi
	callq	__ZN14altered_carbon2js10ACJsNumberC1Ed
	movq	%rbx, 21152(%rsp)
	movl	$40, %edi
	callq	__Znwm
	movq	%rax, %rbx
	movsd	LCPI0_2(%rip), %xmm0    ## xmm0 = mem[0],zero
	movq	%rax, %rdi
	callq	__ZN14altered_carbon2js10ACJsNumberC1Ed
	movq	%rbx, 21144(%rsp)
	leaq	21152(%rsp), %rsi
	leaq	21144(%rsp), %rdx
	movl	$122, %edi
	callq	__ZN14altered_carbon2js8binaryOpEiRNSt3__18auto_ptrINS0_9ACJsValueEEES5_
	movq	%rax, 21136(%rsp)
	leaq	21160(%rsp), %rsi
	leaq	21136(%rsp), %rdx
	movl	$119, %edi
	callq	__ZN14altered_carbon2js8binaryOpEiRNSt3__18auto_ptrINS0_9ACJsValueEEES5_
	movq	%rax, 21128(%rsp)
	movl	$40, %edi
	callq	__Znwm
	movq	%rax, %rbx
	movsd	LCPI0_3(%rip), %xmm0    ## xmm0 = mem[0],zero
	movq	%rax, %rdi
	callq	__ZN14altered_carbon2js10ACJsNumberC1Ed
	movq	%rbx, 21120(%rsp)
	movl	$40, %edi
	callq	__Znwm
	movq	%rax, %rbx
	movsd	LCPI0_4(%rip), %xmm0    ## xmm0 = mem[0],zero
	movq	%rax, %rdi
	callq	__ZN14altered_carbon2js10ACJsNumberC1Ed
	movq	%rbx, 21112(%rsp)
	leaq	21120(%rsp), %rsi
	leaq	21112(%rsp), %rdx
	movl	$122, %edi
	callq	__ZN14altered_carbon2js8binaryOpEiRNSt3__18auto_ptrINS0_9ACJsValueEEES5_
	movq	%rax, 21104(%rsp)
	leaq	21128(%rsp), %rsi
	leaq	21104(%rsp), %rdx
	movl	$119, %edi
	callq	__ZN14altered_carbon2js8binaryOpEiRNSt3__18auto_ptrINS0_9ACJsValueEEES5_
	movq	%rax, 21096(%rsp)
	movl	$40, %edi
	callq	__Znwm
	movq	%rax, %rbx
	movsd	LCPI0_5(%rip), %xmm0    ## xmm0 = mem[0],zero
	movq	%rax, %rdi
	callq	__ZN14altered_carbon2js10ACJsNumberC1Ed
	movq	%rbx, 21088(%rsp)
	movl	$40, %edi
	callq	__Znwm
	movq	%rax, %rbx
	movsd	LCPI0_6(%rip), %xmm0    ## xmm0 = mem[0],zero
	movq	%rax, %rdi
	callq	__ZN14altered_carbon2js10ACJsNumberC1Ed
	movq	%rbx, 21080(%rsp)
	leaq	21088(%rsp), %rsi
	leaq	21080(%rsp), %rdx
	movl	$122, %edi
	callq	__ZN14altered_carbon2js8binaryOpEiRNSt3__18auto_ptrINS0_9ACJsValueEEES5_
	movq	%rax, 21072(%rsp)
	leaq	21096(%rsp), %rsi
	leaq	21072(%rsp), %rdx
	movl	$119, %edi
	callq	__ZN14altered_carbon2js8binaryOpEiRNSt3__18auto_ptrINS0_9ACJsValueEEES5_
	movq	%rax, 21064(%rsp)
	movl	$40, %edi
	callq	__Znwm
	movq	%rax, %rbx
	movsd	LCPI0_7(%rip), %xmm0    ## xmm0 = mem[0],zero
	movq	%rax, %rdi
	callq	__ZN14altered_carbon2js10ACJsNumberC1Ed
	movq	%rbx, 21056(%rsp)
	movl	$40, %edi
	callq	__Znwm
	movq	%rax, %rbx
	movsd	LCPI0_8(%rip), %xmm0    ## xmm0 = mem[0],zero
	movq	%rax, %rdi
	callq	__ZN14altered_carbon2js10ACJsNumberC1Ed
	movq	%rbx, 21048(%rsp)
	leaq	21056(%rsp), %rsi
	leaq	21048(%rsp), %rdx
	movl	$122, %edi
	callq	__ZN14altered_carbon2js8binaryOpEiRNSt3__18auto_ptrINS0_9ACJsValueEEES5_
	movq	%rax, 21040(%rsp)
	leaq	21064(%rsp), %rsi
	leaq	21040(%rsp), %rdx
	movl	$119, %edi
	callq	__ZN14altered_carbon2js8binaryOpEiRNSt3__18auto_ptrINS0_9ACJsValueEEES5_
	movq	%rax, 21032(%rsp)
	movl	$40, %edi
	callq	__Znwm
	movq	%rax, %rbx
	movsd	LCPI0_9(%rip), %xmm0    ## xmm0 = mem[0],zero
	movq	%rax, %rdi
	callq	__ZN14altered_carbon2js10ACJsNumberC1Ed
	movq	%rbx, 21024(%rsp)
	movl	$40, %edi
	callq	__Znwm
	movq	%rax, %rbx
	movsd	LCPI0_10(%rip), %xmm0   ## xmm0 = mem[0],zero
	movq	%rax, %rdi
	callq	__ZN14altered_carbon2js10ACJsNumberC1Ed
	movq	%rbx, 21016(%rsp)
	leaq	21024(%rsp), %rsi
	leaq	21016(%rsp), %rdx
	movl	$122, %edi
	callq	__ZN14altered_carbon2js8binaryOpEiRNSt3__18auto_ptrINS0_9ACJsValueEEES5_
	movq	%rax, 21008(%rsp)
	leaq	21032(%rsp), %rsi
	leaq	21008(%rsp), %rdx
	movl	$119, %edi
	callq	__ZN14altered_carbon2js8binaryOpEiRNSt3__18auto_ptrINS0_9ACJsValueEEES5_
	movq	%rax, 21000(%rsp)
	leaq	21000(%rsp), %rbx
LBB0_29:                                ## %ret.op1328
	movq	%rbx, 24520(%rsp)
	movq	(%rbx), %rdi
	movq	(%rdi), %rax
	callq	*168(%rax)
	testb	$1, %al
	je	LBB0_31
## %bb.30:                              ## %ret.rhs1423
	movl	$40, %edi
	callq	__Znwm
	movq	%rax, %rbx
	movsd	LCPI0_0(%rip), %xmm0    ## xmm0 = mem[0],zero
	movq	%rax, %rdi
	callq	__ZN14altered_carbon2js10ACJsNumberC1Ed
	movq	%rbx, 20992(%rsp)
	movl	$40, %edi
	callq	__Znwm
	movq	%rax, %rbx
	movsd	LCPI0_1(%rip), %xmm0    ## xmm0 = mem[0],zero
	movq	%rax, %rdi
	callq	__ZN14altered_carbon2js10ACJsNumberC1Ed
	movq	%rbx, 20984(%rsp)
	movl	$40, %edi
	callq	__Znwm
	movq	%rax, %rbx
	movsd	LCPI0_2(%rip), %xmm0    ## xmm0 = mem[0],zero
	movq	%rax, %rdi
	callq	__ZN14altered_carbon2js10ACJsNumberC1Ed
	movq	%rbx, 20976(%rsp)
	leaq	20984(%rsp), %rsi
	leaq	20976(%rsp), %rdx
	movl	$122, %edi
	callq	__ZN14altered_carbon2js8binaryOpEiRNSt3__18auto_ptrINS0_9ACJsValueEEES5_
	movq	%rax, 20968(%rsp)
	leaq	20992(%rsp), %rsi
	leaq	20968(%rsp), %rdx
	movl	$119, %edi
	callq	__ZN14altered_carbon2js8binaryOpEiRNSt3__18auto_ptrINS0_9ACJsValueEEES5_
	movq	%rax, 20960(%rsp)
	movl	$40, %edi
	callq	__Znwm
	movq	%rax, %rbx
	movsd	LCPI0_3(%rip), %xmm0    ## xmm0 = mem[0],zero
	movq	%rax, %rdi
	callq	__ZN14altered_carbon2js10ACJsNumberC1Ed
	movq	%rbx, 20952(%rsp)
	movl	$40, %edi
	callq	__Znwm
	movq	%rax, %rbx
	movsd	LCPI0_4(%rip), %xmm0    ## xmm0 = mem[0],zero
	movq	%rax, %rdi
	callq	__ZN14altered_carbon2js10ACJsNumberC1Ed
	movq	%rbx, 20944(%rsp)
	leaq	20952(%rsp), %rsi
	leaq	20944(%rsp), %rdx
	movl	$122, %edi
	callq	__ZN14altered_carbon2js8binaryOpEiRNSt3__18auto_ptrINS0_9ACJsValueEEES5_
	movq	%rax, 20936(%rsp)
	leaq	20960(%rsp), %rsi
	leaq	20936(%rsp), %rdx
	movl	$119, %edi
	callq	__ZN14altered_carbon2js8binaryOpEiRNSt3__18auto_ptrINS0_9ACJsValueEEES5_
	movq	%rax, 20928(%rsp)
	movl	$40, %edi
	callq	__Znwm
	movq	%rax, %rbx
	movsd	LCPI0_5(%rip), %xmm0    ## xmm0 = mem[0],zero
	movq	%rax, %rdi
	callq	__ZN14altered_carbon2js10ACJsNumberC1Ed
	movq	%rbx, 20920(%rsp)
	movl	$40, %edi
	callq	__Znwm
	movq	%rax, %rbx
	movsd	LCPI0_6(%rip), %xmm0    ## xmm0 = mem[0],zero
	movq	%rax, %rdi
	callq	__ZN14altered_carbon2js10ACJsNumberC1Ed
	movq	%rbx, 20912(%rsp)
	leaq	20920(%rsp), %rsi
	leaq	20912(%rsp), %rdx
	movl	$122, %edi
	callq	__ZN14altered_carbon2js8binaryOpEiRNSt3__18auto_ptrINS0_9ACJsValueEEES5_
	movq	%rax, 20904(%rsp)
	leaq	20928(%rsp), %rsi
	leaq	20904(%rsp), %rdx
	movl	$119, %edi
	callq	__ZN14altered_carbon2js8binaryOpEiRNSt3__18auto_ptrINS0_9ACJsValueEEES5_
	movq	%rax, 20896(%rsp)
	movl	$40, %edi
	callq	__Znwm
	movq	%rax, %rbx
	movsd	LCPI0_7(%rip), %xmm0    ## xmm0 = mem[0],zero
	movq	%rax, %rdi
	callq	__ZN14altered_carbon2js10ACJsNumberC1Ed
	movq	%rbx, 20888(%rsp)
	movl	$40, %edi
	callq	__Znwm
	movq	%rax, %rbx
	movsd	LCPI0_8(%rip), %xmm0    ## xmm0 = mem[0],zero
	movq	%rax, %rdi
	callq	__ZN14altered_carbon2js10ACJsNumberC1Ed
	movq	%rbx, 20880(%rsp)
	leaq	20888(%rsp), %rsi
	leaq	20880(%rsp), %rdx
	movl	$122, %edi
	callq	__ZN14altered_carbon2js8binaryOpEiRNSt3__18auto_ptrINS0_9ACJsValueEEES5_
	movq	%rax, 20872(%rsp)
	leaq	20896(%rsp), %rsi
	leaq	20872(%rsp), %rdx
	movl	$119, %edi
	callq	__ZN14altered_carbon2js8binaryOpEiRNSt3__18auto_ptrINS0_9ACJsValueEEES5_
	movq	%rax, 20864(%rsp)
	movl	$40, %edi
	callq	__Znwm
	movq	%rax, %rbx
	movsd	LCPI0_9(%rip), %xmm0    ## xmm0 = mem[0],zero
	movq	%rax, %rdi
	callq	__ZN14altered_carbon2js10ACJsNumberC1Ed
	movq	%rbx, 20856(%rsp)
	movl	$40, %edi
	callq	__Znwm
	movq	%rax, %rbx
	movsd	LCPI0_10(%rip), %xmm0   ## xmm0 = mem[0],zero
	movq	%rax, %rdi
	callq	__ZN14altered_carbon2js10ACJsNumberC1Ed
	movq	%rbx, 20848(%rsp)
	leaq	20856(%rsp), %rsi
	leaq	20848(%rsp), %rdx
	movl	$122, %edi
	callq	__ZN14altered_carbon2js8binaryOpEiRNSt3__18auto_ptrINS0_9ACJsValueEEES5_
	movq	%rax, 20840(%rsp)
	leaq	20864(%rsp), %rsi
	leaq	20840(%rsp), %rdx
	movl	$119, %edi
	callq	__ZN14altered_carbon2js8binaryOpEiRNSt3__18auto_ptrINS0_9ACJsValueEEES5_
	movq	%rax, 20832(%rsp)
	leaq	20832(%rsp), %rbx
LBB0_31:                                ## %ret.op1424
	movq	%rbx, 24512(%rsp)
	movq	(%rbx), %rdi
	movq	(%rdi), %rax
	callq	*168(%rax)
	testb	$1, %al
	je	LBB0_33
## %bb.32:                              ## %ret.rhs1519
	movl	$40, %edi
	callq	__Znwm
	movq	%rax, %rbx
	movsd	LCPI0_0(%rip), %xmm0    ## xmm0 = mem[0],zero
	movq	%rax, %rdi
	callq	__ZN14altered_carbon2js10ACJsNumberC1Ed
	movq	%rbx, 20824(%rsp)
	movl	$40, %edi
	callq	__Znwm
	movq	%rax, %rbx
	movsd	LCPI0_1(%rip), %xmm0    ## xmm0 = mem[0],zero
	movq	%rax, %rdi
	callq	__ZN14altered_carbon2js10ACJsNumberC1Ed
	movq	%rbx, 20816(%rsp)
	movl	$40, %edi
	callq	__Znwm
	movq	%rax, %rbx
	movsd	LCPI0_2(%rip), %xmm0    ## xmm0 = mem[0],zero
	movq	%rax, %rdi
	callq	__ZN14altered_carbon2js10ACJsNumberC1Ed
	movq	%rbx, 20808(%rsp)
	leaq	20816(%rsp), %rsi
	leaq	20808(%rsp), %rdx
	movl	$122, %edi
	callq	__ZN14altered_carbon2js8binaryOpEiRNSt3__18auto_ptrINS0_9ACJsValueEEES5_
	movq	%rax, 20800(%rsp)
	leaq	20824(%rsp), %rsi
	leaq	20800(%rsp), %rdx
	movl	$119, %edi
	callq	__ZN14altered_carbon2js8binaryOpEiRNSt3__18auto_ptrINS0_9ACJsValueEEES5_
	movq	%rax, 20792(%rsp)
	movl	$40, %edi
	callq	__Znwm
	movq	%rax, %rbx
	movsd	LCPI0_3(%rip), %xmm0    ## xmm0 = mem[0],zero
	movq	%rax, %rdi
	callq	__ZN14altered_carbon2js10ACJsNumberC1Ed
	movq	%rbx, 20784(%rsp)
	movl	$40, %edi
	callq	__Znwm
	movq	%rax, %rbx
	movsd	LCPI0_4(%rip), %xmm0    ## xmm0 = mem[0],zero
	movq	%rax, %rdi
	callq	__ZN14altered_carbon2js10ACJsNumberC1Ed
	movq	%rbx, 20776(%rsp)
	leaq	20784(%rsp), %rsi
	leaq	20776(%rsp), %rdx
	movl	$122, %edi
	callq	__ZN14altered_carbon2js8binaryOpEiRNSt3__18auto_ptrINS0_9ACJsValueEEES5_
	movq	%rax, 20768(%rsp)
	leaq	20792(%rsp), %rsi
	leaq	20768(%rsp), %rdx
	movl	$119, %edi
	callq	__ZN14altered_carbon2js8binaryOpEiRNSt3__18auto_ptrINS0_9ACJsValueEEES5_
	movq	%rax, 20760(%rsp)
	movl	$40, %edi
	callq	__Znwm
	movq	%rax, %rbx
	movsd	LCPI0_5(%rip), %xmm0    ## xmm0 = mem[0],zero
	movq	%rax, %rdi
	callq	__ZN14altered_carbon2js10ACJsNumberC1Ed
	movq	%rbx, 20752(%rsp)
	movl	$40, %edi
	callq	__Znwm
	movq	%rax, %rbx
	movsd	LCPI0_6(%rip), %xmm0    ## xmm0 = mem[0],zero
	movq	%rax, %rdi
	callq	__ZN14altered_carbon2js10ACJsNumberC1Ed
	movq	%rbx, 20744(%rsp)
	leaq	20752(%rsp), %rsi
	leaq	20744(%rsp), %rdx
	movl	$122, %edi
	callq	__ZN14altered_carbon2js8binaryOpEiRNSt3__18auto_ptrINS0_9ACJsValueEEES5_
	movq	%rax, 20736(%rsp)
	leaq	20760(%rsp), %rsi
	leaq	20736(%rsp), %rdx
	movl	$119, %edi
	callq	__ZN14altered_carbon2js8binaryOpEiRNSt3__18auto_ptrINS0_9ACJsValueEEES5_
	movq	%rax, 20728(%rsp)
	movl	$40, %edi
	callq	__Znwm
	movq	%rax, %rbx
	movsd	LCPI0_7(%rip), %xmm0    ## xmm0 = mem[0],zero
	movq	%rax, %rdi
	callq	__ZN14altered_carbon2js10ACJsNumberC1Ed
	movq	%rbx, 20720(%rsp)
	movl	$40, %edi
	callq	__Znwm
	movq	%rax, %rbx
	movsd	LCPI0_8(%rip), %xmm0    ## xmm0 = mem[0],zero
	movq	%rax, %rdi
	callq	__ZN14altered_carbon2js10ACJsNumberC1Ed
	movq	%rbx, 20712(%rsp)
	leaq	20720(%rsp), %rsi
	leaq	20712(%rsp), %rdx
	movl	$122, %edi
	callq	__ZN14altered_carbon2js8binaryOpEiRNSt3__18auto_ptrINS0_9ACJsValueEEES5_
	movq	%rax, 20704(%rsp)
	leaq	20728(%rsp), %rsi
	leaq	20704(%rsp), %rdx
	movl	$119, %edi
	callq	__ZN14altered_carbon2js8binaryOpEiRNSt3__18auto_ptrINS0_9ACJsValueEEES5_
	movq	%rax, 20696(%rsp)
	movl	$40, %edi
	callq	__Znwm
	movq	%rax, %rbx
	movsd	LCPI0_9(%rip), %xmm0    ## xmm0 = mem[0],zero
	movq	%rax, %rdi
	callq	__ZN14altered_carbon2js10ACJsNumberC1Ed
	movq	%rbx, 20688(%rsp)
	movl	$40, %edi
	callq	__Znwm
	movq	%rax, %rbx
	movsd	LCPI0_10(%rip), %xmm0   ## xmm0 = mem[0],zero
	movq	%rax, %rdi
	callq	__ZN14altered_carbon2js10ACJsNumberC1Ed
	movq	%rbx, 20680(%rsp)
	leaq	20688(%rsp), %rsi
	leaq	20680(%rsp), %rdx
	movl	$122, %edi
	callq	__ZN14altered_carbon2js8binaryOpEiRNSt3__18auto_ptrINS0_9ACJsValueEEES5_
	movq	%rax, 20672(%rsp)
	leaq	20696(%rsp), %rsi
	leaq	20672(%rsp), %rdx
	movl	$119, %edi
	callq	__ZN14altered_carbon2js8binaryOpEiRNSt3__18auto_ptrINS0_9ACJsValueEEES5_
	movq	%rax, 20664(%rsp)
	leaq	20664(%rsp), %rbx
LBB0_33:                                ## %ret.op1520
	movq	%rbx, 24504(%rsp)
	movq	(%rbx), %rdi
	movq	(%rdi), %rax
	callq	*168(%rax)
	testb	$1, %al
	je	LBB0_35
## %bb.34:                              ## %ret.rhs1615
	movl	$40, %edi
	callq	__Znwm
	movq	%rax, %rbx
	movsd	LCPI0_0(%rip), %xmm0    ## xmm0 = mem[0],zero
	movq	%rax, %rdi
	callq	__ZN14altered_carbon2js10ACJsNumberC1Ed
	movq	%rbx, 20656(%rsp)
	movl	$40, %edi
	callq	__Znwm
	movq	%rax, %rbx
	movsd	LCPI0_1(%rip), %xmm0    ## xmm0 = mem[0],zero
	movq	%rax, %rdi
	callq	__ZN14altered_carbon2js10ACJsNumberC1Ed
	movq	%rbx, 20648(%rsp)
	movl	$40, %edi
	callq	__Znwm
	movq	%rax, %rbx
	movsd	LCPI0_2(%rip), %xmm0    ## xmm0 = mem[0],zero
	movq	%rax, %rdi
	callq	__ZN14altered_carbon2js10ACJsNumberC1Ed
	movq	%rbx, 20640(%rsp)
	leaq	20648(%rsp), %rsi
	leaq	20640(%rsp), %rdx
	movl	$122, %edi
	callq	__ZN14altered_carbon2js8binaryOpEiRNSt3__18auto_ptrINS0_9ACJsValueEEES5_
	movq	%rax, 20632(%rsp)
	leaq	20656(%rsp), %rsi
	leaq	20632(%rsp), %rdx
	movl	$119, %edi
	callq	__ZN14altered_carbon2js8binaryOpEiRNSt3__18auto_ptrINS0_9ACJsValueEEES5_
	movq	%rax, 20624(%rsp)
	movl	$40, %edi
	callq	__Znwm
	movq	%rax, %rbx
	movsd	LCPI0_3(%rip), %xmm0    ## xmm0 = mem[0],zero
	movq	%rax, %rdi
	callq	__ZN14altered_carbon2js10ACJsNumberC1Ed
	movq	%rbx, 20616(%rsp)
	movl	$40, %edi
	callq	__Znwm
	movq	%rax, %rbx
	movsd	LCPI0_4(%rip), %xmm0    ## xmm0 = mem[0],zero
	movq	%rax, %rdi
	callq	__ZN14altered_carbon2js10ACJsNumberC1Ed
	movq	%rbx, 20608(%rsp)
	leaq	20616(%rsp), %rsi
	leaq	20608(%rsp), %rdx
	movl	$122, %edi
	callq	__ZN14altered_carbon2js8binaryOpEiRNSt3__18auto_ptrINS0_9ACJsValueEEES5_
	movq	%rax, 20600(%rsp)
	leaq	20624(%rsp), %rsi
	leaq	20600(%rsp), %rdx
	movl	$119, %edi
	callq	__ZN14altered_carbon2js8binaryOpEiRNSt3__18auto_ptrINS0_9ACJsValueEEES5_
	movq	%rax, 20592(%rsp)
	movl	$40, %edi
	callq	__Znwm
	movq	%rax, %rbx
	movsd	LCPI0_5(%rip), %xmm0    ## xmm0 = mem[0],zero
	movq	%rax, %rdi
	callq	__ZN14altered_carbon2js10ACJsNumberC1Ed
	movq	%rbx, 20584(%rsp)
	movl	$40, %edi
	callq	__Znwm
	movq	%rax, %rbx
	movsd	LCPI0_6(%rip), %xmm0    ## xmm0 = mem[0],zero
	movq	%rax, %rdi
	callq	__ZN14altered_carbon2js10ACJsNumberC1Ed
	movq	%rbx, 20576(%rsp)
	leaq	20584(%rsp), %rsi
	leaq	20576(%rsp), %rdx
	movl	$122, %edi
	callq	__ZN14altered_carbon2js8binaryOpEiRNSt3__18auto_ptrINS0_9ACJsValueEEES5_
	movq	%rax, 20568(%rsp)
	leaq	20592(%rsp), %rsi
	leaq	20568(%rsp), %rdx
	movl	$119, %edi
	callq	__ZN14altered_carbon2js8binaryOpEiRNSt3__18auto_ptrINS0_9ACJsValueEEES5_
	movq	%rax, 20560(%rsp)
	movl	$40, %edi
	callq	__Znwm
	movq	%rax, %rbx
	movsd	LCPI0_7(%rip), %xmm0    ## xmm0 = mem[0],zero
	movq	%rax, %rdi
	callq	__ZN14altered_carbon2js10ACJsNumberC1Ed
	movq	%rbx, 20552(%rsp)
	movl	$40, %edi
	callq	__Znwm
	movq	%rax, %rbx
	movsd	LCPI0_8(%rip), %xmm0    ## xmm0 = mem[0],zero
	movq	%rax, %rdi
	callq	__ZN14altered_carbon2js10ACJsNumberC1Ed
	movq	%rbx, 20544(%rsp)
	leaq	20552(%rsp), %rsi
	leaq	20544(%rsp), %rdx
	movl	$122, %edi
	callq	__ZN14altered_carbon2js8binaryOpEiRNSt3__18auto_ptrINS0_9ACJsValueEEES5_
	movq	%rax, 20536(%rsp)
	leaq	20560(%rsp), %rsi
	leaq	20536(%rsp), %rdx
	movl	$119, %edi
	callq	__ZN14altered_carbon2js8binaryOpEiRNSt3__18auto_ptrINS0_9ACJsValueEEES5_
	movq	%rax, 20528(%rsp)
	movl	$40, %edi
	callq	__Znwm
	movq	%rax, %rbx
	movsd	LCPI0_9(%rip), %xmm0    ## xmm0 = mem[0],zero
	movq	%rax, %rdi
	callq	__ZN14altered_carbon2js10ACJsNumberC1Ed
	movq	%rbx, 20520(%rsp)
	movl	$40, %edi
	callq	__Znwm
	movq	%rax, %rbx
	movsd	LCPI0_10(%rip), %xmm0   ## xmm0 = mem[0],zero
	movq	%rax, %rdi
	callq	__ZN14altered_carbon2js10ACJsNumberC1Ed
	movq	%rbx, 20512(%rsp)
	leaq	20520(%rsp), %rsi
	leaq	20512(%rsp), %rdx
	movl	$122, %edi
	callq	__ZN14altered_carbon2js8binaryOpEiRNSt3__18auto_ptrINS0_9ACJsValueEEES5_
	movq	%rax, 20504(%rsp)
	leaq	20528(%rsp), %rsi
	leaq	20504(%rsp), %rdx
	movl	$119, %edi
	callq	__ZN14altered_carbon2js8binaryOpEiRNSt3__18auto_ptrINS0_9ACJsValueEEES5_
	movq	%rax, 20496(%rsp)
	leaq	20496(%rsp), %rbx
LBB0_35:                                ## %ret.op1616
	movq	%rbx, 24496(%rsp)
	movq	(%rbx), %rdi
	movq	(%rdi), %rax
	callq	*168(%rax)
	testb	$1, %al
	je	LBB0_37
## %bb.36:                              ## %ret.rhs1711
	movl	$40, %edi
	callq	__Znwm
	movq	%rax, %rbx
	movsd	LCPI0_0(%rip), %xmm0    ## xmm0 = mem[0],zero
	movq	%rax, %rdi
	callq	__ZN14altered_carbon2js10ACJsNumberC1Ed
	movq	%rbx, 20488(%rsp)
	movl	$40, %edi
	callq	__Znwm
	movq	%rax, %rbx
	movsd	LCPI0_1(%rip), %xmm0    ## xmm0 = mem[0],zero
	movq	%rax, %rdi
	callq	__ZN14altered_carbon2js10ACJsNumberC1Ed
	movq	%rbx, 20480(%rsp)
	movl	$40, %edi
	callq	__Znwm
	movq	%rax, %rbx
	movsd	LCPI0_2(%rip), %xmm0    ## xmm0 = mem[0],zero
	movq	%rax, %rdi
	callq	__ZN14altered_carbon2js10ACJsNumberC1Ed
	movq	%rbx, 20472(%rsp)
	leaq	20480(%rsp), %rsi
	leaq	20472(%rsp), %rdx
	movl	$122, %edi
	callq	__ZN14altered_carbon2js8binaryOpEiRNSt3__18auto_ptrINS0_9ACJsValueEEES5_
	movq	%rax, 20464(%rsp)
	leaq	20488(%rsp), %rsi
	leaq	20464(%rsp), %rdx
	movl	$119, %edi
	callq	__ZN14altered_carbon2js8binaryOpEiRNSt3__18auto_ptrINS0_9ACJsValueEEES5_
	movq	%rax, 20456(%rsp)
	movl	$40, %edi
	callq	__Znwm
	movq	%rax, %rbx
	movsd	LCPI0_3(%rip), %xmm0    ## xmm0 = mem[0],zero
	movq	%rax, %rdi
	callq	__ZN14altered_carbon2js10ACJsNumberC1Ed
	movq	%rbx, 20448(%rsp)
	movl	$40, %edi
	callq	__Znwm
	movq	%rax, %rbx
	movsd	LCPI0_4(%rip), %xmm0    ## xmm0 = mem[0],zero
	movq	%rax, %rdi
	callq	__ZN14altered_carbon2js10ACJsNumberC1Ed
	movq	%rbx, 20440(%rsp)
	leaq	20448(%rsp), %rsi
	leaq	20440(%rsp), %rdx
	movl	$122, %edi
	callq	__ZN14altered_carbon2js8binaryOpEiRNSt3__18auto_ptrINS0_9ACJsValueEEES5_
	movq	%rax, 20432(%rsp)
	leaq	20456(%rsp), %rsi
	leaq	20432(%rsp), %rdx
	movl	$119, %edi
	callq	__ZN14altered_carbon2js8binaryOpEiRNSt3__18auto_ptrINS0_9ACJsValueEEES5_
	movq	%rax, 20424(%rsp)
	movl	$40, %edi
	callq	__Znwm
	movq	%rax, %rbx
	movsd	LCPI0_5(%rip), %xmm0    ## xmm0 = mem[0],zero
	movq	%rax, %rdi
	callq	__ZN14altered_carbon2js10ACJsNumberC1Ed
	movq	%rbx, 20416(%rsp)
	movl	$40, %edi
	callq	__Znwm
	movq	%rax, %rbx
	movsd	LCPI0_6(%rip), %xmm0    ## xmm0 = mem[0],zero
	movq	%rax, %rdi
	callq	__ZN14altered_carbon2js10ACJsNumberC1Ed
	movq	%rbx, 20408(%rsp)
	leaq	20416(%rsp), %rsi
	leaq	20408(%rsp), %rdx
	movl	$122, %edi
	callq	__ZN14altered_carbon2js8binaryOpEiRNSt3__18auto_ptrINS0_9ACJsValueEEES5_
	movq	%rax, 20400(%rsp)
	leaq	20424(%rsp), %rsi
	leaq	20400(%rsp), %rdx
	movl	$119, %edi
	callq	__ZN14altered_carbon2js8binaryOpEiRNSt3__18auto_ptrINS0_9ACJsValueEEES5_
	movq	%rax, 20392(%rsp)
	movl	$40, %edi
	callq	__Znwm
	movq	%rax, %rbx
	movsd	LCPI0_7(%rip), %xmm0    ## xmm0 = mem[0],zero
	movq	%rax, %rdi
	callq	__ZN14altered_carbon2js10ACJsNumberC1Ed
	movq	%rbx, 20384(%rsp)
	movl	$40, %edi
	callq	__Znwm
	movq	%rax, %rbx
	movsd	LCPI0_8(%rip), %xmm0    ## xmm0 = mem[0],zero
	movq	%rax, %rdi
	callq	__ZN14altered_carbon2js10ACJsNumberC1Ed
	movq	%rbx, 20376(%rsp)
	leaq	20384(%rsp), %rsi
	leaq	20376(%rsp), %rdx
	movl	$122, %edi
	callq	__ZN14altered_carbon2js8binaryOpEiRNSt3__18auto_ptrINS0_9ACJsValueEEES5_
	movq	%rax, 20368(%rsp)
	leaq	20392(%rsp), %rsi
	leaq	20368(%rsp), %rdx
	movl	$119, %edi
	callq	__ZN14altered_carbon2js8binaryOpEiRNSt3__18auto_ptrINS0_9ACJsValueEEES5_
	movq	%rax, 20360(%rsp)
	movl	$40, %edi
	callq	__Znwm
	movq	%rax, %rbx
	movsd	LCPI0_9(%rip), %xmm0    ## xmm0 = mem[0],zero
	movq	%rax, %rdi
	callq	__ZN14altered_carbon2js10ACJsNumberC1Ed
	movq	%rbx, 20352(%rsp)
	movl	$40, %edi
	callq	__Znwm
	movq	%rax, %rbx
	movsd	LCPI0_10(%rip), %xmm0   ## xmm0 = mem[0],zero
	movq	%rax, %rdi
	callq	__ZN14altered_carbon2js10ACJsNumberC1Ed
	movq	%rbx, 20344(%rsp)
	leaq	20352(%rsp), %rsi
	leaq	20344(%rsp), %rdx
	movl	$122, %edi
	callq	__ZN14altered_carbon2js8binaryOpEiRNSt3__18auto_ptrINS0_9ACJsValueEEES5_
	movq	%rax, 20336(%rsp)
	leaq	20360(%rsp), %rsi
	leaq	20336(%rsp), %rdx
	movl	$119, %edi
	callq	__ZN14altered_carbon2js8binaryOpEiRNSt3__18auto_ptrINS0_9ACJsValueEEES5_
	movq	%rax, 20328(%rsp)
	leaq	20328(%rsp), %rbx
LBB0_37:                                ## %ret.op1712
	movq	%rbx, 24488(%rsp)
	movq	(%rbx), %rdi
	movq	(%rdi), %rax
	callq	*168(%rax)
	testb	$1, %al
	je	LBB0_39
## %bb.38:                              ## %ret.rhs1807
	movl	$40, %edi
	callq	__Znwm
	movq	%rax, %rbx
	movsd	LCPI0_0(%rip), %xmm0    ## xmm0 = mem[0],zero
	movq	%rax, %rdi
	callq	__ZN14altered_carbon2js10ACJsNumberC1Ed
	movq	%rbx, 20320(%rsp)
	movl	$40, %edi
	callq	__Znwm
	movq	%rax, %rbx
	movsd	LCPI0_1(%rip), %xmm0    ## xmm0 = mem[0],zero
	movq	%rax, %rdi
	callq	__ZN14altered_carbon2js10ACJsNumberC1Ed
	movq	%rbx, 20312(%rsp)
	movl	$40, %edi
	callq	__Znwm
	movq	%rax, %rbx
	movsd	LCPI0_2(%rip), %xmm0    ## xmm0 = mem[0],zero
	movq	%rax, %rdi
	callq	__ZN14altered_carbon2js10ACJsNumberC1Ed
	movq	%rbx, 20304(%rsp)
	leaq	20312(%rsp), %rsi
	leaq	20304(%rsp), %rdx
	movl	$122, %edi
	callq	__ZN14altered_carbon2js8binaryOpEiRNSt3__18auto_ptrINS0_9ACJsValueEEES5_
	movq	%rax, 20296(%rsp)
	leaq	20320(%rsp), %rsi
	leaq	20296(%rsp), %rdx
	movl	$119, %edi
	callq	__ZN14altered_carbon2js8binaryOpEiRNSt3__18auto_ptrINS0_9ACJsValueEEES5_
	movq	%rax, 20288(%rsp)
	movl	$40, %edi
	callq	__Znwm
	movq	%rax, %rbx
	movsd	LCPI0_3(%rip), %xmm0    ## xmm0 = mem[0],zero
	movq	%rax, %rdi
	callq	__ZN14altered_carbon2js10ACJsNumberC1Ed
	movq	%rbx, 20280(%rsp)
	movl	$40, %edi
	callq	__Znwm
	movq	%rax, %rbx
	movsd	LCPI0_4(%rip), %xmm0    ## xmm0 = mem[0],zero
	movq	%rax, %rdi
	callq	__ZN14altered_carbon2js10ACJsNumberC1Ed
	movq	%rbx, 20272(%rsp)
	leaq	20280(%rsp), %rsi
	leaq	20272(%rsp), %rdx
	movl	$122, %edi
	callq	__ZN14altered_carbon2js8binaryOpEiRNSt3__18auto_ptrINS0_9ACJsValueEEES5_
	movq	%rax, 20264(%rsp)
	leaq	20288(%rsp), %rsi
	leaq	20264(%rsp), %rdx
	movl	$119, %edi
	callq	__ZN14altered_carbon2js8binaryOpEiRNSt3__18auto_ptrINS0_9ACJsValueEEES5_
	movq	%rax, 20256(%rsp)
	movl	$40, %edi
	callq	__Znwm
	movq	%rax, %rbx
	movsd	LCPI0_5(%rip), %xmm0    ## xmm0 = mem[0],zero
	movq	%rax, %rdi
	callq	__ZN14altered_carbon2js10ACJsNumberC1Ed
	movq	%rbx, 20248(%rsp)
	movl	$40, %edi
	callq	__Znwm
	movq	%rax, %rbx
	movsd	LCPI0_6(%rip), %xmm0    ## xmm0 = mem[0],zero
	movq	%rax, %rdi
	callq	__ZN14altered_carbon2js10ACJsNumberC1Ed
	movq	%rbx, 20240(%rsp)
	leaq	20248(%rsp), %rsi
	leaq	20240(%rsp), %rdx
	movl	$122, %edi
	callq	__ZN14altered_carbon2js8binaryOpEiRNSt3__18auto_ptrINS0_9ACJsValueEEES5_
	movq	%rax, 20232(%rsp)
	leaq	20256(%rsp), %rsi
	leaq	20232(%rsp), %rdx
	movl	$119, %edi
	callq	__ZN14altered_carbon2js8binaryOpEiRNSt3__18auto_ptrINS0_9ACJsValueEEES5_
	movq	%rax, 20224(%rsp)
	movl	$40, %edi
	callq	__Znwm
	movq	%rax, %rbx
	movsd	LCPI0_7(%rip), %xmm0    ## xmm0 = mem[0],zero
	movq	%rax, %rdi
	callq	__ZN14altered_carbon2js10ACJsNumberC1Ed
	movq	%rbx, 20216(%rsp)
	movl	$40, %edi
	callq	__Znwm
	movq	%rax, %rbx
	movsd	LCPI0_8(%rip), %xmm0    ## xmm0 = mem[0],zero
	movq	%rax, %rdi
	callq	__ZN14altered_carbon2js10ACJsNumberC1Ed
	movq	%rbx, 20208(%rsp)
	leaq	20216(%rsp), %rsi
	leaq	20208(%rsp), %rdx
	movl	$122, %edi
	callq	__ZN14altered_carbon2js8binaryOpEiRNSt3__18auto_ptrINS0_9ACJsValueEEES5_
	movq	%rax, 20200(%rsp)
	leaq	20224(%rsp), %rsi
	leaq	20200(%rsp), %rdx
	movl	$119, %edi
	callq	__ZN14altered_carbon2js8binaryOpEiRNSt3__18auto_ptrINS0_9ACJsValueEEES5_
	movq	%rax, 20192(%rsp)
	movl	$40, %edi
	callq	__Znwm
	movq	%rax, %rbx
	movsd	LCPI0_9(%rip), %xmm0    ## xmm0 = mem[0],zero
	movq	%rax, %rdi
	callq	__ZN14altered_carbon2js10ACJsNumberC1Ed
	movq	%rbx, 20184(%rsp)
	movl	$40, %edi
	callq	__Znwm
	movq	%rax, %rbx
	movsd	LCPI0_10(%rip), %xmm0   ## xmm0 = mem[0],zero
	movq	%rax, %rdi
	callq	__ZN14altered_carbon2js10ACJsNumberC1Ed
	movq	%rbx, 20176(%rsp)
	leaq	20184(%rsp), %rsi
	leaq	20176(%rsp), %rdx
	movl	$122, %edi
	callq	__ZN14altered_carbon2js8binaryOpEiRNSt3__18auto_ptrINS0_9ACJsValueEEES5_
	movq	%rax, 20168(%rsp)
	leaq	20192(%rsp), %rsi
	leaq	20168(%rsp), %rdx
	movl	$119, %edi
	callq	__ZN14altered_carbon2js8binaryOpEiRNSt3__18auto_ptrINS0_9ACJsValueEEES5_
	movq	%rax, 20160(%rsp)
	leaq	20160(%rsp), %rbx
LBB0_39:                                ## %ret.op1808
	movq	%rbx, 24480(%rsp)
	movq	(%rbx), %rdi
	movq	(%rdi), %rax
	callq	*168(%rax)
	testb	$1, %al
	je	LBB0_41
## %bb.40:                              ## %ret.rhs1903
	movl	$40, %edi
	callq	__Znwm
	movq	%rax, %rbx
	movsd	LCPI0_0(%rip), %xmm0    ## xmm0 = mem[0],zero
	movq	%rax, %rdi
	callq	__ZN14altered_carbon2js10ACJsNumberC1Ed
	movq	%rbx, 20152(%rsp)
	movl	$40, %edi
	callq	__Znwm
	movq	%rax, %rbx
	movsd	LCPI0_1(%rip), %xmm0    ## xmm0 = mem[0],zero
	movq	%rax, %rdi
	callq	__ZN14altered_carbon2js10ACJsNumberC1Ed
	movq	%rbx, 20144(%rsp)
	movl	$40, %edi
	callq	__Znwm
	movq	%rax, %rbx
	movsd	LCPI0_2(%rip), %xmm0    ## xmm0 = mem[0],zero
	movq	%rax, %rdi
	callq	__ZN14altered_carbon2js10ACJsNumberC1Ed
	movq	%rbx, 20136(%rsp)
	leaq	20144(%rsp), %rsi
	leaq	20136(%rsp), %rdx
	movl	$122, %edi
	callq	__ZN14altered_carbon2js8binaryOpEiRNSt3__18auto_ptrINS0_9ACJsValueEEES5_
	movq	%rax, 20128(%rsp)
	leaq	20152(%rsp), %rsi
	leaq	20128(%rsp), %rdx
	movl	$119, %edi
	callq	__ZN14altered_carbon2js8binaryOpEiRNSt3__18auto_ptrINS0_9ACJsValueEEES5_
	movq	%rax, 20120(%rsp)
	movl	$40, %edi
	callq	__Znwm
	movq	%rax, %rbx
	movsd	LCPI0_3(%rip), %xmm0    ## xmm0 = mem[0],zero
	movq	%rax, %rdi
	callq	__ZN14altered_carbon2js10ACJsNumberC1Ed
	movq	%rbx, 20112(%rsp)
	movl	$40, %edi
	callq	__Znwm
	movq	%rax, %rbx
	movsd	LCPI0_4(%rip), %xmm0    ## xmm0 = mem[0],zero
	movq	%rax, %rdi
	callq	__ZN14altered_carbon2js10ACJsNumberC1Ed
	movq	%rbx, 20104(%rsp)
	leaq	20112(%rsp), %rsi
	leaq	20104(%rsp), %rdx
	movl	$122, %edi
	callq	__ZN14altered_carbon2js8binaryOpEiRNSt3__18auto_ptrINS0_9ACJsValueEEES5_
	movq	%rax, 20096(%rsp)
	leaq	20120(%rsp), %rsi
	leaq	20096(%rsp), %rdx
	movl	$119, %edi
	callq	__ZN14altered_carbon2js8binaryOpEiRNSt3__18auto_ptrINS0_9ACJsValueEEES5_
	movq	%rax, 20088(%rsp)
	movl	$40, %edi
	callq	__Znwm
	movq	%rax, %rbx
	movsd	LCPI0_5(%rip), %xmm0    ## xmm0 = mem[0],zero
	movq	%rax, %rdi
	callq	__ZN14altered_carbon2js10ACJsNumberC1Ed
	movq	%rbx, 20080(%rsp)
	movl	$40, %edi
	callq	__Znwm
	movq	%rax, %rbx
	movsd	LCPI0_6(%rip), %xmm0    ## xmm0 = mem[0],zero
	movq	%rax, %rdi
	callq	__ZN14altered_carbon2js10ACJsNumberC1Ed
	movq	%rbx, 20072(%rsp)
	leaq	20080(%rsp), %rsi
	leaq	20072(%rsp), %rdx
	movl	$122, %edi
	callq	__ZN14altered_carbon2js8binaryOpEiRNSt3__18auto_ptrINS0_9ACJsValueEEES5_
	movq	%rax, 20064(%rsp)
	leaq	20088(%rsp), %rsi
	leaq	20064(%rsp), %rdx
	movl	$119, %edi
	callq	__ZN14altered_carbon2js8binaryOpEiRNSt3__18auto_ptrINS0_9ACJsValueEEES5_
	movq	%rax, 20056(%rsp)
	movl	$40, %edi
	callq	__Znwm
	movq	%rax, %rbx
	movsd	LCPI0_7(%rip), %xmm0    ## xmm0 = mem[0],zero
	movq	%rax, %rdi
	callq	__ZN14altered_carbon2js10ACJsNumberC1Ed
	movq	%rbx, 20048(%rsp)
	movl	$40, %edi
	callq	__Znwm
	movq	%rax, %rbx
	movsd	LCPI0_8(%rip), %xmm0    ## xmm0 = mem[0],zero
	movq	%rax, %rdi
	callq	__ZN14altered_carbon2js10ACJsNumberC1Ed
	movq	%rbx, 20040(%rsp)
	leaq	20048(%rsp), %rsi
	leaq	20040(%rsp), %rdx
	movl	$122, %edi
	callq	__ZN14altered_carbon2js8binaryOpEiRNSt3__18auto_ptrINS0_9ACJsValueEEES5_
	movq	%rax, 20032(%rsp)
	leaq	20056(%rsp), %rsi
	leaq	20032(%rsp), %rdx
	movl	$119, %edi
	callq	__ZN14altered_carbon2js8binaryOpEiRNSt3__18auto_ptrINS0_9ACJsValueEEES5_
	movq	%rax, 20024(%rsp)
	movl	$40, %edi
	callq	__Znwm
	movq	%rax, %rbx
	movsd	LCPI0_9(%rip), %xmm0    ## xmm0 = mem[0],zero
	movq	%rax, %rdi
	callq	__ZN14altered_carbon2js10ACJsNumberC1Ed
	movq	%rbx, 20016(%rsp)
	movl	$40, %edi
	callq	__Znwm
	movq	%rax, %rbx
	movsd	LCPI0_10(%rip), %xmm0   ## xmm0 = mem[0],zero
	movq	%rax, %rdi
	callq	__ZN14altered_carbon2js10ACJsNumberC1Ed
	movq	%rbx, 20008(%rsp)
	leaq	20016(%rsp), %rsi
	leaq	20008(%rsp), %rdx
	movl	$122, %edi
	callq	__ZN14altered_carbon2js8binaryOpEiRNSt3__18auto_ptrINS0_9ACJsValueEEES5_
	movq	%rax, 20000(%rsp)
	leaq	20024(%rsp), %rsi
	leaq	20000(%rsp), %rdx
	movl	$119, %edi
	callq	__ZN14altered_carbon2js8binaryOpEiRNSt3__18auto_ptrINS0_9ACJsValueEEES5_
	movq	%rax, 19992(%rsp)
	leaq	19992(%rsp), %rbx
LBB0_41:                                ## %ret.op1904
	movq	%rbx, 24472(%rsp)
	movq	(%rbx), %rdi
	movq	(%rdi), %rax
	callq	*168(%rax)
	testb	$1, %al
	je	LBB0_43
## %bb.42:                              ## %ret.rhs1999
	movl	$40, %edi
	callq	__Znwm
	movq	%rax, %rbx
	movsd	LCPI0_0(%rip), %xmm0    ## xmm0 = mem[0],zero
	movq	%rax, %rdi
	callq	__ZN14altered_carbon2js10ACJsNumberC1Ed
	movq	%rbx, 19984(%rsp)
	movl	$40, %edi
	callq	__Znwm
	movq	%rax, %rbx
	movsd	LCPI0_1(%rip), %xmm0    ## xmm0 = mem[0],zero
	movq	%rax, %rdi
	callq	__ZN14altered_carbon2js10ACJsNumberC1Ed
	movq	%rbx, 19976(%rsp)
	movl	$40, %edi
	callq	__Znwm
	movq	%rax, %rbx
	movsd	LCPI0_2(%rip), %xmm0    ## xmm0 = mem[0],zero
	movq	%rax, %rdi
	callq	__ZN14altered_carbon2js10ACJsNumberC1Ed
	movq	%rbx, 19968(%rsp)
	leaq	19976(%rsp), %rsi
	leaq	19968(%rsp), %rdx
	movl	$122, %edi
	callq	__ZN14altered_carbon2js8binaryOpEiRNSt3__18auto_ptrINS0_9ACJsValueEEES5_
	movq	%rax, 19960(%rsp)
	leaq	19984(%rsp), %rsi
	leaq	19960(%rsp), %rdx
	movl	$119, %edi
	callq	__ZN14altered_carbon2js8binaryOpEiRNSt3__18auto_ptrINS0_9ACJsValueEEES5_
	movq	%rax, 19952(%rsp)
	movl	$40, %edi
	callq	__Znwm
	movq	%rax, %rbx
	movsd	LCPI0_3(%rip), %xmm0    ## xmm0 = mem[0],zero
	movq	%rax, %rdi
	callq	__ZN14altered_carbon2js10ACJsNumberC1Ed
	movq	%rbx, 19944(%rsp)
	movl	$40, %edi
	callq	__Znwm
	movq	%rax, %rbx
	movsd	LCPI0_4(%rip), %xmm0    ## xmm0 = mem[0],zero
	movq	%rax, %rdi
	callq	__ZN14altered_carbon2js10ACJsNumberC1Ed
	movq	%rbx, 19936(%rsp)
	leaq	19944(%rsp), %rsi
	leaq	19936(%rsp), %rdx
	movl	$122, %edi
	callq	__ZN14altered_carbon2js8binaryOpEiRNSt3__18auto_ptrINS0_9ACJsValueEEES5_
	movq	%rax, 19928(%rsp)
	leaq	19952(%rsp), %rsi
	leaq	19928(%rsp), %rdx
	movl	$119, %edi
	callq	__ZN14altered_carbon2js8binaryOpEiRNSt3__18auto_ptrINS0_9ACJsValueEEES5_
	movq	%rax, 19920(%rsp)
	movl	$40, %edi
	callq	__Znwm
	movq	%rax, %rbx
	movsd	LCPI0_5(%rip), %xmm0    ## xmm0 = mem[0],zero
	movq	%rax, %rdi
	callq	__ZN14altered_carbon2js10ACJsNumberC1Ed
	movq	%rbx, 19912(%rsp)
	movl	$40, %edi
	callq	__Znwm
	movq	%rax, %rbx
	movsd	LCPI0_6(%rip), %xmm0    ## xmm0 = mem[0],zero
	movq	%rax, %rdi
	callq	__ZN14altered_carbon2js10ACJsNumberC1Ed
	movq	%rbx, 19904(%rsp)
	leaq	19912(%rsp), %rsi
	leaq	19904(%rsp), %rdx
	movl	$122, %edi
	callq	__ZN14altered_carbon2js8binaryOpEiRNSt3__18auto_ptrINS0_9ACJsValueEEES5_
	movq	%rax, 19896(%rsp)
	leaq	19920(%rsp), %rsi
	leaq	19896(%rsp), %rdx
	movl	$119, %edi
	callq	__ZN14altered_carbon2js8binaryOpEiRNSt3__18auto_ptrINS0_9ACJsValueEEES5_
	movq	%rax, 19888(%rsp)
	movl	$40, %edi
	callq	__Znwm
	movq	%rax, %rbx
	movsd	LCPI0_7(%rip), %xmm0    ## xmm0 = mem[0],zero
	movq	%rax, %rdi
	callq	__ZN14altered_carbon2js10ACJsNumberC1Ed
	movq	%rbx, 19880(%rsp)
	movl	$40, %edi
	callq	__Znwm
	movq	%rax, %rbx
	movsd	LCPI0_8(%rip), %xmm0    ## xmm0 = mem[0],zero
	movq	%rax, %rdi
	callq	__ZN14altered_carbon2js10ACJsNumberC1Ed
	movq	%rbx, 19872(%rsp)
	leaq	19880(%rsp), %rsi
	leaq	19872(%rsp), %rdx
	movl	$122, %edi
	callq	__ZN14altered_carbon2js8binaryOpEiRNSt3__18auto_ptrINS0_9ACJsValueEEES5_
	movq	%rax, 19864(%rsp)
	leaq	19888(%rsp), %rsi
	leaq	19864(%rsp), %rdx
	movl	$119, %edi
	callq	__ZN14altered_carbon2js8binaryOpEiRNSt3__18auto_ptrINS0_9ACJsValueEEES5_
	movq	%rax, 19856(%rsp)
	movl	$40, %edi
	callq	__Znwm
	movq	%rax, %rbx
	movsd	LCPI0_9(%rip), %xmm0    ## xmm0 = mem[0],zero
	movq	%rax, %rdi
	callq	__ZN14altered_carbon2js10ACJsNumberC1Ed
	movq	%rbx, 19848(%rsp)
	movl	$40, %edi
	callq	__Znwm
	movq	%rax, %rbx
	movsd	LCPI0_10(%rip), %xmm0   ## xmm0 = mem[0],zero
	movq	%rax, %rdi
	callq	__ZN14altered_carbon2js10ACJsNumberC1Ed
	movq	%rbx, 19840(%rsp)
	leaq	19848(%rsp), %rsi
	leaq	19840(%rsp), %rdx
	movl	$122, %edi
	callq	__ZN14altered_carbon2js8binaryOpEiRNSt3__18auto_ptrINS0_9ACJsValueEEES5_
	movq	%rax, 19832(%rsp)
	leaq	19856(%rsp), %rsi
	leaq	19832(%rsp), %rdx
	movl	$119, %edi
	callq	__ZN14altered_carbon2js8binaryOpEiRNSt3__18auto_ptrINS0_9ACJsValueEEES5_
	movq	%rax, 19824(%rsp)
	leaq	19824(%rsp), %rbx
LBB0_43:                                ## %ret.op2000
	movq	%rbx, 24464(%rsp)
	movq	(%rbx), %rdi
	movq	(%rdi), %rax
	callq	*168(%rax)
	testb	$1, %al
	je	LBB0_45
## %bb.44:                              ## %ret.rhs2095
	movl	$40, %edi
	callq	__Znwm
	movq	%rax, %rbx
	movsd	LCPI0_0(%rip), %xmm0    ## xmm0 = mem[0],zero
	movq	%rax, %rdi
	callq	__ZN14altered_carbon2js10ACJsNumberC1Ed
	movq	%rbx, 19816(%rsp)
	movl	$40, %edi
	callq	__Znwm
	movq	%rax, %rbx
	movsd	LCPI0_1(%rip), %xmm0    ## xmm0 = mem[0],zero
	movq	%rax, %rdi
	callq	__ZN14altered_carbon2js10ACJsNumberC1Ed
	movq	%rbx, 19808(%rsp)
	movl	$40, %edi
	callq	__Znwm
	movq	%rax, %rbx
	movsd	LCPI0_2(%rip), %xmm0    ## xmm0 = mem[0],zero
	movq	%rax, %rdi
	callq	__ZN14altered_carbon2js10ACJsNumberC1Ed
	movq	%rbx, 19800(%rsp)
	leaq	19808(%rsp), %rsi
	leaq	19800(%rsp), %rdx
	movl	$122, %edi
	callq	__ZN14altered_carbon2js8binaryOpEiRNSt3__18auto_ptrINS0_9ACJsValueEEES5_
	movq	%rax, 19792(%rsp)
	leaq	19816(%rsp), %rsi
	leaq	19792(%rsp), %rdx
	movl	$119, %edi
	callq	__ZN14altered_carbon2js8binaryOpEiRNSt3__18auto_ptrINS0_9ACJsValueEEES5_
	movq	%rax, 19784(%rsp)
	movl	$40, %edi
	callq	__Znwm
	movq	%rax, %rbx
	movsd	LCPI0_3(%rip), %xmm0    ## xmm0 = mem[0],zero
	movq	%rax, %rdi
	callq	__ZN14altered_carbon2js10ACJsNumberC1Ed
	movq	%rbx, 19776(%rsp)
	movl	$40, %edi
	callq	__Znwm
	movq	%rax, %rbx
	movsd	LCPI0_4(%rip), %xmm0    ## xmm0 = mem[0],zero
	movq	%rax, %rdi
	callq	__ZN14altered_carbon2js10ACJsNumberC1Ed
	movq	%rbx, 19768(%rsp)
	leaq	19776(%rsp), %rsi
	leaq	19768(%rsp), %rdx
	movl	$122, %edi
	callq	__ZN14altered_carbon2js8binaryOpEiRNSt3__18auto_ptrINS0_9ACJsValueEEES5_
	movq	%rax, 19760(%rsp)
	leaq	19784(%rsp), %rsi
	leaq	19760(%rsp), %rdx
	movl	$119, %edi
	callq	__ZN14altered_carbon2js8binaryOpEiRNSt3__18auto_ptrINS0_9ACJsValueEEES5_
	movq	%rax, 19752(%rsp)
	movl	$40, %edi
	callq	__Znwm
	movq	%rax, %rbx
	movsd	LCPI0_5(%rip), %xmm0    ## xmm0 = mem[0],zero
	movq	%rax, %rdi
	callq	__ZN14altered_carbon2js10ACJsNumberC1Ed
	movq	%rbx, 19744(%rsp)
	movl	$40, %edi
	callq	__Znwm
	movq	%rax, %rbx
	movsd	LCPI0_6(%rip), %xmm0    ## xmm0 = mem[0],zero
	movq	%rax, %rdi
	callq	__ZN14altered_carbon2js10ACJsNumberC1Ed
	movq	%rbx, 19736(%rsp)
	leaq	19744(%rsp), %rsi
	leaq	19736(%rsp), %rdx
	movl	$122, %edi
	callq	__ZN14altered_carbon2js8binaryOpEiRNSt3__18auto_ptrINS0_9ACJsValueEEES5_
	movq	%rax, 19728(%rsp)
	leaq	19752(%rsp), %rsi
	leaq	19728(%rsp), %rdx
	movl	$119, %edi
	callq	__ZN14altered_carbon2js8binaryOpEiRNSt3__18auto_ptrINS0_9ACJsValueEEES5_
	movq	%rax, 19720(%rsp)
	movl	$40, %edi
	callq	__Znwm
	movq	%rax, %rbx
	movsd	LCPI0_7(%rip), %xmm0    ## xmm0 = mem[0],zero
	movq	%rax, %rdi
	callq	__ZN14altered_carbon2js10ACJsNumberC1Ed
	movq	%rbx, 19712(%rsp)
	movl	$40, %edi
	callq	__Znwm
	movq	%rax, %rbx
	movsd	LCPI0_8(%rip), %xmm0    ## xmm0 = mem[0],zero
	movq	%rax, %rdi
	callq	__ZN14altered_carbon2js10ACJsNumberC1Ed
	movq	%rbx, 19704(%rsp)
	leaq	19712(%rsp), %rsi
	leaq	19704(%rsp), %rdx
	movl	$122, %edi
	callq	__ZN14altered_carbon2js8binaryOpEiRNSt3__18auto_ptrINS0_9ACJsValueEEES5_
	movq	%rax, 19696(%rsp)
	leaq	19720(%rsp), %rsi
	leaq	19696(%rsp), %rdx
	movl	$119, %edi
	callq	__ZN14altered_carbon2js8binaryOpEiRNSt3__18auto_ptrINS0_9ACJsValueEEES5_
	movq	%rax, 19688(%rsp)
	movl	$40, %edi
	callq	__Znwm
	movq	%rax, %rbx
	movsd	LCPI0_9(%rip), %xmm0    ## xmm0 = mem[0],zero
	movq	%rax, %rdi
	callq	__ZN14altered_carbon2js10ACJsNumberC1Ed
	movq	%rbx, 19680(%rsp)
	movl	$40, %edi
	callq	__Znwm
	movq	%rax, %rbx
	movsd	LCPI0_10(%rip), %xmm0   ## xmm0 = mem[0],zero
	movq	%rax, %rdi
	callq	__ZN14altered_carbon2js10ACJsNumberC1Ed
	movq	%rbx, 19672(%rsp)
	leaq	19680(%rsp), %rsi
	leaq	19672(%rsp), %rdx
	movl	$122, %edi
	callq	__ZN14altered_carbon2js8binaryOpEiRNSt3__18auto_ptrINS0_9ACJsValueEEES5_
	movq	%rax, 19664(%rsp)
	leaq	19688(%rsp), %rsi
	leaq	19664(%rsp), %rdx
	movl	$119, %edi
	callq	__ZN14altered_carbon2js8binaryOpEiRNSt3__18auto_ptrINS0_9ACJsValueEEES5_
	movq	%rax, 19656(%rsp)
	leaq	19656(%rsp), %rbx
LBB0_45:                                ## %ret.op2096
	movq	%rbx, 24456(%rsp)
	movq	(%rbx), %rdi
	movq	(%rdi), %rax
	callq	*168(%rax)
	testb	$1, %al
	je	LBB0_47
## %bb.46:                              ## %ret.rhs2191
	movl	$40, %edi
	callq	__Znwm
	movq	%rax, %rbx
	movsd	LCPI0_0(%rip), %xmm0    ## xmm0 = mem[0],zero
	movq	%rax, %rdi
	callq	__ZN14altered_carbon2js10ACJsNumberC1Ed
	movq	%rbx, 19648(%rsp)
	movl	$40, %edi
	callq	__Znwm
	movq	%rax, %rbx
	movsd	LCPI0_1(%rip), %xmm0    ## xmm0 = mem[0],zero
	movq	%rax, %rdi
	callq	__ZN14altered_carbon2js10ACJsNumberC1Ed
	movq	%rbx, 19640(%rsp)
	movl	$40, %edi
	callq	__Znwm
	movq	%rax, %rbx
	movsd	LCPI0_2(%rip), %xmm0    ## xmm0 = mem[0],zero
	movq	%rax, %rdi
	callq	__ZN14altered_carbon2js10ACJsNumberC1Ed
	movq	%rbx, 19632(%rsp)
	leaq	19640(%rsp), %rsi
	leaq	19632(%rsp), %rdx
	movl	$122, %edi
	callq	__ZN14altered_carbon2js8binaryOpEiRNSt3__18auto_ptrINS0_9ACJsValueEEES5_
	movq	%rax, 19624(%rsp)
	leaq	19648(%rsp), %rsi
	leaq	19624(%rsp), %rdx
	movl	$119, %edi
	callq	__ZN14altered_carbon2js8binaryOpEiRNSt3__18auto_ptrINS0_9ACJsValueEEES5_
	movq	%rax, 19616(%rsp)
	movl	$40, %edi
	callq	__Znwm
	movq	%rax, %rbx
	movsd	LCPI0_3(%rip), %xmm0    ## xmm0 = mem[0],zero
	movq	%rax, %rdi
	callq	__ZN14altered_carbon2js10ACJsNumberC1Ed
	movq	%rbx, 19608(%rsp)
	movl	$40, %edi
	callq	__Znwm
	movq	%rax, %rbx
	movsd	LCPI0_4(%rip), %xmm0    ## xmm0 = mem[0],zero
	movq	%rax, %rdi
	callq	__ZN14altered_carbon2js10ACJsNumberC1Ed
	movq	%rbx, 19600(%rsp)
	leaq	19608(%rsp), %rsi
	leaq	19600(%rsp), %rdx
	movl	$122, %edi
	callq	__ZN14altered_carbon2js8binaryOpEiRNSt3__18auto_ptrINS0_9ACJsValueEEES5_
	movq	%rax, 19592(%rsp)
	leaq	19616(%rsp), %rsi
	leaq	19592(%rsp), %rdx
	movl	$119, %edi
	callq	__ZN14altered_carbon2js8binaryOpEiRNSt3__18auto_ptrINS0_9ACJsValueEEES5_
	movq	%rax, 19584(%rsp)
	movl	$40, %edi
	callq	__Znwm
	movq	%rax, %rbx
	movsd	LCPI0_5(%rip), %xmm0    ## xmm0 = mem[0],zero
	movq	%rax, %rdi
	callq	__ZN14altered_carbon2js10ACJsNumberC1Ed
	movq	%rbx, 19576(%rsp)
	movl	$40, %edi
	callq	__Znwm
	movq	%rax, %rbx
	movsd	LCPI0_6(%rip), %xmm0    ## xmm0 = mem[0],zero
	movq	%rax, %rdi
	callq	__ZN14altered_carbon2js10ACJsNumberC1Ed
	movq	%rbx, 19568(%rsp)
	leaq	19576(%rsp), %rsi
	leaq	19568(%rsp), %rdx
	movl	$122, %edi
	callq	__ZN14altered_carbon2js8binaryOpEiRNSt3__18auto_ptrINS0_9ACJsValueEEES5_
	movq	%rax, 19560(%rsp)
	leaq	19584(%rsp), %rsi
	leaq	19560(%rsp), %rdx
	movl	$119, %edi
	callq	__ZN14altered_carbon2js8binaryOpEiRNSt3__18auto_ptrINS0_9ACJsValueEEES5_
	movq	%rax, 19552(%rsp)
	movl	$40, %edi
	callq	__Znwm
	movq	%rax, %rbx
	movsd	LCPI0_7(%rip), %xmm0    ## xmm0 = mem[0],zero
	movq	%rax, %rdi
	callq	__ZN14altered_carbon2js10ACJsNumberC1Ed
	movq	%rbx, 19544(%rsp)
	movl	$40, %edi
	callq	__Znwm
	movq	%rax, %rbx
	movsd	LCPI0_8(%rip), %xmm0    ## xmm0 = mem[0],zero
	movq	%rax, %rdi
	callq	__ZN14altered_carbon2js10ACJsNumberC1Ed
	movq	%rbx, 19536(%rsp)
	leaq	19544(%rsp), %rsi
	leaq	19536(%rsp), %rdx
	movl	$122, %edi
	callq	__ZN14altered_carbon2js8binaryOpEiRNSt3__18auto_ptrINS0_9ACJsValueEEES5_
	movq	%rax, 19528(%rsp)
	leaq	19552(%rsp), %rsi
	leaq	19528(%rsp), %rdx
	movl	$119, %edi
	callq	__ZN14altered_carbon2js8binaryOpEiRNSt3__18auto_ptrINS0_9ACJsValueEEES5_
	movq	%rax, 19520(%rsp)
	movl	$40, %edi
	callq	__Znwm
	movq	%rax, %rbx
	movsd	LCPI0_9(%rip), %xmm0    ## xmm0 = mem[0],zero
	movq	%rax, %rdi
	callq	__ZN14altered_carbon2js10ACJsNumberC1Ed
	movq	%rbx, 19512(%rsp)
	movl	$40, %edi
	callq	__Znwm
	movq	%rax, %rbx
	movsd	LCPI0_10(%rip), %xmm0   ## xmm0 = mem[0],zero
	movq	%rax, %rdi
	callq	__ZN14altered_carbon2js10ACJsNumberC1Ed
	movq	%rbx, 19504(%rsp)
	leaq	19512(%rsp), %rsi
	leaq	19504(%rsp), %rdx
	movl	$122, %edi
	callq	__ZN14altered_carbon2js8binaryOpEiRNSt3__18auto_ptrINS0_9ACJsValueEEES5_
	movq	%rax, 19496(%rsp)
	leaq	19520(%rsp), %rsi
	leaq	19496(%rsp), %rdx
	movl	$119, %edi
	callq	__ZN14altered_carbon2js8binaryOpEiRNSt3__18auto_ptrINS0_9ACJsValueEEES5_
	movq	%rax, 19488(%rsp)
	leaq	19488(%rsp), %rbx
LBB0_47:                                ## %ret.op2192
	movq	%rbx, 24448(%rsp)
	movq	(%rbx), %rdi
	movq	(%rdi), %rax
	callq	*168(%rax)
	testb	$1, %al
	je	LBB0_49
## %bb.48:                              ## %ret.rhs2287
	movl	$40, %edi
	callq	__Znwm
	movq	%rax, %rbx
	movsd	LCPI0_0(%rip), %xmm0    ## xmm0 = mem[0],zero
	movq	%rax, %rdi
	callq	__ZN14altered_carbon2js10ACJsNumberC1Ed
	movq	%rbx, 19480(%rsp)
	movl	$40, %edi
	callq	__Znwm
	movq	%rax, %rbx
	movsd	LCPI0_1(%rip), %xmm0    ## xmm0 = mem[0],zero
	movq	%rax, %rdi
	callq	__ZN14altered_carbon2js10ACJsNumberC1Ed
	movq	%rbx, 19472(%rsp)
	movl	$40, %edi
	callq	__Znwm
	movq	%rax, %rbx
	movsd	LCPI0_2(%rip), %xmm0    ## xmm0 = mem[0],zero
	movq	%rax, %rdi
	callq	__ZN14altered_carbon2js10ACJsNumberC1Ed
	movq	%rbx, 19464(%rsp)
	leaq	19472(%rsp), %rsi
	leaq	19464(%rsp), %rdx
	movl	$122, %edi
	callq	__ZN14altered_carbon2js8binaryOpEiRNSt3__18auto_ptrINS0_9ACJsValueEEES5_
	movq	%rax, 19456(%rsp)
	leaq	19480(%rsp), %rsi
	leaq	19456(%rsp), %rdx
	movl	$119, %edi
	callq	__ZN14altered_carbon2js8binaryOpEiRNSt3__18auto_ptrINS0_9ACJsValueEEES5_
	movq	%rax, 19448(%rsp)
	movl	$40, %edi
	callq	__Znwm
	movq	%rax, %rbx
	movsd	LCPI0_3(%rip), %xmm0    ## xmm0 = mem[0],zero
	movq	%rax, %rdi
	callq	__ZN14altered_carbon2js10ACJsNumberC1Ed
	movq	%rbx, 19440(%rsp)
	movl	$40, %edi
	callq	__Znwm
	movq	%rax, %rbx
	movsd	LCPI0_4(%rip), %xmm0    ## xmm0 = mem[0],zero
	movq	%rax, %rdi
	callq	__ZN14altered_carbon2js10ACJsNumberC1Ed
	movq	%rbx, 19432(%rsp)
	leaq	19440(%rsp), %rsi
	leaq	19432(%rsp), %rdx
	movl	$122, %edi
	callq	__ZN14altered_carbon2js8binaryOpEiRNSt3__18auto_ptrINS0_9ACJsValueEEES5_
	movq	%rax, 19424(%rsp)
	leaq	19448(%rsp), %rsi
	leaq	19424(%rsp), %rdx
	movl	$119, %edi
	callq	__ZN14altered_carbon2js8binaryOpEiRNSt3__18auto_ptrINS0_9ACJsValueEEES5_
	movq	%rax, 19416(%rsp)
	movl	$40, %edi
	callq	__Znwm
	movq	%rax, %rbx
	movsd	LCPI0_5(%rip), %xmm0    ## xmm0 = mem[0],zero
	movq	%rax, %rdi
	callq	__ZN14altered_carbon2js10ACJsNumberC1Ed
	movq	%rbx, 19408(%rsp)
	movl	$40, %edi
	callq	__Znwm
	movq	%rax, %rbx
	movsd	LCPI0_6(%rip), %xmm0    ## xmm0 = mem[0],zero
	movq	%rax, %rdi
	callq	__ZN14altered_carbon2js10ACJsNumberC1Ed
	movq	%rbx, 19400(%rsp)
	leaq	19408(%rsp), %rsi
	leaq	19400(%rsp), %rdx
	movl	$122, %edi
	callq	__ZN14altered_carbon2js8binaryOpEiRNSt3__18auto_ptrINS0_9ACJsValueEEES5_
	movq	%rax, 19392(%rsp)
	leaq	19416(%rsp), %rsi
	leaq	19392(%rsp), %rdx
	movl	$119, %edi
	callq	__ZN14altered_carbon2js8binaryOpEiRNSt3__18auto_ptrINS0_9ACJsValueEEES5_
	movq	%rax, 19384(%rsp)
	movl	$40, %edi
	callq	__Znwm
	movq	%rax, %rbx
	movsd	LCPI0_7(%rip), %xmm0    ## xmm0 = mem[0],zero
	movq	%rax, %rdi
	callq	__ZN14altered_carbon2js10ACJsNumberC1Ed
	movq	%rbx, 19376(%rsp)
	movl	$40, %edi
	callq	__Znwm
	movq	%rax, %rbx
	movsd	LCPI0_8(%rip), %xmm0    ## xmm0 = mem[0],zero
	movq	%rax, %rdi
	callq	__ZN14altered_carbon2js10ACJsNumberC1Ed
	movq	%rbx, 19368(%rsp)
	leaq	19376(%rsp), %rsi
	leaq	19368(%rsp), %rdx
	movl	$122, %edi
	callq	__ZN14altered_carbon2js8binaryOpEiRNSt3__18auto_ptrINS0_9ACJsValueEEES5_
	movq	%rax, 19360(%rsp)
	leaq	19384(%rsp), %rsi
	leaq	19360(%rsp), %rdx
	movl	$119, %edi
	callq	__ZN14altered_carbon2js8binaryOpEiRNSt3__18auto_ptrINS0_9ACJsValueEEES5_
	movq	%rax, 19352(%rsp)
	movl	$40, %edi
	callq	__Znwm
	movq	%rax, %rbx
	movsd	LCPI0_9(%rip), %xmm0    ## xmm0 = mem[0],zero
	movq	%rax, %rdi
	callq	__ZN14altered_carbon2js10ACJsNumberC1Ed
	movq	%rbx, 19344(%rsp)
	movl	$40, %edi
	callq	__Znwm
	movq	%rax, %rbx
	movsd	LCPI0_10(%rip), %xmm0   ## xmm0 = mem[0],zero
	movq	%rax, %rdi
	callq	__ZN14altered_carbon2js10ACJsNumberC1Ed
	movq	%rbx, 19336(%rsp)
	leaq	19344(%rsp), %rsi
	leaq	19336(%rsp), %rdx
	movl	$122, %edi
	callq	__ZN14altered_carbon2js8binaryOpEiRNSt3__18auto_ptrINS0_9ACJsValueEEES5_
	movq	%rax, 19328(%rsp)
	leaq	19352(%rsp), %rsi
	leaq	19328(%rsp), %rdx
	movl	$119, %edi
	callq	__ZN14altered_carbon2js8binaryOpEiRNSt3__18auto_ptrINS0_9ACJsValueEEES5_
	movq	%rax, 19320(%rsp)
	leaq	19320(%rsp), %rbx
LBB0_49:                                ## %ret.op2288
	movq	%rbx, 24440(%rsp)
	movq	(%rbx), %rdi
	movq	(%rdi), %rax
	callq	*168(%rax)
	testb	$1, %al
	je	LBB0_51
## %bb.50:                              ## %ret.rhs2383
	movl	$40, %edi
	callq	__Znwm
	movq	%rax, %rbx
	movsd	LCPI0_0(%rip), %xmm0    ## xmm0 = mem[0],zero
	movq	%rax, %rdi
	callq	__ZN14altered_carbon2js10ACJsNumberC1Ed
	movq	%rbx, 19312(%rsp)
	movl	$40, %edi
	callq	__Znwm
	movq	%rax, %rbx
	movsd	LCPI0_1(%rip), %xmm0    ## xmm0 = mem[0],zero
	movq	%rax, %rdi
	callq	__ZN14altered_carbon2js10ACJsNumberC1Ed
	movq	%rbx, 19304(%rsp)
	movl	$40, %edi
	callq	__Znwm
	movq	%rax, %rbx
	movsd	LCPI0_2(%rip), %xmm0    ## xmm0 = mem[0],zero
	movq	%rax, %rdi
	callq	__ZN14altered_carbon2js10ACJsNumberC1Ed
	movq	%rbx, 19296(%rsp)
	leaq	19304(%rsp), %rsi
	leaq	19296(%rsp), %rdx
	movl	$122, %edi
	callq	__ZN14altered_carbon2js8binaryOpEiRNSt3__18auto_ptrINS0_9ACJsValueEEES5_
	movq	%rax, 19288(%rsp)
	leaq	19312(%rsp), %rsi
	leaq	19288(%rsp), %rdx
	movl	$119, %edi
	callq	__ZN14altered_carbon2js8binaryOpEiRNSt3__18auto_ptrINS0_9ACJsValueEEES5_
	movq	%rax, 19280(%rsp)
	movl	$40, %edi
	callq	__Znwm
	movq	%rax, %rbx
	movsd	LCPI0_3(%rip), %xmm0    ## xmm0 = mem[0],zero
	movq	%rax, %rdi
	callq	__ZN14altered_carbon2js10ACJsNumberC1Ed
	movq	%rbx, 19272(%rsp)
	movl	$40, %edi
	callq	__Znwm
	movq	%rax, %rbx
	movsd	LCPI0_4(%rip), %xmm0    ## xmm0 = mem[0],zero
	movq	%rax, %rdi
	callq	__ZN14altered_carbon2js10ACJsNumberC1Ed
	movq	%rbx, 19264(%rsp)
	leaq	19272(%rsp), %rsi
	leaq	19264(%rsp), %rdx
	movl	$122, %edi
	callq	__ZN14altered_carbon2js8binaryOpEiRNSt3__18auto_ptrINS0_9ACJsValueEEES5_
	movq	%rax, 19256(%rsp)
	leaq	19280(%rsp), %rsi
	leaq	19256(%rsp), %rdx
	movl	$119, %edi
	callq	__ZN14altered_carbon2js8binaryOpEiRNSt3__18auto_ptrINS0_9ACJsValueEEES5_
	movq	%rax, 19248(%rsp)
	movl	$40, %edi
	callq	__Znwm
	movq	%rax, %rbx
	movsd	LCPI0_5(%rip), %xmm0    ## xmm0 = mem[0],zero
	movq	%rax, %rdi
	callq	__ZN14altered_carbon2js10ACJsNumberC1Ed
	movq	%rbx, 19240(%rsp)
	movl	$40, %edi
	callq	__Znwm
	movq	%rax, %rbx
	movsd	LCPI0_6(%rip), %xmm0    ## xmm0 = mem[0],zero
	movq	%rax, %rdi
	callq	__ZN14altered_carbon2js10ACJsNumberC1Ed
	movq	%rbx, 19232(%rsp)
	leaq	19240(%rsp), %rsi
	leaq	19232(%rsp), %rdx
	movl	$122, %edi
	callq	__ZN14altered_carbon2js8binaryOpEiRNSt3__18auto_ptrINS0_9ACJsValueEEES5_
	movq	%rax, 19224(%rsp)
	leaq	19248(%rsp), %rsi
	leaq	19224(%rsp), %rdx
	movl	$119, %edi
	callq	__ZN14altered_carbon2js8binaryOpEiRNSt3__18auto_ptrINS0_9ACJsValueEEES5_
	movq	%rax, 19216(%rsp)
	movl	$40, %edi
	callq	__Znwm
	movq	%rax, %rbx
	movsd	LCPI0_7(%rip), %xmm0    ## xmm0 = mem[0],zero
	movq	%rax, %rdi
	callq	__ZN14altered_carbon2js10ACJsNumberC1Ed
	movq	%rbx, 19208(%rsp)
	movl	$40, %edi
	callq	__Znwm
	movq	%rax, %rbx
	movsd	LCPI0_8(%rip), %xmm0    ## xmm0 = mem[0],zero
	movq	%rax, %rdi
	callq	__ZN14altered_carbon2js10ACJsNumberC1Ed
	movq	%rbx, 19200(%rsp)
	leaq	19208(%rsp), %rsi
	leaq	19200(%rsp), %rdx
	movl	$122, %edi
	callq	__ZN14altered_carbon2js8binaryOpEiRNSt3__18auto_ptrINS0_9ACJsValueEEES5_
	movq	%rax, 19192(%rsp)
	leaq	19216(%rsp), %rsi
	leaq	19192(%rsp), %rdx
	movl	$119, %edi
	callq	__ZN14altered_carbon2js8binaryOpEiRNSt3__18auto_ptrINS0_9ACJsValueEEES5_
	movq	%rax, 19184(%rsp)
	movl	$40, %edi
	callq	__Znwm
	movq	%rax, %rbx
	movsd	LCPI0_9(%rip), %xmm0    ## xmm0 = mem[0],zero
	movq	%rax, %rdi
	callq	__ZN14altered_carbon2js10ACJsNumberC1Ed
	movq	%rbx, 19176(%rsp)
	movl	$40, %edi
	callq	__Znwm
	movq	%rax, %rbx
	movsd	LCPI0_10(%rip), %xmm0   ## xmm0 = mem[0],zero
	movq	%rax, %rdi
	callq	__ZN14altered_carbon2js10ACJsNumberC1Ed
	movq	%rbx, 19168(%rsp)
	leaq	19176(%rsp), %rsi
	leaq	19168(%rsp), %rdx
	movl	$122, %edi
	callq	__ZN14altered_carbon2js8binaryOpEiRNSt3__18auto_ptrINS0_9ACJsValueEEES5_
	movq	%rax, 19160(%rsp)
	leaq	19184(%rsp), %rsi
	leaq	19160(%rsp), %rdx
	movl	$119, %edi
	callq	__ZN14altered_carbon2js8binaryOpEiRNSt3__18auto_ptrINS0_9ACJsValueEEES5_
	movq	%rax, 19152(%rsp)
	leaq	19152(%rsp), %rbx
LBB0_51:                                ## %ret.op2384
	movq	%rbx, 24432(%rsp)
	movq	(%rbx), %rdi
	movq	(%rdi), %rax
	callq	*168(%rax)
	testb	$1, %al
	je	LBB0_53
## %bb.52:                              ## %ret.rhs2479
	movl	$40, %edi
	callq	__Znwm
	movq	%rax, %rbx
	movsd	LCPI0_0(%rip), %xmm0    ## xmm0 = mem[0],zero
	movq	%rax, %rdi
	callq	__ZN14altered_carbon2js10ACJsNumberC1Ed
	movq	%rbx, 19144(%rsp)
	movl	$40, %edi
	callq	__Znwm
	movq	%rax, %rbx
	movsd	LCPI0_1(%rip), %xmm0    ## xmm0 = mem[0],zero
	movq	%rax, %rdi
	callq	__ZN14altered_carbon2js10ACJsNumberC1Ed
	movq	%rbx, 19136(%rsp)
	movl	$40, %edi
	callq	__Znwm
	movq	%rax, %rbx
	movsd	LCPI0_2(%rip), %xmm0    ## xmm0 = mem[0],zero
	movq	%rax, %rdi
	callq	__ZN14altered_carbon2js10ACJsNumberC1Ed
	movq	%rbx, 19128(%rsp)
	leaq	19136(%rsp), %rsi
	leaq	19128(%rsp), %rdx
	movl	$122, %edi
	callq	__ZN14altered_carbon2js8binaryOpEiRNSt3__18auto_ptrINS0_9ACJsValueEEES5_
	movq	%rax, 19120(%rsp)
	leaq	19144(%rsp), %rsi
	leaq	19120(%rsp), %rdx
	movl	$119, %edi
	callq	__ZN14altered_carbon2js8binaryOpEiRNSt3__18auto_ptrINS0_9ACJsValueEEES5_
	movq	%rax, 19112(%rsp)
	movl	$40, %edi
	callq	__Znwm
	movq	%rax, %rbx
	movsd	LCPI0_3(%rip), %xmm0    ## xmm0 = mem[0],zero
	movq	%rax, %rdi
	callq	__ZN14altered_carbon2js10ACJsNumberC1Ed
	movq	%rbx, 19104(%rsp)
	movl	$40, %edi
	callq	__Znwm
	movq	%rax, %rbx
	movsd	LCPI0_4(%rip), %xmm0    ## xmm0 = mem[0],zero
	movq	%rax, %rdi
	callq	__ZN14altered_carbon2js10ACJsNumberC1Ed
	movq	%rbx, 19096(%rsp)
	leaq	19104(%rsp), %rsi
	leaq	19096(%rsp), %rdx
	movl	$122, %edi
	callq	__ZN14altered_carbon2js8binaryOpEiRNSt3__18auto_ptrINS0_9ACJsValueEEES5_
	movq	%rax, 19088(%rsp)
	leaq	19112(%rsp), %rsi
	leaq	19088(%rsp), %rdx
	movl	$119, %edi
	callq	__ZN14altered_carbon2js8binaryOpEiRNSt3__18auto_ptrINS0_9ACJsValueEEES5_
	movq	%rax, 19080(%rsp)
	movl	$40, %edi
	callq	__Znwm
	movq	%rax, %rbx
	movsd	LCPI0_5(%rip), %xmm0    ## xmm0 = mem[0],zero
	movq	%rax, %rdi
	callq	__ZN14altered_carbon2js10ACJsNumberC1Ed
	movq	%rbx, 19072(%rsp)
	movl	$40, %edi
	callq	__Znwm
	movq	%rax, %rbx
	movsd	LCPI0_6(%rip), %xmm0    ## xmm0 = mem[0],zero
	movq	%rax, %rdi
	callq	__ZN14altered_carbon2js10ACJsNumberC1Ed
	movq	%rbx, 19064(%rsp)
	leaq	19072(%rsp), %rsi
	leaq	19064(%rsp), %rdx
	movl	$122, %edi
	callq	__ZN14altered_carbon2js8binaryOpEiRNSt3__18auto_ptrINS0_9ACJsValueEEES5_
	movq	%rax, 19056(%rsp)
	leaq	19080(%rsp), %rsi
	leaq	19056(%rsp), %rdx
	movl	$119, %edi
	callq	__ZN14altered_carbon2js8binaryOpEiRNSt3__18auto_ptrINS0_9ACJsValueEEES5_
	movq	%rax, 19048(%rsp)
	movl	$40, %edi
	callq	__Znwm
	movq	%rax, %rbx
	movsd	LCPI0_7(%rip), %xmm0    ## xmm0 = mem[0],zero
	movq	%rax, %rdi
	callq	__ZN14altered_carbon2js10ACJsNumberC1Ed
	movq	%rbx, 19040(%rsp)
	movl	$40, %edi
	callq	__Znwm
	movq	%rax, %rbx
	movsd	LCPI0_8(%rip), %xmm0    ## xmm0 = mem[0],zero
	movq	%rax, %rdi
	callq	__ZN14altered_carbon2js10ACJsNumberC1Ed
	movq	%rbx, 19032(%rsp)
	leaq	19040(%rsp), %rsi
	leaq	19032(%rsp), %rdx
	movl	$122, %edi
	callq	__ZN14altered_carbon2js8binaryOpEiRNSt3__18auto_ptrINS0_9ACJsValueEEES5_
	movq	%rax, 19024(%rsp)
	leaq	19048(%rsp), %rsi
	leaq	19024(%rsp), %rdx
	movl	$119, %edi
	callq	__ZN14altered_carbon2js8binaryOpEiRNSt3__18auto_ptrINS0_9ACJsValueEEES5_
	movq	%rax, 19016(%rsp)
	movl	$40, %edi
	callq	__Znwm
	movq	%rax, %rbx
	movsd	LCPI0_9(%rip), %xmm0    ## xmm0 = mem[0],zero
	movq	%rax, %rdi
	callq	__ZN14altered_carbon2js10ACJsNumberC1Ed
	movq	%rbx, 19008(%rsp)
	movl	$40, %edi
	callq	__Znwm
	movq	%rax, %rbx
	movsd	LCPI0_10(%rip), %xmm0   ## xmm0 = mem[0],zero
	movq	%rax, %rdi
	callq	__ZN14altered_carbon2js10ACJsNumberC1Ed
	movq	%rbx, 19000(%rsp)
	leaq	19008(%rsp), %rsi
	leaq	19000(%rsp), %rdx
	movl	$122, %edi
	callq	__ZN14altered_carbon2js8binaryOpEiRNSt3__18auto_ptrINS0_9ACJsValueEEES5_
	movq	%rax, 18992(%rsp)
	leaq	19016(%rsp), %rsi
	leaq	18992(%rsp), %rdx
	movl	$119, %edi
	callq	__ZN14altered_carbon2js8binaryOpEiRNSt3__18auto_ptrINS0_9ACJsValueEEES5_
	movq	%rax, 18984(%rsp)
	leaq	18984(%rsp), %rbx
LBB0_53:                                ## %ret.op2480
	movq	%rbx, 24424(%rsp)
	movq	(%rbx), %rdi
	movq	(%rdi), %rax
	callq	*168(%rax)
	testb	$1, %al
	je	LBB0_55
## %bb.54:                              ## %ret.rhs2575
	movl	$40, %edi
	callq	__Znwm
	movq	%rax, %rbx
	movsd	LCPI0_0(%rip), %xmm0    ## xmm0 = mem[0],zero
	movq	%rax, %rdi
	callq	__ZN14altered_carbon2js10ACJsNumberC1Ed
	movq	%rbx, 18976(%rsp)
	movl	$40, %edi
	callq	__Znwm
	movq	%rax, %rbx
	movsd	LCPI0_1(%rip), %xmm0    ## xmm0 = mem[0],zero
	movq	%rax, %rdi
	callq	__ZN14altered_carbon2js10ACJsNumberC1Ed
	movq	%rbx, 18968(%rsp)
	movl	$40, %edi
	callq	__Znwm
	movq	%rax, %rbx
	movsd	LCPI0_2(%rip), %xmm0    ## xmm0 = mem[0],zero
	movq	%rax, %rdi
	callq	__ZN14altered_carbon2js10ACJsNumberC1Ed
	movq	%rbx, 18960(%rsp)
	leaq	18968(%rsp), %rsi
	leaq	18960(%rsp), %rdx
	movl	$122, %edi
	callq	__ZN14altered_carbon2js8binaryOpEiRNSt3__18auto_ptrINS0_9ACJsValueEEES5_
	movq	%rax, 18952(%rsp)
	leaq	18976(%rsp), %rsi
	leaq	18952(%rsp), %rdx
	movl	$119, %edi
	callq	__ZN14altered_carbon2js8binaryOpEiRNSt3__18auto_ptrINS0_9ACJsValueEEES5_
	movq	%rax, 18944(%rsp)
	movl	$40, %edi
	callq	__Znwm
	movq	%rax, %rbx
	movsd	LCPI0_3(%rip), %xmm0    ## xmm0 = mem[0],zero
	movq	%rax, %rdi
	callq	__ZN14altered_carbon2js10ACJsNumberC1Ed
	movq	%rbx, 18936(%rsp)
	movl	$40, %edi
	callq	__Znwm
	movq	%rax, %rbx
	movsd	LCPI0_4(%rip), %xmm0    ## xmm0 = mem[0],zero
	movq	%rax, %rdi
	callq	__ZN14altered_carbon2js10ACJsNumberC1Ed
	movq	%rbx, 18928(%rsp)
	leaq	18936(%rsp), %rsi
	leaq	18928(%rsp), %rdx
	movl	$122, %edi
	callq	__ZN14altered_carbon2js8binaryOpEiRNSt3__18auto_ptrINS0_9ACJsValueEEES5_
	movq	%rax, 18920(%rsp)
	leaq	18944(%rsp), %rsi
	leaq	18920(%rsp), %rdx
	movl	$119, %edi
	callq	__ZN14altered_carbon2js8binaryOpEiRNSt3__18auto_ptrINS0_9ACJsValueEEES5_
	movq	%rax, 18912(%rsp)
	movl	$40, %edi
	callq	__Znwm
	movq	%rax, %rbx
	movsd	LCPI0_5(%rip), %xmm0    ## xmm0 = mem[0],zero
	movq	%rax, %rdi
	callq	__ZN14altered_carbon2js10ACJsNumberC1Ed
	movq	%rbx, 18904(%rsp)
	movl	$40, %edi
	callq	__Znwm
	movq	%rax, %rbx
	movsd	LCPI0_6(%rip), %xmm0    ## xmm0 = mem[0],zero
	movq	%rax, %rdi
	callq	__ZN14altered_carbon2js10ACJsNumberC1Ed
	movq	%rbx, 18896(%rsp)
	leaq	18904(%rsp), %rsi
	leaq	18896(%rsp), %rdx
	movl	$122, %edi
	callq	__ZN14altered_carbon2js8binaryOpEiRNSt3__18auto_ptrINS0_9ACJsValueEEES5_
	movq	%rax, 18888(%rsp)
	leaq	18912(%rsp), %rsi
	leaq	18888(%rsp), %rdx
	movl	$119, %edi
	callq	__ZN14altered_carbon2js8binaryOpEiRNSt3__18auto_ptrINS0_9ACJsValueEEES5_
	movq	%rax, 18880(%rsp)
	movl	$40, %edi
	callq	__Znwm
	movq	%rax, %rbx
	movsd	LCPI0_7(%rip), %xmm0    ## xmm0 = mem[0],zero
	movq	%rax, %rdi
	callq	__ZN14altered_carbon2js10ACJsNumberC1Ed
	movq	%rbx, 18872(%rsp)
	movl	$40, %edi
	callq	__Znwm
	movq	%rax, %rbx
	movsd	LCPI0_8(%rip), %xmm0    ## xmm0 = mem[0],zero
	movq	%rax, %rdi
	callq	__ZN14altered_carbon2js10ACJsNumberC1Ed
	movq	%rbx, 18864(%rsp)
	leaq	18872(%rsp), %rsi
	leaq	18864(%rsp), %rdx
	movl	$122, %edi
	callq	__ZN14altered_carbon2js8binaryOpEiRNSt3__18auto_ptrINS0_9ACJsValueEEES5_
	movq	%rax, 18856(%rsp)
	leaq	18880(%rsp), %rsi
	leaq	18856(%rsp), %rdx
	movl	$119, %edi
	callq	__ZN14altered_carbon2js8binaryOpEiRNSt3__18auto_ptrINS0_9ACJsValueEEES5_
	movq	%rax, 18848(%rsp)
	movl	$40, %edi
	callq	__Znwm
	movq	%rax, %rbx
	movsd	LCPI0_9(%rip), %xmm0    ## xmm0 = mem[0],zero
	movq	%rax, %rdi
	callq	__ZN14altered_carbon2js10ACJsNumberC1Ed
	movq	%rbx, 18840(%rsp)
	movl	$40, %edi
	callq	__Znwm
	movq	%rax, %rbx
	movsd	LCPI0_10(%rip), %xmm0   ## xmm0 = mem[0],zero
	movq	%rax, %rdi
	callq	__ZN14altered_carbon2js10ACJsNumberC1Ed
	movq	%rbx, 18832(%rsp)
	leaq	18840(%rsp), %rsi
	leaq	18832(%rsp), %rdx
	movl	$122, %edi
	callq	__ZN14altered_carbon2js8binaryOpEiRNSt3__18auto_ptrINS0_9ACJsValueEEES5_
	movq	%rax, 18824(%rsp)
	leaq	18848(%rsp), %rsi
	leaq	18824(%rsp), %rdx
	movl	$119, %edi
	callq	__ZN14altered_carbon2js8binaryOpEiRNSt3__18auto_ptrINS0_9ACJsValueEEES5_
	movq	%rax, 18816(%rsp)
	leaq	18816(%rsp), %rbx
LBB0_55:                                ## %ret.op2576
	movq	%rbx, 24416(%rsp)
	movq	(%rbx), %rdi
	movq	(%rdi), %rax
	callq	*168(%rax)
	testb	$1, %al
	je	LBB0_57
## %bb.56:                              ## %ret.rhs2671
	movl	$40, %edi
	callq	__Znwm
	movq	%rax, %rbx
	movsd	LCPI0_0(%rip), %xmm0    ## xmm0 = mem[0],zero
	movq	%rax, %rdi
	callq	__ZN14altered_carbon2js10ACJsNumberC1Ed
	movq	%rbx, 18808(%rsp)
	movl	$40, %edi
	callq	__Znwm
	movq	%rax, %rbx
	movsd	LCPI0_1(%rip), %xmm0    ## xmm0 = mem[0],zero
	movq	%rax, %rdi
	callq	__ZN14altered_carbon2js10ACJsNumberC1Ed
	movq	%rbx, 18800(%rsp)
	movl	$40, %edi
	callq	__Znwm
	movq	%rax, %rbx
	movsd	LCPI0_2(%rip), %xmm0    ## xmm0 = mem[0],zero
	movq	%rax, %rdi
	callq	__ZN14altered_carbon2js10ACJsNumberC1Ed
	movq	%rbx, 18792(%rsp)
	leaq	18800(%rsp), %rsi
	leaq	18792(%rsp), %rdx
	movl	$122, %edi
	callq	__ZN14altered_carbon2js8binaryOpEiRNSt3__18auto_ptrINS0_9ACJsValueEEES5_
	movq	%rax, 18784(%rsp)
	leaq	18808(%rsp), %rsi
	leaq	18784(%rsp), %rdx
	movl	$119, %edi
	callq	__ZN14altered_carbon2js8binaryOpEiRNSt3__18auto_ptrINS0_9ACJsValueEEES5_
	movq	%rax, 18776(%rsp)
	movl	$40, %edi
	callq	__Znwm
	movq	%rax, %rbx
	movsd	LCPI0_3(%rip), %xmm0    ## xmm0 = mem[0],zero
	movq	%rax, %rdi
	callq	__ZN14altered_carbon2js10ACJsNumberC1Ed
	movq	%rbx, 18768(%rsp)
	movl	$40, %edi
	callq	__Znwm
	movq	%rax, %rbx
	movsd	LCPI0_4(%rip), %xmm0    ## xmm0 = mem[0],zero
	movq	%rax, %rdi
	callq	__ZN14altered_carbon2js10ACJsNumberC1Ed
	movq	%rbx, 18760(%rsp)
	leaq	18768(%rsp), %rsi
	leaq	18760(%rsp), %rdx
	movl	$122, %edi
	callq	__ZN14altered_carbon2js8binaryOpEiRNSt3__18auto_ptrINS0_9ACJsValueEEES5_
	movq	%rax, 18752(%rsp)
	leaq	18776(%rsp), %rsi
	leaq	18752(%rsp), %rdx
	movl	$119, %edi
	callq	__ZN14altered_carbon2js8binaryOpEiRNSt3__18auto_ptrINS0_9ACJsValueEEES5_
	movq	%rax, 18744(%rsp)
	movl	$40, %edi
	callq	__Znwm
	movq	%rax, %rbx
	movsd	LCPI0_5(%rip), %xmm0    ## xmm0 = mem[0],zero
	movq	%rax, %rdi
	callq	__ZN14altered_carbon2js10ACJsNumberC1Ed
	movq	%rbx, 18736(%rsp)
	movl	$40, %edi
	callq	__Znwm
	movq	%rax, %rbx
	movsd	LCPI0_6(%rip), %xmm0    ## xmm0 = mem[0],zero
	movq	%rax, %rdi
	callq	__ZN14altered_carbon2js10ACJsNumberC1Ed
	movq	%rbx, 18728(%rsp)
	leaq	18736(%rsp), %rsi
	leaq	18728(%rsp), %rdx
	movl	$122, %edi
	callq	__ZN14altered_carbon2js8binaryOpEiRNSt3__18auto_ptrINS0_9ACJsValueEEES5_
	movq	%rax, 18720(%rsp)
	leaq	18744(%rsp), %rsi
	leaq	18720(%rsp), %rdx
	movl	$119, %edi
	callq	__ZN14altered_carbon2js8binaryOpEiRNSt3__18auto_ptrINS0_9ACJsValueEEES5_
	movq	%rax, 18712(%rsp)
	movl	$40, %edi
	callq	__Znwm
	movq	%rax, %rbx
	movsd	LCPI0_7(%rip), %xmm0    ## xmm0 = mem[0],zero
	movq	%rax, %rdi
	callq	__ZN14altered_carbon2js10ACJsNumberC1Ed
	movq	%rbx, 18704(%rsp)
	movl	$40, %edi
	callq	__Znwm
	movq	%rax, %rbx
	movsd	LCPI0_8(%rip), %xmm0    ## xmm0 = mem[0],zero
	movq	%rax, %rdi
	callq	__ZN14altered_carbon2js10ACJsNumberC1Ed
	movq	%rbx, 18696(%rsp)
	leaq	18704(%rsp), %rsi
	leaq	18696(%rsp), %rdx
	movl	$122, %edi
	callq	__ZN14altered_carbon2js8binaryOpEiRNSt3__18auto_ptrINS0_9ACJsValueEEES5_
	movq	%rax, 18688(%rsp)
	leaq	18712(%rsp), %rsi
	leaq	18688(%rsp), %rdx
	movl	$119, %edi
	callq	__ZN14altered_carbon2js8binaryOpEiRNSt3__18auto_ptrINS0_9ACJsValueEEES5_
	movq	%rax, 18680(%rsp)
	movl	$40, %edi
	callq	__Znwm
	movq	%rax, %rbx
	movsd	LCPI0_9(%rip), %xmm0    ## xmm0 = mem[0],zero
	movq	%rax, %rdi
	callq	__ZN14altered_carbon2js10ACJsNumberC1Ed
	movq	%rbx, 18672(%rsp)
	movl	$40, %edi
	callq	__Znwm
	movq	%rax, %rbx
	movsd	LCPI0_10(%rip), %xmm0   ## xmm0 = mem[0],zero
	movq	%rax, %rdi
	callq	__ZN14altered_carbon2js10ACJsNumberC1Ed
	movq	%rbx, 18664(%rsp)
	leaq	18672(%rsp), %rsi
	leaq	18664(%rsp), %rdx
	movl	$122, %edi
	callq	__ZN14altered_carbon2js8binaryOpEiRNSt3__18auto_ptrINS0_9ACJsValueEEES5_
	movq	%rax, 18656(%rsp)
	leaq	18680(%rsp), %rsi
	leaq	18656(%rsp), %rdx
	movl	$119, %edi
	callq	__ZN14altered_carbon2js8binaryOpEiRNSt3__18auto_ptrINS0_9ACJsValueEEES5_
	movq	%rax, 18648(%rsp)
	leaq	18648(%rsp), %rbx
LBB0_57:                                ## %ret.op2672
	movq	%rbx, 24408(%rsp)
	movq	(%rbx), %rdi
	movq	(%rdi), %rax
	callq	*168(%rax)
	testb	$1, %al
	je	LBB0_59
## %bb.58:                              ## %ret.rhs2767
	movl	$40, %edi
	callq	__Znwm
	movq	%rax, %rbx
	movsd	LCPI0_0(%rip), %xmm0    ## xmm0 = mem[0],zero
	movq	%rax, %rdi
	callq	__ZN14altered_carbon2js10ACJsNumberC1Ed
	movq	%rbx, 18640(%rsp)
	movl	$40, %edi
	callq	__Znwm
	movq	%rax, %rbx
	movsd	LCPI0_1(%rip), %xmm0    ## xmm0 = mem[0],zero
	movq	%rax, %rdi
	callq	__ZN14altered_carbon2js10ACJsNumberC1Ed
	movq	%rbx, 18632(%rsp)
	movl	$40, %edi
	callq	__Znwm
	movq	%rax, %rbx
	movsd	LCPI0_2(%rip), %xmm0    ## xmm0 = mem[0],zero
	movq	%rax, %rdi
	callq	__ZN14altered_carbon2js10ACJsNumberC1Ed
	movq	%rbx, 18624(%rsp)
	leaq	18632(%rsp), %rsi
	leaq	18624(%rsp), %rdx
	movl	$122, %edi
	callq	__ZN14altered_carbon2js8binaryOpEiRNSt3__18auto_ptrINS0_9ACJsValueEEES5_
	movq	%rax, 18616(%rsp)
	leaq	18640(%rsp), %rsi
	leaq	18616(%rsp), %rdx
	movl	$119, %edi
	callq	__ZN14altered_carbon2js8binaryOpEiRNSt3__18auto_ptrINS0_9ACJsValueEEES5_
	movq	%rax, 18608(%rsp)
	movl	$40, %edi
	callq	__Znwm
	movq	%rax, %rbx
	movsd	LCPI0_3(%rip), %xmm0    ## xmm0 = mem[0],zero
	movq	%rax, %rdi
	callq	__ZN14altered_carbon2js10ACJsNumberC1Ed
	movq	%rbx, 18600(%rsp)
	movl	$40, %edi
	callq	__Znwm
	movq	%rax, %rbx
	movsd	LCPI0_4(%rip), %xmm0    ## xmm0 = mem[0],zero
	movq	%rax, %rdi
	callq	__ZN14altered_carbon2js10ACJsNumberC1Ed
	movq	%rbx, 18592(%rsp)
	leaq	18600(%rsp), %rsi
	leaq	18592(%rsp), %rdx
	movl	$122, %edi
	callq	__ZN14altered_carbon2js8binaryOpEiRNSt3__18auto_ptrINS0_9ACJsValueEEES5_
	movq	%rax, 18584(%rsp)
	leaq	18608(%rsp), %rsi
	leaq	18584(%rsp), %rdx
	movl	$119, %edi
	callq	__ZN14altered_carbon2js8binaryOpEiRNSt3__18auto_ptrINS0_9ACJsValueEEES5_
	movq	%rax, 18576(%rsp)
	movl	$40, %edi
	callq	__Znwm
	movq	%rax, %rbx
	movsd	LCPI0_5(%rip), %xmm0    ## xmm0 = mem[0],zero
	movq	%rax, %rdi
	callq	__ZN14altered_carbon2js10ACJsNumberC1Ed
	movq	%rbx, 18568(%rsp)
	movl	$40, %edi
	callq	__Znwm
	movq	%rax, %rbx
	movsd	LCPI0_6(%rip), %xmm0    ## xmm0 = mem[0],zero
	movq	%rax, %rdi
	callq	__ZN14altered_carbon2js10ACJsNumberC1Ed
	movq	%rbx, 18560(%rsp)
	leaq	18568(%rsp), %rsi
	leaq	18560(%rsp), %rdx
	movl	$122, %edi
	callq	__ZN14altered_carbon2js8binaryOpEiRNSt3__18auto_ptrINS0_9ACJsValueEEES5_
	movq	%rax, 18552(%rsp)
	leaq	18576(%rsp), %rsi
	leaq	18552(%rsp), %rdx
	movl	$119, %edi
	callq	__ZN14altered_carbon2js8binaryOpEiRNSt3__18auto_ptrINS0_9ACJsValueEEES5_
	movq	%rax, 18544(%rsp)
	movl	$40, %edi
	callq	__Znwm
	movq	%rax, %rbx
	movsd	LCPI0_7(%rip), %xmm0    ## xmm0 = mem[0],zero
	movq	%rax, %rdi
	callq	__ZN14altered_carbon2js10ACJsNumberC1Ed
	movq	%rbx, 18536(%rsp)
	movl	$40, %edi
	callq	__Znwm
	movq	%rax, %rbx
	movsd	LCPI0_8(%rip), %xmm0    ## xmm0 = mem[0],zero
	movq	%rax, %rdi
	callq	__ZN14altered_carbon2js10ACJsNumberC1Ed
	movq	%rbx, 18528(%rsp)
	leaq	18536(%rsp), %rsi
	leaq	18528(%rsp), %rdx
	movl	$122, %edi
	callq	__ZN14altered_carbon2js8binaryOpEiRNSt3__18auto_ptrINS0_9ACJsValueEEES5_
	movq	%rax, 18520(%rsp)
	leaq	18544(%rsp), %rsi
	leaq	18520(%rsp), %rdx
	movl	$119, %edi
	callq	__ZN14altered_carbon2js8binaryOpEiRNSt3__18auto_ptrINS0_9ACJsValueEEES5_
	movq	%rax, 18512(%rsp)
	movl	$40, %edi
	callq	__Znwm
	movq	%rax, %rbx
	movsd	LCPI0_9(%rip), %xmm0    ## xmm0 = mem[0],zero
	movq	%rax, %rdi
	callq	__ZN14altered_carbon2js10ACJsNumberC1Ed
	movq	%rbx, 18504(%rsp)
	movl	$40, %edi
	callq	__Znwm
	movq	%rax, %rbx
	movsd	LCPI0_10(%rip), %xmm0   ## xmm0 = mem[0],zero
	movq	%rax, %rdi
	callq	__ZN14altered_carbon2js10ACJsNumberC1Ed
	movq	%rbx, 18496(%rsp)
	leaq	18504(%rsp), %rsi
	leaq	18496(%rsp), %rdx
	movl	$122, %edi
	callq	__ZN14altered_carbon2js8binaryOpEiRNSt3__18auto_ptrINS0_9ACJsValueEEES5_
	movq	%rax, 18488(%rsp)
	leaq	18512(%rsp), %rsi
	leaq	18488(%rsp), %rdx
	movl	$119, %edi
	callq	__ZN14altered_carbon2js8binaryOpEiRNSt3__18auto_ptrINS0_9ACJsValueEEES5_
	movq	%rax, 18480(%rsp)
	leaq	18480(%rsp), %rbx
LBB0_59:                                ## %ret.op2768
	movq	%rbx, 24400(%rsp)
	movq	(%rbx), %rdi
	movq	(%rdi), %rax
	callq	*168(%rax)
	testb	$1, %al
	je	LBB0_61
## %bb.60:                              ## %ret.rhs2863
	movl	$40, %edi
	callq	__Znwm
	movq	%rax, %rbx
	movsd	LCPI0_0(%rip), %xmm0    ## xmm0 = mem[0],zero
	movq	%rax, %rdi
	callq	__ZN14altered_carbon2js10ACJsNumberC1Ed
	movq	%rbx, 18472(%rsp)
	movl	$40, %edi
	callq	__Znwm
	movq	%rax, %rbx
	movsd	LCPI0_1(%rip), %xmm0    ## xmm0 = mem[0],zero
	movq	%rax, %rdi
	callq	__ZN14altered_carbon2js10ACJsNumberC1Ed
	movq	%rbx, 18464(%rsp)
	movl	$40, %edi
	callq	__Znwm
	movq	%rax, %rbx
	movsd	LCPI0_2(%rip), %xmm0    ## xmm0 = mem[0],zero
	movq	%rax, %rdi
	callq	__ZN14altered_carbon2js10ACJsNumberC1Ed
	movq	%rbx, 18456(%rsp)
	leaq	18464(%rsp), %rsi
	leaq	18456(%rsp), %rdx
	movl	$122, %edi
	callq	__ZN14altered_carbon2js8binaryOpEiRNSt3__18auto_ptrINS0_9ACJsValueEEES5_
	movq	%rax, 18448(%rsp)
	leaq	18472(%rsp), %rsi
	leaq	18448(%rsp), %rdx
	movl	$119, %edi
	callq	__ZN14altered_carbon2js8binaryOpEiRNSt3__18auto_ptrINS0_9ACJsValueEEES5_
	movq	%rax, 18440(%rsp)
	movl	$40, %edi
	callq	__Znwm
	movq	%rax, %rbx
	movsd	LCPI0_3(%rip), %xmm0    ## xmm0 = mem[0],zero
	movq	%rax, %rdi
	callq	__ZN14altered_carbon2js10ACJsNumberC1Ed
	movq	%rbx, 18432(%rsp)
	movl	$40, %edi
	callq	__Znwm
	movq	%rax, %rbx
	movsd	LCPI0_4(%rip), %xmm0    ## xmm0 = mem[0],zero
	movq	%rax, %rdi
	callq	__ZN14altered_carbon2js10ACJsNumberC1Ed
	movq	%rbx, 18424(%rsp)
	leaq	18432(%rsp), %rsi
	leaq	18424(%rsp), %rdx
	movl	$122, %edi
	callq	__ZN14altered_carbon2js8binaryOpEiRNSt3__18auto_ptrINS0_9ACJsValueEEES5_
	movq	%rax, 18416(%rsp)
	leaq	18440(%rsp), %rsi
	leaq	18416(%rsp), %rdx
	movl	$119, %edi
	callq	__ZN14altered_carbon2js8binaryOpEiRNSt3__18auto_ptrINS0_9ACJsValueEEES5_
	movq	%rax, 18408(%rsp)
	movl	$40, %edi
	callq	__Znwm
	movq	%rax, %rbx
	movsd	LCPI0_5(%rip), %xmm0    ## xmm0 = mem[0],zero
	movq	%rax, %rdi
	callq	__ZN14altered_carbon2js10ACJsNumberC1Ed
	movq	%rbx, 18400(%rsp)
	movl	$40, %edi
	callq	__Znwm
	movq	%rax, %rbx
	movsd	LCPI0_6(%rip), %xmm0    ## xmm0 = mem[0],zero
	movq	%rax, %rdi
	callq	__ZN14altered_carbon2js10ACJsNumberC1Ed
	movq	%rbx, 18392(%rsp)
	leaq	18400(%rsp), %rsi
	leaq	18392(%rsp), %rdx
	movl	$122, %edi
	callq	__ZN14altered_carbon2js8binaryOpEiRNSt3__18auto_ptrINS0_9ACJsValueEEES5_
	movq	%rax, 18384(%rsp)
	leaq	18408(%rsp), %rsi
	leaq	18384(%rsp), %rdx
	movl	$119, %edi
	callq	__ZN14altered_carbon2js8binaryOpEiRNSt3__18auto_ptrINS0_9ACJsValueEEES5_
	movq	%rax, 18376(%rsp)
	movl	$40, %edi
	callq	__Znwm
	movq	%rax, %rbx
	movsd	LCPI0_7(%rip), %xmm0    ## xmm0 = mem[0],zero
	movq	%rax, %rdi
	callq	__ZN14altered_carbon2js10ACJsNumberC1Ed
	movq	%rbx, 18368(%rsp)
	movl	$40, %edi
	callq	__Znwm
	movq	%rax, %rbx
	movsd	LCPI0_8(%rip), %xmm0    ## xmm0 = mem[0],zero
	movq	%rax, %rdi
	callq	__ZN14altered_carbon2js10ACJsNumberC1Ed
	movq	%rbx, 18360(%rsp)
	leaq	18368(%rsp), %rsi
	leaq	18360(%rsp), %rdx
	movl	$122, %edi
	callq	__ZN14altered_carbon2js8binaryOpEiRNSt3__18auto_ptrINS0_9ACJsValueEEES5_
	movq	%rax, 18352(%rsp)
	leaq	18376(%rsp), %rsi
	leaq	18352(%rsp), %rdx
	movl	$119, %edi
	callq	__ZN14altered_carbon2js8binaryOpEiRNSt3__18auto_ptrINS0_9ACJsValueEEES5_
	movq	%rax, 18344(%rsp)
	movl	$40, %edi
	callq	__Znwm
	movq	%rax, %rbx
	movsd	LCPI0_9(%rip), %xmm0    ## xmm0 = mem[0],zero
	movq	%rax, %rdi
	callq	__ZN14altered_carbon2js10ACJsNumberC1Ed
	movq	%rbx, 18336(%rsp)
	movl	$40, %edi
	callq	__Znwm
	movq	%rax, %rbx
	movsd	LCPI0_10(%rip), %xmm0   ## xmm0 = mem[0],zero
	movq	%rax, %rdi
	callq	__ZN14altered_carbon2js10ACJsNumberC1Ed
	movq	%rbx, 18328(%rsp)
	leaq	18336(%rsp), %rsi
	leaq	18328(%rsp), %rdx
	movl	$122, %edi
	callq	__ZN14altered_carbon2js8binaryOpEiRNSt3__18auto_ptrINS0_9ACJsValueEEES5_
	movq	%rax, 18320(%rsp)
	leaq	18344(%rsp), %rsi
	leaq	18320(%rsp), %rdx
	movl	$119, %edi
	callq	__ZN14altered_carbon2js8binaryOpEiRNSt3__18auto_ptrINS0_9ACJsValueEEES5_
	movq	%rax, 18312(%rsp)
	leaq	18312(%rsp), %rbx
LBB0_61:                                ## %ret.op2864
	movq	%rbx, 24392(%rsp)
	movq	(%rbx), %rdi
	movq	(%rdi), %rax
	callq	*168(%rax)
	testb	$1, %al
	je	LBB0_63
## %bb.62:                              ## %ret.rhs2959
	movl	$40, %edi
	callq	__Znwm
	movq	%rax, %rbx
	movsd	LCPI0_0(%rip), %xmm0    ## xmm0 = mem[0],zero
	movq	%rax, %rdi
	callq	__ZN14altered_carbon2js10ACJsNumberC1Ed
	movq	%rbx, 18304(%rsp)
	movl	$40, %edi
	callq	__Znwm
	movq	%rax, %rbx
	movsd	LCPI0_1(%rip), %xmm0    ## xmm0 = mem[0],zero
	movq	%rax, %rdi
	callq	__ZN14altered_carbon2js10ACJsNumberC1Ed
	movq	%rbx, 18296(%rsp)
	movl	$40, %edi
	callq	__Znwm
	movq	%rax, %rbx
	movsd	LCPI0_2(%rip), %xmm0    ## xmm0 = mem[0],zero
	movq	%rax, %rdi
	callq	__ZN14altered_carbon2js10ACJsNumberC1Ed
	movq	%rbx, 18288(%rsp)
	leaq	18296(%rsp), %rsi
	leaq	18288(%rsp), %rdx
	movl	$122, %edi
	callq	__ZN14altered_carbon2js8binaryOpEiRNSt3__18auto_ptrINS0_9ACJsValueEEES5_
	movq	%rax, 18280(%rsp)
	leaq	18304(%rsp), %rsi
	leaq	18280(%rsp), %rdx
	movl	$119, %edi
	callq	__ZN14altered_carbon2js8binaryOpEiRNSt3__18auto_ptrINS0_9ACJsValueEEES5_
	movq	%rax, 18272(%rsp)
	movl	$40, %edi
	callq	__Znwm
	movq	%rax, %rbx
	movsd	LCPI0_3(%rip), %xmm0    ## xmm0 = mem[0],zero
	movq	%rax, %rdi
	callq	__ZN14altered_carbon2js10ACJsNumberC1Ed
	movq	%rbx, 18264(%rsp)
	movl	$40, %edi
	callq	__Znwm
	movq	%rax, %rbx
	movsd	LCPI0_4(%rip), %xmm0    ## xmm0 = mem[0],zero
	movq	%rax, %rdi
	callq	__ZN14altered_carbon2js10ACJsNumberC1Ed
	movq	%rbx, 18256(%rsp)
	leaq	18264(%rsp), %rsi
	leaq	18256(%rsp), %rdx
	movl	$122, %edi
	callq	__ZN14altered_carbon2js8binaryOpEiRNSt3__18auto_ptrINS0_9ACJsValueEEES5_
	movq	%rax, 18248(%rsp)
	leaq	18272(%rsp), %rsi
	leaq	18248(%rsp), %rdx
	movl	$119, %edi
	callq	__ZN14altered_carbon2js8binaryOpEiRNSt3__18auto_ptrINS0_9ACJsValueEEES5_
	movq	%rax, 18240(%rsp)
	movl	$40, %edi
	callq	__Znwm
	movq	%rax, %rbx
	movsd	LCPI0_5(%rip), %xmm0    ## xmm0 = mem[0],zero
	movq	%rax, %rdi
	callq	__ZN14altered_carbon2js10ACJsNumberC1Ed
	movq	%rbx, 18232(%rsp)
	movl	$40, %edi
	callq	__Znwm
	movq	%rax, %rbx
	movsd	LCPI0_6(%rip), %xmm0    ## xmm0 = mem[0],zero
	movq	%rax, %rdi
	callq	__ZN14altered_carbon2js10ACJsNumberC1Ed
	movq	%rbx, 18224(%rsp)
	leaq	18232(%rsp), %rsi
	leaq	18224(%rsp), %rdx
	movl	$122, %edi
	callq	__ZN14altered_carbon2js8binaryOpEiRNSt3__18auto_ptrINS0_9ACJsValueEEES5_
	movq	%rax, 18216(%rsp)
	leaq	18240(%rsp), %rsi
	leaq	18216(%rsp), %rdx
	movl	$119, %edi
	callq	__ZN14altered_carbon2js8binaryOpEiRNSt3__18auto_ptrINS0_9ACJsValueEEES5_
	movq	%rax, 18208(%rsp)
	movl	$40, %edi
	callq	__Znwm
	movq	%rax, %rbx
	movsd	LCPI0_7(%rip), %xmm0    ## xmm0 = mem[0],zero
	movq	%rax, %rdi
	callq	__ZN14altered_carbon2js10ACJsNumberC1Ed
	movq	%rbx, 18200(%rsp)
	movl	$40, %edi
	callq	__Znwm
	movq	%rax, %rbx
	movsd	LCPI0_8(%rip), %xmm0    ## xmm0 = mem[0],zero
	movq	%rax, %rdi
	callq	__ZN14altered_carbon2js10ACJsNumberC1Ed
	movq	%rbx, 18192(%rsp)
	leaq	18200(%rsp), %rsi
	leaq	18192(%rsp), %rdx
	movl	$122, %edi
	callq	__ZN14altered_carbon2js8binaryOpEiRNSt3__18auto_ptrINS0_9ACJsValueEEES5_
	movq	%rax, 18184(%rsp)
	leaq	18208(%rsp), %rsi
	leaq	18184(%rsp), %rdx
	movl	$119, %edi
	callq	__ZN14altered_carbon2js8binaryOpEiRNSt3__18auto_ptrINS0_9ACJsValueEEES5_
	movq	%rax, 18176(%rsp)
	movl	$40, %edi
	callq	__Znwm
	movq	%rax, %rbx
	movsd	LCPI0_9(%rip), %xmm0    ## xmm0 = mem[0],zero
	movq	%rax, %rdi
	callq	__ZN14altered_carbon2js10ACJsNumberC1Ed
	movq	%rbx, 18168(%rsp)
	movl	$40, %edi
	callq	__Znwm
	movq	%rax, %rbx
	movsd	LCPI0_10(%rip), %xmm0   ## xmm0 = mem[0],zero
	movq	%rax, %rdi
	callq	__ZN14altered_carbon2js10ACJsNumberC1Ed
	movq	%rbx, 18160(%rsp)
	leaq	18168(%rsp), %rsi
	leaq	18160(%rsp), %rdx
	movl	$122, %edi
	callq	__ZN14altered_carbon2js8binaryOpEiRNSt3__18auto_ptrINS0_9ACJsValueEEES5_
	movq	%rax, 18152(%rsp)
	leaq	18176(%rsp), %rsi
	leaq	18152(%rsp), %rdx
	movl	$119, %edi
	callq	__ZN14altered_carbon2js8binaryOpEiRNSt3__18auto_ptrINS0_9ACJsValueEEES5_
	movq	%rax, 18144(%rsp)
	leaq	18144(%rsp), %rbx
LBB0_63:                                ## %ret.op2960
	movq	%rbx, 24384(%rsp)
	movq	(%rbx), %rdi
	movq	(%rdi), %rax
	callq	*168(%rax)
	testb	$1, %al
	je	LBB0_65
## %bb.64:                              ## %ret.rhs3055
	movl	$40, %edi
	callq	__Znwm
	movq	%rax, %rbx
	movsd	LCPI0_0(%rip), %xmm0    ## xmm0 = mem[0],zero
	movq	%rax, %rdi
	callq	__ZN14altered_carbon2js10ACJsNumberC1Ed
	movq	%rbx, 18136(%rsp)
	movl	$40, %edi
	callq	__Znwm
	movq	%rax, %rbx
	movsd	LCPI0_1(%rip), %xmm0    ## xmm0 = mem[0],zero
	movq	%rax, %rdi
	callq	__ZN14altered_carbon2js10ACJsNumberC1Ed
	movq	%rbx, 18128(%rsp)
	movl	$40, %edi
	callq	__Znwm
	movq	%rax, %rbx
	movsd	LCPI0_2(%rip), %xmm0    ## xmm0 = mem[0],zero
	movq	%rax, %rdi
	callq	__ZN14altered_carbon2js10ACJsNumberC1Ed
	movq	%rbx, 18120(%rsp)
	leaq	18128(%rsp), %rsi
	leaq	18120(%rsp), %rdx
	movl	$122, %edi
	callq	__ZN14altered_carbon2js8binaryOpEiRNSt3__18auto_ptrINS0_9ACJsValueEEES5_
	movq	%rax, 18112(%rsp)
	leaq	18136(%rsp), %rsi
	leaq	18112(%rsp), %rdx
	movl	$119, %edi
	callq	__ZN14altered_carbon2js8binaryOpEiRNSt3__18auto_ptrINS0_9ACJsValueEEES5_
	movq	%rax, 18104(%rsp)
	movl	$40, %edi
	callq	__Znwm
	movq	%rax, %rbx
	movsd	LCPI0_3(%rip), %xmm0    ## xmm0 = mem[0],zero
	movq	%rax, %rdi
	callq	__ZN14altered_carbon2js10ACJsNumberC1Ed
	movq	%rbx, 18096(%rsp)
	movl	$40, %edi
	callq	__Znwm
	movq	%rax, %rbx
	movsd	LCPI0_4(%rip), %xmm0    ## xmm0 = mem[0],zero
	movq	%rax, %rdi
	callq	__ZN14altered_carbon2js10ACJsNumberC1Ed
	movq	%rbx, 18088(%rsp)
	leaq	18096(%rsp), %rsi
	leaq	18088(%rsp), %rdx
	movl	$122, %edi
	callq	__ZN14altered_carbon2js8binaryOpEiRNSt3__18auto_ptrINS0_9ACJsValueEEES5_
	movq	%rax, 18080(%rsp)
	leaq	18104(%rsp), %rsi
	leaq	18080(%rsp), %rdx
	movl	$119, %edi
	callq	__ZN14altered_carbon2js8binaryOpEiRNSt3__18auto_ptrINS0_9ACJsValueEEES5_
	movq	%rax, 18072(%rsp)
	movl	$40, %edi
	callq	__Znwm
	movq	%rax, %rbx
	movsd	LCPI0_5(%rip), %xmm0    ## xmm0 = mem[0],zero
	movq	%rax, %rdi
	callq	__ZN14altered_carbon2js10ACJsNumberC1Ed
	movq	%rbx, 18064(%rsp)
	movl	$40, %edi
	callq	__Znwm
	movq	%rax, %rbx
	movsd	LCPI0_6(%rip), %xmm0    ## xmm0 = mem[0],zero
	movq	%rax, %rdi
	callq	__ZN14altered_carbon2js10ACJsNumberC1Ed
	movq	%rbx, 18056(%rsp)
	leaq	18064(%rsp), %rsi
	leaq	18056(%rsp), %rdx
	movl	$122, %edi
	callq	__ZN14altered_carbon2js8binaryOpEiRNSt3__18auto_ptrINS0_9ACJsValueEEES5_
	movq	%rax, 18048(%rsp)
	leaq	18072(%rsp), %rsi
	leaq	18048(%rsp), %rdx
	movl	$119, %edi
	callq	__ZN14altered_carbon2js8binaryOpEiRNSt3__18auto_ptrINS0_9ACJsValueEEES5_
	movq	%rax, 18040(%rsp)
	movl	$40, %edi
	callq	__Znwm
	movq	%rax, %rbx
	movsd	LCPI0_7(%rip), %xmm0    ## xmm0 = mem[0],zero
	movq	%rax, %rdi
	callq	__ZN14altered_carbon2js10ACJsNumberC1Ed
	movq	%rbx, 18032(%rsp)
	movl	$40, %edi
	callq	__Znwm
	movq	%rax, %rbx
	movsd	LCPI0_8(%rip), %xmm0    ## xmm0 = mem[0],zero
	movq	%rax, %rdi
	callq	__ZN14altered_carbon2js10ACJsNumberC1Ed
	movq	%rbx, 18024(%rsp)
	leaq	18032(%rsp), %rsi
	leaq	18024(%rsp), %rdx
	movl	$122, %edi
	callq	__ZN14altered_carbon2js8binaryOpEiRNSt3__18auto_ptrINS0_9ACJsValueEEES5_
	movq	%rax, 18016(%rsp)
	leaq	18040(%rsp), %rsi
	leaq	18016(%rsp), %rdx
	movl	$119, %edi
	callq	__ZN14altered_carbon2js8binaryOpEiRNSt3__18auto_ptrINS0_9ACJsValueEEES5_
	movq	%rax, 18008(%rsp)
	movl	$40, %edi
	callq	__Znwm
	movq	%rax, %rbx
	movsd	LCPI0_9(%rip), %xmm0    ## xmm0 = mem[0],zero
	movq	%rax, %rdi
	callq	__ZN14altered_carbon2js10ACJsNumberC1Ed
	movq	%rbx, 18000(%rsp)
	movl	$40, %edi
	callq	__Znwm
	movq	%rax, %rbx
	movsd	LCPI0_10(%rip), %xmm0   ## xmm0 = mem[0],zero
	movq	%rax, %rdi
	callq	__ZN14altered_carbon2js10ACJsNumberC1Ed
	movq	%rbx, 17992(%rsp)
	leaq	18000(%rsp), %rsi
	leaq	17992(%rsp), %rdx
	movl	$122, %edi
	callq	__ZN14altered_carbon2js8binaryOpEiRNSt3__18auto_ptrINS0_9ACJsValueEEES5_
	movq	%rax, 17984(%rsp)
	leaq	18008(%rsp), %rsi
	leaq	17984(%rsp), %rdx
	movl	$119, %edi
	callq	__ZN14altered_carbon2js8binaryOpEiRNSt3__18auto_ptrINS0_9ACJsValueEEES5_
	movq	%rax, 17976(%rsp)
	leaq	17976(%rsp), %rbx
LBB0_65:                                ## %ret.op3056
	movq	%rbx, 24376(%rsp)
	movq	(%rbx), %rdi
	movq	(%rdi), %rax
	callq	*168(%rax)
	testb	$1, %al
	je	LBB0_67
## %bb.66:                              ## %ret.rhs3151
	movl	$40, %edi
	callq	__Znwm
	movq	%rax, %rbx
	movsd	LCPI0_0(%rip), %xmm0    ## xmm0 = mem[0],zero
	movq	%rax, %rdi
	callq	__ZN14altered_carbon2js10ACJsNumberC1Ed
	movq	%rbx, 17968(%rsp)
	movl	$40, %edi
	callq	__Znwm
	movq	%rax, %rbx
	movsd	LCPI0_1(%rip), %xmm0    ## xmm0 = mem[0],zero
	movq	%rax, %rdi
	callq	__ZN14altered_carbon2js10ACJsNumberC1Ed
	movq	%rbx, 17960(%rsp)
	movl	$40, %edi
	callq	__Znwm
	movq	%rax, %rbx
	movsd	LCPI0_2(%rip), %xmm0    ## xmm0 = mem[0],zero
	movq	%rax, %rdi
	callq	__ZN14altered_carbon2js10ACJsNumberC1Ed
	movq	%rbx, 17952(%rsp)
	leaq	17960(%rsp), %rsi
	leaq	17952(%rsp), %rdx
	movl	$122, %edi
	callq	__ZN14altered_carbon2js8binaryOpEiRNSt3__18auto_ptrINS0_9ACJsValueEEES5_
	movq	%rax, 17944(%rsp)
	leaq	17968(%rsp), %rsi
	leaq	17944(%rsp), %rdx
	movl	$119, %edi
	callq	__ZN14altered_carbon2js8binaryOpEiRNSt3__18auto_ptrINS0_9ACJsValueEEES5_
	movq	%rax, 17936(%rsp)
	movl	$40, %edi
	callq	__Znwm
	movq	%rax, %rbx
	movsd	LCPI0_3(%rip), %xmm0    ## xmm0 = mem[0],zero
	movq	%rax, %rdi
	callq	__ZN14altered_carbon2js10ACJsNumberC1Ed
	movq	%rbx, 17928(%rsp)
	movl	$40, %edi
	callq	__Znwm
	movq	%rax, %rbx
	movsd	LCPI0_4(%rip), %xmm0    ## xmm0 = mem[0],zero
	movq	%rax, %rdi
	callq	__ZN14altered_carbon2js10ACJsNumberC1Ed
	movq	%rbx, 17920(%rsp)
	leaq	17928(%rsp), %rsi
	leaq	17920(%rsp), %rdx
	movl	$122, %edi
	callq	__ZN14altered_carbon2js8binaryOpEiRNSt3__18auto_ptrINS0_9ACJsValueEEES5_
	movq	%rax, 17912(%rsp)
	leaq	17936(%rsp), %rsi
	leaq	17912(%rsp), %rdx
	movl	$119, %edi
	callq	__ZN14altered_carbon2js8binaryOpEiRNSt3__18auto_ptrINS0_9ACJsValueEEES5_
	movq	%rax, 17904(%rsp)
	movl	$40, %edi
	callq	__Znwm
	movq	%rax, %rbx
	movsd	LCPI0_5(%rip), %xmm0    ## xmm0 = mem[0],zero
	movq	%rax, %rdi
	callq	__ZN14altered_carbon2js10ACJsNumberC1Ed
	movq	%rbx, 17896(%rsp)
	movl	$40, %edi
	callq	__Znwm
	movq	%rax, %rbx
	movsd	LCPI0_6(%rip), %xmm0    ## xmm0 = mem[0],zero
	movq	%rax, %rdi
	callq	__ZN14altered_carbon2js10ACJsNumberC1Ed
	movq	%rbx, 17888(%rsp)
	leaq	17896(%rsp), %rsi
	leaq	17888(%rsp), %rdx
	movl	$122, %edi
	callq	__ZN14altered_carbon2js8binaryOpEiRNSt3__18auto_ptrINS0_9ACJsValueEEES5_
	movq	%rax, 17880(%rsp)
	leaq	17904(%rsp), %rsi
	leaq	17880(%rsp), %rdx
	movl	$119, %edi
	callq	__ZN14altered_carbon2js8binaryOpEiRNSt3__18auto_ptrINS0_9ACJsValueEEES5_
	movq	%rax, 17872(%rsp)
	movl	$40, %edi
	callq	__Znwm
	movq	%rax, %rbx
	movsd	LCPI0_7(%rip), %xmm0    ## xmm0 = mem[0],zero
	movq	%rax, %rdi
	callq	__ZN14altered_carbon2js10ACJsNumberC1Ed
	movq	%rbx, 17864(%rsp)
	movl	$40, %edi
	callq	__Znwm
	movq	%rax, %rbx
	movsd	LCPI0_8(%rip), %xmm0    ## xmm0 = mem[0],zero
	movq	%rax, %rdi
	callq	__ZN14altered_carbon2js10ACJsNumberC1Ed
	movq	%rbx, 17856(%rsp)
	leaq	17864(%rsp), %rsi
	leaq	17856(%rsp), %rdx
	movl	$122, %edi
	callq	__ZN14altered_carbon2js8binaryOpEiRNSt3__18auto_ptrINS0_9ACJsValueEEES5_
	movq	%rax, 17848(%rsp)
	leaq	17872(%rsp), %rsi
	leaq	17848(%rsp), %rdx
	movl	$119, %edi
	callq	__ZN14altered_carbon2js8binaryOpEiRNSt3__18auto_ptrINS0_9ACJsValueEEES5_
	movq	%rax, 17840(%rsp)
	movl	$40, %edi
	callq	__Znwm
	movq	%rax, %rbx
	movsd	LCPI0_9(%rip), %xmm0    ## xmm0 = mem[0],zero
	movq	%rax, %rdi
	callq	__ZN14altered_carbon2js10ACJsNumberC1Ed
	movq	%rbx, 17832(%rsp)
	movl	$40, %edi
	callq	__Znwm
	movq	%rax, %rbx
	movsd	LCPI0_10(%rip), %xmm0   ## xmm0 = mem[0],zero
	movq	%rax, %rdi
	callq	__ZN14altered_carbon2js10ACJsNumberC1Ed
	movq	%rbx, 17824(%rsp)
	leaq	17832(%rsp), %rsi
	leaq	17824(%rsp), %rdx
	movl	$122, %edi
	callq	__ZN14altered_carbon2js8binaryOpEiRNSt3__18auto_ptrINS0_9ACJsValueEEES5_
	movq	%rax, 17816(%rsp)
	leaq	17840(%rsp), %rsi
	leaq	17816(%rsp), %rdx
	movl	$119, %edi
	callq	__ZN14altered_carbon2js8binaryOpEiRNSt3__18auto_ptrINS0_9ACJsValueEEES5_
	movq	%rax, 17808(%rsp)
	leaq	17808(%rsp), %rbx
LBB0_67:                                ## %ret.op3152
	movq	%rbx, 24368(%rsp)
	movq	(%rbx), %rdi
	movq	(%rdi), %rax
	callq	*168(%rax)
	testb	$1, %al
	je	LBB0_69
## %bb.68:                              ## %ret.rhs3247
	movl	$40, %edi
	callq	__Znwm
	movq	%rax, %rbx
	movsd	LCPI0_0(%rip), %xmm0    ## xmm0 = mem[0],zero
	movq	%rax, %rdi
	callq	__ZN14altered_carbon2js10ACJsNumberC1Ed
	movq	%rbx, 17800(%rsp)
	movl	$40, %edi
	callq	__Znwm
	movq	%rax, %rbx
	movsd	LCPI0_1(%rip), %xmm0    ## xmm0 = mem[0],zero
	movq	%rax, %rdi
	callq	__ZN14altered_carbon2js10ACJsNumberC1Ed
	movq	%rbx, 17792(%rsp)
	movl	$40, %edi
	callq	__Znwm
	movq	%rax, %rbx
	movsd	LCPI0_2(%rip), %xmm0    ## xmm0 = mem[0],zero
	movq	%rax, %rdi
	callq	__ZN14altered_carbon2js10ACJsNumberC1Ed
	movq	%rbx, 17784(%rsp)
	leaq	17792(%rsp), %rsi
	leaq	17784(%rsp), %rdx
	movl	$122, %edi
	callq	__ZN14altered_carbon2js8binaryOpEiRNSt3__18auto_ptrINS0_9ACJsValueEEES5_
	movq	%rax, 17776(%rsp)
	leaq	17800(%rsp), %rsi
	leaq	17776(%rsp), %rdx
	movl	$119, %edi
	callq	__ZN14altered_carbon2js8binaryOpEiRNSt3__18auto_ptrINS0_9ACJsValueEEES5_
	movq	%rax, 17768(%rsp)
	movl	$40, %edi
	callq	__Znwm
	movq	%rax, %rbx
	movsd	LCPI0_3(%rip), %xmm0    ## xmm0 = mem[0],zero
	movq	%rax, %rdi
	callq	__ZN14altered_carbon2js10ACJsNumberC1Ed
	movq	%rbx, 17760(%rsp)
	movl	$40, %edi
	callq	__Znwm
	movq	%rax, %rbx
	movsd	LCPI0_4(%rip), %xmm0    ## xmm0 = mem[0],zero
	movq	%rax, %rdi
	callq	__ZN14altered_carbon2js10ACJsNumberC1Ed
	movq	%rbx, 17752(%rsp)
	leaq	17760(%rsp), %rsi
	leaq	17752(%rsp), %rdx
	movl	$122, %edi
	callq	__ZN14altered_carbon2js8binaryOpEiRNSt3__18auto_ptrINS0_9ACJsValueEEES5_
	movq	%rax, 17744(%rsp)
	leaq	17768(%rsp), %rsi
	leaq	17744(%rsp), %rdx
	movl	$119, %edi
	callq	__ZN14altered_carbon2js8binaryOpEiRNSt3__18auto_ptrINS0_9ACJsValueEEES5_
	movq	%rax, 17736(%rsp)
	movl	$40, %edi
	callq	__Znwm
	movq	%rax, %rbx
	movsd	LCPI0_5(%rip), %xmm0    ## xmm0 = mem[0],zero
	movq	%rax, %rdi
	callq	__ZN14altered_carbon2js10ACJsNumberC1Ed
	movq	%rbx, 17728(%rsp)
	movl	$40, %edi
	callq	__Znwm
	movq	%rax, %rbx
	movsd	LCPI0_6(%rip), %xmm0    ## xmm0 = mem[0],zero
	movq	%rax, %rdi
	callq	__ZN14altered_carbon2js10ACJsNumberC1Ed
	movq	%rbx, 17720(%rsp)
	leaq	17728(%rsp), %rsi
	leaq	17720(%rsp), %rdx
	movl	$122, %edi
	callq	__ZN14altered_carbon2js8binaryOpEiRNSt3__18auto_ptrINS0_9ACJsValueEEES5_
	movq	%rax, 17712(%rsp)
	leaq	17736(%rsp), %rsi
	leaq	17712(%rsp), %rdx
	movl	$119, %edi
	callq	__ZN14altered_carbon2js8binaryOpEiRNSt3__18auto_ptrINS0_9ACJsValueEEES5_
	movq	%rax, 17704(%rsp)
	movl	$40, %edi
	callq	__Znwm
	movq	%rax, %rbx
	movsd	LCPI0_7(%rip), %xmm0    ## xmm0 = mem[0],zero
	movq	%rax, %rdi
	callq	__ZN14altered_carbon2js10ACJsNumberC1Ed
	movq	%rbx, 17696(%rsp)
	movl	$40, %edi
	callq	__Znwm
	movq	%rax, %rbx
	movsd	LCPI0_8(%rip), %xmm0    ## xmm0 = mem[0],zero
	movq	%rax, %rdi
	callq	__ZN14altered_carbon2js10ACJsNumberC1Ed
	movq	%rbx, 17688(%rsp)
	leaq	17696(%rsp), %rsi
	leaq	17688(%rsp), %rdx
	movl	$122, %edi
	callq	__ZN14altered_carbon2js8binaryOpEiRNSt3__18auto_ptrINS0_9ACJsValueEEES5_
	movq	%rax, 17680(%rsp)
	leaq	17704(%rsp), %rsi
	leaq	17680(%rsp), %rdx
	movl	$119, %edi
	callq	__ZN14altered_carbon2js8binaryOpEiRNSt3__18auto_ptrINS0_9ACJsValueEEES5_
	movq	%rax, 17672(%rsp)
	movl	$40, %edi
	callq	__Znwm
	movq	%rax, %rbx
	movsd	LCPI0_9(%rip), %xmm0    ## xmm0 = mem[0],zero
	movq	%rax, %rdi
	callq	__ZN14altered_carbon2js10ACJsNumberC1Ed
	movq	%rbx, 17664(%rsp)
	movl	$40, %edi
	callq	__Znwm
	movq	%rax, %rbx
	movsd	LCPI0_10(%rip), %xmm0   ## xmm0 = mem[0],zero
	movq	%rax, %rdi
	callq	__ZN14altered_carbon2js10ACJsNumberC1Ed
	movq	%rbx, 17656(%rsp)
	leaq	17664(%rsp), %rsi
	leaq	17656(%rsp), %rdx
	movl	$122, %edi
	callq	__ZN14altered_carbon2js8binaryOpEiRNSt3__18auto_ptrINS0_9ACJsValueEEES5_
	movq	%rax, 17648(%rsp)
	leaq	17672(%rsp), %rsi
	leaq	17648(%rsp), %rdx
	movl	$119, %edi
	callq	__ZN14altered_carbon2js8binaryOpEiRNSt3__18auto_ptrINS0_9ACJsValueEEES5_
	movq	%rax, 17640(%rsp)
	leaq	17640(%rsp), %rbx
LBB0_69:                                ## %ret.op3248
	movq	%rbx, 24360(%rsp)
	movq	(%rbx), %rdi
	movq	(%rdi), %rax
	callq	*168(%rax)
	testb	$1, %al
	je	LBB0_71
## %bb.70:                              ## %ret.rhs3343
	movl	$40, %edi
	callq	__Znwm
	movq	%rax, %rbx
	movsd	LCPI0_0(%rip), %xmm0    ## xmm0 = mem[0],zero
	movq	%rax, %rdi
	callq	__ZN14altered_carbon2js10ACJsNumberC1Ed
	movq	%rbx, 17632(%rsp)
	movl	$40, %edi
	callq	__Znwm
	movq	%rax, %rbx
	movsd	LCPI0_1(%rip), %xmm0    ## xmm0 = mem[0],zero
	movq	%rax, %rdi
	callq	__ZN14altered_carbon2js10ACJsNumberC1Ed
	movq	%rbx, 17624(%rsp)
	movl	$40, %edi
	callq	__Znwm
	movq	%rax, %rbx
	movsd	LCPI0_2(%rip), %xmm0    ## xmm0 = mem[0],zero
	movq	%rax, %rdi
	callq	__ZN14altered_carbon2js10ACJsNumberC1Ed
	movq	%rbx, 17616(%rsp)
	leaq	17624(%rsp), %rsi
	leaq	17616(%rsp), %rdx
	movl	$122, %edi
	callq	__ZN14altered_carbon2js8binaryOpEiRNSt3__18auto_ptrINS0_9ACJsValueEEES5_
	movq	%rax, 17608(%rsp)
	leaq	17632(%rsp), %rsi
	leaq	17608(%rsp), %rdx
	movl	$119, %edi
	callq	__ZN14altered_carbon2js8binaryOpEiRNSt3__18auto_ptrINS0_9ACJsValueEEES5_
	movq	%rax, 17600(%rsp)
	movl	$40, %edi
	callq	__Znwm
	movq	%rax, %rbx
	movsd	LCPI0_3(%rip), %xmm0    ## xmm0 = mem[0],zero
	movq	%rax, %rdi
	callq	__ZN14altered_carbon2js10ACJsNumberC1Ed
	movq	%rbx, 17592(%rsp)
	movl	$40, %edi
	callq	__Znwm
	movq	%rax, %rbx
	movsd	LCPI0_4(%rip), %xmm0    ## xmm0 = mem[0],zero
	movq	%rax, %rdi
	callq	__ZN14altered_carbon2js10ACJsNumberC1Ed
	movq	%rbx, 17584(%rsp)
	leaq	17592(%rsp), %rsi
	leaq	17584(%rsp), %rdx
	movl	$122, %edi
	callq	__ZN14altered_carbon2js8binaryOpEiRNSt3__18auto_ptrINS0_9ACJsValueEEES5_
	movq	%rax, 17576(%rsp)
	leaq	17600(%rsp), %rsi
	leaq	17576(%rsp), %rdx
	movl	$119, %edi
	callq	__ZN14altered_carbon2js8binaryOpEiRNSt3__18auto_ptrINS0_9ACJsValueEEES5_
	movq	%rax, 17568(%rsp)
	movl	$40, %edi
	callq	__Znwm
	movq	%rax, %rbx
	movsd	LCPI0_5(%rip), %xmm0    ## xmm0 = mem[0],zero
	movq	%rax, %rdi
	callq	__ZN14altered_carbon2js10ACJsNumberC1Ed
	movq	%rbx, 17560(%rsp)
	movl	$40, %edi
	callq	__Znwm
	movq	%rax, %rbx
	movsd	LCPI0_6(%rip), %xmm0    ## xmm0 = mem[0],zero
	movq	%rax, %rdi
	callq	__ZN14altered_carbon2js10ACJsNumberC1Ed
	movq	%rbx, 17552(%rsp)
	leaq	17560(%rsp), %rsi
	leaq	17552(%rsp), %rdx
	movl	$122, %edi
	callq	__ZN14altered_carbon2js8binaryOpEiRNSt3__18auto_ptrINS0_9ACJsValueEEES5_
	movq	%rax, 17544(%rsp)
	leaq	17568(%rsp), %rsi
	leaq	17544(%rsp), %rdx
	movl	$119, %edi
	callq	__ZN14altered_carbon2js8binaryOpEiRNSt3__18auto_ptrINS0_9ACJsValueEEES5_
	movq	%rax, 17536(%rsp)
	movl	$40, %edi
	callq	__Znwm
	movq	%rax, %rbx
	movsd	LCPI0_7(%rip), %xmm0    ## xmm0 = mem[0],zero
	movq	%rax, %rdi
	callq	__ZN14altered_carbon2js10ACJsNumberC1Ed
	movq	%rbx, 17528(%rsp)
	movl	$40, %edi
	callq	__Znwm
	movq	%rax, %rbx
	movsd	LCPI0_8(%rip), %xmm0    ## xmm0 = mem[0],zero
	movq	%rax, %rdi
	callq	__ZN14altered_carbon2js10ACJsNumberC1Ed
	movq	%rbx, 17520(%rsp)
	leaq	17528(%rsp), %rsi
	leaq	17520(%rsp), %rdx
	movl	$122, %edi
	callq	__ZN14altered_carbon2js8binaryOpEiRNSt3__18auto_ptrINS0_9ACJsValueEEES5_
	movq	%rax, 17512(%rsp)
	leaq	17536(%rsp), %rsi
	leaq	17512(%rsp), %rdx
	movl	$119, %edi
	callq	__ZN14altered_carbon2js8binaryOpEiRNSt3__18auto_ptrINS0_9ACJsValueEEES5_
	movq	%rax, 17504(%rsp)
	movl	$40, %edi
	callq	__Znwm
	movq	%rax, %rbx
	movsd	LCPI0_9(%rip), %xmm0    ## xmm0 = mem[0],zero
	movq	%rax, %rdi
	callq	__ZN14altered_carbon2js10ACJsNumberC1Ed
	movq	%rbx, 17496(%rsp)
	movl	$40, %edi
	callq	__Znwm
	movq	%rax, %rbx
	movsd	LCPI0_10(%rip), %xmm0   ## xmm0 = mem[0],zero
	movq	%rax, %rdi
	callq	__ZN14altered_carbon2js10ACJsNumberC1Ed
	movq	%rbx, 17488(%rsp)
	leaq	17496(%rsp), %rsi
	leaq	17488(%rsp), %rdx
	movl	$122, %edi
	callq	__ZN14altered_carbon2js8binaryOpEiRNSt3__18auto_ptrINS0_9ACJsValueEEES5_
	movq	%rax, 17480(%rsp)
	leaq	17504(%rsp), %rsi
	leaq	17480(%rsp), %rdx
	movl	$119, %edi
	callq	__ZN14altered_carbon2js8binaryOpEiRNSt3__18auto_ptrINS0_9ACJsValueEEES5_
	movq	%rax, 17472(%rsp)
	leaq	17472(%rsp), %rbx
LBB0_71:                                ## %ret.op3344
	movq	%rbx, 24352(%rsp)
	movq	(%rbx), %rdi
	movq	(%rdi), %rax
	callq	*168(%rax)
	testb	$1, %al
	je	LBB0_73
## %bb.72:                              ## %ret.rhs3439
	movl	$40, %edi
	callq	__Znwm
	movq	%rax, %rbx
	movsd	LCPI0_0(%rip), %xmm0    ## xmm0 = mem[0],zero
	movq	%rax, %rdi
	callq	__ZN14altered_carbon2js10ACJsNumberC1Ed
	movq	%rbx, 17464(%rsp)
	movl	$40, %edi
	callq	__Znwm
	movq	%rax, %rbx
	movsd	LCPI0_1(%rip), %xmm0    ## xmm0 = mem[0],zero
	movq	%rax, %rdi
	callq	__ZN14altered_carbon2js10ACJsNumberC1Ed
	movq	%rbx, 17456(%rsp)
	movl	$40, %edi
	callq	__Znwm
	movq	%rax, %rbx
	movsd	LCPI0_2(%rip), %xmm0    ## xmm0 = mem[0],zero
	movq	%rax, %rdi
	callq	__ZN14altered_carbon2js10ACJsNumberC1Ed
	movq	%rbx, 17448(%rsp)
	leaq	17456(%rsp), %rsi
	leaq	17448(%rsp), %rdx
	movl	$122, %edi
	callq	__ZN14altered_carbon2js8binaryOpEiRNSt3__18auto_ptrINS0_9ACJsValueEEES5_
	movq	%rax, 17440(%rsp)
	leaq	17464(%rsp), %rsi
	leaq	17440(%rsp), %rdx
	movl	$119, %edi
	callq	__ZN14altered_carbon2js8binaryOpEiRNSt3__18auto_ptrINS0_9ACJsValueEEES5_
	movq	%rax, 17432(%rsp)
	movl	$40, %edi
	callq	__Znwm
	movq	%rax, %rbx
	movsd	LCPI0_3(%rip), %xmm0    ## xmm0 = mem[0],zero
	movq	%rax, %rdi
	callq	__ZN14altered_carbon2js10ACJsNumberC1Ed
	movq	%rbx, 17424(%rsp)
	movl	$40, %edi
	callq	__Znwm
	movq	%rax, %rbx
	movsd	LCPI0_4(%rip), %xmm0    ## xmm0 = mem[0],zero
	movq	%rax, %rdi
	callq	__ZN14altered_carbon2js10ACJsNumberC1Ed
	movq	%rbx, 17416(%rsp)
	leaq	17424(%rsp), %rsi
	leaq	17416(%rsp), %rdx
	movl	$122, %edi
	callq	__ZN14altered_carbon2js8binaryOpEiRNSt3__18auto_ptrINS0_9ACJsValueEEES5_
	movq	%rax, 17408(%rsp)
	leaq	17432(%rsp), %rsi
	leaq	17408(%rsp), %rdx
	movl	$119, %edi
	callq	__ZN14altered_carbon2js8binaryOpEiRNSt3__18auto_ptrINS0_9ACJsValueEEES5_
	movq	%rax, 17400(%rsp)
	movl	$40, %edi
	callq	__Znwm
	movq	%rax, %rbx
	movsd	LCPI0_5(%rip), %xmm0    ## xmm0 = mem[0],zero
	movq	%rax, %rdi
	callq	__ZN14altered_carbon2js10ACJsNumberC1Ed
	movq	%rbx, 17392(%rsp)
	movl	$40, %edi
	callq	__Znwm
	movq	%rax, %rbx
	movsd	LCPI0_6(%rip), %xmm0    ## xmm0 = mem[0],zero
	movq	%rax, %rdi
	callq	__ZN14altered_carbon2js10ACJsNumberC1Ed
	movq	%rbx, 17384(%rsp)
	leaq	17392(%rsp), %rsi
	leaq	17384(%rsp), %rdx
	movl	$122, %edi
	callq	__ZN14altered_carbon2js8binaryOpEiRNSt3__18auto_ptrINS0_9ACJsValueEEES5_
	movq	%rax, 17376(%rsp)
	leaq	17400(%rsp), %rsi
	leaq	17376(%rsp), %rdx
	movl	$119, %edi
	callq	__ZN14altered_carbon2js8binaryOpEiRNSt3__18auto_ptrINS0_9ACJsValueEEES5_
	movq	%rax, 17368(%rsp)
	movl	$40, %edi
	callq	__Znwm
	movq	%rax, %rbx
	movsd	LCPI0_7(%rip), %xmm0    ## xmm0 = mem[0],zero
	movq	%rax, %rdi
	callq	__ZN14altered_carbon2js10ACJsNumberC1Ed
	movq	%rbx, 17360(%rsp)
	movl	$40, %edi
	callq	__Znwm
	movq	%rax, %rbx
	movsd	LCPI0_8(%rip), %xmm0    ## xmm0 = mem[0],zero
	movq	%rax, %rdi
	callq	__ZN14altered_carbon2js10ACJsNumberC1Ed
	movq	%rbx, 17352(%rsp)
	leaq	17360(%rsp), %rsi
	leaq	17352(%rsp), %rdx
	movl	$122, %edi
	callq	__ZN14altered_carbon2js8binaryOpEiRNSt3__18auto_ptrINS0_9ACJsValueEEES5_
	movq	%rax, 17344(%rsp)
	leaq	17368(%rsp), %rsi
	leaq	17344(%rsp), %rdx
	movl	$119, %edi
	callq	__ZN14altered_carbon2js8binaryOpEiRNSt3__18auto_ptrINS0_9ACJsValueEEES5_
	movq	%rax, 17336(%rsp)
	movl	$40, %edi
	callq	__Znwm
	movq	%rax, %rbx
	movsd	LCPI0_9(%rip), %xmm0    ## xmm0 = mem[0],zero
	movq	%rax, %rdi
	callq	__ZN14altered_carbon2js10ACJsNumberC1Ed
	movq	%rbx, 17328(%rsp)
	movl	$40, %edi
	callq	__Znwm
	movq	%rax, %rbx
	movsd	LCPI0_10(%rip), %xmm0   ## xmm0 = mem[0],zero
	movq	%rax, %rdi
	callq	__ZN14altered_carbon2js10ACJsNumberC1Ed
	movq	%rbx, 17320(%rsp)
	leaq	17328(%rsp), %rsi
	leaq	17320(%rsp), %rdx
	movl	$122, %edi
	callq	__ZN14altered_carbon2js8binaryOpEiRNSt3__18auto_ptrINS0_9ACJsValueEEES5_
	movq	%rax, 17312(%rsp)
	leaq	17336(%rsp), %rsi
	leaq	17312(%rsp), %rdx
	movl	$119, %edi
	callq	__ZN14altered_carbon2js8binaryOpEiRNSt3__18auto_ptrINS0_9ACJsValueEEES5_
	movq	%rax, 17304(%rsp)
	leaq	17304(%rsp), %rbx
LBB0_73:                                ## %ret.op3440
	movq	%rbx, 24344(%rsp)
	movq	(%rbx), %rdi
	movq	(%rdi), %rax
	callq	*168(%rax)
	testb	$1, %al
	je	LBB0_75
## %bb.74:                              ## %ret.rhs3535
	movl	$40, %edi
	callq	__Znwm
	movq	%rax, %rbx
	movsd	LCPI0_0(%rip), %xmm0    ## xmm0 = mem[0],zero
	movq	%rax, %rdi
	callq	__ZN14altered_carbon2js10ACJsNumberC1Ed
	movq	%rbx, 17296(%rsp)
	movl	$40, %edi
	callq	__Znwm
	movq	%rax, %rbx
	movsd	LCPI0_1(%rip), %xmm0    ## xmm0 = mem[0],zero
	movq	%rax, %rdi
	callq	__ZN14altered_carbon2js10ACJsNumberC1Ed
	movq	%rbx, 17288(%rsp)
	movl	$40, %edi
	callq	__Znwm
	movq	%rax, %rbx
	movsd	LCPI0_2(%rip), %xmm0    ## xmm0 = mem[0],zero
	movq	%rax, %rdi
	callq	__ZN14altered_carbon2js10ACJsNumberC1Ed
	movq	%rbx, 17280(%rsp)
	leaq	17288(%rsp), %rsi
	leaq	17280(%rsp), %rdx
	movl	$122, %edi
	callq	__ZN14altered_carbon2js8binaryOpEiRNSt3__18auto_ptrINS0_9ACJsValueEEES5_
	movq	%rax, 17272(%rsp)
	leaq	17296(%rsp), %rsi
	leaq	17272(%rsp), %rdx
	movl	$119, %edi
	callq	__ZN14altered_carbon2js8binaryOpEiRNSt3__18auto_ptrINS0_9ACJsValueEEES5_
	movq	%rax, 17264(%rsp)
	movl	$40, %edi
	callq	__Znwm
	movq	%rax, %rbx
	movsd	LCPI0_3(%rip), %xmm0    ## xmm0 = mem[0],zero
	movq	%rax, %rdi
	callq	__ZN14altered_carbon2js10ACJsNumberC1Ed
	movq	%rbx, 17256(%rsp)
	movl	$40, %edi
	callq	__Znwm
	movq	%rax, %rbx
	movsd	LCPI0_4(%rip), %xmm0    ## xmm0 = mem[0],zero
	movq	%rax, %rdi
	callq	__ZN14altered_carbon2js10ACJsNumberC1Ed
	movq	%rbx, 17248(%rsp)
	leaq	17256(%rsp), %rsi
	leaq	17248(%rsp), %rdx
	movl	$122, %edi
	callq	__ZN14altered_carbon2js8binaryOpEiRNSt3__18auto_ptrINS0_9ACJsValueEEES5_
	movq	%rax, 17240(%rsp)
	leaq	17264(%rsp), %rsi
	leaq	17240(%rsp), %rdx
	movl	$119, %edi
	callq	__ZN14altered_carbon2js8binaryOpEiRNSt3__18auto_ptrINS0_9ACJsValueEEES5_
	movq	%rax, 17232(%rsp)
	movl	$40, %edi
	callq	__Znwm
	movq	%rax, %rbx
	movsd	LCPI0_5(%rip), %xmm0    ## xmm0 = mem[0],zero
	movq	%rax, %rdi
	callq	__ZN14altered_carbon2js10ACJsNumberC1Ed
	movq	%rbx, 17224(%rsp)
	movl	$40, %edi
	callq	__Znwm
	movq	%rax, %rbx
	movsd	LCPI0_6(%rip), %xmm0    ## xmm0 = mem[0],zero
	movq	%rax, %rdi
	callq	__ZN14altered_carbon2js10ACJsNumberC1Ed
	movq	%rbx, 17216(%rsp)
	leaq	17224(%rsp), %rsi
	leaq	17216(%rsp), %rdx
	movl	$122, %edi
	callq	__ZN14altered_carbon2js8binaryOpEiRNSt3__18auto_ptrINS0_9ACJsValueEEES5_
	movq	%rax, 17208(%rsp)
	leaq	17232(%rsp), %rsi
	leaq	17208(%rsp), %rdx
	movl	$119, %edi
	callq	__ZN14altered_carbon2js8binaryOpEiRNSt3__18auto_ptrINS0_9ACJsValueEEES5_
	movq	%rax, 17200(%rsp)
	movl	$40, %edi
	callq	__Znwm
	movq	%rax, %rbx
	movsd	LCPI0_7(%rip), %xmm0    ## xmm0 = mem[0],zero
	movq	%rax, %rdi
	callq	__ZN14altered_carbon2js10ACJsNumberC1Ed
	movq	%rbx, 17192(%rsp)
	movl	$40, %edi
	callq	__Znwm
	movq	%rax, %rbx
	movsd	LCPI0_8(%rip), %xmm0    ## xmm0 = mem[0],zero
	movq	%rax, %rdi
	callq	__ZN14altered_carbon2js10ACJsNumberC1Ed
	movq	%rbx, 17184(%rsp)
	leaq	17192(%rsp), %rsi
	leaq	17184(%rsp), %rdx
	movl	$122, %edi
	callq	__ZN14altered_carbon2js8binaryOpEiRNSt3__18auto_ptrINS0_9ACJsValueEEES5_
	movq	%rax, 17176(%rsp)
	leaq	17200(%rsp), %rsi
	leaq	17176(%rsp), %rdx
	movl	$119, %edi
	callq	__ZN14altered_carbon2js8binaryOpEiRNSt3__18auto_ptrINS0_9ACJsValueEEES5_
	movq	%rax, 17168(%rsp)
	movl	$40, %edi
	callq	__Znwm
	movq	%rax, %rbx
	movsd	LCPI0_9(%rip), %xmm0    ## xmm0 = mem[0],zero
	movq	%rax, %rdi
	callq	__ZN14altered_carbon2js10ACJsNumberC1Ed
	movq	%rbx, 17160(%rsp)
	movl	$40, %edi
	callq	__Znwm
	movq	%rax, %rbx
	movsd	LCPI0_10(%rip), %xmm0   ## xmm0 = mem[0],zero
	movq	%rax, %rdi
	callq	__ZN14altered_carbon2js10ACJsNumberC1Ed
	movq	%rbx, 17152(%rsp)
	leaq	17160(%rsp), %rsi
	leaq	17152(%rsp), %rdx
	movl	$122, %edi
	callq	__ZN14altered_carbon2js8binaryOpEiRNSt3__18auto_ptrINS0_9ACJsValueEEES5_
	movq	%rax, 17144(%rsp)
	leaq	17168(%rsp), %rsi
	leaq	17144(%rsp), %rdx
	movl	$119, %edi
	callq	__ZN14altered_carbon2js8binaryOpEiRNSt3__18auto_ptrINS0_9ACJsValueEEES5_
	movq	%rax, 17136(%rsp)
	leaq	17136(%rsp), %rbx
LBB0_75:                                ## %ret.op3536
	movq	%rbx, 24336(%rsp)
	movq	(%rbx), %rdi
	movq	(%rdi), %rax
	callq	*168(%rax)
	testb	$1, %al
	je	LBB0_77
## %bb.76:                              ## %ret.rhs3631
	movl	$40, %edi
	callq	__Znwm
	movq	%rax, %rbx
	movsd	LCPI0_0(%rip), %xmm0    ## xmm0 = mem[0],zero
	movq	%rax, %rdi
	callq	__ZN14altered_carbon2js10ACJsNumberC1Ed
	movq	%rbx, 17128(%rsp)
	movl	$40, %edi
	callq	__Znwm
	movq	%rax, %rbx
	movsd	LCPI0_1(%rip), %xmm0    ## xmm0 = mem[0],zero
	movq	%rax, %rdi
	callq	__ZN14altered_carbon2js10ACJsNumberC1Ed
	movq	%rbx, 17120(%rsp)
	movl	$40, %edi
	callq	__Znwm
	movq	%rax, %rbx
	movsd	LCPI0_2(%rip), %xmm0    ## xmm0 = mem[0],zero
	movq	%rax, %rdi
	callq	__ZN14altered_carbon2js10ACJsNumberC1Ed
	movq	%rbx, 17112(%rsp)
	leaq	17120(%rsp), %rsi
	leaq	17112(%rsp), %rdx
	movl	$122, %edi
	callq	__ZN14altered_carbon2js8binaryOpEiRNSt3__18auto_ptrINS0_9ACJsValueEEES5_
	movq	%rax, 17104(%rsp)
	leaq	17128(%rsp), %rsi
	leaq	17104(%rsp), %rdx
	movl	$119, %edi
	callq	__ZN14altered_carbon2js8binaryOpEiRNSt3__18auto_ptrINS0_9ACJsValueEEES5_
	movq	%rax, 17096(%rsp)
	movl	$40, %edi
	callq	__Znwm
	movq	%rax, %rbx
	movsd	LCPI0_3(%rip), %xmm0    ## xmm0 = mem[0],zero
	movq	%rax, %rdi
	callq	__ZN14altered_carbon2js10ACJsNumberC1Ed
	movq	%rbx, 17088(%rsp)
	movl	$40, %edi
	callq	__Znwm
	movq	%rax, %rbx
	movsd	LCPI0_4(%rip), %xmm0    ## xmm0 = mem[0],zero
	movq	%rax, %rdi
	callq	__ZN14altered_carbon2js10ACJsNumberC1Ed
	movq	%rbx, 17080(%rsp)
	leaq	17088(%rsp), %rsi
	leaq	17080(%rsp), %rdx
	movl	$122, %edi
	callq	__ZN14altered_carbon2js8binaryOpEiRNSt3__18auto_ptrINS0_9ACJsValueEEES5_
	movq	%rax, 17072(%rsp)
	leaq	17096(%rsp), %rsi
	leaq	17072(%rsp), %rdx
	movl	$119, %edi
	callq	__ZN14altered_carbon2js8binaryOpEiRNSt3__18auto_ptrINS0_9ACJsValueEEES5_
	movq	%rax, 17064(%rsp)
	movl	$40, %edi
	callq	__Znwm
	movq	%rax, %rbx
	movsd	LCPI0_5(%rip), %xmm0    ## xmm0 = mem[0],zero
	movq	%rax, %rdi
	callq	__ZN14altered_carbon2js10ACJsNumberC1Ed
	movq	%rbx, 17056(%rsp)
	movl	$40, %edi
	callq	__Znwm
	movq	%rax, %rbx
	movsd	LCPI0_6(%rip), %xmm0    ## xmm0 = mem[0],zero
	movq	%rax, %rdi
	callq	__ZN14altered_carbon2js10ACJsNumberC1Ed
	movq	%rbx, 17048(%rsp)
	leaq	17056(%rsp), %rsi
	leaq	17048(%rsp), %rdx
	movl	$122, %edi
	callq	__ZN14altered_carbon2js8binaryOpEiRNSt3__18auto_ptrINS0_9ACJsValueEEES5_
	movq	%rax, 17040(%rsp)
	leaq	17064(%rsp), %rsi
	leaq	17040(%rsp), %rdx
	movl	$119, %edi
	callq	__ZN14altered_carbon2js8binaryOpEiRNSt3__18auto_ptrINS0_9ACJsValueEEES5_
	movq	%rax, 17032(%rsp)
	movl	$40, %edi
	callq	__Znwm
	movq	%rax, %rbx
	movsd	LCPI0_7(%rip), %xmm0    ## xmm0 = mem[0],zero
	movq	%rax, %rdi
	callq	__ZN14altered_carbon2js10ACJsNumberC1Ed
	movq	%rbx, 17024(%rsp)
	movl	$40, %edi
	callq	__Znwm
	movq	%rax, %rbx
	movsd	LCPI0_8(%rip), %xmm0    ## xmm0 = mem[0],zero
	movq	%rax, %rdi
	callq	__ZN14altered_carbon2js10ACJsNumberC1Ed
	movq	%rbx, 17016(%rsp)
	leaq	17024(%rsp), %rsi
	leaq	17016(%rsp), %rdx
	movl	$122, %edi
	callq	__ZN14altered_carbon2js8binaryOpEiRNSt3__18auto_ptrINS0_9ACJsValueEEES5_
	movq	%rax, 17008(%rsp)
	leaq	17032(%rsp), %rsi
	leaq	17008(%rsp), %rdx
	movl	$119, %edi
	callq	__ZN14altered_carbon2js8binaryOpEiRNSt3__18auto_ptrINS0_9ACJsValueEEES5_
	movq	%rax, 17000(%rsp)
	movl	$40, %edi
	callq	__Znwm
	movq	%rax, %rbx
	movsd	LCPI0_9(%rip), %xmm0    ## xmm0 = mem[0],zero
	movq	%rax, %rdi
	callq	__ZN14altered_carbon2js10ACJsNumberC1Ed
	movq	%rbx, 16992(%rsp)
	movl	$40, %edi
	callq	__Znwm
	movq	%rax, %rbx
	movsd	LCPI0_10(%rip), %xmm0   ## xmm0 = mem[0],zero
	movq	%rax, %rdi
	callq	__ZN14altered_carbon2js10ACJsNumberC1Ed
	movq	%rbx, 16984(%rsp)
	leaq	16992(%rsp), %rsi
	leaq	16984(%rsp), %rdx
	movl	$122, %edi
	callq	__ZN14altered_carbon2js8binaryOpEiRNSt3__18auto_ptrINS0_9ACJsValueEEES5_
	movq	%rax, 16976(%rsp)
	leaq	17000(%rsp), %rsi
	leaq	16976(%rsp), %rdx
	movl	$119, %edi
	callq	__ZN14altered_carbon2js8binaryOpEiRNSt3__18auto_ptrINS0_9ACJsValueEEES5_
	movq	%rax, 16968(%rsp)
	leaq	16968(%rsp), %rbx
LBB0_77:                                ## %ret.op3632
	movq	%rbx, 24328(%rsp)
	movq	(%rbx), %rdi
	movq	(%rdi), %rax
	callq	*168(%rax)
	testb	$1, %al
	je	LBB0_79
## %bb.78:                              ## %ret.rhs3727
	movl	$40, %edi
	callq	__Znwm
	movq	%rax, %rbx
	movsd	LCPI0_0(%rip), %xmm0    ## xmm0 = mem[0],zero
	movq	%rax, %rdi
	callq	__ZN14altered_carbon2js10ACJsNumberC1Ed
	movq	%rbx, 16960(%rsp)
	movl	$40, %edi
	callq	__Znwm
	movq	%rax, %rbx
	movsd	LCPI0_1(%rip), %xmm0    ## xmm0 = mem[0],zero
	movq	%rax, %rdi
	callq	__ZN14altered_carbon2js10ACJsNumberC1Ed
	movq	%rbx, 16952(%rsp)
	movl	$40, %edi
	callq	__Znwm
	movq	%rax, %rbx
	movsd	LCPI0_2(%rip), %xmm0    ## xmm0 = mem[0],zero
	movq	%rax, %rdi
	callq	__ZN14altered_carbon2js10ACJsNumberC1Ed
	movq	%rbx, 16944(%rsp)
	leaq	16952(%rsp), %rsi
	leaq	16944(%rsp), %rdx
	movl	$122, %edi
	callq	__ZN14altered_carbon2js8binaryOpEiRNSt3__18auto_ptrINS0_9ACJsValueEEES5_
	movq	%rax, 16936(%rsp)
	leaq	16960(%rsp), %rsi
	leaq	16936(%rsp), %rdx
	movl	$119, %edi
	callq	__ZN14altered_carbon2js8binaryOpEiRNSt3__18auto_ptrINS0_9ACJsValueEEES5_
	movq	%rax, 16928(%rsp)
	movl	$40, %edi
	callq	__Znwm
	movq	%rax, %rbx
	movsd	LCPI0_3(%rip), %xmm0    ## xmm0 = mem[0],zero
	movq	%rax, %rdi
	callq	__ZN14altered_carbon2js10ACJsNumberC1Ed
	movq	%rbx, 16920(%rsp)
	movl	$40, %edi
	callq	__Znwm
	movq	%rax, %rbx
	movsd	LCPI0_4(%rip), %xmm0    ## xmm0 = mem[0],zero
	movq	%rax, %rdi
	callq	__ZN14altered_carbon2js10ACJsNumberC1Ed
	movq	%rbx, 16912(%rsp)
	leaq	16920(%rsp), %rsi
	leaq	16912(%rsp), %rdx
	movl	$122, %edi
	callq	__ZN14altered_carbon2js8binaryOpEiRNSt3__18auto_ptrINS0_9ACJsValueEEES5_
	movq	%rax, 16904(%rsp)
	leaq	16928(%rsp), %rsi
	leaq	16904(%rsp), %rdx
	movl	$119, %edi
	callq	__ZN14altered_carbon2js8binaryOpEiRNSt3__18auto_ptrINS0_9ACJsValueEEES5_
	movq	%rax, 16896(%rsp)
	movl	$40, %edi
	callq	__Znwm
	movq	%rax, %rbx
	movsd	LCPI0_5(%rip), %xmm0    ## xmm0 = mem[0],zero
	movq	%rax, %rdi
	callq	__ZN14altered_carbon2js10ACJsNumberC1Ed
	movq	%rbx, 16888(%rsp)
	movl	$40, %edi
	callq	__Znwm
	movq	%rax, %rbx
	movsd	LCPI0_6(%rip), %xmm0    ## xmm0 = mem[0],zero
	movq	%rax, %rdi
	callq	__ZN14altered_carbon2js10ACJsNumberC1Ed
	movq	%rbx, 16880(%rsp)
	leaq	16888(%rsp), %rsi
	leaq	16880(%rsp), %rdx
	movl	$122, %edi
	callq	__ZN14altered_carbon2js8binaryOpEiRNSt3__18auto_ptrINS0_9ACJsValueEEES5_
	movq	%rax, 16872(%rsp)
	leaq	16896(%rsp), %rsi
	leaq	16872(%rsp), %rdx
	movl	$119, %edi
	callq	__ZN14altered_carbon2js8binaryOpEiRNSt3__18auto_ptrINS0_9ACJsValueEEES5_
	movq	%rax, 16864(%rsp)
	movl	$40, %edi
	callq	__Znwm
	movq	%rax, %rbx
	movsd	LCPI0_7(%rip), %xmm0    ## xmm0 = mem[0],zero
	movq	%rax, %rdi
	callq	__ZN14altered_carbon2js10ACJsNumberC1Ed
	movq	%rbx, 16856(%rsp)
	movl	$40, %edi
	callq	__Znwm
	movq	%rax, %rbx
	movsd	LCPI0_8(%rip), %xmm0    ## xmm0 = mem[0],zero
	movq	%rax, %rdi
	callq	__ZN14altered_carbon2js10ACJsNumberC1Ed
	movq	%rbx, 16848(%rsp)
	leaq	16856(%rsp), %rsi
	leaq	16848(%rsp), %rdx
	movl	$122, %edi
	callq	__ZN14altered_carbon2js8binaryOpEiRNSt3__18auto_ptrINS0_9ACJsValueEEES5_
	movq	%rax, 16840(%rsp)
	leaq	16864(%rsp), %rsi
	leaq	16840(%rsp), %rdx
	movl	$119, %edi
	callq	__ZN14altered_carbon2js8binaryOpEiRNSt3__18auto_ptrINS0_9ACJsValueEEES5_
	movq	%rax, 16832(%rsp)
	movl	$40, %edi
	callq	__Znwm
	movq	%rax, %rbx
	movsd	LCPI0_9(%rip), %xmm0    ## xmm0 = mem[0],zero
	movq	%rax, %rdi
	callq	__ZN14altered_carbon2js10ACJsNumberC1Ed
	movq	%rbx, 16824(%rsp)
	movl	$40, %edi
	callq	__Znwm
	movq	%rax, %rbx
	movsd	LCPI0_10(%rip), %xmm0   ## xmm0 = mem[0],zero
	movq	%rax, %rdi
	callq	__ZN14altered_carbon2js10ACJsNumberC1Ed
	movq	%rbx, 16816(%rsp)
	leaq	16824(%rsp), %rsi
	leaq	16816(%rsp), %rdx
	movl	$122, %edi
	callq	__ZN14altered_carbon2js8binaryOpEiRNSt3__18auto_ptrINS0_9ACJsValueEEES5_
	movq	%rax, 16808(%rsp)
	leaq	16832(%rsp), %rsi
	leaq	16808(%rsp), %rdx
	movl	$119, %edi
	callq	__ZN14altered_carbon2js8binaryOpEiRNSt3__18auto_ptrINS0_9ACJsValueEEES5_
	movq	%rax, 16800(%rsp)
	leaq	16800(%rsp), %rbx
LBB0_79:                                ## %ret.op3728
	movq	%rbx, 24320(%rsp)
	movq	(%rbx), %rdi
	movq	(%rdi), %rax
	callq	*168(%rax)
	testb	$1, %al
	je	LBB0_81
## %bb.80:                              ## %ret.rhs3823
	movl	$40, %edi
	callq	__Znwm
	movq	%rax, %rbx
	movsd	LCPI0_0(%rip), %xmm0    ## xmm0 = mem[0],zero
	movq	%rax, %rdi
	callq	__ZN14altered_carbon2js10ACJsNumberC1Ed
	movq	%rbx, 16792(%rsp)
	movl	$40, %edi
	callq	__Znwm
	movq	%rax, %rbx
	movsd	LCPI0_1(%rip), %xmm0    ## xmm0 = mem[0],zero
	movq	%rax, %rdi
	callq	__ZN14altered_carbon2js10ACJsNumberC1Ed
	movq	%rbx, 16784(%rsp)
	movl	$40, %edi
	callq	__Znwm
	movq	%rax, %rbx
	movsd	LCPI0_2(%rip), %xmm0    ## xmm0 = mem[0],zero
	movq	%rax, %rdi
	callq	__ZN14altered_carbon2js10ACJsNumberC1Ed
	movq	%rbx, 16776(%rsp)
	leaq	16784(%rsp), %rsi
	leaq	16776(%rsp), %rdx
	movl	$122, %edi
	callq	__ZN14altered_carbon2js8binaryOpEiRNSt3__18auto_ptrINS0_9ACJsValueEEES5_
	movq	%rax, 16768(%rsp)
	leaq	16792(%rsp), %rsi
	leaq	16768(%rsp), %rdx
	movl	$119, %edi
	callq	__ZN14altered_carbon2js8binaryOpEiRNSt3__18auto_ptrINS0_9ACJsValueEEES5_
	movq	%rax, 16760(%rsp)
	movl	$40, %edi
	callq	__Znwm
	movq	%rax, %rbx
	movsd	LCPI0_3(%rip), %xmm0    ## xmm0 = mem[0],zero
	movq	%rax, %rdi
	callq	__ZN14altered_carbon2js10ACJsNumberC1Ed
	movq	%rbx, 16752(%rsp)
	movl	$40, %edi
	callq	__Znwm
	movq	%rax, %rbx
	movsd	LCPI0_4(%rip), %xmm0    ## xmm0 = mem[0],zero
	movq	%rax, %rdi
	callq	__ZN14altered_carbon2js10ACJsNumberC1Ed
	movq	%rbx, 16744(%rsp)
	leaq	16752(%rsp), %rsi
	leaq	16744(%rsp), %rdx
	movl	$122, %edi
	callq	__ZN14altered_carbon2js8binaryOpEiRNSt3__18auto_ptrINS0_9ACJsValueEEES5_
	movq	%rax, 16736(%rsp)
	leaq	16760(%rsp), %rsi
	leaq	16736(%rsp), %rdx
	movl	$119, %edi
	callq	__ZN14altered_carbon2js8binaryOpEiRNSt3__18auto_ptrINS0_9ACJsValueEEES5_
	movq	%rax, 16728(%rsp)
	movl	$40, %edi
	callq	__Znwm
	movq	%rax, %rbx
	movsd	LCPI0_5(%rip), %xmm0    ## xmm0 = mem[0],zero
	movq	%rax, %rdi
	callq	__ZN14altered_carbon2js10ACJsNumberC1Ed
	movq	%rbx, 16720(%rsp)
	movl	$40, %edi
	callq	__Znwm
	movq	%rax, %rbx
	movsd	LCPI0_6(%rip), %xmm0    ## xmm0 = mem[0],zero
	movq	%rax, %rdi
	callq	__ZN14altered_carbon2js10ACJsNumberC1Ed
	movq	%rbx, 16712(%rsp)
	leaq	16720(%rsp), %rsi
	leaq	16712(%rsp), %rdx
	movl	$122, %edi
	callq	__ZN14altered_carbon2js8binaryOpEiRNSt3__18auto_ptrINS0_9ACJsValueEEES5_
	movq	%rax, 16704(%rsp)
	leaq	16728(%rsp), %rsi
	leaq	16704(%rsp), %rdx
	movl	$119, %edi
	callq	__ZN14altered_carbon2js8binaryOpEiRNSt3__18auto_ptrINS0_9ACJsValueEEES5_
	movq	%rax, 16696(%rsp)
	movl	$40, %edi
	callq	__Znwm
	movq	%rax, %rbx
	movsd	LCPI0_7(%rip), %xmm0    ## xmm0 = mem[0],zero
	movq	%rax, %rdi
	callq	__ZN14altered_carbon2js10ACJsNumberC1Ed
	movq	%rbx, 16688(%rsp)
	movl	$40, %edi
	callq	__Znwm
	movq	%rax, %rbx
	movsd	LCPI0_8(%rip), %xmm0    ## xmm0 = mem[0],zero
	movq	%rax, %rdi
	callq	__ZN14altered_carbon2js10ACJsNumberC1Ed
	movq	%rbx, 16680(%rsp)
	leaq	16688(%rsp), %rsi
	leaq	16680(%rsp), %rdx
	movl	$122, %edi
	callq	__ZN14altered_carbon2js8binaryOpEiRNSt3__18auto_ptrINS0_9ACJsValueEEES5_
	movq	%rax, 16672(%rsp)
	leaq	16696(%rsp), %rsi
	leaq	16672(%rsp), %rdx
	movl	$119, %edi
	callq	__ZN14altered_carbon2js8binaryOpEiRNSt3__18auto_ptrINS0_9ACJsValueEEES5_
	movq	%rax, 16664(%rsp)
	movl	$40, %edi
	callq	__Znwm
	movq	%rax, %rbx
	movsd	LCPI0_9(%rip), %xmm0    ## xmm0 = mem[0],zero
	movq	%rax, %rdi
	callq	__ZN14altered_carbon2js10ACJsNumberC1Ed
	movq	%rbx, 16656(%rsp)
	movl	$40, %edi
	callq	__Znwm
	movq	%rax, %rbx
	movsd	LCPI0_10(%rip), %xmm0   ## xmm0 = mem[0],zero
	movq	%rax, %rdi
	callq	__ZN14altered_carbon2js10ACJsNumberC1Ed
	movq	%rbx, 16648(%rsp)
	leaq	16656(%rsp), %rsi
	leaq	16648(%rsp), %rdx
	movl	$122, %edi
	callq	__ZN14altered_carbon2js8binaryOpEiRNSt3__18auto_ptrINS0_9ACJsValueEEES5_
	movq	%rax, 16640(%rsp)
	leaq	16664(%rsp), %rsi
	leaq	16640(%rsp), %rdx
	movl	$119, %edi
	callq	__ZN14altered_carbon2js8binaryOpEiRNSt3__18auto_ptrINS0_9ACJsValueEEES5_
	movq	%rax, 16632(%rsp)
	leaq	16632(%rsp), %rbx
LBB0_81:                                ## %ret.op3824
	movq	%rbx, 24312(%rsp)
	movq	(%rbx), %rdi
	movq	(%rdi), %rax
	callq	*168(%rax)
	testb	$1, %al
	je	LBB0_83
## %bb.82:                              ## %ret.rhs3919
	movl	$40, %edi
	callq	__Znwm
	movq	%rax, %rbx
	movsd	LCPI0_0(%rip), %xmm0    ## xmm0 = mem[0],zero
	movq	%rax, %rdi
	callq	__ZN14altered_carbon2js10ACJsNumberC1Ed
	movq	%rbx, 16624(%rsp)
	movl	$40, %edi
	callq	__Znwm
	movq	%rax, %rbx
	movsd	LCPI0_1(%rip), %xmm0    ## xmm0 = mem[0],zero
	movq	%rax, %rdi
	callq	__ZN14altered_carbon2js10ACJsNumberC1Ed
	movq	%rbx, 16616(%rsp)
	movl	$40, %edi
	callq	__Znwm
	movq	%rax, %rbx
	movsd	LCPI0_2(%rip), %xmm0    ## xmm0 = mem[0],zero
	movq	%rax, %rdi
	callq	__ZN14altered_carbon2js10ACJsNumberC1Ed
	movq	%rbx, 16608(%rsp)
	leaq	16616(%rsp), %rsi
	leaq	16608(%rsp), %rdx
	movl	$122, %edi
	callq	__ZN14altered_carbon2js8binaryOpEiRNSt3__18auto_ptrINS0_9ACJsValueEEES5_
	movq	%rax, 16600(%rsp)
	leaq	16624(%rsp), %rsi
	leaq	16600(%rsp), %rdx
	movl	$119, %edi
	callq	__ZN14altered_carbon2js8binaryOpEiRNSt3__18auto_ptrINS0_9ACJsValueEEES5_
	movq	%rax, 16592(%rsp)
	movl	$40, %edi
	callq	__Znwm
	movq	%rax, %rbx
	movsd	LCPI0_3(%rip), %xmm0    ## xmm0 = mem[0],zero
	movq	%rax, %rdi
	callq	__ZN14altered_carbon2js10ACJsNumberC1Ed
	movq	%rbx, 16584(%rsp)
	movl	$40, %edi
	callq	__Znwm
	movq	%rax, %rbx
	movsd	LCPI0_4(%rip), %xmm0    ## xmm0 = mem[0],zero
	movq	%rax, %rdi
	callq	__ZN14altered_carbon2js10ACJsNumberC1Ed
	movq	%rbx, 16576(%rsp)
	leaq	16584(%rsp), %rsi
	leaq	16576(%rsp), %rdx
	movl	$122, %edi
	callq	__ZN14altered_carbon2js8binaryOpEiRNSt3__18auto_ptrINS0_9ACJsValueEEES5_
	movq	%rax, 16568(%rsp)
	leaq	16592(%rsp), %rsi
	leaq	16568(%rsp), %rdx
	movl	$119, %edi
	callq	__ZN14altered_carbon2js8binaryOpEiRNSt3__18auto_ptrINS0_9ACJsValueEEES5_
	movq	%rax, 16560(%rsp)
	movl	$40, %edi
	callq	__Znwm
	movq	%rax, %rbx
	movsd	LCPI0_5(%rip), %xmm0    ## xmm0 = mem[0],zero
	movq	%rax, %rdi
	callq	__ZN14altered_carbon2js10ACJsNumberC1Ed
	movq	%rbx, 16552(%rsp)
	movl	$40, %edi
	callq	__Znwm
	movq	%rax, %rbx
	movsd	LCPI0_6(%rip), %xmm0    ## xmm0 = mem[0],zero
	movq	%rax, %rdi
	callq	__ZN14altered_carbon2js10ACJsNumberC1Ed
	movq	%rbx, 16544(%rsp)
	leaq	16552(%rsp), %rsi
	leaq	16544(%rsp), %rdx
	movl	$122, %edi
	callq	__ZN14altered_carbon2js8binaryOpEiRNSt3__18auto_ptrINS0_9ACJsValueEEES5_
	movq	%rax, 16536(%rsp)
	leaq	16560(%rsp), %rsi
	leaq	16536(%rsp), %rdx
	movl	$119, %edi
	callq	__ZN14altered_carbon2js8binaryOpEiRNSt3__18auto_ptrINS0_9ACJsValueEEES5_
	movq	%rax, 16528(%rsp)
	movl	$40, %edi
	callq	__Znwm
	movq	%rax, %rbx
	movsd	LCPI0_7(%rip), %xmm0    ## xmm0 = mem[0],zero
	movq	%rax, %rdi
	callq	__ZN14altered_carbon2js10ACJsNumberC1Ed
	movq	%rbx, 16520(%rsp)
	movl	$40, %edi
	callq	__Znwm
	movq	%rax, %rbx
	movsd	LCPI0_8(%rip), %xmm0    ## xmm0 = mem[0],zero
	movq	%rax, %rdi
	callq	__ZN14altered_carbon2js10ACJsNumberC1Ed
	movq	%rbx, 16512(%rsp)
	leaq	16520(%rsp), %rsi
	leaq	16512(%rsp), %rdx
	movl	$122, %edi
	callq	__ZN14altered_carbon2js8binaryOpEiRNSt3__18auto_ptrINS0_9ACJsValueEEES5_
	movq	%rax, 16504(%rsp)
	leaq	16528(%rsp), %rsi
	leaq	16504(%rsp), %rdx
	movl	$119, %edi
	callq	__ZN14altered_carbon2js8binaryOpEiRNSt3__18auto_ptrINS0_9ACJsValueEEES5_
	movq	%rax, 16496(%rsp)
	movl	$40, %edi
	callq	__Znwm
	movq	%rax, %rbx
	movsd	LCPI0_9(%rip), %xmm0    ## xmm0 = mem[0],zero
	movq	%rax, %rdi
	callq	__ZN14altered_carbon2js10ACJsNumberC1Ed
	movq	%rbx, 16488(%rsp)
	movl	$40, %edi
	callq	__Znwm
	movq	%rax, %rbx
	movsd	LCPI0_10(%rip), %xmm0   ## xmm0 = mem[0],zero
	movq	%rax, %rdi
	callq	__ZN14altered_carbon2js10ACJsNumberC1Ed
	movq	%rbx, 16480(%rsp)
	leaq	16488(%rsp), %rsi
	leaq	16480(%rsp), %rdx
	movl	$122, %edi
	callq	__ZN14altered_carbon2js8binaryOpEiRNSt3__18auto_ptrINS0_9ACJsValueEEES5_
	movq	%rax, 16472(%rsp)
	leaq	16496(%rsp), %rsi
	leaq	16472(%rsp), %rdx
	movl	$119, %edi
	callq	__ZN14altered_carbon2js8binaryOpEiRNSt3__18auto_ptrINS0_9ACJsValueEEES5_
	movq	%rax, 16464(%rsp)
	leaq	16464(%rsp), %rbx
LBB0_83:                                ## %ret.op3920
	movq	%rbx, 24304(%rsp)
	movq	(%rbx), %rdi
	movq	(%rdi), %rax
	callq	*168(%rax)
	testb	$1, %al
	je	LBB0_85
## %bb.84:                              ## %ret.rhs4015
	movl	$40, %edi
	callq	__Znwm
	movq	%rax, %rbx
	movsd	LCPI0_0(%rip), %xmm0    ## xmm0 = mem[0],zero
	movq	%rax, %rdi
	callq	__ZN14altered_carbon2js10ACJsNumberC1Ed
	movq	%rbx, 16456(%rsp)
	movl	$40, %edi
	callq	__Znwm
	movq	%rax, %rbx
	movsd	LCPI0_1(%rip), %xmm0    ## xmm0 = mem[0],zero
	movq	%rax, %rdi
	callq	__ZN14altered_carbon2js10ACJsNumberC1Ed
	movq	%rbx, 16448(%rsp)
	movl	$40, %edi
	callq	__Znwm
	movq	%rax, %rbx
	movsd	LCPI0_2(%rip), %xmm0    ## xmm0 = mem[0],zero
	movq	%rax, %rdi
	callq	__ZN14altered_carbon2js10ACJsNumberC1Ed
	movq	%rbx, 16440(%rsp)
	leaq	16448(%rsp), %rsi
	leaq	16440(%rsp), %rdx
	movl	$122, %edi
	callq	__ZN14altered_carbon2js8binaryOpEiRNSt3__18auto_ptrINS0_9ACJsValueEEES5_
	movq	%rax, 16432(%rsp)
	leaq	16456(%rsp), %rsi
	leaq	16432(%rsp), %rdx
	movl	$119, %edi
	callq	__ZN14altered_carbon2js8binaryOpEiRNSt3__18auto_ptrINS0_9ACJsValueEEES5_
	movq	%rax, 16424(%rsp)
	movl	$40, %edi
	callq	__Znwm
	movq	%rax, %rbx
	movsd	LCPI0_3(%rip), %xmm0    ## xmm0 = mem[0],zero
	movq	%rax, %rdi
	callq	__ZN14altered_carbon2js10ACJsNumberC1Ed
	movq	%rbx, 16416(%rsp)
	movl	$40, %edi
	callq	__Znwm
	movq	%rax, %rbx
	movsd	LCPI0_4(%rip), %xmm0    ## xmm0 = mem[0],zero
	movq	%rax, %rdi
	callq	__ZN14altered_carbon2js10ACJsNumberC1Ed
	movq	%rbx, 16408(%rsp)
	leaq	16416(%rsp), %rsi
	leaq	16408(%rsp), %rdx
	movl	$122, %edi
	callq	__ZN14altered_carbon2js8binaryOpEiRNSt3__18auto_ptrINS0_9ACJsValueEEES5_
	movq	%rax, 16400(%rsp)
	leaq	16424(%rsp), %rsi
	leaq	16400(%rsp), %rdx
	movl	$119, %edi
	callq	__ZN14altered_carbon2js8binaryOpEiRNSt3__18auto_ptrINS0_9ACJsValueEEES5_
	movq	%rax, 16392(%rsp)
	movl	$40, %edi
	callq	__Znwm
	movq	%rax, %rbx
	movsd	LCPI0_5(%rip), %xmm0    ## xmm0 = mem[0],zero
	movq	%rax, %rdi
	callq	__ZN14altered_carbon2js10ACJsNumberC1Ed
	movq	%rbx, 16384(%rsp)
	movl	$40, %edi
	callq	__Znwm
	movq	%rax, %rbx
	movsd	LCPI0_6(%rip), %xmm0    ## xmm0 = mem[0],zero
	movq	%rax, %rdi
	callq	__ZN14altered_carbon2js10ACJsNumberC1Ed
	movq	%rbx, 16376(%rsp)
	leaq	16384(%rsp), %rsi
	leaq	16376(%rsp), %rdx
	movl	$122, %edi
	callq	__ZN14altered_carbon2js8binaryOpEiRNSt3__18auto_ptrINS0_9ACJsValueEEES5_
	movq	%rax, 16368(%rsp)
	leaq	16392(%rsp), %rsi
	leaq	16368(%rsp), %rdx
	movl	$119, %edi
	callq	__ZN14altered_carbon2js8binaryOpEiRNSt3__18auto_ptrINS0_9ACJsValueEEES5_
	movq	%rax, 16360(%rsp)
	movl	$40, %edi
	callq	__Znwm
	movq	%rax, %rbx
	movsd	LCPI0_7(%rip), %xmm0    ## xmm0 = mem[0],zero
	movq	%rax, %rdi
	callq	__ZN14altered_carbon2js10ACJsNumberC1Ed
	movq	%rbx, 16352(%rsp)
	movl	$40, %edi
	callq	__Znwm
	movq	%rax, %rbx
	movsd	LCPI0_8(%rip), %xmm0    ## xmm0 = mem[0],zero
	movq	%rax, %rdi
	callq	__ZN14altered_carbon2js10ACJsNumberC1Ed
	movq	%rbx, 16344(%rsp)
	leaq	16352(%rsp), %rsi
	leaq	16344(%rsp), %rdx
	movl	$122, %edi
	callq	__ZN14altered_carbon2js8binaryOpEiRNSt3__18auto_ptrINS0_9ACJsValueEEES5_
	movq	%rax, 16336(%rsp)
	leaq	16360(%rsp), %rsi
	leaq	16336(%rsp), %rdx
	movl	$119, %edi
	callq	__ZN14altered_carbon2js8binaryOpEiRNSt3__18auto_ptrINS0_9ACJsValueEEES5_
	movq	%rax, 16328(%rsp)
	movl	$40, %edi
	callq	__Znwm
	movq	%rax, %rbx
	movsd	LCPI0_9(%rip), %xmm0    ## xmm0 = mem[0],zero
	movq	%rax, %rdi
	callq	__ZN14altered_carbon2js10ACJsNumberC1Ed
	movq	%rbx, 16320(%rsp)
	movl	$40, %edi
	callq	__Znwm
	movq	%rax, %rbx
	movsd	LCPI0_10(%rip), %xmm0   ## xmm0 = mem[0],zero
	movq	%rax, %rdi
	callq	__ZN14altered_carbon2js10ACJsNumberC1Ed
	movq	%rbx, 16312(%rsp)
	leaq	16320(%rsp), %rsi
	leaq	16312(%rsp), %rdx
	movl	$122, %edi
	callq	__ZN14altered_carbon2js8binaryOpEiRNSt3__18auto_ptrINS0_9ACJsValueEEES5_
	movq	%rax, 16304(%rsp)
	leaq	16328(%rsp), %rsi
	leaq	16304(%rsp), %rdx
	movl	$119, %edi
	callq	__ZN14altered_carbon2js8binaryOpEiRNSt3__18auto_ptrINS0_9ACJsValueEEES5_
	movq	%rax, 16296(%rsp)
	leaq	16296(%rsp), %rbx
LBB0_85:                                ## %ret.op4016
	movq	%rbx, 24296(%rsp)
	movq	(%rbx), %rdi
	movq	(%rdi), %rax
	callq	*168(%rax)
	testb	$1, %al
	je	LBB0_87
## %bb.86:                              ## %ret.rhs4111
	movl	$40, %edi
	callq	__Znwm
	movq	%rax, %rbx
	movsd	LCPI0_0(%rip), %xmm0    ## xmm0 = mem[0],zero
	movq	%rax, %rdi
	callq	__ZN14altered_carbon2js10ACJsNumberC1Ed
	movq	%rbx, 16288(%rsp)
	movl	$40, %edi
	callq	__Znwm
	movq	%rax, %rbx
	movsd	LCPI0_1(%rip), %xmm0    ## xmm0 = mem[0],zero
	movq	%rax, %rdi
	callq	__ZN14altered_carbon2js10ACJsNumberC1Ed
	movq	%rbx, 16280(%rsp)
	movl	$40, %edi
	callq	__Znwm
	movq	%rax, %rbx
	movsd	LCPI0_2(%rip), %xmm0    ## xmm0 = mem[0],zero
	movq	%rax, %rdi
	callq	__ZN14altered_carbon2js10ACJsNumberC1Ed
	movq	%rbx, 16272(%rsp)
	leaq	16280(%rsp), %rsi
	leaq	16272(%rsp), %rdx
	movl	$122, %edi
	callq	__ZN14altered_carbon2js8binaryOpEiRNSt3__18auto_ptrINS0_9ACJsValueEEES5_
	movq	%rax, 16264(%rsp)
	leaq	16288(%rsp), %rsi
	leaq	16264(%rsp), %rdx
	movl	$119, %edi
	callq	__ZN14altered_carbon2js8binaryOpEiRNSt3__18auto_ptrINS0_9ACJsValueEEES5_
	movq	%rax, 16256(%rsp)
	movl	$40, %edi
	callq	__Znwm
	movq	%rax, %rbx
	movsd	LCPI0_3(%rip), %xmm0    ## xmm0 = mem[0],zero
	movq	%rax, %rdi
	callq	__ZN14altered_carbon2js10ACJsNumberC1Ed
	movq	%rbx, 16248(%rsp)
	movl	$40, %edi
	callq	__Znwm
	movq	%rax, %rbx
	movsd	LCPI0_4(%rip), %xmm0    ## xmm0 = mem[0],zero
	movq	%rax, %rdi
	callq	__ZN14altered_carbon2js10ACJsNumberC1Ed
	movq	%rbx, 16240(%rsp)
	leaq	16248(%rsp), %rsi
	leaq	16240(%rsp), %rdx
	movl	$122, %edi
	callq	__ZN14altered_carbon2js8binaryOpEiRNSt3__18auto_ptrINS0_9ACJsValueEEES5_
	movq	%rax, 16232(%rsp)
	leaq	16256(%rsp), %rsi
	leaq	16232(%rsp), %rdx
	movl	$119, %edi
	callq	__ZN14altered_carbon2js8binaryOpEiRNSt3__18auto_ptrINS0_9ACJsValueEEES5_
	movq	%rax, 16224(%rsp)
	movl	$40, %edi
	callq	__Znwm
	movq	%rax, %rbx
	movsd	LCPI0_5(%rip), %xmm0    ## xmm0 = mem[0],zero
	movq	%rax, %rdi
	callq	__ZN14altered_carbon2js10ACJsNumberC1Ed
	movq	%rbx, 16216(%rsp)
	movl	$40, %edi
	callq	__Znwm
	movq	%rax, %rbx
	movsd	LCPI0_6(%rip), %xmm0    ## xmm0 = mem[0],zero
	movq	%rax, %rdi
	callq	__ZN14altered_carbon2js10ACJsNumberC1Ed
	movq	%rbx, 16208(%rsp)
	leaq	16216(%rsp), %rsi
	leaq	16208(%rsp), %rdx
	movl	$122, %edi
	callq	__ZN14altered_carbon2js8binaryOpEiRNSt3__18auto_ptrINS0_9ACJsValueEEES5_
	movq	%rax, 16200(%rsp)
	leaq	16224(%rsp), %rsi
	leaq	16200(%rsp), %rdx
	movl	$119, %edi
	callq	__ZN14altered_carbon2js8binaryOpEiRNSt3__18auto_ptrINS0_9ACJsValueEEES5_
	movq	%rax, 16192(%rsp)
	movl	$40, %edi
	callq	__Znwm
	movq	%rax, %rbx
	movsd	LCPI0_7(%rip), %xmm0    ## xmm0 = mem[0],zero
	movq	%rax, %rdi
	callq	__ZN14altered_carbon2js10ACJsNumberC1Ed
	movq	%rbx, 16184(%rsp)
	movl	$40, %edi
	callq	__Znwm
	movq	%rax, %rbx
	movsd	LCPI0_8(%rip), %xmm0    ## xmm0 = mem[0],zero
	movq	%rax, %rdi
	callq	__ZN14altered_carbon2js10ACJsNumberC1Ed
	movq	%rbx, 16176(%rsp)
	leaq	16184(%rsp), %rsi
	leaq	16176(%rsp), %rdx
	movl	$122, %edi
	callq	__ZN14altered_carbon2js8binaryOpEiRNSt3__18auto_ptrINS0_9ACJsValueEEES5_
	movq	%rax, 16168(%rsp)
	leaq	16192(%rsp), %rsi
	leaq	16168(%rsp), %rdx
	movl	$119, %edi
	callq	__ZN14altered_carbon2js8binaryOpEiRNSt3__18auto_ptrINS0_9ACJsValueEEES5_
	movq	%rax, 16160(%rsp)
	movl	$40, %edi
	callq	__Znwm
	movq	%rax, %rbx
	movsd	LCPI0_9(%rip), %xmm0    ## xmm0 = mem[0],zero
	movq	%rax, %rdi
	callq	__ZN14altered_carbon2js10ACJsNumberC1Ed
	movq	%rbx, 16152(%rsp)
	movl	$40, %edi
	callq	__Znwm
	movq	%rax, %rbx
	movsd	LCPI0_10(%rip), %xmm0   ## xmm0 = mem[0],zero
	movq	%rax, %rdi
	callq	__ZN14altered_carbon2js10ACJsNumberC1Ed
	movq	%rbx, 16144(%rsp)
	leaq	16152(%rsp), %rsi
	leaq	16144(%rsp), %rdx
	movl	$122, %edi
	callq	__ZN14altered_carbon2js8binaryOpEiRNSt3__18auto_ptrINS0_9ACJsValueEEES5_
	movq	%rax, 16136(%rsp)
	leaq	16160(%rsp), %rsi
	leaq	16136(%rsp), %rdx
	movl	$119, %edi
	callq	__ZN14altered_carbon2js8binaryOpEiRNSt3__18auto_ptrINS0_9ACJsValueEEES5_
	movq	%rax, 16128(%rsp)
	leaq	16128(%rsp), %rbx
LBB0_87:                                ## %ret.op4112
	movq	%rbx, 24288(%rsp)
	movq	(%rbx), %rdi
	movq	(%rdi), %rax
	callq	*168(%rax)
	testb	$1, %al
	je	LBB0_89
## %bb.88:                              ## %ret.rhs4207
	movl	$40, %edi
	callq	__Znwm
	movq	%rax, %rbx
	movsd	LCPI0_0(%rip), %xmm0    ## xmm0 = mem[0],zero
	movq	%rax, %rdi
	callq	__ZN14altered_carbon2js10ACJsNumberC1Ed
	movq	%rbx, 16120(%rsp)
	movl	$40, %edi
	callq	__Znwm
	movq	%rax, %rbx
	movsd	LCPI0_1(%rip), %xmm0    ## xmm0 = mem[0],zero
	movq	%rax, %rdi
	callq	__ZN14altered_carbon2js10ACJsNumberC1Ed
	movq	%rbx, 16112(%rsp)
	movl	$40, %edi
	callq	__Znwm
	movq	%rax, %rbx
	movsd	LCPI0_2(%rip), %xmm0    ## xmm0 = mem[0],zero
	movq	%rax, %rdi
	callq	__ZN14altered_carbon2js10ACJsNumberC1Ed
	movq	%rbx, 16104(%rsp)
	leaq	16112(%rsp), %rsi
	leaq	16104(%rsp), %rdx
	movl	$122, %edi
	callq	__ZN14altered_carbon2js8binaryOpEiRNSt3__18auto_ptrINS0_9ACJsValueEEES5_
	movq	%rax, 16096(%rsp)
	leaq	16120(%rsp), %rsi
	leaq	16096(%rsp), %rdx
	movl	$119, %edi
	callq	__ZN14altered_carbon2js8binaryOpEiRNSt3__18auto_ptrINS0_9ACJsValueEEES5_
	movq	%rax, 16088(%rsp)
	movl	$40, %edi
	callq	__Znwm
	movq	%rax, %rbx
	movsd	LCPI0_3(%rip), %xmm0    ## xmm0 = mem[0],zero
	movq	%rax, %rdi
	callq	__ZN14altered_carbon2js10ACJsNumberC1Ed
	movq	%rbx, 16080(%rsp)
	movl	$40, %edi
	callq	__Znwm
	movq	%rax, %rbx
	movsd	LCPI0_4(%rip), %xmm0    ## xmm0 = mem[0],zero
	movq	%rax, %rdi
	callq	__ZN14altered_carbon2js10ACJsNumberC1Ed
	movq	%rbx, 16072(%rsp)
	leaq	16080(%rsp), %rsi
	leaq	16072(%rsp), %rdx
	movl	$122, %edi
	callq	__ZN14altered_carbon2js8binaryOpEiRNSt3__18auto_ptrINS0_9ACJsValueEEES5_
	movq	%rax, 16064(%rsp)
	leaq	16088(%rsp), %rsi
	leaq	16064(%rsp), %rdx
	movl	$119, %edi
	callq	__ZN14altered_carbon2js8binaryOpEiRNSt3__18auto_ptrINS0_9ACJsValueEEES5_
	movq	%rax, 16056(%rsp)
	movl	$40, %edi
	callq	__Znwm
	movq	%rax, %rbx
	movsd	LCPI0_5(%rip), %xmm0    ## xmm0 = mem[0],zero
	movq	%rax, %rdi
	callq	__ZN14altered_carbon2js10ACJsNumberC1Ed
	movq	%rbx, 16048(%rsp)
	movl	$40, %edi
	callq	__Znwm
	movq	%rax, %rbx
	movsd	LCPI0_6(%rip), %xmm0    ## xmm0 = mem[0],zero
	movq	%rax, %rdi
	callq	__ZN14altered_carbon2js10ACJsNumberC1Ed
	movq	%rbx, 16040(%rsp)
	leaq	16048(%rsp), %rsi
	leaq	16040(%rsp), %rdx
	movl	$122, %edi
	callq	__ZN14altered_carbon2js8binaryOpEiRNSt3__18auto_ptrINS0_9ACJsValueEEES5_
	movq	%rax, 16032(%rsp)
	leaq	16056(%rsp), %rsi
	leaq	16032(%rsp), %rdx
	movl	$119, %edi
	callq	__ZN14altered_carbon2js8binaryOpEiRNSt3__18auto_ptrINS0_9ACJsValueEEES5_
	movq	%rax, 16024(%rsp)
	movl	$40, %edi
	callq	__Znwm
	movq	%rax, %rbx
	movsd	LCPI0_7(%rip), %xmm0    ## xmm0 = mem[0],zero
	movq	%rax, %rdi
	callq	__ZN14altered_carbon2js10ACJsNumberC1Ed
	movq	%rbx, 16016(%rsp)
	movl	$40, %edi
	callq	__Znwm
	movq	%rax, %rbx
	movsd	LCPI0_8(%rip), %xmm0    ## xmm0 = mem[0],zero
	movq	%rax, %rdi
	callq	__ZN14altered_carbon2js10ACJsNumberC1Ed
	movq	%rbx, 16008(%rsp)
	leaq	16016(%rsp), %rsi
	leaq	16008(%rsp), %rdx
	movl	$122, %edi
	callq	__ZN14altered_carbon2js8binaryOpEiRNSt3__18auto_ptrINS0_9ACJsValueEEES5_
	movq	%rax, 16000(%rsp)
	leaq	16024(%rsp), %rsi
	leaq	16000(%rsp), %rdx
	movl	$119, %edi
	callq	__ZN14altered_carbon2js8binaryOpEiRNSt3__18auto_ptrINS0_9ACJsValueEEES5_
	movq	%rax, 15992(%rsp)
	movl	$40, %edi
	callq	__Znwm
	movq	%rax, %rbx
	movsd	LCPI0_9(%rip), %xmm0    ## xmm0 = mem[0],zero
	movq	%rax, %rdi
	callq	__ZN14altered_carbon2js10ACJsNumberC1Ed
	movq	%rbx, 15984(%rsp)
	movl	$40, %edi
	callq	__Znwm
	movq	%rax, %rbx
	movsd	LCPI0_10(%rip), %xmm0   ## xmm0 = mem[0],zero
	movq	%rax, %rdi
	callq	__ZN14altered_carbon2js10ACJsNumberC1Ed
	movq	%rbx, 15976(%rsp)
	leaq	15984(%rsp), %rsi
	leaq	15976(%rsp), %rdx
	movl	$122, %edi
	callq	__ZN14altered_carbon2js8binaryOpEiRNSt3__18auto_ptrINS0_9ACJsValueEEES5_
	movq	%rax, 15968(%rsp)
	leaq	15992(%rsp), %rsi
	leaq	15968(%rsp), %rdx
	movl	$119, %edi
	callq	__ZN14altered_carbon2js8binaryOpEiRNSt3__18auto_ptrINS0_9ACJsValueEEES5_
	movq	%rax, 15960(%rsp)
	leaq	15960(%rsp), %rbx
LBB0_89:                                ## %ret.op4208
	movq	%rbx, 24280(%rsp)
	movq	(%rbx), %rdi
	movq	(%rdi), %rax
	callq	*168(%rax)
	testb	$1, %al
	je	LBB0_91
## %bb.90:                              ## %ret.rhs4303
	movl	$40, %edi
	callq	__Znwm
	movq	%rax, %rbx
	movsd	LCPI0_0(%rip), %xmm0    ## xmm0 = mem[0],zero
	movq	%rax, %rdi
	callq	__ZN14altered_carbon2js10ACJsNumberC1Ed
	movq	%rbx, 15952(%rsp)
	movl	$40, %edi
	callq	__Znwm
	movq	%rax, %rbx
	movsd	LCPI0_1(%rip), %xmm0    ## xmm0 = mem[0],zero
	movq	%rax, %rdi
	callq	__ZN14altered_carbon2js10ACJsNumberC1Ed
	movq	%rbx, 15944(%rsp)
	movl	$40, %edi
	callq	__Znwm
	movq	%rax, %rbx
	movsd	LCPI0_2(%rip), %xmm0    ## xmm0 = mem[0],zero
	movq	%rax, %rdi
	callq	__ZN14altered_carbon2js10ACJsNumberC1Ed
	movq	%rbx, 15936(%rsp)
	leaq	15944(%rsp), %rsi
	leaq	15936(%rsp), %rdx
	movl	$122, %edi
	callq	__ZN14altered_carbon2js8binaryOpEiRNSt3__18auto_ptrINS0_9ACJsValueEEES5_
	movq	%rax, 15928(%rsp)
	leaq	15952(%rsp), %rsi
	leaq	15928(%rsp), %rdx
	movl	$119, %edi
	callq	__ZN14altered_carbon2js8binaryOpEiRNSt3__18auto_ptrINS0_9ACJsValueEEES5_
	movq	%rax, 15920(%rsp)
	movl	$40, %edi
	callq	__Znwm
	movq	%rax, %rbx
	movsd	LCPI0_3(%rip), %xmm0    ## xmm0 = mem[0],zero
	movq	%rax, %rdi
	callq	__ZN14altered_carbon2js10ACJsNumberC1Ed
	movq	%rbx, 15912(%rsp)
	movl	$40, %edi
	callq	__Znwm
	movq	%rax, %rbx
	movsd	LCPI0_4(%rip), %xmm0    ## xmm0 = mem[0],zero
	movq	%rax, %rdi
	callq	__ZN14altered_carbon2js10ACJsNumberC1Ed
	movq	%rbx, 15904(%rsp)
	leaq	15912(%rsp), %rsi
	leaq	15904(%rsp), %rdx
	movl	$122, %edi
	callq	__ZN14altered_carbon2js8binaryOpEiRNSt3__18auto_ptrINS0_9ACJsValueEEES5_
	movq	%rax, 15896(%rsp)
	leaq	15920(%rsp), %rsi
	leaq	15896(%rsp), %rdx
	movl	$119, %edi
	callq	__ZN14altered_carbon2js8binaryOpEiRNSt3__18auto_ptrINS0_9ACJsValueEEES5_
	movq	%rax, 15888(%rsp)
	movl	$40, %edi
	callq	__Znwm
	movq	%rax, %rbx
	movsd	LCPI0_5(%rip), %xmm0    ## xmm0 = mem[0],zero
	movq	%rax, %rdi
	callq	__ZN14altered_carbon2js10ACJsNumberC1Ed
	movq	%rbx, 15880(%rsp)
	movl	$40, %edi
	callq	__Znwm
	movq	%rax, %rbx
	movsd	LCPI0_6(%rip), %xmm0    ## xmm0 = mem[0],zero
	movq	%rax, %rdi
	callq	__ZN14altered_carbon2js10ACJsNumberC1Ed
	movq	%rbx, 15872(%rsp)
	leaq	15880(%rsp), %rsi
	leaq	15872(%rsp), %rdx
	movl	$122, %edi
	callq	__ZN14altered_carbon2js8binaryOpEiRNSt3__18auto_ptrINS0_9ACJsValueEEES5_
	movq	%rax, 15864(%rsp)
	leaq	15888(%rsp), %rsi
	leaq	15864(%rsp), %rdx
	movl	$119, %edi
	callq	__ZN14altered_carbon2js8binaryOpEiRNSt3__18auto_ptrINS0_9ACJsValueEEES5_
	movq	%rax, 15856(%rsp)
	movl	$40, %edi
	callq	__Znwm
	movq	%rax, %rbx
	movsd	LCPI0_7(%rip), %xmm0    ## xmm0 = mem[0],zero
	movq	%rax, %rdi
	callq	__ZN14altered_carbon2js10ACJsNumberC1Ed
	movq	%rbx, 15848(%rsp)
	movl	$40, %edi
	callq	__Znwm
	movq	%rax, %rbx
	movsd	LCPI0_8(%rip), %xmm0    ## xmm0 = mem[0],zero
	movq	%rax, %rdi
	callq	__ZN14altered_carbon2js10ACJsNumberC1Ed
	movq	%rbx, 15840(%rsp)
	leaq	15848(%rsp), %rsi
	leaq	15840(%rsp), %rdx
	movl	$122, %edi
	callq	__ZN14altered_carbon2js8binaryOpEiRNSt3__18auto_ptrINS0_9ACJsValueEEES5_
	movq	%rax, 15832(%rsp)
	leaq	15856(%rsp), %rsi
	leaq	15832(%rsp), %rdx
	movl	$119, %edi
	callq	__ZN14altered_carbon2js8binaryOpEiRNSt3__18auto_ptrINS0_9ACJsValueEEES5_
	movq	%rax, 15824(%rsp)
	movl	$40, %edi
	callq	__Znwm
	movq	%rax, %rbx
	movsd	LCPI0_9(%rip), %xmm0    ## xmm0 = mem[0],zero
	movq	%rax, %rdi
	callq	__ZN14altered_carbon2js10ACJsNumberC1Ed
	movq	%rbx, 15816(%rsp)
	movl	$40, %edi
	callq	__Znwm
	movq	%rax, %rbx
	movsd	LCPI0_10(%rip), %xmm0   ## xmm0 = mem[0],zero
	movq	%rax, %rdi
	callq	__ZN14altered_carbon2js10ACJsNumberC1Ed
	movq	%rbx, 15808(%rsp)
	leaq	15816(%rsp), %rsi
	leaq	15808(%rsp), %rdx
	movl	$122, %edi
	callq	__ZN14altered_carbon2js8binaryOpEiRNSt3__18auto_ptrINS0_9ACJsValueEEES5_
	movq	%rax, 15800(%rsp)
	leaq	15824(%rsp), %rsi
	leaq	15800(%rsp), %rdx
	movl	$119, %edi
	callq	__ZN14altered_carbon2js8binaryOpEiRNSt3__18auto_ptrINS0_9ACJsValueEEES5_
	movq	%rax, 15792(%rsp)
	leaq	15792(%rsp), %rbx
LBB0_91:                                ## %ret.op4304
	movq	%rbx, 24272(%rsp)
	movq	(%rbx), %rdi
	movq	(%rdi), %rax
	callq	*168(%rax)
	testb	$1, %al
	je	LBB0_93
## %bb.92:                              ## %ret.rhs4399
	movl	$40, %edi
	callq	__Znwm
	movq	%rax, %rbx
	movsd	LCPI0_0(%rip), %xmm0    ## xmm0 = mem[0],zero
	movq	%rax, %rdi
	callq	__ZN14altered_carbon2js10ACJsNumberC1Ed
	movq	%rbx, 15784(%rsp)
	movl	$40, %edi
	callq	__Znwm
	movq	%rax, %rbx
	movsd	LCPI0_1(%rip), %xmm0    ## xmm0 = mem[0],zero
	movq	%rax, %rdi
	callq	__ZN14altered_carbon2js10ACJsNumberC1Ed
	movq	%rbx, 15776(%rsp)
	movl	$40, %edi
	callq	__Znwm
	movq	%rax, %rbx
	movsd	LCPI0_2(%rip), %xmm0    ## xmm0 = mem[0],zero
	movq	%rax, %rdi
	callq	__ZN14altered_carbon2js10ACJsNumberC1Ed
	movq	%rbx, 15768(%rsp)
	leaq	15776(%rsp), %rsi
	leaq	15768(%rsp), %rdx
	movl	$122, %edi
	callq	__ZN14altered_carbon2js8binaryOpEiRNSt3__18auto_ptrINS0_9ACJsValueEEES5_
	movq	%rax, 15760(%rsp)
	leaq	15784(%rsp), %rsi
	leaq	15760(%rsp), %rdx
	movl	$119, %edi
	callq	__ZN14altered_carbon2js8binaryOpEiRNSt3__18auto_ptrINS0_9ACJsValueEEES5_
	movq	%rax, 15752(%rsp)
	movl	$40, %edi
	callq	__Znwm
	movq	%rax, %rbx
	movsd	LCPI0_3(%rip), %xmm0    ## xmm0 = mem[0],zero
	movq	%rax, %rdi
	callq	__ZN14altered_carbon2js10ACJsNumberC1Ed
	movq	%rbx, 15744(%rsp)
	movl	$40, %edi
	callq	__Znwm
	movq	%rax, %rbx
	movsd	LCPI0_4(%rip), %xmm0    ## xmm0 = mem[0],zero
	movq	%rax, %rdi
	callq	__ZN14altered_carbon2js10ACJsNumberC1Ed
	movq	%rbx, 15736(%rsp)
	leaq	15744(%rsp), %rsi
	leaq	15736(%rsp), %rdx
	movl	$122, %edi
	callq	__ZN14altered_carbon2js8binaryOpEiRNSt3__18auto_ptrINS0_9ACJsValueEEES5_
	movq	%rax, 15728(%rsp)
	leaq	15752(%rsp), %rsi
	leaq	15728(%rsp), %rdx
	movl	$119, %edi
	callq	__ZN14altered_carbon2js8binaryOpEiRNSt3__18auto_ptrINS0_9ACJsValueEEES5_
