; ModuleID = 'stmt_dowhile2.js'
source_filename = "stmt_dowhile2.js"

%"cls.acjs::JsVariant" = type { i32 (...)**, i32, %union.anon.6 }
%union.anon.6 = type { %"cls.acjs::JsVariantFunc", [24 x i8] }
%"cls.acjs::JsVariantFunc" = type { void (%"cls.acjs::JsVariant"*, %"cls.acjs::JsVariant"*, %"cls.acjs::JsVariant"**, i64)*, i32* }
%"str.acjs::JsVariantIterator" = type { %"cls.acjs::RefCountedPtr", %"cls.acjs::RBTreeNode"*, i32, i32 }
%"cls.acjs::RefCountedPtr" = type { %"cls.acjs::RefCounted"* }
%"cls.acjs::RefCounted" = type { %"cls.acjs::JsVariantArray", %"str.acjs::RefCounter" }
%"cls.acjs::JsVariantArray" = type { i32 (...)**, %"cls.acjs::RBTreeNode"* }
%"str.acjs::RefCounter" = type { %"struct.std::__1::__atomic" }
%"struct.std::__1::__atomic" = type { %"struct.std::__1::__atomic_base.9" }
%"struct.std::__1::__atomic_base.9" = type { %"struct.std::__1::__atomic_base" }
%"struct.std::__1::__atomic_base" = type { i64 }
%"cls.acjs::RBTreeNode" = type { i32 (...)**, i32, i32, i32, i32, %"cls.acjs::RBTreeNode"*, %"cls.acjs::RBTreeNode"*, %"cls.acjs::RBTreeNode"*, %"struct.std::__1::__vector" }
%"struct.std::__1::__vector" = type { %"struct.std::__1::__vector_base" }
%"struct.std::__1::__vector_base" = type { %"cls.acjs::JsVariant"**, %"cls.acjs::JsVariant"**, %"class.std::__1::__compressed_pair.8" }
%"class.std::__1::__compressed_pair.8" = type { %"struct.std::__1::__compressed_pair_elem.7" }
%"struct.std::__1::__compressed_pair_elem.7" = type { %"cls.acjs::JsVariant"** }
%"cls.acjs::JsVariantNumber" = type <{ i64, double, i8, [16 x i8] }>

@_ZTVN10__cxxabiv117__class_type_infoE = external global i8*
@_ZTSN14altered_carbon2js9JsVariantE = linkonce_odr constant [32 x i8] c"N14altered_carbon2js9JsVariantE\00"
@_ZTIN14altered_carbon2js9JsVariantE = linkonce_odr constant { i8*, i8* } { i8* bitcast (i8** getelementptr inbounds (i8*, i8** @_ZTVN10__cxxabiv117__class_type_infoE, i64 2) to i8*), i8* getelementptr inbounds ([32 x i8], [32 x i8]* @_ZTSN14altered_carbon2js9JsVariantE, i32 0, i32 0) }
@_ZTVN14altered_carbon2js9JsVariantE = linkonce_odr unnamed_addr constant { [4 x i8*] } { [4 x i8*] [i8* null, i8* bitcast ({ i8*, i8* }* @_ZTIN14altered_carbon2js9JsVariantE to i8*), i8* bitcast (void (%"cls.acjs::JsVariant"*)* @_ZN14altered_carbon2js9JsVariantD1Ev to i8*), i8* bitcast (void (%"cls.acjs::JsVariant"*)* @_ZN14altered_carbon2js9JsVariantD0Ev to i8*)] }, align 8
@_ZTVN14altered_carbon2js9JsVariantE_GEP = internal constant i8** getelementptr inbounds ({ [4 x i8*] }, { [4 x i8*] }* @_ZTVN14altered_carbon2js9JsVariantE, i32 0, inrange i32 0, i32 2)
@_ZN14altered_carbon2js11JsConstants9UndefinedE = external constant %"cls.acjs::JsVariant"
@_ZN14altered_carbon2js11JsConstants4NullE = external constant %"cls.acjs::JsVariant"
@_ZN14altered_carbon2js11JsConstants3NaNE = external constant %"cls.acjs::JsVariant"
@_ZN14altered_carbon2js11JsConstants8InfinityE = external constant %"cls.acjs::JsVariant"
@_ZN14altered_carbon2js11JsConstants9TypeErrorE = external constant %"cls.acjs::JsVariant"
@_ZN14altered_carbon2js11JsConstants16NullPointerErrorE = external constant %"cls.acjs::JsVariant"
@_ZN14altered_carbon2js11JsConstants3EndE = external constant %"str.acjs::JsVariantIterator"
@_ZN14altered_carbon2js11JsConstants4REndE = external constant %"str.acjs::JsVariantIterator"
@.wstr = private unnamed_addr constant [6 x i32] [i32 103, i32 114, i32 101, i32 97, i32 116, i32 0], align 4
@.wstr.1 = private unnamed_addr constant [4 x i32] [i32 98, i32 97, i32 100, i32 0], align 4
@.wstr.2 = private unnamed_addr constant [2 x i32] [i32 97, i32 0], align 4

declare void @_ZN14altered_carbon2js9JsVariantD1Ev(%"cls.acjs::JsVariant"*)

declare void @_ZN14altered_carbon2js9JsVariantD0Ev(%"cls.acjs::JsVariant"*)

declare dereferenceable(56) %"cls.acjs::JsVariant"* @_ZNK14altered_carbon2js9JsVariant3bwaEPS1_RKS1_(%"cls.acjs::JsVariant"*, %"cls.acjs::JsVariant"*, %"cls.acjs::JsVariant"* dereferenceable(56))

declare dereferenceable(56) %"cls.acjs::JsVariant"* @_ZNK14altered_carbon2js9JsVariant3bwxEPS1_RKS1_(%"cls.acjs::JsVariant"*, %"cls.acjs::JsVariant"*, %"cls.acjs::JsVariant"* dereferenceable(56))

declare zeroext i1 @_ZNK14altered_carbon2js9JsVarianteqERKS1_(%"cls.acjs::JsVariant"*, %"cls.acjs::JsVariant"* dereferenceable(56))

declare zeroext i1 @_ZNK14altered_carbon2js9JsVariantneERKS1_(%"cls.acjs::JsVariant"*, %"cls.acjs::JsVariant"* dereferenceable(56))

declare zeroext i1 @_ZNK14altered_carbon2js9JsVariant4eqvtERKS1_(%"cls.acjs::JsVariant"*, %"cls.acjs::JsVariant"* dereferenceable(56))

declare zeroext i1 @_ZNK14altered_carbon2js9JsVariant4nevtERKS1_(%"cls.acjs::JsVariant"*, %"cls.acjs::JsVariant"* dereferenceable(56))

declare zeroext i1 @_ZNK14altered_carbon2js9JsVariantltERKS1_(%"cls.acjs::JsVariant"*, %"cls.acjs::JsVariant"* dereferenceable(56))

declare zeroext i1 @_ZNK14altered_carbon2js9JsVariantgtERKS1_(%"cls.acjs::JsVariant"*, %"cls.acjs::JsVariant"* dereferenceable(56))

declare zeroext i1 @_ZNK14altered_carbon2js9JsVariantleERKS1_(%"cls.acjs::JsVariant"*, %"cls.acjs::JsVariant"* dereferenceable(56))

declare zeroext i1 @_ZNK14altered_carbon2js9JsVariantgeERKS1_(%"cls.acjs::JsVariant"*, %"cls.acjs::JsVariant"* dereferenceable(56))

declare dereferenceable(56) %"cls.acjs::JsVariant"* @_ZNK14altered_carbon2js9JsVariant3ltsEPS1_RKS1_(%"cls.acjs::JsVariant"*, %"cls.acjs::JsVariant"*, %"cls.acjs::JsVariant"* dereferenceable(56))

declare dereferenceable(56) %"cls.acjs::JsVariant"* @_ZNK14altered_carbon2js9JsVariant3rtsEPS1_RKS1_(%"cls.acjs::JsVariant"*, %"cls.acjs::JsVariant"*, %"cls.acjs::JsVariant"* dereferenceable(56))

declare dereferenceable(56) %"cls.acjs::JsVariant"* @_ZNK14altered_carbon2js9JsVariant3rszEPS1_RKS1_(%"cls.acjs::JsVariant"*, %"cls.acjs::JsVariant"*, %"cls.acjs::JsVariant"* dereferenceable(56))

declare dereferenceable(56) %"cls.acjs::JsVariant"* @_ZNK14altered_carbon2js9JsVariant3addEPS1_RKS1_(%"cls.acjs::JsVariant"*, %"cls.acjs::JsVariant"*, %"cls.acjs::JsVariant"* dereferenceable(56))

declare void @_ZN14altered_carbon2js9JsVariantpsEv(%"cls.acjs::JsVariant"* noalias sret, %"cls.acjs::JsVariant"*)

declare dereferenceable(56) %"cls.acjs::JsVariant"* @_ZNK14altered_carbon2js9JsVariant3subEPS1_RKS1_(%"cls.acjs::JsVariant"*, %"cls.acjs::JsVariant"*, %"cls.acjs::JsVariant"* dereferenceable(56))

declare void @_ZN14altered_carbon2js9JsVariantngEv(%"cls.acjs::JsVariant"* noalias sret, %"cls.acjs::JsVariant"*)

declare dereferenceable(56) %"cls.acjs::JsVariant"* @_ZNK14altered_carbon2js9JsVariant3mulEPS1_RKS1_(%"cls.acjs::JsVariant"*, %"cls.acjs::JsVariant"*, %"cls.acjs::JsVariant"* dereferenceable(56))

declare dereferenceable(56) %"cls.acjs::JsVariant"* @_ZNK14altered_carbon2js9JsVariant3divEPS1_RKS1_(%"cls.acjs::JsVariant"*, %"cls.acjs::JsVariant"*, %"cls.acjs::JsVariant"* dereferenceable(56))

declare dereferenceable(56) %"cls.acjs::JsVariant"* @_ZNK14altered_carbon2js9JsVariant3modEPS1_RKS1_(%"cls.acjs::JsVariant"*, %"cls.acjs::JsVariant"*, %"cls.acjs::JsVariant"* dereferenceable(56))

declare void @_ZN14altered_carbon2js9JsVariantcoEv(%"cls.acjs::JsVariant"* noalias sret, %"cls.acjs::JsVariant"*)

declare void @_ZN14altered_carbon2js9JsVariantppEi(%"cls.acjs::JsVariant"* noalias sret, %"cls.acjs::JsVariant"*, i32)

declare dereferenceable(56) %"cls.acjs::JsVariant"* @_ZN14altered_carbon2js9JsVariantppEv(%"cls.acjs::JsVariant"*)

declare void @_ZN14altered_carbon2js9JsVariantmmEi(%"cls.acjs::JsVariant"* noalias sret, %"cls.acjs::JsVariant"*, i32)

declare dereferenceable(56) %"cls.acjs::JsVariant"* @_ZN14altered_carbon2js9JsVariantmmEv(%"cls.acjs::JsVariant"*)

declare dereferenceable(56) %"cls.acjs::JsVariant"* @_ZN14altered_carbon2js9JsVariantaSERKS1_(%"cls.acjs::JsVariant"*, %"cls.acjs::JsVariant"* dereferenceable(56))

declare dereferenceable(56) %"cls.acjs::JsVariant"* @_ZN14altered_carbon2js9JsVariantpLERKS1_(%"cls.acjs::JsVariant"*, %"cls.acjs::JsVariant"* dereferenceable(56))

declare dereferenceable(56) %"cls.acjs::JsVariant"* @_ZN14altered_carbon2js9JsVariantmIERKS1_(%"cls.acjs::JsVariant"*, %"cls.acjs::JsVariant"* dereferenceable(56))

declare dereferenceable(56) %"cls.acjs::JsVariant"* @_ZN14altered_carbon2js9JsVariantmLERKS1_(%"cls.acjs::JsVariant"*, %"cls.acjs::JsVariant"* dereferenceable(56))

declare dereferenceable(56) %"cls.acjs::JsVariant"* @_ZN14altered_carbon2js9JsVariantdVERKS1_(%"cls.acjs::JsVariant"*, %"cls.acjs::JsVariant"* dereferenceable(56))

declare dereferenceable(56) %"cls.acjs::JsVariant"* @_ZN14altered_carbon2js9JsVariantrMERKS1_(%"cls.acjs::JsVariant"*, %"cls.acjs::JsVariant"* dereferenceable(56))

declare dereferenceable(56) %"cls.acjs::JsVariant"* @_ZN14altered_carbon2js9JsVariantlSERKS1_(%"cls.acjs::JsVariant"*, %"cls.acjs::JsVariant"* dereferenceable(56))

declare dereferenceable(56) %"cls.acjs::JsVariant"* @_ZN14altered_carbon2js9JsVariantrSERKS1_(%"cls.acjs::JsVariant"*, %"cls.acjs::JsVariant"* dereferenceable(56))

declare dereferenceable(56) %"cls.acjs::JsVariant"* @_ZN14altered_carbon2js9JsVariant4arszERKS1_(%"cls.acjs::JsVariant"*, %"cls.acjs::JsVariant"* dereferenceable(56))

declare dereferenceable(56) %"cls.acjs::JsVariant"* @_ZN14altered_carbon2js9JsVariantaNERKS1_(%"cls.acjs::JsVariant"*, %"cls.acjs::JsVariant"* dereferenceable(56))

declare dereferenceable(56) %"cls.acjs::JsVariant"* @_ZN14altered_carbon2js9JsVariantoRERKS1_(%"cls.acjs::JsVariant"*, %"cls.acjs::JsVariant"* dereferenceable(56))

declare dereferenceable(56) %"cls.acjs::JsVariant"* @_ZN14altered_carbon2js9JsVarianteOERKS1_(%"cls.acjs::JsVariant"*, %"cls.acjs::JsVariant"* dereferenceable(56))

define void @_Z7_scriptPN14altered_carbon2js9JsVariantE(%"cls.acjs::JsVariant"*) {
init.bb:
  %vptr = alloca %"cls.acjs::JsVariant", align 8
  %1 = bitcast %"cls.acjs::JsVariant"* %vptr to i32 (...)***
  store i32 (...)** bitcast (i8*** @_ZTVN14altered_carbon2js9JsVariantE_GEP to i32 (...)**), i32 (...)*** %1, align 8
  %2 = getelementptr inbounds %"cls.acjs::JsVariant", %"cls.acjs::JsVariant"* %vptr, i32 0, i32 1
  store i32 15, i32* %2, align 8
  br label %exec.bb

exec.bb:                                          ; preds = %init.bb
  %3 = getelementptr inbounds %"cls.acjs::JsVariant", %"cls.acjs::JsVariant"* %vptr, i32 0, i32 2
  %4 = bitcast %union.anon.6* %3 to %"cls.acjs::JsVariantFunc"*
  %5 = getelementptr inbounds %"cls.acjs::JsVariantFunc", %"cls.acjs::JsVariantFunc"* %4, i32 0, i32 0
  store void (%"cls.acjs::JsVariant"*, %"cls.acjs::JsVariant"*, %"cls.acjs::JsVariant"**, i64)* @_ZN3_js1aEPN14altered_carbon2js9JsVariantEN4llvm8ArrayRefIS3_EE, void (%"cls.acjs::JsVariant"*, %"cls.acjs::JsVariant"*, %"cls.acjs::JsVariant"**, i64)** %5, align 8
  %6 = getelementptr inbounds %"cls.acjs::JsVariantFunc", %"cls.acjs::JsVariantFunc"* %4, i32 0, i32 1
  store i32* getelementptr inbounds ([2 x i32], [2 x i32]* @.wstr.2, i32 0, i32 0), i32** %6, align 8
  br label %exit.bb

exit.bb:                                          ; preds = %exec.bb
  %7 = call %"cls.acjs::JsVariant"* @_ZN14altered_carbon2js9JsVariantaSERKS1_(%"cls.acjs::JsVariant"* %0, %"cls.acjs::JsVariant"* dereferenceable(56) %vptr)
  call void @_ZN14altered_carbon2js9JsVariantD1Ev(%"cls.acjs::JsVariant"* %vptr)
  ret void
}

define void @_ZN3_js1aEPN14altered_carbon2js9JsVariantEN4llvm8ArrayRefIS3_EE(%"cls.acjs::JsVariant"* noalias sret, %"cls.acjs::JsVariant"*, %"cls.acjs::JsVariant"**, i64) {
init.bb:
  %ptr = alloca %"cls.acjs::JsVariant"*, align 8
  %vptr = alloca %"cls.acjs::JsVariant", align 8
  %4 = bitcast %"cls.acjs::JsVariant"* %vptr to i32 (...)***
  store i32 (...)** bitcast (i8*** @_ZTVN14altered_carbon2js9JsVariantE_GEP to i32 (...)**), i32 (...)*** %4, align 8
  %5 = getelementptr inbounds %"cls.acjs::JsVariant", %"cls.acjs::JsVariant"* %vptr, i32 0, i32 1
  store i32 1, i32* %5, align 8
  %ptr3 = alloca %"cls.acjs::JsVariant"*, align 8
  %vptr4 = alloca %"cls.acjs::JsVariant", align 8
  %6 = bitcast %"cls.acjs::JsVariant"* %vptr4 to i32 (...)***
  store i32 (...)** bitcast (i8*** @_ZTVN14altered_carbon2js9JsVariantE_GEP to i32 (...)**), i32 (...)*** %6, align 8
  %7 = getelementptr inbounds %"cls.acjs::JsVariant", %"cls.acjs::JsVariant"* %vptr4, i32 0, i32 1
  store i32 1, i32* %7, align 8
  %vptr5 = alloca %"cls.acjs::JsVariant", align 8
  %8 = bitcast %"cls.acjs::JsVariant"* %vptr5 to i32 (...)***
  store i32 (...)** bitcast (i8*** @_ZTVN14altered_carbon2js9JsVariantE_GEP to i32 (...)**), i32 (...)*** %8, align 8
  %9 = getelementptr inbounds %"cls.acjs::JsVariant", %"cls.acjs::JsVariant"* %vptr5, i32 0, i32 1
  store i32 1, i32* %9, align 8
  %vptr6 = alloca %"cls.acjs::JsVariant", align 8
  %10 = bitcast %"cls.acjs::JsVariant"* %vptr6 to i32 (...)***
  store i32 (...)** bitcast (i8*** @_ZTVN14altered_carbon2js9JsVariantE_GEP to i32 (...)**), i32 (...)*** %10, align 8
  %11 = getelementptr inbounds %"cls.acjs::JsVariant", %"cls.acjs::JsVariant"* %vptr6, i32 0, i32 1
  store i32 1, i32* %11, align 8
  %vptr12 = alloca %"cls.acjs::JsVariant", align 8
  %12 = bitcast %"cls.acjs::JsVariant"* %vptr12 to i32 (...)***
  store i32 (...)** bitcast (i8*** @_ZTVN14altered_carbon2js9JsVariantE_GEP to i32 (...)**), i32 (...)*** %12, align 8
  %13 = getelementptr inbounds %"cls.acjs::JsVariant", %"cls.acjs::JsVariant"* %vptr12, i32 0, i32 1
  store i32 1, i32* %13, align 8
  %vptr13 = alloca %"cls.acjs::JsVariant", align 8
  %14 = bitcast %"cls.acjs::JsVariant"* %vptr13 to i32 (...)***
  store i32 (...)** bitcast (i8*** @_ZTVN14altered_carbon2js9JsVariantE_GEP to i32 (...)**), i32 (...)*** %14, align 8
  %15 = getelementptr inbounds %"cls.acjs::JsVariant", %"cls.acjs::JsVariant"* %vptr13, i32 0, i32 1
  store i32 1, i32* %15, align 8
  %vptr14 = alloca %"cls.acjs::JsVariant", align 8
  %16 = bitcast %"cls.acjs::JsVariant"* %vptr14 to i32 (...)***
  store i32 (...)** bitcast (i8*** @_ZTVN14altered_carbon2js9JsVariantE_GEP to i32 (...)**), i32 (...)*** %16, align 8
  %17 = getelementptr inbounds %"cls.acjs::JsVariant", %"cls.acjs::JsVariant"* %vptr14, i32 0, i32 1
  store i32 1, i32* %17, align 8
  %vptr18 = alloca %"cls.acjs::JsVariant", align 8
  %18 = bitcast %"cls.acjs::JsVariant"* %vptr18 to i32 (...)***
  store i32 (...)** bitcast (i8*** @_ZTVN14altered_carbon2js9JsVariantE_GEP to i32 (...)**), i32 (...)*** %18, align 8
  %19 = getelementptr inbounds %"cls.acjs::JsVariant", %"cls.acjs::JsVariant"* %vptr18, i32 0, i32 1
  store i32 1, i32* %19, align 8
  %vptr22 = alloca %"cls.acjs::JsVariant", align 8
  %20 = bitcast %"cls.acjs::JsVariant"* %vptr22 to i32 (...)***
  store i32 (...)** bitcast (i8*** @_ZTVN14altered_carbon2js9JsVariantE_GEP to i32 (...)**), i32 (...)*** %20, align 8
  %21 = getelementptr inbounds %"cls.acjs::JsVariant", %"cls.acjs::JsVariant"* %vptr22, i32 0, i32 1
  store i32 1, i32* %21, align 8
  br label %param.bb

exec.bb:                                          ; preds = %pcase.bb
  br label %blkalloc.bb

exit.bb:                                          ; preds = %blkalloc.bbe, %block20, %block16
  call void @_ZN14altered_carbon2js9JsVariantD1Ev(%"cls.acjs::JsVariant"* %vptr22)
  call void @_ZN14altered_carbon2js9JsVariantD1Ev(%"cls.acjs::JsVariant"* %vptr18)
  call void @_ZN14altered_carbon2js9JsVariantD1Ev(%"cls.acjs::JsVariant"* %vptr14)
  call void @_ZN14altered_carbon2js9JsVariantD1Ev(%"cls.acjs::JsVariant"* %vptr13)
  call void @_ZN14altered_carbon2js9JsVariantD1Ev(%"cls.acjs::JsVariant"* %vptr12)
  call void @_ZN14altered_carbon2js9JsVariantD1Ev(%"cls.acjs::JsVariant"* %vptr6)
  call void @_ZN14altered_carbon2js9JsVariantD1Ev(%"cls.acjs::JsVariant"* %vptr5)
  call void @_ZN14altered_carbon2js9JsVariantD1Ev(%"cls.acjs::JsVariant"* %vptr4)
  call void @_ZN14altered_carbon2js9JsVariantD1Ev(%"cls.acjs::JsVariant"* %vptr)
  ret void

param.bb:                                         ; preds = %init.bb
  switch i64 %3, label %pcase.bb2 [
    i64 1, label %pcase.bb1
    i64 0, label %pcase.bb
  ]

pcase.bb:                                         ; preds = %pcase.bb1, %param.bb
  br label %exec.bb

pcase.bb1:                                        ; preds = %pcase.bb2, %param.bb
  %22 = getelementptr inbounds %"cls.acjs::JsVariant"*, %"cls.acjs::JsVariant"** %2, i64 0
  %23 = load %"cls.acjs::JsVariant"*, %"cls.acjs::JsVariant"** %22, align 8
  store %"cls.acjs::JsVariant"* %23, %"cls.acjs::JsVariant"** %ptr3, align 8
  %24 = load %"cls.acjs::JsVariant"*, %"cls.acjs::JsVariant"** %ptr3, align 8
  %25 = call %"cls.acjs::JsVariant"* @_ZN14altered_carbon2js9JsVariantaSERKS1_(%"cls.acjs::JsVariant"* %vptr4, %"cls.acjs::JsVariant"* %24)
  br label %pcase.bb

pcase.bb2:                                        ; preds = %param.bb
  %26 = getelementptr inbounds %"cls.acjs::JsVariant"*, %"cls.acjs::JsVariant"** %2, i64 1
  %27 = load %"cls.acjs::JsVariant"*, %"cls.acjs::JsVariant"** %26, align 8
  store %"cls.acjs::JsVariant"* %27, %"cls.acjs::JsVariant"** %ptr, align 8
  %28 = load %"cls.acjs::JsVariant"*, %"cls.acjs::JsVariant"** %ptr, align 8
  %29 = call %"cls.acjs::JsVariant"* @_ZN14altered_carbon2js9JsVariantaSERKS1_(%"cls.acjs::JsVariant"* %vptr, %"cls.acjs::JsVariant"* %28)
  br label %pcase.bb1

blkalloc.bb:                                      ; preds = %exec.bb
  br label %block

block:                                            ; preds = %blkalloc.bb
  %30 = call %"cls.acjs::JsVariant"* @_ZN14altered_carbon2js9JsVariantaSEx(%"cls.acjs::JsVariant"* %vptr5, i64 0)
  %31 = getelementptr inbounds %"cls.acjs::JsVariant", %"cls.acjs::JsVariant"* %vptr6, i32 0, i32 1
  %32 = load i32, i32* %31, align 8
  %33 = icmp sle i32 %32, 6
  %34 = getelementptr inbounds %"cls.acjs::JsVariant", %"cls.acjs::JsVariant"* %vptr5, i32 0, i32 1
  %35 = load i32, i32* %34, align 8
  %36 = icmp sle i32 %35, 6
  %37 = and i1 %33, %36
  br i1 %37, label %copy.bb, label %fallback.bb

blkexit.bb:                                       ; preds = %ret.op
  br label %blkalloc.bbe

copy.bb:                                          ; preds = %block
  switch i32 %35, label %fallback.bb [
    i32 -2, label %caseerr.bb
    i32 0, label %casenul_unf.bb
    i32 1, label %casenul_unf.bb
    i32 6, label %casebln.bb
    i32 2, label %casenum.bb
  ]

copy.bbe:                                         ; preds = %fallback.bb, %casenum.bb, %casebln.bb, %casenul_unf.bb, %caseerr.bb
  br label %lpalloc.bb

fallback.bb:                                      ; preds = %copy.bb, %block
  %38 = call %"cls.acjs::JsVariant"* @_ZN14altered_carbon2js9JsVariantaSERKS1_(%"cls.acjs::JsVariant"* %vptr6, %"cls.acjs::JsVariant"* %vptr5)
  br label %copy.bbe

caseerr.bb:                                       ; preds = %copy.bb
  store i32 %35, i32* %31, align 8
  %39 = getelementptr inbounds %"cls.acjs::JsVariant", %"cls.acjs::JsVariant"* %vptr5, i32 0, i32 2
  %40 = bitcast %union.anon.6* %39 to i8**
  %41 = load i8*, i8** %40, align 8
  %42 = getelementptr inbounds %"cls.acjs::JsVariant", %"cls.acjs::JsVariant"* %vptr6, i32 0, i32 2
  %43 = bitcast %union.anon.6* %42 to i8**
  store i8* %41, i8** %43, align 8
  br label %copy.bbe

casenul_unf.bb:                                   ; preds = %copy.bb, %copy.bb
  store i32 %35, i32* %31, align 8
  br label %copy.bbe

casebln.bb:                                       ; preds = %copy.bb
  store i32 %35, i32* %31, align 8
  %44 = getelementptr inbounds %"cls.acjs::JsVariant", %"cls.acjs::JsVariant"* %vptr5, i32 0, i32 2
  %45 = bitcast %union.anon.6* %44 to i8*
  %46 = load i8, i8* %45, align 8
  %47 = getelementptr inbounds %"cls.acjs::JsVariant", %"cls.acjs::JsVariant"* %vptr6, i32 0, i32 2
  %48 = bitcast %union.anon.6* %47 to i8*
  store i8 %46, i8* %48, align 1
  br label %copy.bbe

casenum.bb:                                       ; preds = %copy.bb
  store i32 %35, i32* %31, align 8
  %49 = getelementptr inbounds %"cls.acjs::JsVariant", %"cls.acjs::JsVariant"* %vptr5, i32 0, i32 2
  %50 = bitcast %union.anon.6* %49 to %"cls.acjs::JsVariantNumber"*
  %51 = getelementptr inbounds %"cls.acjs::JsVariantNumber", %"cls.acjs::JsVariantNumber"* %50, i32 0, i32 0
  %52 = load i64, i64* %51, align 8
  %53 = getelementptr inbounds %"cls.acjs::JsVariantNumber", %"cls.acjs::JsVariantNumber"* %50, i32 0, i32 1
  %54 = load double, double* %53, align 8
  %55 = getelementptr inbounds %"cls.acjs::JsVariantNumber", %"cls.acjs::JsVariantNumber"* %50, i32 0, i32 2
  %56 = load i8, i8* %55, align 8
  %57 = getelementptr inbounds %"cls.acjs::JsVariant", %"cls.acjs::JsVariant"* %vptr6, i32 0, i32 2
  %58 = bitcast %union.anon.6* %57 to %"cls.acjs::JsVariantNumber"*
  %59 = getelementptr inbounds %"cls.acjs::JsVariantNumber", %"cls.acjs::JsVariantNumber"* %58, i32 0, i32 0
  store i64 %52, i64* %59, align 8
  %60 = getelementptr inbounds %"cls.acjs::JsVariantNumber", %"cls.acjs::JsVariantNumber"* %58, i32 0, i32 1
  store double %54, double* %60, align 8
  %61 = getelementptr inbounds %"cls.acjs::JsVariantNumber", %"cls.acjs::JsVariantNumber"* %58, i32 0, i32 2
  store i8 %56, i8* %61, align 8
  br label %copy.bbe

lpalloc.bb:                                       ; preds = %copy.bbe, %cond.bb
  br label %dowhile.bb

dowhile.bb:                                       ; preds = %lpalloc.bb
  %62 = call %"cls.acjs::JsVariant"* @_ZN14altered_carbon2js9JsVariantpLERKS1_(%"cls.acjs::JsVariant"* %vptr6, %"cls.acjs::JsVariant"* %vptr4)
  br label %lpalloc.bb7

lpinc.bb:                                         ; preds = %lpexit.bb10
  br label %cond.bb

lpexit.bb:                                        ; preds = %cond.bb
  %63 = call %"cls.acjs::JsVariant"* @_ZN14altered_carbon2js9JsVariantaSEx(%"cls.acjs::JsVariant"* %vptr14, i64 100)
  %64 = call i1 @_ZNK14altered_carbon2js9JsVariantltERKS1_(%"cls.acjs::JsVariant"* %vptr6, %"cls.acjs::JsVariant"* %vptr14)
  br i1 %64, label %ret.lhs, label %ret.rhs

cond.bb:                                          ; preds = %lpinc.bb
  %65 = call %"cls.acjs::JsVariant"* @_ZN14altered_carbon2js9JsVariantaSEx(%"cls.acjs::JsVariant"* %vptr13, i64 100)
  %66 = call i1 @_ZNK14altered_carbon2js9JsVariantltERKS1_(%"cls.acjs::JsVariant"* %vptr6, %"cls.acjs::JsVariant"* %vptr13)
  br i1 %66, label %lpalloc.bb, label %lpexit.bb

lpalloc.bb7:                                      ; preds = %dowhile.bb, %cond.bb11
  br label %dowhile.bb8

dowhile.bb8:                                      ; preds = %lpalloc.bb7
  %67 = call %"cls.acjs::JsVariant"* @_ZN14altered_carbon2js9JsVariantdVERKS1_(%"cls.acjs::JsVariant"* %vptr6, %"cls.acjs::JsVariant"* %vptr)
  br label %lpinc.bb9

lpinc.bb9:                                        ; preds = %dowhile.bb8
  br label %cond.bb11

lpexit.bb10:                                      ; preds = %cond.bb11
  br label %lpinc.bb

cond.bb11:                                        ; preds = %lpinc.bb9
  %68 = call %"cls.acjs::JsVariant"* @_ZN14altered_carbon2js9JsVariantaSEx(%"cls.acjs::JsVariant"* %vptr12, i64 1)
  %69 = call i1 @_ZNK14altered_carbon2js9JsVariantgtERKS1_(%"cls.acjs::JsVariant"* %vptr6, %"cls.acjs::JsVariant"* %vptr12)
  br i1 %69, label %lpalloc.bb7, label %lpexit.bb10

ret.lhs:                                          ; preds = %lpexit.bb
  br label %blkalloc.bb15

ret.rhs:                                          ; preds = %lpexit.bb
  br label %blkalloc.bb19

ret.op:                                           ; preds = %blkalloc.bb19e, %blkalloc.bb15e
  br label %blkexit.bb

blkalloc.bb15:                                    ; preds = %ret.lhs
  br label %block16

block16:                                          ; preds = %blkalloc.bb15
  %70 = call %"cls.acjs::JsVariant"* @_ZN14altered_carbon2js9JsVariantaSEPKw(%"cls.acjs::JsVariant"* %vptr18, i32* getelementptr inbounds ([6 x i32], [6 x i32]* @.wstr, i32 0, i32 0))
  %71 = call %"cls.acjs::JsVariant"* @_ZN14altered_carbon2js9JsVariantaSERKS1_(%"cls.acjs::JsVariant"* %0, %"cls.acjs::JsVariant"* %vptr18)
  br label %exit.bb

blkexit.bb17:                                     ; No predecessors!
  br label %blkalloc.bb15e

blkalloc.bb15e:                                   ; preds = %blkexit.bb17
  br label %ret.op

blkalloc.bb19:                                    ; preds = %ret.rhs
  br label %block20

block20:                                          ; preds = %blkalloc.bb19
  %72 = call %"cls.acjs::JsVariant"* @_ZN14altered_carbon2js9JsVariantaSEPKw(%"cls.acjs::JsVariant"* %vptr22, i32* getelementptr inbounds ([4 x i32], [4 x i32]* @.wstr.1, i32 0, i32 0))
  %73 = call %"cls.acjs::JsVariant"* @_ZN14altered_carbon2js9JsVariantaSERKS1_(%"cls.acjs::JsVariant"* %0, %"cls.acjs::JsVariant"* %vptr22)
  br label %exit.bb

blkexit.bb21:                                     ; No predecessors!
  br label %blkalloc.bb19e

blkalloc.bb19e:                                   ; preds = %blkexit.bb21
  br label %ret.op

blkalloc.bbe:                                     ; preds = %blkexit.bb
  br label %exit.bb
}

declare %"cls.acjs::JsVariant"* @_ZN14altered_carbon2js9JsVariantaSEx(%"cls.acjs::JsVariant"*, i64)

declare %"cls.acjs::JsVariant"* @_ZN14altered_carbon2js9JsVariantaSEPKw(%"cls.acjs::JsVariant"*, i32*)
