; ModuleID = 'stmt_var4.js'
source_filename = "stmt_var4.js"

%"cls.acjs::JsVariant" = type { i32 (...)**, i32, %union.anon.6 }
%union.anon.6 = type { %"cls.acjs::JsVariantFunc", [24 x i8] }
%"cls.acjs::JsVariantFunc" = type { void (%"cls.acjs::JsVariant"*, %"cls.acjs::JsVariant"*, %"cls.acjs::JsVariant"**, i64)*, i32* }
%"str.acjs::JsVariantIterator" = type { %"cls.acjs::RefCountedPtr", %"cls.acjs::RBTreeNode"*, i32, i32 }
%"cls.acjs::RefCountedPtr" = type { %"cls.acjs::RefCounted"* }
%"cls.acjs::RefCounted" = type { %"cls.acjs::JsVariantArray", %"str.acjs::RefCounter" }
%"cls.acjs::JsVariantArray" = type { i32 (...)**, %"cls.acjs::RBTreeNode"* }
%"str.acjs::RefCounter" = type { %"struct.std::__1::__atomic" }
%"struct.std::__1::__atomic" = type { %"struct.std::__1::__atomic_base.9" }
%"struct.std::__1::__atomic_base.9" = type { %"struct.std::__1::__atomic_base" }
%"struct.std::__1::__atomic_base" = type { i64 }
%"cls.acjs::RBTreeNode" = type { i32 (...)**, i32, i32, i32, i32, %"cls.acjs::RBTreeNode"*, %"cls.acjs::RBTreeNode"*, %"cls.acjs::RBTreeNode"*, %"struct.std::__1::__vector" }
%"struct.std::__1::__vector" = type { %"struct.std::__1::__vector_base" }
%"struct.std::__1::__vector_base" = type { %"cls.acjs::JsVariant"**, %"cls.acjs::JsVariant"**, %"class.std::__1::__compressed_pair.8" }
%"class.std::__1::__compressed_pair.8" = type { %"struct.std::__1::__compressed_pair_elem.7" }
%"struct.std::__1::__compressed_pair_elem.7" = type { %"cls.acjs::JsVariant"** }
%"cls.acjs::JsVariantNumber" = type <{ i64, double, i8, [16 x i8] }>

@_ZTVN10__cxxabiv117__class_type_infoE = external global i8*
@_ZTSN14altered_carbon2js9JsVariantE = linkonce_odr constant [32 x i8] c"N14altered_carbon2js9JsVariantE\00"
@_ZTIN14altered_carbon2js9JsVariantE = linkonce_odr constant { i8*, i8* } { i8* bitcast (i8** getelementptr inbounds (i8*, i8** @_ZTVN10__cxxabiv117__class_type_infoE, i64 2) to i8*), i8* getelementptr inbounds ([32 x i8], [32 x i8]* @_ZTSN14altered_carbon2js9JsVariantE, i32 0, i32 0) }
@_ZTVN14altered_carbon2js9JsVariantE = linkonce_odr unnamed_addr constant { [4 x i8*] } { [4 x i8*] [i8* null, i8* bitcast ({ i8*, i8* }* @_ZTIN14altered_carbon2js9JsVariantE to i8*), i8* bitcast (void (%"cls.acjs::JsVariant"*)* @_ZN14altered_carbon2js9JsVariantD1Ev to i8*), i8* bitcast (void (%"cls.acjs::JsVariant"*)* @_ZN14altered_carbon2js9JsVariantD0Ev to i8*)] }, align 8
@_ZTVN14altered_carbon2js9JsVariantE_GEP = internal constant i8** getelementptr inbounds ({ [4 x i8*] }, { [4 x i8*] }* @_ZTVN14altered_carbon2js9JsVariantE, i32 0, inrange i32 0, i32 2)
@_ZN14altered_carbon2js11JsConstants9UndefinedE = external constant %"cls.acjs::JsVariant"
@_ZN14altered_carbon2js11JsConstants4NullE = external constant %"cls.acjs::JsVariant"
@_ZN14altered_carbon2js11JsConstants3NaNE = external constant %"cls.acjs::JsVariant"
@_ZN14altered_carbon2js11JsConstants8InfinityE = external constant %"cls.acjs::JsVariant"
@_ZN14altered_carbon2js11JsConstants9TypeErrorE = external constant %"cls.acjs::JsVariant"
@_ZN14altered_carbon2js11JsConstants16NullPointerErrorE = external constant %"cls.acjs::JsVariant"
@_ZN14altered_carbon2js11JsConstants3EndE = external constant %"str.acjs::JsVariantIterator"
@_ZN14altered_carbon2js11JsConstants4REndE = external constant %"str.acjs::JsVariantIterator"
@.wstr = private unnamed_addr constant [65 x i32] [i32 47, i32 47, i32 105, i32 109, i32 97, i32 115, i32 100, i32 107, i32 46, i32 103, i32 111, i32 111, i32 103, i32 108, i32 101, i32 97, i32 112, i32 105, i32 115, i32 46, i32 99, i32 111, i32 109, i32 47, i32 97, i32 100, i32 109, i32 111, i32 98, i32 47, i32 115, i32 100, i32 107, i32 108, i32 111, i32 97, i32 100, i32 101, i32 114, i32 47, i32 110, i32 97, i32 116, i32 105, i32 118, i32 101, i32 95, i32 118, i32 105, i32 100, i32 101, i32 111, i32 95, i32 99, i32 97, i32 110, i32 97, i32 114, i32 121, i32 46, i32 104, i32 116, i32 109, i32 108, i32 0], align 4
@.wstr.1 = private unnamed_addr constant [13 x i32] [i32 49, i32 49, i32 48, i32 50, i32 49, i32 48, i32 48, i32 48, i32 46, i32 48, i32 46, i32 48, i32 0], align 4
@.wstr.2 = private unnamed_addr constant [13 x i32] [i32 49, i32 49, i32 56, i32 48, i32 48, i32 48, i32 48, i32 48, i32 46, i32 48, i32 46, i32 48, i32 0], align 4
@.wstr.3 = private unnamed_addr constant [13 x i32] [i32 49, i32 50, i32 50, i32 48, i32 48, i32 48, i32 48, i32 48, i32 46, i32 48, i32 46, i32 48, i32 0], align 4
@.wstr.4 = private unnamed_addr constant [13 x i32] [i32 49, i32 50, i32 52, i32 48, i32 48, i32 48, i32 48, i32 48, i32 46, i32 48, i32 46, i32 48, i32 0], align 4
@.wstr.5 = private unnamed_addr constant [13 x i32] [i32 49, i32 51, i32 48, i32 48, i32 48, i32 48, i32 48, i32 48, i32 46, i32 48, i32 46, i32 48, i32 0], align 4
@.wstr.6 = private unnamed_addr constant [10 x i32] [i32 51, i32 49, i32 56, i32 52, i32 56, i32 48, i32 56, i32 56, i32 49, i32 0], align 4
@.wstr.7 = private unnamed_addr constant [10 x i32] [i32 51, i32 49, i32 56, i32 52, i32 56, i32 48, i32 56, i32 56, i32 50, i32 0], align 4
@.wstr.8 = private unnamed_addr constant [10 x i32] [i32 51, i32 50, i32 48, i32 120, i32 53, i32 48, i32 95, i32 109, i32 98, i32 0], align 4
@.wstr.9 = private unnamed_addr constant [3 x i32] [i32 51, i32 103, i32 0], align 4
@.wstr.10 = private unnamed_addr constant [7 x i32] [i32 55, i32 46, i32 51, i32 48, i32 46, i32 48, i32 0], align 4
@.wstr.11 = private unnamed_addr constant [12 x i32] [i32 55, i32 48, i32 48, i32 48, i32 48, i32 48, i32 48, i32 46, i32 48, i32 46, i32 48, i32 0], align 4
@.wstr.12 = private unnamed_addr constant [12 x i32] [i32 55, i32 50, i32 48, i32 48, i32 48, i32 48, i32 48, i32 46, i32 48, i32 46, i32 48, i32 0], align 4
@.wstr.13 = private unnamed_addr constant [12 x i32] [i32 57, i32 48, i32 52, i32 55, i32 48, i32 48, i32 48, i32 46, i32 48, i32 46, i32 48, i32 0], align 4
@.wstr.14 = private unnamed_addr constant [337 x i32] [i32 67, i32 77, i32 45, i32 85, i32 104, i32 101, i32 111, i32 70, i32 69, i32 118, i32 77, i32 66, i32 67, i32 117, i32 89, i32 66, i32 67, i32 106, i32 49, i32 48, i32 101, i32 88, i32 66, i32 108, i32 76, i32 109, i32 100, i32 118, i32 98, i32 50, i32 100, i32 115, i32 90, i32 87, i32 70, i32 119, i32 97, i32 88, i32 77, i32 117, i32 89, i32 50, i32 57, i32 116, i32 76, i32 50, i32 100, i32 118, i32 98, i32 50, i32 100, i32 115, i32 90, i32 83, i32 53, i32 106, i32 99, i32 110, i32 108, i32 119, i32 100, i32 71, i32 56, i32 117, i32 100, i32 71, i32 108, i32 117, i32 97, i32 121, i32 53, i32 70, i32 89, i32 50, i32 108, i32 108, i32 99, i32 48, i32 70, i32 108, i32 89, i32 87, i32 82, i32 73, i32 97, i32 50, i32 82, i32 109, i32 85, i32 72, i32 86, i32 105, i32 98, i32 71, i32 108, i32 106, i32 83, i32 50, i32 86, i32 53, i32 69, i32 113, i32 73, i32 66, i32 69, i32 108, i32 111, i32 75, i32 66, i32 65, i32 103, i32 67, i32 69, i32 65, i32 77, i32 83, i32 85, i32 66, i32 74, i32 79, i32 67, i32 106, i32 104, i32 48, i32 101, i32 88, i32 66, i32 108, i32 76, i32 109, i32 100, i32 118, i32 98, i32 50, i32 100, i32 115, i32 90, i32 87, i32 70, i32 119, i32 97, i32 88, i32 77, i32 117, i32 89, i32 50, i32 57, i32 116, i32 76, i32 50, i32 100, i32 118, i32 98, i32 50, i32 100, i32 115, i32 90, i32 83, i32 53, i32 106, i32 99, i32 110, i32 108, i32 119, i32 100, i32 71, i32 56, i32 117, i32 100, i32 71, i32 108, i32 117, i32 97, i32 121, i32 53, i32 66, i32 90, i32 88, i32 78, i32 68, i32 100, i32 72, i32 74, i32 73, i32 98, i32 87, i32 70, i32 106, i32 81, i32 87, i32 86, i32 104, i32 90, i32 69, i32 116, i32 108, i32 101, i32 82, i32 73, i32 83, i32 67, i32 103, i32 89, i32 75, i32 65, i32 103, i32 103, i32 81, i32 69, i32 66, i32 65, i32 83, i32 67, i32 65, i32 111, i32 69, i32 67, i32 65, i32 77, i32 81, i32 69, i32 66, i32 65, i32 103, i32 71, i32 65, i32 69, i32 97, i32 73, i32 81, i32 67, i32 86, i32 114, i32 122, i32 69, i32 104, i32 121, i32 50, i32 98, i32 50, i32 69, i32 116, i32 115, i32 114, i32 51, i32 86, i32 73, i32 68, i32 99, i32 49, i32 80, i32 118, i32 74, i32 48, i32 88, i32 117, i32 109, i32 68, i32 102, i32 69, i32 48, i32 56, i32 51, i32 86, i32 78, i32 106, i32 79, i32 82, i32 95, i32 49, i32 105, i32 120, i32 65, i32 67, i32 73, i32 104, i32 65, i32 77, i32 113, i32 89, i32 121, i32 120, i32 45, i32 55, i32 73, i32 115, i32 81, i32 69, i32 98, i32 83, i32 103, i32 81, i32 105, i32 75, i32 48, i32 81, i32 52, i32 74, i32 68, i32 109, i32 76, i32 104, i32 49, i32 103, i32 90, i32 80, i32 50, i32 109, i32 102, i32 97, i32 73, i32 76, i32 53, i32 74, i32 122, i32 122, i32 57, i32 72, i32 120, i32 82, i32 71, i32 65, i32 77, i32 81, i32 65, i32 82, i32 106, i32 80, i32 108, i32 73, i32 88, i32 113, i32 66, i32 83, i32 65, i32 66, i32 0], align 4
@.wstr.15 = private unnamed_addr constant [15 x i32] [i32 67, i32 111, i32 110, i32 116, i32 101, i32 110, i32 116, i32 45, i32 76, i32 101, i32 110, i32 103, i32 116, i32 104, i32 0], align 4
@.wstr.16 = private unnamed_addr constant [13 x i32] [i32 67, i32 111, i32 110, i32 116, i32 101, i32 110, i32 116, i32 45, i32 84, i32 121, i32 112, i32 101, i32 0], align 4
@.wstr.17 = private unnamed_addr constant [15 x i32] [i32 67, i32 117, i32 115, i32 116, i32 111, i32 109, i32 82, i32 101, i32 110, i32 100, i32 101, i32 114, i32 101, i32 114, i32 0], align 4
@.wstr.18 = private unnamed_addr constant [17 x i32] [i32 68, i32 79, i32 77, i32 67, i32 111, i32 110, i32 116, i32 101, i32 110, i32 116, i32 76, i32 111, i32 97, i32 100, i32 101, i32 100, i32 0], align 4
@.wstr.19 = private unnamed_addr constant [19 x i32] [i32 70, i32 105, i32 114, i32 115, i32 116, i32 80, i32 97, i32 114, i32 116, i32 121, i32 82, i32 101, i32 110, i32 100, i32 101, i32 114, i32 101, i32 114, i32 0], align 4
@.wstr.20 = private unnamed_addr constant [25 x i32] [i32 70, i32 105, i32 114, i32 115, i32 116, i32 80, i32 97, i32 114, i32 116, i32 121, i32 82, i32 101, i32 110, i32 100, i32 101, i32 114, i32 101, i32 114, i32 66, i32 97, i32 110, i32 110, i32 101, i32 114, i32 0], align 4
@.wstr.21 = private unnamed_addr constant [31 x i32] [i32 70, i32 105, i32 114, i32 115, i32 116, i32 80, i32 97, i32 114, i32 116, i32 121, i32 82, i32 101, i32 110, i32 100, i32 101, i32 114, i32 101, i32 114, i32 73, i32 110, i32 116, i32 101, i32 114, i32 115, i32 116, i32 105, i32 116, i32 105, i32 97, i32 108, i32 0], align 4
@.wstr.22 = private unnamed_addr constant [36 x i32] [i32 71, i32 65, i32 68, i32 69, i32 110, i32 97, i32 98, i32 108, i32 101, i32 79, i32 112, i32 101, i32 110, i32 73, i32 110, i32 83, i32 97, i32 102, i32 97, i32 114, i32 105, i32 86, i32 105, i32 101, i32 119, i32 67, i32 111, i32 110, i32 116, i32 114, i32 111, i32 108, i32 108, i32 101, i32 114, i32 0], align 4
@.wstr.23 = private unnamed_addr constant [24 x i32] [i32 71, i32 65, i32 68, i32 77, i32 65, i32 100, i32 97, i32 112, i32 116, i32 101, i32 114, i32 67, i32 117, i32 115, i32 116, i32 111, i32 109, i32 69, i32 118, i32 101, i32 110, i32 116, i32 115, i32 0], align 4
@.wstr.24 = private unnamed_addr constant [26 x i32] [i32 71, i32 65, i32 68, i32 77, i32 65, i32 100, i32 97, i32 112, i32 116, i32 101, i32 114, i32 71, i32 111, i32 111, i32 103, i32 108, i32 101, i32 65, i32 100, i32 77, i32 111, i32 98, i32 65, i32 100, i32 115, i32 0], align 4
@.wstr.25 = private unnamed_addr constant [37 x i32] [i32 71, i32 65, i32 68, i32 78, i32 73, i32 110, i32 108, i32 105, i32 110, i32 101, i32 82, i32 101, i32 119, i32 97, i32 114, i32 100, i32 66, i32 97, i32 115, i32 101, i32 100, i32 86, i32 105, i32 100, i32 101, i32 111, i32 65, i32 100, i32 82, i32 101, i32 110, i32 100, i32 101, i32 114, i32 101, i32 114, i32 0], align 4
@.wstr.26 = private unnamed_addr constant [40 x i32] [i32 71, i32 65, i32 68, i32 78, i32 77, i32 101, i32 100, i32 105, i32 97, i32 116, i32 105, i32 111, i32 110, i32 82, i32 101, i32 119, i32 97, i32 114, i32 100, i32 66, i32 97, i32 115, i32 101, i32 100, i32 86, i32 105, i32 100, i32 101, i32 111, i32 65, i32 100, i32 82, i32 101, i32 110, i32 100, i32 101, i32 114, i32 101, i32 114, i32 0], align 4
@.wstr.27 = private unnamed_addr constant [32 x i32] [i32 71, i32 65, i32 68, i32 78, i32 77, i32 101, i32 100, i32 105, i32 97, i32 116, i32 105, i32 111, i32 110, i32 82, i32 101, i32 119, i32 97, i32 114, i32 100, i32 101, i32 100, i32 65, i32 100, i32 82, i32 101, i32 110, i32 100, i32 101, i32 114, i32 101, i32 114, i32 0], align 4
@.wstr.28 = private unnamed_addr constant [43 x i32] [i32 71, i32 65, i32 68, i32 78, i32 82, i32 84, i32 66, i32 77, i32 101, i32 100, i32 105, i32 97, i32 116, i32 105, i32 111, i32 110, i32 82, i32 101, i32 119, i32 97, i32 114, i32 100, i32 66, i32 97, i32 115, i32 101, i32 100, i32 86, i32 105, i32 100, i32 101, i32 111, i32 65, i32 100, i32 82, i32 101, i32 110, i32 100, i32 101, i32 114, i32 101, i32 114, i32 0], align 4
@.wstr.29 = private unnamed_addr constant [24 x i32] [i32 71, i32 65, i32 68, i32 78, i32 82, i32 101, i32 99, i32 117, i32 114, i32 115, i32 105, i32 118, i32 101, i32 65, i32 100, i32 82, i32 101, i32 110, i32 100, i32 101, i32 114, i32 101, i32 114, i32 0], align 4
@.wstr.30 = private unnamed_addr constant [21 x i32] [i32 73, i32 108, i32 108, i32 101, i32 103, i32 97, i32 108, i32 32, i32 115, i32 104, i32 105, i32 102, i32 116, i32 32, i32 118, i32 97, i32 108, i32 117, i32 101, i32 46, i32 0], align 4
@.wstr.31 = private unnamed_addr constant [18 x i32] [i32 73, i32 110, i32 118, i32 97, i32 108, i32 105, i32 100, i32 32, i32 114, i32 101, i32 115, i32 112, i32 111, i32 110, i32 115, i32 101, i32 46, i32 0], align 4
@.wstr.32 = private unnamed_addr constant [18 x i32] [i32 77, i32 101, i32 115, i32 115, i32 97, i32 103, i32 101, i32 32, i32 116, i32 111, i32 111, i32 32, i32 108, i32 111, i32 110, i32 103, i32 46, i32 0], align 4
@.wstr.33 = private unnamed_addr constant [18 x i32] [i32 82, i32 101, i32 99, i32 117, i32 114, i32 115, i32 105, i32 118, i32 101, i32 82, i32 101, i32 110, i32 100, i32 101, i32 114, i32 101, i32 114, i32 0], align 4
@.wstr.34 = private unnamed_addr constant [18 x i32] [i32 82, i32 116, i32 98, i32 82, i32 101, i32 110, i32 100, i32 101, i32 114, i32 101, i32 114, i32 66, i32 97, i32 110, i32 110, i32 101, i32 114, i32 0], align 4
@.wstr.35 = private unnamed_addr constant [24 x i32] [i32 82, i32 116, i32 98, i32 82, i32 101, i32 110, i32 100, i32 101, i32 114, i32 101, i32 114, i32 73, i32 110, i32 116, i32 101, i32 114, i32 115, i32 116, i32 105, i32 116, i32 105, i32 97, i32 108, i32 0], align 4
@.wstr.36 = private unnamed_addr constant [18 x i32] [i32 82, i32 116, i32 98, i32 82, i32 101, i32 110, i32 100, i32 101, i32 114, i32 101, i32 114, i32 78, i32 97, i32 116, i32 105, i32 118, i32 101, i32 0], align 4
@.wstr.37 = private unnamed_addr constant [20 x i32] [i32 82, i32 116, i32 98, i32 82, i32 101, i32 110, i32 100, i32 101, i32 114, i32 101, i32 114, i32 82, i32 101, i32 119, i32 97, i32 114, i32 100, i32 101, i32 100, i32 0], align 4
@.wstr.38 = private unnamed_addr constant [49 x i32] [i32 83, i32 116, i32 111, i32 114, i32 97, i32 103, i32 101, i32 32, i32 109, i32 101, i32 99, i32 104, i32 97, i32 110, i32 105, i32 115, i32 109, i32 58, i32 32, i32 73, i32 110, i32 118, i32 97, i32 108, i32 105, i32 100, i32 32, i32 118, i32 97, i32 108, i32 117, i32 101, i32 32, i32 119, i32 97, i32 115, i32 32, i32 101, i32 110, i32 99, i32 111, i32 117, i32 110, i32 116, i32 101, i32 114, i32 101, i32 100, i32 0], align 4
@.wstr.39 = private unnamed_addr constant [39 x i32] [i32 83, i32 116, i32 111, i32 114, i32 97, i32 103, i32 101, i32 58, i32 32, i32 73, i32 110, i32 118, i32 97, i32 108, i32 105, i32 100, i32 32, i32 118, i32 97, i32 108, i32 117, i32 101, i32 32, i32 119, i32 97, i32 115, i32 32, i32 101, i32 110, i32 99, i32 111, i32 117, i32 110, i32 116, i32 101, i32 114, i32 101, i32 100, i32 0], align 4
@.wstr.40 = private unnamed_addr constant [19 x i32] [i32 84, i32 104, i32 105, i32 114, i32 100, i32 80, i32 97, i32 114, i32 116, i32 121, i32 82, i32 101, i32 110, i32 100, i32 101, i32 114, i32 101, i32 114, i32 0], align 4
@.wstr.41 = private unnamed_addr constant [25 x i32] [i32 84, i32 104, i32 105, i32 114, i32 100, i32 80, i32 97, i32 114, i32 116, i32 121, i32 82, i32 101, i32 110, i32 100, i32 101, i32 114, i32 101, i32 114, i32 66, i32 97, i32 110, i32 110, i32 101, i32 114, i32 0], align 4
@.wstr.42 = private unnamed_addr constant [25 x i32] [i32 84, i32 104, i32 105, i32 114, i32 100, i32 80, i32 97, i32 114, i32 116, i32 121, i32 82, i32 101, i32 110, i32 100, i32 101, i32 114, i32 101, i32 114, i32 78, i32 97, i32 116, i32 105, i32 118, i32 101, i32 0], align 4
@.wstr.43 = private unnamed_addr constant [27 x i32] [i32 84, i32 104, i32 105, i32 114, i32 100, i32 80, i32 97, i32 114, i32 116, i32 121, i32 82, i32 101, i32 110, i32 100, i32 101, i32 114, i32 101, i32 114, i32 82, i32 101, i32 119, i32 97, i32 114, i32 100, i32 101, i32 100, i32 0], align 4
@.wstr.44 = private unnamed_addr constant [29 x i32] [i32 84, i32 104, i32 105, i32 114, i32 100, i32 80, i32 97, i32 114, i32 116, i32 121, i32 82, i32 101, i32 110, i32 100, i32 101, i32 114, i32 101, i32 114, i32 82, i32 101, i32 119, i32 97, i32 114, i32 100, i32 101, i32 100, i32 65, i32 100, i32 0], align 4
@.wstr.45 = private unnamed_addr constant [23 x i32] [i32 89, i32 111, i32 117, i32 32, i32 97, i32 114, i32 101, i32 32, i32 117, i32 115, i32 105, i32 110, i32 103, i32 32, i32 118, i32 101, i32 114, i32 115, i32 105, i32 111, i32 110, i32 32, i32 0], align 4
@.wstr.46 = private unnamed_addr constant [15 x i32] [i32 97, i32 100, i32 109, i32 111, i32 98, i32 95, i32 97, i32 112, i32 112, i32 95, i32 110, i32 97, i32 109, i32 101, i32 0], align 4
@.wstr.47 = private unnamed_addr constant [19 x i32] [i32 97, i32 112, i32 112, i32 83, i32 101, i32 116, i32 116, i32 105, i32 110, i32 103, i32 115, i32 70, i32 101, i32 116, i32 99, i32 104, i32 101, i32 100, i32 0], align 4
@.wstr.48 = private unnamed_addr constant [6 x i32] [i32 97, i32 114, i32 114, i32 97, i32 121, i32 0], align 4
@.wstr.49 = private unnamed_addr constant [7 x i32] [i32 98, i32 97, i32 110, i32 110, i32 101, i32 114, i32 0], align 4
@.wstr.50 = private unnamed_addr constant [15 x i32] [i32 99, i32 108, i32 101, i32 97, i32 114, i32 99, i32 117, i32 116, i32 108, i32 111, i32 103, i32 46, i32 106, i32 115, i32 0], align 4
@.wstr.51 = private unnamed_addr constant [11 x i32] [i32 99, i32 108, i32 105, i32 99, i32 107, i32 95, i32 117, i32 114, i32 108, i32 115, i32 0], align 4
@.wstr.52 = private unnamed_addr constant [44 x i32] [i32 99, i32 111, i32 109, i32 46, i32 103, i32 111, i32 111, i32 103, i32 108, i32 101, i32 46, i32 97, i32 100, i32 115, i32 46, i32 109, i32 101, i32 100, i32 105, i32 97, i32 116, i32 105, i32 111, i32 110, i32 46, i32 97, i32 100, i32 109, i32 111, i32 98, i32 46, i32 65, i32 100, i32 77, i32 111, i32 98, i32 65, i32 100, i32 97, i32 112, i32 116, i32 101, i32 114, i32 0], align 4
@.wstr.53 = private unnamed_addr constant [68 x i32] [i32 99, i32 111, i32 109, i32 46, i32 103, i32 111, i32 111, i32 103, i32 108, i32 101, i32 46, i32 97, i32 110, i32 100, i32 114, i32 111, i32 105, i32 100, i32 46, i32 103, i32 109, i32 115, i32 46, i32 97, i32 100, i32 115, i32 46, i32 109, i32 101, i32 100, i32 105, i32 97, i32 116, i32 105, i32 111, i32 110, i32 46, i32 99, i32 117, i32 115, i32 116, i32 111, i32 109, i32 101, i32 118, i32 101, i32 110, i32 116, i32 46, i32 67, i32 117, i32 115, i32 116, i32 111, i32 109, i32 69, i32 118, i32 101, i32 110, i32 116, i32 65, i32 100, i32 97, i32 112, i32 116, i32 101, i32 114, i32 0], align 4
@.wstr.54 = private unnamed_addr constant [9 x i32] [i32 99, i32 111, i32 109, i32 112, i32 108, i32 101, i32 116, i32 101, i32 0], align 4
@.wstr.55 = private unnamed_addr constant [16 x i32] [i32 100, i32 101, i32 108, i32 97, i32 121, i32 80, i32 97, i32 103, i32 101, i32 67, i32 108, i32 111, i32 115, i32 101, i32 100, i32 0], align 4
@.wstr.56 = private unnamed_addr constant [16 x i32] [i32 100, i32 101, i32 108, i32 97, i32 121, i32 80, i32 97, i32 103, i32 101, i32 76, i32 111, i32 97, i32 100, i32 101, i32 100, i32 0], align 4
@.wstr.57 = private unnamed_addr constant [30 x i32] [i32 100, i32 105, i32 115, i32 97, i32 98, i32 108, i32 101, i32 95, i32 97, i32 99, i32 116, i32 105, i32 118, i32 97, i32 116, i32 105, i32 111, i32 110, i32 95, i32 97, i32 110, i32 100, i32 95, i32 115, i32 99, i32 114, i32 111, i32 108, i32 108, i32 0], align 4
@.wstr.58 = private unnamed_addr constant [27 x i32] [i32 100, i32 111, i32 119, i32 110, i32 108, i32 111, i32 97, i32 100, i32 101, i32 100, i32 95, i32 105, i32 109, i32 112, i32 114, i32 101, i32 115, i32 115, i32 105, i32 111, i32 110, i32 95, i32 117, i32 114, i32 108, i32 115, i32 0], align 4
@.wstr.59 = private unnamed_addr constant [18 x i32] [i32 101, i32 109, i32 112, i32 116, i32 121, i32 45, i32 99, i32 108, i32 105, i32 99, i32 107, i32 115, i32 116, i32 114, i32 105, i32 110, i32 103, i32 0], align 4
@.wstr.60 = private unnamed_addr constant [6 x i32] [i32 101, i32 114, i32 114, i32 111, i32 114, i32 0], align 4
@.wstr.61 = private unnamed_addr constant [19 x i32] [i32 101, i32 120, i32 112, i32 101, i32 114, i32 105, i32 109, i32 101, i32 110, i32 116, i32 95, i32 115, i32 101, i32 101, i32 100, i32 95, i32 118, i32 50, i32 0], align 4
@.wstr.62 = private unnamed_addr constant [26 x i32] [i32 102, i32 101, i32 116, i32 99, i32 104, i32 72, i32 116, i32 116, i32 112, i32 82, i32 101, i32 113, i32 117, i32 101, i32 115, i32 116, i32 67, i32 111, i32 109, i32 112, i32 108, i32 101, i32 116, i32 101, i32 100, i32 0], align 4
@.wstr.63 = private unnamed_addr constant [9 x i32] [i32 102, i32 117, i32 110, i32 99, i32 116, i32 105, i32 111, i32 110, i32 0], align 4
@.wstr.64 = private unnamed_addr constant [22 x i32] [i32 103, i32 97, i32 100, i32 95, i32 112, i32 114, i32 101, i32 102, i32 101, i32 114, i32 114, i32 101, i32 100, i32 95, i32 119, i32 101, i32 98, i32 118, i32 105, i32 101, i32 119, i32 0], align 4
@.wstr.65 = private unnamed_addr constant [7 x i32] [i32 103, i32 99, i32 97, i32 99, i32 104, i32 101, i32 0], align 4
@.wstr.66 = private unnamed_addr constant [21 x i32] [i32 103, i32 109, i32 111, i32 98, i32 45, i32 97, i32 112, i32 112, i32 115, i32 45, i32 97, i32 99, i32 116, i32 105, i32 118, i32 101, i32 118, i32 105, i32 101, i32 119, i32 0], align 4
@.wstr.67 = private unnamed_addr constant [28 x i32] [i32 103, i32 111, i32 111, i32 103, i32 108, i32 101, i32 97, i32 100, i32 115, i32 46, i32 103, i32 46, i32 100, i32 111, i32 117, i32 98, i32 108, i32 101, i32 99, i32 108, i32 105, i32 99, i32 107, i32 46, i32 110, i32 101, i32 116, i32 0], align 4
@.wstr.68 = private unnamed_addr constant [7 x i32] [i32 104, i32 101, i32 105, i32 103, i32 104, i32 116, i32 0], align 4
@.wstr.69 = private unnamed_addr constant [5 x i32] [i32 104, i32 116, i32 116, i32 112, i32 0], align 4
@.wstr.70 = private unnamed_addr constant [16 x i32] [i32 104, i32 116, i32 116, i32 112, i32 95, i32 114, i32 101, i32 113, i32 117, i32 101, i32 115, i32 116, i32 95, i32 105, i32 100, i32 0], align 4
@.wstr.71 = private unnamed_addr constant [64 x i32] [i32 104, i32 116, i32 116, i32 112, i32 115, i32 58, i32 47, i32 47, i32 105, i32 109, i32 97, i32 115, i32 100, i32 107, i32 46, i32 103, i32 111, i32 111, i32 103, i32 108, i32 101, i32 97, i32 112, i32 105, i32 115, i32 46, i32 99, i32 111, i32 109, i32 47, i32 97, i32 100, i32 109, i32 111, i32 98, i32 47, i32 115, i32 100, i32 107, i32 108, i32 111, i32 97, i32 100, i32 101, i32 114, i32 47, i32 110, i32 97, i32 116, i32 105, i32 118, i32 101, i32 95, i32 118, i32 105, i32 100, i32 101, i32 111, i32 46, i32 104, i32 116, i32 109, i32 108, i32 0], align 4
@.wstr.72 = private unnamed_addr constant [71 x i32] [i32 104, i32 116, i32 116, i32 112, i32 115, i32 58, i32 47, i32 47, i32 105, i32 109, i32 97, i32 115, i32 100, i32 107, i32 46, i32 103, i32 111, i32 111, i32 103, i32 108, i32 101, i32 97, i32 112, i32 105, i32 115, i32 46, i32 99, i32 111, i32 109, i32 47, i32 97, i32 100, i32 109, i32 111, i32 98, i32 47, i32 115, i32 100, i32 107, i32 108, i32 111, i32 97, i32 100, i32 101, i32 114, i32 47, i32 110, i32 97, i32 116, i32 105, i32 118, i32 101, i32 95, i32 118, i32 105, i32 100, i32 101, i32 111, i32 95, i32 99, i32 97, i32 110, i32 97, i32 114, i32 121, i32 46, i32 104, i32 116, i32 109, i32 108, i32 0], align 4
@.wstr.73 = private unnamed_addr constant [16 x i32] [i32 105, i32 109, i32 112, i32 114, i32 101, i32 115, i32 115, i32 105, i32 111, i32 110, i32 95, i32 117, i32 114, i32 108, i32 115, i32 0], align 4
@.wstr.74 = private unnamed_addr constant [7 x i32] [i32 105, i32 110, i32 108, i32 105, i32 110, i32 101, i32 0], align 4
@.wstr.75 = private unnamed_addr constant [12 x i32] [i32 105, i32 110, i32 108, i32 105, i32 110, i32 101, i32 86, i32 105, i32 100, i32 101, i32 111, i32 0], align 4
@.wstr.76 = private unnamed_addr constant [17 x i32] [i32 105, i32 110, i32 116, i32 101, i32 114, i32 97, i32 99, i32 116, i32 105, i32 118, i32 101, i32 86, i32 105, i32 100, i32 101, i32 111, i32 0], align 4
@.wstr.77 = private unnamed_addr constant [13 x i32] [i32 105, i32 110, i32 116, i32 101, i32 114, i32 115, i32 116, i32 105, i32 116, i32 105, i32 97, i32 108, i32 0], align 4
@.wstr.78 = private unnamed_addr constant [16 x i32] [i32 105, i32 110, i32 116, i32 101, i32 114, i32 115, i32 116, i32 105, i32 116, i32 105, i32 97, i32 108, i32 95, i32 109, i32 98, i32 0], align 4
@.wstr.79 = private unnamed_addr constant [15 x i32] [i32 105, i32 110, i32 118, i32 97, i32 108, i32 105, i32 100, i32 82, i32 101, i32 113, i32 117, i32 101, i32 115, i32 116, i32 0], align 4
@.wstr.80 = private unnamed_addr constant [15 x i32] [i32 105, i32 111, i32 115, i32 95, i32 105, i32 110, i32 102, i32 111, i32 95, i32 112, i32 108, i32 105, i32 115, i32 116, i32 0], align 4
@.wstr.81 = private unnamed_addr constant [6 x i32] [i32 105, i32 112, i32 100, i32 111, i32 102, i32 0], align 4
@.wstr.82 = private unnamed_addr constant [10 x i32] [i32 108, i32 97, i32 110, i32 100, i32 115, i32 99, i32 97, i32 112, i32 101, i32 0], align 4
@.wstr.83 = private unnamed_addr constant [5 x i32] [i32 108, i32 111, i32 110, i32 103, i32 0], align 4
@.wstr.84 = private unnamed_addr constant [23 x i32] [i32 109, i32 97, i32 110, i32 117, i32 97, i32 108, i32 95, i32 105, i32 109, i32 112, i32 114, i32 101, i32 115, i32 115, i32 105, i32 111, i32 110, i32 95, i32 117, i32 114, i32 108, i32 115, i32 0], align 4
@.wstr.85 = private unnamed_addr constant [10 x i32] [i32 109, i32 101, i32 100, i32 105, i32 97, i32 116, i32 105, i32 111, i32 110, i32 0], align 4
@.wstr.86 = private unnamed_addr constant [29 x i32] [i32 109, i32 114, i32 97, i32 105, i32 100, i32 47, i32 118, i32 50, i32 47, i32 109, i32 114, i32 97, i32 105, i32 100, i32 95, i32 97, i32 112, i32 112, i32 95, i32 98, i32 97, i32 110, i32 110, i32 101, i32 114, i32 46, i32 106, i32 115, i32 0], align 4
@.wstr.87 = private unnamed_addr constant [38 x i32] [i32 109, i32 114, i32 97, i32 105, i32 100, i32 47, i32 118, i32 50, i32 47, i32 109, i32 114, i32 97, i32 105, i32 100, i32 95, i32 97, i32 112, i32 112, i32 95, i32 101, i32 120, i32 112, i32 97, i32 110, i32 100, i32 101, i32 100, i32 95, i32 98, i32 97, i32 110, i32 110, i32 101, i32 114, i32 46, i32 106, i32 115, i32 0], align 4
@.wstr.88 = private unnamed_addr constant [35 x i32] [i32 109, i32 114, i32 97, i32 105, i32 100, i32 47, i32 118, i32 50, i32 47, i32 109, i32 114, i32 97, i32 105, i32 100, i32 95, i32 97, i32 112, i32 112, i32 95, i32 105, i32 110, i32 116, i32 101, i32 114, i32 115, i32 116, i32 105, i32 116, i32 105, i32 97, i32 108, i32 46, i32 106, i32 115, i32 0], align 4
@.wstr.89 = private unnamed_addr constant [7 x i32] [i32 110, i32 97, i32 116, i32 105, i32 118, i32 101, i32 0], align 4
@.wstr.90 = private unnamed_addr constant [16 x i32] [i32 110, i32 97, i32 116, i32 105, i32 118, i32 101, i32 95, i32 97, i32 100, i32 115, i32 46, i32 104, i32 116, i32 109, i32 108, i32 0], align 4
@.wstr.91 = private unnamed_addr constant [15 x i32] [i32 110, i32 97, i32 116, i32 105, i32 118, i32 101, i32 95, i32 101, i32 120, i32 112, i32 114, i32 101, i32 115, i32 115, i32 0], align 4
@.wstr.92 = private unnamed_addr constant [7 x i32] [i32 110, i32 117, i32 109, i32 98, i32 101, i32 114, i32 0], align 4
@.wstr.93 = private unnamed_addr constant [7 x i32] [i32 111, i32 98, i32 106, i32 101, i32 99, i32 116, i32 0], align 4
@.wstr.94 = private unnamed_addr constant [12 x i32] [i32 111, i32 109, i32 105, i32 100, i32 95, i32 99, i32 111, i32 110, i32 102, i32 105, i32 103, i32 0], align 4
@.wstr.95 = private unnamed_addr constant [3 x i32] [i32 111, i32 110, i32 0], align 4
@.wstr.96 = private unnamed_addr constant [16 x i32] [i32 111, i32 112, i32 101, i32 110, i32 97, i32 98, i32 108, i32 101, i32 73, i32 110, i32 116, i32 101, i32 110, i32 116, i32 115, i32 0], align 4
@.wstr.97 = private unnamed_addr constant [13 x i32] [i32 111, i32 112, i32 101, i32 110, i32 97, i32 98, i32 108, i32 101, i32 85, i32 82, i32 76, i32 115, i32 0], align 4
@.wstr.98 = private unnamed_addr constant [30 x i32] [i32 112, i32 97, i32 103, i32 101, i32 97, i32 100, i32 50, i32 46, i32 103, i32 111, i32 111, i32 103, i32 108, i32 101, i32 115, i32 121, i32 110, i32 100, i32 105, i32 99, i32 97, i32 116, i32 105, i32 111, i32 110, i32 46, i32 99, i32 111, i32 109, i32 0], align 4
@.wstr.99 = private unnamed_addr constant [21 x i32] [i32 114, i32 97, i32 100, i32 105, i32 120, i32 32, i32 111, i32 117, i32 116, i32 32, i32 111, i32 102, i32 32, i32 114, i32 97, i32 110, i32 103, i32 101, i32 58, i32 32, i32 0], align 4
@.wstr.100 = private unnamed_addr constant [10 x i32] [i32 114, i32 101, i32 119, i32 97, i32 114, i32 100, i32 95, i32 109, i32 98, i32 0], align 4
@.wstr.101 = private unnamed_addr constant [9 x i32] [i32 114, i32 101, i32 119, i32 97, i32 114, i32 100, i32 101, i32 100, i32 0], align 4
@.wstr.102 = private unnamed_addr constant [25 x i32] [i32 115, i32 99, i32 114, i32 111, i32 108, i32 108, i32 97, i32 98, i32 108, i32 101, i32 45, i32 118, i32 105, i32 101, i32 119, i32 45, i32 98, i32 97, i32 115, i32 101, i32 108, i32 105, i32 110, i32 101, i32 0], align 4
@.wstr.103 = private unnamed_addr constant [25 x i32] [i32 115, i32 99, i32 114, i32 111, i32 108, i32 108, i32 97, i32 98, i32 108, i32 101, i32 45, i32 118, i32 105, i32 101, i32 119, i32 45, i32 100, i32 101, i32 116, i32 101, i32 99, i32 116, i32 101, i32 100, i32 0], align 4
@.wstr.104 = private unnamed_addr constant [23 x i32] [i32 115, i32 100, i32 107, i32 45, i32 99, i32 111, i32 114, i32 101, i32 45, i32 118, i32 52, i32 48, i32 45, i32 105, i32 109, i32 112, i32 108, i32 46, i32 104, i32 116, i32 109, i32 108, i32 0], align 4
@.wstr.105 = private unnamed_addr constant [21 x i32] [i32 115, i32 100, i32 107, i32 45, i32 99, i32 111, i32 114, i32 101, i32 45, i32 118, i32 52, i32 48, i32 45, i32 105, i32 109, i32 112, i32 108, i32 46, i32 106, i32 115, i32 0], align 4
@.wstr.106 = private unnamed_addr constant [18 x i32] [i32 115, i32 100, i32 107, i32 65, i32 100, i32 109, i32 111, i32 98, i32 65, i32 112, i32 105, i32 70, i32 111, i32 114, i32 65, i32 100, i32 115, i32 0], align 4
@.wstr.107 = private unnamed_addr constant [15 x i32] [i32 115, i32 100, i32 107, i32 67, i32 111, i32 114, i32 101, i32 82, i32 101, i32 102, i32 114, i32 101, i32 115, i32 104, i32 0], align 4
@.wstr.108 = private unnamed_addr constant [9 x i32] [i32 115, i32 100, i32 107, i32 86, i32 105, i32 100, i32 101, i32 111, i32 0], align 4
@.wstr.109 = private unnamed_addr constant [7 x i32] [i32 115, i32 116, i32 114, i32 105, i32 110, i32 103, i32 0], align 4
@.wstr.110 = private unnamed_addr constant [22 x i32] [i32 116, i32 114, i32 97, i32 110, i32 115, i32 112, i32 97, i32 114, i32 101, i32 110, i32 116, i32 66, i32 97, i32 99, i32 107, i32 103, i32 114, i32 111, i32 117, i32 110, i32 100, i32 0], align 4
@.wstr.111 = private unnamed_addr constant [5 x i32] [i32 116, i32 114, i32 117, i32 101, i32 0], align 4
@.wstr.112 = private unnamed_addr constant [3 x i32] [i32 117, i32 105, i32 0], align 4
@.wstr.113 = private unnamed_addr constant [22 x i32] [i32 117, i32 110, i32 116, i32 114, i32 97, i32 99, i32 107, i32 65, i32 99, i32 116, i32 105, i32 118, i32 101, i32 86, i32 105, i32 101, i32 119, i32 85, i32 110, i32 105, i32 116, i32 0], align 4
@.wstr.114 = private unnamed_addr constant [20 x i32] [i32 118, i32 105, i32 100, i32 101, i32 111, i32 95, i32 99, i32 111, i32 109, i32 112, i32 108, i32 101, i32 116, i32 101, i32 95, i32 117, i32 114, i32 108, i32 115, i32 0], align 4
@.wstr.115 = private unnamed_addr constant [18 x i32] [i32 118, i32 105, i32 100, i32 101, i32 111, i32 95, i32 114, i32 101, i32 119, i32 97, i32 114, i32 100, i32 95, i32 117, i32 114, i32 108, i32 115, i32 0], align 4
@.wstr.116 = private unnamed_addr constant [17 x i32] [i32 118, i32 105, i32 100, i32 101, i32 111, i32 95, i32 115, i32 116, i32 97, i32 114, i32 116, i32 95, i32 117, i32 114, i32 108, i32 115, i32 0], align 4
@.wstr.117 = private unnamed_addr constant [18 x i32] [i32 120, i32 45, i32 97, i32 102, i32 109, i32 97, i32 45, i32 97, i32 99, i32 116, i32 105, i32 118, i32 101, i32 118, i32 105, i32 101, i32 119, i32 0], align 4
@.wstr.118 = private unnamed_addr constant [17 x i32] [i32 120, i32 45, i32 97, i32 102, i32 109, i32 97, i32 45, i32 97, i32 100, i32 45, i32 102, i32 111, i32 114, i32 109, i32 97, i32 116, i32 0], align 4
@.wstr.119 = private unnamed_addr constant [15 x i32] [i32 120, i32 45, i32 97, i32 102, i32 109, i32 97, i32 45, i32 97, i32 100, i32 45, i32 115, i32 105, i32 122, i32 101, i32 0], align 4
@.wstr.120 = private unnamed_addr constant [20 x i32] [i32 120, i32 45, i32 97, i32 102, i32 109, i32 97, i32 45, i32 97, i32 100, i32 45, i32 115, i32 108, i32 111, i32 116, i32 45, i32 115, i32 105, i32 122, i32 101, i32 0], align 4
@.wstr.121 = private unnamed_addr constant [27 x i32] [i32 120, i32 45, i32 97, i32 102, i32 109, i32 97, i32 45, i32 99, i32 108, i32 105, i32 99, i32 107, i32 45, i32 116, i32 114, i32 97, i32 99, i32 107, i32 105, i32 110, i32 103, i32 45, i32 117, i32 114, i32 108, i32 115, i32 0], align 4
@.wstr.122 = private unnamed_addr constant [28 x i32] [i32 120, i32 45, i32 97, i32 102, i32 109, i32 97, i32 45, i32 99, i32 117, i32 115, i32 116, i32 111, i32 109, i32 45, i32 99, i32 108, i32 111, i32 115, i32 101, i32 45, i32 98, i32 108, i32 111, i32 99, i32 107, i32 101, i32 100, i32 0], align 4
@.wstr.123 = private unnamed_addr constant [32 x i32] [i32 120, i32 45, i32 97, i32 102, i32 109, i32 97, i32 45, i32 99, i32 117, i32 115, i32 116, i32 111, i32 109, i32 45, i32 114, i32 101, i32 110, i32 100, i32 101, i32 114, i32 105, i32 110, i32 103, i32 45, i32 97, i32 108, i32 108, i32 111, i32 119, i32 101, i32 100, i32 0], align 4
@.wstr.124 = private unnamed_addr constant [20 x i32] [i32 120, i32 45, i32 97, i32 102, i32 109, i32 97, i32 45, i32 100, i32 101, i32 98, i32 117, i32 103, i32 45, i32 100, i32 105, i32 97, i32 108, i32 111, i32 103, i32 0], align 4
@.wstr.125 = private unnamed_addr constant [21 x i32] [i32 120, i32 45, i32 97, i32 102, i32 109, i32 97, i32 45, i32 100, i32 101, i32 98, i32 117, i32 103, i32 45, i32 115, i32 105, i32 103, i32 110, i32 97, i32 108, i32 115, i32 0], align 4
@.wstr.126 = private unnamed_addr constant [37 x i32] [i32 120, i32 45, i32 97, i32 102, i32 109, i32 97, i32 45, i32 100, i32 105, i32 115, i32 97, i32 98, i32 108, i32 101, i32 45, i32 97, i32 99, i32 116, i32 105, i32 118, i32 97, i32 116, i32 105, i32 111, i32 110, i32 45, i32 97, i32 110, i32 100, i32 45, i32 115, i32 99, i32 114, i32 111, i32 108, i32 108, i32 0], align 4
@.wstr.127 = private unnamed_addr constant [29 x i32] [i32 120, i32 45, i32 97, i32 102, i32 109, i32 97, i32 45, i32 100, i32 105, i32 115, i32 97, i32 98, i32 108, i32 101, i32 45, i32 99, i32 108, i32 111, i32 115, i32 97, i32 98, i32 108, i32 101, i32 45, i32 97, i32 114, i32 101, i32 97, i32 0], align 4
@.wstr.128 = private unnamed_addr constant [34 x i32] [i32 120, i32 45, i32 97, i32 102, i32 109, i32 97, i32 45, i32 100, i32 111, i32 119, i32 110, i32 108, i32 111, i32 97, i32 100, i32 101, i32 100, i32 45, i32 105, i32 109, i32 112, i32 114, i32 101, i32 115, i32 115, i32 105, i32 111, i32 110, i32 45, i32 117, i32 114, i32 108, i32 115, i32 0], align 4
@.wstr.129 = private unnamed_addr constant [19 x i32] [i32 120, i32 45, i32 97, i32 102, i32 109, i32 97, i32 45, i32 101, i32 110, i32 97, i32 98, i32 108, i32 101, i32 45, i32 111, i32 109, i32 105, i32 100, i32 0], align 4
@.wstr.130 = private unnamed_addr constant [28 x i32] [i32 120, i32 45, i32 97, i32 102, i32 109, i32 97, i32 45, i32 109, i32 97, i32 110, i32 117, i32 97, i32 108, i32 45, i32 116, i32 114, i32 97, i32 99, i32 107, i32 105, i32 110, i32 103, i32 45, i32 117, i32 114, i32 108, i32 115, i32 0], align 4
@.wstr.131 = private unnamed_addr constant [19 x i32] [i32 120, i32 45, i32 97, i32 102, i32 109, i32 97, i32 45, i32 111, i32 114, i32 105, i32 101, i32 110, i32 116, i32 97, i32 116, i32 105, i32 111, i32 110, i32 0], align 4
@.wstr.132 = private unnamed_addr constant [34 x i32] [i32 120, i32 45, i32 97, i32 102, i32 109, i32 97, i32 45, i32 114, i32 101, i32 119, i32 97, i32 114, i32 100, i32 45, i32 118, i32 105, i32 100, i32 101, i32 111, i32 45, i32 99, i32 111, i32 109, i32 112, i32 108, i32 101, i32 116, i32 101, i32 45, i32 117, i32 114, i32 108, i32 115, i32 0], align 4
@.wstr.133 = private unnamed_addr constant [31 x i32] [i32 120, i32 45, i32 97, i32 102, i32 109, i32 97, i32 45, i32 114, i32 101, i32 119, i32 97, i32 114, i32 100, i32 45, i32 118, i32 105, i32 100, i32 101, i32 111, i32 45, i32 115, i32 116, i32 97, i32 114, i32 116, i32 45, i32 117, i32 114, i32 108, i32 115, i32 0], align 4
@.wstr.134 = private unnamed_addr constant [15 x i32] [i32 120, i32 45, i32 97, i32 102, i32 109, i32 97, i32 45, i32 114, i32 101, i32 119, i32 97, i32 114, i32 100, i32 115, i32 0], align 4
@.wstr.135 = private unnamed_addr constant [21 x i32] [i32 120, i32 45, i32 97, i32 102, i32 109, i32 97, i32 45, i32 116, i32 114, i32 97, i32 99, i32 107, i32 105, i32 110, i32 103, i32 45, i32 117, i32 114, i32 108, i32 115, i32 0], align 4
@.wstr.136 = private unnamed_addr constant [32 x i32] [i32 120, i32 45, i32 97, i32 102, i32 109, i32 97, i32 45, i32 117, i32 115, i32 101, i32 45, i32 100, i32 105, i32 115, i32 112, i32 108, i32 97, i32 121, i32 101, i32 100, i32 45, i32 105, i32 109, i32 112, i32 114, i32 101, i32 115, i32 115, i32 105, i32 111, i32 110, i32 0], align 4
@.wstr.137 = private unnamed_addr constant [6 x i32] [i32 122, i32 104, i32 45, i32 67, i32 78, i32 0], align 4
@.wstr.138 = private unnamed_addr constant [6 x i32] [i32 122, i32 104, i32 45, i32 84, i32 87, i32 0], align 4
@.wstr.139 = private unnamed_addr constant [7 x i32] [i32 95, i32 97, i32 110, i32 111, i32 110, i32 49, i32 0], align 4
@.wstr.140 = private unnamed_addr constant [3 x i32] [i32 84, i32 99, i32 0], align 4
@.wstr.141 = private unnamed_addr constant [7 x i32] [i32 95, i32 97, i32 110, i32 111, i32 110, i32 50, i32 0], align 4
@.wstr.142 = private unnamed_addr constant [2 x i32] [i32 113, i32 0], align 4
@.wstr.143 = private unnamed_addr constant [7 x i32] [i32 95, i32 97, i32 110, i32 111, i32 110, i32 48, i32 0], align 4

declare void @_ZN14altered_carbon2js9JsVariantD1Ev(%"cls.acjs::JsVariant"*)

declare void @_ZN14altered_carbon2js9JsVariantD0Ev(%"cls.acjs::JsVariant"*)

declare dereferenceable(56) %"cls.acjs::JsVariant"* @_ZNK14altered_carbon2js9JsVariant3bwaEPS1_RKS1_(%"cls.acjs::JsVariant"*, %"cls.acjs::JsVariant"*, %"cls.acjs::JsVariant"* dereferenceable(56))

declare dereferenceable(56) %"cls.acjs::JsVariant"* @_ZNK14altered_carbon2js9JsVariant3bwxEPS1_RKS1_(%"cls.acjs::JsVariant"*, %"cls.acjs::JsVariant"*, %"cls.acjs::JsVariant"* dereferenceable(56))

declare zeroext i1 @_ZNK14altered_carbon2js9JsVarianteqERKS1_(%"cls.acjs::JsVariant"*, %"cls.acjs::JsVariant"* dereferenceable(56))

declare zeroext i1 @_ZNK14altered_carbon2js9JsVariantneERKS1_(%"cls.acjs::JsVariant"*, %"cls.acjs::JsVariant"* dereferenceable(56))

declare zeroext i1 @_ZNK14altered_carbon2js9JsVariant4eqvtERKS1_(%"cls.acjs::JsVariant"*, %"cls.acjs::JsVariant"* dereferenceable(56))

declare zeroext i1 @_ZNK14altered_carbon2js9JsVariant4nevtERKS1_(%"cls.acjs::JsVariant"*, %"cls.acjs::JsVariant"* dereferenceable(56))

declare zeroext i1 @_ZNK14altered_carbon2js9JsVariantltERKS1_(%"cls.acjs::JsVariant"*, %"cls.acjs::JsVariant"* dereferenceable(56))

declare zeroext i1 @_ZNK14altered_carbon2js9JsVariantgtERKS1_(%"cls.acjs::JsVariant"*, %"cls.acjs::JsVariant"* dereferenceable(56))

declare zeroext i1 @_ZNK14altered_carbon2js9JsVariantleERKS1_(%"cls.acjs::JsVariant"*, %"cls.acjs::JsVariant"* dereferenceable(56))

declare zeroext i1 @_ZNK14altered_carbon2js9JsVariantgeERKS1_(%"cls.acjs::JsVariant"*, %"cls.acjs::JsVariant"* dereferenceable(56))

declare dereferenceable(56) %"cls.acjs::JsVariant"* @_ZNK14altered_carbon2js9JsVariant3ltsEPS1_RKS1_(%"cls.acjs::JsVariant"*, %"cls.acjs::JsVariant"*, %"cls.acjs::JsVariant"* dereferenceable(56))

declare dereferenceable(56) %"cls.acjs::JsVariant"* @_ZNK14altered_carbon2js9JsVariant3rtsEPS1_RKS1_(%"cls.acjs::JsVariant"*, %"cls.acjs::JsVariant"*, %"cls.acjs::JsVariant"* dereferenceable(56))

declare dereferenceable(56) %"cls.acjs::JsVariant"* @_ZNK14altered_carbon2js9JsVariant3rszEPS1_RKS1_(%"cls.acjs::JsVariant"*, %"cls.acjs::JsVariant"*, %"cls.acjs::JsVariant"* dereferenceable(56))

declare dereferenceable(56) %"cls.acjs::JsVariant"* @_ZNK14altered_carbon2js9JsVariant3addEPS1_RKS1_(%"cls.acjs::JsVariant"*, %"cls.acjs::JsVariant"*, %"cls.acjs::JsVariant"* dereferenceable(56))

declare void @_ZN14altered_carbon2js9JsVariantpsEv(%"cls.acjs::JsVariant"* noalias sret, %"cls.acjs::JsVariant"*)

declare dereferenceable(56) %"cls.acjs::JsVariant"* @_ZNK14altered_carbon2js9JsVariant3subEPS1_RKS1_(%"cls.acjs::JsVariant"*, %"cls.acjs::JsVariant"*, %"cls.acjs::JsVariant"* dereferenceable(56))

declare void @_ZN14altered_carbon2js9JsVariantngEv(%"cls.acjs::JsVariant"* noalias sret, %"cls.acjs::JsVariant"*)

declare dereferenceable(56) %"cls.acjs::JsVariant"* @_ZNK14altered_carbon2js9JsVariant3mulEPS1_RKS1_(%"cls.acjs::JsVariant"*, %"cls.acjs::JsVariant"*, %"cls.acjs::JsVariant"* dereferenceable(56))

declare dereferenceable(56) %"cls.acjs::JsVariant"* @_ZNK14altered_carbon2js9JsVariant3divEPS1_RKS1_(%"cls.acjs::JsVariant"*, %"cls.acjs::JsVariant"*, %"cls.acjs::JsVariant"* dereferenceable(56))

declare dereferenceable(56) %"cls.acjs::JsVariant"* @_ZNK14altered_carbon2js9JsVariant3modEPS1_RKS1_(%"cls.acjs::JsVariant"*, %"cls.acjs::JsVariant"*, %"cls.acjs::JsVariant"* dereferenceable(56))

declare void @_ZN14altered_carbon2js9JsVariantcoEv(%"cls.acjs::JsVariant"* noalias sret, %"cls.acjs::JsVariant"*)

declare void @_ZN14altered_carbon2js9JsVariantppEi(%"cls.acjs::JsVariant"* noalias sret, %"cls.acjs::JsVariant"*, i32)

declare dereferenceable(56) %"cls.acjs::JsVariant"* @_ZN14altered_carbon2js9JsVariantppEv(%"cls.acjs::JsVariant"*)

declare void @_ZN14altered_carbon2js9JsVariantmmEi(%"cls.acjs::JsVariant"* noalias sret, %"cls.acjs::JsVariant"*, i32)

declare dereferenceable(56) %"cls.acjs::JsVariant"* @_ZN14altered_carbon2js9JsVariantmmEv(%"cls.acjs::JsVariant"*)

declare dereferenceable(56) %"cls.acjs::JsVariant"* @_ZN14altered_carbon2js9JsVariantaSERKS1_(%"cls.acjs::JsVariant"*, %"cls.acjs::JsVariant"* dereferenceable(56))

declare dereferenceable(56) %"cls.acjs::JsVariant"* @_ZN14altered_carbon2js9JsVariantpLERKS1_(%"cls.acjs::JsVariant"*, %"cls.acjs::JsVariant"* dereferenceable(56))

declare dereferenceable(56) %"cls.acjs::JsVariant"* @_ZN14altered_carbon2js9JsVariantmIERKS1_(%"cls.acjs::JsVariant"*, %"cls.acjs::JsVariant"* dereferenceable(56))

declare dereferenceable(56) %"cls.acjs::JsVariant"* @_ZN14altered_carbon2js9JsVariantmLERKS1_(%"cls.acjs::JsVariant"*, %"cls.acjs::JsVariant"* dereferenceable(56))

declare dereferenceable(56) %"cls.acjs::JsVariant"* @_ZN14altered_carbon2js9JsVariantdVERKS1_(%"cls.acjs::JsVariant"*, %"cls.acjs::JsVariant"* dereferenceable(56))

declare dereferenceable(56) %"cls.acjs::JsVariant"* @_ZN14altered_carbon2js9JsVariantrMERKS1_(%"cls.acjs::JsVariant"*, %"cls.acjs::JsVariant"* dereferenceable(56))

declare dereferenceable(56) %"cls.acjs::JsVariant"* @_ZN14altered_carbon2js9JsVariantlSERKS1_(%"cls.acjs::JsVariant"*, %"cls.acjs::JsVariant"* dereferenceable(56))

declare dereferenceable(56) %"cls.acjs::JsVariant"* @_ZN14altered_carbon2js9JsVariantrSERKS1_(%"cls.acjs::JsVariant"*, %"cls.acjs::JsVariant"* dereferenceable(56))

declare dereferenceable(56) %"cls.acjs::JsVariant"* @_ZN14altered_carbon2js9JsVariant4arszERKS1_(%"cls.acjs::JsVariant"*, %"cls.acjs::JsVariant"* dereferenceable(56))

declare dereferenceable(56) %"cls.acjs::JsVariant"* @_ZN14altered_carbon2js9JsVariantaNERKS1_(%"cls.acjs::JsVariant"*, %"cls.acjs::JsVariant"* dereferenceable(56))

declare dereferenceable(56) %"cls.acjs::JsVariant"* @_ZN14altered_carbon2js9JsVariantoRERKS1_(%"cls.acjs::JsVariant"*, %"cls.acjs::JsVariant"* dereferenceable(56))

declare dereferenceable(56) %"cls.acjs::JsVariant"* @_ZN14altered_carbon2js9JsVarianteOERKS1_(%"cls.acjs::JsVariant"*, %"cls.acjs::JsVariant"* dereferenceable(56))

define void @_Z7_scriptPN14altered_carbon2js9JsVariantE(%"cls.acjs::JsVariant"*) {
init.bb:
  %vptr = alloca %"cls.acjs::JsVariant", align 8
  %1 = bitcast %"cls.acjs::JsVariant"* %vptr to i32 (...)***
  store i32 (...)** bitcast (i8*** @_ZTVN14altered_carbon2js9JsVariantE_GEP to i32 (...)**), i32 (...)*** %1, align 8
  %2 = getelementptr inbounds %"cls.acjs::JsVariant", %"cls.acjs::JsVariant"* %vptr, i32 0, i32 1
  store i32 15, i32* %2, align 8
  %ptr = alloca [0 x %"cls.acjs::JsVariant"*], align 16
  %vptr2 = alloca %"cls.acjs::JsVariant", align 8
  %3 = bitcast %"cls.acjs::JsVariant"* %vptr2 to i32 (...)***
  store i32 (...)** bitcast (i8*** @_ZTVN14altered_carbon2js9JsVariantE_GEP to i32 (...)**), i32 (...)*** %3, align 8
  %4 = getelementptr inbounds %"cls.acjs::JsVariant", %"cls.acjs::JsVariant"* %vptr2, i32 0, i32 1
  store i32 1, i32* %4, align 8
  br label %exec.bb

exec.bb:                                          ; preds = %init.bb
  %5 = getelementptr inbounds %"cls.acjs::JsVariant", %"cls.acjs::JsVariant"* %vptr, i32 0, i32 2
  %6 = bitcast %union.anon.6* %5 to %"cls.acjs::JsVariantFunc"*
  %7 = getelementptr inbounds %"cls.acjs::JsVariantFunc", %"cls.acjs::JsVariantFunc"* %6, i32 0, i32 0
  store void (%"cls.acjs::JsVariant"*, %"cls.acjs::JsVariant"*, %"cls.acjs::JsVariant"**, i64)* @_ZN3_js6_anon0EPN14altered_carbon2js9JsVariantEN4llvm8ArrayRefIS3_EE, void (%"cls.acjs::JsVariant"*, %"cls.acjs::JsVariant"*, %"cls.acjs::JsVariant"**, i64)** %7, align 8
  %8 = getelementptr inbounds %"cls.acjs::JsVariantFunc", %"cls.acjs::JsVariantFunc"* %6, i32 0, i32 1
  store i32* getelementptr inbounds ([7 x i32], [7 x i32]* @.wstr.143, i32 0, i32 0), i32** %8, align 8
  %9 = getelementptr inbounds %"cls.acjs::JsVariant", %"cls.acjs::JsVariant"* %vptr, i32 0, i32 1
  %10 = load i32, i32* %9, align 8
  %11 = icmp eq i32 %10, 15
  br i1 %11, label %npe.bb, label %err.bb

exit.bb:                                          ; preds = %npe.bbe
  %12 = call %"cls.acjs::JsVariant"* @_ZN14altered_carbon2js9JsVariantaSERKS1_(%"cls.acjs::JsVariant"* %0, %"cls.acjs::JsVariant"* dereferenceable(56) %jsret)
  call void @_ZN14altered_carbon2js9JsVariantD1Ev(%"cls.acjs::JsVariant"* %vptr2)
  call void @_ZN14altered_carbon2js9JsVariantD1Ev(%"cls.acjs::JsVariant"* %vptr)
  ret void

npe.bb:                                           ; preds = %exec.bb
  %13 = getelementptr inbounds %"cls.acjs::JsVariant", %"cls.acjs::JsVariant"* %vptr, i32 0, i32 2
  %14 = bitcast %union.anon.6* %13 to %"cls.acjs::JsVariantFunc"*
  %15 = getelementptr inbounds %"cls.acjs::JsVariantFunc", %"cls.acjs::JsVariantFunc"* %14, i32 0, i32 0
  %16 = icmp ne void (%"cls.acjs::JsVariant"*, %"cls.acjs::JsVariant"*, %"cls.acjs::JsVariant"**, i64)** %15, null
  br i1 %16, label %call.bb, label %err.bb1

npe.bbe:                                          ; preds = %call.bb, %err.bb1, %err.bb
  %jsret = phi %"cls.acjs::JsVariant"* [ @_ZN14altered_carbon2js11JsConstants9TypeErrorE, %err.bb ], [ @_ZN14altered_carbon2js11JsConstants16NullPointerErrorE, %err.bb1 ], [ %vptr2, %call.bb ]
  br label %exit.bb

err.bb:                                           ; preds = %exec.bb
  br label %npe.bbe

call.bb:                                          ; preds = %npe.bb
  %17 = load void (%"cls.acjs::JsVariant"*, %"cls.acjs::JsVariant"*, %"cls.acjs::JsVariant"**, i64)*, void (%"cls.acjs::JsVariant"*, %"cls.acjs::JsVariant"*, %"cls.acjs::JsVariant"**, i64)** %15, align 8
  %18 = getelementptr inbounds [0 x %"cls.acjs::JsVariant"*], [0 x %"cls.acjs::JsVariant"*]* %ptr, i32 0, i32 0
  call void %17(%"cls.acjs::JsVariant"* %vptr2, %"cls.acjs::JsVariant"* null, %"cls.acjs::JsVariant"** %18, i64 0)
  br label %npe.bbe

err.bb1:                                          ; preds = %npe.bb
  br label %npe.bbe
}

define void @_ZN3_js6_anon0EPN14altered_carbon2js9JsVariantEN4llvm8ArrayRefIS3_EE(%"cls.acjs::JsVariant"* noalias sret, %"cls.acjs::JsVariant"*, %"cls.acjs::JsVariant"**, i64) {
init.bb:
  %vptr = alloca %"cls.acjs::JsVariant", align 8
  %4 = bitcast %"cls.acjs::JsVariant"* %vptr to i32 (...)***
  store i32 (...)** bitcast (i8*** @_ZTVN14altered_carbon2js9JsVariantE_GEP to i32 (...)**), i32 (...)*** %4, align 8
  %5 = getelementptr inbounds %"cls.acjs::JsVariant", %"cls.acjs::JsVariant"* %vptr, i32 0, i32 1
  store i32 1, i32* %5, align 8
  %vptr1 = alloca %"cls.acjs::JsVariant", align 8
  %6 = bitcast %"cls.acjs::JsVariant"* %vptr1 to i32 (...)***
  store i32 (...)** bitcast (i8*** @_ZTVN14altered_carbon2js9JsVariantE_GEP to i32 (...)**), i32 (...)*** %6, align 8
  %7 = getelementptr inbounds %"cls.acjs::JsVariant", %"cls.acjs::JsVariant"* %vptr1, i32 0, i32 1
  store i32 1, i32* %7, align 8
  %vptr2 = alloca %"cls.acjs::JsVariant", align 8
  %8 = bitcast %"cls.acjs::JsVariant"* %vptr2 to i32 (...)***
  store i32 (...)** bitcast (i8*** @_ZTVN14altered_carbon2js9JsVariantE_GEP to i32 (...)**), i32 (...)*** %8, align 8
  %9 = getelementptr inbounds %"cls.acjs::JsVariant", %"cls.acjs::JsVariant"* %vptr2, i32 0, i32 1
  store i32 1, i32* %9, align 8
  %vptr3 = alloca %"cls.acjs::JsVariant", align 8
  %10 = bitcast %"cls.acjs::JsVariant"* %vptr3 to i32 (...)***
  store i32 (...)** bitcast (i8*** @_ZTVN14altered_carbon2js9JsVariantE_GEP to i32 (...)**), i32 (...)*** %10, align 8
  %11 = getelementptr inbounds %"cls.acjs::JsVariant", %"cls.acjs::JsVariant"* %vptr3, i32 0, i32 1
  store i32 1, i32* %11, align 8
  %vptr10 = alloca %"cls.acjs::JsVariant", align 8
  %12 = bitcast %"cls.acjs::JsVariant"* %vptr10 to i32 (...)***
  store i32 (...)** bitcast (i8*** @_ZTVN14altered_carbon2js9JsVariantE_GEP to i32 (...)**), i32 (...)*** %12, align 8
  %13 = getelementptr inbounds %"cls.acjs::JsVariant", %"cls.acjs::JsVariant"* %vptr10, i32 0, i32 1
  store i32 1, i32* %13, align 8
  %vptr11 = alloca %"cls.acjs::JsVariant", align 8
  %14 = bitcast %"cls.acjs::JsVariant"* %vptr11 to i32 (...)***
  store i32 (...)** bitcast (i8*** @_ZTVN14altered_carbon2js9JsVariantE_GEP to i32 (...)**), i32 (...)*** %14, align 8
  %15 = getelementptr inbounds %"cls.acjs::JsVariant", %"cls.acjs::JsVariant"* %vptr11, i32 0, i32 1
  store i32 1, i32* %15, align 8
  %vptr18 = alloca %"cls.acjs::JsVariant", align 8
  %16 = bitcast %"cls.acjs::JsVariant"* %vptr18 to i32 (...)***
  store i32 (...)** bitcast (i8*** @_ZTVN14altered_carbon2js9JsVariantE_GEP to i32 (...)**), i32 (...)*** %16, align 8
  %17 = getelementptr inbounds %"cls.acjs::JsVariant", %"cls.acjs::JsVariant"* %vptr18, i32 0, i32 1
  store i32 1, i32* %17, align 8
  %vptr19 = alloca %"cls.acjs::JsVariant", align 8
  %18 = bitcast %"cls.acjs::JsVariant"* %vptr19 to i32 (...)***
  store i32 (...)** bitcast (i8*** @_ZTVN14altered_carbon2js9JsVariantE_GEP to i32 (...)**), i32 (...)*** %18, align 8
  %19 = getelementptr inbounds %"cls.acjs::JsVariant", %"cls.acjs::JsVariant"* %vptr19, i32 0, i32 1
  store i32 1, i32* %19, align 8
  %vptr26 = alloca %"cls.acjs::JsVariant", align 8
  %20 = bitcast %"cls.acjs::JsVariant"* %vptr26 to i32 (...)***
  store i32 (...)** bitcast (i8*** @_ZTVN14altered_carbon2js9JsVariantE_GEP to i32 (...)**), i32 (...)*** %20, align 8
  %21 = getelementptr inbounds %"cls.acjs::JsVariant", %"cls.acjs::JsVariant"* %vptr26, i32 0, i32 1
  store i32 1, i32* %21, align 8
  %vptr27 = alloca %"cls.acjs::JsVariant", align 8
  %22 = bitcast %"cls.acjs::JsVariant"* %vptr27 to i32 (...)***
  store i32 (...)** bitcast (i8*** @_ZTVN14altered_carbon2js9JsVariantE_GEP to i32 (...)**), i32 (...)*** %22, align 8
  %23 = getelementptr inbounds %"cls.acjs::JsVariant", %"cls.acjs::JsVariant"* %vptr27, i32 0, i32 1
  store i32 1, i32* %23, align 8
  %vptr34 = alloca %"cls.acjs::JsVariant", align 8
  %24 = bitcast %"cls.acjs::JsVariant"* %vptr34 to i32 (...)***
  store i32 (...)** bitcast (i8*** @_ZTVN14altered_carbon2js9JsVariantE_GEP to i32 (...)**), i32 (...)*** %24, align 8
  %25 = getelementptr inbounds %"cls.acjs::JsVariant", %"cls.acjs::JsVariant"* %vptr34, i32 0, i32 1
  store i32 1, i32* %25, align 8
  %vptr35 = alloca %"cls.acjs::JsVariant", align 8
  %26 = bitcast %"cls.acjs::JsVariant"* %vptr35 to i32 (...)***
  store i32 (...)** bitcast (i8*** @_ZTVN14altered_carbon2js9JsVariantE_GEP to i32 (...)**), i32 (...)*** %26, align 8
  %27 = getelementptr inbounds %"cls.acjs::JsVariant", %"cls.acjs::JsVariant"* %vptr35, i32 0, i32 1
  store i32 1, i32* %27, align 8
  %vptr42 = alloca %"cls.acjs::JsVariant", align 8
  %28 = bitcast %"cls.acjs::JsVariant"* %vptr42 to i32 (...)***
  store i32 (...)** bitcast (i8*** @_ZTVN14altered_carbon2js9JsVariantE_GEP to i32 (...)**), i32 (...)*** %28, align 8
  %29 = getelementptr inbounds %"cls.acjs::JsVariant", %"cls.acjs::JsVariant"* %vptr42, i32 0, i32 1
  store i32 1, i32* %29, align 8
  %vptr43 = alloca %"cls.acjs::JsVariant", align 8
  %30 = bitcast %"cls.acjs::JsVariant"* %vptr43 to i32 (...)***
  store i32 (...)** bitcast (i8*** @_ZTVN14altered_carbon2js9JsVariantE_GEP to i32 (...)**), i32 (...)*** %30, align 8
  %31 = getelementptr inbounds %"cls.acjs::JsVariant", %"cls.acjs::JsVariant"* %vptr43, i32 0, i32 1
  store i32 1, i32* %31, align 8
  %vptr50 = alloca %"cls.acjs::JsVariant", align 8
  %32 = bitcast %"cls.acjs::JsVariant"* %vptr50 to i32 (...)***
  store i32 (...)** bitcast (i8*** @_ZTVN14altered_carbon2js9JsVariantE_GEP to i32 (...)**), i32 (...)*** %32, align 8
  %33 = getelementptr inbounds %"cls.acjs::JsVariant", %"cls.acjs::JsVariant"* %vptr50, i32 0, i32 1
  store i32 1, i32* %33, align 8
  %vptr51 = alloca %"cls.acjs::JsVariant", align 8
  %34 = bitcast %"cls.acjs::JsVariant"* %vptr51 to i32 (...)***
  store i32 (...)** bitcast (i8*** @_ZTVN14altered_carbon2js9JsVariantE_GEP to i32 (...)**), i32 (...)*** %34, align 8
  %35 = getelementptr inbounds %"cls.acjs::JsVariant", %"cls.acjs::JsVariant"* %vptr51, i32 0, i32 1
  store i32 1, i32* %35, align 8
  %vptr58 = alloca %"cls.acjs::JsVariant", align 8
  %36 = bitcast %"cls.acjs::JsVariant"* %vptr58 to i32 (...)***
  store i32 (...)** bitcast (i8*** @_ZTVN14altered_carbon2js9JsVariantE_GEP to i32 (...)**), i32 (...)*** %36, align 8
  %37 = getelementptr inbounds %"cls.acjs::JsVariant", %"cls.acjs::JsVariant"* %vptr58, i32 0, i32 1
  store i32 1, i32* %37, align 8
  %vptr59 = alloca %"cls.acjs::JsVariant", align 8
  %38 = bitcast %"cls.acjs::JsVariant"* %vptr59 to i32 (...)***
  store i32 (...)** bitcast (i8*** @_ZTVN14altered_carbon2js9JsVariantE_GEP to i32 (...)**), i32 (...)*** %38, align 8
  %39 = getelementptr inbounds %"cls.acjs::JsVariant", %"cls.acjs::JsVariant"* %vptr59, i32 0, i32 1
  store i32 1, i32* %39, align 8
  %vptr66 = alloca %"cls.acjs::JsVariant", align 8
  %40 = bitcast %"cls.acjs::JsVariant"* %vptr66 to i32 (...)***
  store i32 (...)** bitcast (i8*** @_ZTVN14altered_carbon2js9JsVariantE_GEP to i32 (...)**), i32 (...)*** %40, align 8
  %41 = getelementptr inbounds %"cls.acjs::JsVariant", %"cls.acjs::JsVariant"* %vptr66, i32 0, i32 1
  store i32 1, i32* %41, align 8
  %vptr67 = alloca %"cls.acjs::JsVariant", align 8
  %42 = bitcast %"cls.acjs::JsVariant"* %vptr67 to i32 (...)***
  store i32 (...)** bitcast (i8*** @_ZTVN14altered_carbon2js9JsVariantE_GEP to i32 (...)**), i32 (...)*** %42, align 8
  %43 = getelementptr inbounds %"cls.acjs::JsVariant", %"cls.acjs::JsVariant"* %vptr67, i32 0, i32 1
  store i32 1, i32* %43, align 8
  %vptr74 = alloca %"cls.acjs::JsVariant", align 8
  %44 = bitcast %"cls.acjs::JsVariant"* %vptr74 to i32 (...)***
  store i32 (...)** bitcast (i8*** @_ZTVN14altered_carbon2js9JsVariantE_GEP to i32 (...)**), i32 (...)*** %44, align 8
  %45 = getelementptr inbounds %"cls.acjs::JsVariant", %"cls.acjs::JsVariant"* %vptr74, i32 0, i32 1
  store i32 1, i32* %45, align 8
  %vptr75 = alloca %"cls.acjs::JsVariant", align 8
  %46 = bitcast %"cls.acjs::JsVariant"* %vptr75 to i32 (...)***
  store i32 (...)** bitcast (i8*** @_ZTVN14altered_carbon2js9JsVariantE_GEP to i32 (...)**), i32 (...)*** %46, align 8
  %47 = getelementptr inbounds %"cls.acjs::JsVariant", %"cls.acjs::JsVariant"* %vptr75, i32 0, i32 1
  store i32 1, i32* %47, align 8
  %vptr82 = alloca %"cls.acjs::JsVariant", align 8
  %48 = bitcast %"cls.acjs::JsVariant"* %vptr82 to i32 (...)***
  store i32 (...)** bitcast (i8*** @_ZTVN14altered_carbon2js9JsVariantE_GEP to i32 (...)**), i32 (...)*** %48, align 8
  %49 = getelementptr inbounds %"cls.acjs::JsVariant", %"cls.acjs::JsVariant"* %vptr82, i32 0, i32 1
  store i32 1, i32* %49, align 8
  %vptr83 = alloca %"cls.acjs::JsVariant", align 8
  %50 = bitcast %"cls.acjs::JsVariant"* %vptr83 to i32 (...)***
  store i32 (...)** bitcast (i8*** @_ZTVN14altered_carbon2js9JsVariantE_GEP to i32 (...)**), i32 (...)*** %50, align 8
  %51 = getelementptr inbounds %"cls.acjs::JsVariant", %"cls.acjs::JsVariant"* %vptr83, i32 0, i32 1
  store i32 1, i32* %51, align 8
  %vptr90 = alloca %"cls.acjs::JsVariant", align 8
  %52 = bitcast %"cls.acjs::JsVariant"* %vptr90 to i32 (...)***
  store i32 (...)** bitcast (i8*** @_ZTVN14altered_carbon2js9JsVariantE_GEP to i32 (...)**), i32 (...)*** %52, align 8
  %53 = getelementptr inbounds %"cls.acjs::JsVariant", %"cls.acjs::JsVariant"* %vptr90, i32 0, i32 1
  store i32 1, i32* %53, align 8
  %vptr91 = alloca %"cls.acjs::JsVariant", align 8
  %54 = bitcast %"cls.acjs::JsVariant"* %vptr91 to i32 (...)***
  store i32 (...)** bitcast (i8*** @_ZTVN14altered_carbon2js9JsVariantE_GEP to i32 (...)**), i32 (...)*** %54, align 8
  %55 = getelementptr inbounds %"cls.acjs::JsVariant", %"cls.acjs::JsVariant"* %vptr91, i32 0, i32 1
  store i32 1, i32* %55, align 8
  %vptr98 = alloca %"cls.acjs::JsVariant", align 8
  %56 = bitcast %"cls.acjs::JsVariant"* %vptr98 to i32 (...)***
  store i32 (...)** bitcast (i8*** @_ZTVN14altered_carbon2js9JsVariantE_GEP to i32 (...)**), i32 (...)*** %56, align 8
  %57 = getelementptr inbounds %"cls.acjs::JsVariant", %"cls.acjs::JsVariant"* %vptr98, i32 0, i32 1
  store i32 1, i32* %57, align 8
  %vptr99 = alloca %"cls.acjs::JsVariant", align 8
  %58 = bitcast %"cls.acjs::JsVariant"* %vptr99 to i32 (...)***
  store i32 (...)** bitcast (i8*** @_ZTVN14altered_carbon2js9JsVariantE_GEP to i32 (...)**), i32 (...)*** %58, align 8
  %59 = getelementptr inbounds %"cls.acjs::JsVariant", %"cls.acjs::JsVariant"* %vptr99, i32 0, i32 1
  store i32 1, i32* %59, align 8
  %vptr106 = alloca %"cls.acjs::JsVariant", align 8
  %60 = bitcast %"cls.acjs::JsVariant"* %vptr106 to i32 (...)***
  store i32 (...)** bitcast (i8*** @_ZTVN14altered_carbon2js9JsVariantE_GEP to i32 (...)**), i32 (...)*** %60, align 8
  %61 = getelementptr inbounds %"cls.acjs::JsVariant", %"cls.acjs::JsVariant"* %vptr106, i32 0, i32 1
  store i32 1, i32* %61, align 8
  %vptr107 = alloca %"cls.acjs::JsVariant", align 8
  %62 = bitcast %"cls.acjs::JsVariant"* %vptr107 to i32 (...)***
  store i32 (...)** bitcast (i8*** @_ZTVN14altered_carbon2js9JsVariantE_GEP to i32 (...)**), i32 (...)*** %62, align 8
  %63 = getelementptr inbounds %"cls.acjs::JsVariant", %"cls.acjs::JsVariant"* %vptr107, i32 0, i32 1
  store i32 1, i32* %63, align 8
  %vptr114 = alloca %"cls.acjs::JsVariant", align 8
  %64 = bitcast %"cls.acjs::JsVariant"* %vptr114 to i32 (...)***
  store i32 (...)** bitcast (i8*** @_ZTVN14altered_carbon2js9JsVariantE_GEP to i32 (...)**), i32 (...)*** %64, align 8
  %65 = getelementptr inbounds %"cls.acjs::JsVariant", %"cls.acjs::JsVariant"* %vptr114, i32 0, i32 1
  store i32 1, i32* %65, align 8
  %vptr115 = alloca %"cls.acjs::JsVariant", align 8
  %66 = bitcast %"cls.acjs::JsVariant"* %vptr115 to i32 (...)***
  store i32 (...)** bitcast (i8*** @_ZTVN14altered_carbon2js9JsVariantE_GEP to i32 (...)**), i32 (...)*** %66, align 8
  %67 = getelementptr inbounds %"cls.acjs::JsVariant", %"cls.acjs::JsVariant"* %vptr115, i32 0, i32 1
  store i32 1, i32* %67, align 8
  %vptr122 = alloca %"cls.acjs::JsVariant", align 8
  %68 = bitcast %"cls.acjs::JsVariant"* %vptr122 to i32 (...)***
  store i32 (...)** bitcast (i8*** @_ZTVN14altered_carbon2js9JsVariantE_GEP to i32 (...)**), i32 (...)*** %68, align 8
  %69 = getelementptr inbounds %"cls.acjs::JsVariant", %"cls.acjs::JsVariant"* %vptr122, i32 0, i32 1
  store i32 1, i32* %69, align 8
  %vptr123 = alloca %"cls.acjs::JsVariant", align 8
  %70 = bitcast %"cls.acjs::JsVariant"* %vptr123 to i32 (...)***
  store i32 (...)** bitcast (i8*** @_ZTVN14altered_carbon2js9JsVariantE_GEP to i32 (...)**), i32 (...)*** %70, align 8
  %71 = getelementptr inbounds %"cls.acjs::JsVariant", %"cls.acjs::JsVariant"* %vptr123, i32 0, i32 1
  store i32 1, i32* %71, align 8
  %vptr130 = alloca %"cls.acjs::JsVariant", align 8
  %72 = bitcast %"cls.acjs::JsVariant"* %vptr130 to i32 (...)***
  store i32 (...)** bitcast (i8*** @_ZTVN14altered_carbon2js9JsVariantE_GEP to i32 (...)**), i32 (...)*** %72, align 8
  %73 = getelementptr inbounds %"cls.acjs::JsVariant", %"cls.acjs::JsVariant"* %vptr130, i32 0, i32 1
  store i32 1, i32* %73, align 8
  %vptr131 = alloca %"cls.acjs::JsVariant", align 8
  %74 = bitcast %"cls.acjs::JsVariant"* %vptr131 to i32 (...)***
  store i32 (...)** bitcast (i8*** @_ZTVN14altered_carbon2js9JsVariantE_GEP to i32 (...)**), i32 (...)*** %74, align 8
  %75 = getelementptr inbounds %"cls.acjs::JsVariant", %"cls.acjs::JsVariant"* %vptr131, i32 0, i32 1
  store i32 1, i32* %75, align 8
  %vptr138 = alloca %"cls.acjs::JsVariant", align 8
  %76 = bitcast %"cls.acjs::JsVariant"* %vptr138 to i32 (...)***
  store i32 (...)** bitcast (i8*** @_ZTVN14altered_carbon2js9JsVariantE_GEP to i32 (...)**), i32 (...)*** %76, align 8
  %77 = getelementptr inbounds %"cls.acjs::JsVariant", %"cls.acjs::JsVariant"* %vptr138, i32 0, i32 1
  store i32 1, i32* %77, align 8
  %vptr139 = alloca %"cls.acjs::JsVariant", align 8
  %78 = bitcast %"cls.acjs::JsVariant"* %vptr139 to i32 (...)***
  store i32 (...)** bitcast (i8*** @_ZTVN14altered_carbon2js9JsVariantE_GEP to i32 (...)**), i32 (...)*** %78, align 8
  %79 = getelementptr inbounds %"cls.acjs::JsVariant", %"cls.acjs::JsVariant"* %vptr139, i32 0, i32 1
  store i32 1, i32* %79, align 8
  %vptr146 = alloca %"cls.acjs::JsVariant", align 8
  %80 = bitcast %"cls.acjs::JsVariant"* %vptr146 to i32 (...)***
  store i32 (...)** bitcast (i8*** @_ZTVN14altered_carbon2js9JsVariantE_GEP to i32 (...)**), i32 (...)*** %80, align 8
  %81 = getelementptr inbounds %"cls.acjs::JsVariant", %"cls.acjs::JsVariant"* %vptr146, i32 0, i32 1
  store i32 1, i32* %81, align 8
  %vptr147 = alloca %"cls.acjs::JsVariant", align 8
  %82 = bitcast %"cls.acjs::JsVariant"* %vptr147 to i32 (...)***
  store i32 (...)** bitcast (i8*** @_ZTVN14altered_carbon2js9JsVariantE_GEP to i32 (...)**), i32 (...)*** %82, align 8
  %83 = getelementptr inbounds %"cls.acjs::JsVariant", %"cls.acjs::JsVariant"* %vptr147, i32 0, i32 1
  store i32 1, i32* %83, align 8
  %vptr154 = alloca %"cls.acjs::JsVariant", align 8
  %84 = bitcast %"cls.acjs::JsVariant"* %vptr154 to i32 (...)***
  store i32 (...)** bitcast (i8*** @_ZTVN14altered_carbon2js9JsVariantE_GEP to i32 (...)**), i32 (...)*** %84, align 8
  %85 = getelementptr inbounds %"cls.acjs::JsVariant", %"cls.acjs::JsVariant"* %vptr154, i32 0, i32 1
  store i32 1, i32* %85, align 8
  %vptr155 = alloca %"cls.acjs::JsVariant", align 8
  %86 = bitcast %"cls.acjs::JsVariant"* %vptr155 to i32 (...)***
  store i32 (...)** bitcast (i8*** @_ZTVN14altered_carbon2js9JsVariantE_GEP to i32 (...)**), i32 (...)*** %86, align 8
  %87 = getelementptr inbounds %"cls.acjs::JsVariant", %"cls.acjs::JsVariant"* %vptr155, i32 0, i32 1
  store i32 1, i32* %87, align 8
  %vptr162 = alloca %"cls.acjs::JsVariant", align 8
  %88 = bitcast %"cls.acjs::JsVariant"* %vptr162 to i32 (...)***
  store i32 (...)** bitcast (i8*** @_ZTVN14altered_carbon2js9JsVariantE_GEP to i32 (...)**), i32 (...)*** %88, align 8
  %89 = getelementptr inbounds %"cls.acjs::JsVariant", %"cls.acjs::JsVariant"* %vptr162, i32 0, i32 1
  store i32 1, i32* %89, align 8
  %vptr163 = alloca %"cls.acjs::JsVariant", align 8
  %90 = bitcast %"cls.acjs::JsVariant"* %vptr163 to i32 (...)***
  store i32 (...)** bitcast (i8*** @_ZTVN14altered_carbon2js9JsVariantE_GEP to i32 (...)**), i32 (...)*** %90, align 8
  %91 = getelementptr inbounds %"cls.acjs::JsVariant", %"cls.acjs::JsVariant"* %vptr163, i32 0, i32 1
  store i32 1, i32* %91, align 8
  %vptr170 = alloca %"cls.acjs::JsVariant", align 8
  %92 = bitcast %"cls.acjs::JsVariant"* %vptr170 to i32 (...)***
  store i32 (...)** bitcast (i8*** @_ZTVN14altered_carbon2js9JsVariantE_GEP to i32 (...)**), i32 (...)*** %92, align 8
  %93 = getelementptr inbounds %"cls.acjs::JsVariant", %"cls.acjs::JsVariant"* %vptr170, i32 0, i32 1
  store i32 1, i32* %93, align 8
  %vptr171 = alloca %"cls.acjs::JsVariant", align 8
  %94 = bitcast %"cls.acjs::JsVariant"* %vptr171 to i32 (...)***
  store i32 (...)** bitcast (i8*** @_ZTVN14altered_carbon2js9JsVariantE_GEP to i32 (...)**), i32 (...)*** %94, align 8
  %95 = getelementptr inbounds %"cls.acjs::JsVariant", %"cls.acjs::JsVariant"* %vptr171, i32 0, i32 1
  store i32 1, i32* %95, align 8
  %vptr178 = alloca %"cls.acjs::JsVariant", align 8
  %96 = bitcast %"cls.acjs::JsVariant"* %vptr178 to i32 (...)***
  store i32 (...)** bitcast (i8*** @_ZTVN14altered_carbon2js9JsVariantE_GEP to i32 (...)**), i32 (...)*** %96, align 8
  %97 = getelementptr inbounds %"cls.acjs::JsVariant", %"cls.acjs::JsVariant"* %vptr178, i32 0, i32 1
  store i32 1, i32* %97, align 8
  %vptr179 = alloca %"cls.acjs::JsVariant", align 8
  %98 = bitcast %"cls.acjs::JsVariant"* %vptr179 to i32 (...)***
  store i32 (...)** bitcast (i8*** @_ZTVN14altered_carbon2js9JsVariantE_GEP to i32 (...)**), i32 (...)*** %98, align 8
  %99 = getelementptr inbounds %"cls.acjs::JsVariant", %"cls.acjs::JsVariant"* %vptr179, i32 0, i32 1
  store i32 1, i32* %99, align 8
  %vptr186 = alloca %"cls.acjs::JsVariant", align 8
  %100 = bitcast %"cls.acjs::JsVariant"* %vptr186 to i32 (...)***
  store i32 (...)** bitcast (i8*** @_ZTVN14altered_carbon2js9JsVariantE_GEP to i32 (...)**), i32 (...)*** %100, align 8
  %101 = getelementptr inbounds %"cls.acjs::JsVariant", %"cls.acjs::JsVariant"* %vptr186, i32 0, i32 1
  store i32 1, i32* %101, align 8
  %vptr187 = alloca %"cls.acjs::JsVariant", align 8
  %102 = bitcast %"cls.acjs::JsVariant"* %vptr187 to i32 (...)***
  store i32 (...)** bitcast (i8*** @_ZTVN14altered_carbon2js9JsVariantE_GEP to i32 (...)**), i32 (...)*** %102, align 8
  %103 = getelementptr inbounds %"cls.acjs::JsVariant", %"cls.acjs::JsVariant"* %vptr187, i32 0, i32 1
  store i32 1, i32* %103, align 8
  %vptr194 = alloca %"cls.acjs::JsVariant", align 8
  %104 = bitcast %"cls.acjs::JsVariant"* %vptr194 to i32 (...)***
  store i32 (...)** bitcast (i8*** @_ZTVN14altered_carbon2js9JsVariantE_GEP to i32 (...)**), i32 (...)*** %104, align 8
  %105 = getelementptr inbounds %"cls.acjs::JsVariant", %"cls.acjs::JsVariant"* %vptr194, i32 0, i32 1
  store i32 1, i32* %105, align 8
  %vptr195 = alloca %"cls.acjs::JsVariant", align 8
  %106 = bitcast %"cls.acjs::JsVariant"* %vptr195 to i32 (...)***
  store i32 (...)** bitcast (i8*** @_ZTVN14altered_carbon2js9JsVariantE_GEP to i32 (...)**), i32 (...)*** %106, align 8
  %107 = getelementptr inbounds %"cls.acjs::JsVariant", %"cls.acjs::JsVariant"* %vptr195, i32 0, i32 1
  store i32 1, i32* %107, align 8
  %vptr202 = alloca %"cls.acjs::JsVariant", align 8
  %108 = bitcast %"cls.acjs::JsVariant"* %vptr202 to i32 (...)***
  store i32 (...)** bitcast (i8*** @_ZTVN14altered_carbon2js9JsVariantE_GEP to i32 (...)**), i32 (...)*** %108, align 8
  %109 = getelementptr inbounds %"cls.acjs::JsVariant", %"cls.acjs::JsVariant"* %vptr202, i32 0, i32 1
  store i32 1, i32* %109, align 8
  %vptr203 = alloca %"cls.acjs::JsVariant", align 8
  %110 = bitcast %"cls.acjs::JsVariant"* %vptr203 to i32 (...)***
  store i32 (...)** bitcast (i8*** @_ZTVN14altered_carbon2js9JsVariantE_GEP to i32 (...)**), i32 (...)*** %110, align 8
  %111 = getelementptr inbounds %"cls.acjs::JsVariant", %"cls.acjs::JsVariant"* %vptr203, i32 0, i32 1
  store i32 1, i32* %111, align 8
  %vptr210 = alloca %"cls.acjs::JsVariant", align 8
  %112 = bitcast %"cls.acjs::JsVariant"* %vptr210 to i32 (...)***
  store i32 (...)** bitcast (i8*** @_ZTVN14altered_carbon2js9JsVariantE_GEP to i32 (...)**), i32 (...)*** %112, align 8
  %113 = getelementptr inbounds %"cls.acjs::JsVariant", %"cls.acjs::JsVariant"* %vptr210, i32 0, i32 1
  store i32 1, i32* %113, align 8
  %vptr211 = alloca %"cls.acjs::JsVariant", align 8
  %114 = bitcast %"cls.acjs::JsVariant"* %vptr211 to i32 (...)***
  store i32 (...)** bitcast (i8*** @_ZTVN14altered_carbon2js9JsVariantE_GEP to i32 (...)**), i32 (...)*** %114, align 8
  %115 = getelementptr inbounds %"cls.acjs::JsVariant", %"cls.acjs::JsVariant"* %vptr211, i32 0, i32 1
  store i32 1, i32* %115, align 8
  %vptr218 = alloca %"cls.acjs::JsVariant", align 8
  %116 = bitcast %"cls.acjs::JsVariant"* %vptr218 to i32 (...)***
  store i32 (...)** bitcast (i8*** @_ZTVN14altered_carbon2js9JsVariantE_GEP to i32 (...)**), i32 (...)*** %116, align 8
  %117 = getelementptr inbounds %"cls.acjs::JsVariant", %"cls.acjs::JsVariant"* %vptr218, i32 0, i32 1
  store i32 1, i32* %117, align 8
  %vptr219 = alloca %"cls.acjs::JsVariant", align 8
  %118 = bitcast %"cls.acjs::JsVariant"* %vptr219 to i32 (...)***
  store i32 (...)** bitcast (i8*** @_ZTVN14altered_carbon2js9JsVariantE_GEP to i32 (...)**), i32 (...)*** %118, align 8
  %119 = getelementptr inbounds %"cls.acjs::JsVariant", %"cls.acjs::JsVariant"* %vptr219, i32 0, i32 1
  store i32 1, i32* %119, align 8
  %vptr226 = alloca %"cls.acjs::JsVariant", align 8
  %120 = bitcast %"cls.acjs::JsVariant"* %vptr226 to i32 (...)***
  store i32 (...)** bitcast (i8*** @_ZTVN14altered_carbon2js9JsVariantE_GEP to i32 (...)**), i32 (...)*** %120, align 8
  %121 = getelementptr inbounds %"cls.acjs::JsVariant", %"cls.acjs::JsVariant"* %vptr226, i32 0, i32 1
  store i32 1, i32* %121, align 8
  %vptr227 = alloca %"cls.acjs::JsVariant", align 8
  %122 = bitcast %"cls.acjs::JsVariant"* %vptr227 to i32 (...)***
  store i32 (...)** bitcast (i8*** @_ZTVN14altered_carbon2js9JsVariantE_GEP to i32 (...)**), i32 (...)*** %122, align 8
  %123 = getelementptr inbounds %"cls.acjs::JsVariant", %"cls.acjs::JsVariant"* %vptr227, i32 0, i32 1
  store i32 1, i32* %123, align 8
  %vptr234 = alloca %"cls.acjs::JsVariant", align 8
  %124 = bitcast %"cls.acjs::JsVariant"* %vptr234 to i32 (...)***
  store i32 (...)** bitcast (i8*** @_ZTVN14altered_carbon2js9JsVariantE_GEP to i32 (...)**), i32 (...)*** %124, align 8
  %125 = getelementptr inbounds %"cls.acjs::JsVariant", %"cls.acjs::JsVariant"* %vptr234, i32 0, i32 1
  store i32 1, i32* %125, align 8
  %vptr235 = alloca %"cls.acjs::JsVariant", align 8
  %126 = bitcast %"cls.acjs::JsVariant"* %vptr235 to i32 (...)***
  store i32 (...)** bitcast (i8*** @_ZTVN14altered_carbon2js9JsVariantE_GEP to i32 (...)**), i32 (...)*** %126, align 8
  %127 = getelementptr inbounds %"cls.acjs::JsVariant", %"cls.acjs::JsVariant"* %vptr235, i32 0, i32 1
  store i32 1, i32* %127, align 8
  %vptr242 = alloca %"cls.acjs::JsVariant", align 8
  %128 = bitcast %"cls.acjs::JsVariant"* %vptr242 to i32 (...)***
  store i32 (...)** bitcast (i8*** @_ZTVN14altered_carbon2js9JsVariantE_GEP to i32 (...)**), i32 (...)*** %128, align 8
  %129 = getelementptr inbounds %"cls.acjs::JsVariant", %"cls.acjs::JsVariant"* %vptr242, i32 0, i32 1
  store i32 1, i32* %129, align 8
  %vptr243 = alloca %"cls.acjs::JsVariant", align 8
  %130 = bitcast %"cls.acjs::JsVariant"* %vptr243 to i32 (...)***
  store i32 (...)** bitcast (i8*** @_ZTVN14altered_carbon2js9JsVariantE_GEP to i32 (...)**), i32 (...)*** %130, align 8
  %131 = getelementptr inbounds %"cls.acjs::JsVariant", %"cls.acjs::JsVariant"* %vptr243, i32 0, i32 1
  store i32 1, i32* %131, align 8
  %vptr250 = alloca %"cls.acjs::JsVariant", align 8
  %132 = bitcast %"cls.acjs::JsVariant"* %vptr250 to i32 (...)***
  store i32 (...)** bitcast (i8*** @_ZTVN14altered_carbon2js9JsVariantE_GEP to i32 (...)**), i32 (...)*** %132, align 8
  %133 = getelementptr inbounds %"cls.acjs::JsVariant", %"cls.acjs::JsVariant"* %vptr250, i32 0, i32 1
  store i32 1, i32* %133, align 8
  %vptr251 = alloca %"cls.acjs::JsVariant", align 8
  %134 = bitcast %"cls.acjs::JsVariant"* %vptr251 to i32 (...)***
  store i32 (...)** bitcast (i8*** @_ZTVN14altered_carbon2js9JsVariantE_GEP to i32 (...)**), i32 (...)*** %134, align 8
  %135 = getelementptr inbounds %"cls.acjs::JsVariant", %"cls.acjs::JsVariant"* %vptr251, i32 0, i32 1
  store i32 1, i32* %135, align 8
  %vptr258 = alloca %"cls.acjs::JsVariant", align 8
  %136 = bitcast %"cls.acjs::JsVariant"* %vptr258 to i32 (...)***
  store i32 (...)** bitcast (i8*** @_ZTVN14altered_carbon2js9JsVariantE_GEP to i32 (...)**), i32 (...)*** %136, align 8
  %137 = getelementptr inbounds %"cls.acjs::JsVariant", %"cls.acjs::JsVariant"* %vptr258, i32 0, i32 1
  store i32 1, i32* %137, align 8
  %vptr259 = alloca %"cls.acjs::JsVariant", align 8
  %138 = bitcast %"cls.acjs::JsVariant"* %vptr259 to i32 (...)***
  store i32 (...)** bitcast (i8*** @_ZTVN14altered_carbon2js9JsVariantE_GEP to i32 (...)**), i32 (...)*** %138, align 8
  %139 = getelementptr inbounds %"cls.acjs::JsVariant", %"cls.acjs::JsVariant"* %vptr259, i32 0, i32 1
  store i32 1, i32* %139, align 8
  %vptr266 = alloca %"cls.acjs::JsVariant", align 8
  %140 = bitcast %"cls.acjs::JsVariant"* %vptr266 to i32 (...)***
  store i32 (...)** bitcast (i8*** @_ZTVN14altered_carbon2js9JsVariantE_GEP to i32 (...)**), i32 (...)*** %140, align 8
  %141 = getelementptr inbounds %"cls.acjs::JsVariant", %"cls.acjs::JsVariant"* %vptr266, i32 0, i32 1
  store i32 1, i32* %141, align 8
  %vptr267 = alloca %"cls.acjs::JsVariant", align 8
  %142 = bitcast %"cls.acjs::JsVariant"* %vptr267 to i32 (...)***
  store i32 (...)** bitcast (i8*** @_ZTVN14altered_carbon2js9JsVariantE_GEP to i32 (...)**), i32 (...)*** %142, align 8
  %143 = getelementptr inbounds %"cls.acjs::JsVariant", %"cls.acjs::JsVariant"* %vptr267, i32 0, i32 1
  store i32 1, i32* %143, align 8
  %vptr274 = alloca %"cls.acjs::JsVariant", align 8
  %144 = bitcast %"cls.acjs::JsVariant"* %vptr274 to i32 (...)***
  store i32 (...)** bitcast (i8*** @_ZTVN14altered_carbon2js9JsVariantE_GEP to i32 (...)**), i32 (...)*** %144, align 8
  %145 = getelementptr inbounds %"cls.acjs::JsVariant", %"cls.acjs::JsVariant"* %vptr274, i32 0, i32 1
  store i32 1, i32* %145, align 8
  %vptr275 = alloca %"cls.acjs::JsVariant", align 8
  %146 = bitcast %"cls.acjs::JsVariant"* %vptr275 to i32 (...)***
  store i32 (...)** bitcast (i8*** @_ZTVN14altered_carbon2js9JsVariantE_GEP to i32 (...)**), i32 (...)*** %146, align 8
  %147 = getelementptr inbounds %"cls.acjs::JsVariant", %"cls.acjs::JsVariant"* %vptr275, i32 0, i32 1
  store i32 1, i32* %147, align 8
  %vptr282 = alloca %"cls.acjs::JsVariant", align 8
  %148 = bitcast %"cls.acjs::JsVariant"* %vptr282 to i32 (...)***
  store i32 (...)** bitcast (i8*** @_ZTVN14altered_carbon2js9JsVariantE_GEP to i32 (...)**), i32 (...)*** %148, align 8
  %149 = getelementptr inbounds %"cls.acjs::JsVariant", %"cls.acjs::JsVariant"* %vptr282, i32 0, i32 1
  store i32 1, i32* %149, align 8
  %vptr283 = alloca %"cls.acjs::JsVariant", align 8
  %150 = bitcast %"cls.acjs::JsVariant"* %vptr283 to i32 (...)***
  store i32 (...)** bitcast (i8*** @_ZTVN14altered_carbon2js9JsVariantE_GEP to i32 (...)**), i32 (...)*** %150, align 8
  %151 = getelementptr inbounds %"cls.acjs::JsVariant", %"cls.acjs::JsVariant"* %vptr283, i32 0, i32 1
  store i32 1, i32* %151, align 8
  %vptr290 = alloca %"cls.acjs::JsVariant", align 8
  %152 = bitcast %"cls.acjs::JsVariant"* %vptr290 to i32 (...)***
  store i32 (...)** bitcast (i8*** @_ZTVN14altered_carbon2js9JsVariantE_GEP to i32 (...)**), i32 (...)*** %152, align 8
  %153 = getelementptr inbounds %"cls.acjs::JsVariant", %"cls.acjs::JsVariant"* %vptr290, i32 0, i32 1
  store i32 1, i32* %153, align 8
  %vptr291 = alloca %"cls.acjs::JsVariant", align 8
  %154 = bitcast %"cls.acjs::JsVariant"* %vptr291 to i32 (...)***
  store i32 (...)** bitcast (i8*** @_ZTVN14altered_carbon2js9JsVariantE_GEP to i32 (...)**), i32 (...)*** %154, align 8
  %155 = getelementptr inbounds %"cls.acjs::JsVariant", %"cls.acjs::JsVariant"* %vptr291, i32 0, i32 1
  store i32 1, i32* %155, align 8
  %vptr298 = alloca %"cls.acjs::JsVariant", align 8
  %156 = bitcast %"cls.acjs::JsVariant"* %vptr298 to i32 (...)***
  store i32 (...)** bitcast (i8*** @_ZTVN14altered_carbon2js9JsVariantE_GEP to i32 (...)**), i32 (...)*** %156, align 8
  %157 = getelementptr inbounds %"cls.acjs::JsVariant", %"cls.acjs::JsVariant"* %vptr298, i32 0, i32 1
  store i32 1, i32* %157, align 8
  %vptr299 = alloca %"cls.acjs::JsVariant", align 8
  %158 = bitcast %"cls.acjs::JsVariant"* %vptr299 to i32 (...)***
  store i32 (...)** bitcast (i8*** @_ZTVN14altered_carbon2js9JsVariantE_GEP to i32 (...)**), i32 (...)*** %158, align 8
  %159 = getelementptr inbounds %"cls.acjs::JsVariant", %"cls.acjs::JsVariant"* %vptr299, i32 0, i32 1
  store i32 1, i32* %159, align 8
  %vptr306 = alloca %"cls.acjs::JsVariant", align 8
  %160 = bitcast %"cls.acjs::JsVariant"* %vptr306 to i32 (...)***
  store i32 (...)** bitcast (i8*** @_ZTVN14altered_carbon2js9JsVariantE_GEP to i32 (...)**), i32 (...)*** %160, align 8
  %161 = getelementptr inbounds %"cls.acjs::JsVariant", %"cls.acjs::JsVariant"* %vptr306, i32 0, i32 1
  store i32 1, i32* %161, align 8
  %vptr307 = alloca %"cls.acjs::JsVariant", align 8
  %162 = bitcast %"cls.acjs::JsVariant"* %vptr307 to i32 (...)***
  store i32 (...)** bitcast (i8*** @_ZTVN14altered_carbon2js9JsVariantE_GEP to i32 (...)**), i32 (...)*** %162, align 8
  %163 = getelementptr inbounds %"cls.acjs::JsVariant", %"cls.acjs::JsVariant"* %vptr307, i32 0, i32 1
  store i32 1, i32* %163, align 8
  %vptr314 = alloca %"cls.acjs::JsVariant", align 8
  %164 = bitcast %"cls.acjs::JsVariant"* %vptr314 to i32 (...)***
  store i32 (...)** bitcast (i8*** @_ZTVN14altered_carbon2js9JsVariantE_GEP to i32 (...)**), i32 (...)*** %164, align 8
  %165 = getelementptr inbounds %"cls.acjs::JsVariant", %"cls.acjs::JsVariant"* %vptr314, i32 0, i32 1
  store i32 1, i32* %165, align 8
  %vptr315 = alloca %"cls.acjs::JsVariant", align 8
  %166 = bitcast %"cls.acjs::JsVariant"* %vptr315 to i32 (...)***
  store i32 (...)** bitcast (i8*** @_ZTVN14altered_carbon2js9JsVariantE_GEP to i32 (...)**), i32 (...)*** %166, align 8
  %167 = getelementptr inbounds %"cls.acjs::JsVariant", %"cls.acjs::JsVariant"* %vptr315, i32 0, i32 1
  store i32 1, i32* %167, align 8
  %vptr322 = alloca %"cls.acjs::JsVariant", align 8
  %168 = bitcast %"cls.acjs::JsVariant"* %vptr322 to i32 (...)***
  store i32 (...)** bitcast (i8*** @_ZTVN14altered_carbon2js9JsVariantE_GEP to i32 (...)**), i32 (...)*** %168, align 8
  %169 = getelementptr inbounds %"cls.acjs::JsVariant", %"cls.acjs::JsVariant"* %vptr322, i32 0, i32 1
  store i32 1, i32* %169, align 8
  %vptr323 = alloca %"cls.acjs::JsVariant", align 8
  %170 = bitcast %"cls.acjs::JsVariant"* %vptr323 to i32 (...)***
  store i32 (...)** bitcast (i8*** @_ZTVN14altered_carbon2js9JsVariantE_GEP to i32 (...)**), i32 (...)*** %170, align 8
  %171 = getelementptr inbounds %"cls.acjs::JsVariant", %"cls.acjs::JsVariant"* %vptr323, i32 0, i32 1
  store i32 1, i32* %171, align 8
  %vptr330 = alloca %"cls.acjs::JsVariant", align 8
  %172 = bitcast %"cls.acjs::JsVariant"* %vptr330 to i32 (...)***
  store i32 (...)** bitcast (i8*** @_ZTVN14altered_carbon2js9JsVariantE_GEP to i32 (...)**), i32 (...)*** %172, align 8
  %173 = getelementptr inbounds %"cls.acjs::JsVariant", %"cls.acjs::JsVariant"* %vptr330, i32 0, i32 1
  store i32 1, i32* %173, align 8
  %vptr331 = alloca %"cls.acjs::JsVariant", align 8
  %174 = bitcast %"cls.acjs::JsVariant"* %vptr331 to i32 (...)***
  store i32 (...)** bitcast (i8*** @_ZTVN14altered_carbon2js9JsVariantE_GEP to i32 (...)**), i32 (...)*** %174, align 8
  %175 = getelementptr inbounds %"cls.acjs::JsVariant", %"cls.acjs::JsVariant"* %vptr331, i32 0, i32 1
  store i32 1, i32* %175, align 8
  %vptr338 = alloca %"cls.acjs::JsVariant", align 8
  %176 = bitcast %"cls.acjs::JsVariant"* %vptr338 to i32 (...)***
  store i32 (...)** bitcast (i8*** @_ZTVN14altered_carbon2js9JsVariantE_GEP to i32 (...)**), i32 (...)*** %176, align 8
  %177 = getelementptr inbounds %"cls.acjs::JsVariant", %"cls.acjs::JsVariant"* %vptr338, i32 0, i32 1
  store i32 1, i32* %177, align 8
  %vptr339 = alloca %"cls.acjs::JsVariant", align 8
  %178 = bitcast %"cls.acjs::JsVariant"* %vptr339 to i32 (...)***
  store i32 (...)** bitcast (i8*** @_ZTVN14altered_carbon2js9JsVariantE_GEP to i32 (...)**), i32 (...)*** %178, align 8
  %179 = getelementptr inbounds %"cls.acjs::JsVariant", %"cls.acjs::JsVariant"* %vptr339, i32 0, i32 1
  store i32 1, i32* %179, align 8
  %vptr346 = alloca %"cls.acjs::JsVariant", align 8
  %180 = bitcast %"cls.acjs::JsVariant"* %vptr346 to i32 (...)***
  store i32 (...)** bitcast (i8*** @_ZTVN14altered_carbon2js9JsVariantE_GEP to i32 (...)**), i32 (...)*** %180, align 8
  %181 = getelementptr inbounds %"cls.acjs::JsVariant", %"cls.acjs::JsVariant"* %vptr346, i32 0, i32 1
  store i32 1, i32* %181, align 8
  %vptr347 = alloca %"cls.acjs::JsVariant", align 8
  %182 = bitcast %"cls.acjs::JsVariant"* %vptr347 to i32 (...)***
  store i32 (...)** bitcast (i8*** @_ZTVN14altered_carbon2js9JsVariantE_GEP to i32 (...)**), i32 (...)*** %182, align 8
  %183 = getelementptr inbounds %"cls.acjs::JsVariant", %"cls.acjs::JsVariant"* %vptr347, i32 0, i32 1
  store i32 1, i32* %183, align 8
  %vptr354 = alloca %"cls.acjs::JsVariant", align 8
  %184 = bitcast %"cls.acjs::JsVariant"* %vptr354 to i32 (...)***
  store i32 (...)** bitcast (i8*** @_ZTVN14altered_carbon2js9JsVariantE_GEP to i32 (...)**), i32 (...)*** %184, align 8
  %185 = getelementptr inbounds %"cls.acjs::JsVariant", %"cls.acjs::JsVariant"* %vptr354, i32 0, i32 1
  store i32 1, i32* %185, align 8
  %vptr355 = alloca %"cls.acjs::JsVariant", align 8
  %186 = bitcast %"cls.acjs::JsVariant"* %vptr355 to i32 (...)***
  store i32 (...)** bitcast (i8*** @_ZTVN14altered_carbon2js9JsVariantE_GEP to i32 (...)**), i32 (...)*** %186, align 8
  %187 = getelementptr inbounds %"cls.acjs::JsVariant", %"cls.acjs::JsVariant"* %vptr355, i32 0, i32 1
  store i32 1, i32* %187, align 8
  %vptr362 = alloca %"cls.acjs::JsVariant", align 8
  %188 = bitcast %"cls.acjs::JsVariant"* %vptr362 to i32 (...)***
  store i32 (...)** bitcast (i8*** @_ZTVN14altered_carbon2js9JsVariantE_GEP to i32 (...)**), i32 (...)*** %188, align 8
  %189 = getelementptr inbounds %"cls.acjs::JsVariant", %"cls.acjs::JsVariant"* %vptr362, i32 0, i32 1
  store i32 1, i32* %189, align 8
  %vptr363 = alloca %"cls.acjs::JsVariant", align 8
  %190 = bitcast %"cls.acjs::JsVariant"* %vptr363 to i32 (...)***
  store i32 (...)** bitcast (i8*** @_ZTVN14altered_carbon2js9JsVariantE_GEP to i32 (...)**), i32 (...)*** %190, align 8
  %191 = getelementptr inbounds %"cls.acjs::JsVariant", %"cls.acjs::JsVariant"* %vptr363, i32 0, i32 1
  store i32 1, i32* %191, align 8
  %vptr370 = alloca %"cls.acjs::JsVariant", align 8
  %192 = bitcast %"cls.acjs::JsVariant"* %vptr370 to i32 (...)***
  store i32 (...)** bitcast (i8*** @_ZTVN14altered_carbon2js9JsVariantE_GEP to i32 (...)**), i32 (...)*** %192, align 8
  %193 = getelementptr inbounds %"cls.acjs::JsVariant", %"cls.acjs::JsVariant"* %vptr370, i32 0, i32 1
  store i32 1, i32* %193, align 8
  %vptr371 = alloca %"cls.acjs::JsVariant", align 8
  %194 = bitcast %"cls.acjs::JsVariant"* %vptr371 to i32 (...)***
  store i32 (...)** bitcast (i8*** @_ZTVN14altered_carbon2js9JsVariantE_GEP to i32 (...)**), i32 (...)*** %194, align 8
  %195 = getelementptr inbounds %"cls.acjs::JsVariant", %"cls.acjs::JsVariant"* %vptr371, i32 0, i32 1
  store i32 1, i32* %195, align 8
  %vptr378 = alloca %"cls.acjs::JsVariant", align 8
  %196 = bitcast %"cls.acjs::JsVariant"* %vptr378 to i32 (...)***
  store i32 (...)** bitcast (i8*** @_ZTVN14altered_carbon2js9JsVariantE_GEP to i32 (...)**), i32 (...)*** %196, align 8
  %197 = getelementptr inbounds %"cls.acjs::JsVariant", %"cls.acjs::JsVariant"* %vptr378, i32 0, i32 1
  store i32 1, i32* %197, align 8
  %vptr379 = alloca %"cls.acjs::JsVariant", align 8
  %198 = bitcast %"cls.acjs::JsVariant"* %vptr379 to i32 (...)***
  store i32 (...)** bitcast (i8*** @_ZTVN14altered_carbon2js9JsVariantE_GEP to i32 (...)**), i32 (...)*** %198, align 8
  %199 = getelementptr inbounds %"cls.acjs::JsVariant", %"cls.acjs::JsVariant"* %vptr379, i32 0, i32 1
  store i32 1, i32* %199, align 8
  %vptr386 = alloca %"cls.acjs::JsVariant", align 8
  %200 = bitcast %"cls.acjs::JsVariant"* %vptr386 to i32 (...)***
  store i32 (...)** bitcast (i8*** @_ZTVN14altered_carbon2js9JsVariantE_GEP to i32 (...)**), i32 (...)*** %200, align 8
  %201 = getelementptr inbounds %"cls.acjs::JsVariant", %"cls.acjs::JsVariant"* %vptr386, i32 0, i32 1
  store i32 1, i32* %201, align 8
  %vptr387 = alloca %"cls.acjs::JsVariant", align 8
  %202 = bitcast %"cls.acjs::JsVariant"* %vptr387 to i32 (...)***
  store i32 (...)** bitcast (i8*** @_ZTVN14altered_carbon2js9JsVariantE_GEP to i32 (...)**), i32 (...)*** %202, align 8
  %203 = getelementptr inbounds %"cls.acjs::JsVariant", %"cls.acjs::JsVariant"* %vptr387, i32 0, i32 1
  store i32 1, i32* %203, align 8
  %vptr394 = alloca %"cls.acjs::JsVariant", align 8
  %204 = bitcast %"cls.acjs::JsVariant"* %vptr394 to i32 (...)***
  store i32 (...)** bitcast (i8*** @_ZTVN14altered_carbon2js9JsVariantE_GEP to i32 (...)**), i32 (...)*** %204, align 8
  %205 = getelementptr inbounds %"cls.acjs::JsVariant", %"cls.acjs::JsVariant"* %vptr394, i32 0, i32 1
  store i32 1, i32* %205, align 8
  %vptr395 = alloca %"cls.acjs::JsVariant", align 8
  %206 = bitcast %"cls.acjs::JsVariant"* %vptr395 to i32 (...)***
  store i32 (...)** bitcast (i8*** @_ZTVN14altered_carbon2js9JsVariantE_GEP to i32 (...)**), i32 (...)*** %206, align 8
  %207 = getelementptr inbounds %"cls.acjs::JsVariant", %"cls.acjs::JsVariant"* %vptr395, i32 0, i32 1
  store i32 1, i32* %207, align 8
  %vptr402 = alloca %"cls.acjs::JsVariant", align 8
  %208 = bitcast %"cls.acjs::JsVariant"* %vptr402 to i32 (...)***
  store i32 (...)** bitcast (i8*** @_ZTVN14altered_carbon2js9JsVariantE_GEP to i32 (...)**), i32 (...)*** %208, align 8
  %209 = getelementptr inbounds %"cls.acjs::JsVariant", %"cls.acjs::JsVariant"* %vptr402, i32 0, i32 1
  store i32 1, i32* %209, align 8
  %vptr403 = alloca %"cls.acjs::JsVariant", align 8
  %210 = bitcast %"cls.acjs::JsVariant"* %vptr403 to i32 (...)***
  store i32 (...)** bitcast (i8*** @_ZTVN14altered_carbon2js9JsVariantE_GEP to i32 (...)**), i32 (...)*** %210, align 8
  %211 = getelementptr inbounds %"cls.acjs::JsVariant", %"cls.acjs::JsVariant"* %vptr403, i32 0, i32 1
  store i32 1, i32* %211, align 8
  %vptr410 = alloca %"cls.acjs::JsVariant", align 8
  %212 = bitcast %"cls.acjs::JsVariant"* %vptr410 to i32 (...)***
  store i32 (...)** bitcast (i8*** @_ZTVN14altered_carbon2js9JsVariantE_GEP to i32 (...)**), i32 (...)*** %212, align 8
  %213 = getelementptr inbounds %"cls.acjs::JsVariant", %"cls.acjs::JsVariant"* %vptr410, i32 0, i32 1
  store i32 1, i32* %213, align 8
  %vptr411 = alloca %"cls.acjs::JsVariant", align 8
  %214 = bitcast %"cls.acjs::JsVariant"* %vptr411 to i32 (...)***
  store i32 (...)** bitcast (i8*** @_ZTVN14altered_carbon2js9JsVariantE_GEP to i32 (...)**), i32 (...)*** %214, align 8
  %215 = getelementptr inbounds %"cls.acjs::JsVariant", %"cls.acjs::JsVariant"* %vptr411, i32 0, i32 1
  store i32 1, i32* %215, align 8
  %vptr418 = alloca %"cls.acjs::JsVariant", align 8
  %216 = bitcast %"cls.acjs::JsVariant"* %vptr418 to i32 (...)***
  store i32 (...)** bitcast (i8*** @_ZTVN14altered_carbon2js9JsVariantE_GEP to i32 (...)**), i32 (...)*** %216, align 8
  %217 = getelementptr inbounds %"cls.acjs::JsVariant", %"cls.acjs::JsVariant"* %vptr418, i32 0, i32 1
  store i32 1, i32* %217, align 8
  %vptr419 = alloca %"cls.acjs::JsVariant", align 8
  %218 = bitcast %"cls.acjs::JsVariant"* %vptr419 to i32 (...)***
  store i32 (...)** bitcast (i8*** @_ZTVN14altered_carbon2js9JsVariantE_GEP to i32 (...)**), i32 (...)*** %218, align 8
  %219 = getelementptr inbounds %"cls.acjs::JsVariant", %"cls.acjs::JsVariant"* %vptr419, i32 0, i32 1
  store i32 1, i32* %219, align 8
  %vptr426 = alloca %"cls.acjs::JsVariant", align 8
  %220 = bitcast %"cls.acjs::JsVariant"* %vptr426 to i32 (...)***
  store i32 (...)** bitcast (i8*** @_ZTVN14altered_carbon2js9JsVariantE_GEP to i32 (...)**), i32 (...)*** %220, align 8
  %221 = getelementptr inbounds %"cls.acjs::JsVariant", %"cls.acjs::JsVariant"* %vptr426, i32 0, i32 1
  store i32 1, i32* %221, align 8
  %vptr427 = alloca %"cls.acjs::JsVariant", align 8
  %222 = bitcast %"cls.acjs::JsVariant"* %vptr427 to i32 (...)***
  store i32 (...)** bitcast (i8*** @_ZTVN14altered_carbon2js9JsVariantE_GEP to i32 (...)**), i32 (...)*** %222, align 8
  %223 = getelementptr inbounds %"cls.acjs::JsVariant", %"cls.acjs::JsVariant"* %vptr427, i32 0, i32 1
  store i32 1, i32* %223, align 8
  %vptr434 = alloca %"cls.acjs::JsVariant", align 8
  %224 = bitcast %"cls.acjs::JsVariant"* %vptr434 to i32 (...)***
  store i32 (...)** bitcast (i8*** @_ZTVN14altered_carbon2js9JsVariantE_GEP to i32 (...)**), i32 (...)*** %224, align 8
  %225 = getelementptr inbounds %"cls.acjs::JsVariant", %"cls.acjs::JsVariant"* %vptr434, i32 0, i32 1
  store i32 1, i32* %225, align 8
  %vptr435 = alloca %"cls.acjs::JsVariant", align 8
  %226 = bitcast %"cls.acjs::JsVariant"* %vptr435 to i32 (...)***
  store i32 (...)** bitcast (i8*** @_ZTVN14altered_carbon2js9JsVariantE_GEP to i32 (...)**), i32 (...)*** %226, align 8
  %227 = getelementptr inbounds %"cls.acjs::JsVariant", %"cls.acjs::JsVariant"* %vptr435, i32 0, i32 1
  store i32 1, i32* %227, align 8
  %vptr442 = alloca %"cls.acjs::JsVariant", align 8
  %228 = bitcast %"cls.acjs::JsVariant"* %vptr442 to i32 (...)***
  store i32 (...)** bitcast (i8*** @_ZTVN14altered_carbon2js9JsVariantE_GEP to i32 (...)**), i32 (...)*** %228, align 8
  %229 = getelementptr inbounds %"cls.acjs::JsVariant", %"cls.acjs::JsVariant"* %vptr442, i32 0, i32 1
  store i32 1, i32* %229, align 8
  %vptr443 = alloca %"cls.acjs::JsVariant", align 8
  %230 = bitcast %"cls.acjs::JsVariant"* %vptr443 to i32 (...)***
  store i32 (...)** bitcast (i8*** @_ZTVN14altered_carbon2js9JsVariantE_GEP to i32 (...)**), i32 (...)*** %230, align 8
  %231 = getelementptr inbounds %"cls.acjs::JsVariant", %"cls.acjs::JsVariant"* %vptr443, i32 0, i32 1
  store i32 1, i32* %231, align 8
  %vptr450 = alloca %"cls.acjs::JsVariant", align 8
  %232 = bitcast %"cls.acjs::JsVariant"* %vptr450 to i32 (...)***
  store i32 (...)** bitcast (i8*** @_ZTVN14altered_carbon2js9JsVariantE_GEP to i32 (...)**), i32 (...)*** %232, align 8
  %233 = getelementptr inbounds %"cls.acjs::JsVariant", %"cls.acjs::JsVariant"* %vptr450, i32 0, i32 1
  store i32 1, i32* %233, align 8
  %vptr451 = alloca %"cls.acjs::JsVariant", align 8
  %234 = bitcast %"cls.acjs::JsVariant"* %vptr451 to i32 (...)***
  store i32 (...)** bitcast (i8*** @_ZTVN14altered_carbon2js9JsVariantE_GEP to i32 (...)**), i32 (...)*** %234, align 8
  %235 = getelementptr inbounds %"cls.acjs::JsVariant", %"cls.acjs::JsVariant"* %vptr451, i32 0, i32 1
  store i32 1, i32* %235, align 8
  %vptr458 = alloca %"cls.acjs::JsVariant", align 8
  %236 = bitcast %"cls.acjs::JsVariant"* %vptr458 to i32 (...)***
  store i32 (...)** bitcast (i8*** @_ZTVN14altered_carbon2js9JsVariantE_GEP to i32 (...)**), i32 (...)*** %236, align 8
  %237 = getelementptr inbounds %"cls.acjs::JsVariant", %"cls.acjs::JsVariant"* %vptr458, i32 0, i32 1
  store i32 1, i32* %237, align 8
  %vptr459 = alloca %"cls.acjs::JsVariant", align 8
  %238 = bitcast %"cls.acjs::JsVariant"* %vptr459 to i32 (...)***
  store i32 (...)** bitcast (i8*** @_ZTVN14altered_carbon2js9JsVariantE_GEP to i32 (...)**), i32 (...)*** %238, align 8
  %239 = getelementptr inbounds %"cls.acjs::JsVariant", %"cls.acjs::JsVariant"* %vptr459, i32 0, i32 1
  store i32 1, i32* %239, align 8
  %vptr466 = alloca %"cls.acjs::JsVariant", align 8
  %240 = bitcast %"cls.acjs::JsVariant"* %vptr466 to i32 (...)***
  store i32 (...)** bitcast (i8*** @_ZTVN14altered_carbon2js9JsVariantE_GEP to i32 (...)**), i32 (...)*** %240, align 8
  %241 = getelementptr inbounds %"cls.acjs::JsVariant", %"cls.acjs::JsVariant"* %vptr466, i32 0, i32 1
  store i32 1, i32* %241, align 8
  %vptr467 = alloca %"cls.acjs::JsVariant", align 8
  %242 = bitcast %"cls.acjs::JsVariant"* %vptr467 to i32 (...)***
  store i32 (...)** bitcast (i8*** @_ZTVN14altered_carbon2js9JsVariantE_GEP to i32 (...)**), i32 (...)*** %242, align 8
  %243 = getelementptr inbounds %"cls.acjs::JsVariant", %"cls.acjs::JsVariant"* %vptr467, i32 0, i32 1
  store i32 1, i32* %243, align 8
  %vptr474 = alloca %"cls.acjs::JsVariant", align 8
  %244 = bitcast %"cls.acjs::JsVariant"* %vptr474 to i32 (...)***
  store i32 (...)** bitcast (i8*** @_ZTVN14altered_carbon2js9JsVariantE_GEP to i32 (...)**), i32 (...)*** %244, align 8
  %245 = getelementptr inbounds %"cls.acjs::JsVariant", %"cls.acjs::JsVariant"* %vptr474, i32 0, i32 1
  store i32 1, i32* %245, align 8
  %vptr475 = alloca %"cls.acjs::JsVariant", align 8
  %246 = bitcast %"cls.acjs::JsVariant"* %vptr475 to i32 (...)***
  store i32 (...)** bitcast (i8*** @_ZTVN14altered_carbon2js9JsVariantE_GEP to i32 (...)**), i32 (...)*** %246, align 8
  %247 = getelementptr inbounds %"cls.acjs::JsVariant", %"cls.acjs::JsVariant"* %vptr475, i32 0, i32 1
  store i32 1, i32* %247, align 8
  %vptr482 = alloca %"cls.acjs::JsVariant", align 8
  %248 = bitcast %"cls.acjs::JsVariant"* %vptr482 to i32 (...)***
  store i32 (...)** bitcast (i8*** @_ZTVN14altered_carbon2js9JsVariantE_GEP to i32 (...)**), i32 (...)*** %248, align 8
  %249 = getelementptr inbounds %"cls.acjs::JsVariant", %"cls.acjs::JsVariant"* %vptr482, i32 0, i32 1
  store i32 1, i32* %249, align 8
  %vptr483 = alloca %"cls.acjs::JsVariant", align 8
  %250 = bitcast %"cls.acjs::JsVariant"* %vptr483 to i32 (...)***
  store i32 (...)** bitcast (i8*** @_ZTVN14altered_carbon2js9JsVariantE_GEP to i32 (...)**), i32 (...)*** %250, align 8
  %251 = getelementptr inbounds %"cls.acjs::JsVariant", %"cls.acjs::JsVariant"* %vptr483, i32 0, i32 1
  store i32 1, i32* %251, align 8
  %vptr490 = alloca %"cls.acjs::JsVariant", align 8
  %252 = bitcast %"cls.acjs::JsVariant"* %vptr490 to i32 (...)***
  store i32 (...)** bitcast (i8*** @_ZTVN14altered_carbon2js9JsVariantE_GEP to i32 (...)**), i32 (...)*** %252, align 8
  %253 = getelementptr inbounds %"cls.acjs::JsVariant", %"cls.acjs::JsVariant"* %vptr490, i32 0, i32 1
  store i32 1, i32* %253, align 8
  %vptr491 = alloca %"cls.acjs::JsVariant", align 8
  %254 = bitcast %"cls.acjs::JsVariant"* %vptr491 to i32 (...)***
  store i32 (...)** bitcast (i8*** @_ZTVN14altered_carbon2js9JsVariantE_GEP to i32 (...)**), i32 (...)*** %254, align 8
  %255 = getelementptr inbounds %"cls.acjs::JsVariant", %"cls.acjs::JsVariant"* %vptr491, i32 0, i32 1
  store i32 1, i32* %255, align 8
  %vptr498 = alloca %"cls.acjs::JsVariant", align 8
  %256 = bitcast %"cls.acjs::JsVariant"* %vptr498 to i32 (...)***
  store i32 (...)** bitcast (i8*** @_ZTVN14altered_carbon2js9JsVariantE_GEP to i32 (...)**), i32 (...)*** %256, align 8
  %257 = getelementptr inbounds %"cls.acjs::JsVariant", %"cls.acjs::JsVariant"* %vptr498, i32 0, i32 1
  store i32 1, i32* %257, align 8
  %vptr499 = alloca %"cls.acjs::JsVariant", align 8
  %258 = bitcast %"cls.acjs::JsVariant"* %vptr499 to i32 (...)***
  store i32 (...)** bitcast (i8*** @_ZTVN14altered_carbon2js9JsVariantE_GEP to i32 (...)**), i32 (...)*** %258, align 8
  %259 = getelementptr inbounds %"cls.acjs::JsVariant", %"cls.acjs::JsVariant"* %vptr499, i32 0, i32 1
  store i32 1, i32* %259, align 8
  %vptr506 = alloca %"cls.acjs::JsVariant", align 8
  %260 = bitcast %"cls.acjs::JsVariant"* %vptr506 to i32 (...)***
  store i32 (...)** bitcast (i8*** @_ZTVN14altered_carbon2js9JsVariantE_GEP to i32 (...)**), i32 (...)*** %260, align 8
  %261 = getelementptr inbounds %"cls.acjs::JsVariant", %"cls.acjs::JsVariant"* %vptr506, i32 0, i32 1
  store i32 1, i32* %261, align 8
  %vptr507 = alloca %"cls.acjs::JsVariant", align 8
  %262 = bitcast %"cls.acjs::JsVariant"* %vptr507 to i32 (...)***
  store i32 (...)** bitcast (i8*** @_ZTVN14altered_carbon2js9JsVariantE_GEP to i32 (...)**), i32 (...)*** %262, align 8
  %263 = getelementptr inbounds %"cls.acjs::JsVariant", %"cls.acjs::JsVariant"* %vptr507, i32 0, i32 1
  store i32 1, i32* %263, align 8
  %vptr514 = alloca %"cls.acjs::JsVariant", align 8
  %264 = bitcast %"cls.acjs::JsVariant"* %vptr514 to i32 (...)***
  store i32 (...)** bitcast (i8*** @_ZTVN14altered_carbon2js9JsVariantE_GEP to i32 (...)**), i32 (...)*** %264, align 8
  %265 = getelementptr inbounds %"cls.acjs::JsVariant", %"cls.acjs::JsVariant"* %vptr514, i32 0, i32 1
  store i32 1, i32* %265, align 8
  %vptr515 = alloca %"cls.acjs::JsVariant", align 8
  %266 = bitcast %"cls.acjs::JsVariant"* %vptr515 to i32 (...)***
  store i32 (...)** bitcast (i8*** @_ZTVN14altered_carbon2js9JsVariantE_GEP to i32 (...)**), i32 (...)*** %266, align 8
  %267 = getelementptr inbounds %"cls.acjs::JsVariant", %"cls.acjs::JsVariant"* %vptr515, i32 0, i32 1
  store i32 1, i32* %267, align 8
  %vptr522 = alloca %"cls.acjs::JsVariant", align 8
  %268 = bitcast %"cls.acjs::JsVariant"* %vptr522 to i32 (...)***
  store i32 (...)** bitcast (i8*** @_ZTVN14altered_carbon2js9JsVariantE_GEP to i32 (...)**), i32 (...)*** %268, align 8
  %269 = getelementptr inbounds %"cls.acjs::JsVariant", %"cls.acjs::JsVariant"* %vptr522, i32 0, i32 1
  store i32 1, i32* %269, align 8
  %vptr523 = alloca %"cls.acjs::JsVariant", align 8
  %270 = bitcast %"cls.acjs::JsVariant"* %vptr523 to i32 (...)***
  store i32 (...)** bitcast (i8*** @_ZTVN14altered_carbon2js9JsVariantE_GEP to i32 (...)**), i32 (...)*** %270, align 8
  %271 = getelementptr inbounds %"cls.acjs::JsVariant", %"cls.acjs::JsVariant"* %vptr523, i32 0, i32 1
  store i32 1, i32* %271, align 8
  %vptr530 = alloca %"cls.acjs::JsVariant", align 8
  %272 = bitcast %"cls.acjs::JsVariant"* %vptr530 to i32 (...)***
  store i32 (...)** bitcast (i8*** @_ZTVN14altered_carbon2js9JsVariantE_GEP to i32 (...)**), i32 (...)*** %272, align 8
  %273 = getelementptr inbounds %"cls.acjs::JsVariant", %"cls.acjs::JsVariant"* %vptr530, i32 0, i32 1
  store i32 1, i32* %273, align 8
  %vptr531 = alloca %"cls.acjs::JsVariant", align 8
  %274 = bitcast %"cls.acjs::JsVariant"* %vptr531 to i32 (...)***
  store i32 (...)** bitcast (i8*** @_ZTVN14altered_carbon2js9JsVariantE_GEP to i32 (...)**), i32 (...)*** %274, align 8
  %275 = getelementptr inbounds %"cls.acjs::JsVariant", %"cls.acjs::JsVariant"* %vptr531, i32 0, i32 1
  store i32 1, i32* %275, align 8
  %vptr538 = alloca %"cls.acjs::JsVariant", align 8
  %276 = bitcast %"cls.acjs::JsVariant"* %vptr538 to i32 (...)***
  store i32 (...)** bitcast (i8*** @_ZTVN14altered_carbon2js9JsVariantE_GEP to i32 (...)**), i32 (...)*** %276, align 8
  %277 = getelementptr inbounds %"cls.acjs::JsVariant", %"cls.acjs::JsVariant"* %vptr538, i32 0, i32 1
  store i32 1, i32* %277, align 8
  %vptr539 = alloca %"cls.acjs::JsVariant", align 8
  %278 = bitcast %"cls.acjs::JsVariant"* %vptr539 to i32 (...)***
  store i32 (...)** bitcast (i8*** @_ZTVN14altered_carbon2js9JsVariantE_GEP to i32 (...)**), i32 (...)*** %278, align 8
  %279 = getelementptr inbounds %"cls.acjs::JsVariant", %"cls.acjs::JsVariant"* %vptr539, i32 0, i32 1
  store i32 1, i32* %279, align 8
  %vptr546 = alloca %"cls.acjs::JsVariant", align 8
  %280 = bitcast %"cls.acjs::JsVariant"* %vptr546 to i32 (...)***
  store i32 (...)** bitcast (i8*** @_ZTVN14altered_carbon2js9JsVariantE_GEP to i32 (...)**), i32 (...)*** %280, align 8
  %281 = getelementptr inbounds %"cls.acjs::JsVariant", %"cls.acjs::JsVariant"* %vptr546, i32 0, i32 1
  store i32 1, i32* %281, align 8
  %vptr547 = alloca %"cls.acjs::JsVariant", align 8
  %282 = bitcast %"cls.acjs::JsVariant"* %vptr547 to i32 (...)***
  store i32 (...)** bitcast (i8*** @_ZTVN14altered_carbon2js9JsVariantE_GEP to i32 (...)**), i32 (...)*** %282, align 8
  %283 = getelementptr inbounds %"cls.acjs::JsVariant", %"cls.acjs::JsVariant"* %vptr547, i32 0, i32 1
  store i32 1, i32* %283, align 8
  %vptr554 = alloca %"cls.acjs::JsVariant", align 8
  %284 = bitcast %"cls.acjs::JsVariant"* %vptr554 to i32 (...)***
  store i32 (...)** bitcast (i8*** @_ZTVN14altered_carbon2js9JsVariantE_GEP to i32 (...)**), i32 (...)*** %284, align 8
  %285 = getelementptr inbounds %"cls.acjs::JsVariant", %"cls.acjs::JsVariant"* %vptr554, i32 0, i32 1
  store i32 1, i32* %285, align 8
  %vptr555 = alloca %"cls.acjs::JsVariant", align 8
  %286 = bitcast %"cls.acjs::JsVariant"* %vptr555 to i32 (...)***
  store i32 (...)** bitcast (i8*** @_ZTVN14altered_carbon2js9JsVariantE_GEP to i32 (...)**), i32 (...)*** %286, align 8
  %287 = getelementptr inbounds %"cls.acjs::JsVariant", %"cls.acjs::JsVariant"* %vptr555, i32 0, i32 1
  store i32 1, i32* %287, align 8
  %vptr562 = alloca %"cls.acjs::JsVariant", align 8
  %288 = bitcast %"cls.acjs::JsVariant"* %vptr562 to i32 (...)***
  store i32 (...)** bitcast (i8*** @_ZTVN14altered_carbon2js9JsVariantE_GEP to i32 (...)**), i32 (...)*** %288, align 8
  %289 = getelementptr inbounds %"cls.acjs::JsVariant", %"cls.acjs::JsVariant"* %vptr562, i32 0, i32 1
  store i32 1, i32* %289, align 8
  %vptr563 = alloca %"cls.acjs::JsVariant", align 8
  %290 = bitcast %"cls.acjs::JsVariant"* %vptr563 to i32 (...)***
  store i32 (...)** bitcast (i8*** @_ZTVN14altered_carbon2js9JsVariantE_GEP to i32 (...)**), i32 (...)*** %290, align 8
  %291 = getelementptr inbounds %"cls.acjs::JsVariant", %"cls.acjs::JsVariant"* %vptr563, i32 0, i32 1
  store i32 1, i32* %291, align 8
  %vptr570 = alloca %"cls.acjs::JsVariant", align 8
  %292 = bitcast %"cls.acjs::JsVariant"* %vptr570 to i32 (...)***
  store i32 (...)** bitcast (i8*** @_ZTVN14altered_carbon2js9JsVariantE_GEP to i32 (...)**), i32 (...)*** %292, align 8
  %293 = getelementptr inbounds %"cls.acjs::JsVariant", %"cls.acjs::JsVariant"* %vptr570, i32 0, i32 1
  store i32 1, i32* %293, align 8
  %vptr571 = alloca %"cls.acjs::JsVariant", align 8
  %294 = bitcast %"cls.acjs::JsVariant"* %vptr571 to i32 (...)***
  store i32 (...)** bitcast (i8*** @_ZTVN14altered_carbon2js9JsVariantE_GEP to i32 (...)**), i32 (...)*** %294, align 8
  %295 = getelementptr inbounds %"cls.acjs::JsVariant", %"cls.acjs::JsVariant"* %vptr571, i32 0, i32 1
  store i32 1, i32* %295, align 8
  %vptr578 = alloca %"cls.acjs::JsVariant", align 8
  %296 = bitcast %"cls.acjs::JsVariant"* %vptr578 to i32 (...)***
  store i32 (...)** bitcast (i8*** @_ZTVN14altered_carbon2js9JsVariantE_GEP to i32 (...)**), i32 (...)*** %296, align 8
  %297 = getelementptr inbounds %"cls.acjs::JsVariant", %"cls.acjs::JsVariant"* %vptr578, i32 0, i32 1
  store i32 1, i32* %297, align 8
  %vptr579 = alloca %"cls.acjs::JsVariant", align 8
  %298 = bitcast %"cls.acjs::JsVariant"* %vptr579 to i32 (...)***
  store i32 (...)** bitcast (i8*** @_ZTVN14altered_carbon2js9JsVariantE_GEP to i32 (...)**), i32 (...)*** %298, align 8
  %299 = getelementptr inbounds %"cls.acjs::JsVariant", %"cls.acjs::JsVariant"* %vptr579, i32 0, i32 1
  store i32 1, i32* %299, align 8
  %vptr586 = alloca %"cls.acjs::JsVariant", align 8
  %300 = bitcast %"cls.acjs::JsVariant"* %vptr586 to i32 (...)***
  store i32 (...)** bitcast (i8*** @_ZTVN14altered_carbon2js9JsVariantE_GEP to i32 (...)**), i32 (...)*** %300, align 8
  %301 = getelementptr inbounds %"cls.acjs::JsVariant", %"cls.acjs::JsVariant"* %vptr586, i32 0, i32 1
  store i32 1, i32* %301, align 8
  %vptr587 = alloca %"cls.acjs::JsVariant", align 8
  %302 = bitcast %"cls.acjs::JsVariant"* %vptr587 to i32 (...)***
  store i32 (...)** bitcast (i8*** @_ZTVN14altered_carbon2js9JsVariantE_GEP to i32 (...)**), i32 (...)*** %302, align 8
  %303 = getelementptr inbounds %"cls.acjs::JsVariant", %"cls.acjs::JsVariant"* %vptr587, i32 0, i32 1
  store i32 1, i32* %303, align 8
  %vptr594 = alloca %"cls.acjs::JsVariant", align 8
  %304 = bitcast %"cls.acjs::JsVariant"* %vptr594 to i32 (...)***
  store i32 (...)** bitcast (i8*** @_ZTVN14altered_carbon2js9JsVariantE_GEP to i32 (...)**), i32 (...)*** %304, align 8
  %305 = getelementptr inbounds %"cls.acjs::JsVariant", %"cls.acjs::JsVariant"* %vptr594, i32 0, i32 1
  store i32 1, i32* %305, align 8
  %vptr595 = alloca %"cls.acjs::JsVariant", align 8
  %306 = bitcast %"cls.acjs::JsVariant"* %vptr595 to i32 (...)***
  store i32 (...)** bitcast (i8*** @_ZTVN14altered_carbon2js9JsVariantE_GEP to i32 (...)**), i32 (...)*** %306, align 8
  %307 = getelementptr inbounds %"cls.acjs::JsVariant", %"cls.acjs::JsVariant"* %vptr595, i32 0, i32 1
  store i32 1, i32* %307, align 8
  %vptr602 = alloca %"cls.acjs::JsVariant", align 8
  %308 = bitcast %"cls.acjs::JsVariant"* %vptr602 to i32 (...)***
  store i32 (...)** bitcast (i8*** @_ZTVN14altered_carbon2js9JsVariantE_GEP to i32 (...)**), i32 (...)*** %308, align 8
  %309 = getelementptr inbounds %"cls.acjs::JsVariant", %"cls.acjs::JsVariant"* %vptr602, i32 0, i32 1
  store i32 1, i32* %309, align 8
  %vptr603 = alloca %"cls.acjs::JsVariant", align 8
  %310 = bitcast %"cls.acjs::JsVariant"* %vptr603 to i32 (...)***
  store i32 (...)** bitcast (i8*** @_ZTVN14altered_carbon2js9JsVariantE_GEP to i32 (...)**), i32 (...)*** %310, align 8
  %311 = getelementptr inbounds %"cls.acjs::JsVariant", %"cls.acjs::JsVariant"* %vptr603, i32 0, i32 1
  store i32 1, i32* %311, align 8
  %vptr610 = alloca %"cls.acjs::JsVariant", align 8
  %312 = bitcast %"cls.acjs::JsVariant"* %vptr610 to i32 (...)***
  store i32 (...)** bitcast (i8*** @_ZTVN14altered_carbon2js9JsVariantE_GEP to i32 (...)**), i32 (...)*** %312, align 8
  %313 = getelementptr inbounds %"cls.acjs::JsVariant", %"cls.acjs::JsVariant"* %vptr610, i32 0, i32 1
  store i32 1, i32* %313, align 8
  %vptr611 = alloca %"cls.acjs::JsVariant", align 8
  %314 = bitcast %"cls.acjs::JsVariant"* %vptr611 to i32 (...)***
  store i32 (...)** bitcast (i8*** @_ZTVN14altered_carbon2js9JsVariantE_GEP to i32 (...)**), i32 (...)*** %314, align 8
  %315 = getelementptr inbounds %"cls.acjs::JsVariant", %"cls.acjs::JsVariant"* %vptr611, i32 0, i32 1
  store i32 1, i32* %315, align 8
  %vptr618 = alloca %"cls.acjs::JsVariant", align 8
  %316 = bitcast %"cls.acjs::JsVariant"* %vptr618 to i32 (...)***
  store i32 (...)** bitcast (i8*** @_ZTVN14altered_carbon2js9JsVariantE_GEP to i32 (...)**), i32 (...)*** %316, align 8
  %317 = getelementptr inbounds %"cls.acjs::JsVariant", %"cls.acjs::JsVariant"* %vptr618, i32 0, i32 1
  store i32 1, i32* %317, align 8
  %vptr619 = alloca %"cls.acjs::JsVariant", align 8
  %318 = bitcast %"cls.acjs::JsVariant"* %vptr619 to i32 (...)***
  store i32 (...)** bitcast (i8*** @_ZTVN14altered_carbon2js9JsVariantE_GEP to i32 (...)**), i32 (...)*** %318, align 8
  %319 = getelementptr inbounds %"cls.acjs::JsVariant", %"cls.acjs::JsVariant"* %vptr619, i32 0, i32 1
  store i32 1, i32* %319, align 8
  %vptr626 = alloca %"cls.acjs::JsVariant", align 8
  %320 = bitcast %"cls.acjs::JsVariant"* %vptr626 to i32 (...)***
  store i32 (...)** bitcast (i8*** @_ZTVN14altered_carbon2js9JsVariantE_GEP to i32 (...)**), i32 (...)*** %320, align 8
  %321 = getelementptr inbounds %"cls.acjs::JsVariant", %"cls.acjs::JsVariant"* %vptr626, i32 0, i32 1
  store i32 1, i32* %321, align 8
  %vptr627 = alloca %"cls.acjs::JsVariant", align 8
  %322 = bitcast %"cls.acjs::JsVariant"* %vptr627 to i32 (...)***
  store i32 (...)** bitcast (i8*** @_ZTVN14altered_carbon2js9JsVariantE_GEP to i32 (...)**), i32 (...)*** %322, align 8
  %323 = getelementptr inbounds %"cls.acjs::JsVariant", %"cls.acjs::JsVariant"* %vptr627, i32 0, i32 1
  store i32 1, i32* %323, align 8
  %vptr634 = alloca %"cls.acjs::JsVariant", align 8
  %324 = bitcast %"cls.acjs::JsVariant"* %vptr634 to i32 (...)***
  store i32 (...)** bitcast (i8*** @_ZTVN14altered_carbon2js9JsVariantE_GEP to i32 (...)**), i32 (...)*** %324, align 8
  %325 = getelementptr inbounds %"cls.acjs::JsVariant", %"cls.acjs::JsVariant"* %vptr634, i32 0, i32 1
  store i32 1, i32* %325, align 8
  %vptr635 = alloca %"cls.acjs::JsVariant", align 8
  %326 = bitcast %"cls.acjs::JsVariant"* %vptr635 to i32 (...)***
  store i32 (...)** bitcast (i8*** @_ZTVN14altered_carbon2js9JsVariantE_GEP to i32 (...)**), i32 (...)*** %326, align 8
  %327 = getelementptr inbounds %"cls.acjs::JsVariant", %"cls.acjs::JsVariant"* %vptr635, i32 0, i32 1
  store i32 1, i32* %327, align 8
  %vptr642 = alloca %"cls.acjs::JsVariant", align 8
  %328 = bitcast %"cls.acjs::JsVariant"* %vptr642 to i32 (...)***
  store i32 (...)** bitcast (i8*** @_ZTVN14altered_carbon2js9JsVariantE_GEP to i32 (...)**), i32 (...)*** %328, align 8
  %329 = getelementptr inbounds %"cls.acjs::JsVariant", %"cls.acjs::JsVariant"* %vptr642, i32 0, i32 1
  store i32 1, i32* %329, align 8
  %vptr643 = alloca %"cls.acjs::JsVariant", align 8
  %330 = bitcast %"cls.acjs::JsVariant"* %vptr643 to i32 (...)***
  store i32 (...)** bitcast (i8*** @_ZTVN14altered_carbon2js9JsVariantE_GEP to i32 (...)**), i32 (...)*** %330, align 8
  %331 = getelementptr inbounds %"cls.acjs::JsVariant", %"cls.acjs::JsVariant"* %vptr643, i32 0, i32 1
  store i32 1, i32* %331, align 8
  %vptr650 = alloca %"cls.acjs::JsVariant", align 8
  %332 = bitcast %"cls.acjs::JsVariant"* %vptr650 to i32 (...)***
  store i32 (...)** bitcast (i8*** @_ZTVN14altered_carbon2js9JsVariantE_GEP to i32 (...)**), i32 (...)*** %332, align 8
  %333 = getelementptr inbounds %"cls.acjs::JsVariant", %"cls.acjs::JsVariant"* %vptr650, i32 0, i32 1
  store i32 1, i32* %333, align 8
  %vptr651 = alloca %"cls.acjs::JsVariant", align 8
  %334 = bitcast %"cls.acjs::JsVariant"* %vptr651 to i32 (...)***
  store i32 (...)** bitcast (i8*** @_ZTVN14altered_carbon2js9JsVariantE_GEP to i32 (...)**), i32 (...)*** %334, align 8
  %335 = getelementptr inbounds %"cls.acjs::JsVariant", %"cls.acjs::JsVariant"* %vptr651, i32 0, i32 1
  store i32 1, i32* %335, align 8
  %vptr658 = alloca %"cls.acjs::JsVariant", align 8
  %336 = bitcast %"cls.acjs::JsVariant"* %vptr658 to i32 (...)***
  store i32 (...)** bitcast (i8*** @_ZTVN14altered_carbon2js9JsVariantE_GEP to i32 (...)**), i32 (...)*** %336, align 8
  %337 = getelementptr inbounds %"cls.acjs::JsVariant", %"cls.acjs::JsVariant"* %vptr658, i32 0, i32 1
  store i32 1, i32* %337, align 8
  %vptr659 = alloca %"cls.acjs::JsVariant", align 8
  %338 = bitcast %"cls.acjs::JsVariant"* %vptr659 to i32 (...)***
  store i32 (...)** bitcast (i8*** @_ZTVN14altered_carbon2js9JsVariantE_GEP to i32 (...)**), i32 (...)*** %338, align 8
  %339 = getelementptr inbounds %"cls.acjs::JsVariant", %"cls.acjs::JsVariant"* %vptr659, i32 0, i32 1
  store i32 1, i32* %339, align 8
  %vptr666 = alloca %"cls.acjs::JsVariant", align 8
  %340 = bitcast %"cls.acjs::JsVariant"* %vptr666 to i32 (...)***
  store i32 (...)** bitcast (i8*** @_ZTVN14altered_carbon2js9JsVariantE_GEP to i32 (...)**), i32 (...)*** %340, align 8
  %341 = getelementptr inbounds %"cls.acjs::JsVariant", %"cls.acjs::JsVariant"* %vptr666, i32 0, i32 1
  store i32 1, i32* %341, align 8
  %vptr667 = alloca %"cls.acjs::JsVariant", align 8
  %342 = bitcast %"cls.acjs::JsVariant"* %vptr667 to i32 (...)***
  store i32 (...)** bitcast (i8*** @_ZTVN14altered_carbon2js9JsVariantE_GEP to i32 (...)**), i32 (...)*** %342, align 8
  %343 = getelementptr inbounds %"cls.acjs::JsVariant", %"cls.acjs::JsVariant"* %vptr667, i32 0, i32 1
  store i32 1, i32* %343, align 8
  %vptr674 = alloca %"cls.acjs::JsVariant", align 8
  %344 = bitcast %"cls.acjs::JsVariant"* %vptr674 to i32 (...)***
  store i32 (...)** bitcast (i8*** @_ZTVN14altered_carbon2js9JsVariantE_GEP to i32 (...)**), i32 (...)*** %344, align 8
  %345 = getelementptr inbounds %"cls.acjs::JsVariant", %"cls.acjs::JsVariant"* %vptr674, i32 0, i32 1
  store i32 1, i32* %345, align 8
  %vptr675 = alloca %"cls.acjs::JsVariant", align 8
  %346 = bitcast %"cls.acjs::JsVariant"* %vptr675 to i32 (...)***
  store i32 (...)** bitcast (i8*** @_ZTVN14altered_carbon2js9JsVariantE_GEP to i32 (...)**), i32 (...)*** %346, align 8
  %347 = getelementptr inbounds %"cls.acjs::JsVariant", %"cls.acjs::JsVariant"* %vptr675, i32 0, i32 1
  store i32 1, i32* %347, align 8
  %vptr682 = alloca %"cls.acjs::JsVariant", align 8
  %348 = bitcast %"cls.acjs::JsVariant"* %vptr682 to i32 (...)***
  store i32 (...)** bitcast (i8*** @_ZTVN14altered_carbon2js9JsVariantE_GEP to i32 (...)**), i32 (...)*** %348, align 8
  %349 = getelementptr inbounds %"cls.acjs::JsVariant", %"cls.acjs::JsVariant"* %vptr682, i32 0, i32 1
  store i32 1, i32* %349, align 8
  %vptr683 = alloca %"cls.acjs::JsVariant", align 8
  %350 = bitcast %"cls.acjs::JsVariant"* %vptr683 to i32 (...)***
  store i32 (...)** bitcast (i8*** @_ZTVN14altered_carbon2js9JsVariantE_GEP to i32 (...)**), i32 (...)*** %350, align 8
  %351 = getelementptr inbounds %"cls.acjs::JsVariant", %"cls.acjs::JsVariant"* %vptr683, i32 0, i32 1
  store i32 1, i32* %351, align 8
  %vptr690 = alloca %"cls.acjs::JsVariant", align 8
  %352 = bitcast %"cls.acjs::JsVariant"* %vptr690 to i32 (...)***
  store i32 (...)** bitcast (i8*** @_ZTVN14altered_carbon2js9JsVariantE_GEP to i32 (...)**), i32 (...)*** %352, align 8
  %353 = getelementptr inbounds %"cls.acjs::JsVariant", %"cls.acjs::JsVariant"* %vptr690, i32 0, i32 1
  store i32 1, i32* %353, align 8
  %vptr691 = alloca %"cls.acjs::JsVariant", align 8
  %354 = bitcast %"cls.acjs::JsVariant"* %vptr691 to i32 (...)***
  store i32 (...)** bitcast (i8*** @_ZTVN14altered_carbon2js9JsVariantE_GEP to i32 (...)**), i32 (...)*** %354, align 8
  %355 = getelementptr inbounds %"cls.acjs::JsVariant", %"cls.acjs::JsVariant"* %vptr691, i32 0, i32 1
  store i32 1, i32* %355, align 8
  %vptr698 = alloca %"cls.acjs::JsVariant", align 8
  %356 = bitcast %"cls.acjs::JsVariant"* %vptr698 to i32 (...)***
  store i32 (...)** bitcast (i8*** @_ZTVN14altered_carbon2js9JsVariantE_GEP to i32 (...)**), i32 (...)*** %356, align 8
  %357 = getelementptr inbounds %"cls.acjs::JsVariant", %"cls.acjs::JsVariant"* %vptr698, i32 0, i32 1
  store i32 1, i32* %357, align 8
  %vptr699 = alloca %"cls.acjs::JsVariant", align 8
  %358 = bitcast %"cls.acjs::JsVariant"* %vptr699 to i32 (...)***
  store i32 (...)** bitcast (i8*** @_ZTVN14altered_carbon2js9JsVariantE_GEP to i32 (...)**), i32 (...)*** %358, align 8
  %359 = getelementptr inbounds %"cls.acjs::JsVariant", %"cls.acjs::JsVariant"* %vptr699, i32 0, i32 1
  store i32 1, i32* %359, align 8
  %vptr706 = alloca %"cls.acjs::JsVariant", align 8
  %360 = bitcast %"cls.acjs::JsVariant"* %vptr706 to i32 (...)***
  store i32 (...)** bitcast (i8*** @_ZTVN14altered_carbon2js9JsVariantE_GEP to i32 (...)**), i32 (...)*** %360, align 8
  %361 = getelementptr inbounds %"cls.acjs::JsVariant", %"cls.acjs::JsVariant"* %vptr706, i32 0, i32 1
  store i32 1, i32* %361, align 8
  %vptr707 = alloca %"cls.acjs::JsVariant", align 8
  %362 = bitcast %"cls.acjs::JsVariant"* %vptr707 to i32 (...)***
  store i32 (...)** bitcast (i8*** @_ZTVN14altered_carbon2js9JsVariantE_GEP to i32 (...)**), i32 (...)*** %362, align 8
  %363 = getelementptr inbounds %"cls.acjs::JsVariant", %"cls.acjs::JsVariant"* %vptr707, i32 0, i32 1
  store i32 1, i32* %363, align 8
  %vptr714 = alloca %"cls.acjs::JsVariant", align 8
  %364 = bitcast %"cls.acjs::JsVariant"* %vptr714 to i32 (...)***
  store i32 (...)** bitcast (i8*** @_ZTVN14altered_carbon2js9JsVariantE_GEP to i32 (...)**), i32 (...)*** %364, align 8
  %365 = getelementptr inbounds %"cls.acjs::JsVariant", %"cls.acjs::JsVariant"* %vptr714, i32 0, i32 1
  store i32 1, i32* %365, align 8
  %vptr715 = alloca %"cls.acjs::JsVariant", align 8
  %366 = bitcast %"cls.acjs::JsVariant"* %vptr715 to i32 (...)***
  store i32 (...)** bitcast (i8*** @_ZTVN14altered_carbon2js9JsVariantE_GEP to i32 (...)**), i32 (...)*** %366, align 8
  %367 = getelementptr inbounds %"cls.acjs::JsVariant", %"cls.acjs::JsVariant"* %vptr715, i32 0, i32 1
  store i32 1, i32* %367, align 8
  %vptr722 = alloca %"cls.acjs::JsVariant", align 8
  %368 = bitcast %"cls.acjs::JsVariant"* %vptr722 to i32 (...)***
  store i32 (...)** bitcast (i8*** @_ZTVN14altered_carbon2js9JsVariantE_GEP to i32 (...)**), i32 (...)*** %368, align 8
  %369 = getelementptr inbounds %"cls.acjs::JsVariant", %"cls.acjs::JsVariant"* %vptr722, i32 0, i32 1
  store i32 1, i32* %369, align 8
  %vptr723 = alloca %"cls.acjs::JsVariant", align 8
  %370 = bitcast %"cls.acjs::JsVariant"* %vptr723 to i32 (...)***
  store i32 (...)** bitcast (i8*** @_ZTVN14altered_carbon2js9JsVariantE_GEP to i32 (...)**), i32 (...)*** %370, align 8
  %371 = getelementptr inbounds %"cls.acjs::JsVariant", %"cls.acjs::JsVariant"* %vptr723, i32 0, i32 1
  store i32 1, i32* %371, align 8
  %vptr730 = alloca %"cls.acjs::JsVariant", align 8
  %372 = bitcast %"cls.acjs::JsVariant"* %vptr730 to i32 (...)***
  store i32 (...)** bitcast (i8*** @_ZTVN14altered_carbon2js9JsVariantE_GEP to i32 (...)**), i32 (...)*** %372, align 8
  %373 = getelementptr inbounds %"cls.acjs::JsVariant", %"cls.acjs::JsVariant"* %vptr730, i32 0, i32 1
  store i32 1, i32* %373, align 8
  %vptr731 = alloca %"cls.acjs::JsVariant", align 8
  %374 = bitcast %"cls.acjs::JsVariant"* %vptr731 to i32 (...)***
  store i32 (...)** bitcast (i8*** @_ZTVN14altered_carbon2js9JsVariantE_GEP to i32 (...)**), i32 (...)*** %374, align 8
  %375 = getelementptr inbounds %"cls.acjs::JsVariant", %"cls.acjs::JsVariant"* %vptr731, i32 0, i32 1
  store i32 1, i32* %375, align 8
  %vptr738 = alloca %"cls.acjs::JsVariant", align 8
  %376 = bitcast %"cls.acjs::JsVariant"* %vptr738 to i32 (...)***
  store i32 (...)** bitcast (i8*** @_ZTVN14altered_carbon2js9JsVariantE_GEP to i32 (...)**), i32 (...)*** %376, align 8
  %377 = getelementptr inbounds %"cls.acjs::JsVariant", %"cls.acjs::JsVariant"* %vptr738, i32 0, i32 1
  store i32 1, i32* %377, align 8
  %vptr739 = alloca %"cls.acjs::JsVariant", align 8
  %378 = bitcast %"cls.acjs::JsVariant"* %vptr739 to i32 (...)***
  store i32 (...)** bitcast (i8*** @_ZTVN14altered_carbon2js9JsVariantE_GEP to i32 (...)**), i32 (...)*** %378, align 8
  %379 = getelementptr inbounds %"cls.acjs::JsVariant", %"cls.acjs::JsVariant"* %vptr739, i32 0, i32 1
  store i32 1, i32* %379, align 8
  %vptr746 = alloca %"cls.acjs::JsVariant", align 8
  %380 = bitcast %"cls.acjs::JsVariant"* %vptr746 to i32 (...)***
  store i32 (...)** bitcast (i8*** @_ZTVN14altered_carbon2js9JsVariantE_GEP to i32 (...)**), i32 (...)*** %380, align 8
  %381 = getelementptr inbounds %"cls.acjs::JsVariant", %"cls.acjs::JsVariant"* %vptr746, i32 0, i32 1
  store i32 1, i32* %381, align 8
  %vptr747 = alloca %"cls.acjs::JsVariant", align 8
  %382 = bitcast %"cls.acjs::JsVariant"* %vptr747 to i32 (...)***
  store i32 (...)** bitcast (i8*** @_ZTVN14altered_carbon2js9JsVariantE_GEP to i32 (...)**), i32 (...)*** %382, align 8
  %383 = getelementptr inbounds %"cls.acjs::JsVariant", %"cls.acjs::JsVariant"* %vptr747, i32 0, i32 1
  store i32 1, i32* %383, align 8
  %vptr754 = alloca %"cls.acjs::JsVariant", align 8
  %384 = bitcast %"cls.acjs::JsVariant"* %vptr754 to i32 (...)***
  store i32 (...)** bitcast (i8*** @_ZTVN14altered_carbon2js9JsVariantE_GEP to i32 (...)**), i32 (...)*** %384, align 8
  %385 = getelementptr inbounds %"cls.acjs::JsVariant", %"cls.acjs::JsVariant"* %vptr754, i32 0, i32 1
  store i32 1, i32* %385, align 8
  %vptr755 = alloca %"cls.acjs::JsVariant", align 8
  %386 = bitcast %"cls.acjs::JsVariant"* %vptr755 to i32 (...)***
  store i32 (...)** bitcast (i8*** @_ZTVN14altered_carbon2js9JsVariantE_GEP to i32 (...)**), i32 (...)*** %386, align 8
  %387 = getelementptr inbounds %"cls.acjs::JsVariant", %"cls.acjs::JsVariant"* %vptr755, i32 0, i32 1
  store i32 1, i32* %387, align 8
  %vptr762 = alloca %"cls.acjs::JsVariant", align 8
  %388 = bitcast %"cls.acjs::JsVariant"* %vptr762 to i32 (...)***
  store i32 (...)** bitcast (i8*** @_ZTVN14altered_carbon2js9JsVariantE_GEP to i32 (...)**), i32 (...)*** %388, align 8
  %389 = getelementptr inbounds %"cls.acjs::JsVariant", %"cls.acjs::JsVariant"* %vptr762, i32 0, i32 1
  store i32 1, i32* %389, align 8
  %vptr763 = alloca %"cls.acjs::JsVariant", align 8
  %390 = bitcast %"cls.acjs::JsVariant"* %vptr763 to i32 (...)***
  store i32 (...)** bitcast (i8*** @_ZTVN14altered_carbon2js9JsVariantE_GEP to i32 (...)**), i32 (...)*** %390, align 8
  %391 = getelementptr inbounds %"cls.acjs::JsVariant", %"cls.acjs::JsVariant"* %vptr763, i32 0, i32 1
  store i32 1, i32* %391, align 8
  %vptr770 = alloca %"cls.acjs::JsVariant", align 8
  %392 = bitcast %"cls.acjs::JsVariant"* %vptr770 to i32 (...)***
  store i32 (...)** bitcast (i8*** @_ZTVN14altered_carbon2js9JsVariantE_GEP to i32 (...)**), i32 (...)*** %392, align 8
  %393 = getelementptr inbounds %"cls.acjs::JsVariant", %"cls.acjs::JsVariant"* %vptr770, i32 0, i32 1
  store i32 1, i32* %393, align 8
  %vptr771 = alloca %"cls.acjs::JsVariant", align 8
  %394 = bitcast %"cls.acjs::JsVariant"* %vptr771 to i32 (...)***
  store i32 (...)** bitcast (i8*** @_ZTVN14altered_carbon2js9JsVariantE_GEP to i32 (...)**), i32 (...)*** %394, align 8
  %395 = getelementptr inbounds %"cls.acjs::JsVariant", %"cls.acjs::JsVariant"* %vptr771, i32 0, i32 1
  store i32 1, i32* %395, align 8
  %vptr778 = alloca %"cls.acjs::JsVariant", align 8
  %396 = bitcast %"cls.acjs::JsVariant"* %vptr778 to i32 (...)***
  store i32 (...)** bitcast (i8*** @_ZTVN14altered_carbon2js9JsVariantE_GEP to i32 (...)**), i32 (...)*** %396, align 8
  %397 = getelementptr inbounds %"cls.acjs::JsVariant", %"cls.acjs::JsVariant"* %vptr778, i32 0, i32 1
  store i32 1, i32* %397, align 8
  %vptr779 = alloca %"cls.acjs::JsVariant", align 8
  %398 = bitcast %"cls.acjs::JsVariant"* %vptr779 to i32 (...)***
  store i32 (...)** bitcast (i8*** @_ZTVN14altered_carbon2js9JsVariantE_GEP to i32 (...)**), i32 (...)*** %398, align 8
  %399 = getelementptr inbounds %"cls.acjs::JsVariant", %"cls.acjs::JsVariant"* %vptr779, i32 0, i32 1
  store i32 1, i32* %399, align 8
  %vptr786 = alloca %"cls.acjs::JsVariant", align 8
  %400 = bitcast %"cls.acjs::JsVariant"* %vptr786 to i32 (...)***
  store i32 (...)** bitcast (i8*** @_ZTVN14altered_carbon2js9JsVariantE_GEP to i32 (...)**), i32 (...)*** %400, align 8
  %401 = getelementptr inbounds %"cls.acjs::JsVariant", %"cls.acjs::JsVariant"* %vptr786, i32 0, i32 1
  store i32 1, i32* %401, align 8
  %vptr787 = alloca %"cls.acjs::JsVariant", align 8
  %402 = bitcast %"cls.acjs::JsVariant"* %vptr787 to i32 (...)***
  store i32 (...)** bitcast (i8*** @_ZTVN14altered_carbon2js9JsVariantE_GEP to i32 (...)**), i32 (...)*** %402, align 8
  %403 = getelementptr inbounds %"cls.acjs::JsVariant", %"cls.acjs::JsVariant"* %vptr787, i32 0, i32 1
  store i32 1, i32* %403, align 8
  %vptr794 = alloca %"cls.acjs::JsVariant", align 8
  %404 = bitcast %"cls.acjs::JsVariant"* %vptr794 to i32 (...)***
  store i32 (...)** bitcast (i8*** @_ZTVN14altered_carbon2js9JsVariantE_GEP to i32 (...)**), i32 (...)*** %404, align 8
  %405 = getelementptr inbounds %"cls.acjs::JsVariant", %"cls.acjs::JsVariant"* %vptr794, i32 0, i32 1
  store i32 1, i32* %405, align 8
  %vptr795 = alloca %"cls.acjs::JsVariant", align 8
  %406 = bitcast %"cls.acjs::JsVariant"* %vptr795 to i32 (...)***
  store i32 (...)** bitcast (i8*** @_ZTVN14altered_carbon2js9JsVariantE_GEP to i32 (...)**), i32 (...)*** %406, align 8
  %407 = getelementptr inbounds %"cls.acjs::JsVariant", %"cls.acjs::JsVariant"* %vptr795, i32 0, i32 1
  store i32 1, i32* %407, align 8
  %vptr802 = alloca %"cls.acjs::JsVariant", align 8
  %408 = bitcast %"cls.acjs::JsVariant"* %vptr802 to i32 (...)***
  store i32 (...)** bitcast (i8*** @_ZTVN14altered_carbon2js9JsVariantE_GEP to i32 (...)**), i32 (...)*** %408, align 8
  %409 = getelementptr inbounds %"cls.acjs::JsVariant", %"cls.acjs::JsVariant"* %vptr802, i32 0, i32 1
  store i32 1, i32* %409, align 8
  %vptr803 = alloca %"cls.acjs::JsVariant", align 8
  %410 = bitcast %"cls.acjs::JsVariant"* %vptr803 to i32 (...)***
  store i32 (...)** bitcast (i8*** @_ZTVN14altered_carbon2js9JsVariantE_GEP to i32 (...)**), i32 (...)*** %410, align 8
  %411 = getelementptr inbounds %"cls.acjs::JsVariant", %"cls.acjs::JsVariant"* %vptr803, i32 0, i32 1
  store i32 1, i32* %411, align 8
  %vptr810 = alloca %"cls.acjs::JsVariant", align 8
  %412 = bitcast %"cls.acjs::JsVariant"* %vptr810 to i32 (...)***
  store i32 (...)** bitcast (i8*** @_ZTVN14altered_carbon2js9JsVariantE_GEP to i32 (...)**), i32 (...)*** %412, align 8
  %413 = getelementptr inbounds %"cls.acjs::JsVariant", %"cls.acjs::JsVariant"* %vptr810, i32 0, i32 1
  store i32 1, i32* %413, align 8
  %vptr811 = alloca %"cls.acjs::JsVariant", align 8
  %414 = bitcast %"cls.acjs::JsVariant"* %vptr811 to i32 (...)***
  store i32 (...)** bitcast (i8*** @_ZTVN14altered_carbon2js9JsVariantE_GEP to i32 (...)**), i32 (...)*** %414, align 8
  %415 = getelementptr inbounds %"cls.acjs::JsVariant", %"cls.acjs::JsVariant"* %vptr811, i32 0, i32 1
  store i32 1, i32* %415, align 8
  %vptr818 = alloca %"cls.acjs::JsVariant", align 8
  %416 = bitcast %"cls.acjs::JsVariant"* %vptr818 to i32 (...)***
  store i32 (...)** bitcast (i8*** @_ZTVN14altered_carbon2js9JsVariantE_GEP to i32 (...)**), i32 (...)*** %416, align 8
  %417 = getelementptr inbounds %"cls.acjs::JsVariant", %"cls.acjs::JsVariant"* %vptr818, i32 0, i32 1
  store i32 1, i32* %417, align 8
  %vptr819 = alloca %"cls.acjs::JsVariant", align 8
  %418 = bitcast %"cls.acjs::JsVariant"* %vptr819 to i32 (...)***
  store i32 (...)** bitcast (i8*** @_ZTVN14altered_carbon2js9JsVariantE_GEP to i32 (...)**), i32 (...)*** %418, align 8
  %419 = getelementptr inbounds %"cls.acjs::JsVariant", %"cls.acjs::JsVariant"* %vptr819, i32 0, i32 1
  store i32 1, i32* %419, align 8
  %vptr826 = alloca %"cls.acjs::JsVariant", align 8
  %420 = bitcast %"cls.acjs::JsVariant"* %vptr826 to i32 (...)***
  store i32 (...)** bitcast (i8*** @_ZTVN14altered_carbon2js9JsVariantE_GEP to i32 (...)**), i32 (...)*** %420, align 8
  %421 = getelementptr inbounds %"cls.acjs::JsVariant", %"cls.acjs::JsVariant"* %vptr826, i32 0, i32 1
  store i32 1, i32* %421, align 8
  %vptr827 = alloca %"cls.acjs::JsVariant", align 8
  %422 = bitcast %"cls.acjs::JsVariant"* %vptr827 to i32 (...)***
  store i32 (...)** bitcast (i8*** @_ZTVN14altered_carbon2js9JsVariantE_GEP to i32 (...)**), i32 (...)*** %422, align 8
  %423 = getelementptr inbounds %"cls.acjs::JsVariant", %"cls.acjs::JsVariant"* %vptr827, i32 0, i32 1
  store i32 1, i32* %423, align 8
  %vptr834 = alloca %"cls.acjs::JsVariant", align 8
  %424 = bitcast %"cls.acjs::JsVariant"* %vptr834 to i32 (...)***
  store i32 (...)** bitcast (i8*** @_ZTVN14altered_carbon2js9JsVariantE_GEP to i32 (...)**), i32 (...)*** %424, align 8
  %425 = getelementptr inbounds %"cls.acjs::JsVariant", %"cls.acjs::JsVariant"* %vptr834, i32 0, i32 1
  store i32 1, i32* %425, align 8
  %vptr835 = alloca %"cls.acjs::JsVariant", align 8
  %426 = bitcast %"cls.acjs::JsVariant"* %vptr835 to i32 (...)***
  store i32 (...)** bitcast (i8*** @_ZTVN14altered_carbon2js9JsVariantE_GEP to i32 (...)**), i32 (...)*** %426, align 8
  %427 = getelementptr inbounds %"cls.acjs::JsVariant", %"cls.acjs::JsVariant"* %vptr835, i32 0, i32 1
  store i32 1, i32* %427, align 8
  %vptr842 = alloca %"cls.acjs::JsVariant", align 8
  %428 = bitcast %"cls.acjs::JsVariant"* %vptr842 to i32 (...)***
  store i32 (...)** bitcast (i8*** @_ZTVN14altered_carbon2js9JsVariantE_GEP to i32 (...)**), i32 (...)*** %428, align 8
  %429 = getelementptr inbounds %"cls.acjs::JsVariant", %"cls.acjs::JsVariant"* %vptr842, i32 0, i32 1
  store i32 1, i32* %429, align 8
  %vptr843 = alloca %"cls.acjs::JsVariant", align 8
  %430 = bitcast %"cls.acjs::JsVariant"* %vptr843 to i32 (...)***
  store i32 (...)** bitcast (i8*** @_ZTVN14altered_carbon2js9JsVariantE_GEP to i32 (...)**), i32 (...)*** %430, align 8
  %431 = getelementptr inbounds %"cls.acjs::JsVariant", %"cls.acjs::JsVariant"* %vptr843, i32 0, i32 1
  store i32 1, i32* %431, align 8
  %vptr850 = alloca %"cls.acjs::JsVariant", align 8
  %432 = bitcast %"cls.acjs::JsVariant"* %vptr850 to i32 (...)***
  store i32 (...)** bitcast (i8*** @_ZTVN14altered_carbon2js9JsVariantE_GEP to i32 (...)**), i32 (...)*** %432, align 8
  %433 = getelementptr inbounds %"cls.acjs::JsVariant", %"cls.acjs::JsVariant"* %vptr850, i32 0, i32 1
  store i32 1, i32* %433, align 8
  %vptr851 = alloca %"cls.acjs::JsVariant", align 8
  %434 = bitcast %"cls.acjs::JsVariant"* %vptr851 to i32 (...)***
  store i32 (...)** bitcast (i8*** @_ZTVN14altered_carbon2js9JsVariantE_GEP to i32 (...)**), i32 (...)*** %434, align 8
  %435 = getelementptr inbounds %"cls.acjs::JsVariant", %"cls.acjs::JsVariant"* %vptr851, i32 0, i32 1
  store i32 1, i32* %435, align 8
  %vptr858 = alloca %"cls.acjs::JsVariant", align 8
  %436 = bitcast %"cls.acjs::JsVariant"* %vptr858 to i32 (...)***
  store i32 (...)** bitcast (i8*** @_ZTVN14altered_carbon2js9JsVariantE_GEP to i32 (...)**), i32 (...)*** %436, align 8
  %437 = getelementptr inbounds %"cls.acjs::JsVariant", %"cls.acjs::JsVariant"* %vptr858, i32 0, i32 1
  store i32 1, i32* %437, align 8
  %vptr859 = alloca %"cls.acjs::JsVariant", align 8
  %438 = bitcast %"cls.acjs::JsVariant"* %vptr859 to i32 (...)***
  store i32 (...)** bitcast (i8*** @_ZTVN14altered_carbon2js9JsVariantE_GEP to i32 (...)**), i32 (...)*** %438, align 8
  %439 = getelementptr inbounds %"cls.acjs::JsVariant", %"cls.acjs::JsVariant"* %vptr859, i32 0, i32 1
  store i32 1, i32* %439, align 8
  %vptr866 = alloca %"cls.acjs::JsVariant", align 8
  %440 = bitcast %"cls.acjs::JsVariant"* %vptr866 to i32 (...)***
  store i32 (...)** bitcast (i8*** @_ZTVN14altered_carbon2js9JsVariantE_GEP to i32 (...)**), i32 (...)*** %440, align 8
  %441 = getelementptr inbounds %"cls.acjs::JsVariant", %"cls.acjs::JsVariant"* %vptr866, i32 0, i32 1
  store i32 1, i32* %441, align 8
  %vptr867 = alloca %"cls.acjs::JsVariant", align 8
  %442 = bitcast %"cls.acjs::JsVariant"* %vptr867 to i32 (...)***
  store i32 (...)** bitcast (i8*** @_ZTVN14altered_carbon2js9JsVariantE_GEP to i32 (...)**), i32 (...)*** %442, align 8
  %443 = getelementptr inbounds %"cls.acjs::JsVariant", %"cls.acjs::JsVariant"* %vptr867, i32 0, i32 1
  store i32 1, i32* %443, align 8
  %vptr874 = alloca %"cls.acjs::JsVariant", align 8
  %444 = bitcast %"cls.acjs::JsVariant"* %vptr874 to i32 (...)***
  store i32 (...)** bitcast (i8*** @_ZTVN14altered_carbon2js9JsVariantE_GEP to i32 (...)**), i32 (...)*** %444, align 8
  %445 = getelementptr inbounds %"cls.acjs::JsVariant", %"cls.acjs::JsVariant"* %vptr874, i32 0, i32 1
  store i32 1, i32* %445, align 8
  %vptr875 = alloca %"cls.acjs::JsVariant", align 8
  %446 = bitcast %"cls.acjs::JsVariant"* %vptr875 to i32 (...)***
  store i32 (...)** bitcast (i8*** @_ZTVN14altered_carbon2js9JsVariantE_GEP to i32 (...)**), i32 (...)*** %446, align 8
  %447 = getelementptr inbounds %"cls.acjs::JsVariant", %"cls.acjs::JsVariant"* %vptr875, i32 0, i32 1
  store i32 1, i32* %447, align 8
  %vptr882 = alloca %"cls.acjs::JsVariant", align 8
  %448 = bitcast %"cls.acjs::JsVariant"* %vptr882 to i32 (...)***
  store i32 (...)** bitcast (i8*** @_ZTVN14altered_carbon2js9JsVariantE_GEP to i32 (...)**), i32 (...)*** %448, align 8
  %449 = getelementptr inbounds %"cls.acjs::JsVariant", %"cls.acjs::JsVariant"* %vptr882, i32 0, i32 1
  store i32 1, i32* %449, align 8
  %vptr883 = alloca %"cls.acjs::JsVariant", align 8
  %450 = bitcast %"cls.acjs::JsVariant"* %vptr883 to i32 (...)***
  store i32 (...)** bitcast (i8*** @_ZTVN14altered_carbon2js9JsVariantE_GEP to i32 (...)**), i32 (...)*** %450, align 8
  %451 = getelementptr inbounds %"cls.acjs::JsVariant", %"cls.acjs::JsVariant"* %vptr883, i32 0, i32 1
  store i32 1, i32* %451, align 8
  %vptr890 = alloca %"cls.acjs::JsVariant", align 8
  %452 = bitcast %"cls.acjs::JsVariant"* %vptr890 to i32 (...)***
  store i32 (...)** bitcast (i8*** @_ZTVN14altered_carbon2js9JsVariantE_GEP to i32 (...)**), i32 (...)*** %452, align 8
  %453 = getelementptr inbounds %"cls.acjs::JsVariant", %"cls.acjs::JsVariant"* %vptr890, i32 0, i32 1
  store i32 1, i32* %453, align 8
  %vptr891 = alloca %"cls.acjs::JsVariant", align 8
  %454 = bitcast %"cls.acjs::JsVariant"* %vptr891 to i32 (...)***
  store i32 (...)** bitcast (i8*** @_ZTVN14altered_carbon2js9JsVariantE_GEP to i32 (...)**), i32 (...)*** %454, align 8
  %455 = getelementptr inbounds %"cls.acjs::JsVariant", %"cls.acjs::JsVariant"* %vptr891, i32 0, i32 1
  store i32 1, i32* %455, align 8
  %vptr898 = alloca %"cls.acjs::JsVariant", align 8
  %456 = bitcast %"cls.acjs::JsVariant"* %vptr898 to i32 (...)***
  store i32 (...)** bitcast (i8*** @_ZTVN14altered_carbon2js9JsVariantE_GEP to i32 (...)**), i32 (...)*** %456, align 8
  %457 = getelementptr inbounds %"cls.acjs::JsVariant", %"cls.acjs::JsVariant"* %vptr898, i32 0, i32 1
  store i32 1, i32* %457, align 8
  %vptr899 = alloca %"cls.acjs::JsVariant", align 8
  %458 = bitcast %"cls.acjs::JsVariant"* %vptr899 to i32 (...)***
  store i32 (...)** bitcast (i8*** @_ZTVN14altered_carbon2js9JsVariantE_GEP to i32 (...)**), i32 (...)*** %458, align 8
  %459 = getelementptr inbounds %"cls.acjs::JsVariant", %"cls.acjs::JsVariant"* %vptr899, i32 0, i32 1
  store i32 1, i32* %459, align 8
  %vptr906 = alloca %"cls.acjs::JsVariant", align 8
  %460 = bitcast %"cls.acjs::JsVariant"* %vptr906 to i32 (...)***
  store i32 (...)** bitcast (i8*** @_ZTVN14altered_carbon2js9JsVariantE_GEP to i32 (...)**), i32 (...)*** %460, align 8
  %461 = getelementptr inbounds %"cls.acjs::JsVariant", %"cls.acjs::JsVariant"* %vptr906, i32 0, i32 1
  store i32 1, i32* %461, align 8
  %vptr907 = alloca %"cls.acjs::JsVariant", align 8
  %462 = bitcast %"cls.acjs::JsVariant"* %vptr907 to i32 (...)***
  store i32 (...)** bitcast (i8*** @_ZTVN14altered_carbon2js9JsVariantE_GEP to i32 (...)**), i32 (...)*** %462, align 8
  %463 = getelementptr inbounds %"cls.acjs::JsVariant", %"cls.acjs::JsVariant"* %vptr907, i32 0, i32 1
  store i32 1, i32* %463, align 8
  %vptr914 = alloca %"cls.acjs::JsVariant", align 8
  %464 = bitcast %"cls.acjs::JsVariant"* %vptr914 to i32 (...)***
  store i32 (...)** bitcast (i8*** @_ZTVN14altered_carbon2js9JsVariantE_GEP to i32 (...)**), i32 (...)*** %464, align 8
  %465 = getelementptr inbounds %"cls.acjs::JsVariant", %"cls.acjs::JsVariant"* %vptr914, i32 0, i32 1
  store i32 1, i32* %465, align 8
  %vptr915 = alloca %"cls.acjs::JsVariant", align 8
  %466 = bitcast %"cls.acjs::JsVariant"* %vptr915 to i32 (...)***
  store i32 (...)** bitcast (i8*** @_ZTVN14altered_carbon2js9JsVariantE_GEP to i32 (...)**), i32 (...)*** %466, align 8
  %467 = getelementptr inbounds %"cls.acjs::JsVariant", %"cls.acjs::JsVariant"* %vptr915, i32 0, i32 1
  store i32 1, i32* %467, align 8
  %vptr922 = alloca %"cls.acjs::JsVariant", align 8
  %468 = bitcast %"cls.acjs::JsVariant"* %vptr922 to i32 (...)***
  store i32 (...)** bitcast (i8*** @_ZTVN14altered_carbon2js9JsVariantE_GEP to i32 (...)**), i32 (...)*** %468, align 8
  %469 = getelementptr inbounds %"cls.acjs::JsVariant", %"cls.acjs::JsVariant"* %vptr922, i32 0, i32 1
  store i32 1, i32* %469, align 8
  %vptr923 = alloca %"cls.acjs::JsVariant", align 8
  %470 = bitcast %"cls.acjs::JsVariant"* %vptr923 to i32 (...)***
  store i32 (...)** bitcast (i8*** @_ZTVN14altered_carbon2js9JsVariantE_GEP to i32 (...)**), i32 (...)*** %470, align 8
  %471 = getelementptr inbounds %"cls.acjs::JsVariant", %"cls.acjs::JsVariant"* %vptr923, i32 0, i32 1
  store i32 1, i32* %471, align 8
  %vptr930 = alloca %"cls.acjs::JsVariant", align 8
  %472 = bitcast %"cls.acjs::JsVariant"* %vptr930 to i32 (...)***
  store i32 (...)** bitcast (i8*** @_ZTVN14altered_carbon2js9JsVariantE_GEP to i32 (...)**), i32 (...)*** %472, align 8
  %473 = getelementptr inbounds %"cls.acjs::JsVariant", %"cls.acjs::JsVariant"* %vptr930, i32 0, i32 1
  store i32 1, i32* %473, align 8
  %vptr931 = alloca %"cls.acjs::JsVariant", align 8
  %474 = bitcast %"cls.acjs::JsVariant"* %vptr931 to i32 (...)***
  store i32 (...)** bitcast (i8*** @_ZTVN14altered_carbon2js9JsVariantE_GEP to i32 (...)**), i32 (...)*** %474, align 8
  %475 = getelementptr inbounds %"cls.acjs::JsVariant", %"cls.acjs::JsVariant"* %vptr931, i32 0, i32 1
  store i32 1, i32* %475, align 8
  %vptr938 = alloca %"cls.acjs::JsVariant", align 8
  %476 = bitcast %"cls.acjs::JsVariant"* %vptr938 to i32 (...)***
  store i32 (...)** bitcast (i8*** @_ZTVN14altered_carbon2js9JsVariantE_GEP to i32 (...)**), i32 (...)*** %476, align 8
  %477 = getelementptr inbounds %"cls.acjs::JsVariant", %"cls.acjs::JsVariant"* %vptr938, i32 0, i32 1
  store i32 1, i32* %477, align 8
  %vptr939 = alloca %"cls.acjs::JsVariant", align 8
  %478 = bitcast %"cls.acjs::JsVariant"* %vptr939 to i32 (...)***
  store i32 (...)** bitcast (i8*** @_ZTVN14altered_carbon2js9JsVariantE_GEP to i32 (...)**), i32 (...)*** %478, align 8
  %479 = getelementptr inbounds %"cls.acjs::JsVariant", %"cls.acjs::JsVariant"* %vptr939, i32 0, i32 1
  store i32 1, i32* %479, align 8
  %vptr946 = alloca %"cls.acjs::JsVariant", align 8
  %480 = bitcast %"cls.acjs::JsVariant"* %vptr946 to i32 (...)***
  store i32 (...)** bitcast (i8*** @_ZTVN14altered_carbon2js9JsVariantE_GEP to i32 (...)**), i32 (...)*** %480, align 8
  %481 = getelementptr inbounds %"cls.acjs::JsVariant", %"cls.acjs::JsVariant"* %vptr946, i32 0, i32 1
  store i32 1, i32* %481, align 8
  %vptr947 = alloca %"cls.acjs::JsVariant", align 8
  %482 = bitcast %"cls.acjs::JsVariant"* %vptr947 to i32 (...)***
  store i32 (...)** bitcast (i8*** @_ZTVN14altered_carbon2js9JsVariantE_GEP to i32 (...)**), i32 (...)*** %482, align 8
  %483 = getelementptr inbounds %"cls.acjs::JsVariant", %"cls.acjs::JsVariant"* %vptr947, i32 0, i32 1
  store i32 1, i32* %483, align 8
  %vptr954 = alloca %"cls.acjs::JsVariant", align 8
  %484 = bitcast %"cls.acjs::JsVariant"* %vptr954 to i32 (...)***
  store i32 (...)** bitcast (i8*** @_ZTVN14altered_carbon2js9JsVariantE_GEP to i32 (...)**), i32 (...)*** %484, align 8
  %485 = getelementptr inbounds %"cls.acjs::JsVariant", %"cls.acjs::JsVariant"* %vptr954, i32 0, i32 1
  store i32 1, i32* %485, align 8
  %vptr955 = alloca %"cls.acjs::JsVariant", align 8
  %486 = bitcast %"cls.acjs::JsVariant"* %vptr955 to i32 (...)***
  store i32 (...)** bitcast (i8*** @_ZTVN14altered_carbon2js9JsVariantE_GEP to i32 (...)**), i32 (...)*** %486, align 8
  %487 = getelementptr inbounds %"cls.acjs::JsVariant", %"cls.acjs::JsVariant"* %vptr955, i32 0, i32 1
  store i32 1, i32* %487, align 8
  %vptr962 = alloca %"cls.acjs::JsVariant", align 8
  %488 = bitcast %"cls.acjs::JsVariant"* %vptr962 to i32 (...)***
  store i32 (...)** bitcast (i8*** @_ZTVN14altered_carbon2js9JsVariantE_GEP to i32 (...)**), i32 (...)*** %488, align 8
  %489 = getelementptr inbounds %"cls.acjs::JsVariant", %"cls.acjs::JsVariant"* %vptr962, i32 0, i32 1
  store i32 1, i32* %489, align 8
  %vptr963 = alloca %"cls.acjs::JsVariant", align 8
  %490 = bitcast %"cls.acjs::JsVariant"* %vptr963 to i32 (...)***
  store i32 (...)** bitcast (i8*** @_ZTVN14altered_carbon2js9JsVariantE_GEP to i32 (...)**), i32 (...)*** %490, align 8
  %491 = getelementptr inbounds %"cls.acjs::JsVariant", %"cls.acjs::JsVariant"* %vptr963, i32 0, i32 1
  store i32 1, i32* %491, align 8
  %vptr970 = alloca %"cls.acjs::JsVariant", align 8
  %492 = bitcast %"cls.acjs::JsVariant"* %vptr970 to i32 (...)***
  store i32 (...)** bitcast (i8*** @_ZTVN14altered_carbon2js9JsVariantE_GEP to i32 (...)**), i32 (...)*** %492, align 8
  %493 = getelementptr inbounds %"cls.acjs::JsVariant", %"cls.acjs::JsVariant"* %vptr970, i32 0, i32 1
  store i32 1, i32* %493, align 8
  %vptr971 = alloca %"cls.acjs::JsVariant", align 8
  %494 = bitcast %"cls.acjs::JsVariant"* %vptr971 to i32 (...)***
  store i32 (...)** bitcast (i8*** @_ZTVN14altered_carbon2js9JsVariantE_GEP to i32 (...)**), i32 (...)*** %494, align 8
  %495 = getelementptr inbounds %"cls.acjs::JsVariant", %"cls.acjs::JsVariant"* %vptr971, i32 0, i32 1
  store i32 1, i32* %495, align 8
  %vptr978 = alloca %"cls.acjs::JsVariant", align 8
  %496 = bitcast %"cls.acjs::JsVariant"* %vptr978 to i32 (...)***
  store i32 (...)** bitcast (i8*** @_ZTVN14altered_carbon2js9JsVariantE_GEP to i32 (...)**), i32 (...)*** %496, align 8
  %497 = getelementptr inbounds %"cls.acjs::JsVariant", %"cls.acjs::JsVariant"* %vptr978, i32 0, i32 1
  store i32 1, i32* %497, align 8
  %vptr979 = alloca %"cls.acjs::JsVariant", align 8
  %498 = bitcast %"cls.acjs::JsVariant"* %vptr979 to i32 (...)***
  store i32 (...)** bitcast (i8*** @_ZTVN14altered_carbon2js9JsVariantE_GEP to i32 (...)**), i32 (...)*** %498, align 8
  %499 = getelementptr inbounds %"cls.acjs::JsVariant", %"cls.acjs::JsVariant"* %vptr979, i32 0, i32 1
  store i32 1, i32* %499, align 8
  %vptr986 = alloca %"cls.acjs::JsVariant", align 8
  %500 = bitcast %"cls.acjs::JsVariant"* %vptr986 to i32 (...)***
  store i32 (...)** bitcast (i8*** @_ZTVN14altered_carbon2js9JsVariantE_GEP to i32 (...)**), i32 (...)*** %500, align 8
  %501 = getelementptr inbounds %"cls.acjs::JsVariant", %"cls.acjs::JsVariant"* %vptr986, i32 0, i32 1
  store i32 1, i32* %501, align 8
  %vptr987 = alloca %"cls.acjs::JsVariant", align 8
  %502 = bitcast %"cls.acjs::JsVariant"* %vptr987 to i32 (...)***
  store i32 (...)** bitcast (i8*** @_ZTVN14altered_carbon2js9JsVariantE_GEP to i32 (...)**), i32 (...)*** %502, align 8
  %503 = getelementptr inbounds %"cls.acjs::JsVariant", %"cls.acjs::JsVariant"* %vptr987, i32 0, i32 1
  store i32 1, i32* %503, align 8
  %vptr994 = alloca %"cls.acjs::JsVariant", align 8
  %504 = bitcast %"cls.acjs::JsVariant"* %vptr994 to i32 (...)***
  store i32 (...)** bitcast (i8*** @_ZTVN14altered_carbon2js9JsVariantE_GEP to i32 (...)**), i32 (...)*** %504, align 8
  %505 = getelementptr inbounds %"cls.acjs::JsVariant", %"cls.acjs::JsVariant"* %vptr994, i32 0, i32 1
  store i32 1, i32* %505, align 8
  %vptr995 = alloca %"cls.acjs::JsVariant", align 8
  %506 = bitcast %"cls.acjs::JsVariant"* %vptr995 to i32 (...)***
  store i32 (...)** bitcast (i8*** @_ZTVN14altered_carbon2js9JsVariantE_GEP to i32 (...)**), i32 (...)*** %506, align 8
  %507 = getelementptr inbounds %"cls.acjs::JsVariant", %"cls.acjs::JsVariant"* %vptr995, i32 0, i32 1
  store i32 1, i32* %507, align 8
  %vptr1002 = alloca %"cls.acjs::JsVariant", align 8
  %508 = bitcast %"cls.acjs::JsVariant"* %vptr1002 to i32 (...)***
  store i32 (...)** bitcast (i8*** @_ZTVN14altered_carbon2js9JsVariantE_GEP to i32 (...)**), i32 (...)*** %508, align 8
  %509 = getelementptr inbounds %"cls.acjs::JsVariant", %"cls.acjs::JsVariant"* %vptr1002, i32 0, i32 1
  store i32 1, i32* %509, align 8
  %vptr1003 = alloca %"cls.acjs::JsVariant", align 8
  %510 = bitcast %"cls.acjs::JsVariant"* %vptr1003 to i32 (...)***
  store i32 (...)** bitcast (i8*** @_ZTVN14altered_carbon2js9JsVariantE_GEP to i32 (...)**), i32 (...)*** %510, align 8
  %511 = getelementptr inbounds %"cls.acjs::JsVariant", %"cls.acjs::JsVariant"* %vptr1003, i32 0, i32 1
  store i32 1, i32* %511, align 8
  %vptr1010 = alloca %"cls.acjs::JsVariant", align 8
  %512 = bitcast %"cls.acjs::JsVariant"* %vptr1010 to i32 (...)***
  store i32 (...)** bitcast (i8*** @_ZTVN14altered_carbon2js9JsVariantE_GEP to i32 (...)**), i32 (...)*** %512, align 8
  %513 = getelementptr inbounds %"cls.acjs::JsVariant", %"cls.acjs::JsVariant"* %vptr1010, i32 0, i32 1
  store i32 1, i32* %513, align 8
  %vptr1011 = alloca %"cls.acjs::JsVariant", align 8
  %514 = bitcast %"cls.acjs::JsVariant"* %vptr1011 to i32 (...)***
  store i32 (...)** bitcast (i8*** @_ZTVN14altered_carbon2js9JsVariantE_GEP to i32 (...)**), i32 (...)*** %514, align 8
  %515 = getelementptr inbounds %"cls.acjs::JsVariant", %"cls.acjs::JsVariant"* %vptr1011, i32 0, i32 1
  store i32 1, i32* %515, align 8
  %vptr1018 = alloca %"cls.acjs::JsVariant", align 8
  %516 = bitcast %"cls.acjs::JsVariant"* %vptr1018 to i32 (...)***
  store i32 (...)** bitcast (i8*** @_ZTVN14altered_carbon2js9JsVariantE_GEP to i32 (...)**), i32 (...)*** %516, align 8
  %517 = getelementptr inbounds %"cls.acjs::JsVariant", %"cls.acjs::JsVariant"* %vptr1018, i32 0, i32 1
  store i32 1, i32* %517, align 8
  %vptr1019 = alloca %"cls.acjs::JsVariant", align 8
  %518 = bitcast %"cls.acjs::JsVariant"* %vptr1019 to i32 (...)***
  store i32 (...)** bitcast (i8*** @_ZTVN14altered_carbon2js9JsVariantE_GEP to i32 (...)**), i32 (...)*** %518, align 8
  %519 = getelementptr inbounds %"cls.acjs::JsVariant", %"cls.acjs::JsVariant"* %vptr1019, i32 0, i32 1
  store i32 1, i32* %519, align 8
  %vptr1026 = alloca %"cls.acjs::JsVariant", align 8
  %520 = bitcast %"cls.acjs::JsVariant"* %vptr1026 to i32 (...)***
  store i32 (...)** bitcast (i8*** @_ZTVN14altered_carbon2js9JsVariantE_GEP to i32 (...)**), i32 (...)*** %520, align 8
  %521 = getelementptr inbounds %"cls.acjs::JsVariant", %"cls.acjs::JsVariant"* %vptr1026, i32 0, i32 1
  store i32 1, i32* %521, align 8
  %vptr1027 = alloca %"cls.acjs::JsVariant", align 8
  %522 = bitcast %"cls.acjs::JsVariant"* %vptr1027 to i32 (...)***
  store i32 (...)** bitcast (i8*** @_ZTVN14altered_carbon2js9JsVariantE_GEP to i32 (...)**), i32 (...)*** %522, align 8
  %523 = getelementptr inbounds %"cls.acjs::JsVariant", %"cls.acjs::JsVariant"* %vptr1027, i32 0, i32 1
  store i32 1, i32* %523, align 8
  %vptr1034 = alloca %"cls.acjs::JsVariant", align 8
  %524 = bitcast %"cls.acjs::JsVariant"* %vptr1034 to i32 (...)***
  store i32 (...)** bitcast (i8*** @_ZTVN14altered_carbon2js9JsVariantE_GEP to i32 (...)**), i32 (...)*** %524, align 8
  %525 = getelementptr inbounds %"cls.acjs::JsVariant", %"cls.acjs::JsVariant"* %vptr1034, i32 0, i32 1
  store i32 1, i32* %525, align 8
  %vptr1035 = alloca %"cls.acjs::JsVariant", align 8
  %526 = bitcast %"cls.acjs::JsVariant"* %vptr1035 to i32 (...)***
  store i32 (...)** bitcast (i8*** @_ZTVN14altered_carbon2js9JsVariantE_GEP to i32 (...)**), i32 (...)*** %526, align 8
  %527 = getelementptr inbounds %"cls.acjs::JsVariant", %"cls.acjs::JsVariant"* %vptr1035, i32 0, i32 1
  store i32 1, i32* %527, align 8
  %vptr1042 = alloca %"cls.acjs::JsVariant", align 8
  %528 = bitcast %"cls.acjs::JsVariant"* %vptr1042 to i32 (...)***
  store i32 (...)** bitcast (i8*** @_ZTVN14altered_carbon2js9JsVariantE_GEP to i32 (...)**), i32 (...)*** %528, align 8
  %529 = getelementptr inbounds %"cls.acjs::JsVariant", %"cls.acjs::JsVariant"* %vptr1042, i32 0, i32 1
  store i32 1, i32* %529, align 8
  %vptr1043 = alloca %"cls.acjs::JsVariant", align 8
  %530 = bitcast %"cls.acjs::JsVariant"* %vptr1043 to i32 (...)***
  store i32 (...)** bitcast (i8*** @_ZTVN14altered_carbon2js9JsVariantE_GEP to i32 (...)**), i32 (...)*** %530, align 8
  %531 = getelementptr inbounds %"cls.acjs::JsVariant", %"cls.acjs::JsVariant"* %vptr1043, i32 0, i32 1
  store i32 1, i32* %531, align 8
  %vptr1050 = alloca %"cls.acjs::JsVariant", align 8
  %532 = bitcast %"cls.acjs::JsVariant"* %vptr1050 to i32 (...)***
  store i32 (...)** bitcast (i8*** @_ZTVN14altered_carbon2js9JsVariantE_GEP to i32 (...)**), i32 (...)*** %532, align 8
  %533 = getelementptr inbounds %"cls.acjs::JsVariant", %"cls.acjs::JsVariant"* %vptr1050, i32 0, i32 1
  store i32 1, i32* %533, align 8
  %vptr1051 = alloca %"cls.acjs::JsVariant", align 8
  %534 = bitcast %"cls.acjs::JsVariant"* %vptr1051 to i32 (...)***
  store i32 (...)** bitcast (i8*** @_ZTVN14altered_carbon2js9JsVariantE_GEP to i32 (...)**), i32 (...)*** %534, align 8
  %535 = getelementptr inbounds %"cls.acjs::JsVariant", %"cls.acjs::JsVariant"* %vptr1051, i32 0, i32 1
  store i32 1, i32* %535, align 8
  %vptr1058 = alloca %"cls.acjs::JsVariant", align 8
  %536 = bitcast %"cls.acjs::JsVariant"* %vptr1058 to i32 (...)***
  store i32 (...)** bitcast (i8*** @_ZTVN14altered_carbon2js9JsVariantE_GEP to i32 (...)**), i32 (...)*** %536, align 8
  %537 = getelementptr inbounds %"cls.acjs::JsVariant", %"cls.acjs::JsVariant"* %vptr1058, i32 0, i32 1
  store i32 1, i32* %537, align 8
  %vptr1059 = alloca %"cls.acjs::JsVariant", align 8
  %538 = bitcast %"cls.acjs::JsVariant"* %vptr1059 to i32 (...)***
  store i32 (...)** bitcast (i8*** @_ZTVN14altered_carbon2js9JsVariantE_GEP to i32 (...)**), i32 (...)*** %538, align 8
  %539 = getelementptr inbounds %"cls.acjs::JsVariant", %"cls.acjs::JsVariant"* %vptr1059, i32 0, i32 1
  store i32 1, i32* %539, align 8
  %vptr1066 = alloca %"cls.acjs::JsVariant", align 8
  %540 = bitcast %"cls.acjs::JsVariant"* %vptr1066 to i32 (...)***
  store i32 (...)** bitcast (i8*** @_ZTVN14altered_carbon2js9JsVariantE_GEP to i32 (...)**), i32 (...)*** %540, align 8
  %541 = getelementptr inbounds %"cls.acjs::JsVariant", %"cls.acjs::JsVariant"* %vptr1066, i32 0, i32 1
  store i32 1, i32* %541, align 8
  %vptr1067 = alloca %"cls.acjs::JsVariant", align 8
  %542 = bitcast %"cls.acjs::JsVariant"* %vptr1067 to i32 (...)***
  store i32 (...)** bitcast (i8*** @_ZTVN14altered_carbon2js9JsVariantE_GEP to i32 (...)**), i32 (...)*** %542, align 8
  %543 = getelementptr inbounds %"cls.acjs::JsVariant", %"cls.acjs::JsVariant"* %vptr1067, i32 0, i32 1
  store i32 1, i32* %543, align 8
  %vptr1074 = alloca %"cls.acjs::JsVariant", align 8
  %544 = bitcast %"cls.acjs::JsVariant"* %vptr1074 to i32 (...)***
  store i32 (...)** bitcast (i8*** @_ZTVN14altered_carbon2js9JsVariantE_GEP to i32 (...)**), i32 (...)*** %544, align 8
  %545 = getelementptr inbounds %"cls.acjs::JsVariant", %"cls.acjs::JsVariant"* %vptr1074, i32 0, i32 1
  store i32 1, i32* %545, align 8
  %vptr1075 = alloca %"cls.acjs::JsVariant", align 8
  %546 = bitcast %"cls.acjs::JsVariant"* %vptr1075 to i32 (...)***
  store i32 (...)** bitcast (i8*** @_ZTVN14altered_carbon2js9JsVariantE_GEP to i32 (...)**), i32 (...)*** %546, align 8
  %547 = getelementptr inbounds %"cls.acjs::JsVariant", %"cls.acjs::JsVariant"* %vptr1075, i32 0, i32 1
  store i32 1, i32* %547, align 8
  %vptr1082 = alloca %"cls.acjs::JsVariant", align 8
  %548 = bitcast %"cls.acjs::JsVariant"* %vptr1082 to i32 (...)***
  store i32 (...)** bitcast (i8*** @_ZTVN14altered_carbon2js9JsVariantE_GEP to i32 (...)**), i32 (...)*** %548, align 8
  %549 = getelementptr inbounds %"cls.acjs::JsVariant", %"cls.acjs::JsVariant"* %vptr1082, i32 0, i32 1
  store i32 1, i32* %549, align 8
  %vptr1083 = alloca %"cls.acjs::JsVariant", align 8
  %550 = bitcast %"cls.acjs::JsVariant"* %vptr1083 to i32 (...)***
  store i32 (...)** bitcast (i8*** @_ZTVN14altered_carbon2js9JsVariantE_GEP to i32 (...)**), i32 (...)*** %550, align 8
  %551 = getelementptr inbounds %"cls.acjs::JsVariant", %"cls.acjs::JsVariant"* %vptr1083, i32 0, i32 1
  store i32 1, i32* %551, align 8
  %vptr1090 = alloca %"cls.acjs::JsVariant", align 8
  %552 = bitcast %"cls.acjs::JsVariant"* %vptr1090 to i32 (...)***
  store i32 (...)** bitcast (i8*** @_ZTVN14altered_carbon2js9JsVariantE_GEP to i32 (...)**), i32 (...)*** %552, align 8
  %553 = getelementptr inbounds %"cls.acjs::JsVariant", %"cls.acjs::JsVariant"* %vptr1090, i32 0, i32 1
  store i32 1, i32* %553, align 8
  %vptr1091 = alloca %"cls.acjs::JsVariant", align 8
  %554 = bitcast %"cls.acjs::JsVariant"* %vptr1091 to i32 (...)***
  store i32 (...)** bitcast (i8*** @_ZTVN14altered_carbon2js9JsVariantE_GEP to i32 (...)**), i32 (...)*** %554, align 8
  %555 = getelementptr inbounds %"cls.acjs::JsVariant", %"cls.acjs::JsVariant"* %vptr1091, i32 0, i32 1
  store i32 1, i32* %555, align 8
  %vptr1098 = alloca %"cls.acjs::JsVariant", align 8
  %556 = bitcast %"cls.acjs::JsVariant"* %vptr1098 to i32 (...)***
  store i32 (...)** bitcast (i8*** @_ZTVN14altered_carbon2js9JsVariantE_GEP to i32 (...)**), i32 (...)*** %556, align 8
  %557 = getelementptr inbounds %"cls.acjs::JsVariant", %"cls.acjs::JsVariant"* %vptr1098, i32 0, i32 1
  store i32 1, i32* %557, align 8
  %vptr1099 = alloca %"cls.acjs::JsVariant", align 8
  %558 = bitcast %"cls.acjs::JsVariant"* %vptr1099 to i32 (...)***
  store i32 (...)** bitcast (i8*** @_ZTVN14altered_carbon2js9JsVariantE_GEP to i32 (...)**), i32 (...)*** %558, align 8
  %559 = getelementptr inbounds %"cls.acjs::JsVariant", %"cls.acjs::JsVariant"* %vptr1099, i32 0, i32 1
  store i32 1, i32* %559, align 8
  %vptr1106 = alloca %"cls.acjs::JsVariant", align 8
  %560 = bitcast %"cls.acjs::JsVariant"* %vptr1106 to i32 (...)***
  store i32 (...)** bitcast (i8*** @_ZTVN14altered_carbon2js9JsVariantE_GEP to i32 (...)**), i32 (...)*** %560, align 8
  %561 = getelementptr inbounds %"cls.acjs::JsVariant", %"cls.acjs::JsVariant"* %vptr1106, i32 0, i32 1
  store i32 15, i32* %561, align 8
  %vptr1107 = alloca %"cls.acjs::JsVariant", align 8
  %562 = bitcast %"cls.acjs::JsVariant"* %vptr1107 to i32 (...)***
  store i32 (...)** bitcast (i8*** @_ZTVN14altered_carbon2js9JsVariantE_GEP to i32 (...)**), i32 (...)*** %562, align 8
  %563 = getelementptr inbounds %"cls.acjs::JsVariant", %"cls.acjs::JsVariant"* %vptr1107, i32 0, i32 1
  store i32 15, i32* %563, align 8
  br label %exec.bb

exec.bb:                                          ; preds = %init.bb
  br label %blkalloc.bb

exit.bb:                                          ; preds = %blkalloc.bbe
  call void @_ZN14altered_carbon2js9JsVariantD1Ev(%"cls.acjs::JsVariant"* %vptr1107)
  call void @_ZN14altered_carbon2js9JsVariantD1Ev(%"cls.acjs::JsVariant"* %vptr1106)
  call void @_ZN14altered_carbon2js9JsVariantD1Ev(%"cls.acjs::JsVariant"* %vptr1099)
  call void @_ZN14altered_carbon2js9JsVariantD1Ev(%"cls.acjs::JsVariant"* %vptr1098)
  call void @_ZN14altered_carbon2js9JsVariantD1Ev(%"cls.acjs::JsVariant"* %vptr1091)
  call void @_ZN14altered_carbon2js9JsVariantD1Ev(%"cls.acjs::JsVariant"* %vptr1090)
  call void @_ZN14altered_carbon2js9JsVariantD1Ev(%"cls.acjs::JsVariant"* %vptr1083)
  call void @_ZN14altered_carbon2js9JsVariantD1Ev(%"cls.acjs::JsVariant"* %vptr1082)
  call void @_ZN14altered_carbon2js9JsVariantD1Ev(%"cls.acjs::JsVariant"* %vptr1075)
  call void @_ZN14altered_carbon2js9JsVariantD1Ev(%"cls.acjs::JsVariant"* %vptr1074)
  call void @_ZN14altered_carbon2js9JsVariantD1Ev(%"cls.acjs::JsVariant"* %vptr1067)
  call void @_ZN14altered_carbon2js9JsVariantD1Ev(%"cls.acjs::JsVariant"* %vptr1066)
  call void @_ZN14altered_carbon2js9JsVariantD1Ev(%"cls.acjs::JsVariant"* %vptr1059)
  call void @_ZN14altered_carbon2js9JsVariantD1Ev(%"cls.acjs::JsVariant"* %vptr1058)
  call void @_ZN14altered_carbon2js9JsVariantD1Ev(%"cls.acjs::JsVariant"* %vptr1051)
  call void @_ZN14altered_carbon2js9JsVariantD1Ev(%"cls.acjs::JsVariant"* %vptr1050)
  call void @_ZN14altered_carbon2js9JsVariantD1Ev(%"cls.acjs::JsVariant"* %vptr1043)
  call void @_ZN14altered_carbon2js9JsVariantD1Ev(%"cls.acjs::JsVariant"* %vptr1042)
  call void @_ZN14altered_carbon2js9JsVariantD1Ev(%"cls.acjs::JsVariant"* %vptr1035)
  call void @_ZN14altered_carbon2js9JsVariantD1Ev(%"cls.acjs::JsVariant"* %vptr1034)
  call void @_ZN14altered_carbon2js9JsVariantD1Ev(%"cls.acjs::JsVariant"* %vptr1027)
  call void @_ZN14altered_carbon2js9JsVariantD1Ev(%"cls.acjs::JsVariant"* %vptr1026)
  call void @_ZN14altered_carbon2js9JsVariantD1Ev(%"cls.acjs::JsVariant"* %vptr1019)
  call void @_ZN14altered_carbon2js9JsVariantD1Ev(%"cls.acjs::JsVariant"* %vptr1018)
  call void @_ZN14altered_carbon2js9JsVariantD1Ev(%"cls.acjs::JsVariant"* %vptr1011)
  call void @_ZN14altered_carbon2js9JsVariantD1Ev(%"cls.acjs::JsVariant"* %vptr1010)
  call void @_ZN14altered_carbon2js9JsVariantD1Ev(%"cls.acjs::JsVariant"* %vptr1003)
  call void @_ZN14altered_carbon2js9JsVariantD1Ev(%"cls.acjs::JsVariant"* %vptr1002)
  call void @_ZN14altered_carbon2js9JsVariantD1Ev(%"cls.acjs::JsVariant"* %vptr995)
  call void @_ZN14altered_carbon2js9JsVariantD1Ev(%"cls.acjs::JsVariant"* %vptr994)
  call void @_ZN14altered_carbon2js9JsVariantD1Ev(%"cls.acjs::JsVariant"* %vptr987)
  call void @_ZN14altered_carbon2js9JsVariantD1Ev(%"cls.acjs::JsVariant"* %vptr986)
  call void @_ZN14altered_carbon2js9JsVariantD1Ev(%"cls.acjs::JsVariant"* %vptr979)
  call void @_ZN14altered_carbon2js9JsVariantD1Ev(%"cls.acjs::JsVariant"* %vptr978)
  call void @_ZN14altered_carbon2js9JsVariantD1Ev(%"cls.acjs::JsVariant"* %vptr971)
  call void @_ZN14altered_carbon2js9JsVariantD1Ev(%"cls.acjs::JsVariant"* %vptr970)
  call void @_ZN14altered_carbon2js9JsVariantD1Ev(%"cls.acjs::JsVariant"* %vptr963)
  call void @_ZN14altered_carbon2js9JsVariantD1Ev(%"cls.acjs::JsVariant"* %vptr962)
  call void @_ZN14altered_carbon2js9JsVariantD1Ev(%"cls.acjs::JsVariant"* %vptr955)
  call void @_ZN14altered_carbon2js9JsVariantD1Ev(%"cls.acjs::JsVariant"* %vptr954)
  call void @_ZN14altered_carbon2js9JsVariantD1Ev(%"cls.acjs::JsVariant"* %vptr947)
  call void @_ZN14altered_carbon2js9JsVariantD1Ev(%"cls.acjs::JsVariant"* %vptr946)
  call void @_ZN14altered_carbon2js9JsVariantD1Ev(%"cls.acjs::JsVariant"* %vptr939)
  call void @_ZN14altered_carbon2js9JsVariantD1Ev(%"cls.acjs::JsVariant"* %vptr938)
  call void @_ZN14altered_carbon2js9JsVariantD1Ev(%"cls.acjs::JsVariant"* %vptr931)
  call void @_ZN14altered_carbon2js9JsVariantD1Ev(%"cls.acjs::JsVariant"* %vptr930)
  call void @_ZN14altered_carbon2js9JsVariantD1Ev(%"cls.acjs::JsVariant"* %vptr923)
  call void @_ZN14altered_carbon2js9JsVariantD1Ev(%"cls.acjs::JsVariant"* %vptr922)
  call void @_ZN14altered_carbon2js9JsVariantD1Ev(%"cls.acjs::JsVariant"* %vptr915)
  call void @_ZN14altered_carbon2js9JsVariantD1Ev(%"cls.acjs::JsVariant"* %vptr914)
  call void @_ZN14altered_carbon2js9JsVariantD1Ev(%"cls.acjs::JsVariant"* %vptr907)
  call void @_ZN14altered_carbon2js9JsVariantD1Ev(%"cls.acjs::JsVariant"* %vptr906)
  call void @_ZN14altered_carbon2js9JsVariantD1Ev(%"cls.acjs::JsVariant"* %vptr899)
  call void @_ZN14altered_carbon2js9JsVariantD1Ev(%"cls.acjs::JsVariant"* %vptr898)
  call void @_ZN14altered_carbon2js9JsVariantD1Ev(%"cls.acjs::JsVariant"* %vptr891)
  call void @_ZN14altered_carbon2js9JsVariantD1Ev(%"cls.acjs::JsVariant"* %vptr890)
  call void @_ZN14altered_carbon2js9JsVariantD1Ev(%"cls.acjs::JsVariant"* %vptr883)
  call void @_ZN14altered_carbon2js9JsVariantD1Ev(%"cls.acjs::JsVariant"* %vptr882)
  call void @_ZN14altered_carbon2js9JsVariantD1Ev(%"cls.acjs::JsVariant"* %vptr875)
  call void @_ZN14altered_carbon2js9JsVariantD1Ev(%"cls.acjs::JsVariant"* %vptr874)
  call void @_ZN14altered_carbon2js9JsVariantD1Ev(%"cls.acjs::JsVariant"* %vptr867)
  call void @_ZN14altered_carbon2js9JsVariantD1Ev(%"cls.acjs::JsVariant"* %vptr866)
  call void @_ZN14altered_carbon2js9JsVariantD1Ev(%"cls.acjs::JsVariant"* %vptr859)
  call void @_ZN14altered_carbon2js9JsVariantD1Ev(%"cls.acjs::JsVariant"* %vptr858)
  call void @_ZN14altered_carbon2js9JsVariantD1Ev(%"cls.acjs::JsVariant"* %vptr851)
  call void @_ZN14altered_carbon2js9JsVariantD1Ev(%"cls.acjs::JsVariant"* %vptr850)
  call void @_ZN14altered_carbon2js9JsVariantD1Ev(%"cls.acjs::JsVariant"* %vptr843)
  call void @_ZN14altered_carbon2js9JsVariantD1Ev(%"cls.acjs::JsVariant"* %vptr842)
  call void @_ZN14altered_carbon2js9JsVariantD1Ev(%"cls.acjs::JsVariant"* %vptr835)
  call void @_ZN14altered_carbon2js9JsVariantD1Ev(%"cls.acjs::JsVariant"* %vptr834)
  call void @_ZN14altered_carbon2js9JsVariantD1Ev(%"cls.acjs::JsVariant"* %vptr827)
  call void @_ZN14altered_carbon2js9JsVariantD1Ev(%"cls.acjs::JsVariant"* %vptr826)
  call void @_ZN14altered_carbon2js9JsVariantD1Ev(%"cls.acjs::JsVariant"* %vptr819)
  call void @_ZN14altered_carbon2js9JsVariantD1Ev(%"cls.acjs::JsVariant"* %vptr818)
  call void @_ZN14altered_carbon2js9JsVariantD1Ev(%"cls.acjs::JsVariant"* %vptr811)
  call void @_ZN14altered_carbon2js9JsVariantD1Ev(%"cls.acjs::JsVariant"* %vptr810)
  call void @_ZN14altered_carbon2js9JsVariantD1Ev(%"cls.acjs::JsVariant"* %vptr803)
  call void @_ZN14altered_carbon2js9JsVariantD1Ev(%"cls.acjs::JsVariant"* %vptr802)
  call void @_ZN14altered_carbon2js9JsVariantD1Ev(%"cls.acjs::JsVariant"* %vptr795)
  call void @_ZN14altered_carbon2js9JsVariantD1Ev(%"cls.acjs::JsVariant"* %vptr794)
  call void @_ZN14altered_carbon2js9JsVariantD1Ev(%"cls.acjs::JsVariant"* %vptr787)
  call void @_ZN14altered_carbon2js9JsVariantD1Ev(%"cls.acjs::JsVariant"* %vptr786)
  call void @_ZN14altered_carbon2js9JsVariantD1Ev(%"cls.acjs::JsVariant"* %vptr779)
  call void @_ZN14altered_carbon2js9JsVariantD1Ev(%"cls.acjs::JsVariant"* %vptr778)
  call void @_ZN14altered_carbon2js9JsVariantD1Ev(%"cls.acjs::JsVariant"* %vptr771)
  call void @_ZN14altered_carbon2js9JsVariantD1Ev(%"cls.acjs::JsVariant"* %vptr770)
  call void @_ZN14altered_carbon2js9JsVariantD1Ev(%"cls.acjs::JsVariant"* %vptr763)
  call void @_ZN14altered_carbon2js9JsVariantD1Ev(%"cls.acjs::JsVariant"* %vptr762)
  call void @_ZN14altered_carbon2js9JsVariantD1Ev(%"cls.acjs::JsVariant"* %vptr755)
  call void @_ZN14altered_carbon2js9JsVariantD1Ev(%"cls.acjs::JsVariant"* %vptr754)
  call void @_ZN14altered_carbon2js9JsVariantD1Ev(%"cls.acjs::JsVariant"* %vptr747)
  call void @_ZN14altered_carbon2js9JsVariantD1Ev(%"cls.acjs::JsVariant"* %vptr746)
  call void @_ZN14altered_carbon2js9JsVariantD1Ev(%"cls.acjs::JsVariant"* %vptr739)
  call void @_ZN14altered_carbon2js9JsVariantD1Ev(%"cls.acjs::JsVariant"* %vptr738)
  call void @_ZN14altered_carbon2js9JsVariantD1Ev(%"cls.acjs::JsVariant"* %vptr731)
  call void @_ZN14altered_carbon2js9JsVariantD1Ev(%"cls.acjs::JsVariant"* %vptr730)
  call void @_ZN14altered_carbon2js9JsVariantD1Ev(%"cls.acjs::JsVariant"* %vptr723)
  call void @_ZN14altered_carbon2js9JsVariantD1Ev(%"cls.acjs::JsVariant"* %vptr722)
  call void @_ZN14altered_carbon2js9JsVariantD1Ev(%"cls.acjs::JsVariant"* %vptr715)
  call void @_ZN14altered_carbon2js9JsVariantD1Ev(%"cls.acjs::JsVariant"* %vptr714)
  call void @_ZN14altered_carbon2js9JsVariantD1Ev(%"cls.acjs::JsVariant"* %vptr707)
  call void @_ZN14altered_carbon2js9JsVariantD1Ev(%"cls.acjs::JsVariant"* %vptr706)
  call void @_ZN14altered_carbon2js9JsVariantD1Ev(%"cls.acjs::JsVariant"* %vptr699)
  call void @_ZN14altered_carbon2js9JsVariantD1Ev(%"cls.acjs::JsVariant"* %vptr698)
  call void @_ZN14altered_carbon2js9JsVariantD1Ev(%"cls.acjs::JsVariant"* %vptr691)
  call void @_ZN14altered_carbon2js9JsVariantD1Ev(%"cls.acjs::JsVariant"* %vptr690)
  call void @_ZN14altered_carbon2js9JsVariantD1Ev(%"cls.acjs::JsVariant"* %vptr683)
  call void @_ZN14altered_carbon2js9JsVariantD1Ev(%"cls.acjs::JsVariant"* %vptr682)
  call void @_ZN14altered_carbon2js9JsVariantD1Ev(%"cls.acjs::JsVariant"* %vptr675)
  call void @_ZN14altered_carbon2js9JsVariantD1Ev(%"cls.acjs::JsVariant"* %vptr674)
  call void @_ZN14altered_carbon2js9JsVariantD1Ev(%"cls.acjs::JsVariant"* %vptr667)
  call void @_ZN14altered_carbon2js9JsVariantD1Ev(%"cls.acjs::JsVariant"* %vptr666)
  call void @_ZN14altered_carbon2js9JsVariantD1Ev(%"cls.acjs::JsVariant"* %vptr659)
  call void @_ZN14altered_carbon2js9JsVariantD1Ev(%"cls.acjs::JsVariant"* %vptr658)
  call void @_ZN14altered_carbon2js9JsVariantD1Ev(%"cls.acjs::JsVariant"* %vptr651)
  call void @_ZN14altered_carbon2js9JsVariantD1Ev(%"cls.acjs::JsVariant"* %vptr650)
  call void @_ZN14altered_carbon2js9JsVariantD1Ev(%"cls.acjs::JsVariant"* %vptr643)
  call void @_ZN14altered_carbon2js9JsVariantD1Ev(%"cls.acjs::JsVariant"* %vptr642)
  call void @_ZN14altered_carbon2js9JsVariantD1Ev(%"cls.acjs::JsVariant"* %vptr635)
  call void @_ZN14altered_carbon2js9JsVariantD1Ev(%"cls.acjs::JsVariant"* %vptr634)
  call void @_ZN14altered_carbon2js9JsVariantD1Ev(%"cls.acjs::JsVariant"* %vptr627)
  call void @_ZN14altered_carbon2js9JsVariantD1Ev(%"cls.acjs::JsVariant"* %vptr626)
  call void @_ZN14altered_carbon2js9JsVariantD1Ev(%"cls.acjs::JsVariant"* %vptr619)
  call void @_ZN14altered_carbon2js9JsVariantD1Ev(%"cls.acjs::JsVariant"* %vptr618)
  call void @_ZN14altered_carbon2js9JsVariantD1Ev(%"cls.acjs::JsVariant"* %vptr611)
  call void @_ZN14altered_carbon2js9JsVariantD1Ev(%"cls.acjs::JsVariant"* %vptr610)
  call void @_ZN14altered_carbon2js9JsVariantD1Ev(%"cls.acjs::JsVariant"* %vptr603)
  call void @_ZN14altered_carbon2js9JsVariantD1Ev(%"cls.acjs::JsVariant"* %vptr602)
  call void @_ZN14altered_carbon2js9JsVariantD1Ev(%"cls.acjs::JsVariant"* %vptr595)
  call void @_ZN14altered_carbon2js9JsVariantD1Ev(%"cls.acjs::JsVariant"* %vptr594)
  call void @_ZN14altered_carbon2js9JsVariantD1Ev(%"cls.acjs::JsVariant"* %vptr587)
  call void @_ZN14altered_carbon2js9JsVariantD1Ev(%"cls.acjs::JsVariant"* %vptr586)
  call void @_ZN14altered_carbon2js9JsVariantD1Ev(%"cls.acjs::JsVariant"* %vptr579)
  call void @_ZN14altered_carbon2js9JsVariantD1Ev(%"cls.acjs::JsVariant"* %vptr578)
  call void @_ZN14altered_carbon2js9JsVariantD1Ev(%"cls.acjs::JsVariant"* %vptr571)
  call void @_ZN14altered_carbon2js9JsVariantD1Ev(%"cls.acjs::JsVariant"* %vptr570)
  call void @_ZN14altered_carbon2js9JsVariantD1Ev(%"cls.acjs::JsVariant"* %vptr563)
  call void @_ZN14altered_carbon2js9JsVariantD1Ev(%"cls.acjs::JsVariant"* %vptr562)
  call void @_ZN14altered_carbon2js9JsVariantD1Ev(%"cls.acjs::JsVariant"* %vptr555)
  call void @_ZN14altered_carbon2js9JsVariantD1Ev(%"cls.acjs::JsVariant"* %vptr554)
  call void @_ZN14altered_carbon2js9JsVariantD1Ev(%"cls.acjs::JsVariant"* %vptr547)
  call void @_ZN14altered_carbon2js9JsVariantD1Ev(%"cls.acjs::JsVariant"* %vptr546)
  call void @_ZN14altered_carbon2js9JsVariantD1Ev(%"cls.acjs::JsVariant"* %vptr539)
  call void @_ZN14altered_carbon2js9JsVariantD1Ev(%"cls.acjs::JsVariant"* %vptr538)
  call void @_ZN14altered_carbon2js9JsVariantD1Ev(%"cls.acjs::JsVariant"* %vptr531)
  call void @_ZN14altered_carbon2js9JsVariantD1Ev(%"cls.acjs::JsVariant"* %vptr530)
  call void @_ZN14altered_carbon2js9JsVariantD1Ev(%"cls.acjs::JsVariant"* %vptr523)
  call void @_ZN14altered_carbon2js9JsVariantD1Ev(%"cls.acjs::JsVariant"* %vptr522)
  call void @_ZN14altered_carbon2js9JsVariantD1Ev(%"cls.acjs::JsVariant"* %vptr515)
  call void @_ZN14altered_carbon2js9JsVariantD1Ev(%"cls.acjs::JsVariant"* %vptr514)
  call void @_ZN14altered_carbon2js9JsVariantD1Ev(%"cls.acjs::JsVariant"* %vptr507)
  call void @_ZN14altered_carbon2js9JsVariantD1Ev(%"cls.acjs::JsVariant"* %vptr506)
  call void @_ZN14altered_carbon2js9JsVariantD1Ev(%"cls.acjs::JsVariant"* %vptr499)
  call void @_ZN14altered_carbon2js9JsVariantD1Ev(%"cls.acjs::JsVariant"* %vptr498)
  call void @_ZN14altered_carbon2js9JsVariantD1Ev(%"cls.acjs::JsVariant"* %vptr491)
  call void @_ZN14altered_carbon2js9JsVariantD1Ev(%"cls.acjs::JsVariant"* %vptr490)
  call void @_ZN14altered_carbon2js9JsVariantD1Ev(%"cls.acjs::JsVariant"* %vptr483)
  call void @_ZN14altered_carbon2js9JsVariantD1Ev(%"cls.acjs::JsVariant"* %vptr482)
  call void @_ZN14altered_carbon2js9JsVariantD1Ev(%"cls.acjs::JsVariant"* %vptr475)
  call void @_ZN14altered_carbon2js9JsVariantD1Ev(%"cls.acjs::JsVariant"* %vptr474)
  call void @_ZN14altered_carbon2js9JsVariantD1Ev(%"cls.acjs::JsVariant"* %vptr467)
  call void @_ZN14altered_carbon2js9JsVariantD1Ev(%"cls.acjs::JsVariant"* %vptr466)
  call void @_ZN14altered_carbon2js9JsVariantD1Ev(%"cls.acjs::JsVariant"* %vptr459)
  call void @_ZN14altered_carbon2js9JsVariantD1Ev(%"cls.acjs::JsVariant"* %vptr458)
  call void @_ZN14altered_carbon2js9JsVariantD1Ev(%"cls.acjs::JsVariant"* %vptr451)
  call void @_ZN14altered_carbon2js9JsVariantD1Ev(%"cls.acjs::JsVariant"* %vptr450)
  call void @_ZN14altered_carbon2js9JsVariantD1Ev(%"cls.acjs::JsVariant"* %vptr443)
  call void @_ZN14altered_carbon2js9JsVariantD1Ev(%"cls.acjs::JsVariant"* %vptr442)
  call void @_ZN14altered_carbon2js9JsVariantD1Ev(%"cls.acjs::JsVariant"* %vptr435)
  call void @_ZN14altered_carbon2js9JsVariantD1Ev(%"cls.acjs::JsVariant"* %vptr434)
  call void @_ZN14altered_carbon2js9JsVariantD1Ev(%"cls.acjs::JsVariant"* %vptr427)
  call void @_ZN14altered_carbon2js9JsVariantD1Ev(%"cls.acjs::JsVariant"* %vptr426)
  call void @_ZN14altered_carbon2js9JsVariantD1Ev(%"cls.acjs::JsVariant"* %vptr419)
  call void @_ZN14altered_carbon2js9JsVariantD1Ev(%"cls.acjs::JsVariant"* %vptr418)
  call void @_ZN14altered_carbon2js9JsVariantD1Ev(%"cls.acjs::JsVariant"* %vptr411)
  call void @_ZN14altered_carbon2js9JsVariantD1Ev(%"cls.acjs::JsVariant"* %vptr410)
  call void @_ZN14altered_carbon2js9JsVariantD1Ev(%"cls.acjs::JsVariant"* %vptr403)
  call void @_ZN14altered_carbon2js9JsVariantD1Ev(%"cls.acjs::JsVariant"* %vptr402)
  call void @_ZN14altered_carbon2js9JsVariantD1Ev(%"cls.acjs::JsVariant"* %vptr395)
  call void @_ZN14altered_carbon2js9JsVariantD1Ev(%"cls.acjs::JsVariant"* %vptr394)
  call void @_ZN14altered_carbon2js9JsVariantD1Ev(%"cls.acjs::JsVariant"* %vptr387)
  call void @_ZN14altered_carbon2js9JsVariantD1Ev(%"cls.acjs::JsVariant"* %vptr386)
  call void @_ZN14altered_carbon2js9JsVariantD1Ev(%"cls.acjs::JsVariant"* %vptr379)
  call void @_ZN14altered_carbon2js9JsVariantD1Ev(%"cls.acjs::JsVariant"* %vptr378)
  call void @_ZN14altered_carbon2js9JsVariantD1Ev(%"cls.acjs::JsVariant"* %vptr371)
  call void @_ZN14altered_carbon2js9JsVariantD1Ev(%"cls.acjs::JsVariant"* %vptr370)
  call void @_ZN14altered_carbon2js9JsVariantD1Ev(%"cls.acjs::JsVariant"* %vptr363)
  call void @_ZN14altered_carbon2js9JsVariantD1Ev(%"cls.acjs::JsVariant"* %vptr362)
  call void @_ZN14altered_carbon2js9JsVariantD1Ev(%"cls.acjs::JsVariant"* %vptr355)
  call void @_ZN14altered_carbon2js9JsVariantD1Ev(%"cls.acjs::JsVariant"* %vptr354)
  call void @_ZN14altered_carbon2js9JsVariantD1Ev(%"cls.acjs::JsVariant"* %vptr347)
  call void @_ZN14altered_carbon2js9JsVariantD1Ev(%"cls.acjs::JsVariant"* %vptr346)
  call void @_ZN14altered_carbon2js9JsVariantD1Ev(%"cls.acjs::JsVariant"* %vptr339)
  call void @_ZN14altered_carbon2js9JsVariantD1Ev(%"cls.acjs::JsVariant"* %vptr338)
  call void @_ZN14altered_carbon2js9JsVariantD1Ev(%"cls.acjs::JsVariant"* %vptr331)
  call void @_ZN14altered_carbon2js9JsVariantD1Ev(%"cls.acjs::JsVariant"* %vptr330)
  call void @_ZN14altered_carbon2js9JsVariantD1Ev(%"cls.acjs::JsVariant"* %vptr323)
  call void @_ZN14altered_carbon2js9JsVariantD1Ev(%"cls.acjs::JsVariant"* %vptr322)
  call void @_ZN14altered_carbon2js9JsVariantD1Ev(%"cls.acjs::JsVariant"* %vptr315)
  call void @_ZN14altered_carbon2js9JsVariantD1Ev(%"cls.acjs::JsVariant"* %vptr314)
  call void @_ZN14altered_carbon2js9JsVariantD1Ev(%"cls.acjs::JsVariant"* %vptr307)
  call void @_ZN14altered_carbon2js9JsVariantD1Ev(%"cls.acjs::JsVariant"* %vptr306)
  call void @_ZN14altered_carbon2js9JsVariantD1Ev(%"cls.acjs::JsVariant"* %vptr299)
  call void @_ZN14altered_carbon2js9JsVariantD1Ev(%"cls.acjs::JsVariant"* %vptr298)
  call void @_ZN14altered_carbon2js9JsVariantD1Ev(%"cls.acjs::JsVariant"* %vptr291)
  call void @_ZN14altered_carbon2js9JsVariantD1Ev(%"cls.acjs::JsVariant"* %vptr290)
  call void @_ZN14altered_carbon2js9JsVariantD1Ev(%"cls.acjs::JsVariant"* %vptr283)
  call void @_ZN14altered_carbon2js9JsVariantD1Ev(%"cls.acjs::JsVariant"* %vptr282)
  call void @_ZN14altered_carbon2js9JsVariantD1Ev(%"cls.acjs::JsVariant"* %vptr275)
  call void @_ZN14altered_carbon2js9JsVariantD1Ev(%"cls.acjs::JsVariant"* %vptr274)
  call void @_ZN14altered_carbon2js9JsVariantD1Ev(%"cls.acjs::JsVariant"* %vptr267)
  call void @_ZN14altered_carbon2js9JsVariantD1Ev(%"cls.acjs::JsVariant"* %vptr266)
  call void @_ZN14altered_carbon2js9JsVariantD1Ev(%"cls.acjs::JsVariant"* %vptr259)
  call void @_ZN14altered_carbon2js9JsVariantD1Ev(%"cls.acjs::JsVariant"* %vptr258)
  call void @_ZN14altered_carbon2js9JsVariantD1Ev(%"cls.acjs::JsVariant"* %vptr251)
  call void @_ZN14altered_carbon2js9JsVariantD1Ev(%"cls.acjs::JsVariant"* %vptr250)
  call void @_ZN14altered_carbon2js9JsVariantD1Ev(%"cls.acjs::JsVariant"* %vptr243)
  call void @_ZN14altered_carbon2js9JsVariantD1Ev(%"cls.acjs::JsVariant"* %vptr242)
  call void @_ZN14altered_carbon2js9JsVariantD1Ev(%"cls.acjs::JsVariant"* %vptr235)
  call void @_ZN14altered_carbon2js9JsVariantD1Ev(%"cls.acjs::JsVariant"* %vptr234)
  call void @_ZN14altered_carbon2js9JsVariantD1Ev(%"cls.acjs::JsVariant"* %vptr227)
  call void @_ZN14altered_carbon2js9JsVariantD1Ev(%"cls.acjs::JsVariant"* %vptr226)
  call void @_ZN14altered_carbon2js9JsVariantD1Ev(%"cls.acjs::JsVariant"* %vptr219)
  call void @_ZN14altered_carbon2js9JsVariantD1Ev(%"cls.acjs::JsVariant"* %vptr218)
  call void @_ZN14altered_carbon2js9JsVariantD1Ev(%"cls.acjs::JsVariant"* %vptr211)
  call void @_ZN14altered_carbon2js9JsVariantD1Ev(%"cls.acjs::JsVariant"* %vptr210)
  call void @_ZN14altered_carbon2js9JsVariantD1Ev(%"cls.acjs::JsVariant"* %vptr203)
  call void @_ZN14altered_carbon2js9JsVariantD1Ev(%"cls.acjs::JsVariant"* %vptr202)
  call void @_ZN14altered_carbon2js9JsVariantD1Ev(%"cls.acjs::JsVariant"* %vptr195)
  call void @_ZN14altered_carbon2js9JsVariantD1Ev(%"cls.acjs::JsVariant"* %vptr194)
  call void @_ZN14altered_carbon2js9JsVariantD1Ev(%"cls.acjs::JsVariant"* %vptr187)
  call void @_ZN14altered_carbon2js9JsVariantD1Ev(%"cls.acjs::JsVariant"* %vptr186)
  call void @_ZN14altered_carbon2js9JsVariantD1Ev(%"cls.acjs::JsVariant"* %vptr179)
  call void @_ZN14altered_carbon2js9JsVariantD1Ev(%"cls.acjs::JsVariant"* %vptr178)
  call void @_ZN14altered_carbon2js9JsVariantD1Ev(%"cls.acjs::JsVariant"* %vptr171)
  call void @_ZN14altered_carbon2js9JsVariantD1Ev(%"cls.acjs::JsVariant"* %vptr170)
  call void @_ZN14altered_carbon2js9JsVariantD1Ev(%"cls.acjs::JsVariant"* %vptr163)
  call void @_ZN14altered_carbon2js9JsVariantD1Ev(%"cls.acjs::JsVariant"* %vptr162)
  call void @_ZN14altered_carbon2js9JsVariantD1Ev(%"cls.acjs::JsVariant"* %vptr155)
  call void @_ZN14altered_carbon2js9JsVariantD1Ev(%"cls.acjs::JsVariant"* %vptr154)
  call void @_ZN14altered_carbon2js9JsVariantD1Ev(%"cls.acjs::JsVariant"* %vptr147)
  call void @_ZN14altered_carbon2js9JsVariantD1Ev(%"cls.acjs::JsVariant"* %vptr146)
  call void @_ZN14altered_carbon2js9JsVariantD1Ev(%"cls.acjs::JsVariant"* %vptr139)
  call void @_ZN14altered_carbon2js9JsVariantD1Ev(%"cls.acjs::JsVariant"* %vptr138)
  call void @_ZN14altered_carbon2js9JsVariantD1Ev(%"cls.acjs::JsVariant"* %vptr131)
  call void @_ZN14altered_carbon2js9JsVariantD1Ev(%"cls.acjs::JsVariant"* %vptr130)
  call void @_ZN14altered_carbon2js9JsVariantD1Ev(%"cls.acjs::JsVariant"* %vptr123)
  call void @_ZN14altered_carbon2js9JsVariantD1Ev(%"cls.acjs::JsVariant"* %vptr122)
  call void @_ZN14altered_carbon2js9JsVariantD1Ev(%"cls.acjs::JsVariant"* %vptr115)
  call void @_ZN14altered_carbon2js9JsVariantD1Ev(%"cls.acjs::JsVariant"* %vptr114)
  call void @_ZN14altered_carbon2js9JsVariantD1Ev(%"cls.acjs::JsVariant"* %vptr107)
  call void @_ZN14altered_carbon2js9JsVariantD1Ev(%"cls.acjs::JsVariant"* %vptr106)
  call void @_ZN14altered_carbon2js9JsVariantD1Ev(%"cls.acjs::JsVariant"* %vptr99)
  call void @_ZN14altered_carbon2js9JsVariantD1Ev(%"cls.acjs::JsVariant"* %vptr98)
  call void @_ZN14altered_carbon2js9JsVariantD1Ev(%"cls.acjs::JsVariant"* %vptr91)
  call void @_ZN14altered_carbon2js9JsVariantD1Ev(%"cls.acjs::JsVariant"* %vptr90)
  call void @_ZN14altered_carbon2js9JsVariantD1Ev(%"cls.acjs::JsVariant"* %vptr83)
  call void @_ZN14altered_carbon2js9JsVariantD1Ev(%"cls.acjs::JsVariant"* %vptr82)
  call void @_ZN14altered_carbon2js9JsVariantD1Ev(%"cls.acjs::JsVariant"* %vptr75)
  call void @_ZN14altered_carbon2js9JsVariantD1Ev(%"cls.acjs::JsVariant"* %vptr74)
  call void @_ZN14altered_carbon2js9JsVariantD1Ev(%"cls.acjs::JsVariant"* %vptr67)
  call void @_ZN14altered_carbon2js9JsVariantD1Ev(%"cls.acjs::JsVariant"* %vptr66)
  call void @_ZN14altered_carbon2js9JsVariantD1Ev(%"cls.acjs::JsVariant"* %vptr59)
  call void @_ZN14altered_carbon2js9JsVariantD1Ev(%"cls.acjs::JsVariant"* %vptr58)
  call void @_ZN14altered_carbon2js9JsVariantD1Ev(%"cls.acjs::JsVariant"* %vptr51)
  call void @_ZN14altered_carbon2js9JsVariantD1Ev(%"cls.acjs::JsVariant"* %vptr50)
  call void @_ZN14altered_carbon2js9JsVariantD1Ev(%"cls.acjs::JsVariant"* %vptr43)
  call void @_ZN14altered_carbon2js9JsVariantD1Ev(%"cls.acjs::JsVariant"* %vptr42)
  call void @_ZN14altered_carbon2js9JsVariantD1Ev(%"cls.acjs::JsVariant"* %vptr35)
  call void @_ZN14altered_carbon2js9JsVariantD1Ev(%"cls.acjs::JsVariant"* %vptr34)
  call void @_ZN14altered_carbon2js9JsVariantD1Ev(%"cls.acjs::JsVariant"* %vptr27)
  call void @_ZN14altered_carbon2js9JsVariantD1Ev(%"cls.acjs::JsVariant"* %vptr26)
  call void @_ZN14altered_carbon2js9JsVariantD1Ev(%"cls.acjs::JsVariant"* %vptr19)
  call void @_ZN14altered_carbon2js9JsVariantD1Ev(%"cls.acjs::JsVariant"* %vptr18)
  call void @_ZN14altered_carbon2js9JsVariantD1Ev(%"cls.acjs::JsVariant"* %vptr11)
  call void @_ZN14altered_carbon2js9JsVariantD1Ev(%"cls.acjs::JsVariant"* %vptr10)
  call void @_ZN14altered_carbon2js9JsVariantD1Ev(%"cls.acjs::JsVariant"* %vptr3)
  call void @_ZN14altered_carbon2js9JsVariantD1Ev(%"cls.acjs::JsVariant"* %vptr2)
  call void @_ZN14altered_carbon2js9JsVariantD1Ev(%"cls.acjs::JsVariant"* %vptr1)
  call void @_ZN14altered_carbon2js9JsVariantD1Ev(%"cls.acjs::JsVariant"* %vptr)
  ret void

blkalloc.bb:                                      ; preds = %exec.bb
  br label %block

block:                                            ; preds = %blkalloc.bb
  %564 = call %"cls.acjs::JsVariant"* @_ZN14altered_carbon2js9JsVariantaSEPKw(%"cls.acjs::JsVariant"* %vptr, i32* getelementptr inbounds ([65 x i32], [65 x i32]* @.wstr, i32 0, i32 0))
  %565 = getelementptr inbounds %"cls.acjs::JsVariant", %"cls.acjs::JsVariant"* %vptr1, i32 0, i32 1
  %566 = load i32, i32* %565, align 8
  %567 = icmp sle i32 %566, 6
  %568 = getelementptr inbounds %"cls.acjs::JsVariant", %"cls.acjs::JsVariant"* %vptr, i32 0, i32 1
  %569 = load i32, i32* %568, align 8
  %570 = icmp sle i32 %569, 6
  %571 = and i1 %567, %570
  br i1 %571, label %copy.bb, label %fallback.bb

blkexit.bb:                                       ; preds = %copy.bb1100e
  br label %blkalloc.bbe

copy.bb:                                          ; preds = %block
  switch i32 %569, label %fallback.bb [
    i32 -2, label %caseerr.bb
    i32 0, label %casenul_unf.bb
    i32 1, label %casenul_unf.bb
    i32 6, label %casebln.bb
    i32 2, label %casenum.bb
  ]

copy.bbe:                                         ; preds = %fallback.bb, %casenum.bb, %casebln.bb, %casenul_unf.bb, %caseerr.bb
  %572 = call %"cls.acjs::JsVariant"* @_ZN14altered_carbon2js9JsVariantaSEPKw(%"cls.acjs::JsVariant"* %vptr2, i32* getelementptr inbounds ([13 x i32], [13 x i32]* @.wstr.1, i32 0, i32 0))
  %573 = getelementptr inbounds %"cls.acjs::JsVariant", %"cls.acjs::JsVariant"* %vptr3, i32 0, i32 1
  %574 = load i32, i32* %573, align 8
  %575 = icmp sle i32 %574, 6
  %576 = getelementptr inbounds %"cls.acjs::JsVariant", %"cls.acjs::JsVariant"* %vptr2, i32 0, i32 1
  %577 = load i32, i32* %576, align 8
  %578 = icmp sle i32 %577, 6
  %579 = and i1 %575, %578
  br i1 %579, label %copy.bb4, label %fallback.bb5

fallback.bb:                                      ; preds = %copy.bb, %block
  %580 = call %"cls.acjs::JsVariant"* @_ZN14altered_carbon2js9JsVariantaSERKS1_(%"cls.acjs::JsVariant"* %vptr1, %"cls.acjs::JsVariant"* %vptr)
  br label %copy.bbe

caseerr.bb:                                       ; preds = %copy.bb
  store i32 %569, i32* %565, align 8
  %581 = getelementptr inbounds %"cls.acjs::JsVariant", %"cls.acjs::JsVariant"* %vptr, i32 0, i32 2
  %582 = bitcast %union.anon.6* %581 to i8**
  %583 = load i8*, i8** %582, align 8
  %584 = getelementptr inbounds %"cls.acjs::JsVariant", %"cls.acjs::JsVariant"* %vptr1, i32 0, i32 2
  %585 = bitcast %union.anon.6* %584 to i8**
  store i8* %583, i8** %585, align 8
  br label %copy.bbe

casenul_unf.bb:                                   ; preds = %copy.bb, %copy.bb
  store i32 %569, i32* %565, align 8
  br label %copy.bbe

casebln.bb:                                       ; preds = %copy.bb
  store i32 %569, i32* %565, align 8
  %586 = getelementptr inbounds %"cls.acjs::JsVariant", %"cls.acjs::JsVariant"* %vptr, i32 0, i32 2
  %587 = bitcast %union.anon.6* %586 to i8*
  %588 = load i8, i8* %587, align 8
  %589 = getelementptr inbounds %"cls.acjs::JsVariant", %"cls.acjs::JsVariant"* %vptr1, i32 0, i32 2
  %590 = bitcast %union.anon.6* %589 to i8*
  store i8 %588, i8* %590, align 1
  br label %copy.bbe

casenum.bb:                                       ; preds = %copy.bb
  store i32 %569, i32* %565, align 8
  %591 = getelementptr inbounds %"cls.acjs::JsVariant", %"cls.acjs::JsVariant"* %vptr, i32 0, i32 2
  %592 = bitcast %union.anon.6* %591 to %"cls.acjs::JsVariantNumber"*
  %593 = getelementptr inbounds %"cls.acjs::JsVariantNumber", %"cls.acjs::JsVariantNumber"* %592, i32 0, i32 0
  %594 = load i64, i64* %593, align 8
  %595 = getelementptr inbounds %"cls.acjs::JsVariantNumber", %"cls.acjs::JsVariantNumber"* %592, i32 0, i32 1
  %596 = load double, double* %595, align 8
  %597 = getelementptr inbounds %"cls.acjs::JsVariantNumber", %"cls.acjs::JsVariantNumber"* %592, i32 0, i32 2
  %598 = load i8, i8* %597, align 8
  %599 = getelementptr inbounds %"cls.acjs::JsVariant", %"cls.acjs::JsVariant"* %vptr1, i32 0, i32 2
  %600 = bitcast %union.anon.6* %599 to %"cls.acjs::JsVariantNumber"*
  %601 = getelementptr inbounds %"cls.acjs::JsVariantNumber", %"cls.acjs::JsVariantNumber"* %600, i32 0, i32 0
  store i64 %594, i64* %601, align 8
  %602 = getelementptr inbounds %"cls.acjs::JsVariantNumber", %"cls.acjs::JsVariantNumber"* %600, i32 0, i32 1
  store double %596, double* %602, align 8
  %603 = getelementptr inbounds %"cls.acjs::JsVariantNumber", %"cls.acjs::JsVariantNumber"* %600, i32 0, i32 2
  store i8 %598, i8* %603, align 8
  br label %copy.bbe

copy.bb4:                                         ; preds = %copy.bbe
  switch i32 %577, label %fallback.bb5 [
    i32 -2, label %caseerr.bb6
    i32 0, label %casenul_unf.bb7
    i32 1, label %casenul_unf.bb7
    i32 6, label %casebln.bb8
    i32 2, label %casenum.bb9
  ]

copy.bb4e:                                        ; preds = %fallback.bb5, %casenum.bb9, %casebln.bb8, %casenul_unf.bb7, %caseerr.bb6
  %604 = call %"cls.acjs::JsVariant"* @_ZN14altered_carbon2js9JsVariantaSEPKw(%"cls.acjs::JsVariant"* %vptr10, i32* getelementptr inbounds ([13 x i32], [13 x i32]* @.wstr.2, i32 0, i32 0))
  %605 = getelementptr inbounds %"cls.acjs::JsVariant", %"cls.acjs::JsVariant"* %vptr11, i32 0, i32 1
  %606 = load i32, i32* %605, align 8
  %607 = icmp sle i32 %606, 6
  %608 = getelementptr inbounds %"cls.acjs::JsVariant", %"cls.acjs::JsVariant"* %vptr10, i32 0, i32 1
  %609 = load i32, i32* %608, align 8
  %610 = icmp sle i32 %609, 6
  %611 = and i1 %607, %610
  br i1 %611, label %copy.bb12, label %fallback.bb13

fallback.bb5:                                     ; preds = %copy.bb4, %copy.bbe
  %612 = call %"cls.acjs::JsVariant"* @_ZN14altered_carbon2js9JsVariantaSERKS1_(%"cls.acjs::JsVariant"* %vptr3, %"cls.acjs::JsVariant"* %vptr2)
  br label %copy.bb4e

caseerr.bb6:                                      ; preds = %copy.bb4
  store i32 %577, i32* %573, align 8
  %613 = getelementptr inbounds %"cls.acjs::JsVariant", %"cls.acjs::JsVariant"* %vptr2, i32 0, i32 2
  %614 = bitcast %union.anon.6* %613 to i8**
  %615 = load i8*, i8** %614, align 8
  %616 = getelementptr inbounds %"cls.acjs::JsVariant", %"cls.acjs::JsVariant"* %vptr3, i32 0, i32 2
  %617 = bitcast %union.anon.6* %616 to i8**
  store i8* %615, i8** %617, align 8
  br label %copy.bb4e

casenul_unf.bb7:                                  ; preds = %copy.bb4, %copy.bb4
  store i32 %577, i32* %573, align 8
  br label %copy.bb4e

casebln.bb8:                                      ; preds = %copy.bb4
  store i32 %577, i32* %573, align 8
  %618 = getelementptr inbounds %"cls.acjs::JsVariant", %"cls.acjs::JsVariant"* %vptr2, i32 0, i32 2
  %619 = bitcast %union.anon.6* %618 to i8*
  %620 = load i8, i8* %619, align 8
  %621 = getelementptr inbounds %"cls.acjs::JsVariant", %"cls.acjs::JsVariant"* %vptr3, i32 0, i32 2
  %622 = bitcast %union.anon.6* %621 to i8*
  store i8 %620, i8* %622, align 1
  br label %copy.bb4e

casenum.bb9:                                      ; preds = %copy.bb4
  store i32 %577, i32* %573, align 8
  %623 = getelementptr inbounds %"cls.acjs::JsVariant", %"cls.acjs::JsVariant"* %vptr2, i32 0, i32 2
  %624 = bitcast %union.anon.6* %623 to %"cls.acjs::JsVariantNumber"*
  %625 = getelementptr inbounds %"cls.acjs::JsVariantNumber", %"cls.acjs::JsVariantNumber"* %624, i32 0, i32 0
  %626 = load i64, i64* %625, align 8
  %627 = getelementptr inbounds %"cls.acjs::JsVariantNumber", %"cls.acjs::JsVariantNumber"* %624, i32 0, i32 1
  %628 = load double, double* %627, align 8
  %629 = getelementptr inbounds %"cls.acjs::JsVariantNumber", %"cls.acjs::JsVariantNumber"* %624, i32 0, i32 2
  %630 = load i8, i8* %629, align 8
  %631 = getelementptr inbounds %"cls.acjs::JsVariant", %"cls.acjs::JsVariant"* %vptr3, i32 0, i32 2
  %632 = bitcast %union.anon.6* %631 to %"cls.acjs::JsVariantNumber"*
  %633 = getelementptr inbounds %"cls.acjs::JsVariantNumber", %"cls.acjs::JsVariantNumber"* %632, i32 0, i32 0
  store i64 %626, i64* %633, align 8
  %634 = getelementptr inbounds %"cls.acjs::JsVariantNumber", %"cls.acjs::JsVariantNumber"* %632, i32 0, i32 1
  store double %628, double* %634, align 8
  %635 = getelementptr inbounds %"cls.acjs::JsVariantNumber", %"cls.acjs::JsVariantNumber"* %632, i32 0, i32 2
  store i8 %630, i8* %635, align 8
  br label %copy.bb4e

copy.bb12:                                        ; preds = %copy.bb4e
  switch i32 %609, label %fallback.bb13 [
    i32 -2, label %caseerr.bb14
    i32 0, label %casenul_unf.bb15
    i32 1, label %casenul_unf.bb15
    i32 6, label %casebln.bb16
    i32 2, label %casenum.bb17
  ]

copy.bb12e:                                       ; preds = %fallback.bb13, %casenum.bb17, %casebln.bb16, %casenul_unf.bb15, %caseerr.bb14
  %636 = call %"cls.acjs::JsVariant"* @_ZN14altered_carbon2js9JsVariantaSEPKw(%"cls.acjs::JsVariant"* %vptr18, i32* getelementptr inbounds ([13 x i32], [13 x i32]* @.wstr.3, i32 0, i32 0))
  %637 = getelementptr inbounds %"cls.acjs::JsVariant", %"cls.acjs::JsVariant"* %vptr19, i32 0, i32 1
  %638 = load i32, i32* %637, align 8
  %639 = icmp sle i32 %638, 6
  %640 = getelementptr inbounds %"cls.acjs::JsVariant", %"cls.acjs::JsVariant"* %vptr18, i32 0, i32 1
  %641 = load i32, i32* %640, align 8
  %642 = icmp sle i32 %641, 6
  %643 = and i1 %639, %642
  br i1 %643, label %copy.bb20, label %fallback.bb21

fallback.bb13:                                    ; preds = %copy.bb12, %copy.bb4e
  %644 = call %"cls.acjs::JsVariant"* @_ZN14altered_carbon2js9JsVariantaSERKS1_(%"cls.acjs::JsVariant"* %vptr11, %"cls.acjs::JsVariant"* %vptr10)
  br label %copy.bb12e

caseerr.bb14:                                     ; preds = %copy.bb12
  store i32 %609, i32* %605, align 8
  %645 = getelementptr inbounds %"cls.acjs::JsVariant", %"cls.acjs::JsVariant"* %vptr10, i32 0, i32 2
  %646 = bitcast %union.anon.6* %645 to i8**
  %647 = load i8*, i8** %646, align 8
  %648 = getelementptr inbounds %"cls.acjs::JsVariant", %"cls.acjs::JsVariant"* %vptr11, i32 0, i32 2
  %649 = bitcast %union.anon.6* %648 to i8**
  store i8* %647, i8** %649, align 8
  br label %copy.bb12e

casenul_unf.bb15:                                 ; preds = %copy.bb12, %copy.bb12
  store i32 %609, i32* %605, align 8
  br label %copy.bb12e

casebln.bb16:                                     ; preds = %copy.bb12
  store i32 %609, i32* %605, align 8
  %650 = getelementptr inbounds %"cls.acjs::JsVariant", %"cls.acjs::JsVariant"* %vptr10, i32 0, i32 2
  %651 = bitcast %union.anon.6* %650 to i8*
  %652 = load i8, i8* %651, align 8
  %653 = getelementptr inbounds %"cls.acjs::JsVariant", %"cls.acjs::JsVariant"* %vptr11, i32 0, i32 2
  %654 = bitcast %union.anon.6* %653 to i8*
  store i8 %652, i8* %654, align 1
  br label %copy.bb12e

casenum.bb17:                                     ; preds = %copy.bb12
  store i32 %609, i32* %605, align 8
  %655 = getelementptr inbounds %"cls.acjs::JsVariant", %"cls.acjs::JsVariant"* %vptr10, i32 0, i32 2
  %656 = bitcast %union.anon.6* %655 to %"cls.acjs::JsVariantNumber"*
  %657 = getelementptr inbounds %"cls.acjs::JsVariantNumber", %"cls.acjs::JsVariantNumber"* %656, i32 0, i32 0
  %658 = load i64, i64* %657, align 8
  %659 = getelementptr inbounds %"cls.acjs::JsVariantNumber", %"cls.acjs::JsVariantNumber"* %656, i32 0, i32 1
  %660 = load double, double* %659, align 8
  %661 = getelementptr inbounds %"cls.acjs::JsVariantNumber", %"cls.acjs::JsVariantNumber"* %656, i32 0, i32 2
  %662 = load i8, i8* %661, align 8
  %663 = getelementptr inbounds %"cls.acjs::JsVariant", %"cls.acjs::JsVariant"* %vptr11, i32 0, i32 2
  %664 = bitcast %union.anon.6* %663 to %"cls.acjs::JsVariantNumber"*
  %665 = getelementptr inbounds %"cls.acjs::JsVariantNumber", %"cls.acjs::JsVariantNumber"* %664, i32 0, i32 0
  store i64 %658, i64* %665, align 8
  %666 = getelementptr inbounds %"cls.acjs::JsVariantNumber", %"cls.acjs::JsVariantNumber"* %664, i32 0, i32 1
  store double %660, double* %666, align 8
  %667 = getelementptr inbounds %"cls.acjs::JsVariantNumber", %"cls.acjs::JsVariantNumber"* %664, i32 0, i32 2
  store i8 %662, i8* %667, align 8
  br label %copy.bb12e

copy.bb20:                                        ; preds = %copy.bb12e
  switch i32 %641, label %fallback.bb21 [
    i32 -2, label %caseerr.bb22
    i32 0, label %casenul_unf.bb23
    i32 1, label %casenul_unf.bb23
    i32 6, label %casebln.bb24
    i32 2, label %casenum.bb25
  ]

copy.bb20e:                                       ; preds = %fallback.bb21, %casenum.bb25, %casebln.bb24, %casenul_unf.bb23, %caseerr.bb22
  %668 = call %"cls.acjs::JsVariant"* @_ZN14altered_carbon2js9JsVariantaSEPKw(%"cls.acjs::JsVariant"* %vptr26, i32* getelementptr inbounds ([13 x i32], [13 x i32]* @.wstr.4, i32 0, i32 0))
  %669 = getelementptr inbounds %"cls.acjs::JsVariant", %"cls.acjs::JsVariant"* %vptr27, i32 0, i32 1
  %670 = load i32, i32* %669, align 8
  %671 = icmp sle i32 %670, 6
  %672 = getelementptr inbounds %"cls.acjs::JsVariant", %"cls.acjs::JsVariant"* %vptr26, i32 0, i32 1
  %673 = load i32, i32* %672, align 8
  %674 = icmp sle i32 %673, 6
  %675 = and i1 %671, %674
  br i1 %675, label %copy.bb28, label %fallback.bb29

fallback.bb21:                                    ; preds = %copy.bb20, %copy.bb12e
  %676 = call %"cls.acjs::JsVariant"* @_ZN14altered_carbon2js9JsVariantaSERKS1_(%"cls.acjs::JsVariant"* %vptr19, %"cls.acjs::JsVariant"* %vptr18)
  br label %copy.bb20e

caseerr.bb22:                                     ; preds = %copy.bb20
  store i32 %641, i32* %637, align 8
  %677 = getelementptr inbounds %"cls.acjs::JsVariant", %"cls.acjs::JsVariant"* %vptr18, i32 0, i32 2
  %678 = bitcast %union.anon.6* %677 to i8**
  %679 = load i8*, i8** %678, align 8
  %680 = getelementptr inbounds %"cls.acjs::JsVariant", %"cls.acjs::JsVariant"* %vptr19, i32 0, i32 2
  %681 = bitcast %union.anon.6* %680 to i8**
  store i8* %679, i8** %681, align 8
  br label %copy.bb20e

casenul_unf.bb23:                                 ; preds = %copy.bb20, %copy.bb20
  store i32 %641, i32* %637, align 8
  br label %copy.bb20e

casebln.bb24:                                     ; preds = %copy.bb20
  store i32 %641, i32* %637, align 8
  %682 = getelementptr inbounds %"cls.acjs::JsVariant", %"cls.acjs::JsVariant"* %vptr18, i32 0, i32 2
  %683 = bitcast %union.anon.6* %682 to i8*
  %684 = load i8, i8* %683, align 8
  %685 = getelementptr inbounds %"cls.acjs::JsVariant", %"cls.acjs::JsVariant"* %vptr19, i32 0, i32 2
  %686 = bitcast %union.anon.6* %685 to i8*
  store i8 %684, i8* %686, align 1
  br label %copy.bb20e

casenum.bb25:                                     ; preds = %copy.bb20
  store i32 %641, i32* %637, align 8
  %687 = getelementptr inbounds %"cls.acjs::JsVariant", %"cls.acjs::JsVariant"* %vptr18, i32 0, i32 2
  %688 = bitcast %union.anon.6* %687 to %"cls.acjs::JsVariantNumber"*
  %689 = getelementptr inbounds %"cls.acjs::JsVariantNumber", %"cls.acjs::JsVariantNumber"* %688, i32 0, i32 0
  %690 = load i64, i64* %689, align 8
  %691 = getelementptr inbounds %"cls.acjs::JsVariantNumber", %"cls.acjs::JsVariantNumber"* %688, i32 0, i32 1
  %692 = load double, double* %691, align 8
  %693 = getelementptr inbounds %"cls.acjs::JsVariantNumber", %"cls.acjs::JsVariantNumber"* %688, i32 0, i32 2
  %694 = load i8, i8* %693, align 8
  %695 = getelementptr inbounds %"cls.acjs::JsVariant", %"cls.acjs::JsVariant"* %vptr19, i32 0, i32 2
  %696 = bitcast %union.anon.6* %695 to %"cls.acjs::JsVariantNumber"*
  %697 = getelementptr inbounds %"cls.acjs::JsVariantNumber", %"cls.acjs::JsVariantNumber"* %696, i32 0, i32 0
  store i64 %690, i64* %697, align 8
  %698 = getelementptr inbounds %"cls.acjs::JsVariantNumber", %"cls.acjs::JsVariantNumber"* %696, i32 0, i32 1
  store double %692, double* %698, align 8
  %699 = getelementptr inbounds %"cls.acjs::JsVariantNumber", %"cls.acjs::JsVariantNumber"* %696, i32 0, i32 2
  store i8 %694, i8* %699, align 8
  br label %copy.bb20e

copy.bb28:                                        ; preds = %copy.bb20e
  switch i32 %673, label %fallback.bb29 [
    i32 -2, label %caseerr.bb30
    i32 0, label %casenul_unf.bb31
    i32 1, label %casenul_unf.bb31
    i32 6, label %casebln.bb32
    i32 2, label %casenum.bb33
  ]

copy.bb28e:                                       ; preds = %fallback.bb29, %casenum.bb33, %casebln.bb32, %casenul_unf.bb31, %caseerr.bb30
  %700 = call %"cls.acjs::JsVariant"* @_ZN14altered_carbon2js9JsVariantaSEPKw(%"cls.acjs::JsVariant"* %vptr34, i32* getelementptr inbounds ([13 x i32], [13 x i32]* @.wstr.5, i32 0, i32 0))
  %701 = getelementptr inbounds %"cls.acjs::JsVariant", %"cls.acjs::JsVariant"* %vptr35, i32 0, i32 1
  %702 = load i32, i32* %701, align 8
  %703 = icmp sle i32 %702, 6
  %704 = getelementptr inbounds %"cls.acjs::JsVariant", %"cls.acjs::JsVariant"* %vptr34, i32 0, i32 1
  %705 = load i32, i32* %704, align 8
  %706 = icmp sle i32 %705, 6
  %707 = and i1 %703, %706
  br i1 %707, label %copy.bb36, label %fallback.bb37

fallback.bb29:                                    ; preds = %copy.bb28, %copy.bb20e
  %708 = call %"cls.acjs::JsVariant"* @_ZN14altered_carbon2js9JsVariantaSERKS1_(%"cls.acjs::JsVariant"* %vptr27, %"cls.acjs::JsVariant"* %vptr26)
  br label %copy.bb28e

caseerr.bb30:                                     ; preds = %copy.bb28
  store i32 %673, i32* %669, align 8
  %709 = getelementptr inbounds %"cls.acjs::JsVariant", %"cls.acjs::JsVariant"* %vptr26, i32 0, i32 2
  %710 = bitcast %union.anon.6* %709 to i8**
  %711 = load i8*, i8** %710, align 8
  %712 = getelementptr inbounds %"cls.acjs::JsVariant", %"cls.acjs::JsVariant"* %vptr27, i32 0, i32 2
  %713 = bitcast %union.anon.6* %712 to i8**
  store i8* %711, i8** %713, align 8
  br label %copy.bb28e

casenul_unf.bb31:                                 ; preds = %copy.bb28, %copy.bb28
  store i32 %673, i32* %669, align 8
  br label %copy.bb28e

casebln.bb32:                                     ; preds = %copy.bb28
  store i32 %673, i32* %669, align 8
  %714 = getelementptr inbounds %"cls.acjs::JsVariant", %"cls.acjs::JsVariant"* %vptr26, i32 0, i32 2
  %715 = bitcast %union.anon.6* %714 to i8*
  %716 = load i8, i8* %715, align 8
  %717 = getelementptr inbounds %"cls.acjs::JsVariant", %"cls.acjs::JsVariant"* %vptr27, i32 0, i32 2
  %718 = bitcast %union.anon.6* %717 to i8*
  store i8 %716, i8* %718, align 1
  br label %copy.bb28e

casenum.bb33:                                     ; preds = %copy.bb28
  store i32 %673, i32* %669, align 8
  %719 = getelementptr inbounds %"cls.acjs::JsVariant", %"cls.acjs::JsVariant"* %vptr26, i32 0, i32 2
  %720 = bitcast %union.anon.6* %719 to %"cls.acjs::JsVariantNumber"*
  %721 = getelementptr inbounds %"cls.acjs::JsVariantNumber", %"cls.acjs::JsVariantNumber"* %720, i32 0, i32 0
  %722 = load i64, i64* %721, align 8
  %723 = getelementptr inbounds %"cls.acjs::JsVariantNumber", %"cls.acjs::JsVariantNumber"* %720, i32 0, i32 1
  %724 = load double, double* %723, align 8
  %725 = getelementptr inbounds %"cls.acjs::JsVariantNumber", %"cls.acjs::JsVariantNumber"* %720, i32 0, i32 2
  %726 = load i8, i8* %725, align 8
  %727 = getelementptr inbounds %"cls.acjs::JsVariant", %"cls.acjs::JsVariant"* %vptr27, i32 0, i32 2
  %728 = bitcast %union.anon.6* %727 to %"cls.acjs::JsVariantNumber"*
  %729 = getelementptr inbounds %"cls.acjs::JsVariantNumber", %"cls.acjs::JsVariantNumber"* %728, i32 0, i32 0
  store i64 %722, i64* %729, align 8
  %730 = getelementptr inbounds %"cls.acjs::JsVariantNumber", %"cls.acjs::JsVariantNumber"* %728, i32 0, i32 1
  store double %724, double* %730, align 8
  %731 = getelementptr inbounds %"cls.acjs::JsVariantNumber", %"cls.acjs::JsVariantNumber"* %728, i32 0, i32 2
  store i8 %726, i8* %731, align 8
  br label %copy.bb28e

copy.bb36:                                        ; preds = %copy.bb28e
  switch i32 %705, label %fallback.bb37 [
    i32 -2, label %caseerr.bb38
    i32 0, label %casenul_unf.bb39
    i32 1, label %casenul_unf.bb39
    i32 6, label %casebln.bb40
    i32 2, label %casenum.bb41
  ]

copy.bb36e:                                       ; preds = %fallback.bb37, %casenum.bb41, %casebln.bb40, %casenul_unf.bb39, %caseerr.bb38
  %732 = call %"cls.acjs::JsVariant"* @_ZN14altered_carbon2js9JsVariantaSEPKw(%"cls.acjs::JsVariant"* %vptr42, i32* getelementptr inbounds ([10 x i32], [10 x i32]* @.wstr.6, i32 0, i32 0))
  %733 = getelementptr inbounds %"cls.acjs::JsVariant", %"cls.acjs::JsVariant"* %vptr43, i32 0, i32 1
  %734 = load i32, i32* %733, align 8
  %735 = icmp sle i32 %734, 6
  %736 = getelementptr inbounds %"cls.acjs::JsVariant", %"cls.acjs::JsVariant"* %vptr42, i32 0, i32 1
  %737 = load i32, i32* %736, align 8
  %738 = icmp sle i32 %737, 6
  %739 = and i1 %735, %738
  br i1 %739, label %copy.bb44, label %fallback.bb45

fallback.bb37:                                    ; preds = %copy.bb36, %copy.bb28e
  %740 = call %"cls.acjs::JsVariant"* @_ZN14altered_carbon2js9JsVariantaSERKS1_(%"cls.acjs::JsVariant"* %vptr35, %"cls.acjs::JsVariant"* %vptr34)
  br label %copy.bb36e

caseerr.bb38:                                     ; preds = %copy.bb36
  store i32 %705, i32* %701, align 8
  %741 = getelementptr inbounds %"cls.acjs::JsVariant", %"cls.acjs::JsVariant"* %vptr34, i32 0, i32 2
  %742 = bitcast %union.anon.6* %741 to i8**
  %743 = load i8*, i8** %742, align 8
  %744 = getelementptr inbounds %"cls.acjs::JsVariant", %"cls.acjs::JsVariant"* %vptr35, i32 0, i32 2
  %745 = bitcast %union.anon.6* %744 to i8**
  store i8* %743, i8** %745, align 8
  br label %copy.bb36e

casenul_unf.bb39:                                 ; preds = %copy.bb36, %copy.bb36
  store i32 %705, i32* %701, align 8
  br label %copy.bb36e

casebln.bb40:                                     ; preds = %copy.bb36
  store i32 %705, i32* %701, align 8
  %746 = getelementptr inbounds %"cls.acjs::JsVariant", %"cls.acjs::JsVariant"* %vptr34, i32 0, i32 2
  %747 = bitcast %union.anon.6* %746 to i8*
  %748 = load i8, i8* %747, align 8
  %749 = getelementptr inbounds %"cls.acjs::JsVariant", %"cls.acjs::JsVariant"* %vptr35, i32 0, i32 2
  %750 = bitcast %union.anon.6* %749 to i8*
  store i8 %748, i8* %750, align 1
  br label %copy.bb36e

casenum.bb41:                                     ; preds = %copy.bb36
  store i32 %705, i32* %701, align 8
  %751 = getelementptr inbounds %"cls.acjs::JsVariant", %"cls.acjs::JsVariant"* %vptr34, i32 0, i32 2
  %752 = bitcast %union.anon.6* %751 to %"cls.acjs::JsVariantNumber"*
  %753 = getelementptr inbounds %"cls.acjs::JsVariantNumber", %"cls.acjs::JsVariantNumber"* %752, i32 0, i32 0
  %754 = load i64, i64* %753, align 8
  %755 = getelementptr inbounds %"cls.acjs::JsVariantNumber", %"cls.acjs::JsVariantNumber"* %752, i32 0, i32 1
  %756 = load double, double* %755, align 8
  %757 = getelementptr inbounds %"cls.acjs::JsVariantNumber", %"cls.acjs::JsVariantNumber"* %752, i32 0, i32 2
  %758 = load i8, i8* %757, align 8
  %759 = getelementptr inbounds %"cls.acjs::JsVariant", %"cls.acjs::JsVariant"* %vptr35, i32 0, i32 2
  %760 = bitcast %union.anon.6* %759 to %"cls.acjs::JsVariantNumber"*
  %761 = getelementptr inbounds %"cls.acjs::JsVariantNumber", %"cls.acjs::JsVariantNumber"* %760, i32 0, i32 0
  store i64 %754, i64* %761, align 8
  %762 = getelementptr inbounds %"cls.acjs::JsVariantNumber", %"cls.acjs::JsVariantNumber"* %760, i32 0, i32 1
  store double %756, double* %762, align 8
  %763 = getelementptr inbounds %"cls.acjs::JsVariantNumber", %"cls.acjs::JsVariantNumber"* %760, i32 0, i32 2
  store i8 %758, i8* %763, align 8
  br label %copy.bb36e

copy.bb44:                                        ; preds = %copy.bb36e
  switch i32 %737, label %fallback.bb45 [
    i32 -2, label %caseerr.bb46
    i32 0, label %casenul_unf.bb47
    i32 1, label %casenul_unf.bb47
    i32 6, label %casebln.bb48
    i32 2, label %casenum.bb49
  ]

copy.bb44e:                                       ; preds = %fallback.bb45, %casenum.bb49, %casebln.bb48, %casenul_unf.bb47, %caseerr.bb46
  %764 = call %"cls.acjs::JsVariant"* @_ZN14altered_carbon2js9JsVariantaSEPKw(%"cls.acjs::JsVariant"* %vptr50, i32* getelementptr inbounds ([10 x i32], [10 x i32]* @.wstr.7, i32 0, i32 0))
  %765 = getelementptr inbounds %"cls.acjs::JsVariant", %"cls.acjs::JsVariant"* %vptr51, i32 0, i32 1
  %766 = load i32, i32* %765, align 8
  %767 = icmp sle i32 %766, 6
  %768 = getelementptr inbounds %"cls.acjs::JsVariant", %"cls.acjs::JsVariant"* %vptr50, i32 0, i32 1
  %769 = load i32, i32* %768, align 8
  %770 = icmp sle i32 %769, 6
  %771 = and i1 %767, %770
  br i1 %771, label %copy.bb52, label %fallback.bb53

fallback.bb45:                                    ; preds = %copy.bb44, %copy.bb36e
  %772 = call %"cls.acjs::JsVariant"* @_ZN14altered_carbon2js9JsVariantaSERKS1_(%"cls.acjs::JsVariant"* %vptr43, %"cls.acjs::JsVariant"* %vptr42)
  br label %copy.bb44e

caseerr.bb46:                                     ; preds = %copy.bb44
  store i32 %737, i32* %733, align 8
  %773 = getelementptr inbounds %"cls.acjs::JsVariant", %"cls.acjs::JsVariant"* %vptr42, i32 0, i32 2
  %774 = bitcast %union.anon.6* %773 to i8**
  %775 = load i8*, i8** %774, align 8
  %776 = getelementptr inbounds %"cls.acjs::JsVariant", %"cls.acjs::JsVariant"* %vptr43, i32 0, i32 2
  %777 = bitcast %union.anon.6* %776 to i8**
  store i8* %775, i8** %777, align 8
  br label %copy.bb44e

casenul_unf.bb47:                                 ; preds = %copy.bb44, %copy.bb44
  store i32 %737, i32* %733, align 8
  br label %copy.bb44e

casebln.bb48:                                     ; preds = %copy.bb44
  store i32 %737, i32* %733, align 8
  %778 = getelementptr inbounds %"cls.acjs::JsVariant", %"cls.acjs::JsVariant"* %vptr42, i32 0, i32 2
  %779 = bitcast %union.anon.6* %778 to i8*
  %780 = load i8, i8* %779, align 8
  %781 = getelementptr inbounds %"cls.acjs::JsVariant", %"cls.acjs::JsVariant"* %vptr43, i32 0, i32 2
  %782 = bitcast %union.anon.6* %781 to i8*
  store i8 %780, i8* %782, align 1
  br label %copy.bb44e

casenum.bb49:                                     ; preds = %copy.bb44
  store i32 %737, i32* %733, align 8
  %783 = getelementptr inbounds %"cls.acjs::JsVariant", %"cls.acjs::JsVariant"* %vptr42, i32 0, i32 2
  %784 = bitcast %union.anon.6* %783 to %"cls.acjs::JsVariantNumber"*
  %785 = getelementptr inbounds %"cls.acjs::JsVariantNumber", %"cls.acjs::JsVariantNumber"* %784, i32 0, i32 0
  %786 = load i64, i64* %785, align 8
  %787 = getelementptr inbounds %"cls.acjs::JsVariantNumber", %"cls.acjs::JsVariantNumber"* %784, i32 0, i32 1
  %788 = load double, double* %787, align 8
  %789 = getelementptr inbounds %"cls.acjs::JsVariantNumber", %"cls.acjs::JsVariantNumber"* %784, i32 0, i32 2
  %790 = load i8, i8* %789, align 8
  %791 = getelementptr inbounds %"cls.acjs::JsVariant", %"cls.acjs::JsVariant"* %vptr43, i32 0, i32 2
  %792 = bitcast %union.anon.6* %791 to %"cls.acjs::JsVariantNumber"*
  %793 = getelementptr inbounds %"cls.acjs::JsVariantNumber", %"cls.acjs::JsVariantNumber"* %792, i32 0, i32 0
  store i64 %786, i64* %793, align 8
  %794 = getelementptr inbounds %"cls.acjs::JsVariantNumber", %"cls.acjs::JsVariantNumber"* %792, i32 0, i32 1
  store double %788, double* %794, align 8
  %795 = getelementptr inbounds %"cls.acjs::JsVariantNumber", %"cls.acjs::JsVariantNumber"* %792, i32 0, i32 2
  store i8 %790, i8* %795, align 8
  br label %copy.bb44e

copy.bb52:                                        ; preds = %copy.bb44e
  switch i32 %769, label %fallback.bb53 [
    i32 -2, label %caseerr.bb54
    i32 0, label %casenul_unf.bb55
    i32 1, label %casenul_unf.bb55
    i32 6, label %casebln.bb56
    i32 2, label %casenum.bb57
  ]

copy.bb52e:                                       ; preds = %fallback.bb53, %casenum.bb57, %casebln.bb56, %casenul_unf.bb55, %caseerr.bb54
  %796 = call %"cls.acjs::JsVariant"* @_ZN14altered_carbon2js9JsVariantaSEPKw(%"cls.acjs::JsVariant"* %vptr58, i32* getelementptr inbounds ([10 x i32], [10 x i32]* @.wstr.8, i32 0, i32 0))
  %797 = getelementptr inbounds %"cls.acjs::JsVariant", %"cls.acjs::JsVariant"* %vptr59, i32 0, i32 1
  %798 = load i32, i32* %797, align 8
  %799 = icmp sle i32 %798, 6
  %800 = getelementptr inbounds %"cls.acjs::JsVariant", %"cls.acjs::JsVariant"* %vptr58, i32 0, i32 1
  %801 = load i32, i32* %800, align 8
  %802 = icmp sle i32 %801, 6
  %803 = and i1 %799, %802
  br i1 %803, label %copy.bb60, label %fallback.bb61

fallback.bb53:                                    ; preds = %copy.bb52, %copy.bb44e
  %804 = call %"cls.acjs::JsVariant"* @_ZN14altered_carbon2js9JsVariantaSERKS1_(%"cls.acjs::JsVariant"* %vptr51, %"cls.acjs::JsVariant"* %vptr50)
  br label %copy.bb52e

caseerr.bb54:                                     ; preds = %copy.bb52
  store i32 %769, i32* %765, align 8
  %805 = getelementptr inbounds %"cls.acjs::JsVariant", %"cls.acjs::JsVariant"* %vptr50, i32 0, i32 2
  %806 = bitcast %union.anon.6* %805 to i8**
  %807 = load i8*, i8** %806, align 8
  %808 = getelementptr inbounds %"cls.acjs::JsVariant", %"cls.acjs::JsVariant"* %vptr51, i32 0, i32 2
  %809 = bitcast %union.anon.6* %808 to i8**
  store i8* %807, i8** %809, align 8
  br label %copy.bb52e

casenul_unf.bb55:                                 ; preds = %copy.bb52, %copy.bb52
  store i32 %769, i32* %765, align 8
  br label %copy.bb52e

casebln.bb56:                                     ; preds = %copy.bb52
  store i32 %769, i32* %765, align 8
  %810 = getelementptr inbounds %"cls.acjs::JsVariant", %"cls.acjs::JsVariant"* %vptr50, i32 0, i32 2
  %811 = bitcast %union.anon.6* %810 to i8*
  %812 = load i8, i8* %811, align 8
  %813 = getelementptr inbounds %"cls.acjs::JsVariant", %"cls.acjs::JsVariant"* %vptr51, i32 0, i32 2
  %814 = bitcast %union.anon.6* %813 to i8*
  store i8 %812, i8* %814, align 1
  br label %copy.bb52e

casenum.bb57:                                     ; preds = %copy.bb52
  store i32 %769, i32* %765, align 8
  %815 = getelementptr inbounds %"cls.acjs::JsVariant", %"cls.acjs::JsVariant"* %vptr50, i32 0, i32 2
  %816 = bitcast %union.anon.6* %815 to %"cls.acjs::JsVariantNumber"*
  %817 = getelementptr inbounds %"cls.acjs::JsVariantNumber", %"cls.acjs::JsVariantNumber"* %816, i32 0, i32 0
  %818 = load i64, i64* %817, align 8
  %819 = getelementptr inbounds %"cls.acjs::JsVariantNumber", %"cls.acjs::JsVariantNumber"* %816, i32 0, i32 1
  %820 = load double, double* %819, align 8
  %821 = getelementptr inbounds %"cls.acjs::JsVariantNumber", %"cls.acjs::JsVariantNumber"* %816, i32 0, i32 2
  %822 = load i8, i8* %821, align 8
  %823 = getelementptr inbounds %"cls.acjs::JsVariant", %"cls.acjs::JsVariant"* %vptr51, i32 0, i32 2
  %824 = bitcast %union.anon.6* %823 to %"cls.acjs::JsVariantNumber"*
  %825 = getelementptr inbounds %"cls.acjs::JsVariantNumber", %"cls.acjs::JsVariantNumber"* %824, i32 0, i32 0
  store i64 %818, i64* %825, align 8
  %826 = getelementptr inbounds %"cls.acjs::JsVariantNumber", %"cls.acjs::JsVariantNumber"* %824, i32 0, i32 1
  store double %820, double* %826, align 8
  %827 = getelementptr inbounds %"cls.acjs::JsVariantNumber", %"cls.acjs::JsVariantNumber"* %824, i32 0, i32 2
  store i8 %822, i8* %827, align 8
  br label %copy.bb52e

copy.bb60:                                        ; preds = %copy.bb52e
  switch i32 %801, label %fallback.bb61 [
    i32 -2, label %caseerr.bb62
    i32 0, label %casenul_unf.bb63
    i32 1, label %casenul_unf.bb63
    i32 6, label %casebln.bb64
    i32 2, label %casenum.bb65
  ]

copy.bb60e:                                       ; preds = %fallback.bb61, %casenum.bb65, %casebln.bb64, %casenul_unf.bb63, %caseerr.bb62
  %828 = call %"cls.acjs::JsVariant"* @_ZN14altered_carbon2js9JsVariantaSEPKw(%"cls.acjs::JsVariant"* %vptr66, i32* getelementptr inbounds ([3 x i32], [3 x i32]* @.wstr.9, i32 0, i32 0))
  %829 = getelementptr inbounds %"cls.acjs::JsVariant", %"cls.acjs::JsVariant"* %vptr67, i32 0, i32 1
  %830 = load i32, i32* %829, align 8
  %831 = icmp sle i32 %830, 6
  %832 = getelementptr inbounds %"cls.acjs::JsVariant", %"cls.acjs::JsVariant"* %vptr66, i32 0, i32 1
  %833 = load i32, i32* %832, align 8
  %834 = icmp sle i32 %833, 6
  %835 = and i1 %831, %834
  br i1 %835, label %copy.bb68, label %fallback.bb69

fallback.bb61:                                    ; preds = %copy.bb60, %copy.bb52e
  %836 = call %"cls.acjs::JsVariant"* @_ZN14altered_carbon2js9JsVariantaSERKS1_(%"cls.acjs::JsVariant"* %vptr59, %"cls.acjs::JsVariant"* %vptr58)
  br label %copy.bb60e

caseerr.bb62:                                     ; preds = %copy.bb60
  store i32 %801, i32* %797, align 8
  %837 = getelementptr inbounds %"cls.acjs::JsVariant", %"cls.acjs::JsVariant"* %vptr58, i32 0, i32 2
  %838 = bitcast %union.anon.6* %837 to i8**
  %839 = load i8*, i8** %838, align 8
  %840 = getelementptr inbounds %"cls.acjs::JsVariant", %"cls.acjs::JsVariant"* %vptr59, i32 0, i32 2
  %841 = bitcast %union.anon.6* %840 to i8**
  store i8* %839, i8** %841, align 8
  br label %copy.bb60e

casenul_unf.bb63:                                 ; preds = %copy.bb60, %copy.bb60
  store i32 %801, i32* %797, align 8
  br label %copy.bb60e

casebln.bb64:                                     ; preds = %copy.bb60
  store i32 %801, i32* %797, align 8
  %842 = getelementptr inbounds %"cls.acjs::JsVariant", %"cls.acjs::JsVariant"* %vptr58, i32 0, i32 2
  %843 = bitcast %union.anon.6* %842 to i8*
  %844 = load i8, i8* %843, align 8
  %845 = getelementptr inbounds %"cls.acjs::JsVariant", %"cls.acjs::JsVariant"* %vptr59, i32 0, i32 2
  %846 = bitcast %union.anon.6* %845 to i8*
  store i8 %844, i8* %846, align 1
  br label %copy.bb60e

casenum.bb65:                                     ; preds = %copy.bb60
  store i32 %801, i32* %797, align 8
  %847 = getelementptr inbounds %"cls.acjs::JsVariant", %"cls.acjs::JsVariant"* %vptr58, i32 0, i32 2
  %848 = bitcast %union.anon.6* %847 to %"cls.acjs::JsVariantNumber"*
  %849 = getelementptr inbounds %"cls.acjs::JsVariantNumber", %"cls.acjs::JsVariantNumber"* %848, i32 0, i32 0
  %850 = load i64, i64* %849, align 8
  %851 = getelementptr inbounds %"cls.acjs::JsVariantNumber", %"cls.acjs::JsVariantNumber"* %848, i32 0, i32 1
  %852 = load double, double* %851, align 8
  %853 = getelementptr inbounds %"cls.acjs::JsVariantNumber", %"cls.acjs::JsVariantNumber"* %848, i32 0, i32 2
  %854 = load i8, i8* %853, align 8
  %855 = getelementptr inbounds %"cls.acjs::JsVariant", %"cls.acjs::JsVariant"* %vptr59, i32 0, i32 2
  %856 = bitcast %union.anon.6* %855 to %"cls.acjs::JsVariantNumber"*
  %857 = getelementptr inbounds %"cls.acjs::JsVariantNumber", %"cls.acjs::JsVariantNumber"* %856, i32 0, i32 0
  store i64 %850, i64* %857, align 8
  %858 = getelementptr inbounds %"cls.acjs::JsVariantNumber", %"cls.acjs::JsVariantNumber"* %856, i32 0, i32 1
  store double %852, double* %858, align 8
  %859 = getelementptr inbounds %"cls.acjs::JsVariantNumber", %"cls.acjs::JsVariantNumber"* %856, i32 0, i32 2
  store i8 %854, i8* %859, align 8
  br label %copy.bb60e

copy.bb68:                                        ; preds = %copy.bb60e
  switch i32 %833, label %fallback.bb69 [
    i32 -2, label %caseerr.bb70
    i32 0, label %casenul_unf.bb71
    i32 1, label %casenul_unf.bb71
    i32 6, label %casebln.bb72
    i32 2, label %casenum.bb73
  ]

copy.bb68e:                                       ; preds = %fallback.bb69, %casenum.bb73, %casebln.bb72, %casenul_unf.bb71, %caseerr.bb70
  %860 = call %"cls.acjs::JsVariant"* @_ZN14altered_carbon2js9JsVariantaSEPKw(%"cls.acjs::JsVariant"* %vptr74, i32* getelementptr inbounds ([7 x i32], [7 x i32]* @.wstr.10, i32 0, i32 0))
  %861 = getelementptr inbounds %"cls.acjs::JsVariant", %"cls.acjs::JsVariant"* %vptr75, i32 0, i32 1
  %862 = load i32, i32* %861, align 8
  %863 = icmp sle i32 %862, 6
  %864 = getelementptr inbounds %"cls.acjs::JsVariant", %"cls.acjs::JsVariant"* %vptr74, i32 0, i32 1
  %865 = load i32, i32* %864, align 8
  %866 = icmp sle i32 %865, 6
  %867 = and i1 %863, %866
  br i1 %867, label %copy.bb76, label %fallback.bb77

fallback.bb69:                                    ; preds = %copy.bb68, %copy.bb60e
  %868 = call %"cls.acjs::JsVariant"* @_ZN14altered_carbon2js9JsVariantaSERKS1_(%"cls.acjs::JsVariant"* %vptr67, %"cls.acjs::JsVariant"* %vptr66)
  br label %copy.bb68e

caseerr.bb70:                                     ; preds = %copy.bb68
  store i32 %833, i32* %829, align 8
  %869 = getelementptr inbounds %"cls.acjs::JsVariant", %"cls.acjs::JsVariant"* %vptr66, i32 0, i32 2
  %870 = bitcast %union.anon.6* %869 to i8**
  %871 = load i8*, i8** %870, align 8
  %872 = getelementptr inbounds %"cls.acjs::JsVariant", %"cls.acjs::JsVariant"* %vptr67, i32 0, i32 2
  %873 = bitcast %union.anon.6* %872 to i8**
  store i8* %871, i8** %873, align 8
  br label %copy.bb68e

casenul_unf.bb71:                                 ; preds = %copy.bb68, %copy.bb68
  store i32 %833, i32* %829, align 8
  br label %copy.bb68e

casebln.bb72:                                     ; preds = %copy.bb68
  store i32 %833, i32* %829, align 8
  %874 = getelementptr inbounds %"cls.acjs::JsVariant", %"cls.acjs::JsVariant"* %vptr66, i32 0, i32 2
  %875 = bitcast %union.anon.6* %874 to i8*
  %876 = load i8, i8* %875, align 8
  %877 = getelementptr inbounds %"cls.acjs::JsVariant", %"cls.acjs::JsVariant"* %vptr67, i32 0, i32 2
  %878 = bitcast %union.anon.6* %877 to i8*
  store i8 %876, i8* %878, align 1
  br label %copy.bb68e

casenum.bb73:                                     ; preds = %copy.bb68
  store i32 %833, i32* %829, align 8
  %879 = getelementptr inbounds %"cls.acjs::JsVariant", %"cls.acjs::JsVariant"* %vptr66, i32 0, i32 2
  %880 = bitcast %union.anon.6* %879 to %"cls.acjs::JsVariantNumber"*
  %881 = getelementptr inbounds %"cls.acjs::JsVariantNumber", %"cls.acjs::JsVariantNumber"* %880, i32 0, i32 0
  %882 = load i64, i64* %881, align 8
  %883 = getelementptr inbounds %"cls.acjs::JsVariantNumber", %"cls.acjs::JsVariantNumber"* %880, i32 0, i32 1
  %884 = load double, double* %883, align 8
  %885 = getelementptr inbounds %"cls.acjs::JsVariantNumber", %"cls.acjs::JsVariantNumber"* %880, i32 0, i32 2
  %886 = load i8, i8* %885, align 8
  %887 = getelementptr inbounds %"cls.acjs::JsVariant", %"cls.acjs::JsVariant"* %vptr67, i32 0, i32 2
  %888 = bitcast %union.anon.6* %887 to %"cls.acjs::JsVariantNumber"*
  %889 = getelementptr inbounds %"cls.acjs::JsVariantNumber", %"cls.acjs::JsVariantNumber"* %888, i32 0, i32 0
  store i64 %882, i64* %889, align 8
  %890 = getelementptr inbounds %"cls.acjs::JsVariantNumber", %"cls.acjs::JsVariantNumber"* %888, i32 0, i32 1
  store double %884, double* %890, align 8
  %891 = getelementptr inbounds %"cls.acjs::JsVariantNumber", %"cls.acjs::JsVariantNumber"* %888, i32 0, i32 2
  store i8 %886, i8* %891, align 8
  br label %copy.bb68e

copy.bb76:                                        ; preds = %copy.bb68e
  switch i32 %865, label %fallback.bb77 [
    i32 -2, label %caseerr.bb78
    i32 0, label %casenul_unf.bb79
    i32 1, label %casenul_unf.bb79
    i32 6, label %casebln.bb80
    i32 2, label %casenum.bb81
  ]

copy.bb76e:                                       ; preds = %fallback.bb77, %casenum.bb81, %casebln.bb80, %casenul_unf.bb79, %caseerr.bb78
  %892 = call %"cls.acjs::JsVariant"* @_ZN14altered_carbon2js9JsVariantaSEPKw(%"cls.acjs::JsVariant"* %vptr82, i32* getelementptr inbounds ([12 x i32], [12 x i32]* @.wstr.11, i32 0, i32 0))
  %893 = getelementptr inbounds %"cls.acjs::JsVariant", %"cls.acjs::JsVariant"* %vptr83, i32 0, i32 1
  %894 = load i32, i32* %893, align 8
  %895 = icmp sle i32 %894, 6
  %896 = getelementptr inbounds %"cls.acjs::JsVariant", %"cls.acjs::JsVariant"* %vptr82, i32 0, i32 1
  %897 = load i32, i32* %896, align 8
  %898 = icmp sle i32 %897, 6
  %899 = and i1 %895, %898
  br i1 %899, label %copy.bb84, label %fallback.bb85

fallback.bb77:                                    ; preds = %copy.bb76, %copy.bb68e
  %900 = call %"cls.acjs::JsVariant"* @_ZN14altered_carbon2js9JsVariantaSERKS1_(%"cls.acjs::JsVariant"* %vptr75, %"cls.acjs::JsVariant"* %vptr74)
  br label %copy.bb76e

caseerr.bb78:                                     ; preds = %copy.bb76
  store i32 %865, i32* %861, align 8
  %901 = getelementptr inbounds %"cls.acjs::JsVariant", %"cls.acjs::JsVariant"* %vptr74, i32 0, i32 2
  %902 = bitcast %union.anon.6* %901 to i8**
  %903 = load i8*, i8** %902, align 8
  %904 = getelementptr inbounds %"cls.acjs::JsVariant", %"cls.acjs::JsVariant"* %vptr75, i32 0, i32 2
  %905 = bitcast %union.anon.6* %904 to i8**
  store i8* %903, i8** %905, align 8
  br label %copy.bb76e

casenul_unf.bb79:                                 ; preds = %copy.bb76, %copy.bb76
  store i32 %865, i32* %861, align 8
  br label %copy.bb76e

casebln.bb80:                                     ; preds = %copy.bb76
  store i32 %865, i32* %861, align 8
  %906 = getelementptr inbounds %"cls.acjs::JsVariant", %"cls.acjs::JsVariant"* %vptr74, i32 0, i32 2
  %907 = bitcast %union.anon.6* %906 to i8*
  %908 = load i8, i8* %907, align 8
  %909 = getelementptr inbounds %"cls.acjs::JsVariant", %"cls.acjs::JsVariant"* %vptr75, i32 0, i32 2
  %910 = bitcast %union.anon.6* %909 to i8*
  store i8 %908, i8* %910, align 1
  br label %copy.bb76e

casenum.bb81:                                     ; preds = %copy.bb76
  store i32 %865, i32* %861, align 8
  %911 = getelementptr inbounds %"cls.acjs::JsVariant", %"cls.acjs::JsVariant"* %vptr74, i32 0, i32 2
  %912 = bitcast %union.anon.6* %911 to %"cls.acjs::JsVariantNumber"*
  %913 = getelementptr inbounds %"cls.acjs::JsVariantNumber", %"cls.acjs::JsVariantNumber"* %912, i32 0, i32 0
  %914 = load i64, i64* %913, align 8
  %915 = getelementptr inbounds %"cls.acjs::JsVariantNumber", %"cls.acjs::JsVariantNumber"* %912, i32 0, i32 1
  %916 = load double, double* %915, align 8
  %917 = getelementptr inbounds %"cls.acjs::JsVariantNumber", %"cls.acjs::JsVariantNumber"* %912, i32 0, i32 2
  %918 = load i8, i8* %917, align 8
  %919 = getelementptr inbounds %"cls.acjs::JsVariant", %"cls.acjs::JsVariant"* %vptr75, i32 0, i32 2
  %920 = bitcast %union.anon.6* %919 to %"cls.acjs::JsVariantNumber"*
  %921 = getelementptr inbounds %"cls.acjs::JsVariantNumber", %"cls.acjs::JsVariantNumber"* %920, i32 0, i32 0
  store i64 %914, i64* %921, align 8
  %922 = getelementptr inbounds %"cls.acjs::JsVariantNumber", %"cls.acjs::JsVariantNumber"* %920, i32 0, i32 1
  store double %916, double* %922, align 8
  %923 = getelementptr inbounds %"cls.acjs::JsVariantNumber", %"cls.acjs::JsVariantNumber"* %920, i32 0, i32 2
  store i8 %918, i8* %923, align 8
  br label %copy.bb76e

copy.bb84:                                        ; preds = %copy.bb76e
  switch i32 %897, label %fallback.bb85 [
    i32 -2, label %caseerr.bb86
    i32 0, label %casenul_unf.bb87
    i32 1, label %casenul_unf.bb87
    i32 6, label %casebln.bb88
    i32 2, label %casenum.bb89
  ]

copy.bb84e:                                       ; preds = %fallback.bb85, %casenum.bb89, %casebln.bb88, %casenul_unf.bb87, %caseerr.bb86
  %924 = call %"cls.acjs::JsVariant"* @_ZN14altered_carbon2js9JsVariantaSEPKw(%"cls.acjs::JsVariant"* %vptr90, i32* getelementptr inbounds ([12 x i32], [12 x i32]* @.wstr.12, i32 0, i32 0))
  %925 = getelementptr inbounds %"cls.acjs::JsVariant", %"cls.acjs::JsVariant"* %vptr91, i32 0, i32 1
  %926 = load i32, i32* %925, align 8
  %927 = icmp sle i32 %926, 6
  %928 = getelementptr inbounds %"cls.acjs::JsVariant", %"cls.acjs::JsVariant"* %vptr90, i32 0, i32 1
  %929 = load i32, i32* %928, align 8
  %930 = icmp sle i32 %929, 6
  %931 = and i1 %927, %930
  br i1 %931, label %copy.bb92, label %fallback.bb93

fallback.bb85:                                    ; preds = %copy.bb84, %copy.bb76e
  %932 = call %"cls.acjs::JsVariant"* @_ZN14altered_carbon2js9JsVariantaSERKS1_(%"cls.acjs::JsVariant"* %vptr83, %"cls.acjs::JsVariant"* %vptr82)
  br label %copy.bb84e

caseerr.bb86:                                     ; preds = %copy.bb84
  store i32 %897, i32* %893, align 8
  %933 = getelementptr inbounds %"cls.acjs::JsVariant", %"cls.acjs::JsVariant"* %vptr82, i32 0, i32 2
  %934 = bitcast %union.anon.6* %933 to i8**
  %935 = load i8*, i8** %934, align 8
  %936 = getelementptr inbounds %"cls.acjs::JsVariant", %"cls.acjs::JsVariant"* %vptr83, i32 0, i32 2
  %937 = bitcast %union.anon.6* %936 to i8**
  store i8* %935, i8** %937, align 8
  br label %copy.bb84e

casenul_unf.bb87:                                 ; preds = %copy.bb84, %copy.bb84
  store i32 %897, i32* %893, align 8
  br label %copy.bb84e

casebln.bb88:                                     ; preds = %copy.bb84
  store i32 %897, i32* %893, align 8
  %938 = getelementptr inbounds %"cls.acjs::JsVariant", %"cls.acjs::JsVariant"* %vptr82, i32 0, i32 2
  %939 = bitcast %union.anon.6* %938 to i8*
  %940 = load i8, i8* %939, align 8
  %941 = getelementptr inbounds %"cls.acjs::JsVariant", %"cls.acjs::JsVariant"* %vptr83, i32 0, i32 2
  %942 = bitcast %union.anon.6* %941 to i8*
  store i8 %940, i8* %942, align 1
  br label %copy.bb84e

casenum.bb89:                                     ; preds = %copy.bb84
  store i32 %897, i32* %893, align 8
  %943 = getelementptr inbounds %"cls.acjs::JsVariant", %"cls.acjs::JsVariant"* %vptr82, i32 0, i32 2
  %944 = bitcast %union.anon.6* %943 to %"cls.acjs::JsVariantNumber"*
  %945 = getelementptr inbounds %"cls.acjs::JsVariantNumber", %"cls.acjs::JsVariantNumber"* %944, i32 0, i32 0
  %946 = load i64, i64* %945, align 8
  %947 = getelementptr inbounds %"cls.acjs::JsVariantNumber", %"cls.acjs::JsVariantNumber"* %944, i32 0, i32 1
  %948 = load double, double* %947, align 8
  %949 = getelementptr inbounds %"cls.acjs::JsVariantNumber", %"cls.acjs::JsVariantNumber"* %944, i32 0, i32 2
  %950 = load i8, i8* %949, align 8
  %951 = getelementptr inbounds %"cls.acjs::JsVariant", %"cls.acjs::JsVariant"* %vptr83, i32 0, i32 2
  %952 = bitcast %union.anon.6* %951 to %"cls.acjs::JsVariantNumber"*
  %953 = getelementptr inbounds %"cls.acjs::JsVariantNumber", %"cls.acjs::JsVariantNumber"* %952, i32 0, i32 0
  store i64 %946, i64* %953, align 8
  %954 = getelementptr inbounds %"cls.acjs::JsVariantNumber", %"cls.acjs::JsVariantNumber"* %952, i32 0, i32 1
  store double %948, double* %954, align 8
  %955 = getelementptr inbounds %"cls.acjs::JsVariantNumber", %"cls.acjs::JsVariantNumber"* %952, i32 0, i32 2
  store i8 %950, i8* %955, align 8
  br label %copy.bb84e

copy.bb92:                                        ; preds = %copy.bb84e
  switch i32 %929, label %fallback.bb93 [
    i32 -2, label %caseerr.bb94
    i32 0, label %casenul_unf.bb95
    i32 1, label %casenul_unf.bb95
    i32 6, label %casebln.bb96
    i32 2, label %casenum.bb97
  ]

copy.bb92e:                                       ; preds = %fallback.bb93, %casenum.bb97, %casebln.bb96, %casenul_unf.bb95, %caseerr.bb94
  %956 = call %"cls.acjs::JsVariant"* @_ZN14altered_carbon2js9JsVariantaSEPKw(%"cls.acjs::JsVariant"* %vptr98, i32* getelementptr inbounds ([12 x i32], [12 x i32]* @.wstr.13, i32 0, i32 0))
  %957 = getelementptr inbounds %"cls.acjs::JsVariant", %"cls.acjs::JsVariant"* %vptr99, i32 0, i32 1
  %958 = load i32, i32* %957, align 8
  %959 = icmp sle i32 %958, 6
  %960 = getelementptr inbounds %"cls.acjs::JsVariant", %"cls.acjs::JsVariant"* %vptr98, i32 0, i32 1
  %961 = load i32, i32* %960, align 8
  %962 = icmp sle i32 %961, 6
  %963 = and i1 %959, %962
  br i1 %963, label %copy.bb100, label %fallback.bb101

fallback.bb93:                                    ; preds = %copy.bb92, %copy.bb84e
  %964 = call %"cls.acjs::JsVariant"* @_ZN14altered_carbon2js9JsVariantaSERKS1_(%"cls.acjs::JsVariant"* %vptr91, %"cls.acjs::JsVariant"* %vptr90)
  br label %copy.bb92e

caseerr.bb94:                                     ; preds = %copy.bb92
  store i32 %929, i32* %925, align 8
  %965 = getelementptr inbounds %"cls.acjs::JsVariant", %"cls.acjs::JsVariant"* %vptr90, i32 0, i32 2
  %966 = bitcast %union.anon.6* %965 to i8**
  %967 = load i8*, i8** %966, align 8
  %968 = getelementptr inbounds %"cls.acjs::JsVariant", %"cls.acjs::JsVariant"* %vptr91, i32 0, i32 2
  %969 = bitcast %union.anon.6* %968 to i8**
  store i8* %967, i8** %969, align 8
  br label %copy.bb92e

casenul_unf.bb95:                                 ; preds = %copy.bb92, %copy.bb92
  store i32 %929, i32* %925, align 8
  br label %copy.bb92e

casebln.bb96:                                     ; preds = %copy.bb92
  store i32 %929, i32* %925, align 8
  %970 = getelementptr inbounds %"cls.acjs::JsVariant", %"cls.acjs::JsVariant"* %vptr90, i32 0, i32 2
  %971 = bitcast %union.anon.6* %970 to i8*
  %972 = load i8, i8* %971, align 8
  %973 = getelementptr inbounds %"cls.acjs::JsVariant", %"cls.acjs::JsVariant"* %vptr91, i32 0, i32 2
  %974 = bitcast %union.anon.6* %973 to i8*
  store i8 %972, i8* %974, align 1
  br label %copy.bb92e

casenum.bb97:                                     ; preds = %copy.bb92
  store i32 %929, i32* %925, align 8
  %975 = getelementptr inbounds %"cls.acjs::JsVariant", %"cls.acjs::JsVariant"* %vptr90, i32 0, i32 2
  %976 = bitcast %union.anon.6* %975 to %"cls.acjs::JsVariantNumber"*
  %977 = getelementptr inbounds %"cls.acjs::JsVariantNumber", %"cls.acjs::JsVariantNumber"* %976, i32 0, i32 0
  %978 = load i64, i64* %977, align 8
  %979 = getelementptr inbounds %"cls.acjs::JsVariantNumber", %"cls.acjs::JsVariantNumber"* %976, i32 0, i32 1
  %980 = load double, double* %979, align 8
  %981 = getelementptr inbounds %"cls.acjs::JsVariantNumber", %"cls.acjs::JsVariantNumber"* %976, i32 0, i32 2
  %982 = load i8, i8* %981, align 8
  %983 = getelementptr inbounds %"cls.acjs::JsVariant", %"cls.acjs::JsVariant"* %vptr91, i32 0, i32 2
  %984 = bitcast %union.anon.6* %983 to %"cls.acjs::JsVariantNumber"*
  %985 = getelementptr inbounds %"cls.acjs::JsVariantNumber", %"cls.acjs::JsVariantNumber"* %984, i32 0, i32 0
  store i64 %978, i64* %985, align 8
  %986 = getelementptr inbounds %"cls.acjs::JsVariantNumber", %"cls.acjs::JsVariantNumber"* %984, i32 0, i32 1
  store double %980, double* %986, align 8
  %987 = getelementptr inbounds %"cls.acjs::JsVariantNumber", %"cls.acjs::JsVariantNumber"* %984, i32 0, i32 2
  store i8 %982, i8* %987, align 8
  br label %copy.bb92e

copy.bb100:                                       ; preds = %copy.bb92e
  switch i32 %961, label %fallback.bb101 [
    i32 -2, label %caseerr.bb102
    i32 0, label %casenul_unf.bb103
    i32 1, label %casenul_unf.bb103
    i32 6, label %casebln.bb104
    i32 2, label %casenum.bb105
  ]

copy.bb100e:                                      ; preds = %fallback.bb101, %casenum.bb105, %casebln.bb104, %casenul_unf.bb103, %caseerr.bb102
  %988 = call %"cls.acjs::JsVariant"* @_ZN14altered_carbon2js9JsVariantaSEPKw(%"cls.acjs::JsVariant"* %vptr106, i32* getelementptr inbounds ([337 x i32], [337 x i32]* @.wstr.14, i32 0, i32 0))
  %989 = getelementptr inbounds %"cls.acjs::JsVariant", %"cls.acjs::JsVariant"* %vptr107, i32 0, i32 1
  %990 = load i32, i32* %989, align 8
  %991 = icmp sle i32 %990, 6
  %992 = getelementptr inbounds %"cls.acjs::JsVariant", %"cls.acjs::JsVariant"* %vptr106, i32 0, i32 1
  %993 = load i32, i32* %992, align 8
  %994 = icmp sle i32 %993, 6
  %995 = and i1 %991, %994
  br i1 %995, label %copy.bb108, label %fallback.bb109

fallback.bb101:                                   ; preds = %copy.bb100, %copy.bb92e
  %996 = call %"cls.acjs::JsVariant"* @_ZN14altered_carbon2js9JsVariantaSERKS1_(%"cls.acjs::JsVariant"* %vptr99, %"cls.acjs::JsVariant"* %vptr98)
  br label %copy.bb100e

caseerr.bb102:                                    ; preds = %copy.bb100
  store i32 %961, i32* %957, align 8
  %997 = getelementptr inbounds %"cls.acjs::JsVariant", %"cls.acjs::JsVariant"* %vptr98, i32 0, i32 2
  %998 = bitcast %union.anon.6* %997 to i8**
  %999 = load i8*, i8** %998, align 8
  %1000 = getelementptr inbounds %"cls.acjs::JsVariant", %"cls.acjs::JsVariant"* %vptr99, i32 0, i32 2
  %1001 = bitcast %union.anon.6* %1000 to i8**
  store i8* %999, i8** %1001, align 8
  br label %copy.bb100e

casenul_unf.bb103:                                ; preds = %copy.bb100, %copy.bb100
  store i32 %961, i32* %957, align 8
  br label %copy.bb100e

casebln.bb104:                                    ; preds = %copy.bb100
  store i32 %961, i32* %957, align 8
  %1002 = getelementptr inbounds %"cls.acjs::JsVariant", %"cls.acjs::JsVariant"* %vptr98, i32 0, i32 2
  %1003 = bitcast %union.anon.6* %1002 to i8*
  %1004 = load i8, i8* %1003, align 8
  %1005 = getelementptr inbounds %"cls.acjs::JsVariant", %"cls.acjs::JsVariant"* %vptr99, i32 0, i32 2
  %1006 = bitcast %union.anon.6* %1005 to i8*
  store i8 %1004, i8* %1006, align 1
  br label %copy.bb100e

casenum.bb105:                                    ; preds = %copy.bb100
  store i32 %961, i32* %957, align 8
  %1007 = getelementptr inbounds %"cls.acjs::JsVariant", %"cls.acjs::JsVariant"* %vptr98, i32 0, i32 2
  %1008 = bitcast %union.anon.6* %1007 to %"cls.acjs::JsVariantNumber"*
  %1009 = getelementptr inbounds %"cls.acjs::JsVariantNumber", %"cls.acjs::JsVariantNumber"* %1008, i32 0, i32 0
  %1010 = load i64, i64* %1009, align 8
  %1011 = getelementptr inbounds %"cls.acjs::JsVariantNumber", %"cls.acjs::JsVariantNumber"* %1008, i32 0, i32 1
  %1012 = load double, double* %1011, align 8
  %1013 = getelementptr inbounds %"cls.acjs::JsVariantNumber", %"cls.acjs::JsVariantNumber"* %1008, i32 0, i32 2
  %1014 = load i8, i8* %1013, align 8
  %1015 = getelementptr inbounds %"cls.acjs::JsVariant", %"cls.acjs::JsVariant"* %vptr99, i32 0, i32 2
  %1016 = bitcast %union.anon.6* %1015 to %"cls.acjs::JsVariantNumber"*
  %1017 = getelementptr inbounds %"cls.acjs::JsVariantNumber", %"cls.acjs::JsVariantNumber"* %1016, i32 0, i32 0
  store i64 %1010, i64* %1017, align 8
  %1018 = getelementptr inbounds %"cls.acjs::JsVariantNumber", %"cls.acjs::JsVariantNumber"* %1016, i32 0, i32 1
  store double %1012, double* %1018, align 8
  %1019 = getelementptr inbounds %"cls.acjs::JsVariantNumber", %"cls.acjs::JsVariantNumber"* %1016, i32 0, i32 2
  store i8 %1014, i8* %1019, align 8
  br label %copy.bb100e

copy.bb108:                                       ; preds = %copy.bb100e
  switch i32 %993, label %fallback.bb109 [
    i32 -2, label %caseerr.bb110
    i32 0, label %casenul_unf.bb111
    i32 1, label %casenul_unf.bb111
    i32 6, label %casebln.bb112
    i32 2, label %casenum.bb113
  ]

copy.bb108e:                                      ; preds = %fallback.bb109, %casenum.bb113, %casebln.bb112, %casenul_unf.bb111, %caseerr.bb110
  %1020 = call %"cls.acjs::JsVariant"* @_ZN14altered_carbon2js9JsVariantaSEPKw(%"cls.acjs::JsVariant"* %vptr114, i32* getelementptr inbounds ([15 x i32], [15 x i32]* @.wstr.15, i32 0, i32 0))
  %1021 = getelementptr inbounds %"cls.acjs::JsVariant", %"cls.acjs::JsVariant"* %vptr115, i32 0, i32 1
  %1022 = load i32, i32* %1021, align 8
  %1023 = icmp sle i32 %1022, 6
  %1024 = getelementptr inbounds %"cls.acjs::JsVariant", %"cls.acjs::JsVariant"* %vptr114, i32 0, i32 1
  %1025 = load i32, i32* %1024, align 8
  %1026 = icmp sle i32 %1025, 6
  %1027 = and i1 %1023, %1026
  br i1 %1027, label %copy.bb116, label %fallback.bb117

fallback.bb109:                                   ; preds = %copy.bb108, %copy.bb100e
  %1028 = call %"cls.acjs::JsVariant"* @_ZN14altered_carbon2js9JsVariantaSERKS1_(%"cls.acjs::JsVariant"* %vptr107, %"cls.acjs::JsVariant"* %vptr106)
  br label %copy.bb108e

caseerr.bb110:                                    ; preds = %copy.bb108
  store i32 %993, i32* %989, align 8
  %1029 = getelementptr inbounds %"cls.acjs::JsVariant", %"cls.acjs::JsVariant"* %vptr106, i32 0, i32 2
  %1030 = bitcast %union.anon.6* %1029 to i8**
  %1031 = load i8*, i8** %1030, align 8
  %1032 = getelementptr inbounds %"cls.acjs::JsVariant", %"cls.acjs::JsVariant"* %vptr107, i32 0, i32 2
  %1033 = bitcast %union.anon.6* %1032 to i8**
  store i8* %1031, i8** %1033, align 8
  br label %copy.bb108e

casenul_unf.bb111:                                ; preds = %copy.bb108, %copy.bb108
  store i32 %993, i32* %989, align 8
  br label %copy.bb108e

casebln.bb112:                                    ; preds = %copy.bb108
  store i32 %993, i32* %989, align 8
  %1034 = getelementptr inbounds %"cls.acjs::JsVariant", %"cls.acjs::JsVariant"* %vptr106, i32 0, i32 2
  %1035 = bitcast %union.anon.6* %1034 to i8*
  %1036 = load i8, i8* %1035, align 8
  %1037 = getelementptr inbounds %"cls.acjs::JsVariant", %"cls.acjs::JsVariant"* %vptr107, i32 0, i32 2
  %1038 = bitcast %union.anon.6* %1037 to i8*
  store i8 %1036, i8* %1038, align 1
  br label %copy.bb108e

casenum.bb113:                                    ; preds = %copy.bb108
  store i32 %993, i32* %989, align 8
  %1039 = getelementptr inbounds %"cls.acjs::JsVariant", %"cls.acjs::JsVariant"* %vptr106, i32 0, i32 2
  %1040 = bitcast %union.anon.6* %1039 to %"cls.acjs::JsVariantNumber"*
  %1041 = getelementptr inbounds %"cls.acjs::JsVariantNumber", %"cls.acjs::JsVariantNumber"* %1040, i32 0, i32 0
  %1042 = load i64, i64* %1041, align 8
  %1043 = getelementptr inbounds %"cls.acjs::JsVariantNumber", %"cls.acjs::JsVariantNumber"* %1040, i32 0, i32 1
  %1044 = load double, double* %1043, align 8
  %1045 = getelementptr inbounds %"cls.acjs::JsVariantNumber", %"cls.acjs::JsVariantNumber"* %1040, i32 0, i32 2
  %1046 = load i8, i8* %1045, align 8
  %1047 = getelementptr inbounds %"cls.acjs::JsVariant", %"cls.acjs::JsVariant"* %vptr107, i32 0, i32 2
  %1048 = bitcast %union.anon.6* %1047 to %"cls.acjs::JsVariantNumber"*
  %1049 = getelementptr inbounds %"cls.acjs::JsVariantNumber", %"cls.acjs::JsVariantNumber"* %1048, i32 0, i32 0
  store i64 %1042, i64* %1049, align 8
  %1050 = getelementptr inbounds %"cls.acjs::JsVariantNumber", %"cls.acjs::JsVariantNumber"* %1048, i32 0, i32 1
  store double %1044, double* %1050, align 8
  %1051 = getelementptr inbounds %"cls.acjs::JsVariantNumber", %"cls.acjs::JsVariantNumber"* %1048, i32 0, i32 2
  store i8 %1046, i8* %1051, align 8
  br label %copy.bb108e

copy.bb116:                                       ; preds = %copy.bb108e
  switch i32 %1025, label %fallback.bb117 [
    i32 -2, label %caseerr.bb118
    i32 0, label %casenul_unf.bb119
    i32 1, label %casenul_unf.bb119
    i32 6, label %casebln.bb120
    i32 2, label %casenum.bb121
  ]

copy.bb116e:                                      ; preds = %fallback.bb117, %casenum.bb121, %casebln.bb120, %casenul_unf.bb119, %caseerr.bb118
  %1052 = call %"cls.acjs::JsVariant"* @_ZN14altered_carbon2js9JsVariantaSEPKw(%"cls.acjs::JsVariant"* %vptr122, i32* getelementptr inbounds ([13 x i32], [13 x i32]* @.wstr.16, i32 0, i32 0))
  %1053 = getelementptr inbounds %"cls.acjs::JsVariant", %"cls.acjs::JsVariant"* %vptr123, i32 0, i32 1
  %1054 = load i32, i32* %1053, align 8
  %1055 = icmp sle i32 %1054, 6
  %1056 = getelementptr inbounds %"cls.acjs::JsVariant", %"cls.acjs::JsVariant"* %vptr122, i32 0, i32 1
  %1057 = load i32, i32* %1056, align 8
  %1058 = icmp sle i32 %1057, 6
  %1059 = and i1 %1055, %1058
  br i1 %1059, label %copy.bb124, label %fallback.bb125

fallback.bb117:                                   ; preds = %copy.bb116, %copy.bb108e
  %1060 = call %"cls.acjs::JsVariant"* @_ZN14altered_carbon2js9JsVariantaSERKS1_(%"cls.acjs::JsVariant"* %vptr115, %"cls.acjs::JsVariant"* %vptr114)
  br label %copy.bb116e

caseerr.bb118:                                    ; preds = %copy.bb116
  store i32 %1025, i32* %1021, align 8
  %1061 = getelementptr inbounds %"cls.acjs::JsVariant", %"cls.acjs::JsVariant"* %vptr114, i32 0, i32 2
  %1062 = bitcast %union.anon.6* %1061 to i8**
  %1063 = load i8*, i8** %1062, align 8
  %1064 = getelementptr inbounds %"cls.acjs::JsVariant", %"cls.acjs::JsVariant"* %vptr115, i32 0, i32 2
  %1065 = bitcast %union.anon.6* %1064 to i8**
  store i8* %1063, i8** %1065, align 8
  br label %copy.bb116e

casenul_unf.bb119:                                ; preds = %copy.bb116, %copy.bb116
  store i32 %1025, i32* %1021, align 8
  br label %copy.bb116e

casebln.bb120:                                    ; preds = %copy.bb116
  store i32 %1025, i32* %1021, align 8
  %1066 = getelementptr inbounds %"cls.acjs::JsVariant", %"cls.acjs::JsVariant"* %vptr114, i32 0, i32 2
  %1067 = bitcast %union.anon.6* %1066 to i8*
  %1068 = load i8, i8* %1067, align 8
  %1069 = getelementptr inbounds %"cls.acjs::JsVariant", %"cls.acjs::JsVariant"* %vptr115, i32 0, i32 2
  %1070 = bitcast %union.anon.6* %1069 to i8*
  store i8 %1068, i8* %1070, align 1
  br label %copy.bb116e

casenum.bb121:                                    ; preds = %copy.bb116
  store i32 %1025, i32* %1021, align 8
  %1071 = getelementptr inbounds %"cls.acjs::JsVariant", %"cls.acjs::JsVariant"* %vptr114, i32 0, i32 2
  %1072 = bitcast %union.anon.6* %1071 to %"cls.acjs::JsVariantNumber"*
  %1073 = getelementptr inbounds %"cls.acjs::JsVariantNumber", %"cls.acjs::JsVariantNumber"* %1072, i32 0, i32 0
  %1074 = load i64, i64* %1073, align 8
  %1075 = getelementptr inbounds %"cls.acjs::JsVariantNumber", %"cls.acjs::JsVariantNumber"* %1072, i32 0, i32 1
  %1076 = load double, double* %1075, align 8
  %1077 = getelementptr inbounds %"cls.acjs::JsVariantNumber", %"cls.acjs::JsVariantNumber"* %1072, i32 0, i32 2
  %1078 = load i8, i8* %1077, align 8
  %1079 = getelementptr inbounds %"cls.acjs::JsVariant", %"cls.acjs::JsVariant"* %vptr115, i32 0, i32 2
  %1080 = bitcast %union.anon.6* %1079 to %"cls.acjs::JsVariantNumber"*
  %1081 = getelementptr inbounds %"cls.acjs::JsVariantNumber", %"cls.acjs::JsVariantNumber"* %1080, i32 0, i32 0
  store i64 %1074, i64* %1081, align 8
  %1082 = getelementptr inbounds %"cls.acjs::JsVariantNumber", %"cls.acjs::JsVariantNumber"* %1080, i32 0, i32 1
  store double %1076, double* %1082, align 8
  %1083 = getelementptr inbounds %"cls.acjs::JsVariantNumber", %"cls.acjs::JsVariantNumber"* %1080, i32 0, i32 2
  store i8 %1078, i8* %1083, align 8
  br label %copy.bb116e

copy.bb124:                                       ; preds = %copy.bb116e
  switch i32 %1057, label %fallback.bb125 [
    i32 -2, label %caseerr.bb126
    i32 0, label %casenul_unf.bb127
    i32 1, label %casenul_unf.bb127
    i32 6, label %casebln.bb128
    i32 2, label %casenum.bb129
  ]

copy.bb124e:                                      ; preds = %fallback.bb125, %casenum.bb129, %casebln.bb128, %casenul_unf.bb127, %caseerr.bb126
  %1084 = call %"cls.acjs::JsVariant"* @_ZN14altered_carbon2js9JsVariantaSEPKw(%"cls.acjs::JsVariant"* %vptr130, i32* getelementptr inbounds ([15 x i32], [15 x i32]* @.wstr.17, i32 0, i32 0))
  %1085 = getelementptr inbounds %"cls.acjs::JsVariant", %"cls.acjs::JsVariant"* %vptr131, i32 0, i32 1
  %1086 = load i32, i32* %1085, align 8
  %1087 = icmp sle i32 %1086, 6
  %1088 = getelementptr inbounds %"cls.acjs::JsVariant", %"cls.acjs::JsVariant"* %vptr130, i32 0, i32 1
  %1089 = load i32, i32* %1088, align 8
  %1090 = icmp sle i32 %1089, 6
  %1091 = and i1 %1087, %1090
  br i1 %1091, label %copy.bb132, label %fallback.bb133

fallback.bb125:                                   ; preds = %copy.bb124, %copy.bb116e
  %1092 = call %"cls.acjs::JsVariant"* @_ZN14altered_carbon2js9JsVariantaSERKS1_(%"cls.acjs::JsVariant"* %vptr123, %"cls.acjs::JsVariant"* %vptr122)
  br label %copy.bb124e

caseerr.bb126:                                    ; preds = %copy.bb124
  store i32 %1057, i32* %1053, align 8
  %1093 = getelementptr inbounds %"cls.acjs::JsVariant", %"cls.acjs::JsVariant"* %vptr122, i32 0, i32 2
  %1094 = bitcast %union.anon.6* %1093 to i8**
  %1095 = load i8*, i8** %1094, align 8
  %1096 = getelementptr inbounds %"cls.acjs::JsVariant", %"cls.acjs::JsVariant"* %vptr123, i32 0, i32 2
  %1097 = bitcast %union.anon.6* %1096 to i8**
  store i8* %1095, i8** %1097, align 8
  br label %copy.bb124e

casenul_unf.bb127:                                ; preds = %copy.bb124, %copy.bb124
  store i32 %1057, i32* %1053, align 8
  br label %copy.bb124e

casebln.bb128:                                    ; preds = %copy.bb124
  store i32 %1057, i32* %1053, align 8
  %1098 = getelementptr inbounds %"cls.acjs::JsVariant", %"cls.acjs::JsVariant"* %vptr122, i32 0, i32 2
  %1099 = bitcast %union.anon.6* %1098 to i8*
  %1100 = load i8, i8* %1099, align 8
  %1101 = getelementptr inbounds %"cls.acjs::JsVariant", %"cls.acjs::JsVariant"* %vptr123, i32 0, i32 2
  %1102 = bitcast %union.anon.6* %1101 to i8*
  store i8 %1100, i8* %1102, align 1
  br label %copy.bb124e

casenum.bb129:                                    ; preds = %copy.bb124
  store i32 %1057, i32* %1053, align 8
  %1103 = getelementptr inbounds %"cls.acjs::JsVariant", %"cls.acjs::JsVariant"* %vptr122, i32 0, i32 2
  %1104 = bitcast %union.anon.6* %1103 to %"cls.acjs::JsVariantNumber"*
  %1105 = getelementptr inbounds %"cls.acjs::JsVariantNumber", %"cls.acjs::JsVariantNumber"* %1104, i32 0, i32 0
  %1106 = load i64, i64* %1105, align 8
  %1107 = getelementptr inbounds %"cls.acjs::JsVariantNumber", %"cls.acjs::JsVariantNumber"* %1104, i32 0, i32 1
  %1108 = load double, double* %1107, align 8
  %1109 = getelementptr inbounds %"cls.acjs::JsVariantNumber", %"cls.acjs::JsVariantNumber"* %1104, i32 0, i32 2
  %1110 = load i8, i8* %1109, align 8
  %1111 = getelementptr inbounds %"cls.acjs::JsVariant", %"cls.acjs::JsVariant"* %vptr123, i32 0, i32 2
  %1112 = bitcast %union.anon.6* %1111 to %"cls.acjs::JsVariantNumber"*
  %1113 = getelementptr inbounds %"cls.acjs::JsVariantNumber", %"cls.acjs::JsVariantNumber"* %1112, i32 0, i32 0
  store i64 %1106, i64* %1113, align 8
  %1114 = getelementptr inbounds %"cls.acjs::JsVariantNumber", %"cls.acjs::JsVariantNumber"* %1112, i32 0, i32 1
  store double %1108, double* %1114, align 8
  %1115 = getelementptr inbounds %"cls.acjs::JsVariantNumber", %"cls.acjs::JsVariantNumber"* %1112, i32 0, i32 2
  store i8 %1110, i8* %1115, align 8
  br label %copy.bb124e

copy.bb132:                                       ; preds = %copy.bb124e
  switch i32 %1089, label %fallback.bb133 [
    i32 -2, label %caseerr.bb134
    i32 0, label %casenul_unf.bb135
    i32 1, label %casenul_unf.bb135
    i32 6, label %casebln.bb136
    i32 2, label %casenum.bb137
  ]

copy.bb132e:                                      ; preds = %fallback.bb133, %casenum.bb137, %casebln.bb136, %casenul_unf.bb135, %caseerr.bb134
  %1116 = call %"cls.acjs::JsVariant"* @_ZN14altered_carbon2js9JsVariantaSEPKw(%"cls.acjs::JsVariant"* %vptr138, i32* getelementptr inbounds ([17 x i32], [17 x i32]* @.wstr.18, i32 0, i32 0))
  %1117 = getelementptr inbounds %"cls.acjs::JsVariant", %"cls.acjs::JsVariant"* %vptr139, i32 0, i32 1
  %1118 = load i32, i32* %1117, align 8
  %1119 = icmp sle i32 %1118, 6
  %1120 = getelementptr inbounds %"cls.acjs::JsVariant", %"cls.acjs::JsVariant"* %vptr138, i32 0, i32 1
  %1121 = load i32, i32* %1120, align 8
  %1122 = icmp sle i32 %1121, 6
  %1123 = and i1 %1119, %1122
  br i1 %1123, label %copy.bb140, label %fallback.bb141

fallback.bb133:                                   ; preds = %copy.bb132, %copy.bb124e
  %1124 = call %"cls.acjs::JsVariant"* @_ZN14altered_carbon2js9JsVariantaSERKS1_(%"cls.acjs::JsVariant"* %vptr131, %"cls.acjs::JsVariant"* %vptr130)
  br label %copy.bb132e

caseerr.bb134:                                    ; preds = %copy.bb132
  store i32 %1089, i32* %1085, align 8
  %1125 = getelementptr inbounds %"cls.acjs::JsVariant", %"cls.acjs::JsVariant"* %vptr130, i32 0, i32 2
  %1126 = bitcast %union.anon.6* %1125 to i8**
  %1127 = load i8*, i8** %1126, align 8
  %1128 = getelementptr inbounds %"cls.acjs::JsVariant", %"cls.acjs::JsVariant"* %vptr131, i32 0, i32 2
  %1129 = bitcast %union.anon.6* %1128 to i8**
  store i8* %1127, i8** %1129, align 8
  br label %copy.bb132e

casenul_unf.bb135:                                ; preds = %copy.bb132, %copy.bb132
  store i32 %1089, i32* %1085, align 8
  br label %copy.bb132e

casebln.bb136:                                    ; preds = %copy.bb132
  store i32 %1089, i32* %1085, align 8
  %1130 = getelementptr inbounds %"cls.acjs::JsVariant", %"cls.acjs::JsVariant"* %vptr130, i32 0, i32 2
  %1131 = bitcast %union.anon.6* %1130 to i8*
  %1132 = load i8, i8* %1131, align 8
  %1133 = getelementptr inbounds %"cls.acjs::JsVariant", %"cls.acjs::JsVariant"* %vptr131, i32 0, i32 2
  %1134 = bitcast %union.anon.6* %1133 to i8*
  store i8 %1132, i8* %1134, align 1
  br label %copy.bb132e

casenum.bb137:                                    ; preds = %copy.bb132
  store i32 %1089, i32* %1085, align 8
  %1135 = getelementptr inbounds %"cls.acjs::JsVariant", %"cls.acjs::JsVariant"* %vptr130, i32 0, i32 2
  %1136 = bitcast %union.anon.6* %1135 to %"cls.acjs::JsVariantNumber"*
  %1137 = getelementptr inbounds %"cls.acjs::JsVariantNumber", %"cls.acjs::JsVariantNumber"* %1136, i32 0, i32 0
  %1138 = load i64, i64* %1137, align 8
  %1139 = getelementptr inbounds %"cls.acjs::JsVariantNumber", %"cls.acjs::JsVariantNumber"* %1136, i32 0, i32 1
  %1140 = load double, double* %1139, align 8
  %1141 = getelementptr inbounds %"cls.acjs::JsVariantNumber", %"cls.acjs::JsVariantNumber"* %1136, i32 0, i32 2
  %1142 = load i8, i8* %1141, align 8
  %1143 = getelementptr inbounds %"cls.acjs::JsVariant", %"cls.acjs::JsVariant"* %vptr131, i32 0, i32 2
  %1144 = bitcast %union.anon.6* %1143 to %"cls.acjs::JsVariantNumber"*
  %1145 = getelementptr inbounds %"cls.acjs::JsVariantNumber", %"cls.acjs::JsVariantNumber"* %1144, i32 0, i32 0
  store i64 %1138, i64* %1145, align 8
  %1146 = getelementptr inbounds %"cls.acjs::JsVariantNumber", %"cls.acjs::JsVariantNumber"* %1144, i32 0, i32 1
  store double %1140, double* %1146, align 8
  %1147 = getelementptr inbounds %"cls.acjs::JsVariantNumber", %"cls.acjs::JsVariantNumber"* %1144, i32 0, i32 2
  store i8 %1142, i8* %1147, align 8
  br label %copy.bb132e

copy.bb140:                                       ; preds = %copy.bb132e
  switch i32 %1121, label %fallback.bb141 [
    i32 -2, label %caseerr.bb142
    i32 0, label %casenul_unf.bb143
    i32 1, label %casenul_unf.bb143
    i32 6, label %casebln.bb144
    i32 2, label %casenum.bb145
  ]

copy.bb140e:                                      ; preds = %fallback.bb141, %casenum.bb145, %casebln.bb144, %casenul_unf.bb143, %caseerr.bb142
  %1148 = call %"cls.acjs::JsVariant"* @_ZN14altered_carbon2js9JsVariantaSEPKw(%"cls.acjs::JsVariant"* %vptr146, i32* getelementptr inbounds ([19 x i32], [19 x i32]* @.wstr.19, i32 0, i32 0))
  %1149 = getelementptr inbounds %"cls.acjs::JsVariant", %"cls.acjs::JsVariant"* %vptr147, i32 0, i32 1
  %1150 = load i32, i32* %1149, align 8
  %1151 = icmp sle i32 %1150, 6
  %1152 = getelementptr inbounds %"cls.acjs::JsVariant", %"cls.acjs::JsVariant"* %vptr146, i32 0, i32 1
  %1153 = load i32, i32* %1152, align 8
  %1154 = icmp sle i32 %1153, 6
  %1155 = and i1 %1151, %1154
  br i1 %1155, label %copy.bb148, label %fallback.bb149

fallback.bb141:                                   ; preds = %copy.bb140, %copy.bb132e
  %1156 = call %"cls.acjs::JsVariant"* @_ZN14altered_carbon2js9JsVariantaSERKS1_(%"cls.acjs::JsVariant"* %vptr139, %"cls.acjs::JsVariant"* %vptr138)
  br label %copy.bb140e

caseerr.bb142:                                    ; preds = %copy.bb140
  store i32 %1121, i32* %1117, align 8
  %1157 = getelementptr inbounds %"cls.acjs::JsVariant", %"cls.acjs::JsVariant"* %vptr138, i32 0, i32 2
  %1158 = bitcast %union.anon.6* %1157 to i8**
  %1159 = load i8*, i8** %1158, align 8
  %1160 = getelementptr inbounds %"cls.acjs::JsVariant", %"cls.acjs::JsVariant"* %vptr139, i32 0, i32 2
  %1161 = bitcast %union.anon.6* %1160 to i8**
  store i8* %1159, i8** %1161, align 8
  br label %copy.bb140e

casenul_unf.bb143:                                ; preds = %copy.bb140, %copy.bb140
  store i32 %1121, i32* %1117, align 8
  br label %copy.bb140e

casebln.bb144:                                    ; preds = %copy.bb140
  store i32 %1121, i32* %1117, align 8
  %1162 = getelementptr inbounds %"cls.acjs::JsVariant", %"cls.acjs::JsVariant"* %vptr138, i32 0, i32 2
  %1163 = bitcast %union.anon.6* %1162 to i8*
  %1164 = load i8, i8* %1163, align 8
  %1165 = getelementptr inbounds %"cls.acjs::JsVariant", %"cls.acjs::JsVariant"* %vptr139, i32 0, i32 2
