; ModuleID = 'temp.bc'
source_filename = "../ac_ast_func_class_nodes.cc"
target datalayout = "e-m:o-i64:64-f80:128-n8:16:32:64-S128"
target triple = "x86_64-apple-macosx10.13.0"

%"class.std::__1::locale::id" = type <{ %"struct.std::__1::once_flag", i32, [4 x i8] }>
%"struct.std::__1::once_flag" = type { i64 }
%"class.altered_carbon::js::ACAstIdentifierParam" = type { %"class.altered_carbon::js::ACAstBaseNode" }
%"class.altered_carbon::js::ACAstBaseNode" = type { i32 (...)**, %"class.std::__1::unique_ptr", i32, i32, %"class.std::__1::vector" }
%"class.std::__1::unique_ptr" = type { %"class.std::__1::__compressed_pair" }
%"class.std::__1::__compressed_pair" = type { %"struct.std::__1::__compressed_pair_elem" }
%"struct.std::__1::__compressed_pair_elem" = type { %"struct.altered_carbon::js::ACLexPosition"* }
%"struct.altered_carbon::js::ACLexPosition" = type { i32 (...)**, i64, i32, i64 }
%"class.std::__1::vector" = type { %"class.std::__1::__vector_base" }
%"class.std::__1::__vector_base" = type { %"class.std::__1::unique_ptr.1"*, %"class.std::__1::unique_ptr.1"*, %"class.std::__1::__compressed_pair.7" }
%"class.std::__1::__compressed_pair.7" = type { %"struct.std::__1::__compressed_pair_elem.8" }
%"struct.std::__1::__compressed_pair_elem.8" = type { %"class.std::__1::unique_ptr.1"* }
%"class.std::__1::unique_ptr.10" = type { %"class.std::__1::__compressed_pair.11" }
%"class.std::__1::__compressed_pair.11" = type { %"struct.std::__1::__compressed_pair_elem.12" }
%"struct.std::__1::__compressed_pair_elem.12" = type { %"class.altered_carbon::js::ACAstVariantNode"* }
%"class.altered_carbon::js::ACAstVariantNode" = type { %"class.altered_carbon::js::ACAstBaseNode", %"class.std::__1::basic_string", i8, %"class.altered_carbon::js::ACLexNumber", %"class.std::__1::basic_string", i32, %"class.std::__1::unique_ptr.20" }
%"class.altered_carbon::js::ACLexNumber" = type { i32 (...)**, i8, %union.anon.19 }
%union.anon.19 = type { double }
%"class.std::__1::basic_string" = type { %"class.std::__1::__compressed_pair.13" }
%"class.std::__1::__compressed_pair.13" = type { %"struct.std::__1::__compressed_pair_elem.14" }
%"struct.std::__1::__compressed_pair_elem.14" = type { %"struct.std::__1::basic_string<wchar_t, std::__1::char_traits<wchar_t>, std::__1::allocator<wchar_t> >::__rep" }
%"struct.std::__1::basic_string<wchar_t, std::__1::char_traits<wchar_t>, std::__1::allocator<wchar_t> >::__rep" = type { %union.anon }
%union.anon = type { %"struct.std::__1::basic_string<wchar_t, std::__1::char_traits<wchar_t>, std::__1::allocator<wchar_t> >::__long" }
%"struct.std::__1::basic_string<wchar_t, std::__1::char_traits<wchar_t>, std::__1::allocator<wchar_t> >::__long" = type { i64, i64, i32* }
%"class.std::__1::unique_ptr.20" = type { %"class.std::__1::__compressed_pair.21" }
%"class.std::__1::__compressed_pair.21" = type { %"struct.std::__1::__compressed_pair_elem.22" }
%"struct.std::__1::__compressed_pair_elem.22" = type { %"class.altered_carbon::js::ACLexRegex"* }
%"class.altered_carbon::js::ACLexRegex" = type <{ i32 (...)**, %"class.std::__1::basic_string.23", i8, i8, i8, [5 x i8] }>
%"class.std::__1::basic_string.23" = type { %"class.std::__1::__compressed_pair.24" }
%"class.std::__1::__compressed_pair.24" = type { %"struct.std::__1::__compressed_pair_elem.25" }
%"struct.std::__1::__compressed_pair_elem.25" = type { %"struct.std::__1::basic_string<char, std::__1::char_traits<char>, std::__1::allocator<char> >::__rep" }
%"struct.std::__1::basic_string<char, std::__1::char_traits<char>, std::__1::allocator<char> >::__rep" = type { %union.anon.26 }
%union.anon.26 = type { %"struct.std::__1::basic_string<char, std::__1::char_traits<char>, std::__1::allocator<char> >::__long" }
%"struct.std::__1::basic_string<char, std::__1::char_traits<char>, std::__1::allocator<char> >::__long" = type { i64, i64, i8* }
%"class.std::__1::unique_ptr.1" = type { %"class.std::__1::__compressed_pair.2" }
%"class.std::__1::__compressed_pair.2" = type { %"struct.std::__1::__compressed_pair_elem.3" }
%"struct.std::__1::__compressed_pair_elem.3" = type { %"class.altered_carbon::js::ACAstBaseNode"* }
%"struct.std::__1::__compressed_pair_elem.34" = type { i8 }
%"struct.std::__1::default_delete.35" = type { i8 }
%"struct.std::__1::default_delete.5" = type { i8 }
%"struct.std::__1::__compressed_pair_elem.4" = type { i8 }
%"struct.std::__1::__compressed_pair_elem.9" = type { i8 }
%"class.std::__1::allocator" = type { i8 }
%"struct.std::__1::__has_construct" = type { i8 }
%"struct.std::__1::vector<std::__1::unique_ptr<altered_carbon::js::ACAstBaseNode, std::__1::default_delete<altered_carbon::js::ACAstBaseNode> >, std::__1::allocator<std::__1::unique_ptr<altered_carbon::js::ACAstBaseNode, std::__1::default_delete<altered_carbon::js::ACAstBaseNode> > > >::__RAII_IncreaseAnnotator" = type { i8 }
%"struct.std::__1::__compressed_pair_elem.0" = type { i8 }
%"struct.std::__1::default_delete" = type { i8 }
%"struct.std::__1::integral_constant" = type { i8 }
%"class.std::__1::basic_ostream" = type { i32 (...)**, %"class.std::__1::basic_ios.base" }
%"class.std::__1::basic_ios.base" = type <{ %"class.std::__1::ios_base", %"class.std::__1::basic_ostream"*, i32 }>
%"class.std::__1::ios_base" = type { i32 (...)**, i32, i64, i64, i32, i32, i8*, i8*, void (i32, %"class.std::__1::ios_base"*, i32)**, i32*, i64, i64, i64*, i64, i64, i8**, i64, i64 }
%"class.altered_carbon::js::ACAstCollectionParam" = type { %"class.altered_carbon::js::ACAstCollectionNode" }
%"class.altered_carbon::js::ACAstCollectionNode" = type { %"class.altered_carbon::js::ACAstBaseNode" }
%"class.std::__1::__vector_base_common" = type { i8 }
%"class.altered_carbon::js::ACAstObjectParam" = type { %"class.altered_carbon::js::ACAstObjectNode" }
%"class.altered_carbon::js::ACAstObjectNode" = type { %"class.altered_carbon::js::ACAstBaseNode" }
%"class.altered_carbon::js::ACAstFunctionNode" = type { %"class.altered_carbon::js::ACAstBaseNode", %"class.std::__1::unique_ptr.10", %"class.std::__1::unique_ptr.1" }
%"class.altered_carbon::js::ACAstClassNode" = type { %"class.altered_carbon::js::ACAstFunctionNode" }
%"class.altered_carbon::js::ACAstVisitable" = type { i32 (...)** }
%"class.std::__1::allocator.17" = type { i8 }
%"struct.std::__1::__compressed_pair_elem.16" = type { i8 }
%"class.std::__1::__basic_string_common" = type { i8 }
%"struct.std::__1::__has_destroy" = type { i8 }
%"struct.std::__1::__less" = type { i8 }
%"struct.std::__1::__split_buffer" = type { %"class.std::__1::unique_ptr.1"*, %"class.std::__1::unique_ptr.1"*, %"class.std::__1::unique_ptr.1"*, %"class.std::__1::__compressed_pair.37" }
%"class.std::__1::__compressed_pair.37" = type { %"struct.std::__1::__compressed_pair_elem.8", %"struct.std::__1::__compressed_pair_elem.38" }
%"struct.std::__1::__compressed_pair_elem.38" = type { %"class.std::__1::allocator"* }
%"struct.std::__1::__has_max_size" = type { i8 }
%"class.std::__1::__split_buffer_common" = type { i8 }
%"class.std::__1::ctype" = type <{ %"class.std::__1::locale::facet", i32*, i8, [7 x i8] }>
%"class.std::__1::locale::facet" = type { %"class.std::__1::__shared_count" }
%"class.std::__1::__shared_count" = type { i32 (...)**, i64 }
%"class.std::__1::locale" = type { %"class.std::__1::locale::__imp"* }
%"class.std::__1::locale::__imp" = type opaque
%"class.std::__1::basic_ios" = type <{ %"class.std::__1::ios_base", %"class.std::__1::basic_ostream"*, i32, [4 x i8] }>
%"class.std::__1::ostreambuf_iterator" = type { %"class.std::__1::basic_streambuf"* }
%"class.std::__1::basic_streambuf" = type { i32 (...)**, %"class.std::__1::locale", i8*, i8*, i8*, i8*, i8*, i8* }
%"class.std::__1::basic_ostream<char, std::__1::char_traits<char> >::sentry" = type { i8, %"class.std::__1::basic_ostream"* }
%"struct.std::__1::iterator" = type { i8 }
%"class.std::__1::allocator.29" = type { i8 }
%"struct.std::__1::__compressed_pair_elem.28" = type { i8 }
%"struct.std::__1::basic_string<char, std::__1::char_traits<char>, std::__1::allocator<char> >::__short" = type { %union.anon.27, [23 x i8] }
%union.anon.27 = type { i8 }

@_ZTVN14altered_carbon2js20ACAstIdentifierParamE = unnamed_addr constant { [14 x i8*] } { [14 x i8*] [i8* null, i8* bitcast ({ i8*, i8*, i8* }* @_ZTIN14altered_carbon2js20ACAstIdentifierParamE to i8*), i8* bitcast (void (%"class.altered_carbon::js::ACAstIdentifierParam"*)* @_ZN14altered_carbon2js20ACAstIdentifierParamD1Ev to i8*), i8* bitcast (void (%"class.altered_carbon::js::ACAstIdentifierParam"*)* @_ZN14altered_carbon2js20ACAstIdentifierParamD0Ev to i8*), i8* bitcast (i8* (%"class.altered_carbon::js::ACAstBaseNode"*, %"class.altered_carbon::js::ACAstVisitable"*)* @_ZNK14altered_carbon2js13ACAstBaseNode6acceptEPNS0_14ACAstVisitableE to i8*), i8* bitcast (void (%"class.std::__1::basic_string"*, %"class.altered_carbon::js::ACAstBaseNode"*)* @_ZNK14altered_carbon2js13ACAstBaseNode10identifierEv to i8*), i8* bitcast (i32 (%"class.altered_carbon::js::ACAstBaseNode"*)* @_ZNK14altered_carbon2js13ACAstBaseNode10precedenceEv to i8*), i8* bitcast (i32 (%"class.altered_carbon::js::ACAstBaseNode"*)* @_ZNK14altered_carbon2js13ACAstBaseNode2opEv to i8*), i8* bitcast (i1 (%"class.altered_carbon::js::ACAstIdentifierParam"*)* @_ZN14altered_carbon2js20ACAstIdentifierParam14convertToParamEv to i8*), i8* bitcast (i1 (%"class.altered_carbon::js::ACAstBaseNode"*)* @_ZN14altered_carbon2js13ACAstBaseNode15convertToFormalEv to i8*), i8* bitcast (void (%"class.altered_carbon::js::ACAstBaseNode"*, %"class.std::__1::basic_ostream"*)* @_ZNK14altered_carbon2js13ACAstBaseNode4dumpERNSt3__113basic_ostreamIcNS2_11char_traitsIcEEEE to i8*), i8* bitcast (void (%"class.altered_carbon::js::ACAstIdentifierParam"*, %"class.std::__1::basic_ostream"*)* @_ZNK14altered_carbon2js20ACAstIdentifierParam14dumpGraphLabelERNSt3__113basic_ostreamIcNS2_11char_traitsIcEEEE to i8*), i8* bitcast (void (%"class.altered_carbon::js::ACAstBaseNode"*, %"class.std::__1::basic_ostream"*)* @_ZNK14altered_carbon2js13ACAstBaseNode9dumpGraphERNSt3__113basic_ostreamIcNS2_11char_traitsIcEEEE to i8*), i8* bitcast (void (%"class.altered_carbon::js::ACAstIdentifierParam"*, %"class.std::__1::basic_ostream"*)* @_ZNK14altered_carbon2js20ACAstIdentifierParam14dumpChildNodesERNSt3__113basic_ostreamIcNS2_11char_traitsIcEEEE to i8*)] }, align 8
@.str = private unnamed_addr constant [2 x i8] c"=\00", align 1
@.str.1 = private unnamed_addr constant [19 x i8] c"(no default value)\00", align 1
@.str.2 = private unnamed_addr constant [2 x i8] c"{\00", align 1
@.str.3 = private unnamed_addr constant [6 x i8] c" *=* \00", align 1
@.str.4 = private unnamed_addr constant [2 x i8] c"}\00", align 1
@_ZTVN14altered_carbon2js20ACAstCollectionParamE = linkonce_odr unnamed_addr constant { [14 x i8*] } { [14 x i8*] [i8* null, i8* bitcast ({ i8*, i8*, i8* }* @_ZTIN14altered_carbon2js20ACAstCollectionParamE to i8*), i8* bitcast (void (%"class.altered_carbon::js::ACAstCollectionParam"*)* @_ZN14altered_carbon2js20ACAstCollectionParamD1Ev to i8*), i8* bitcast (void (%"class.altered_carbon::js::ACAstCollectionParam"*)* @_ZN14altered_carbon2js20ACAstCollectionParamD0Ev to i8*), i8* bitcast (i8* (%"class.altered_carbon::js::ACAstBaseNode"*, %"class.altered_carbon::js::ACAstVisitable"*)* @_ZNK14altered_carbon2js13ACAstBaseNode6acceptEPNS0_14ACAstVisitableE to i8*), i8* bitcast (void (%"class.std::__1::basic_string"*, %"class.altered_carbon::js::ACAstBaseNode"*)* @_ZNK14altered_carbon2js13ACAstBaseNode10identifierEv to i8*), i8* bitcast (i32 (%"class.altered_carbon::js::ACAstBaseNode"*)* @_ZNK14altered_carbon2js13ACAstBaseNode10precedenceEv to i8*), i8* bitcast (i32 (%"class.altered_carbon::js::ACAstBaseNode"*)* @_ZNK14altered_carbon2js13ACAstBaseNode2opEv to i8*), i8* bitcast (i1 (%"class.altered_carbon::js::ACAstCollectionNode"*)* @_ZN14altered_carbon2js19ACAstCollectionNode14convertToParamEv to i8*), i8* bitcast (i1 (%"class.altered_carbon::js::ACAstBaseNode"*)* @_ZN14altered_carbon2js13ACAstBaseNode15convertToFormalEv to i8*), i8* bitcast (void (%"class.altered_carbon::js::ACAstBaseNode"*, %"class.std::__1::basic_ostream"*)* @_ZNK14altered_carbon2js13ACAstBaseNode4dumpERNSt3__113basic_ostreamIcNS2_11char_traitsIcEEEE to i8*), i8* bitcast (void (%"class.altered_carbon::js::ACAstBaseNode"*, %"class.std::__1::basic_ostream"*)* @_ZNK14altered_carbon2js13ACAstBaseNode14dumpGraphLabelERNSt3__113basic_ostreamIcNS2_11char_traitsIcEEEE to i8*), i8* bitcast (void (%"class.altered_carbon::js::ACAstBaseNode"*, %"class.std::__1::basic_ostream"*)* @_ZNK14altered_carbon2js13ACAstBaseNode9dumpGraphERNSt3__113basic_ostreamIcNS2_11char_traitsIcEEEE to i8*), i8* bitcast (void (%"class.altered_carbon::js::ACAstCollectionNode"*, %"class.std::__1::basic_ostream"*)* @_ZNK14altered_carbon2js19ACAstCollectionNode14dumpChildNodesERNSt3__113basic_ostreamIcNS2_11char_traitsIcEEEE to i8*)] }, align 8
@_ZTVN14altered_carbon2js16ACAstObjectParamE = linkonce_odr unnamed_addr constant { [14 x i8*] } { [14 x i8*] [i8* null, i8* bitcast ({ i8*, i8*, i8* }* @_ZTIN14altered_carbon2js16ACAstObjectParamE to i8*), i8* bitcast (void (%"class.altered_carbon::js::ACAstObjectParam"*)* @_ZN14altered_carbon2js16ACAstObjectParamD1Ev to i8*), i8* bitcast (void (%"class.altered_carbon::js::ACAstObjectParam"*)* @_ZN14altered_carbon2js16ACAstObjectParamD0Ev to i8*), i8* bitcast (i8* (%"class.altered_carbon::js::ACAstBaseNode"*, %"class.altered_carbon::js::ACAstVisitable"*)* @_ZNK14altered_carbon2js13ACAstBaseNode6acceptEPNS0_14ACAstVisitableE to i8*), i8* bitcast (void (%"class.std::__1::basic_string"*, %"class.altered_carbon::js::ACAstBaseNode"*)* @_ZNK14altered_carbon2js13ACAstBaseNode10identifierEv to i8*), i8* bitcast (i32 (%"class.altered_carbon::js::ACAstBaseNode"*)* @_ZNK14altered_carbon2js13ACAstBaseNode10precedenceEv to i8*), i8* bitcast (i32 (%"class.altered_carbon::js::ACAstBaseNode"*)* @_ZNK14altered_carbon2js13ACAstBaseNode2opEv to i8*), i8* bitcast (i1 (%"class.altered_carbon::js::ACAstObjectNode"*)* @_ZN14altered_carbon2js15ACAstObjectNode14convertToParamEv to i8*), i8* bitcast (i1 (%"class.altered_carbon::js::ACAstBaseNode"*)* @_ZN14altered_carbon2js13ACAstBaseNode15convertToFormalEv to i8*), i8* bitcast (void (%"class.altered_carbon::js::ACAstBaseNode"*, %"class.std::__1::basic_ostream"*)* @_ZNK14altered_carbon2js13ACAstBaseNode4dumpERNSt3__113basic_ostreamIcNS2_11char_traitsIcEEEE to i8*), i8* bitcast (void (%"class.altered_carbon::js::ACAstBaseNode"*, %"class.std::__1::basic_ostream"*)* @_ZNK14altered_carbon2js13ACAstBaseNode14dumpGraphLabelERNSt3__113basic_ostreamIcNS2_11char_traitsIcEEEE to i8*), i8* bitcast (void (%"class.altered_carbon::js::ACAstBaseNode"*, %"class.std::__1::basic_ostream"*)* @_ZNK14altered_carbon2js13ACAstBaseNode9dumpGraphERNSt3__113basic_ostreamIcNS2_11char_traitsIcEEEE to i8*), i8* bitcast (void (%"class.altered_carbon::js::ACAstObjectNode"*, %"class.std::__1::basic_ostream"*)* @_ZNK14altered_carbon2js15ACAstObjectNode14dumpChildNodesERNSt3__113basic_ostreamIcNS2_11char_traitsIcEEEE to i8*)] }, align 8
@_ZTVN14altered_carbon2js17ACAstFunctionNodeE = unnamed_addr constant { [14 x i8*] } { [14 x i8*] [i8* null, i8* bitcast ({ i8*, i8*, i8* }* @_ZTIN14altered_carbon2js17ACAstFunctionNodeE to i8*), i8* bitcast (void (%"class.altered_carbon::js::ACAstFunctionNode"*)* @_ZN14altered_carbon2js17ACAstFunctionNodeD1Ev to i8*), i8* bitcast (void (%"class.altered_carbon::js::ACAstFunctionNode"*)* @_ZN14altered_carbon2js17ACAstFunctionNodeD0Ev to i8*), i8* bitcast (i8* (%"class.altered_carbon::js::ACAstBaseNode"*, %"class.altered_carbon::js::ACAstVisitable"*)* @_ZNK14altered_carbon2js13ACAstBaseNode6acceptEPNS0_14ACAstVisitableE to i8*), i8* bitcast (void (%"class.std::__1::basic_string"*, %"class.altered_carbon::js::ACAstBaseNode"*)* @_ZNK14altered_carbon2js13ACAstBaseNode10identifierEv to i8*), i8* bitcast (i32 (%"class.altered_carbon::js::ACAstBaseNode"*)* @_ZNK14altered_carbon2js13ACAstBaseNode10precedenceEv to i8*), i8* bitcast (i32 (%"class.altered_carbon::js::ACAstBaseNode"*)* @_ZNK14altered_carbon2js13ACAstBaseNode2opEv to i8*), i8* bitcast (i1 (%"class.altered_carbon::js::ACAstBaseNode"*)* @_ZN14altered_carbon2js13ACAstBaseNode14convertToParamEv to i8*), i8* bitcast (i1 (%"class.altered_carbon::js::ACAstBaseNode"*)* @_ZN14altered_carbon2js13ACAstBaseNode15convertToFormalEv to i8*), i8* bitcast (void (%"class.altered_carbon::js::ACAstBaseNode"*, %"class.std::__1::basic_ostream"*)* @_ZNK14altered_carbon2js13ACAstBaseNode4dumpERNSt3__113basic_ostreamIcNS2_11char_traitsIcEEEE to i8*), i8* bitcast (void (%"class.altered_carbon::js::ACAstFunctionNode"*, %"class.std::__1::basic_ostream"*)* @_ZNK14altered_carbon2js17ACAstFunctionNode14dumpGraphLabelERNSt3__113basic_ostreamIcNS2_11char_traitsIcEEEE to i8*), i8* bitcast (void (%"class.altered_carbon::js::ACAstFunctionNode"*, %"class.std::__1::basic_ostream"*)* @_ZNK14altered_carbon2js17ACAstFunctionNode9dumpGraphERNSt3__113basic_ostreamIcNS2_11char_traitsIcEEEE to i8*), i8* bitcast (void (%"class.altered_carbon::js::ACAstFunctionNode"*, %"class.std::__1::basic_ostream"*)* @_ZNK14altered_carbon2js17ACAstFunctionNode14dumpChildNodesERNSt3__113basic_ostreamIcNS2_11char_traitsIcEEEE to i8*)] }, align 8
@.str.5 = private unnamed_addr constant [9 x i8] c"function\00", align 1
@.str.6 = private unnamed_addr constant [2 x i8] c"(\00", align 1
@.str.7 = private unnamed_addr constant [2 x i8] c")\00", align 1
@.str.8 = private unnamed_addr constant [6 x i8] c" <,> \00", align 1
@_ZTVN14altered_carbon2js14ACAstClassNodeE = unnamed_addr constant { [14 x i8*] } { [14 x i8*] [i8* null, i8* bitcast ({ i8*, i8*, i8* }* @_ZTIN14altered_carbon2js14ACAstClassNodeE to i8*), i8* bitcast (void (%"class.altered_carbon::js::ACAstClassNode"*)* @_ZN14altered_carbon2js14ACAstClassNodeD1Ev to i8*), i8* bitcast (void (%"class.altered_carbon::js::ACAstClassNode"*)* @_ZN14altered_carbon2js14ACAstClassNodeD0Ev to i8*), i8* bitcast (i8* (%"class.altered_carbon::js::ACAstBaseNode"*, %"class.altered_carbon::js::ACAstVisitable"*)* @_ZNK14altered_carbon2js13ACAstBaseNode6acceptEPNS0_14ACAstVisitableE to i8*), i8* bitcast (void (%"class.std::__1::basic_string"*, %"class.altered_carbon::js::ACAstBaseNode"*)* @_ZNK14altered_carbon2js13ACAstBaseNode10identifierEv to i8*), i8* bitcast (i32 (%"class.altered_carbon::js::ACAstBaseNode"*)* @_ZNK14altered_carbon2js13ACAstBaseNode10precedenceEv to i8*), i8* bitcast (i32 (%"class.altered_carbon::js::ACAstBaseNode"*)* @_ZNK14altered_carbon2js13ACAstBaseNode2opEv to i8*), i8* bitcast (i1 (%"class.altered_carbon::js::ACAstBaseNode"*)* @_ZN14altered_carbon2js13ACAstBaseNode14convertToParamEv to i8*), i8* bitcast (i1 (%"class.altered_carbon::js::ACAstBaseNode"*)* @_ZN14altered_carbon2js13ACAstBaseNode15convertToFormalEv to i8*), i8* bitcast (void (%"class.altered_carbon::js::ACAstBaseNode"*, %"class.std::__1::basic_ostream"*)* @_ZNK14altered_carbon2js13ACAstBaseNode4dumpERNSt3__113basic_ostreamIcNS2_11char_traitsIcEEEE to i8*), i8* bitcast (void (%"class.altered_carbon::js::ACAstFunctionNode"*, %"class.std::__1::basic_ostream"*)* @_ZNK14altered_carbon2js17ACAstFunctionNode14dumpGraphLabelERNSt3__113basic_ostreamIcNS2_11char_traitsIcEEEE to i8*), i8* bitcast (void (%"class.altered_carbon::js::ACAstFunctionNode"*, %"class.std::__1::basic_ostream"*)* @_ZNK14altered_carbon2js17ACAstFunctionNode9dumpGraphERNSt3__113basic_ostreamIcNS2_11char_traitsIcEEEE to i8*), i8* bitcast (void (%"class.altered_carbon::js::ACAstClassNode"*, %"class.std::__1::basic_ostream"*)* @_ZNK14altered_carbon2js14ACAstClassNode14dumpChildNodesERNSt3__113basic_ostreamIcNS2_11char_traitsIcEEEE to i8*)] }, align 8
@.str.9 = private unnamed_addr constant [6 x i8] c"class\00", align 1
@_ZTVN10__cxxabiv120__si_class_type_infoE = external global i8*
@_ZTSN14altered_carbon2js20ACAstIdentifierParamE = constant [44 x i8] c"N14altered_carbon2js20ACAstIdentifierParamE\00"
@_ZTIN14altered_carbon2js13ACAstBaseNodeE = external constant i8*
@_ZTIN14altered_carbon2js20ACAstIdentifierParamE = constant { i8*, i8*, i8* } { i8* bitcast (i8** getelementptr inbounds (i8*, i8** @_ZTVN10__cxxabiv120__si_class_type_infoE, i64 2) to i8*), i8* getelementptr inbounds ([44 x i8], [44 x i8]* @_ZTSN14altered_carbon2js20ACAstIdentifierParamE, i32 0, i32 0), i8* bitcast (i8** @_ZTIN14altered_carbon2js13ACAstBaseNodeE to i8*) }
@_ZTSN14altered_carbon2js17ACAstFunctionNodeE = constant [41 x i8] c"N14altered_carbon2js17ACAstFunctionNodeE\00"
@_ZTIN14altered_carbon2js17ACAstFunctionNodeE = constant { i8*, i8*, i8* } { i8* bitcast (i8** getelementptr inbounds (i8*, i8** @_ZTVN10__cxxabiv120__si_class_type_infoE, i64 2) to i8*), i8* getelementptr inbounds ([41 x i8], [41 x i8]* @_ZTSN14altered_carbon2js17ACAstFunctionNodeE, i32 0, i32 0), i8* bitcast (i8** @_ZTIN14altered_carbon2js13ACAstBaseNodeE to i8*) }
@_ZTSN14altered_carbon2js14ACAstClassNodeE = constant [38 x i8] c"N14altered_carbon2js14ACAstClassNodeE\00"
@_ZTIN14altered_carbon2js14ACAstClassNodeE = constant { i8*, i8*, i8* } { i8* bitcast (i8** getelementptr inbounds (i8*, i8** @_ZTVN10__cxxabiv120__si_class_type_infoE, i64 2) to i8*), i8* getelementptr inbounds ([38 x i8], [38 x i8]* @_ZTSN14altered_carbon2js14ACAstClassNodeE, i32 0, i32 0), i8* bitcast ({ i8*, i8*, i8* }* @_ZTIN14altered_carbon2js17ACAstFunctionNodeE to i8*) }
@_ZTSN14altered_carbon2js20ACAstCollectionParamE = linkonce_odr constant [44 x i8] c"N14altered_carbon2js20ACAstCollectionParamE\00"
@_ZTIN14altered_carbon2js19ACAstCollectionNodeE = external constant i8*
@_ZTIN14altered_carbon2js20ACAstCollectionParamE = linkonce_odr constant { i8*, i8*, i8* } { i8* bitcast (i8** getelementptr inbounds (i8*, i8** @_ZTVN10__cxxabiv120__si_class_type_infoE, i64 2) to i8*), i8* getelementptr inbounds ([44 x i8], [44 x i8]* @_ZTSN14altered_carbon2js20ACAstCollectionParamE, i32 0, i32 0), i8* bitcast (i8** @_ZTIN14altered_carbon2js19ACAstCollectionNodeE to i8*) }
@_ZTSN14altered_carbon2js16ACAstObjectParamE = linkonce_odr constant [40 x i8] c"N14altered_carbon2js16ACAstObjectParamE\00"
@_ZTIN14altered_carbon2js15ACAstObjectNodeE = external constant i8*
@_ZTIN14altered_carbon2js16ACAstObjectParamE = linkonce_odr constant { i8*, i8*, i8* } { i8* bitcast (i8** getelementptr inbounds (i8*, i8** @_ZTVN10__cxxabiv120__si_class_type_infoE, i64 2) to i8*), i8* getelementptr inbounds ([40 x i8], [40 x i8]* @_ZTSN14altered_carbon2js16ACAstObjectParamE, i32 0, i32 0), i8* bitcast (i8** @_ZTIN14altered_carbon2js15ACAstObjectNodeE to i8*) }
@_ZTVN14altered_carbon2js13ACAstBaseNodeE = external unnamed_addr constant { [14 x i8*] }
@.str.10 = private unnamed_addr constant [7 x i32] [i32 40, i32 110, i32 117, i32 108, i32 108, i32 41, i32 0], align 4
@.str.11 = private unnamed_addr constant [68 x i8] c"allocator<T>::allocate(size_t n) 'n' exceeds maximum supported size\00", align 1
@_ZNSt3__15ctypeIcE2idE = external global %"class.std::__1::locale::id", align 8

; Function Attrs: noinline nounwind optnone ssp uwtable
define void @_ZN14altered_carbon2js20ACAstIdentifierParamC2ENSt3__110unique_ptrINS0_13ACLexPositionENS2_14default_deleteIS4_EEEENS3_INS0_16ACAstVariantNodeENS5_IS8_EEEENS3_INS0_13ACAstBaseNodeENS5_ISB_EEEENSB_11AstNodeTypeENSB_14AstNodeSubTypeE(%"class.altered_carbon::js::ACAstIdentifierParam"*, %"class.std::__1::unique_ptr"*, %"class.std::__1::unique_ptr.10"*, %"class.std::__1::unique_ptr.1"*, i32, i32) unnamed_addr #0 align 2 !dbg !5349 {
  %7 = alloca %"struct.std::__1::__compressed_pair_elem.34"*, align 8
  call void @llvm.dbg.declare(metadata %"struct.std::__1::__compressed_pair_elem.34"** %7, metadata !5350, metadata !DIExpression()), !dbg !5353
  %8 = alloca %"class.std::__1::__compressed_pair.11"*, align 8
  call void @llvm.dbg.declare(metadata %"class.std::__1::__compressed_pair.11"** %8, metadata !5371, metadata !DIExpression()), !dbg !5373
  %9 = alloca %"class.std::__1::unique_ptr.10"*, align 8
  call void @llvm.dbg.declare(metadata %"class.std::__1::unique_ptr.10"** %9, metadata !5374, metadata !DIExpression()), !dbg !5376
  %10 = alloca %"struct.std::__1::default_delete.35"*, align 8
  call void @llvm.dbg.declare(metadata %"struct.std::__1::default_delete.35"** %10, metadata !5377, metadata !DIExpression()), !dbg !5386
  %11 = alloca %"class.altered_carbon::js::ACAstVariantNode"**, align 8
  call void @llvm.dbg.declare(metadata %"class.altered_carbon::js::ACAstVariantNode"*** %11, metadata !5388, metadata !DIExpression()), !dbg !5397
  %12 = alloca %"struct.std::__1::__compressed_pair_elem.3"*, align 8
  call void @llvm.dbg.declare(metadata %"struct.std::__1::__compressed_pair_elem.3"** %12, metadata !5416, metadata !DIExpression()), !dbg !5418
  %13 = alloca %"class.altered_carbon::js::ACAstVariantNode"**, align 8
  call void @llvm.dbg.declare(metadata %"class.altered_carbon::js::ACAstVariantNode"*** %13, metadata !5419, metadata !DIExpression()), !dbg !5420
  %14 = alloca %"struct.std::__1::default_delete.35"*, align 8
  call void @llvm.dbg.declare(metadata %"struct.std::__1::default_delete.35"** %14, metadata !5377, metadata !DIExpression()), !dbg !5421
  %15 = alloca %"struct.std::__1::default_delete.5"*, align 8
  call void @llvm.dbg.declare(metadata %"struct.std::__1::default_delete.5"** %15, metadata !5423, metadata !DIExpression()), !dbg !5434
  %16 = alloca %"struct.std::__1::default_delete.35"*, align 8
  call void @llvm.dbg.declare(metadata %"struct.std::__1::default_delete.35"** %16, metadata !5443, metadata !DIExpression()), !dbg !5444
  %17 = alloca i8*, align 8
  call void @llvm.dbg.declare(metadata i8** %17, metadata !5445, metadata !DIExpression()), !dbg !5446
  %18 = alloca %"struct.std::__1::default_delete.35"*, align 8
  call void @llvm.dbg.declare(metadata %"struct.std::__1::default_delete.35"** %18, metadata !5377, metadata !DIExpression()), !dbg !5447
  %19 = alloca %"struct.std::__1::__compressed_pair_elem.4"*, align 8
  call void @llvm.dbg.declare(metadata %"struct.std::__1::__compressed_pair_elem.4"** %19, metadata !5449, metadata !DIExpression()), !dbg !5451
  %20 = alloca %"struct.std::__1::default_delete.35"*, align 8
  call void @llvm.dbg.declare(metadata %"struct.std::__1::default_delete.35"** %20, metadata !5452, metadata !DIExpression()), !dbg !5453
  %21 = alloca %"class.altered_carbon::js::ACAstVariantNode"**, align 8
  call void @llvm.dbg.declare(metadata %"class.altered_carbon::js::ACAstVariantNode"*** %21, metadata !5388, metadata !DIExpression()), !dbg !5454
  %22 = alloca %"class.std::__1::__compressed_pair.2"*, align 8
  call void @llvm.dbg.declare(metadata %"class.std::__1::__compressed_pair.2"** %22, metadata !5456, metadata !DIExpression()), !dbg !5458
  %23 = alloca %"class.altered_carbon::js::ACAstVariantNode"**, align 8
  call void @llvm.dbg.declare(metadata %"class.altered_carbon::js::ACAstVariantNode"*** %23, metadata !5459, metadata !DIExpression()), !dbg !5460
  %24 = alloca %"struct.std::__1::default_delete.35"*, align 8
  call void @llvm.dbg.declare(metadata %"struct.std::__1::default_delete.35"** %24, metadata !5461, metadata !DIExpression()), !dbg !5462
  %25 = alloca %"class.std::__1::__compressed_pair.2"*, align 8
  call void @llvm.dbg.declare(metadata %"class.std::__1::__compressed_pair.2"** %25, metadata !5463, metadata !DIExpression()), !dbg !5464
  %26 = alloca %"class.altered_carbon::js::ACAstVariantNode"**, align 8
  call void @llvm.dbg.declare(metadata %"class.altered_carbon::js::ACAstVariantNode"*** %26, metadata !5465, metadata !DIExpression()), !dbg !5466
  %27 = alloca %"struct.std::__1::default_delete.35"*, align 8
  call void @llvm.dbg.declare(metadata %"struct.std::__1::default_delete.35"** %27, metadata !5467, metadata !DIExpression()), !dbg !5468
  %28 = alloca %"struct.std::__1::__compressed_pair_elem.12"*, align 8
  call void @llvm.dbg.declare(metadata %"struct.std::__1::__compressed_pair_elem.12"** %28, metadata !5469, metadata !DIExpression()), !dbg !5472
  %29 = alloca %"class.std::__1::__compressed_pair.11"*, align 8
  call void @llvm.dbg.declare(metadata %"class.std::__1::__compressed_pair.11"** %29, metadata !5478, metadata !DIExpression()), !dbg !5479
  %30 = alloca %"struct.std::__1::__compressed_pair_elem.12"*, align 8
  call void @llvm.dbg.declare(metadata %"struct.std::__1::__compressed_pair_elem.12"** %30, metadata !5469, metadata !DIExpression()), !dbg !5480
  %31 = alloca %"class.std::__1::__compressed_pair.11"*, align 8
  call void @llvm.dbg.declare(metadata %"class.std::__1::__compressed_pair.11"** %31, metadata !5478, metadata !DIExpression()), !dbg !5483
  %32 = alloca %"class.std::__1::unique_ptr.10"*, align 8
  call void @llvm.dbg.declare(metadata %"class.std::__1::unique_ptr.10"** %32, metadata !5484, metadata !DIExpression()), !dbg !5485
  %33 = alloca %"class.altered_carbon::js::ACAstVariantNode"*, align 8
  call void @llvm.dbg.declare(metadata %"class.altered_carbon::js::ACAstVariantNode"** %33, metadata !5486, metadata !DIExpression()), !dbg !5487
  %34 = alloca %"class.std::__1::unique_ptr.1"*, align 8
  call void @llvm.dbg.declare(metadata %"class.std::__1::unique_ptr.1"** %34, metadata !5488, metadata !DIExpression()), !dbg !5489
  %35 = alloca %"class.std::__1::unique_ptr.10"*, align 8
  call void @llvm.dbg.declare(metadata %"class.std::__1::unique_ptr.10"** %35, metadata !5490, metadata !DIExpression()), !dbg !5491
  %36 = alloca %"class.altered_carbon::js::ACAstVariantNode"*, align 8
  %37 = alloca %"class.std::__1::unique_ptr.1"*, align 8
  call void @llvm.dbg.declare(metadata %"class.std::__1::unique_ptr.1"** %37, metadata !5492, metadata !DIExpression()), !dbg !5493
  %38 = alloca %"class.std::__1::unique_ptr.10"*, align 8
  call void @llvm.dbg.declare(metadata %"class.std::__1::unique_ptr.10"** %38, metadata !5494, metadata !DIExpression()), !dbg !5495
  %39 = alloca %"struct.std::__1::__compressed_pair_elem.9"*, align 8
  call void @llvm.dbg.declare(metadata %"struct.std::__1::__compressed_pair_elem.9"** %39, metadata !5496, metadata !DIExpression()), !dbg !5499
  %40 = alloca %"class.std::__1::__compressed_pair.7"*, align 8
  call void @llvm.dbg.declare(metadata %"class.std::__1::__compressed_pair.7"** %40, metadata !5509, metadata !DIExpression()), !dbg !5511
  %41 = alloca %"class.std::__1::__vector_base"*, align 8
  call void @llvm.dbg.declare(metadata %"class.std::__1::__vector_base"** %41, metadata !5512, metadata !DIExpression()), !dbg !5514
  %42 = alloca %"class.std::__1::unique_ptr.1"*, align 8
  call void @llvm.dbg.declare(metadata %"class.std::__1::unique_ptr.1"** %42, metadata !5515, metadata !DIExpression()), !dbg !5519
  %43 = alloca %"class.std::__1::unique_ptr.1"*, align 8
  call void @llvm.dbg.declare(metadata %"class.std::__1::unique_ptr.1"** %43, metadata !5521, metadata !DIExpression()), !dbg !5530
  %44 = alloca %"struct.std::__1::__compressed_pair_elem.4"*, align 8
  call void @llvm.dbg.declare(metadata %"struct.std::__1::__compressed_pair_elem.4"** %44, metadata !5532, metadata !DIExpression()), !dbg !5534
  %45 = alloca %"class.std::__1::__compressed_pair.2"*, align 8
  call void @llvm.dbg.declare(metadata %"class.std::__1::__compressed_pair.2"** %45, metadata !5565, metadata !DIExpression()), !dbg !5566
  %46 = alloca %"class.std::__1::unique_ptr.1"*, align 8
  call void @llvm.dbg.declare(metadata %"class.std::__1::unique_ptr.1"** %46, metadata !5567, metadata !DIExpression()), !dbg !5568
  %47 = alloca %"struct.std::__1::default_delete.5"*, align 8
  call void @llvm.dbg.declare(metadata %"struct.std::__1::default_delete.5"** %47, metadata !5569, metadata !DIExpression()), !dbg !5578
  %48 = alloca %"class.altered_carbon::js::ACAstBaseNode"**, align 8
  call void @llvm.dbg.declare(metadata %"class.altered_carbon::js::ACAstBaseNode"*** %48, metadata !5580, metadata !DIExpression()), !dbg !5589
  %49 = alloca %"struct.std::__1::__compressed_pair_elem.3"*, align 8
  call void @llvm.dbg.declare(metadata %"struct.std::__1::__compressed_pair_elem.3"** %49, metadata !5608, metadata !DIExpression()), !dbg !5609
  %50 = alloca %"class.altered_carbon::js::ACAstBaseNode"**, align 8
  call void @llvm.dbg.declare(metadata %"class.altered_carbon::js::ACAstBaseNode"*** %50, metadata !5610, metadata !DIExpression()), !dbg !5611
  %51 = alloca %"struct.std::__1::default_delete.5"*, align 8
  call void @llvm.dbg.declare(metadata %"struct.std::__1::default_delete.5"** %51, metadata !5569, metadata !DIExpression()), !dbg !5612
  %52 = alloca %"struct.std::__1::default_delete.5"*, align 8
  call void @llvm.dbg.declare(metadata %"struct.std::__1::default_delete.5"** %52, metadata !5569, metadata !DIExpression()), !dbg !5614
  %53 = alloca %"struct.std::__1::__compressed_pair_elem.4"*, align 8
  call void @llvm.dbg.declare(metadata %"struct.std::__1::__compressed_pair_elem.4"** %53, metadata !5623, metadata !DIExpression()), !dbg !5624
  %54 = alloca %"struct.std::__1::default_delete.5"*, align 8
  call void @llvm.dbg.declare(metadata %"struct.std::__1::default_delete.5"** %54, metadata !5625, metadata !DIExpression()), !dbg !5626
  %55 = alloca %"class.altered_carbon::js::ACAstBaseNode"**, align 8
  call void @llvm.dbg.declare(metadata %"class.altered_carbon::js::ACAstBaseNode"*** %55, metadata !5580, metadata !DIExpression()), !dbg !5627
  %56 = alloca %"class.std::__1::__compressed_pair.2"*, align 8
  call void @llvm.dbg.declare(metadata %"class.std::__1::__compressed_pair.2"** %56, metadata !5629, metadata !DIExpression()), !dbg !5630
  %57 = alloca %"class.altered_carbon::js::ACAstBaseNode"**, align 8
  call void @llvm.dbg.declare(metadata %"class.altered_carbon::js::ACAstBaseNode"*** %57, metadata !5631, metadata !DIExpression()), !dbg !5632
  %58 = alloca %"struct.std::__1::default_delete.5"*, align 8
  call void @llvm.dbg.declare(metadata %"struct.std::__1::default_delete.5"** %58, metadata !5633, metadata !DIExpression()), !dbg !5634
  %59 = alloca %"class.std::__1::__compressed_pair.2"*, align 8
  call void @llvm.dbg.declare(metadata %"class.std::__1::__compressed_pair.2"** %59, metadata !5635, metadata !DIExpression()), !dbg !5636
  %60 = alloca %"class.altered_carbon::js::ACAstBaseNode"**, align 8
  call void @llvm.dbg.declare(metadata %"class.altered_carbon::js::ACAstBaseNode"*** %60, metadata !5637, metadata !DIExpression()), !dbg !5638
  %61 = alloca %"struct.std::__1::default_delete.5"*, align 8
  call void @llvm.dbg.declare(metadata %"struct.std::__1::default_delete.5"** %61, metadata !5639, metadata !DIExpression()), !dbg !5640
  %62 = alloca %"struct.std::__1::__compressed_pair_elem.3"*, align 8
  call void @llvm.dbg.declare(metadata %"struct.std::__1::__compressed_pair_elem.3"** %62, metadata !5641, metadata !DIExpression()), !dbg !5643
  %63 = alloca %"class.std::__1::__compressed_pair.2"*, align 8
  call void @llvm.dbg.declare(metadata %"class.std::__1::__compressed_pair.2"** %63, metadata !5649, metadata !DIExpression()), !dbg !5650
  %64 = alloca %"struct.std::__1::__compressed_pair_elem.3"*, align 8
  call void @llvm.dbg.declare(metadata %"struct.std::__1::__compressed_pair_elem.3"** %64, metadata !5641, metadata !DIExpression()), !dbg !5651
  %65 = alloca %"class.std::__1::__compressed_pair.2"*, align 8
  call void @llvm.dbg.declare(metadata %"class.std::__1::__compressed_pair.2"** %65, metadata !5649, metadata !DIExpression()), !dbg !5654
  %66 = alloca %"class.std::__1::unique_ptr.1"*, align 8
  call void @llvm.dbg.declare(metadata %"class.std::__1::unique_ptr.1"** %66, metadata !5655, metadata !DIExpression()), !dbg !5656
  %67 = alloca %"class.altered_carbon::js::ACAstBaseNode"*, align 8
  call void @llvm.dbg.declare(metadata %"class.altered_carbon::js::ACAstBaseNode"** %67, metadata !5657, metadata !DIExpression()), !dbg !5658
  %68 = alloca %"class.std::__1::unique_ptr.1"*, align 8
  call void @llvm.dbg.declare(metadata %"class.std::__1::unique_ptr.1"** %68, metadata !5659, metadata !DIExpression()), !dbg !5660
  %69 = alloca %"class.std::__1::unique_ptr.1"*, align 8
  call void @llvm.dbg.declare(metadata %"class.std::__1::unique_ptr.1"** %69, metadata !5661, metadata !DIExpression()), !dbg !5662
  %70 = alloca %"class.altered_carbon::js::ACAstBaseNode"*, align 8
  %71 = alloca %"class.std::__1::unique_ptr.1"*, align 8
  call void @llvm.dbg.declare(metadata %"class.std::__1::unique_ptr.1"** %71, metadata !5663, metadata !DIExpression()), !dbg !5664
  %72 = alloca %"class.std::__1::unique_ptr.1"*, align 8
  call void @llvm.dbg.declare(metadata %"class.std::__1::unique_ptr.1"** %72, metadata !5665, metadata !DIExpression()), !dbg !5666
  %73 = alloca %"class.std::__1::unique_ptr.1"*, align 8
  call void @llvm.dbg.declare(metadata %"class.std::__1::unique_ptr.1"** %73, metadata !5667, metadata !DIExpression()), !dbg !5674
  %74 = alloca %"class.std::__1::allocator"*, align 8
  call void @llvm.dbg.declare(metadata %"class.std::__1::allocator"** %74, metadata !5676, metadata !DIExpression()), !dbg !5678
  %75 = alloca %"class.std::__1::unique_ptr.1"*, align 8
  call void @llvm.dbg.declare(metadata %"class.std::__1::unique_ptr.1"** %75, metadata !5679, metadata !DIExpression()), !dbg !5680
  %76 = alloca %"class.std::__1::unique_ptr.1"*, align 8
  call void @llvm.dbg.declare(metadata %"class.std::__1::unique_ptr.1"** %76, metadata !5681, metadata !DIExpression()), !dbg !5682
  %77 = alloca %"class.std::__1::unique_ptr.1"*, align 8
  call void @llvm.dbg.declare(metadata %"class.std::__1::unique_ptr.1"** %77, metadata !5667, metadata !DIExpression()), !dbg !5683
  %78 = alloca %"class.std::__1::allocator"*, align 8
  call void @llvm.dbg.declare(metadata %"class.std::__1::allocator"** %78, metadata !5685, metadata !DIExpression()), !dbg !5686
  %79 = alloca %"class.std::__1::unique_ptr.1"*, align 8
  call void @llvm.dbg.declare(metadata %"class.std::__1::unique_ptr.1"** %79, metadata !5687, metadata !DIExpression()), !dbg !5688
  %80 = alloca %"class.std::__1::unique_ptr.1"*, align 8
  call void @llvm.dbg.declare(metadata %"class.std::__1::unique_ptr.1"** %80, metadata !5689, metadata !DIExpression()), !dbg !5690
  %81 = alloca %"class.std::__1::unique_ptr.1"*, align 8
  call void @llvm.dbg.declare(metadata %"class.std::__1::unique_ptr.1"** %81, metadata !5667, metadata !DIExpression()), !dbg !5691
  %82 = alloca %"class.std::__1::allocator"*, align 8
  call void @llvm.dbg.declare(metadata %"class.std::__1::allocator"** %82, metadata !5693, metadata !DIExpression()), !dbg !5694
  %83 = alloca %"class.std::__1::unique_ptr.1"*, align 8
  call void @llvm.dbg.declare(metadata %"class.std::__1::unique_ptr.1"** %83, metadata !5695, metadata !DIExpression()), !dbg !5696
  %84 = alloca %"class.std::__1::unique_ptr.1"*, align 8
  call void @llvm.dbg.declare(metadata %"class.std::__1::unique_ptr.1"** %84, metadata !5697, metadata !DIExpression()), !dbg !5698
  %85 = alloca %"struct.std::__1::__has_construct", align 1
  %86 = alloca %"struct.std::__1::vector<std::__1::unique_ptr<altered_carbon::js::ACAstBaseNode, std::__1::default_delete<altered_carbon::js::ACAstBaseNode> >, std::__1::allocator<std::__1::unique_ptr<altered_carbon::js::ACAstBaseNode, std::__1::default_delete<altered_carbon::js::ACAstBaseNode> > > >::__RAII_IncreaseAnnotator"*, align 8
  call void @llvm.dbg.declare(metadata %"struct.std::__1::vector<std::__1::unique_ptr<altered_carbon::js::ACAstBaseNode, std::__1::default_delete<altered_carbon::js::ACAstBaseNode> >, std::__1::allocator<std::__1::unique_ptr<altered_carbon::js::ACAstBaseNode, std::__1::default_delete<altered_carbon::js::ACAstBaseNode> > > >::__RAII_IncreaseAnnotator"** %86, metadata !5699, metadata !DIExpression()), !dbg !5711
  %87 = alloca %"class.std::__1::unique_ptr.1"*, align 8
  call void @llvm.dbg.declare(metadata %"class.std::__1::unique_ptr.1"** %87, metadata !5521, metadata !DIExpression()), !dbg !5713
  %88 = alloca %"struct.std::__1::vector<std::__1::unique_ptr<altered_carbon::js::ACAstBaseNode, std::__1::default_delete<altered_carbon::js::ACAstBaseNode> >, std::__1::allocator<std::__1::unique_ptr<altered_carbon::js::ACAstBaseNode, std::__1::default_delete<altered_carbon::js::ACAstBaseNode> > > >::__RAII_IncreaseAnnotator"*, align 8
  call void @llvm.dbg.declare(metadata %"struct.std::__1::vector<std::__1::unique_ptr<altered_carbon::js::ACAstBaseNode, std::__1::default_delete<altered_carbon::js::ACAstBaseNode> >, std::__1::allocator<std::__1::unique_ptr<altered_carbon::js::ACAstBaseNode, std::__1::default_delete<altered_carbon::js::ACAstBaseNode> > > >::__RAII_IncreaseAnnotator"** %88, metadata !5715, metadata !DIExpression()), !dbg !5717
  %89 = alloca %"class.std::__1::vector"*, align 8
  call void @llvm.dbg.declare(metadata %"class.std::__1::vector"** %89, metadata !5721, metadata !DIExpression()), !dbg !5722
  %90 = alloca i64, align 8
  call void @llvm.dbg.declare(metadata i64* %90, metadata !5723, metadata !DIExpression()), !dbg !5724
  %91 = alloca %"struct.std::__1::vector<std::__1::unique_ptr<altered_carbon::js::ACAstBaseNode, std::__1::default_delete<altered_carbon::js::ACAstBaseNode> >, std::__1::allocator<std::__1::unique_ptr<altered_carbon::js::ACAstBaseNode, std::__1::default_delete<altered_carbon::js::ACAstBaseNode> > > >::__RAII_IncreaseAnnotator"*, align 8
  call void @llvm.dbg.declare(metadata %"struct.std::__1::vector<std::__1::unique_ptr<altered_carbon::js::ACAstBaseNode, std::__1::default_delete<altered_carbon::js::ACAstBaseNode> >, std::__1::allocator<std::__1::unique_ptr<altered_carbon::js::ACAstBaseNode, std::__1::default_delete<altered_carbon::js::ACAstBaseNode> > > >::__RAII_IncreaseAnnotator"** %91, metadata !5725, metadata !DIExpression()), !dbg !5726
  %92 = alloca %"class.std::__1::vector"*, align 8
  call void @llvm.dbg.declare(metadata %"class.std::__1::vector"** %92, metadata !5727, metadata !DIExpression()), !dbg !5728
  %93 = alloca i64, align 8
  call void @llvm.dbg.declare(metadata i64* %93, metadata !5729, metadata !DIExpression()), !dbg !5730
  %94 = alloca %"struct.std::__1::__compressed_pair_elem.8"*, align 8
  call void @llvm.dbg.declare(metadata %"struct.std::__1::__compressed_pair_elem.8"** %94, metadata !5731, metadata !DIExpression()), !dbg !5734
  %95 = alloca %"class.std::__1::__compressed_pair.7"*, align 8
  call void @llvm.dbg.declare(metadata %"class.std::__1::__compressed_pair.7"** %95, metadata !5740, metadata !DIExpression()), !dbg !5741
  %96 = alloca %"class.std::__1::__vector_base"*, align 8
  call void @llvm.dbg.declare(metadata %"class.std::__1::__vector_base"** %96, metadata !5742, metadata !DIExpression()), !dbg !5743
  %97 = alloca %"class.std::__1::vector"*, align 8
  call void @llvm.dbg.declare(metadata %"class.std::__1::vector"** %97, metadata !5744, metadata !DIExpression()), !dbg !5746
  %98 = alloca %"class.std::__1::unique_ptr.1"*, align 8
  call void @llvm.dbg.declare(metadata %"class.std::__1::unique_ptr.1"** %98, metadata !5747, metadata !DIExpression()), !dbg !5748
  %99 = alloca %"struct.std::__1::vector<std::__1::unique_ptr<altered_carbon::js::ACAstBaseNode, std::__1::default_delete<altered_carbon::js::ACAstBaseNode> >, std::__1::allocator<std::__1::unique_ptr<altered_carbon::js::ACAstBaseNode, std::__1::default_delete<altered_carbon::js::ACAstBaseNode> > > >::__RAII_IncreaseAnnotator", align 1
  call void @llvm.dbg.declare(metadata %"struct.std::__1::vector<std::__1::unique_ptr<altered_carbon::js::ACAstBaseNode, std::__1::default_delete<altered_carbon::js::ACAstBaseNode> >, std::__1::allocator<std::__1::unique_ptr<altered_carbon::js::ACAstBaseNode, std::__1::default_delete<altered_carbon::js::ACAstBaseNode> > > >::__RAII_IncreaseAnnotator"* %99, metadata !5749, metadata !DIExpression()), !dbg !5750
  %100 = alloca %"class.std::__1::unique_ptr.10"*, align 8
  call void @llvm.dbg.declare(metadata %"class.std::__1::unique_ptr.10"** %100, metadata !5751, metadata !DIExpression()), !dbg !5760
  %101 = alloca %"struct.std::__1::__compressed_pair_elem.0"*, align 8
  call void @llvm.dbg.declare(metadata %"struct.std::__1::__compressed_pair_elem.0"** %101, metadata !5762, metadata !DIExpression()), !dbg !5765
  %102 = alloca %"class.std::__1::__compressed_pair"*, align 8
  call void @llvm.dbg.declare(metadata %"class.std::__1::__compressed_pair"** %102, metadata !5777, metadata !DIExpression()), !dbg !5779
  %103 = alloca %"struct.std::__1::__compressed_pair_elem"*, align 8
  call void @llvm.dbg.declare(metadata %"struct.std::__1::__compressed_pair_elem"** %103, metadata !5780, metadata !DIExpression()), !dbg !5783
  %104 = alloca %"class.std::__1::__compressed_pair"*, align 8
  call void @llvm.dbg.declare(metadata %"class.std::__1::__compressed_pair"** %104, metadata !5787, metadata !DIExpression()), !dbg !5788
  %105 = alloca %"struct.std::__1::default_delete"*, align 8
  call void @llvm.dbg.declare(metadata %"struct.std::__1::default_delete"** %105, metadata !5789, metadata !DIExpression()), !dbg !5792
  %106 = alloca %"struct.altered_carbon::js::ACLexPosition"*, align 8
  call void @llvm.dbg.declare(metadata %"struct.altered_carbon::js::ACLexPosition"** %106, metadata !5794, metadata !DIExpression()), !dbg !5795
  %107 = alloca %"struct.std::__1::__compressed_pair_elem"*, align 8
  call void @llvm.dbg.declare(metadata %"struct.std::__1::__compressed_pair_elem"** %107, metadata !5780, metadata !DIExpression()), !dbg !5796
  %108 = alloca %"class.std::__1::__compressed_pair"*, align 8
  call void @llvm.dbg.declare(metadata %"class.std::__1::__compressed_pair"** %108, metadata !5787, metadata !DIExpression()), !dbg !5799
  %109 = alloca %"class.std::__1::unique_ptr"*, align 8
  call void @llvm.dbg.declare(metadata %"class.std::__1::unique_ptr"** %109, metadata !5800, metadata !DIExpression()), !dbg !5802
  %110 = alloca %"struct.altered_carbon::js::ACLexPosition"*, align 8
  call void @llvm.dbg.declare(metadata %"struct.altered_carbon::js::ACLexPosition"** %110, metadata !5803, metadata !DIExpression()), !dbg !5804
  %111 = alloca %"struct.altered_carbon::js::ACLexPosition"*, align 8
  call void @llvm.dbg.declare(metadata %"struct.altered_carbon::js::ACLexPosition"** %111, metadata !5805, metadata !DIExpression()), !dbg !5806
  %112 = alloca %"class.std::__1::unique_ptr"*, align 8
  call void @llvm.dbg.declare(metadata %"class.std::__1::unique_ptr"** %112, metadata !5807, metadata !DIExpression()), !dbg !5808
  %113 = alloca %"class.std::__1::unique_ptr"*, align 8
  call void @llvm.dbg.declare(metadata %"class.std::__1::unique_ptr"** %113, metadata !5809, metadata !DIExpression()), !dbg !5810
  %114 = alloca %"struct.std::__1::__compressed_pair_elem.4"*, align 8
  call void @llvm.dbg.declare(metadata %"struct.std::__1::__compressed_pair_elem.4"** %114, metadata !5532, metadata !DIExpression()), !dbg !5811
  %115 = alloca %"class.std::__1::__compressed_pair.2"*, align 8
  call void @llvm.dbg.declare(metadata %"class.std::__1::__compressed_pair.2"** %115, metadata !5565, metadata !DIExpression()), !dbg !5822
  %116 = alloca %"struct.std::__1::__compressed_pair_elem.3"*, align 8
  call void @llvm.dbg.declare(metadata %"struct.std::__1::__compressed_pair_elem.3"** %116, metadata !5641, metadata !DIExpression()), !dbg !5823
  %117 = alloca %"class.std::__1::__compressed_pair.2"*, align 8
  call void @llvm.dbg.declare(metadata %"class.std::__1::__compressed_pair.2"** %117, metadata !5649, metadata !DIExpression()), !dbg !5826
  %118 = alloca %"struct.std::__1::default_delete.5"*, align 8
  call void @llvm.dbg.declare(metadata %"struct.std::__1::default_delete.5"** %118, metadata !5827, metadata !DIExpression()), !dbg !5830
  %119 = alloca %"class.altered_carbon::js::ACAstBaseNode"*, align 8
  call void @llvm.dbg.declare(metadata %"class.altered_carbon::js::ACAstBaseNode"** %119, metadata !5832, metadata !DIExpression()), !dbg !5833
  %120 = alloca %"struct.std::__1::__compressed_pair_elem.3"*, align 8
  call void @llvm.dbg.declare(metadata %"struct.std::__1::__compressed_pair_elem.3"** %120, metadata !5641, metadata !DIExpression()), !dbg !5834
  %121 = alloca %"class.std::__1::__compressed_pair.2"*, align 8
  call void @llvm.dbg.declare(metadata %"class.std::__1::__compressed_pair.2"** %121, metadata !5649, metadata !DIExpression()), !dbg !5837
  %122 = alloca %"class.std::__1::unique_ptr.1"*, align 8
  call void @llvm.dbg.declare(metadata %"class.std::__1::unique_ptr.1"** %122, metadata !5838, metadata !DIExpression()), !dbg !5839
  %123 = alloca %"class.altered_carbon::js::ACAstBaseNode"*, align 8
  call void @llvm.dbg.declare(metadata %"class.altered_carbon::js::ACAstBaseNode"** %123, metadata !5840, metadata !DIExpression()), !dbg !5841
  %124 = alloca %"class.altered_carbon::js::ACAstBaseNode"*, align 8
  call void @llvm.dbg.declare(metadata %"class.altered_carbon::js::ACAstBaseNode"** %124, metadata !5842, metadata !DIExpression()), !dbg !5843
  %125 = alloca %"class.std::__1::unique_ptr.1"*, align 8
  call void @llvm.dbg.declare(metadata %"class.std::__1::unique_ptr.1"** %125, metadata !5844, metadata !DIExpression()), !dbg !5845
  %126 = alloca %"class.std::__1::unique_ptr.1"*, align 8
  call void @llvm.dbg.declare(metadata %"class.std::__1::unique_ptr.1"** %126, metadata !5846, metadata !DIExpression()), !dbg !5847
  %127 = alloca %"struct.std::__1::__compressed_pair_elem.3"*, align 8
  call void @llvm.dbg.declare(metadata %"struct.std::__1::__compressed_pair_elem.3"** %127, metadata !5848, metadata !DIExpression()), !dbg !5851
  %128 = alloca %"class.std::__1::__compressed_pair.2"*, align 8
  call void @llvm.dbg.declare(metadata %"class.std::__1::__compressed_pair.2"** %128, metadata !5858, metadata !DIExpression()), !dbg !5860
  %129 = alloca %"class.std::__1::unique_ptr.1"*, align 8
  call void @llvm.dbg.declare(metadata %"class.std::__1::unique_ptr.1"** %129, metadata !5861, metadata !DIExpression()), !dbg !5862
  %130 = alloca %"class.std::__1::unique_ptr.1"*, align 8
  call void @llvm.dbg.declare(metadata %"class.std::__1::unique_ptr.1"** %130, metadata !5521, metadata !DIExpression()), !dbg !5863
  %131 = alloca %"struct.std::__1::__compressed_pair_elem.0"*, align 8
  call void @llvm.dbg.declare(metadata %"struct.std::__1::__compressed_pair_elem.0"** %131, metadata !5762, metadata !DIExpression()), !dbg !5866
  %132 = alloca %"class.std::__1::__compressed_pair"*, align 8
  call void @llvm.dbg.declare(metadata %"class.std::__1::__compressed_pair"** %132, metadata !5777, metadata !DIExpression()), !dbg !5875
  %133 = alloca %"class.std::__1::unique_ptr"*, align 8
  call void @llvm.dbg.declare(metadata %"class.std::__1::unique_ptr"** %133, metadata !5876, metadata !DIExpression()), !dbg !5877
  %134 = alloca %"struct.std::__1::default_delete"*, align 8
  call void @llvm.dbg.declare(metadata %"struct.std::__1::default_delete"** %134, metadata !5878, metadata !DIExpression()), !dbg !5887
  %135 = alloca %"struct.altered_carbon::js::ACLexPosition"**, align 8
  call void @llvm.dbg.declare(metadata %"struct.altered_carbon::js::ACLexPosition"*** %135, metadata !5889, metadata !DIExpression()), !dbg !5898
  %136 = alloca %"struct.std::__1::__compressed_pair_elem"*, align 8
  call void @llvm.dbg.declare(metadata %"struct.std::__1::__compressed_pair_elem"** %136, metadata !5917, metadata !DIExpression()), !dbg !5918
  %137 = alloca %"struct.altered_carbon::js::ACLexPosition"**, align 8
  call void @llvm.dbg.declare(metadata %"struct.altered_carbon::js::ACLexPosition"*** %137, metadata !5919, metadata !DIExpression()), !dbg !5920
  %138 = alloca %"struct.std::__1::default_delete"*, align 8
  call void @llvm.dbg.declare(metadata %"struct.std::__1::default_delete"** %138, metadata !5878, metadata !DIExpression()), !dbg !5921
  %139 = alloca %"struct.std::__1::default_delete"*, align 8
  call void @llvm.dbg.declare(metadata %"struct.std::__1::default_delete"** %139, metadata !5878, metadata !DIExpression()), !dbg !5923
  %140 = alloca %"struct.std::__1::__compressed_pair_elem.0"*, align 8
  call void @llvm.dbg.declare(metadata %"struct.std::__1::__compressed_pair_elem.0"** %140, metadata !5932, metadata !DIExpression()), !dbg !5933
  %141 = alloca %"struct.std::__1::default_delete"*, align 8
  call void @llvm.dbg.declare(metadata %"struct.std::__1::default_delete"** %141, metadata !5934, metadata !DIExpression()), !dbg !5935
  %142 = alloca %"struct.altered_carbon::js::ACLexPosition"**, align 8
  call void @llvm.dbg.declare(metadata %"struct.altered_carbon::js::ACLexPosition"*** %142, metadata !5889, metadata !DIExpression()), !dbg !5936
  %143 = alloca %"class.std::__1::__compressed_pair"*, align 8
  call void @llvm.dbg.declare(metadata %"class.std::__1::__compressed_pair"** %143, metadata !5938, metadata !DIExpression()), !dbg !5939
  %144 = alloca %"struct.altered_carbon::js::ACLexPosition"**, align 8
  call void @llvm.dbg.declare(metadata %"struct.altered_carbon::js::ACLexPosition"*** %144, metadata !5940, metadata !DIExpression()), !dbg !5941
  %145 = alloca %"struct.std::__1::default_delete"*, align 8
  call void @llvm.dbg.declare(metadata %"struct.std::__1::default_delete"** %145, metadata !5942, metadata !DIExpression()), !dbg !5943
  %146 = alloca %"class.std::__1::__compressed_pair"*, align 8
  call void @llvm.dbg.declare(metadata %"class.std::__1::__compressed_pair"** %146, metadata !5944, metadata !DIExpression()), !dbg !5945
  %147 = alloca %"struct.altered_carbon::js::ACLexPosition"**, align 8
  call void @llvm.dbg.declare(metadata %"struct.altered_carbon::js::ACLexPosition"*** %147, metadata !5946, metadata !DIExpression()), !dbg !5947
  %148 = alloca %"struct.std::__1::default_delete"*, align 8
  call void @llvm.dbg.declare(metadata %"struct.std::__1::default_delete"** %148, metadata !5948, metadata !DIExpression()), !dbg !5949
  %149 = alloca %"struct.std::__1::__compressed_pair_elem"*, align 8
  call void @llvm.dbg.declare(metadata %"struct.std::__1::__compressed_pair_elem"** %149, metadata !5780, metadata !DIExpression()), !dbg !5950
  %150 = alloca %"class.std::__1::__compressed_pair"*, align 8
  call void @llvm.dbg.declare(metadata %"class.std::__1::__compressed_pair"** %150, metadata !5787, metadata !DIExpression()), !dbg !5955
  %151 = alloca %"struct.std::__1::__compressed_pair_elem"*, align 8
  call void @llvm.dbg.declare(metadata %"struct.std::__1::__compressed_pair_elem"** %151, metadata !5780, metadata !DIExpression()), !dbg !5956
  %152 = alloca %"class.std::__1::__compressed_pair"*, align 8
  call void @llvm.dbg.declare(metadata %"class.std::__1::__compressed_pair"** %152, metadata !5787, metadata !DIExpression()), !dbg !5959
  %153 = alloca %"class.std::__1::unique_ptr"*, align 8
  call void @llvm.dbg.declare(metadata %"class.std::__1::unique_ptr"** %153, metadata !5960, metadata !DIExpression()), !dbg !5961
  %154 = alloca %"struct.altered_carbon::js::ACLexPosition"*, align 8
  call void @llvm.dbg.declare(metadata %"struct.altered_carbon::js::ACLexPosition"** %154, metadata !5962, metadata !DIExpression()), !dbg !5963
  %155 = alloca %"class.std::__1::unique_ptr"*, align 8
  call void @llvm.dbg.declare(metadata %"class.std::__1::unique_ptr"** %155, metadata !5964, metadata !DIExpression()), !dbg !5965
  %156 = alloca %"class.std::__1::unique_ptr"*, align 8
  call void @llvm.dbg.declare(metadata %"class.std::__1::unique_ptr"** %156, metadata !5966, metadata !DIExpression()), !dbg !5967
  %157 = alloca %"struct.altered_carbon::js::ACLexPosition"*, align 8
  %158 = alloca %"class.std::__1::unique_ptr"*, align 8
  call void @llvm.dbg.declare(metadata %"class.std::__1::unique_ptr"** %158, metadata !5968, metadata !DIExpression()), !dbg !5969
  %159 = alloca %"class.std::__1::unique_ptr"*, align 8
  call void @llvm.dbg.declare(metadata %"class.std::__1::unique_ptr"** %159, metadata !5970, metadata !DIExpression()), !dbg !5971
  %160 = alloca %"struct.std::__1::__compressed_pair_elem.9"*, align 8
  call void @llvm.dbg.declare(metadata %"struct.std::__1::__compressed_pair_elem.9"** %160, metadata !5496, metadata !DIExpression()), !dbg !5972
  %161 = alloca %"class.std::__1::__compressed_pair.7"*, align 8
  call void @llvm.dbg.declare(metadata %"class.std::__1::__compressed_pair.7"** %161, metadata !5509, metadata !DIExpression()), !dbg !5977
  %162 = alloca %"class.std::__1::__vector_base"*, align 8
  call void @llvm.dbg.declare(metadata %"class.std::__1::__vector_base"** %162, metadata !5512, metadata !DIExpression()), !dbg !5978
  %163 = alloca %"class.std::__1::unique_ptr.1"*, align 8
  call void @llvm.dbg.declare(metadata %"class.std::__1::unique_ptr.1"** %163, metadata !5515, metadata !DIExpression()), !dbg !5979
  %164 = alloca %"class.std::__1::unique_ptr.1"*, align 8
  call void @llvm.dbg.declare(metadata %"class.std::__1::unique_ptr.1"** %164, metadata !5521, metadata !DIExpression()), !dbg !5981
  %165 = alloca %"struct.std::__1::__compressed_pair_elem.4"*, align 8
  call void @llvm.dbg.declare(metadata %"struct.std::__1::__compressed_pair_elem.4"** %165, metadata !5532, metadata !DIExpression()), !dbg !5983
  %166 = alloca %"class.std::__1::__compressed_pair.2"*, align 8
  call void @llvm.dbg.declare(metadata %"class.std::__1::__compressed_pair.2"** %166, metadata !5565, metadata !DIExpression()), !dbg !5992
  %167 = alloca %"class.std::__1::unique_ptr.1"*, align 8
  call void @llvm.dbg.declare(metadata %"class.std::__1::unique_ptr.1"** %167, metadata !5567, metadata !DIExpression()), !dbg !5993
  %168 = alloca %"struct.std::__1::default_delete.5"*, align 8
  call void @llvm.dbg.declare(metadata %"struct.std::__1::default_delete.5"** %168, metadata !5569, metadata !DIExpression()), !dbg !5994
  %169 = alloca %"class.altered_carbon::js::ACAstBaseNode"**, align 8
  call void @llvm.dbg.declare(metadata %"class.altered_carbon::js::ACAstBaseNode"*** %169, metadata !5580, metadata !DIExpression()), !dbg !5996
  %170 = alloca %"struct.std::__1::__compressed_pair_elem.3"*, align 8
  call void @llvm.dbg.declare(metadata %"struct.std::__1::__compressed_pair_elem.3"** %170, metadata !5608, metadata !DIExpression()), !dbg !6001
  %171 = alloca %"class.altered_carbon::js::ACAstBaseNode"**, align 8
  call void @llvm.dbg.declare(metadata %"class.altered_carbon::js::ACAstBaseNode"*** %171, metadata !5610, metadata !DIExpression()), !dbg !6002
  %172 = alloca %"struct.std::__1::default_delete.5"*, align 8
  call void @llvm.dbg.declare(metadata %"struct.std::__1::default_delete.5"** %172, metadata !5569, metadata !DIExpression()), !dbg !6003
  %173 = alloca %"struct.std::__1::default_delete.5"*, align 8
  call void @llvm.dbg.declare(metadata %"struct.std::__1::default_delete.5"** %173, metadata !5569, metadata !DIExpression()), !dbg !6005
  %174 = alloca %"struct.std::__1::__compressed_pair_elem.4"*, align 8
  call void @llvm.dbg.declare(metadata %"struct.std::__1::__compressed_pair_elem.4"** %174, metadata !5623, metadata !DIExpression()), !dbg !6008
  %175 = alloca %"struct.std::__1::default_delete.5"*, align 8
  call void @llvm.dbg.declare(metadata %"struct.std::__1::default_delete.5"** %175, metadata !5625, metadata !DIExpression()), !dbg !6009
  %176 = alloca %"class.altered_carbon::js::ACAstBaseNode"**, align 8
  call void @llvm.dbg.declare(metadata %"class.altered_carbon::js::ACAstBaseNode"*** %176, metadata !5580, metadata !DIExpression()), !dbg !6010
  %177 = alloca %"class.std::__1::__compressed_pair.2"*, align 8
  call void @llvm.dbg.declare(metadata %"class.std::__1::__compressed_pair.2"** %177, metadata !5629, metadata !DIExpression()), !dbg !6012
  %178 = alloca %"class.altered_carbon::js::ACAstBaseNode"**, align 8
  call void @llvm.dbg.declare(metadata %"class.altered_carbon::js::ACAstBaseNode"*** %178, metadata !5631, metadata !DIExpression()), !dbg !6013
  %179 = alloca %"struct.std::__1::default_delete.5"*, align 8
  call void @llvm.dbg.declare(metadata %"struct.std::__1::default_delete.5"** %179, metadata !5633, metadata !DIExpression()), !dbg !6014
  %180 = alloca %"class.std::__1::__compressed_pair.2"*, align 8
  call void @llvm.dbg.declare(metadata %"class.std::__1::__compressed_pair.2"** %180, metadata !5635, metadata !DIExpression()), !dbg !6015
  %181 = alloca %"class.altered_carbon::js::ACAstBaseNode"**, align 8
  call void @llvm.dbg.declare(metadata %"class.altered_carbon::js::ACAstBaseNode"*** %181, metadata !5637, metadata !DIExpression()), !dbg !6016
  %182 = alloca %"struct.std::__1::default_delete.5"*, align 8
  call void @llvm.dbg.declare(metadata %"struct.std::__1::default_delete.5"** %182, metadata !5639, metadata !DIExpression()), !dbg !6017
  %183 = alloca %"struct.std::__1::__compressed_pair_elem.3"*, align 8
  call void @llvm.dbg.declare(metadata %"struct.std::__1::__compressed_pair_elem.3"** %183, metadata !5641, metadata !DIExpression()), !dbg !6018
  %184 = alloca %"class.std::__1::__compressed_pair.2"*, align 8
  call void @llvm.dbg.declare(metadata %"class.std::__1::__compressed_pair.2"** %184, metadata !5649, metadata !DIExpression()), !dbg !6022
  %185 = alloca %"struct.std::__1::__compressed_pair_elem.3"*, align 8
  call void @llvm.dbg.declare(metadata %"struct.std::__1::__compressed_pair_elem.3"** %185, metadata !5641, metadata !DIExpression()), !dbg !6023
  %186 = alloca %"class.std::__1::__compressed_pair.2"*, align 8
  call void @llvm.dbg.declare(metadata %"class.std::__1::__compressed_pair.2"** %186, metadata !5649, metadata !DIExpression()), !dbg !6026
  %187 = alloca %"class.std::__1::unique_ptr.1"*, align 8
  call void @llvm.dbg.declare(metadata %"class.std::__1::unique_ptr.1"** %187, metadata !5655, metadata !DIExpression()), !dbg !6027
  %188 = alloca %"class.altered_carbon::js::ACAstBaseNode"*, align 8
  call void @llvm.dbg.declare(metadata %"class.altered_carbon::js::ACAstBaseNode"** %188, metadata !5657, metadata !DIExpression()), !dbg !6028
  %189 = alloca %"class.std::__1::unique_ptr.1"*, align 8
  call void @llvm.dbg.declare(metadata %"class.std::__1::unique_ptr.1"** %189, metadata !5659, metadata !DIExpression()), !dbg !6029
  %190 = alloca %"class.std::__1::unique_ptr.1"*, align 8
  call void @llvm.dbg.declare(metadata %"class.std::__1::unique_ptr.1"** %190, metadata !5661, metadata !DIExpression()), !dbg !6030
  %191 = alloca %"class.altered_carbon::js::ACAstBaseNode"*, align 8
  %192 = alloca %"class.std::__1::unique_ptr.1"*, align 8
  call void @llvm.dbg.declare(metadata %"class.std::__1::unique_ptr.1"** %192, metadata !5663, metadata !DIExpression()), !dbg !6031
  %193 = alloca %"class.std::__1::unique_ptr.1"*, align 8
  call void @llvm.dbg.declare(metadata %"class.std::__1::unique_ptr.1"** %193, metadata !5665, metadata !DIExpression()), !dbg !6032
  %194 = alloca %"class.std::__1::unique_ptr.1"*, align 8
  call void @llvm.dbg.declare(metadata %"class.std::__1::unique_ptr.1"** %194, metadata !5667, metadata !DIExpression()), !dbg !6033
  %195 = alloca %"class.std::__1::allocator"*, align 8
  call void @llvm.dbg.declare(metadata %"class.std::__1::allocator"** %195, metadata !5676, metadata !DIExpression()), !dbg !6035
  %196 = alloca %"class.std::__1::unique_ptr.1"*, align 8
  call void @llvm.dbg.declare(metadata %"class.std::__1::unique_ptr.1"** %196, metadata !5679, metadata !DIExpression()), !dbg !6036
  %197 = alloca %"class.std::__1::unique_ptr.1"*, align 8
  call void @llvm.dbg.declare(metadata %"class.std::__1::unique_ptr.1"** %197, metadata !5681, metadata !DIExpression()), !dbg !6037
  %198 = alloca %"class.std::__1::unique_ptr.1"*, align 8
  call void @llvm.dbg.declare(metadata %"class.std::__1::unique_ptr.1"** %198, metadata !5667, metadata !DIExpression()), !dbg !6038
  %199 = alloca %"class.std::__1::allocator"*, align 8
  call void @llvm.dbg.declare(metadata %"class.std::__1::allocator"** %199, metadata !5685, metadata !DIExpression()), !dbg !6040
  %200 = alloca %"class.std::__1::unique_ptr.1"*, align 8
  call void @llvm.dbg.declare(metadata %"class.std::__1::unique_ptr.1"** %200, metadata !5687, metadata !DIExpression()), !dbg !6041
  %201 = alloca %"class.std::__1::unique_ptr.1"*, align 8
  call void @llvm.dbg.declare(metadata %"class.std::__1::unique_ptr.1"** %201, metadata !5689, metadata !DIExpression()), !dbg !6042
  %202 = alloca %"class.std::__1::unique_ptr.1"*, align 8
  call void @llvm.dbg.declare(metadata %"class.std::__1::unique_ptr.1"** %202, metadata !5667, metadata !DIExpression()), !dbg !6043
  %203 = alloca %"class.std::__1::allocator"*, align 8
  call void @llvm.dbg.declare(metadata %"class.std::__1::allocator"** %203, metadata !5693, metadata !DIExpression()), !dbg !6045
  %204 = alloca %"class.std::__1::unique_ptr.1"*, align 8
  call void @llvm.dbg.declare(metadata %"class.std::__1::unique_ptr.1"** %204, metadata !5695, metadata !DIExpression()), !dbg !6046
  %205 = alloca %"class.std::__1::unique_ptr.1"*, align 8
  call void @llvm.dbg.declare(metadata %"class.std::__1::unique_ptr.1"** %205, metadata !5697, metadata !DIExpression()), !dbg !6047
  %206 = alloca %"struct.std::__1::__has_construct", align 1
  %207 = alloca %"struct.std::__1::vector<std::__1::unique_ptr<altered_carbon::js::ACAstBaseNode, std::__1::default_delete<altered_carbon::js::ACAstBaseNode> >, std::__1::allocator<std::__1::unique_ptr<altered_carbon::js::ACAstBaseNode, std::__1::default_delete<altered_carbon::js::ACAstBaseNode> > > >::__RAII_IncreaseAnnotator"*, align 8
  call void @llvm.dbg.declare(metadata %"struct.std::__1::vector<std::__1::unique_ptr<altered_carbon::js::ACAstBaseNode, std::__1::default_delete<altered_carbon::js::ACAstBaseNode> >, std::__1::allocator<std::__1::unique_ptr<altered_carbon::js::ACAstBaseNode, std::__1::default_delete<altered_carbon::js::ACAstBaseNode> > > >::__RAII_IncreaseAnnotator"** %207, metadata !5699, metadata !DIExpression()), !dbg !6048
  %208 = alloca %"class.std::__1::unique_ptr.1"*, align 8
  call void @llvm.dbg.declare(metadata %"class.std::__1::unique_ptr.1"** %208, metadata !5521, metadata !DIExpression()), !dbg !6050
  %209 = alloca %"struct.std::__1::vector<std::__1::unique_ptr<altered_carbon::js::ACAstBaseNode, std::__1::default_delete<altered_carbon::js::ACAstBaseNode> >, std::__1::allocator<std::__1::unique_ptr<altered_carbon::js::ACAstBaseNode, std::__1::default_delete<altered_carbon::js::ACAstBaseNode> > > >::__RAII_IncreaseAnnotator"*, align 8
  call void @llvm.dbg.declare(metadata %"struct.std::__1::vector<std::__1::unique_ptr<altered_carbon::js::ACAstBaseNode, std::__1::default_delete<altered_carbon::js::ACAstBaseNode> >, std::__1::allocator<std::__1::unique_ptr<altered_carbon::js::ACAstBaseNode, std::__1::default_delete<altered_carbon::js::ACAstBaseNode> > > >::__RAII_IncreaseAnnotator"** %209, metadata !5715, metadata !DIExpression()), !dbg !6052
  %210 = alloca %"class.std::__1::vector"*, align 8
  call void @llvm.dbg.declare(metadata %"class.std::__1::vector"** %210, metadata !5721, metadata !DIExpression()), !dbg !6055
  %211 = alloca i64, align 8
  call void @llvm.dbg.declare(metadata i64* %211, metadata !5723, metadata !DIExpression()), !dbg !6056
  %212 = alloca %"struct.std::__1::vector<std::__1::unique_ptr<altered_carbon::js::ACAstBaseNode, std::__1::default_delete<altered_carbon::js::ACAstBaseNode> >, std::__1::allocator<std::__1::unique_ptr<altered_carbon::js::ACAstBaseNode, std::__1::default_delete<altered_carbon::js::ACAstBaseNode> > > >::__RAII_IncreaseAnnotator"*, align 8
  call void @llvm.dbg.declare(metadata %"struct.std::__1::vector<std::__1::unique_ptr<altered_carbon::js::ACAstBaseNode, std::__1::default_delete<altered_carbon::js::ACAstBaseNode> >, std::__1::allocator<std::__1::unique_ptr<altered_carbon::js::ACAstBaseNode, std::__1::default_delete<altered_carbon::js::ACAstBaseNode> > > >::__RAII_IncreaseAnnotator"** %212, metadata !5725, metadata !DIExpression()), !dbg !6057
  %213 = alloca %"class.std::__1::vector"*, align 8
  call void @llvm.dbg.declare(metadata %"class.std::__1::vector"** %213, metadata !5727, metadata !DIExpression()), !dbg !6058
  %214 = alloca i64, align 8
  call void @llvm.dbg.declare(metadata i64* %214, metadata !5729, metadata !DIExpression()), !dbg !6059
  %215 = alloca %"struct.std::__1::__compressed_pair_elem.8"*, align 8
  call void @llvm.dbg.declare(metadata %"struct.std::__1::__compressed_pair_elem.8"** %215, metadata !5731, metadata !DIExpression()), !dbg !6060
  %216 = alloca %"class.std::__1::__compressed_pair.7"*, align 8
  call void @llvm.dbg.declare(metadata %"class.std::__1::__compressed_pair.7"** %216, metadata !5740, metadata !DIExpression()), !dbg !6064
  %217 = alloca %"class.std::__1::__vector_base"*, align 8
  call void @llvm.dbg.declare(metadata %"class.std::__1::__vector_base"** %217, metadata !5742, metadata !DIExpression()), !dbg !6065
  %218 = alloca %"class.std::__1::vector"*, align 8
  call void @llvm.dbg.declare(metadata %"class.std::__1::vector"** %218, metadata !5744, metadata !DIExpression()), !dbg !6066
  %219 = alloca %"class.std::__1::unique_ptr.1"*, align 8
  call void @llvm.dbg.declare(metadata %"class.std::__1::unique_ptr.1"** %219, metadata !5747, metadata !DIExpression()), !dbg !6067
  %220 = alloca %"struct.std::__1::vector<std::__1::unique_ptr<altered_carbon::js::ACAstBaseNode, std::__1::default_delete<altered_carbon::js::ACAstBaseNode> >, std::__1::allocator<std::__1::unique_ptr<altered_carbon::js::ACAstBaseNode, std::__1::default_delete<altered_carbon::js::ACAstBaseNode> > > >::__RAII_IncreaseAnnotator", align 1
  call void @llvm.dbg.declare(metadata %"struct.std::__1::vector<std::__1::unique_ptr<altered_carbon::js::ACAstBaseNode, std::__1::default_delete<altered_carbon::js::ACAstBaseNode> >, std::__1::allocator<std::__1::unique_ptr<altered_carbon::js::ACAstBaseNode, std::__1::default_delete<altered_carbon::js::ACAstBaseNode> > > >::__RAII_IncreaseAnnotator"* %220, metadata !5749, metadata !DIExpression()), !dbg !6068
  %221 = alloca %"class.std::__1::unique_ptr"*, align 8
  call void @llvm.dbg.declare(metadata %"class.std::__1::unique_ptr"** %221, metadata !6069, metadata !DIExpression()), !dbg !6078
  %222 = alloca %"class.altered_carbon::js::ACAstIdentifierParam"*, align 8
  %223 = alloca i32, align 4
  %224 = alloca i32, align 4
  %225 = alloca %"class.std::__1::unique_ptr", align 8
  %226 = alloca %"class.std::__1::unique_ptr.1", align 8
  store %"class.altered_carbon::js::ACAstIdentifierParam"* %0, %"class.altered_carbon::js::ACAstIdentifierParam"** %222, align 8
  call void @llvm.dbg.declare(metadata %"class.altered_carbon::js::ACAstIdentifierParam"** %222, metadata !6080, metadata !DIExpression()), !dbg !6082
  call void @llvm.dbg.declare(metadata %"class.std::__1::unique_ptr"* %1, metadata !6083, metadata !DIExpression()), !dbg !6084
  call void @llvm.dbg.declare(metadata %"class.std::__1::unique_ptr.10"* %2, metadata !6085, metadata !DIExpression()), !dbg !6086
  call void @llvm.dbg.declare(metadata %"class.std::__1::unique_ptr.1"* %3, metadata !6087, metadata !DIExpression()), !dbg !6088
  store i32 %4, i32* %223, align 4
  call void @llvm.dbg.declare(metadata i32* %223, metadata !6089, metadata !DIExpression()), !dbg !6090
  store i32 %5, i32* %224, align 4
  call void @llvm.dbg.declare(metadata i32* %224, metadata !6091, metadata !DIExpression()), !dbg !6092
  %227 = load %"class.altered_carbon::js::ACAstIdentifierParam"*, %"class.altered_carbon::js::ACAstIdentifierParam"** %222, align 8
  %228 = bitcast %"class.altered_carbon::js::ACAstIdentifierParam"* %227 to %"class.altered_carbon::js::ACAstBaseNode"*, !dbg !6093
  store %"class.std::__1::unique_ptr"* %1, %"class.std::__1::unique_ptr"** %221, align 8
  %229 = load %"class.std::__1::unique_ptr"*, %"class.std::__1::unique_ptr"** %221, align 8, !dbg !6094
  store %"class.std::__1::unique_ptr"* %225, %"class.std::__1::unique_ptr"** %158, align 8
  store %"class.std::__1::unique_ptr"* %229, %"class.std::__1::unique_ptr"** %159, align 8
  %230 = load %"class.std::__1::unique_ptr"*, %"class.std::__1::unique_ptr"** %158, align 8
  %231 = load %"class.std::__1::unique_ptr"*, %"class.std::__1::unique_ptr"** %159, align 8, !dbg !6095
  store %"class.std::__1::unique_ptr"* %230, %"class.std::__1::unique_ptr"** %155, align 8
  store %"class.std::__1::unique_ptr"* %231, %"class.std::__1::unique_ptr"** %156, align 8
  %232 = load %"class.std::__1::unique_ptr"*, %"class.std::__1::unique_ptr"** %155, align 8
  %233 = getelementptr inbounds %"class.std::__1::unique_ptr", %"class.std::__1::unique_ptr"* %232, i32 0, i32 0, !dbg !6096
  %234 = load %"class.std::__1::unique_ptr"*, %"class.std::__1::unique_ptr"** %156, align 8, !dbg !6097
  store %"class.std::__1::unique_ptr"* %234, %"class.std::__1::unique_ptr"** %153, align 8
  %235 = load %"class.std::__1::unique_ptr"*, %"class.std::__1::unique_ptr"** %153, align 8
  %236 = getelementptr inbounds %"class.std::__1::unique_ptr", %"class.std::__1::unique_ptr"* %235, i32 0, i32 0, !dbg !6098
  store %"class.std::__1::__compressed_pair"* %236, %"class.std::__1::__compressed_pair"** %152, align 8
  %237 = load %"class.std::__1::__compressed_pair"*, %"class.std::__1::__compressed_pair"** %152, align 8
  %238 = bitcast %"class.std::__1::__compressed_pair"* %237 to %"struct.std::__1::__compressed_pair_elem"*, !dbg !6099
  store %"struct.std::__1::__compressed_pair_elem"* %238, %"struct.std::__1::__compressed_pair_elem"** %151, align 8
  %239 = load %"struct.std::__1::__compressed_pair_elem"*, %"struct.std::__1::__compressed_pair_elem"** %151, align 8
  %240 = getelementptr inbounds %"struct.std::__1::__compressed_pair_elem", %"struct.std::__1::__compressed_pair_elem"* %239, i32 0, i32 0, !dbg !6100
  %241 = load %"struct.altered_carbon::js::ACLexPosition"*, %"struct.altered_carbon::js::ACLexPosition"** %240, align 8, !dbg !6101
  store %"struct.altered_carbon::js::ACLexPosition"* %241, %"struct.altered_carbon::js::ACLexPosition"** %154, align 8, !dbg !5963
  %242 = getelementptr inbounds %"class.std::__1::unique_ptr", %"class.std::__1::unique_ptr"* %235, i32 0, i32 0, !dbg !6102
  store %"class.std::__1::__compressed_pair"* %242, %"class.std::__1::__compressed_pair"** %150, align 8
  %243 = load %"class.std::__1::__compressed_pair"*, %"class.std::__1::__compressed_pair"** %150, align 8
  %244 = bitcast %"class.std::__1::__compressed_pair"* %243 to %"struct.std::__1::__compressed_pair_elem"*, !dbg !6103
  store %"struct.std::__1::__compressed_pair_elem"* %244, %"struct.std::__1::__compressed_pair_elem"** %149, align 8
  %245 = load %"struct.std::__1::__compressed_pair_elem"*, %"struct.std::__1::__compressed_pair_elem"** %149, align 8
  %246 = getelementptr inbounds %"struct.std::__1::__compressed_pair_elem", %"struct.std::__1::__compressed_pair_elem"* %245, i32 0, i32 0, !dbg !6104
  store %"struct.altered_carbon::js::ACLexPosition"* null, %"struct.altered_carbon::js::ACLexPosition"** %246, align 8, !dbg !6105
  %247 = load %"struct.altered_carbon::js::ACLexPosition"*, %"struct.altered_carbon::js::ACLexPosition"** %154, align 8, !dbg !6106
  store %"struct.altered_carbon::js::ACLexPosition"* %247, %"struct.altered_carbon::js::ACLexPosition"** %157, align 8, !dbg !6097
  %248 = load %"class.std::__1::unique_ptr"*, %"class.std::__1::unique_ptr"** %156, align 8, !dbg !6107
  store %"class.std::__1::unique_ptr"* %248, %"class.std::__1::unique_ptr"** %133, align 8
  %249 = load %"class.std::__1::unique_ptr"*, %"class.std::__1::unique_ptr"** %133, align 8
  %250 = getelementptr inbounds %"class.std::__1::unique_ptr", %"class.std::__1::unique_ptr"* %249, i32 0, i32 0, !dbg !6108
  store %"class.std::__1::__compressed_pair"* %250, %"class.std::__1::__compressed_pair"** %132, align 8
  %251 = load %"class.std::__1::__compressed_pair"*, %"class.std::__1::__compressed_pair"** %132, align 8
  %252 = bitcast %"class.std::__1::__compressed_pair"* %251 to %"struct.std::__1::__compressed_pair_elem.0"*, !dbg !6109
  store %"struct.std::__1::__compressed_pair_elem.0"* %252, %"struct.std::__1::__compressed_pair_elem.0"** %131, align 8
  %253 = load %"struct.std::__1::__compressed_pair_elem.0"*, %"struct.std::__1::__compressed_pair_elem.0"** %131, align 8
  %254 = bitcast %"struct.std::__1::__compressed_pair_elem.0"* %253 to %"struct.std::__1::default_delete"*, !dbg !6110
  store %"struct.std::__1::default_delete"* %254, %"struct.std::__1::default_delete"** %134, align 8
  %255 = load %"struct.std::__1::default_delete"*, %"struct.std::__1::default_delete"** %134, align 8, !dbg !6111
  store %"class.std::__1::__compressed_pair"* %233, %"class.std::__1::__compressed_pair"** %146, align 8
  store %"struct.altered_carbon::js::ACLexPosition"** %157, %"struct.altered_carbon::js::ACLexPosition"*** %147, align 8
  store %"struct.std::__1::default_delete"* %255, %"struct.std::__1::default_delete"** %148, align 8
  %256 = load %"class.std::__1::__compressed_pair"*, %"class.std::__1::__compressed_pair"** %146, align 8
  %257 = load %"struct.altered_carbon::js::ACLexPosition"**, %"struct.altered_carbon::js::ACLexPosition"*** %147, align 8, !dbg !6112
  %258 = load %"struct.std::__1::default_delete"*, %"struct.std::__1::default_delete"** %148, align 8, !dbg !6112
  store %"class.std::__1::__compressed_pair"* %256, %"class.std::__1::__compressed_pair"** %143, align 8
  store %"struct.altered_carbon::js::ACLexPosition"** %257, %"struct.altered_carbon::js::ACLexPosition"*** %144, align 8
  store %"struct.std::__1::default_delete"* %258, %"struct.std::__1::default_delete"** %145, align 8
  %259 = load %"class.std::__1::__compressed_pair"*, %"class.std::__1::__compressed_pair"** %143, align 8
  %260 = bitcast %"class.std::__1::__compressed_pair"* %259 to %"struct.std::__1::__compressed_pair_elem"*, !dbg !6113
  %261 = load %"struct.altered_carbon::js::ACLexPosition"**, %"struct.altered_carbon::js::ACLexPosition"*** %144, align 8, !dbg !6114
  store %"struct.altered_carbon::js::ACLexPosition"** %261, %"struct.altered_carbon::js::ACLexPosition"*** %142, align 8
  %262 = load %"struct.altered_carbon::js::ACLexPosition"**, %"struct.altered_carbon::js::ACLexPosition"*** %142, align 8, !dbg !6115
  store %"struct.std::__1::__compressed_pair_elem"* %260, %"struct.std::__1::__compressed_pair_elem"** %136, align 8
  store %"struct.altered_carbon::js::ACLexPosition"** %262, %"struct.altered_carbon::js::ACLexPosition"*** %137, align 8
  %263 = load %"struct.std::__1::__compressed_pair_elem"*, %"struct.std::__1::__compressed_pair_elem"** %136, align 8
  %264 = getelementptr inbounds %"struct.std::__1::__compressed_pair_elem", %"struct.std::__1::__compressed_pair_elem"* %263, i32 0, i32 0, !dbg !6116
  %265 = load %"struct.altered_carbon::js::ACLexPosition"**, %"struct.altered_carbon::js::ACLexPosition"*** %137, align 8, !dbg !6117
  store %"struct.altered_carbon::js::ACLexPosition"** %265, %"struct.altered_carbon::js::ACLexPosition"*** %135, align 8
  %266 = load %"struct.altered_carbon::js::ACLexPosition"**, %"struct.altered_carbon::js::ACLexPosition"*** %135, align 8, !dbg !6118
  %267 = load %"struct.altered_carbon::js::ACLexPosition"*, %"struct.altered_carbon::js::ACLexPosition"** %266, align 8, !dbg !6119
  store %"struct.altered_carbon::js::ACLexPosition"* %267, %"struct.altered_carbon::js::ACLexPosition"** %264, align 8, !dbg !6116
  %268 = bitcast %"class.std::__1::__compressed_pair"* %259 to %"struct.std::__1::__compressed_pair_elem.0"*, !dbg !6113
  %269 = load %"struct.std::__1::default_delete"*, %"struct.std::__1::default_delete"** %145, align 8, !dbg !6120
  store %"struct.std::__1::default_delete"* %269, %"struct.std::__1::default_delete"** %138, align 8
  %270 = load %"struct.std::__1::default_delete"*, %"struct.std::__1::default_delete"** %138, align 8, !dbg !6121
  store %"struct.std::__1::__compressed_pair_elem.0"* %268, %"struct.std::__1::__compressed_pair_elem.0"** %140, align 8
  store %"struct.std::__1::default_delete"* %270, %"struct.std::__1::default_delete"** %141, align 8
  %271 = load %"struct.std::__1::__compressed_pair_elem.0"*, %"struct.std::__1::__compressed_pair_elem.0"** %140, align 8
  %272 = bitcast %"struct.std::__1::__compressed_pair_elem.0"* %271 to %"struct.std::__1::default_delete"*, !dbg !6122
  %273 = load %"struct.std::__1::default_delete"*, %"struct.std::__1::default_delete"** %141, align 8, !dbg !6123
  store %"struct.std::__1::default_delete"* %273, %"struct.std::__1::default_delete"** %139, align 8
  %274 = load %"struct.std::__1::default_delete"*, %"struct.std::__1::default_delete"** %139, align 8, !dbg !6124
  %275 = load i32, i32* %223, align 4, !dbg !6125
  %276 = load i32, i32* %224, align 4, !dbg !6126
  call void @_ZN14altered_carbon2js13ACAstBaseNodeC2ENSt3__110unique_ptrINS0_13ACLexPositionENS2_14default_deleteIS4_EEEENS1_11AstNodeTypeENS1_14AstNodeSubTypeE(%"class.altered_carbon::js::ACAstBaseNode"* %228, %"class.std::__1::unique_ptr"* %225, i32 %275, i32 %276), !dbg !6127
  store %"class.std::__1::unique_ptr"* %225, %"class.std::__1::unique_ptr"** %113, align 8
  %277 = load %"class.std::__1::unique_ptr"*, %"class.std::__1::unique_ptr"** %113, align 8
  store %"class.std::__1::unique_ptr"* %277, %"class.std::__1::unique_ptr"** %112, align 8
  %278 = load %"class.std::__1::unique_ptr"*, %"class.std::__1::unique_ptr"** %112, align 8
  store %"class.std::__1::unique_ptr"* %278, %"class.std::__1::unique_ptr"** %109, align 8
  store %"struct.altered_carbon::js::ACLexPosition"* null, %"struct.altered_carbon::js::ACLexPosition"** %110, align 8
  %279 = load %"class.std::__1::unique_ptr"*, %"class.std::__1::unique_ptr"** %109, align 8
  %280 = getelementptr inbounds %"class.std::__1::unique_ptr", %"class.std::__1::unique_ptr"* %279, i32 0, i32 0, !dbg !6128
  store %"class.std::__1::__compressed_pair"* %280, %"class.std::__1::__compressed_pair"** %108, align 8
  %281 = load %"class.std::__1::__compressed_pair"*, %"class.std::__1::__compressed_pair"** %108, align 8
  %282 = bitcast %"class.std::__1::__compressed_pair"* %281 to %"struct.std::__1::__compressed_pair_elem"*, !dbg !6129
  store %"struct.std::__1::__compressed_pair_elem"* %282, %"struct.std::__1::__compressed_pair_elem"** %107, align 8
  %283 = load %"struct.std::__1::__compressed_pair_elem"*, %"struct.std::__1::__compressed_pair_elem"** %107, align 8
  %284 = getelementptr inbounds %"struct.std::__1::__compressed_pair_elem", %"struct.std::__1::__compressed_pair_elem"* %283, i32 0, i32 0, !dbg !6130
  %285 = load %"struct.altered_carbon::js::ACLexPosition"*, %"struct.altered_carbon::js::ACLexPosition"** %284, align 8, !dbg !6131
  store %"struct.altered_carbon::js::ACLexPosition"* %285, %"struct.altered_carbon::js::ACLexPosition"** %111, align 8, !dbg !5806
  %286 = load %"struct.altered_carbon::js::ACLexPosition"*, %"struct.altered_carbon::js::ACLexPosition"** %110, align 8, !dbg !6132
  %287 = getelementptr inbounds %"class.std::__1::unique_ptr", %"class.std::__1::unique_ptr"* %279, i32 0, i32 0, !dbg !6133
  store %"class.std::__1::__compressed_pair"* %287, %"class.std::__1::__compressed_pair"** %104, align 8
  %288 = load %"class.std::__1::__compressed_pair"*, %"class.std::__1::__compressed_pair"** %104, align 8
  %289 = bitcast %"class.std::__1::__compressed_pair"* %288 to %"struct.std::__1::__compressed_pair_elem"*, !dbg !6134
  store %"struct.std::__1::__compressed_pair_elem"* %289, %"struct.std::__1::__compressed_pair_elem"** %103, align 8
  %290 = load %"struct.std::__1::__compressed_pair_elem"*, %"struct.std::__1::__compressed_pair_elem"** %103, align 8
  %291 = getelementptr inbounds %"struct.std::__1::__compressed_pair_elem", %"struct.std::__1::__compressed_pair_elem"* %290, i32 0, i32 0, !dbg !6135
  store %"struct.altered_carbon::js::ACLexPosition"* %286, %"struct.altered_carbon::js::ACLexPosition"** %291, align 8, !dbg !6136
  %292 = load %"struct.altered_carbon::js::ACLexPosition"*, %"struct.altered_carbon::js::ACLexPosition"** %111, align 8, !dbg !6137
  %293 = icmp ne %"struct.altered_carbon::js::ACLexPosition"* %292, null, !dbg !6137
  br i1 %293, label %294, label %310, !dbg !6138

; <label>:294:                                    ; preds = %6
  %295 = getelementptr inbounds %"class.std::__1::unique_ptr", %"class.std::__1::unique_ptr"* %279, i32 0, i32 0, !dbg !6139
  store %"class.std::__1::__compressed_pair"* %295, %"class.std::__1::__compressed_pair"** %102, align 8
  %296 = load %"class.std::__1::__compressed_pair"*, %"class.std::__1::__compressed_pair"** %102, align 8
  %297 = bitcast %"class.std::__1::__compressed_pair"* %296 to %"struct.std::__1::__compressed_pair_elem.0"*, !dbg !6140
  store %"struct.std::__1::__compressed_pair_elem.0"* %297, %"struct.std::__1::__compressed_pair_elem.0"** %101, align 8
  %298 = load %"struct.std::__1::__compressed_pair_elem.0"*, %"struct.std::__1::__compressed_pair_elem.0"** %101, align 8
  %299 = bitcast %"struct.std::__1::__compressed_pair_elem.0"* %298 to %"struct.std::__1::default_delete"*, !dbg !6141
  %300 = load %"struct.altered_carbon::js::ACLexPosition"*, %"struct.altered_carbon::js::ACLexPosition"** %111, align 8, !dbg !6142
  store %"struct.std::__1::default_delete"* %299, %"struct.std::__1::default_delete"** %105, align 8
  store %"struct.altered_carbon::js::ACLexPosition"* %300, %"struct.altered_carbon::js::ACLexPosition"** %106, align 8
  %301 = load %"struct.std::__1::default_delete"*, %"struct.std::__1::default_delete"** %105, align 8
  %302 = load %"struct.altered_carbon::js::ACLexPosition"*, %"struct.altered_carbon::js::ACLexPosition"** %106, align 8, !dbg !6143
  %303 = icmp eq %"struct.altered_carbon::js::ACLexPosition"* %302, null, !dbg !6144
  br i1 %303, label %309, label %304, !dbg !6144

; <label>:304:                                    ; preds = %294
  %305 = bitcast %"struct.altered_carbon::js::ACLexPosition"* %302 to void (%"struct.altered_carbon::js::ACLexPosition"*)***, !dbg !6144
  %306 = load void (%"struct.altered_carbon::js::ACLexPosition"*)**, void (%"struct.altered_carbon::js::ACLexPosition"*)*** %305, align 8, !dbg !6144
  %307 = getelementptr inbounds void (%"struct.altered_carbon::js::ACLexPosition"*)*, void (%"struct.altered_carbon::js::ACLexPosition"*)** %306, i64 1, !dbg !6144
  %308 = load void (%"struct.altered_carbon::js::ACLexPosition"*)*, void (%"struct.altered_carbon::js::ACLexPosition"*)** %307, align 8, !dbg !6144
  call void %308(%"struct.altered_carbon::js::ACLexPosition"* %302) #8, !dbg !6144
  br label %309, !dbg !6144

; <label>:309:                                    ; preds = %304, %294
  br label %310, !dbg !6139

; <label>:310:                                    ; preds = %6, %309
  %311 = bitcast %"class.altered_carbon::js::ACAstIdentifierParam"* %227 to i32 (...)***, !dbg !6093
  store i32 (...)** bitcast (i8** getelementptr inbounds ({ [14 x i8*] }, { [14 x i8*] }* @_ZTVN14altered_carbon2js20ACAstIdentifierParamE, i32 0, inrange i32 0, i32 2) to i32 (...)**), i32 (...)*** %311, align 8, !dbg !6093
  %312 = bitcast %"class.altered_carbon::js::ACAstIdentifierParam"* %227 to %"class.altered_carbon::js::ACAstBaseNode"*, !dbg !6145
  %313 = getelementptr inbounds %"class.altered_carbon::js::ACAstBaseNode", %"class.altered_carbon::js::ACAstBaseNode"* %312, i32 0, i32 4, !dbg !6145
  store %"class.std::__1::unique_ptr.10"* %2, %"class.std::__1::unique_ptr.10"** %100, align 8
  %314 = load %"class.std::__1::unique_ptr.10"*, %"class.std::__1::unique_ptr.10"** %100, align 8, !dbg !6146
  store %"class.std::__1::unique_ptr.1"* %226, %"class.std::__1::unique_ptr.1"** %37, align 8
  store %"class.std::__1::unique_ptr.10"* %314, %"class.std::__1::unique_ptr.10"** %38, align 8
  %315 = load %"class.std::__1::unique_ptr.1"*, %"class.std::__1::unique_ptr.1"** %37, align 8
  %316 = load %"class.std::__1::unique_ptr.10"*, %"class.std::__1::unique_ptr.10"** %38, align 8, !dbg !6147
  store %"class.std::__1::unique_ptr.1"* %315, %"class.std::__1::unique_ptr.1"** %34, align 8
  store %"class.std::__1::unique_ptr.10"* %316, %"class.std::__1::unique_ptr.10"** %35, align 8
  %317 = load %"class.std::__1::unique_ptr.1"*, %"class.std::__1::unique_ptr.1"** %34, align 8
  %318 = getelementptr inbounds %"class.std::__1::unique_ptr.1", %"class.std::__1::unique_ptr.1"* %317, i32 0, i32 0, !dbg !6148
  %319 = load %"class.std::__1::unique_ptr.10"*, %"class.std::__1::unique_ptr.10"** %35, align 8, !dbg !6149
  store %"class.std::__1::unique_ptr.10"* %319, %"class.std::__1::unique_ptr.10"** %32, align 8
  %320 = load %"class.std::__1::unique_ptr.10"*, %"class.std::__1::unique_ptr.10"** %32, align 8
  %321 = getelementptr inbounds %"class.std::__1::unique_ptr.10", %"class.std::__1::unique_ptr.10"* %320, i32 0, i32 0, !dbg !6150
  store %"class.std::__1::__compressed_pair.11"* %321, %"class.std::__1::__compressed_pair.11"** %31, align 8
  %322 = load %"class.std::__1::__compressed_pair.11"*, %"class.std::__1::__compressed_pair.11"** %31, align 8
  %323 = bitcast %"class.std::__1::__compressed_pair.11"* %322 to %"struct.std::__1::__compressed_pair_elem.12"*, !dbg !6151
  store %"struct.std::__1::__compressed_pair_elem.12"* %323, %"struct.std::__1::__compressed_pair_elem.12"** %30, align 8
  %324 = load %"struct.std::__1::__compressed_pair_elem.12"*, %"struct.std::__1::__compressed_pair_elem.12"** %30, align 8
  %325 = getelementptr inbounds %"struct.std::__1::__compressed_pair_elem.12", %"struct.std::__1::__compressed_pair_elem.12"* %324, i32 0, i32 0, !dbg !6152
  %326 = load %"class.altered_carbon::js::ACAstVariantNode"*, %"class.altered_carbon::js::ACAstVariantNode"** %325, align 8, !dbg !6153
  store %"class.altered_carbon::js::ACAstVariantNode"* %326, %"class.altered_carbon::js::ACAstVariantNode"** %33, align 8, !dbg !5487
  %327 = getelementptr inbounds %"class.std::__1::unique_ptr.10", %"class.std::__1::unique_ptr.10"* %320, i32 0, i32 0, !dbg !6154
  store %"class.std::__1::__compressed_pair.11"* %327, %"class.std::__1::__compressed_pair.11"** %29, align 8
  %328 = load %"class.std::__1::__compressed_pair.11"*, %"class.std::__1::__compressed_pair.11"** %29, align 8
  %329 = bitcast %"class.std::__1::__compressed_pair.11"* %328 to %"struct.std::__1::__compressed_pair_elem.12"*, !dbg !6155
  store %"struct.std::__1::__compressed_pair_elem.12"* %329, %"struct.std::__1::__compressed_pair_elem.12"** %28, align 8
  %330 = load %"struct.std::__1::__compressed_pair_elem.12"*, %"struct.std::__1::__compressed_pair_elem.12"** %28, align 8
  %331 = getelementptr inbounds %"struct.std::__1::__compressed_pair_elem.12", %"struct.std::__1::__compressed_pair_elem.12"* %330, i32 0, i32 0, !dbg !6156
  store %"class.altered_carbon::js::ACAstVariantNode"* null, %"class.altered_carbon::js::ACAstVariantNode"** %331, align 8, !dbg !6157
  %332 = load %"class.altered_carbon::js::ACAstVariantNode"*, %"class.altered_carbon::js::ACAstVariantNode"** %33, align 8, !dbg !6158
  store %"class.altered_carbon::js::ACAstVariantNode"* %332, %"class.altered_carbon::js::ACAstVariantNode"** %36, align 8, !dbg !6149
  %333 = load %"class.std::__1::unique_ptr.10"*, %"class.std::__1::unique_ptr.10"** %35, align 8, !dbg !6159
  store %"class.std::__1::unique_ptr.10"* %333, %"class.std::__1::unique_ptr.10"** %9, align 8
  %334 = load %"class.std::__1::unique_ptr.10"*, %"class.std::__1::unique_ptr.10"** %9, align 8
  %335 = getelementptr inbounds %"class.std::__1::unique_ptr.10", %"class.std::__1::unique_ptr.10"* %334, i32 0, i32 0, !dbg !6160
  store %"class.std::__1::__compressed_pair.11"* %335, %"class.std::__1::__compressed_pair.11"** %8, align 8
  %336 = load %"class.std::__1::__compressed_pair.11"*, %"class.std::__1::__compressed_pair.11"** %8, align 8
  %337 = bitcast %"class.std::__1::__compressed_pair.11"* %336 to %"struct.std::__1::__compressed_pair_elem.34"*, !dbg !6161
  store %"struct.std::__1::__compressed_pair_elem.34"* %337, %"struct.std::__1::__compressed_pair_elem.34"** %7, align 8
  %338 = load %"struct.std::__1::__compressed_pair_elem.34"*, %"struct.std::__1::__compressed_pair_elem.34"** %7, align 8
  %339 = bitcast %"struct.std::__1::__compressed_pair_elem.34"* %338 to %"struct.std::__1::default_delete.35"*, !dbg !6162
  store %"struct.std::__1::default_delete.35"* %339, %"struct.std::__1::default_delete.35"** %10, align 8
  %340 = load %"struct.std::__1::default_delete.35"*, %"struct.std::__1::default_delete.35"** %10, align 8, !dbg !6163
  store %"class.std::__1::__compressed_pair.2"* %318, %"class.std::__1::__compressed_pair.2"** %25, align 8
  store %"class.altered_carbon::js::ACAstVariantNode"** %36, %"class.altered_carbon::js::ACAstVariantNode"*** %26, align 8
  store %"struct.std::__1::default_delete.35"* %340, %"struct.std::__1::default_delete.35"** %27, align 8
  %341 = load %"class.std::__1::__compressed_pair.2"*, %"class.std::__1::__compressed_pair.2"** %25, align 8
  %342 = load %"class.altered_carbon::js::ACAstVariantNode"**, %"class.altered_carbon::js::ACAstVariantNode"*** %26, align 8, !dbg !6164
  %343 = load %"struct.std::__1::default_delete.35"*, %"struct.std::__1::default_delete.35"** %27, align 8, !dbg !6164
  store %"class.std::__1::__compressed_pair.2"* %341, %"class.std::__1::__compressed_pair.2"** %22, align 8
  store %"class.altered_carbon::js::ACAstVariantNode"** %342, %"class.altered_carbon::js::ACAstVariantNode"*** %23, align 8
  store %"struct.std::__1::default_delete.35"* %343, %"struct.std::__1::default_delete.35"** %24, align 8
  %344 = load %"class.std::__1::__compressed_pair.2"*, %"class.std::__1::__compressed_pair.2"** %22, align 8
  %345 = bitcast %"class.std::__1::__compressed_pair.2"* %344 to %"struct.std::__1::__compressed_pair_elem.3"*, !dbg !6165
  %346 = load %"class.altered_carbon::js::ACAstVariantNode"**, %"class.altered_carbon::js::ACAstVariantNode"*** %23, align 8, !dbg !6166
  store %"class.altered_carbon::js::ACAstVariantNode"** %346, %"class.altered_carbon::js::ACAstVariantNode"*** %21, align 8
  %347 = load %"class.altered_carbon::js::ACAstVariantNode"**, %"class.altered_carbon::js::ACAstVariantNode"*** %21, align 8, !dbg !6167
  store %"struct.std::__1::__compressed_pair_elem.3"* %345, %"struct.std::__1::__compressed_pair_elem.3"** %12, align 8
  store %"class.altered_carbon::js::ACAstVariantNode"** %347, %"class.altered_carbon::js::ACAstVariantNode"*** %13, align 8
  %348 = load %"struct.std::__1::__compressed_pair_elem.3"*, %"struct.std::__1::__compressed_pair_elem.3"** %12, align 8
  %349 = getelementptr inbounds %"struct.std::__1::__compressed_pair_elem.3", %"struct.std::__1::__compressed_pair_elem.3"* %348, i32 0, i32 0, !dbg !6168
  %350 = load %"class.altered_carbon::js::ACAstVariantNode"**, %"class.altered_carbon::js::ACAstVariantNode"*** %13, align 8, !dbg !6169
  store %"class.altered_carbon::js::ACAstVariantNode"** %350, %"class.altered_carbon::js::ACAstVariantNode"*** %11, align 8
  %351 = load %"class.altered_carbon::js::ACAstVariantNode"**, %"class.altered_carbon::js::ACAstVariantNode"*** %11, align 8, !dbg !6170
  %352 = load %"class.altered_carbon::js::ACAstVariantNode"*, %"class.altered_carbon::js::ACAstVariantNode"** %351, align 8, !dbg !6171
  %353 = bitcast %"class.altered_carbon::js::ACAstVariantNode"* %352 to %"class.altered_carbon::js::ACAstBaseNode"*, !dbg !6171
  store %"class.altered_carbon::js::ACAstBaseNode"* %353, %"class.altered_carbon::js::ACAstBaseNode"** %349, align 8, !dbg !6168
  %354 = bitcast %"class.std::__1::__compressed_pair.2"* %344 to %"struct.std::__1::__compressed_pair_elem.4"*, !dbg !6165
  %355 = load %"struct.std::__1::default_delete.35"*, %"struct.std::__1::default_delete.35"** %24, align 8, !dbg !6172
  store %"struct.std::__1::default_delete.35"* %355, %"struct.std::__1::default_delete.35"** %14, align 8
  %356 = load %"struct.std::__1::default_delete.35"*, %"struct.std::__1::default_delete.35"** %14, align 8, !dbg !6173
  store %"struct.std::__1::__compressed_pair_elem.4"* %354, %"struct.std::__1::__compressed_pair_elem.4"** %19, align 8
  store %"struct.std::__1::default_delete.35"* %356, %"struct.std::__1::default_delete.35"** %20, align 8
  %357 = load %"struct.std::__1::__compressed_pair_elem.4"*, %"struct.std::__1::__compressed_pair_elem.4"** %19, align 8
  %358 = bitcast %"struct.std::__1::__compressed_pair_elem.4"* %357 to %"struct.std::__1::default_delete.5"*, !dbg !6174
  %359 = load %"struct.std::__1::default_delete.35"*, %"struct.std::__1::default_delete.35"** %20, align 8, !dbg !6175
  store %"struct.std::__1::default_delete.35"* %359, %"struct.std::__1::default_delete.35"** %18, align 8
  %360 = load %"struct.std::__1::default_delete.35"*, %"struct.std::__1::default_delete.35"** %18, align 8, !dbg !6176
  store %"struct.std::__1::default_delete.5"* %358, %"struct.std::__1::default_delete.5"** %15, align 8
  store %"struct.std::__1::default_delete.35"* %360, %"struct.std::__1::default_delete.35"** %16, align 8
  store i8* null, i8** %17, align 8
  %361 = load %"struct.std::__1::default_delete.5"*, %"struct.std::__1::default_delete.5"** %15, align 8
  store %"class.std::__1::vector"* %313, %"class.std::__1::vector"** %97, align 8
  store %"class.std::__1::unique_ptr.1"* %226, %"class.std::__1::unique_ptr.1"** %98, align 8
  %362 = load %"class.std::__1::vector"*, %"class.std::__1::vector"** %97, align 8
  %363 = bitcast %"class.std::__1::vector"* %362 to %"class.std::__1::__vector_base"*, !dbg !6177
  %364 = getelementptr inbounds %"class.std::__1::__vector_base", %"class.std::__1::__vector_base"* %363, i32 0, i32 1, !dbg !6177
  %365 = load %"class.std::__1::unique_ptr.1"*, %"class.std::__1::unique_ptr.1"** %364, align 8, !dbg !6177
  %366 = bitcast %"class.std::__1::vector"* %362 to %"class.std::__1::__vector_base"*, !dbg !6178
  store %"class.std::__1::__vector_base"* %366, %"class.std::__1::__vector_base"** %96, align 8
  %367 = load %"class.std::__1::__vector_base"*, %"class.std::__1::__vector_base"** %96, align 8
  %368 = getelementptr inbounds %"class.std::__1::__vector_base", %"class.std::__1::__vector_base"* %367, i32 0, i32 2, !dbg !6179
  store %"class.std::__1::__compressed_pair.7"* %368, %"class.std::__1::__compressed_pair.7"** %95, align 8
  %369 = load %"class.std::__1::__compressed_pair.7"*, %"class.std::__1::__compressed_pair.7"** %95, align 8
  %370 = bitcast %"class.std::__1::__compressed_pair.7"* %369 to %"struct.std::__1::__compressed_pair_elem.8"*, !dbg !6180
  store %"struct.std::__1::__compressed_pair_elem.8"* %370, %"struct.std::__1::__compressed_pair_elem.8"** %94, align 8
  %371 = load %"struct.std::__1::__compressed_pair_elem.8"*, %"struct.std::__1::__compressed_pair_elem.8"** %94, align 8
  %372 = getelementptr inbounds %"struct.std::__1::__compressed_pair_elem.8", %"struct.std::__1::__compressed_pair_elem.8"* %371, i32 0, i32 0, !dbg !6181
  %373 = load %"class.std::__1::unique_ptr.1"*, %"class.std::__1::unique_ptr.1"** %372, align 8, !dbg !6178
  %374 = icmp ult %"class.std::__1::unique_ptr.1"* %365, %373, !dbg !6182
  br i1 %374, label %375, label %457, !dbg !6183

; <label>:375:                                    ; preds = %310
  store %"struct.std::__1::vector<std::__1::unique_ptr<altered_carbon::js::ACAstBaseNode, std::__1::default_delete<altered_carbon::js::ACAstBaseNode> >, std::__1::allocator<std::__1::unique_ptr<altered_carbon::js::ACAstBaseNode, std::__1::default_delete<altered_carbon::js::ACAstBaseNode> > > >::__RAII_IncreaseAnnotator"* %99, %"struct.std::__1::vector<std::__1::unique_ptr<altered_carbon::js::ACAstBaseNode, std::__1::default_delete<altered_carbon::js::ACAstBaseNode> >, std::__1::allocator<std::__1::unique_ptr<altered_carbon::js::ACAstBaseNode, std::__1::default_delete<altered_carbon::js::ACAstBaseNode> > > >::__RAII_IncreaseAnnotator"** %91, align 8
  store %"class.std::__1::vector"* %362, %"class.std::__1::vector"** %92, align 8
  store i64 1, i64* %93, align 8
  %376 = load %"struct.std::__1::vector<std::__1::unique_ptr<altered_carbon::js::ACAstBaseNode, std::__1::default_delete<altered_carbon::js::ACAstBaseNode> >, std::__1::allocator<std::__1::unique_ptr<altered_carbon::js::ACAstBaseNode, std::__1::default_delete<altered_carbon::js::ACAstBaseNode> > > >::__RAII_IncreaseAnnotator"*, %"struct.std::__1::vector<std::__1::unique_ptr<altered_carbon::js::ACAstBaseNode, std::__1::default_delete<altered_carbon::js::ACAstBaseNode> >, std::__1::allocator<std::__1::unique_ptr<altered_carbon::js::ACAstBaseNode, std::__1::default_delete<altered_carbon::js::ACAstBaseNode> > > >::__RAII_IncreaseAnnotator"** %91, align 8
  %377 = load %"class.std::__1::vector"*, %"class.std::__1::vector"** %92, align 8, !dbg !6184
  %378 = load i64, i64* %93, align 8, !dbg !6184
  store %"struct.std::__1::vector<std::__1::unique_ptr<altered_carbon::js::ACAstBaseNode, std::__1::default_delete<altered_carbon::js::ACAstBaseNode> >, std::__1::allocator<std::__1::unique_ptr<altered_carbon::js::ACAstBaseNode, std::__1::default_delete<altered_carbon::js::ACAstBaseNode> > > >::__RAII_IncreaseAnnotator"* %376, %"struct.std::__1::vector<std::__1::unique_ptr<altered_carbon::js::ACAstBaseNode, std::__1::default_delete<altered_carbon::js::ACAstBaseNode> >, std::__1::allocator<std::__1::unique_ptr<altered_carbon::js::ACAstBaseNode, std::__1::default_delete<altered_carbon::js::ACAstBaseNode> > > >::__RAII_IncreaseAnnotator"** %88, align 8
  store %"class.std::__1::vector"* %377, %"class.std::__1::vector"** %89, align 8
  store i64 %378, i64* %90, align 8
  %379 = load %"struct.std::__1::vector<std::__1::unique_ptr<altered_carbon::js::ACAstBaseNode, std::__1::default_delete<altered_carbon::js::ACAstBaseNode> >, std::__1::allocator<std::__1::unique_ptr<altered_carbon::js::ACAstBaseNode, std::__1::default_delete<altered_carbon::js::ACAstBaseNode> > > >::__RAII_IncreaseAnnotator"*, %"struct.std::__1::vector<std::__1::unique_ptr<altered_carbon::js::ACAstBaseNode, std::__1::default_delete<altered_carbon::js::ACAstBaseNode> >, std::__1::allocator<std::__1::unique_ptr<altered_carbon::js::ACAstBaseNode, std::__1::default_delete<altered_carbon::js::ACAstBaseNode> > > >::__RAII_IncreaseAnnotator"** %88, align 8
  %380 = bitcast %"class.std::__1::vector"* %362 to %"class.std::__1::__vector_base"*, !dbg !6185
  store %"class.std::__1::__vector_base"* %380, %"class.std::__1::__vector_base"** %41, align 8
  %381 = load %"class.std::__1::__vector_base"*, %"class.std::__1::__vector_base"** %41, align 8
  %382 = getelementptr inbounds %"class.std::__1::__vector_base", %"class.std::__1::__vector_base"* %381, i32 0, i32 2, !dbg !6186
  store %"class.std::__1::__compressed_pair.7"* %382, %"class.std::__1::__compressed_pair.7"** %40, align 8
  %383 = load %"class.std::__1::__compressed_pair.7"*, %"class.std::__1::__compressed_pair.7"** %40, align 8
  %384 = bitcast %"class.std::__1::__compressed_pair.7"* %383 to %"struct.std::__1::__compressed_pair_elem.9"*, !dbg !6187
  store %"struct.std::__1::__compressed_pair_elem.9"* %384, %"struct.std::__1::__compressed_pair_elem.9"** %39, align 8
  %385 = load %"struct.std::__1::__compressed_pair_elem.9"*, %"struct.std::__1::__compressed_pair_elem.9"** %39, align 8
  %386 = bitcast %"struct.std::__1::__compressed_pair_elem.9"* %385 to %"class.std::__1::allocator"*, !dbg !6188
  %387 = bitcast %"class.std::__1::vector"* %362 to %"class.std::__1::__vector_base"*, !dbg !6189
  %388 = getelementptr inbounds %"class.std::__1::__vector_base", %"class.std::__1::__vector_base"* %387, i32 0, i32 1, !dbg !6189
  %389 = load %"class.std::__1::unique_ptr.1"*, %"class.std::__1::unique_ptr.1"** %388, align 8, !dbg !6189
  store %"class.std::__1::unique_ptr.1"* %389, %"class.std::__1::unique_ptr.1"** %42, align 8
  %390 = load %"class.std::__1::unique_ptr.1"*, %"class.std::__1::unique_ptr.1"** %42, align 8, !dbg !6190
  %391 = load %"class.std::__1::unique_ptr.1"*, %"class.std::__1::unique_ptr.1"** %98, align 8, !dbg !6191
  store %"class.std::__1::unique_ptr.1"* %391, %"class.std::__1::unique_ptr.1"** %43, align 8
  %392 = load %"class.std::__1::unique_ptr.1"*, %"class.std::__1::unique_ptr.1"** %43, align 8, !dbg !6192
  store %"class.std::__1::allocator"* %386, %"class.std::__1::allocator"** %82, align 8
  store %"class.std::__1::unique_ptr.1"* %390, %"class.std::__1::unique_ptr.1"** %83, align 8
  store %"class.std::__1::unique_ptr.1"* %392, %"class.std::__1::unique_ptr.1"** %84, align 8
  %393 = bitcast %"struct.std::__1::__has_construct"* %85 to %"struct.std::__1::integral_constant"*, !dbg !6193
  %394 = load %"class.std::__1::allocator"*, %"class.std::__1::allocator"** %82, align 8, !dbg !6194
  %395 = load %"class.std::__1::unique_ptr.1"*, %"class.std::__1::unique_ptr.1"** %83, align 8, !dbg !6195
  %396 = load %"class.std::__1::unique_ptr.1"*, %"class.std::__1::unique_ptr.1"** %84, align 8, !dbg !6196
  store %"class.std::__1::unique_ptr.1"* %396, %"class.std::__1::unique_ptr.1"** %81, align 8
  %397 = load %"class.std::__1::unique_ptr.1"*, %"class.std::__1::unique_ptr.1"** %81, align 8, !dbg !6197
  call void @llvm.dbg.declare(metadata !162, metadata !6198, metadata !DIExpression()) #8, !dbg !6199
  store %"class.std::__1::allocator"* %394, %"class.std::__1::allocator"** %78, align 8
  store %"class.std::__1::unique_ptr.1"* %395, %"class.std::__1::unique_ptr.1"** %79, align 8
  store %"class.std::__1::unique_ptr.1"* %397, %"class.std::__1::unique_ptr.1"** %80, align 8
  %398 = load %"class.std::__1::allocator"*, %"class.std::__1::allocator"** %78, align 8, !dbg !6200
  %399 = load %"class.std::__1::unique_ptr.1"*, %"class.std::__1::unique_ptr.1"** %79, align 8, !dbg !6201
  %400 = load %"class.std::__1::unique_ptr.1"*, %"class.std::__1::unique_ptr.1"** %80, align 8, !dbg !6202
  store %"class.std::__1::unique_ptr.1"* %400, %"class.std::__1::unique_ptr.1"** %77, align 8
  %401 = load %"class.std::__1::unique_ptr.1"*, %"class.std::__1::unique_ptr.1"** %77, align 8, !dbg !6203
  store %"class.std::__1::allocator"* %398, %"class.std::__1::allocator"** %74, align 8
  store %"class.std::__1::unique_ptr.1"* %399, %"class.std::__1::unique_ptr.1"** %75, align 8
  store %"class.std::__1::unique_ptr.1"* %401, %"class.std::__1::unique_ptr.1"** %76, align 8
  %402 = load %"class.std::__1::allocator"*, %"class.std::__1::allocator"** %74, align 8
  %403 = load %"class.std::__1::unique_ptr.1"*, %"class.std::__1::unique_ptr.1"** %75, align 8, !dbg !6204
  %404 = bitcast %"class.std::__1::unique_ptr.1"* %403 to i8*, !dbg !6204
  %405 = load %"class.std::__1::unique_ptr.1"*, %"class.std::__1::unique_ptr.1"** %76, align 8, !dbg !6205
  store %"class.std::__1::unique_ptr.1"* %405, %"class.std::__1::unique_ptr.1"** %73, align 8
  %406 = load %"class.std::__1::unique_ptr.1"*, %"class.std::__1::unique_ptr.1"** %73, align 8, !dbg !6206
  store %"class.std::__1::unique_ptr.1"* %403, %"class.std::__1::unique_ptr.1"** %71, align 8
  store %"class.std::__1::unique_ptr.1"* %406, %"class.std::__1::unique_ptr.1"** %72, align 8
  %407 = load %"class.std::__1::unique_ptr.1"*, %"class.std::__1::unique_ptr.1"** %71, align 8
  %408 = load %"class.std::__1::unique_ptr.1"*, %"class.std::__1::unique_ptr.1"** %72, align 8, !dbg !6207
  store %"class.std::__1::unique_ptr.1"* %407, %"class.std::__1::unique_ptr.1"** %68, align 8
  store %"class.std::__1::unique_ptr.1"* %408, %"class.std::__1::unique_ptr.1"** %69, align 8
  %409 = load %"class.std::__1::unique_ptr.1"*, %"class.std::__1::unique_ptr.1"** %68, align 8
  %410 = getelementptr inbounds %"class.std::__1::unique_ptr.1", %"class.std::__1::unique_ptr.1"* %409, i32 0, i32 0, !dbg !6208
  %411 = load %"class.std::__1::unique_ptr.1"*, %"class.std::__1::unique_ptr.1"** %69, align 8, !dbg !6209
  store %"class.std::__1::unique_ptr.1"* %411, %"class.std::__1::unique_ptr.1"** %66, align 8
  %412 = load %"class.std::__1::unique_ptr.1"*, %"class.std::__1::unique_ptr.1"** %66, align 8
  %413 = getelementptr inbounds %"class.std::__1::unique_ptr.1", %"class.std::__1::unique_ptr.1"* %412, i32 0, i32 0, !dbg !6210
  store %"class.std::__1::__compressed_pair.2"* %413, %"class.std::__1::__compressed_pair.2"** %65, align 8
  %414 = load %"class.std::__1::__compressed_pair.2"*, %"class.std::__1::__compressed_pair.2"** %65, align 8
  %415 = bitcast %"class.std::__1::__compressed_pair.2"* %414 to %"struct.std::__1::__compressed_pair_elem.3"*, !dbg !6211
  store %"struct.std::__1::__compressed_pair_elem.3"* %415, %"struct.std::__1::__compressed_pair_elem.3"** %64, align 8
  %416 = load %"struct.std::__1::__compressed_pair_elem.3"*, %"struct.std::__1::__compressed_pair_elem.3"** %64, align 8
  %417 = getelementptr inbounds %"struct.std::__1::__compressed_pair_elem.3", %"struct.std::__1::__compressed_pair_elem.3"* %416, i32 0, i32 0, !dbg !6212
  %418 = load %"class.altered_carbon::js::ACAstBaseNode"*, %"class.altered_carbon::js::ACAstBaseNode"** %417, align 8, !dbg !6213
  store %"class.altered_carbon::js::ACAstBaseNode"* %418, %"class.altered_carbon::js::ACAstBaseNode"** %67, align 8, !dbg !5658
  %419 = getelementptr inbounds %"class.std::__1::unique_ptr.1", %"class.std::__1::unique_ptr.1"* %412, i32 0, i32 0, !dbg !6214
  store %"class.std::__1::__compressed_pair.2"* %419, %"class.std::__1::__compressed_pair.2"** %63, align 8
  %420 = load %"class.std::__1::__compressed_pair.2"*, %"class.std::__1::__compressed_pair.2"** %63, align 8
  %421 = bitcast %"class.std::__1::__compressed_pair.2"* %420 to %"struct.std::__1::__compressed_pair_elem.3"*, !dbg !6215
  store %"struct.std::__1::__compressed_pair_elem.3"* %421, %"struct.std::__1::__compressed_pair_elem.3"** %62, align 8
  %422 = load %"struct.std::__1::__compressed_pair_elem.3"*, %"struct.std::__1::__compressed_pair_elem.3"** %62, align 8
  %423 = getelementptr inbounds %"struct.std::__1::__compressed_pair_elem.3", %"struct.std::__1::__compressed_pair_elem.3"* %422, i32 0, i32 0, !dbg !6216
  store %"class.altered_carbon::js::ACAstBaseNode"* null, %"class.altered_carbon::js::ACAstBaseNode"** %423, align 8, !dbg !6217
  %424 = load %"class.altered_carbon::js::ACAstBaseNode"*, %"class.altered_carbon::js::ACAstBaseNode"** %67, align 8, !dbg !6218
  store %"class.altered_carbon::js::ACAstBaseNode"* %424, %"class.altered_carbon::js::ACAstBaseNode"** %70, align 8, !dbg !6209
  %425 = load %"class.std::__1::unique_ptr.1"*, %"class.std::__1::unique_ptr.1"** %69, align 8, !dbg !6219
  store %"class.std::__1::unique_ptr.1"* %425, %"class.std::__1::unique_ptr.1"** %46, align 8
  %426 = load %"class.std::__1::unique_ptr.1"*, %"class.std::__1::unique_ptr.1"** %46, align 8
  %427 = getelementptr inbounds %"class.std::__1::unique_ptr.1", %"class.std::__1::unique_ptr.1"* %426, i32 0, i32 0, !dbg !6220
  store %"class.std::__1::__compressed_pair.2"* %427, %"class.std::__1::__compressed_pair.2"** %45, align 8
  %428 = load %"class.std::__1::__compressed_pair.2"*, %"class.std::__1::__compressed_pair.2"** %45, align 8
  %429 = bitcast %"class.std::__1::__compressed_pair.2"* %428 to %"struct.std::__1::__compressed_pair_elem.4"*, !dbg !6221
  store %"struct.std::__1::__compressed_pair_elem.4"* %429, %"struct.std::__1::__compressed_pair_elem.4"** %44, align 8
  %430 = load %"struct.std::__1::__compressed_pair_elem.4"*, %"struct.std::__1::__compressed_pair_elem.4"** %44, align 8
  %431 = bitcast %"struct.std::__1::__compressed_pair_elem.4"* %430 to %"struct.std::__1::default_delete.5"*, !dbg !6222
  store %"struct.std::__1::default_delete.5"* %431, %"struct.std::__1::default_delete.5"** %47, align 8
  %432 = load %"struct.std::__1::default_delete.5"*, %"struct.std::__1::default_delete.5"** %47, align 8, !dbg !6223
  store %"class.std::__1::__compressed_pair.2"* %410, %"class.std::__1::__compressed_pair.2"** %59, align 8
  store %"class.altered_carbon::js::ACAstBaseNode"** %70, %"class.altered_carbon::js::ACAstBaseNode"*** %60, align 8
  store %"struct.std::__1::default_delete.5"* %432, %"struct.std::__1::default_delete.5"** %61, align 8
  %433 = load %"class.std::__1::__compressed_pair.2"*, %"class.std::__1::__compressed_pair.2"** %59, align 8
  %434 = load %"class.altered_carbon::js::ACAstBaseNode"**, %"class.altered_carbon::js::ACAstBaseNode"*** %60, align 8, !dbg !6224
  %435 = load %"struct.std::__1::default_delete.5"*, %"struct.std::__1::default_delete.5"** %61, align 8, !dbg !6224
  store %"class.std::__1::__compressed_pair.2"* %433, %"class.std::__1::__compressed_pair.2"** %56, align 8
  store %"class.altered_carbon::js::ACAstBaseNode"** %434, %"class.altered_carbon::js::ACAstBaseNode"*** %57, align 8
  store %"struct.std::__1::default_delete.5"* %435, %"struct.std::__1::default_delete.5"** %58, align 8
  %436 = load %"class.std::__1::__compressed_pair.2"*, %"class.std::__1::__compressed_pair.2"** %56, align 8
  %437 = bitcast %"class.std::__1::__compressed_pair.2"* %436 to %"struct.std::__1::__compressed_pair_elem.3"*, !dbg !6225
  %438 = load %"class.altered_carbon::js::ACAstBaseNode"**, %"class.altered_carbon::js::ACAstBaseNode"*** %57, align 8, !dbg !6226
  store %"class.altered_carbon::js::ACAstBaseNode"** %438, %"class.altered_carbon::js::ACAstBaseNode"*** %55, align 8
  %439 = load %"class.altered_carbon::js::ACAstBaseNode"**, %"class.altered_carbon::js::ACAstBaseNode"*** %55, align 8, !dbg !6227
  store %"struct.std::__1::__compressed_pair_elem.3"* %437, %"struct.std::__1::__compressed_pair_elem.3"** %49, align 8
  store %"class.altered_carbon::js::ACAstBaseNode"** %439, %"class.altered_carbon::js::ACAstBaseNode"*** %50, align 8
  %440 = load %"struct.std::__1::__compressed_pair_elem.3"*, %"struct.std::__1::__compressed_pair_elem.3"** %49, align 8
  %441 = getelementptr inbounds %"struct.std::__1::__compressed_pair_elem.3", %"struct.std::__1::__compressed_pair_elem.3"* %440, i32 0, i32 0, !dbg !6228
  %442 = load %"class.altered_carbon::js::ACAstBaseNode"**, %"class.altered_carbon::js::ACAstBaseNode"*** %50, align 8, !dbg !6229
  store %"class.altered_carbon::js::ACAstBaseNode"** %442, %"class.altered_carbon::js::ACAstBaseNode"*** %48, align 8
  %443 = load %"class.altered_carbon::js::ACAstBaseNode"**, %"class.altered_carbon::js::ACAstBaseNode"*** %48, align 8, !dbg !6230
  %444 = load %"class.altered_carbon::js::ACAstBaseNode"*, %"class.altered_carbon::js::ACAstBaseNode"** %443, align 8, !dbg !6231
  store %"class.altered_carbon::js::ACAstBaseNode"* %444, %"class.altered_carbon::js::ACAstBaseNode"** %441, align 8, !dbg !6228
  %445 = bitcast %"class.std::__1::__compressed_pair.2"* %436 to %"struct.std::__1::__compressed_pair_elem.4"*, !dbg !6225
  %446 = load %"struct.std::__1::default_delete.5"*, %"struct.std::__1::default_delete.5"** %58, align 8, !dbg !6232
  store %"struct.std::__1::default_delete.5"* %446, %"struct.std::__1::default_delete.5"** %51, align 8
  %447 = load %"struct.std::__1::default_delete.5"*, %"struct.std::__1::default_delete.5"** %51, align 8, !dbg !6233
  store %"struct.std::__1::__compressed_pair_elem.4"* %445, %"struct.std::__1::__compressed_pair_elem.4"** %53, align 8
  store %"struct.std::__1::default_delete.5"* %447, %"struct.std::__1::default_delete.5"** %54, align 8
  %448 = load %"struct.std::__1::__compressed_pair_elem.4"*, %"struct.std::__1::__compressed_pair_elem.4"** %53, align 8
  %449 = bitcast %"struct.std::__1::__compressed_pair_elem.4"* %448 to %"struct.std::__1::default_delete.5"*, !dbg !6234
  %450 = load %"struct.std::__1::default_delete.5"*, %"struct.std::__1::default_delete.5"** %54, align 8, !dbg !6235
  store %"struct.std::__1::default_delete.5"* %450, %"struct.std::__1::default_delete.5"** %52, align 8
  %451 = load %"struct.std::__1::default_delete.5"*, %"struct.std::__1::default_delete.5"** %52, align 8, !dbg !6236
  store %"struct.std::__1::vector<std::__1::unique_ptr<altered_carbon::js::ACAstBaseNode, std::__1::default_delete<altered_carbon::js::ACAstBaseNode> >, std::__1::allocator<std::__1::unique_ptr<altered_carbon::js::ACAstBaseNode, std::__1::default_delete<altered_carbon::js::ACAstBaseNode> > > >::__RAII_IncreaseAnnotator"* %99, %"struct.std::__1::vector<std::__1::unique_ptr<altered_carbon::js::ACAstBaseNode, std::__1::default_delete<altered_carbon::js::ACAstBaseNode> >, std::__1::allocator<std::__1::unique_ptr<altered_carbon::js::ACAstBaseNode, std::__1::default_delete<altered_carbon::js::ACAstBaseNode> > > >::__RAII_IncreaseAnnotator"** %86, align 8
  %452 = load %"struct.std::__1::vector<std::__1::unique_ptr<altered_carbon::js::ACAstBaseNode, std::__1::default_delete<altered_carbon::js::ACAstBaseNode> >, std::__1::allocator<std::__1::unique_ptr<altered_carbon::js::ACAstBaseNode, std::__1::default_delete<altered_carbon::js::ACAstBaseNode> > > >::__RAII_IncreaseAnnotator"*, %"struct.std::__1::vector<std::__1::unique_ptr<altered_carbon::js::ACAstBaseNode, std::__1::default_delete<altered_carbon::js::ACAstBaseNode> >, std::__1::allocator<std::__1::unique_ptr<altered_carbon::js::ACAstBaseNode, std::__1::default_delete<altered_carbon::js::ACAstBaseNode> > > >::__RAII_IncreaseAnnotator"** %86, align 8
  %453 = bitcast %"class.std::__1::vector"* %362 to %"class.std::__1::__vector_base"*, !dbg !6237
  %454 = getelementptr inbounds %"class.std::__1::__vector_base", %"class.std::__1::__vector_base"* %453, i32 0, i32 1, !dbg !6237
  %455 = load %"class.std::__1::unique_ptr.1"*, %"class.std::__1::unique_ptr.1"** %454, align 8, !dbg !6238
  %456 = getelementptr inbounds %"class.std::__1::unique_ptr.1", %"class.std::__1::unique_ptr.1"* %455, i32 1, !dbg !6238
  store %"class.std::__1::unique_ptr.1"* %456, %"class.std::__1::unique_ptr.1"** %454, align 8, !dbg !6238
  br label %460, !dbg !6239

; <label>:457:                                    ; preds = %310
  %458 = load %"class.std::__1::unique_ptr.1"*, %"class.std::__1::unique_ptr.1"** %98, align 8, !dbg !6240
  store %"class.std::__1::unique_ptr.1"* %458, %"class.std::__1::unique_ptr.1"** %87, align 8
  %459 = load %"class.std::__1::unique_ptr.1"*, %"class.std::__1::unique_ptr.1"** %87, align 8, !dbg !6241
  call void @_ZNSt3__16vectorINS_10unique_ptrIN14altered_carbon2js13ACAstBaseNodeENS_14default_deleteIS4_EEEENS_9allocatorIS7_EEE21__push_back_slow_pathIS7_EEvOT_(%"class.std::__1::vector"* %362, %"class.std::__1::unique_ptr.1"* dereferenceable(8) %459) #8, !dbg !6242
  br label %460

; <label>:460:                                    ; preds = %375, %457
  store %"class.std::__1::unique_ptr.1"* %226, %"class.std::__1::unique_ptr.1"** %126, align 8
  %461 = load %"class.std::__1::unique_ptr.1"*, %"class.std::__1::unique_ptr.1"** %126, align 8
  store %"class.std::__1::unique_ptr.1"* %461, %"class.std::__1::unique_ptr.1"** %125, align 8
  %462 = load %"class.std::__1::unique_ptr.1"*, %"class.std::__1::unique_ptr.1"** %125, align 8
  store %"class.std::__1::unique_ptr.1"* %462, %"class.std::__1::unique_ptr.1"** %122, align 8
  store %"class.altered_carbon::js::ACAstBaseNode"* null, %"class.altered_carbon::js::ACAstBaseNode"** %123, align 8
  %463 = load %"class.std::__1::unique_ptr.1"*, %"class.std::__1::unique_ptr.1"** %122, align 8
  %464 = getelementptr inbounds %"class.std::__1::unique_ptr.1", %"class.std::__1::unique_ptr.1"* %463, i32 0, i32 0, !dbg !6243
  store %"class.std::__1::__compressed_pair.2"* %464, %"class.std::__1::__compressed_pair.2"** %121, align 8
  %465 = load %"class.std::__1::__compressed_pair.2"*, %"class.std::__1::__compressed_pair.2"** %121, align 8
  %466 = bitcast %"class.std::__1::__compressed_pair.2"* %465 to %"struct.std::__1::__compressed_pair_elem.3"*, !dbg !6244
  store %"struct.std::__1::__compressed_pair_elem.3"* %466, %"struct.std::__1::__compressed_pair_elem.3"** %120, align 8
  %467 = load %"struct.std::__1::__compressed_pair_elem.3"*, %"struct.std::__1::__compressed_pair_elem.3"** %120, align 8
  %468 = getelementptr inbounds %"struct.std::__1::__compressed_pair_elem.3", %"struct.std::__1::__compressed_pair_elem.3"* %467, i32 0, i32 0, !dbg !6245
  %469 = load %"class.altered_carbon::js::ACAstBaseNode"*, %"class.altered_carbon::js::ACAstBaseNode"** %468, align 8, !dbg !6246
  store %"class.altered_carbon::js::ACAstBaseNode"* %469, %"class.altered_carbon::js::ACAstBaseNode"** %124, align 8, !dbg !5843
  %470 = load %"class.altered_carbon::js::ACAstBaseNode"*, %"class.altered_carbon::js::ACAstBaseNode"** %123, align 8, !dbg !6247
  %471 = getelementptr inbounds %"class.std::__1::unique_ptr.1", %"class.std::__1::unique_ptr.1"* %463, i32 0, i32 0, !dbg !6248
  store %"class.std::__1::__compressed_pair.2"* %471, %"class.std::__1::__compressed_pair.2"** %117, align 8
  %472 = load %"class.std::__1::__compressed_pair.2"*, %"class.std::__1::__compressed_pair.2"** %117, align 8
  %473 = bitcast %"class.std::__1::__compressed_pair.2"* %472 to %"struct.std::__1::__compressed_pair_elem.3"*, !dbg !6249
  store %"struct.std::__1::__compressed_pair_elem.3"* %473, %"struct.std::__1::__compressed_pair_elem.3"** %116, align 8
  %474 = load %"struct.std::__1::__compressed_pair_elem.3"*, %"struct.std::__1::__compressed_pair_elem.3"** %116, align 8
  %475 = getelementptr inbounds %"struct.std::__1::__compressed_pair_elem.3", %"struct.std::__1::__compressed_pair_elem.3"* %474, i32 0, i32 0, !dbg !6250
  store %"class.altered_carbon::js::ACAstBaseNode"* %470, %"class.altered_carbon::js::ACAstBaseNode"** %475, align 8, !dbg !6251
  %476 = load %"class.altered_carbon::js::ACAstBaseNode"*, %"class.altered_carbon::js::ACAstBaseNode"** %124, align 8, !dbg !6252
  %477 = icmp ne %"class.altered_carbon::js::ACAstBaseNode"* %476, null, !dbg !6252
  br i1 %477, label %478, label %494, !dbg !6253

; <label>:478:                                    ; preds = %460
  %479 = getelementptr inbounds %"class.std::__1::unique_ptr.1", %"class.std::__1::unique_ptr.1"* %463, i32 0, i32 0, !dbg !6254
  store %"class.std::__1::__compressed_pair.2"* %479, %"class.std::__1::__compressed_pair.2"** %115, align 8
  %480 = load %"class.std::__1::__compressed_pair.2"*, %"class.std::__1::__compressed_pair.2"** %115, align 8
  %481 = bitcast %"class.std::__1::__compressed_pair.2"* %480 to %"struct.std::__1::__compressed_pair_elem.4"*, !dbg !6255
  store %"struct.std::__1::__compressed_pair_elem.4"* %481, %"struct.std::__1::__compressed_pair_elem.4"** %114, align 8
  %482 = load %"struct.std::__1::__compressed_pair_elem.4"*, %"struct.std::__1::__compressed_pair_elem.4"** %114, align 8
  %483 = bitcast %"struct.std::__1::__compressed_pair_elem.4"* %482 to %"struct.std::__1::default_delete.5"*, !dbg !6256
  %484 = load %"class.altered_carbon::js::ACAstBaseNode"*, %"class.altered_carbon::js::ACAstBaseNode"** %124, align 8, !dbg !6257
  store %"struct.std::__1::default_delete.5"* %483, %"struct.std::__1::default_delete.5"** %118, align 8
  store %"class.altered_carbon::js::ACAstBaseNode"* %484, %"class.altered_carbon::js::ACAstBaseNode"** %119, align 8
  %485 = load %"struct.std::__1::default_delete.5"*, %"struct.std::__1::default_delete.5"** %118, align 8
  %486 = load %"class.altered_carbon::js::ACAstBaseNode"*, %"class.altered_carbon::js::ACAstBaseNode"** %119, align 8, !dbg !6258
  %487 = icmp eq %"class.altered_carbon::js::ACAstBaseNode"* %486, null, !dbg !6259
  br i1 %487, label %493, label %488, !dbg !6259

; <label>:488:                                    ; preds = %478
  %489 = bitcast %"class.altered_carbon::js::ACAstBaseNode"* %486 to void (%"class.altered_carbon::js::ACAstBaseNode"*)***, !dbg !6259
  %490 = load void (%"class.altered_carbon::js::ACAstBaseNode"*)**, void (%"class.altered_carbon::js::ACAstBaseNode"*)*** %489, align 8, !dbg !6259
  %491 = getelementptr inbounds void (%"class.altered_carbon::js::ACAstBaseNode"*)*, void (%"class.altered_carbon::js::ACAstBaseNode"*)** %490, i64 1, !dbg !6259
  %492 = load void (%"class.altered_carbon::js::ACAstBaseNode"*)*, void (%"class.altered_carbon::js::ACAstBaseNode"*)** %491, align 8, !dbg !6259
  call void %492(%"class.altered_carbon::js::ACAstBaseNode"* %486) #8, !dbg !6259
  br label %493, !dbg !6259

; <label>:493:                                    ; preds = %488, %478
  br label %494, !dbg !6254

; <label>:494:                                    ; preds = %460, %493
  store %"class.std::__1::unique_ptr.1"* %3, %"class.std::__1::unique_ptr.1"** %129, align 8
  %495 = load %"class.std::__1::unique_ptr.1"*, %"class.std::__1::unique_ptr.1"** %129, align 8
  %496 = getelementptr inbounds %"class.std::__1::unique_ptr.1", %"class.std::__1::unique_ptr.1"* %495, i32 0, i32 0, !dbg !6260
  store %"class.std::__1::__compressed_pair.2"* %496, %"class.std::__1::__compressed_pair.2"** %128, align 8
  %497 = load %"class.std::__1::__compressed_pair.2"*, %"class.std::__1::__compressed_pair.2"** %128, align 8
  %498 = bitcast %"class.std::__1::__compressed_pair.2"* %497 to %"struct.std::__1::__compressed_pair_elem.3"*, !dbg !6261
  store %"struct.std::__1::__compressed_pair_elem.3"* %498, %"struct.std::__1::__compressed_pair_elem.3"** %127, align 8
  %499 = load %"struct.std::__1::__compressed_pair_elem.3"*, %"struct.std::__1::__compressed_pair_elem.3"** %127, align 8
  %500 = getelementptr inbounds %"struct.std::__1::__compressed_pair_elem.3", %"struct.std::__1::__compressed_pair_elem.3"* %499, i32 0, i32 0, !dbg !6262
  %501 = load %"class.altered_carbon::js::ACAstBaseNode"*, %"class.altered_carbon::js::ACAstBaseNode"** %500, align 8, !dbg !6263
  %502 = icmp ne %"class.altered_carbon::js::ACAstBaseNode"* %501, null, !dbg !6264
  br i1 %502, label %503, label %606, !dbg !6265

; <label>:503:                                    ; preds = %494
  %504 = bitcast %"class.altered_carbon::js::ACAstIdentifierParam"* %227 to %"class.altered_carbon::js::ACAstBaseNode"*, !dbg !6266
  %505 = getelementptr inbounds %"class.altered_carbon::js::ACAstBaseNode", %"class.altered_carbon::js::ACAstBaseNode"* %504, i32 0, i32 4, !dbg !6266
  store %"class.std::__1::unique_ptr.1"* %3, %"class.std::__1::unique_ptr.1"** %130, align 8
  %506 = load %"class.std::__1::unique_ptr.1"*, %"class.std::__1::unique_ptr.1"** %130, align 8, !dbg !6267
  store %"class.std::__1::vector"* %505, %"class.std::__1::vector"** %218, align 8
  store %"class.std::__1::unique_ptr.1"* %506, %"class.std::__1::unique_ptr.1"** %219, align 8
  %507 = load %"class.std::__1::vector"*, %"class.std::__1::vector"** %218, align 8
  %508 = bitcast %"class.std::__1::vector"* %507 to %"class.std::__1::__vector_base"*, !dbg !6268
  %509 = getelementptr inbounds %"class.std::__1::__vector_base", %"class.std::__1::__vector_base"* %508, i32 0, i32 1, !dbg !6268
  %510 = load %"class.std::__1::unique_ptr.1"*, %"class.std::__1::unique_ptr.1"** %509, align 8, !dbg !6268
  %511 = bitcast %"class.std::__1::vector"* %507 to %"class.std::__1::__vector_base"*, !dbg !6269
  store %"class.std::__1::__vector_base"* %511, %"class.std::__1::__vector_base"** %217, align 8
  %512 = load %"class.std::__1::__vector_base"*, %"class.std::__1::__vector_base"** %217, align 8
  %513 = getelementptr inbounds %"class.std::__1::__vector_base", %"class.std::__1::__vector_base"* %512, i32 0, i32 2, !dbg !6270
  store %"class.std::__1::__compressed_pair.7"* %513, %"class.std::__1::__compressed_pair.7"** %216, align 8
  %514 = load %"class.std::__1::__compressed_pair.7"*, %"class.std::__1::__compressed_pair.7"** %216, align 8
  %515 = bitcast %"class.std::__1::__compressed_pair.7"* %514 to %"struct.std::__1::__compressed_pair_elem.8"*, !dbg !6271
  store %"struct.std::__1::__compressed_pair_elem.8"* %515, %"struct.std::__1::__compressed_pair_elem.8"** %215, align 8
  %516 = load %"struct.std::__1::__compressed_pair_elem.8"*, %"struct.std::__1::__compressed_pair_elem.8"** %215, align 8
  %517 = getelementptr inbounds %"struct.std::__1::__compressed_pair_elem.8", %"struct.std::__1::__compressed_pair_elem.8"* %516, i32 0, i32 0, !dbg !6272
  %518 = load %"class.std::__1::unique_ptr.1"*, %"class.std::__1::unique_ptr.1"** %517, align 8, !dbg !6269
  %519 = icmp ult %"class.std::__1::unique_ptr.1"* %510, %518, !dbg !6273
  br i1 %519, label %520, label %602, !dbg !6274

; <label>:520:                                    ; preds = %503
  store %"struct.std::__1::vector<std::__1::unique_ptr<altered_carbon::js::ACAstBaseNode, std::__1::default_delete<altered_carbon::js::ACAstBaseNode> >, std::__1::allocator<std::__1::unique_ptr<altered_carbon::js::ACAstBaseNode, std::__1::default_delete<altered_carbon::js::ACAstBaseNode> > > >::__RAII_IncreaseAnnotator"* %220, %"struct.std::__1::vector<std::__1::unique_ptr<altered_carbon::js::ACAstBaseNode, std::__1::default_delete<altered_carbon::js::ACAstBaseNode> >, std::__1::allocator<std::__1::unique_ptr<altered_carbon::js::ACAstBaseNode, std::__1::default_delete<altered_carbon::js::ACAstBaseNode> > > >::__RAII_IncreaseAnnotator"** %212, align 8
  store %"class.std::__1::vector"* %507, %"class.std::__1::vector"** %213, align 8
  store i64 1, i64* %214, align 8
  %521 = load %"struct.std::__1::vector<std::__1::unique_ptr<altered_carbon::js::ACAstBaseNode, std::__1::default_delete<altered_carbon::js::ACAstBaseNode> >, std::__1::allocator<std::__1::unique_ptr<altered_carbon::js::ACAstBaseNode, std::__1::default_delete<altered_carbon::js::ACAstBaseNode> > > >::__RAII_IncreaseAnnotator"*, %"struct.std::__1::vector<std::__1::unique_ptr<altered_carbon::js::ACAstBaseNode, std::__1::default_delete<altered_carbon::js::ACAstBaseNode> >, std::__1::allocator<std::__1::unique_ptr<altered_carbon::js::ACAstBaseNode, std::__1::default_delete<altered_carbon::js::ACAstBaseNode> > > >::__RAII_IncreaseAnnotator"** %212, align 8
  %522 = load %"class.std::__1::vector"*, %"class.std::__1::vector"** %213, align 8, !dbg !6275
  %523 = load i64, i64* %214, align 8, !dbg !6275
  store %"struct.std::__1::vector<std::__1::unique_ptr<altered_carbon::js::ACAstBaseNode, std::__1::default_delete<altered_carbon::js::ACAstBaseNode> >, std::__1::allocator<std::__1::unique_ptr<altered_carbon::js::ACAstBaseNode, std::__1::default_delete<altered_carbon::js::ACAstBaseNode> > > >::__RAII_IncreaseAnnotator"* %521, %"struct.std::__1::vector<std::__1::unique_ptr<altered_carbon::js::ACAstBaseNode, std::__1::default_delete<altered_carbon::js::ACAstBaseNode> >, std::__1::allocator<std::__1::unique_ptr<altered_carbon::js::ACAstBaseNode, std::__1::default_delete<altered_carbon::js::ACAstBaseNode> > > >::__RAII_IncreaseAnnotator"** %209, align 8
  store %"class.std::__1::vector"* %522, %"class.std::__1::vector"** %210, align 8
  store i64 %523, i64* %211, align 8
  %524 = load %"struct.std::__1::vector<std::__1::unique_ptr<altered_carbon::js::ACAstBaseNode, std::__1::default_delete<altered_carbon::js::ACAstBaseNode> >, std::__1::allocator<std::__1::unique_ptr<altered_carbon::js::ACAstBaseNode, std::__1::default_delete<altered_carbon::js::ACAstBaseNode> > > >::__RAII_IncreaseAnnotator"*, %"struct.std::__1::vector<std::__1::unique_ptr<altered_carbon::js::ACAstBaseNode, std::__1::default_delete<altered_carbon::js::ACAstBaseNode> >, std::__1::allocator<std::__1::unique_ptr<altered_carbon::js::ACAstBaseNode, std::__1::default_delete<altered_carbon::js::ACAstBaseNode> > > >::__RAII_IncreaseAnnotator"** %209, align 8
  %525 = bitcast %"class.std::__1::vector"* %507 to %"class.std::__1::__vector_base"*, !dbg !6276
  store %"class.std::__1::__vector_base"* %525, %"class.std::__1::__vector_base"** %162, align 8
  %526 = load %"class.std::__1::__vector_base"*, %"class.std::__1::__vector_base"** %162, align 8
  %527 = getelementptr inbounds %"class.std::__1::__vector_base", %"class.std::__1::__vector_base"* %526, i32 0, i32 2, !dbg !6277
  store %"class.std::__1::__compressed_pair.7"* %527, %"class.std::__1::__compressed_pair.7"** %161, align 8
  %528 = load %"class.std::__1::__compressed_pair.7"*, %"class.std::__1::__compressed_pair.7"** %161, align 8
  %529 = bitcast %"class.std::__1::__compressed_pair.7"* %528 to %"struct.std::__1::__compressed_pair_elem.9"*, !dbg !6278
  store %"struct.std::__1::__compressed_pair_elem.9"* %529, %"struct.std::__1::__compressed_pair_elem.9"** %160, align 8
  %530 = load %"struct.std::__1::__compressed_pair_elem.9"*, %"struct.std::__1::__compressed_pair_elem.9"** %160, align 8
  %531 = bitcast %"struct.std::__1::__compressed_pair_elem.9"* %530 to %"class.std::__1::allocator"*, !dbg !6279
  %532 = bitcast %"class.std::__1::vector"* %507 to %"class.std::__1::__vector_base"*, !dbg !6280
  %533 = getelementptr inbounds %"class.std::__1::__vector_base", %"class.std::__1::__vector_base"* %532, i32 0, i32 1, !dbg !6280
  %534 = load %"class.std::__1::unique_ptr.1"*, %"class.std::__1::unique_ptr.1"** %533, align 8, !dbg !6280
  store %"class.std::__1::unique_ptr.1"* %534, %"class.std::__1::unique_ptr.1"** %163, align 8
  %535 = load %"class.std::__1::unique_ptr.1"*, %"class.std::__1::unique_ptr.1"** %163, align 8, !dbg !6281
  %536 = load %"class.std::__1::unique_ptr.1"*, %"class.std::__1::unique_ptr.1"** %219, align 8, !dbg !6282
  store %"class.std::__1::unique_ptr.1"* %536, %"class.std::__1::unique_ptr.1"** %164, align 8
  %537 = load %"class.std::__1::unique_ptr.1"*, %"class.std::__1::unique_ptr.1"** %164, align 8, !dbg !6283
  store %"class.std::__1::allocator"* %531, %"class.std::__1::allocator"** %203, align 8
  store %"class.std::__1::unique_ptr.1"* %535, %"class.std::__1::unique_ptr.1"** %204, align 8
  store %"class.std::__1::unique_ptr.1"* %537, %"class.std::__1::unique_ptr.1"** %205, align 8
  %538 = bitcast %"struct.std::__1::__has_construct"* %206 to %"struct.std::__1::integral_constant"*, !dbg !6284
  %539 = load %"class.std::__1::allocator"*, %"class.std::__1::allocator"** %203, align 8, !dbg !6285
  %540 = load %"class.std::__1::unique_ptr.1"*, %"class.std::__1::unique_ptr.1"** %204, align 8, !dbg !6286
  %541 = load %"class.std::__1::unique_ptr.1"*, %"class.std::__1::unique_ptr.1"** %205, align 8, !dbg !6287
  store %"class.std::__1::unique_ptr.1"* %541, %"class.std::__1::unique_ptr.1"** %202, align 8
  %542 = load %"class.std::__1::unique_ptr.1"*, %"class.std::__1::unique_ptr.1"** %202, align 8, !dbg !6288
  call void @llvm.dbg.declare(metadata !162, metadata !6198, metadata !DIExpression()) #8, !dbg !6289
  store %"class.std::__1::allocator"* %539, %"class.std::__1::allocator"** %199, align 8
  store %"class.std::__1::unique_ptr.1"* %540, %"class.std::__1::unique_ptr.1"** %200, align 8
  store %"class.std::__1::unique_ptr.1"* %542, %"class.std::__1::unique_ptr.1"** %201, align 8
  %543 = load %"class.std::__1::allocator"*, %"class.std::__1::allocator"** %199, align 8, !dbg !6290
  %544 = load %"class.std::__1::unique_ptr.1"*, %"class.std::__1::unique_ptr.1"** %200, align 8, !dbg !6291
  %545 = load %"class.std::__1::unique_ptr.1"*, %"class.std::__1::unique_ptr.1"** %201, align 8, !dbg !6292
  store %"class.std::__1::unique_ptr.1"* %545, %"class.std::__1::unique_ptr.1"** %198, align 8
  %546 = load %"class.std::__1::unique_ptr.1"*, %"class.std::__1::unique_ptr.1"** %198, align 8, !dbg !6293
  store %"class.std::__1::allocator"* %543, %"class.std::__1::allocator"** %195, align 8
  store %"class.std::__1::unique_ptr.1"* %544, %"class.std::__1::unique_ptr.1"** %196, align 8
  store %"class.std::__1::unique_ptr.1"* %546, %"class.std::__1::unique_ptr.1"** %197, align 8
  %547 = load %"class.std::__1::allocator"*, %"class.std::__1::allocator"** %195, align 8
  %548 = load %"class.std::__1::unique_ptr.1"*, %"class.std::__1::unique_ptr.1"** %196, align 8, !dbg !6294
  %549 = bitcast %"class.std::__1::unique_ptr.1"* %548 to i8*, !dbg !6294
  %550 = load %"class.std::__1::unique_ptr.1"*, %"class.std::__1::unique_ptr.1"** %197, align 8, !dbg !6295
  store %"class.std::__1::unique_ptr.1"* %550, %"class.std::__1::unique_ptr.1"** %194, align 8
  %551 = load %"class.std::__1::unique_ptr.1"*, %"class.std::__1::unique_ptr.1"** %194, align 8, !dbg !6296
  store %"class.std::__1::unique_ptr.1"* %548, %"class.std::__1::unique_ptr.1"** %192, align 8
  store %"class.std::__1::unique_ptr.1"* %551, %"class.std::__1::unique_ptr.1"** %193, align 8
  %552 = load %"class.std::__1::unique_ptr.1"*, %"class.std::__1::unique_ptr.1"** %192, align 8
  %553 = load %"class.std::__1::unique_ptr.1"*, %"class.std::__1::unique_ptr.1"** %193, align 8, !dbg !6297
  store %"class.std::__1::unique_ptr.1"* %552, %"class.std::__1::unique_ptr.1"** %189, align 8
  store %"class.std::__1::unique_ptr.1"* %553, %"class.std::__1::unique_ptr.1"** %190, align 8
  %554 = load %"class.std::__1::unique_ptr.1"*, %"class.std::__1::unique_ptr.1"** %189, align 8
  %555 = getelementptr inbounds %"class.std::__1::unique_ptr.1", %"class.std::__1::unique_ptr.1"* %554, i32 0, i32 0, !dbg !6298
  %556 = load %"class.std::__1::unique_ptr.1"*, %"class.std::__1::unique_ptr.1"** %190, align 8, !dbg !6299
  store %"class.std::__1::unique_ptr.1"* %556, %"class.std::__1::unique_ptr.1"** %187, align 8
  %557 = load %"class.std::__1::unique_ptr.1"*, %"class.std::__1::unique_ptr.1"** %187, align 8
  %558 = getelementptr inbounds %"class.std::__1::unique_ptr.1", %"class.std::__1::unique_ptr.1"* %557, i32 0, i32 0, !dbg !6300
  store %"class.std::__1::__compressed_pair.2"* %558, %"class.std::__1::__compressed_pair.2"** %186, align 8
  %559 = load %"class.std::__1::__compressed_pair.2"*, %"class.std::__1::__compressed_pair.2"** %186, align 8
  %560 = bitcast %"class.std::__1::__compressed_pair.2"* %559 to %"struct.std::__1::__compressed_pair_elem.3"*, !dbg !6301
  store %"struct.std::__1::__compressed_pair_elem.3"* %560, %"struct.std::__1::__compressed_pair_elem.3"** %185, align 8
  %561 = load %"struct.std::__1::__compressed_pair_elem.3"*, %"struct.std::__1::__compressed_pair_elem.3"** %185, align 8
  %562 = getelementptr inbounds %"struct.std::__1::__compressed_pair_elem.3", %"struct.std::__1::__compressed_pair_elem.3"* %561, i32 0, i32 0, !dbg !6302
  %563 = load %"class.altered_carbon::js::ACAstBaseNode"*, %"class.altered_carbon::js::ACAstBaseNode"** %562, align 8, !dbg !6303
  store %"class.altered_carbon::js::ACAstBaseNode"* %563, %"class.altered_carbon::js::ACAstBaseNode"** %188, align 8, !dbg !6028
  %564 = getelementptr inbounds %"class.std::__1::unique_ptr.1", %"class.std::__1::unique_ptr.1"* %557, i32 0, i32 0, !dbg !6304
  store %"class.std::__1::__compressed_pair.2"* %564, %"class.std::__1::__compressed_pair.2"** %184, align 8
  %565 = load %"class.std::__1::__compressed_pair.2"*, %"class.std::__1::__compressed_pair.2"** %184, align 8
  %566 = bitcast %"class.std::__1::__compressed_pair.2"* %565 to %"struct.std::__1::__compressed_pair_elem.3"*, !dbg !6305
  store %"struct.std::__1::__compressed_pair_elem.3"* %566, %"struct.std::__1::__compressed_pair_elem.3"** %183, align 8
  %567 = load %"struct.std::__1::__compressed_pair_elem.3"*, %"struct.std::__1::__compressed_pair_elem.3"** %183, align 8
  %568 = getelementptr inbounds %"struct.std::__1::__compressed_pair_elem.3", %"struct.std::__1::__compressed_pair_elem.3"* %567, i32 0, i32 0, !dbg !6306
  store %"class.altered_carbon::js::ACAstBaseNode"* null, %"class.altered_carbon::js::ACAstBaseNode"** %568, align 8, !dbg !6307
  %569 = load %"class.altered_carbon::js::ACAstBaseNode"*, %"class.altered_carbon::js::ACAstBaseNode"** %188, align 8, !dbg !6308
  store %"class.altered_carbon::js::ACAstBaseNode"* %569, %"class.altered_carbon::js::ACAstBaseNode"** %191, align 8, !dbg !6299
  %570 = load %"class.std::__1::unique_ptr.1"*, %"class.std::__1::unique_ptr.1"** %190, align 8, !dbg !6309
  store %"class.std::__1::unique_ptr.1"* %570, %"class.std::__1::unique_ptr.1"** %167, align 8
  %571 = load %"class.std::__1::unique_ptr.1"*, %"class.std::__1::unique_ptr.1"** %167, align 8
  %572 = getelementptr inbounds %"class.std::__1::unique_ptr.1", %"class.std::__1::unique_ptr.1"* %571, i32 0, i32 0, !dbg !6310
  store %"class.std::__1::__compressed_pair.2"* %572, %"class.std::__1::__compressed_pair.2"** %166, align 8
  %573 = load %"class.std::__1::__compressed_pair.2"*, %"class.std::__1::__compressed_pair.2"** %166, align 8
  %574 = bitcast %"class.std::__1::__compressed_pair.2"* %573 to %"struct.std::__1::__compressed_pair_elem.4"*, !dbg !6311
  store %"struct.std::__1::__compressed_pair_elem.4"* %574, %"struct.std::__1::__compressed_pair_elem.4"** %165, align 8
  %575 = load %"struct.std::__1::__compressed_pair_elem.4"*, %"struct.std::__1::__compressed_pair_elem.4"** %165, align 8
  %576 = bitcast %"struct.std::__1::__compressed_pair_elem.4"* %575 to %"struct.std::__1::default_delete.5"*, !dbg !6312
  store %"struct.std::__1::default_delete.5"* %576, %"struct.std::__1::default_delete.5"** %168, align 8
  %577 = load %"struct.std::__1::default_delete.5"*, %"struct.std::__1::default_delete.5"** %168, align 8, !dbg !6313
  store %"class.std::__1::__compressed_pair.2"* %555, %"class.std::__1::__compressed_pair.2"** %180, align 8
  store %"class.altered_carbon::js::ACAstBaseNode"** %191, %"class.altered_carbon::js::ACAstBaseNode"*** %181, align 8
  store %"struct.std::__1::default_delete.5"* %577, %"struct.std::__1::default_delete.5"** %182, align 8
  %578 = load %"class.std::__1::__compressed_pair.2"*, %"class.std::__1::__compressed_pair.2"** %180, align 8
  %579 = load %"class.altered_carbon::js::ACAstBaseNode"**, %"class.altered_carbon::js::ACAstBaseNode"*** %181, align 8, !dbg !6314
  %580 = load %"struct.std::__1::default_delete.5"*, %"struct.std::__1::default_delete.5"** %182, align 8, !dbg !6314
  store %"class.std::__1::__compressed_pair.2"* %578, %"class.std::__1::__compressed_pair.2"** %177, align 8
  store %"class.altered_carbon::js::ACAstBaseNode"** %579, %"class.altered_carbon::js::ACAstBaseNode"*** %178, align 8
  store %"struct.std::__1::default_delete.5"* %580, %"struct.std::__1::default_delete.5"** %179, align 8
  %581 = load %"class.std::__1::__compressed_pair.2"*, %"class.std::__1::__compressed_pair.2"** %177, align 8
  %582 = bitcast %"class.std::__1::__compressed_pair.2"* %581 to %"struct.std::__1::__compressed_pair_elem.3"*, !dbg !6315
  %583 = load %"class.altered_carbon::js::ACAstBaseNode"**, %"class.altered_carbon::js::ACAstBaseNode"*** %178, align 8, !dbg !6316
  store %"class.altered_carbon::js::ACAstBaseNode"** %583, %"class.altered_carbon::js::ACAstBaseNode"*** %176, align 8
  %584 = load %"class.altered_carbon::js::ACAstBaseNode"**, %"class.altered_carbon::js::ACAstBaseNode"*** %176, align 8, !dbg !6317
  store %"struct.std::__1::__compressed_pair_elem.3"* %582, %"struct.std::__1::__compressed_pair_elem.3"** %170, align 8
  store %"class.altered_carbon::js::ACAstBaseNode"** %584, %"class.altered_carbon::js::ACAstBaseNode"*** %171, align 8
  %585 = load %"struct.std::__1::__compressed_pair_elem.3"*, %"struct.std::__1::__compressed_pair_elem.3"** %170, align 8
  %586 = getelementptr inbounds %"struct.std::__1::__compressed_pair_elem.3", %"struct.std::__1::__compressed_pair_elem.3"* %585, i32 0, i32 0, !dbg !6318
  %587 = load %"class.altered_carbon::js::ACAstBaseNode"**, %"class.altered_carbon::js::ACAstBaseNode"*** %171, align 8, !dbg !6319
  store %"class.altered_carbon::js::ACAstBaseNode"** %587, %"class.altered_carbon::js::ACAstBaseNode"*** %169, align 8
  %588 = load %"class.altered_carbon::js::ACAstBaseNode"**, %"class.altered_carbon::js::ACAstBaseNode"*** %169, align 8, !dbg !6320
  %589 = load %"class.altered_carbon::js::ACAstBaseNode"*, %"class.altered_carbon::js::ACAstBaseNode"** %588, align 8, !dbg !6321
  store %"class.altered_carbon::js::ACAstBaseNode"* %589, %"class.altered_carbon::js::ACAstBaseNode"** %586, align 8, !dbg !6318
  %590 = bitcast %"class.std::__1::__compressed_pair.2"* %581 to %"struct.std::__1::__compressed_pair_elem.4"*, !dbg !6315
  %591 = load %"struct.std::__1::default_delete.5"*, %"struct.std::__1::default_delete.5"** %179, align 8, !dbg !6322
  store %"struct.std::__1::default_delete.5"* %591, %"struct.std::__1::default_delete.5"** %172, align 8
  %592 = load %"struct.std::__1::default_delete.5"*, %"struct.std::__1::default_delete.5"** %172, align 8, !dbg !6323
  store %"struct.std::__1::__compressed_pair_elem.4"* %590, %"struct.std::__1::__compressed_pair_elem.4"** %174, align 8
  store %"struct.std::__1::default_delete.5"* %592, %"struct.std::__1::default_delete.5"** %175, align 8
  %593 = load %"struct.std::__1::__compressed_pair_elem.4"*, %"struct.std::__1::__compressed_pair_elem.4"** %174, align 8
  %594 = bitcast %"struct.std::__1::__compressed_pair_elem.4"* %593 to %"struct.std::__1::default_delete.5"*, !dbg !6324
  %595 = load %"struct.std::__1::default_delete.5"*, %"struct.std::__1::default_delete.5"** %175, align 8, !dbg !6325
  store %"struct.std::__1::default_delete.5"* %595, %"struct.std::__1::default_delete.5"** %173, align 8
  %596 = load %"struct.std::__1::default_delete.5"*, %"struct.std::__1::default_delete.5"** %173, align 8, !dbg !6326
  store %"struct.std::__1::vector<std::__1::unique_ptr<altered_carbon::js::ACAstBaseNode, std::__1::default_delete<altered_carbon::js::ACAstBaseNode> >, std::__1::allocator<std::__1::unique_ptr<altered_carbon::js::ACAstBaseNode, std::__1::default_delete<altered_carbon::js::ACAstBaseNode> > > >::__RAII_IncreaseAnnotator"* %220, %"struct.std::__1::vector<std::__1::unique_ptr<altered_carbon::js::ACAstBaseNode, std::__1::default_delete<altered_carbon::js::ACAstBaseNode> >, std::__1::allocator<std::__1::unique_ptr<altered_carbon::js::ACAstBaseNode, std::__1::default_delete<altered_carbon::js::ACAstBaseNode> > > >::__RAII_IncreaseAnnotator"** %207, align 8
  %597 = load %"struct.std::__1::vector<std::__1::unique_ptr<altered_carbon::js::ACAstBaseNode, std::__1::default_delete<altered_carbon::js::ACAstBaseNode> >, std::__1::allocator<std::__1::unique_ptr<altered_carbon::js::ACAstBaseNode, std::__1::default_delete<altered_carbon::js::ACAstBaseNode> > > >::__RAII_IncreaseAnnotator"*, %"struct.std::__1::vector<std::__1::unique_ptr<altered_carbon::js::ACAstBaseNode, std::__1::default_delete<altered_carbon::js::ACAstBaseNode> >, std::__1::allocator<std::__1::unique_ptr<altered_carbon::js::ACAstBaseNode, std::__1::default_delete<altered_carbon::js::ACAstBaseNode> > > >::__RAII_IncreaseAnnotator"** %207, align 8
  %598 = bitcast %"class.std::__1::vector"* %507 to %"class.std::__1::__vector_base"*, !dbg !6327
  %599 = getelementptr inbounds %"class.std::__1::__vector_base", %"class.std::__1::__vector_base"* %598, i32 0, i32 1, !dbg !6327
  %600 = load %"class.std::__1::unique_ptr.1"*, %"class.std::__1::unique_ptr.1"** %599, align 8, !dbg !6328
  %601 = getelementptr inbounds %"class.std::__1::unique_ptr.1", %"class.std::__1::unique_ptr.1"* %600, i32 1, !dbg !6328
  store %"class.std::__1::unique_ptr.1"* %601, %"class.std::__1::unique_ptr.1"** %599, align 8, !dbg !6328
  br label %605, !dbg !6329

; <label>:602:                                    ; preds = %503
  %603 = load %"class.std::__1::unique_ptr.1"*, %"class.std::__1::unique_ptr.1"** %219, align 8, !dbg !6330
  store %"class.std::__1::unique_ptr.1"* %603, %"class.std::__1::unique_ptr.1"** %208, align 8
  %604 = load %"class.std::__1::unique_ptr.1"*, %"class.std::__1::unique_ptr.1"** %208, align 8, !dbg !6331
  call void @_ZNSt3__16vectorINS_10unique_ptrIN14altered_carbon2js13ACAstBaseNodeENS_14default_deleteIS4_EEEENS_9allocatorIS7_EEE21__push_back_slow_pathIS7_EEvOT_(%"class.std::__1::vector"* %507, %"class.std::__1::unique_ptr.1"* dereferenceable(8) %604) #8, !dbg !6332
  br label %605

; <label>:605:                                    ; preds = %520, %602
  br label %606, !dbg !6333

; <label>:606:                                    ; preds = %605, %494
  ret void, !dbg !6334
}

; Function Attrs: nounwind readnone speculatable
declare void @llvm.dbg.declare(metadata, metadata, metadata) #1

declare void @_ZN14altered_carbon2js13ACAstBaseNodeC2ENSt3__110unique_ptrINS0_13ACLexPositionENS2_14default_deleteIS4_EEEENS1_11AstNodeTypeENS1_14AstNodeSubTypeE(%"class.altered_carbon::js::ACAstBaseNode"*, %"class.std::__1::unique_ptr"*, i32, i32) unnamed_addr #2

; Function Attrs: noinline nounwind optnone ssp uwtable
define void @_ZN14altered_carbon2js20ACAstIdentifierParamC1ENSt3__110unique_ptrINS0_13ACLexPositionENS2_14default_deleteIS4_EEEENS3_INS0_16ACAstVariantNodeENS5_IS8_EEEENS3_INS0_13ACAstBaseNodeENS5_ISB_EEEENSB_11AstNodeTypeENSB_14AstNodeSubTypeE(%"class.altered_carbon::js::ACAstIdentifierParam"*, %"class.std::__1::unique_ptr"*, %"class.std::__1::unique_ptr.10"*, %"class.std::__1::unique_ptr.1"*, i32, i32) unnamed_addr #0 align 2 !dbg !6335 {
  %7 = alloca %"class.altered_carbon::js::ACAstIdentifierParam"*, align 8
  %8 = alloca i32, align 4
  %9 = alloca i32, align 4
  store %"class.altered_carbon::js::ACAstIdentifierParam"* %0, %"class.altered_carbon::js::ACAstIdentifierParam"** %7, align 8
  call void @llvm.dbg.declare(metadata %"class.altered_carbon::js::ACAstIdentifierParam"** %7, metadata !6336, metadata !DIExpression()), !dbg !6337
  call void @llvm.dbg.declare(metadata %"class.std::__1::unique_ptr"* %1, metadata !6338, metadata !DIExpression()), !dbg !6339
  call void @llvm.dbg.declare(metadata %"class.std::__1::unique_ptr.10"* %2, metadata !6340, metadata !DIExpression()), !dbg !6341
  call void @llvm.dbg.declare(metadata %"class.std::__1::unique_ptr.1"* %3, metadata !6342, metadata !DIExpression()), !dbg !6343
  store i32 %4, i32* %8, align 4
  call void @llvm.dbg.declare(metadata i32* %8, metadata !6344, metadata !DIExpression()), !dbg !6345
  store i32 %5, i32* %9, align 4
  call void @llvm.dbg.declare(metadata i32* %9, metadata !6346, metadata !DIExpression()), !dbg !6347
  %10 = load %"class.altered_carbon::js::ACAstIdentifierParam"*, %"class.altered_carbon::js::ACAstIdentifierParam"** %7, align 8
  %11 = load i32, i32* %8, align 4, !dbg !6348
  %12 = load i32, i32* %9, align 4, !dbg !6348
  call void @_ZN14altered_carbon2js20ACAstIdentifierParamC2ENSt3__110unique_ptrINS0_13ACLexPositionENS2_14default_deleteIS4_EEEENS3_INS0_16ACAstVariantNodeENS5_IS8_EEEENS3_INS0_13ACAstBaseNodeENS5_ISB_EEEENSB_11AstNodeTypeENSB_14AstNodeSubTypeE(%"class.altered_carbon::js::ACAstIdentifierParam"* %10, %"class.std::__1::unique_ptr"* %1, %"class.std::__1::unique_ptr.10"* %2, %"class.std::__1::unique_ptr.1"* %3, i32 %11, i32 %12), !dbg !6348
  ret void, !dbg !6349
}

; Function Attrs: noinline nounwind optnone ssp uwtable
define void @_ZNK14altered_carbon2js20ACAstIdentifierParam14dumpGraphLabelERNSt3__113basic_ostreamIcNS2_11char_traitsIcEEEE(%"class.altered_carbon::js::ACAstIdentifierParam"*, %"class.std::__1::basic_ostream"* dereferenceable(160)) unnamed_addr #0 align 2 !dbg !6350 {
  %3 = alloca %"class.std::__1::vector"*, align 8
  call void @llvm.dbg.declare(metadata %"class.std::__1::vector"** %3, metadata !6351, metadata !DIExpression()), !dbg !6354
  %4 = alloca %"class.altered_carbon::js::ACAstIdentifierParam"*, align 8
  %5 = alloca %"class.std::__1::basic_ostream"*, align 8
  store %"class.altered_carbon::js::ACAstIdentifierParam"* %0, %"class.altered_carbon::js::ACAstIdentifierParam"** %4, align 8
  call void @llvm.dbg.declare(metadata %"class.altered_carbon::js::ACAstIdentifierParam"** %4, metadata !6357, metadata !DIExpression()), !dbg !6358
  store %"class.std::__1::basic_ostream"* %1, %"class.std::__1::basic_ostream"** %5, align 8
  call void @llvm.dbg.declare(metadata %"class.std::__1::basic_ostream"** %5, metadata !6359, metadata !DIExpression()), !dbg !6360
  %6 = load %"class.altered_carbon::js::ACAstIdentifierParam"*, %"class.altered_carbon::js::ACAstIdentifierParam"** %4, align 8
  %7 = bitcast %"class.altered_carbon::js::ACAstIdentifierParam"* %6 to %"class.altered_carbon::js::ACAstBaseNode"*, !dbg !6361
  %8 = getelementptr inbounds %"class.altered_carbon::js::ACAstBaseNode", %"class.altered_carbon::js::ACAstBaseNode"* %7, i32 0, i32 4, !dbg !6361
  store %"class.std::__1::vector"* %8, %"class.std::__1::vector"** %3, align 8
  %9 = load %"class.std::__1::vector"*, %"class.std::__1::vector"** %3, align 8
  %10 = bitcast %"class.std::__1::vector"* %9 to %"class.std::__1::__vector_base"*, !dbg !6362
  %11 = getelementptr inbounds %"class.std::__1::__vector_base", %"class.std::__1::__vector_base"* %10, i32 0, i32 1, !dbg !6362
  %12 = load %"class.std::__1::unique_ptr.1"*, %"class.std::__1::unique_ptr.1"** %11, align 8, !dbg !6362
  %13 = bitcast %"class.std::__1::vector"* %9 to %"class.std::__1::__vector_base"*, !dbg !6363
  %14 = getelementptr inbounds %"class.std::__1::__vector_base", %"class.std::__1::__vector_base"* %13, i32 0, i32 0, !dbg !6363
  %15 = load %"class.std::__1::unique_ptr.1"*, %"class.std::__1::unique_ptr.1"** %14, align 8, !dbg !6363
  %16 = ptrtoint %"class.std::__1::unique_ptr.1"* %12 to i64, !dbg !6364
  %17 = ptrtoint %"class.std::__1::unique_ptr.1"* %15 to i64, !dbg !6364
  %18 = sub i64 %16, %17, !dbg !6364
  %19 = sdiv exact i64 %18, 8, !dbg !6364
  %20 = icmp ugt i64 %19, 1, !dbg !6365
  br i1 %20, label %21, label %24, !dbg !6366

; <label>:21:                                     ; preds = %2
  %22 = load %"class.std::__1::basic_ostream"*, %"class.std::__1::basic_ostream"** %5, align 8, !dbg !6367
  %23 = call dereferenceable(160) %"class.std::__1::basic_ostream"* @_ZNSt3__1lsINS_11char_traitsIcEEEERNS_13basic_ostreamIcT_EES6_PKc(%"class.std::__1::basic_ostream"* dereferenceable(160) %22, i8* getelementptr inbounds ([2 x i8], [2 x i8]* @.str, i32 0, i32 0)), !dbg !6369
  br label %27, !dbg !6370

; <label>:24:                                     ; preds = %2
  %25 = load %"class.std::__1::basic_ostream"*, %"class.std::__1::basic_ostream"** %5, align 8, !dbg !6371
  %26 = call dereferenceable(160) %"class.std::__1::basic_ostream"* @_ZNSt3__1lsINS_11char_traitsIcEEEERNS_13basic_ostreamIcT_EES6_PKc(%"class.std::__1::basic_ostream"* dereferenceable(160) %25, i8* getelementptr inbounds ([19 x i8], [19 x i8]* @.str.1, i32 0, i32 0)), !dbg !6373
  br label %27

; <label>:27:                                     ; preds = %24, %21
  ret void, !dbg !6374
}

; Function Attrs: noinline nounwind optnone ssp uwtable
define linkonce_odr dereferenceable(160) %"class.std::__1::basic_ostream"* @_ZNSt3__1lsINS_11char_traitsIcEEEERNS_13basic_ostreamIcT_EES6_PKc(%"class.std::__1::basic_ostream"* dereferenceable(160), i8*) #0 !dbg !6375 {
  %3 = alloca %"class.std::__1::basic_ostream"*, align 8
  %4 = alloca i8*, align 8
  store %"class.std::__1::basic_ostream"* %0, %"class.std::__1::basic_ostream"** %3, align 8
  call void @llvm.dbg.declare(metadata %"class.std::__1::basic_ostream"** %3, metadata !6379, metadata !DIExpression()), !dbg !6380
  store i8* %1, i8** %4, align 8
  call void @llvm.dbg.declare(metadata i8** %4, metadata !6381, metadata !DIExpression()), !dbg !6382
  %5 = load %"class.std::__1::basic_ostream"*, %"class.std::__1::basic_ostream"** %3, align 8, !dbg !6383
  %6 = load i8*, i8** %4, align 8, !dbg !6384
  %7 = load i8*, i8** %4, align 8, !dbg !6385
  %8 = call i64 @_ZNSt3__111char_traitsIcE6lengthEPKc(i8* %7) #8, !dbg !6386
  %9 = call dereferenceable(160) %"class.std::__1::basic_ostream"* @_ZNSt3__124__put_character_sequenceIcNS_11char_traitsIcEEEERNS_13basic_ostreamIT_T0_EES7_PKS4_m(%"class.std::__1::basic_ostream"* dereferenceable(160) %5, i8* %6, i64 %8), !dbg !6387
  ret %"class.std::__1::basic_ostream"* %9, !dbg !6388
}

; Function Attrs: noinline nounwind optnone ssp uwtable
define void @_ZNK14altered_carbon2js20ACAstIdentifierParam14dumpChildNodesERNSt3__113basic_ostreamIcNS2_11char_traitsIcEEEE(%"class.altered_carbon::js::ACAstIdentifierParam"*, %"class.std::__1::basic_ostream"* dereferenceable(160)) unnamed_addr #0 align 2 !dbg !6389 {
  %3 = alloca %"class.std::__1::vector"*, align 8
  call void @llvm.dbg.declare(metadata %"class.std::__1::vector"** %3, metadata !6390, metadata !DIExpression()), !dbg !6392
  %4 = alloca i64, align 8
  call void @llvm.dbg.declare(metadata i64* %4, metadata !6396, metadata !DIExpression()), !dbg !6397
  %5 = alloca %"struct.std::__1::__compressed_pair_elem.3"*, align 8
  call void @llvm.dbg.declare(metadata %"struct.std::__1::__compressed_pair_elem.3"** %5, metadata !5848, metadata !DIExpression()), !dbg !6398
  %6 = alloca %"class.std::__1::__compressed_pair.2"*, align 8
  call void @llvm.dbg.declare(metadata %"class.std::__1::__compressed_pair.2"** %6, metadata !5858, metadata !DIExpression()), !dbg !6403
  %7 = alloca %"class.std::__1::unique_ptr.1"*, align 8
  call void @llvm.dbg.declare(metadata %"class.std::__1::unique_ptr.1"** %7, metadata !6404, metadata !DIExpression()), !dbg !6405
  %8 = alloca %"class.std::__1::vector"*, align 8
  call void @llvm.dbg.declare(metadata %"class.std::__1::vector"** %8, metadata !6351, metadata !DIExpression()), !dbg !6406
  %9 = alloca %"struct.std::__1::__compressed_pair_elem.3"*, align 8
  call void @llvm.dbg.declare(metadata %"struct.std::__1::__compressed_pair_elem.3"** %9, metadata !5848, metadata !DIExpression()), !dbg !6408
  %10 = alloca %"class.std::__1::__compressed_pair.2"*, align 8
  call void @llvm.dbg.declare(metadata %"class.std::__1::__compressed_pair.2"** %10, metadata !5858, metadata !DIExpression()), !dbg !6412
  %11 = alloca %"class.std::__1::unique_ptr.1"*, align 8
  call void @llvm.dbg.declare(metadata %"class.std::__1::unique_ptr.1"** %11, metadata !6404, metadata !DIExpression()), !dbg !6413
  %12 = alloca %"class.std::__1::vector"*, align 8
  call void @llvm.dbg.declare(metadata %"class.std::__1::vector"** %12, metadata !6390, metadata !DIExpression()), !dbg !6414
  %13 = alloca i64, align 8
  call void @llvm.dbg.declare(metadata i64* %13, metadata !6396, metadata !DIExpression()), !dbg !6416
  %14 = alloca %"class.altered_carbon::js::ACAstIdentifierParam"*, align 8
  %15 = alloca %"class.std::__1::basic_ostream"*, align 8
  store %"class.altered_carbon::js::ACAstIdentifierParam"* %0, %"class.altered_carbon::js::ACAstIdentifierParam"** %14, align 8
  call void @llvm.dbg.declare(metadata %"class.altered_carbon::js::ACAstIdentifierParam"** %14, metadata !6417, metadata !DIExpression()), !dbg !6418
  store %"class.std::__1::basic_ostream"* %1, %"class.std::__1::basic_ostream"** %15, align 8
  call void @llvm.dbg.declare(metadata %"class.std::__1::basic_ostream"** %15, metadata !6419, metadata !DIExpression()), !dbg !6420
  %16 = load %"class.altered_carbon::js::ACAstIdentifierParam"*, %"class.altered_carbon::js::ACAstIdentifierParam"** %14, align 8
  %17 = load %"class.std::__1::basic_ostream"*, %"class.std::__1::basic_ostream"** %15, align 8, !dbg !6421
  %18 = call dereferenceable(160) %"class.std::__1::basic_ostream"* @_ZNSt3__1lsINS_11char_traitsIcEEEERNS_13basic_ostreamIcT_EES6_PKc(%"class.std::__1::basic_ostream"* dereferenceable(160) %17, i8* getelementptr inbounds ([2 x i8], [2 x i8]* @.str.2, i32 0, i32 0)), !dbg !6422
  %19 = bitcast %"class.altered_carbon::js::ACAstIdentifierParam"* %16 to %"class.altered_carbon::js::ACAstBaseNode"*, !dbg !6423
  %20 = getelementptr inbounds %"class.altered_carbon::js::ACAstBaseNode", %"class.altered_carbon::js::ACAstBaseNode"* %19, i32 0, i32 4, !dbg !6423
  store %"class.std::__1::vector"* %20, %"class.std::__1::vector"** %12, align 8
  store i64 0, i64* %13, align 8
  %21 = load %"class.std::__1::vector"*, %"class.std::__1::vector"** %12, align 8
  %22 = bitcast %"class.std::__1::vector"* %21 to %"class.std::__1::__vector_base"*, !dbg !6424
  %23 = getelementptr inbounds %"class.std::__1::__vector_base", %"class.std::__1::__vector_base"* %22, i32 0, i32 0, !dbg !6424
  %24 = load %"class.std::__1::unique_ptr.1"*, %"class.std::__1::unique_ptr.1"** %23, align 8, !dbg !6424
  %25 = load i64, i64* %13, align 8, !dbg !6425
  %26 = getelementptr inbounds %"class.std::__1::unique_ptr.1", %"class.std::__1::unique_ptr.1"* %24, i64 %25, !dbg !6426
  store %"class.std::__1::unique_ptr.1"* %26, %"class.std::__1::unique_ptr.1"** %11, align 8
  %27 = load %"class.std::__1::unique_ptr.1"*, %"class.std::__1::unique_ptr.1"** %11, align 8
  %28 = getelementptr inbounds %"class.std::__1::unique_ptr.1", %"class.std::__1::unique_ptr.1"* %27, i32 0, i32 0, !dbg !6427
  store %"class.std::__1::__compressed_pair.2"* %28, %"class.std::__1::__compressed_pair.2"** %10, align 8
  %29 = load %"class.std::__1::__compressed_pair.2"*, %"class.std::__1::__compressed_pair.2"** %10, align 8
  %30 = bitcast %"class.std::__1::__compressed_pair.2"* %29 to %"struct.std::__1::__compressed_pair_elem.3"*, !dbg !6428
  store %"struct.std::__1::__compressed_pair_elem.3"* %30, %"struct.std::__1::__compressed_pair_elem.3"** %9, align 8
  %31 = load %"struct.std::__1::__compressed_pair_elem.3"*, %"struct.std::__1::__compressed_pair_elem.3"** %9, align 8
  %32 = getelementptr inbounds %"struct.std::__1::__compressed_pair_elem.3", %"struct.std::__1::__compressed_pair_elem.3"* %31, i32 0, i32 0, !dbg !6429
  %33 = load %"class.altered_carbon::js::ACAstBaseNode"*, %"class.altered_carbon::js::ACAstBaseNode"** %32, align 8, !dbg !6430
  %34 = bitcast %"class.altered_carbon::js::ACAstBaseNode"* %33 to void (%"class.altered_carbon::js::ACAstBaseNode"*, %"class.std::__1::basic_ostream"*)***, !dbg !6431
  %35 = load void (%"class.altered_carbon::js::ACAstBaseNode"*, %"class.std::__1::basic_ostream"*)**, void (%"class.altered_carbon::js::ACAstBaseNode"*, %"class.std::__1::basic_ostream"*)*** %34, align 8, !dbg !6431
  %36 = getelementptr inbounds void (%"class.altered_carbon::js::ACAstBaseNode"*, %"class.std::__1::basic_ostream"*)*, void (%"class.altered_carbon::js::ACAstBaseNode"*, %"class.std::__1::basic_ostream"*)** %35, i64 8, !dbg !6431
  %37 = load void (%"class.altered_carbon::js::ACAstBaseNode"*, %"class.std::__1::basic_ostream"*)*, void (%"class.altered_carbon::js::ACAstBaseNode"*, %"class.std::__1::basic_ostream"*)** %36, align 8, !dbg !6431
  %38 = load %"class.std::__1::basic_ostream"*, %"class.std::__1::basic_ostream"** %15, align 8, !dbg !6432
  call void %37(%"class.altered_carbon::js::ACAstBaseNode"* %33, %"class.std::__1::basic_ostream"* dereferenceable(160) %38), !dbg !6431
  %39 = bitcast %"class.altered_carbon::js::ACAstIdentifierParam"* %16 to %"class.altered_carbon::js::ACAstBaseNode"*, !dbg !6433
  %40 = getelementptr inbounds %"class.altered_carbon::js::ACAstBaseNode", %"class.altered_carbon::js::ACAstBaseNode"* %39, i32 0, i32 4, !dbg !6433
  store %"class.std::__1::vector"* %40, %"class.std::__1::vector"** %8, align 8
  %41 = load %"class.std::__1::vector"*, %"class.std::__1::vector"** %8, align 8
  %42 = bitcast %"class.std::__1::vector"* %41 to %"class.std::__1::__vector_base"*, !dbg !6434
  %43 = getelementptr inbounds %"class.std::__1::__vector_base", %"class.std::__1::__vector_base"* %42, i32 0, i32 1, !dbg !6434
  %44 = load %"class.std::__1::unique_ptr.1"*, %"class.std::__1::unique_ptr.1"** %43, align 8, !dbg !6434
  %45 = bitcast %"class.std::__1::vector"* %41 to %"class.std::__1::__vector_base"*, !dbg !6435
  %46 = getelementptr inbounds %"class.std::__1::__vector_base", %"class.std::__1::__vector_base"* %45, i32 0, i32 0, !dbg !6435
  %47 = load %"class.std::__1::unique_ptr.1"*, %"class.std::__1::unique_ptr.1"** %46, align 8, !dbg !6435
  %48 = ptrtoint %"class.std::__1::unique_ptr.1"* %44 to i64, !dbg !6436
  %49 = ptrtoint %"class.std::__1::unique_ptr.1"* %47 to i64, !dbg !6436
  %50 = sub i64 %48, %49, !dbg !6436
  %51 = sdiv exact i64 %50, 8, !dbg !6436
  %52 = icmp ugt i64 %51, 1, !dbg !6437
  br i1 %52, label %53, label %76, !dbg !6438

; <label>:53:                                     ; preds = %2
  %54 = load %"class.std::__1::basic_ostream"*, %"class.std::__1::basic_ostream"** %15, align 8, !dbg !6439
  %55 = call dereferenceable(160) %"class.std::__1::basic_ostream"* @_ZNSt3__1lsINS_11char_traitsIcEEEERNS_13basic_ostreamIcT_EES6_PKc(%"class.std::__1::basic_ostream"* dereferenceable(160) %54, i8* getelementptr inbounds ([6 x i8], [6 x i8]* @.str.3, i32 0, i32 0)), !dbg !6440
  %56 = bitcast %"class.altered_carbon::js::ACAstIdentifierParam"* %16 to %"class.altered_carbon::js::ACAstBaseNode"*, !dbg !6441
  %57 = getelementptr inbounds %"class.altered_carbon::js::ACAstBaseNode", %"class.altered_carbon::js::ACAstBaseNode"* %56, i32 0, i32 4, !dbg !6441
  store %"class.std::__1::vector"* %57, %"class.std::__1::vector"** %3, align 8
  store i64 1, i64* %4, align 8
  %58 = load %"class.std::__1::vector"*, %"class.std::__1::vector"** %3, align 8
  %59 = bitcast %"class.std::__1::vector"* %58 to %"class.std::__1::__vector_base"*, !dbg !6442
  %60 = getelementptr inbounds %"class.std::__1::__vector_base", %"class.std::__1::__vector_base"* %59, i32 0, i32 0, !dbg !6442
  %61 = load %"class.std::__1::unique_ptr.1"*, %"class.std::__1::unique_ptr.1"** %60, align 8, !dbg !6442
  %62 = load i64, i64* %4, align 8, !dbg !6443
  %63 = getelementptr inbounds %"class.std::__1::unique_ptr.1", %"class.std::__1::unique_ptr.1"* %61, i64 %62, !dbg !6444
  store %"class.std::__1::unique_ptr.1"* %63, %"class.std::__1::unique_ptr.1"** %7, align 8
  %64 = load %"class.std::__1::unique_ptr.1"*, %"class.std::__1::unique_ptr.1"** %7, align 8
  %65 = getelementptr inbounds %"class.std::__1::unique_ptr.1", %"class.std::__1::unique_ptr.1"* %64, i32 0, i32 0, !dbg !6445
  store %"class.std::__1::__compressed_pair.2"* %65, %"class.std::__1::__compressed_pair.2"** %6, align 8
  %66 = load %"class.std::__1::__compressed_pair.2"*, %"class.std::__1::__compressed_pair.2"** %6, align 8
  %67 = bitcast %"class.std::__1::__compressed_pair.2"* %66 to %"struct.std::__1::__compressed_pair_elem.3"*, !dbg !6446
  store %"struct.std::__1::__compressed_pair_elem.3"* %67, %"struct.std::__1::__compressed_pair_elem.3"** %5, align 8
  %68 = load %"struct.std::__1::__compressed_pair_elem.3"*, %"struct.std::__1::__compressed_pair_elem.3"** %5, align 8
  %69 = getelementptr inbounds %"struct.std::__1::__compressed_pair_elem.3", %"struct.std::__1::__compressed_pair_elem.3"* %68, i32 0, i32 0, !dbg !6447
  %70 = load %"class.altered_carbon::js::ACAstBaseNode"*, %"class.altered_carbon::js::ACAstBaseNode"** %69, align 8, !dbg !6448
  %71 = bitcast %"class.altered_carbon::js::ACAstBaseNode"* %70 to void (%"class.altered_carbon::js::ACAstBaseNode"*, %"class.std::__1::basic_ostream"*)***, !dbg !6449
  %72 = load void (%"class.altered_carbon::js::ACAstBaseNode"*, %"class.std::__1::basic_ostream"*)**, void (%"class.altered_carbon::js::ACAstBaseNode"*, %"class.std::__1::basic_ostream"*)*** %71, align 8, !dbg !6449
  %73 = getelementptr inbounds void (%"class.altered_carbon::js::ACAstBaseNode"*, %"class.std::__1::basic_ostream"*)*, void (%"class.altered_carbon::js::ACAstBaseNode"*, %"class.std::__1::basic_ostream"*)** %72, i64 8, !dbg !6449
  %74 = load void (%"class.altered_carbon::js::ACAstBaseNode"*, %"class.std::__1::basic_ostream"*)*, void (%"class.altered_carbon::js::ACAstBaseNode"*, %"class.std::__1::basic_ostream"*)** %73, align 8, !dbg !6449
  %75 = load %"class.std::__1::basic_ostream"*, %"class.std::__1::basic_ostream"** %15, align 8, !dbg !6450
  call void %74(%"class.altered_carbon::js::ACAstBaseNode"* %70, %"class.std::__1::basic_ostream"* dereferenceable(160) %75), !dbg !6449
  br label %76, !dbg !6451

; <label>:76:                                     ; preds = %53, %2
  %77 = load %"class.std::__1::basic_ostream"*, %"class.std::__1::basic_ostream"** %15, align 8, !dbg !6452
  %78 = call dereferenceable(160) %"class.std::__1::basic_ostream"* @_ZNSt3__1lsINS_11char_traitsIcEEEERNS_13basic_ostreamIcT_EES6_PKc(%"class.std::__1::basic_ostream"* dereferenceable(160) %77, i8* getelementptr inbounds ([2 x i8], [2 x i8]* @.str.4, i32 0, i32 0)), !dbg !6453
  ret void, !dbg !6454
}

; Function Attrs: noinline nounwind optnone ssp uwtable
define void @_ZN14altered_carbon2js20ACAstCollectionParamC2ENSt3__110unique_ptrINS0_13ACLexPositionENS2_14default_deleteIS4_EEEENS2_6vectorINS3_INS0_13ACAstBaseNodeENS5_IS9_EEEENS2_9allocatorISB_EEEENS9_11AstNodeTypeENS9_14AstNodeSubTypeE(%"class.altered_carbon::js::ACAstCollectionParam"*, %"class.std::__1::unique_ptr"*, %"class.std::__1::vector"*, i32, i32) unnamed_addr #0 align 2 !dbg !6455 {
  %6 = alloca %"class.std::__1::allocator"*, align 8
  call void @llvm.dbg.declare(metadata %"class.std::__1::allocator"** %6, metadata !6463, metadata !DIExpression()), !dbg !6468
  %7 = alloca i8**, align 8
  call void @llvm.dbg.declare(metadata i8*** %7, metadata !6474, metadata !DIExpression()), !dbg !6484
  %8 = alloca %"struct.std::__1::__compressed_pair_elem.8"*, align 8
  call void @llvm.dbg.declare(metadata %"struct.std::__1::__compressed_pair_elem.8"** %8, metadata !6505, metadata !DIExpression()), !dbg !6506
  %9 = alloca i8**, align 8
  call void @llvm.dbg.declare(metadata i8*** %9, metadata !6507, metadata !DIExpression()), !dbg !6508
  %10 = alloca %"class.std::__1::allocator"*, align 8
  call void @llvm.dbg.declare(metadata %"class.std::__1::allocator"** %10, metadata !6509, metadata !DIExpression()), !dbg !6518
  %11 = alloca %"class.std::__1::allocator"*, align 8
  call void @llvm.dbg.declare(metadata %"class.std::__1::allocator"** %11, metadata !6509, metadata !DIExpression()), !dbg !6520
  %12 = alloca %"struct.std::__1::__compressed_pair_elem.9"*, align 8
  call void @llvm.dbg.declare(metadata %"struct.std::__1::__compressed_pair_elem.9"** %12, metadata !6529, metadata !DIExpression()), !dbg !6530
  %13 = alloca %"class.std::__1::allocator"*, align 8
  call void @llvm.dbg.declare(metadata %"class.std::__1::allocator"** %13, metadata !6531, metadata !DIExpression()), !dbg !6532
  %14 = alloca i8**, align 8
  call void @llvm.dbg.declare(metadata i8*** %14, metadata !6474, metadata !DIExpression()), !dbg !6533
  %15 = alloca %"class.std::__1::__compressed_pair.7"*, align 8
  call void @llvm.dbg.declare(metadata %"class.std::__1::__compressed_pair.7"** %15, metadata !6535, metadata !DIExpression()), !dbg !6536
  %16 = alloca i8**, align 8
  call void @llvm.dbg.declare(metadata i8*** %16, metadata !6537, metadata !DIExpression()), !dbg !6538
  %17 = alloca %"class.std::__1::allocator"*, align 8
  call void @llvm.dbg.declare(metadata %"class.std::__1::allocator"** %17, metadata !6539, metadata !DIExpression()), !dbg !6540
  %18 = alloca %"class.std::__1::__compressed_pair.7"*, align 8
  call void @llvm.dbg.declare(metadata %"class.std::__1::__compressed_pair.7"** %18, metadata !6541, metadata !DIExpression()), !dbg !6542
  %19 = alloca i8**, align 8
  call void @llvm.dbg.declare(metadata i8*** %19, metadata !6543, metadata !DIExpression()), !dbg !6544
  %20 = alloca %"class.std::__1::allocator"*, align 8
  call void @llvm.dbg.declare(metadata %"class.std::__1::allocator"** %20, metadata !6545, metadata !DIExpression()), !dbg !6546
  %21 = alloca %"class.std::__1::__vector_base_common"*, align 8
  call void @llvm.dbg.declare(metadata %"class.std::__1::__vector_base_common"** %21, metadata !6547, metadata !DIExpression()), !dbg !6550
  %22 = alloca %"class.std::__1::__vector_base"*, align 8
  call void @llvm.dbg.declare(metadata %"class.std::__1::__vector_base"** %22, metadata !6552, metadata !DIExpression()), !dbg !6553
  %23 = alloca %"class.std::__1::allocator"*, align 8
  call void @llvm.dbg.declare(metadata %"class.std::__1::allocator"** %23, metadata !6554, metadata !DIExpression()), !dbg !6555
  %24 = alloca i8*, align 8
  %25 = alloca %"struct.std::__1::__compressed_pair_elem.8"*, align 8
  call void @llvm.dbg.declare(metadata %"struct.std::__1::__compressed_pair_elem.8"** %25, metadata !5731, metadata !DIExpression()), !dbg !6556
  %26 = alloca %"class.std::__1::__compressed_pair.7"*, align 8
  call void @llvm.dbg.declare(metadata %"class.std::__1::__compressed_pair.7"** %26, metadata !5740, metadata !DIExpression()), !dbg !6561
  %27 = alloca %"class.std::__1::__vector_base"*, align 8
  call void @llvm.dbg.declare(metadata %"class.std::__1::__vector_base"** %27, metadata !5742, metadata !DIExpression()), !dbg !6562
  %28 = alloca %"struct.std::__1::__compressed_pair_elem.8"*, align 8
  call void @llvm.dbg.declare(metadata %"struct.std::__1::__compressed_pair_elem.8"** %28, metadata !5731, metadata !DIExpression()), !dbg !6563
  %29 = alloca %"class.std::__1::__compressed_pair.7"*, align 8
  call void @llvm.dbg.declare(metadata %"class.std::__1::__compressed_pair.7"** %29, metadata !5740, metadata !DIExpression()), !dbg !6567
  %30 = alloca %"class.std::__1::__vector_base"*, align 8
  call void @llvm.dbg.declare(metadata %"class.std::__1::__vector_base"** %30, metadata !5742, metadata !DIExpression()), !dbg !6568
  %31 = alloca %"struct.std::__1::__compressed_pair_elem.8"*, align 8
  call void @llvm.dbg.declare(metadata %"struct.std::__1::__compressed_pair_elem.8"** %31, metadata !5731, metadata !DIExpression()), !dbg !6569
  %32 = alloca %"class.std::__1::__compressed_pair.7"*, align 8
  call void @llvm.dbg.declare(metadata %"class.std::__1::__compressed_pair.7"** %32, metadata !5740, metadata !DIExpression()), !dbg !6573
  %33 = alloca %"class.std::__1::__vector_base"*, align 8
  call void @llvm.dbg.declare(metadata %"class.std::__1::__vector_base"** %33, metadata !5742, metadata !DIExpression()), !dbg !6574
  %34 = alloca %"struct.std::__1::__compressed_pair_elem.9"*, align 8
  call void @llvm.dbg.declare(metadata %"struct.std::__1::__compressed_pair_elem.9"** %34, metadata !5496, metadata !DIExpression()), !dbg !6575
  %35 = alloca %"class.std::__1::__compressed_pair.7"*, align 8
  call void @llvm.dbg.declare(metadata %"class.std::__1::__compressed_pair.7"** %35, metadata !5509, metadata !DIExpression()), !dbg !6579
  %36 = alloca %"class.std::__1::__vector_base"*, align 8
  call void @llvm.dbg.declare(metadata %"class.std::__1::__vector_base"** %36, metadata !5512, metadata !DIExpression()), !dbg !6580
  %37 = alloca %"class.std::__1::vector"*, align 8
  call void @llvm.dbg.declare(metadata %"class.std::__1::vector"** %37, metadata !6581, metadata !DIExpression()), !dbg !6582
  %38 = alloca %"class.std::__1::vector"*, align 8
  call void @llvm.dbg.declare(metadata %"class.std::__1::vector"** %38, metadata !6583, metadata !DIExpression()), !dbg !6584
  %39 = alloca %"class.std::__1::vector"*, align 8
  call void @llvm.dbg.declare(metadata %"class.std::__1::vector"** %39, metadata !6585, metadata !DIExpression()), !dbg !6586
  %40 = alloca %"class.std::__1::vector"*, align 8
  call void @llvm.dbg.declare(metadata %"class.std::__1::vector"** %40, metadata !6587, metadata !DIExpression()), !dbg !6588
  %41 = alloca %"class.std::__1::vector"*, align 8
  call void @llvm.dbg.declare(metadata %"class.std::__1::vector"** %41, metadata !6589, metadata !DIExpression()), !dbg !6598
  %42 = alloca %"struct.std::__1::__compressed_pair_elem.0"*, align 8
  call void @llvm.dbg.declare(metadata %"struct.std::__1::__compressed_pair_elem.0"** %42, metadata !5762, metadata !DIExpression()), !dbg !6600
  %43 = alloca %"class.std::__1::__compressed_pair"*, align 8
  call void @llvm.dbg.declare(metadata %"class.std::__1::__compressed_pair"** %43, metadata !5777, metadata !DIExpression()), !dbg !6606
  %44 = alloca %"class.std::__1::unique_ptr"*, align 8
  call void @llvm.dbg.declare(metadata %"class.std::__1::unique_ptr"** %44, metadata !5876, metadata !DIExpression()), !dbg !6607
  %45 = alloca %"struct.std::__1::default_delete"*, align 8
  call void @llvm.dbg.declare(metadata %"struct.std::__1::default_delete"** %45, metadata !5878, metadata !DIExpression()), !dbg !6608
  %46 = alloca %"struct.altered_carbon::js::ACLexPosition"**, align 8
  call void @llvm.dbg.declare(metadata %"struct.altered_carbon::js::ACLexPosition"*** %46, metadata !5889, metadata !DIExpression()), !dbg !6610
  %47 = alloca %"struct.std::__1::__compressed_pair_elem"*, align 8
  call void @llvm.dbg.declare(metadata %"struct.std::__1::__compressed_pair_elem"** %47, metadata !5917, metadata !DIExpression()), !dbg !6615
  %48 = alloca %"struct.altered_carbon::js::ACLexPosition"**, align 8
  call void @llvm.dbg.declare(metadata %"struct.altered_carbon::js::ACLexPosition"*** %48, metadata !5919, metadata !DIExpression()), !dbg !6616
  %49 = alloca %"struct.std::__1::default_delete"*, align 8
  call void @llvm.dbg.declare(metadata %"struct.std::__1::default_delete"** %49, metadata !5878, metadata !DIExpression()), !dbg !6617
  %50 = alloca %"struct.std::__1::default_delete"*, align 8
  call void @llvm.dbg.declare(metadata %"struct.std::__1::default_delete"** %50, metadata !5878, metadata !DIExpression()), !dbg !6619
  %51 = alloca %"struct.std::__1::__compressed_pair_elem.0"*, align 8
  call void @llvm.dbg.declare(metadata %"struct.std::__1::__compressed_pair_elem.0"** %51, metadata !5932, metadata !DIExpression()), !dbg !6622
  %52 = alloca %"struct.std::__1::default_delete"*, align 8
  call void @llvm.dbg.declare(metadata %"struct.std::__1::default_delete"** %52, metadata !5934, metadata !DIExpression()), !dbg !6623
  %53 = alloca %"struct.altered_carbon::js::ACLexPosition"**, align 8
  call void @llvm.dbg.declare(metadata %"struct.altered_carbon::js::ACLexPosition"*** %53, metadata !5889, metadata !DIExpression()), !dbg !6624
  %54 = alloca %"class.std::__1::__compressed_pair"*, align 8
  call void @llvm.dbg.declare(metadata %"class.std::__1::__compressed_pair"** %54, metadata !5938, metadata !DIExpression()), !dbg !6626
  %55 = alloca %"struct.altered_carbon::js::ACLexPosition"**, align 8
  call void @llvm.dbg.declare(metadata %"struct.altered_carbon::js::ACLexPosition"*** %55, metadata !5940, metadata !DIExpression()), !dbg !6627
  %56 = alloca %"struct.std::__1::default_delete"*, align 8
  call void @llvm.dbg.declare(metadata %"struct.std::__1::default_delete"** %56, metadata !5942, metadata !DIExpression()), !dbg !6628
  %57 = alloca %"class.std::__1::__compressed_pair"*, align 8
  call void @llvm.dbg.declare(metadata %"class.std::__1::__compressed_pair"** %57, metadata !5944, metadata !DIExpression()), !dbg !6629
  %58 = alloca %"struct.altered_carbon::js::ACLexPosition"**, align 8
  call void @llvm.dbg.declare(metadata %"struct.altered_carbon::js::ACLexPosition"*** %58, metadata !5946, metadata !DIExpression()), !dbg !6630
  %59 = alloca %"struct.std::__1::default_delete"*, align 8
  call void @llvm.dbg.declare(metadata %"struct.std::__1::default_delete"** %59, metadata !5948, metadata !DIExpression()), !dbg !6631
  %60 = alloca %"struct.std::__1::__compressed_pair_elem"*, align 8
  call void @llvm.dbg.declare(metadata %"struct.std::__1::__compressed_pair_elem"** %60, metadata !5780, metadata !DIExpression()), !dbg !6632
  %61 = alloca %"class.std::__1::__compressed_pair"*, align 8
  call void @llvm.dbg.declare(metadata %"class.std::__1::__compressed_pair"** %61, metadata !5787, metadata !DIExpression()), !dbg !6636
  %62 = alloca %"struct.std::__1::__compressed_pair_elem"*, align 8
  call void @llvm.dbg.declare(metadata %"struct.std::__1::__compressed_pair_elem"** %62, metadata !5780, metadata !DIExpression()), !dbg !6637
  %63 = alloca %"class.std::__1::__compressed_pair"*, align 8
  call void @llvm.dbg.declare(metadata %"class.std::__1::__compressed_pair"** %63, metadata !5787, metadata !DIExpression()), !dbg !6640
  %64 = alloca %"class.std::__1::unique_ptr"*, align 8
  call void @llvm.dbg.declare(metadata %"class.std::__1::unique_ptr"** %64, metadata !5960, metadata !DIExpression()), !dbg !6641
  %65 = alloca %"struct.altered_carbon::js::ACLexPosition"*, align 8
  call void @llvm.dbg.declare(metadata %"struct.altered_carbon::js::ACLexPosition"** %65, metadata !5962, metadata !DIExpression()), !dbg !6642
  %66 = alloca %"class.std::__1::unique_ptr"*, align 8
  call void @llvm.dbg.declare(metadata %"class.std::__1::unique_ptr"** %66, metadata !5964, metadata !DIExpression()), !dbg !6643
  %67 = alloca %"class.std::__1::unique_ptr"*, align 8
  call void @llvm.dbg.declare(metadata %"class.std::__1::unique_ptr"** %67, metadata !5966, metadata !DIExpression()), !dbg !6644
  %68 = alloca %"struct.altered_carbon::js::ACLexPosition"*, align 8
  %69 = alloca %"class.std::__1::unique_ptr"*, align 8
  call void @llvm.dbg.declare(metadata %"class.std::__1::unique_ptr"** %69, metadata !5968, metadata !DIExpression()), !dbg !6645
  %70 = alloca %"class.std::__1::unique_ptr"*, align 8
  call void @llvm.dbg.declare(metadata %"class.std::__1::unique_ptr"** %70, metadata !5970, metadata !DIExpression()), !dbg !6646
  %71 = alloca %"struct.std::__1::__compressed_pair_elem.0"*, align 8
  call void @llvm.dbg.declare(metadata %"struct.std::__1::__compressed_pair_elem.0"** %71, metadata !5762, metadata !DIExpression()), !dbg !6647
  %72 = alloca %"class.std::__1::__compressed_pair"*, align 8
  call void @llvm.dbg.declare(metadata %"class.std::__1::__compressed_pair"** %72, metadata !5777, metadata !DIExpression()), !dbg !6653
  %73 = alloca %"struct.std::__1::__compressed_pair_elem"*, align 8
  call void @llvm.dbg.declare(metadata %"struct.std::__1::__compressed_pair_elem"** %73, metadata !5780, metadata !DIExpression()), !dbg !6654
  %74 = alloca %"class.std::__1::__compressed_pair"*, align 8
  call void @llvm.dbg.declare(metadata %"class.std::__1::__compressed_pair"** %74, metadata !5787, metadata !DIExpression()), !dbg !6657
  %75 = alloca %"struct.std::__1::default_delete"*, align 8
  call void @llvm.dbg.declare(metadata %"struct.std::__1::default_delete"** %75, metadata !5789, metadata !DIExpression()), !dbg !6658
  %76 = alloca %"struct.altered_carbon::js::ACLexPosition"*, align 8
  call void @llvm.dbg.declare(metadata %"struct.altered_carbon::js::ACLexPosition"** %76, metadata !5794, metadata !DIExpression()), !dbg !6660
  %77 = alloca %"struct.std::__1::__compressed_pair_elem"*, align 8
  call void @llvm.dbg.declare(metadata %"struct.std::__1::__compressed_pair_elem"** %77, metadata !5780, metadata !DIExpression()), !dbg !6661
  %78 = alloca %"class.std::__1::__compressed_pair"*, align 8
  call void @llvm.dbg.declare(metadata %"class.std::__1::__compressed_pair"** %78, metadata !5787, metadata !DIExpression()), !dbg !6664
  %79 = alloca %"class.std::__1::unique_ptr"*, align 8
  call void @llvm.dbg.declare(metadata %"class.std::__1::unique_ptr"** %79, metadata !5800, metadata !DIExpression()), !dbg !6665
  %80 = alloca %"struct.altered_carbon::js::ACLexPosition"*, align 8
  call void @llvm.dbg.declare(metadata %"struct.altered_carbon::js::ACLexPosition"** %80, metadata !5803, metadata !DIExpression()), !dbg !6666
  %81 = alloca %"struct.altered_carbon::js::ACLexPosition"*, align 8
  call void @llvm.dbg.declare(metadata %"struct.altered_carbon::js::ACLexPosition"** %81, metadata !5805, metadata !DIExpression()), !dbg !6667
  %82 = alloca %"class.std::__1::unique_ptr"*, align 8
  call void @llvm.dbg.declare(metadata %"class.std::__1::unique_ptr"** %82, metadata !5807, metadata !DIExpression()), !dbg !6668
  %83 = alloca %"class.std::__1::unique_ptr"*, align 8
  call void @llvm.dbg.declare(metadata %"class.std::__1::unique_ptr"** %83, metadata !5809, metadata !DIExpression()), !dbg !6669
  %84 = alloca %"class.std::__1::unique_ptr"*, align 8
  call void @llvm.dbg.declare(metadata %"class.std::__1::unique_ptr"** %84, metadata !6069, metadata !DIExpression()), !dbg !6670
  %85 = alloca %"class.altered_carbon::js::ACAstCollectionParam"*, align 8
  %86 = alloca i32, align 4
  %87 = alloca i32, align 4
  %88 = alloca %"class.std::__1::unique_ptr", align 8
  %89 = alloca %"class.std::__1::vector", align 8
  store %"class.altered_carbon::js::ACAstCollectionParam"* %0, %"class.altered_carbon::js::ACAstCollectionParam"** %85, align 8
  call void @llvm.dbg.declare(metadata %"class.altered_carbon::js::ACAstCollectionParam"** %85, metadata !6672, metadata !DIExpression()), !dbg !6674
  call void @llvm.dbg.declare(metadata %"class.std::__1::unique_ptr"* %1, metadata !6675, metadata !DIExpression()), !dbg !6676
  call void @llvm.dbg.declare(metadata %"class.std::__1::vector"* %2, metadata !6677, metadata !DIExpression()), !dbg !6678
  store i32 %3, i32* %86, align 4
  call void @llvm.dbg.declare(metadata i32* %86, metadata !6679, metadata !DIExpression()), !dbg !6680
  store i32 %4, i32* %87, align 4
  call void @llvm.dbg.declare(metadata i32* %87, metadata !6681, metadata !DIExpression()), !dbg !6682
  %90 = load %"class.altered_carbon::js::ACAstCollectionParam"*, %"class.altered_carbon::js::ACAstCollectionParam"** %85, align 8
  %91 = bitcast %"class.altered_carbon::js::ACAstCollectionParam"* %90 to %"class.altered_carbon::js::ACAstCollectionNode"*, !dbg !6683
  store %"class.std::__1::unique_ptr"* %1, %"class.std::__1::unique_ptr"** %84, align 8
  %92 = load %"class.std::__1::unique_ptr"*, %"class.std::__1::unique_ptr"** %84, align 8, !dbg !6684
  store %"class.std::__1::unique_ptr"* %88, %"class.std::__1::unique_ptr"** %69, align 8
  store %"class.std::__1::unique_ptr"* %92, %"class.std::__1::unique_ptr"** %70, align 8
  %93 = load %"class.std::__1::unique_ptr"*, %"class.std::__1::unique_ptr"** %69, align 8
  %94 = load %"class.std::__1::unique_ptr"*, %"class.std::__1::unique_ptr"** %70, align 8, !dbg !6685
  store %"class.std::__1::unique_ptr"* %93, %"class.std::__1::unique_ptr"** %66, align 8
  store %"class.std::__1::unique_ptr"* %94, %"class.std::__1::unique_ptr"** %67, align 8
  %95 = load %"class.std::__1::unique_ptr"*, %"class.std::__1::unique_ptr"** %66, align 8
  %96 = getelementptr inbounds %"class.std::__1::unique_ptr", %"class.std::__1::unique_ptr"* %95, i32 0, i32 0, !dbg !6686
  %97 = load %"class.std::__1::unique_ptr"*, %"class.std::__1::unique_ptr"** %67, align 8, !dbg !6687
  store %"class.std::__1::unique_ptr"* %97, %"class.std::__1::unique_ptr"** %64, align 8
  %98 = load %"class.std::__1::unique_ptr"*, %"class.std::__1::unique_ptr"** %64, align 8
  %99 = getelementptr inbounds %"class.std::__1::unique_ptr", %"class.std::__1::unique_ptr"* %98, i32 0, i32 0, !dbg !6688
  store %"class.std::__1::__compressed_pair"* %99, %"class.std::__1::__compressed_pair"** %63, align 8
  %100 = load %"class.std::__1::__compressed_pair"*, %"class.std::__1::__compressed_pair"** %63, align 8
  %101 = bitcast %"class.std::__1::__compressed_pair"* %100 to %"struct.std::__1::__compressed_pair_elem"*, !dbg !6689
  store %"struct.std::__1::__compressed_pair_elem"* %101, %"struct.std::__1::__compressed_pair_elem"** %62, align 8
  %102 = load %"struct.std::__1::__compressed_pair_elem"*, %"struct.std::__1::__compressed_pair_elem"** %62, align 8
  %103 = getelementptr inbounds %"struct.std::__1::__compressed_pair_elem", %"struct.std::__1::__compressed_pair_elem"* %102, i32 0, i32 0, !dbg !6690
  %104 = load %"struct.altered_carbon::js::ACLexPosition"*, %"struct.altered_carbon::js::ACLexPosition"** %103, align 8, !dbg !6691
  store %"struct.altered_carbon::js::ACLexPosition"* %104, %"struct.altered_carbon::js::ACLexPosition"** %65, align 8, !dbg !6642
  %105 = getelementptr inbounds %"class.std::__1::unique_ptr", %"class.std::__1::unique_ptr"* %98, i32 0, i32 0, !dbg !6692
  store %"class.std::__1::__compressed_pair"* %105, %"class.std::__1::__compressed_pair"** %61, align 8
  %106 = load %"class.std::__1::__compressed_pair"*, %"class.std::__1::__compressed_pair"** %61, align 8
  %107 = bitcast %"class.std::__1::__compressed_pair"* %106 to %"struct.std::__1::__compressed_pair_elem"*, !dbg !6693
  store %"struct.std::__1::__compressed_pair_elem"* %107, %"struct.std::__1::__compressed_pair_elem"** %60, align 8
  %108 = load %"struct.std::__1::__compressed_pair_elem"*, %"struct.std::__1::__compressed_pair_elem"** %60, align 8
  %109 = getelementptr inbounds %"struct.std::__1::__compressed_pair_elem", %"struct.std::__1::__compressed_pair_elem"* %108, i32 0, i32 0, !dbg !6694
  store %"struct.altered_carbon::js::ACLexPosition"* null, %"struct.altered_carbon::js::ACLexPosition"** %109, align 8, !dbg !6695
  %110 = load %"struct.altered_carbon::js::ACLexPosition"*, %"struct.altered_carbon::js::ACLexPosition"** %65, align 8, !dbg !6696
  store %"struct.altered_carbon::js::ACLexPosition"* %110, %"struct.altered_carbon::js::ACLexPosition"** %68, align 8, !dbg !6687
  %111 = load %"class.std::__1::unique_ptr"*, %"class.std::__1::unique_ptr"** %67, align 8, !dbg !6697
  store %"class.std::__1::unique_ptr"* %111, %"class.std::__1::unique_ptr"** %44, align 8
  %112 = load %"class.std::__1::unique_ptr"*, %"class.std::__1::unique_ptr"** %44, align 8
  %113 = getelementptr inbounds %"class.std::__1::unique_ptr", %"class.std::__1::unique_ptr"* %112, i32 0, i32 0, !dbg !6698
  store %"class.std::__1::__compressed_pair"* %113, %"class.std::__1::__compressed_pair"** %43, align 8
  %114 = load %"class.std::__1::__compressed_pair"*, %"class.std::__1::__compressed_pair"** %43, align 8
  %115 = bitcast %"class.std::__1::__compressed_pair"* %114 to %"struct.std::__1::__compressed_pair_elem.0"*, !dbg !6699
  store %"struct.std::__1::__compressed_pair_elem.0"* %115, %"struct.std::__1::__compressed_pair_elem.0"** %42, align 8
  %116 = load %"struct.std::__1::__compressed_pair_elem.0"*, %"struct.std::__1::__compressed_pair_elem.0"** %42, align 8
  %117 = bitcast %"struct.std::__1::__compressed_pair_elem.0"* %116 to %"struct.std::__1::default_delete"*, !dbg !6700
  store %"struct.std::__1::default_delete"* %117, %"struct.std::__1::default_delete"** %45, align 8
  %118 = load %"struct.std::__1::default_delete"*, %"struct.std::__1::default_delete"** %45, align 8, !dbg !6701
  store %"class.std::__1::__compressed_pair"* %96, %"class.std::__1::__compressed_pair"** %57, align 8
  store %"struct.altered_carbon::js::ACLexPosition"** %68, %"struct.altered_carbon::js::ACLexPosition"*** %58, align 8
  store %"struct.std::__1::default_delete"* %118, %"struct.std::__1::default_delete"** %59, align 8
  %119 = load %"class.std::__1::__compressed_pair"*, %"class.std::__1::__compressed_pair"** %57, align 8
  %120 = load %"struct.altered_carbon::js::ACLexPosition"**, %"struct.altered_carbon::js::ACLexPosition"*** %58, align 8, !dbg !6702
  %121 = load %"struct.std::__1::default_delete"*, %"struct.std::__1::default_delete"** %59, align 8, !dbg !6702
  store %"class.std::__1::__compressed_pair"* %119, %"class.std::__1::__compressed_pair"** %54, align 8
  store %"struct.altered_carbon::js::ACLexPosition"** %120, %"struct.altered_carbon::js::ACLexPosition"*** %55, align 8
  store %"struct.std::__1::default_delete"* %121, %"struct.std::__1::default_delete"** %56, align 8
  %122 = load %"class.std::__1::__compressed_pair"*, %"class.std::__1::__compressed_pair"** %54, align 8
  %123 = bitcast %"class.std::__1::__compressed_pair"* %122 to %"struct.std::__1::__compressed_pair_elem"*, !dbg !6703
  %124 = load %"struct.altered_carbon::js::ACLexPosition"**, %"struct.altered_carbon::js::ACLexPosition"*** %55, align 8, !dbg !6704
  store %"struct.altered_carbon::js::ACLexPosition"** %124, %"struct.altered_carbon::js::ACLexPosition"*** %53, align 8
  %125 = load %"struct.altered_carbon::js::ACLexPosition"**, %"struct.altered_carbon::js::ACLexPosition"*** %53, align 8, !dbg !6705
  store %"struct.std::__1::__compressed_pair_elem"* %123, %"struct.std::__1::__compressed_pair_elem"** %47, align 8
  store %"struct.altered_carbon::js::ACLexPosition"** %125, %"struct.altered_carbon::js::ACLexPosition"*** %48, align 8
  %126 = load %"struct.std::__1::__compressed_pair_elem"*, %"struct.std::__1::__compressed_pair_elem"** %47, align 8
  %127 = getelementptr inbounds %"struct.std::__1::__compressed_pair_elem", %"struct.std::__1::__compressed_pair_elem"* %126, i32 0, i32 0, !dbg !6706
  %128 = load %"struct.altered_carbon::js::ACLexPosition"**, %"struct.altered_carbon::js::ACLexPosition"*** %48, align 8, !dbg !6707
  store %"struct.altered_carbon::js::ACLexPosition"** %128, %"struct.altered_carbon::js::ACLexPosition"*** %46, align 8
  %129 = load %"struct.altered_carbon::js::ACLexPosition"**, %"struct.altered_carbon::js::ACLexPosition"*** %46, align 8, !dbg !6708
  %130 = load %"struct.altered_carbon::js::ACLexPosition"*, %"struct.altered_carbon::js::ACLexPosition"** %129, align 8, !dbg !6709
  store %"struct.altered_carbon::js::ACLexPosition"* %130, %"struct.altered_carbon::js::ACLexPosition"** %127, align 8, !dbg !6706
  %131 = bitcast %"class.std::__1::__compressed_pair"* %122 to %"struct.std::__1::__compressed_pair_elem.0"*, !dbg !6703
  %132 = load %"struct.std::__1::default_delete"*, %"struct.std::__1::default_delete"** %56, align 8, !dbg !6710
  store %"struct.std::__1::default_delete"* %132, %"struct.std::__1::default_delete"** %49, align 8
  %133 = load %"struct.std::__1::default_delete"*, %"struct.std::__1::default_delete"** %49, align 8, !dbg !6711
  store %"struct.std::__1::__compressed_pair_elem.0"* %131, %"struct.std::__1::__compressed_pair_elem.0"** %51, align 8
  store %"struct.std::__1::default_delete"* %133, %"struct.std::__1::default_delete"** %52, align 8
  %134 = load %"struct.std::__1::__compressed_pair_elem.0"*, %"struct.std::__1::__compressed_pair_elem.0"** %51, align 8
  %135 = bitcast %"struct.std::__1::__compressed_pair_elem.0"* %134 to %"struct.std::__1::default_delete"*, !dbg !6712
  %136 = load %"struct.std::__1::default_delete"*, %"struct.std::__1::default_delete"** %52, align 8, !dbg !6713
  store %"struct.std::__1::default_delete"* %136, %"struct.std::__1::default_delete"** %50, align 8
  %137 = load %"struct.std::__1::default_delete"*, %"struct.std::__1::default_delete"** %50, align 8, !dbg !6714
  store %"class.std::__1::vector"* %2, %"class.std::__1::vector"** %41, align 8
  %138 = load %"class.std::__1::vector"*, %"class.std::__1::vector"** %41, align 8, !dbg !6715
  store %"class.std::__1::vector"* %89, %"class.std::__1::vector"** %39, align 8
  store %"class.std::__1::vector"* %138, %"class.std::__1::vector"** %40, align 8
  %139 = load %"class.std::__1::vector"*, %"class.std::__1::vector"** %39, align 8
  %140 = load %"class.std::__1::vector"*, %"class.std::__1::vector"** %40, align 8, !dbg !6716
  store %"class.std::__1::vector"* %139, %"class.std::__1::vector"** %37, align 8
  store %"class.std::__1::vector"* %140, %"class.std::__1::vector"** %38, align 8
  %141 = load %"class.std::__1::vector"*, %"class.std::__1::vector"** %37, align 8
  %142 = bitcast %"class.std::__1::vector"* %141 to %"class.std::__1::__vector_base"*, !dbg !6717
  %143 = load %"class.std::__1::vector"*, %"class.std::__1::vector"** %38, align 8, !dbg !6718
  %144 = bitcast %"class.std::__1::vector"* %143 to %"class.std::__1::__vector_base"*, !dbg !6718
  store %"class.std::__1::__vector_base"* %144, %"class.std::__1::__vector_base"** %36, align 8
  %145 = load %"class.std::__1::__vector_base"*, %"class.std::__1::__vector_base"** %36, align 8
  %146 = getelementptr inbounds %"class.std::__1::__vector_base", %"class.std::__1::__vector_base"* %145, i32 0, i32 2, !dbg !6719
  store %"class.std::__1::__compressed_pair.7"* %146, %"class.std::__1::__compressed_pair.7"** %35, align 8
  %147 = load %"class.std::__1::__compressed_pair.7"*, %"class.std::__1::__compressed_pair.7"** %35, align 8
  %148 = bitcast %"class.std::__1::__compressed_pair.7"* %147 to %"struct.std::__1::__compressed_pair_elem.9"*, !dbg !6720
  store %"struct.std::__1::__compressed_pair_elem.9"* %148, %"struct.std::__1::__compressed_pair_elem.9"** %34, align 8
  %149 = load %"struct.std::__1::__compressed_pair_elem.9"*, %"struct.std::__1::__compressed_pair_elem.9"** %34, align 8
  %150 = bitcast %"struct.std::__1::__compressed_pair_elem.9"* %149 to %"class.std::__1::allocator"*, !dbg !6721
  store %"class.std::__1::allocator"* %150, %"class.std::__1::allocator"** %6, align 8
  %151 = load %"class.std::__1::allocator"*, %"class.std::__1::allocator"** %6, align 8, !dbg !6722
  store %"class.std::__1::__vector_base"* %142, %"class.std::__1::__vector_base"** %22, align 8
  store %"class.std::__1::allocator"* %151, %"class.std::__1::allocator"** %23, align 8
  %152 = load %"class.std::__1::__vector_base"*, %"class.std::__1::__vector_base"** %22, align 8
  %153 = bitcast %"class.std::__1::__vector_base"* %152 to %"class.std::__1::__vector_base_common"*, !dbg !6723
  store %"class.std::__1::__vector_base_common"* %153, %"class.std::__1::__vector_base_common"** %21, align 8
  %154 = load %"class.std::__1::__vector_base_common"*, %"class.std::__1::__vector_base_common"** %21, align 8
  %155 = getelementptr inbounds %"class.std::__1::__vector_base", %"class.std::__1::__vector_base"* %152, i32 0, i32 0, !dbg !6724
  store %"class.std::__1::unique_ptr.1"* null, %"class.std::__1::unique_ptr.1"** %155, align 8, !dbg !6724
  %156 = getelementptr inbounds %"class.std::__1::__vector_base", %"class.std::__1::__vector_base"* %152, i32 0, i32 1, !dbg !6725
  store %"class.std::__1::unique_ptr.1"* null, %"class.std::__1::unique_ptr.1"** %156, align 8, !dbg !6725
  %157 = getelementptr inbounds %"class.std::__1::__vector_base", %"class.std::__1::__vector_base"* %152, i32 0, i32 2, !dbg !6726
  store i8* null, i8** %24, align 8, !dbg !6727
  %158 = load %"class.std::__1::allocator"*, %"class.std::__1::allocator"** %23, align 8, !dbg !6728
  store %"class.std::__1::__compressed_pair.7"* %157, %"class.std::__1::__compressed_pair.7"** %18, align 8
  store i8** %24, i8*** %19, align 8
  store %"class.std::__1::allocator"* %158, %"class.std::__1::allocator"** %20, align 8
  %159 = load %"class.std::__1::__compressed_pair.7"*, %"class.std::__1::__compressed_pair.7"** %18, align 8
  %160 = load i8**, i8*** %19, align 8, !dbg !6729
  %161 = load %"class.std::__1::allocator"*, %"class.std::__1::allocator"** %20, align 8, !dbg !6729
  store %"class.std::__1::__compressed_pair.7"* %159, %"class.std::__1::__compressed_pair.7"** %15, align 8
  store i8** %160, i8*** %16, align 8
  store %"class.std::__1::allocator"* %161, %"class.std::__1::allocator"** %17, align 8
  %162 = load %"class.std::__1::__compressed_pair.7"*, %"class.std::__1::__compressed_pair.7"** %15, align 8
  %163 = bitcast %"class.std::__1::__compressed_pair.7"* %162 to %"struct.std::__1::__compressed_pair_elem.8"*, !dbg !6730
  %164 = load i8**, i8*** %16, align 8, !dbg !6731
  store i8** %164, i8*** %14, align 8
  %165 = load i8**, i8*** %14, align 8, !dbg !6732
  store %"struct.std::__1::__compressed_pair_elem.8"* %163, %"struct.std::__1::__compressed_pair_elem.8"** %8, align 8
  store i8** %165, i8*** %9, align 8
  %166 = load %"struct.std::__1::__compressed_pair_elem.8"*, %"struct.std::__1::__compressed_pair_elem.8"** %8, align 8
  %167 = getelementptr inbounds %"struct.std::__1::__compressed_pair_elem.8", %"struct.std::__1::__compressed_pair_elem.8"* %166, i32 0, i32 0, !dbg !6733
  %168 = load i8**, i8*** %9, align 8, !dbg !6734
  store i8** %168, i8*** %7, align 8
  %169 = load i8**, i8*** %7, align 8, !dbg !6735
  %170 = load i8*, i8** %169, align 8, !dbg !6736
  store %"class.std::__1::unique_ptr.1"* null, %"class.std::__1::unique_ptr.1"** %167, align 8, !dbg !6733
  %171 = bitcast %"class.std::__1::__compressed_pair.7"* %162 to %"struct.std::__1::__compressed_pair_elem.9"*, !dbg !6730
  %172 = load %"class.std::__1::allocator"*, %"class.std::__1::allocator"** %17, align 8, !dbg !6737
  store %"class.std::__1::allocator"* %172, %"class.std::__1::allocator"** %10, align 8
  %173 = load %"class.std::__1::allocator"*, %"class.std::__1::allocator"** %10, align 8, !dbg !6738
  store %"struct.std::__1::__compressed_pair_elem.9"* %171, %"struct.std::__1::__compressed_pair_elem.9"** %12, align 8
  store %"class.std::__1::allocator"* %173, %"class.std::__1::allocator"** %13, align 8
  %174 = load %"struct.std::__1::__compressed_pair_elem.9"*, %"struct.std::__1::__compressed_pair_elem.9"** %12, align 8
  %175 = bitcast %"struct.std::__1::__compressed_pair_elem.9"* %174 to %"class.std::__1::allocator"*, !dbg !6739
  %176 = load %"class.std::__1::allocator"*, %"class.std::__1::allocator"** %13, align 8, !dbg !6740
  store %"class.std::__1::allocator"* %176, %"class.std::__1::allocator"** %11, align 8
  %177 = load %"class.std::__1::allocator"*, %"class.std::__1::allocator"** %11, align 8, !dbg !6741
  %178 = load %"class.std::__1::vector"*, %"class.std::__1::vector"** %38, align 8, !dbg !6742
  %179 = bitcast %"class.std::__1::vector"* %178 to %"class.std::__1::__vector_base"*, !dbg !6742
  %180 = getelementptr inbounds %"class.std::__1::__vector_base", %"class.std::__1::__vector_base"* %179, i32 0, i32 0, !dbg !6743
  %181 = load %"class.std::__1::unique_ptr.1"*, %"class.std::__1::unique_ptr.1"** %180, align 8, !dbg !6743
  %182 = bitcast %"class.std::__1::vector"* %141 to %"class.std::__1::__vector_base"*, !dbg !6744
  %183 = getelementptr inbounds %"class.std::__1::__vector_base", %"class.std::__1::__vector_base"* %182, i32 0, i32 0, !dbg !6744
  store %"class.std::__1::unique_ptr.1"* %181, %"class.std::__1::unique_ptr.1"** %183, align 8, !dbg !6745
  %184 = load %"class.std::__1::vector"*, %"class.std::__1::vector"** %38, align 8, !dbg !6746
  %185 = bitcast %"class.std::__1::vector"* %184 to %"class.std::__1::__vector_base"*, !dbg !6746
  %186 = getelementptr inbounds %"class.std::__1::__vector_base", %"class.std::__1::__vector_base"* %185, i32 0, i32 1, !dbg !6747
  %187 = load %"class.std::__1::unique_ptr.1"*, %"class.std::__1::unique_ptr.1"** %186, align 8, !dbg !6747
  %188 = bitcast %"class.std::__1::vector"* %141 to %"class.std::__1::__vector_base"*, !dbg !6748
  %189 = getelementptr inbounds %"class.std::__1::__vector_base", %"class.std::__1::__vector_base"* %188, i32 0, i32 1, !dbg !6748
  store %"class.std::__1::unique_ptr.1"* %187, %"class.std::__1::unique_ptr.1"** %189, align 8, !dbg !6749
  %190 = load %"class.std::__1::vector"*, %"class.std::__1::vector"** %38, align 8, !dbg !6750
  %191 = bitcast %"class.std::__1::vector"* %190 to %"class.std::__1::__vector_base"*, !dbg !6750
  store %"class.std::__1::__vector_base"* %191, %"class.std::__1::__vector_base"** %27, align 8
  %192 = load %"class.std::__1::__vector_base"*, %"class.std::__1::__vector_base"** %27, align 8
  %193 = getelementptr inbounds %"class.std::__1::__vector_base", %"class.std::__1::__vector_base"* %192, i32 0, i32 2, !dbg !6751
  store %"class.std::__1::__compressed_pair.7"* %193, %"class.std::__1::__compressed_pair.7"** %26, align 8
  %194 = load %"class.std::__1::__compressed_pair.7"*, %"class.std::__1::__compressed_pair.7"** %26, align 8
  %195 = bitcast %"class.std::__1::__compressed_pair.7"* %194 to %"struct.std::__1::__compressed_pair_elem.8"*, !dbg !6752
  store %"struct.std::__1::__compressed_pair_elem.8"* %195, %"struct.std::__1::__compressed_pair_elem.8"** %25, align 8
  %196 = load %"struct.std::__1::__compressed_pair_elem.8"*, %"struct.std::__1::__compressed_pair_elem.8"** %25, align 8
  %197 = getelementptr inbounds %"struct.std::__1::__compressed_pair_elem.8", %"struct.std::__1::__compressed_pair_elem.8"* %196, i32 0, i32 0, !dbg !6753
  %198 = load %"class.std::__1::unique_ptr.1"*, %"class.std::__1::unique_ptr.1"** %197, align 8, !dbg !6754
  %199 = bitcast %"class.std::__1::vector"* %141 to %"class.std::__1::__vector_base"*, !dbg !6755
  store %"class.std::__1::__vector_base"* %199, %"class.std::__1::__vector_base"** %30, align 8
  %200 = load %"class.std::__1::__vector_base"*, %"class.std::__1::__vector_base"** %30, align 8
  %201 = getelementptr inbounds %"class.std::__1::__vector_base", %"class.std::__1::__vector_base"* %200, i32 0, i32 2, !dbg !6756
  store %"class.std::__1::__compressed_pair.7"* %201, %"class.std::__1::__compressed_pair.7"** %29, align 8
  %202 = load %"class.std::__1::__compressed_pair.7"*, %"class.std::__1::__compressed_pair.7"** %29, align 8
  %203 = bitcast %"class.std::__1::__compressed_pair.7"* %202 to %"struct.std::__1::__compressed_pair_elem.8"*, !dbg !6757
  store %"struct.std::__1::__compressed_pair_elem.8"* %203, %"struct.std::__1::__compressed_pair_elem.8"** %28, align 8
  %204 = load %"struct.std::__1::__compressed_pair_elem.8"*, %"struct.std::__1::__compressed_pair_elem.8"** %28, align 8
  %205 = getelementptr inbounds %"struct.std::__1::__compressed_pair_elem.8", %"struct.std::__1::__compressed_pair_elem.8"* %204, i32 0, i32 0, !dbg !6758
  store %"class.std::__1::unique_ptr.1"* %198, %"class.std::__1::unique_ptr.1"** %205, align 8, !dbg !6759
  %206 = load %"class.std::__1::vector"*, %"class.std::__1::vector"** %38, align 8, !dbg !6760
  %207 = bitcast %"class.std::__1::vector"* %206 to %"class.std::__1::__vector_base"*, !dbg !6760
  store %"class.std::__1::__vector_base"* %207, %"class.std::__1::__vector_base"** %33, align 8
  %208 = load %"class.std::__1::__vector_base"*, %"class.std::__1::__vector_base"** %33, align 8
  %209 = getelementptr inbounds %"class.std::__1::__vector_base", %"class.std::__1::__vector_base"* %208, i32 0, i32 2, !dbg !6761
  store %"class.std::__1::__compressed_pair.7"* %209, %"class.std::__1::__compressed_pair.7"** %32, align 8
  %210 = load %"class.std::__1::__compressed_pair.7"*, %"class.std::__1::__compressed_pair.7"** %32, align 8
  %211 = bitcast %"class.std::__1::__compressed_pair.7"* %210 to %"struct.std::__1::__compressed_pair_elem.8"*, !dbg !6762
  store %"struct.std::__1::__compressed_pair_elem.8"* %211, %"struct.std::__1::__compressed_pair_elem.8"** %31, align 8
  %212 = load %"struct.std::__1::__compressed_pair_elem.8"*, %"struct.std::__1::__compressed_pair_elem.8"** %31, align 8
  %213 = getelementptr inbounds %"struct.std::__1::__compressed_pair_elem.8", %"struct.std::__1::__compressed_pair_elem.8"* %212, i32 0, i32 0, !dbg !6763
  store %"class.std::__1::unique_ptr.1"* null, %"class.std::__1::unique_ptr.1"** %213, align 8, !dbg !6764
  %214 = load %"class.std::__1::vector"*, %"class.std::__1::vector"** %38, align 8, !dbg !6765
  %215 = bitcast %"class.std::__1::vector"* %214 to %"class.std::__1::__vector_base"*, !dbg !6765
  %216 = getelementptr inbounds %"class.std::__1::__vector_base", %"class.std::__1::__vector_base"* %215, i32 0, i32 1, !dbg !6766
  store %"class.std::__1::unique_ptr.1"* null, %"class.std::__1::unique_ptr.1"** %216, align 8, !dbg !6767
  %217 = load %"class.std::__1::vector"*, %"class.std::__1::vector"** %38, align 8, !dbg !6768
  %218 = bitcast %"class.std::__1::vector"* %217 to %"class.std::__1::__vector_base"*, !dbg !6768
  %219 = getelementptr inbounds %"class.std::__1::__vector_base", %"class.std::__1::__vector_base"* %218, i32 0, i32 0, !dbg !6769
  store %"class.std::__1::unique_ptr.1"* null, %"class.std::__1::unique_ptr.1"** %219, align 8, !dbg !6770
  %220 = load i32, i32* %86, align 4, !dbg !6771
  %221 = load i32, i32* %87, align 4, !dbg !6772
  call void @_ZN14altered_carbon2js19ACAstCollectionNodeC2ENSt3__110unique_ptrINS0_13ACLexPositionENS2_14default_deleteIS4_EEEENS2_6vectorINS3_INS0_13ACAstBaseNodeENS5_IS9_EEEENS2_9allocatorISB_EEEENS9_11AstNodeTypeENS9_14AstNodeSubTypeE(%"class.altered_carbon::js::ACAstCollectionNode"* %91, %"class.std::__1::unique_ptr"* %88, %"class.std::__1::vector"* %89, i32 %220, i32 %221), !dbg !6773
  call void @_ZNSt3__16vectorINS_10unique_ptrIN14altered_carbon2js13ACAstBaseNodeENS_14default_deleteIS4_EEEENS_9allocatorIS7_EEED1Ev(%"class.std::__1::vector"* %89) #8, !dbg !6773
  store %"class.std::__1::unique_ptr"* %88, %"class.std::__1::unique_ptr"** %83, align 8
  %222 = load %"class.std::__1::unique_ptr"*, %"class.std::__1::unique_ptr"** %83, align 8
  store %"class.std::__1::unique_ptr"* %222, %"class.std::__1::unique_ptr"** %82, align 8
  %223 = load %"class.std::__1::unique_ptr"*, %"class.std::__1::unique_ptr"** %82, align 8
  store %"class.std::__1::unique_ptr"* %223, %"class.std::__1::unique_ptr"** %79, align 8
  store %"struct.altered_carbon::js::ACLexPosition"* null, %"struct.altered_carbon::js::ACLexPosition"** %80, align 8
  %224 = load %"class.std::__1::unique_ptr"*, %"class.std::__1::unique_ptr"** %79, align 8
  %225 = getelementptr inbounds %"class.std::__1::unique_ptr", %"class.std::__1::unique_ptr"* %224, i32 0, i32 0, !dbg !6774
  store %"class.std::__1::__compressed_pair"* %225, %"class.std::__1::__compressed_pair"** %78, align 8
  %226 = load %"class.std::__1::__compressed_pair"*, %"class.std::__1::__compressed_pair"** %78, align 8
  %227 = bitcast %"class.std::__1::__compressed_pair"* %226 to %"struct.std::__1::__compressed_pair_elem"*, !dbg !6775
  store %"struct.std::__1::__compressed_pair_elem"* %227, %"struct.std::__1::__compressed_pair_elem"** %77, align 8
  %228 = load %"struct.std::__1::__compressed_pair_elem"*, %"struct.std::__1::__compressed_pair_elem"** %77, align 8
  %229 = getelementptr inbounds %"struct.std::__1::__compressed_pair_elem", %"struct.std::__1::__compressed_pair_elem"* %228, i32 0, i32 0, !dbg !6776
  %230 = load %"struct.altered_carbon::js::ACLexPosition"*, %"struct.altered_carbon::js::ACLexPosition"** %229, align 8, !dbg !6777
  store %"struct.altered_carbon::js::ACLexPosition"* %230, %"struct.altered_carbon::js::ACLexPosition"** %81, align 8, !dbg !6667
  %231 = load %"struct.altered_carbon::js::ACLexPosition"*, %"struct.altered_carbon::js::ACLexPosition"** %80, align 8, !dbg !6778
  %232 = getelementptr inbounds %"class.std::__1::unique_ptr", %"class.std::__1::unique_ptr"* %224, i32 0, i32 0, !dbg !6779
  store %"class.std::__1::__compressed_pair"* %232, %"class.std::__1::__compressed_pair"** %74, align 8
  %233 = load %"class.std::__1::__compressed_pair"*, %"class.std::__1::__compressed_pair"** %74, align 8
  %234 = bitcast %"class.std::__1::__compressed_pair"* %233 to %"struct.std::__1::__compressed_pair_elem"*, !dbg !6780
  store %"struct.std::__1::__compressed_pair_elem"* %234, %"struct.std::__1::__compressed_pair_elem"** %73, align 8
  %235 = load %"struct.std::__1::__compressed_pair_elem"*, %"struct.std::__1::__compressed_pair_elem"** %73, align 8
  %236 = getelementptr inbounds %"struct.std::__1::__compressed_pair_elem", %"struct.std::__1::__compressed_pair_elem"* %235, i32 0, i32 0, !dbg !6781
  store %"struct.altered_carbon::js::ACLexPosition"* %231, %"struct.altered_carbon::js::ACLexPosition"** %236, align 8, !dbg !6782
  %237 = load %"struct.altered_carbon::js::ACLexPosition"*, %"struct.altered_carbon::js::ACLexPosition"** %81, align 8, !dbg !6783
  %238 = icmp ne %"struct.altered_carbon::js::ACLexPosition"* %237, null, !dbg !6783
  br i1 %238, label %239, label %255, !dbg !6784

; <label>:239:                                    ; preds = %5
  %240 = getelementptr inbounds %"class.std::__1::unique_ptr", %"class.std::__1::unique_ptr"* %224, i32 0, i32 0, !dbg !6785
  store %"class.std::__1::__compressed_pair"* %240, %"class.std::__1::__compressed_pair"** %72, align 8
  %241 = load %"class.std::__1::__compressed_pair"*, %"class.std::__1::__compressed_pair"** %72, align 8
  %242 = bitcast %"class.std::__1::__compressed_pair"* %241 to %"struct.std::__1::__compressed_pair_elem.0"*, !dbg !6786
  store %"struct.std::__1::__compressed_pair_elem.0"* %242, %"struct.std::__1::__compressed_pair_elem.0"** %71, align 8
  %243 = load %"struct.std::__1::__compressed_pair_elem.0"*, %"struct.std::__1::__compressed_pair_elem.0"** %71, align 8
  %244 = bitcast %"struct.std::__1::__compressed_pair_elem.0"* %243 to %"struct.std::__1::default_delete"*, !dbg !6787
  %245 = load %"struct.altered_carbon::js::ACLexPosition"*, %"struct.altered_carbon::js::ACLexPosition"** %81, align 8, !dbg !6788
  store %"struct.std::__1::default_delete"* %244, %"struct.std::__1::default_delete"** %75, align 8
  store %"struct.altered_carbon::js::ACLexPosition"* %245, %"struct.altered_carbon::js::ACLexPosition"** %76, align 8
  %246 = load %"struct.std::__1::default_delete"*, %"struct.std::__1::default_delete"** %75, align 8
  %247 = load %"struct.altered_carbon::js::ACLexPosition"*, %"struct.altered_carbon::js::ACLexPosition"** %76, align 8, !dbg !6789
  %248 = icmp eq %"struct.altered_carbon::js::ACLexPosition"* %247, null, !dbg !6790
  br i1 %248, label %254, label %249, !dbg !6790

; <label>:249:                                    ; preds = %239
  %250 = bitcast %"struct.altered_carbon::js::ACLexPosition"* %247 to void (%"struct.altered_carbon::js::ACLexPosition"*)***, !dbg !6790
  %251 = load void (%"struct.altered_carbon::js::ACLexPosition"*)**, void (%"struct.altered_carbon::js::ACLexPosition"*)*** %250, align 8, !dbg !6790
  %252 = getelementptr inbounds void (%"struct.altered_carbon::js::ACLexPosition"*)*, void (%"struct.altered_carbon::js::ACLexPosition"*)** %251, i64 1, !dbg !6790
  %253 = load void (%"struct.altered_carbon::js::ACLexPosition"*)*, void (%"struct.altered_carbon::js::ACLexPosition"*)** %252, align 8, !dbg !6790
  call void %253(%"struct.altered_carbon::js::ACLexPosition"* %247) #8, !dbg !6790
  br label %254, !dbg !6790

; <label>:254:                                    ; preds = %249, %239
  br label %255, !dbg !6785

; <label>:255:                                    ; preds = %5, %254
  %256 = bitcast %"class.altered_carbon::js::ACAstCollectionParam"* %90 to i32 (...)***, !dbg !6683
  store i32 (...)** bitcast (i8** getelementptr inbounds ({ [14 x i8*] }, { [14 x i8*] }* @_ZTVN14altered_carbon2js20ACAstCollectionParamE, i32 0, inrange i32 0, i32 2) to i32 (...)**), i32 (...)*** %256, align 8, !dbg !6683
  ret void, !dbg !6791
}

declare void @_ZN14altered_carbon2js19ACAstCollectionNodeC2ENSt3__110unique_ptrINS0_13ACLexPositionENS2_14default_deleteIS4_EEEENS2_6vectorINS3_INS0_13ACAstBaseNodeENS5_IS9_EEEENS2_9allocatorISB_EEEENS9_11AstNodeTypeENS9_14AstNodeSubTypeE(%"class.altered_carbon::js::ACAstCollectionNode"*, %"class.std::__1::unique_ptr"*, %"class.std::__1::vector"*, i32, i32) unnamed_addr #2

; Function Attrs: noinline nounwind optnone ssp uwtable
define linkonce_odr hidden void @_ZNSt3__16vectorINS_10unique_ptrIN14altered_carbon2js13ACAstBaseNodeENS_14default_deleteIS4_EEEENS_9allocatorIS7_EEED1Ev(%"class.std::__1::vector"*) unnamed_addr #0 align 2 !dbg !6792 {
  %2 = alloca %"class.std::__1::vector"*, align 8
  store %"class.std::__1::vector"* %0, %"class.std::__1::vector"** %2, align 8
  call void @llvm.dbg.declare(metadata %"class.std::__1::vector"** %2, metadata !6794, metadata !DIExpression()), !dbg !6795
  %3 = load %"class.std::__1::vector"*, %"class.std::__1::vector"** %2, align 8
  call void @_ZNSt3__16vectorINS_10unique_ptrIN14altered_carbon2js13ACAstBaseNodeENS_14default_deleteIS4_EEEENS_9allocatorIS7_EEED2Ev(%"class.std::__1::vector"* %3) #8, !dbg !6796
  ret void, !dbg !6796
}

; Function Attrs: noinline nounwind optnone ssp uwtable
define void @_ZN14altered_carbon2js20ACAstCollectionParamC1ENSt3__110unique_ptrINS0_13ACLexPositionENS2_14default_deleteIS4_EEEENS2_6vectorINS3_INS0_13ACAstBaseNodeENS5_IS9_EEEENS2_9allocatorISB_EEEENS9_11AstNodeTypeENS9_14AstNodeSubTypeE(%"class.altered_carbon::js::ACAstCollectionParam"*, %"class.std::__1::unique_ptr"*, %"class.std::__1::vector"*, i32, i32) unnamed_addr #0 align 2 !dbg !6797 {
  %6 = alloca %"class.altered_carbon::js::ACAstCollectionParam"*, align 8
  %7 = alloca i32, align 4
  %8 = alloca i32, align 4
  store %"class.altered_carbon::js::ACAstCollectionParam"* %0, %"class.altered_carbon::js::ACAstCollectionParam"** %6, align 8
  call void @llvm.dbg.declare(metadata %"class.altered_carbon::js::ACAstCollectionParam"** %6, metadata !6798, metadata !DIExpression()), !dbg !6799
  call void @llvm.dbg.declare(metadata %"class.std::__1::unique_ptr"* %1, metadata !6800, metadata !DIExpression()), !dbg !6801
  call void @llvm.dbg.declare(metadata %"class.std::__1::vector"* %2, metadata !6802, metadata !DIExpression()), !dbg !6803
  store i32 %3, i32* %7, align 4
  call void @llvm.dbg.declare(metadata i32* %7, metadata !6804, metadata !DIExpression()), !dbg !6805
  store i32 %4, i32* %8, align 4
  call void @llvm.dbg.declare(metadata i32* %8, metadata !6806, metadata !DIExpression()), !dbg !6807
  %9 = load %"class.altered_carbon::js::ACAstCollectionParam"*, %"class.altered_carbon::js::ACAstCollectionParam"** %6, align 8
  %10 = load i32, i32* %7, align 4, !dbg !6808
  %11 = load i32, i32* %8, align 4, !dbg !6808
  call void @_ZN14altered_carbon2js20ACAstCollectionParamC2ENSt3__110unique_ptrINS0_13ACLexPositionENS2_14default_deleteIS4_EEEENS2_6vectorINS3_INS0_13ACAstBaseNodeENS5_IS9_EEEENS2_9allocatorISB_EEEENS9_11AstNodeTypeENS9_14AstNodeSubTypeE(%"class.altered_carbon::js::ACAstCollectionParam"* %9, %"class.std::__1::unique_ptr"* %1, %"class.std::__1::vector"* %2, i32 %10, i32 %11), !dbg !6808
  ret void, !dbg !6809
}

; Function Attrs: noinline nounwind optnone ssp uwtable
define void @_ZN14altered_carbon2js16ACAstObjectParamC2ENSt3__110unique_ptrINS0_13ACLexPositionENS2_14default_deleteIS4_EEEENS2_6vectorINS3_INS0_13ACAstBaseNodeENS5_IS9_EEEENS2_9allocatorISB_EEEENS9_11AstNodeTypeENS9_14AstNodeSubTypeE(%"class.altered_carbon::js::ACAstObjectParam"*, %"class.std::__1::unique_ptr"*, %"class.std::__1::vector"*, i32, i32) unnamed_addr #0 align 2 !dbg !6810 {
  %6 = alloca %"class.std::__1::allocator"*, align 8
  call void @llvm.dbg.declare(metadata %"class.std::__1::allocator"** %6, metadata !6463, metadata !DIExpression()), !dbg !6818
  %7 = alloca i8**, align 8
  call void @llvm.dbg.declare(metadata i8*** %7, metadata !6474, metadata !DIExpression()), !dbg !6822
  %8 = alloca %"struct.std::__1::__compressed_pair_elem.8"*, align 8
  call void @llvm.dbg.declare(metadata %"struct.std::__1::__compressed_pair_elem.8"** %8, metadata !6505, metadata !DIExpression()), !dbg !6828
  %9 = alloca i8**, align 8
  call void @llvm.dbg.declare(metadata i8*** %9, metadata !6507, metadata !DIExpression()), !dbg !6829
  %10 = alloca %"class.std::__1::allocator"*, align 8
  call void @llvm.dbg.declare(metadata %"class.std::__1::allocator"** %10, metadata !6509, metadata !DIExpression()), !dbg !6830
  %11 = alloca %"class.std::__1::allocator"*, align 8
  call void @llvm.dbg.declare(metadata %"class.std::__1::allocator"** %11, metadata !6509, metadata !DIExpression()), !dbg !6832
  %12 = alloca %"struct.std::__1::__compressed_pair_elem.9"*, align 8
  call void @llvm.dbg.declare(metadata %"struct.std::__1::__compressed_pair_elem.9"** %12, metadata !6529, metadata !DIExpression()), !dbg !6835
  %13 = alloca %"class.std::__1::allocator"*, align 8
  call void @llvm.dbg.declare(metadata %"class.std::__1::allocator"** %13, metadata !6531, metadata !DIExpression()), !dbg !6836
  %14 = alloca i8**, align 8
  call void @llvm.dbg.declare(metadata i8*** %14, metadata !6474, metadata !DIExpression()), !dbg !6837
  %15 = alloca %"class.std::__1::__compressed_pair.7"*, align 8
  call void @llvm.dbg.declare(metadata %"class.std::__1::__compressed_pair.7"** %15, metadata !6535, metadata !DIExpression()), !dbg !6839
  %16 = alloca i8**, align 8
  call void @llvm.dbg.declare(metadata i8*** %16, metadata !6537, metadata !DIExpression()), !dbg !6840
  %17 = alloca %"class.std::__1::allocator"*, align 8
  call void @llvm.dbg.declare(metadata %"class.std::__1::allocator"** %17, metadata !6539, metadata !DIExpression()), !dbg !6841
  %18 = alloca %"class.std::__1::__compressed_pair.7"*, align 8
  call void @llvm.dbg.declare(metadata %"class.std::__1::__compressed_pair.7"** %18, metadata !6541, metadata !DIExpression()), !dbg !6842
  %19 = alloca i8**, align 8
  call void @llvm.dbg.declare(metadata i8*** %19, metadata !6543, metadata !DIExpression()), !dbg !6843
  %20 = alloca %"class.std::__1::allocator"*, align 8
  call void @llvm.dbg.declare(metadata %"class.std::__1::allocator"** %20, metadata !6545, metadata !DIExpression()), !dbg !6844
  %21 = alloca %"class.std::__1::__vector_base_common"*, align 8
  call void @llvm.dbg.declare(metadata %"class.std::__1::__vector_base_common"** %21, metadata !6547, metadata !DIExpression()), !dbg !6845
  %22 = alloca %"class.std::__1::__vector_base"*, align 8
  call void @llvm.dbg.declare(metadata %"class.std::__1::__vector_base"** %22, metadata !6552, metadata !DIExpression()), !dbg !6847
  %23 = alloca %"class.std::__1::allocator"*, align 8
  call void @llvm.dbg.declare(metadata %"class.std::__1::allocator"** %23, metadata !6554, metadata !DIExpression()), !dbg !6848
  %24 = alloca i8*, align 8
  %25 = alloca %"struct.std::__1::__compressed_pair_elem.8"*, align 8
  call void @llvm.dbg.declare(metadata %"struct.std::__1::__compressed_pair_elem.8"** %25, metadata !5731, metadata !DIExpression()), !dbg !6849
  %26 = alloca %"class.std::__1::__compressed_pair.7"*, align 8
  call void @llvm.dbg.declare(metadata %"class.std::__1::__compressed_pair.7"** %26, metadata !5740, metadata !DIExpression()), !dbg !6853
  %27 = alloca %"class.std::__1::__vector_base"*, align 8
  call void @llvm.dbg.declare(metadata %"class.std::__1::__vector_base"** %27, metadata !5742, metadata !DIExpression()), !dbg !6854
  %28 = alloca %"struct.std::__1::__compressed_pair_elem.8"*, align 8
  call void @llvm.dbg.declare(metadata %"struct.std::__1::__compressed_pair_elem.8"** %28, metadata !5731, metadata !DIExpression()), !dbg !6855
  %29 = alloca %"class.std::__1::__compressed_pair.7"*, align 8
  call void @llvm.dbg.declare(metadata %"class.std::__1::__compressed_pair.7"** %29, metadata !5740, metadata !DIExpression()), !dbg !6859
  %30 = alloca %"class.std::__1::__vector_base"*, align 8
  call void @llvm.dbg.declare(metadata %"class.std::__1::__vector_base"** %30, metadata !5742, metadata !DIExpression()), !dbg !6860
  %31 = alloca %"struct.std::__1::__compressed_pair_elem.8"*, align 8
  call void @llvm.dbg.declare(metadata %"struct.std::__1::__compressed_pair_elem.8"** %31, metadata !5731, metadata !DIExpression()), !dbg !6861
  %32 = alloca %"class.std::__1::__compressed_pair.7"*, align 8
  call void @llvm.dbg.declare(metadata %"class.std::__1::__compressed_pair.7"** %32, metadata !5740, metadata !DIExpression()), !dbg !6865
  %33 = alloca %"class.std::__1::__vector_base"*, align 8
  call void @llvm.dbg.declare(metadata %"class.std::__1::__vector_base"** %33, metadata !5742, metadata !DIExpression()), !dbg !6866
  %34 = alloca %"struct.std::__1::__compressed_pair_elem.9"*, align 8
  call void @llvm.dbg.declare(metadata %"struct.std::__1::__compressed_pair_elem.9"** %34, metadata !5496, metadata !DIExpression()), !dbg !6867
  %35 = alloca %"class.std::__1::__compressed_pair.7"*, align 8
  call void @llvm.dbg.declare(metadata %"class.std::__1::__compressed_pair.7"** %35, metadata !5509, metadata !DIExpression()), !dbg !6871
  %36 = alloca %"class.std::__1::__vector_base"*, align 8
  call void @llvm.dbg.declare(metadata %"class.std::__1::__vector_base"** %36, metadata !5512, metadata !DIExpression()), !dbg !6872
  %37 = alloca %"class.std::__1::vector"*, align 8
  call void @llvm.dbg.declare(metadata %"class.std::__1::vector"** %37, metadata !6581, metadata !DIExpression()), !dbg !6873
  %38 = alloca %"class.std::__1::vector"*, align 8
  call void @llvm.dbg.declare(metadata %"class.std::__1::vector"** %38, metadata !6583, metadata !DIExpression()), !dbg !6874
  %39 = alloca %"class.std::__1::vector"*, align 8
  call void @llvm.dbg.declare(metadata %"class.std::__1::vector"** %39, metadata !6585, metadata !DIExpression()), !dbg !6875
  %40 = alloca %"class.std::__1::vector"*, align 8
  call void @llvm.dbg.declare(metadata %"class.std::__1::vector"** %40, metadata !6587, metadata !DIExpression()), !dbg !6876
  %41 = alloca %"class.std::__1::vector"*, align 8
  call void @llvm.dbg.declare(metadata %"class.std::__1::vector"** %41, metadata !6589, metadata !DIExpression()), !dbg !6877
  %42 = alloca %"struct.std::__1::__compressed_pair_elem.0"*, align 8
  call void @llvm.dbg.declare(metadata %"struct.std::__1::__compressed_pair_elem.0"** %42, metadata !5762, metadata !DIExpression()), !dbg !6879
  %43 = alloca %"class.std::__1::__compressed_pair"*, align 8
  call void @llvm.dbg.declare(metadata %"class.std::__1::__compressed_pair"** %43, metadata !5777, metadata !DIExpression()), !dbg !6885
  %44 = alloca %"class.std::__1::unique_ptr"*, align 8
  call void @llvm.dbg.declare(metadata %"class.std::__1::unique_ptr"** %44, metadata !5876, metadata !DIExpression()), !dbg !6886
  %45 = alloca %"struct.std::__1::default_delete"*, align 8
  call void @llvm.dbg.declare(metadata %"struct.std::__1::default_delete"** %45, metadata !5878, metadata !DIExpression()), !dbg !6887
  %46 = alloca %"struct.altered_carbon::js::ACLexPosition"**, align 8
  call void @llvm.dbg.declare(metadata %"struct.altered_carbon::js::ACLexPosition"*** %46, metadata !5889, metadata !DIExpression()), !dbg !6889
  %47 = alloca %"struct.std::__1::__compressed_pair_elem"*, align 8
  call void @llvm.dbg.declare(metadata %"struct.std::__1::__compressed_pair_elem"** %47, metadata !5917, metadata !DIExpression()), !dbg !6894
  %48 = alloca %"struct.altered_carbon::js::ACLexPosition"**, align 8
  call void @llvm.dbg.declare(metadata %"struct.altered_carbon::js::ACLexPosition"*** %48, metadata !5919, metadata !DIExpression()), !dbg !6895
  %49 = alloca %"struct.std::__1::default_delete"*, align 8
  call void @llvm.dbg.declare(metadata %"struct.std::__1::default_delete"** %49, metadata !5878, metadata !DIExpression()), !dbg !6896
  %50 = alloca %"struct.std::__1::default_delete"*, align 8
  call void @llvm.dbg.declare(metadata %"struct.std::__1::default_delete"** %50, metadata !5878, metadata !DIExpression()), !dbg !6898
  %51 = alloca %"struct.std::__1::__compressed_pair_elem.0"*, align 8
  call void @llvm.dbg.declare(metadata %"struct.std::__1::__compressed_pair_elem.0"** %51, metadata !5932, metadata !DIExpression()), !dbg !6901
  %52 = alloca %"struct.std::__1::default_delete"*, align 8
  call void @llvm.dbg.declare(metadata %"struct.std::__1::default_delete"** %52, metadata !5934, metadata !DIExpression()), !dbg !6902
  %53 = alloca %"struct.altered_carbon::js::ACLexPosition"**, align 8
  call void @llvm.dbg.declare(metadata %"struct.altered_carbon::js::ACLexPosition"*** %53, metadata !5889, metadata !DIExpression()), !dbg !6903
  %54 = alloca %"class.std::__1::__compressed_pair"*, align 8
  call void @llvm.dbg.declare(metadata %"class.std::__1::__compressed_pair"** %54, metadata !5938, metadata !DIExpression()), !dbg !6905
  %55 = alloca %"struct.altered_carbon::js::ACLexPosition"**, align 8
  call void @llvm.dbg.declare(metadata %"struct.altered_carbon::js::ACLexPosition"*** %55, metadata !5940, metadata !DIExpression()), !dbg !6906
  %56 = alloca %"struct.std::__1::default_delete"*, align 8
  call void @llvm.dbg.declare(metadata %"struct.std::__1::default_delete"** %56, metadata !5942, metadata !DIExpression()), !dbg !6907
  %57 = alloca %"class.std::__1::__compressed_pair"*, align 8
  call void @llvm.dbg.declare(metadata %"class.std::__1::__compressed_pair"** %57, metadata !5944, metadata !DIExpression()), !dbg !6908
  %58 = alloca %"struct.altered_carbon::js::ACLexPosition"**, align 8
  call void @llvm.dbg.declare(metadata %"struct.altered_carbon::js::ACLexPosition"*** %58, metadata !5946, metadata !DIExpression()), !dbg !6909
  %59 = alloca %"struct.std::__1::default_delete"*, align 8
  call void @llvm.dbg.declare(metadata %"struct.std::__1::default_delete"** %59, metadata !5948, metadata !DIExpression()), !dbg !6910
  %60 = alloca %"struct.std::__1::__compressed_pair_elem"*, align 8
  call void @llvm.dbg.declare(metadata %"struct.std::__1::__compressed_pair_elem"** %60, metadata !5780, metadata !DIExpression()), !dbg !6911
  %61 = alloca %"class.std::__1::__compressed_pair"*, align 8
  call void @llvm.dbg.declare(metadata %"class.std::__1::__compressed_pair"** %61, metadata !5787, metadata !DIExpression()), !dbg !6915
  %62 = alloca %"struct.std::__1::__compressed_pair_elem"*, align 8
  call void @llvm.dbg.declare(metadata %"struct.std::__1::__compressed_pair_elem"** %62, metadata !5780, metadata !DIExpression()), !dbg !6916
  %63 = alloca %"class.std::__1::__compressed_pair"*, align 8
  call void @llvm.dbg.declare(metadata %"class.std::__1::__compressed_pair"** %63, metadata !5787, metadata !DIExpression()), !dbg !6919
  %64 = alloca %"class.std::__1::unique_ptr"*, align 8
  call void @llvm.dbg.declare(metadata %"class.std::__1::unique_ptr"** %64, metadata !5960, metadata !DIExpression()), !dbg !6920
  %65 = alloca %"struct.altered_carbon::js::ACLexPosition"*, align 8
  call void @llvm.dbg.declare(metadata %"struct.altered_carbon::js::ACLexPosition"** %65, metadata !5962, metadata !DIExpression()), !dbg !6921
  %66 = alloca %"class.std::__1::unique_ptr"*, align 8
  call void @llvm.dbg.declare(metadata %"class.std::__1::unique_ptr"** %66, metadata !5964, metadata !DIExpression()), !dbg !6922
  %67 = alloca %"class.std::__1::unique_ptr"*, align 8
  call void @llvm.dbg.declare(metadata %"class.std::__1::unique_ptr"** %67, metadata !5966, metadata !DIExpression()), !dbg !6923
  %68 = alloca %"struct.altered_carbon::js::ACLexPosition"*, align 8
  %69 = alloca %"class.std::__1::unique_ptr"*, align 8
  call void @llvm.dbg.declare(metadata %"class.std::__1::unique_ptr"** %69, metadata !5968, metadata !DIExpression()), !dbg !6924
  %70 = alloca %"class.std::__1::unique_ptr"*, align 8
  call void @llvm.dbg.declare(metadata %"class.std::__1::unique_ptr"** %70, metadata !5970, metadata !DIExpression()), !dbg !6925
  %71 = alloca %"struct.std::__1::__compressed_pair_elem.0"*, align 8
  call void @llvm.dbg.declare(metadata %"struct.std::__1::__compressed_pair_elem.0"** %71, metadata !5762, metadata !DIExpression()), !dbg !6926
  %72 = alloca %"class.std::__1::__compressed_pair"*, align 8
  call void @llvm.dbg.declare(metadata %"class.std::__1::__compressed_pair"** %72, metadata !5777, metadata !DIExpression()), !dbg !6932
  %73 = alloca %"struct.std::__1::__compressed_pair_elem"*, align 8
  call void @llvm.dbg.declare(metadata %"struct.std::__1::__compressed_pair_elem"** %73, metadata !5780, metadata !DIExpression()), !dbg !6933
  %74 = alloca %"class.std::__1::__compressed_pair"*, align 8
  call void @llvm.dbg.declare(metadata %"class.std::__1::__compressed_pair"** %74, metadata !5787, metadata !DIExpression()), !dbg !6936
  %75 = alloca %"struct.std::__1::default_delete"*, align 8
  call void @llvm.dbg.declare(metadata %"struct.std::__1::default_delete"** %75, metadata !5789, metadata !DIExpression()), !dbg !6937
  %76 = alloca %"struct.altered_carbon::js::ACLexPosition"*, align 8
  call void @llvm.dbg.declare(metadata %"struct.altered_carbon::js::ACLexPosition"** %76, metadata !5794, metadata !DIExpression()), !dbg !6939
  %77 = alloca %"struct.std::__1::__compressed_pair_elem"*, align 8
  call void @llvm.dbg.declare(metadata %"struct.std::__1::__compressed_pair_elem"** %77, metadata !5780, metadata !DIExpression()), !dbg !6940
  %78 = alloca %"class.std::__1::__compressed_pair"*, align 8
  call void @llvm.dbg.declare(metadata %"class.std::__1::__compressed_pair"** %78, metadata !5787, metadata !DIExpression()), !dbg !6943
  %79 = alloca %"class.std::__1::unique_ptr"*, align 8
  call void @llvm.dbg.declare(metadata %"class.std::__1::unique_ptr"** %79, metadata !5800, metadata !DIExpression()), !dbg !6944
  %80 = alloca %"struct.altered_carbon::js::ACLexPosition"*, align 8
  call void @llvm.dbg.declare(metadata %"struct.altered_carbon::js::ACLexPosition"** %80, metadata !5803, metadata !DIExpression()), !dbg !6945
  %81 = alloca %"struct.altered_carbon::js::ACLexPosition"*, align 8
  call void @llvm.dbg.declare(metadata %"struct.altered_carbon::js::ACLexPosition"** %81, metadata !5805, metadata !DIExpression()), !dbg !6946
  %82 = alloca %"class.std::__1::unique_ptr"*, align 8
  call void @llvm.dbg.declare(metadata %"class.std::__1::unique_ptr"** %82, metadata !5807, metadata !DIExpression()), !dbg !6947
  %83 = alloca %"class.std::__1::unique_ptr"*, align 8
  call void @llvm.dbg.declare(metadata %"class.std::__1::unique_ptr"** %83, metadata !5809, metadata !DIExpression()), !dbg !6948
  %84 = alloca %"class.std::__1::unique_ptr"*, align 8
  call void @llvm.dbg.declare(metadata %"class.std::__1::unique_ptr"** %84, metadata !6069, metadata !DIExpression()), !dbg !6949
  %85 = alloca %"class.altered_carbon::js::ACAstObjectParam"*, align 8
  %86 = alloca i32, align 4
  %87 = alloca i32, align 4
  %88 = alloca %"class.std::__1::unique_ptr", align 8
  %89 = alloca %"class.std::__1::vector", align 8
  store %"class.altered_carbon::js::ACAstObjectParam"* %0, %"class.altered_carbon::js::ACAstObjectParam"** %85, align 8
  call void @llvm.dbg.declare(metadata %"class.altered_carbon::js::ACAstObjectParam"** %85, metadata !6951, metadata !DIExpression()), !dbg !6953
  call void @llvm.dbg.declare(metadata %"class.std::__1::unique_ptr"* %1, metadata !6954, metadata !DIExpression()), !dbg !6955
  call void @llvm.dbg.declare(metadata %"class.std::__1::vector"* %2, metadata !6956, metadata !DIExpression()), !dbg !6957
  store i32 %3, i32* %86, align 4
  call void @llvm.dbg.declare(metadata i32* %86, metadata !6958, metadata !DIExpression()), !dbg !6959
  store i32 %4, i32* %87, align 4
  call void @llvm.dbg.declare(metadata i32* %87, metadata !6960, metadata !DIExpression()), !dbg !6961
  %90 = load %"class.altered_carbon::js::ACAstObjectParam"*, %"class.altered_carbon::js::ACAstObjectParam"** %85, align 8
  %91 = bitcast %"class.altered_carbon::js::ACAstObjectParam"* %90 to %"class.altered_carbon::js::ACAstObjectNode"*, !dbg !6962
  store %"class.std::__1::unique_ptr"* %1, %"class.std::__1::unique_ptr"** %84, align 8
  %92 = load %"class.std::__1::unique_ptr"*, %"class.std::__1::unique_ptr"** %84, align 8, !dbg !6963
  store %"class.std::__1::unique_ptr"* %88, %"class.std::__1::unique_ptr"** %69, align 8
  store %"class.std::__1::unique_ptr"* %92, %"class.std::__1::unique_ptr"** %70, align 8
  %93 = load %"class.std::__1::unique_ptr"*, %"class.std::__1::unique_ptr"** %69, align 8
  %94 = load %"class.std::__1::unique_ptr"*, %"class.std::__1::unique_ptr"** %70, align 8, !dbg !6964
  store %"class.std::__1::unique_ptr"* %93, %"class.std::__1::unique_ptr"** %66, align 8
  store %"class.std::__1::unique_ptr"* %94, %"class.std::__1::unique_ptr"** %67, align 8
  %95 = load %"class.std::__1::unique_ptr"*, %"class.std::__1::unique_ptr"** %66, align 8
  %96 = getelementptr inbounds %"class.std::__1::unique_ptr", %"class.std::__1::unique_ptr"* %95, i32 0, i32 0, !dbg !6965
  %97 = load %"class.std::__1::unique_ptr"*, %"class.std::__1::unique_ptr"** %67, align 8, !dbg !6966
  store %"class.std::__1::unique_ptr"* %97, %"class.std::__1::unique_ptr"** %64, align 8
  %98 = load %"class.std::__1::unique_ptr"*, %"class.std::__1::unique_ptr"** %64, align 8
  %99 = getelementptr inbounds %"class.std::__1::unique_ptr", %"class.std::__1::unique_ptr"* %98, i32 0, i32 0, !dbg !6967
  store %"class.std::__1::__compressed_pair"* %99, %"class.std::__1::__compressed_pair"** %63, align 8
  %100 = load %"class.std::__1::__compressed_pair"*, %"class.std::__1::__compressed_pair"** %63, align 8
  %101 = bitcast %"class.std::__1::__compressed_pair"* %100 to %"struct.std::__1::__compressed_pair_elem"*, !dbg !6968
  store %"struct.std::__1::__compressed_pair_elem"* %101, %"struct.std::__1::__compressed_pair_elem"** %62, align 8
  %102 = load %"struct.std::__1::__compressed_pair_elem"*, %"struct.std::__1::__compressed_pair_elem"** %62, align 8
  %103 = getelementptr inbounds %"struct.std::__1::__compressed_pair_elem", %"struct.std::__1::__compressed_pair_elem"* %102, i32 0, i32 0, !dbg !6969
  %104 = load %"struct.altered_carbon::js::ACLexPosition"*, %"struct.altered_carbon::js::ACLexPosition"** %103, align 8, !dbg !6970
  store %"struct.altered_carbon::js::ACLexPosition"* %104, %"struct.altered_carbon::js::ACLexPosition"** %65, align 8, !dbg !6921
  %105 = getelementptr inbounds %"class.std::__1::unique_ptr", %"class.std::__1::unique_ptr"* %98, i32 0, i32 0, !dbg !6971
  store %"class.std::__1::__compressed_pair"* %105, %"class.std::__1::__compressed_pair"** %61, align 8
  %106 = load %"class.std::__1::__compressed_pair"*, %"class.std::__1::__compressed_pair"** %61, align 8
  %107 = bitcast %"class.std::__1::__compressed_pair"* %106 to %"struct.std::__1::__compressed_pair_elem"*, !dbg !6972
  store %"struct.std::__1::__compressed_pair_elem"* %107, %"struct.std::__1::__compressed_pair_elem"** %60, align 8
  %108 = load %"struct.std::__1::__compressed_pair_elem"*, %"struct.std::__1::__compressed_pair_elem"** %60, align 8
  %109 = getelementptr inbounds %"struct.std::__1::__compressed_pair_elem", %"struct.std::__1::__compressed_pair_elem"* %108, i32 0, i32 0, !dbg !6973
  store %"struct.altered_carbon::js::ACLexPosition"* null, %"struct.altered_carbon::js::ACLexPosition"** %109, align 8, !dbg !6974
  %110 = load %"struct.altered_carbon::js::ACLexPosition"*, %"struct.altered_carbon::js::ACLexPosition"** %65, align 8, !dbg !6975
  store %"struct.altered_carbon::js::ACLexPosition"* %110, %"struct.altered_carbon::js::ACLexPosition"** %68, align 8, !dbg !6966
  %111 = load %"class.std::__1::unique_ptr"*, %"class.std::__1::unique_ptr"** %67, align 8, !dbg !6976
  store %"class.std::__1::unique_ptr"* %111, %"class.std::__1::unique_ptr"** %44, align 8
  %112 = load %"class.std::__1::unique_ptr"*, %"class.std::__1::unique_ptr"** %44, align 8
  %113 = getelementptr inbounds %"class.std::__1::unique_ptr", %"class.std::__1::unique_ptr"* %112, i32 0, i32 0, !dbg !6977
  store %"class.std::__1::__compressed_pair"* %113, %"class.std::__1::__compressed_pair"** %43, align 8
  %114 = load %"class.std::__1::__compressed_pair"*, %"class.std::__1::__compressed_pair"** %43, align 8
  %115 = bitcast %"class.std::__1::__compressed_pair"* %114 to %"struct.std::__1::__compressed_pair_elem.0"*, !dbg !6978
  store %"struct.std::__1::__compressed_pair_elem.0"* %115, %"struct.std::__1::__compressed_pair_elem.0"** %42, align 8
  %116 = load %"struct.std::__1::__compressed_pair_elem.0"*, %"struct.std::__1::__compressed_pair_elem.0"** %42, align 8
  %117 = bitcast %"struct.std::__1::__compressed_pair_elem.0"* %116 to %"struct.std::__1::default_delete"*, !dbg !6979
  store %"struct.std::__1::default_delete"* %117, %"struct.std::__1::default_delete"** %45, align 8
  %118 = load %"struct.std::__1::default_delete"*, %"struct.std::__1::default_delete"** %45, align 8, !dbg !6980
  store %"class.std::__1::__compressed_pair"* %96, %"class.std::__1::__compressed_pair"** %57, align 8
  store %"struct.altered_carbon::js::ACLexPosition"** %68, %"struct.altered_carbon::js::ACLexPosition"*** %58, align 8
  store %"struct.std::__1::default_delete"* %118, %"struct.std::__1::default_delete"** %59, align 8
  %119 = load %"class.std::__1::__compressed_pair"*, %"class.std::__1::__compressed_pair"** %57, align 8
  %120 = load %"struct.altered_carbon::js::ACLexPosition"**, %"struct.altered_carbon::js::ACLexPosition"*** %58, align 8, !dbg !6981
  %121 = load %"struct.std::__1::default_delete"*, %"struct.std::__1::default_delete"** %59, align 8, !dbg !6981
  store %"class.std::__1::__compressed_pair"* %119, %"class.std::__1::__compressed_pair"** %54, align 8
  store %"struct.altered_carbon::js::ACLexPosition"** %120, %"struct.altered_carbon::js::ACLexPosition"*** %55, align 8
  store %"struct.std::__1::default_delete"* %121, %"struct.std::__1::default_delete"** %56, align 8
  %122 = load %"class.std::__1::__compressed_pair"*, %"class.std::__1::__compressed_pair"** %54, align 8
  %123 = bitcast %"class.std::__1::__compressed_pair"* %122 to %"struct.std::__1::__compressed_pair_elem"*, !dbg !6982
  %124 = load %"struct.altered_carbon::js::ACLexPosition"**, %"struct.altered_carbon::js::ACLexPosition"*** %55, align 8, !dbg !6983
  store %"struct.altered_carbon::js::ACLexPosition"** %124, %"struct.altered_carbon::js::ACLexPosition"*** %53, align 8
  %125 = load %"struct.altered_carbon::js::ACLexPosition"**, %"struct.altered_carbon::js::ACLexPosition"*** %53, align 8, !dbg !6984
  store %"struct.std::__1::__compressed_pair_elem"* %123, %"struct.std::__1::__compressed_pair_elem"** %47, align 8
  store %"struct.altered_carbon::js::ACLexPosition"** %125, %"struct.altered_carbon::js::ACLexPosition"*** %48, align 8
  %126 = load %"struct.std::__1::__compressed_pair_elem"*, %"struct.std::__1::__compressed_pair_elem"** %47, align 8
  %127 = getelementptr inbounds %"struct.std::__1::__compressed_pair_elem", %"struct.std::__1::__compressed_pair_elem"* %126, i32 0, i32 0, !dbg !6985
  %128 = load %"struct.altered_carbon::js::ACLexPosition"**, %"struct.altered_carbon::js::ACLexPosition"*** %48, align 8, !dbg !6986
  store %"struct.altered_carbon::js::ACLexPosition"** %128, %"struct.altered_carbon::js::ACLexPosition"*** %46, align 8
  %129 = load %"struct.altered_carbon::js::ACLexPosition"**, %"struct.altered_carbon::js::ACLexPosition"*** %46, align 8, !dbg !6987
  %130 = load %"struct.altered_carbon::js::ACLexPosition"*, %"struct.altered_carbon::js::ACLexPosition"** %129, align 8, !dbg !6988
  store %"struct.altered_carbon::js::ACLexPosition"* %130, %"struct.altered_carbon::js::ACLexPosition"** %127, align 8, !dbg !6985
  %131 = bitcast %"class.std::__1::__compressed_pair"* %122 to %"struct.std::__1::__compressed_pair_elem.0"*, !dbg !6982
  %132 = load %"struct.std::__1::default_delete"*, %"struct.std::__1::default_delete"** %56, align 8, !dbg !6989
  store %"struct.std::__1::default_delete"* %132, %"struct.std::__1::default_delete"** %49, align 8
  %133 = load %"struct.std::__1::default_delete"*, %"struct.std::__1::default_delete"** %49, align 8, !dbg !6990
  store %"struct.std::__1::__compressed_pair_elem.0"* %131, %"struct.std::__1::__compressed_pair_elem.0"** %51, align 8
  store %"struct.std::__1::default_delete"* %133, %"struct.std::__1::default_delete"** %52, align 8
  %134 = load %"struct.std::__1::__compressed_pair_elem.0"*, %"struct.std::__1::__compressed_pair_elem.0"** %51, align 8
  %135 = bitcast %"struct.std::__1::__compressed_pair_elem.0"* %134 to %"struct.std::__1::default_delete"*, !dbg !6991
  %136 = load %"struct.std::__1::default_delete"*, %"struct.std::__1::default_delete"** %52, align 8, !dbg !6992
  store %"struct.std::__1::default_delete"* %136, %"struct.std::__1::default_delete"** %50, align 8
  %137 = load %"struct.std::__1::default_delete"*, %"struct.std::__1::default_delete"** %50, align 8, !dbg !6993
  store %"class.std::__1::vector"* %2, %"class.std::__1::vector"** %41, align 8
  %138 = load %"class.std::__1::vector"*, %"class.std::__1::vector"** %41, align 8, !dbg !6994
  store %"class.std::__1::vector"* %89, %"class.std::__1::vector"** %39, align 8
  store %"class.std::__1::vector"* %138, %"class.std::__1::vector"** %40, align 8
  %139 = load %"class.std::__1::vector"*, %"class.std::__1::vector"** %39, align 8
  %140 = load %"class.std::__1::vector"*, %"class.std::__1::vector"** %40, align 8, !dbg !6995
  store %"class.std::__1::vector"* %139, %"class.std::__1::vector"** %37, align 8
  store %"class.std::__1::vector"* %140, %"class.std::__1::vector"** %38, align 8
  %141 = load %"class.std::__1::vector"*, %"class.std::__1::vector"** %37, align 8
  %142 = bitcast %"class.std::__1::vector"* %141 to %"class.std::__1::__vector_base"*, !dbg !6996
  %143 = load %"class.std::__1::vector"*, %"class.std::__1::vector"** %38, align 8, !dbg !6997
  %144 = bitcast %"class.std::__1::vector"* %143 to %"class.std::__1::__vector_base"*, !dbg !6997
  store %"class.std::__1::__vector_base"* %144, %"class.std::__1::__vector_base"** %36, align 8
  %145 = load %"class.std::__1::__vector_base"*, %"class.std::__1::__vector_base"** %36, align 8
  %146 = getelementptr inbounds %"class.std::__1::__vector_base", %"class.std::__1::__vector_base"* %145, i32 0, i32 2, !dbg !6998
  store %"class.std::__1::__compressed_pair.7"* %146, %"class.std::__1::__compressed_pair.7"** %35, align 8
  %147 = load %"class.std::__1::__compressed_pair.7"*, %"class.std::__1::__compressed_pair.7"** %35, align 8
  %148 = bitcast %"class.std::__1::__compressed_pair.7"* %147 to %"struct.std::__1::__compressed_pair_elem.9"*, !dbg !6999
  store %"struct.std::__1::__compressed_pair_elem.9"* %148, %"struct.std::__1::__compressed_pair_elem.9"** %34, align 8
  %149 = load %"struct.std::__1::__compressed_pair_elem.9"*, %"struct.std::__1::__compressed_pair_elem.9"** %34, align 8
  %150 = bitcast %"struct.std::__1::__compressed_pair_elem.9"* %149 to %"class.std::__1::allocator"*, !dbg !7000
  store %"class.std::__1::allocator"* %150, %"class.std::__1::allocator"** %6, align 8
  %151 = load %"class.std::__1::allocator"*, %"class.std::__1::allocator"** %6, align 8, !dbg !7001
  store %"class.std::__1::__vector_base"* %142, %"class.std::__1::__vector_base"** %22, align 8
  store %"class.std::__1::allocator"* %151, %"class.std::__1::allocator"** %23, align 8
  %152 = load %"class.std::__1::__vector_base"*, %"class.std::__1::__vector_base"** %22, align 8
  %153 = bitcast %"class.std::__1::__vector_base"* %152 to %"class.std::__1::__vector_base_common"*, !dbg !7002
  store %"class.std::__1::__vector_base_common"* %153, %"class.std::__1::__vector_base_common"** %21, align 8
  %154 = load %"class.std::__1::__vector_base_common"*, %"class.std::__1::__vector_base_common"** %21, align 8
  %155 = getelementptr inbounds %"class.std::__1::__vector_base", %"class.std::__1::__vector_base"* %152, i32 0, i32 0, !dbg !7003
  store %"class.std::__1::unique_ptr.1"* null, %"class.std::__1::unique_ptr.1"** %155, align 8, !dbg !7003
  %156 = getelementptr inbounds %"class.std::__1::__vector_base", %"class.std::__1::__vector_base"* %152, i32 0, i32 1, !dbg !7004
  store %"class.std::__1::unique_ptr.1"* null, %"class.std::__1::unique_ptr.1"** %156, align 8, !dbg !7004
  %157 = getelementptr inbounds %"class.std::__1::__vector_base", %"class.std::__1::__vector_base"* %152, i32 0, i32 2, !dbg !7005
  store i8* null, i8** %24, align 8, !dbg !7006
  %158 = load %"class.std::__1::allocator"*, %"class.std::__1::allocator"** %23, align 8, !dbg !7007
  store %"class.std::__1::__compressed_pair.7"* %157, %"class.std::__1::__compressed_pair.7"** %18, align 8
  store i8** %24, i8*** %19, align 8
  store %"class.std::__1::allocator"* %158, %"class.std::__1::allocator"** %20, align 8
  %159 = load %"class.std::__1::__compressed_pair.7"*, %"class.std::__1::__compressed_pair.7"** %18, align 8
  %160 = load i8**, i8*** %19, align 8, !dbg !7008
  %161 = load %"class.std::__1::allocator"*, %"class.std::__1::allocator"** %20, align 8, !dbg !7008
  store %"class.std::__1::__compressed_pair.7"* %159, %"class.std::__1::__compressed_pair.7"** %15, align 8
  store i8** %160, i8*** %16, align 8
  store %"class.std::__1::allocator"* %161, %"class.std::__1::allocator"** %17, align 8
  %162 = load %"class.std::__1::__compressed_pair.7"*, %"class.std::__1::__compressed_pair.7"** %15, align 8
  %163 = bitcast %"class.std::__1::__compressed_pair.7"* %162 to %"struct.std::__1::__compressed_pair_elem.8"*, !dbg !7009
  %164 = load i8**, i8*** %16, align 8, !dbg !7010
  store i8** %164, i8*** %14, align 8
  %165 = load i8**, i8*** %14, align 8, !dbg !7011
  store %"struct.std::__1::__compressed_pair_elem.8"* %163, %"struct.std::__1::__compressed_pair_elem.8"** %8, align 8
  store i8** %165, i8*** %9, align 8
  %166 = load %"struct.std::__1::__compressed_pair_elem.8"*, %"struct.std::__1::__compressed_pair_elem.8"** %8, align 8
  %167 = getelementptr inbounds %"struct.std::__1::__compressed_pair_elem.8", %"struct.std::__1::__compressed_pair_elem.8"* %166, i32 0, i32 0, !dbg !7012
  %168 = load i8**, i8*** %9, align 8, !dbg !7013
  store i8** %168, i8*** %7, align 8
  %169 = load i8**, i8*** %7, align 8, !dbg !7014
  %170 = load i8*, i8** %169, align 8, !dbg !7015
  store %"class.std::__1::unique_ptr.1"* null, %"class.std::__1::unique_ptr.1"** %167, align 8, !dbg !7012
  %171 = bitcast %"class.std::__1::__compressed_pair.7"* %162 to %"struct.std::__1::__compressed_pair_elem.9"*, !dbg !7009
  %172 = load %"class.std::__1::allocator"*, %"class.std::__1::allocator"** %17, align 8, !dbg !7016
  store %"class.std::__1::allocator"* %172, %"class.std::__1::allocator"** %10, align 8
  %173 = load %"class.std::__1::allocator"*, %"class.std::__1::allocator"** %10, align 8, !dbg !7017
  store %"struct.std::__1::__compressed_pair_elem.9"* %171, %"struct.std::__1::__compressed_pair_elem.9"** %12, align 8
  store %"class.std::__1::allocator"* %173, %"class.std::__1::allocator"** %13, align 8
  %174 = load %"struct.std::__1::__compressed_pair_elem.9"*, %"struct.std::__1::__compressed_pair_elem.9"** %12, align 8
  %175 = bitcast %"struct.std::__1::__compressed_pair_elem.9"* %174 to %"class.std::__1::allocator"*, !dbg !7018
  %176 = load %"class.std::__1::allocator"*, %"class.std::__1::allocator"** %13, align 8, !dbg !7019
  store %"class.std::__1::allocator"* %176, %"class.std::__1::allocator"** %11, align 8
  %177 = load %"class.std::__1::allocator"*, %"class.std::__1::allocator"** %11, align 8, !dbg !7020
  %178 = load %"class.std::__1::vector"*, %"class.std::__1::vector"** %38, align 8, !dbg !7021
  %179 = bitcast %"class.std::__1::vector"* %178 to %"class.std::__1::__vector_base"*, !dbg !7021
  %180 = getelementptr inbounds %"class.std::__1::__vector_base", %"class.std::__1::__vector_base"* %179, i32 0, i32 0, !dbg !7022
  %181 = load %"class.std::__1::unique_ptr.1"*, %"class.std::__1::unique_ptr.1"** %180, align 8, !dbg !7022
  %182 = bitcast %"class.std::__1::vector"* %141 to %"class.std::__1::__vector_base"*, !dbg !7023
  %183 = getelementptr inbounds %"class.std::__1::__vector_base", %"class.std::__1::__vector_base"* %182, i32 0, i32 0, !dbg !7023
  store %"class.std::__1::unique_ptr.1"* %181, %"class.std::__1::unique_ptr.1"** %183, align 8, !dbg !7024
  %184 = load %"class.std::__1::vector"*, %"class.std::__1::vector"** %38, align 8, !dbg !7025
  %185 = bitcast %"class.std::__1::vector"* %184 to %"class.std::__1::__vector_base"*, !dbg !7025
  %186 = getelementptr inbounds %"class.std::__1::__vector_base", %"class.std::__1::__vector_base"* %185, i32 0, i32 1, !dbg !7026
  %187 = load %"class.std::__1::unique_ptr.1"*, %"class.std::__1::unique_ptr.1"** %186, align 8, !dbg !7026
  %188 = bitcast %"class.std::__1::vector"* %141 to %"class.std::__1::__vector_base"*, !dbg !7027
  %189 = getelementptr inbounds %"class.std::__1::__vector_base", %"class.std::__1::__vector_base"* %188, i32 0, i32 1, !dbg !7027
  store %"class.std::__1::unique_ptr.1"* %187, %"class.std::__1::unique_ptr.1"** %189, align 8, !dbg !7028
  %190 = load %"class.std::__1::vector"*, %"class.std::__1::vector"** %38, align 8, !dbg !7029
  %191 = bitcast %"class.std::__1::vector"* %190 to %"class.std::__1::__vector_base"*, !dbg !7029
  store %"class.std::__1::__vector_base"* %191, %"class.std::__1::__vector_base"** %27, align 8
  %192 = load %"class.std::__1::__vector_base"*, %"class.std::__1::__vector_base"** %27, align 8
  %193 = getelementptr inbounds %"class.std::__1::__vector_base", %"class.std::__1::__vector_base"* %192, i32 0, i32 2, !dbg !7030
  store %"class.std::__1::__compressed_pair.7"* %193, %"class.std::__1::__compressed_pair.7"** %26, align 8
  %194 = load %"class.std::__1::__compressed_pair.7"*, %"class.std::__1::__compressed_pair.7"** %26, align 8
  %195 = bitcast %"class.std::__1::__compressed_pair.7"* %194 to %"struct.std::__1::__compressed_pair_elem.8"*, !dbg !7031
