; ModuleID = 'temp.bc'
source_filename = "../ac_ast_error_nodes.cc"
target datalayout = "e-m:o-i64:64-f80:128-n8:16:32:64-S128"
target triple = "x86_64-apple-macosx10.13.0"

%"class.std::__1::locale::id" = type <{ %"struct.std::__1::once_flag", i32, [4 x i8] }>
%"struct.std::__1::once_flag" = type { i64 }
%"class.altered_carbon::js::ACAstBaseError" = type { %"class.altered_carbon::js::ACAstBaseNode", i32, %"class.std::__1::unique_ptr.1" }
%"class.altered_carbon::js::ACAstBaseNode" = type { i32 (...)**, %"class.std::__1::unique_ptr", i32, i32, %"class.std::__1::vector" }
%"class.std::__1::unique_ptr" = type { %"class.std::__1::__compressed_pair" }
%"class.std::__1::__compressed_pair" = type { %"struct.std::__1::__compressed_pair_elem" }
%"struct.std::__1::__compressed_pair_elem" = type { %"struct.altered_carbon::js::ACLexPosition"* }
%"struct.altered_carbon::js::ACLexPosition" = type { i32 (...)**, i64, i32, i64 }
%"class.std::__1::vector" = type { %"class.std::__1::__vector_base" }
%"class.std::__1::__vector_base" = type { %"class.std::__1::unique_ptr.1"*, %"class.std::__1::unique_ptr.1"*, %"class.std::__1::__compressed_pair.7" }
%"class.std::__1::__compressed_pair.7" = type { %"struct.std::__1::__compressed_pair_elem.8" }
%"struct.std::__1::__compressed_pair_elem.8" = type { %"class.std::__1::unique_ptr.1"* }
%"class.std::__1::unique_ptr.1" = type { %"class.std::__1::__compressed_pair.2" }
%"class.std::__1::__compressed_pair.2" = type { %"struct.std::__1::__compressed_pair_elem.3" }
%"struct.std::__1::__compressed_pair_elem.3" = type { %"class.altered_carbon::js::ACAstBaseNode"* }
%"struct.std::__1::__compressed_pair_elem.0" = type { i8 }
%"struct.std::__1::default_delete" = type { i8 }
%"struct.std::__1::__compressed_pair_elem.4" = type { i8 }
%"struct.std::__1::default_delete.5" = type { i8 }
%"class.std::__1::basic_ostream" = type { i32 (...)**, %"class.std::__1::basic_ios.base" }
%"class.std::__1::basic_ios.base" = type <{ %"class.std::__1::ios_base", %"class.std::__1::basic_ostream"*, i32 }>
%"class.std::__1::ios_base" = type { i32 (...)**, i32, i64, i64, i32, i32, i8*, i8*, void (i32, %"class.std::__1::ios_base"*, i32)**, i32*, i64, i64, i64*, i64, i64, i8**, i64, i64 }
%"class.altered_carbon::js::ACAstTokenError" = type { %"class.altered_carbon::js::ACAstBaseError" }
%"class.altered_carbon::js::ACAstSyntaxError" = type { %"class.altered_carbon::js::ACAstBaseError" }
%"class.altered_carbon::js::ACAstVisitable" = type { i32 (...)** }
%"class.std::__1::basic_string" = type { %"class.std::__1::__compressed_pair.10" }
%"class.std::__1::__compressed_pair.10" = type { %"struct.std::__1::__compressed_pair_elem.11" }
%"struct.std::__1::__compressed_pair_elem.11" = type { %"struct.std::__1::basic_string<wchar_t, std::__1::char_traits<wchar_t>, std::__1::allocator<wchar_t> >::__rep" }
%"struct.std::__1::basic_string<wchar_t, std::__1::char_traits<wchar_t>, std::__1::allocator<wchar_t> >::__rep" = type { %union.anon }
%union.anon = type { %"struct.std::__1::basic_string<wchar_t, std::__1::char_traits<wchar_t>, std::__1::allocator<wchar_t> >::__long" }
%"struct.std::__1::basic_string<wchar_t, std::__1::char_traits<wchar_t>, std::__1::allocator<wchar_t> >::__long" = type { i64, i64, i32* }
%"class.std::__1::allocator.14" = type { i8 }
%"struct.std::__1::__compressed_pair_elem.13" = type { i8 }
%"class.std::__1::__basic_string_common" = type { i8 }
%"class.std::__1::allocator" = type { i8 }
%"struct.std::__1::__compressed_pair_elem.9" = type { i8 }
%"struct.std::__1::__has_destroy" = type { i8 }
%"struct.std::__1::integral_constant" = type { i8 }
%"class.std::__1::ctype" = type <{ %"class.std::__1::locale::facet", i32*, i8, [7 x i8] }>
%"class.std::__1::locale::facet" = type { %"class.std::__1::__shared_count" }
%"class.std::__1::__shared_count" = type { i32 (...)**, i64 }
%"class.std::__1::locale" = type { %"class.std::__1::locale::__imp"* }
%"class.std::__1::locale::__imp" = type opaque
%"class.std::__1::basic_ios" = type <{ %"class.std::__1::ios_base", %"class.std::__1::basic_ostream"*, i32, [4 x i8] }>
%"class.std::__1::ostreambuf_iterator" = type { %"class.std::__1::basic_streambuf"* }
%"class.std::__1::basic_streambuf" = type { i32 (...)**, %"class.std::__1::locale", i8*, i8*, i8*, i8*, i8*, i8* }
%"class.std::__1::basic_ostream<char, std::__1::char_traits<char> >::sentry" = type { i8, %"class.std::__1::basic_ostream"* }
%"struct.std::__1::iterator" = type { i8 }
%"struct.std::__1::__compressed_pair_elem.18" = type { %"struct.std::__1::basic_string<char, std::__1::char_traits<char>, std::__1::allocator<char> >::__rep" }
%"struct.std::__1::basic_string<char, std::__1::char_traits<char>, std::__1::allocator<char> >::__rep" = type { %union.anon.19 }
%union.anon.19 = type { %"struct.std::__1::basic_string<char, std::__1::char_traits<char>, std::__1::allocator<char> >::__long" }
%"struct.std::__1::basic_string<char, std::__1::char_traits<char>, std::__1::allocator<char> >::__long" = type { i64, i64, i8* }
%"class.std::__1::__compressed_pair.17" = type { %"struct.std::__1::__compressed_pair_elem.18" }
%"class.std::__1::basic_string.16" = type { %"class.std::__1::__compressed_pair.17" }
%"class.std::__1::allocator.22" = type { i8 }
%"struct.std::__1::__compressed_pair_elem.21" = type { i8 }
%"struct.std::__1::basic_string<char, std::__1::char_traits<char>, std::__1::allocator<char> >::__short" = type { %union.anon.20, [23 x i8] }
%union.anon.20 = type { i8 }

@_ZTVN14altered_carbon2js14ACAstBaseErrorE = unnamed_addr constant { [14 x i8*] } { [14 x i8*] [i8* null, i8* bitcast ({ i8*, i8*, i8* }* @_ZTIN14altered_carbon2js14ACAstBaseErrorE to i8*), i8* bitcast (void (%"class.altered_carbon::js::ACAstBaseError"*)* @_ZN14altered_carbon2js14ACAstBaseErrorD1Ev to i8*), i8* bitcast (void (%"class.altered_carbon::js::ACAstBaseError"*)* @_ZN14altered_carbon2js14ACAstBaseErrorD0Ev to i8*), i8* bitcast (i8* (%"class.altered_carbon::js::ACAstBaseNode"*, %"class.altered_carbon::js::ACAstVisitable"*)* @_ZNK14altered_carbon2js13ACAstBaseNode6acceptEPNS0_14ACAstVisitableE to i8*), i8* bitcast (void (%"class.std::__1::basic_string"*, %"class.altered_carbon::js::ACAstBaseNode"*)* @_ZNK14altered_carbon2js13ACAstBaseNode10identifierEv to i8*), i8* bitcast (i32 (%"class.altered_carbon::js::ACAstBaseNode"*)* @_ZNK14altered_carbon2js13ACAstBaseNode10precedenceEv to i8*), i8* bitcast (i32 (%"class.altered_carbon::js::ACAstBaseNode"*)* @_ZNK14altered_carbon2js13ACAstBaseNode2opEv to i8*), i8* bitcast (i1 (%"class.altered_carbon::js::ACAstBaseNode"*)* @_ZN14altered_carbon2js13ACAstBaseNode14convertToParamEv to i8*), i8* bitcast (i1 (%"class.altered_carbon::js::ACAstBaseNode"*)* @_ZN14altered_carbon2js13ACAstBaseNode15convertToFormalEv to i8*), i8* bitcast (void (%"class.altered_carbon::js::ACAstBaseError"*, %"class.std::__1::basic_ostream"*)* @_ZNK14altered_carbon2js14ACAstBaseError4dumpERNSt3__113basic_ostreamIcNS2_11char_traitsIcEEEE to i8*), i8* bitcast (void (%"class.altered_carbon::js::ACAstBaseNode"*, %"class.std::__1::basic_ostream"*)* @_ZNK14altered_carbon2js13ACAstBaseNode14dumpGraphLabelERNSt3__113basic_ostreamIcNS2_11char_traitsIcEEEE to i8*), i8* bitcast (void (%"class.altered_carbon::js::ACAstBaseNode"*, %"class.std::__1::basic_ostream"*)* @_ZNK14altered_carbon2js13ACAstBaseNode9dumpGraphERNSt3__113basic_ostreamIcNS2_11char_traitsIcEEEE to i8*), i8* bitcast (void (%"class.altered_carbon::js::ACAstBaseNode"*, %"class.std::__1::basic_ostream"*)* @_ZNK14altered_carbon2js13ACAstBaseNode14dumpChildNodesERNSt3__113basic_ostreamIcNS2_11char_traitsIcEEEE to i8*)] }, align 8
@_ZTVN14altered_carbon2js15ACAstTokenErrorE = unnamed_addr constant { [14 x i8*] } { [14 x i8*] [i8* null, i8* bitcast ({ i8*, i8*, i8* }* @_ZTIN14altered_carbon2js15ACAstTokenErrorE to i8*), i8* bitcast (void (%"class.altered_carbon::js::ACAstTokenError"*)* @_ZN14altered_carbon2js15ACAstTokenErrorD1Ev to i8*), i8* bitcast (void (%"class.altered_carbon::js::ACAstTokenError"*)* @_ZN14altered_carbon2js15ACAstTokenErrorD0Ev to i8*), i8* bitcast (i8* (%"class.altered_carbon::js::ACAstBaseNode"*, %"class.altered_carbon::js::ACAstVisitable"*)* @_ZNK14altered_carbon2js13ACAstBaseNode6acceptEPNS0_14ACAstVisitableE to i8*), i8* bitcast (void (%"class.std::__1::basic_string"*, %"class.altered_carbon::js::ACAstBaseNode"*)* @_ZNK14altered_carbon2js13ACAstBaseNode10identifierEv to i8*), i8* bitcast (i32 (%"class.altered_carbon::js::ACAstBaseNode"*)* @_ZNK14altered_carbon2js13ACAstBaseNode10precedenceEv to i8*), i8* bitcast (i32 (%"class.altered_carbon::js::ACAstBaseNode"*)* @_ZNK14altered_carbon2js13ACAstBaseNode2opEv to i8*), i8* bitcast (i1 (%"class.altered_carbon::js::ACAstBaseNode"*)* @_ZN14altered_carbon2js13ACAstBaseNode14convertToParamEv to i8*), i8* bitcast (i1 (%"class.altered_carbon::js::ACAstBaseNode"*)* @_ZN14altered_carbon2js13ACAstBaseNode15convertToFormalEv to i8*), i8* bitcast (void (%"class.altered_carbon::js::ACAstTokenError"*, %"class.std::__1::basic_ostream"*)* @_ZNK14altered_carbon2js15ACAstTokenError4dumpERNSt3__113basic_ostreamIcNS2_11char_traitsIcEEEE to i8*), i8* bitcast (void (%"class.altered_carbon::js::ACAstBaseNode"*, %"class.std::__1::basic_ostream"*)* @_ZNK14altered_carbon2js13ACAstBaseNode14dumpGraphLabelERNSt3__113basic_ostreamIcNS2_11char_traitsIcEEEE to i8*), i8* bitcast (void (%"class.altered_carbon::js::ACAstBaseNode"*, %"class.std::__1::basic_ostream"*)* @_ZNK14altered_carbon2js13ACAstBaseNode9dumpGraphERNSt3__113basic_ostreamIcNS2_11char_traitsIcEEEE to i8*), i8* bitcast (void (%"class.altered_carbon::js::ACAstBaseNode"*, %"class.std::__1::basic_ostream"*)* @_ZNK14altered_carbon2js13ACAstBaseNode14dumpChildNodesERNSt3__113basic_ostreamIcNS2_11char_traitsIcEEEE to i8*)] }, align 8
@.str = private unnamed_addr constant [22 x i8] c" Invalid token type: \00", align 1
@.str.1 = private unnamed_addr constant [3 x i8] c".\0A\00", align 1
@_ZTVN14altered_carbon2js16ACAstSyntaxErrorE = unnamed_addr constant { [14 x i8*] } { [14 x i8*] [i8* null, i8* bitcast ({ i8*, i8*, i8* }* @_ZTIN14altered_carbon2js16ACAstSyntaxErrorE to i8*), i8* bitcast (void (%"class.altered_carbon::js::ACAstSyntaxError"*)* @_ZN14altered_carbon2js16ACAstSyntaxErrorD1Ev to i8*), i8* bitcast (void (%"class.altered_carbon::js::ACAstSyntaxError"*)* @_ZN14altered_carbon2js16ACAstSyntaxErrorD0Ev to i8*), i8* bitcast (i8* (%"class.altered_carbon::js::ACAstBaseNode"*, %"class.altered_carbon::js::ACAstVisitable"*)* @_ZNK14altered_carbon2js13ACAstBaseNode6acceptEPNS0_14ACAstVisitableE to i8*), i8* bitcast (void (%"class.std::__1::basic_string"*, %"class.altered_carbon::js::ACAstBaseNode"*)* @_ZNK14altered_carbon2js13ACAstBaseNode10identifierEv to i8*), i8* bitcast (i32 (%"class.altered_carbon::js::ACAstBaseNode"*)* @_ZNK14altered_carbon2js13ACAstBaseNode10precedenceEv to i8*), i8* bitcast (i32 (%"class.altered_carbon::js::ACAstBaseNode"*)* @_ZNK14altered_carbon2js13ACAstBaseNode2opEv to i8*), i8* bitcast (i1 (%"class.altered_carbon::js::ACAstBaseNode"*)* @_ZN14altered_carbon2js13ACAstBaseNode14convertToParamEv to i8*), i8* bitcast (i1 (%"class.altered_carbon::js::ACAstBaseNode"*)* @_ZN14altered_carbon2js13ACAstBaseNode15convertToFormalEv to i8*), i8* bitcast (void (%"class.altered_carbon::js::ACAstSyntaxError"*, %"class.std::__1::basic_ostream"*)* @_ZNK14altered_carbon2js16ACAstSyntaxError4dumpERNSt3__113basic_ostreamIcNS2_11char_traitsIcEEEE to i8*), i8* bitcast (void (%"class.altered_carbon::js::ACAstBaseNode"*, %"class.std::__1::basic_ostream"*)* @_ZNK14altered_carbon2js13ACAstBaseNode14dumpGraphLabelERNSt3__113basic_ostreamIcNS2_11char_traitsIcEEEE to i8*), i8* bitcast (void (%"class.altered_carbon::js::ACAstBaseNode"*, %"class.std::__1::basic_ostream"*)* @_ZNK14altered_carbon2js13ACAstBaseNode9dumpGraphERNSt3__113basic_ostreamIcNS2_11char_traitsIcEEEE to i8*), i8* bitcast (void (%"class.altered_carbon::js::ACAstBaseNode"*, %"class.std::__1::basic_ostream"*)* @_ZNK14altered_carbon2js13ACAstBaseNode14dumpChildNodesERNSt3__113basic_ostreamIcNS2_11char_traitsIcEEEE to i8*)] }, align 8
@.str.2 = private unnamed_addr constant [23 x i8] c" Syntax error due to: \00", align 1
@.str.3 = private unnamed_addr constant [7 x i8] c"(null)\00", align 1
@_ZTVN10__cxxabiv120__si_class_type_infoE = external global i8*
@_ZTSN14altered_carbon2js14ACAstBaseErrorE = constant [38 x i8] c"N14altered_carbon2js14ACAstBaseErrorE\00"
@_ZTIN14altered_carbon2js13ACAstBaseNodeE = external constant i8*
@_ZTIN14altered_carbon2js14ACAstBaseErrorE = constant { i8*, i8*, i8* } { i8* bitcast (i8** getelementptr inbounds (i8*, i8** @_ZTVN10__cxxabiv120__si_class_type_infoE, i64 2) to i8*), i8* getelementptr inbounds ([38 x i8], [38 x i8]* @_ZTSN14altered_carbon2js14ACAstBaseErrorE, i32 0, i32 0), i8* bitcast (i8** @_ZTIN14altered_carbon2js13ACAstBaseNodeE to i8*) }
@_ZTSN14altered_carbon2js15ACAstTokenErrorE = constant [39 x i8] c"N14altered_carbon2js15ACAstTokenErrorE\00"
@_ZTIN14altered_carbon2js15ACAstTokenErrorE = constant { i8*, i8*, i8* } { i8* bitcast (i8** getelementptr inbounds (i8*, i8** @_ZTVN10__cxxabiv120__si_class_type_infoE, i64 2) to i8*), i8* getelementptr inbounds ([39 x i8], [39 x i8]* @_ZTSN14altered_carbon2js15ACAstTokenErrorE, i32 0, i32 0), i8* bitcast ({ i8*, i8*, i8* }* @_ZTIN14altered_carbon2js14ACAstBaseErrorE to i8*) }
@_ZTSN14altered_carbon2js16ACAstSyntaxErrorE = constant [40 x i8] c"N14altered_carbon2js16ACAstSyntaxErrorE\00"
@_ZTIN14altered_carbon2js16ACAstSyntaxErrorE = constant { i8*, i8*, i8* } { i8* bitcast (i8** getelementptr inbounds (i8*, i8** @_ZTVN10__cxxabiv120__si_class_type_infoE, i64 2) to i8*), i8* getelementptr inbounds ([40 x i8], [40 x i8]* @_ZTSN14altered_carbon2js16ACAstSyntaxErrorE, i32 0, i32 0), i8* bitcast ({ i8*, i8*, i8* }* @_ZTIN14altered_carbon2js14ACAstBaseErrorE to i8*) }
@_ZTVN14altered_carbon2js13ACAstBaseNodeE = external unnamed_addr constant { [14 x i8*] }
@.str.4 = private unnamed_addr constant [7 x i32] [i32 40, i32 110, i32 117, i32 108, i32 108, i32 41, i32 0], align 4
@_ZNSt3__15ctypeIcE2idE = external global %"class.std::__1::locale::id", align 8

; Function Attrs: noinline nounwind optnone ssp uwtable
define void @_ZN14altered_carbon2js14ACAstBaseErrorC2ENSt3__110unique_ptrINS0_13ACLexPositionENS2_14default_deleteIS4_EEEENS0_13ACAstBaseNode14AstNodeSubTypeENS0_14ACLexTokenTypeE(%"class.altered_carbon::js::ACAstBaseError"*, %"class.std::__1::unique_ptr"*, i32, i32) unnamed_addr #0 align 2 !dbg !4537 {
  %5 = alloca %"struct.std::__1::__compressed_pair_elem.0"*, align 8
  call void @llvm.dbg.declare(metadata %"struct.std::__1::__compressed_pair_elem.0"** %5, metadata !4557, metadata !DIExpression()), !dbg !4560
  %6 = alloca %"class.std::__1::__compressed_pair"*, align 8
  call void @llvm.dbg.declare(metadata %"class.std::__1::__compressed_pair"** %6, metadata !4570, metadata !DIExpression()), !dbg !4572
  %7 = alloca %"class.std::__1::unique_ptr"*, align 8
  call void @llvm.dbg.declare(metadata %"class.std::__1::unique_ptr"** %7, metadata !4573, metadata !DIExpression()), !dbg !4575
  %8 = alloca %"struct.std::__1::default_delete"*, align 8
  call void @llvm.dbg.declare(metadata %"struct.std::__1::default_delete"** %8, metadata !4576, metadata !DIExpression()), !dbg !4585
  %9 = alloca %"struct.altered_carbon::js::ACLexPosition"**, align 8
  call void @llvm.dbg.declare(metadata %"struct.altered_carbon::js::ACLexPosition"*** %9, metadata !4587, metadata !DIExpression()), !dbg !4596
  %10 = alloca %"struct.std::__1::__compressed_pair_elem"*, align 8
  call void @llvm.dbg.declare(metadata %"struct.std::__1::__compressed_pair_elem"** %10, metadata !4616, metadata !DIExpression()), !dbg !4618
  %11 = alloca %"struct.altered_carbon::js::ACLexPosition"**, align 8
  call void @llvm.dbg.declare(metadata %"struct.altered_carbon::js::ACLexPosition"*** %11, metadata !4619, metadata !DIExpression()), !dbg !4620
  %12 = alloca %"struct.std::__1::default_delete"*, align 8
  call void @llvm.dbg.declare(metadata %"struct.std::__1::default_delete"** %12, metadata !4576, metadata !DIExpression()), !dbg !4621
  %13 = alloca %"struct.std::__1::default_delete"*, align 8
  call void @llvm.dbg.declare(metadata %"struct.std::__1::default_delete"** %13, metadata !4576, metadata !DIExpression()), !dbg !4623
  %14 = alloca %"struct.std::__1::__compressed_pair_elem.0"*, align 8
  call void @llvm.dbg.declare(metadata %"struct.std::__1::__compressed_pair_elem.0"** %14, metadata !4632, metadata !DIExpression()), !dbg !4633
  %15 = alloca %"struct.std::__1::default_delete"*, align 8
  call void @llvm.dbg.declare(metadata %"struct.std::__1::default_delete"** %15, metadata !4634, metadata !DIExpression()), !dbg !4635
  %16 = alloca %"struct.altered_carbon::js::ACLexPosition"**, align 8
  call void @llvm.dbg.declare(metadata %"struct.altered_carbon::js::ACLexPosition"*** %16, metadata !4587, metadata !DIExpression()), !dbg !4636
  %17 = alloca %"class.std::__1::__compressed_pair"*, align 8
  call void @llvm.dbg.declare(metadata %"class.std::__1::__compressed_pair"** %17, metadata !4638, metadata !DIExpression()), !dbg !4639
  %18 = alloca %"struct.altered_carbon::js::ACLexPosition"**, align 8
  call void @llvm.dbg.declare(metadata %"struct.altered_carbon::js::ACLexPosition"*** %18, metadata !4640, metadata !DIExpression()), !dbg !4641
  %19 = alloca %"struct.std::__1::default_delete"*, align 8
  call void @llvm.dbg.declare(metadata %"struct.std::__1::default_delete"** %19, metadata !4642, metadata !DIExpression()), !dbg !4643
  %20 = alloca %"class.std::__1::__compressed_pair"*, align 8
  call void @llvm.dbg.declare(metadata %"class.std::__1::__compressed_pair"** %20, metadata !4644, metadata !DIExpression()), !dbg !4645
  %21 = alloca %"struct.altered_carbon::js::ACLexPosition"**, align 8
  call void @llvm.dbg.declare(metadata %"struct.altered_carbon::js::ACLexPosition"*** %21, metadata !4646, metadata !DIExpression()), !dbg !4647
  %22 = alloca %"struct.std::__1::default_delete"*, align 8
  call void @llvm.dbg.declare(metadata %"struct.std::__1::default_delete"** %22, metadata !4648, metadata !DIExpression()), !dbg !4649
  %23 = alloca %"struct.std::__1::__compressed_pair_elem"*, align 8
  call void @llvm.dbg.declare(metadata %"struct.std::__1::__compressed_pair_elem"** %23, metadata !4650, metadata !DIExpression()), !dbg !4652
  %24 = alloca %"class.std::__1::__compressed_pair"*, align 8
  call void @llvm.dbg.declare(metadata %"class.std::__1::__compressed_pair"** %24, metadata !4658, metadata !DIExpression()), !dbg !4659
  %25 = alloca %"struct.std::__1::__compressed_pair_elem"*, align 8
  call void @llvm.dbg.declare(metadata %"struct.std::__1::__compressed_pair_elem"** %25, metadata !4650, metadata !DIExpression()), !dbg !4660
  %26 = alloca %"class.std::__1::__compressed_pair"*, align 8
  call void @llvm.dbg.declare(metadata %"class.std::__1::__compressed_pair"** %26, metadata !4658, metadata !DIExpression()), !dbg !4663
  %27 = alloca %"class.std::__1::unique_ptr"*, align 8
  call void @llvm.dbg.declare(metadata %"class.std::__1::unique_ptr"** %27, metadata !4664, metadata !DIExpression()), !dbg !4665
  %28 = alloca %"struct.altered_carbon::js::ACLexPosition"*, align 8
  call void @llvm.dbg.declare(metadata %"struct.altered_carbon::js::ACLexPosition"** %28, metadata !4666, metadata !DIExpression()), !dbg !4667
  %29 = alloca %"class.std::__1::unique_ptr"*, align 8
  call void @llvm.dbg.declare(metadata %"class.std::__1::unique_ptr"** %29, metadata !4668, metadata !DIExpression()), !dbg !4669
  %30 = alloca %"class.std::__1::unique_ptr"*, align 8
  call void @llvm.dbg.declare(metadata %"class.std::__1::unique_ptr"** %30, metadata !4670, metadata !DIExpression()), !dbg !4671
  %31 = alloca %"struct.altered_carbon::js::ACLexPosition"*, align 8
  %32 = alloca %"class.std::__1::unique_ptr"*, align 8
  call void @llvm.dbg.declare(metadata %"class.std::__1::unique_ptr"** %32, metadata !4672, metadata !DIExpression()), !dbg !4673
  %33 = alloca %"class.std::__1::unique_ptr"*, align 8
  call void @llvm.dbg.declare(metadata %"class.std::__1::unique_ptr"** %33, metadata !4674, metadata !DIExpression()), !dbg !4675
  %34 = alloca %"struct.std::__1::__compressed_pair_elem.0"*, align 8
  call void @llvm.dbg.declare(metadata %"struct.std::__1::__compressed_pair_elem.0"** %34, metadata !4557, metadata !DIExpression()), !dbg !4676
  %35 = alloca %"class.std::__1::__compressed_pair"*, align 8
  call void @llvm.dbg.declare(metadata %"class.std::__1::__compressed_pair"** %35, metadata !4570, metadata !DIExpression()), !dbg !4687
  %36 = alloca %"struct.std::__1::__compressed_pair_elem"*, align 8
  call void @llvm.dbg.declare(metadata %"struct.std::__1::__compressed_pair_elem"** %36, metadata !4650, metadata !DIExpression()), !dbg !4688
  %37 = alloca %"class.std::__1::__compressed_pair"*, align 8
  call void @llvm.dbg.declare(metadata %"class.std::__1::__compressed_pair"** %37, metadata !4658, metadata !DIExpression()), !dbg !4691
  %38 = alloca %"struct.std::__1::default_delete"*, align 8
  call void @llvm.dbg.declare(metadata %"struct.std::__1::default_delete"** %38, metadata !4692, metadata !DIExpression()), !dbg !4695
  %39 = alloca %"struct.altered_carbon::js::ACLexPosition"*, align 8
  call void @llvm.dbg.declare(metadata %"struct.altered_carbon::js::ACLexPosition"** %39, metadata !4697, metadata !DIExpression()), !dbg !4698
  %40 = alloca %"struct.std::__1::__compressed_pair_elem"*, align 8
  call void @llvm.dbg.declare(metadata %"struct.std::__1::__compressed_pair_elem"** %40, metadata !4650, metadata !DIExpression()), !dbg !4699
  %41 = alloca %"class.std::__1::__compressed_pair"*, align 8
  call void @llvm.dbg.declare(metadata %"class.std::__1::__compressed_pair"** %41, metadata !4658, metadata !DIExpression()), !dbg !4702
  %42 = alloca %"class.std::__1::unique_ptr"*, align 8
  call void @llvm.dbg.declare(metadata %"class.std::__1::unique_ptr"** %42, metadata !4703, metadata !DIExpression()), !dbg !4704
  %43 = alloca %"struct.altered_carbon::js::ACLexPosition"*, align 8
  call void @llvm.dbg.declare(metadata %"struct.altered_carbon::js::ACLexPosition"** %43, metadata !4705, metadata !DIExpression()), !dbg !4706
  %44 = alloca %"struct.altered_carbon::js::ACLexPosition"*, align 8
  call void @llvm.dbg.declare(metadata %"struct.altered_carbon::js::ACLexPosition"** %44, metadata !4707, metadata !DIExpression()), !dbg !4708
  %45 = alloca %"class.std::__1::unique_ptr"*, align 8
  call void @llvm.dbg.declare(metadata %"class.std::__1::unique_ptr"** %45, metadata !4709, metadata !DIExpression()), !dbg !4710
  %46 = alloca %"class.std::__1::unique_ptr"*, align 8
  call void @llvm.dbg.declare(metadata %"class.std::__1::unique_ptr"** %46, metadata !4711, metadata !DIExpression()), !dbg !4712
  %47 = alloca %"class.altered_carbon::js::ACAstBaseNode"**, align 8
  call void @llvm.dbg.declare(metadata %"class.altered_carbon::js::ACAstBaseNode"*** %47, metadata !4713, metadata !DIExpression()), !dbg !4722
  %48 = alloca %"struct.std::__1::__compressed_pair_elem.3"*, align 8
  call void @llvm.dbg.declare(metadata %"struct.std::__1::__compressed_pair_elem.3"** %48, metadata !4746, metadata !DIExpression()), !dbg !4748
  %49 = alloca %"class.altered_carbon::js::ACAstBaseNode"**, align 8
  call void @llvm.dbg.declare(metadata %"class.altered_carbon::js::ACAstBaseNode"*** %49, metadata !4749, metadata !DIExpression()), !dbg !4750
  %50 = alloca %"class.altered_carbon::js::ACAstBaseNode"**, align 8
  call void @llvm.dbg.declare(metadata %"class.altered_carbon::js::ACAstBaseNode"*** %50, metadata !4713, metadata !DIExpression()), !dbg !4751
  %51 = alloca %"class.std::__1::__compressed_pair.2"*, align 8
  call void @llvm.dbg.declare(metadata %"class.std::__1::__compressed_pair.2"** %51, metadata !4753, metadata !DIExpression()), !dbg !4755
  %52 = alloca %"class.altered_carbon::js::ACAstBaseNode"**, align 8
  call void @llvm.dbg.declare(metadata %"class.altered_carbon::js::ACAstBaseNode"*** %52, metadata !4756, metadata !DIExpression()), !dbg !4757
  %53 = alloca %"class.std::__1::__compressed_pair.2"*, align 8
  call void @llvm.dbg.declare(metadata %"class.std::__1::__compressed_pair.2"** %53, metadata !4758, metadata !DIExpression()), !dbg !4759
  %54 = alloca %"class.altered_carbon::js::ACAstBaseNode"**, align 8
  call void @llvm.dbg.declare(metadata %"class.altered_carbon::js::ACAstBaseNode"*** %54, metadata !4760, metadata !DIExpression()), !dbg !4761
  %55 = alloca %"class.std::__1::unique_ptr.1"*, align 8
  call void @llvm.dbg.declare(metadata %"class.std::__1::unique_ptr.1"** %55, metadata !4762, metadata !DIExpression()), !dbg !4763
  %56 = alloca %"class.altered_carbon::js::ACAstBaseNode"*, align 8
  %57 = alloca %"class.std::__1::unique_ptr.1"*, align 8
  call void @llvm.dbg.declare(metadata %"class.std::__1::unique_ptr.1"** %57, metadata !4764, metadata !DIExpression()), !dbg !4765
  %58 = alloca %"class.std::__1::unique_ptr"*, align 8
  call void @llvm.dbg.declare(metadata %"class.std::__1::unique_ptr"** %58, metadata !4766, metadata !DIExpression()), !dbg !4775
  %59 = alloca %"class.altered_carbon::js::ACAstBaseError"*, align 8
  %60 = alloca i32, align 4
  %61 = alloca i32, align 4
  %62 = alloca %"class.std::__1::unique_ptr", align 8
  store %"class.altered_carbon::js::ACAstBaseError"* %0, %"class.altered_carbon::js::ACAstBaseError"** %59, align 8
  call void @llvm.dbg.declare(metadata %"class.altered_carbon::js::ACAstBaseError"** %59, metadata !4777, metadata !DIExpression()), !dbg !4779
  call void @llvm.dbg.declare(metadata %"class.std::__1::unique_ptr"* %1, metadata !4780, metadata !DIExpression()), !dbg !4781
  store i32 %2, i32* %60, align 4
  call void @llvm.dbg.declare(metadata i32* %60, metadata !4782, metadata !DIExpression()), !dbg !4783
  store i32 %3, i32* %61, align 4
  call void @llvm.dbg.declare(metadata i32* %61, metadata !4784, metadata !DIExpression()), !dbg !4785
  %63 = load %"class.altered_carbon::js::ACAstBaseError"*, %"class.altered_carbon::js::ACAstBaseError"** %59, align 8
  %64 = bitcast %"class.altered_carbon::js::ACAstBaseError"* %63 to %"class.altered_carbon::js::ACAstBaseNode"*, !dbg !4786
  store %"class.std::__1::unique_ptr"* %1, %"class.std::__1::unique_ptr"** %58, align 8
  %65 = load %"class.std::__1::unique_ptr"*, %"class.std::__1::unique_ptr"** %58, align 8, !dbg !4787
  store %"class.std::__1::unique_ptr"* %62, %"class.std::__1::unique_ptr"** %32, align 8
  store %"class.std::__1::unique_ptr"* %65, %"class.std::__1::unique_ptr"** %33, align 8
  %66 = load %"class.std::__1::unique_ptr"*, %"class.std::__1::unique_ptr"** %32, align 8
  %67 = load %"class.std::__1::unique_ptr"*, %"class.std::__1::unique_ptr"** %33, align 8, !dbg !4788
  store %"class.std::__1::unique_ptr"* %66, %"class.std::__1::unique_ptr"** %29, align 8
  store %"class.std::__1::unique_ptr"* %67, %"class.std::__1::unique_ptr"** %30, align 8
  %68 = load %"class.std::__1::unique_ptr"*, %"class.std::__1::unique_ptr"** %29, align 8
  %69 = getelementptr inbounds %"class.std::__1::unique_ptr", %"class.std::__1::unique_ptr"* %68, i32 0, i32 0, !dbg !4789
  %70 = load %"class.std::__1::unique_ptr"*, %"class.std::__1::unique_ptr"** %30, align 8, !dbg !4790
  store %"class.std::__1::unique_ptr"* %70, %"class.std::__1::unique_ptr"** %27, align 8
  %71 = load %"class.std::__1::unique_ptr"*, %"class.std::__1::unique_ptr"** %27, align 8
  %72 = getelementptr inbounds %"class.std::__1::unique_ptr", %"class.std::__1::unique_ptr"* %71, i32 0, i32 0, !dbg !4791
  store %"class.std::__1::__compressed_pair"* %72, %"class.std::__1::__compressed_pair"** %26, align 8
  %73 = load %"class.std::__1::__compressed_pair"*, %"class.std::__1::__compressed_pair"** %26, align 8
  %74 = bitcast %"class.std::__1::__compressed_pair"* %73 to %"struct.std::__1::__compressed_pair_elem"*, !dbg !4792
  store %"struct.std::__1::__compressed_pair_elem"* %74, %"struct.std::__1::__compressed_pair_elem"** %25, align 8
  %75 = load %"struct.std::__1::__compressed_pair_elem"*, %"struct.std::__1::__compressed_pair_elem"** %25, align 8
  %76 = getelementptr inbounds %"struct.std::__1::__compressed_pair_elem", %"struct.std::__1::__compressed_pair_elem"* %75, i32 0, i32 0, !dbg !4793
  %77 = load %"struct.altered_carbon::js::ACLexPosition"*, %"struct.altered_carbon::js::ACLexPosition"** %76, align 8, !dbg !4794
  store %"struct.altered_carbon::js::ACLexPosition"* %77, %"struct.altered_carbon::js::ACLexPosition"** %28, align 8, !dbg !4667
  %78 = getelementptr inbounds %"class.std::__1::unique_ptr", %"class.std::__1::unique_ptr"* %71, i32 0, i32 0, !dbg !4795
  store %"class.std::__1::__compressed_pair"* %78, %"class.std::__1::__compressed_pair"** %24, align 8
  %79 = load %"class.std::__1::__compressed_pair"*, %"class.std::__1::__compressed_pair"** %24, align 8
  %80 = bitcast %"class.std::__1::__compressed_pair"* %79 to %"struct.std::__1::__compressed_pair_elem"*, !dbg !4796
  store %"struct.std::__1::__compressed_pair_elem"* %80, %"struct.std::__1::__compressed_pair_elem"** %23, align 8
  %81 = load %"struct.std::__1::__compressed_pair_elem"*, %"struct.std::__1::__compressed_pair_elem"** %23, align 8
  %82 = getelementptr inbounds %"struct.std::__1::__compressed_pair_elem", %"struct.std::__1::__compressed_pair_elem"* %81, i32 0, i32 0, !dbg !4797
  store %"struct.altered_carbon::js::ACLexPosition"* null, %"struct.altered_carbon::js::ACLexPosition"** %82, align 8, !dbg !4798
  %83 = load %"struct.altered_carbon::js::ACLexPosition"*, %"struct.altered_carbon::js::ACLexPosition"** %28, align 8, !dbg !4799
  store %"struct.altered_carbon::js::ACLexPosition"* %83, %"struct.altered_carbon::js::ACLexPosition"** %31, align 8, !dbg !4790
  %84 = load %"class.std::__1::unique_ptr"*, %"class.std::__1::unique_ptr"** %30, align 8, !dbg !4800
  store %"class.std::__1::unique_ptr"* %84, %"class.std::__1::unique_ptr"** %7, align 8
  %85 = load %"class.std::__1::unique_ptr"*, %"class.std::__1::unique_ptr"** %7, align 8
  %86 = getelementptr inbounds %"class.std::__1::unique_ptr", %"class.std::__1::unique_ptr"* %85, i32 0, i32 0, !dbg !4801
  store %"class.std::__1::__compressed_pair"* %86, %"class.std::__1::__compressed_pair"** %6, align 8
  %87 = load %"class.std::__1::__compressed_pair"*, %"class.std::__1::__compressed_pair"** %6, align 8
  %88 = bitcast %"class.std::__1::__compressed_pair"* %87 to %"struct.std::__1::__compressed_pair_elem.0"*, !dbg !4802
  store %"struct.std::__1::__compressed_pair_elem.0"* %88, %"struct.std::__1::__compressed_pair_elem.0"** %5, align 8
  %89 = load %"struct.std::__1::__compressed_pair_elem.0"*, %"struct.std::__1::__compressed_pair_elem.0"** %5, align 8
  %90 = bitcast %"struct.std::__1::__compressed_pair_elem.0"* %89 to %"struct.std::__1::default_delete"*, !dbg !4803
  store %"struct.std::__1::default_delete"* %90, %"struct.std::__1::default_delete"** %8, align 8
  %91 = load %"struct.std::__1::default_delete"*, %"struct.std::__1::default_delete"** %8, align 8, !dbg !4804
  store %"class.std::__1::__compressed_pair"* %69, %"class.std::__1::__compressed_pair"** %20, align 8
  store %"struct.altered_carbon::js::ACLexPosition"** %31, %"struct.altered_carbon::js::ACLexPosition"*** %21, align 8
  store %"struct.std::__1::default_delete"* %91, %"struct.std::__1::default_delete"** %22, align 8
  %92 = load %"class.std::__1::__compressed_pair"*, %"class.std::__1::__compressed_pair"** %20, align 8
  %93 = load %"struct.altered_carbon::js::ACLexPosition"**, %"struct.altered_carbon::js::ACLexPosition"*** %21, align 8, !dbg !4805
  %94 = load %"struct.std::__1::default_delete"*, %"struct.std::__1::default_delete"** %22, align 8, !dbg !4805
  store %"class.std::__1::__compressed_pair"* %92, %"class.std::__1::__compressed_pair"** %17, align 8
  store %"struct.altered_carbon::js::ACLexPosition"** %93, %"struct.altered_carbon::js::ACLexPosition"*** %18, align 8
  store %"struct.std::__1::default_delete"* %94, %"struct.std::__1::default_delete"** %19, align 8
  %95 = load %"class.std::__1::__compressed_pair"*, %"class.std::__1::__compressed_pair"** %17, align 8
  %96 = bitcast %"class.std::__1::__compressed_pair"* %95 to %"struct.std::__1::__compressed_pair_elem"*, !dbg !4806
  %97 = load %"struct.altered_carbon::js::ACLexPosition"**, %"struct.altered_carbon::js::ACLexPosition"*** %18, align 8, !dbg !4807
  store %"struct.altered_carbon::js::ACLexPosition"** %97, %"struct.altered_carbon::js::ACLexPosition"*** %16, align 8
  %98 = load %"struct.altered_carbon::js::ACLexPosition"**, %"struct.altered_carbon::js::ACLexPosition"*** %16, align 8, !dbg !4808
  store %"struct.std::__1::__compressed_pair_elem"* %96, %"struct.std::__1::__compressed_pair_elem"** %10, align 8
  store %"struct.altered_carbon::js::ACLexPosition"** %98, %"struct.altered_carbon::js::ACLexPosition"*** %11, align 8
  %99 = load %"struct.std::__1::__compressed_pair_elem"*, %"struct.std::__1::__compressed_pair_elem"** %10, align 8
  %100 = getelementptr inbounds %"struct.std::__1::__compressed_pair_elem", %"struct.std::__1::__compressed_pair_elem"* %99, i32 0, i32 0, !dbg !4809
  %101 = load %"struct.altered_carbon::js::ACLexPosition"**, %"struct.altered_carbon::js::ACLexPosition"*** %11, align 8, !dbg !4810
  store %"struct.altered_carbon::js::ACLexPosition"** %101, %"struct.altered_carbon::js::ACLexPosition"*** %9, align 8
  %102 = load %"struct.altered_carbon::js::ACLexPosition"**, %"struct.altered_carbon::js::ACLexPosition"*** %9, align 8, !dbg !4811
  %103 = load %"struct.altered_carbon::js::ACLexPosition"*, %"struct.altered_carbon::js::ACLexPosition"** %102, align 8, !dbg !4812
  store %"struct.altered_carbon::js::ACLexPosition"* %103, %"struct.altered_carbon::js::ACLexPosition"** %100, align 8, !dbg !4809
  %104 = bitcast %"class.std::__1::__compressed_pair"* %95 to %"struct.std::__1::__compressed_pair_elem.0"*, !dbg !4806
  %105 = load %"struct.std::__1::default_delete"*, %"struct.std::__1::default_delete"** %19, align 8, !dbg !4813
  store %"struct.std::__1::default_delete"* %105, %"struct.std::__1::default_delete"** %12, align 8
  %106 = load %"struct.std::__1::default_delete"*, %"struct.std::__1::default_delete"** %12, align 8, !dbg !4814
  store %"struct.std::__1::__compressed_pair_elem.0"* %104, %"struct.std::__1::__compressed_pair_elem.0"** %14, align 8
  store %"struct.std::__1::default_delete"* %106, %"struct.std::__1::default_delete"** %15, align 8
  %107 = load %"struct.std::__1::__compressed_pair_elem.0"*, %"struct.std::__1::__compressed_pair_elem.0"** %14, align 8
  %108 = bitcast %"struct.std::__1::__compressed_pair_elem.0"* %107 to %"struct.std::__1::default_delete"*, !dbg !4815
  %109 = load %"struct.std::__1::default_delete"*, %"struct.std::__1::default_delete"** %15, align 8, !dbg !4816
  store %"struct.std::__1::default_delete"* %109, %"struct.std::__1::default_delete"** %13, align 8
  %110 = load %"struct.std::__1::default_delete"*, %"struct.std::__1::default_delete"** %13, align 8, !dbg !4817
  %111 = load i32, i32* %60, align 4, !dbg !4818
  call void @_ZN14altered_carbon2js13ACAstBaseNodeC2ENSt3__110unique_ptrINS0_13ACLexPositionENS2_14default_deleteIS4_EEEENS1_11AstNodeTypeENS1_14AstNodeSubTypeE(%"class.altered_carbon::js::ACAstBaseNode"* %64, %"class.std::__1::unique_ptr"* %62, i32 1, i32 %111), !dbg !4819
  store %"class.std::__1::unique_ptr"* %62, %"class.std::__1::unique_ptr"** %46, align 8
  %112 = load %"class.std::__1::unique_ptr"*, %"class.std::__1::unique_ptr"** %46, align 8
  store %"class.std::__1::unique_ptr"* %112, %"class.std::__1::unique_ptr"** %45, align 8
  %113 = load %"class.std::__1::unique_ptr"*, %"class.std::__1::unique_ptr"** %45, align 8
  store %"class.std::__1::unique_ptr"* %113, %"class.std::__1::unique_ptr"** %42, align 8
  store %"struct.altered_carbon::js::ACLexPosition"* null, %"struct.altered_carbon::js::ACLexPosition"** %43, align 8
  %114 = load %"class.std::__1::unique_ptr"*, %"class.std::__1::unique_ptr"** %42, align 8
  %115 = getelementptr inbounds %"class.std::__1::unique_ptr", %"class.std::__1::unique_ptr"* %114, i32 0, i32 0, !dbg !4820
  store %"class.std::__1::__compressed_pair"* %115, %"class.std::__1::__compressed_pair"** %41, align 8
  %116 = load %"class.std::__1::__compressed_pair"*, %"class.std::__1::__compressed_pair"** %41, align 8
  %117 = bitcast %"class.std::__1::__compressed_pair"* %116 to %"struct.std::__1::__compressed_pair_elem"*, !dbg !4821
  store %"struct.std::__1::__compressed_pair_elem"* %117, %"struct.std::__1::__compressed_pair_elem"** %40, align 8
  %118 = load %"struct.std::__1::__compressed_pair_elem"*, %"struct.std::__1::__compressed_pair_elem"** %40, align 8
  %119 = getelementptr inbounds %"struct.std::__1::__compressed_pair_elem", %"struct.std::__1::__compressed_pair_elem"* %118, i32 0, i32 0, !dbg !4822
  %120 = load %"struct.altered_carbon::js::ACLexPosition"*, %"struct.altered_carbon::js::ACLexPosition"** %119, align 8, !dbg !4823
  store %"struct.altered_carbon::js::ACLexPosition"* %120, %"struct.altered_carbon::js::ACLexPosition"** %44, align 8, !dbg !4708
  %121 = load %"struct.altered_carbon::js::ACLexPosition"*, %"struct.altered_carbon::js::ACLexPosition"** %43, align 8, !dbg !4824
  %122 = getelementptr inbounds %"class.std::__1::unique_ptr", %"class.std::__1::unique_ptr"* %114, i32 0, i32 0, !dbg !4825
  store %"class.std::__1::__compressed_pair"* %122, %"class.std::__1::__compressed_pair"** %37, align 8
  %123 = load %"class.std::__1::__compressed_pair"*, %"class.std::__1::__compressed_pair"** %37, align 8
  %124 = bitcast %"class.std::__1::__compressed_pair"* %123 to %"struct.std::__1::__compressed_pair_elem"*, !dbg !4826
  store %"struct.std::__1::__compressed_pair_elem"* %124, %"struct.std::__1::__compressed_pair_elem"** %36, align 8
  %125 = load %"struct.std::__1::__compressed_pair_elem"*, %"struct.std::__1::__compressed_pair_elem"** %36, align 8
  %126 = getelementptr inbounds %"struct.std::__1::__compressed_pair_elem", %"struct.std::__1::__compressed_pair_elem"* %125, i32 0, i32 0, !dbg !4827
  store %"struct.altered_carbon::js::ACLexPosition"* %121, %"struct.altered_carbon::js::ACLexPosition"** %126, align 8, !dbg !4828
  %127 = load %"struct.altered_carbon::js::ACLexPosition"*, %"struct.altered_carbon::js::ACLexPosition"** %44, align 8, !dbg !4829
  %128 = icmp ne %"struct.altered_carbon::js::ACLexPosition"* %127, null, !dbg !4829
  br i1 %128, label %129, label %145, !dbg !4830

; <label>:129:                                    ; preds = %4
  %130 = getelementptr inbounds %"class.std::__1::unique_ptr", %"class.std::__1::unique_ptr"* %114, i32 0, i32 0, !dbg !4831
  store %"class.std::__1::__compressed_pair"* %130, %"class.std::__1::__compressed_pair"** %35, align 8
  %131 = load %"class.std::__1::__compressed_pair"*, %"class.std::__1::__compressed_pair"** %35, align 8
  %132 = bitcast %"class.std::__1::__compressed_pair"* %131 to %"struct.std::__1::__compressed_pair_elem.0"*, !dbg !4832
  store %"struct.std::__1::__compressed_pair_elem.0"* %132, %"struct.std::__1::__compressed_pair_elem.0"** %34, align 8
  %133 = load %"struct.std::__1::__compressed_pair_elem.0"*, %"struct.std::__1::__compressed_pair_elem.0"** %34, align 8
  %134 = bitcast %"struct.std::__1::__compressed_pair_elem.0"* %133 to %"struct.std::__1::default_delete"*, !dbg !4833
  %135 = load %"struct.altered_carbon::js::ACLexPosition"*, %"struct.altered_carbon::js::ACLexPosition"** %44, align 8, !dbg !4834
  store %"struct.std::__1::default_delete"* %134, %"struct.std::__1::default_delete"** %38, align 8
  store %"struct.altered_carbon::js::ACLexPosition"* %135, %"struct.altered_carbon::js::ACLexPosition"** %39, align 8
  %136 = load %"struct.std::__1::default_delete"*, %"struct.std::__1::default_delete"** %38, align 8
  %137 = load %"struct.altered_carbon::js::ACLexPosition"*, %"struct.altered_carbon::js::ACLexPosition"** %39, align 8, !dbg !4835
  %138 = icmp eq %"struct.altered_carbon::js::ACLexPosition"* %137, null, !dbg !4836
  br i1 %138, label %144, label %139, !dbg !4836

; <label>:139:                                    ; preds = %129
  %140 = bitcast %"struct.altered_carbon::js::ACLexPosition"* %137 to void (%"struct.altered_carbon::js::ACLexPosition"*)***, !dbg !4836
  %141 = load void (%"struct.altered_carbon::js::ACLexPosition"*)**, void (%"struct.altered_carbon::js::ACLexPosition"*)*** %140, align 8, !dbg !4836
  %142 = getelementptr inbounds void (%"struct.altered_carbon::js::ACLexPosition"*)*, void (%"struct.altered_carbon::js::ACLexPosition"*)** %141, i64 1, !dbg !4836
  %143 = load void (%"struct.altered_carbon::js::ACLexPosition"*)*, void (%"struct.altered_carbon::js::ACLexPosition"*)** %142, align 8, !dbg !4836
  call void %143(%"struct.altered_carbon::js::ACLexPosition"* %137) #6, !dbg !4836
  br label %144, !dbg !4836

; <label>:144:                                    ; preds = %139, %129
  br label %145, !dbg !4831

; <label>:145:                                    ; preds = %4, %144
  %146 = bitcast %"class.altered_carbon::js::ACAstBaseError"* %63 to i32 (...)***, !dbg !4786
  store i32 (...)** bitcast (i8** getelementptr inbounds ({ [14 x i8*] }, { [14 x i8*] }* @_ZTVN14altered_carbon2js14ACAstBaseErrorE, i32 0, inrange i32 0, i32 2) to i32 (...)**), i32 (...)*** %146, align 8, !dbg !4786
  %147 = getelementptr inbounds %"class.altered_carbon::js::ACAstBaseError", %"class.altered_carbon::js::ACAstBaseError"* %63, i32 0, i32 1, !dbg !4837
  %148 = load i32, i32* %61, align 4, !dbg !4838
  store i32 %148, i32* %147, align 8, !dbg !4837
  %149 = getelementptr inbounds %"class.altered_carbon::js::ACAstBaseError", %"class.altered_carbon::js::ACAstBaseError"* %63, i32 0, i32 2, !dbg !4839
  store %"class.std::__1::unique_ptr.1"* %149, %"class.std::__1::unique_ptr.1"** %57, align 8
  %150 = load %"class.std::__1::unique_ptr.1"*, %"class.std::__1::unique_ptr.1"** %57, align 8
  store %"class.std::__1::unique_ptr.1"* %150, %"class.std::__1::unique_ptr.1"** %55, align 8
  %151 = load %"class.std::__1::unique_ptr.1"*, %"class.std::__1::unique_ptr.1"** %55, align 8
  %152 = getelementptr inbounds %"class.std::__1::unique_ptr.1", %"class.std::__1::unique_ptr.1"* %151, i32 0, i32 0, !dbg !4840
  store %"class.altered_carbon::js::ACAstBaseNode"* null, %"class.altered_carbon::js::ACAstBaseNode"** %56, align 8, !dbg !4841
  store %"class.std::__1::__compressed_pair.2"* %152, %"class.std::__1::__compressed_pair.2"** %53, align 8
  store %"class.altered_carbon::js::ACAstBaseNode"** %56, %"class.altered_carbon::js::ACAstBaseNode"*** %54, align 8
  %153 = load %"class.std::__1::__compressed_pair.2"*, %"class.std::__1::__compressed_pair.2"** %53, align 8
  %154 = load %"class.altered_carbon::js::ACAstBaseNode"**, %"class.altered_carbon::js::ACAstBaseNode"*** %54, align 8, !dbg !4842
  store %"class.std::__1::__compressed_pair.2"* %153, %"class.std::__1::__compressed_pair.2"** %51, align 8
  store %"class.altered_carbon::js::ACAstBaseNode"** %154, %"class.altered_carbon::js::ACAstBaseNode"*** %52, align 8
  %155 = load %"class.std::__1::__compressed_pair.2"*, %"class.std::__1::__compressed_pair.2"** %51, align 8
  %156 = bitcast %"class.std::__1::__compressed_pair.2"* %155 to %"struct.std::__1::__compressed_pair_elem.3"*, !dbg !4843
  %157 = load %"class.altered_carbon::js::ACAstBaseNode"**, %"class.altered_carbon::js::ACAstBaseNode"*** %52, align 8, !dbg !4844
  store %"class.altered_carbon::js::ACAstBaseNode"** %157, %"class.altered_carbon::js::ACAstBaseNode"*** %50, align 8
  %158 = load %"class.altered_carbon::js::ACAstBaseNode"**, %"class.altered_carbon::js::ACAstBaseNode"*** %50, align 8, !dbg !4845
  store %"struct.std::__1::__compressed_pair_elem.3"* %156, %"struct.std::__1::__compressed_pair_elem.3"** %48, align 8
  store %"class.altered_carbon::js::ACAstBaseNode"** %158, %"class.altered_carbon::js::ACAstBaseNode"*** %49, align 8
  %159 = load %"struct.std::__1::__compressed_pair_elem.3"*, %"struct.std::__1::__compressed_pair_elem.3"** %48, align 8
  %160 = getelementptr inbounds %"struct.std::__1::__compressed_pair_elem.3", %"struct.std::__1::__compressed_pair_elem.3"* %159, i32 0, i32 0, !dbg !4846
  %161 = load %"class.altered_carbon::js::ACAstBaseNode"**, %"class.altered_carbon::js::ACAstBaseNode"*** %49, align 8, !dbg !4847
  store %"class.altered_carbon::js::ACAstBaseNode"** %161, %"class.altered_carbon::js::ACAstBaseNode"*** %47, align 8
  %162 = load %"class.altered_carbon::js::ACAstBaseNode"**, %"class.altered_carbon::js::ACAstBaseNode"*** %47, align 8, !dbg !4848
  %163 = load %"class.altered_carbon::js::ACAstBaseNode"*, %"class.altered_carbon::js::ACAstBaseNode"** %162, align 8, !dbg !4849
  store %"class.altered_carbon::js::ACAstBaseNode"* %163, %"class.altered_carbon::js::ACAstBaseNode"** %160, align 8, !dbg !4846
  %164 = bitcast %"class.std::__1::__compressed_pair.2"* %155 to %"struct.std::__1::__compressed_pair_elem.4"*, !dbg !4843
  ret void, !dbg !4850
}

; Function Attrs: nounwind readnone speculatable
declare void @llvm.dbg.declare(metadata, metadata, metadata) #1

declare void @_ZN14altered_carbon2js13ACAstBaseNodeC2ENSt3__110unique_ptrINS0_13ACLexPositionENS2_14default_deleteIS4_EEEENS1_11AstNodeTypeENS1_14AstNodeSubTypeE(%"class.altered_carbon::js::ACAstBaseNode"*, %"class.std::__1::unique_ptr"*, i32, i32) unnamed_addr #2

; Function Attrs: noinline nounwind optnone ssp uwtable
define void @_ZN14altered_carbon2js14ACAstBaseErrorC1ENSt3__110unique_ptrINS0_13ACLexPositionENS2_14default_deleteIS4_EEEENS0_13ACAstBaseNode14AstNodeSubTypeENS0_14ACLexTokenTypeE(%"class.altered_carbon::js::ACAstBaseError"*, %"class.std::__1::unique_ptr"*, i32, i32) unnamed_addr #0 align 2 !dbg !4851 {
  %5 = alloca %"class.altered_carbon::js::ACAstBaseError"*, align 8
  %6 = alloca i32, align 4
  %7 = alloca i32, align 4
  store %"class.altered_carbon::js::ACAstBaseError"* %0, %"class.altered_carbon::js::ACAstBaseError"** %5, align 8
  call void @llvm.dbg.declare(metadata %"class.altered_carbon::js::ACAstBaseError"** %5, metadata !4852, metadata !DIExpression()), !dbg !4853
  call void @llvm.dbg.declare(metadata %"class.std::__1::unique_ptr"* %1, metadata !4854, metadata !DIExpression()), !dbg !4855
  store i32 %2, i32* %6, align 4
  call void @llvm.dbg.declare(metadata i32* %6, metadata !4856, metadata !DIExpression()), !dbg !4857
  store i32 %3, i32* %7, align 4
  call void @llvm.dbg.declare(metadata i32* %7, metadata !4858, metadata !DIExpression()), !dbg !4859
  %8 = load %"class.altered_carbon::js::ACAstBaseError"*, %"class.altered_carbon::js::ACAstBaseError"** %5, align 8
  %9 = load i32, i32* %6, align 4, !dbg !4860
  %10 = load i32, i32* %7, align 4, !dbg !4860
  call void @_ZN14altered_carbon2js14ACAstBaseErrorC2ENSt3__110unique_ptrINS0_13ACLexPositionENS2_14default_deleteIS4_EEEENS0_13ACAstBaseNode14AstNodeSubTypeENS0_14ACLexTokenTypeE(%"class.altered_carbon::js::ACAstBaseError"* %8, %"class.std::__1::unique_ptr"* %1, i32 %9, i32 %10), !dbg !4860
  ret void, !dbg !4861
}

; Function Attrs: noinline nounwind optnone ssp uwtable
define void @_ZN14altered_carbon2js14ACAstBaseErrorC2ENSt3__110unique_ptrINS0_13ACLexPositionENS2_14default_deleteIS4_EEEENS0_13ACAstBaseNode14AstNodeSubTypeENS3_IS8_NS5_IS8_EEEE(%"class.altered_carbon::js::ACAstBaseError"*, %"class.std::__1::unique_ptr"*, i32, %"class.std::__1::unique_ptr.1"*) unnamed_addr #0 align 2 !dbg !4862 {
  %5 = alloca %"struct.std::__1::__compressed_pair_elem.0"*, align 8
  call void @llvm.dbg.declare(metadata %"struct.std::__1::__compressed_pair_elem.0"** %5, metadata !4557, metadata !DIExpression()), !dbg !4863
  %6 = alloca %"class.std::__1::__compressed_pair"*, align 8
  call void @llvm.dbg.declare(metadata %"class.std::__1::__compressed_pair"** %6, metadata !4570, metadata !DIExpression()), !dbg !4869
  %7 = alloca %"class.std::__1::unique_ptr"*, align 8
  call void @llvm.dbg.declare(metadata %"class.std::__1::unique_ptr"** %7, metadata !4573, metadata !DIExpression()), !dbg !4870
  %8 = alloca %"struct.std::__1::default_delete"*, align 8
  call void @llvm.dbg.declare(metadata %"struct.std::__1::default_delete"** %8, metadata !4576, metadata !DIExpression()), !dbg !4871
  %9 = alloca %"struct.altered_carbon::js::ACLexPosition"**, align 8
  call void @llvm.dbg.declare(metadata %"struct.altered_carbon::js::ACLexPosition"*** %9, metadata !4587, metadata !DIExpression()), !dbg !4873
  %10 = alloca %"struct.std::__1::__compressed_pair_elem"*, align 8
  call void @llvm.dbg.declare(metadata %"struct.std::__1::__compressed_pair_elem"** %10, metadata !4616, metadata !DIExpression()), !dbg !4878
  %11 = alloca %"struct.altered_carbon::js::ACLexPosition"**, align 8
  call void @llvm.dbg.declare(metadata %"struct.altered_carbon::js::ACLexPosition"*** %11, metadata !4619, metadata !DIExpression()), !dbg !4879
  %12 = alloca %"struct.std::__1::default_delete"*, align 8
  call void @llvm.dbg.declare(metadata %"struct.std::__1::default_delete"** %12, metadata !4576, metadata !DIExpression()), !dbg !4880
  %13 = alloca %"struct.std::__1::default_delete"*, align 8
  call void @llvm.dbg.declare(metadata %"struct.std::__1::default_delete"** %13, metadata !4576, metadata !DIExpression()), !dbg !4882
  %14 = alloca %"struct.std::__1::__compressed_pair_elem.0"*, align 8
  call void @llvm.dbg.declare(metadata %"struct.std::__1::__compressed_pair_elem.0"** %14, metadata !4632, metadata !DIExpression()), !dbg !4885
  %15 = alloca %"struct.std::__1::default_delete"*, align 8
  call void @llvm.dbg.declare(metadata %"struct.std::__1::default_delete"** %15, metadata !4634, metadata !DIExpression()), !dbg !4886
  %16 = alloca %"struct.altered_carbon::js::ACLexPosition"**, align 8
  call void @llvm.dbg.declare(metadata %"struct.altered_carbon::js::ACLexPosition"*** %16, metadata !4587, metadata !DIExpression()), !dbg !4887
  %17 = alloca %"class.std::__1::__compressed_pair"*, align 8
  call void @llvm.dbg.declare(metadata %"class.std::__1::__compressed_pair"** %17, metadata !4638, metadata !DIExpression()), !dbg !4889
  %18 = alloca %"struct.altered_carbon::js::ACLexPosition"**, align 8
  call void @llvm.dbg.declare(metadata %"struct.altered_carbon::js::ACLexPosition"*** %18, metadata !4640, metadata !DIExpression()), !dbg !4890
  %19 = alloca %"struct.std::__1::default_delete"*, align 8
  call void @llvm.dbg.declare(metadata %"struct.std::__1::default_delete"** %19, metadata !4642, metadata !DIExpression()), !dbg !4891
  %20 = alloca %"class.std::__1::__compressed_pair"*, align 8
  call void @llvm.dbg.declare(metadata %"class.std::__1::__compressed_pair"** %20, metadata !4644, metadata !DIExpression()), !dbg !4892
  %21 = alloca %"struct.altered_carbon::js::ACLexPosition"**, align 8
  call void @llvm.dbg.declare(metadata %"struct.altered_carbon::js::ACLexPosition"*** %21, metadata !4646, metadata !DIExpression()), !dbg !4893
  %22 = alloca %"struct.std::__1::default_delete"*, align 8
  call void @llvm.dbg.declare(metadata %"struct.std::__1::default_delete"** %22, metadata !4648, metadata !DIExpression()), !dbg !4894
  %23 = alloca %"struct.std::__1::__compressed_pair_elem"*, align 8
  call void @llvm.dbg.declare(metadata %"struct.std::__1::__compressed_pair_elem"** %23, metadata !4650, metadata !DIExpression()), !dbg !4895
  %24 = alloca %"class.std::__1::__compressed_pair"*, align 8
  call void @llvm.dbg.declare(metadata %"class.std::__1::__compressed_pair"** %24, metadata !4658, metadata !DIExpression()), !dbg !4899
  %25 = alloca %"struct.std::__1::__compressed_pair_elem"*, align 8
  call void @llvm.dbg.declare(metadata %"struct.std::__1::__compressed_pair_elem"** %25, metadata !4650, metadata !DIExpression()), !dbg !4900
  %26 = alloca %"class.std::__1::__compressed_pair"*, align 8
  call void @llvm.dbg.declare(metadata %"class.std::__1::__compressed_pair"** %26, metadata !4658, metadata !DIExpression()), !dbg !4903
  %27 = alloca %"class.std::__1::unique_ptr"*, align 8
  call void @llvm.dbg.declare(metadata %"class.std::__1::unique_ptr"** %27, metadata !4664, metadata !DIExpression()), !dbg !4904
  %28 = alloca %"struct.altered_carbon::js::ACLexPosition"*, align 8
  call void @llvm.dbg.declare(metadata %"struct.altered_carbon::js::ACLexPosition"** %28, metadata !4666, metadata !DIExpression()), !dbg !4905
  %29 = alloca %"class.std::__1::unique_ptr"*, align 8
  call void @llvm.dbg.declare(metadata %"class.std::__1::unique_ptr"** %29, metadata !4668, metadata !DIExpression()), !dbg !4906
  %30 = alloca %"class.std::__1::unique_ptr"*, align 8
  call void @llvm.dbg.declare(metadata %"class.std::__1::unique_ptr"** %30, metadata !4670, metadata !DIExpression()), !dbg !4907
  %31 = alloca %"struct.altered_carbon::js::ACLexPosition"*, align 8
  %32 = alloca %"class.std::__1::unique_ptr"*, align 8
  call void @llvm.dbg.declare(metadata %"class.std::__1::unique_ptr"** %32, metadata !4672, metadata !DIExpression()), !dbg !4908
  %33 = alloca %"class.std::__1::unique_ptr"*, align 8
  call void @llvm.dbg.declare(metadata %"class.std::__1::unique_ptr"** %33, metadata !4674, metadata !DIExpression()), !dbg !4909
  %34 = alloca %"struct.std::__1::__compressed_pair_elem.0"*, align 8
  call void @llvm.dbg.declare(metadata %"struct.std::__1::__compressed_pair_elem.0"** %34, metadata !4557, metadata !DIExpression()), !dbg !4910
  %35 = alloca %"class.std::__1::__compressed_pair"*, align 8
  call void @llvm.dbg.declare(metadata %"class.std::__1::__compressed_pair"** %35, metadata !4570, metadata !DIExpression()), !dbg !4916
  %36 = alloca %"struct.std::__1::__compressed_pair_elem"*, align 8
  call void @llvm.dbg.declare(metadata %"struct.std::__1::__compressed_pair_elem"** %36, metadata !4650, metadata !DIExpression()), !dbg !4917
  %37 = alloca %"class.std::__1::__compressed_pair"*, align 8
  call void @llvm.dbg.declare(metadata %"class.std::__1::__compressed_pair"** %37, metadata !4658, metadata !DIExpression()), !dbg !4920
  %38 = alloca %"struct.std::__1::default_delete"*, align 8
  call void @llvm.dbg.declare(metadata %"struct.std::__1::default_delete"** %38, metadata !4692, metadata !DIExpression()), !dbg !4921
  %39 = alloca %"struct.altered_carbon::js::ACLexPosition"*, align 8
  call void @llvm.dbg.declare(metadata %"struct.altered_carbon::js::ACLexPosition"** %39, metadata !4697, metadata !DIExpression()), !dbg !4923
  %40 = alloca %"struct.std::__1::__compressed_pair_elem"*, align 8
  call void @llvm.dbg.declare(metadata %"struct.std::__1::__compressed_pair_elem"** %40, metadata !4650, metadata !DIExpression()), !dbg !4924
  %41 = alloca %"class.std::__1::__compressed_pair"*, align 8
  call void @llvm.dbg.declare(metadata %"class.std::__1::__compressed_pair"** %41, metadata !4658, metadata !DIExpression()), !dbg !4927
  %42 = alloca %"class.std::__1::unique_ptr"*, align 8
  call void @llvm.dbg.declare(metadata %"class.std::__1::unique_ptr"** %42, metadata !4703, metadata !DIExpression()), !dbg !4928
  %43 = alloca %"struct.altered_carbon::js::ACLexPosition"*, align 8
  call void @llvm.dbg.declare(metadata %"struct.altered_carbon::js::ACLexPosition"** %43, metadata !4705, metadata !DIExpression()), !dbg !4929
  %44 = alloca %"struct.altered_carbon::js::ACLexPosition"*, align 8
  call void @llvm.dbg.declare(metadata %"struct.altered_carbon::js::ACLexPosition"** %44, metadata !4707, metadata !DIExpression()), !dbg !4930
  %45 = alloca %"class.std::__1::unique_ptr"*, align 8
  call void @llvm.dbg.declare(metadata %"class.std::__1::unique_ptr"** %45, metadata !4709, metadata !DIExpression()), !dbg !4931
  %46 = alloca %"class.std::__1::unique_ptr"*, align 8
  call void @llvm.dbg.declare(metadata %"class.std::__1::unique_ptr"** %46, metadata !4711, metadata !DIExpression()), !dbg !4932
  %47 = alloca %"class.std::__1::unique_ptr.1"*, align 8
  call void @llvm.dbg.declare(metadata %"class.std::__1::unique_ptr.1"** %47, metadata !4933, metadata !DIExpression()), !dbg !4942
  %48 = alloca %"struct.std::__1::__compressed_pair_elem.4"*, align 8
  call void @llvm.dbg.declare(metadata %"struct.std::__1::__compressed_pair_elem.4"** %48, metadata !4944, metadata !DIExpression()), !dbg !4947
  %49 = alloca %"class.std::__1::__compressed_pair.2"*, align 8
  call void @llvm.dbg.declare(metadata %"class.std::__1::__compressed_pair.2"** %49, metadata !4957, metadata !DIExpression()), !dbg !4958
  %50 = alloca %"class.std::__1::unique_ptr.1"*, align 8
  call void @llvm.dbg.declare(metadata %"class.std::__1::unique_ptr.1"** %50, metadata !4959, metadata !DIExpression()), !dbg !4960
  %51 = alloca %"struct.std::__1::default_delete.5"*, align 8
  call void @llvm.dbg.declare(metadata %"struct.std::__1::default_delete.5"** %51, metadata !4961, metadata !DIExpression()), !dbg !4970
  %52 = alloca %"class.altered_carbon::js::ACAstBaseNode"**, align 8
  call void @llvm.dbg.declare(metadata %"class.altered_carbon::js::ACAstBaseNode"*** %52, metadata !4713, metadata !DIExpression()), !dbg !4972
  %53 = alloca %"struct.std::__1::__compressed_pair_elem.3"*, align 8
  call void @llvm.dbg.declare(metadata %"struct.std::__1::__compressed_pair_elem.3"** %53, metadata !4746, metadata !DIExpression()), !dbg !4985
  %54 = alloca %"class.altered_carbon::js::ACAstBaseNode"**, align 8
  call void @llvm.dbg.declare(metadata %"class.altered_carbon::js::ACAstBaseNode"*** %54, metadata !4749, metadata !DIExpression()), !dbg !4986
  %55 = alloca %"struct.std::__1::default_delete.5"*, align 8
  call void @llvm.dbg.declare(metadata %"struct.std::__1::default_delete.5"** %55, metadata !4961, metadata !DIExpression()), !dbg !4987
  %56 = alloca %"struct.std::__1::default_delete.5"*, align 8
  call void @llvm.dbg.declare(metadata %"struct.std::__1::default_delete.5"** %56, metadata !4961, metadata !DIExpression()), !dbg !4989
  %57 = alloca %"struct.std::__1::__compressed_pair_elem.4"*, align 8
  call void @llvm.dbg.declare(metadata %"struct.std::__1::__compressed_pair_elem.4"** %57, metadata !4998, metadata !DIExpression()), !dbg !4999
  %58 = alloca %"struct.std::__1::default_delete.5"*, align 8
  call void @llvm.dbg.declare(metadata %"struct.std::__1::default_delete.5"** %58, metadata !5000, metadata !DIExpression()), !dbg !5001
  %59 = alloca %"class.altered_carbon::js::ACAstBaseNode"**, align 8
  call void @llvm.dbg.declare(metadata %"class.altered_carbon::js::ACAstBaseNode"*** %59, metadata !4713, metadata !DIExpression()), !dbg !5002
  %60 = alloca %"class.std::__1::__compressed_pair.2"*, align 8
  call void @llvm.dbg.declare(metadata %"class.std::__1::__compressed_pair.2"** %60, metadata !5004, metadata !DIExpression()), !dbg !5005
  %61 = alloca %"class.altered_carbon::js::ACAstBaseNode"**, align 8
  call void @llvm.dbg.declare(metadata %"class.altered_carbon::js::ACAstBaseNode"*** %61, metadata !5006, metadata !DIExpression()), !dbg !5007
  %62 = alloca %"struct.std::__1::default_delete.5"*, align 8
  call void @llvm.dbg.declare(metadata %"struct.std::__1::default_delete.5"** %62, metadata !5008, metadata !DIExpression()), !dbg !5009
  %63 = alloca %"class.std::__1::__compressed_pair.2"*, align 8
  call void @llvm.dbg.declare(metadata %"class.std::__1::__compressed_pair.2"** %63, metadata !5010, metadata !DIExpression()), !dbg !5011
  %64 = alloca %"class.altered_carbon::js::ACAstBaseNode"**, align 8
  call void @llvm.dbg.declare(metadata %"class.altered_carbon::js::ACAstBaseNode"*** %64, metadata !5012, metadata !DIExpression()), !dbg !5013
  %65 = alloca %"struct.std::__1::default_delete.5"*, align 8
  call void @llvm.dbg.declare(metadata %"struct.std::__1::default_delete.5"** %65, metadata !5014, metadata !DIExpression()), !dbg !5015
  %66 = alloca %"struct.std::__1::__compressed_pair_elem.3"*, align 8
  call void @llvm.dbg.declare(metadata %"struct.std::__1::__compressed_pair_elem.3"** %66, metadata !5016, metadata !DIExpression()), !dbg !5018
  %67 = alloca %"class.std::__1::__compressed_pair.2"*, align 8
  call void @llvm.dbg.declare(metadata %"class.std::__1::__compressed_pair.2"** %67, metadata !5024, metadata !DIExpression()), !dbg !5025
  %68 = alloca %"struct.std::__1::__compressed_pair_elem.3"*, align 8
  call void @llvm.dbg.declare(metadata %"struct.std::__1::__compressed_pair_elem.3"** %68, metadata !5016, metadata !DIExpression()), !dbg !5026
  %69 = alloca %"class.std::__1::__compressed_pair.2"*, align 8
  call void @llvm.dbg.declare(metadata %"class.std::__1::__compressed_pair.2"** %69, metadata !5024, metadata !DIExpression()), !dbg !5029
  %70 = alloca %"class.std::__1::unique_ptr.1"*, align 8
  call void @llvm.dbg.declare(metadata %"class.std::__1::unique_ptr.1"** %70, metadata !5030, metadata !DIExpression()), !dbg !5031
  %71 = alloca %"class.altered_carbon::js::ACAstBaseNode"*, align 8
  call void @llvm.dbg.declare(metadata %"class.altered_carbon::js::ACAstBaseNode"** %71, metadata !5032, metadata !DIExpression()), !dbg !5033
  %72 = alloca %"class.std::__1::unique_ptr.1"*, align 8
  call void @llvm.dbg.declare(metadata %"class.std::__1::unique_ptr.1"** %72, metadata !5034, metadata !DIExpression()), !dbg !5035
  %73 = alloca %"class.std::__1::unique_ptr.1"*, align 8
  call void @llvm.dbg.declare(metadata %"class.std::__1::unique_ptr.1"** %73, metadata !5036, metadata !DIExpression()), !dbg !5037
  %74 = alloca %"class.altered_carbon::js::ACAstBaseNode"*, align 8
  %75 = alloca %"class.std::__1::unique_ptr.1"*, align 8
  call void @llvm.dbg.declare(metadata %"class.std::__1::unique_ptr.1"** %75, metadata !5038, metadata !DIExpression()), !dbg !5039
  %76 = alloca %"class.std::__1::unique_ptr.1"*, align 8
  call void @llvm.dbg.declare(metadata %"class.std::__1::unique_ptr.1"** %76, metadata !5040, metadata !DIExpression()), !dbg !5041
  %77 = alloca %"class.std::__1::unique_ptr"*, align 8
  call void @llvm.dbg.declare(metadata %"class.std::__1::unique_ptr"** %77, metadata !4766, metadata !DIExpression()), !dbg !5042
  %78 = alloca %"class.altered_carbon::js::ACAstBaseError"*, align 8
  %79 = alloca i32, align 4
  %80 = alloca %"class.std::__1::unique_ptr", align 8
  store %"class.altered_carbon::js::ACAstBaseError"* %0, %"class.altered_carbon::js::ACAstBaseError"** %78, align 8
  call void @llvm.dbg.declare(metadata %"class.altered_carbon::js::ACAstBaseError"** %78, metadata !5044, metadata !DIExpression()), !dbg !5045
  call void @llvm.dbg.declare(metadata %"class.std::__1::unique_ptr"* %1, metadata !5046, metadata !DIExpression()), !dbg !5047
  store i32 %2, i32* %79, align 4
  call void @llvm.dbg.declare(metadata i32* %79, metadata !5048, metadata !DIExpression()), !dbg !5049
  call void @llvm.dbg.declare(metadata %"class.std::__1::unique_ptr.1"* %3, metadata !5050, metadata !DIExpression()), !dbg !5051
  %81 = load %"class.altered_carbon::js::ACAstBaseError"*, %"class.altered_carbon::js::ACAstBaseError"** %78, align 8
  %82 = bitcast %"class.altered_carbon::js::ACAstBaseError"* %81 to %"class.altered_carbon::js::ACAstBaseNode"*, !dbg !5052
  store %"class.std::__1::unique_ptr"* %1, %"class.std::__1::unique_ptr"** %77, align 8
  %83 = load %"class.std::__1::unique_ptr"*, %"class.std::__1::unique_ptr"** %77, align 8, !dbg !5053
  store %"class.std::__1::unique_ptr"* %80, %"class.std::__1::unique_ptr"** %32, align 8
  store %"class.std::__1::unique_ptr"* %83, %"class.std::__1::unique_ptr"** %33, align 8
  %84 = load %"class.std::__1::unique_ptr"*, %"class.std::__1::unique_ptr"** %32, align 8
  %85 = load %"class.std::__1::unique_ptr"*, %"class.std::__1::unique_ptr"** %33, align 8, !dbg !5054
  store %"class.std::__1::unique_ptr"* %84, %"class.std::__1::unique_ptr"** %29, align 8
  store %"class.std::__1::unique_ptr"* %85, %"class.std::__1::unique_ptr"** %30, align 8
  %86 = load %"class.std::__1::unique_ptr"*, %"class.std::__1::unique_ptr"** %29, align 8
  %87 = getelementptr inbounds %"class.std::__1::unique_ptr", %"class.std::__1::unique_ptr"* %86, i32 0, i32 0, !dbg !5055
  %88 = load %"class.std::__1::unique_ptr"*, %"class.std::__1::unique_ptr"** %30, align 8, !dbg !5056
  store %"class.std::__1::unique_ptr"* %88, %"class.std::__1::unique_ptr"** %27, align 8
  %89 = load %"class.std::__1::unique_ptr"*, %"class.std::__1::unique_ptr"** %27, align 8
  %90 = getelementptr inbounds %"class.std::__1::unique_ptr", %"class.std::__1::unique_ptr"* %89, i32 0, i32 0, !dbg !5057
  store %"class.std::__1::__compressed_pair"* %90, %"class.std::__1::__compressed_pair"** %26, align 8
  %91 = load %"class.std::__1::__compressed_pair"*, %"class.std::__1::__compressed_pair"** %26, align 8
  %92 = bitcast %"class.std::__1::__compressed_pair"* %91 to %"struct.std::__1::__compressed_pair_elem"*, !dbg !5058
  store %"struct.std::__1::__compressed_pair_elem"* %92, %"struct.std::__1::__compressed_pair_elem"** %25, align 8
  %93 = load %"struct.std::__1::__compressed_pair_elem"*, %"struct.std::__1::__compressed_pair_elem"** %25, align 8
  %94 = getelementptr inbounds %"struct.std::__1::__compressed_pair_elem", %"struct.std::__1::__compressed_pair_elem"* %93, i32 0, i32 0, !dbg !5059
  %95 = load %"struct.altered_carbon::js::ACLexPosition"*, %"struct.altered_carbon::js::ACLexPosition"** %94, align 8, !dbg !5060
  store %"struct.altered_carbon::js::ACLexPosition"* %95, %"struct.altered_carbon::js::ACLexPosition"** %28, align 8, !dbg !4905
  %96 = getelementptr inbounds %"class.std::__1::unique_ptr", %"class.std::__1::unique_ptr"* %89, i32 0, i32 0, !dbg !5061
  store %"class.std::__1::__compressed_pair"* %96, %"class.std::__1::__compressed_pair"** %24, align 8
  %97 = load %"class.std::__1::__compressed_pair"*, %"class.std::__1::__compressed_pair"** %24, align 8
  %98 = bitcast %"class.std::__1::__compressed_pair"* %97 to %"struct.std::__1::__compressed_pair_elem"*, !dbg !5062
  store %"struct.std::__1::__compressed_pair_elem"* %98, %"struct.std::__1::__compressed_pair_elem"** %23, align 8
  %99 = load %"struct.std::__1::__compressed_pair_elem"*, %"struct.std::__1::__compressed_pair_elem"** %23, align 8
  %100 = getelementptr inbounds %"struct.std::__1::__compressed_pair_elem", %"struct.std::__1::__compressed_pair_elem"* %99, i32 0, i32 0, !dbg !5063
  store %"struct.altered_carbon::js::ACLexPosition"* null, %"struct.altered_carbon::js::ACLexPosition"** %100, align 8, !dbg !5064
  %101 = load %"struct.altered_carbon::js::ACLexPosition"*, %"struct.altered_carbon::js::ACLexPosition"** %28, align 8, !dbg !5065
  store %"struct.altered_carbon::js::ACLexPosition"* %101, %"struct.altered_carbon::js::ACLexPosition"** %31, align 8, !dbg !5056
  %102 = load %"class.std::__1::unique_ptr"*, %"class.std::__1::unique_ptr"** %30, align 8, !dbg !5066
  store %"class.std::__1::unique_ptr"* %102, %"class.std::__1::unique_ptr"** %7, align 8
  %103 = load %"class.std::__1::unique_ptr"*, %"class.std::__1::unique_ptr"** %7, align 8
  %104 = getelementptr inbounds %"class.std::__1::unique_ptr", %"class.std::__1::unique_ptr"* %103, i32 0, i32 0, !dbg !5067
  store %"class.std::__1::__compressed_pair"* %104, %"class.std::__1::__compressed_pair"** %6, align 8
  %105 = load %"class.std::__1::__compressed_pair"*, %"class.std::__1::__compressed_pair"** %6, align 8
  %106 = bitcast %"class.std::__1::__compressed_pair"* %105 to %"struct.std::__1::__compressed_pair_elem.0"*, !dbg !5068
  store %"struct.std::__1::__compressed_pair_elem.0"* %106, %"struct.std::__1::__compressed_pair_elem.0"** %5, align 8
  %107 = load %"struct.std::__1::__compressed_pair_elem.0"*, %"struct.std::__1::__compressed_pair_elem.0"** %5, align 8
  %108 = bitcast %"struct.std::__1::__compressed_pair_elem.0"* %107 to %"struct.std::__1::default_delete"*, !dbg !5069
  store %"struct.std::__1::default_delete"* %108, %"struct.std::__1::default_delete"** %8, align 8
  %109 = load %"struct.std::__1::default_delete"*, %"struct.std::__1::default_delete"** %8, align 8, !dbg !5070
  store %"class.std::__1::__compressed_pair"* %87, %"class.std::__1::__compressed_pair"** %20, align 8
  store %"struct.altered_carbon::js::ACLexPosition"** %31, %"struct.altered_carbon::js::ACLexPosition"*** %21, align 8
  store %"struct.std::__1::default_delete"* %109, %"struct.std::__1::default_delete"** %22, align 8
  %110 = load %"class.std::__1::__compressed_pair"*, %"class.std::__1::__compressed_pair"** %20, align 8
  %111 = load %"struct.altered_carbon::js::ACLexPosition"**, %"struct.altered_carbon::js::ACLexPosition"*** %21, align 8, !dbg !5071
  %112 = load %"struct.std::__1::default_delete"*, %"struct.std::__1::default_delete"** %22, align 8, !dbg !5071
  store %"class.std::__1::__compressed_pair"* %110, %"class.std::__1::__compressed_pair"** %17, align 8
  store %"struct.altered_carbon::js::ACLexPosition"** %111, %"struct.altered_carbon::js::ACLexPosition"*** %18, align 8
  store %"struct.std::__1::default_delete"* %112, %"struct.std::__1::default_delete"** %19, align 8
  %113 = load %"class.std::__1::__compressed_pair"*, %"class.std::__1::__compressed_pair"** %17, align 8
  %114 = bitcast %"class.std::__1::__compressed_pair"* %113 to %"struct.std::__1::__compressed_pair_elem"*, !dbg !5072
  %115 = load %"struct.altered_carbon::js::ACLexPosition"**, %"struct.altered_carbon::js::ACLexPosition"*** %18, align 8, !dbg !5073
  store %"struct.altered_carbon::js::ACLexPosition"** %115, %"struct.altered_carbon::js::ACLexPosition"*** %16, align 8
  %116 = load %"struct.altered_carbon::js::ACLexPosition"**, %"struct.altered_carbon::js::ACLexPosition"*** %16, align 8, !dbg !5074
  store %"struct.std::__1::__compressed_pair_elem"* %114, %"struct.std::__1::__compressed_pair_elem"** %10, align 8
  store %"struct.altered_carbon::js::ACLexPosition"** %116, %"struct.altered_carbon::js::ACLexPosition"*** %11, align 8
  %117 = load %"struct.std::__1::__compressed_pair_elem"*, %"struct.std::__1::__compressed_pair_elem"** %10, align 8
  %118 = getelementptr inbounds %"struct.std::__1::__compressed_pair_elem", %"struct.std::__1::__compressed_pair_elem"* %117, i32 0, i32 0, !dbg !5075
  %119 = load %"struct.altered_carbon::js::ACLexPosition"**, %"struct.altered_carbon::js::ACLexPosition"*** %11, align 8, !dbg !5076
  store %"struct.altered_carbon::js::ACLexPosition"** %119, %"struct.altered_carbon::js::ACLexPosition"*** %9, align 8
  %120 = load %"struct.altered_carbon::js::ACLexPosition"**, %"struct.altered_carbon::js::ACLexPosition"*** %9, align 8, !dbg !5077
  %121 = load %"struct.altered_carbon::js::ACLexPosition"*, %"struct.altered_carbon::js::ACLexPosition"** %120, align 8, !dbg !5078
  store %"struct.altered_carbon::js::ACLexPosition"* %121, %"struct.altered_carbon::js::ACLexPosition"** %118, align 8, !dbg !5075
  %122 = bitcast %"class.std::__1::__compressed_pair"* %113 to %"struct.std::__1::__compressed_pair_elem.0"*, !dbg !5072
  %123 = load %"struct.std::__1::default_delete"*, %"struct.std::__1::default_delete"** %19, align 8, !dbg !5079
  store %"struct.std::__1::default_delete"* %123, %"struct.std::__1::default_delete"** %12, align 8
  %124 = load %"struct.std::__1::default_delete"*, %"struct.std::__1::default_delete"** %12, align 8, !dbg !5080
  store %"struct.std::__1::__compressed_pair_elem.0"* %122, %"struct.std::__1::__compressed_pair_elem.0"** %14, align 8
  store %"struct.std::__1::default_delete"* %124, %"struct.std::__1::default_delete"** %15, align 8
  %125 = load %"struct.std::__1::__compressed_pair_elem.0"*, %"struct.std::__1::__compressed_pair_elem.0"** %14, align 8
  %126 = bitcast %"struct.std::__1::__compressed_pair_elem.0"* %125 to %"struct.std::__1::default_delete"*, !dbg !5081
  %127 = load %"struct.std::__1::default_delete"*, %"struct.std::__1::default_delete"** %15, align 8, !dbg !5082
  store %"struct.std::__1::default_delete"* %127, %"struct.std::__1::default_delete"** %13, align 8
  %128 = load %"struct.std::__1::default_delete"*, %"struct.std::__1::default_delete"** %13, align 8, !dbg !5083
  %129 = load i32, i32* %79, align 4, !dbg !5084
  call void @_ZN14altered_carbon2js13ACAstBaseNodeC2ENSt3__110unique_ptrINS0_13ACLexPositionENS2_14default_deleteIS4_EEEENS1_11AstNodeTypeENS1_14AstNodeSubTypeE(%"class.altered_carbon::js::ACAstBaseNode"* %82, %"class.std::__1::unique_ptr"* %80, i32 1, i32 %129), !dbg !5085
  store %"class.std::__1::unique_ptr"* %80, %"class.std::__1::unique_ptr"** %46, align 8
  %130 = load %"class.std::__1::unique_ptr"*, %"class.std::__1::unique_ptr"** %46, align 8
  store %"class.std::__1::unique_ptr"* %130, %"class.std::__1::unique_ptr"** %45, align 8
  %131 = load %"class.std::__1::unique_ptr"*, %"class.std::__1::unique_ptr"** %45, align 8
  store %"class.std::__1::unique_ptr"* %131, %"class.std::__1::unique_ptr"** %42, align 8
  store %"struct.altered_carbon::js::ACLexPosition"* null, %"struct.altered_carbon::js::ACLexPosition"** %43, align 8
  %132 = load %"class.std::__1::unique_ptr"*, %"class.std::__1::unique_ptr"** %42, align 8
  %133 = getelementptr inbounds %"class.std::__1::unique_ptr", %"class.std::__1::unique_ptr"* %132, i32 0, i32 0, !dbg !5086
  store %"class.std::__1::__compressed_pair"* %133, %"class.std::__1::__compressed_pair"** %41, align 8
  %134 = load %"class.std::__1::__compressed_pair"*, %"class.std::__1::__compressed_pair"** %41, align 8
  %135 = bitcast %"class.std::__1::__compressed_pair"* %134 to %"struct.std::__1::__compressed_pair_elem"*, !dbg !5087
  store %"struct.std::__1::__compressed_pair_elem"* %135, %"struct.std::__1::__compressed_pair_elem"** %40, align 8
  %136 = load %"struct.std::__1::__compressed_pair_elem"*, %"struct.std::__1::__compressed_pair_elem"** %40, align 8
  %137 = getelementptr inbounds %"struct.std::__1::__compressed_pair_elem", %"struct.std::__1::__compressed_pair_elem"* %136, i32 0, i32 0, !dbg !5088
  %138 = load %"struct.altered_carbon::js::ACLexPosition"*, %"struct.altered_carbon::js::ACLexPosition"** %137, align 8, !dbg !5089
  store %"struct.altered_carbon::js::ACLexPosition"* %138, %"struct.altered_carbon::js::ACLexPosition"** %44, align 8, !dbg !4930
  %139 = load %"struct.altered_carbon::js::ACLexPosition"*, %"struct.altered_carbon::js::ACLexPosition"** %43, align 8, !dbg !5090
  %140 = getelementptr inbounds %"class.std::__1::unique_ptr", %"class.std::__1::unique_ptr"* %132, i32 0, i32 0, !dbg !5091
  store %"class.std::__1::__compressed_pair"* %140, %"class.std::__1::__compressed_pair"** %37, align 8
  %141 = load %"class.std::__1::__compressed_pair"*, %"class.std::__1::__compressed_pair"** %37, align 8
  %142 = bitcast %"class.std::__1::__compressed_pair"* %141 to %"struct.std::__1::__compressed_pair_elem"*, !dbg !5092
  store %"struct.std::__1::__compressed_pair_elem"* %142, %"struct.std::__1::__compressed_pair_elem"** %36, align 8
  %143 = load %"struct.std::__1::__compressed_pair_elem"*, %"struct.std::__1::__compressed_pair_elem"** %36, align 8
  %144 = getelementptr inbounds %"struct.std::__1::__compressed_pair_elem", %"struct.std::__1::__compressed_pair_elem"* %143, i32 0, i32 0, !dbg !5093
  store %"struct.altered_carbon::js::ACLexPosition"* %139, %"struct.altered_carbon::js::ACLexPosition"** %144, align 8, !dbg !5094
  %145 = load %"struct.altered_carbon::js::ACLexPosition"*, %"struct.altered_carbon::js::ACLexPosition"** %44, align 8, !dbg !5095
  %146 = icmp ne %"struct.altered_carbon::js::ACLexPosition"* %145, null, !dbg !5095
  br i1 %146, label %147, label %163, !dbg !5096

; <label>:147:                                    ; preds = %4
  %148 = getelementptr inbounds %"class.std::__1::unique_ptr", %"class.std::__1::unique_ptr"* %132, i32 0, i32 0, !dbg !5097
  store %"class.std::__1::__compressed_pair"* %148, %"class.std::__1::__compressed_pair"** %35, align 8
  %149 = load %"class.std::__1::__compressed_pair"*, %"class.std::__1::__compressed_pair"** %35, align 8
  %150 = bitcast %"class.std::__1::__compressed_pair"* %149 to %"struct.std::__1::__compressed_pair_elem.0"*, !dbg !5098
  store %"struct.std::__1::__compressed_pair_elem.0"* %150, %"struct.std::__1::__compressed_pair_elem.0"** %34, align 8
  %151 = load %"struct.std::__1::__compressed_pair_elem.0"*, %"struct.std::__1::__compressed_pair_elem.0"** %34, align 8
  %152 = bitcast %"struct.std::__1::__compressed_pair_elem.0"* %151 to %"struct.std::__1::default_delete"*, !dbg !5099
  %153 = load %"struct.altered_carbon::js::ACLexPosition"*, %"struct.altered_carbon::js::ACLexPosition"** %44, align 8, !dbg !5100
  store %"struct.std::__1::default_delete"* %152, %"struct.std::__1::default_delete"** %38, align 8
  store %"struct.altered_carbon::js::ACLexPosition"* %153, %"struct.altered_carbon::js::ACLexPosition"** %39, align 8
  %154 = load %"struct.std::__1::default_delete"*, %"struct.std::__1::default_delete"** %38, align 8
  %155 = load %"struct.altered_carbon::js::ACLexPosition"*, %"struct.altered_carbon::js::ACLexPosition"** %39, align 8, !dbg !5101
  %156 = icmp eq %"struct.altered_carbon::js::ACLexPosition"* %155, null, !dbg !5102
  br i1 %156, label %162, label %157, !dbg !5102

; <label>:157:                                    ; preds = %147
  %158 = bitcast %"struct.altered_carbon::js::ACLexPosition"* %155 to void (%"struct.altered_carbon::js::ACLexPosition"*)***, !dbg !5102
  %159 = load void (%"struct.altered_carbon::js::ACLexPosition"*)**, void (%"struct.altered_carbon::js::ACLexPosition"*)*** %158, align 8, !dbg !5102
  %160 = getelementptr inbounds void (%"struct.altered_carbon::js::ACLexPosition"*)*, void (%"struct.altered_carbon::js::ACLexPosition"*)** %159, i64 1, !dbg !5102
  %161 = load void (%"struct.altered_carbon::js::ACLexPosition"*)*, void (%"struct.altered_carbon::js::ACLexPosition"*)** %160, align 8, !dbg !5102
  call void %161(%"struct.altered_carbon::js::ACLexPosition"* %155) #6, !dbg !5102
  br label %162, !dbg !5102

; <label>:162:                                    ; preds = %157, %147
  br label %163, !dbg !5097

; <label>:163:                                    ; preds = %4, %162
  %164 = bitcast %"class.altered_carbon::js::ACAstBaseError"* %81 to i32 (...)***, !dbg !5052
  store i32 (...)** bitcast (i8** getelementptr inbounds ({ [14 x i8*] }, { [14 x i8*] }* @_ZTVN14altered_carbon2js14ACAstBaseErrorE, i32 0, inrange i32 0, i32 2) to i32 (...)**), i32 (...)*** %164, align 8, !dbg !5052
  %165 = getelementptr inbounds %"class.altered_carbon::js::ACAstBaseError", %"class.altered_carbon::js::ACAstBaseError"* %81, i32 0, i32 2, !dbg !5103
  store %"class.std::__1::unique_ptr.1"* %3, %"class.std::__1::unique_ptr.1"** %47, align 8
  %166 = load %"class.std::__1::unique_ptr.1"*, %"class.std::__1::unique_ptr.1"** %47, align 8, !dbg !5104
  store %"class.std::__1::unique_ptr.1"* %165, %"class.std::__1::unique_ptr.1"** %75, align 8
  store %"class.std::__1::unique_ptr.1"* %166, %"class.std::__1::unique_ptr.1"** %76, align 8
  %167 = load %"class.std::__1::unique_ptr.1"*, %"class.std::__1::unique_ptr.1"** %75, align 8
  %168 = load %"class.std::__1::unique_ptr.1"*, %"class.std::__1::unique_ptr.1"** %76, align 8, !dbg !5105
  store %"class.std::__1::unique_ptr.1"* %167, %"class.std::__1::unique_ptr.1"** %72, align 8
  store %"class.std::__1::unique_ptr.1"* %168, %"class.std::__1::unique_ptr.1"** %73, align 8
  %169 = load %"class.std::__1::unique_ptr.1"*, %"class.std::__1::unique_ptr.1"** %72, align 8
  %170 = getelementptr inbounds %"class.std::__1::unique_ptr.1", %"class.std::__1::unique_ptr.1"* %169, i32 0, i32 0, !dbg !5106
  %171 = load %"class.std::__1::unique_ptr.1"*, %"class.std::__1::unique_ptr.1"** %73, align 8, !dbg !5107
  store %"class.std::__1::unique_ptr.1"* %171, %"class.std::__1::unique_ptr.1"** %70, align 8
  %172 = load %"class.std::__1::unique_ptr.1"*, %"class.std::__1::unique_ptr.1"** %70, align 8
  %173 = getelementptr inbounds %"class.std::__1::unique_ptr.1", %"class.std::__1::unique_ptr.1"* %172, i32 0, i32 0, !dbg !5108
  store %"class.std::__1::__compressed_pair.2"* %173, %"class.std::__1::__compressed_pair.2"** %69, align 8
  %174 = load %"class.std::__1::__compressed_pair.2"*, %"class.std::__1::__compressed_pair.2"** %69, align 8
  %175 = bitcast %"class.std::__1::__compressed_pair.2"* %174 to %"struct.std::__1::__compressed_pair_elem.3"*, !dbg !5109
  store %"struct.std::__1::__compressed_pair_elem.3"* %175, %"struct.std::__1::__compressed_pair_elem.3"** %68, align 8
  %176 = load %"struct.std::__1::__compressed_pair_elem.3"*, %"struct.std::__1::__compressed_pair_elem.3"** %68, align 8
  %177 = getelementptr inbounds %"struct.std::__1::__compressed_pair_elem.3", %"struct.std::__1::__compressed_pair_elem.3"* %176, i32 0, i32 0, !dbg !5110
  %178 = load %"class.altered_carbon::js::ACAstBaseNode"*, %"class.altered_carbon::js::ACAstBaseNode"** %177, align 8, !dbg !5111
  store %"class.altered_carbon::js::ACAstBaseNode"* %178, %"class.altered_carbon::js::ACAstBaseNode"** %71, align 8, !dbg !5033
  %179 = getelementptr inbounds %"class.std::__1::unique_ptr.1", %"class.std::__1::unique_ptr.1"* %172, i32 0, i32 0, !dbg !5112
  store %"class.std::__1::__compressed_pair.2"* %179, %"class.std::__1::__compressed_pair.2"** %67, align 8
  %180 = load %"class.std::__1::__compressed_pair.2"*, %"class.std::__1::__compressed_pair.2"** %67, align 8
  %181 = bitcast %"class.std::__1::__compressed_pair.2"* %180 to %"struct.std::__1::__compressed_pair_elem.3"*, !dbg !5113
  store %"struct.std::__1::__compressed_pair_elem.3"* %181, %"struct.std::__1::__compressed_pair_elem.3"** %66, align 8
  %182 = load %"struct.std::__1::__compressed_pair_elem.3"*, %"struct.std::__1::__compressed_pair_elem.3"** %66, align 8
  %183 = getelementptr inbounds %"struct.std::__1::__compressed_pair_elem.3", %"struct.std::__1::__compressed_pair_elem.3"* %182, i32 0, i32 0, !dbg !5114
  store %"class.altered_carbon::js::ACAstBaseNode"* null, %"class.altered_carbon::js::ACAstBaseNode"** %183, align 8, !dbg !5115
  %184 = load %"class.altered_carbon::js::ACAstBaseNode"*, %"class.altered_carbon::js::ACAstBaseNode"** %71, align 8, !dbg !5116
  store %"class.altered_carbon::js::ACAstBaseNode"* %184, %"class.altered_carbon::js::ACAstBaseNode"** %74, align 8, !dbg !5107
  %185 = load %"class.std::__1::unique_ptr.1"*, %"class.std::__1::unique_ptr.1"** %73, align 8, !dbg !5117
  store %"class.std::__1::unique_ptr.1"* %185, %"class.std::__1::unique_ptr.1"** %50, align 8
  %186 = load %"class.std::__1::unique_ptr.1"*, %"class.std::__1::unique_ptr.1"** %50, align 8
  %187 = getelementptr inbounds %"class.std::__1::unique_ptr.1", %"class.std::__1::unique_ptr.1"* %186, i32 0, i32 0, !dbg !5118
  store %"class.std::__1::__compressed_pair.2"* %187, %"class.std::__1::__compressed_pair.2"** %49, align 8
  %188 = load %"class.std::__1::__compressed_pair.2"*, %"class.std::__1::__compressed_pair.2"** %49, align 8
  %189 = bitcast %"class.std::__1::__compressed_pair.2"* %188 to %"struct.std::__1::__compressed_pair_elem.4"*, !dbg !5119
  store %"struct.std::__1::__compressed_pair_elem.4"* %189, %"struct.std::__1::__compressed_pair_elem.4"** %48, align 8
  %190 = load %"struct.std::__1::__compressed_pair_elem.4"*, %"struct.std::__1::__compressed_pair_elem.4"** %48, align 8
  %191 = bitcast %"struct.std::__1::__compressed_pair_elem.4"* %190 to %"struct.std::__1::default_delete.5"*, !dbg !5120
  store %"struct.std::__1::default_delete.5"* %191, %"struct.std::__1::default_delete.5"** %51, align 8
  %192 = load %"struct.std::__1::default_delete.5"*, %"struct.std::__1::default_delete.5"** %51, align 8, !dbg !5121
  store %"class.std::__1::__compressed_pair.2"* %170, %"class.std::__1::__compressed_pair.2"** %63, align 8
  store %"class.altered_carbon::js::ACAstBaseNode"** %74, %"class.altered_carbon::js::ACAstBaseNode"*** %64, align 8
  store %"struct.std::__1::default_delete.5"* %192, %"struct.std::__1::default_delete.5"** %65, align 8
  %193 = load %"class.std::__1::__compressed_pair.2"*, %"class.std::__1::__compressed_pair.2"** %63, align 8
  %194 = load %"class.altered_carbon::js::ACAstBaseNode"**, %"class.altered_carbon::js::ACAstBaseNode"*** %64, align 8, !dbg !5122
  %195 = load %"struct.std::__1::default_delete.5"*, %"struct.std::__1::default_delete.5"** %65, align 8, !dbg !5122
  store %"class.std::__1::__compressed_pair.2"* %193, %"class.std::__1::__compressed_pair.2"** %60, align 8
  store %"class.altered_carbon::js::ACAstBaseNode"** %194, %"class.altered_carbon::js::ACAstBaseNode"*** %61, align 8
  store %"struct.std::__1::default_delete.5"* %195, %"struct.std::__1::default_delete.5"** %62, align 8
  %196 = load %"class.std::__1::__compressed_pair.2"*, %"class.std::__1::__compressed_pair.2"** %60, align 8
  %197 = bitcast %"class.std::__1::__compressed_pair.2"* %196 to %"struct.std::__1::__compressed_pair_elem.3"*, !dbg !5123
  %198 = load %"class.altered_carbon::js::ACAstBaseNode"**, %"class.altered_carbon::js::ACAstBaseNode"*** %61, align 8, !dbg !5124
  store %"class.altered_carbon::js::ACAstBaseNode"** %198, %"class.altered_carbon::js::ACAstBaseNode"*** %59, align 8
  %199 = load %"class.altered_carbon::js::ACAstBaseNode"**, %"class.altered_carbon::js::ACAstBaseNode"*** %59, align 8, !dbg !5125
  store %"struct.std::__1::__compressed_pair_elem.3"* %197, %"struct.std::__1::__compressed_pair_elem.3"** %53, align 8
  store %"class.altered_carbon::js::ACAstBaseNode"** %199, %"class.altered_carbon::js::ACAstBaseNode"*** %54, align 8
  %200 = load %"struct.std::__1::__compressed_pair_elem.3"*, %"struct.std::__1::__compressed_pair_elem.3"** %53, align 8
  %201 = getelementptr inbounds %"struct.std::__1::__compressed_pair_elem.3", %"struct.std::__1::__compressed_pair_elem.3"* %200, i32 0, i32 0, !dbg !5126
  %202 = load %"class.altered_carbon::js::ACAstBaseNode"**, %"class.altered_carbon::js::ACAstBaseNode"*** %54, align 8, !dbg !5127
  store %"class.altered_carbon::js::ACAstBaseNode"** %202, %"class.altered_carbon::js::ACAstBaseNode"*** %52, align 8
  %203 = load %"class.altered_carbon::js::ACAstBaseNode"**, %"class.altered_carbon::js::ACAstBaseNode"*** %52, align 8, !dbg !5128
  %204 = load %"class.altered_carbon::js::ACAstBaseNode"*, %"class.altered_carbon::js::ACAstBaseNode"** %203, align 8, !dbg !5129
  store %"class.altered_carbon::js::ACAstBaseNode"* %204, %"class.altered_carbon::js::ACAstBaseNode"** %201, align 8, !dbg !5126
  %205 = bitcast %"class.std::__1::__compressed_pair.2"* %196 to %"struct.std::__1::__compressed_pair_elem.4"*, !dbg !5123
  %206 = load %"struct.std::__1::default_delete.5"*, %"struct.std::__1::default_delete.5"** %62, align 8, !dbg !5130
  store %"struct.std::__1::default_delete.5"* %206, %"struct.std::__1::default_delete.5"** %55, align 8
  %207 = load %"struct.std::__1::default_delete.5"*, %"struct.std::__1::default_delete.5"** %55, align 8, !dbg !5131
  store %"struct.std::__1::__compressed_pair_elem.4"* %205, %"struct.std::__1::__compressed_pair_elem.4"** %57, align 8
  store %"struct.std::__1::default_delete.5"* %207, %"struct.std::__1::default_delete.5"** %58, align 8
  %208 = load %"struct.std::__1::__compressed_pair_elem.4"*, %"struct.std::__1::__compressed_pair_elem.4"** %57, align 8
  %209 = bitcast %"struct.std::__1::__compressed_pair_elem.4"* %208 to %"struct.std::__1::default_delete.5"*, !dbg !5132
  %210 = load %"struct.std::__1::default_delete.5"*, %"struct.std::__1::default_delete.5"** %58, align 8, !dbg !5133
  store %"struct.std::__1::default_delete.5"* %210, %"struct.std::__1::default_delete.5"** %56, align 8
  %211 = load %"struct.std::__1::default_delete.5"*, %"struct.std::__1::default_delete.5"** %56, align 8, !dbg !5134
  ret void, !dbg !5135
}

; Function Attrs: noinline nounwind optnone ssp uwtable
define void @_ZN14altered_carbon2js14ACAstBaseErrorC1ENSt3__110unique_ptrINS0_13ACLexPositionENS2_14default_deleteIS4_EEEENS0_13ACAstBaseNode14AstNodeSubTypeENS3_IS8_NS5_IS8_EEEE(%"class.altered_carbon::js::ACAstBaseError"*, %"class.std::__1::unique_ptr"*, i32, %"class.std::__1::unique_ptr.1"*) unnamed_addr #0 align 2 !dbg !5136 {
  %5 = alloca %"class.altered_carbon::js::ACAstBaseError"*, align 8
  %6 = alloca i32, align 4
  store %"class.altered_carbon::js::ACAstBaseError"* %0, %"class.altered_carbon::js::ACAstBaseError"** %5, align 8
  call void @llvm.dbg.declare(metadata %"class.altered_carbon::js::ACAstBaseError"** %5, metadata !5137, metadata !DIExpression()), !dbg !5138
  call void @llvm.dbg.declare(metadata %"class.std::__1::unique_ptr"* %1, metadata !5139, metadata !DIExpression()), !dbg !5140
  store i32 %2, i32* %6, align 4
  call void @llvm.dbg.declare(metadata i32* %6, metadata !5141, metadata !DIExpression()), !dbg !5142
  call void @llvm.dbg.declare(metadata %"class.std::__1::unique_ptr.1"* %3, metadata !5143, metadata !DIExpression()), !dbg !5144
  %7 = load %"class.altered_carbon::js::ACAstBaseError"*, %"class.altered_carbon::js::ACAstBaseError"** %5, align 8
  %8 = load i32, i32* %6, align 4, !dbg !5145
  call void @_ZN14altered_carbon2js14ACAstBaseErrorC2ENSt3__110unique_ptrINS0_13ACLexPositionENS2_14default_deleteIS4_EEEENS0_13ACAstBaseNode14AstNodeSubTypeENS3_IS8_NS5_IS8_EEEE(%"class.altered_carbon::js::ACAstBaseError"* %7, %"class.std::__1::unique_ptr"* %1, i32 %8, %"class.std::__1::unique_ptr.1"* %3), !dbg !5145
  ret void, !dbg !5146
}

; Function Attrs: noinline nounwind optnone ssp uwtable
define void @_ZNK14altered_carbon2js14ACAstBaseError4dumpERNSt3__113basic_ostreamIcNS2_11char_traitsIcEEEE(%"class.altered_carbon::js::ACAstBaseError"*, %"class.std::__1::basic_ostream"* dereferenceable(160)) unnamed_addr #0 align 2 !dbg !5147 {
  %3 = alloca %"class.altered_carbon::js::ACAstBaseError"*, align 8
  %4 = alloca %"class.std::__1::basic_ostream"*, align 8
  store %"class.altered_carbon::js::ACAstBaseError"* %0, %"class.altered_carbon::js::ACAstBaseError"** %3, align 8
  call void @llvm.dbg.declare(metadata %"class.altered_carbon::js::ACAstBaseError"** %3, metadata !5148, metadata !DIExpression()), !dbg !5150
  store %"class.std::__1::basic_ostream"* %1, %"class.std::__1::basic_ostream"** %4, align 8
  call void @llvm.dbg.declare(metadata %"class.std::__1::basic_ostream"** %4, metadata !5151, metadata !DIExpression()), !dbg !5152
  %5 = load %"class.altered_carbon::js::ACAstBaseError"*, %"class.altered_carbon::js::ACAstBaseError"** %3, align 8
  %6 = bitcast %"class.altered_carbon::js::ACAstBaseError"* %5 to %"class.altered_carbon::js::ACAstBaseNode"*, !dbg !5153
  %7 = load %"class.std::__1::basic_ostream"*, %"class.std::__1::basic_ostream"** %4, align 8, !dbg !5154
  call void @_ZNK14altered_carbon2js13ACAstBaseNode4dumpERNSt3__113basic_ostreamIcNS2_11char_traitsIcEEEE(%"class.altered_carbon::js::ACAstBaseNode"* %6, %"class.std::__1::basic_ostream"* dereferenceable(160) %7), !dbg !5153
  ret void, !dbg !5155
}

declare void @_ZNK14altered_carbon2js13ACAstBaseNode4dumpERNSt3__113basic_ostreamIcNS2_11char_traitsIcEEEE(%"class.altered_carbon::js::ACAstBaseNode"*, %"class.std::__1::basic_ostream"* dereferenceable(160)) unnamed_addr #2

; Function Attrs: noinline nounwind optnone ssp uwtable
define void @_ZN14altered_carbon2js15ACAstTokenErrorC2ENSt3__110unique_ptrINS0_13ACLexPositionENS2_14default_deleteIS4_EEEENS0_14ACLexTokenTypeE(%"class.altered_carbon::js::ACAstTokenError"*, %"class.std::__1::unique_ptr"*, i32) unnamed_addr #0 align 2 !dbg !5156 {
  %4 = alloca %"struct.std::__1::__compressed_pair_elem.0"*, align 8
  call void @llvm.dbg.declare(metadata %"struct.std::__1::__compressed_pair_elem.0"** %4, metadata !4557, metadata !DIExpression()), !dbg !5169
  %5 = alloca %"class.std::__1::__compressed_pair"*, align 8
  call void @llvm.dbg.declare(metadata %"class.std::__1::__compressed_pair"** %5, metadata !4570, metadata !DIExpression()), !dbg !5175
  %6 = alloca %"class.std::__1::unique_ptr"*, align 8
  call void @llvm.dbg.declare(metadata %"class.std::__1::unique_ptr"** %6, metadata !4573, metadata !DIExpression()), !dbg !5176
  %7 = alloca %"struct.std::__1::default_delete"*, align 8
  call void @llvm.dbg.declare(metadata %"struct.std::__1::default_delete"** %7, metadata !4576, metadata !DIExpression()), !dbg !5177
  %8 = alloca %"struct.altered_carbon::js::ACLexPosition"**, align 8
  call void @llvm.dbg.declare(metadata %"struct.altered_carbon::js::ACLexPosition"*** %8, metadata !4587, metadata !DIExpression()), !dbg !5179
  %9 = alloca %"struct.std::__1::__compressed_pair_elem"*, align 8
  call void @llvm.dbg.declare(metadata %"struct.std::__1::__compressed_pair_elem"** %9, metadata !4616, metadata !DIExpression()), !dbg !5184
  %10 = alloca %"struct.altered_carbon::js::ACLexPosition"**, align 8
  call void @llvm.dbg.declare(metadata %"struct.altered_carbon::js::ACLexPosition"*** %10, metadata !4619, metadata !DIExpression()), !dbg !5185
  %11 = alloca %"struct.std::__1::default_delete"*, align 8
  call void @llvm.dbg.declare(metadata %"struct.std::__1::default_delete"** %11, metadata !4576, metadata !DIExpression()), !dbg !5186
  %12 = alloca %"struct.std::__1::default_delete"*, align 8
  call void @llvm.dbg.declare(metadata %"struct.std::__1::default_delete"** %12, metadata !4576, metadata !DIExpression()), !dbg !5188
  %13 = alloca %"struct.std::__1::__compressed_pair_elem.0"*, align 8
  call void @llvm.dbg.declare(metadata %"struct.std::__1::__compressed_pair_elem.0"** %13, metadata !4632, metadata !DIExpression()), !dbg !5191
  %14 = alloca %"struct.std::__1::default_delete"*, align 8
  call void @llvm.dbg.declare(metadata %"struct.std::__1::default_delete"** %14, metadata !4634, metadata !DIExpression()), !dbg !5192
  %15 = alloca %"struct.altered_carbon::js::ACLexPosition"**, align 8
  call void @llvm.dbg.declare(metadata %"struct.altered_carbon::js::ACLexPosition"*** %15, metadata !4587, metadata !DIExpression()), !dbg !5193
  %16 = alloca %"class.std::__1::__compressed_pair"*, align 8
  call void @llvm.dbg.declare(metadata %"class.std::__1::__compressed_pair"** %16, metadata !4638, metadata !DIExpression()), !dbg !5195
  %17 = alloca %"struct.altered_carbon::js::ACLexPosition"**, align 8
  call void @llvm.dbg.declare(metadata %"struct.altered_carbon::js::ACLexPosition"*** %17, metadata !4640, metadata !DIExpression()), !dbg !5196
  %18 = alloca %"struct.std::__1::default_delete"*, align 8
  call void @llvm.dbg.declare(metadata %"struct.std::__1::default_delete"** %18, metadata !4642, metadata !DIExpression()), !dbg !5197
  %19 = alloca %"class.std::__1::__compressed_pair"*, align 8
  call void @llvm.dbg.declare(metadata %"class.std::__1::__compressed_pair"** %19, metadata !4644, metadata !DIExpression()), !dbg !5198
  %20 = alloca %"struct.altered_carbon::js::ACLexPosition"**, align 8
  call void @llvm.dbg.declare(metadata %"struct.altered_carbon::js::ACLexPosition"*** %20, metadata !4646, metadata !DIExpression()), !dbg !5199
  %21 = alloca %"struct.std::__1::default_delete"*, align 8
  call void @llvm.dbg.declare(metadata %"struct.std::__1::default_delete"** %21, metadata !4648, metadata !DIExpression()), !dbg !5200
  %22 = alloca %"struct.std::__1::__compressed_pair_elem"*, align 8
  call void @llvm.dbg.declare(metadata %"struct.std::__1::__compressed_pair_elem"** %22, metadata !4650, metadata !DIExpression()), !dbg !5201
  %23 = alloca %"class.std::__1::__compressed_pair"*, align 8
  call void @llvm.dbg.declare(metadata %"class.std::__1::__compressed_pair"** %23, metadata !4658, metadata !DIExpression()), !dbg !5205
  %24 = alloca %"struct.std::__1::__compressed_pair_elem"*, align 8
  call void @llvm.dbg.declare(metadata %"struct.std::__1::__compressed_pair_elem"** %24, metadata !4650, metadata !DIExpression()), !dbg !5206
  %25 = alloca %"class.std::__1::__compressed_pair"*, align 8
  call void @llvm.dbg.declare(metadata %"class.std::__1::__compressed_pair"** %25, metadata !4658, metadata !DIExpression()), !dbg !5209
  %26 = alloca %"class.std::__1::unique_ptr"*, align 8
  call void @llvm.dbg.declare(metadata %"class.std::__1::unique_ptr"** %26, metadata !4664, metadata !DIExpression()), !dbg !5210
  %27 = alloca %"struct.altered_carbon::js::ACLexPosition"*, align 8
  call void @llvm.dbg.declare(metadata %"struct.altered_carbon::js::ACLexPosition"** %27, metadata !4666, metadata !DIExpression()), !dbg !5211
  %28 = alloca %"class.std::__1::unique_ptr"*, align 8
  call void @llvm.dbg.declare(metadata %"class.std::__1::unique_ptr"** %28, metadata !4668, metadata !DIExpression()), !dbg !5212
  %29 = alloca %"class.std::__1::unique_ptr"*, align 8
  call void @llvm.dbg.declare(metadata %"class.std::__1::unique_ptr"** %29, metadata !4670, metadata !DIExpression()), !dbg !5213
  %30 = alloca %"struct.altered_carbon::js::ACLexPosition"*, align 8
  %31 = alloca %"class.std::__1::unique_ptr"*, align 8
  call void @llvm.dbg.declare(metadata %"class.std::__1::unique_ptr"** %31, metadata !4672, metadata !DIExpression()), !dbg !5214
  %32 = alloca %"class.std::__1::unique_ptr"*, align 8
  call void @llvm.dbg.declare(metadata %"class.std::__1::unique_ptr"** %32, metadata !4674, metadata !DIExpression()), !dbg !5215
  %33 = alloca %"struct.std::__1::__compressed_pair_elem.0"*, align 8
  call void @llvm.dbg.declare(metadata %"struct.std::__1::__compressed_pair_elem.0"** %33, metadata !4557, metadata !DIExpression()), !dbg !5216
  %34 = alloca %"class.std::__1::__compressed_pair"*, align 8
  call void @llvm.dbg.declare(metadata %"class.std::__1::__compressed_pair"** %34, metadata !4570, metadata !DIExpression()), !dbg !5222
  %35 = alloca %"struct.std::__1::__compressed_pair_elem"*, align 8
  call void @llvm.dbg.declare(metadata %"struct.std::__1::__compressed_pair_elem"** %35, metadata !4650, metadata !DIExpression()), !dbg !5223
  %36 = alloca %"class.std::__1::__compressed_pair"*, align 8
  call void @llvm.dbg.declare(metadata %"class.std::__1::__compressed_pair"** %36, metadata !4658, metadata !DIExpression()), !dbg !5226
  %37 = alloca %"struct.std::__1::default_delete"*, align 8
  call void @llvm.dbg.declare(metadata %"struct.std::__1::default_delete"** %37, metadata !4692, metadata !DIExpression()), !dbg !5227
  %38 = alloca %"struct.altered_carbon::js::ACLexPosition"*, align 8
  call void @llvm.dbg.declare(metadata %"struct.altered_carbon::js::ACLexPosition"** %38, metadata !4697, metadata !DIExpression()), !dbg !5229
  %39 = alloca %"struct.std::__1::__compressed_pair_elem"*, align 8
  call void @llvm.dbg.declare(metadata %"struct.std::__1::__compressed_pair_elem"** %39, metadata !4650, metadata !DIExpression()), !dbg !5230
  %40 = alloca %"class.std::__1::__compressed_pair"*, align 8
  call void @llvm.dbg.declare(metadata %"class.std::__1::__compressed_pair"** %40, metadata !4658, metadata !DIExpression()), !dbg !5233
  %41 = alloca %"class.std::__1::unique_ptr"*, align 8
  call void @llvm.dbg.declare(metadata %"class.std::__1::unique_ptr"** %41, metadata !4703, metadata !DIExpression()), !dbg !5234
  %42 = alloca %"struct.altered_carbon::js::ACLexPosition"*, align 8
  call void @llvm.dbg.declare(metadata %"struct.altered_carbon::js::ACLexPosition"** %42, metadata !4705, metadata !DIExpression()), !dbg !5235
  %43 = alloca %"struct.altered_carbon::js::ACLexPosition"*, align 8
  call void @llvm.dbg.declare(metadata %"struct.altered_carbon::js::ACLexPosition"** %43, metadata !4707, metadata !DIExpression()), !dbg !5236
  %44 = alloca %"class.std::__1::unique_ptr"*, align 8
  call void @llvm.dbg.declare(metadata %"class.std::__1::unique_ptr"** %44, metadata !4709, metadata !DIExpression()), !dbg !5237
  %45 = alloca %"class.std::__1::unique_ptr"*, align 8
  call void @llvm.dbg.declare(metadata %"class.std::__1::unique_ptr"** %45, metadata !4711, metadata !DIExpression()), !dbg !5238
  %46 = alloca %"class.std::__1::unique_ptr"*, align 8
  call void @llvm.dbg.declare(metadata %"class.std::__1::unique_ptr"** %46, metadata !4766, metadata !DIExpression()), !dbg !5239
  %47 = alloca %"class.altered_carbon::js::ACAstTokenError"*, align 8
  %48 = alloca i32, align 4
  %49 = alloca %"class.std::__1::unique_ptr", align 8
  store %"class.altered_carbon::js::ACAstTokenError"* %0, %"class.altered_carbon::js::ACAstTokenError"** %47, align 8
  call void @llvm.dbg.declare(metadata %"class.altered_carbon::js::ACAstTokenError"** %47, metadata !5241, metadata !DIExpression()), !dbg !5243
  call void @llvm.dbg.declare(metadata %"class.std::__1::unique_ptr"* %1, metadata !5244, metadata !DIExpression()), !dbg !5245
  store i32 %2, i32* %48, align 4
  call void @llvm.dbg.declare(metadata i32* %48, metadata !5246, metadata !DIExpression()), !dbg !5247
  %50 = load %"class.altered_carbon::js::ACAstTokenError"*, %"class.altered_carbon::js::ACAstTokenError"** %47, align 8
  %51 = bitcast %"class.altered_carbon::js::ACAstTokenError"* %50 to %"class.altered_carbon::js::ACAstBaseError"*, !dbg !5248
  store %"class.std::__1::unique_ptr"* %1, %"class.std::__1::unique_ptr"** %46, align 8
  %52 = load %"class.std::__1::unique_ptr"*, %"class.std::__1::unique_ptr"** %46, align 8, !dbg !5249
  store %"class.std::__1::unique_ptr"* %49, %"class.std::__1::unique_ptr"** %31, align 8
  store %"class.std::__1::unique_ptr"* %52, %"class.std::__1::unique_ptr"** %32, align 8
  %53 = load %"class.std::__1::unique_ptr"*, %"class.std::__1::unique_ptr"** %31, align 8
  %54 = load %"class.std::__1::unique_ptr"*, %"class.std::__1::unique_ptr"** %32, align 8, !dbg !5250
  store %"class.std::__1::unique_ptr"* %53, %"class.std::__1::unique_ptr"** %28, align 8
  store %"class.std::__1::unique_ptr"* %54, %"class.std::__1::unique_ptr"** %29, align 8
  %55 = load %"class.std::__1::unique_ptr"*, %"class.std::__1::unique_ptr"** %28, align 8
  %56 = getelementptr inbounds %"class.std::__1::unique_ptr", %"class.std::__1::unique_ptr"* %55, i32 0, i32 0, !dbg !5251
  %57 = load %"class.std::__1::unique_ptr"*, %"class.std::__1::unique_ptr"** %29, align 8, !dbg !5252
  store %"class.std::__1::unique_ptr"* %57, %"class.std::__1::unique_ptr"** %26, align 8
  %58 = load %"class.std::__1::unique_ptr"*, %"class.std::__1::unique_ptr"** %26, align 8
  %59 = getelementptr inbounds %"class.std::__1::unique_ptr", %"class.std::__1::unique_ptr"* %58, i32 0, i32 0, !dbg !5253
  store %"class.std::__1::__compressed_pair"* %59, %"class.std::__1::__compressed_pair"** %25, align 8
  %60 = load %"class.std::__1::__compressed_pair"*, %"class.std::__1::__compressed_pair"** %25, align 8
  %61 = bitcast %"class.std::__1::__compressed_pair"* %60 to %"struct.std::__1::__compressed_pair_elem"*, !dbg !5254
  store %"struct.std::__1::__compressed_pair_elem"* %61, %"struct.std::__1::__compressed_pair_elem"** %24, align 8
  %62 = load %"struct.std::__1::__compressed_pair_elem"*, %"struct.std::__1::__compressed_pair_elem"** %24, align 8
  %63 = getelementptr inbounds %"struct.std::__1::__compressed_pair_elem", %"struct.std::__1::__compressed_pair_elem"* %62, i32 0, i32 0, !dbg !5255
  %64 = load %"struct.altered_carbon::js::ACLexPosition"*, %"struct.altered_carbon::js::ACLexPosition"** %63, align 8, !dbg !5256
  store %"struct.altered_carbon::js::ACLexPosition"* %64, %"struct.altered_carbon::js::ACLexPosition"** %27, align 8, !dbg !5211
  %65 = getelementptr inbounds %"class.std::__1::unique_ptr", %"class.std::__1::unique_ptr"* %58, i32 0, i32 0, !dbg !5257
  store %"class.std::__1::__compressed_pair"* %65, %"class.std::__1::__compressed_pair"** %23, align 8
  %66 = load %"class.std::__1::__compressed_pair"*, %"class.std::__1::__compressed_pair"** %23, align 8
  %67 = bitcast %"class.std::__1::__compressed_pair"* %66 to %"struct.std::__1::__compressed_pair_elem"*, !dbg !5258
  store %"struct.std::__1::__compressed_pair_elem"* %67, %"struct.std::__1::__compressed_pair_elem"** %22, align 8
  %68 = load %"struct.std::__1::__compressed_pair_elem"*, %"struct.std::__1::__compressed_pair_elem"** %22, align 8
  %69 = getelementptr inbounds %"struct.std::__1::__compressed_pair_elem", %"struct.std::__1::__compressed_pair_elem"* %68, i32 0, i32 0, !dbg !5259
  store %"struct.altered_carbon::js::ACLexPosition"* null, %"struct.altered_carbon::js::ACLexPosition"** %69, align 8, !dbg !5260
  %70 = load %"struct.altered_carbon::js::ACLexPosition"*, %"struct.altered_carbon::js::ACLexPosition"** %27, align 8, !dbg !5261
  store %"struct.altered_carbon::js::ACLexPosition"* %70, %"struct.altered_carbon::js::ACLexPosition"** %30, align 8, !dbg !5252
  %71 = load %"class.std::__1::unique_ptr"*, %"class.std::__1::unique_ptr"** %29, align 8, !dbg !5262
  store %"class.std::__1::unique_ptr"* %71, %"class.std::__1::unique_ptr"** %6, align 8
  %72 = load %"class.std::__1::unique_ptr"*, %"class.std::__1::unique_ptr"** %6, align 8
  %73 = getelementptr inbounds %"class.std::__1::unique_ptr", %"class.std::__1::unique_ptr"* %72, i32 0, i32 0, !dbg !5263
  store %"class.std::__1::__compressed_pair"* %73, %"class.std::__1::__compressed_pair"** %5, align 8
  %74 = load %"class.std::__1::__compressed_pair"*, %"class.std::__1::__compressed_pair"** %5, align 8
  %75 = bitcast %"class.std::__1::__compressed_pair"* %74 to %"struct.std::__1::__compressed_pair_elem.0"*, !dbg !5264
  store %"struct.std::__1::__compressed_pair_elem.0"* %75, %"struct.std::__1::__compressed_pair_elem.0"** %4, align 8
  %76 = load %"struct.std::__1::__compressed_pair_elem.0"*, %"struct.std::__1::__compressed_pair_elem.0"** %4, align 8
  %77 = bitcast %"struct.std::__1::__compressed_pair_elem.0"* %76 to %"struct.std::__1::default_delete"*, !dbg !5265
  store %"struct.std::__1::default_delete"* %77, %"struct.std::__1::default_delete"** %7, align 8
  %78 = load %"struct.std::__1::default_delete"*, %"struct.std::__1::default_delete"** %7, align 8, !dbg !5266
  store %"class.std::__1::__compressed_pair"* %56, %"class.std::__1::__compressed_pair"** %19, align 8
  store %"struct.altered_carbon::js::ACLexPosition"** %30, %"struct.altered_carbon::js::ACLexPosition"*** %20, align 8
  store %"struct.std::__1::default_delete"* %78, %"struct.std::__1::default_delete"** %21, align 8
  %79 = load %"class.std::__1::__compressed_pair"*, %"class.std::__1::__compressed_pair"** %19, align 8
  %80 = load %"struct.altered_carbon::js::ACLexPosition"**, %"struct.altered_carbon::js::ACLexPosition"*** %20, align 8, !dbg !5267
  %81 = load %"struct.std::__1::default_delete"*, %"struct.std::__1::default_delete"** %21, align 8, !dbg !5267
  store %"class.std::__1::__compressed_pair"* %79, %"class.std::__1::__compressed_pair"** %16, align 8
  store %"struct.altered_carbon::js::ACLexPosition"** %80, %"struct.altered_carbon::js::ACLexPosition"*** %17, align 8
  store %"struct.std::__1::default_delete"* %81, %"struct.std::__1::default_delete"** %18, align 8
  %82 = load %"class.std::__1::__compressed_pair"*, %"class.std::__1::__compressed_pair"** %16, align 8
  %83 = bitcast %"class.std::__1::__compressed_pair"* %82 to %"struct.std::__1::__compressed_pair_elem"*, !dbg !5268
  %84 = load %"struct.altered_carbon::js::ACLexPosition"**, %"struct.altered_carbon::js::ACLexPosition"*** %17, align 8, !dbg !5269
  store %"struct.altered_carbon::js::ACLexPosition"** %84, %"struct.altered_carbon::js::ACLexPosition"*** %15, align 8
  %85 = load %"struct.altered_carbon::js::ACLexPosition"**, %"struct.altered_carbon::js::ACLexPosition"*** %15, align 8, !dbg !5270
  store %"struct.std::__1::__compressed_pair_elem"* %83, %"struct.std::__1::__compressed_pair_elem"** %9, align 8
  store %"struct.altered_carbon::js::ACLexPosition"** %85, %"struct.altered_carbon::js::ACLexPosition"*** %10, align 8
  %86 = load %"struct.std::__1::__compressed_pair_elem"*, %"struct.std::__1::__compressed_pair_elem"** %9, align 8
  %87 = getelementptr inbounds %"struct.std::__1::__compressed_pair_elem", %"struct.std::__1::__compressed_pair_elem"* %86, i32 0, i32 0, !dbg !5271
  %88 = load %"struct.altered_carbon::js::ACLexPosition"**, %"struct.altered_carbon::js::ACLexPosition"*** %10, align 8, !dbg !5272
  store %"struct.altered_carbon::js::ACLexPosition"** %88, %"struct.altered_carbon::js::ACLexPosition"*** %8, align 8
  %89 = load %"struct.altered_carbon::js::ACLexPosition"**, %"struct.altered_carbon::js::ACLexPosition"*** %8, align 8, !dbg !5273
  %90 = load %"struct.altered_carbon::js::ACLexPosition"*, %"struct.altered_carbon::js::ACLexPosition"** %89, align 8, !dbg !5274
  store %"struct.altered_carbon::js::ACLexPosition"* %90, %"struct.altered_carbon::js::ACLexPosition"** %87, align 8, !dbg !5271
  %91 = bitcast %"class.std::__1::__compressed_pair"* %82 to %"struct.std::__1::__compressed_pair_elem.0"*, !dbg !5268
  %92 = load %"struct.std::__1::default_delete"*, %"struct.std::__1::default_delete"** %18, align 8, !dbg !5275
  store %"struct.std::__1::default_delete"* %92, %"struct.std::__1::default_delete"** %11, align 8
  %93 = load %"struct.std::__1::default_delete"*, %"struct.std::__1::default_delete"** %11, align 8, !dbg !5276
  store %"struct.std::__1::__compressed_pair_elem.0"* %91, %"struct.std::__1::__compressed_pair_elem.0"** %13, align 8
  store %"struct.std::__1::default_delete"* %93, %"struct.std::__1::default_delete"** %14, align 8
  %94 = load %"struct.std::__1::__compressed_pair_elem.0"*, %"struct.std::__1::__compressed_pair_elem.0"** %13, align 8
  %95 = bitcast %"struct.std::__1::__compressed_pair_elem.0"* %94 to %"struct.std::__1::default_delete"*, !dbg !5277
  %96 = load %"struct.std::__1::default_delete"*, %"struct.std::__1::default_delete"** %14, align 8, !dbg !5278
  store %"struct.std::__1::default_delete"* %96, %"struct.std::__1::default_delete"** %12, align 8
  %97 = load %"struct.std::__1::default_delete"*, %"struct.std::__1::default_delete"** %12, align 8, !dbg !5279
  %98 = load i32, i32* %48, align 4, !dbg !5280
  call void @_ZN14altered_carbon2js14ACAstBaseErrorC2ENSt3__110unique_ptrINS0_13ACLexPositionENS2_14default_deleteIS4_EEEENS0_13ACAstBaseNode14AstNodeSubTypeENS0_14ACLexTokenTypeE(%"class.altered_carbon::js::ACAstBaseError"* %51, %"class.std::__1::unique_ptr"* %49, i32 101, i32 %98), !dbg !5281
  store %"class.std::__1::unique_ptr"* %49, %"class.std::__1::unique_ptr"** %45, align 8
  %99 = load %"class.std::__1::unique_ptr"*, %"class.std::__1::unique_ptr"** %45, align 8
  store %"class.std::__1::unique_ptr"* %99, %"class.std::__1::unique_ptr"** %44, align 8
  %100 = load %"class.std::__1::unique_ptr"*, %"class.std::__1::unique_ptr"** %44, align 8
  store %"class.std::__1::unique_ptr"* %100, %"class.std::__1::unique_ptr"** %41, align 8
  store %"struct.altered_carbon::js::ACLexPosition"* null, %"struct.altered_carbon::js::ACLexPosition"** %42, align 8
  %101 = load %"class.std::__1::unique_ptr"*, %"class.std::__1::unique_ptr"** %41, align 8
  %102 = getelementptr inbounds %"class.std::__1::unique_ptr", %"class.std::__1::unique_ptr"* %101, i32 0, i32 0, !dbg !5282
  store %"class.std::__1::__compressed_pair"* %102, %"class.std::__1::__compressed_pair"** %40, align 8
  %103 = load %"class.std::__1::__compressed_pair"*, %"class.std::__1::__compressed_pair"** %40, align 8
  %104 = bitcast %"class.std::__1::__compressed_pair"* %103 to %"struct.std::__1::__compressed_pair_elem"*, !dbg !5283
  store %"struct.std::__1::__compressed_pair_elem"* %104, %"struct.std::__1::__compressed_pair_elem"** %39, align 8
  %105 = load %"struct.std::__1::__compressed_pair_elem"*, %"struct.std::__1::__compressed_pair_elem"** %39, align 8
  %106 = getelementptr inbounds %"struct.std::__1::__compressed_pair_elem", %"struct.std::__1::__compressed_pair_elem"* %105, i32 0, i32 0, !dbg !5284
  %107 = load %"struct.altered_carbon::js::ACLexPosition"*, %"struct.altered_carbon::js::ACLexPosition"** %106, align 8, !dbg !5285
  store %"struct.altered_carbon::js::ACLexPosition"* %107, %"struct.altered_carbon::js::ACLexPosition"** %43, align 8, !dbg !5236
  %108 = load %"struct.altered_carbon::js::ACLexPosition"*, %"struct.altered_carbon::js::ACLexPosition"** %42, align 8, !dbg !5286
  %109 = getelementptr inbounds %"class.std::__1::unique_ptr", %"class.std::__1::unique_ptr"* %101, i32 0, i32 0, !dbg !5287
  store %"class.std::__1::__compressed_pair"* %109, %"class.std::__1::__compressed_pair"** %36, align 8
  %110 = load %"class.std::__1::__compressed_pair"*, %"class.std::__1::__compressed_pair"** %36, align 8
  %111 = bitcast %"class.std::__1::__compressed_pair"* %110 to %"struct.std::__1::__compressed_pair_elem"*, !dbg !5288
  store %"struct.std::__1::__compressed_pair_elem"* %111, %"struct.std::__1::__compressed_pair_elem"** %35, align 8
  %112 = load %"struct.std::__1::__compressed_pair_elem"*, %"struct.std::__1::__compressed_pair_elem"** %35, align 8
  %113 = getelementptr inbounds %"struct.std::__1::__compressed_pair_elem", %"struct.std::__1::__compressed_pair_elem"* %112, i32 0, i32 0, !dbg !5289
  store %"struct.altered_carbon::js::ACLexPosition"* %108, %"struct.altered_carbon::js::ACLexPosition"** %113, align 8, !dbg !5290
  %114 = load %"struct.altered_carbon::js::ACLexPosition"*, %"struct.altered_carbon::js::ACLexPosition"** %43, align 8, !dbg !5291
  %115 = icmp ne %"struct.altered_carbon::js::ACLexPosition"* %114, null, !dbg !5291
  br i1 %115, label %116, label %132, !dbg !5292

; <label>:116:                                    ; preds = %3
  %117 = getelementptr inbounds %"class.std::__1::unique_ptr", %"class.std::__1::unique_ptr"* %101, i32 0, i32 0, !dbg !5293
  store %"class.std::__1::__compressed_pair"* %117, %"class.std::__1::__compressed_pair"** %34, align 8
  %118 = load %"class.std::__1::__compressed_pair"*, %"class.std::__1::__compressed_pair"** %34, align 8
  %119 = bitcast %"class.std::__1::__compressed_pair"* %118 to %"struct.std::__1::__compressed_pair_elem.0"*, !dbg !5294
  store %"struct.std::__1::__compressed_pair_elem.0"* %119, %"struct.std::__1::__compressed_pair_elem.0"** %33, align 8
  %120 = load %"struct.std::__1::__compressed_pair_elem.0"*, %"struct.std::__1::__compressed_pair_elem.0"** %33, align 8
  %121 = bitcast %"struct.std::__1::__compressed_pair_elem.0"* %120 to %"struct.std::__1::default_delete"*, !dbg !5295
  %122 = load %"struct.altered_carbon::js::ACLexPosition"*, %"struct.altered_carbon::js::ACLexPosition"** %43, align 8, !dbg !5296
  store %"struct.std::__1::default_delete"* %121, %"struct.std::__1::default_delete"** %37, align 8
  store %"struct.altered_carbon::js::ACLexPosition"* %122, %"struct.altered_carbon::js::ACLexPosition"** %38, align 8
  %123 = load %"struct.std::__1::default_delete"*, %"struct.std::__1::default_delete"** %37, align 8
  %124 = load %"struct.altered_carbon::js::ACLexPosition"*, %"struct.altered_carbon::js::ACLexPosition"** %38, align 8, !dbg !5297
  %125 = icmp eq %"struct.altered_carbon::js::ACLexPosition"* %124, null, !dbg !5298
  br i1 %125, label %131, label %126, !dbg !5298

; <label>:126:                                    ; preds = %116
  %127 = bitcast %"struct.altered_carbon::js::ACLexPosition"* %124 to void (%"struct.altered_carbon::js::ACLexPosition"*)***, !dbg !5298
  %128 = load void (%"struct.altered_carbon::js::ACLexPosition"*)**, void (%"struct.altered_carbon::js::ACLexPosition"*)*** %127, align 8, !dbg !5298
  %129 = getelementptr inbounds void (%"struct.altered_carbon::js::ACLexPosition"*)*, void (%"struct.altered_carbon::js::ACLexPosition"*)** %128, i64 1, !dbg !5298
  %130 = load void (%"struct.altered_carbon::js::ACLexPosition"*)*, void (%"struct.altered_carbon::js::ACLexPosition"*)** %129, align 8, !dbg !5298
  call void %130(%"struct.altered_carbon::js::ACLexPosition"* %124) #6, !dbg !5298
  br label %131, !dbg !5298

; <label>:131:                                    ; preds = %126, %116
  br label %132, !dbg !5293

; <label>:132:                                    ; preds = %3, %131
  %133 = bitcast %"class.altered_carbon::js::ACAstTokenError"* %50 to i32 (...)***, !dbg !5248
  store i32 (...)** bitcast (i8** getelementptr inbounds ({ [14 x i8*] }, { [14 x i8*] }* @_ZTVN14altered_carbon2js15ACAstTokenErrorE, i32 0, inrange i32 0, i32 2) to i32 (...)**), i32 (...)*** %133, align 8, !dbg !5248
  ret void, !dbg !5299
}

; Function Attrs: noinline nounwind optnone ssp uwtable
define void @_ZN14altered_carbon2js15ACAstTokenErrorC1ENSt3__110unique_ptrINS0_13ACLexPositionENS2_14default_deleteIS4_EEEENS0_14ACLexTokenTypeE(%"class.altered_carbon::js::ACAstTokenError"*, %"class.std::__1::unique_ptr"*, i32) unnamed_addr #0 align 2 !dbg !5300 {
  %4 = alloca %"class.altered_carbon::js::ACAstTokenError"*, align 8
  %5 = alloca i32, align 4
  store %"class.altered_carbon::js::ACAstTokenError"* %0, %"class.altered_carbon::js::ACAstTokenError"** %4, align 8
  call void @llvm.dbg.declare(metadata %"class.altered_carbon::js::ACAstTokenError"** %4, metadata !5301, metadata !DIExpression()), !dbg !5302
  call void @llvm.dbg.declare(metadata %"class.std::__1::unique_ptr"* %1, metadata !5303, metadata !DIExpression()), !dbg !5304
  store i32 %2, i32* %5, align 4
  call void @llvm.dbg.declare(metadata i32* %5, metadata !5305, metadata !DIExpression()), !dbg !5306
  %6 = load %"class.altered_carbon::js::ACAstTokenError"*, %"class.altered_carbon::js::ACAstTokenError"** %4, align 8
  %7 = load i32, i32* %5, align 4, !dbg !5307
  call void @_ZN14altered_carbon2js15ACAstTokenErrorC2ENSt3__110unique_ptrINS0_13ACLexPositionENS2_14default_deleteIS4_EEEENS0_14ACLexTokenTypeE(%"class.altered_carbon::js::ACAstTokenError"* %6, %"class.std::__1::unique_ptr"* %1, i32 %7), !dbg !5307
  ret void, !dbg !5308
}

; Function Attrs: noinline nounwind optnone ssp uwtable
define void @_ZNK14altered_carbon2js15ACAstTokenError4dumpERNSt3__113basic_ostreamIcNS2_11char_traitsIcEEEE(%"class.altered_carbon::js::ACAstTokenError"*, %"class.std::__1::basic_ostream"* dereferenceable(160)) unnamed_addr #0 align 2 !dbg !5309 {
  %3 = alloca %"class.altered_carbon::js::ACAstTokenError"*, align 8
  %4 = alloca %"class.std::__1::basic_ostream"*, align 8
  store %"class.altered_carbon::js::ACAstTokenError"* %0, %"class.altered_carbon::js::ACAstTokenError"** %3, align 8
  call void @llvm.dbg.declare(metadata %"class.altered_carbon::js::ACAstTokenError"** %3, metadata !5310, metadata !DIExpression()), !dbg !5312
  store %"class.std::__1::basic_ostream"* %1, %"class.std::__1::basic_ostream"** %4, align 8
  call void @llvm.dbg.declare(metadata %"class.std::__1::basic_ostream"** %4, metadata !5313, metadata !DIExpression()), !dbg !5314
  %5 = load %"class.altered_carbon::js::ACAstTokenError"*, %"class.altered_carbon::js::ACAstTokenError"** %3, align 8
  %6 = bitcast %"class.altered_carbon::js::ACAstTokenError"* %5 to %"class.altered_carbon::js::ACAstBaseNode"*, !dbg !5315
  %7 = load %"class.std::__1::basic_ostream"*, %"class.std::__1::basic_ostream"** %4, align 8, !dbg !5316
  call void @_ZNK14altered_carbon2js13ACAstBaseNode8dumpTypeERNSt3__113basic_ostreamIcNS2_11char_traitsIcEEEE(%"class.altered_carbon::js::ACAstBaseNode"* %6, %"class.std::__1::basic_ostream"* dereferenceable(160) %7), !dbg !5315
  %8 = load %"class.std::__1::basic_ostream"*, %"class.std::__1::basic_ostream"** %4, align 8, !dbg !5317
  %9 = call dereferenceable(160) %"class.std::__1::basic_ostream"* @_ZNSt3__1lsINS_11char_traitsIcEEEERNS_13basic_ostreamIcT_EES6_PKc(%"class.std::__1::basic_ostream"* dereferenceable(160) %8, i8* getelementptr inbounds ([22 x i8], [22 x i8]* @.str, i32 0, i32 0)), !dbg !5318
  %10 = bitcast %"class.altered_carbon::js::ACAstTokenError"* %5 to %"class.altered_carbon::js::ACAstBaseError"*, !dbg !5319
  %11 = getelementptr inbounds %"class.altered_carbon::js::ACAstBaseError", %"class.altered_carbon::js::ACAstBaseError"* %10, i32 0, i32 1, !dbg !5319
  %12 = load i32, i32* %11, align 8, !dbg !5319
  %13 = call dereferenceable(160) %"class.std::__1::basic_ostream"* @_ZNSt3__113basic_ostreamIcNS_11char_traitsIcEEElsEi(%"class.std::__1::basic_ostream"* %9, i32 %12), !dbg !5320
  %14 = call dereferenceable(160) %"class.std::__1::basic_ostream"* @_ZNSt3__1lsINS_11char_traitsIcEEEERNS_13basic_ostreamIcT_EES6_PKc(%"class.std::__1::basic_ostream"* dereferenceable(160) %13, i8* getelementptr inbounds ([3 x i8], [3 x i8]* @.str.1, i32 0, i32 0)), !dbg !5321
  ret void, !dbg !5322
}

declare void @_ZNK14altered_carbon2js13ACAstBaseNode8dumpTypeERNSt3__113basic_ostreamIcNS2_11char_traitsIcEEEE(%"class.altered_carbon::js::ACAstBaseNode"*, %"class.std::__1::basic_ostream"* dereferenceable(160)) #2

; Function Attrs: noinline nounwind optnone ssp uwtable
define linkonce_odr dereferenceable(160) %"class.std::__1::basic_ostream"* @_ZNSt3__1lsINS_11char_traitsIcEEEERNS_13basic_ostreamIcT_EES6_PKc(%"class.std::__1::basic_ostream"* dereferenceable(160), i8*) #0 !dbg !5323 {
  %3 = alloca %"class.std::__1::basic_ostream"*, align 8
  %4 = alloca i8*, align 8
  store %"class.std::__1::basic_ostream"* %0, %"class.std::__1::basic_ostream"** %3, align 8
  call void @llvm.dbg.declare(metadata %"class.std::__1::basic_ostream"** %3, metadata !5327, metadata !DIExpression()), !dbg !5328
  store i8* %1, i8** %4, align 8
  call void @llvm.dbg.declare(metadata i8** %4, metadata !5329, metadata !DIExpression()), !dbg !5330
  %5 = load %"class.std::__1::basic_ostream"*, %"class.std::__1::basic_ostream"** %3, align 8, !dbg !5331
  %6 = load i8*, i8** %4, align 8, !dbg !5332
  %7 = load i8*, i8** %4, align 8, !dbg !5333
  %8 = call i64 @_ZNSt3__111char_traitsIcE6lengthEPKc(i8* %7) #6, !dbg !5334
  %9 = call dereferenceable(160) %"class.std::__1::basic_ostream"* @_ZNSt3__124__put_character_sequenceIcNS_11char_traitsIcEEEERNS_13basic_ostreamIT_T0_EES7_PKS4_m(%"class.std::__1::basic_ostream"* dereferenceable(160) %5, i8* %6, i64 %8), !dbg !5335
  ret %"class.std::__1::basic_ostream"* %9, !dbg !5336
}

declare dereferenceable(160) %"class.std::__1::basic_ostream"* @_ZNSt3__113basic_ostreamIcNS_11char_traitsIcEEElsEi(%"class.std::__1::basic_ostream"*, i32) #2

; Function Attrs: noinline nounwind optnone ssp uwtable
define void @_ZN14altered_carbon2js16ACAstSyntaxErrorC2ENSt3__110unique_ptrINS0_13ACLexPositionENS2_14default_deleteIS4_EEEENS3_INS0_13ACAstBaseNodeENS5_IS8_EEEE(%"class.altered_carbon::js::ACAstSyntaxError"*, %"class.std::__1::unique_ptr"*, %"class.std::__1::unique_ptr.1"*) unnamed_addr #0 align 2 !dbg !5337 {
  %4 = alloca %"struct.std::__1::__compressed_pair_elem.4"*, align 8
  call void @llvm.dbg.declare(metadata %"struct.std::__1::__compressed_pair_elem.4"** %4, metadata !4944, metadata !DIExpression()), !dbg !5352
  %5 = alloca %"class.std::__1::__compressed_pair.2"*, align 8
  call void @llvm.dbg.declare(metadata %"class.std::__1::__compressed_pair.2"** %5, metadata !4957, metadata !DIExpression()), !dbg !5358
  %6 = alloca %"class.std::__1::unique_ptr.1"*, align 8
  call void @llvm.dbg.declare(metadata %"class.std::__1::unique_ptr.1"** %6, metadata !4959, metadata !DIExpression()), !dbg !5359
  %7 = alloca %"struct.std::__1::default_delete.5"*, align 8
  call void @llvm.dbg.declare(metadata %"struct.std::__1::default_delete.5"** %7, metadata !4961, metadata !DIExpression()), !dbg !5360
  %8 = alloca %"class.altered_carbon::js::ACAstBaseNode"**, align 8
  call void @llvm.dbg.declare(metadata %"class.altered_carbon::js::ACAstBaseNode"*** %8, metadata !4713, metadata !DIExpression()), !dbg !5362
  %9 = alloca %"struct.std::__1::__compressed_pair_elem.3"*, align 8
  call void @llvm.dbg.declare(metadata %"struct.std::__1::__compressed_pair_elem.3"** %9, metadata !4746, metadata !DIExpression()), !dbg !5367
  %10 = alloca %"class.altered_carbon::js::ACAstBaseNode"**, align 8
  call void @llvm.dbg.declare(metadata %"class.altered_carbon::js::ACAstBaseNode"*** %10, metadata !4749, metadata !DIExpression()), !dbg !5368
  %11 = alloca %"struct.std::__1::default_delete.5"*, align 8
  call void @llvm.dbg.declare(metadata %"struct.std::__1::default_delete.5"** %11, metadata !4961, metadata !DIExpression()), !dbg !5369
  %12 = alloca %"struct.std::__1::default_delete.5"*, align 8
  call void @llvm.dbg.declare(metadata %"struct.std::__1::default_delete.5"** %12, metadata !4961, metadata !DIExpression()), !dbg !5371
  %13 = alloca %"struct.std::__1::__compressed_pair_elem.4"*, align 8
  call void @llvm.dbg.declare(metadata %"struct.std::__1::__compressed_pair_elem.4"** %13, metadata !4998, metadata !DIExpression()), !dbg !5374
  %14 = alloca %"struct.std::__1::default_delete.5"*, align 8
  call void @llvm.dbg.declare(metadata %"struct.std::__1::default_delete.5"** %14, metadata !5000, metadata !DIExpression()), !dbg !5375
  %15 = alloca %"class.altered_carbon::js::ACAstBaseNode"**, align 8
  call void @llvm.dbg.declare(metadata %"class.altered_carbon::js::ACAstBaseNode"*** %15, metadata !4713, metadata !DIExpression()), !dbg !5376
  %16 = alloca %"class.std::__1::__compressed_pair.2"*, align 8
  call void @llvm.dbg.declare(metadata %"class.std::__1::__compressed_pair.2"** %16, metadata !5004, metadata !DIExpression()), !dbg !5378
  %17 = alloca %"class.altered_carbon::js::ACAstBaseNode"**, align 8
  call void @llvm.dbg.declare(metadata %"class.altered_carbon::js::ACAstBaseNode"*** %17, metadata !5006, metadata !DIExpression()), !dbg !5379
  %18 = alloca %"struct.std::__1::default_delete.5"*, align 8
  call void @llvm.dbg.declare(metadata %"struct.std::__1::default_delete.5"** %18, metadata !5008, metadata !DIExpression()), !dbg !5380
  %19 = alloca %"class.std::__1::__compressed_pair.2"*, align 8
  call void @llvm.dbg.declare(metadata %"class.std::__1::__compressed_pair.2"** %19, metadata !5010, metadata !DIExpression()), !dbg !5381
  %20 = alloca %"class.altered_carbon::js::ACAstBaseNode"**, align 8
  call void @llvm.dbg.declare(metadata %"class.altered_carbon::js::ACAstBaseNode"*** %20, metadata !5012, metadata !DIExpression()), !dbg !5382
  %21 = alloca %"struct.std::__1::default_delete.5"*, align 8
  call void @llvm.dbg.declare(metadata %"struct.std::__1::default_delete.5"** %21, metadata !5014, metadata !DIExpression()), !dbg !5383
  %22 = alloca %"struct.std::__1::__compressed_pair_elem.3"*, align 8
  call void @llvm.dbg.declare(metadata %"struct.std::__1::__compressed_pair_elem.3"** %22, metadata !5016, metadata !DIExpression()), !dbg !5384
  %23 = alloca %"class.std::__1::__compressed_pair.2"*, align 8
  call void @llvm.dbg.declare(metadata %"class.std::__1::__compressed_pair.2"** %23, metadata !5024, metadata !DIExpression()), !dbg !5388
  %24 = alloca %"struct.std::__1::__compressed_pair_elem.3"*, align 8
  call void @llvm.dbg.declare(metadata %"struct.std::__1::__compressed_pair_elem.3"** %24, metadata !5016, metadata !DIExpression()), !dbg !5389
  %25 = alloca %"class.std::__1::__compressed_pair.2"*, align 8
  call void @llvm.dbg.declare(metadata %"class.std::__1::__compressed_pair.2"** %25, metadata !5024, metadata !DIExpression()), !dbg !5392
  %26 = alloca %"class.std::__1::unique_ptr.1"*, align 8
  call void @llvm.dbg.declare(metadata %"class.std::__1::unique_ptr.1"** %26, metadata !5030, metadata !DIExpression()), !dbg !5393
  %27 = alloca %"class.altered_carbon::js::ACAstBaseNode"*, align 8
  call void @llvm.dbg.declare(metadata %"class.altered_carbon::js::ACAstBaseNode"** %27, metadata !5032, metadata !DIExpression()), !dbg !5394
  %28 = alloca %"class.std::__1::unique_ptr.1"*, align 8
  call void @llvm.dbg.declare(metadata %"class.std::__1::unique_ptr.1"** %28, metadata !5034, metadata !DIExpression()), !dbg !5395
  %29 = alloca %"class.std::__1::unique_ptr.1"*, align 8
  call void @llvm.dbg.declare(metadata %"class.std::__1::unique_ptr.1"** %29, metadata !5036, metadata !DIExpression()), !dbg !5396
  %30 = alloca %"class.altered_carbon::js::ACAstBaseNode"*, align 8
  %31 = alloca %"class.std::__1::unique_ptr.1"*, align 8
  call void @llvm.dbg.declare(metadata %"class.std::__1::unique_ptr.1"** %31, metadata !5038, metadata !DIExpression()), !dbg !5397
  %32 = alloca %"class.std::__1::unique_ptr.1"*, align 8
  call void @llvm.dbg.declare(metadata %"class.std::__1::unique_ptr.1"** %32, metadata !5040, metadata !DIExpression()), !dbg !5398
  %33 = alloca %"class.std::__1::unique_ptr.1"*, align 8
  call void @llvm.dbg.declare(metadata %"class.std::__1::unique_ptr.1"** %33, metadata !4933, metadata !DIExpression()), !dbg !5399
  %34 = alloca %"struct.std::__1::__compressed_pair_elem.4"*, align 8
  call void @llvm.dbg.declare(metadata %"struct.std::__1::__compressed_pair_elem.4"** %34, metadata !4944, metadata !DIExpression()), !dbg !5401
  %35 = alloca %"class.std::__1::__compressed_pair.2"*, align 8
  call void @llvm.dbg.declare(metadata %"class.std::__1::__compressed_pair.2"** %35, metadata !4957, metadata !DIExpression()), !dbg !5412
  %36 = alloca %"struct.std::__1::__compressed_pair_elem.3"*, align 8
  call void @llvm.dbg.declare(metadata %"struct.std::__1::__compressed_pair_elem.3"** %36, metadata !5016, metadata !DIExpression()), !dbg !5413
  %37 = alloca %"class.std::__1::__compressed_pair.2"*, align 8
  call void @llvm.dbg.declare(metadata %"class.std::__1::__compressed_pair.2"** %37, metadata !5024, metadata !DIExpression()), !dbg !5416
  %38 = alloca %"struct.std::__1::default_delete.5"*, align 8
  call void @llvm.dbg.declare(metadata %"struct.std::__1::default_delete.5"** %38, metadata !5417, metadata !DIExpression()), !dbg !5420
  %39 = alloca %"class.altered_carbon::js::ACAstBaseNode"*, align 8
  call void @llvm.dbg.declare(metadata %"class.altered_carbon::js::ACAstBaseNode"** %39, metadata !5422, metadata !DIExpression()), !dbg !5423
  %40 = alloca %"struct.std::__1::__compressed_pair_elem.3"*, align 8
  call void @llvm.dbg.declare(metadata %"struct.std::__1::__compressed_pair_elem.3"** %40, metadata !5016, metadata !DIExpression()), !dbg !5424
  %41 = alloca %"class.std::__1::__compressed_pair.2"*, align 8
  call void @llvm.dbg.declare(metadata %"class.std::__1::__compressed_pair.2"** %41, metadata !5024, metadata !DIExpression()), !dbg !5427
  %42 = alloca %"class.std::__1::unique_ptr.1"*, align 8
  call void @llvm.dbg.declare(metadata %"class.std::__1::unique_ptr.1"** %42, metadata !5428, metadata !DIExpression()), !dbg !5429
  %43 = alloca %"class.altered_carbon::js::ACAstBaseNode"*, align 8
  call void @llvm.dbg.declare(metadata %"class.altered_carbon::js::ACAstBaseNode"** %43, metadata !5430, metadata !DIExpression()), !dbg !5431
  %44 = alloca %"class.altered_carbon::js::ACAstBaseNode"*, align 8
  call void @llvm.dbg.declare(metadata %"class.altered_carbon::js::ACAstBaseNode"** %44, metadata !5432, metadata !DIExpression()), !dbg !5433
  %45 = alloca %"class.std::__1::unique_ptr.1"*, align 8
  call void @llvm.dbg.declare(metadata %"class.std::__1::unique_ptr.1"** %45, metadata !5434, metadata !DIExpression()), !dbg !5435
  %46 = alloca %"class.std::__1::unique_ptr.1"*, align 8
  call void @llvm.dbg.declare(metadata %"class.std::__1::unique_ptr.1"** %46, metadata !5436, metadata !DIExpression()), !dbg !5437
  %47 = alloca %"struct.std::__1::__compressed_pair_elem.0"*, align 8
  call void @llvm.dbg.declare(metadata %"struct.std::__1::__compressed_pair_elem.0"** %47, metadata !4557, metadata !DIExpression()), !dbg !5438
  %48 = alloca %"class.std::__1::__compressed_pair"*, align 8
  call void @llvm.dbg.declare(metadata %"class.std::__1::__compressed_pair"** %48, metadata !4570, metadata !DIExpression()), !dbg !5444
  %49 = alloca %"class.std::__1::unique_ptr"*, align 8
  call void @llvm.dbg.declare(metadata %"class.std::__1::unique_ptr"** %49, metadata !4573, metadata !DIExpression()), !dbg !5445
  %50 = alloca %"struct.std::__1::default_delete"*, align 8
  call void @llvm.dbg.declare(metadata %"struct.std::__1::default_delete"** %50, metadata !4576, metadata !DIExpression()), !dbg !5446
  %51 = alloca %"struct.altered_carbon::js::ACLexPosition"**, align 8
  call void @llvm.dbg.declare(metadata %"struct.altered_carbon::js::ACLexPosition"*** %51, metadata !4587, metadata !DIExpression()), !dbg !5448
  %52 = alloca %"struct.std::__1::__compressed_pair_elem"*, align 8
  call void @llvm.dbg.declare(metadata %"struct.std::__1::__compressed_pair_elem"** %52, metadata !4616, metadata !DIExpression()), !dbg !5453
  %53 = alloca %"struct.altered_carbon::js::ACLexPosition"**, align 8
  call void @llvm.dbg.declare(metadata %"struct.altered_carbon::js::ACLexPosition"*** %53, metadata !4619, metadata !DIExpression()), !dbg !5454
  %54 = alloca %"struct.std::__1::default_delete"*, align 8
  call void @llvm.dbg.declare(metadata %"struct.std::__1::default_delete"** %54, metadata !4576, metadata !DIExpression()), !dbg !5455
  %55 = alloca %"struct.std::__1::default_delete"*, align 8
  call void @llvm.dbg.declare(metadata %"struct.std::__1::default_delete"** %55, metadata !4576, metadata !DIExpression()), !dbg !5457
  %56 = alloca %"struct.std::__1::__compressed_pair_elem.0"*, align 8
  call void @llvm.dbg.declare(metadata %"struct.std::__1::__compressed_pair_elem.0"** %56, metadata !4632, metadata !DIExpression()), !dbg !5460
  %57 = alloca %"struct.std::__1::default_delete"*, align 8
  call void @llvm.dbg.declare(metadata %"struct.std::__1::default_delete"** %57, metadata !4634, metadata !DIExpression()), !dbg !5461
  %58 = alloca %"struct.altered_carbon::js::ACLexPosition"**, align 8
  call void @llvm.dbg.declare(metadata %"struct.altered_carbon::js::ACLexPosition"*** %58, metadata !4587, metadata !DIExpression()), !dbg !5462
  %59 = alloca %"class.std::__1::__compressed_pair"*, align 8
  call void @llvm.dbg.declare(metadata %"class.std::__1::__compressed_pair"** %59, metadata !4638, metadata !DIExpression()), !dbg !5464
  %60 = alloca %"struct.altered_carbon::js::ACLexPosition"**, align 8
  call void @llvm.dbg.declare(metadata %"struct.altered_carbon::js::ACLexPosition"*** %60, metadata !4640, metadata !DIExpression()), !dbg !5465
  %61 = alloca %"struct.std::__1::default_delete"*, align 8
  call void @llvm.dbg.declare(metadata %"struct.std::__1::default_delete"** %61, metadata !4642, metadata !DIExpression()), !dbg !5466
  %62 = alloca %"class.std::__1::__compressed_pair"*, align 8
  call void @llvm.dbg.declare(metadata %"class.std::__1::__compressed_pair"** %62, metadata !4644, metadata !DIExpression()), !dbg !5467
  %63 = alloca %"struct.altered_carbon::js::ACLexPosition"**, align 8
  call void @llvm.dbg.declare(metadata %"struct.altered_carbon::js::ACLexPosition"*** %63, metadata !4646, metadata !DIExpression()), !dbg !5468
  %64 = alloca %"struct.std::__1::default_delete"*, align 8
  call void @llvm.dbg.declare(metadata %"struct.std::__1::default_delete"** %64, metadata !4648, metadata !DIExpression()), !dbg !5469
  %65 = alloca %"struct.std::__1::__compressed_pair_elem"*, align 8
  call void @llvm.dbg.declare(metadata %"struct.std::__1::__compressed_pair_elem"** %65, metadata !4650, metadata !DIExpression()), !dbg !5470
  %66 = alloca %"class.std::__1::__compressed_pair"*, align 8
  call void @llvm.dbg.declare(metadata %"class.std::__1::__compressed_pair"** %66, metadata !4658, metadata !DIExpression()), !dbg !5474
  %67 = alloca %"struct.std::__1::__compressed_pair_elem"*, align 8
  call void @llvm.dbg.declare(metadata %"struct.std::__1::__compressed_pair_elem"** %67, metadata !4650, metadata !DIExpression()), !dbg !5475
  %68 = alloca %"class.std::__1::__compressed_pair"*, align 8
  call void @llvm.dbg.declare(metadata %"class.std::__1::__compressed_pair"** %68, metadata !4658, metadata !DIExpression()), !dbg !5478
  %69 = alloca %"class.std::__1::unique_ptr"*, align 8
  call void @llvm.dbg.declare(metadata %"class.std::__1::unique_ptr"** %69, metadata !4664, metadata !DIExpression()), !dbg !5479
  %70 = alloca %"struct.altered_carbon::js::ACLexPosition"*, align 8
  call void @llvm.dbg.declare(metadata %"struct.altered_carbon::js::ACLexPosition"** %70, metadata !4666, metadata !DIExpression()), !dbg !5480
  %71 = alloca %"class.std::__1::unique_ptr"*, align 8
  call void @llvm.dbg.declare(metadata %"class.std::__1::unique_ptr"** %71, metadata !4668, metadata !DIExpression()), !dbg !5481
  %72 = alloca %"class.std::__1::unique_ptr"*, align 8
  call void @llvm.dbg.declare(metadata %"class.std::__1::unique_ptr"** %72, metadata !4670, metadata !DIExpression()), !dbg !5482
  %73 = alloca %"struct.altered_carbon::js::ACLexPosition"*, align 8
  %74 = alloca %"class.std::__1::unique_ptr"*, align 8
  call void @llvm.dbg.declare(metadata %"class.std::__1::unique_ptr"** %74, metadata !4672, metadata !DIExpression()), !dbg !5483
  %75 = alloca %"class.std::__1::unique_ptr"*, align 8
  call void @llvm.dbg.declare(metadata %"class.std::__1::unique_ptr"** %75, metadata !4674, metadata !DIExpression()), !dbg !5484
  %76 = alloca %"struct.std::__1::__compressed_pair_elem.0"*, align 8
  call void @llvm.dbg.declare(metadata %"struct.std::__1::__compressed_pair_elem.0"** %76, metadata !4557, metadata !DIExpression()), !dbg !5485
  %77 = alloca %"class.std::__1::__compressed_pair"*, align 8
  call void @llvm.dbg.declare(metadata %"class.std::__1::__compressed_pair"** %77, metadata !4570, metadata !DIExpression()), !dbg !5491
  %78 = alloca %"struct.std::__1::__compressed_pair_elem"*, align 8
  call void @llvm.dbg.declare(metadata %"struct.std::__1::__compressed_pair_elem"** %78, metadata !4650, metadata !DIExpression()), !dbg !5492
  %79 = alloca %"class.std::__1::__compressed_pair"*, align 8
  call void @llvm.dbg.declare(metadata %"class.std::__1::__compressed_pair"** %79, metadata !4658, metadata !DIExpression()), !dbg !5495
  %80 = alloca %"struct.std::__1::default_delete"*, align 8
  call void @llvm.dbg.declare(metadata %"struct.std::__1::default_delete"** %80, metadata !4692, metadata !DIExpression()), !dbg !5496
  %81 = alloca %"struct.altered_carbon::js::ACLexPosition"*, align 8
  call void @llvm.dbg.declare(metadata %"struct.altered_carbon::js::ACLexPosition"** %81, metadata !4697, metadata !DIExpression()), !dbg !5498
  %82 = alloca %"struct.std::__1::__compressed_pair_elem"*, align 8
  call void @llvm.dbg.declare(metadata %"struct.std::__1::__compressed_pair_elem"** %82, metadata !4650, metadata !DIExpression()), !dbg !5499
  %83 = alloca %"class.std::__1::__compressed_pair"*, align 8
  call void @llvm.dbg.declare(metadata %"class.std::__1::__compressed_pair"** %83, metadata !4658, metadata !DIExpression()), !dbg !5502
  %84 = alloca %"class.std::__1::unique_ptr"*, align 8
  call void @llvm.dbg.declare(metadata %"class.std::__1::unique_ptr"** %84, metadata !4703, metadata !DIExpression()), !dbg !5503
  %85 = alloca %"struct.altered_carbon::js::ACLexPosition"*, align 8
  call void @llvm.dbg.declare(metadata %"struct.altered_carbon::js::ACLexPosition"** %85, metadata !4705, metadata !DIExpression()), !dbg !5504
  %86 = alloca %"struct.altered_carbon::js::ACLexPosition"*, align 8
  call void @llvm.dbg.declare(metadata %"struct.altered_carbon::js::ACLexPosition"** %86, metadata !4707, metadata !DIExpression()), !dbg !5505
  %87 = alloca %"class.std::__1::unique_ptr"*, align 8
  call void @llvm.dbg.declare(metadata %"class.std::__1::unique_ptr"** %87, metadata !4709, metadata !DIExpression()), !dbg !5506
  %88 = alloca %"class.std::__1::unique_ptr"*, align 8
  call void @llvm.dbg.declare(metadata %"class.std::__1::unique_ptr"** %88, metadata !4711, metadata !DIExpression()), !dbg !5507
  %89 = alloca %"class.std::__1::unique_ptr"*, align 8
  call void @llvm.dbg.declare(metadata %"class.std::__1::unique_ptr"** %89, metadata !4766, metadata !DIExpression()), !dbg !5508
  %90 = alloca %"class.altered_carbon::js::ACAstSyntaxError"*, align 8
  %91 = alloca %"class.std::__1::unique_ptr", align 8
  %92 = alloca %"class.std::__1::unique_ptr.1", align 8
  store %"class.altered_carbon::js::ACAstSyntaxError"* %0, %"class.altered_carbon::js::ACAstSyntaxError"** %90, align 8
  call void @llvm.dbg.declare(metadata %"class.altered_carbon::js::ACAstSyntaxError"** %90, metadata !5510, metadata !DIExpression()), !dbg !5512
  call void @llvm.dbg.declare(metadata %"class.std::__1::unique_ptr"* %1, metadata !5513, metadata !DIExpression()), !dbg !5514
  call void @llvm.dbg.declare(metadata %"class.std::__1::unique_ptr.1"* %2, metadata !5515, metadata !DIExpression()), !dbg !5516
  %93 = load %"class.altered_carbon::js::ACAstSyntaxError"*, %"class.altered_carbon::js::ACAstSyntaxError"** %90, align 8
  %94 = bitcast %"class.altered_carbon::js::ACAstSyntaxError"* %93 to %"class.altered_carbon::js::ACAstBaseError"*, !dbg !5517
  store %"class.std::__1::unique_ptr"* %1, %"class.std::__1::unique_ptr"** %89, align 8
  %95 = load %"class.std::__1::unique_ptr"*, %"class.std::__1::unique_ptr"** %89, align 8, !dbg !5518
  store %"class.std::__1::unique_ptr"* %91, %"class.std::__1::unique_ptr"** %74, align 8
  store %"class.std::__1::unique_ptr"* %95, %"class.std::__1::unique_ptr"** %75, align 8
  %96 = load %"class.std::__1::unique_ptr"*, %"class.std::__1::unique_ptr"** %74, align 8
  %97 = load %"class.std::__1::unique_ptr"*, %"class.std::__1::unique_ptr"** %75, align 8, !dbg !5519
  store %"class.std::__1::unique_ptr"* %96, %"class.std::__1::unique_ptr"** %71, align 8
  store %"class.std::__1::unique_ptr"* %97, %"class.std::__1::unique_ptr"** %72, align 8
  %98 = load %"class.std::__1::unique_ptr"*, %"class.std::__1::unique_ptr"** %71, align 8
  %99 = getelementptr inbounds %"class.std::__1::unique_ptr", %"class.std::__1::unique_ptr"* %98, i32 0, i32 0, !dbg !5520
  %100 = load %"class.std::__1::unique_ptr"*, %"class.std::__1::unique_ptr"** %72, align 8, !dbg !5521
  store %"class.std::__1::unique_ptr"* %100, %"class.std::__1::unique_ptr"** %69, align 8
  %101 = load %"class.std::__1::unique_ptr"*, %"class.std::__1::unique_ptr"** %69, align 8
  %102 = getelementptr inbounds %"class.std::__1::unique_ptr", %"class.std::__1::unique_ptr"* %101, i32 0, i32 0, !dbg !5522
  store %"class.std::__1::__compressed_pair"* %102, %"class.std::__1::__compressed_pair"** %68, align 8
  %103 = load %"class.std::__1::__compressed_pair"*, %"class.std::__1::__compressed_pair"** %68, align 8
  %104 = bitcast %"class.std::__1::__compressed_pair"* %103 to %"struct.std::__1::__compressed_pair_elem"*, !dbg !5523
  store %"struct.std::__1::__compressed_pair_elem"* %104, %"struct.std::__1::__compressed_pair_elem"** %67, align 8
  %105 = load %"struct.std::__1::__compressed_pair_elem"*, %"struct.std::__1::__compressed_pair_elem"** %67, align 8
  %106 = getelementptr inbounds %"struct.std::__1::__compressed_pair_elem", %"struct.std::__1::__compressed_pair_elem"* %105, i32 0, i32 0, !dbg !5524
  %107 = load %"struct.altered_carbon::js::ACLexPosition"*, %"struct.altered_carbon::js::ACLexPosition"** %106, align 8, !dbg !5525
  store %"struct.altered_carbon::js::ACLexPosition"* %107, %"struct.altered_carbon::js::ACLexPosition"** %70, align 8, !dbg !5480
  %108 = getelementptr inbounds %"class.std::__1::unique_ptr", %"class.std::__1::unique_ptr"* %101, i32 0, i32 0, !dbg !5526
  store %"class.std::__1::__compressed_pair"* %108, %"class.std::__1::__compressed_pair"** %66, align 8
  %109 = load %"class.std::__1::__compressed_pair"*, %"class.std::__1::__compressed_pair"** %66, align 8
  %110 = bitcast %"class.std::__1::__compressed_pair"* %109 to %"struct.std::__1::__compressed_pair_elem"*, !dbg !5527
  store %"struct.std::__1::__compressed_pair_elem"* %110, %"struct.std::__1::__compressed_pair_elem"** %65, align 8
  %111 = load %"struct.std::__1::__compressed_pair_elem"*, %"struct.std::__1::__compressed_pair_elem"** %65, align 8
  %112 = getelementptr inbounds %"struct.std::__1::__compressed_pair_elem", %"struct.std::__1::__compressed_pair_elem"* %111, i32 0, i32 0, !dbg !5528
  store %"struct.altered_carbon::js::ACLexPosition"* null, %"struct.altered_carbon::js::ACLexPosition"** %112, align 8, !dbg !5529
  %113 = load %"struct.altered_carbon::js::ACLexPosition"*, %"struct.altered_carbon::js::ACLexPosition"** %70, align 8, !dbg !5530
  store %"struct.altered_carbon::js::ACLexPosition"* %113, %"struct.altered_carbon::js::ACLexPosition"** %73, align 8, !dbg !5521
  %114 = load %"class.std::__1::unique_ptr"*, %"class.std::__1::unique_ptr"** %72, align 8, !dbg !5531
  store %"class.std::__1::unique_ptr"* %114, %"class.std::__1::unique_ptr"** %49, align 8
  %115 = load %"class.std::__1::unique_ptr"*, %"class.std::__1::unique_ptr"** %49, align 8
  %116 = getelementptr inbounds %"class.std::__1::unique_ptr", %"class.std::__1::unique_ptr"* %115, i32 0, i32 0, !dbg !5532
  store %"class.std::__1::__compressed_pair"* %116, %"class.std::__1::__compressed_pair"** %48, align 8
  %117 = load %"class.std::__1::__compressed_pair"*, %"class.std::__1::__compressed_pair"** %48, align 8
  %118 = bitcast %"class.std::__1::__compressed_pair"* %117 to %"struct.std::__1::__compressed_pair_elem.0"*, !dbg !5533
  store %"struct.std::__1::__compressed_pair_elem.0"* %118, %"struct.std::__1::__compressed_pair_elem.0"** %47, align 8
  %119 = load %"struct.std::__1::__compressed_pair_elem.0"*, %"struct.std::__1::__compressed_pair_elem.0"** %47, align 8
  %120 = bitcast %"struct.std::__1::__compressed_pair_elem.0"* %119 to %"struct.std::__1::default_delete"*, !dbg !5534
  store %"struct.std::__1::default_delete"* %120, %"struct.std::__1::default_delete"** %50, align 8
  %121 = load %"struct.std::__1::default_delete"*, %"struct.std::__1::default_delete"** %50, align 8, !dbg !5535
  store %"class.std::__1::__compressed_pair"* %99, %"class.std::__1::__compressed_pair"** %62, align 8
  store %"struct.altered_carbon::js::ACLexPosition"** %73, %"struct.altered_carbon::js::ACLexPosition"*** %63, align 8
  store %"struct.std::__1::default_delete"* %121, %"struct.std::__1::default_delete"** %64, align 8
  %122 = load %"class.std::__1::__compressed_pair"*, %"class.std::__1::__compressed_pair"** %62, align 8
  %123 = load %"struct.altered_carbon::js::ACLexPosition"**, %"struct.altered_carbon::js::ACLexPosition"*** %63, align 8, !dbg !5536
  %124 = load %"struct.std::__1::default_delete"*, %"struct.std::__1::default_delete"** %64, align 8, !dbg !5536
  store %"class.std::__1::__compressed_pair"* %122, %"class.std::__1::__compressed_pair"** %59, align 8
  store %"struct.altered_carbon::js::ACLexPosition"** %123, %"struct.altered_carbon::js::ACLexPosition"*** %60, align 8
  store %"struct.std::__1::default_delete"* %124, %"struct.std::__1::default_delete"** %61, align 8
  %125 = load %"class.std::__1::__compressed_pair"*, %"class.std::__1::__compressed_pair"** %59, align 8
  %126 = bitcast %"class.std::__1::__compressed_pair"* %125 to %"struct.std::__1::__compressed_pair_elem"*, !dbg !5537
  %127 = load %"struct.altered_carbon::js::ACLexPosition"**, %"struct.altered_carbon::js::ACLexPosition"*** %60, align 8, !dbg !5538
  store %"struct.altered_carbon::js::ACLexPosition"** %127, %"struct.altered_carbon::js::ACLexPosition"*** %58, align 8
  %128 = load %"struct.altered_carbon::js::ACLexPosition"**, %"struct.altered_carbon::js::ACLexPosition"*** %58, align 8, !dbg !5539
  store %"struct.std::__1::__compressed_pair_elem"* %126, %"struct.std::__1::__compressed_pair_elem"** %52, align 8
  store %"struct.altered_carbon::js::ACLexPosition"** %128, %"struct.altered_carbon::js::ACLexPosition"*** %53, align 8
  %129 = load %"struct.std::__1::__compressed_pair_elem"*, %"struct.std::__1::__compressed_pair_elem"** %52, align 8
  %130 = getelementptr inbounds %"struct.std::__1::__compressed_pair_elem", %"struct.std::__1::__compressed_pair_elem"* %129, i32 0, i32 0, !dbg !5540
  %131 = load %"struct.altered_carbon::js::ACLexPosition"**, %"struct.altered_carbon::js::ACLexPosition"*** %53, align 8, !dbg !5541
  store %"struct.altered_carbon::js::ACLexPosition"** %131, %"struct.altered_carbon::js::ACLexPosition"*** %51, align 8
  %132 = load %"struct.altered_carbon::js::ACLexPosition"**, %"struct.altered_carbon::js::ACLexPosition"*** %51, align 8, !dbg !5542
  %133 = load %"struct.altered_carbon::js::ACLexPosition"*, %"struct.altered_carbon::js::ACLexPosition"** %132, align 8, !dbg !5543
  store %"struct.altered_carbon::js::ACLexPosition"* %133, %"struct.altered_carbon::js::ACLexPosition"** %130, align 8, !dbg !5540
  %134 = bitcast %"class.std::__1::__compressed_pair"* %125 to %"struct.std::__1::__compressed_pair_elem.0"*, !dbg !5537
  %135 = load %"struct.std::__1::default_delete"*, %"struct.std::__1::default_delete"** %61, align 8, !dbg !5544
  store %"struct.std::__1::default_delete"* %135, %"struct.std::__1::default_delete"** %54, align 8
  %136 = load %"struct.std::__1::default_delete"*, %"struct.std::__1::default_delete"** %54, align 8, !dbg !5545
  store %"struct.std::__1::__compressed_pair_elem.0"* %134, %"struct.std::__1::__compressed_pair_elem.0"** %56, align 8
  store %"struct.std::__1::default_delete"* %136, %"struct.std::__1::default_delete"** %57, align 8
  %137 = load %"struct.std::__1::__compressed_pair_elem.0"*, %"struct.std::__1::__compressed_pair_elem.0"** %56, align 8
  %138 = bitcast %"struct.std::__1::__compressed_pair_elem.0"* %137 to %"struct.std::__1::default_delete"*, !dbg !5546
  %139 = load %"struct.std::__1::default_delete"*, %"struct.std::__1::default_delete"** %57, align 8, !dbg !5547
  store %"struct.std::__1::default_delete"* %139, %"struct.std::__1::default_delete"** %55, align 8
  %140 = load %"struct.std::__1::default_delete"*, %"struct.std::__1::default_delete"** %55, align 8, !dbg !5548
  store %"class.std::__1::unique_ptr.1"* %2, %"class.std::__1::unique_ptr.1"** %33, align 8
  %141 = load %"class.std::__1::unique_ptr.1"*, %"class.std::__1::unique_ptr.1"** %33, align 8, !dbg !5549
  store %"class.std::__1::unique_ptr.1"* %92, %"class.std::__1::unique_ptr.1"** %31, align 8
  store %"class.std::__1::unique_ptr.1"* %141, %"class.std::__1::unique_ptr.1"** %32, align 8
  %142 = load %"class.std::__1::unique_ptr.1"*, %"class.std::__1::unique_ptr.1"** %31, align 8
  %143 = load %"class.std::__1::unique_ptr.1"*, %"class.std::__1::unique_ptr.1"** %32, align 8, !dbg !5550
  store %"class.std::__1::unique_ptr.1"* %142, %"class.std::__1::unique_ptr.1"** %28, align 8
  store %"class.std::__1::unique_ptr.1"* %143, %"class.std::__1::unique_ptr.1"** %29, align 8
  %144 = load %"class.std::__1::unique_ptr.1"*, %"class.std::__1::unique_ptr.1"** %28, align 8
  %145 = getelementptr inbounds %"class.std::__1::unique_ptr.1", %"class.std::__1::unique_ptr.1"* %144, i32 0, i32 0, !dbg !5551
  %146 = load %"class.std::__1::unique_ptr.1"*, %"class.std::__1::unique_ptr.1"** %29, align 8, !dbg !5552
  store %"class.std::__1::unique_ptr.1"* %146, %"class.std::__1::unique_ptr.1"** %26, align 8
  %147 = load %"class.std::__1::unique_ptr.1"*, %"class.std::__1::unique_ptr.1"** %26, align 8
  %148 = getelementptr inbounds %"class.std::__1::unique_ptr.1", %"class.std::__1::unique_ptr.1"* %147, i32 0, i32 0, !dbg !5553
  store %"class.std::__1::__compressed_pair.2"* %148, %"class.std::__1::__compressed_pair.2"** %25, align 8
  %149 = load %"class.std::__1::__compressed_pair.2"*, %"class.std::__1::__compressed_pair.2"** %25, align 8
  %150 = bitcast %"class.std::__1::__compressed_pair.2"* %149 to %"struct.std::__1::__compressed_pair_elem.3"*, !dbg !5554
  store %"struct.std::__1::__compressed_pair_elem.3"* %150, %"struct.std::__1::__compressed_pair_elem.3"** %24, align 8
  %151 = load %"struct.std::__1::__compressed_pair_elem.3"*, %"struct.std::__1::__compressed_pair_elem.3"** %24, align 8
  %152 = getelementptr inbounds %"struct.std::__1::__compressed_pair_elem.3", %"struct.std::__1::__compressed_pair_elem.3"* %151, i32 0, i32 0, !dbg !5555
  %153 = load %"class.altered_carbon::js::ACAstBaseNode"*, %"class.altered_carbon::js::ACAstBaseNode"** %152, align 8, !dbg !5556
  store %"class.altered_carbon::js::ACAstBaseNode"* %153, %"class.altered_carbon::js::ACAstBaseNode"** %27, align 8, !dbg !5394
  %154 = getelementptr inbounds %"class.std::__1::unique_ptr.1", %"class.std::__1::unique_ptr.1"* %147, i32 0, i32 0, !dbg !5557
  store %"class.std::__1::__compressed_pair.2"* %154, %"class.std::__1::__compressed_pair.2"** %23, align 8
  %155 = load %"class.std::__1::__compressed_pair.2"*, %"class.std::__1::__compressed_pair.2"** %23, align 8
  %156 = bitcast %"class.std::__1::__compressed_pair.2"* %155 to %"struct.std::__1::__compressed_pair_elem.3"*, !dbg !5558
  store %"struct.std::__1::__compressed_pair_elem.3"* %156, %"struct.std::__1::__compressed_pair_elem.3"** %22, align 8
  %157 = load %"struct.std::__1::__compressed_pair_elem.3"*, %"struct.std::__1::__compressed_pair_elem.3"** %22, align 8
  %158 = getelementptr inbounds %"struct.std::__1::__compressed_pair_elem.3", %"struct.std::__1::__compressed_pair_elem.3"* %157, i32 0, i32 0, !dbg !5559
  store %"class.altered_carbon::js::ACAstBaseNode"* null, %"class.altered_carbon::js::ACAstBaseNode"** %158, align 8, !dbg !5560
  %159 = load %"class.altered_carbon::js::ACAstBaseNode"*, %"class.altered_carbon::js::ACAstBaseNode"** %27, align 8, !dbg !5561
  store %"class.altered_carbon::js::ACAstBaseNode"* %159, %"class.altered_carbon::js::ACAstBaseNode"** %30, align 8, !dbg !5552
  %160 = load %"class.std::__1::unique_ptr.1"*, %"class.std::__1::unique_ptr.1"** %29, align 8, !dbg !5562
  store %"class.std::__1::unique_ptr.1"* %160, %"class.std::__1::unique_ptr.1"** %6, align 8
  %161 = load %"class.std::__1::unique_ptr.1"*, %"class.std::__1::unique_ptr.1"** %6, align 8
  %162 = getelementptr inbounds %"class.std::__1::unique_ptr.1", %"class.std::__1::unique_ptr.1"* %161, i32 0, i32 0, !dbg !5563
  store %"class.std::__1::__compressed_pair.2"* %162, %"class.std::__1::__compressed_pair.2"** %5, align 8
  %163 = load %"class.std::__1::__compressed_pair.2"*, %"class.std::__1::__compressed_pair.2"** %5, align 8
  %164 = bitcast %"class.std::__1::__compressed_pair.2"* %163 to %"struct.std::__1::__compressed_pair_elem.4"*, !dbg !5564
  store %"struct.std::__1::__compressed_pair_elem.4"* %164, %"struct.std::__1::__compressed_pair_elem.4"** %4, align 8
  %165 = load %"struct.std::__1::__compressed_pair_elem.4"*, %"struct.std::__1::__compressed_pair_elem.4"** %4, align 8
  %166 = bitcast %"struct.std::__1::__compressed_pair_elem.4"* %165 to %"struct.std::__1::default_delete.5"*, !dbg !5565
  store %"struct.std::__1::default_delete.5"* %166, %"struct.std::__1::default_delete.5"** %7, align 8
  %167 = load %"struct.std::__1::default_delete.5"*, %"struct.std::__1::default_delete.5"** %7, align 8, !dbg !5566
  store %"class.std::__1::__compressed_pair.2"* %145, %"class.std::__1::__compressed_pair.2"** %19, align 8
  store %"class.altered_carbon::js::ACAstBaseNode"** %30, %"class.altered_carbon::js::ACAstBaseNode"*** %20, align 8
  store %"struct.std::__1::default_delete.5"* %167, %"struct.std::__1::default_delete.5"** %21, align 8
  %168 = load %"class.std::__1::__compressed_pair.2"*, %"class.std::__1::__compressed_pair.2"** %19, align 8
  %169 = load %"class.altered_carbon::js::ACAstBaseNode"**, %"class.altered_carbon::js::ACAstBaseNode"*** %20, align 8, !dbg !5567
  %170 = load %"struct.std::__1::default_delete.5"*, %"struct.std::__1::default_delete.5"** %21, align 8, !dbg !5567
  store %"class.std::__1::__compressed_pair.2"* %168, %"class.std::__1::__compressed_pair.2"** %16, align 8
  store %"class.altered_carbon::js::ACAstBaseNode"** %169, %"class.altered_carbon::js::ACAstBaseNode"*** %17, align 8
  store %"struct.std::__1::default_delete.5"* %170, %"struct.std::__1::default_delete.5"** %18, align 8
  %171 = load %"class.std::__1::__compressed_pair.2"*, %"class.std::__1::__compressed_pair.2"** %16, align 8
  %172 = bitcast %"class.std::__1::__compressed_pair.2"* %171 to %"struct.std::__1::__compressed_pair_elem.3"*, !dbg !5568
  %173 = load %"class.altered_carbon::js::ACAstBaseNode"**, %"class.altered_carbon::js::ACAstBaseNode"*** %17, align 8, !dbg !5569
  store %"class.altered_carbon::js::ACAstBaseNode"** %173, %"class.altered_carbon::js::ACAstBaseNode"*** %15, align 8
  %174 = load %"class.altered_carbon::js::ACAstBaseNode"**, %"class.altered_carbon::js::ACAstBaseNode"*** %15, align 8, !dbg !5570
  store %"struct.std::__1::__compressed_pair_elem.3"* %172, %"struct.std::__1::__compressed_pair_elem.3"** %9, align 8
  store %"class.altered_carbon::js::ACAstBaseNode"** %174, %"class.altered_carbon::js::ACAstBaseNode"*** %10, align 8
  %175 = load %"struct.std::__1::__compressed_pair_elem.3"*, %"struct.std::__1::__compressed_pair_elem.3"** %9, align 8
  %176 = getelementptr inbounds %"struct.std::__1::__compressed_pair_elem.3", %"struct.std::__1::__compressed_pair_elem.3"* %175, i32 0, i32 0, !dbg !5571
  %177 = load %"class.altered_carbon::js::ACAstBaseNode"**, %"class.altered_carbon::js::ACAstBaseNode"*** %10, align 8, !dbg !5572
  store %"class.altered_carbon::js::ACAstBaseNode"** %177, %"class.altered_carbon::js::ACAstBaseNode"*** %8, align 8
  %178 = load %"class.altered_carbon::js::ACAstBaseNode"**, %"class.altered_carbon::js::ACAstBaseNode"*** %8, align 8, !dbg !5573
  %179 = load %"class.altered_carbon::js::ACAstBaseNode"*, %"class.altered_carbon::js::ACAstBaseNode"** %178, align 8, !dbg !5574
  store %"class.altered_carbon::js::ACAstBaseNode"* %179, %"class.altered_carbon::js::ACAstBaseNode"** %176, align 8, !dbg !5571
  %180 = bitcast %"class.std::__1::__compressed_pair.2"* %171 to %"struct.std::__1::__compressed_pair_elem.4"*, !dbg !5568
  %181 = load %"struct.std::__1::default_delete.5"*, %"struct.std::__1::default_delete.5"** %18, align 8, !dbg !5575
  store %"struct.std::__1::default_delete.5"* %181, %"struct.std::__1::default_delete.5"** %11, align 8
  %182 = load %"struct.std::__1::default_delete.5"*, %"struct.std::__1::default_delete.5"** %11, align 8, !dbg !5576
  store %"struct.std::__1::__compressed_pair_elem.4"* %180, %"struct.std::__1::__compressed_pair_elem.4"** %13, align 8
  store %"struct.std::__1::default_delete.5"* %182, %"struct.std::__1::default_delete.5"** %14, align 8
  %183 = load %"struct.std::__1::__compressed_pair_elem.4"*, %"struct.std::__1::__compressed_pair_elem.4"** %13, align 8
  %184 = bitcast %"struct.std::__1::__compressed_pair_elem.4"* %183 to %"struct.std::__1::default_delete.5"*, !dbg !5577
  %185 = load %"struct.std::__1::default_delete.5"*, %"struct.std::__1::default_delete.5"** %14, align 8, !dbg !5578
  store %"struct.std::__1::default_delete.5"* %185, %"struct.std::__1::default_delete.5"** %12, align 8
  %186 = load %"struct.std::__1::default_delete.5"*, %"struct.std::__1::default_delete.5"** %12, align 8, !dbg !5579
  call void @_ZN14altered_carbon2js14ACAstBaseErrorC2ENSt3__110unique_ptrINS0_13ACLexPositionENS2_14default_deleteIS4_EEEENS0_13ACAstBaseNode14AstNodeSubTypeENS3_IS8_NS5_IS8_EEEE(%"class.altered_carbon::js::ACAstBaseError"* %94, %"class.std::__1::unique_ptr"* %91, i32 102, %"class.std::__1::unique_ptr.1"* %92), !dbg !5580
  store %"class.std::__1::unique_ptr.1"* %92, %"class.std::__1::unique_ptr.1"** %46, align 8
  %187 = load %"class.std::__1::unique_ptr.1"*, %"class.std::__1::unique_ptr.1"** %46, align 8
  store %"class.std::__1::unique_ptr.1"* %187, %"class.std::__1::unique_ptr.1"** %45, align 8
  %188 = load %"class.std::__1::unique_ptr.1"*, %"class.std::__1::unique_ptr.1"** %45, align 8
  store %"class.std::__1::unique_ptr.1"* %188, %"class.std::__1::unique_ptr.1"** %42, align 8
  store %"class.altered_carbon::js::ACAstBaseNode"* null, %"class.altered_carbon::js::ACAstBaseNode"** %43, align 8
  %189 = load %"class.std::__1::unique_ptr.1"*, %"class.std::__1::unique_ptr.1"** %42, align 8
  %190 = getelementptr inbounds %"class.std::__1::unique_ptr.1", %"class.std::__1::unique_ptr.1"* %189, i32 0, i32 0, !dbg !5581
  store %"class.std::__1::__compressed_pair.2"* %190, %"class.std::__1::__compressed_pair.2"** %41, align 8
  %191 = load %"class.std::__1::__compressed_pair.2"*, %"class.std::__1::__compressed_pair.2"** %41, align 8
  %192 = bitcast %"class.std::__1::__compressed_pair.2"* %191 to %"struct.std::__1::__compressed_pair_elem.3"*, !dbg !5582
  store %"struct.std::__1::__compressed_pair_elem.3"* %192, %"struct.std::__1::__compressed_pair_elem.3"** %40, align 8
  %193 = load %"struct.std::__1::__compressed_pair_elem.3"*, %"struct.std::__1::__compressed_pair_elem.3"** %40, align 8
  %194 = getelementptr inbounds %"struct.std::__1::__compressed_pair_elem.3", %"struct.std::__1::__compressed_pair_elem.3"* %193, i32 0, i32 0, !dbg !5583
  %195 = load %"class.altered_carbon::js::ACAstBaseNode"*, %"class.altered_carbon::js::ACAstBaseNode"** %194, align 8, !dbg !5584
  store %"class.altered_carbon::js::ACAstBaseNode"* %195, %"class.altered_carbon::js::ACAstBaseNode"** %44, align 8, !dbg !5433
  %196 = load %"class.altered_carbon::js::ACAstBaseNode"*, %"class.altered_carbon::js::ACAstBaseNode"** %43, align 8, !dbg !5585
  %197 = getelementptr inbounds %"class.std::__1::unique_ptr.1", %"class.std::__1::unique_ptr.1"* %189, i32 0, i32 0, !dbg !5586
  store %"class.std::__1::__compressed_pair.2"* %197, %"class.std::__1::__compressed_pair.2"** %37, align 8
  %198 = load %"class.std::__1::__compressed_pair.2"*, %"class.std::__1::__compressed_pair.2"** %37, align 8
  %199 = bitcast %"class.std::__1::__compressed_pair.2"* %198 to %"struct.std::__1::__compressed_pair_elem.3"*, !dbg !5587
  store %"struct.std::__1::__compressed_pair_elem.3"* %199, %"struct.std::__1::__compressed_pair_elem.3"** %36, align 8
  %200 = load %"struct.std::__1::__compressed_pair_elem.3"*, %"struct.std::__1::__compressed_pair_elem.3"** %36, align 8
  %201 = getelementptr inbounds %"struct.std::__1::__compressed_pair_elem.3", %"struct.std::__1::__compressed_pair_elem.3"* %200, i32 0, i32 0, !dbg !5588
  store %"class.altered_carbon::js::ACAstBaseNode"* %196, %"class.altered_carbon::js::ACAstBaseNode"** %201, align 8, !dbg !5589
  %202 = load %"class.altered_carbon::js::ACAstBaseNode"*, %"class.altered_carbon::js::ACAstBaseNode"** %44, align 8, !dbg !5590
  %203 = icmp ne %"class.altered_carbon::js::ACAstBaseNode"* %202, null, !dbg !5590
  br i1 %203, label %204, label %220, !dbg !5591

; <label>:204:                                    ; preds = %3
  %205 = getelementptr inbounds %"class.std::__1::unique_ptr.1", %"class.std::__1::unique_ptr.1"* %189, i32 0, i32 0, !dbg !5592
  store %"class.std::__1::__compressed_pair.2"* %205, %"class.std::__1::__compressed_pair.2"** %35, align 8
  %206 = load %"class.std::__1::__compressed_pair.2"*, %"class.std::__1::__compressed_pair.2"** %35, align 8
  %207 = bitcast %"class.std::__1::__compressed_pair.2"* %206 to %"struct.std::__1::__compressed_pair_elem.4"*, !dbg !5593
  store %"struct.std::__1::__compressed_pair_elem.4"* %207, %"struct.std::__1::__compressed_pair_elem.4"** %34, align 8
  %208 = load %"struct.std::__1::__compressed_pair_elem.4"*, %"struct.std::__1::__compressed_pair_elem.4"** %34, align 8
  %209 = bitcast %"struct.std::__1::__compressed_pair_elem.4"* %208 to %"struct.std::__1::default_delete.5"*, !dbg !5594
  %210 = load %"class.altered_carbon::js::ACAstBaseNode"*, %"class.altered_carbon::js::ACAstBaseNode"** %44, align 8, !dbg !5595
  store %"struct.std::__1::default_delete.5"* %209, %"struct.std::__1::default_delete.5"** %38, align 8
  store %"class.altered_carbon::js::ACAstBaseNode"* %210, %"class.altered_carbon::js::ACAstBaseNode"** %39, align 8
  %211 = load %"struct.std::__1::default_delete.5"*, %"struct.std::__1::default_delete.5"** %38, align 8
  %212 = load %"class.altered_carbon::js::ACAstBaseNode"*, %"class.altered_carbon::js::ACAstBaseNode"** %39, align 8, !dbg !5596
  %213 = icmp eq %"class.altered_carbon::js::ACAstBaseNode"* %212, null, !dbg !5597
  br i1 %213, label %219, label %214, !dbg !5597

; <label>:214:                                    ; preds = %204
  %215 = bitcast %"class.altered_carbon::js::ACAstBaseNode"* %212 to void (%"class.altered_carbon::js::ACAstBaseNode"*)***, !dbg !5597
  %216 = load void (%"class.altered_carbon::js::ACAstBaseNode"*)**, void (%"class.altered_carbon::js::ACAstBaseNode"*)*** %215, align 8, !dbg !5597
  %217 = getelementptr inbounds void (%"class.altered_carbon::js::ACAstBaseNode"*)*, void (%"class.altered_carbon::js::ACAstBaseNode"*)** %216, i64 1, !dbg !5597
  %218 = load void (%"class.altered_carbon::js::ACAstBaseNode"*)*, void (%"class.altered_carbon::js::ACAstBaseNode"*)** %217, align 8, !dbg !5597
  call void %218(%"class.altered_carbon::js::ACAstBaseNode"* %212) #6, !dbg !5597
  br label %219, !dbg !5597

; <label>:219:                                    ; preds = %214, %204
  br label %220, !dbg !5592

; <label>:220:                                    ; preds = %3, %219
  store %"class.std::__1::unique_ptr"* %91, %"class.std::__1::unique_ptr"** %88, align 8
  %221 = load %"class.std::__1::unique_ptr"*, %"class.std::__1::unique_ptr"** %88, align 8
  store %"class.std::__1::unique_ptr"* %221, %"class.std::__1::unique_ptr"** %87, align 8
  %222 = load %"class.std::__1::unique_ptr"*, %"class.std::__1::unique_ptr"** %87, align 8
  store %"class.std::__1::unique_ptr"* %222, %"class.std::__1::unique_ptr"** %84, align 8
  store %"struct.altered_carbon::js::ACLexPosition"* null, %"struct.altered_carbon::js::ACLexPosition"** %85, align 8
  %223 = load %"class.std::__1::unique_ptr"*, %"class.std::__1::unique_ptr"** %84, align 8
  %224 = getelementptr inbounds %"class.std::__1::unique_ptr", %"class.std::__1::unique_ptr"* %223, i32 0, i32 0, !dbg !5598
  store %"class.std::__1::__compressed_pair"* %224, %"class.std::__1::__compressed_pair"** %83, align 8
  %225 = load %"class.std::__1::__compressed_pair"*, %"class.std::__1::__compressed_pair"** %83, align 8
  %226 = bitcast %"class.std::__1::__compressed_pair"* %225 to %"struct.std::__1::__compressed_pair_elem"*, !dbg !5599
  store %"struct.std::__1::__compressed_pair_elem"* %226, %"struct.std::__1::__compressed_pair_elem"** %82, align 8
  %227 = load %"struct.std::__1::__compressed_pair_elem"*, %"struct.std::__1::__compressed_pair_elem"** %82, align 8
  %228 = getelementptr inbounds %"struct.std::__1::__compressed_pair_elem", %"struct.std::__1::__compressed_pair_elem"* %227, i32 0, i32 0, !dbg !5600
  %229 = load %"struct.altered_carbon::js::ACLexPosition"*, %"struct.altered_carbon::js::ACLexPosition"** %228, align 8, !dbg !5601
  store %"struct.altered_carbon::js::ACLexPosition"* %229, %"struct.altered_carbon::js::ACLexPosition"** %86, align 8, !dbg !5505
  %230 = load %"struct.altered_carbon::js::ACLexPosition"*, %"struct.altered_carbon::js::ACLexPosition"** %85, align 8, !dbg !5602
  %231 = getelementptr inbounds %"class.std::__1::unique_ptr", %"class.std::__1::unique_ptr"* %223, i32 0, i32 0, !dbg !5603
  store %"class.std::__1::__compressed_pair"* %231, %"class.std::__1::__compressed_pair"** %79, align 8
  %232 = load %"class.std::__1::__compressed_pair"*, %"class.std::__1::__compressed_pair"** %79, align 8
  %233 = bitcast %"class.std::__1::__compressed_pair"* %232 to %"struct.std::__1::__compressed_pair_elem"*, !dbg !5604
  store %"struct.std::__1::__compressed_pair_elem"* %233, %"struct.std::__1::__compressed_pair_elem"** %78, align 8
  %234 = load %"struct.std::__1::__compressed_pair_elem"*, %"struct.std::__1::__compressed_pair_elem"** %78, align 8
  %235 = getelementptr inbounds %"struct.std::__1::__compressed_pair_elem", %"struct.std::__1::__compressed_pair_elem"* %234, i32 0, i32 0, !dbg !5605
  store %"struct.altered_carbon::js::ACLexPosition"* %230, %"struct.altered_carbon::js::ACLexPosition"** %235, align 8, !dbg !5606
  %236 = load %"struct.altered_carbon::js::ACLexPosition"*, %"struct.altered_carbon::js::ACLexPosition"** %86, align 8, !dbg !5607
  %237 = icmp ne %"struct.altered_carbon::js::ACLexPosition"* %236, null, !dbg !5607
  br i1 %237, label %238, label %254, !dbg !5608

; <label>:238:                                    ; preds = %220
  %239 = getelementptr inbounds %"class.std::__1::unique_ptr", %"class.std::__1::unique_ptr"* %223, i32 0, i32 0, !dbg !5609
  store %"class.std::__1::__compressed_pair"* %239, %"class.std::__1::__compressed_pair"** %77, align 8
  %240 = load %"class.std::__1::__compressed_pair"*, %"class.std::__1::__compressed_pair"** %77, align 8
  %241 = bitcast %"class.std::__1::__compressed_pair"* %240 to %"struct.std::__1::__compressed_pair_elem.0"*, !dbg !5610
  store %"struct.std::__1::__compressed_pair_elem.0"* %241, %"struct.std::__1::__compressed_pair_elem.0"** %76, align 8
  %242 = load %"struct.std::__1::__compressed_pair_elem.0"*, %"struct.std::__1::__compressed_pair_elem.0"** %76, align 8
  %243 = bitcast %"struct.std::__1::__compressed_pair_elem.0"* %242 to %"struct.std::__1::default_delete"*, !dbg !5611
  %244 = load %"struct.altered_carbon::js::ACLexPosition"*, %"struct.altered_carbon::js::ACLexPosition"** %86, align 8, !dbg !5612
  store %"struct.std::__1::default_delete"* %243, %"struct.std::__1::default_delete"** %80, align 8
  store %"struct.altered_carbon::js::ACLexPosition"* %244, %"struct.altered_carbon::js::ACLexPosition"** %81, align 8
  %245 = load %"struct.std::__1::default_delete"*, %"struct.std::__1::default_delete"** %80, align 8
  %246 = load %"struct.altered_carbon::js::ACLexPosition"*, %"struct.altered_carbon::js::ACLexPosition"** %81, align 8, !dbg !5613
  %247 = icmp eq %"struct.altered_carbon::js::ACLexPosition"* %246, null, !dbg !5614
  br i1 %247, label %253, label %248, !dbg !5614

; <label>:248:                                    ; preds = %238
  %249 = bitcast %"struct.altered_carbon::js::ACLexPosition"* %246 to void (%"struct.altered_carbon::js::ACLexPosition"*)***, !dbg !5614
  %250 = load void (%"struct.altered_carbon::js::ACLexPosition"*)**, void (%"struct.altered_carbon::js::ACLexPosition"*)*** %249, align 8, !dbg !5614
  %251 = getelementptr inbounds void (%"struct.altered_carbon::js::ACLexPosition"*)*, void (%"struct.altered_carbon::js::ACLexPosition"*)** %250, i64 1, !dbg !5614
  %252 = load void (%"struct.altered_carbon::js::ACLexPosition"*)*, void (%"struct.altered_carbon::js::ACLexPosition"*)** %251, align 8, !dbg !5614
  call void %252(%"struct.altered_carbon::js::ACLexPosition"* %246) #6, !dbg !5614
  br label %253, !dbg !5614

; <label>:253:                                    ; preds = %248, %238
  br label %254, !dbg !5609

; <label>:254:                                    ; preds = %220, %253
  %255 = bitcast %"class.altered_carbon::js::ACAstSyntaxError"* %93 to i32 (...)***, !dbg !5517
  store i32 (...)** bitcast (i8** getelementptr inbounds ({ [14 x i8*] }, { [14 x i8*] }* @_ZTVN14altered_carbon2js16ACAstSyntaxErrorE, i32 0, inrange i32 0, i32 2) to i32 (...)**), i32 (...)*** %255, align 8, !dbg !5517
  ret void, !dbg !5615
}

; Function Attrs: noinline nounwind optnone ssp uwtable
define void @_ZN14altered_carbon2js16ACAstSyntaxErrorC1ENSt3__110unique_ptrINS0_13ACLexPositionENS2_14default_deleteIS4_EEEENS3_INS0_13ACAstBaseNodeENS5_IS8_EEEE(%"class.altered_carbon::js::ACAstSyntaxError"*, %"class.std::__1::unique_ptr"*, %"class.std::__1::unique_ptr.1"*) unnamed_addr #0 align 2 !dbg !5616 {
  %4 = alloca %"class.altered_carbon::js::ACAstSyntaxError"*, align 8
  store %"class.altered_carbon::js::ACAstSyntaxError"* %0, %"class.altered_carbon::js::ACAstSyntaxError"** %4, align 8
  call void @llvm.dbg.declare(metadata %"class.altered_carbon::js::ACAstSyntaxError"** %4, metadata !5617, metadata !DIExpression()), !dbg !5618
  call void @llvm.dbg.declare(metadata %"class.std::__1::unique_ptr"* %1, metadata !5619, metadata !DIExpression()), !dbg !5620
  call void @llvm.dbg.declare(metadata %"class.std::__1::unique_ptr.1"* %2, metadata !5621, metadata !DIExpression()), !dbg !5622
  %5 = load %"class.altered_carbon::js::ACAstSyntaxError"*, %"class.altered_carbon::js::ACAstSyntaxError"** %4, align 8
  call void @_ZN14altered_carbon2js16ACAstSyntaxErrorC2ENSt3__110unique_ptrINS0_13ACLexPositionENS2_14default_deleteIS4_EEEENS3_INS0_13ACAstBaseNodeENS5_IS8_EEEE(%"class.altered_carbon::js::ACAstSyntaxError"* %5, %"class.std::__1::unique_ptr"* %1, %"class.std::__1::unique_ptr.1"* %2), !dbg !5623
  ret void, !dbg !5624
}

; Function Attrs: noinline nounwind optnone ssp uwtable
define void @_ZNK14altered_carbon2js16ACAstSyntaxError4dumpERNSt3__113basic_ostreamIcNS2_11char_traitsIcEEEE(%"class.altered_carbon::js::ACAstSyntaxError"*, %"class.std::__1::basic_ostream"* dereferenceable(160)) unnamed_addr #0 align 2 !dbg !5625 {
  %3 = alloca %"struct.std::__1::__compressed_pair_elem.3"*, align 8
  call void @llvm.dbg.declare(metadata %"struct.std::__1::__compressed_pair_elem.3"** %3, metadata !5626, metadata !DIExpression()), !dbg !5629
  %4 = alloca %"class.std::__1::__compressed_pair.2"*, align 8
  call void @llvm.dbg.declare(metadata %"class.std::__1::__compressed_pair.2"** %4, metadata !5637, metadata !DIExpression()), !dbg !5639
  %5 = alloca %"class.std::__1::unique_ptr.1"*, align 8
  call void @llvm.dbg.declare(metadata %"class.std::__1::unique_ptr.1"** %5, metadata !5640, metadata !DIExpression()), !dbg !5641
  %6 = alloca %"struct.std::__1::__compressed_pair_elem.3"*, align 8
  call void @llvm.dbg.declare(metadata %"struct.std::__1::__compressed_pair_elem.3"** %6, metadata !5626, metadata !DIExpression()), !dbg !5642
  %7 = alloca %"class.std::__1::__compressed_pair.2"*, align 8
  call void @llvm.dbg.declare(metadata %"class.std::__1::__compressed_pair.2"** %7, metadata !5637, metadata !DIExpression()), !dbg !5647
  %8 = alloca %"class.std::__1::unique_ptr.1"*, align 8
  call void @llvm.dbg.declare(metadata %"class.std::__1::unique_ptr.1"** %8, metadata !5648, metadata !DIExpression()), !dbg !5649
  %9 = alloca %"class.altered_carbon::js::ACAstSyntaxError"*, align 8
  %10 = alloca %"class.std::__1::basic_ostream"*, align 8
  store %"class.altered_carbon::js::ACAstSyntaxError"* %0, %"class.altered_carbon::js::ACAstSyntaxError"** %9, align 8
  call void @llvm.dbg.declare(metadata %"class.altered_carbon::js::ACAstSyntaxError"** %9, metadata !5650, metadata !DIExpression()), !dbg !5652
  store %"class.std::__1::basic_ostream"* %1, %"class.std::__1::basic_ostream"** %10, align 8
  call void @llvm.dbg.declare(metadata %"class.std::__1::basic_ostream"** %10, metadata !5653, metadata !DIExpression()), !dbg !5654
  %11 = load %"class.altered_carbon::js::ACAstSyntaxError"*, %"class.altered_carbon::js::ACAstSyntaxError"** %9, align 8
  %12 = load %"class.std::__1::basic_ostream"*, %"class.std::__1::basic_ostream"** %10, align 8, !dbg !5655
  %13 = call dereferenceable(160) %"class.std::__1::basic_ostream"* @_ZNSt3__1lsINS_11char_traitsIcEEEERNS_13basic_ostreamIcT_EES6_PKc(%"class.std::__1::basic_ostream"* dereferenceable(160) %12, i8* getelementptr inbounds ([23 x i8], [23 x i8]* @.str.2, i32 0, i32 0)), !dbg !5656
  %14 = bitcast %"class.altered_carbon::js::ACAstSyntaxError"* %11 to %"class.altered_carbon::js::ACAstBaseError"*, !dbg !5657
  %15 = getelementptr inbounds %"class.altered_carbon::js::ACAstBaseError", %"class.altered_carbon::js::ACAstBaseError"* %14, i32 0, i32 2, !dbg !5657
  store %"class.std::__1::unique_ptr.1"* %15, %"class.std::__1::unique_ptr.1"** %8, align 8
  %16 = load %"class.std::__1::unique_ptr.1"*, %"class.std::__1::unique_ptr.1"** %8, align 8
  %17 = getelementptr inbounds %"class.std::__1::unique_ptr.1", %"class.std::__1::unique_ptr.1"* %16, i32 0, i32 0, !dbg !5658
  store %"class.std::__1::__compressed_pair.2"* %17, %"class.std::__1::__compressed_pair.2"** %7, align 8
  %18 = load %"class.std::__1::__compressed_pair.2"*, %"class.std::__1::__compressed_pair.2"** %7, align 8
  %19 = bitcast %"class.std::__1::__compressed_pair.2"* %18 to %"struct.std::__1::__compressed_pair_elem.3"*, !dbg !5659
  store %"struct.std::__1::__compressed_pair_elem.3"* %19, %"struct.std::__1::__compressed_pair_elem.3"** %6, align 8
  %20 = load %"struct.std::__1::__compressed_pair_elem.3"*, %"struct.std::__1::__compressed_pair_elem.3"** %6, align 8
  %21 = getelementptr inbounds %"struct.std::__1::__compressed_pair_elem.3", %"struct.std::__1::__compressed_pair_elem.3"* %20, i32 0, i32 0, !dbg !5660
  %22 = load %"class.altered_carbon::js::ACAstBaseNode"*, %"class.altered_carbon::js::ACAstBaseNode"** %21, align 8, !dbg !5661
  %23 = icmp ne %"class.altered_carbon::js::ACAstBaseNode"* %22, null, !dbg !5662
  br i1 %23, label %24, label %39, !dbg !5663

; <label>:24:                                     ; preds = %2
  %25 = bitcast %"class.altered_carbon::js::ACAstSyntaxError"* %11 to %"class.altered_carbon::js::ACAstBaseError"*, !dbg !5664
  %26 = getelementptr inbounds %"class.altered_carbon::js::ACAstBaseError", %"class.altered_carbon::js::ACAstBaseError"* %25, i32 0, i32 2, !dbg !5664
  store %"class.std::__1::unique_ptr.1"* %26, %"class.std::__1::unique_ptr.1"** %5, align 8
  %27 = load %"class.std::__1::unique_ptr.1"*, %"class.std::__1::unique_ptr.1"** %5, align 8
  %28 = getelementptr inbounds %"class.std::__1::unique_ptr.1", %"class.std::__1::unique_ptr.1"* %27, i32 0, i32 0, !dbg !5665
  store %"class.std::__1::__compressed_pair.2"* %28, %"class.std::__1::__compressed_pair.2"** %4, align 8
  %29 = load %"class.std::__1::__compressed_pair.2"*, %"class.std::__1::__compressed_pair.2"** %4, align 8
  %30 = bitcast %"class.std::__1::__compressed_pair.2"* %29 to %"struct.std::__1::__compressed_pair_elem.3"*, !dbg !5666
  store %"struct.std::__1::__compressed_pair_elem.3"* %30, %"struct.std::__1::__compressed_pair_elem.3"** %3, align 8
  %31 = load %"struct.std::__1::__compressed_pair_elem.3"*, %"struct.std::__1::__compressed_pair_elem.3"** %3, align 8
  %32 = getelementptr inbounds %"struct.std::__1::__compressed_pair_elem.3", %"struct.std::__1::__compressed_pair_elem.3"* %31, i32 0, i32 0, !dbg !5667
  %33 = load %"class.altered_carbon::js::ACAstBaseNode"*, %"class.altered_carbon::js::ACAstBaseNode"** %32, align 8, !dbg !5668
  %34 = bitcast %"class.altered_carbon::js::ACAstBaseNode"* %33 to void (%"class.altered_carbon::js::ACAstBaseNode"*, %"class.std::__1::basic_ostream"*)***, !dbg !5669
  %35 = load void (%"class.altered_carbon::js::ACAstBaseNode"*, %"class.std::__1::basic_ostream"*)**, void (%"class.altered_carbon::js::ACAstBaseNode"*, %"class.std::__1::basic_ostream"*)*** %34, align 8, !dbg !5669
  %36 = getelementptr inbounds void (%"class.altered_carbon::js::ACAstBaseNode"*, %"class.std::__1::basic_ostream"*)*, void (%"class.altered_carbon::js::ACAstBaseNode"*, %"class.std::__1::basic_ostream"*)** %35, i64 8, !dbg !5669
  %37 = load void (%"class.altered_carbon::js::ACAstBaseNode"*, %"class.std::__1::basic_ostream"*)*, void (%"class.altered_carbon::js::ACAstBaseNode"*, %"class.std::__1::basic_ostream"*)** %36, align 8, !dbg !5669
  %38 = load %"class.std::__1::basic_ostream"*, %"class.std::__1::basic_ostream"** %10, align 8, !dbg !5670
  call void %37(%"class.altered_carbon::js::ACAstBaseNode"* %33, %"class.std::__1::basic_ostream"* dereferenceable(160) %38), !dbg !5669
  br label %42, !dbg !5671

; <label>:39:                                     ; preds = %2
  %40 = load %"class.std::__1::basic_ostream"*, %"class.std::__1::basic_ostream"** %10, align 8, !dbg !5672
  %41 = call dereferenceable(160) %"class.std::__1::basic_ostream"* @_ZNSt3__1lsINS_11char_traitsIcEEEERNS_13basic_ostreamIcT_EES6_PKc(%"class.std::__1::basic_ostream"* dereferenceable(160) %40, i8* getelementptr inbounds ([7 x i8], [7 x i8]* @.str.3, i32 0, i32 0)), !dbg !5674
  br label %42

; <label>:42:                                     ; preds = %39, %24
  %43 = load %"class.std::__1::basic_ostream"*, %"class.std::__1::basic_ostream"** %10, align 8, !dbg !5675
  %44 = call dereferenceable(160) %"class.std::__1::basic_ostream"* @_ZNSt3__1lsINS_11char_traitsIcEEEERNS_13basic_ostreamIcT_EES6_PKc(%"class.std::__1::basic_ostream"* dereferenceable(160) %43, i8* getelementptr inbounds ([3 x i8], [3 x i8]* @.str.1, i32 0, i32 0)), !dbg !5676
  ret void, !dbg !5677
}

; Function Attrs: noinline nounwind optnone ssp uwtable
define linkonce_odr hidden void @_ZN14altered_carbon2js14ACAstBaseErrorD1Ev(%"class.altered_carbon::js::ACAstBaseError"*) unnamed_addr #0 align 2 !dbg !5678 {
  %2 = alloca %"class.altered_carbon::js::ACAstBaseError"*, align 8
  store %"class.altered_carbon::js::ACAstBaseError"* %0, %"class.altered_carbon::js::ACAstBaseError"** %2, align 8
  call void @llvm.dbg.declare(metadata %"class.altered_carbon::js::ACAstBaseError"** %2, metadata !5682, metadata !DIExpression()), !dbg !5683
  %3 = load %"class.altered_carbon::js::ACAstBaseError"*, %"class.altered_carbon::js::ACAstBaseError"** %2, align 8
  call void @_ZN14altered_carbon2js14ACAstBaseErrorD2Ev(%"class.altered_carbon::js::ACAstBaseError"* %3) #6, !dbg !5684
  ret void, !dbg !5684
}

; Function Attrs: noinline nounwind optnone ssp uwtable
define linkonce_odr hidden void @_ZN14altered_carbon2js14ACAstBaseErrorD0Ev(%"class.altered_carbon::js::ACAstBaseError"*) unnamed_addr #0 align 2 !dbg !5685 {
  %2 = alloca %"class.altered_carbon::js::ACAstBaseError"*, align 8
  store %"class.altered_carbon::js::ACAstBaseError"* %0, %"class.altered_carbon::js::ACAstBaseError"** %2, align 8
  call void @llvm.dbg.declare(metadata %"class.altered_carbon::js::ACAstBaseError"** %2, metadata !5686, metadata !DIExpression()), !dbg !5687
  %3 = load %"class.altered_carbon::js::ACAstBaseError"*, %"class.altered_carbon::js::ACAstBaseError"** %2, align 8
  call void @_ZN14altered_carbon2js14ACAstBaseErrorD1Ev(%"class.altered_carbon::js::ACAstBaseError"* %3) #6, !dbg !5688
  %4 = bitcast %"class.altered_carbon::js::ACAstBaseError"* %3 to i8*, !dbg !5688
  call void @_ZdlPv(i8* %4) #7, !dbg !5688
  ret void, !dbg !5688
}

declare i8* @_ZNK14altered_carbon2js13ACAstBaseNode6acceptEPNS0_14ACAstVisitableE(%"class.altered_carbon::js::ACAstBaseNode"*, %"class.altered_carbon::js::ACAstVisitable"*) unnamed_addr #2

; Function Attrs: noinline nounwind optnone ssp uwtable
define linkonce_odr hidden void @_ZNK14altered_carbon2js13ACAstBaseNode10identifierEv(%"class.std::__1::basic_string"* noalias sret, %"class.altered_carbon::js::ACAstBaseNode"*) unnamed_addr #0 align 2 !dbg !5689 {
  %3 = alloca %"class.std::__1::allocator.14"*, align 8
  call void @llvm.dbg.declare(metadata %"class.std::__1::allocator.14"** %3, metadata !5690, metadata !DIExpression()), !dbg !5693
  %4 = alloca %"struct.std::__1::__compressed_pair_elem.13"*, align 8
  call void @llvm.dbg.declare(metadata %"struct.std::__1::__compressed_pair_elem.13"** %4, metadata !5708, metadata !DIExpression()), !dbg !5710
  %5 = alloca %"struct.std::__1::__compressed_pair_elem.11"*, align 8
  call void @llvm.dbg.declare(metadata %"struct.std::__1::__compressed_pair_elem.11"** %5, metadata !5711, metadata !DIExpression()), !dbg !5714
  %6 = alloca %"class.std::__1::__compressed_pair.10"*, align 8
  call void @llvm.dbg.declare(metadata %"class.std::__1::__compressed_pair.10"** %6, metadata !5716, metadata !DIExpression()), !dbg !5718
  %7 = alloca %"class.std::__1::__compressed_pair.10"*, align 8
  call void @llvm.dbg.declare(metadata %"class.std::__1::__compressed_pair.10"** %7, metadata !5719, metadata !DIExpression()), !dbg !5720
  %8 = alloca %"class.std::__1::basic_string"*, align 8
  call void @llvm.dbg.declare(metadata %"class.std::__1::basic_string"** %8, metadata !5721, metadata !DIExpression()), !dbg !5723
  %9 = alloca i32*, align 8
  call void @llvm.dbg.declare(metadata i32** %9, metadata !5724, metadata !DIExpression()), !dbg !5725
  %10 = alloca %"class.std::__1::basic_string"*, align 8
  call void @llvm.dbg.declare(metadata %"class.std::__1::basic_string"** %10, metadata !5726, metadata !DIExpression()), !dbg !5727
  %11 = alloca i32*, align 8
  call void @llvm.dbg.declare(metadata i32** %11, metadata !5728, metadata !DIExpression()), !dbg !5729
  %12 = alloca %"class.altered_carbon::js::ACAstBaseNode"*, align 8
  store %"class.altered_carbon::js::ACAstBaseNode"* %1, %"class.altered_carbon::js::ACAstBaseNode"** %12, align 8
  call void @llvm.dbg.declare(metadata %"class.altered_carbon::js::ACAstBaseNode"** %12, metadata !5730, metadata !DIExpression()), !dbg !5731
  %13 = load %"class.altered_carbon::js::ACAstBaseNode"*, %"class.altered_carbon::js::ACAstBaseNode"** %12, align 8
  store %"class.std::__1::basic_string"* %0, %"class.std::__1::basic_string"** %10, align 8
  store i32* getelementptr inbounds ([7 x i32], [7 x i32]* @.str.4, i32 0, i32 0), i32** %11, align 8
  %14 = load %"class.std::__1::basic_string"*, %"class.std::__1::basic_string"** %10, align 8
  %15 = load i32*, i32** %11, align 8, !dbg !5732
  store %"class.std::__1::basic_string"* %14, %"class.std::__1::basic_string"** %8, align 8
  store i32* %15, i32** %9, align 8
  %16 = load %"class.std::__1::basic_string"*, %"class.std::__1::basic_string"** %8, align 8
  %17 = bitcast %"class.std::__1::basic_string"* %16 to %"class.std::__1::__basic_string_common"*, !dbg !5733
  %18 = getelementptr inbounds %"class.std::__1::basic_string", %"class.std::__1::basic_string"* %16, i32 0, i32 0, !dbg !5734
  store %"class.std::__1::__compressed_pair.10"* %18, %"class.std::__1::__compressed_pair.10"** %7, align 8
  %19 = load %"class.std::__1::__compressed_pair.10"*, %"class.std::__1::__compressed_pair.10"** %7, align 8
  store %"class.std::__1::__compressed_pair.10"* %19, %"class.std::__1::__compressed_pair.10"** %6, align 8
  %20 = load %"class.std::__1::__compressed_pair.10"*, %"class.std::__1::__compressed_pair.10"** %6, align 8
  %21 = bitcast %"class.std::__1::__compressed_pair.10"* %20 to %"struct.std::__1::__compressed_pair_elem.11"*, !dbg !5735
  store %"struct.std::__1::__compressed_pair_elem.11"* %21, %"struct.std::__1::__compressed_pair_elem.11"** %5, align 8
  %22 = load %"struct.std::__1::__compressed_pair_elem.11"*, %"struct.std::__1::__compressed_pair_elem.11"** %5, align 8
  %23 = getelementptr inbounds %"struct.std::__1::__compressed_pair_elem.11", %"struct.std::__1::__compressed_pair_elem.11"* %22, i32 0, i32 0, !dbg !5736
  %24 = bitcast %"struct.std::__1::basic_string<wchar_t, std::__1::char_traits<wchar_t>, std::__1::allocator<wchar_t> >::__rep"* %23 to i8*, !dbg !5736
  call void @llvm.memset.p0i8.i64(i8* align 8 %24, i8 0, i64 24, i1 false), !dbg !5736
  %25 = bitcast %"class.std::__1::__compressed_pair.10"* %20 to %"struct.std::__1::__compressed_pair_elem.13"*, !dbg !5735
  store %"struct.std::__1::__compressed_pair_elem.13"* %25, %"struct.std::__1::__compressed_pair_elem.13"** %4, align 8
  %26 = load %"struct.std::__1::__compressed_pair_elem.13"*, %"struct.std::__1::__compressed_pair_elem.13"** %4, align 8
  %27 = bitcast %"struct.std::__1::__compressed_pair_elem.13"* %26 to %"class.std::__1::allocator.14"*, !dbg !5737
  store %"class.std::__1::allocator.14"* %27, %"class.std::__1::allocator.14"** %3, align 8
  %28 = load %"class.std::__1::allocator.14"*, %"class.std::__1::allocator.14"** %3, align 8
  %29 = load i32*, i32** %9, align 8, !dbg !5738
  %30 = load i32*, i32** %9, align 8, !dbg !5740
  %31 = call i64 @_ZNSt3__111char_traitsIwE6lengthEPKw(i32* %30) #6, !dbg !5741
  call void @_ZNSt3__112basic_stringIwNS_11char_traitsIwEENS_9allocatorIwEEE6__initEPKwm(%"class.std::__1::basic_string"* %16, i32* %29, i64 %31) #6, !dbg !5742
  ret void, !dbg !5743
}

; Function Attrs: noinline nounwind optnone ssp uwtable
define linkonce_odr hidden i32 @_ZNK14altered_carbon2js13ACAstBaseNode10precedenceEv(%"class.altered_carbon::js::ACAstBaseNode"*) unnamed_addr #0 align 2 !dbg !5744 {
  %2 = alloca %"class.altered_carbon::js::ACAstBaseNode"*, align 8
  store %"class.altered_carbon::js::ACAstBaseNode"* %0, %"class.altered_carbon::js::ACAstBaseNode"** %2, align 8
  call void @llvm.dbg.declare(metadata %"class.altered_carbon::js::ACAstBaseNode"** %2, metadata !5745, metadata !DIExpression()), !dbg !5746
  %3 = load %"class.altered_carbon::js::ACAstBaseNode"*, %"class.altered_carbon::js::ACAstBaseNode"** %2, align 8
  ret i32 0, !dbg !5747
}

; Function Attrs: noinline nounwind optnone ssp uwtable
define linkonce_odr hidden i32 @_ZNK14altered_carbon2js13ACAstBaseNode2opEv(%"class.altered_carbon::js::ACAstBaseNode"*) unnamed_addr #0 align 2 !dbg !5748 {
  %2 = alloca %"class.altered_carbon::js::ACAstBaseNode"*, align 8
  store %"class.altered_carbon::js::ACAstBaseNode"* %0, %"class.altered_carbon::js::ACAstBaseNode"** %2, align 8
  call void @llvm.dbg.declare(metadata %"class.altered_carbon::js::ACAstBaseNode"** %2, metadata !5749, metadata !DIExpression()), !dbg !5750
  %3 = load %"class.altered_carbon::js::ACAstBaseNode"*, %"class.altered_carbon::js::ACAstBaseNode"** %2, align 8
  ret i32 0, !dbg !5751
}

; Function Attrs: noinline nounwind optnone ssp uwtable
define linkonce_odr hidden zeroext i1 @_ZN14altered_carbon2js13ACAstBaseNode14convertToParamEv(%"class.altered_carbon::js::ACAstBaseNode"*) unnamed_addr #0 align 2 !dbg !5752 {
  %2 = alloca %"class.altered_carbon::js::ACAstBaseNode"*, align 8
  store %"class.altered_carbon::js::ACAstBaseNode"* %0, %"class.altered_carbon::js::ACAstBaseNode"** %2, align 8
  call void @llvm.dbg.declare(metadata %"class.altered_carbon::js::ACAstBaseNode"** %2, metadata !5753, metadata !DIExpression()), !dbg !5754
  %3 = load %"class.altered_carbon::js::ACAstBaseNode"*, %"class.altered_carbon::js::ACAstBaseNode"** %2, align 8
  ret i1 false, !dbg !5755
}

; Function Attrs: noinline nounwind optnone ssp uwtable
define linkonce_odr hidden zeroext i1 @_ZN14altered_carbon2js13ACAstBaseNode15convertToFormalEv(%"class.altered_carbon::js::ACAstBaseNode"*) unnamed_addr #0 align 2 !dbg !5756 {
  %2 = alloca %"class.altered_carbon::js::ACAstBaseNode"*, align 8
  store %"class.altered_carbon::js::ACAstBaseNode"* %0, %"class.altered_carbon::js::ACAstBaseNode"** %2, align 8
  call void @llvm.dbg.declare(metadata %"class.altered_carbon::js::ACAstBaseNode"** %2, metadata !5757, metadata !DIExpression()), !dbg !5758
  %3 = load %"class.altered_carbon::js::ACAstBaseNode"*, %"class.altered_carbon::js::ACAstBaseNode"** %2, align 8
  ret i1 false, !dbg !5759
}

declare void @_ZNK14altered_carbon2js13ACAstBaseNode14dumpGraphLabelERNSt3__113basic_ostreamIcNS2_11char_traitsIcEEEE(%"class.altered_carbon::js::ACAstBaseNode"*, %"class.std::__1::basic_ostream"* dereferenceable(160)) unnamed_addr #2

declare void @_ZNK14altered_carbon2js13ACAstBaseNode9dumpGraphERNSt3__113basic_ostreamIcNS2_11char_traitsIcEEEE(%"class.altered_carbon::js::ACAstBaseNode"*, %"class.std::__1::basic_ostream"* dereferenceable(160)) unnamed_addr #2

; Function Attrs: noinline nounwind optnone ssp uwtable
define linkonce_odr hidden void @_ZNK14altered_carbon2js13ACAstBaseNode14dumpChildNodesERNSt3__113basic_ostreamIcNS2_11char_traitsIcEEEE(%"class.altered_carbon::js::ACAstBaseNode"*, %"class.std::__1::basic_ostream"* dereferenceable(160)) unnamed_addr #0 align 2 !dbg !5760 {
  %3 = alloca %"class.altered_carbon::js::ACAstBaseNode"*, align 8
  %4 = alloca %"class.std::__1::basic_ostream"*, align 8
  store %"class.altered_carbon::js::ACAstBaseNode"* %0, %"class.altered_carbon::js::ACAstBaseNode"** %3, align 8
  call void @llvm.dbg.declare(metadata %"class.altered_carbon::js::ACAstBaseNode"** %3, metadata !5761, metadata !DIExpression()), !dbg !5762
  store %"class.std::__1::basic_ostream"* %1, %"class.std::__1::basic_ostream"** %4, align 8
  call void @llvm.dbg.declare(metadata %"class.std::__1::basic_ostream"** %4, metadata !5763, metadata !DIExpression()), !dbg !5764
  %5 = load %"class.altered_carbon::js::ACAstBaseNode"*, %"class.altered_carbon::js::ACAstBaseNode"** %3, align 8
  ret void, !dbg !5765
}

; Function Attrs: noinline nounwind optnone ssp uwtable
define linkonce_odr hidden void @_ZN14altered_carbon2js15ACAstTokenErrorD1Ev(%"class.altered_carbon::js::ACAstTokenError"*) unnamed_addr #0 align 2 !dbg !5766 {
  %2 = alloca %"class.altered_carbon::js::ACAstTokenError"*, align 8
  store %"class.altered_carbon::js::ACAstTokenError"* %0, %"class.altered_carbon::js::ACAstTokenError"** %2, align 8
  call void @llvm.dbg.declare(metadata %"class.altered_carbon::js::ACAstTokenError"** %2, metadata !5770, metadata !DIExpression()), !dbg !5771
  %3 = load %"class.altered_carbon::js::ACAstTokenError"*, %"class.altered_carbon::js::ACAstTokenError"** %2, align 8
  call void @_ZN14altered_carbon2js15ACAstTokenErrorD2Ev(%"class.altered_carbon::js::ACAstTokenError"* %3) #6, !dbg !5772
  ret void, !dbg !5772
}

; Function Attrs: noinline nounwind optnone ssp uwtable
define linkonce_odr hidden void @_ZN14altered_carbon2js15ACAstTokenErrorD0Ev(%"class.altered_carbon::js::ACAstTokenError"*) unnamed_addr #0 align 2 !dbg !5773 {
  %2 = alloca %"class.altered_carbon::js::ACAstTokenError"*, align 8
  store %"class.altered_carbon::js::ACAstTokenError"* %0, %"class.altered_carbon::js::ACAstTokenError"** %2, align 8
  call void @llvm.dbg.declare(metadata %"class.altered_carbon::js::ACAstTokenError"** %2, metadata !5774, metadata !DIExpression()), !dbg !5775
  %3 = load %"class.altered_carbon::js::ACAstTokenError"*, %"class.altered_carbon::js::ACAstTokenError"** %2, align 8
  call void @_ZN14altered_carbon2js15ACAstTokenErrorD1Ev(%"class.altered_carbon::js::ACAstTokenError"* %3) #6, !dbg !5776
  %4 = bitcast %"class.altered_carbon::js::ACAstTokenError"* %3 to i8*, !dbg !5776
  call void @_ZdlPv(i8* %4) #7, !dbg !5776
  ret void, !dbg !5776
}

; Function Attrs: noinline nounwind optnone ssp uwtable
define linkonce_odr hidden void @_ZN14altered_carbon2js16ACAstSyntaxErrorD1Ev(%"class.altered_carbon::js::ACAstSyntaxError"*) unnamed_addr #0 align 2 !dbg !5777 {
  %2 = alloca %"class.altered_carbon::js::ACAstSyntaxError"*, align 8
  store %"class.altered_carbon::js::ACAstSyntaxError"* %0, %"class.altered_carbon::js::ACAstSyntaxError"** %2, align 8
  call void @llvm.dbg.declare(metadata %"class.altered_carbon::js::ACAstSyntaxError"** %2, metadata !5781, metadata !DIExpression()), !dbg !5782
  %3 = load %"class.altered_carbon::js::ACAstSyntaxError"*, %"class.altered_carbon::js::ACAstSyntaxError"** %2, align 8
  call void @_ZN14altered_carbon2js16ACAstSyntaxErrorD2Ev(%"class.altered_carbon::js::ACAstSyntaxError"* %3) #6, !dbg !5783
  ret void, !dbg !5783
}

; Function Attrs: noinline nounwind optnone ssp uwtable
define linkonce_odr hidden void @_ZN14altered_carbon2js16ACAstSyntaxErrorD0Ev(%"class.altered_carbon::js::ACAstSyntaxError"*) unnamed_addr #0 align 2 !dbg !5784 {
  %2 = alloca %"class.altered_carbon::js::ACAstSyntaxError"*, align 8
  store %"class.altered_carbon::js::ACAstSyntaxError"* %0, %"class.altered_carbon::js::ACAstSyntaxError"** %2, align 8
  call void @llvm.dbg.declare(metadata %"class.altered_carbon::js::ACAstSyntaxError"** %2, metadata !5785, metadata !DIExpression()), !dbg !5786
  %3 = load %"class.altered_carbon::js::ACAstSyntaxError"*, %"class.altered_carbon::js::ACAstSyntaxError"** %2, align 8
  call void @_ZN14altered_carbon2js16ACAstSyntaxErrorD1Ev(%"class.altered_carbon::js::ACAstSyntaxError"* %3) #6, !dbg !5787
  %4 = bitcast %"class.altered_carbon::js::ACAstSyntaxError"* %3 to i8*, !dbg !5787
  call void @_ZdlPv(i8* %4) #7, !dbg !5787
  ret void, !dbg !5787
}

; Function Attrs: noinline nounwind optnone ssp uwtable
define linkonce_odr hidden void @_ZN14altered_carbon2js14ACAstBaseErrorD2Ev(%"class.altered_carbon::js::ACAstBaseError"*) unnamed_addr #0 align 2 !dbg !5788 {
  %2 = alloca %"struct.std::__1::__compressed_pair_elem.4"*, align 8
  call void @llvm.dbg.declare(metadata %"struct.std::__1::__compressed_pair_elem.4"** %2, metadata !4944, metadata !DIExpression()), !dbg !5789
  %3 = alloca %"class.std::__1::__compressed_pair.2"*, align 8
  call void @llvm.dbg.declare(metadata %"class.std::__1::__compressed_pair.2"** %3, metadata !4957, metadata !DIExpression()), !dbg !5796
  %4 = alloca %"struct.std::__1::__compressed_pair_elem.3"*, align 8
  call void @llvm.dbg.declare(metadata %"struct.std::__1::__compressed_pair_elem.3"** %4, metadata !5016, metadata !DIExpression()), !dbg !5797
  %5 = alloca %"class.std::__1::__compressed_pair.2"*, align 8
  call void @llvm.dbg.declare(metadata %"class.std::__1::__compressed_pair.2"** %5, metadata !5024, metadata !DIExpression()), !dbg !5800
  %6 = alloca %"struct.std::__1::default_delete.5"*, align 8
  call void @llvm.dbg.declare(metadata %"struct.std::__1::default_delete.5"** %6, metadata !5417, metadata !DIExpression()), !dbg !5801
  %7 = alloca %"class.altered_carbon::js::ACAstBaseNode"*, align 8
  call void @llvm.dbg.declare(metadata %"class.altered_carbon::js::ACAstBaseNode"** %7, metadata !5422, metadata !DIExpression()), !dbg !5803
  %8 = alloca %"struct.std::__1::__compressed_pair_elem.3"*, align 8
  call void @llvm.dbg.declare(metadata %"struct.std::__1::__compressed_pair_elem.3"** %8, metadata !5016, metadata !DIExpression()), !dbg !5804
  %9 = alloca %"class.std::__1::__compressed_pair.2"*, align 8
  call void @llvm.dbg.declare(metadata %"class.std::__1::__compressed_pair.2"** %9, metadata !5024, metadata !DIExpression()), !dbg !5807
  %10 = alloca %"class.std::__1::unique_ptr.1"*, align 8
  call void @llvm.dbg.declare(metadata %"class.std::__1::unique_ptr.1"** %10, metadata !5428, metadata !DIExpression()), !dbg !5808
  %11 = alloca %"class.altered_carbon::js::ACAstBaseNode"*, align 8
  call void @llvm.dbg.declare(metadata %"class.altered_carbon::js::ACAstBaseNode"** %11, metadata !5430, metadata !DIExpression()), !dbg !5809
  %12 = alloca %"class.altered_carbon::js::ACAstBaseNode"*, align 8
  call void @llvm.dbg.declare(metadata %"class.altered_carbon::js::ACAstBaseNode"** %12, metadata !5432, metadata !DIExpression()), !dbg !5810
  %13 = alloca %"class.std::__1::unique_ptr.1"*, align 8
  call void @llvm.dbg.declare(metadata %"class.std::__1::unique_ptr.1"** %13, metadata !5434, metadata !DIExpression()), !dbg !5811
  %14 = alloca %"class.std::__1::unique_ptr.1"*, align 8
  call void @llvm.dbg.declare(metadata %"class.std::__1::unique_ptr.1"** %14, metadata !5436, metadata !DIExpression()), !dbg !5812
  %15 = alloca %"class.altered_carbon::js::ACAstBaseError"*, align 8
  store %"class.altered_carbon::js::ACAstBaseError"* %0, %"class.altered_carbon::js::ACAstBaseError"** %15, align 8
  call void @llvm.dbg.declare(metadata %"class.altered_carbon::js::ACAstBaseError"** %15, metadata !5813, metadata !DIExpression()), !dbg !5814
  %16 = load %"class.altered_carbon::js::ACAstBaseError"*, %"class.altered_carbon::js::ACAstBaseError"** %15, align 8
  %17 = bitcast %"class.altered_carbon::js::ACAstBaseError"* %16 to i32 (...)***, !dbg !5815
  store i32 (...)** bitcast (i8** getelementptr inbounds ({ [14 x i8*] }, { [14 x i8*] }* @_ZTVN14altered_carbon2js14ACAstBaseErrorE, i32 0, inrange i32 0, i32 2) to i32 (...)**), i32 (...)*** %17, align 8, !dbg !5815
  %18 = getelementptr inbounds %"class.altered_carbon::js::ACAstBaseError", %"class.altered_carbon::js::ACAstBaseError"* %16, i32 0, i32 2, !dbg !5816
  store %"class.std::__1::unique_ptr.1"* %18, %"class.std::__1::unique_ptr.1"** %14, align 8
  %19 = load %"class.std::__1::unique_ptr.1"*, %"class.std::__1::unique_ptr.1"** %14, align 8
  store %"class.std::__1::unique_ptr.1"* %19, %"class.std::__1::unique_ptr.1"** %13, align 8
  %20 = load %"class.std::__1::unique_ptr.1"*, %"class.std::__1::unique_ptr.1"** %13, align 8
  store %"class.std::__1::unique_ptr.1"* %20, %"class.std::__1::unique_ptr.1"** %10, align 8
  store %"class.altered_carbon::js::ACAstBaseNode"* null, %"class.altered_carbon::js::ACAstBaseNode"** %11, align 8
  %21 = load %"class.std::__1::unique_ptr.1"*, %"class.std::__1::unique_ptr.1"** %10, align 8
  %22 = getelementptr inbounds %"class.std::__1::unique_ptr.1", %"class.std::__1::unique_ptr.1"* %21, i32 0, i32 0, !dbg !5817
  store %"class.std::__1::__compressed_pair.2"* %22, %"class.std::__1::__compressed_pair.2"** %9, align 8
  %23 = load %"class.std::__1::__compressed_pair.2"*, %"class.std::__1::__compressed_pair.2"** %9, align 8
  %24 = bitcast %"class.std::__1::__compressed_pair.2"* %23 to %"struct.std::__1::__compressed_pair_elem.3"*, !dbg !5818
  store %"struct.std::__1::__compressed_pair_elem.3"* %24, %"struct.std::__1::__compressed_pair_elem.3"** %8, align 8
  %25 = load %"struct.std::__1::__compressed_pair_elem.3"*, %"struct.std::__1::__compressed_pair_elem.3"** %8, align 8
  %26 = getelementptr inbounds %"struct.std::__1::__compressed_pair_elem.3", %"struct.std::__1::__compressed_pair_elem.3"* %25, i32 0, i32 0, !dbg !5819
  %27 = load %"class.altered_carbon::js::ACAstBaseNode"*, %"class.altered_carbon::js::ACAstBaseNode"** %26, align 8, !dbg !5820
  store %"class.altered_carbon::js::ACAstBaseNode"* %27, %"class.altered_carbon::js::ACAstBaseNode"** %12, align 8, !dbg !5810
  %28 = load %"class.altered_carbon::js::ACAstBaseNode"*, %"class.altered_carbon::js::ACAstBaseNode"** %11, align 8, !dbg !5821
  %29 = getelementptr inbounds %"class.std::__1::unique_ptr.1", %"class.std::__1::unique_ptr.1"* %21, i32 0, i32 0, !dbg !5822
  store %"class.std::__1::__compressed_pair.2"* %29, %"class.std::__1::__compressed_pair.2"** %5, align 8
  %30 = load %"class.std::__1::__compressed_pair.2"*, %"class.std::__1::__compressed_pair.2"** %5, align 8
  %31 = bitcast %"class.std::__1::__compressed_pair.2"* %30 to %"struct.std::__1::__compressed_pair_elem.3"*, !dbg !5823
  store %"struct.std::__1::__compressed_pair_elem.3"* %31, %"struct.std::__1::__compressed_pair_elem.3"** %4, align 8
  %32 = load %"struct.std::__1::__compressed_pair_elem.3"*, %"struct.std::__1::__compressed_pair_elem.3"** %4, align 8
  %33 = getelementptr inbounds %"struct.std::__1::__compressed_pair_elem.3", %"struct.std::__1::__compressed_pair_elem.3"* %32, i32 0, i32 0, !dbg !5824
  store %"class.altered_carbon::js::ACAstBaseNode"* %28, %"class.altered_carbon::js::ACAstBaseNode"** %33, align 8, !dbg !5825
  %34 = load %"class.altered_carbon::js::ACAstBaseNode"*, %"class.altered_carbon::js::ACAstBaseNode"** %12, align 8, !dbg !5826
  %35 = icmp ne %"class.altered_carbon::js::ACAstBaseNode"* %34, null, !dbg !5826
  br i1 %35, label %36, label %52, !dbg !5827

; <label>:36:                                     ; preds = %1
  %37 = getelementptr inbounds %"class.std::__1::unique_ptr.1", %"class.std::__1::unique_ptr.1"* %21, i32 0, i32 0, !dbg !5828
  store %"class.std::__1::__compressed_pair.2"* %37, %"class.std::__1::__compressed_pair.2"** %3, align 8
  %38 = load %"class.std::__1::__compressed_pair.2"*, %"class.std::__1::__compressed_pair.2"** %3, align 8
  %39 = bitcast %"class.std::__1::__compressed_pair.2"* %38 to %"struct.std::__1::__compressed_pair_elem.4"*, !dbg !5829
  store %"struct.std::__1::__compressed_pair_elem.4"* %39, %"struct.std::__1::__compressed_pair_elem.4"** %2, align 8
  %40 = load %"struct.std::__1::__compressed_pair_elem.4"*, %"struct.std::__1::__compressed_pair_elem.4"** %2, align 8
  %41 = bitcast %"struct.std::__1::__compressed_pair_elem.4"* %40 to %"struct.std::__1::default_delete.5"*, !dbg !5830
  %42 = load %"class.altered_carbon::js::ACAstBaseNode"*, %"class.altered_carbon::js::ACAstBaseNode"** %12, align 8, !dbg !5831
  store %"struct.std::__1::default_delete.5"* %41, %"struct.std::__1::default_delete.5"** %6, align 8
  store %"class.altered_carbon::js::ACAstBaseNode"* %42, %"class.altered_carbon::js::ACAstBaseNode"** %7, align 8
  %43 = load %"struct.std::__1::default_delete.5"*, %"struct.std::__1::default_delete.5"** %6, align 8
  %44 = load %"class.altered_carbon::js::ACAstBaseNode"*, %"class.altered_carbon::js::ACAstBaseNode"** %7, align 8, !dbg !5832
  %45 = icmp eq %"class.altered_carbon::js::ACAstBaseNode"* %44, null, !dbg !5833
  br i1 %45, label %51, label %46, !dbg !5833

; <label>:46:                                     ; preds = %36
  %47 = bitcast %"class.altered_carbon::js::ACAstBaseNode"* %44 to void (%"class.altered_carbon::js::ACAstBaseNode"*)***, !dbg !5833
  %48 = load void (%"class.altered_carbon::js::ACAstBaseNode"*)**, void (%"class.altered_carbon::js::ACAstBaseNode"*)*** %47, align 8, !dbg !5833
  %49 = getelementptr inbounds void (%"class.altered_carbon::js::ACAstBaseNode"*)*, void (%"class.altered_carbon::js::ACAstBaseNode"*)** %48, i64 1, !dbg !5833
  %50 = load void (%"class.altered_carbon::js::ACAstBaseNode"*)*, void (%"class.altered_carbon::js::ACAstBaseNode"*)** %49, align 8, !dbg !5833
  call void %50(%"class.altered_carbon::js::ACAstBaseNode"* %44) #6, !dbg !5833
  br label %51, !dbg !5833

; <label>:51:                                     ; preds = %46, %36
  br label %52, !dbg !5828

; <label>:52:                                     ; preds = %1, %51
  %53 = bitcast %"class.altered_carbon::js::ACAstBaseError"* %16 to %"class.altered_carbon::js::ACAstBaseNode"*, !dbg !5816
  call void @_ZN14altered_carbon2js13ACAstBaseNodeD2Ev(%"class.altered_carbon::js::ACAstBaseNode"* %53) #6, !dbg !5816
  ret void, !dbg !5815
}

; Function Attrs: noinline nounwind optnone ssp uwtable
define linkonce_odr hidden void @_ZN14altered_carbon2js13ACAstBaseNodeD2Ev(%"class.altered_carbon::js::ACAstBaseNode"*) unnamed_addr #0 align 2 !dbg !5834 {
  %2 = alloca %"struct.std::__1::__compressed_pair_elem.0"*, align 8
  call void @llvm.dbg.declare(metadata %"struct.std::__1::__compressed_pair_elem.0"** %2, metadata !4557, metadata !DIExpression()), !dbg !5835
  %3 = alloca %"class.std::__1::__compressed_pair"*, align 8
  call void @llvm.dbg.declare(metadata %"class.std::__1::__compressed_pair"** %3, metadata !4570, metadata !DIExpression()), !dbg !5842
  %4 = alloca %"struct.std::__1::__compressed_pair_elem"*, align 8
  call void @llvm.dbg.declare(metadata %"struct.std::__1::__compressed_pair_elem"** %4, metadata !4650, metadata !DIExpression()), !dbg !5843
  %5 = alloca %"class.std::__1::__compressed_pair"*, align 8
  call void @llvm.dbg.declare(metadata %"class.std::__1::__compressed_pair"** %5, metadata !4658, metadata !DIExpression()), !dbg !5846
  %6 = alloca %"struct.std::__1::default_delete"*, align 8
  call void @llvm.dbg.declare(metadata %"struct.std::__1::default_delete"** %6, metadata !4692, metadata !DIExpression()), !dbg !5847
  %7 = alloca %"struct.altered_carbon::js::ACLexPosition"*, align 8
  call void @llvm.dbg.declare(metadata %"struct.altered_carbon::js::ACLexPosition"** %7, metadata !4697, metadata !DIExpression()), !dbg !5849
  %8 = alloca %"struct.std::__1::__compressed_pair_elem"*, align 8
  call void @llvm.dbg.declare(metadata %"struct.std::__1::__compressed_pair_elem"** %8, metadata !4650, metadata !DIExpression()), !dbg !5850
  %9 = alloca %"class.std::__1::__compressed_pair"*, align 8
  call void @llvm.dbg.declare(metadata %"class.std::__1::__compressed_pair"** %9, metadata !4658, metadata !DIExpression()), !dbg !5853
  %10 = alloca %"class.std::__1::unique_ptr"*, align 8
  call void @llvm.dbg.declare(metadata %"class.std::__1::unique_ptr"** %10, metadata !4703, metadata !DIExpression()), !dbg !5854
  %11 = alloca %"struct.altered_carbon::js::ACLexPosition"*, align 8
  call void @llvm.dbg.declare(metadata %"struct.altered_carbon::js::ACLexPosition"** %11, metadata !4705, metadata !DIExpression()), !dbg !5855
  %12 = alloca %"struct.altered_carbon::js::ACLexPosition"*, align 8
  call void @llvm.dbg.declare(metadata %"struct.altered_carbon::js::ACLexPosition"** %12, metadata !4707, metadata !DIExpression()), !dbg !5856
  %13 = alloca %"class.std::__1::unique_ptr"*, align 8
  call void @llvm.dbg.declare(metadata %"class.std::__1::unique_ptr"** %13, metadata !4709, metadata !DIExpression()), !dbg !5857
  %14 = alloca %"class.std::__1::unique_ptr"*, align 8
  call void @llvm.dbg.declare(metadata %"class.std::__1::unique_ptr"** %14, metadata !4711, metadata !DIExpression()), !dbg !5858
  %15 = alloca %"class.altered_carbon::js::ACAstBaseNode"*, align 8
  store %"class.altered_carbon::js::ACAstBaseNode"* %0, %"class.altered_carbon::js::ACAstBaseNode"** %15, align 8
  call void @llvm.dbg.declare(metadata %"class.altered_carbon::js::ACAstBaseNode"** %15, metadata !5859, metadata !DIExpression()), !dbg !5860
  %16 = load %"class.altered_carbon::js::ACAstBaseNode"*, %"class.altered_carbon::js::ACAstBaseNode"** %15, align 8
  %17 = bitcast %"class.altered_carbon::js::ACAstBaseNode"* %16 to i32 (...)***, !dbg !5861
  store i32 (...)** bitcast (i8** getelementptr inbounds ({ [14 x i8*] }, { [14 x i8*] }* @_ZTVN14altered_carbon2js13ACAstBaseNodeE, i32 0, inrange i32 0, i32 2) to i32 (...)**), i32 (...)*** %17, align 8, !dbg !5861
  %18 = getelementptr inbounds %"class.altered_carbon::js::ACAstBaseNode", %"class.altered_carbon::js::ACAstBaseNode"* %16, i32 0, i32 4, !dbg !5862
  call void @_ZNSt3__16vectorINS_10unique_ptrIN14altered_carbon2js13ACAstBaseNodeENS_14default_deleteIS4_EEEENS_9allocatorIS7_EEED1Ev(%"class.std::__1::vector"* %18) #6, !dbg !5862
  %19 = getelementptr inbounds %"class.altered_carbon::js::ACAstBaseNode", %"class.altered_carbon::js::ACAstBaseNode"* %16, i32 0, i32 1, !dbg !5862
  store %"class.std::__1::unique_ptr"* %19, %"class.std::__1::unique_ptr"** %14, align 8
  %20 = load %"class.std::__1::unique_ptr"*, %"class.std::__1::unique_ptr"** %14, align 8
  store %"class.std::__1::unique_ptr"* %20, %"class.std::__1::unique_ptr"** %13, align 8
  %21 = load %"class.std::__1::unique_ptr"*, %"class.std::__1::unique_ptr"** %13, align 8
  store %"class.std::__1::unique_ptr"* %21, %"class.std::__1::unique_ptr"** %10, align 8
  store %"struct.altered_carbon::js::ACLexPosition"* null, %"struct.altered_carbon::js::ACLexPosition"** %11, align 8
  %22 = load %"class.std::__1::unique_ptr"*, %"class.std::__1::unique_ptr"** %10, align 8
  %23 = getelementptr inbounds %"class.std::__1::unique_ptr", %"class.std::__1::unique_ptr"* %22, i32 0, i32 0, !dbg !5863
  store %"class.std::__1::__compressed_pair"* %23, %"class.std::__1::__compressed_pair"** %9, align 8
  %24 = load %"class.std::__1::__compressed_pair"*, %"class.std::__1::__compressed_pair"** %9, align 8
  %25 = bitcast %"class.std::__1::__compressed_pair"* %24 to %"struct.std::__1::__compressed_pair_elem"*, !dbg !5864
  store %"struct.std::__1::__compressed_pair_elem"* %25, %"struct.std::__1::__compressed_pair_elem"** %8, align 8
  %26 = load %"struct.std::__1::__compressed_pair_elem"*, %"struct.std::__1::__compressed_pair_elem"** %8, align 8
  %27 = getelementptr inbounds %"struct.std::__1::__compressed_pair_elem", %"struct.std::__1::__compressed_pair_elem"* %26, i32 0, i32 0, !dbg !5865
  %28 = load %"struct.altered_carbon::js::ACLexPosition"*, %"struct.altered_carbon::js::ACLexPosition"** %27, align 8, !dbg !5866
  store %"struct.altered_carbon::js::ACLexPosition"* %28, %"struct.altered_carbon::js::ACLexPosition"** %12, align 8, !dbg !5856
  %29 = load %"struct.altered_carbon::js::ACLexPosition"*, %"struct.altered_carbon::js::ACLexPosition"** %11, align 8, !dbg !5867
  %30 = getelementptr inbounds %"class.std::__1::unique_ptr", %"class.std::__1::unique_ptr"* %22, i32 0, i32 0, !dbg !5868
  store %"class.std::__1::__compressed_pair"* %30, %"class.std::__1::__compressed_pair"** %5, align 8
  %31 = load %"class.std::__1::__compressed_pair"*, %"class.std::__1::__compressed_pair"** %5, align 8
  %32 = bitcast %"class.std::__1::__compressed_pair"* %31 to %"struct.std::__1::__compressed_pair_elem"*, !dbg !5869
  store %"struct.std::__1::__compressed_pair_elem"* %32, %"struct.std::__1::__compressed_pair_elem"** %4, align 8
  %33 = load %"struct.std::__1::__compressed_pair_elem"*, %"struct.std::__1::__compressed_pair_elem"** %4, align 8
  %34 = getelementptr inbounds %"struct.std::__1::__compressed_pair_elem", %"struct.std::__1::__compressed_pair_elem"* %33, i32 0, i32 0, !dbg !5870
  store %"struct.altered_carbon::js::ACLexPosition"* %29, %"struct.altered_carbon::js::ACLexPosition"** %34, align 8, !dbg !5871
  %35 = load %"struct.altered_carbon::js::ACLexPosition"*, %"struct.altered_carbon::js::ACLexPosition"** %12, align 8, !dbg !5872
  %36 = icmp ne %"struct.altered_carbon::js::ACLexPosition"* %35, null, !dbg !5872
  br i1 %36, label %37, label %53, !dbg !5873

; <label>:37:                                     ; preds = %1
  %38 = getelementptr inbounds %"class.std::__1::unique_ptr", %"class.std::__1::unique_ptr"* %22, i32 0, i32 0, !dbg !5874
  store %"class.std::__1::__compressed_pair"* %38, %"class.std::__1::__compressed_pair"** %3, align 8
  %39 = load %"class.std::__1::__compressed_pair"*, %"class.std::__1::__compressed_pair"** %3, align 8
  %40 = bitcast %"class.std::__1::__compressed_pair"* %39 to %"struct.std::__1::__compressed_pair_elem.0"*, !dbg !5875
  store %"struct.std::__1::__compressed_pair_elem.0"* %40, %"struct.std::__1::__compressed_pair_elem.0"** %2, align 8
  %41 = load %"struct.std::__1::__compressed_pair_elem.0"*, %"struct.std::__1::__compressed_pair_elem.0"** %2, align 8
  %42 = bitcast %"struct.std::__1::__compressed_pair_elem.0"* %41 to %"struct.std::__1::default_delete"*, !dbg !5876
  %43 = load %"struct.altered_carbon::js::ACLexPosition"*, %"struct.altered_carbon::js::ACLexPosition"** %12, align 8, !dbg !5877
  store %"struct.std::__1::default_delete"* %42, %"struct.std::__1::default_delete"** %6, align 8
  store %"struct.altered_carbon::js::ACLexPosition"* %43, %"struct.altered_carbon::js::ACLexPosition"** %7, align 8
  %44 = load %"struct.std::__1::default_delete"*, %"struct.std::__1::default_delete"** %6, align 8
  %45 = load %"struct.altered_carbon::js::ACLexPosition"*, %"struct.altered_carbon::js::ACLexPosition"** %7, align 8, !dbg !5878
  %46 = icmp eq %"struct.altered_carbon::js::ACLexPosition"* %45, null, !dbg !5879
  br i1 %46, label %52, label %47, !dbg !5879

; <label>:47:                                     ; preds = %37
  %48 = bitcast %"struct.altered_carbon::js::ACLexPosition"* %45 to void (%"struct.altered_carbon::js::ACLexPosition"*)***, !dbg !5879
  %49 = load void (%"struct.altered_carbon::js::ACLexPosition"*)**, void (%"struct.altered_carbon::js::ACLexPosition"*)*** %48, align 8, !dbg !5879
  %50 = getelementptr inbounds void (%"struct.altered_carbon::js::ACLexPosition"*)*, void (%"struct.altered_carbon::js::ACLexPosition"*)** %49, i64 1, !dbg !5879
  %51 = load void (%"struct.altered_carbon::js::ACLexPosition"*)*, void (%"struct.altered_carbon::js::ACLexPosition"*)** %50, align 8, !dbg !5879
  call void %51(%"struct.altered_carbon::js::ACLexPosition"* %45) #6, !dbg !5879
  br label %52, !dbg !5879

; <label>:52:                                     ; preds = %47, %37
  br label %53, !dbg !5874

; <label>:53:                                     ; preds = %1, %52
  ret void, !dbg !5880
}

; Function Attrs: noinline nounwind optnone ssp uwtable
define linkonce_odr hidden void @_ZNSt3__16vectorINS_10unique_ptrIN14altered_carbon2js13ACAstBaseNodeENS_14default_deleteIS4_EEEENS_9allocatorIS7_EEED1Ev(%"class.std::__1::vector"*) unnamed_addr #0 align 2 !dbg !5881 {
  %2 = alloca %"class.std::__1::vector"*, align 8
  store %"class.std::__1::vector"* %0, %"class.std::__1::vector"** %2, align 8
  call void @llvm.dbg.declare(metadata %"class.std::__1::vector"** %2, metadata !5883, metadata !DIExpression()), !dbg !5885
  %3 = load %"class.std::__1::vector"*, %"class.std::__1::vector"** %2, align 8
  call void @_ZNSt3__16vectorINS_10unique_ptrIN14altered_carbon2js13ACAstBaseNodeENS_14default_deleteIS4_EEEENS_9allocatorIS7_EEED2Ev(%"class.std::__1::vector"* %3) #6, !dbg !5886
  ret void, !dbg !5886
}

; Function Attrs: noinline nounwind optnone ssp uwtable
define linkonce_odr hidden void @_ZNSt3__16vectorINS_10unique_ptrIN14altered_carbon2js13ACAstBaseNodeENS_14default_deleteIS4_EEEENS_9allocatorIS7_EEED2Ev(%"class.std::__1::vector"*) unnamed_addr #0 align 2 !dbg !5887 {
  %2 = alloca %"class.std::__1::vector"*, align 8
  store %"class.std::__1::vector"* %0, %"class.std::__1::vector"** %2, align 8
  call void @llvm.dbg.declare(metadata %"class.std::__1::vector"** %2, metadata !5888, metadata !DIExpression()), !dbg !5889
  %3 = load %"class.std::__1::vector"*, %"class.std::__1::vector"** %2, align 8
  %4 = bitcast %"class.std::__1::vector"* %3 to %"class.std::__1::__vector_base"*, !dbg !5890
  call void @_ZNSt3__113__vector_baseINS_10unique_ptrIN14altered_carbon2js13ACAstBaseNodeENS_14default_deleteIS4_EEEENS_9allocatorIS7_EEED2Ev(%"class.std::__1::__vector_base"* %4) #6, !dbg !5890
  ret void, !dbg !5892
}

; Function Attrs: noinline nounwind optnone ssp uwtable
define linkonce_odr void @_ZNSt3__113__vector_baseINS_10unique_ptrIN14altered_carbon2js13ACAstBaseNodeENS_14default_deleteIS4_EEEENS_9allocatorIS7_EEED2Ev(%"class.std::__1::__vector_base"*) unnamed_addr #0 align 2 !dbg !5893 {
  %2 = alloca %"struct.std::__1::__compressed_pair_elem.8"*, align 8
  call void @llvm.dbg.declare(metadata %"struct.std::__1::__compressed_pair_elem.8"** %2, metadata !5894, metadata !DIExpression()), !dbg !5897
  %3 = alloca %"class.std::__1::__compressed_pair.7"*, align 8
  call void @llvm.dbg.declare(metadata %"class.std::__1::__compressed_pair.7"** %3, metadata !5908, metadata !DIExpression()), !dbg !5910
  %4 = alloca %"class.std::__1::__vector_base"*, align 8
  call void @llvm.dbg.declare(metadata %"class.std::__1::__vector_base"** %4, metadata !5911, metadata !DIExpression()), !dbg !5913
  %5 = alloca %"class.std::__1::__vector_base"*, align 8
  call void @llvm.dbg.declare(metadata %"class.std::__1::__vector_base"** %5, metadata !5914, metadata !DIExpression()), !dbg !5915
  %6 = alloca i8*, align 8
  call void @llvm.dbg.declare(metadata i8** %6, metadata !5916, metadata !DIExpression()), !dbg !5919
  %7 = alloca %"class.std::__1::allocator"*, align 8
  call void @llvm.dbg.declare(metadata %"class.std::__1::allocator"** %7, metadata !5925, metadata !DIExpression()), !dbg !5927
  %8 = alloca %"class.std::__1::unique_ptr.1"*, align 8
  call void @llvm.dbg.declare(metadata %"class.std::__1::unique_ptr.1"** %8, metadata !5928, metadata !DIExpression()), !dbg !5929
  %9 = alloca i64, align 8
  call void @llvm.dbg.declare(metadata i64* %9, metadata !5930, metadata !DIExpression()), !dbg !5931
  %10 = alloca %"class.std::__1::allocator"*, align 8
  call void @llvm.dbg.declare(metadata %"class.std::__1::allocator"** %10, metadata !5932, metadata !DIExpression()), !dbg !5933
  %11 = alloca %"class.std::__1::unique_ptr.1"*, align 8
  call void @llvm.dbg.declare(metadata %"class.std::__1::unique_ptr.1"** %11, metadata !5934, metadata !DIExpression()), !dbg !5935
  %12 = alloca i64, align 8
  call void @llvm.dbg.declare(metadata i64* %12, metadata !5936, metadata !DIExpression()), !dbg !5937
  %13 = alloca %"struct.std::__1::__compressed_pair_elem.9"*, align 8
  call void @llvm.dbg.declare(metadata %"struct.std::__1::__compressed_pair_elem.9"** %13, metadata !5938, metadata !DIExpression()), !dbg !5941
  %14 = alloca %"class.std::__1::__compressed_pair.7"*, align 8
  call void @llvm.dbg.declare(metadata %"class.std::__1::__compressed_pair.7"** %14, metadata !5947, metadata !DIExpression()), !dbg !5949
  %15 = alloca %"class.std::__1::__vector_base"*, align 8
  call void @llvm.dbg.declare(metadata %"class.std::__1::__vector_base"** %15, metadata !5950, metadata !DIExpression()), !dbg !5952
  %16 = alloca %"class.std::__1::unique_ptr.1"*, align 8
  call void @llvm.dbg.declare(metadata %"class.std::__1::unique_ptr.1"** %16, metadata !5953, metadata !DIExpression()), !dbg !5957
  %17 = alloca %"struct.std::__1::__compressed_pair_elem.4"*, align 8
  call void @llvm.dbg.declare(metadata %"struct.std::__1::__compressed_pair_elem.4"** %17, metadata !4944, metadata !DIExpression()), !dbg !5963
  %18 = alloca %"class.std::__1::__compressed_pair.2"*, align 8
  call void @llvm.dbg.declare(metadata %"class.std::__1::__compressed_pair.2"** %18, metadata !4957, metadata !DIExpression()), !dbg !5981
  %19 = alloca %"struct.std::__1::__compressed_pair_elem.3"*, align 8
  call void @llvm.dbg.declare(metadata %"struct.std::__1::__compressed_pair_elem.3"** %19, metadata !5016, metadata !DIExpression()), !dbg !5982
  %20 = alloca %"class.std::__1::__compressed_pair.2"*, align 8
  call void @llvm.dbg.declare(metadata %"class.std::__1::__compressed_pair.2"** %20, metadata !5024, metadata !DIExpression()), !dbg !5985
  %21 = alloca %"struct.std::__1::default_delete.5"*, align 8
  call void @llvm.dbg.declare(metadata %"struct.std::__1::default_delete.5"** %21, metadata !5417, metadata !DIExpression()), !dbg !5986
  %22 = alloca %"class.altered_carbon::js::ACAstBaseNode"*, align 8
  call void @llvm.dbg.declare(metadata %"class.altered_carbon::js::ACAstBaseNode"** %22, metadata !5422, metadata !DIExpression()), !dbg !5988
  %23 = alloca %"struct.std::__1::__compressed_pair_elem.3"*, align 8
  call void @llvm.dbg.declare(metadata %"struct.std::__1::__compressed_pair_elem.3"** %23, metadata !5016, metadata !DIExpression()), !dbg !5989
  %24 = alloca %"class.std::__1::__compressed_pair.2"*, align 8
  call void @llvm.dbg.declare(metadata %"class.std::__1::__compressed_pair.2"** %24, metadata !5024, metadata !DIExpression()), !dbg !5992
  %25 = alloca %"class.std::__1::unique_ptr.1"*, align 8
  call void @llvm.dbg.declare(metadata %"class.std::__1::unique_ptr.1"** %25, metadata !5428, metadata !DIExpression()), !dbg !5993
  %26 = alloca %"class.altered_carbon::js::ACAstBaseNode"*, align 8
  call void @llvm.dbg.declare(metadata %"class.altered_carbon::js::ACAstBaseNode"** %26, metadata !5430, metadata !DIExpression()), !dbg !5994
  %27 = alloca %"class.altered_carbon::js::ACAstBaseNode"*, align 8
  call void @llvm.dbg.declare(metadata %"class.altered_carbon::js::ACAstBaseNode"** %27, metadata !5432, metadata !DIExpression()), !dbg !5995
  %28 = alloca %"class.std::__1::unique_ptr.1"*, align 8
  call void @llvm.dbg.declare(metadata %"class.std::__1::unique_ptr.1"** %28, metadata !5434, metadata !DIExpression()), !dbg !5996
  %29 = alloca %"class.std::__1::unique_ptr.1"*, align 8
  call void @llvm.dbg.declare(metadata %"class.std::__1::unique_ptr.1"** %29, metadata !5436, metadata !DIExpression()), !dbg !5997
  %30 = alloca %"class.std::__1::allocator"*, align 8
  call void @llvm.dbg.declare(metadata %"class.std::__1::allocator"** %30, metadata !5998, metadata !DIExpression()), !dbg !5999
  %31 = alloca %"class.std::__1::unique_ptr.1"*, align 8
  call void @llvm.dbg.declare(metadata %"class.std::__1::unique_ptr.1"** %31, metadata !6000, metadata !DIExpression()), !dbg !6001
  %32 = alloca %"class.std::__1::allocator"*, align 8
  call void @llvm.dbg.declare(metadata %"class.std::__1::allocator"** %32, metadata !6002, metadata !DIExpression()), !dbg !6003
  %33 = alloca %"class.std::__1::unique_ptr.1"*, align 8
  call void @llvm.dbg.declare(metadata %"class.std::__1::unique_ptr.1"** %33, metadata !6004, metadata !DIExpression()), !dbg !6005
  %34 = alloca %"class.std::__1::allocator"*, align 8
  call void @llvm.dbg.declare(metadata %"class.std::__1::allocator"** %34, metadata !6006, metadata !DIExpression()), !dbg !6007
  %35 = alloca %"class.std::__1::unique_ptr.1"*, align 8
  call void @llvm.dbg.declare(metadata %"class.std::__1::unique_ptr.1"** %35, metadata !6008, metadata !DIExpression()), !dbg !6009
  %36 = alloca %"struct.std::__1::__has_destroy", align 1
  %37 = alloca %"struct.std::__1::__compressed_pair_elem.9"*, align 8
  call void @llvm.dbg.declare(metadata %"struct.std::__1::__compressed_pair_elem.9"** %37, metadata !5938, metadata !DIExpression()), !dbg !6010
  %38 = alloca %"class.std::__1::__compressed_pair.7"*, align 8
  call void @llvm.dbg.declare(metadata %"class.std::__1::__compressed_pair.7"** %38, metadata !5947, metadata !DIExpression()), !dbg !6014
  %39 = alloca %"class.std::__1::__vector_base"*, align 8
  call void @llvm.dbg.declare(metadata %"class.std::__1::__vector_base"** %39, metadata !5950, metadata !DIExpression()), !dbg !6015
  %40 = alloca %"class.std::__1::__vector_base"*, align 8
  call void @llvm.dbg.declare(metadata %"class.std::__1::__vector_base"** %40, metadata !6016, metadata !DIExpression()), !dbg !6017
  %41 = alloca %"class.std::__1::unique_ptr.1"*, align 8
  call void @llvm.dbg.declare(metadata %"class.std::__1::unique_ptr.1"** %41, metadata !6018, metadata !DIExpression()), !dbg !6019
  %42 = alloca %"class.std::__1::unique_ptr.1"*, align 8
  call void @llvm.dbg.declare(metadata %"class.std::__1::unique_ptr.1"** %42, metadata !6020, metadata !DIExpression()), !dbg !6021
  %43 = alloca %"class.std::__1::__vector_base"*, align 8
  call void @llvm.dbg.declare(metadata %"class.std::__1::__vector_base"** %43, metadata !6022, metadata !DIExpression()), !dbg !6023
  %44 = alloca %"class.std::__1::__vector_base"*, align 8
  store %"class.std::__1::__vector_base"* %0, %"class.std::__1::__vector_base"** %44, align 8
  call void @llvm.dbg.declare(metadata %"class.std::__1::__vector_base"** %44, metadata !6024, metadata !DIExpression()), !dbg !6025
  %45 = load %"class.std::__1::__vector_base"*, %"class.std::__1::__vector_base"** %44, align 8
  %46 = getelementptr inbounds %"class.std::__1::__vector_base", %"class.std::__1::__vector_base"* %45, i32 0, i32 0, !dbg !6026
  %47 = load %"class.std::__1::unique_ptr.1"*, %"class.std::__1::unique_ptr.1"** %46, align 8, !dbg !6026
  %48 = icmp ne %"class.std::__1::unique_ptr.1"* %47, null, !dbg !6027
  br i1 %48, label %49, label %143, !dbg !6028

; <label>:49:                                     ; preds = %1
  store %"class.std::__1::__vector_base"* %45, %"class.std::__1::__vector_base"** %43, align 8
  %50 = load %"class.std::__1::__vector_base"*, %"class.std::__1::__vector_base"** %43, align 8
  %51 = getelementptr inbounds %"class.std::__1::__vector_base", %"class.std::__1::__vector_base"* %50, i32 0, i32 0, !dbg !6029
  %52 = load %"class.std::__1::unique_ptr.1"*, %"class.std::__1::unique_ptr.1"** %51, align 8, !dbg !6029
  store %"class.std::__1::__vector_base"* %50, %"class.std::__1::__vector_base"** %40, align 8
  store %"class.std::__1::unique_ptr.1"* %52, %"class.std::__1::unique_ptr.1"** %41, align 8
  %53 = load %"class.std::__1::__vector_base"*, %"class.std::__1::__vector_base"** %40, align 8
  %54 = getelementptr inbounds %"class.std::__1::__vector_base", %"class.std::__1::__vector_base"* %53, i32 0, i32 1, !dbg !6030
  %55 = load %"class.std::__1::unique_ptr.1"*, %"class.std::__1::unique_ptr.1"** %54, align 8, !dbg !6030
  store %"class.std::__1::unique_ptr.1"* %55, %"class.std::__1::unique_ptr.1"** %42, align 8, !dbg !6021
  br label %56, !dbg !6031

; <label>:56:                                     ; preds = %110, %49
  %57 = load %"class.std::__1::unique_ptr.1"*, %"class.std::__1::unique_ptr.1"** %41, align 8, !dbg !6032
  %58 = load %"class.std::__1::unique_ptr.1"*, %"class.std::__1::unique_ptr.1"** %42, align 8, !dbg !6033
  %59 = icmp ne %"class.std::__1::unique_ptr.1"* %57, %58, !dbg !6034
  br i1 %59, label %60, label %111, !dbg !6031

; <label>:60:                                     ; preds = %56
  store %"class.std::__1::__vector_base"* %53, %"class.std::__1::__vector_base"** %39, align 8
  %61 = load %"class.std::__1::__vector_base"*, %"class.std::__1::__vector_base"** %39, align 8
  %62 = getelementptr inbounds %"class.std::__1::__vector_base", %"class.std::__1::__vector_base"* %61, i32 0, i32 2, !dbg !6035
  store %"class.std::__1::__compressed_pair.7"* %62, %"class.std::__1::__compressed_pair.7"** %38, align 8
  %63 = load %"class.std::__1::__compressed_pair.7"*, %"class.std::__1::__compressed_pair.7"** %38, align 8
  %64 = bitcast %"class.std::__1::__compressed_pair.7"* %63 to %"struct.std::__1::__compressed_pair_elem.9"*, !dbg !6036
  store %"struct.std::__1::__compressed_pair_elem.9"* %64, %"struct.std::__1::__compressed_pair_elem.9"** %37, align 8
  %65 = load %"struct.std::__1::__compressed_pair_elem.9"*, %"struct.std::__1::__compressed_pair_elem.9"** %37, align 8
  %66 = bitcast %"struct.std::__1::__compressed_pair_elem.9"* %65 to %"class.std::__1::allocator"*, !dbg !6037
  %67 = load %"class.std::__1::unique_ptr.1"*, %"class.std::__1::unique_ptr.1"** %42, align 8, !dbg !6038
  %68 = getelementptr inbounds %"class.std::__1::unique_ptr.1", %"class.std::__1::unique_ptr.1"* %67, i32 -1, !dbg !6038
  store %"class.std::__1::unique_ptr.1"* %68, %"class.std::__1::unique_ptr.1"** %42, align 8, !dbg !6038
  store %"class.std::__1::unique_ptr.1"* %68, %"class.std::__1::unique_ptr.1"** %16, align 8
  %69 = load %"class.std::__1::unique_ptr.1"*, %"class.std::__1::unique_ptr.1"** %16, align 8, !dbg !6039
  store %"class.std::__1::allocator"* %66, %"class.std::__1::allocator"** %34, align 8
  store %"class.std::__1::unique_ptr.1"* %69, %"class.std::__1::unique_ptr.1"** %35, align 8
  %70 = bitcast %"struct.std::__1::__has_destroy"* %36 to %"struct.std::__1::integral_constant"*, !dbg !6040
  %71 = load %"class.std::__1::allocator"*, %"class.std::__1::allocator"** %34, align 8, !dbg !6041
  %72 = load %"class.std::__1::unique_ptr.1"*, %"class.std::__1::unique_ptr.1"** %35, align 8, !dbg !6042
  call void @llvm.dbg.declare(metadata !162, metadata !6043, metadata !DIExpression()) #6, !dbg !6044
  store %"class.std::__1::allocator"* %71, %"class.std::__1::allocator"** %32, align 8
  store %"class.std::__1::unique_ptr.1"* %72, %"class.std::__1::unique_ptr.1"** %33, align 8
  %73 = load %"class.std::__1::allocator"*, %"class.std::__1::allocator"** %32, align 8, !dbg !6045
  %74 = load %"class.std::__1::unique_ptr.1"*, %"class.std::__1::unique_ptr.1"** %33, align 8, !dbg !6046
  store %"class.std::__1::allocator"* %73, %"class.std::__1::allocator"** %30, align 8
  store %"class.std::__1::unique_ptr.1"* %74, %"class.std::__1::unique_ptr.1"** %31, align 8
  %75 = load %"class.std::__1::allocator"*, %"class.std::__1::allocator"** %30, align 8
  %76 = load %"class.std::__1::unique_ptr.1"*, %"class.std::__1::unique_ptr.1"** %31, align 8, !dbg !6047
  store %"class.std::__1::unique_ptr.1"* %76, %"class.std::__1::unique_ptr.1"** %29, align 8
  %77 = load %"class.std::__1::unique_ptr.1"*, %"class.std::__1::unique_ptr.1"** %29, align 8
  store %"class.std::__1::unique_ptr.1"* %77, %"class.std::__1::unique_ptr.1"** %28, align 8
  %78 = load %"class.std::__1::unique_ptr.1"*, %"class.std::__1::unique_ptr.1"** %28, align 8
  store %"class.std::__1::unique_ptr.1"* %78, %"class.std::__1::unique_ptr.1"** %25, align 8
  store %"class.altered_carbon::js::ACAstBaseNode"* null, %"class.altered_carbon::js::ACAstBaseNode"** %26, align 8
  %79 = load %"class.std::__1::unique_ptr.1"*, %"class.std::__1::unique_ptr.1"** %25, align 8
  %80 = getelementptr inbounds %"class.std::__1::unique_ptr.1", %"class.std::__1::unique_ptr.1"* %79, i32 0, i32 0, !dbg !6048
  store %"class.std::__1::__compressed_pair.2"* %80, %"class.std::__1::__compressed_pair.2"** %24, align 8
  %81 = load %"class.std::__1::__compressed_pair.2"*, %"class.std::__1::__compressed_pair.2"** %24, align 8
  %82 = bitcast %"class.std::__1::__compressed_pair.2"* %81 to %"struct.std::__1::__compressed_pair_elem.3"*, !dbg !6049
  store %"struct.std::__1::__compressed_pair_elem.3"* %82, %"struct.std::__1::__compressed_pair_elem.3"** %23, align 8
  %83 = load %"struct.std::__1::__compressed_pair_elem.3"*, %"struct.std::__1::__compressed_pair_elem.3"** %23, align 8
  %84 = getelementptr inbounds %"struct.std::__1::__compressed_pair_elem.3", %"struct.std::__1::__compressed_pair_elem.3"* %83, i32 0, i32 0, !dbg !6050
  %85 = load %"class.altered_carbon::js::ACAstBaseNode"*, %"class.altered_carbon::js::ACAstBaseNode"** %84, align 8, !dbg !6051
  store %"class.altered_carbon::js::ACAstBaseNode"* %85, %"class.altered_carbon::js::ACAstBaseNode"** %27, align 8, !dbg !5995
  %86 = load %"class.altered_carbon::js::ACAstBaseNode"*, %"class.altered_carbon::js::ACAstBaseNode"** %26, align 8, !dbg !6052
  %87 = getelementptr inbounds %"class.std::__1::unique_ptr.1", %"class.std::__1::unique_ptr.1"* %79, i32 0, i32 0, !dbg !6053
  store %"class.std::__1::__compressed_pair.2"* %87, %"class.std::__1::__compressed_pair.2"** %20, align 8
  %88 = load %"class.std::__1::__compressed_pair.2"*, %"class.std::__1::__compressed_pair.2"** %20, align 8
  %89 = bitcast %"class.std::__1::__compressed_pair.2"* %88 to %"struct.std::__1::__compressed_pair_elem.3"*, !dbg !6054
  store %"struct.std::__1::__compressed_pair_elem.3"* %89, %"struct.std::__1::__compressed_pair_elem.3"** %19, align 8
  %90 = load %"struct.std::__1::__compressed_pair_elem.3"*, %"struct.std::__1::__compressed_pair_elem.3"** %19, align 8
  %91 = getelementptr inbounds %"struct.std::__1::__compressed_pair_elem.3", %"struct.std::__1::__compressed_pair_elem.3"* %90, i32 0, i32 0, !dbg !6055
  store %"class.altered_carbon::js::ACAstBaseNode"* %86, %"class.altered_carbon::js::ACAstBaseNode"** %91, align 8, !dbg !6056
  %92 = load %"class.altered_carbon::js::ACAstBaseNode"*, %"class.altered_carbon::js::ACAstBaseNode"** %27, align 8, !dbg !6057
  %93 = icmp ne %"class.altered_carbon::js::ACAstBaseNode"* %92, null, !dbg !6057
  br i1 %93, label %94, label %110, !dbg !6058

; <label>:94:                                     ; preds = %60
  %95 = getelementptr inbounds %"class.std::__1::unique_ptr.1", %"class.std::__1::unique_ptr.1"* %79, i32 0, i32 0, !dbg !6059
  store %"class.std::__1::__compressed_pair.2"* %95, %"class.std::__1::__compressed_pair.2"** %18, align 8
  %96 = load %"class.std::__1::__compressed_pair.2"*, %"class.std::__1::__compressed_pair.2"** %18, align 8
  %97 = bitcast %"class.std::__1::__compressed_pair.2"* %96 to %"struct.std::__1::__compressed_pair_elem.4"*, !dbg !6060
  store %"struct.std::__1::__compressed_pair_elem.4"* %97, %"struct.std::__1::__compressed_pair_elem.4"** %17, align 8
  %98 = load %"struct.std::__1::__compressed_pair_elem.4"*, %"struct.std::__1::__compressed_pair_elem.4"** %17, align 8
  %99 = bitcast %"struct.std::__1::__compressed_pair_elem.4"* %98 to %"struct.std::__1::default_delete.5"*, !dbg !6061
  %100 = load %"class.altered_carbon::js::ACAstBaseNode"*, %"class.altered_carbon::js::ACAstBaseNode"** %27, align 8, !dbg !6062
  store %"struct.std::__1::default_delete.5"* %99, %"struct.std::__1::default_delete.5"** %21, align 8
  store %"class.altered_carbon::js::ACAstBaseNode"* %100, %"class.altered_carbon::js::ACAstBaseNode"** %22, align 8
  %101 = load %"struct.std::__1::default_delete.5"*, %"struct.std::__1::default_delete.5"** %21, align 8
  %102 = load %"class.altered_carbon::js::ACAstBaseNode"*, %"class.altered_carbon::js::ACAstBaseNode"** %22, align 8, !dbg !6063
  %103 = icmp eq %"class.altered_carbon::js::ACAstBaseNode"* %102, null, !dbg !6064
  br i1 %103, label %109, label %104, !dbg !6064

; <label>:104:                                    ; preds = %94
  %105 = bitcast %"class.altered_carbon::js::ACAstBaseNode"* %102 to void (%"class.altered_carbon::js::ACAstBaseNode"*)***, !dbg !6064
  %106 = load void (%"class.altered_carbon::js::ACAstBaseNode"*)**, void (%"class.altered_carbon::js::ACAstBaseNode"*)*** %105, align 8, !dbg !6064
  %107 = getelementptr inbounds void (%"class.altered_carbon::js::ACAstBaseNode"*)*, void (%"class.altered_carbon::js::ACAstBaseNode"*)** %106, i64 1, !dbg !6064
  %108 = load void (%"class.altered_carbon::js::ACAstBaseNode"*)*, void (%"class.altered_carbon::js::ACAstBaseNode"*)** %107, align 8, !dbg !6064
  call void %108(%"class.altered_carbon::js::ACAstBaseNode"* %102) #6, !dbg !6064
  br label %109, !dbg !6064

; <label>:109:                                    ; preds = %104, %94
  br label %110, !dbg !6059

; <label>:110:                                    ; preds = %109, %60
  br label %56, !dbg !6031, !llvm.loop !6065

; <label>:111:                                    ; preds = %56
  %112 = load %"class.std::__1::unique_ptr.1"*, %"class.std::__1::unique_ptr.1"** %41, align 8, !dbg !6068
  %113 = getelementptr inbounds %"class.std::__1::__vector_base", %"class.std::__1::__vector_base"* %53, i32 0, i32 1, !dbg !6069
  store %"class.std::__1::unique_ptr.1"* %112, %"class.std::__1::unique_ptr.1"** %113, align 8, !dbg !6070
  store %"class.std::__1::__vector_base"* %45, %"class.std::__1::__vector_base"** %15, align 8
  %114 = load %"class.std::__1::__vector_base"*, %"class.std::__1::__vector_base"** %15, align 8
  %115 = getelementptr inbounds %"class.std::__1::__vector_base", %"class.std::__1::__vector_base"* %114, i32 0, i32 2, !dbg !6071
  store %"class.std::__1::__compressed_pair.7"* %115, %"class.std::__1::__compressed_pair.7"** %14, align 8
  %116 = load %"class.std::__1::__compressed_pair.7"*, %"class.std::__1::__compressed_pair.7"** %14, align 8
  %117 = bitcast %"class.std::__1::__compressed_pair.7"* %116 to %"struct.std::__1::__compressed_pair_elem.9"*, !dbg !6072
  store %"struct.std::__1::__compressed_pair_elem.9"* %117, %"struct.std::__1::__compressed_pair_elem.9"** %13, align 8
  %118 = load %"struct.std::__1::__compressed_pair_elem.9"*, %"struct.std::__1::__compressed_pair_elem.9"** %13, align 8
  %119 = bitcast %"struct.std::__1::__compressed_pair_elem.9"* %118 to %"class.std::__1::allocator"*, !dbg !6073
  %120 = getelementptr inbounds %"class.std::__1::__vector_base", %"class.std::__1::__vector_base"* %45, i32 0, i32 0, !dbg !6074
  %121 = load %"class.std::__1::unique_ptr.1"*, %"class.std::__1::unique_ptr.1"** %120, align 8, !dbg !6074
  store %"class.std::__1::__vector_base"* %45, %"class.std::__1::__vector_base"** %5, align 8
  %122 = load %"class.std::__1::__vector_base"*, %"class.std::__1::__vector_base"** %5, align 8
  store %"class.std::__1::__vector_base"* %122, %"class.std::__1::__vector_base"** %4, align 8
  %123 = load %"class.std::__1::__vector_base"*, %"class.std::__1::__vector_base"** %4, align 8
  %124 = getelementptr inbounds %"class.std::__1::__vector_base", %"class.std::__1::__vector_base"* %123, i32 0, i32 2, !dbg !6075
  store %"class.std::__1::__compressed_pair.7"* %124, %"class.std::__1::__compressed_pair.7"** %3, align 8
  %125 = load %"class.std::__1::__compressed_pair.7"*, %"class.std::__1::__compressed_pair.7"** %3, align 8
  %126 = bitcast %"class.std::__1::__compressed_pair.7"* %125 to %"struct.std::__1::__compressed_pair_elem.8"*, !dbg !6076
  store %"struct.std::__1::__compressed_pair_elem.8"* %126, %"struct.std::__1::__compressed_pair_elem.8"** %2, align 8
  %127 = load %"struct.std::__1::__compressed_pair_elem.8"*, %"struct.std::__1::__compressed_pair_elem.8"** %2, align 8
  %128 = getelementptr inbounds %"struct.std::__1::__compressed_pair_elem.8", %"struct.std::__1::__compressed_pair_elem.8"* %127, i32 0, i32 0, !dbg !6077
  %129 = load %"class.std::__1::unique_ptr.1"*, %"class.std::__1::unique_ptr.1"** %128, align 8, !dbg !6078
  %130 = getelementptr inbounds %"class.std::__1::__vector_base", %"class.std::__1::__vector_base"* %122, i32 0, i32 0, !dbg !6079
  %131 = load %"class.std::__1::unique_ptr.1"*, %"class.std::__1::unique_ptr.1"** %130, align 8, !dbg !6079
  %132 = ptrtoint %"class.std::__1::unique_ptr.1"* %129 to i64, !dbg !6080
  %133 = ptrtoint %"class.std::__1::unique_ptr.1"* %131 to i64, !dbg !6080
  %134 = sub i64 %132, %133, !dbg !6080
  %135 = sdiv exact i64 %134, 8, !dbg !6080
  store %"class.std::__1::allocator"* %119, %"class.std::__1::allocator"** %10, align 8
  store %"class.std::__1::unique_ptr.1"* %121, %"class.std::__1::unique_ptr.1"** %11, align 8
  store i64 %135, i64* %12, align 8
  %136 = load %"class.std::__1::allocator"*, %"class.std::__1::allocator"** %10, align 8, !dbg !6081
  %137 = load %"class.std::__1::unique_ptr.1"*, %"class.std::__1::unique_ptr.1"** %11, align 8, !dbg !6082
  %138 = load i64, i64* %12, align 8, !dbg !6083
  store %"class.std::__1::allocator"* %136, %"class.std::__1::allocator"** %7, align 8
  store %"class.std::__1::unique_ptr.1"* %137, %"class.std::__1::unique_ptr.1"** %8, align 8
  store i64 %138, i64* %9, align 8
  %139 = load %"class.std::__1::allocator"*, %"class.std::__1::allocator"** %7, align 8
  %140 = load %"class.std::__1::unique_ptr.1"*, %"class.std::__1::unique_ptr.1"** %8, align 8, !dbg !6084
  %141 = bitcast %"class.std::__1::unique_ptr.1"* %140 to i8*, !dbg !6084
  store i8* %141, i8** %6, align 8
  %142 = load i8*, i8** %6, align 8, !dbg !6085
  call void @_ZdlPv(i8* %142) #7, !dbg !6086
  br label %143, !dbg !6087

; <label>:143:                                    ; preds = %111, %1
  ret void, !dbg !6088
}

; Function Attrs: nobuiltin nounwind
declare void @_ZdlPv(i8*) #3

declare void @_ZNSt3__112basic_stringIwNS_11char_traitsIwEENS_9allocatorIwEEE6__initEPKwm(%"class.std::__1::basic_string"*, i32*, i64) #2

; Function Attrs: noinline nounwind optnone ssp uwtable
define linkonce_odr hidden i64 @_ZNSt3__111char_traitsIwE6lengthEPKw(i32*) #0 align 2 !dbg !6089 {
  %2 = alloca i32*, align 8
  store i32* %0, i32** %2, align 8
  call void @llvm.dbg.declare(metadata i32** %2, metadata !6090, metadata !DIExpression()), !dbg !6091
  %3 = load i32*, i32** %2, align 8, !dbg !6092
  %4 = call i64 @wcslen(i32* %3) #6, !dbg !6093
  ret i64 %4, !dbg !6094
}

; Function Attrs: nounwind
declare i64 @wcslen(i32*) #4

; Function Attrs: noinline nounwind optnone ssp uwtable
define linkonce_odr hidden void @_ZN14altered_carbon2js15ACAstTokenErrorD2Ev(%"class.altered_carbon::js::ACAstTokenError"*) unnamed_addr #0 align 2 !dbg !6095 {
  %2 = alloca %"class.altered_carbon::js::ACAstTokenError"*, align 8
  store %"class.altered_carbon::js::ACAstTokenError"* %0, %"class.altered_carbon::js::ACAstTokenError"** %2, align 8
  call void @llvm.dbg.declare(metadata %"class.altered_carbon::js::ACAstTokenError"** %2, metadata !6096, metadata !DIExpression()), !dbg !6097
  %3 = load %"class.altered_carbon::js::ACAstTokenError"*, %"class.altered_carbon::js::ACAstTokenError"** %2, align 8
  %4 = bitcast %"class.altered_carbon::js::ACAstTokenError"* %3 to %"class.altered_carbon::js::ACAstBaseError"*, !dbg !6098
  call void @_ZN14altered_carbon2js14ACAstBaseErrorD2Ev(%"class.altered_carbon::js::ACAstBaseError"* %4) #6, !dbg !6098
  ret void, !dbg !6100
}

; Function Attrs: noinline nounwind optnone ssp uwtable
define linkonce_odr hidden void @_ZN14altered_carbon2js16ACAstSyntaxErrorD2Ev(%"class.altered_carbon::js::ACAstSyntaxError"*) unnamed_addr #0 align 2 !dbg !6101 {
  %2 = alloca %"class.altered_carbon::js::ACAstSyntaxError"*, align 8
  store %"class.altered_carbon::js::ACAstSyntaxError"* %0, %"class.altered_carbon::js::ACAstSyntaxError"** %2, align 8
  call void @llvm.dbg.declare(metadata %"class.altered_carbon::js::ACAstSyntaxError"** %2, metadata !6102, metadata !DIExpression()), !dbg !6103
  %3 = load %"class.altered_carbon::js::ACAstSyntaxError"*, %"class.altered_carbon::js::ACAstSyntaxError"** %2, align 8
  %4 = bitcast %"class.altered_carbon::js::ACAstSyntaxError"* %3 to %"class.altered_carbon::js::ACAstBaseError"*, !dbg !6104
  call void @_ZN14altered_carbon2js14ACAstBaseErrorD2Ev(%"class.altered_carbon::js::ACAstBaseError"* %4) #6, !dbg !6104
  ret void, !dbg !6106
}

; Function Attrs: noinline nounwind optnone ssp uwtable
define linkonce_odr dereferenceable(160) %"class.std::__1::basic_ostream"* @_ZNSt3__124__put_character_sequenceIcNS_11char_traitsIcEEEERNS_13basic_ostreamIT_T0_EES7_PKS4_m(%"class.std::__1::basic_ostream"* dereferenceable(160), i8*, i64) #0 !dbg !3581 {
  %4 = alloca %"class.std::__1::ctype"*, align 8
  call void @llvm.dbg.declare(metadata %"class.std::__1::ctype"** %4, metadata !6107, metadata !DIExpression()), !dbg !6198
  %5 = alloca i8, align 1
  call void @llvm.dbg.declare(metadata i8* %5, metadata !6208, metadata !DIExpression()), !dbg !6209
  %6 = alloca %"class.std::__1::locale"*, align 8
  call void @llvm.dbg.declare(metadata %"class.std::__1::locale"** %6, metadata !6210, metadata !DIExpression()), !dbg !6217
  %7 = alloca %"class.std::__1::basic_ios"*, align 8
  call void @llvm.dbg.declare(metadata %"class.std::__1::basic_ios"** %7, metadata !6219, metadata !DIExpression()), !dbg !6221
  %8 = alloca i8, align 1
  call void @llvm.dbg.declare(metadata i8* %8, metadata !6222, metadata !DIExpression()), !dbg !6223
  %9 = alloca %"class.std::__1::locale", align 8
  %10 = alloca %"class.std::__1::basic_ios"*, align 8
  call void @llvm.dbg.declare(metadata %"class.std::__1::basic_ios"** %10, metadata !6224, metadata !DIExpression()), !dbg !6225
  %11 = alloca %"class.std::__1::ios_base"*, align 8
  call void @llvm.dbg.declare(metadata %"class.std::__1::ios_base"** %11, metadata !6226, metadata !DIExpression()), !dbg !6229
  %12 = alloca %"class.std::__1::ostreambuf_iterator"*, align 8
  call void @llvm.dbg.declare(metadata %"class.std::__1::ostreambuf_iterator"** %12, metadata !6231, metadata !DIExpression()), !dbg !6234
  %13 = alloca %"class.std::__1::ios_base"*, align 8
  call void @llvm.dbg.declare(metadata %"class.std::__1::ios_base"** %13, metadata !6236, metadata !DIExpression()), !dbg !6238
  %14 = alloca %"class.std::__1::basic_ios"*, align 8
  call void @llvm.dbg.declare(metadata %"class.std::__1::basic_ios"** %14, metadata !6246, metadata !DIExpression()), !dbg !6247
  %15 = alloca %"class.std::__1::ostreambuf_iterator"*, align 8
  call void @llvm.dbg.declare(metadata %"class.std::__1::ostreambuf_iterator"** %15, metadata !6248, metadata !DIExpression()), !dbg !6250
  %16 = alloca %"class.std::__1::basic_ostream"*, align 8
  call void @llvm.dbg.declare(metadata %"class.std::__1::basic_ostream"** %16, metadata !6251, metadata !DIExpression()), !dbg !6252
  %17 = alloca %"class.std::__1::ostreambuf_iterator"*, align 8
  call void @llvm.dbg.declare(metadata %"class.std::__1::ostreambuf_iterator"** %17, metadata !6253, metadata !DIExpression()), !dbg !6254
  %18 = alloca %"class.std::__1::basic_ostream"*, align 8
  call void @llvm.dbg.declare(metadata %"class.std::__1::basic_ostream"** %18, metadata !6255, metadata !DIExpression()), !dbg !6256
  %19 = alloca %"class.std::__1::ios_base"*, align 8
  call void @llvm.dbg.declare(metadata %"class.std::__1::ios_base"** %19, metadata !6257, metadata !DIExpression()), !dbg !6260
  %20 = alloca i32, align 4
  call void @llvm.dbg.declare(metadata i32* %20, metadata !6264, metadata !DIExpression()), !dbg !6265
  %21 = alloca %"class.std::__1::basic_ios"*, align 8
  call void @llvm.dbg.declare(metadata %"class.std::__1::basic_ios"** %21, metadata !6266, metadata !DIExpression()), !dbg !6268
  %22 = alloca i32, align 4
  call void @llvm.dbg.declare(metadata i32* %22, metadata !6269, metadata !DIExpression()), !dbg !6270
  %23 = alloca %"class.std::__1::basic_ostream<char, std::__1::char_traits<char> >::sentry"*, align 8
  call void @llvm.dbg.declare(metadata %"class.std::__1::basic_ostream<char, std::__1::char_traits<char> >::sentry"** %23, metadata !6271, metadata !DIExpression()), !dbg !6298
  %24 = alloca %"class.std::__1::basic_ostream"*, align 8
  %25 = alloca i8*, align 8
  %26 = alloca i64, align 8
  %27 = alloca %"class.std::__1::basic_ostream<char, std::__1::char_traits<char> >::sentry", align 8
  %28 = alloca %"class.std::__1::ostreambuf_iterator", align 8
  %29 = alloca %"class.std::__1::ostreambuf_iterator", align 8
  store %"class.std::__1::basic_ostream"* %0, %"class.std::__1::basic_ostream"** %24, align 8
  call void @llvm.dbg.declare(metadata %"class.std::__1::basic_ostream"** %24, metadata !6300, metadata !DIExpression()), !dbg !6301
  store i8* %1, i8** %25, align 8
  call void @llvm.dbg.declare(metadata i8** %25, metadata !6302, metadata !DIExpression()), !dbg !6303
  store i64 %2, i64* %26, align 8
  call void @llvm.dbg.declare(metadata i64* %26, metadata !6304, metadata !DIExpression()), !dbg !6305
  call void @llvm.dbg.declare(metadata %"class.std::__1::basic_ostream<char, std::__1::char_traits<char> >::sentry"* %27, metadata !6306, metadata !DIExpression()), !dbg !6307
  %30 = load %"class.std::__1::basic_ostream"*, %"class.std::__1::basic_ostream"** %24, align 8, !dbg !6308
  call void @_ZNSt3__113basic_ostreamIcNS_11char_traitsIcEEE6sentryC1ERS3_(%"class.std::__1::basic_ostream<char, std::__1::char_traits<char> >::sentry"* %27, %"class.std::__1::basic_ostream"* dereferenceable(160) %30), !dbg !6307
  store %"class.std::__1::basic_ostream<char, std::__1::char_traits<char> >::sentry"* %27, %"class.std::__1::basic_ostream<char, std::__1::char_traits<char> >::sentry"** %23, align 8
  %31 = load %"class.std::__1::basic_ostream<char, std::__1::char_traits<char> >::sentry"*, %"class.std::__1::basic_ostream<char, std::__1::char_traits<char> >::sentry"** %23, align 8
  %32 = getelementptr inbounds %"class.std::__1::basic_ostream<char, std::__1::char_traits<char> >::sentry", %"class.std::__1::basic_ostream<char, std::__1::char_traits<char> >::sentry"* %31, i32 0, i32 0, !dbg !6309
  %33 = load i8, i8* %32, align 8, !dbg !6309
  %34 = trunc i8 %33 to i1, !dbg !6309
  br i1 %34, label %35, label %153, !dbg !6310

; <label>:35:                                     ; preds = %3
  %36 = load %"class.std::__1::basic_ostream"*, %"class.std::__1::basic_ostream"** %24, align 8, !dbg !6311
  store %"class.std::__1::ostreambuf_iterator"* %29, %"class.std::__1::ostreambuf_iterator"** %17, align 8
  store %"class.std::__1::basic_ostream"* %36, %"class.std::__1::basic_ostream"** %18, align 8
  %37 = load %"class.std::__1::ostreambuf_iterator"*, %"class.std::__1::ostreambuf_iterator"** %17, align 8
  %38 = load %"class.std::__1::basic_ostream"*, %"class.std::__1::basic_ostream"** %18, align 8, !dbg !6312
  store %"class.std::__1::ostreambuf_iterator"* %37, %"class.std::__1::ostreambuf_iterator"** %15, align 8
  store %"class.std::__1::basic_ostream"* %38, %"class.std::__1::basic_ostream"** %16, align 8
  %39 = load %"class.std::__1::ostreambuf_iterator"*, %"class.std::__1::ostreambuf_iterator"** %15, align 8
  %40 = bitcast %"class.std::__1::ostreambuf_iterator"* %39 to %"struct.std::__1::iterator"*, !dbg !6313
  %41 = getelementptr inbounds %"class.std::__1::ostreambuf_iterator", %"class.std::__1::ostreambuf_iterator"* %39, i32 0, i32 0, !dbg !6314
  %42 = load %"class.std::__1::basic_ostream"*, %"class.std::__1::basic_ostream"** %16, align 8, !dbg !6315
  %43 = bitcast %"class.std::__1::basic_ostream"* %42 to i8**, !dbg !6315
  %44 = load i8*, i8** %43, align 8, !dbg !6315
  %45 = getelementptr i8, i8* %44, i64 -24, !dbg !6315
  %46 = bitcast i8* %45 to i64*, !dbg !6315
  %47 = load i64, i64* %46, align 8, !dbg !6315
  %48 = bitcast %"class.std::__1::basic_ostream"* %42 to i8*, !dbg !6315
  %49 = getelementptr inbounds i8, i8* %48, i64 %47, !dbg !6315
  %50 = bitcast i8* %49 to %"class.std::__1::basic_ios"*, !dbg !6315
  store %"class.std::__1::basic_ios"* %50, %"class.std::__1::basic_ios"** %14, align 8
  %51 = load %"class.std::__1::basic_ios"*, %"class.std::__1::basic_ios"** %14, align 8
  %52 = bitcast %"class.std::__1::basic_ios"* %51 to %"class.std::__1::ios_base"*, !dbg !6316
  store %"class.std::__1::ios_base"* %52, %"class.std::__1::ios_base"** %13, align 8
  %53 = load %"class.std::__1::ios_base"*, %"class.std::__1::ios_base"** %13, align 8
  %54 = getelementptr inbounds %"class.std::__1::ios_base", %"class.std::__1::ios_base"* %53, i32 0, i32 6, !dbg !6317
  %55 = load i8*, i8** %54, align 8, !dbg !6317
  %56 = bitcast i8* %55 to %"class.std::__1::basic_streambuf"*, !dbg !6318
  store %"class.std::__1::basic_streambuf"* %56, %"class.std::__1::basic_streambuf"** %41, align 8, !dbg !6314
  %57 = load i8*, i8** %25, align 8, !dbg !6319
  %58 = load %"class.std::__1::basic_ostream"*, %"class.std::__1::basic_ostream"** %24, align 8, !dbg !6320
  %59 = bitcast %"class.std::__1::basic_ostream"* %58 to i8**, !dbg !6320
