; ModuleID = 'temp.bc'
source_filename = "../ac_ast_variant_node.cc"
target datalayout = "e-m:o-i64:64-f80:128-n8:16:32:64-S128"
target triple = "x86_64-apple-macosx10.13.0"

%"class.altered_carbon::js::NullStream" = type { %"class.altered_carbon::js::NullStreamBuf", %"class.std::__1::basic_ostream.base", %"class.std::__1::basic_ios.base" }
%"class.altered_carbon::js::NullStreamBuf" = type { %"class.std::__1::basic_streambuf", [256 x i8] }
%"class.std::__1::basic_streambuf" = type { i32 (...)**, %"class.std::__1::locale", i8*, i8*, i8*, i8*, i8*, i8* }
%"class.std::__1::locale" = type { %"class.std::__1::locale::__imp"* }
%"class.std::__1::locale::__imp" = type opaque
%"class.std::__1::basic_ostream.base" = type { i32 (...)** }
%"class.std::__1::basic_ios.base" = type <{ %"class.std::__1::ios_base", %"class.std::__1::basic_ostream"*, i32 }>
%"class.std::__1::ios_base" = type { i32 (...)**, i32, i64, i64, i32, i32, i8*, i8*, void (i32, %"class.std::__1::ios_base"*, i32)**, i32*, i64, i64, i64*, i64, i64, i8**, i64, i64 }
%"class.std::__1::basic_ostream" = type { i32 (...)**, %"class.std::__1::basic_ios.base" }
%"class.std::__1::locale::id" = type <{ %"struct.std::__1::once_flag", i32, [4 x i8] }>
%"struct.std::__1::once_flag" = type { i64 }
%"class.std::__1::basic_ios" = type <{ %"class.std::__1::ios_base", %"class.std::__1::basic_ostream"*, i32, [4 x i8] }>
%"class.altered_carbon::js::ACAstVariantNode" = type { %"class.altered_carbon::js::ACAstBaseNode", %"class.std::__1::basic_string", i8, %"class.altered_carbon::js::ACLexNumber", %"class.std::__1::basic_string", i32, %"class.std::__1::unique_ptr.17" }
%"class.altered_carbon::js::ACAstBaseNode" = type { i32 (...)**, %"class.std::__1::unique_ptr", i32, i32, %"class.std::__1::vector" }
%"class.std::__1::unique_ptr" = type { %"class.std::__1::__compressed_pair" }
%"class.std::__1::__compressed_pair" = type { %"struct.std::__1::__compressed_pair_elem" }
%"struct.std::__1::__compressed_pair_elem" = type { %"struct.altered_carbon::js::ACLexPosition"* }
%"struct.altered_carbon::js::ACLexPosition" = type { i32 (...)**, i64, i32, i64 }
%"class.std::__1::vector" = type { %"class.std::__1::__vector_base" }
%"class.std::__1::__vector_base" = type { %"class.std::__1::unique_ptr.1"*, %"class.std::__1::unique_ptr.1"*, %"class.std::__1::__compressed_pair.7" }
%"class.std::__1::unique_ptr.1" = type { %"class.std::__1::__compressed_pair.2" }
%"class.std::__1::__compressed_pair.2" = type { %"struct.std::__1::__compressed_pair_elem.3" }
%"struct.std::__1::__compressed_pair_elem.3" = type { %"class.altered_carbon::js::ACAstBaseNode"* }
%"class.std::__1::__compressed_pair.7" = type { %"struct.std::__1::__compressed_pair_elem.8" }
%"struct.std::__1::__compressed_pair_elem.8" = type { %"class.std::__1::unique_ptr.1"* }
%"class.altered_carbon::js::ACLexNumber" = type { i32 (...)**, i8, %union.anon.16 }
%union.anon.16 = type { double }
%"class.std::__1::basic_string" = type { %"class.std::__1::__compressed_pair.10" }
%"class.std::__1::__compressed_pair.10" = type { %"struct.std::__1::__compressed_pair_elem.11" }
%"struct.std::__1::__compressed_pair_elem.11" = type { %"struct.std::__1::basic_string<wchar_t, std::__1::char_traits<wchar_t>, std::__1::allocator<wchar_t> >::__rep" }
%"struct.std::__1::basic_string<wchar_t, std::__1::char_traits<wchar_t>, std::__1::allocator<wchar_t> >::__rep" = type { %union.anon }
%union.anon = type { %"struct.std::__1::basic_string<wchar_t, std::__1::char_traits<wchar_t>, std::__1::allocator<wchar_t> >::__long" }
%"struct.std::__1::basic_string<wchar_t, std::__1::char_traits<wchar_t>, std::__1::allocator<wchar_t> >::__long" = type { i64, i64, i32* }
%"class.std::__1::unique_ptr.17" = type { %"class.std::__1::__compressed_pair.18" }
%"class.std::__1::__compressed_pair.18" = type { %"struct.std::__1::__compressed_pair_elem.19" }
%"struct.std::__1::__compressed_pair_elem.19" = type { %"class.altered_carbon::js::ACLexRegex"* }
%"class.altered_carbon::js::ACLexRegex" = type <{ i32 (...)**, %"class.std::__1::basic_string.20", i8, i8, i8, [5 x i8] }>
%"class.std::__1::basic_string.20" = type { %"class.std::__1::__compressed_pair.21" }
%"class.std::__1::__compressed_pair.21" = type { %"struct.std::__1::__compressed_pair_elem.22" }
%"struct.std::__1::__compressed_pair_elem.22" = type { %"struct.std::__1::basic_string<char, std::__1::char_traits<char>, std::__1::allocator<char> >::__rep" }
%"struct.std::__1::basic_string<char, std::__1::char_traits<char>, std::__1::allocator<char> >::__rep" = type { %union.anon.23 }
%union.anon.23 = type { %"struct.std::__1::basic_string<char, std::__1::char_traits<char>, std::__1::allocator<char> >::__long" }
%"struct.std::__1::basic_string<char, std::__1::char_traits<char>, std::__1::allocator<char> >::__long" = type { i64, i64, i8* }
%"struct.std::__1::__compressed_pair_elem.0" = type { i8 }
%"struct.std::__1::default_delete" = type { i8 }
%"class.std::__1::allocator.14" = type { i8 }
%"struct.std::__1::__compressed_pair_elem.13" = type { i8 }
%"class.std::__1::__basic_string_common" = type { i8 }
%"struct.std::__1::basic_string<wchar_t, std::__1::char_traits<wchar_t>, std::__1::allocator<wchar_t> >::__raw" = type { [3 x i64] }
%"struct.std::__1::__compressed_pair_elem.28" = type { i8 }
%"class.altered_carbon::js::ACLexToken" = type { i32 (...)**, i32, i64, %"class.std::__1::basic_string_view", %"struct.altered_carbon::js::ACLexPosition", %"class.std::__1::basic_string" }
%"class.std::__1::basic_string_view" = type { i8*, i64 }
%"struct.std::__1::default_delete.29" = type { i8 }
%"class.altered_carbon::js::ACAstVariable" = type { %"class.altered_carbon::js::ACAstVariantNode" }
%"class.altered_carbon::js::ACAstVisitable" = type { i32 (...)** }
%"class.std::__1::allocator" = type { i8 }
%"struct.std::__1::__compressed_pair_elem.9" = type { i8 }
%"struct.std::__1::__compressed_pair_elem.4" = type { i8 }
%"struct.std::__1::default_delete.5" = type { i8 }
%"struct.std::__1::__has_destroy" = type { i8 }
%"struct.std::__1::integral_constant" = type { i8 }
%"class.std::__1::ctype" = type <{ %"class.std::__1::locale::facet", i32*, i8, [7 x i8] }>
%"class.std::__1::locale::facet" = type { %"class.std::__1::__shared_count" }
%"class.std::__1::__shared_count" = type { i32 (...)**, i64 }
%"class.std::__1::ostreambuf_iterator" = type { %"class.std::__1::basic_streambuf"* }
%"class.std::__1::basic_ostream<char, std::__1::char_traits<char> >::sentry" = type { i8, %"class.std::__1::basic_ostream"* }
%"struct.std::__1::iterator" = type { i8 }
%"class.std::__1::allocator.26" = type { i8 }
%"struct.std::__1::__compressed_pair_elem.25" = type { i8 }
%"struct.std::__1::basic_string<char, std::__1::char_traits<char>, std::__1::allocator<char> >::__short" = type { %union.anon.24, [23 x i8] }
%union.anon.24 = type { i8 }

@_ZN14altered_carbon2jsL9BlackHoleE = internal global %"class.altered_carbon::js::NullStream" zeroinitializer, align 8, !dbg !0
@__dso_handle = external hidden global i8
@_ZTVN14altered_carbon2js16ACAstVariantNodeE = unnamed_addr constant { [14 x i8*] } { [14 x i8*] [i8* null, i8* bitcast ({ i8*, i8*, i8* }* @_ZTIN14altered_carbon2js16ACAstVariantNodeE to i8*), i8* bitcast (void (%"class.altered_carbon::js::ACAstVariantNode"*)* @_ZN14altered_carbon2js16ACAstVariantNodeD1Ev to i8*), i8* bitcast (void (%"class.altered_carbon::js::ACAstVariantNode"*)* @_ZN14altered_carbon2js16ACAstVariantNodeD0Ev to i8*), i8* bitcast (i8* (%"class.altered_carbon::js::ACAstVariantNode"*, %"class.altered_carbon::js::ACAstVisitable"*)* @_ZNK14altered_carbon2js16ACAstVariantNode6acceptEPNS0_14ACAstVisitableE to i8*), i8* bitcast (void (%"class.std::__1::basic_string"*, %"class.altered_carbon::js::ACAstVariantNode"*)* @_ZNK14altered_carbon2js16ACAstVariantNode10identifierEv to i8*), i8* bitcast (i32 (%"class.altered_carbon::js::ACAstBaseNode"*)* @_ZNK14altered_carbon2js13ACAstBaseNode10precedenceEv to i8*), i8* bitcast (i32 (%"class.altered_carbon::js::ACAstBaseNode"*)* @_ZNK14altered_carbon2js13ACAstBaseNode2opEv to i8*), i8* bitcast (i1 (%"class.altered_carbon::js::ACAstVariantNode"*)* @_ZN14altered_carbon2js16ACAstVariantNode14convertToParamEv to i8*), i8* bitcast (i1 (%"class.altered_carbon::js::ACAstBaseNode"*)* @_ZN14altered_carbon2js13ACAstBaseNode15convertToFormalEv to i8*), i8* bitcast (void (%"class.altered_carbon::js::ACAstBaseNode"*, %"class.std::__1::basic_ostream"*)* @_ZNK14altered_carbon2js13ACAstBaseNode4dumpERNSt3__113basic_ostreamIcNS2_11char_traitsIcEEEE to i8*), i8* bitcast (void (%"class.altered_carbon::js::ACAstVariantNode"*, %"class.std::__1::basic_ostream"*)* @_ZNK14altered_carbon2js16ACAstVariantNode14dumpGraphLabelERNSt3__113basic_ostreamIcNS2_11char_traitsIcEEEE to i8*), i8* bitcast (void (%"class.altered_carbon::js::ACAstBaseNode"*, %"class.std::__1::basic_ostream"*)* @_ZNK14altered_carbon2js13ACAstBaseNode9dumpGraphERNSt3__113basic_ostreamIcNS2_11char_traitsIcEEEE to i8*), i8* bitcast (void (%"class.altered_carbon::js::ACAstVariantNode"*, %"class.std::__1::basic_ostream"*)* @_ZNK14altered_carbon2js16ACAstVariantNode14dumpChildNodesERNSt3__113basic_ostreamIcNS2_11char_traitsIcEEEE to i8*)] }, align 8
@.str = private unnamed_addr constant [5 x i8] c"true\00", align 1
@.str.1 = private unnamed_addr constant [6 x i8] c"false\00", align 1
@_ZN14altered_carbon2js10ACLexToken11TOKEN_NAMESE = external global [0 x i8*], align 8
@.str.2 = private unnamed_addr constant [2 x i8] c"?\00", align 1
@.str.3 = private unnamed_addr constant [2 x i8] c"{\00", align 1
@.str.4 = private unnamed_addr constant [2 x i8] c"}\00", align 1
@_ZTVN14altered_carbon2js13ACAstVariableE = unnamed_addr constant { [14 x i8*] } { [14 x i8*] [i8* null, i8* bitcast ({ i8*, i8*, i8* }* @_ZTIN14altered_carbon2js13ACAstVariableE to i8*), i8* bitcast (void (%"class.altered_carbon::js::ACAstVariable"*)* @_ZN14altered_carbon2js13ACAstVariableD1Ev to i8*), i8* bitcast (void (%"class.altered_carbon::js::ACAstVariable"*)* @_ZN14altered_carbon2js13ACAstVariableD0Ev to i8*), i8* bitcast (i8* (%"class.altered_carbon::js::ACAstVariantNode"*, %"class.altered_carbon::js::ACAstVisitable"*)* @_ZNK14altered_carbon2js16ACAstVariantNode6acceptEPNS0_14ACAstVisitableE to i8*), i8* bitcast (void (%"class.std::__1::basic_string"*, %"class.altered_carbon::js::ACAstVariantNode"*)* @_ZNK14altered_carbon2js16ACAstVariantNode10identifierEv to i8*), i8* bitcast (i32 (%"class.altered_carbon::js::ACAstBaseNode"*)* @_ZNK14altered_carbon2js13ACAstBaseNode10precedenceEv to i8*), i8* bitcast (i32 (%"class.altered_carbon::js::ACAstBaseNode"*)* @_ZNK14altered_carbon2js13ACAstBaseNode2opEv to i8*), i8* bitcast (i1 (%"class.altered_carbon::js::ACAstVariantNode"*)* @_ZN14altered_carbon2js16ACAstVariantNode14convertToParamEv to i8*), i8* bitcast (i1 (%"class.altered_carbon::js::ACAstBaseNode"*)* @_ZN14altered_carbon2js13ACAstBaseNode15convertToFormalEv to i8*), i8* bitcast (void (%"class.altered_carbon::js::ACAstBaseNode"*, %"class.std::__1::basic_ostream"*)* @_ZNK14altered_carbon2js13ACAstBaseNode4dumpERNSt3__113basic_ostreamIcNS2_11char_traitsIcEEEE to i8*), i8* bitcast (void (%"class.altered_carbon::js::ACAstVariantNode"*, %"class.std::__1::basic_ostream"*)* @_ZNK14altered_carbon2js16ACAstVariantNode14dumpGraphLabelERNSt3__113basic_ostreamIcNS2_11char_traitsIcEEEE to i8*), i8* bitcast (void (%"class.altered_carbon::js::ACAstBaseNode"*, %"class.std::__1::basic_ostream"*)* @_ZNK14altered_carbon2js13ACAstBaseNode9dumpGraphERNSt3__113basic_ostreamIcNS2_11char_traitsIcEEEE to i8*), i8* bitcast (void (%"class.altered_carbon::js::ACAstVariable"*, %"class.std::__1::basic_ostream"*)* @_ZNK14altered_carbon2js13ACAstVariable14dumpChildNodesERNSt3__113basic_ostreamIcNS2_11char_traitsIcEEEE to i8*)] }, align 8
@.str.5 = private unnamed_addr constant [6 x i8] c"[VAR]\00", align 1
@_ZTVN10__cxxabiv120__si_class_type_infoE = external global i8*
@_ZTSN14altered_carbon2js16ACAstVariantNodeE = constant [40 x i8] c"N14altered_carbon2js16ACAstVariantNodeE\00"
@_ZTIN14altered_carbon2js13ACAstBaseNodeE = external constant i8*
@_ZTIN14altered_carbon2js16ACAstVariantNodeE = constant { i8*, i8*, i8* } { i8* bitcast (i8** getelementptr inbounds (i8*, i8** @_ZTVN10__cxxabiv120__si_class_type_infoE, i64 2) to i8*), i8* getelementptr inbounds ([40 x i8], [40 x i8]* @_ZTSN14altered_carbon2js16ACAstVariantNodeE, i32 0, i32 0), i8* bitcast (i8** @_ZTIN14altered_carbon2js13ACAstBaseNodeE to i8*) }
@_ZTSN14altered_carbon2js13ACAstVariableE = constant [37 x i8] c"N14altered_carbon2js13ACAstVariableE\00"
@_ZTIN14altered_carbon2js13ACAstVariableE = constant { i8*, i8*, i8* } { i8* bitcast (i8** getelementptr inbounds (i8*, i8** @_ZTVN10__cxxabiv120__si_class_type_infoE, i64 2) to i8*), i8* getelementptr inbounds ([37 x i8], [37 x i8]* @_ZTSN14altered_carbon2js13ACAstVariableE, i32 0, i32 0), i8* bitcast ({ i8*, i8*, i8* }* @_ZTIN14altered_carbon2js16ACAstVariantNodeE to i8*) }
@_ZTVN14altered_carbon2js10NullStreamE = linkonce_odr unnamed_addr constant { [17 x i8*], [5 x i8*], [5 x i8*] } { [17 x i8*] [i8* inttoptr (i64 328 to i8*), i8* null, i8* bitcast ({ i8*, i8*, i32, i32, i8*, i64, i8*, i64 }* @_ZTIN14altered_carbon2js10NullStreamE to i8*), i8* bitcast (void (%"class.altered_carbon::js::NullStream"*)* @_ZN14altered_carbon2js10NullStreamD1Ev to i8*), i8* bitcast (void (%"class.altered_carbon::js::NullStream"*)* @_ZN14altered_carbon2js10NullStreamD0Ev to i8*), i8* bitcast (void (%"class.std::__1::basic_streambuf"*, %"class.std::__1::locale"*)* @_ZNSt3__115basic_streambufIcNS_11char_traitsIcEEE5imbueERKNS_6localeE to i8*), i8* bitcast (%"class.std::__1::basic_streambuf"* (%"class.std::__1::basic_streambuf"*, i8*, i64)* @_ZNSt3__115basic_streambufIcNS_11char_traitsIcEEE6setbufEPcl to i8*), i8* bitcast (void ()* @_ZNSt3__115basic_streambufIcNS_11char_traitsIcEEE7seekoffExNS_8ios_base7seekdirEj to i8*), i8* bitcast (void ()* @_ZNSt3__115basic_streambufIcNS_11char_traitsIcEEE7seekposENS_4fposI11__mbstate_tEEj to i8*), i8* bitcast (i32 (%"class.std::__1::basic_streambuf"*)* @_ZNSt3__115basic_streambufIcNS_11char_traitsIcEEE4syncEv to i8*), i8* bitcast (i64 (%"class.std::__1::basic_streambuf"*)* @_ZNSt3__115basic_streambufIcNS_11char_traitsIcEEE9showmanycEv to i8*), i8* bitcast (i64 (%"class.std::__1::basic_streambuf"*, i8*, i64)* @_ZNSt3__115basic_streambufIcNS_11char_traitsIcEEE6xsgetnEPcl to i8*), i8* bitcast (i32 (%"class.std::__1::basic_streambuf"*)* @_ZNSt3__115basic_streambufIcNS_11char_traitsIcEEE9underflowEv to i8*), i8* bitcast (i32 (%"class.std::__1::basic_streambuf"*)* @_ZNSt3__115basic_streambufIcNS_11char_traitsIcEEE5uflowEv to i8*), i8* bitcast (i32 (%"class.std::__1::basic_streambuf"*, i32)* @_ZNSt3__115basic_streambufIcNS_11char_traitsIcEEE9pbackfailEi to i8*), i8* bitcast (i64 (%"class.std::__1::basic_streambuf"*, i8*, i64)* @_ZNSt3__115basic_streambufIcNS_11char_traitsIcEEE6xsputnEPKcl to i8*), i8* bitcast (i32 (%"class.altered_carbon::js::NullStreamBuf"*, i32)* @_ZN14altered_carbon2js13NullStreamBuf8overflowEi to i8*)], [5 x i8*] [i8* inttoptr (i64 8 to i8*), i8* inttoptr (i64 -320 to i8*), i8* bitcast ({ i8*, i8*, i32, i32, i8*, i64, i8*, i64 }* @_ZTIN14altered_carbon2js10NullStreamE to i8*), i8* bitcast (void (%"class.altered_carbon::js::NullStream"*)* @_ZThn320_N14altered_carbon2js10NullStreamD1Ev to i8*), i8* bitcast (void (%"class.altered_carbon::js::NullStream"*)* @_ZThn320_N14altered_carbon2js10NullStreamD0Ev to i8*)], [5 x i8*] [i8* inttoptr (i64 -328 to i8*), i8* inttoptr (i64 -328 to i8*), i8* bitcast ({ i8*, i8*, i32, i32, i8*, i64, i8*, i64 }* @_ZTIN14altered_carbon2js10NullStreamE to i8*), i8* bitcast (void (%"class.altered_carbon::js::NullStream"*)* @_ZTv0_n24_N14altered_carbon2js10NullStreamD1Ev to i8*), i8* bitcast (void (%"class.altered_carbon::js::NullStream"*)* @_ZTv0_n24_N14altered_carbon2js10NullStreamD0Ev to i8*)] }, align 8
@_ZTTN14altered_carbon2js10NullStreamE = linkonce_odr unnamed_addr constant [5 x i8*] [i8* bitcast (i8** getelementptr inbounds ({ [17 x i8*], [5 x i8*], [5 x i8*] }, { [17 x i8*], [5 x i8*], [5 x i8*] }* @_ZTVN14altered_carbon2js10NullStreamE, i32 0, inrange i32 0, i32 3) to i8*), i8* bitcast (i8** getelementptr inbounds ({ [5 x i8*], [5 x i8*] }, { [5 x i8*], [5 x i8*] }* @_ZTCN14altered_carbon2js10NullStreamE320_NSt3__113basic_ostreamIcNS1_11char_traitsIcEEEE, i32 0, inrange i32 0, i32 3) to i8*), i8* bitcast (i8** getelementptr inbounds ({ [5 x i8*], [5 x i8*] }, { [5 x i8*], [5 x i8*] }* @_ZTCN14altered_carbon2js10NullStreamE320_NSt3__113basic_ostreamIcNS1_11char_traitsIcEEEE, i32 0, inrange i32 1, i32 3) to i8*), i8* bitcast (i8** getelementptr inbounds ({ [17 x i8*], [5 x i8*], [5 x i8*] }, { [17 x i8*], [5 x i8*], [5 x i8*] }* @_ZTVN14altered_carbon2js10NullStreamE, i32 0, inrange i32 1, i32 3) to i8*), i8* bitcast (i8** getelementptr inbounds ({ [17 x i8*], [5 x i8*], [5 x i8*] }, { [17 x i8*], [5 x i8*], [5 x i8*] }* @_ZTVN14altered_carbon2js10NullStreamE, i32 0, inrange i32 2, i32 3) to i8*)]
@_ZTCN14altered_carbon2js10NullStreamE320_NSt3__113basic_ostreamIcNS1_11char_traitsIcEEEE = linkonce_odr unnamed_addr constant { [5 x i8*], [5 x i8*] } { [5 x i8*] [i8* inttoptr (i64 8 to i8*), i8* null, i8* bitcast (i8** @_ZTINSt3__113basic_ostreamIcNS_11char_traitsIcEEEE to i8*), i8* bitcast (void (%"class.std::__1::basic_ostream"*)* @_ZNSt3__113basic_ostreamIcNS_11char_traitsIcEEED1Ev to i8*), i8* bitcast (void (%"class.std::__1::basic_ostream"*)* @_ZNSt3__113basic_ostreamIcNS_11char_traitsIcEEED0Ev to i8*)], [5 x i8*] [i8* inttoptr (i64 -8 to i8*), i8* inttoptr (i64 -8 to i8*), i8* bitcast (i8** @_ZTINSt3__113basic_ostreamIcNS_11char_traitsIcEEEE to i8*), i8* bitcast (void (%"class.std::__1::basic_ostream"*)* @_ZTv0_n24_NSt3__113basic_ostreamIcNS_11char_traitsIcEEED1Ev to i8*), i8* bitcast (void (%"class.std::__1::basic_ostream"*)* @_ZTv0_n24_NSt3__113basic_ostreamIcNS_11char_traitsIcEEED0Ev to i8*)] }
@_ZTINSt3__113basic_ostreamIcNS_11char_traitsIcEEEE = external constant i8*
@_ZTVN10__cxxabiv121__vmi_class_type_infoE = external global i8*
@_ZTSN14altered_carbon2js10NullStreamE = linkonce_odr constant [34 x i8] c"N14altered_carbon2js10NullStreamE\00"
@_ZTIN14altered_carbon2js13NullStreamBufE = external constant i8*
@_ZTIN14altered_carbon2js10NullStreamE = linkonce_odr constant { i8*, i8*, i32, i32, i8*, i64, i8*, i64 } { i8* bitcast (i8** getelementptr inbounds (i8*, i8** @_ZTVN10__cxxabiv121__vmi_class_type_infoE, i64 2) to i8*), i8* getelementptr inbounds ([34 x i8], [34 x i8]* @_ZTSN14altered_carbon2js10NullStreamE, i32 0, i32 0), i32 0, i32 2, i8* bitcast (i8** @_ZTIN14altered_carbon2js13NullStreamBufE to i8*), i64 0, i8* bitcast (i8** @_ZTINSt3__113basic_ostreamIcNS_11char_traitsIcEEEE to i8*), i64 81922 }
@_ZTVNSt3__19basic_iosIcNS_11char_traitsIcEEEE = external unnamed_addr constant { [4 x i8*] }
@_ZTVNSt3__18ios_baseE = external unnamed_addr constant { [4 x i8*] }
@_ZTVN14altered_carbon2js13NullStreamBufE = external unnamed_addr constant { [16 x i8*] }
@_ZTVN14altered_carbon2js11ACLexNumberE = linkonce_odr unnamed_addr constant { [4 x i8*] } { [4 x i8*] [i8* null, i8* bitcast ({ i8*, i8* }* @_ZTIN14altered_carbon2js11ACLexNumberE to i8*), i8* bitcast (void (%"class.altered_carbon::js::ACLexNumber"*)* @_ZN14altered_carbon2js11ACLexNumberD1Ev to i8*), i8* bitcast (void (%"class.altered_carbon::js::ACLexNumber"*)* @_ZN14altered_carbon2js11ACLexNumberD0Ev to i8*)] }, align 8
@_ZTVN10__cxxabiv117__class_type_infoE = external global i8*
@_ZTSN14altered_carbon2js11ACLexNumberE = linkonce_odr constant [35 x i8] c"N14altered_carbon2js11ACLexNumberE\00"
@_ZTIN14altered_carbon2js11ACLexNumberE = linkonce_odr constant { i8*, i8* } { i8* bitcast (i8** getelementptr inbounds (i8*, i8** @_ZTVN10__cxxabiv117__class_type_infoE, i64 2) to i8*), i8* getelementptr inbounds ([35 x i8], [35 x i8]* @_ZTSN14altered_carbon2js11ACLexNumberE, i32 0, i32 0) }
@_ZTVN14altered_carbon2js13ACAstBaseNodeE = external unnamed_addr constant { [14 x i8*] }
@_ZNSt3__15ctypeIcE2idE = external global %"class.std::__1::locale::id", align 8
@llvm.global_ctors = appending global [1 x { i32, void ()*, i8* }] [{ i32, void ()*, i8* } { i32 65535, void ()* @_GLOBAL__sub_I_ac_ast_variant_node.cc, i8* null }]

; Function Attrs: noinline nounwind ssp uwtable
define internal void @__cxx_global_var_init() #0 section "__TEXT,__StaticInit,regular,pure_instructions" !dbg !4897 {
  call void @_ZN14altered_carbon2js10NullStreamC1Ev(%"class.altered_carbon::js::NullStream"* @_ZN14altered_carbon2jsL9BlackHoleE), !dbg !4898
  %1 = call i32 @__cxa_atexit(void (i8*)* bitcast (void (%"class.altered_carbon::js::NullStream"*)* @_ZN14altered_carbon2js10NullStreamD1Ev to void (i8*)*), i8* bitcast (%"class.altered_carbon::js::NullStream"* @_ZN14altered_carbon2jsL9BlackHoleE to i8*), i8* @__dso_handle) #2, !dbg !4898
  ret void, !dbg !4898
}

; Function Attrs: noinline nounwind optnone ssp uwtable
define linkonce_odr hidden void @_ZN14altered_carbon2js10NullStreamC1Ev(%"class.altered_carbon::js::NullStream"*) unnamed_addr #1 align 2 !dbg !4899 {
  %2 = alloca %"class.std::__1::basic_ios"*, align 8
  call void @llvm.dbg.declare(metadata %"class.std::__1::basic_ios"** %2, metadata !4900, metadata !DIExpression()), !dbg !4903
  %3 = alloca %"class.std::__1::basic_streambuf"*, align 8
  call void @llvm.dbg.declare(metadata %"class.std::__1::basic_streambuf"** %3, metadata !4908, metadata !DIExpression()), !dbg !4909
  %4 = alloca %"class.std::__1::basic_ostream"*, align 8
  call void @llvm.dbg.declare(metadata %"class.std::__1::basic_ostream"** %4, metadata !4910, metadata !DIExpression()), !dbg !4911
  %5 = alloca i8**, align 8
  call void @llvm.dbg.declare(metadata i8*** %5, metadata !4912, metadata !DIExpression()), !dbg !4911
  %6 = alloca %"class.std::__1::basic_streambuf"*, align 8
  call void @llvm.dbg.declare(metadata %"class.std::__1::basic_streambuf"** %6, metadata !4913, metadata !DIExpression()), !dbg !4914
  %7 = alloca %"class.std::__1::ios_base"*, align 8
  call void @llvm.dbg.declare(metadata %"class.std::__1::ios_base"** %7, metadata !4915, metadata !DIExpression()), !dbg !4918
  %8 = alloca %"class.std::__1::basic_ios"*, align 8
  call void @llvm.dbg.declare(metadata %"class.std::__1::basic_ios"** %8, metadata !4922, metadata !DIExpression()), !dbg !4923
  %9 = alloca %"class.altered_carbon::js::NullStream"*, align 8
  store %"class.altered_carbon::js::NullStream"* %0, %"class.altered_carbon::js::NullStream"** %9, align 8
  call void @llvm.dbg.declare(metadata %"class.altered_carbon::js::NullStream"** %9, metadata !4924, metadata !DIExpression()), !dbg !4925
  %10 = load %"class.altered_carbon::js::NullStream"*, %"class.altered_carbon::js::NullStream"** %9, align 8
  %11 = bitcast %"class.altered_carbon::js::NullStream"* %10 to i8*, !dbg !4926
  %12 = getelementptr inbounds i8, i8* %11, i64 328, !dbg !4926
  %13 = bitcast i8* %12 to %"class.std::__1::basic_ios"*, !dbg !4926
  store %"class.std::__1::basic_ios"* %13, %"class.std::__1::basic_ios"** %8, align 8
  %14 = load %"class.std::__1::basic_ios"*, %"class.std::__1::basic_ios"** %8, align 8
  %15 = bitcast %"class.std::__1::basic_ios"* %14 to %"class.std::__1::ios_base"*, !dbg !4927
  store %"class.std::__1::ios_base"* %15, %"class.std::__1::ios_base"** %7, align 8
  %16 = load %"class.std::__1::ios_base"*, %"class.std::__1::ios_base"** %7, align 8
  %17 = bitcast %"class.std::__1::ios_base"* %16 to i32 (...)***, !dbg !4928
  store i32 (...)** bitcast (i8** getelementptr inbounds ({ [4 x i8*] }, { [4 x i8*] }* @_ZTVNSt3__18ios_baseE, i32 0, inrange i32 0, i32 2) to i32 (...)**), i32 (...)*** %17, align 8, !dbg !4928
  %18 = bitcast %"class.std::__1::basic_ios"* %14 to i32 (...)***, !dbg !4927
  store i32 (...)** bitcast (i8** getelementptr inbounds ({ [4 x i8*] }, { [4 x i8*] }* @_ZTVNSt3__19basic_iosIcNS_11char_traitsIcEEEE, i32 0, inrange i32 0, i32 2) to i32 (...)**), i32 (...)*** %18, align 8, !dbg !4927
  %19 = bitcast %"class.altered_carbon::js::NullStream"* %10 to %"class.altered_carbon::js::NullStreamBuf"*, !dbg !4926
  call void @_ZN14altered_carbon2js13NullStreamBufC2Ev(%"class.altered_carbon::js::NullStreamBuf"* %19), !dbg !4929
  %20 = bitcast %"class.altered_carbon::js::NullStream"* %10 to i32 (...)***, !dbg !4926
  store i32 (...)** bitcast (i8** getelementptr inbounds ({ [17 x i8*], [5 x i8*], [5 x i8*] }, { [17 x i8*], [5 x i8*], [5 x i8*] }* @_ZTVN14altered_carbon2js10NullStreamE, i32 0, inrange i32 0, i32 3) to i32 (...)**), i32 (...)*** %20, align 8, !dbg !4926
  %21 = bitcast %"class.altered_carbon::js::NullStream"* %10 to i8*, !dbg !4926
  %22 = getelementptr inbounds i8, i8* %21, i64 320, !dbg !4926
  %23 = bitcast i8* %22 to i32 (...)***, !dbg !4926
  store i32 (...)** bitcast (i8** getelementptr inbounds ({ [17 x i8*], [5 x i8*], [5 x i8*] }, { [17 x i8*], [5 x i8*], [5 x i8*] }* @_ZTVN14altered_carbon2js10NullStreamE, i32 0, inrange i32 1, i32 3) to i32 (...)**), i32 (...)*** %23, align 8, !dbg !4926
  %24 = bitcast %"class.altered_carbon::js::NullStream"* %10 to i8*, !dbg !4926
  %25 = getelementptr inbounds i8, i8* %24, i64 328, !dbg !4926
  %26 = bitcast i8* %25 to i32 (...)***, !dbg !4926
  store i32 (...)** bitcast (i8** getelementptr inbounds ({ [17 x i8*], [5 x i8*], [5 x i8*] }, { [17 x i8*], [5 x i8*], [5 x i8*] }* @_ZTVN14altered_carbon2js10NullStreamE, i32 0, inrange i32 2, i32 3) to i32 (...)**), i32 (...)*** %26, align 8, !dbg !4926
  %27 = bitcast %"class.altered_carbon::js::NullStream"* %10 to i8*, !dbg !4926
  %28 = getelementptr inbounds i8, i8* %27, i64 320, !dbg !4926
  %29 = bitcast i8* %28 to %"class.std::__1::basic_ostream"*, !dbg !4926
  %30 = bitcast %"class.altered_carbon::js::NullStream"* %10 to %"class.std::__1::basic_streambuf"*, !dbg !4930
  store %"class.std::__1::basic_ostream"* %29, %"class.std::__1::basic_ostream"** %4, align 8
  store i8** getelementptr inbounds ([5 x i8*], [5 x i8*]* @_ZTTN14altered_carbon2js10NullStreamE, i64 0, i64 1), i8*** %5, align 8
  store %"class.std::__1::basic_streambuf"* %30, %"class.std::__1::basic_streambuf"** %6, align 8
  %31 = load %"class.std::__1::basic_ostream"*, %"class.std::__1::basic_ostream"** %4, align 8
  %32 = load i8**, i8*** %5, align 8
  %33 = load i8*, i8** %32, align 8, !dbg !4931
  %34 = bitcast %"class.std::__1::basic_ostream"* %31 to i32 (...)***, !dbg !4931
  %35 = bitcast i8* %33 to i32 (...)**, !dbg !4931
  store i32 (...)** %35, i32 (...)*** %34, align 8, !dbg !4931
  %36 = getelementptr inbounds i8*, i8** %32, i64 1, !dbg !4931
  %37 = load i8*, i8** %36, align 8, !dbg !4931
  %38 = bitcast %"class.std::__1::basic_ostream"* %31 to i8**, !dbg !4931
  %39 = load i8*, i8** %38, align 8, !dbg !4931
  %40 = getelementptr i8, i8* %39, i64 -24, !dbg !4931
  %41 = bitcast i8* %40 to i64*, !dbg !4931
  %42 = load i64, i64* %41, align 8, !dbg !4931
  %43 = bitcast %"class.std::__1::basic_ostream"* %31 to i8*, !dbg !4931
  %44 = getelementptr inbounds i8, i8* %43, i64 %42, !dbg !4931
  %45 = bitcast i8* %44 to i32 (...)***, !dbg !4931
  %46 = bitcast i8* %37 to i32 (...)**, !dbg !4931
  store i32 (...)** %46, i32 (...)*** %45, align 8, !dbg !4931
  %47 = bitcast %"class.std::__1::basic_ostream"* %31 to i8**, !dbg !4932
  %48 = load i8*, i8** %47, align 8, !dbg !4932
  %49 = getelementptr i8, i8* %48, i64 -24, !dbg !4932
  %50 = bitcast i8* %49 to i64*, !dbg !4932
  %51 = load i64, i64* %50, align 8, !dbg !4932
  %52 = bitcast %"class.std::__1::basic_ostream"* %31 to i8*, !dbg !4932
  %53 = getelementptr inbounds i8, i8* %52, i64 %51, !dbg !4932
  %54 = bitcast i8* %53 to %"class.std::__1::basic_ios"*, !dbg !4932
  %55 = load %"class.std::__1::basic_streambuf"*, %"class.std::__1::basic_streambuf"** %6, align 8, !dbg !4933
  store %"class.std::__1::basic_ios"* %54, %"class.std::__1::basic_ios"** %2, align 8
  store %"class.std::__1::basic_streambuf"* %55, %"class.std::__1::basic_streambuf"** %3, align 8
  %56 = load %"class.std::__1::basic_ios"*, %"class.std::__1::basic_ios"** %2, align 8
  %57 = bitcast %"class.std::__1::basic_ios"* %56 to %"class.std::__1::ios_base"*, !dbg !4934
  %58 = load %"class.std::__1::basic_streambuf"*, %"class.std::__1::basic_streambuf"** %3, align 8, !dbg !4935
  %59 = bitcast %"class.std::__1::basic_streambuf"* %58 to i8*, !dbg !4935
  call void @_ZNSt3__18ios_base4initEPv(%"class.std::__1::ios_base"* %57, i8* %59) #2, !dbg !4934
  %60 = getelementptr inbounds %"class.std::__1::basic_ios", %"class.std::__1::basic_ios"* %56, i32 0, i32 1, !dbg !4936
  store %"class.std::__1::basic_ostream"* null, %"class.std::__1::basic_ostream"** %60, align 8, !dbg !4937
  %61 = call i32 @_ZNSt3__111char_traitsIcE3eofEv() #2, !dbg !4938
  %62 = getelementptr inbounds %"class.std::__1::basic_ios", %"class.std::__1::basic_ios"* %56, i32 0, i32 2, !dbg !4939
  store i32 %61, i32* %62, align 8, !dbg !4940
  %63 = bitcast %"class.altered_carbon::js::NullStream"* %10 to i32 (...)***, !dbg !4926
  store i32 (...)** bitcast (i8** getelementptr inbounds ({ [17 x i8*], [5 x i8*], [5 x i8*] }, { [17 x i8*], [5 x i8*], [5 x i8*] }* @_ZTVN14altered_carbon2js10NullStreamE, i32 0, inrange i32 0, i32 3) to i32 (...)**), i32 (...)*** %63, align 8, !dbg !4926
  %64 = bitcast %"class.altered_carbon::js::NullStream"* %10 to i8*, !dbg !4926
  %65 = getelementptr inbounds i8, i8* %64, i64 320, !dbg !4926
  %66 = bitcast i8* %65 to i32 (...)***, !dbg !4926
  store i32 (...)** bitcast (i8** getelementptr inbounds ({ [17 x i8*], [5 x i8*], [5 x i8*] }, { [17 x i8*], [5 x i8*], [5 x i8*] }* @_ZTVN14altered_carbon2js10NullStreamE, i32 0, inrange i32 1, i32 3) to i32 (...)**), i32 (...)*** %66, align 8, !dbg !4926
  %67 = bitcast %"class.altered_carbon::js::NullStream"* %10 to i8*, !dbg !4926
  %68 = getelementptr inbounds i8, i8* %67, i64 328, !dbg !4926
  %69 = bitcast i8* %68 to i32 (...)***, !dbg !4926
  store i32 (...)** bitcast (i8** getelementptr inbounds ({ [17 x i8*], [5 x i8*], [5 x i8*] }, { [17 x i8*], [5 x i8*], [5 x i8*] }* @_ZTVN14altered_carbon2js10NullStreamE, i32 0, inrange i32 2, i32 3) to i32 (...)**), i32 (...)*** %69, align 8, !dbg !4926
  ret void, !dbg !4941
}

; Function Attrs: noinline nounwind optnone ssp uwtable
define linkonce_odr hidden void @_ZN14altered_carbon2js10NullStreamD1Ev(%"class.altered_carbon::js::NullStream"*) unnamed_addr #1 align 2 !dbg !4942 {
  %2 = alloca %"class.altered_carbon::js::NullStream"*, align 8
  store %"class.altered_carbon::js::NullStream"* %0, %"class.altered_carbon::js::NullStream"** %2, align 8
  call void @llvm.dbg.declare(metadata %"class.altered_carbon::js::NullStream"** %2, metadata !4944, metadata !DIExpression()), !dbg !4945
  %3 = load %"class.altered_carbon::js::NullStream"*, %"class.altered_carbon::js::NullStream"** %2, align 8
  call void @_ZN14altered_carbon2js10NullStreamD2Ev(%"class.altered_carbon::js::NullStream"* %3, i8** getelementptr inbounds ([5 x i8*], [5 x i8*]* @_ZTTN14altered_carbon2js10NullStreamE, i64 0, i64 0)) #2, !dbg !4946
  %4 = bitcast %"class.altered_carbon::js::NullStream"* %3 to i8*, !dbg !4946
  %5 = getelementptr inbounds i8, i8* %4, i64 328, !dbg !4946
  %6 = bitcast i8* %5 to %"class.std::__1::basic_ios"*, !dbg !4946
  call void @_ZNSt3__19basic_iosIcNS_11char_traitsIcEEED2Ev(%"class.std::__1::basic_ios"* %6) #2, !dbg !4946
  ret void, !dbg !4946
}

; Function Attrs: nounwind
declare i32 @__cxa_atexit(void (i8*)*, i8*, i8*) #2

; Function Attrs: noinline nounwind optnone ssp uwtable
define void @_ZN14altered_carbon2js16ACAstVariantNodeC2ENSt3__110unique_ptrINS0_13ACLexPositionENS2_14default_deleteIS4_EEEENS2_12basic_stringIwNS2_11char_traitsIwEENS2_9allocatorIwEEEE(%"class.altered_carbon::js::ACAstVariantNode"*, %"class.std::__1::unique_ptr"*, %"class.std::__1::basic_string"*) unnamed_addr #1 align 2 !dbg !4947 {
  %4 = alloca %"struct.std::__1::__compressed_pair_elem.0"*, align 8
  call void @llvm.dbg.declare(metadata %"struct.std::__1::__compressed_pair_elem.0"** %4, metadata !4948, metadata !DIExpression()), !dbg !4951
  %5 = alloca %"class.std::__1::__compressed_pair"*, align 8
  call void @llvm.dbg.declare(metadata %"class.std::__1::__compressed_pair"** %5, metadata !4961, metadata !DIExpression()), !dbg !4963
  %6 = alloca %"class.std::__1::unique_ptr"*, align 8
  call void @llvm.dbg.declare(metadata %"class.std::__1::unique_ptr"** %6, metadata !4964, metadata !DIExpression()), !dbg !4966
  %7 = alloca %"struct.std::__1::default_delete"*, align 8
  call void @llvm.dbg.declare(metadata %"struct.std::__1::default_delete"** %7, metadata !4967, metadata !DIExpression()), !dbg !4976
  %8 = alloca %"struct.altered_carbon::js::ACLexPosition"**, align 8
  call void @llvm.dbg.declare(metadata %"struct.altered_carbon::js::ACLexPosition"*** %8, metadata !4978, metadata !DIExpression()), !dbg !4987
  %9 = alloca %"struct.std::__1::__compressed_pair_elem"*, align 8
  call void @llvm.dbg.declare(metadata %"struct.std::__1::__compressed_pair_elem"** %9, metadata !5007, metadata !DIExpression()), !dbg !5009
  %10 = alloca %"struct.altered_carbon::js::ACLexPosition"**, align 8
  call void @llvm.dbg.declare(metadata %"struct.altered_carbon::js::ACLexPosition"*** %10, metadata !5010, metadata !DIExpression()), !dbg !5011
  %11 = alloca %"struct.std::__1::default_delete"*, align 8
  call void @llvm.dbg.declare(metadata %"struct.std::__1::default_delete"** %11, metadata !4967, metadata !DIExpression()), !dbg !5012
  %12 = alloca %"struct.std::__1::default_delete"*, align 8
  call void @llvm.dbg.declare(metadata %"struct.std::__1::default_delete"** %12, metadata !4967, metadata !DIExpression()), !dbg !5014
  %13 = alloca %"struct.std::__1::__compressed_pair_elem.0"*, align 8
  call void @llvm.dbg.declare(metadata %"struct.std::__1::__compressed_pair_elem.0"** %13, metadata !5023, metadata !DIExpression()), !dbg !5024
  %14 = alloca %"struct.std::__1::default_delete"*, align 8
  call void @llvm.dbg.declare(metadata %"struct.std::__1::default_delete"** %14, metadata !5025, metadata !DIExpression()), !dbg !5026
  %15 = alloca %"struct.altered_carbon::js::ACLexPosition"**, align 8
  call void @llvm.dbg.declare(metadata %"struct.altered_carbon::js::ACLexPosition"*** %15, metadata !4978, metadata !DIExpression()), !dbg !5027
  %16 = alloca %"class.std::__1::__compressed_pair"*, align 8
  call void @llvm.dbg.declare(metadata %"class.std::__1::__compressed_pair"** %16, metadata !5029, metadata !DIExpression()), !dbg !5030
  %17 = alloca %"struct.altered_carbon::js::ACLexPosition"**, align 8
  call void @llvm.dbg.declare(metadata %"struct.altered_carbon::js::ACLexPosition"*** %17, metadata !5031, metadata !DIExpression()), !dbg !5032
  %18 = alloca %"struct.std::__1::default_delete"*, align 8
  call void @llvm.dbg.declare(metadata %"struct.std::__1::default_delete"** %18, metadata !5033, metadata !DIExpression()), !dbg !5034
  %19 = alloca %"class.std::__1::__compressed_pair"*, align 8
  call void @llvm.dbg.declare(metadata %"class.std::__1::__compressed_pair"** %19, metadata !5035, metadata !DIExpression()), !dbg !5036
  %20 = alloca %"struct.altered_carbon::js::ACLexPosition"**, align 8
  call void @llvm.dbg.declare(metadata %"struct.altered_carbon::js::ACLexPosition"*** %20, metadata !5037, metadata !DIExpression()), !dbg !5038
  %21 = alloca %"struct.std::__1::default_delete"*, align 8
  call void @llvm.dbg.declare(metadata %"struct.std::__1::default_delete"** %21, metadata !5039, metadata !DIExpression()), !dbg !5040
  %22 = alloca %"struct.std::__1::__compressed_pair_elem"*, align 8
  call void @llvm.dbg.declare(metadata %"struct.std::__1::__compressed_pair_elem"** %22, metadata !5041, metadata !DIExpression()), !dbg !5043
  %23 = alloca %"class.std::__1::__compressed_pair"*, align 8
  call void @llvm.dbg.declare(metadata %"class.std::__1::__compressed_pair"** %23, metadata !5049, metadata !DIExpression()), !dbg !5050
  %24 = alloca %"struct.std::__1::__compressed_pair_elem"*, align 8
  call void @llvm.dbg.declare(metadata %"struct.std::__1::__compressed_pair_elem"** %24, metadata !5041, metadata !DIExpression()), !dbg !5051
  %25 = alloca %"class.std::__1::__compressed_pair"*, align 8
  call void @llvm.dbg.declare(metadata %"class.std::__1::__compressed_pair"** %25, metadata !5049, metadata !DIExpression()), !dbg !5054
  %26 = alloca %"class.std::__1::unique_ptr"*, align 8
  call void @llvm.dbg.declare(metadata %"class.std::__1::unique_ptr"** %26, metadata !5055, metadata !DIExpression()), !dbg !5056
  %27 = alloca %"struct.altered_carbon::js::ACLexPosition"*, align 8
  call void @llvm.dbg.declare(metadata %"struct.altered_carbon::js::ACLexPosition"** %27, metadata !5057, metadata !DIExpression()), !dbg !5058
  %28 = alloca %"class.std::__1::unique_ptr"*, align 8
  call void @llvm.dbg.declare(metadata %"class.std::__1::unique_ptr"** %28, metadata !5059, metadata !DIExpression()), !dbg !5060
  %29 = alloca %"class.std::__1::unique_ptr"*, align 8
  call void @llvm.dbg.declare(metadata %"class.std::__1::unique_ptr"** %29, metadata !5061, metadata !DIExpression()), !dbg !5062
  %30 = alloca %"struct.altered_carbon::js::ACLexPosition"*, align 8
  %31 = alloca %"class.std::__1::unique_ptr"*, align 8
  call void @llvm.dbg.declare(metadata %"class.std::__1::unique_ptr"** %31, metadata !5063, metadata !DIExpression()), !dbg !5064
  %32 = alloca %"class.std::__1::unique_ptr"*, align 8
  call void @llvm.dbg.declare(metadata %"class.std::__1::unique_ptr"** %32, metadata !5065, metadata !DIExpression()), !dbg !5066
  %33 = alloca %"struct.std::__1::__compressed_pair_elem.0"*, align 8
  call void @llvm.dbg.declare(metadata %"struct.std::__1::__compressed_pair_elem.0"** %33, metadata !4948, metadata !DIExpression()), !dbg !5067
  %34 = alloca %"class.std::__1::__compressed_pair"*, align 8
  call void @llvm.dbg.declare(metadata %"class.std::__1::__compressed_pair"** %34, metadata !4961, metadata !DIExpression()), !dbg !5078
  %35 = alloca %"struct.std::__1::__compressed_pair_elem"*, align 8
  call void @llvm.dbg.declare(metadata %"struct.std::__1::__compressed_pair_elem"** %35, metadata !5041, metadata !DIExpression()), !dbg !5079
  %36 = alloca %"class.std::__1::__compressed_pair"*, align 8
  call void @llvm.dbg.declare(metadata %"class.std::__1::__compressed_pair"** %36, metadata !5049, metadata !DIExpression()), !dbg !5082
  %37 = alloca %"struct.std::__1::default_delete"*, align 8
  call void @llvm.dbg.declare(metadata %"struct.std::__1::default_delete"** %37, metadata !5083, metadata !DIExpression()), !dbg !5086
  %38 = alloca %"struct.altered_carbon::js::ACLexPosition"*, align 8
  call void @llvm.dbg.declare(metadata %"struct.altered_carbon::js::ACLexPosition"** %38, metadata !5088, metadata !DIExpression()), !dbg !5089
  %39 = alloca %"struct.std::__1::__compressed_pair_elem"*, align 8
  call void @llvm.dbg.declare(metadata %"struct.std::__1::__compressed_pair_elem"** %39, metadata !5041, metadata !DIExpression()), !dbg !5090
  %40 = alloca %"class.std::__1::__compressed_pair"*, align 8
  call void @llvm.dbg.declare(metadata %"class.std::__1::__compressed_pair"** %40, metadata !5049, metadata !DIExpression()), !dbg !5093
  %41 = alloca %"class.std::__1::unique_ptr"*, align 8
  call void @llvm.dbg.declare(metadata %"class.std::__1::unique_ptr"** %41, metadata !5094, metadata !DIExpression()), !dbg !5095
  %42 = alloca %"struct.altered_carbon::js::ACLexPosition"*, align 8
  call void @llvm.dbg.declare(metadata %"struct.altered_carbon::js::ACLexPosition"** %42, metadata !5096, metadata !DIExpression()), !dbg !5097
  %43 = alloca %"struct.altered_carbon::js::ACLexPosition"*, align 8
  call void @llvm.dbg.declare(metadata %"struct.altered_carbon::js::ACLexPosition"** %43, metadata !5098, metadata !DIExpression()), !dbg !5099
  %44 = alloca %"class.std::__1::unique_ptr"*, align 8
  call void @llvm.dbg.declare(metadata %"class.std::__1::unique_ptr"** %44, metadata !5100, metadata !DIExpression()), !dbg !5101
  %45 = alloca %"class.std::__1::unique_ptr"*, align 8
  call void @llvm.dbg.declare(metadata %"class.std::__1::unique_ptr"** %45, metadata !5102, metadata !DIExpression()), !dbg !5103
  %46 = alloca %"class.std::__1::basic_string"*, align 8
  call void @llvm.dbg.declare(metadata %"class.std::__1::basic_string"** %46, metadata !5104, metadata !DIExpression()), !dbg !5113
  %47 = alloca %"struct.std::__1::__compressed_pair_elem.11"*, align 8
  call void @llvm.dbg.declare(metadata %"struct.std::__1::__compressed_pair_elem.11"** %47, metadata !5115, metadata !DIExpression()), !dbg !5118
  %48 = alloca %"class.std::__1::__compressed_pair.10"*, align 8
  call void @llvm.dbg.declare(metadata %"class.std::__1::__compressed_pair.10"** %48, metadata !5129, metadata !DIExpression()), !dbg !5131
  %49 = alloca %"class.std::__1::basic_string"*, align 8
  call void @llvm.dbg.declare(metadata %"class.std::__1::basic_string"** %49, metadata !5132, metadata !DIExpression()), !dbg !5134
  %50 = alloca [3 x i64]*, align 8
  call void @llvm.dbg.declare(metadata [3 x i64]** %50, metadata !5135, metadata !DIExpression()), !dbg !5137
  %51 = alloca i32, align 4
  call void @llvm.dbg.declare(metadata i32* %51, metadata !5138, metadata !DIExpression()), !dbg !5140
  %52 = alloca %"class.std::__1::__compressed_pair.10"*, align 8
  call void @llvm.dbg.declare(metadata %"class.std::__1::__compressed_pair.10"** %52, metadata !5141, metadata !DIExpression()), !dbg !5150
  %53 = alloca %"class.std::__1::basic_string"*, align 8
  call void @llvm.dbg.declare(metadata %"class.std::__1::basic_string"** %53, metadata !5152, metadata !DIExpression()), !dbg !5153
  %54 = alloca %"class.std::__1::basic_string"*, align 8
  call void @llvm.dbg.declare(metadata %"class.std::__1::basic_string"** %54, metadata !5154, metadata !DIExpression()), !dbg !5155
  %55 = alloca %"class.std::__1::basic_string"*, align 8
  call void @llvm.dbg.declare(metadata %"class.std::__1::basic_string"** %55, metadata !5156, metadata !DIExpression()), !dbg !5157
  %56 = alloca %"class.std::__1::basic_string"*, align 8
  call void @llvm.dbg.declare(metadata %"class.std::__1::basic_string"** %56, metadata !5158, metadata !DIExpression()), !dbg !5159
  %57 = alloca %"struct.std::__1::__compressed_pair_elem.11"*, align 8
  call void @llvm.dbg.declare(metadata %"struct.std::__1::__compressed_pair_elem.11"** %57, metadata !5115, metadata !DIExpression()), !dbg !5160
  %58 = alloca %"class.std::__1::__compressed_pair.10"*, align 8
  call void @llvm.dbg.declare(metadata %"class.std::__1::__compressed_pair.10"** %58, metadata !5129, metadata !DIExpression()), !dbg !5169
  %59 = alloca %"class.std::__1::basic_string"*, align 8
  call void @llvm.dbg.declare(metadata %"class.std::__1::basic_string"** %59, metadata !5132, metadata !DIExpression()), !dbg !5170
  %60 = alloca [3 x i64]*, align 8
  call void @llvm.dbg.declare(metadata [3 x i64]** %60, metadata !5135, metadata !DIExpression()), !dbg !5171
  %61 = alloca i32, align 4
  call void @llvm.dbg.declare(metadata i32* %61, metadata !5138, metadata !DIExpression()), !dbg !5172
  %62 = alloca %"class.std::__1::allocator.14"*, align 8
  call void @llvm.dbg.declare(metadata %"class.std::__1::allocator.14"** %62, metadata !5173, metadata !DIExpression()), !dbg !5176
  %63 = alloca %"struct.std::__1::__compressed_pair_elem.13"*, align 8
  call void @llvm.dbg.declare(metadata %"struct.std::__1::__compressed_pair_elem.13"** %63, metadata !5189, metadata !DIExpression()), !dbg !5191
  %64 = alloca %"struct.std::__1::__compressed_pair_elem.11"*, align 8
  call void @llvm.dbg.declare(metadata %"struct.std::__1::__compressed_pair_elem.11"** %64, metadata !5192, metadata !DIExpression()), !dbg !5194
  %65 = alloca %"class.std::__1::__compressed_pair.10"*, align 8
  call void @llvm.dbg.declare(metadata %"class.std::__1::__compressed_pair.10"** %65, metadata !5196, metadata !DIExpression()), !dbg !5197
  %66 = alloca %"class.std::__1::__compressed_pair.10"*, align 8
  call void @llvm.dbg.declare(metadata %"class.std::__1::__compressed_pair.10"** %66, metadata !5198, metadata !DIExpression()), !dbg !5199
  %67 = alloca %"class.std::__1::basic_string"*, align 8
  call void @llvm.dbg.declare(metadata %"class.std::__1::basic_string"** %67, metadata !5200, metadata !DIExpression()), !dbg !5201
  %68 = alloca %"class.std::__1::basic_string"*, align 8
  call void @llvm.dbg.declare(metadata %"class.std::__1::basic_string"** %68, metadata !5202, metadata !DIExpression()), !dbg !5203
  %69 = alloca %"class.altered_carbon::js::ACLexRegex"**, align 8
  call void @llvm.dbg.declare(metadata %"class.altered_carbon::js::ACLexRegex"*** %69, metadata !5204, metadata !DIExpression()), !dbg !5213
  %70 = alloca %"struct.std::__1::__compressed_pair_elem.19"*, align 8
  call void @llvm.dbg.declare(metadata %"struct.std::__1::__compressed_pair_elem.19"** %70, metadata !5235, metadata !DIExpression()), !dbg !5237
  %71 = alloca %"class.altered_carbon::js::ACLexRegex"**, align 8
  call void @llvm.dbg.declare(metadata %"class.altered_carbon::js::ACLexRegex"*** %71, metadata !5238, metadata !DIExpression()), !dbg !5239
  %72 = alloca %"class.altered_carbon::js::ACLexRegex"**, align 8
  call void @llvm.dbg.declare(metadata %"class.altered_carbon::js::ACLexRegex"*** %72, metadata !5204, metadata !DIExpression()), !dbg !5240
  %73 = alloca %"class.std::__1::__compressed_pair.18"*, align 8
  call void @llvm.dbg.declare(metadata %"class.std::__1::__compressed_pair.18"** %73, metadata !5242, metadata !DIExpression()), !dbg !5244
  %74 = alloca %"class.altered_carbon::js::ACLexRegex"**, align 8
  call void @llvm.dbg.declare(metadata %"class.altered_carbon::js::ACLexRegex"*** %74, metadata !5245, metadata !DIExpression()), !dbg !5246
  %75 = alloca %"class.std::__1::__compressed_pair.18"*, align 8
  call void @llvm.dbg.declare(metadata %"class.std::__1::__compressed_pair.18"** %75, metadata !5247, metadata !DIExpression()), !dbg !5248
  %76 = alloca %"class.altered_carbon::js::ACLexRegex"**, align 8
  call void @llvm.dbg.declare(metadata %"class.altered_carbon::js::ACLexRegex"*** %76, metadata !5249, metadata !DIExpression()), !dbg !5250
  %77 = alloca %"class.std::__1::unique_ptr.17"*, align 8
  call void @llvm.dbg.declare(metadata %"class.std::__1::unique_ptr.17"** %77, metadata !5251, metadata !DIExpression()), !dbg !5253
  %78 = alloca %"class.altered_carbon::js::ACLexRegex"*, align 8
  %79 = alloca %"class.std::__1::unique_ptr.17"*, align 8
  call void @llvm.dbg.declare(metadata %"class.std::__1::unique_ptr.17"** %79, metadata !5254, metadata !DIExpression()), !dbg !5255
  %80 = alloca %"class.std::__1::unique_ptr"*, align 8
  call void @llvm.dbg.declare(metadata %"class.std::__1::unique_ptr"** %80, metadata !5256, metadata !DIExpression()), !dbg !5265
  %81 = alloca %"class.altered_carbon::js::ACAstVariantNode"*, align 8
  %82 = alloca %"class.std::__1::unique_ptr", align 8
  store %"class.altered_carbon::js::ACAstVariantNode"* %0, %"class.altered_carbon::js::ACAstVariantNode"** %81, align 8
  call void @llvm.dbg.declare(metadata %"class.altered_carbon::js::ACAstVariantNode"** %81, metadata !5267, metadata !DIExpression()), !dbg !5269
  call void @llvm.dbg.declare(metadata %"class.std::__1::unique_ptr"* %1, metadata !5270, metadata !DIExpression()), !dbg !5271
  call void @llvm.dbg.declare(metadata %"class.std::__1::basic_string"* %2, metadata !5272, metadata !DIExpression()), !dbg !5273
  %83 = load %"class.altered_carbon::js::ACAstVariantNode"*, %"class.altered_carbon::js::ACAstVariantNode"** %81, align 8
  %84 = bitcast %"class.altered_carbon::js::ACAstVariantNode"* %83 to %"class.altered_carbon::js::ACAstBaseNode"*, !dbg !5274
  store %"class.std::__1::unique_ptr"* %1, %"class.std::__1::unique_ptr"** %80, align 8
  %85 = load %"class.std::__1::unique_ptr"*, %"class.std::__1::unique_ptr"** %80, align 8, !dbg !5275
  store %"class.std::__1::unique_ptr"* %82, %"class.std::__1::unique_ptr"** %31, align 8
  store %"class.std::__1::unique_ptr"* %85, %"class.std::__1::unique_ptr"** %32, align 8
  %86 = load %"class.std::__1::unique_ptr"*, %"class.std::__1::unique_ptr"** %31, align 8
  %87 = load %"class.std::__1::unique_ptr"*, %"class.std::__1::unique_ptr"** %32, align 8, !dbg !5276
  store %"class.std::__1::unique_ptr"* %86, %"class.std::__1::unique_ptr"** %28, align 8
  store %"class.std::__1::unique_ptr"* %87, %"class.std::__1::unique_ptr"** %29, align 8
  %88 = load %"class.std::__1::unique_ptr"*, %"class.std::__1::unique_ptr"** %28, align 8
  %89 = getelementptr inbounds %"class.std::__1::unique_ptr", %"class.std::__1::unique_ptr"* %88, i32 0, i32 0, !dbg !5277
  %90 = load %"class.std::__1::unique_ptr"*, %"class.std::__1::unique_ptr"** %29, align 8, !dbg !5278
  store %"class.std::__1::unique_ptr"* %90, %"class.std::__1::unique_ptr"** %26, align 8
  %91 = load %"class.std::__1::unique_ptr"*, %"class.std::__1::unique_ptr"** %26, align 8
  %92 = getelementptr inbounds %"class.std::__1::unique_ptr", %"class.std::__1::unique_ptr"* %91, i32 0, i32 0, !dbg !5279
  store %"class.std::__1::__compressed_pair"* %92, %"class.std::__1::__compressed_pair"** %25, align 8
  %93 = load %"class.std::__1::__compressed_pair"*, %"class.std::__1::__compressed_pair"** %25, align 8
  %94 = bitcast %"class.std::__1::__compressed_pair"* %93 to %"struct.std::__1::__compressed_pair_elem"*, !dbg !5280
  store %"struct.std::__1::__compressed_pair_elem"* %94, %"struct.std::__1::__compressed_pair_elem"** %24, align 8
  %95 = load %"struct.std::__1::__compressed_pair_elem"*, %"struct.std::__1::__compressed_pair_elem"** %24, align 8
  %96 = getelementptr inbounds %"struct.std::__1::__compressed_pair_elem", %"struct.std::__1::__compressed_pair_elem"* %95, i32 0, i32 0, !dbg !5281
  %97 = load %"struct.altered_carbon::js::ACLexPosition"*, %"struct.altered_carbon::js::ACLexPosition"** %96, align 8, !dbg !5282
  store %"struct.altered_carbon::js::ACLexPosition"* %97, %"struct.altered_carbon::js::ACLexPosition"** %27, align 8, !dbg !5058
  %98 = getelementptr inbounds %"class.std::__1::unique_ptr", %"class.std::__1::unique_ptr"* %91, i32 0, i32 0, !dbg !5283
  store %"class.std::__1::__compressed_pair"* %98, %"class.std::__1::__compressed_pair"** %23, align 8
  %99 = load %"class.std::__1::__compressed_pair"*, %"class.std::__1::__compressed_pair"** %23, align 8
  %100 = bitcast %"class.std::__1::__compressed_pair"* %99 to %"struct.std::__1::__compressed_pair_elem"*, !dbg !5284
  store %"struct.std::__1::__compressed_pair_elem"* %100, %"struct.std::__1::__compressed_pair_elem"** %22, align 8
  %101 = load %"struct.std::__1::__compressed_pair_elem"*, %"struct.std::__1::__compressed_pair_elem"** %22, align 8
  %102 = getelementptr inbounds %"struct.std::__1::__compressed_pair_elem", %"struct.std::__1::__compressed_pair_elem"* %101, i32 0, i32 0, !dbg !5285
  store %"struct.altered_carbon::js::ACLexPosition"* null, %"struct.altered_carbon::js::ACLexPosition"** %102, align 8, !dbg !5286
  %103 = load %"struct.altered_carbon::js::ACLexPosition"*, %"struct.altered_carbon::js::ACLexPosition"** %27, align 8, !dbg !5287
  store %"struct.altered_carbon::js::ACLexPosition"* %103, %"struct.altered_carbon::js::ACLexPosition"** %30, align 8, !dbg !5278
  %104 = load %"class.std::__1::unique_ptr"*, %"class.std::__1::unique_ptr"** %29, align 8, !dbg !5288
  store %"class.std::__1::unique_ptr"* %104, %"class.std::__1::unique_ptr"** %6, align 8
  %105 = load %"class.std::__1::unique_ptr"*, %"class.std::__1::unique_ptr"** %6, align 8
  %106 = getelementptr inbounds %"class.std::__1::unique_ptr", %"class.std::__1::unique_ptr"* %105, i32 0, i32 0, !dbg !5289
  store %"class.std::__1::__compressed_pair"* %106, %"class.std::__1::__compressed_pair"** %5, align 8
  %107 = load %"class.std::__1::__compressed_pair"*, %"class.std::__1::__compressed_pair"** %5, align 8
  %108 = bitcast %"class.std::__1::__compressed_pair"* %107 to %"struct.std::__1::__compressed_pair_elem.0"*, !dbg !5290
  store %"struct.std::__1::__compressed_pair_elem.0"* %108, %"struct.std::__1::__compressed_pair_elem.0"** %4, align 8
  %109 = load %"struct.std::__1::__compressed_pair_elem.0"*, %"struct.std::__1::__compressed_pair_elem.0"** %4, align 8
  %110 = bitcast %"struct.std::__1::__compressed_pair_elem.0"* %109 to %"struct.std::__1::default_delete"*, !dbg !5291
  store %"struct.std::__1::default_delete"* %110, %"struct.std::__1::default_delete"** %7, align 8
  %111 = load %"struct.std::__1::default_delete"*, %"struct.std::__1::default_delete"** %7, align 8, !dbg !5292
  store %"class.std::__1::__compressed_pair"* %89, %"class.std::__1::__compressed_pair"** %19, align 8
  store %"struct.altered_carbon::js::ACLexPosition"** %30, %"struct.altered_carbon::js::ACLexPosition"*** %20, align 8
  store %"struct.std::__1::default_delete"* %111, %"struct.std::__1::default_delete"** %21, align 8
  %112 = load %"class.std::__1::__compressed_pair"*, %"class.std::__1::__compressed_pair"** %19, align 8
  %113 = load %"struct.altered_carbon::js::ACLexPosition"**, %"struct.altered_carbon::js::ACLexPosition"*** %20, align 8, !dbg !5293
  %114 = load %"struct.std::__1::default_delete"*, %"struct.std::__1::default_delete"** %21, align 8, !dbg !5293
  store %"class.std::__1::__compressed_pair"* %112, %"class.std::__1::__compressed_pair"** %16, align 8
  store %"struct.altered_carbon::js::ACLexPosition"** %113, %"struct.altered_carbon::js::ACLexPosition"*** %17, align 8
  store %"struct.std::__1::default_delete"* %114, %"struct.std::__1::default_delete"** %18, align 8
  %115 = load %"class.std::__1::__compressed_pair"*, %"class.std::__1::__compressed_pair"** %16, align 8
  %116 = bitcast %"class.std::__1::__compressed_pair"* %115 to %"struct.std::__1::__compressed_pair_elem"*, !dbg !5294
  %117 = load %"struct.altered_carbon::js::ACLexPosition"**, %"struct.altered_carbon::js::ACLexPosition"*** %17, align 8, !dbg !5295
  store %"struct.altered_carbon::js::ACLexPosition"** %117, %"struct.altered_carbon::js::ACLexPosition"*** %15, align 8
  %118 = load %"struct.altered_carbon::js::ACLexPosition"**, %"struct.altered_carbon::js::ACLexPosition"*** %15, align 8, !dbg !5296
  store %"struct.std::__1::__compressed_pair_elem"* %116, %"struct.std::__1::__compressed_pair_elem"** %9, align 8
  store %"struct.altered_carbon::js::ACLexPosition"** %118, %"struct.altered_carbon::js::ACLexPosition"*** %10, align 8
  %119 = load %"struct.std::__1::__compressed_pair_elem"*, %"struct.std::__1::__compressed_pair_elem"** %9, align 8
  %120 = getelementptr inbounds %"struct.std::__1::__compressed_pair_elem", %"struct.std::__1::__compressed_pair_elem"* %119, i32 0, i32 0, !dbg !5297
  %121 = load %"struct.altered_carbon::js::ACLexPosition"**, %"struct.altered_carbon::js::ACLexPosition"*** %10, align 8, !dbg !5298
  store %"struct.altered_carbon::js::ACLexPosition"** %121, %"struct.altered_carbon::js::ACLexPosition"*** %8, align 8
  %122 = load %"struct.altered_carbon::js::ACLexPosition"**, %"struct.altered_carbon::js::ACLexPosition"*** %8, align 8, !dbg !5299
  %123 = load %"struct.altered_carbon::js::ACLexPosition"*, %"struct.altered_carbon::js::ACLexPosition"** %122, align 8, !dbg !5300
  store %"struct.altered_carbon::js::ACLexPosition"* %123, %"struct.altered_carbon::js::ACLexPosition"** %120, align 8, !dbg !5297
  %124 = bitcast %"class.std::__1::__compressed_pair"* %115 to %"struct.std::__1::__compressed_pair_elem.0"*, !dbg !5294
  %125 = load %"struct.std::__1::default_delete"*, %"struct.std::__1::default_delete"** %18, align 8, !dbg !5301
  store %"struct.std::__1::default_delete"* %125, %"struct.std::__1::default_delete"** %11, align 8
  %126 = load %"struct.std::__1::default_delete"*, %"struct.std::__1::default_delete"** %11, align 8, !dbg !5302
  store %"struct.std::__1::__compressed_pair_elem.0"* %124, %"struct.std::__1::__compressed_pair_elem.0"** %13, align 8
  store %"struct.std::__1::default_delete"* %126, %"struct.std::__1::default_delete"** %14, align 8
  %127 = load %"struct.std::__1::__compressed_pair_elem.0"*, %"struct.std::__1::__compressed_pair_elem.0"** %13, align 8
  %128 = bitcast %"struct.std::__1::__compressed_pair_elem.0"* %127 to %"struct.std::__1::default_delete"*, !dbg !5303
  %129 = load %"struct.std::__1::default_delete"*, %"struct.std::__1::default_delete"** %14, align 8, !dbg !5304
  store %"struct.std::__1::default_delete"* %129, %"struct.std::__1::default_delete"** %12, align 8
  %130 = load %"struct.std::__1::default_delete"*, %"struct.std::__1::default_delete"** %12, align 8, !dbg !5305
  call void @_ZN14altered_carbon2js13ACAstBaseNodeC2ENSt3__110unique_ptrINS0_13ACLexPositionENS2_14default_deleteIS4_EEEENS1_11AstNodeTypeENS1_14AstNodeSubTypeE(%"class.altered_carbon::js::ACAstBaseNode"* %84, %"class.std::__1::unique_ptr"* %82, i32 6, i32 601), !dbg !5306
  store %"class.std::__1::unique_ptr"* %82, %"class.std::__1::unique_ptr"** %45, align 8
  %131 = load %"class.std::__1::unique_ptr"*, %"class.std::__1::unique_ptr"** %45, align 8
  store %"class.std::__1::unique_ptr"* %131, %"class.std::__1::unique_ptr"** %44, align 8
  %132 = load %"class.std::__1::unique_ptr"*, %"class.std::__1::unique_ptr"** %44, align 8
  store %"class.std::__1::unique_ptr"* %132, %"class.std::__1::unique_ptr"** %41, align 8
  store %"struct.altered_carbon::js::ACLexPosition"* null, %"struct.altered_carbon::js::ACLexPosition"** %42, align 8
  %133 = load %"class.std::__1::unique_ptr"*, %"class.std::__1::unique_ptr"** %41, align 8
  %134 = getelementptr inbounds %"class.std::__1::unique_ptr", %"class.std::__1::unique_ptr"* %133, i32 0, i32 0, !dbg !5307
  store %"class.std::__1::__compressed_pair"* %134, %"class.std::__1::__compressed_pair"** %40, align 8
  %135 = load %"class.std::__1::__compressed_pair"*, %"class.std::__1::__compressed_pair"** %40, align 8
  %136 = bitcast %"class.std::__1::__compressed_pair"* %135 to %"struct.std::__1::__compressed_pair_elem"*, !dbg !5308
  store %"struct.std::__1::__compressed_pair_elem"* %136, %"struct.std::__1::__compressed_pair_elem"** %39, align 8
  %137 = load %"struct.std::__1::__compressed_pair_elem"*, %"struct.std::__1::__compressed_pair_elem"** %39, align 8
  %138 = getelementptr inbounds %"struct.std::__1::__compressed_pair_elem", %"struct.std::__1::__compressed_pair_elem"* %137, i32 0, i32 0, !dbg !5309
  %139 = load %"struct.altered_carbon::js::ACLexPosition"*, %"struct.altered_carbon::js::ACLexPosition"** %138, align 8, !dbg !5310
  store %"struct.altered_carbon::js::ACLexPosition"* %139, %"struct.altered_carbon::js::ACLexPosition"** %43, align 8, !dbg !5099
  %140 = load %"struct.altered_carbon::js::ACLexPosition"*, %"struct.altered_carbon::js::ACLexPosition"** %42, align 8, !dbg !5311
  %141 = getelementptr inbounds %"class.std::__1::unique_ptr", %"class.std::__1::unique_ptr"* %133, i32 0, i32 0, !dbg !5312
  store %"class.std::__1::__compressed_pair"* %141, %"class.std::__1::__compressed_pair"** %36, align 8
  %142 = load %"class.std::__1::__compressed_pair"*, %"class.std::__1::__compressed_pair"** %36, align 8
  %143 = bitcast %"class.std::__1::__compressed_pair"* %142 to %"struct.std::__1::__compressed_pair_elem"*, !dbg !5313
  store %"struct.std::__1::__compressed_pair_elem"* %143, %"struct.std::__1::__compressed_pair_elem"** %35, align 8
  %144 = load %"struct.std::__1::__compressed_pair_elem"*, %"struct.std::__1::__compressed_pair_elem"** %35, align 8
  %145 = getelementptr inbounds %"struct.std::__1::__compressed_pair_elem", %"struct.std::__1::__compressed_pair_elem"* %144, i32 0, i32 0, !dbg !5314
  store %"struct.altered_carbon::js::ACLexPosition"* %140, %"struct.altered_carbon::js::ACLexPosition"** %145, align 8, !dbg !5315
  %146 = load %"struct.altered_carbon::js::ACLexPosition"*, %"struct.altered_carbon::js::ACLexPosition"** %43, align 8, !dbg !5316
  %147 = icmp ne %"struct.altered_carbon::js::ACLexPosition"* %146, null, !dbg !5316
  br i1 %147, label %148, label %164, !dbg !5317

; <label>:148:                                    ; preds = %3
  %149 = getelementptr inbounds %"class.std::__1::unique_ptr", %"class.std::__1::unique_ptr"* %133, i32 0, i32 0, !dbg !5318
  store %"class.std::__1::__compressed_pair"* %149, %"class.std::__1::__compressed_pair"** %34, align 8
  %150 = load %"class.std::__1::__compressed_pair"*, %"class.std::__1::__compressed_pair"** %34, align 8
  %151 = bitcast %"class.std::__1::__compressed_pair"* %150 to %"struct.std::__1::__compressed_pair_elem.0"*, !dbg !5319
  store %"struct.std::__1::__compressed_pair_elem.0"* %151, %"struct.std::__1::__compressed_pair_elem.0"** %33, align 8
  %152 = load %"struct.std::__1::__compressed_pair_elem.0"*, %"struct.std::__1::__compressed_pair_elem.0"** %33, align 8
  %153 = bitcast %"struct.std::__1::__compressed_pair_elem.0"* %152 to %"struct.std::__1::default_delete"*, !dbg !5320
  %154 = load %"struct.altered_carbon::js::ACLexPosition"*, %"struct.altered_carbon::js::ACLexPosition"** %43, align 8, !dbg !5321
  store %"struct.std::__1::default_delete"* %153, %"struct.std::__1::default_delete"** %37, align 8
  store %"struct.altered_carbon::js::ACLexPosition"* %154, %"struct.altered_carbon::js::ACLexPosition"** %38, align 8
  %155 = load %"struct.std::__1::default_delete"*, %"struct.std::__1::default_delete"** %37, align 8
  %156 = load %"struct.altered_carbon::js::ACLexPosition"*, %"struct.altered_carbon::js::ACLexPosition"** %38, align 8, !dbg !5322
  %157 = icmp eq %"struct.altered_carbon::js::ACLexPosition"* %156, null, !dbg !5323
  br i1 %157, label %163, label %158, !dbg !5323

; <label>:158:                                    ; preds = %148
  %159 = bitcast %"struct.altered_carbon::js::ACLexPosition"* %156 to void (%"struct.altered_carbon::js::ACLexPosition"*)***, !dbg !5323
  %160 = load void (%"struct.altered_carbon::js::ACLexPosition"*)**, void (%"struct.altered_carbon::js::ACLexPosition"*)*** %159, align 8, !dbg !5323
  %161 = getelementptr inbounds void (%"struct.altered_carbon::js::ACLexPosition"*)*, void (%"struct.altered_carbon::js::ACLexPosition"*)** %160, i64 1, !dbg !5323
  %162 = load void (%"struct.altered_carbon::js::ACLexPosition"*)*, void (%"struct.altered_carbon::js::ACLexPosition"*)** %161, align 8, !dbg !5323
  call void %162(%"struct.altered_carbon::js::ACLexPosition"* %156) #2, !dbg !5323
  br label %163, !dbg !5323

; <label>:163:                                    ; preds = %158, %148
  br label %164, !dbg !5318

; <label>:164:                                    ; preds = %3, %163
  %165 = bitcast %"class.altered_carbon::js::ACAstVariantNode"* %83 to i32 (...)***, !dbg !5274
  store i32 (...)** bitcast (i8** getelementptr inbounds ({ [14 x i8*] }, { [14 x i8*] }* @_ZTVN14altered_carbon2js16ACAstVariantNodeE, i32 0, inrange i32 0, i32 2) to i32 (...)**), i32 (...)*** %165, align 8, !dbg !5274
  %166 = getelementptr inbounds %"class.altered_carbon::js::ACAstVariantNode", %"class.altered_carbon::js::ACAstVariantNode"* %83, i32 0, i32 1, !dbg !5324
  store %"class.std::__1::basic_string"* %2, %"class.std::__1::basic_string"** %46, align 8
  %167 = load %"class.std::__1::basic_string"*, %"class.std::__1::basic_string"** %46, align 8, !dbg !5325
  store %"class.std::__1::basic_string"* %166, %"class.std::__1::basic_string"** %55, align 8
  store %"class.std::__1::basic_string"* %167, %"class.std::__1::basic_string"** %56, align 8
  %168 = load %"class.std::__1::basic_string"*, %"class.std::__1::basic_string"** %55, align 8
  %169 = load %"class.std::__1::basic_string"*, %"class.std::__1::basic_string"** %56, align 8, !dbg !5326
  store %"class.std::__1::basic_string"* %168, %"class.std::__1::basic_string"** %53, align 8
  store %"class.std::__1::basic_string"* %169, %"class.std::__1::basic_string"** %54, align 8
  %170 = load %"class.std::__1::basic_string"*, %"class.std::__1::basic_string"** %53, align 8
  %171 = bitcast %"class.std::__1::basic_string"* %170 to %"class.std::__1::__basic_string_common"*, !dbg !5327
  %172 = getelementptr inbounds %"class.std::__1::basic_string", %"class.std::__1::basic_string"* %170, i32 0, i32 0, !dbg !5328
  %173 = load %"class.std::__1::basic_string"*, %"class.std::__1::basic_string"** %54, align 8, !dbg !5329
  %174 = getelementptr inbounds %"class.std::__1::basic_string", %"class.std::__1::basic_string"* %173, i32 0, i32 0, !dbg !5330
  store %"class.std::__1::__compressed_pair.10"* %174, %"class.std::__1::__compressed_pair.10"** %52, align 8
  %175 = load %"class.std::__1::__compressed_pair.10"*, %"class.std::__1::__compressed_pair.10"** %52, align 8, !dbg !5331
  %176 = bitcast %"class.std::__1::__compressed_pair.10"* %172 to i8*, !dbg !5328
  %177 = bitcast %"class.std::__1::__compressed_pair.10"* %175 to i8*, !dbg !5328
  call void @llvm.memcpy.p0i8.p0i8.i64(i8* align 8 %176, i8* align 8 %177, i64 24, i1 false), !dbg !5328
  %178 = load %"class.std::__1::basic_string"*, %"class.std::__1::basic_string"** %54, align 8, !dbg !5332
  store %"class.std::__1::basic_string"* %178, %"class.std::__1::basic_string"** %49, align 8
  %179 = load %"class.std::__1::basic_string"*, %"class.std::__1::basic_string"** %49, align 8
  %180 = getelementptr inbounds %"class.std::__1::basic_string", %"class.std::__1::basic_string"* %179, i32 0, i32 0, !dbg !5333
  store %"class.std::__1::__compressed_pair.10"* %180, %"class.std::__1::__compressed_pair.10"** %48, align 8
  %181 = load %"class.std::__1::__compressed_pair.10"*, %"class.std::__1::__compressed_pair.10"** %48, align 8
  %182 = bitcast %"class.std::__1::__compressed_pair.10"* %181 to %"struct.std::__1::__compressed_pair_elem.11"*, !dbg !5334
  store %"struct.std::__1::__compressed_pair_elem.11"* %182, %"struct.std::__1::__compressed_pair_elem.11"** %47, align 8
  %183 = load %"struct.std::__1::__compressed_pair_elem.11"*, %"struct.std::__1::__compressed_pair_elem.11"** %47, align 8
  %184 = getelementptr inbounds %"struct.std::__1::__compressed_pair_elem.11", %"struct.std::__1::__compressed_pair_elem.11"* %183, i32 0, i32 0, !dbg !5335
  %185 = getelementptr inbounds %"struct.std::__1::basic_string<wchar_t, std::__1::char_traits<wchar_t>, std::__1::allocator<wchar_t> >::__rep", %"struct.std::__1::basic_string<wchar_t, std::__1::char_traits<wchar_t>, std::__1::allocator<wchar_t> >::__rep"* %184, i32 0, i32 0, !dbg !5336
  %186 = bitcast %union.anon* %185 to %"struct.std::__1::basic_string<wchar_t, std::__1::char_traits<wchar_t>, std::__1::allocator<wchar_t> >::__raw"*, !dbg !5336
  %187 = getelementptr inbounds %"struct.std::__1::basic_string<wchar_t, std::__1::char_traits<wchar_t>, std::__1::allocator<wchar_t> >::__raw", %"struct.std::__1::basic_string<wchar_t, std::__1::char_traits<wchar_t>, std::__1::allocator<wchar_t> >::__raw"* %186, i32 0, i32 0, !dbg !5337
  store [3 x i64]* %187, [3 x i64]** %50, align 8, !dbg !5137
  store i32 0, i32* %51, align 4, !dbg !5140
  br label %188, !dbg !5338

; <label>:188:                                    ; preds = %191, %164
  %189 = load i32, i32* %51, align 4, !dbg !5339
  %190 = icmp ult i32 %189, 3, !dbg !5341
  br i1 %190, label %191, label %198, !dbg !5342

; <label>:191:                                    ; preds = %188
  %192 = load [3 x i64]*, [3 x i64]** %50, align 8, !dbg !5343
  %193 = load i32, i32* %51, align 4, !dbg !5344
  %194 = zext i32 %193 to i64, !dbg !5343
  %195 = getelementptr inbounds [3 x i64], [3 x i64]* %192, i64 0, i64 %194, !dbg !5343
  store i64 0, i64* %195, align 8, !dbg !5345
  %196 = load i32, i32* %51, align 4, !dbg !5346
  %197 = add i32 %196, 1, !dbg !5346
  store i32 %197, i32* %51, align 4, !dbg !5346
  br label %188, !dbg !5347, !llvm.loop !5348

; <label>:198:                                    ; preds = %188
  %199 = getelementptr inbounds %"class.altered_carbon::js::ACAstVariantNode", %"class.altered_carbon::js::ACAstVariantNode"* %83, i32 0, i32 3, !dbg !5351
  call void @_ZN14altered_carbon2js11ACLexNumberC1Ev(%"class.altered_carbon::js::ACLexNumber"* %199), !dbg !5351
  %200 = getelementptr inbounds %"class.altered_carbon::js::ACAstVariantNode", %"class.altered_carbon::js::ACAstVariantNode"* %83, i32 0, i32 4, !dbg !5351
  store %"class.std::__1::basic_string"* %200, %"class.std::__1::basic_string"** %68, align 8
  %201 = load %"class.std::__1::basic_string"*, %"class.std::__1::basic_string"** %68, align 8
  store %"class.std::__1::basic_string"* %201, %"class.std::__1::basic_string"** %67, align 8
  %202 = load %"class.std::__1::basic_string"*, %"class.std::__1::basic_string"** %67, align 8
  %203 = bitcast %"class.std::__1::basic_string"* %202 to %"class.std::__1::__basic_string_common"*, !dbg !5352
  %204 = getelementptr inbounds %"class.std::__1::basic_string", %"class.std::__1::basic_string"* %202, i32 0, i32 0, !dbg !5353
  store %"class.std::__1::__compressed_pair.10"* %204, %"class.std::__1::__compressed_pair.10"** %66, align 8
  %205 = load %"class.std::__1::__compressed_pair.10"*, %"class.std::__1::__compressed_pair.10"** %66, align 8
  store %"class.std::__1::__compressed_pair.10"* %205, %"class.std::__1::__compressed_pair.10"** %65, align 8
  %206 = load %"class.std::__1::__compressed_pair.10"*, %"class.std::__1::__compressed_pair.10"** %65, align 8
  %207 = bitcast %"class.std::__1::__compressed_pair.10"* %206 to %"struct.std::__1::__compressed_pair_elem.11"*, !dbg !5354
  store %"struct.std::__1::__compressed_pair_elem.11"* %207, %"struct.std::__1::__compressed_pair_elem.11"** %64, align 8
  %208 = load %"struct.std::__1::__compressed_pair_elem.11"*, %"struct.std::__1::__compressed_pair_elem.11"** %64, align 8
  %209 = getelementptr inbounds %"struct.std::__1::__compressed_pair_elem.11", %"struct.std::__1::__compressed_pair_elem.11"* %208, i32 0, i32 0, !dbg !5355
  %210 = bitcast %"struct.std::__1::basic_string<wchar_t, std::__1::char_traits<wchar_t>, std::__1::allocator<wchar_t> >::__rep"* %209 to i8*, !dbg !5355
  call void @llvm.memset.p0i8.i64(i8* align 8 %210, i8 0, i64 24, i1 false), !dbg !5355
  %211 = bitcast %"class.std::__1::__compressed_pair.10"* %206 to %"struct.std::__1::__compressed_pair_elem.13"*, !dbg !5354
  store %"struct.std::__1::__compressed_pair_elem.13"* %211, %"struct.std::__1::__compressed_pair_elem.13"** %63, align 8
  %212 = load %"struct.std::__1::__compressed_pair_elem.13"*, %"struct.std::__1::__compressed_pair_elem.13"** %63, align 8
  %213 = bitcast %"struct.std::__1::__compressed_pair_elem.13"* %212 to %"class.std::__1::allocator.14"*, !dbg !5356
  store %"class.std::__1::allocator.14"* %213, %"class.std::__1::allocator.14"** %62, align 8
  %214 = load %"class.std::__1::allocator.14"*, %"class.std::__1::allocator.14"** %62, align 8
  store %"class.std::__1::basic_string"* %202, %"class.std::__1::basic_string"** %59, align 8
  %215 = load %"class.std::__1::basic_string"*, %"class.std::__1::basic_string"** %59, align 8
  %216 = getelementptr inbounds %"class.std::__1::basic_string", %"class.std::__1::basic_string"* %215, i32 0, i32 0, !dbg !5357
  store %"class.std::__1::__compressed_pair.10"* %216, %"class.std::__1::__compressed_pair.10"** %58, align 8
  %217 = load %"class.std::__1::__compressed_pair.10"*, %"class.std::__1::__compressed_pair.10"** %58, align 8
  %218 = bitcast %"class.std::__1::__compressed_pair.10"* %217 to %"struct.std::__1::__compressed_pair_elem.11"*, !dbg !5358
  store %"struct.std::__1::__compressed_pair_elem.11"* %218, %"struct.std::__1::__compressed_pair_elem.11"** %57, align 8
  %219 = load %"struct.std::__1::__compressed_pair_elem.11"*, %"struct.std::__1::__compressed_pair_elem.11"** %57, align 8
  %220 = getelementptr inbounds %"struct.std::__1::__compressed_pair_elem.11", %"struct.std::__1::__compressed_pair_elem.11"* %219, i32 0, i32 0, !dbg !5359
  %221 = getelementptr inbounds %"struct.std::__1::basic_string<wchar_t, std::__1::char_traits<wchar_t>, std::__1::allocator<wchar_t> >::__rep", %"struct.std::__1::basic_string<wchar_t, std::__1::char_traits<wchar_t>, std::__1::allocator<wchar_t> >::__rep"* %220, i32 0, i32 0, !dbg !5360
  %222 = bitcast %union.anon* %221 to %"struct.std::__1::basic_string<wchar_t, std::__1::char_traits<wchar_t>, std::__1::allocator<wchar_t> >::__raw"*, !dbg !5360
  %223 = getelementptr inbounds %"struct.std::__1::basic_string<wchar_t, std::__1::char_traits<wchar_t>, std::__1::allocator<wchar_t> >::__raw", %"struct.std::__1::basic_string<wchar_t, std::__1::char_traits<wchar_t>, std::__1::allocator<wchar_t> >::__raw"* %222, i32 0, i32 0, !dbg !5361
  store [3 x i64]* %223, [3 x i64]** %60, align 8, !dbg !5171
  store i32 0, i32* %61, align 4, !dbg !5172
  br label %224, !dbg !5362

; <label>:224:                                    ; preds = %227, %198
  %225 = load i32, i32* %61, align 4, !dbg !5363
  %226 = icmp ult i32 %225, 3, !dbg !5364
  br i1 %226, label %227, label %234, !dbg !5365

; <label>:227:                                    ; preds = %224
  %228 = load [3 x i64]*, [3 x i64]** %60, align 8, !dbg !5366
  %229 = load i32, i32* %61, align 4, !dbg !5367
  %230 = zext i32 %229 to i64, !dbg !5366
  %231 = getelementptr inbounds [3 x i64], [3 x i64]* %228, i64 0, i64 %230, !dbg !5366
  store i64 0, i64* %231, align 8, !dbg !5368
  %232 = load i32, i32* %61, align 4, !dbg !5369
  %233 = add i32 %232, 1, !dbg !5369
  store i32 %233, i32* %61, align 4, !dbg !5369
  br label %224, !dbg !5370, !llvm.loop !5348

; <label>:234:                                    ; preds = %224
  %235 = getelementptr inbounds %"class.altered_carbon::js::ACAstVariantNode", %"class.altered_carbon::js::ACAstVariantNode"* %83, i32 0, i32 6, !dbg !5351
  store %"class.std::__1::unique_ptr.17"* %235, %"class.std::__1::unique_ptr.17"** %79, align 8
  %236 = load %"class.std::__1::unique_ptr.17"*, %"class.std::__1::unique_ptr.17"** %79, align 8
  store %"class.std::__1::unique_ptr.17"* %236, %"class.std::__1::unique_ptr.17"** %77, align 8
  %237 = load %"class.std::__1::unique_ptr.17"*, %"class.std::__1::unique_ptr.17"** %77, align 8
  %238 = getelementptr inbounds %"class.std::__1::unique_ptr.17", %"class.std::__1::unique_ptr.17"* %237, i32 0, i32 0, !dbg !5371
  store %"class.altered_carbon::js::ACLexRegex"* null, %"class.altered_carbon::js::ACLexRegex"** %78, align 8, !dbg !5372
  store %"class.std::__1::__compressed_pair.18"* %238, %"class.std::__1::__compressed_pair.18"** %75, align 8
  store %"class.altered_carbon::js::ACLexRegex"** %78, %"class.altered_carbon::js::ACLexRegex"*** %76, align 8
  %239 = load %"class.std::__1::__compressed_pair.18"*, %"class.std::__1::__compressed_pair.18"** %75, align 8
  %240 = load %"class.altered_carbon::js::ACLexRegex"**, %"class.altered_carbon::js::ACLexRegex"*** %76, align 8, !dbg !5373
  store %"class.std::__1::__compressed_pair.18"* %239, %"class.std::__1::__compressed_pair.18"** %73, align 8
  store %"class.altered_carbon::js::ACLexRegex"** %240, %"class.altered_carbon::js::ACLexRegex"*** %74, align 8
  %241 = load %"class.std::__1::__compressed_pair.18"*, %"class.std::__1::__compressed_pair.18"** %73, align 8
  %242 = bitcast %"class.std::__1::__compressed_pair.18"* %241 to %"struct.std::__1::__compressed_pair_elem.19"*, !dbg !5374
  %243 = load %"class.altered_carbon::js::ACLexRegex"**, %"class.altered_carbon::js::ACLexRegex"*** %74, align 8, !dbg !5375
  store %"class.altered_carbon::js::ACLexRegex"** %243, %"class.altered_carbon::js::ACLexRegex"*** %72, align 8
  %244 = load %"class.altered_carbon::js::ACLexRegex"**, %"class.altered_carbon::js::ACLexRegex"*** %72, align 8, !dbg !5376
  store %"struct.std::__1::__compressed_pair_elem.19"* %242, %"struct.std::__1::__compressed_pair_elem.19"** %70, align 8
  store %"class.altered_carbon::js::ACLexRegex"** %244, %"class.altered_carbon::js::ACLexRegex"*** %71, align 8
  %245 = load %"struct.std::__1::__compressed_pair_elem.19"*, %"struct.std::__1::__compressed_pair_elem.19"** %70, align 8
  %246 = getelementptr inbounds %"struct.std::__1::__compressed_pair_elem.19", %"struct.std::__1::__compressed_pair_elem.19"* %245, i32 0, i32 0, !dbg !5377
  %247 = load %"class.altered_carbon::js::ACLexRegex"**, %"class.altered_carbon::js::ACLexRegex"*** %71, align 8, !dbg !5378
  store %"class.altered_carbon::js::ACLexRegex"** %247, %"class.altered_carbon::js::ACLexRegex"*** %69, align 8
  %248 = load %"class.altered_carbon::js::ACLexRegex"**, %"class.altered_carbon::js::ACLexRegex"*** %69, align 8, !dbg !5379
  %249 = load %"class.altered_carbon::js::ACLexRegex"*, %"class.altered_carbon::js::ACLexRegex"** %248, align 8, !dbg !5380
  store %"class.altered_carbon::js::ACLexRegex"* %249, %"class.altered_carbon::js::ACLexRegex"** %246, align 8, !dbg !5377
  %250 = bitcast %"class.std::__1::__compressed_pair.18"* %241 to %"struct.std::__1::__compressed_pair_elem.28"*, !dbg !5374
  ret void, !dbg !5381
}

; Function Attrs: nounwind readnone speculatable
declare void @llvm.dbg.declare(metadata, metadata, metadata) #3

declare void @_ZN14altered_carbon2js13ACAstBaseNodeC2ENSt3__110unique_ptrINS0_13ACLexPositionENS2_14default_deleteIS4_EEEENS1_11AstNodeTypeENS1_14AstNodeSubTypeE(%"class.altered_carbon::js::ACAstBaseNode"*, %"class.std::__1::unique_ptr"*, i32, i32) unnamed_addr #4

declare void @_ZN14altered_carbon2js11ACLexNumberC1Ev(%"class.altered_carbon::js::ACLexNumber"*) unnamed_addr #4

; Function Attrs: noinline nounwind optnone ssp uwtable
define void @_ZN14altered_carbon2js16ACAstVariantNodeC1ENSt3__110unique_ptrINS0_13ACLexPositionENS2_14default_deleteIS4_EEEENS2_12basic_stringIwNS2_11char_traitsIwEENS2_9allocatorIwEEEE(%"class.altered_carbon::js::ACAstVariantNode"*, %"class.std::__1::unique_ptr"*, %"class.std::__1::basic_string"*) unnamed_addr #1 align 2 !dbg !5382 {
  %4 = alloca %"class.altered_carbon::js::ACAstVariantNode"*, align 8
  store %"class.altered_carbon::js::ACAstVariantNode"* %0, %"class.altered_carbon::js::ACAstVariantNode"** %4, align 8
  call void @llvm.dbg.declare(metadata %"class.altered_carbon::js::ACAstVariantNode"** %4, metadata !5383, metadata !DIExpression()), !dbg !5384
  call void @llvm.dbg.declare(metadata %"class.std::__1::unique_ptr"* %1, metadata !5385, metadata !DIExpression()), !dbg !5386
  call void @llvm.dbg.declare(metadata %"class.std::__1::basic_string"* %2, metadata !5387, metadata !DIExpression()), !dbg !5388
  %5 = load %"class.altered_carbon::js::ACAstVariantNode"*, %"class.altered_carbon::js::ACAstVariantNode"** %4, align 8
  call void @_ZN14altered_carbon2js16ACAstVariantNodeC2ENSt3__110unique_ptrINS0_13ACLexPositionENS2_14default_deleteIS4_EEEENS2_12basic_stringIwNS2_11char_traitsIwEENS2_9allocatorIwEEEE(%"class.altered_carbon::js::ACAstVariantNode"* %5, %"class.std::__1::unique_ptr"* %1, %"class.std::__1::basic_string"* %2), !dbg !5389
  ret void, !dbg !5390
}

; Function Attrs: noinline nounwind optnone ssp uwtable
define void @_ZN14altered_carbon2js16ACAstVariantNodeC2ENSt3__110unique_ptrINS0_13ACLexPositionENS2_14default_deleteIS4_EEEEb(%"class.altered_carbon::js::ACAstVariantNode"*, %"class.std::__1::unique_ptr"*, i1 zeroext) unnamed_addr #1 align 2 !dbg !5391 {
  %4 = alloca %"struct.std::__1::__compressed_pair_elem.0"*, align 8
  call void @llvm.dbg.declare(metadata %"struct.std::__1::__compressed_pair_elem.0"** %4, metadata !4948, metadata !DIExpression()), !dbg !5392
  %5 = alloca %"class.std::__1::__compressed_pair"*, align 8
  call void @llvm.dbg.declare(metadata %"class.std::__1::__compressed_pair"** %5, metadata !4961, metadata !DIExpression()), !dbg !5398
  %6 = alloca %"class.std::__1::unique_ptr"*, align 8
  call void @llvm.dbg.declare(metadata %"class.std::__1::unique_ptr"** %6, metadata !4964, metadata !DIExpression()), !dbg !5399
  %7 = alloca %"struct.std::__1::default_delete"*, align 8
  call void @llvm.dbg.declare(metadata %"struct.std::__1::default_delete"** %7, metadata !4967, metadata !DIExpression()), !dbg !5400
  %8 = alloca %"struct.altered_carbon::js::ACLexPosition"**, align 8
  call void @llvm.dbg.declare(metadata %"struct.altered_carbon::js::ACLexPosition"*** %8, metadata !4978, metadata !DIExpression()), !dbg !5402
  %9 = alloca %"struct.std::__1::__compressed_pair_elem"*, align 8
  call void @llvm.dbg.declare(metadata %"struct.std::__1::__compressed_pair_elem"** %9, metadata !5007, metadata !DIExpression()), !dbg !5407
  %10 = alloca %"struct.altered_carbon::js::ACLexPosition"**, align 8
  call void @llvm.dbg.declare(metadata %"struct.altered_carbon::js::ACLexPosition"*** %10, metadata !5010, metadata !DIExpression()), !dbg !5408
  %11 = alloca %"struct.std::__1::default_delete"*, align 8
  call void @llvm.dbg.declare(metadata %"struct.std::__1::default_delete"** %11, metadata !4967, metadata !DIExpression()), !dbg !5409
  %12 = alloca %"struct.std::__1::default_delete"*, align 8
  call void @llvm.dbg.declare(metadata %"struct.std::__1::default_delete"** %12, metadata !4967, metadata !DIExpression()), !dbg !5411
  %13 = alloca %"struct.std::__1::__compressed_pair_elem.0"*, align 8
  call void @llvm.dbg.declare(metadata %"struct.std::__1::__compressed_pair_elem.0"** %13, metadata !5023, metadata !DIExpression()), !dbg !5414
  %14 = alloca %"struct.std::__1::default_delete"*, align 8
  call void @llvm.dbg.declare(metadata %"struct.std::__1::default_delete"** %14, metadata !5025, metadata !DIExpression()), !dbg !5415
  %15 = alloca %"struct.altered_carbon::js::ACLexPosition"**, align 8
  call void @llvm.dbg.declare(metadata %"struct.altered_carbon::js::ACLexPosition"*** %15, metadata !4978, metadata !DIExpression()), !dbg !5416
  %16 = alloca %"class.std::__1::__compressed_pair"*, align 8
  call void @llvm.dbg.declare(metadata %"class.std::__1::__compressed_pair"** %16, metadata !5029, metadata !DIExpression()), !dbg !5418
  %17 = alloca %"struct.altered_carbon::js::ACLexPosition"**, align 8
  call void @llvm.dbg.declare(metadata %"struct.altered_carbon::js::ACLexPosition"*** %17, metadata !5031, metadata !DIExpression()), !dbg !5419
  %18 = alloca %"struct.std::__1::default_delete"*, align 8
  call void @llvm.dbg.declare(metadata %"struct.std::__1::default_delete"** %18, metadata !5033, metadata !DIExpression()), !dbg !5420
  %19 = alloca %"class.std::__1::__compressed_pair"*, align 8
  call void @llvm.dbg.declare(metadata %"class.std::__1::__compressed_pair"** %19, metadata !5035, metadata !DIExpression()), !dbg !5421
  %20 = alloca %"struct.altered_carbon::js::ACLexPosition"**, align 8
  call void @llvm.dbg.declare(metadata %"struct.altered_carbon::js::ACLexPosition"*** %20, metadata !5037, metadata !DIExpression()), !dbg !5422
  %21 = alloca %"struct.std::__1::default_delete"*, align 8
  call void @llvm.dbg.declare(metadata %"struct.std::__1::default_delete"** %21, metadata !5039, metadata !DIExpression()), !dbg !5423
  %22 = alloca %"struct.std::__1::__compressed_pair_elem"*, align 8
  call void @llvm.dbg.declare(metadata %"struct.std::__1::__compressed_pair_elem"** %22, metadata !5041, metadata !DIExpression()), !dbg !5424
  %23 = alloca %"class.std::__1::__compressed_pair"*, align 8
  call void @llvm.dbg.declare(metadata %"class.std::__1::__compressed_pair"** %23, metadata !5049, metadata !DIExpression()), !dbg !5428
  %24 = alloca %"struct.std::__1::__compressed_pair_elem"*, align 8
  call void @llvm.dbg.declare(metadata %"struct.std::__1::__compressed_pair_elem"** %24, metadata !5041, metadata !DIExpression()), !dbg !5429
  %25 = alloca %"class.std::__1::__compressed_pair"*, align 8
  call void @llvm.dbg.declare(metadata %"class.std::__1::__compressed_pair"** %25, metadata !5049, metadata !DIExpression()), !dbg !5432
  %26 = alloca %"class.std::__1::unique_ptr"*, align 8
  call void @llvm.dbg.declare(metadata %"class.std::__1::unique_ptr"** %26, metadata !5055, metadata !DIExpression()), !dbg !5433
  %27 = alloca %"struct.altered_carbon::js::ACLexPosition"*, align 8
  call void @llvm.dbg.declare(metadata %"struct.altered_carbon::js::ACLexPosition"** %27, metadata !5057, metadata !DIExpression()), !dbg !5434
  %28 = alloca %"class.std::__1::unique_ptr"*, align 8
  call void @llvm.dbg.declare(metadata %"class.std::__1::unique_ptr"** %28, metadata !5059, metadata !DIExpression()), !dbg !5435
  %29 = alloca %"class.std::__1::unique_ptr"*, align 8
  call void @llvm.dbg.declare(metadata %"class.std::__1::unique_ptr"** %29, metadata !5061, metadata !DIExpression()), !dbg !5436
  %30 = alloca %"struct.altered_carbon::js::ACLexPosition"*, align 8
  %31 = alloca %"class.std::__1::unique_ptr"*, align 8
  call void @llvm.dbg.declare(metadata %"class.std::__1::unique_ptr"** %31, metadata !5063, metadata !DIExpression()), !dbg !5437
  %32 = alloca %"class.std::__1::unique_ptr"*, align 8
  call void @llvm.dbg.declare(metadata %"class.std::__1::unique_ptr"** %32, metadata !5065, metadata !DIExpression()), !dbg !5438
  %33 = alloca %"struct.std::__1::__compressed_pair_elem.0"*, align 8
  call void @llvm.dbg.declare(metadata %"struct.std::__1::__compressed_pair_elem.0"** %33, metadata !4948, metadata !DIExpression()), !dbg !5439
  %34 = alloca %"class.std::__1::__compressed_pair"*, align 8
  call void @llvm.dbg.declare(metadata %"class.std::__1::__compressed_pair"** %34, metadata !4961, metadata !DIExpression()), !dbg !5445
  %35 = alloca %"struct.std::__1::__compressed_pair_elem"*, align 8
  call void @llvm.dbg.declare(metadata %"struct.std::__1::__compressed_pair_elem"** %35, metadata !5041, metadata !DIExpression()), !dbg !5446
  %36 = alloca %"class.std::__1::__compressed_pair"*, align 8
  call void @llvm.dbg.declare(metadata %"class.std::__1::__compressed_pair"** %36, metadata !5049, metadata !DIExpression()), !dbg !5449
  %37 = alloca %"struct.std::__1::default_delete"*, align 8
  call void @llvm.dbg.declare(metadata %"struct.std::__1::default_delete"** %37, metadata !5083, metadata !DIExpression()), !dbg !5450
  %38 = alloca %"struct.altered_carbon::js::ACLexPosition"*, align 8
  call void @llvm.dbg.declare(metadata %"struct.altered_carbon::js::ACLexPosition"** %38, metadata !5088, metadata !DIExpression()), !dbg !5452
  %39 = alloca %"struct.std::__1::__compressed_pair_elem"*, align 8
  call void @llvm.dbg.declare(metadata %"struct.std::__1::__compressed_pair_elem"** %39, metadata !5041, metadata !DIExpression()), !dbg !5453
  %40 = alloca %"class.std::__1::__compressed_pair"*, align 8
  call void @llvm.dbg.declare(metadata %"class.std::__1::__compressed_pair"** %40, metadata !5049, metadata !DIExpression()), !dbg !5456
  %41 = alloca %"class.std::__1::unique_ptr"*, align 8
  call void @llvm.dbg.declare(metadata %"class.std::__1::unique_ptr"** %41, metadata !5094, metadata !DIExpression()), !dbg !5457
  %42 = alloca %"struct.altered_carbon::js::ACLexPosition"*, align 8
  call void @llvm.dbg.declare(metadata %"struct.altered_carbon::js::ACLexPosition"** %42, metadata !5096, metadata !DIExpression()), !dbg !5458
  %43 = alloca %"struct.altered_carbon::js::ACLexPosition"*, align 8
  call void @llvm.dbg.declare(metadata %"struct.altered_carbon::js::ACLexPosition"** %43, metadata !5098, metadata !DIExpression()), !dbg !5459
  %44 = alloca %"class.std::__1::unique_ptr"*, align 8
  call void @llvm.dbg.declare(metadata %"class.std::__1::unique_ptr"** %44, metadata !5100, metadata !DIExpression()), !dbg !5460
  %45 = alloca %"class.std::__1::unique_ptr"*, align 8
  call void @llvm.dbg.declare(metadata %"class.std::__1::unique_ptr"** %45, metadata !5102, metadata !DIExpression()), !dbg !5461
  %46 = alloca %"struct.std::__1::__compressed_pair_elem.11"*, align 8
  call void @llvm.dbg.declare(metadata %"struct.std::__1::__compressed_pair_elem.11"** %46, metadata !5115, metadata !DIExpression()), !dbg !5462
  %47 = alloca %"class.std::__1::__compressed_pair.10"*, align 8
  call void @llvm.dbg.declare(metadata %"class.std::__1::__compressed_pair.10"** %47, metadata !5129, metadata !DIExpression()), !dbg !5468
  %48 = alloca %"class.std::__1::basic_string"*, align 8
  call void @llvm.dbg.declare(metadata %"class.std::__1::basic_string"** %48, metadata !5132, metadata !DIExpression()), !dbg !5469
  %49 = alloca [3 x i64]*, align 8
  call void @llvm.dbg.declare(metadata [3 x i64]** %49, metadata !5135, metadata !DIExpression()), !dbg !5470
  %50 = alloca i32, align 4
  call void @llvm.dbg.declare(metadata i32* %50, metadata !5138, metadata !DIExpression()), !dbg !5471
  %51 = alloca %"class.std::__1::allocator.14"*, align 8
  call void @llvm.dbg.declare(metadata %"class.std::__1::allocator.14"** %51, metadata !5173, metadata !DIExpression()), !dbg !5472
  %52 = alloca %"struct.std::__1::__compressed_pair_elem.13"*, align 8
  call void @llvm.dbg.declare(metadata %"struct.std::__1::__compressed_pair_elem.13"** %52, metadata !5189, metadata !DIExpression()), !dbg !5477
  %53 = alloca %"struct.std::__1::__compressed_pair_elem.11"*, align 8
  call void @llvm.dbg.declare(metadata %"struct.std::__1::__compressed_pair_elem.11"** %53, metadata !5192, metadata !DIExpression()), !dbg !5478
  %54 = alloca %"class.std::__1::__compressed_pair.10"*, align 8
  call void @llvm.dbg.declare(metadata %"class.std::__1::__compressed_pair.10"** %54, metadata !5196, metadata !DIExpression()), !dbg !5480
  %55 = alloca %"class.std::__1::__compressed_pair.10"*, align 8
  call void @llvm.dbg.declare(metadata %"class.std::__1::__compressed_pair.10"** %55, metadata !5198, metadata !DIExpression()), !dbg !5481
  %56 = alloca %"class.std::__1::basic_string"*, align 8
  call void @llvm.dbg.declare(metadata %"class.std::__1::basic_string"** %56, metadata !5200, metadata !DIExpression()), !dbg !5482
  %57 = alloca %"class.std::__1::basic_string"*, align 8
  call void @llvm.dbg.declare(metadata %"class.std::__1::basic_string"** %57, metadata !5202, metadata !DIExpression()), !dbg !5483
  %58 = alloca %"struct.std::__1::__compressed_pair_elem.11"*, align 8
  call void @llvm.dbg.declare(metadata %"struct.std::__1::__compressed_pair_elem.11"** %58, metadata !5115, metadata !DIExpression()), !dbg !5484
  %59 = alloca %"class.std::__1::__compressed_pair.10"*, align 8
  call void @llvm.dbg.declare(metadata %"class.std::__1::__compressed_pair.10"** %59, metadata !5129, metadata !DIExpression()), !dbg !5490
  %60 = alloca %"class.std::__1::basic_string"*, align 8
  call void @llvm.dbg.declare(metadata %"class.std::__1::basic_string"** %60, metadata !5132, metadata !DIExpression()), !dbg !5491
  %61 = alloca [3 x i64]*, align 8
  call void @llvm.dbg.declare(metadata [3 x i64]** %61, metadata !5135, metadata !DIExpression()), !dbg !5492
  %62 = alloca i32, align 4
  call void @llvm.dbg.declare(metadata i32* %62, metadata !5138, metadata !DIExpression()), !dbg !5493
  %63 = alloca %"class.std::__1::allocator.14"*, align 8
  call void @llvm.dbg.declare(metadata %"class.std::__1::allocator.14"** %63, metadata !5173, metadata !DIExpression()), !dbg !5494
  %64 = alloca %"struct.std::__1::__compressed_pair_elem.13"*, align 8
  call void @llvm.dbg.declare(metadata %"struct.std::__1::__compressed_pair_elem.13"** %64, metadata !5189, metadata !DIExpression()), !dbg !5499
  %65 = alloca %"struct.std::__1::__compressed_pair_elem.11"*, align 8
  call void @llvm.dbg.declare(metadata %"struct.std::__1::__compressed_pair_elem.11"** %65, metadata !5192, metadata !DIExpression()), !dbg !5500
  %66 = alloca %"class.std::__1::__compressed_pair.10"*, align 8
  call void @llvm.dbg.declare(metadata %"class.std::__1::__compressed_pair.10"** %66, metadata !5196, metadata !DIExpression()), !dbg !5502
  %67 = alloca %"class.std::__1::__compressed_pair.10"*, align 8
  call void @llvm.dbg.declare(metadata %"class.std::__1::__compressed_pair.10"** %67, metadata !5198, metadata !DIExpression()), !dbg !5503
  %68 = alloca %"class.std::__1::basic_string"*, align 8
  call void @llvm.dbg.declare(metadata %"class.std::__1::basic_string"** %68, metadata !5200, metadata !DIExpression()), !dbg !5504
  %69 = alloca %"class.std::__1::basic_string"*, align 8
  call void @llvm.dbg.declare(metadata %"class.std::__1::basic_string"** %69, metadata !5202, metadata !DIExpression()), !dbg !5505
  %70 = alloca %"class.altered_carbon::js::ACLexRegex"**, align 8
  call void @llvm.dbg.declare(metadata %"class.altered_carbon::js::ACLexRegex"*** %70, metadata !5204, metadata !DIExpression()), !dbg !5506
  %71 = alloca %"struct.std::__1::__compressed_pair_elem.19"*, align 8
  call void @llvm.dbg.declare(metadata %"struct.std::__1::__compressed_pair_elem.19"** %71, metadata !5235, metadata !DIExpression()), !dbg !5513
  %72 = alloca %"class.altered_carbon::js::ACLexRegex"**, align 8
  call void @llvm.dbg.declare(metadata %"class.altered_carbon::js::ACLexRegex"*** %72, metadata !5238, metadata !DIExpression()), !dbg !5514
  %73 = alloca %"class.altered_carbon::js::ACLexRegex"**, align 8
  call void @llvm.dbg.declare(metadata %"class.altered_carbon::js::ACLexRegex"*** %73, metadata !5204, metadata !DIExpression()), !dbg !5515
  %74 = alloca %"class.std::__1::__compressed_pair.18"*, align 8
  call void @llvm.dbg.declare(metadata %"class.std::__1::__compressed_pair.18"** %74, metadata !5242, metadata !DIExpression()), !dbg !5517
  %75 = alloca %"class.altered_carbon::js::ACLexRegex"**, align 8
  call void @llvm.dbg.declare(metadata %"class.altered_carbon::js::ACLexRegex"*** %75, metadata !5245, metadata !DIExpression()), !dbg !5518
  %76 = alloca %"class.std::__1::__compressed_pair.18"*, align 8
  call void @llvm.dbg.declare(metadata %"class.std::__1::__compressed_pair.18"** %76, metadata !5247, metadata !DIExpression()), !dbg !5519
  %77 = alloca %"class.altered_carbon::js::ACLexRegex"**, align 8
  call void @llvm.dbg.declare(metadata %"class.altered_carbon::js::ACLexRegex"*** %77, metadata !5249, metadata !DIExpression()), !dbg !5520
  %78 = alloca %"class.std::__1::unique_ptr.17"*, align 8
  call void @llvm.dbg.declare(metadata %"class.std::__1::unique_ptr.17"** %78, metadata !5251, metadata !DIExpression()), !dbg !5521
  %79 = alloca %"class.altered_carbon::js::ACLexRegex"*, align 8
  %80 = alloca %"class.std::__1::unique_ptr.17"*, align 8
  call void @llvm.dbg.declare(metadata %"class.std::__1::unique_ptr.17"** %80, metadata !5254, metadata !DIExpression()), !dbg !5522
  %81 = alloca %"class.std::__1::unique_ptr"*, align 8
  call void @llvm.dbg.declare(metadata %"class.std::__1::unique_ptr"** %81, metadata !5256, metadata !DIExpression()), !dbg !5523
  %82 = alloca %"class.altered_carbon::js::ACAstVariantNode"*, align 8
  %83 = alloca i8, align 1
  %84 = alloca %"class.std::__1::unique_ptr", align 8
  store %"class.altered_carbon::js::ACAstVariantNode"* %0, %"class.altered_carbon::js::ACAstVariantNode"** %82, align 8
  call void @llvm.dbg.declare(metadata %"class.altered_carbon::js::ACAstVariantNode"** %82, metadata !5525, metadata !DIExpression()), !dbg !5526
  call void @llvm.dbg.declare(metadata %"class.std::__1::unique_ptr"* %1, metadata !5527, metadata !DIExpression()), !dbg !5528
  %85 = zext i1 %2 to i8
  store i8 %85, i8* %83, align 1
  call void @llvm.dbg.declare(metadata i8* %83, metadata !5529, metadata !DIExpression()), !dbg !5530
  %86 = load %"class.altered_carbon::js::ACAstVariantNode"*, %"class.altered_carbon::js::ACAstVariantNode"** %82, align 8
  %87 = bitcast %"class.altered_carbon::js::ACAstVariantNode"* %86 to %"class.altered_carbon::js::ACAstBaseNode"*, !dbg !5531
  store %"class.std::__1::unique_ptr"* %1, %"class.std::__1::unique_ptr"** %81, align 8
  %88 = load %"class.std::__1::unique_ptr"*, %"class.std::__1::unique_ptr"** %81, align 8, !dbg !5532
  store %"class.std::__1::unique_ptr"* %84, %"class.std::__1::unique_ptr"** %31, align 8
  store %"class.std::__1::unique_ptr"* %88, %"class.std::__1::unique_ptr"** %32, align 8
  %89 = load %"class.std::__1::unique_ptr"*, %"class.std::__1::unique_ptr"** %31, align 8
  %90 = load %"class.std::__1::unique_ptr"*, %"class.std::__1::unique_ptr"** %32, align 8, !dbg !5533
  store %"class.std::__1::unique_ptr"* %89, %"class.std::__1::unique_ptr"** %28, align 8
  store %"class.std::__1::unique_ptr"* %90, %"class.std::__1::unique_ptr"** %29, align 8
  %91 = load %"class.std::__1::unique_ptr"*, %"class.std::__1::unique_ptr"** %28, align 8
  %92 = getelementptr inbounds %"class.std::__1::unique_ptr", %"class.std::__1::unique_ptr"* %91, i32 0, i32 0, !dbg !5534
  %93 = load %"class.std::__1::unique_ptr"*, %"class.std::__1::unique_ptr"** %29, align 8, !dbg !5535
  store %"class.std::__1::unique_ptr"* %93, %"class.std::__1::unique_ptr"** %26, align 8
  %94 = load %"class.std::__1::unique_ptr"*, %"class.std::__1::unique_ptr"** %26, align 8
  %95 = getelementptr inbounds %"class.std::__1::unique_ptr", %"class.std::__1::unique_ptr"* %94, i32 0, i32 0, !dbg !5536
  store %"class.std::__1::__compressed_pair"* %95, %"class.std::__1::__compressed_pair"** %25, align 8
  %96 = load %"class.std::__1::__compressed_pair"*, %"class.std::__1::__compressed_pair"** %25, align 8
  %97 = bitcast %"class.std::__1::__compressed_pair"* %96 to %"struct.std::__1::__compressed_pair_elem"*, !dbg !5537
  store %"struct.std::__1::__compressed_pair_elem"* %97, %"struct.std::__1::__compressed_pair_elem"** %24, align 8
  %98 = load %"struct.std::__1::__compressed_pair_elem"*, %"struct.std::__1::__compressed_pair_elem"** %24, align 8
  %99 = getelementptr inbounds %"struct.std::__1::__compressed_pair_elem", %"struct.std::__1::__compressed_pair_elem"* %98, i32 0, i32 0, !dbg !5538
  %100 = load %"struct.altered_carbon::js::ACLexPosition"*, %"struct.altered_carbon::js::ACLexPosition"** %99, align 8, !dbg !5539
  store %"struct.altered_carbon::js::ACLexPosition"* %100, %"struct.altered_carbon::js::ACLexPosition"** %27, align 8, !dbg !5434
  %101 = getelementptr inbounds %"class.std::__1::unique_ptr", %"class.std::__1::unique_ptr"* %94, i32 0, i32 0, !dbg !5540
  store %"class.std::__1::__compressed_pair"* %101, %"class.std::__1::__compressed_pair"** %23, align 8
  %102 = load %"class.std::__1::__compressed_pair"*, %"class.std::__1::__compressed_pair"** %23, align 8
  %103 = bitcast %"class.std::__1::__compressed_pair"* %102 to %"struct.std::__1::__compressed_pair_elem"*, !dbg !5541
  store %"struct.std::__1::__compressed_pair_elem"* %103, %"struct.std::__1::__compressed_pair_elem"** %22, align 8
  %104 = load %"struct.std::__1::__compressed_pair_elem"*, %"struct.std::__1::__compressed_pair_elem"** %22, align 8
  %105 = getelementptr inbounds %"struct.std::__1::__compressed_pair_elem", %"struct.std::__1::__compressed_pair_elem"* %104, i32 0, i32 0, !dbg !5542
  store %"struct.altered_carbon::js::ACLexPosition"* null, %"struct.altered_carbon::js::ACLexPosition"** %105, align 8, !dbg !5543
  %106 = load %"struct.altered_carbon::js::ACLexPosition"*, %"struct.altered_carbon::js::ACLexPosition"** %27, align 8, !dbg !5544
  store %"struct.altered_carbon::js::ACLexPosition"* %106, %"struct.altered_carbon::js::ACLexPosition"** %30, align 8, !dbg !5535
  %107 = load %"class.std::__1::unique_ptr"*, %"class.std::__1::unique_ptr"** %29, align 8, !dbg !5545
  store %"class.std::__1::unique_ptr"* %107, %"class.std::__1::unique_ptr"** %6, align 8
  %108 = load %"class.std::__1::unique_ptr"*, %"class.std::__1::unique_ptr"** %6, align 8
  %109 = getelementptr inbounds %"class.std::__1::unique_ptr", %"class.std::__1::unique_ptr"* %108, i32 0, i32 0, !dbg !5546
  store %"class.std::__1::__compressed_pair"* %109, %"class.std::__1::__compressed_pair"** %5, align 8
  %110 = load %"class.std::__1::__compressed_pair"*, %"class.std::__1::__compressed_pair"** %5, align 8
  %111 = bitcast %"class.std::__1::__compressed_pair"* %110 to %"struct.std::__1::__compressed_pair_elem.0"*, !dbg !5547
  store %"struct.std::__1::__compressed_pair_elem.0"* %111, %"struct.std::__1::__compressed_pair_elem.0"** %4, align 8
  %112 = load %"struct.std::__1::__compressed_pair_elem.0"*, %"struct.std::__1::__compressed_pair_elem.0"** %4, align 8
  %113 = bitcast %"struct.std::__1::__compressed_pair_elem.0"* %112 to %"struct.std::__1::default_delete"*, !dbg !5548
  store %"struct.std::__1::default_delete"* %113, %"struct.std::__1::default_delete"** %7, align 8
  %114 = load %"struct.std::__1::default_delete"*, %"struct.std::__1::default_delete"** %7, align 8, !dbg !5549
  store %"class.std::__1::__compressed_pair"* %92, %"class.std::__1::__compressed_pair"** %19, align 8
  store %"struct.altered_carbon::js::ACLexPosition"** %30, %"struct.altered_carbon::js::ACLexPosition"*** %20, align 8
  store %"struct.std::__1::default_delete"* %114, %"struct.std::__1::default_delete"** %21, align 8
  %115 = load %"class.std::__1::__compressed_pair"*, %"class.std::__1::__compressed_pair"** %19, align 8
  %116 = load %"struct.altered_carbon::js::ACLexPosition"**, %"struct.altered_carbon::js::ACLexPosition"*** %20, align 8, !dbg !5550
  %117 = load %"struct.std::__1::default_delete"*, %"struct.std::__1::default_delete"** %21, align 8, !dbg !5550
  store %"class.std::__1::__compressed_pair"* %115, %"class.std::__1::__compressed_pair"** %16, align 8
  store %"struct.altered_carbon::js::ACLexPosition"** %116, %"struct.altered_carbon::js::ACLexPosition"*** %17, align 8
  store %"struct.std::__1::default_delete"* %117, %"struct.std::__1::default_delete"** %18, align 8
  %118 = load %"class.std::__1::__compressed_pair"*, %"class.std::__1::__compressed_pair"** %16, align 8
  %119 = bitcast %"class.std::__1::__compressed_pair"* %118 to %"struct.std::__1::__compressed_pair_elem"*, !dbg !5551
  %120 = load %"struct.altered_carbon::js::ACLexPosition"**, %"struct.altered_carbon::js::ACLexPosition"*** %17, align 8, !dbg !5552
  store %"struct.altered_carbon::js::ACLexPosition"** %120, %"struct.altered_carbon::js::ACLexPosition"*** %15, align 8
  %121 = load %"struct.altered_carbon::js::ACLexPosition"**, %"struct.altered_carbon::js::ACLexPosition"*** %15, align 8, !dbg !5553
  store %"struct.std::__1::__compressed_pair_elem"* %119, %"struct.std::__1::__compressed_pair_elem"** %9, align 8
  store %"struct.altered_carbon::js::ACLexPosition"** %121, %"struct.altered_carbon::js::ACLexPosition"*** %10, align 8
  %122 = load %"struct.std::__1::__compressed_pair_elem"*, %"struct.std::__1::__compressed_pair_elem"** %9, align 8
  %123 = getelementptr inbounds %"struct.std::__1::__compressed_pair_elem", %"struct.std::__1::__compressed_pair_elem"* %122, i32 0, i32 0, !dbg !5554
  %124 = load %"struct.altered_carbon::js::ACLexPosition"**, %"struct.altered_carbon::js::ACLexPosition"*** %10, align 8, !dbg !5555
  store %"struct.altered_carbon::js::ACLexPosition"** %124, %"struct.altered_carbon::js::ACLexPosition"*** %8, align 8
  %125 = load %"struct.altered_carbon::js::ACLexPosition"**, %"struct.altered_carbon::js::ACLexPosition"*** %8, align 8, !dbg !5556
  %126 = load %"struct.altered_carbon::js::ACLexPosition"*, %"struct.altered_carbon::js::ACLexPosition"** %125, align 8, !dbg !5557
  store %"struct.altered_carbon::js::ACLexPosition"* %126, %"struct.altered_carbon::js::ACLexPosition"** %123, align 8, !dbg !5554
  %127 = bitcast %"class.std::__1::__compressed_pair"* %118 to %"struct.std::__1::__compressed_pair_elem.0"*, !dbg !5551
  %128 = load %"struct.std::__1::default_delete"*, %"struct.std::__1::default_delete"** %18, align 8, !dbg !5558
  store %"struct.std::__1::default_delete"* %128, %"struct.std::__1::default_delete"** %11, align 8
  %129 = load %"struct.std::__1::default_delete"*, %"struct.std::__1::default_delete"** %11, align 8, !dbg !5559
  store %"struct.std::__1::__compressed_pair_elem.0"* %127, %"struct.std::__1::__compressed_pair_elem.0"** %13, align 8
  store %"struct.std::__1::default_delete"* %129, %"struct.std::__1::default_delete"** %14, align 8
  %130 = load %"struct.std::__1::__compressed_pair_elem.0"*, %"struct.std::__1::__compressed_pair_elem.0"** %13, align 8
  %131 = bitcast %"struct.std::__1::__compressed_pair_elem.0"* %130 to %"struct.std::__1::default_delete"*, !dbg !5560
  %132 = load %"struct.std::__1::default_delete"*, %"struct.std::__1::default_delete"** %14, align 8, !dbg !5561
  store %"struct.std::__1::default_delete"* %132, %"struct.std::__1::default_delete"** %12, align 8
  %133 = load %"struct.std::__1::default_delete"*, %"struct.std::__1::default_delete"** %12, align 8, !dbg !5562
  call void @_ZN14altered_carbon2js13ACAstBaseNodeC2ENSt3__110unique_ptrINS0_13ACLexPositionENS2_14default_deleteIS4_EEEENS1_11AstNodeTypeENS1_14AstNodeSubTypeE(%"class.altered_carbon::js::ACAstBaseNode"* %87, %"class.std::__1::unique_ptr"* %84, i32 6, i32 603), !dbg !5563
  store %"class.std::__1::unique_ptr"* %84, %"class.std::__1::unique_ptr"** %45, align 8
  %134 = load %"class.std::__1::unique_ptr"*, %"class.std::__1::unique_ptr"** %45, align 8
  store %"class.std::__1::unique_ptr"* %134, %"class.std::__1::unique_ptr"** %44, align 8
  %135 = load %"class.std::__1::unique_ptr"*, %"class.std::__1::unique_ptr"** %44, align 8
  store %"class.std::__1::unique_ptr"* %135, %"class.std::__1::unique_ptr"** %41, align 8
  store %"struct.altered_carbon::js::ACLexPosition"* null, %"struct.altered_carbon::js::ACLexPosition"** %42, align 8
  %136 = load %"class.std::__1::unique_ptr"*, %"class.std::__1::unique_ptr"** %41, align 8
  %137 = getelementptr inbounds %"class.std::__1::unique_ptr", %"class.std::__1::unique_ptr"* %136, i32 0, i32 0, !dbg !5564
  store %"class.std::__1::__compressed_pair"* %137, %"class.std::__1::__compressed_pair"** %40, align 8
  %138 = load %"class.std::__1::__compressed_pair"*, %"class.std::__1::__compressed_pair"** %40, align 8
  %139 = bitcast %"class.std::__1::__compressed_pair"* %138 to %"struct.std::__1::__compressed_pair_elem"*, !dbg !5565
  store %"struct.std::__1::__compressed_pair_elem"* %139, %"struct.std::__1::__compressed_pair_elem"** %39, align 8
  %140 = load %"struct.std::__1::__compressed_pair_elem"*, %"struct.std::__1::__compressed_pair_elem"** %39, align 8
  %141 = getelementptr inbounds %"struct.std::__1::__compressed_pair_elem", %"struct.std::__1::__compressed_pair_elem"* %140, i32 0, i32 0, !dbg !5566
  %142 = load %"struct.altered_carbon::js::ACLexPosition"*, %"struct.altered_carbon::js::ACLexPosition"** %141, align 8, !dbg !5567
  store %"struct.altered_carbon::js::ACLexPosition"* %142, %"struct.altered_carbon::js::ACLexPosition"** %43, align 8, !dbg !5459
  %143 = load %"struct.altered_carbon::js::ACLexPosition"*, %"struct.altered_carbon::js::ACLexPosition"** %42, align 8, !dbg !5568
  %144 = getelementptr inbounds %"class.std::__1::unique_ptr", %"class.std::__1::unique_ptr"* %136, i32 0, i32 0, !dbg !5569
  store %"class.std::__1::__compressed_pair"* %144, %"class.std::__1::__compressed_pair"** %36, align 8
  %145 = load %"class.std::__1::__compressed_pair"*, %"class.std::__1::__compressed_pair"** %36, align 8
  %146 = bitcast %"class.std::__1::__compressed_pair"* %145 to %"struct.std::__1::__compressed_pair_elem"*, !dbg !5570
  store %"struct.std::__1::__compressed_pair_elem"* %146, %"struct.std::__1::__compressed_pair_elem"** %35, align 8
  %147 = load %"struct.std::__1::__compressed_pair_elem"*, %"struct.std::__1::__compressed_pair_elem"** %35, align 8
  %148 = getelementptr inbounds %"struct.std::__1::__compressed_pair_elem", %"struct.std::__1::__compressed_pair_elem"* %147, i32 0, i32 0, !dbg !5571
  store %"struct.altered_carbon::js::ACLexPosition"* %143, %"struct.altered_carbon::js::ACLexPosition"** %148, align 8, !dbg !5572
  %149 = load %"struct.altered_carbon::js::ACLexPosition"*, %"struct.altered_carbon::js::ACLexPosition"** %43, align 8, !dbg !5573
  %150 = icmp ne %"struct.altered_carbon::js::ACLexPosition"* %149, null, !dbg !5573
  br i1 %150, label %151, label %167, !dbg !5574

; <label>:151:                                    ; preds = %3
  %152 = getelementptr inbounds %"class.std::__1::unique_ptr", %"class.std::__1::unique_ptr"* %136, i32 0, i32 0, !dbg !5575
  store %"class.std::__1::__compressed_pair"* %152, %"class.std::__1::__compressed_pair"** %34, align 8
  %153 = load %"class.std::__1::__compressed_pair"*, %"class.std::__1::__compressed_pair"** %34, align 8
  %154 = bitcast %"class.std::__1::__compressed_pair"* %153 to %"struct.std::__1::__compressed_pair_elem.0"*, !dbg !5576
  store %"struct.std::__1::__compressed_pair_elem.0"* %154, %"struct.std::__1::__compressed_pair_elem.0"** %33, align 8
  %155 = load %"struct.std::__1::__compressed_pair_elem.0"*, %"struct.std::__1::__compressed_pair_elem.0"** %33, align 8
  %156 = bitcast %"struct.std::__1::__compressed_pair_elem.0"* %155 to %"struct.std::__1::default_delete"*, !dbg !5577
  %157 = load %"struct.altered_carbon::js::ACLexPosition"*, %"struct.altered_carbon::js::ACLexPosition"** %43, align 8, !dbg !5578
  store %"struct.std::__1::default_delete"* %156, %"struct.std::__1::default_delete"** %37, align 8
  store %"struct.altered_carbon::js::ACLexPosition"* %157, %"struct.altered_carbon::js::ACLexPosition"** %38, align 8
  %158 = load %"struct.std::__1::default_delete"*, %"struct.std::__1::default_delete"** %37, align 8
  %159 = load %"struct.altered_carbon::js::ACLexPosition"*, %"struct.altered_carbon::js::ACLexPosition"** %38, align 8, !dbg !5579
  %160 = icmp eq %"struct.altered_carbon::js::ACLexPosition"* %159, null, !dbg !5580
  br i1 %160, label %166, label %161, !dbg !5580

; <label>:161:                                    ; preds = %151
  %162 = bitcast %"struct.altered_carbon::js::ACLexPosition"* %159 to void (%"struct.altered_carbon::js::ACLexPosition"*)***, !dbg !5580
  %163 = load void (%"struct.altered_carbon::js::ACLexPosition"*)**, void (%"struct.altered_carbon::js::ACLexPosition"*)*** %162, align 8, !dbg !5580
  %164 = getelementptr inbounds void (%"struct.altered_carbon::js::ACLexPosition"*)*, void (%"struct.altered_carbon::js::ACLexPosition"*)** %163, i64 1, !dbg !5580
  %165 = load void (%"struct.altered_carbon::js::ACLexPosition"*)*, void (%"struct.altered_carbon::js::ACLexPosition"*)** %164, align 8, !dbg !5580
  call void %165(%"struct.altered_carbon::js::ACLexPosition"* %159) #2, !dbg !5580
  br label %166, !dbg !5580

; <label>:166:                                    ; preds = %161, %151
  br label %167, !dbg !5575

; <label>:167:                                    ; preds = %3, %166
  %168 = bitcast %"class.altered_carbon::js::ACAstVariantNode"* %86 to i32 (...)***, !dbg !5531
  store i32 (...)** bitcast (i8** getelementptr inbounds ({ [14 x i8*] }, { [14 x i8*] }* @_ZTVN14altered_carbon2js16ACAstVariantNodeE, i32 0, inrange i32 0, i32 2) to i32 (...)**), i32 (...)*** %168, align 8, !dbg !5531
  %169 = getelementptr inbounds %"class.altered_carbon::js::ACAstVariantNode", %"class.altered_carbon::js::ACAstVariantNode"* %86, i32 0, i32 1, !dbg !5581
  store %"class.std::__1::basic_string"* %169, %"class.std::__1::basic_string"** %57, align 8
  %170 = load %"class.std::__1::basic_string"*, %"class.std::__1::basic_string"** %57, align 8
  store %"class.std::__1::basic_string"* %170, %"class.std::__1::basic_string"** %56, align 8
  %171 = load %"class.std::__1::basic_string"*, %"class.std::__1::basic_string"** %56, align 8
  %172 = bitcast %"class.std::__1::basic_string"* %171 to %"class.std::__1::__basic_string_common"*, !dbg !5582
  %173 = getelementptr inbounds %"class.std::__1::basic_string", %"class.std::__1::basic_string"* %171, i32 0, i32 0, !dbg !5583
  store %"class.std::__1::__compressed_pair.10"* %173, %"class.std::__1::__compressed_pair.10"** %55, align 8
  %174 = load %"class.std::__1::__compressed_pair.10"*, %"class.std::__1::__compressed_pair.10"** %55, align 8
  store %"class.std::__1::__compressed_pair.10"* %174, %"class.std::__1::__compressed_pair.10"** %54, align 8
  %175 = load %"class.std::__1::__compressed_pair.10"*, %"class.std::__1::__compressed_pair.10"** %54, align 8
  %176 = bitcast %"class.std::__1::__compressed_pair.10"* %175 to %"struct.std::__1::__compressed_pair_elem.11"*, !dbg !5584
  store %"struct.std::__1::__compressed_pair_elem.11"* %176, %"struct.std::__1::__compressed_pair_elem.11"** %53, align 8
  %177 = load %"struct.std::__1::__compressed_pair_elem.11"*, %"struct.std::__1::__compressed_pair_elem.11"** %53, align 8
  %178 = getelementptr inbounds %"struct.std::__1::__compressed_pair_elem.11", %"struct.std::__1::__compressed_pair_elem.11"* %177, i32 0, i32 0, !dbg !5585
  %179 = bitcast %"struct.std::__1::basic_string<wchar_t, std::__1::char_traits<wchar_t>, std::__1::allocator<wchar_t> >::__rep"* %178 to i8*, !dbg !5585
  call void @llvm.memset.p0i8.i64(i8* align 8 %179, i8 0, i64 24, i1 false), !dbg !5585
  %180 = bitcast %"class.std::__1::__compressed_pair.10"* %175 to %"struct.std::__1::__compressed_pair_elem.13"*, !dbg !5584
  store %"struct.std::__1::__compressed_pair_elem.13"* %180, %"struct.std::__1::__compressed_pair_elem.13"** %52, align 8
  %181 = load %"struct.std::__1::__compressed_pair_elem.13"*, %"struct.std::__1::__compressed_pair_elem.13"** %52, align 8
  %182 = bitcast %"struct.std::__1::__compressed_pair_elem.13"* %181 to %"class.std::__1::allocator.14"*, !dbg !5586
  store %"class.std::__1::allocator.14"* %182, %"class.std::__1::allocator.14"** %51, align 8
  %183 = load %"class.std::__1::allocator.14"*, %"class.std::__1::allocator.14"** %51, align 8
  store %"class.std::__1::basic_string"* %171, %"class.std::__1::basic_string"** %48, align 8
  %184 = load %"class.std::__1::basic_string"*, %"class.std::__1::basic_string"** %48, align 8
  %185 = getelementptr inbounds %"class.std::__1::basic_string", %"class.std::__1::basic_string"* %184, i32 0, i32 0, !dbg !5587
  store %"class.std::__1::__compressed_pair.10"* %185, %"class.std::__1::__compressed_pair.10"** %47, align 8
  %186 = load %"class.std::__1::__compressed_pair.10"*, %"class.std::__1::__compressed_pair.10"** %47, align 8
  %187 = bitcast %"class.std::__1::__compressed_pair.10"* %186 to %"struct.std::__1::__compressed_pair_elem.11"*, !dbg !5588
  store %"struct.std::__1::__compressed_pair_elem.11"* %187, %"struct.std::__1::__compressed_pair_elem.11"** %46, align 8
  %188 = load %"struct.std::__1::__compressed_pair_elem.11"*, %"struct.std::__1::__compressed_pair_elem.11"** %46, align 8
  %189 = getelementptr inbounds %"struct.std::__1::__compressed_pair_elem.11", %"struct.std::__1::__compressed_pair_elem.11"* %188, i32 0, i32 0, !dbg !5589
  %190 = getelementptr inbounds %"struct.std::__1::basic_string<wchar_t, std::__1::char_traits<wchar_t>, std::__1::allocator<wchar_t> >::__rep", %"struct.std::__1::basic_string<wchar_t, std::__1::char_traits<wchar_t>, std::__1::allocator<wchar_t> >::__rep"* %189, i32 0, i32 0, !dbg !5590
  %191 = bitcast %union.anon* %190 to %"struct.std::__1::basic_string<wchar_t, std::__1::char_traits<wchar_t>, std::__1::allocator<wchar_t> >::__raw"*, !dbg !5590
  %192 = getelementptr inbounds %"struct.std::__1::basic_string<wchar_t, std::__1::char_traits<wchar_t>, std::__1::allocator<wchar_t> >::__raw", %"struct.std::__1::basic_string<wchar_t, std::__1::char_traits<wchar_t>, std::__1::allocator<wchar_t> >::__raw"* %191, i32 0, i32 0, !dbg !5591
  store [3 x i64]* %192, [3 x i64]** %49, align 8, !dbg !5470
  store i32 0, i32* %50, align 4, !dbg !5471
  br label %193, !dbg !5592

; <label>:193:                                    ; preds = %196, %167
  %194 = load i32, i32* %50, align 4, !dbg !5593
  %195 = icmp ult i32 %194, 3, !dbg !5594
  br i1 %195, label %196, label %203, !dbg !5595

; <label>:196:                                    ; preds = %193
  %197 = load [3 x i64]*, [3 x i64]** %49, align 8, !dbg !5596
  %198 = load i32, i32* %50, align 4, !dbg !5597
  %199 = zext i32 %198 to i64, !dbg !5596
  %200 = getelementptr inbounds [3 x i64], [3 x i64]* %197, i64 0, i64 %199, !dbg !5596
  store i64 0, i64* %200, align 8, !dbg !5598
  %201 = load i32, i32* %50, align 4, !dbg !5599
  %202 = add i32 %201, 1, !dbg !5599
  store i32 %202, i32* %50, align 4, !dbg !5599
  br label %193, !dbg !5600, !llvm.loop !5348

; <label>:203:                                    ; preds = %193
  %204 = getelementptr inbounds %"class.altered_carbon::js::ACAstVariantNode", %"class.altered_carbon::js::ACAstVariantNode"* %86, i32 0, i32 2, !dbg !5601
  %205 = load i8, i8* %83, align 1, !dbg !5602
  %206 = trunc i8 %205 to i1, !dbg !5602
  %207 = zext i1 %206 to i8, !dbg !5601
  store i8 %207, i8* %204, align 8, !dbg !5601
  %208 = getelementptr inbounds %"class.altered_carbon::js::ACAstVariantNode", %"class.altered_carbon::js::ACAstVariantNode"* %86, i32 0, i32 3, !dbg !5581
  call void @_ZN14altered_carbon2js11ACLexNumberC1Ev(%"class.altered_carbon::js::ACLexNumber"* %208), !dbg !5581
  %209 = getelementptr inbounds %"class.altered_carbon::js::ACAstVariantNode", %"class.altered_carbon::js::ACAstVariantNode"* %86, i32 0, i32 4, !dbg !5581
  store %"class.std::__1::basic_string"* %209, %"class.std::__1::basic_string"** %69, align 8
  %210 = load %"class.std::__1::basic_string"*, %"class.std::__1::basic_string"** %69, align 8
  store %"class.std::__1::basic_string"* %210, %"class.std::__1::basic_string"** %68, align 8
  %211 = load %"class.std::__1::basic_string"*, %"class.std::__1::basic_string"** %68, align 8
  %212 = bitcast %"class.std::__1::basic_string"* %211 to %"class.std::__1::__basic_string_common"*, !dbg !5603
  %213 = getelementptr inbounds %"class.std::__1::basic_string", %"class.std::__1::basic_string"* %211, i32 0, i32 0, !dbg !5604
  store %"class.std::__1::__compressed_pair.10"* %213, %"class.std::__1::__compressed_pair.10"** %67, align 8
  %214 = load %"class.std::__1::__compressed_pair.10"*, %"class.std::__1::__compressed_pair.10"** %67, align 8
  store %"class.std::__1::__compressed_pair.10"* %214, %"class.std::__1::__compressed_pair.10"** %66, align 8
  %215 = load %"class.std::__1::__compressed_pair.10"*, %"class.std::__1::__compressed_pair.10"** %66, align 8
  %216 = bitcast %"class.std::__1::__compressed_pair.10"* %215 to %"struct.std::__1::__compressed_pair_elem.11"*, !dbg !5605
  store %"struct.std::__1::__compressed_pair_elem.11"* %216, %"struct.std::__1::__compressed_pair_elem.11"** %65, align 8
  %217 = load %"struct.std::__1::__compressed_pair_elem.11"*, %"struct.std::__1::__compressed_pair_elem.11"** %65, align 8
  %218 = getelementptr inbounds %"struct.std::__1::__compressed_pair_elem.11", %"struct.std::__1::__compressed_pair_elem.11"* %217, i32 0, i32 0, !dbg !5606
  %219 = bitcast %"struct.std::__1::basic_string<wchar_t, std::__1::char_traits<wchar_t>, std::__1::allocator<wchar_t> >::__rep"* %218 to i8*, !dbg !5606
  call void @llvm.memset.p0i8.i64(i8* align 8 %219, i8 0, i64 24, i1 false), !dbg !5606
  %220 = bitcast %"class.std::__1::__compressed_pair.10"* %215 to %"struct.std::__1::__compressed_pair_elem.13"*, !dbg !5605
  store %"struct.std::__1::__compressed_pair_elem.13"* %220, %"struct.std::__1::__compressed_pair_elem.13"** %64, align 8
  %221 = load %"struct.std::__1::__compressed_pair_elem.13"*, %"struct.std::__1::__compressed_pair_elem.13"** %64, align 8
  %222 = bitcast %"struct.std::__1::__compressed_pair_elem.13"* %221 to %"class.std::__1::allocator.14"*, !dbg !5607
  store %"class.std::__1::allocator.14"* %222, %"class.std::__1::allocator.14"** %63, align 8
  %223 = load %"class.std::__1::allocator.14"*, %"class.std::__1::allocator.14"** %63, align 8
  store %"class.std::__1::basic_string"* %211, %"class.std::__1::basic_string"** %60, align 8
  %224 = load %"class.std::__1::basic_string"*, %"class.std::__1::basic_string"** %60, align 8
  %225 = getelementptr inbounds %"class.std::__1::basic_string", %"class.std::__1::basic_string"* %224, i32 0, i32 0, !dbg !5608
  store %"class.std::__1::__compressed_pair.10"* %225, %"class.std::__1::__compressed_pair.10"** %59, align 8
  %226 = load %"class.std::__1::__compressed_pair.10"*, %"class.std::__1::__compressed_pair.10"** %59, align 8
  %227 = bitcast %"class.std::__1::__compressed_pair.10"* %226 to %"struct.std::__1::__compressed_pair_elem.11"*, !dbg !5609
  store %"struct.std::__1::__compressed_pair_elem.11"* %227, %"struct.std::__1::__compressed_pair_elem.11"** %58, align 8
  %228 = load %"struct.std::__1::__compressed_pair_elem.11"*, %"struct.std::__1::__compressed_pair_elem.11"** %58, align 8
  %229 = getelementptr inbounds %"struct.std::__1::__compressed_pair_elem.11", %"struct.std::__1::__compressed_pair_elem.11"* %228, i32 0, i32 0, !dbg !5610
  %230 = getelementptr inbounds %"struct.std::__1::basic_string<wchar_t, std::__1::char_traits<wchar_t>, std::__1::allocator<wchar_t> >::__rep", %"struct.std::__1::basic_string<wchar_t, std::__1::char_traits<wchar_t>, std::__1::allocator<wchar_t> >::__rep"* %229, i32 0, i32 0, !dbg !5611
  %231 = bitcast %union.anon* %230 to %"struct.std::__1::basic_string<wchar_t, std::__1::char_traits<wchar_t>, std::__1::allocator<wchar_t> >::__raw"*, !dbg !5611
  %232 = getelementptr inbounds %"struct.std::__1::basic_string<wchar_t, std::__1::char_traits<wchar_t>, std::__1::allocator<wchar_t> >::__raw", %"struct.std::__1::basic_string<wchar_t, std::__1::char_traits<wchar_t>, std::__1::allocator<wchar_t> >::__raw"* %231, i32 0, i32 0, !dbg !5612
  store [3 x i64]* %232, [3 x i64]** %61, align 8, !dbg !5492
  store i32 0, i32* %62, align 4, !dbg !5493
  br label %233, !dbg !5613

; <label>:233:                                    ; preds = %236, %203
  %234 = load i32, i32* %62, align 4, !dbg !5614
  %235 = icmp ult i32 %234, 3, !dbg !5615
  br i1 %235, label %236, label %243, !dbg !5616

; <label>:236:                                    ; preds = %233
  %237 = load [3 x i64]*, [3 x i64]** %61, align 8, !dbg !5617
  %238 = load i32, i32* %62, align 4, !dbg !5618
  %239 = zext i32 %238 to i64, !dbg !5617
  %240 = getelementptr inbounds [3 x i64], [3 x i64]* %237, i64 0, i64 %239, !dbg !5617
  store i64 0, i64* %240, align 8, !dbg !5619
  %241 = load i32, i32* %62, align 4, !dbg !5620
  %242 = add i32 %241, 1, !dbg !5620
  store i32 %242, i32* %62, align 4, !dbg !5620
  br label %233, !dbg !5621, !llvm.loop !5348

; <label>:243:                                    ; preds = %233
  %244 = getelementptr inbounds %"class.altered_carbon::js::ACAstVariantNode", %"class.altered_carbon::js::ACAstVariantNode"* %86, i32 0, i32 6, !dbg !5581
  store %"class.std::__1::unique_ptr.17"* %244, %"class.std::__1::unique_ptr.17"** %80, align 8
  %245 = load %"class.std::__1::unique_ptr.17"*, %"class.std::__1::unique_ptr.17"** %80, align 8
  store %"class.std::__1::unique_ptr.17"* %245, %"class.std::__1::unique_ptr.17"** %78, align 8
  %246 = load %"class.std::__1::unique_ptr.17"*, %"class.std::__1::unique_ptr.17"** %78, align 8
  %247 = getelementptr inbounds %"class.std::__1::unique_ptr.17", %"class.std::__1::unique_ptr.17"* %246, i32 0, i32 0, !dbg !5622
  store %"class.altered_carbon::js::ACLexRegex"* null, %"class.altered_carbon::js::ACLexRegex"** %79, align 8, !dbg !5623
  store %"class.std::__1::__compressed_pair.18"* %247, %"class.std::__1::__compressed_pair.18"** %76, align 8
  store %"class.altered_carbon::js::ACLexRegex"** %79, %"class.altered_carbon::js::ACLexRegex"*** %77, align 8
  %248 = load %"class.std::__1::__compressed_pair.18"*, %"class.std::__1::__compressed_pair.18"** %76, align 8
  %249 = load %"class.altered_carbon::js::ACLexRegex"**, %"class.altered_carbon::js::ACLexRegex"*** %77, align 8, !dbg !5624
  store %"class.std::__1::__compressed_pair.18"* %248, %"class.std::__1::__compressed_pair.18"** %74, align 8
  store %"class.altered_carbon::js::ACLexRegex"** %249, %"class.altered_carbon::js::ACLexRegex"*** %75, align 8
  %250 = load %"class.std::__1::__compressed_pair.18"*, %"class.std::__1::__compressed_pair.18"** %74, align 8
  %251 = bitcast %"class.std::__1::__compressed_pair.18"* %250 to %"struct.std::__1::__compressed_pair_elem.19"*, !dbg !5625
  %252 = load %"class.altered_carbon::js::ACLexRegex"**, %"class.altered_carbon::js::ACLexRegex"*** %75, align 8, !dbg !5626
  store %"class.altered_carbon::js::ACLexRegex"** %252, %"class.altered_carbon::js::ACLexRegex"*** %73, align 8
  %253 = load %"class.altered_carbon::js::ACLexRegex"**, %"class.altered_carbon::js::ACLexRegex"*** %73, align 8, !dbg !5627
  store %"struct.std::__1::__compressed_pair_elem.19"* %251, %"struct.std::__1::__compressed_pair_elem.19"** %71, align 8
  store %"class.altered_carbon::js::ACLexRegex"** %253, %"class.altered_carbon::js::ACLexRegex"*** %72, align 8
  %254 = load %"struct.std::__1::__compressed_pair_elem.19"*, %"struct.std::__1::__compressed_pair_elem.19"** %71, align 8
  %255 = getelementptr inbounds %"struct.std::__1::__compressed_pair_elem.19", %"struct.std::__1::__compressed_pair_elem.19"* %254, i32 0, i32 0, !dbg !5628
  %256 = load %"class.altered_carbon::js::ACLexRegex"**, %"class.altered_carbon::js::ACLexRegex"*** %72, align 8, !dbg !5629
  store %"class.altered_carbon::js::ACLexRegex"** %256, %"class.altered_carbon::js::ACLexRegex"*** %70, align 8
  %257 = load %"class.altered_carbon::js::ACLexRegex"**, %"class.altered_carbon::js::ACLexRegex"*** %70, align 8, !dbg !5630
  %258 = load %"class.altered_carbon::js::ACLexRegex"*, %"class.altered_carbon::js::ACLexRegex"** %257, align 8, !dbg !5631
  store %"class.altered_carbon::js::ACLexRegex"* %258, %"class.altered_carbon::js::ACLexRegex"** %255, align 8, !dbg !5628
  %259 = bitcast %"class.std::__1::__compressed_pair.18"* %250 to %"struct.std::__1::__compressed_pair_elem.28"*, !dbg !5625
  ret void, !dbg !5632
}

; Function Attrs: noinline nounwind optnone ssp uwtable
define void @_ZN14altered_carbon2js16ACAstVariantNodeC1ENSt3__110unique_ptrINS0_13ACLexPositionENS2_14default_deleteIS4_EEEEb(%"class.altered_carbon::js::ACAstVariantNode"*, %"class.std::__1::unique_ptr"*, i1 zeroext) unnamed_addr #1 align 2 !dbg !5633 {
  %4 = alloca %"class.altered_carbon::js::ACAstVariantNode"*, align 8
  %5 = alloca i8, align 1
  store %"class.altered_carbon::js::ACAstVariantNode"* %0, %"class.altered_carbon::js::ACAstVariantNode"** %4, align 8
  call void @llvm.dbg.declare(metadata %"class.altered_carbon::js::ACAstVariantNode"** %4, metadata !5634, metadata !DIExpression()), !dbg !5635
  call void @llvm.dbg.declare(metadata %"class.std::__1::unique_ptr"* %1, metadata !5636, metadata !DIExpression()), !dbg !5637
  %6 = zext i1 %2 to i8
  store i8 %6, i8* %5, align 1
  call void @llvm.dbg.declare(metadata i8* %5, metadata !5638, metadata !DIExpression()), !dbg !5639
  %7 = load %"class.altered_carbon::js::ACAstVariantNode"*, %"class.altered_carbon::js::ACAstVariantNode"** %4, align 8
  %8 = load i8, i8* %5, align 1, !dbg !5640
  %9 = trunc i8 %8 to i1, !dbg !5640
  call void @_ZN14altered_carbon2js16ACAstVariantNodeC2ENSt3__110unique_ptrINS0_13ACLexPositionENS2_14default_deleteIS4_EEEEb(%"class.altered_carbon::js::ACAstVariantNode"* %7, %"class.std::__1::unique_ptr"* %1, i1 zeroext %9), !dbg !5640
  ret void, !dbg !5641
}

; Function Attrs: noinline nounwind optnone ssp uwtable
define void @_ZN14altered_carbon2js16ACAstVariantNodeC2ENSt3__110unique_ptrINS0_13ACLexPositionENS2_14default_deleteIS4_EEEENS0_11ACLexNumberE(%"class.altered_carbon::js::ACAstVariantNode"*, %"class.std::__1::unique_ptr"*, %"class.altered_carbon::js::ACLexNumber"*) unnamed_addr #1 align 2 !dbg !5642 {
  %4 = alloca %"struct.std::__1::__compressed_pair_elem.0"*, align 8
  call void @llvm.dbg.declare(metadata %"struct.std::__1::__compressed_pair_elem.0"** %4, metadata !4948, metadata !DIExpression()), !dbg !5643
  %5 = alloca %"class.std::__1::__compressed_pair"*, align 8
  call void @llvm.dbg.declare(metadata %"class.std::__1::__compressed_pair"** %5, metadata !4961, metadata !DIExpression()), !dbg !5649
  %6 = alloca %"class.std::__1::unique_ptr"*, align 8
  call void @llvm.dbg.declare(metadata %"class.std::__1::unique_ptr"** %6, metadata !4964, metadata !DIExpression()), !dbg !5650
  %7 = alloca %"struct.std::__1::default_delete"*, align 8
  call void @llvm.dbg.declare(metadata %"struct.std::__1::default_delete"** %7, metadata !4967, metadata !DIExpression()), !dbg !5651
  %8 = alloca %"struct.altered_carbon::js::ACLexPosition"**, align 8
  call void @llvm.dbg.declare(metadata %"struct.altered_carbon::js::ACLexPosition"*** %8, metadata !4978, metadata !DIExpression()), !dbg !5653
  %9 = alloca %"struct.std::__1::__compressed_pair_elem"*, align 8
  call void @llvm.dbg.declare(metadata %"struct.std::__1::__compressed_pair_elem"** %9, metadata !5007, metadata !DIExpression()), !dbg !5658
  %10 = alloca %"struct.altered_carbon::js::ACLexPosition"**, align 8
  call void @llvm.dbg.declare(metadata %"struct.altered_carbon::js::ACLexPosition"*** %10, metadata !5010, metadata !DIExpression()), !dbg !5659
  %11 = alloca %"struct.std::__1::default_delete"*, align 8
  call void @llvm.dbg.declare(metadata %"struct.std::__1::default_delete"** %11, metadata !4967, metadata !DIExpression()), !dbg !5660
  %12 = alloca %"struct.std::__1::default_delete"*, align 8
  call void @llvm.dbg.declare(metadata %"struct.std::__1::default_delete"** %12, metadata !4967, metadata !DIExpression()), !dbg !5662
  %13 = alloca %"struct.std::__1::__compressed_pair_elem.0"*, align 8
  call void @llvm.dbg.declare(metadata %"struct.std::__1::__compressed_pair_elem.0"** %13, metadata !5023, metadata !DIExpression()), !dbg !5665
  %14 = alloca %"struct.std::__1::default_delete"*, align 8
  call void @llvm.dbg.declare(metadata %"struct.std::__1::default_delete"** %14, metadata !5025, metadata !DIExpression()), !dbg !5666
  %15 = alloca %"struct.altered_carbon::js::ACLexPosition"**, align 8
  call void @llvm.dbg.declare(metadata %"struct.altered_carbon::js::ACLexPosition"*** %15, metadata !4978, metadata !DIExpression()), !dbg !5667
  %16 = alloca %"class.std::__1::__compressed_pair"*, align 8
  call void @llvm.dbg.declare(metadata %"class.std::__1::__compressed_pair"** %16, metadata !5029, metadata !DIExpression()), !dbg !5669
  %17 = alloca %"struct.altered_carbon::js::ACLexPosition"**, align 8
  call void @llvm.dbg.declare(metadata %"struct.altered_carbon::js::ACLexPosition"*** %17, metadata !5031, metadata !DIExpression()), !dbg !5670
  %18 = alloca %"struct.std::__1::default_delete"*, align 8
  call void @llvm.dbg.declare(metadata %"struct.std::__1::default_delete"** %18, metadata !5033, metadata !DIExpression()), !dbg !5671
  %19 = alloca %"class.std::__1::__compressed_pair"*, align 8
  call void @llvm.dbg.declare(metadata %"class.std::__1::__compressed_pair"** %19, metadata !5035, metadata !DIExpression()), !dbg !5672
  %20 = alloca %"struct.altered_carbon::js::ACLexPosition"**, align 8
  call void @llvm.dbg.declare(metadata %"struct.altered_carbon::js::ACLexPosition"*** %20, metadata !5037, metadata !DIExpression()), !dbg !5673
  %21 = alloca %"struct.std::__1::default_delete"*, align 8
  call void @llvm.dbg.declare(metadata %"struct.std::__1::default_delete"** %21, metadata !5039, metadata !DIExpression()), !dbg !5674
  %22 = alloca %"struct.std::__1::__compressed_pair_elem"*, align 8
  call void @llvm.dbg.declare(metadata %"struct.std::__1::__compressed_pair_elem"** %22, metadata !5041, metadata !DIExpression()), !dbg !5675
  %23 = alloca %"class.std::__1::__compressed_pair"*, align 8
  call void @llvm.dbg.declare(metadata %"class.std::__1::__compressed_pair"** %23, metadata !5049, metadata !DIExpression()), !dbg !5679
  %24 = alloca %"struct.std::__1::__compressed_pair_elem"*, align 8
  call void @llvm.dbg.declare(metadata %"struct.std::__1::__compressed_pair_elem"** %24, metadata !5041, metadata !DIExpression()), !dbg !5680
  %25 = alloca %"class.std::__1::__compressed_pair"*, align 8
  call void @llvm.dbg.declare(metadata %"class.std::__1::__compressed_pair"** %25, metadata !5049, metadata !DIExpression()), !dbg !5683
  %26 = alloca %"class.std::__1::unique_ptr"*, align 8
  call void @llvm.dbg.declare(metadata %"class.std::__1::unique_ptr"** %26, metadata !5055, metadata !DIExpression()), !dbg !5684
  %27 = alloca %"struct.altered_carbon::js::ACLexPosition"*, align 8
  call void @llvm.dbg.declare(metadata %"struct.altered_carbon::js::ACLexPosition"** %27, metadata !5057, metadata !DIExpression()), !dbg !5685
  %28 = alloca %"class.std::__1::unique_ptr"*, align 8
  call void @llvm.dbg.declare(metadata %"class.std::__1::unique_ptr"** %28, metadata !5059, metadata !DIExpression()), !dbg !5686
  %29 = alloca %"class.std::__1::unique_ptr"*, align 8
  call void @llvm.dbg.declare(metadata %"class.std::__1::unique_ptr"** %29, metadata !5061, metadata !DIExpression()), !dbg !5687
  %30 = alloca %"struct.altered_carbon::js::ACLexPosition"*, align 8
  %31 = alloca %"class.std::__1::unique_ptr"*, align 8
  call void @llvm.dbg.declare(metadata %"class.std::__1::unique_ptr"** %31, metadata !5063, metadata !DIExpression()), !dbg !5688
  %32 = alloca %"class.std::__1::unique_ptr"*, align 8
  call void @llvm.dbg.declare(metadata %"class.std::__1::unique_ptr"** %32, metadata !5065, metadata !DIExpression()), !dbg !5689
  %33 = alloca %"struct.std::__1::__compressed_pair_elem.0"*, align 8
  call void @llvm.dbg.declare(metadata %"struct.std::__1::__compressed_pair_elem.0"** %33, metadata !4948, metadata !DIExpression()), !dbg !5690
  %34 = alloca %"class.std::__1::__compressed_pair"*, align 8
  call void @llvm.dbg.declare(metadata %"class.std::__1::__compressed_pair"** %34, metadata !4961, metadata !DIExpression()), !dbg !5696
  %35 = alloca %"struct.std::__1::__compressed_pair_elem"*, align 8
  call void @llvm.dbg.declare(metadata %"struct.std::__1::__compressed_pair_elem"** %35, metadata !5041, metadata !DIExpression()), !dbg !5697
  %36 = alloca %"class.std::__1::__compressed_pair"*, align 8
  call void @llvm.dbg.declare(metadata %"class.std::__1::__compressed_pair"** %36, metadata !5049, metadata !DIExpression()), !dbg !5700
  %37 = alloca %"struct.std::__1::default_delete"*, align 8
  call void @llvm.dbg.declare(metadata %"struct.std::__1::default_delete"** %37, metadata !5083, metadata !DIExpression()), !dbg !5701
  %38 = alloca %"struct.altered_carbon::js::ACLexPosition"*, align 8
  call void @llvm.dbg.declare(metadata %"struct.altered_carbon::js::ACLexPosition"** %38, metadata !5088, metadata !DIExpression()), !dbg !5703
  %39 = alloca %"struct.std::__1::__compressed_pair_elem"*, align 8
  call void @llvm.dbg.declare(metadata %"struct.std::__1::__compressed_pair_elem"** %39, metadata !5041, metadata !DIExpression()), !dbg !5704
  %40 = alloca %"class.std::__1::__compressed_pair"*, align 8
  call void @llvm.dbg.declare(metadata %"class.std::__1::__compressed_pair"** %40, metadata !5049, metadata !DIExpression()), !dbg !5707
  %41 = alloca %"class.std::__1::unique_ptr"*, align 8
  call void @llvm.dbg.declare(metadata %"class.std::__1::unique_ptr"** %41, metadata !5094, metadata !DIExpression()), !dbg !5708
  %42 = alloca %"struct.altered_carbon::js::ACLexPosition"*, align 8
  call void @llvm.dbg.declare(metadata %"struct.altered_carbon::js::ACLexPosition"** %42, metadata !5096, metadata !DIExpression()), !dbg !5709
  %43 = alloca %"struct.altered_carbon::js::ACLexPosition"*, align 8
  call void @llvm.dbg.declare(metadata %"struct.altered_carbon::js::ACLexPosition"** %43, metadata !5098, metadata !DIExpression()), !dbg !5710
  %44 = alloca %"class.std::__1::unique_ptr"*, align 8
  call void @llvm.dbg.declare(metadata %"class.std::__1::unique_ptr"** %44, metadata !5100, metadata !DIExpression()), !dbg !5711
  %45 = alloca %"class.std::__1::unique_ptr"*, align 8
  call void @llvm.dbg.declare(metadata %"class.std::__1::unique_ptr"** %45, metadata !5102, metadata !DIExpression()), !dbg !5712
  %46 = alloca %"struct.std::__1::__compressed_pair_elem.11"*, align 8
  call void @llvm.dbg.declare(metadata %"struct.std::__1::__compressed_pair_elem.11"** %46, metadata !5115, metadata !DIExpression()), !dbg !5713
  %47 = alloca %"class.std::__1::__compressed_pair.10"*, align 8
  call void @llvm.dbg.declare(metadata %"class.std::__1::__compressed_pair.10"** %47, metadata !5129, metadata !DIExpression()), !dbg !5719
  %48 = alloca %"class.std::__1::basic_string"*, align 8
  call void @llvm.dbg.declare(metadata %"class.std::__1::basic_string"** %48, metadata !5132, metadata !DIExpression()), !dbg !5720
  %49 = alloca [3 x i64]*, align 8
  call void @llvm.dbg.declare(metadata [3 x i64]** %49, metadata !5135, metadata !DIExpression()), !dbg !5721
  %50 = alloca i32, align 4
  call void @llvm.dbg.declare(metadata i32* %50, metadata !5138, metadata !DIExpression()), !dbg !5722
  %51 = alloca %"class.std::__1::allocator.14"*, align 8
  call void @llvm.dbg.declare(metadata %"class.std::__1::allocator.14"** %51, metadata !5173, metadata !DIExpression()), !dbg !5723
  %52 = alloca %"struct.std::__1::__compressed_pair_elem.13"*, align 8
  call void @llvm.dbg.declare(metadata %"struct.std::__1::__compressed_pair_elem.13"** %52, metadata !5189, metadata !DIExpression()), !dbg !5728
  %53 = alloca %"struct.std::__1::__compressed_pair_elem.11"*, align 8
  call void @llvm.dbg.declare(metadata %"struct.std::__1::__compressed_pair_elem.11"** %53, metadata !5192, metadata !DIExpression()), !dbg !5729
  %54 = alloca %"class.std::__1::__compressed_pair.10"*, align 8
  call void @llvm.dbg.declare(metadata %"class.std::__1::__compressed_pair.10"** %54, metadata !5196, metadata !DIExpression()), !dbg !5731
  %55 = alloca %"class.std::__1::__compressed_pair.10"*, align 8
  call void @llvm.dbg.declare(metadata %"class.std::__1::__compressed_pair.10"** %55, metadata !5198, metadata !DIExpression()), !dbg !5732
  %56 = alloca %"class.std::__1::basic_string"*, align 8
  call void @llvm.dbg.declare(metadata %"class.std::__1::basic_string"** %56, metadata !5200, metadata !DIExpression()), !dbg !5733
  %57 = alloca %"class.std::__1::basic_string"*, align 8
  call void @llvm.dbg.declare(metadata %"class.std::__1::basic_string"** %57, metadata !5202, metadata !DIExpression()), !dbg !5734
  %58 = alloca %"struct.std::__1::__compressed_pair_elem.11"*, align 8
  call void @llvm.dbg.declare(metadata %"struct.std::__1::__compressed_pair_elem.11"** %58, metadata !5115, metadata !DIExpression()), !dbg !5735
  %59 = alloca %"class.std::__1::__compressed_pair.10"*, align 8
  call void @llvm.dbg.declare(metadata %"class.std::__1::__compressed_pair.10"** %59, metadata !5129, metadata !DIExpression()), !dbg !5741
  %60 = alloca %"class.std::__1::basic_string"*, align 8
  call void @llvm.dbg.declare(metadata %"class.std::__1::basic_string"** %60, metadata !5132, metadata !DIExpression()), !dbg !5742
  %61 = alloca [3 x i64]*, align 8
  call void @llvm.dbg.declare(metadata [3 x i64]** %61, metadata !5135, metadata !DIExpression()), !dbg !5743
  %62 = alloca i32, align 4
  call void @llvm.dbg.declare(metadata i32* %62, metadata !5138, metadata !DIExpression()), !dbg !5744
  %63 = alloca %"class.std::__1::allocator.14"*, align 8
  call void @llvm.dbg.declare(metadata %"class.std::__1::allocator.14"** %63, metadata !5173, metadata !DIExpression()), !dbg !5745
  %64 = alloca %"struct.std::__1::__compressed_pair_elem.13"*, align 8
  call void @llvm.dbg.declare(metadata %"struct.std::__1::__compressed_pair_elem.13"** %64, metadata !5189, metadata !DIExpression()), !dbg !5750
  %65 = alloca %"struct.std::__1::__compressed_pair_elem.11"*, align 8
  call void @llvm.dbg.declare(metadata %"struct.std::__1::__compressed_pair_elem.11"** %65, metadata !5192, metadata !DIExpression()), !dbg !5751
  %66 = alloca %"class.std::__1::__compressed_pair.10"*, align 8
  call void @llvm.dbg.declare(metadata %"class.std::__1::__compressed_pair.10"** %66, metadata !5196, metadata !DIExpression()), !dbg !5753
  %67 = alloca %"class.std::__1::__compressed_pair.10"*, align 8
  call void @llvm.dbg.declare(metadata %"class.std::__1::__compressed_pair.10"** %67, metadata !5198, metadata !DIExpression()), !dbg !5754
  %68 = alloca %"class.std::__1::basic_string"*, align 8
  call void @llvm.dbg.declare(metadata %"class.std::__1::basic_string"** %68, metadata !5200, metadata !DIExpression()), !dbg !5755
  %69 = alloca %"class.std::__1::basic_string"*, align 8
  call void @llvm.dbg.declare(metadata %"class.std::__1::basic_string"** %69, metadata !5202, metadata !DIExpression()), !dbg !5756
  %70 = alloca %"class.altered_carbon::js::ACLexRegex"**, align 8
  call void @llvm.dbg.declare(metadata %"class.altered_carbon::js::ACLexRegex"*** %70, metadata !5204, metadata !DIExpression()), !dbg !5757
  %71 = alloca %"struct.std::__1::__compressed_pair_elem.19"*, align 8
  call void @llvm.dbg.declare(metadata %"struct.std::__1::__compressed_pair_elem.19"** %71, metadata !5235, metadata !DIExpression()), !dbg !5764
  %72 = alloca %"class.altered_carbon::js::ACLexRegex"**, align 8
  call void @llvm.dbg.declare(metadata %"class.altered_carbon::js::ACLexRegex"*** %72, metadata !5238, metadata !DIExpression()), !dbg !5765
  %73 = alloca %"class.altered_carbon::js::ACLexRegex"**, align 8
  call void @llvm.dbg.declare(metadata %"class.altered_carbon::js::ACLexRegex"*** %73, metadata !5204, metadata !DIExpression()), !dbg !5766
  %74 = alloca %"class.std::__1::__compressed_pair.18"*, align 8
  call void @llvm.dbg.declare(metadata %"class.std::__1::__compressed_pair.18"** %74, metadata !5242, metadata !DIExpression()), !dbg !5768
  %75 = alloca %"class.altered_carbon::js::ACLexRegex"**, align 8
  call void @llvm.dbg.declare(metadata %"class.altered_carbon::js::ACLexRegex"*** %75, metadata !5245, metadata !DIExpression()), !dbg !5769
  %76 = alloca %"class.std::__1::__compressed_pair.18"*, align 8
  call void @llvm.dbg.declare(metadata %"class.std::__1::__compressed_pair.18"** %76, metadata !5247, metadata !DIExpression()), !dbg !5770
  %77 = alloca %"class.altered_carbon::js::ACLexRegex"**, align 8
  call void @llvm.dbg.declare(metadata %"class.altered_carbon::js::ACLexRegex"*** %77, metadata !5249, metadata !DIExpression()), !dbg !5771
  %78 = alloca %"class.std::__1::unique_ptr.17"*, align 8
  call void @llvm.dbg.declare(metadata %"class.std::__1::unique_ptr.17"** %78, metadata !5251, metadata !DIExpression()), !dbg !5772
  %79 = alloca %"class.altered_carbon::js::ACLexRegex"*, align 8
  %80 = alloca %"class.std::__1::unique_ptr.17"*, align 8
  call void @llvm.dbg.declare(metadata %"class.std::__1::unique_ptr.17"** %80, metadata !5254, metadata !DIExpression()), !dbg !5773
  %81 = alloca %"class.std::__1::unique_ptr"*, align 8
  call void @llvm.dbg.declare(metadata %"class.std::__1::unique_ptr"** %81, metadata !5256, metadata !DIExpression()), !dbg !5774
  %82 = alloca %"class.altered_carbon::js::ACAstVariantNode"*, align 8
  %83 = alloca %"class.std::__1::unique_ptr", align 8
  store %"class.altered_carbon::js::ACAstVariantNode"* %0, %"class.altered_carbon::js::ACAstVariantNode"** %82, align 8
  call void @llvm.dbg.declare(metadata %"class.altered_carbon::js::ACAstVariantNode"** %82, metadata !5776, metadata !DIExpression()), !dbg !5777
  call void @llvm.dbg.declare(metadata %"class.std::__1::unique_ptr"* %1, metadata !5778, metadata !DIExpression()), !dbg !5779
  call void @llvm.dbg.declare(metadata %"class.altered_carbon::js::ACLexNumber"* %2, metadata !5780, metadata !DIExpression()), !dbg !5781
  %84 = load %"class.altered_carbon::js::ACAstVariantNode"*, %"class.altered_carbon::js::ACAstVariantNode"** %82, align 8
  %85 = bitcast %"class.altered_carbon::js::ACAstVariantNode"* %84 to %"class.altered_carbon::js::ACAstBaseNode"*, !dbg !5782
  store %"class.std::__1::unique_ptr"* %1, %"class.std::__1::unique_ptr"** %81, align 8
  %86 = load %"class.std::__1::unique_ptr"*, %"class.std::__1::unique_ptr"** %81, align 8, !dbg !5783
  store %"class.std::__1::unique_ptr"* %83, %"class.std::__1::unique_ptr"** %31, align 8
  store %"class.std::__1::unique_ptr"* %86, %"class.std::__1::unique_ptr"** %32, align 8
  %87 = load %"class.std::__1::unique_ptr"*, %"class.std::__1::unique_ptr"** %31, align 8
  %88 = load %"class.std::__1::unique_ptr"*, %"class.std::__1::unique_ptr"** %32, align 8, !dbg !5784
  store %"class.std::__1::unique_ptr"* %87, %"class.std::__1::unique_ptr"** %28, align 8
  store %"class.std::__1::unique_ptr"* %88, %"class.std::__1::unique_ptr"** %29, align 8
  %89 = load %"class.std::__1::unique_ptr"*, %"class.std::__1::unique_ptr"** %28, align 8
  %90 = getelementptr inbounds %"class.std::__1::unique_ptr", %"class.std::__1::unique_ptr"* %89, i32 0, i32 0, !dbg !5785
  %91 = load %"class.std::__1::unique_ptr"*, %"class.std::__1::unique_ptr"** %29, align 8, !dbg !5786
  store %"class.std::__1::unique_ptr"* %91, %"class.std::__1::unique_ptr"** %26, align 8
  %92 = load %"class.std::__1::unique_ptr"*, %"class.std::__1::unique_ptr"** %26, align 8
  %93 = getelementptr inbounds %"class.std::__1::unique_ptr", %"class.std::__1::unique_ptr"* %92, i32 0, i32 0, !dbg !5787
  store %"class.std::__1::__compressed_pair"* %93, %"class.std::__1::__compressed_pair"** %25, align 8
  %94 = load %"class.std::__1::__compressed_pair"*, %"class.std::__1::__compressed_pair"** %25, align 8
  %95 = bitcast %"class.std::__1::__compressed_pair"* %94 to %"struct.std::__1::__compressed_pair_elem"*, !dbg !5788
  store %"struct.std::__1::__compressed_pair_elem"* %95, %"struct.std::__1::__compressed_pair_elem"** %24, align 8
  %96 = load %"struct.std::__1::__compressed_pair_elem"*, %"struct.std::__1::__compressed_pair_elem"** %24, align 8
  %97 = getelementptr inbounds %"struct.std::__1::__compressed_pair_elem", %"struct.std::__1::__compressed_pair_elem"* %96, i32 0, i32 0, !dbg !5789
  %98 = load %"struct.altered_carbon::js::ACLexPosition"*, %"struct.altered_carbon::js::ACLexPosition"** %97, align 8, !dbg !5790
  store %"struct.altered_carbon::js::ACLexPosition"* %98, %"struct.altered_carbon::js::ACLexPosition"** %27, align 8, !dbg !5685
  %99 = getelementptr inbounds %"class.std::__1::unique_ptr", %"class.std::__1::unique_ptr"* %92, i32 0, i32 0, !dbg !5791
  store %"class.std::__1::__compressed_pair"* %99, %"class.std::__1::__compressed_pair"** %23, align 8
  %100 = load %"class.std::__1::__compressed_pair"*, %"class.std::__1::__compressed_pair"** %23, align 8
  %101 = bitcast %"class.std::__1::__compressed_pair"* %100 to %"struct.std::__1::__compressed_pair_elem"*, !dbg !5792
  store %"struct.std::__1::__compressed_pair_elem"* %101, %"struct.std::__1::__compressed_pair_elem"** %22, align 8
  %102 = load %"struct.std::__1::__compressed_pair_elem"*, %"struct.std::__1::__compressed_pair_elem"** %22, align 8
  %103 = getelementptr inbounds %"struct.std::__1::__compressed_pair_elem", %"struct.std::__1::__compressed_pair_elem"* %102, i32 0, i32 0, !dbg !5793
  store %"struct.altered_carbon::js::ACLexPosition"* null, %"struct.altered_carbon::js::ACLexPosition"** %103, align 8, !dbg !5794
  %104 = load %"struct.altered_carbon::js::ACLexPosition"*, %"struct.altered_carbon::js::ACLexPosition"** %27, align 8, !dbg !5795
  store %"struct.altered_carbon::js::ACLexPosition"* %104, %"struct.altered_carbon::js::ACLexPosition"** %30, align 8, !dbg !5786
  %105 = load %"class.std::__1::unique_ptr"*, %"class.std::__1::unique_ptr"** %29, align 8, !dbg !5796
  store %"class.std::__1::unique_ptr"* %105, %"class.std::__1::unique_ptr"** %6, align 8
  %106 = load %"class.std::__1::unique_ptr"*, %"class.std::__1::unique_ptr"** %6, align 8
  %107 = getelementptr inbounds %"class.std::__1::unique_ptr", %"class.std::__1::unique_ptr"* %106, i32 0, i32 0, !dbg !5797
  store %"class.std::__1::__compressed_pair"* %107, %"class.std::__1::__compressed_pair"** %5, align 8
  %108 = load %"class.std::__1::__compressed_pair"*, %"class.std::__1::__compressed_pair"** %5, align 8
  %109 = bitcast %"class.std::__1::__compressed_pair"* %108 to %"struct.std::__1::__compressed_pair_elem.0"*, !dbg !5798
  store %"struct.std::__1::__compressed_pair_elem.0"* %109, %"struct.std::__1::__compressed_pair_elem.0"** %4, align 8
  %110 = load %"struct.std::__1::__compressed_pair_elem.0"*, %"struct.std::__1::__compressed_pair_elem.0"** %4, align 8
  %111 = bitcast %"struct.std::__1::__compressed_pair_elem.0"* %110 to %"struct.std::__1::default_delete"*, !dbg !5799
  store %"struct.std::__1::default_delete"* %111, %"struct.std::__1::default_delete"** %7, align 8
  %112 = load %"struct.std::__1::default_delete"*, %"struct.std::__1::default_delete"** %7, align 8, !dbg !5800
  store %"class.std::__1::__compressed_pair"* %90, %"class.std::__1::__compressed_pair"** %19, align 8
  store %"struct.altered_carbon::js::ACLexPosition"** %30, %"struct.altered_carbon::js::ACLexPosition"*** %20, align 8
  store %"struct.std::__1::default_delete"* %112, %"struct.std::__1::default_delete"** %21, align 8
  %113 = load %"class.std::__1::__compressed_pair"*, %"class.std::__1::__compressed_pair"** %19, align 8
  %114 = load %"struct.altered_carbon::js::ACLexPosition"**, %"struct.altered_carbon::js::ACLexPosition"*** %20, align 8, !dbg !5801
  %115 = load %"struct.std::__1::default_delete"*, %"struct.std::__1::default_delete"** %21, align 8, !dbg !5801
  store %"class.std::__1::__compressed_pair"* %113, %"class.std::__1::__compressed_pair"** %16, align 8
  store %"struct.altered_carbon::js::ACLexPosition"** %114, %"struct.altered_carbon::js::ACLexPosition"*** %17, align 8
  store %"struct.std::__1::default_delete"* %115, %"struct.std::__1::default_delete"** %18, align 8
  %116 = load %"class.std::__1::__compressed_pair"*, %"class.std::__1::__compressed_pair"** %16, align 8
  %117 = bitcast %"class.std::__1::__compressed_pair"* %116 to %"struct.std::__1::__compressed_pair_elem"*, !dbg !5802
  %118 = load %"struct.altered_carbon::js::ACLexPosition"**, %"struct.altered_carbon::js::ACLexPosition"*** %17, align 8, !dbg !5803
  store %"struct.altered_carbon::js::ACLexPosition"** %118, %"struct.altered_carbon::js::ACLexPosition"*** %15, align 8
  %119 = load %"struct.altered_carbon::js::ACLexPosition"**, %"struct.altered_carbon::js::ACLexPosition"*** %15, align 8, !dbg !5804
  store %"struct.std::__1::__compressed_pair_elem"* %117, %"struct.std::__1::__compressed_pair_elem"** %9, align 8
  store %"struct.altered_carbon::js::ACLexPosition"** %119, %"struct.altered_carbon::js::ACLexPosition"*** %10, align 8
  %120 = load %"struct.std::__1::__compressed_pair_elem"*, %"struct.std::__1::__compressed_pair_elem"** %9, align 8
  %121 = getelementptr inbounds %"struct.std::__1::__compressed_pair_elem", %"struct.std::__1::__compressed_pair_elem"* %120, i32 0, i32 0, !dbg !5805
  %122 = load %"struct.altered_carbon::js::ACLexPosition"**, %"struct.altered_carbon::js::ACLexPosition"*** %10, align 8, !dbg !5806
  store %"struct.altered_carbon::js::ACLexPosition"** %122, %"struct.altered_carbon::js::ACLexPosition"*** %8, align 8
  %123 = load %"struct.altered_carbon::js::ACLexPosition"**, %"struct.altered_carbon::js::ACLexPosition"*** %8, align 8, !dbg !5807
  %124 = load %"struct.altered_carbon::js::ACLexPosition"*, %"struct.altered_carbon::js::ACLexPosition"** %123, align 8, !dbg !5808
  store %"struct.altered_carbon::js::ACLexPosition"* %124, %"struct.altered_carbon::js::ACLexPosition"** %121, align 8, !dbg !5805
  %125 = bitcast %"class.std::__1::__compressed_pair"* %116 to %"struct.std::__1::__compressed_pair_elem.0"*, !dbg !5802
  %126 = load %"struct.std::__1::default_delete"*, %"struct.std::__1::default_delete"** %18, align 8, !dbg !5809
  store %"struct.std::__1::default_delete"* %126, %"struct.std::__1::default_delete"** %11, align 8
  %127 = load %"struct.std::__1::default_delete"*, %"struct.std::__1::default_delete"** %11, align 8, !dbg !5810
  store %"struct.std::__1::__compressed_pair_elem.0"* %125, %"struct.std::__1::__compressed_pair_elem.0"** %13, align 8
  store %"struct.std::__1::default_delete"* %127, %"struct.std::__1::default_delete"** %14, align 8
  %128 = load %"struct.std::__1::__compressed_pair_elem.0"*, %"struct.std::__1::__compressed_pair_elem.0"** %13, align 8
  %129 = bitcast %"struct.std::__1::__compressed_pair_elem.0"* %128 to %"struct.std::__1::default_delete"*, !dbg !5811
  %130 = load %"struct.std::__1::default_delete"*, %"struct.std::__1::default_delete"** %14, align 8, !dbg !5812
  store %"struct.std::__1::default_delete"* %130, %"struct.std::__1::default_delete"** %12, align 8
  %131 = load %"struct.std::__1::default_delete"*, %"struct.std::__1::default_delete"** %12, align 8, !dbg !5813
  call void @_ZN14altered_carbon2js13ACAstBaseNodeC2ENSt3__110unique_ptrINS0_13ACLexPositionENS2_14default_deleteIS4_EEEENS1_11AstNodeTypeENS1_14AstNodeSubTypeE(%"class.altered_carbon::js::ACAstBaseNode"* %85, %"class.std::__1::unique_ptr"* %83, i32 6, i32 602), !dbg !5814
  store %"class.std::__1::unique_ptr"* %83, %"class.std::__1::unique_ptr"** %45, align 8
  %132 = load %"class.std::__1::unique_ptr"*, %"class.std::__1::unique_ptr"** %45, align 8
  store %"class.std::__1::unique_ptr"* %132, %"class.std::__1::unique_ptr"** %44, align 8
  %133 = load %"class.std::__1::unique_ptr"*, %"class.std::__1::unique_ptr"** %44, align 8
  store %"class.std::__1::unique_ptr"* %133, %"class.std::__1::unique_ptr"** %41, align 8
  store %"struct.altered_carbon::js::ACLexPosition"* null, %"struct.altered_carbon::js::ACLexPosition"** %42, align 8
  %134 = load %"class.std::__1::unique_ptr"*, %"class.std::__1::unique_ptr"** %41, align 8
  %135 = getelementptr inbounds %"class.std::__1::unique_ptr", %"class.std::__1::unique_ptr"* %134, i32 0, i32 0, !dbg !5815
  store %"class.std::__1::__compressed_pair"* %135, %"class.std::__1::__compressed_pair"** %40, align 8
  %136 = load %"class.std::__1::__compressed_pair"*, %"class.std::__1::__compressed_pair"** %40, align 8
  %137 = bitcast %"class.std::__1::__compressed_pair"* %136 to %"struct.std::__1::__compressed_pair_elem"*, !dbg !5816
  store %"struct.std::__1::__compressed_pair_elem"* %137, %"struct.std::__1::__compressed_pair_elem"** %39, align 8
  %138 = load %"struct.std::__1::__compressed_pair_elem"*, %"struct.std::__1::__compressed_pair_elem"** %39, align 8
  %139 = getelementptr inbounds %"struct.std::__1::__compressed_pair_elem", %"struct.std::__1::__compressed_pair_elem"* %138, i32 0, i32 0, !dbg !5817
  %140 = load %"struct.altered_carbon::js::ACLexPosition"*, %"struct.altered_carbon::js::ACLexPosition"** %139, align 8, !dbg !5818
  store %"struct.altered_carbon::js::ACLexPosition"* %140, %"struct.altered_carbon::js::ACLexPosition"** %43, align 8, !dbg !5710
  %141 = load %"struct.altered_carbon::js::ACLexPosition"*, %"struct.altered_carbon::js::ACLexPosition"** %42, align 8, !dbg !5819
  %142 = getelementptr inbounds %"class.std::__1::unique_ptr", %"class.std::__1::unique_ptr"* %134, i32 0, i32 0, !dbg !5820
  store %"class.std::__1::__compressed_pair"* %142, %"class.std::__1::__compressed_pair"** %36, align 8
  %143 = load %"class.std::__1::__compressed_pair"*, %"class.std::__1::__compressed_pair"** %36, align 8
  %144 = bitcast %"class.std::__1::__compressed_pair"* %143 to %"struct.std::__1::__compressed_pair_elem"*, !dbg !5821
  store %"struct.std::__1::__compressed_pair_elem"* %144, %"struct.std::__1::__compressed_pair_elem"** %35, align 8
  %145 = load %"struct.std::__1::__compressed_pair_elem"*, %"struct.std::__1::__compressed_pair_elem"** %35, align 8
  %146 = getelementptr inbounds %"struct.std::__1::__compressed_pair_elem", %"struct.std::__1::__compressed_pair_elem"* %145, i32 0, i32 0, !dbg !5822
  store %"struct.altered_carbon::js::ACLexPosition"* %141, %"struct.altered_carbon::js::ACLexPosition"** %146, align 8, !dbg !5823
  %147 = load %"struct.altered_carbon::js::ACLexPosition"*, %"struct.altered_carbon::js::ACLexPosition"** %43, align 8, !dbg !5824
  %148 = icmp ne %"struct.altered_carbon::js::ACLexPosition"* %147, null, !dbg !5824
  br i1 %148, label %149, label %165, !dbg !5825

; <label>:149:                                    ; preds = %3
  %150 = getelementptr inbounds %"class.std::__1::unique_ptr", %"class.std::__1::unique_ptr"* %134, i32 0, i32 0, !dbg !5826
  store %"class.std::__1::__compressed_pair"* %150, %"class.std::__1::__compressed_pair"** %34, align 8
  %151 = load %"class.std::__1::__compressed_pair"*, %"class.std::__1::__compressed_pair"** %34, align 8
  %152 = bitcast %"class.std::__1::__compressed_pair"* %151 to %"struct.std::__1::__compressed_pair_elem.0"*, !dbg !5827
  store %"struct.std::__1::__compressed_pair_elem.0"* %152, %"struct.std::__1::__compressed_pair_elem.0"** %33, align 8
  %153 = load %"struct.std::__1::__compressed_pair_elem.0"*, %"struct.std::__1::__compressed_pair_elem.0"** %33, align 8
  %154 = bitcast %"struct.std::__1::__compressed_pair_elem.0"* %153 to %"struct.std::__1::default_delete"*, !dbg !5828
  %155 = load %"struct.altered_carbon::js::ACLexPosition"*, %"struct.altered_carbon::js::ACLexPosition"** %43, align 8, !dbg !5829
  store %"struct.std::__1::default_delete"* %154, %"struct.std::__1::default_delete"** %37, align 8
  store %"struct.altered_carbon::js::ACLexPosition"* %155, %"struct.altered_carbon::js::ACLexPosition"** %38, align 8
  %156 = load %"struct.std::__1::default_delete"*, %"struct.std::__1::default_delete"** %37, align 8
  %157 = load %"struct.altered_carbon::js::ACLexPosition"*, %"struct.altered_carbon::js::ACLexPosition"** %38, align 8, !dbg !5830
  %158 = icmp eq %"struct.altered_carbon::js::ACLexPosition"* %157, null, !dbg !5831
  br i1 %158, label %164, label %159, !dbg !5831

; <label>:159:                                    ; preds = %149
  %160 = bitcast %"struct.altered_carbon::js::ACLexPosition"* %157 to void (%"struct.altered_carbon::js::ACLexPosition"*)***, !dbg !5831
  %161 = load void (%"struct.altered_carbon::js::ACLexPosition"*)**, void (%"struct.altered_carbon::js::ACLexPosition"*)*** %160, align 8, !dbg !5831
  %162 = getelementptr inbounds void (%"struct.altered_carbon::js::ACLexPosition"*)*, void (%"struct.altered_carbon::js::ACLexPosition"*)** %161, i64 1, !dbg !5831
  %163 = load void (%"struct.altered_carbon::js::ACLexPosition"*)*, void (%"struct.altered_carbon::js::ACLexPosition"*)** %162, align 8, !dbg !5831
  call void %163(%"struct.altered_carbon::js::ACLexPosition"* %157) #2, !dbg !5831
  br label %164, !dbg !5831

; <label>:164:                                    ; preds = %159, %149
  br label %165, !dbg !5826

; <label>:165:                                    ; preds = %3, %164
  %166 = bitcast %"class.altered_carbon::js::ACAstVariantNode"* %84 to i32 (...)***, !dbg !5782
  store i32 (...)** bitcast (i8** getelementptr inbounds ({ [14 x i8*] }, { [14 x i8*] }* @_ZTVN14altered_carbon2js16ACAstVariantNodeE, i32 0, inrange i32 0, i32 2) to i32 (...)**), i32 (...)*** %166, align 8, !dbg !5782
  %167 = getelementptr inbounds %"class.altered_carbon::js::ACAstVariantNode", %"class.altered_carbon::js::ACAstVariantNode"* %84, i32 0, i32 1, !dbg !5832
  store %"class.std::__1::basic_string"* %167, %"class.std::__1::basic_string"** %57, align 8
  %168 = load %"class.std::__1::basic_string"*, %"class.std::__1::basic_string"** %57, align 8
  store %"class.std::__1::basic_string"* %168, %"class.std::__1::basic_string"** %56, align 8
  %169 = load %"class.std::__1::basic_string"*, %"class.std::__1::basic_string"** %56, align 8
  %170 = bitcast %"class.std::__1::basic_string"* %169 to %"class.std::__1::__basic_string_common"*, !dbg !5833
  %171 = getelementptr inbounds %"class.std::__1::basic_string", %"class.std::__1::basic_string"* %169, i32 0, i32 0, !dbg !5834
  store %"class.std::__1::__compressed_pair.10"* %171, %"class.std::__1::__compressed_pair.10"** %55, align 8
  %172 = load %"class.std::__1::__compressed_pair.10"*, %"class.std::__1::__compressed_pair.10"** %55, align 8
  store %"class.std::__1::__compressed_pair.10"* %172, %"class.std::__1::__compressed_pair.10"** %54, align 8
  %173 = load %"class.std::__1::__compressed_pair.10"*, %"class.std::__1::__compressed_pair.10"** %54, align 8
  %174 = bitcast %"class.std::__1::__compressed_pair.10"* %173 to %"struct.std::__1::__compressed_pair_elem.11"*, !dbg !5835
  store %"struct.std::__1::__compressed_pair_elem.11"* %174, %"struct.std::__1::__compressed_pair_elem.11"** %53, align 8
  %175 = load %"struct.std::__1::__compressed_pair_elem.11"*, %"struct.std::__1::__compressed_pair_elem.11"** %53, align 8
  %176 = getelementptr inbounds %"struct.std::__1::__compressed_pair_elem.11", %"struct.std::__1::__compressed_pair_elem.11"* %175, i32 0, i32 0, !dbg !5836
  %177 = bitcast %"struct.std::__1::basic_string<wchar_t, std::__1::char_traits<wchar_t>, std::__1::allocator<wchar_t> >::__rep"* %176 to i8*, !dbg !5836
  call void @llvm.memset.p0i8.i64(i8* align 8 %177, i8 0, i64 24, i1 false), !dbg !5836
  %178 = bitcast %"class.std::__1::__compressed_pair.10"* %173 to %"struct.std::__1::__compressed_pair_elem.13"*, !dbg !5835
  store %"struct.std::__1::__compressed_pair_elem.13"* %178, %"struct.std::__1::__compressed_pair_elem.13"** %52, align 8
  %179 = load %"struct.std::__1::__compressed_pair_elem.13"*, %"struct.std::__1::__compressed_pair_elem.13"** %52, align 8
  %180 = bitcast %"struct.std::__1::__compressed_pair_elem.13"* %179 to %"class.std::__1::allocator.14"*, !dbg !5837
  store %"class.std::__1::allocator.14"* %180, %"class.std::__1::allocator.14"** %51, align 8
  %181 = load %"class.std::__1::allocator.14"*, %"class.std::__1::allocator.14"** %51, align 8
  store %"class.std::__1::basic_string"* %169, %"class.std::__1::basic_string"** %48, align 8
  %182 = load %"class.std::__1::basic_string"*, %"class.std::__1::basic_string"** %48, align 8
  %183 = getelementptr inbounds %"class.std::__1::basic_string", %"class.std::__1::basic_string"* %182, i32 0, i32 0, !dbg !5838
  store %"class.std::__1::__compressed_pair.10"* %183, %"class.std::__1::__compressed_pair.10"** %47, align 8
  %184 = load %"class.std::__1::__compressed_pair.10"*, %"class.std::__1::__compressed_pair.10"** %47, align 8
  %185 = bitcast %"class.std::__1::__compressed_pair.10"* %184 to %"struct.std::__1::__compressed_pair_elem.11"*, !dbg !5839
  store %"struct.std::__1::__compressed_pair_elem.11"* %185, %"struct.std::__1::__compressed_pair_elem.11"** %46, align 8
  %186 = load %"struct.std::__1::__compressed_pair_elem.11"*, %"struct.std::__1::__compressed_pair_elem.11"** %46, align 8
  %187 = getelementptr inbounds %"struct.std::__1::__compressed_pair_elem.11", %"struct.std::__1::__compressed_pair_elem.11"* %186, i32 0, i32 0, !dbg !5840
  %188 = getelementptr inbounds %"struct.std::__1::basic_string<wchar_t, std::__1::char_traits<wchar_t>, std::__1::allocator<wchar_t> >::__rep", %"struct.std::__1::basic_string<wchar_t, std::__1::char_traits<wchar_t>, std::__1::allocator<wchar_t> >::__rep"* %187, i32 0, i32 0, !dbg !5841
  %189 = bitcast %union.anon* %188 to %"struct.std::__1::basic_string<wchar_t, std::__1::char_traits<wchar_t>, std::__1::allocator<wchar_t> >::__raw"*, !dbg !5841
  %190 = getelementptr inbounds %"struct.std::__1::basic_string<wchar_t, std::__1::char_traits<wchar_t>, std::__1::allocator<wchar_t> >::__raw", %"struct.std::__1::basic_string<wchar_t, std::__1::char_traits<wchar_t>, std::__1::allocator<wchar_t> >::__raw"* %189, i32 0, i32 0, !dbg !5842
  store [3 x i64]* %190, [3 x i64]** %49, align 8, !dbg !5721
  store i32 0, i32* %50, align 4, !dbg !5722
  br label %191, !dbg !5843

; <label>:191:                                    ; preds = %194, %165
  %192 = load i32, i32* %50, align 4, !dbg !5844
  %193 = icmp ult i32 %192, 3, !dbg !5845
  br i1 %193, label %194, label %201, !dbg !5846

; <label>:194:                                    ; preds = %191
  %195 = load [3 x i64]*, [3 x i64]** %49, align 8, !dbg !5847
  %196 = load i32, i32* %50, align 4, !dbg !5848
  %197 = zext i32 %196 to i64, !dbg !5847
  %198 = getelementptr inbounds [3 x i64], [3 x i64]* %195, i64 0, i64 %197, !dbg !5847
  store i64 0, i64* %198, align 8, !dbg !5849
  %199 = load i32, i32* %50, align 4, !dbg !5850
  %200 = add i32 %199, 1, !dbg !5850
  store i32 %200, i32* %50, align 4, !dbg !5850
  br label %191, !dbg !5851, !llvm.loop !5348

; <label>:201:                                    ; preds = %191
  %202 = getelementptr inbounds %"class.altered_carbon::js::ACAstVariantNode", %"class.altered_carbon::js::ACAstVariantNode"* %84, i32 0, i32 3, !dbg !5852
  call void @_ZN14altered_carbon2js11ACLexNumberC1ERKS1_(%"class.altered_carbon::js::ACLexNumber"* %202, %"class.altered_carbon::js::ACLexNumber"* dereferenceable(24) %2), !dbg !5852
  %203 = getelementptr inbounds %"class.altered_carbon::js::ACAstVariantNode", %"class.altered_carbon::js::ACAstVariantNode"* %84, i32 0, i32 4, !dbg !5832
  store %"class.std::__1::basic_string"* %203, %"class.std::__1::basic_string"** %69, align 8
  %204 = load %"class.std::__1::basic_string"*, %"class.std::__1::basic_string"** %69, align 8
  store %"class.std::__1::basic_string"* %204, %"class.std::__1::basic_string"** %68, align 8
  %205 = load %"class.std::__1::basic_string"*, %"class.std::__1::basic_string"** %68, align 8
  %206 = bitcast %"class.std::__1::basic_string"* %205 to %"class.std::__1::__basic_string_common"*, !dbg !5853
  %207 = getelementptr inbounds %"class.std::__1::basic_string", %"class.std::__1::basic_string"* %205, i32 0, i32 0, !dbg !5854
  store %"class.std::__1::__compressed_pair.10"* %207, %"class.std::__1::__compressed_pair.10"** %67, align 8
  %208 = load %"class.std::__1::__compressed_pair.10"*, %"class.std::__1::__compressed_pair.10"** %67, align 8
  store %"class.std::__1::__compressed_pair.10"* %208, %"class.std::__1::__compressed_pair.10"** %66, align 8
  %209 = load %"class.std::__1::__compressed_pair.10"*, %"class.std::__1::__compressed_pair.10"** %66, align 8
  %210 = bitcast %"class.std::__1::__compressed_pair.10"* %209 to %"struct.std::__1::__compressed_pair_elem.11"*, !dbg !5855
  store %"struct.std::__1::__compressed_pair_elem.11"* %210, %"struct.std::__1::__compressed_pair_elem.11"** %65, align 8
  %211 = load %"struct.std::__1::__compressed_pair_elem.11"*, %"struct.std::__1::__compressed_pair_elem.11"** %65, align 8
  %212 = getelementptr inbounds %"struct.std::__1::__compressed_pair_elem.11", %"struct.std::__1::__compressed_pair_elem.11"* %211, i32 0, i32 0, !dbg !5856
  %213 = bitcast %"struct.std::__1::basic_string<wchar_t, std::__1::char_traits<wchar_t>, std::__1::allocator<wchar_t> >::__rep"* %212 to i8*, !dbg !5856
  call void @llvm.memset.p0i8.i64(i8* align 8 %213, i8 0, i64 24, i1 false), !dbg !5856
  %214 = bitcast %"class.std::__1::__compressed_pair.10"* %209 to %"struct.std::__1::__compressed_pair_elem.13"*, !dbg !5855
  store %"struct.std::__1::__compressed_pair_elem.13"* %214, %"struct.std::__1::__compressed_pair_elem.13"** %64, align 8
  %215 = load %"struct.std::__1::__compressed_pair_elem.13"*, %"struct.std::__1::__compressed_pair_elem.13"** %64, align 8
  %216 = bitcast %"struct.std::__1::__compressed_pair_elem.13"* %215 to %"class.std::__1::allocator.14"*, !dbg !5857
  store %"class.std::__1::allocator.14"* %216, %"class.std::__1::allocator.14"** %63, align 8
  %217 = load %"class.std::__1::allocator.14"*, %"class.std::__1::allocator.14"** %63, align 8
  store %"class.std::__1::basic_string"* %205, %"class.std::__1::basic_string"** %60, align 8
  %218 = load %"class.std::__1::basic_string"*, %"class.std::__1::basic_string"** %60, align 8
  %219 = getelementptr inbounds %"class.std::__1::basic_string", %"class.std::__1::basic_string"* %218, i32 0, i32 0, !dbg !5858
  store %"class.std::__1::__compressed_pair.10"* %219, %"class.std::__1::__compressed_pair.10"** %59, align 8
  %220 = load %"class.std::__1::__compressed_pair.10"*, %"class.std::__1::__compressed_pair.10"** %59, align 8
  %221 = bitcast %"class.std::__1::__compressed_pair.10"* %220 to %"struct.std::__1::__compressed_pair_elem.11"*, !dbg !5859
  store %"struct.std::__1::__compressed_pair_elem.11"* %221, %"struct.std::__1::__compressed_pair_elem.11"** %58, align 8
  %222 = load %"struct.std::__1::__compressed_pair_elem.11"*, %"struct.std::__1::__compressed_pair_elem.11"** %58, align 8
  %223 = getelementptr inbounds %"struct.std::__1::__compressed_pair_elem.11", %"struct.std::__1::__compressed_pair_elem.11"* %222, i32 0, i32 0, !dbg !5860
  %224 = getelementptr inbounds %"struct.std::__1::basic_string<wchar_t, std::__1::char_traits<wchar_t>, std::__1::allocator<wchar_t> >::__rep", %"struct.std::__1::basic_string<wchar_t, std::__1::char_traits<wchar_t>, std::__1::allocator<wchar_t> >::__rep"* %223, i32 0, i32 0, !dbg !5861
  %225 = bitcast %union.anon* %224 to %"struct.std::__1::basic_string<wchar_t, std::__1::char_traits<wchar_t>, std::__1::allocator<wchar_t> >::__raw"*, !dbg !5861
  %226 = getelementptr inbounds %"struct.std::__1::basic_string<wchar_t, std::__1::char_traits<wchar_t>, std::__1::allocator<wchar_t> >::__raw", %"struct.std::__1::basic_string<wchar_t, std::__1::char_traits<wchar_t>, std::__1::allocator<wchar_t> >::__raw"* %225, i32 0, i32 0, !dbg !5862
  store [3 x i64]* %226, [3 x i64]** %61, align 8, !dbg !5743
  store i32 0, i32* %62, align 4, !dbg !5744
  br label %227, !dbg !5863

; <label>:227:                                    ; preds = %230, %201
  %228 = load i32, i32* %62, align 4, !dbg !5864
  %229 = icmp ult i32 %228, 3, !dbg !5865
  br i1 %229, label %230, label %237, !dbg !5866

; <label>:230:                                    ; preds = %227
  %231 = load [3 x i64]*, [3 x i64]** %61, align 8, !dbg !5867
  %232 = load i32, i32* %62, align 4, !dbg !5868
  %233 = zext i32 %232 to i64, !dbg !5867
  %234 = getelementptr inbounds [3 x i64], [3 x i64]* %231, i64 0, i64 %233, !dbg !5867
  store i64 0, i64* %234, align 8, !dbg !5869
  %235 = load i32, i32* %62, align 4, !dbg !5870
  %236 = add i32 %235, 1, !dbg !5870
  store i32 %236, i32* %62, align 4, !dbg !5870
  br label %227, !dbg !5871, !llvm.loop !5348

; <label>:237:                                    ; preds = %227
  %238 = getelementptr inbounds %"class.altered_carbon::js::ACAstVariantNode", %"class.altered_carbon::js::ACAstVariantNode"* %84, i32 0, i32 6, !dbg !5832
  store %"class.std::__1::unique_ptr.17"* %238, %"class.std::__1::unique_ptr.17"** %80, align 8
  %239 = load %"class.std::__1::unique_ptr.17"*, %"class.std::__1::unique_ptr.17"** %80, align 8
  store %"class.std::__1::unique_ptr.17"* %239, %"class.std::__1::unique_ptr.17"** %78, align 8
  %240 = load %"class.std::__1::unique_ptr.17"*, %"class.std::__1::unique_ptr.17"** %78, align 8
  %241 = getelementptr inbounds %"class.std::__1::unique_ptr.17", %"class.std::__1::unique_ptr.17"* %240, i32 0, i32 0, !dbg !5872
  store %"class.altered_carbon::js::ACLexRegex"* null, %"class.altered_carbon::js::ACLexRegex"** %79, align 8, !dbg !5873
  store %"class.std::__1::__compressed_pair.18"* %241, %"class.std::__1::__compressed_pair.18"** %76, align 8
  store %"class.altered_carbon::js::ACLexRegex"** %79, %"class.altered_carbon::js::ACLexRegex"*** %77, align 8
  %242 = load %"class.std::__1::__compressed_pair.18"*, %"class.std::__1::__compressed_pair.18"** %76, align 8
  %243 = load %"class.altered_carbon::js::ACLexRegex"**, %"class.altered_carbon::js::ACLexRegex"*** %77, align 8, !dbg !5874
  store %"class.std::__1::__compressed_pair.18"* %242, %"class.std::__1::__compressed_pair.18"** %74, align 8
  store %"class.altered_carbon::js::ACLexRegex"** %243, %"class.altered_carbon::js::ACLexRegex"*** %75, align 8
  %244 = load %"class.std::__1::__compressed_pair.18"*, %"class.std::__1::__compressed_pair.18"** %74, align 8
  %245 = bitcast %"class.std::__1::__compressed_pair.18"* %244 to %"struct.std::__1::__compressed_pair_elem.19"*, !dbg !5875
  %246 = load %"class.altered_carbon::js::ACLexRegex"**, %"class.altered_carbon::js::ACLexRegex"*** %75, align 8, !dbg !5876
  store %"class.altered_carbon::js::ACLexRegex"** %246, %"class.altered_carbon::js::ACLexRegex"*** %73, align 8
  %247 = load %"class.altered_carbon::js::ACLexRegex"**, %"class.altered_carbon::js::ACLexRegex"*** %73, align 8, !dbg !5877
  store %"struct.std::__1::__compressed_pair_elem.19"* %245, %"struct.std::__1::__compressed_pair_elem.19"** %71, align 8
  store %"class.altered_carbon::js::ACLexRegex"** %247, %"class.altered_carbon::js::ACLexRegex"*** %72, align 8
  %248 = load %"struct.std::__1::__compressed_pair_elem.19"*, %"struct.std::__1::__compressed_pair_elem.19"** %71, align 8
  %249 = getelementptr inbounds %"struct.std::__1::__compressed_pair_elem.19", %"struct.std::__1::__compressed_pair_elem.19"* %248, i32 0, i32 0, !dbg !5878
  %250 = load %"class.altered_carbon::js::ACLexRegex"**, %"class.altered_carbon::js::ACLexRegex"*** %72, align 8, !dbg !5879
  store %"class.altered_carbon::js::ACLexRegex"** %250, %"class.altered_carbon::js::ACLexRegex"*** %70, align 8
  %251 = load %"class.altered_carbon::js::ACLexRegex"**, %"class.altered_carbon::js::ACLexRegex"*** %70, align 8, !dbg !5880
  %252 = load %"class.altered_carbon::js::ACLexRegex"*, %"class.altered_carbon::js::ACLexRegex"** %251, align 8, !dbg !5881
  store %"class.altered_carbon::js::ACLexRegex"* %252, %"class.altered_carbon::js::ACLexRegex"** %249, align 8, !dbg !5878
  %253 = bitcast %"class.std::__1::__compressed_pair.18"* %244 to %"struct.std::__1::__compressed_pair_elem.28"*, !dbg !5875
  ret void, !dbg !5882
}

declare void @_ZN14altered_carbon2js11ACLexNumberC1ERKS1_(%"class.altered_carbon::js::ACLexNumber"*, %"class.altered_carbon::js::ACLexNumber"* dereferenceable(24)) unnamed_addr #4

; Function Attrs: noinline nounwind optnone ssp uwtable
define void @_ZN14altered_carbon2js16ACAstVariantNodeC1ENSt3__110unique_ptrINS0_13ACLexPositionENS2_14default_deleteIS4_EEEENS0_11ACLexNumberE(%"class.altered_carbon::js::ACAstVariantNode"*, %"class.std::__1::unique_ptr"*, %"class.altered_carbon::js::ACLexNumber"*) unnamed_addr #1 align 2 !dbg !5883 {
  %4 = alloca %"class.altered_carbon::js::ACAstVariantNode"*, align 8
  store %"class.altered_carbon::js::ACAstVariantNode"* %0, %"class.altered_carbon::js::ACAstVariantNode"** %4, align 8
  call void @llvm.dbg.declare(metadata %"class.altered_carbon::js::ACAstVariantNode"** %4, metadata !5884, metadata !DIExpression()), !dbg !5885
  call void @llvm.dbg.declare(metadata %"class.std::__1::unique_ptr"* %1, metadata !5886, metadata !DIExpression()), !dbg !5887
  call void @llvm.dbg.declare(metadata %"class.altered_carbon::js::ACLexNumber"* %2, metadata !5888, metadata !DIExpression()), !dbg !5889
  %5 = load %"class.altered_carbon::js::ACAstVariantNode"*, %"class.altered_carbon::js::ACAstVariantNode"** %4, align 8
  call void @_ZN14altered_carbon2js16ACAstVariantNodeC2ENSt3__110unique_ptrINS0_13ACLexPositionENS2_14default_deleteIS4_EEEENS0_11ACLexNumberE(%"class.altered_carbon::js::ACAstVariantNode"* %5, %"class.std::__1::unique_ptr"* %1, %"class.altered_carbon::js::ACLexNumber"* %2), !dbg !5890
  ret void, !dbg !5891
}

; Function Attrs: noinline nounwind optnone ssp uwtable
define void @_ZN14altered_carbon2js16ACAstVariantNodeC2ENSt3__110unique_ptrINS0_13ACLexPositionENS2_14default_deleteIS4_EEEEPNS0_10ACLexTokenE(%"class.altered_carbon::js::ACAstVariantNode"*, %"class.std::__1::unique_ptr"*, %"class.altered_carbon::js::ACLexToken"*) unnamed_addr #1 align 2 !dbg !5892 {
  %4 = alloca %"struct.std::__1::__compressed_pair_elem.0"*, align 8
  call void @llvm.dbg.declare(metadata %"struct.std::__1::__compressed_pair_elem.0"** %4, metadata !4948, metadata !DIExpression()), !dbg !5893
  %5 = alloca %"class.std::__1::__compressed_pair"*, align 8
  call void @llvm.dbg.declare(metadata %"class.std::__1::__compressed_pair"** %5, metadata !4961, metadata !DIExpression()), !dbg !5899
  %6 = alloca %"class.std::__1::unique_ptr"*, align 8
  call void @llvm.dbg.declare(metadata %"class.std::__1::unique_ptr"** %6, metadata !4964, metadata !DIExpression()), !dbg !5900
  %7 = alloca %"struct.std::__1::default_delete"*, align 8
  call void @llvm.dbg.declare(metadata %"struct.std::__1::default_delete"** %7, metadata !4967, metadata !DIExpression()), !dbg !5901
  %8 = alloca %"struct.altered_carbon::js::ACLexPosition"**, align 8
  call void @llvm.dbg.declare(metadata %"struct.altered_carbon::js::ACLexPosition"*** %8, metadata !4978, metadata !DIExpression()), !dbg !5903
  %9 = alloca %"struct.std::__1::__compressed_pair_elem"*, align 8
  call void @llvm.dbg.declare(metadata %"struct.std::__1::__compressed_pair_elem"** %9, metadata !5007, metadata !DIExpression()), !dbg !5908
  %10 = alloca %"struct.altered_carbon::js::ACLexPosition"**, align 8
  call void @llvm.dbg.declare(metadata %"struct.altered_carbon::js::ACLexPosition"*** %10, metadata !5010, metadata !DIExpression()), !dbg !5909
  %11 = alloca %"struct.std::__1::default_delete"*, align 8
  call void @llvm.dbg.declare(metadata %"struct.std::__1::default_delete"** %11, metadata !4967, metadata !DIExpression()), !dbg !5910
  %12 = alloca %"struct.std::__1::default_delete"*, align 8
  call void @llvm.dbg.declare(metadata %"struct.std::__1::default_delete"** %12, metadata !4967, metadata !DIExpression()), !dbg !5912
  %13 = alloca %"struct.std::__1::__compressed_pair_elem.0"*, align 8
  call void @llvm.dbg.declare(metadata %"struct.std::__1::__compressed_pair_elem.0"** %13, metadata !5023, metadata !DIExpression()), !dbg !5915
  %14 = alloca %"struct.std::__1::default_delete"*, align 8
  call void @llvm.dbg.declare(metadata %"struct.std::__1::default_delete"** %14, metadata !5025, metadata !DIExpression()), !dbg !5916
  %15 = alloca %"struct.altered_carbon::js::ACLexPosition"**, align 8
  call void @llvm.dbg.declare(metadata %"struct.altered_carbon::js::ACLexPosition"*** %15, metadata !4978, metadata !DIExpression()), !dbg !5917
  %16 = alloca %"class.std::__1::__compressed_pair"*, align 8
  call void @llvm.dbg.declare(metadata %"class.std::__1::__compressed_pair"** %16, metadata !5029, metadata !DIExpression()), !dbg !5919
  %17 = alloca %"struct.altered_carbon::js::ACLexPosition"**, align 8
  call void @llvm.dbg.declare(metadata %"struct.altered_carbon::js::ACLexPosition"*** %17, metadata !5031, metadata !DIExpression()), !dbg !5920
  %18 = alloca %"struct.std::__1::default_delete"*, align 8
  call void @llvm.dbg.declare(metadata %"struct.std::__1::default_delete"** %18, metadata !5033, metadata !DIExpression()), !dbg !5921
  %19 = alloca %"class.std::__1::__compressed_pair"*, align 8
  call void @llvm.dbg.declare(metadata %"class.std::__1::__compressed_pair"** %19, metadata !5035, metadata !DIExpression()), !dbg !5922
  %20 = alloca %"struct.altered_carbon::js::ACLexPosition"**, align 8
  call void @llvm.dbg.declare(metadata %"struct.altered_carbon::js::ACLexPosition"*** %20, metadata !5037, metadata !DIExpression()), !dbg !5923
  %21 = alloca %"struct.std::__1::default_delete"*, align 8
  call void @llvm.dbg.declare(metadata %"struct.std::__1::default_delete"** %21, metadata !5039, metadata !DIExpression()), !dbg !5924
  %22 = alloca %"struct.std::__1::__compressed_pair_elem"*, align 8
  call void @llvm.dbg.declare(metadata %"struct.std::__1::__compressed_pair_elem"** %22, metadata !5041, metadata !DIExpression()), !dbg !5925
  %23 = alloca %"class.std::__1::__compressed_pair"*, align 8
  call void @llvm.dbg.declare(metadata %"class.std::__1::__compressed_pair"** %23, metadata !5049, metadata !DIExpression()), !dbg !5929
  %24 = alloca %"struct.std::__1::__compressed_pair_elem"*, align 8
  call void @llvm.dbg.declare(metadata %"struct.std::__1::__compressed_pair_elem"** %24, metadata !5041, metadata !DIExpression()), !dbg !5930
  %25 = alloca %"class.std::__1::__compressed_pair"*, align 8
  call void @llvm.dbg.declare(metadata %"class.std::__1::__compressed_pair"** %25, metadata !5049, metadata !DIExpression()), !dbg !5933
  %26 = alloca %"class.std::__1::unique_ptr"*, align 8
  call void @llvm.dbg.declare(metadata %"class.std::__1::unique_ptr"** %26, metadata !5055, metadata !DIExpression()), !dbg !5934
  %27 = alloca %"struct.altered_carbon::js::ACLexPosition"*, align 8
  call void @llvm.dbg.declare(metadata %"struct.altered_carbon::js::ACLexPosition"** %27, metadata !5057, metadata !DIExpression()), !dbg !5935
  %28 = alloca %"class.std::__1::unique_ptr"*, align 8
  call void @llvm.dbg.declare(metadata %"class.std::__1::unique_ptr"** %28, metadata !5059, metadata !DIExpression()), !dbg !5936
  %29 = alloca %"class.std::__1::unique_ptr"*, align 8
  call void @llvm.dbg.declare(metadata %"class.std::__1::unique_ptr"** %29, metadata !5061, metadata !DIExpression()), !dbg !5937
  %30 = alloca %"struct.altered_carbon::js::ACLexPosition"*, align 8
  %31 = alloca %"class.std::__1::unique_ptr"*, align 8
  call void @llvm.dbg.declare(metadata %"class.std::__1::unique_ptr"** %31, metadata !5063, metadata !DIExpression()), !dbg !5938
  %32 = alloca %"class.std::__1::unique_ptr"*, align 8
  call void @llvm.dbg.declare(metadata %"class.std::__1::unique_ptr"** %32, metadata !5065, metadata !DIExpression()), !dbg !5939
  %33 = alloca %"struct.std::__1::__compressed_pair_elem.0"*, align 8
  call void @llvm.dbg.declare(metadata %"struct.std::__1::__compressed_pair_elem.0"** %33, metadata !4948, metadata !DIExpression()), !dbg !5940
  %34 = alloca %"class.std::__1::__compressed_pair"*, align 8
  call void @llvm.dbg.declare(metadata %"class.std::__1::__compressed_pair"** %34, metadata !4961, metadata !DIExpression()), !dbg !5946
  %35 = alloca %"struct.std::__1::__compressed_pair_elem"*, align 8
  call void @llvm.dbg.declare(metadata %"struct.std::__1::__compressed_pair_elem"** %35, metadata !5041, metadata !DIExpression()), !dbg !5947
  %36 = alloca %"class.std::__1::__compressed_pair"*, align 8
  call void @llvm.dbg.declare(metadata %"class.std::__1::__compressed_pair"** %36, metadata !5049, metadata !DIExpression()), !dbg !5950
  %37 = alloca %"struct.std::__1::default_delete"*, align 8
  call void @llvm.dbg.declare(metadata %"struct.std::__1::default_delete"** %37, metadata !5083, metadata !DIExpression()), !dbg !5951
  %38 = alloca %"struct.altered_carbon::js::ACLexPosition"*, align 8
  call void @llvm.dbg.declare(metadata %"struct.altered_carbon::js::ACLexPosition"** %38, metadata !5088, metadata !DIExpression()), !dbg !5953
  %39 = alloca %"struct.std::__1::__compressed_pair_elem"*, align 8
  call void @llvm.dbg.declare(metadata %"struct.std::__1::__compressed_pair_elem"** %39, metadata !5041, metadata !DIExpression()), !dbg !5954
  %40 = alloca %"class.std::__1::__compressed_pair"*, align 8
  call void @llvm.dbg.declare(metadata %"class.std::__1::__compressed_pair"** %40, metadata !5049, metadata !DIExpression()), !dbg !5957
  %41 = alloca %"class.std::__1::unique_ptr"*, align 8
  call void @llvm.dbg.declare(metadata %"class.std::__1::unique_ptr"** %41, metadata !5094, metadata !DIExpression()), !dbg !5958
  %42 = alloca %"struct.altered_carbon::js::ACLexPosition"*, align 8
  call void @llvm.dbg.declare(metadata %"struct.altered_carbon::js::ACLexPosition"** %42, metadata !5096, metadata !DIExpression()), !dbg !5959
  %43 = alloca %"struct.altered_carbon::js::ACLexPosition"*, align 8
  call void @llvm.dbg.declare(metadata %"struct.altered_carbon::js::ACLexPosition"** %43, metadata !5098, metadata !DIExpression()), !dbg !5960
  %44 = alloca %"class.std::__1::unique_ptr"*, align 8
  call void @llvm.dbg.declare(metadata %"class.std::__1::unique_ptr"** %44, metadata !5100, metadata !DIExpression()), !dbg !5961
  %45 = alloca %"class.std::__1::unique_ptr"*, align 8
  call void @llvm.dbg.declare(metadata %"class.std::__1::unique_ptr"** %45, metadata !5102, metadata !DIExpression()), !dbg !5962
  %46 = alloca %"struct.std::__1::__compressed_pair_elem.11"*, align 8
  call void @llvm.dbg.declare(metadata %"struct.std::__1::__compressed_pair_elem.11"** %46, metadata !5115, metadata !DIExpression()), !dbg !5963
  %47 = alloca %"class.std::__1::__compressed_pair.10"*, align 8
  call void @llvm.dbg.declare(metadata %"class.std::__1::__compressed_pair.10"** %47, metadata !5129, metadata !DIExpression()), !dbg !5969
  %48 = alloca %"class.std::__1::basic_string"*, align 8
  call void @llvm.dbg.declare(metadata %"class.std::__1::basic_string"** %48, metadata !5132, metadata !DIExpression()), !dbg !5970
  %49 = alloca [3 x i64]*, align 8
  call void @llvm.dbg.declare(metadata [3 x i64]** %49, metadata !5135, metadata !DIExpression()), !dbg !5971
  %50 = alloca i32, align 4
  call void @llvm.dbg.declare(metadata i32* %50, metadata !5138, metadata !DIExpression()), !dbg !5972
  %51 = alloca %"class.std::__1::allocator.14"*, align 8
  call void @llvm.dbg.declare(metadata %"class.std::__1::allocator.14"** %51, metadata !5173, metadata !DIExpression()), !dbg !5973
  %52 = alloca %"struct.std::__1::__compressed_pair_elem.13"*, align 8
  call void @llvm.dbg.declare(metadata %"struct.std::__1::__compressed_pair_elem.13"** %52, metadata !5189, metadata !DIExpression()), !dbg !5978
  %53 = alloca %"struct.std::__1::__compressed_pair_elem.11"*, align 8
  call void @llvm.dbg.declare(metadata %"struct.std::__1::__compressed_pair_elem.11"** %53, metadata !5192, metadata !DIExpression()), !dbg !5979
  %54 = alloca %"class.std::__1::__compressed_pair.10"*, align 8
  call void @llvm.dbg.declare(metadata %"class.std::__1::__compressed_pair.10"** %54, metadata !5196, metadata !DIExpression()), !dbg !5981
  %55 = alloca %"class.std::__1::__compressed_pair.10"*, align 8
  call void @llvm.dbg.declare(metadata %"class.std::__1::__compressed_pair.10"** %55, metadata !5198, metadata !DIExpression()), !dbg !5982
  %56 = alloca %"class.std::__1::basic_string"*, align 8
  call void @llvm.dbg.declare(metadata %"class.std::__1::basic_string"** %56, metadata !5200, metadata !DIExpression()), !dbg !5983
  %57 = alloca %"class.std::__1::basic_string"*, align 8
  call void @llvm.dbg.declare(metadata %"class.std::__1::basic_string"** %57, metadata !5202, metadata !DIExpression()), !dbg !5984
  %58 = alloca %"class.std::__1::basic_string"*, align 8
  call void @llvm.dbg.declare(metadata %"class.std::__1::basic_string"** %58, metadata !5104, metadata !DIExpression()), !dbg !5985
  %59 = alloca %"struct.std::__1::__compressed_pair_elem.11"*, align 8
  call void @llvm.dbg.declare(metadata %"struct.std::__1::__compressed_pair_elem.11"** %59, metadata !5115, metadata !DIExpression()), !dbg !5987
  %60 = alloca %"class.std::__1::__compressed_pair.10"*, align 8
  call void @llvm.dbg.declare(metadata %"class.std::__1::__compressed_pair.10"** %60, metadata !5129, metadata !DIExpression()), !dbg !5993
  %61 = alloca %"class.std::__1::basic_string"*, align 8
  call void @llvm.dbg.declare(metadata %"class.std::__1::basic_string"** %61, metadata !5132, metadata !DIExpression()), !dbg !5994
  %62 = alloca [3 x i64]*, align 8
  call void @llvm.dbg.declare(metadata [3 x i64]** %62, metadata !5135, metadata !DIExpression()), !dbg !5995
  %63 = alloca i32, align 4
  call void @llvm.dbg.declare(metadata i32* %63, metadata !5138, metadata !DIExpression()), !dbg !5996
  %64 = alloca %"class.std::__1::__compressed_pair.10"*, align 8
  call void @llvm.dbg.declare(metadata %"class.std::__1::__compressed_pair.10"** %64, metadata !5141, metadata !DIExpression()), !dbg !5997
  %65 = alloca %"class.std::__1::basic_string"*, align 8
  call void @llvm.dbg.declare(metadata %"class.std::__1::basic_string"** %65, metadata !5152, metadata !DIExpression()), !dbg !5999
  %66 = alloca %"class.std::__1::basic_string"*, align 8
  call void @llvm.dbg.declare(metadata %"class.std::__1::basic_string"** %66, metadata !5154, metadata !DIExpression()), !dbg !6000
  %67 = alloca %"class.std::__1::basic_string"*, align 8
  call void @llvm.dbg.declare(metadata %"class.std::__1::basic_string"** %67, metadata !5156, metadata !DIExpression()), !dbg !6001
  %68 = alloca %"class.std::__1::basic_string"*, align 8
  call void @llvm.dbg.declare(metadata %"class.std::__1::basic_string"** %68, metadata !5158, metadata !DIExpression()), !dbg !6002
  %69 = alloca %"class.altered_carbon::js::ACLexRegex"**, align 8
  call void @llvm.dbg.declare(metadata %"class.altered_carbon::js::ACLexRegex"*** %69, metadata !5204, metadata !DIExpression()), !dbg !6003
  %70 = alloca %"struct.std::__1::__compressed_pair_elem.19"*, align 8
  call void @llvm.dbg.declare(metadata %"struct.std::__1::__compressed_pair_elem.19"** %70, metadata !5235, metadata !DIExpression()), !dbg !6010
  %71 = alloca %"class.altered_carbon::js::ACLexRegex"**, align 8
  call void @llvm.dbg.declare(metadata %"class.altered_carbon::js::ACLexRegex"*** %71, metadata !5238, metadata !DIExpression()), !dbg !6011
  %72 = alloca %"class.altered_carbon::js::ACLexRegex"**, align 8
  call void @llvm.dbg.declare(metadata %"class.altered_carbon::js::ACLexRegex"*** %72, metadata !5204, metadata !DIExpression()), !dbg !6012
  %73 = alloca %"class.std::__1::__compressed_pair.18"*, align 8
  call void @llvm.dbg.declare(metadata %"class.std::__1::__compressed_pair.18"** %73, metadata !5242, metadata !DIExpression()), !dbg !6014
  %74 = alloca %"class.altered_carbon::js::ACLexRegex"**, align 8
  call void @llvm.dbg.declare(metadata %"class.altered_carbon::js::ACLexRegex"*** %74, metadata !5245, metadata !DIExpression()), !dbg !6015
  %75 = alloca %"class.std::__1::__compressed_pair.18"*, align 8
  call void @llvm.dbg.declare(metadata %"class.std::__1::__compressed_pair.18"** %75, metadata !5247, metadata !DIExpression()), !dbg !6016
  %76 = alloca %"class.altered_carbon::js::ACLexRegex"**, align 8
  call void @llvm.dbg.declare(metadata %"class.altered_carbon::js::ACLexRegex"*** %76, metadata !5249, metadata !DIExpression()), !dbg !6017
  %77 = alloca %"class.std::__1::unique_ptr.17"*, align 8
  call void @llvm.dbg.declare(metadata %"class.std::__1::unique_ptr.17"** %77, metadata !5251, metadata !DIExpression()), !dbg !6018
  %78 = alloca %"class.altered_carbon::js::ACLexRegex"*, align 8
  %79 = alloca %"class.std::__1::unique_ptr.17"*, align 8
  call void @llvm.dbg.declare(metadata %"class.std::__1::unique_ptr.17"** %79, metadata !5254, metadata !DIExpression()), !dbg !6019
  %80 = alloca %"class.std::__1::unique_ptr"*, align 8
  call void @llvm.dbg.declare(metadata %"class.std::__1::unique_ptr"** %80, metadata !5256, metadata !DIExpression()), !dbg !6020
  %81 = alloca %"class.altered_carbon::js::ACAstVariantNode"*, align 8
  %82 = alloca %"class.altered_carbon::js::ACLexToken"*, align 8
  %83 = alloca %"class.std::__1::unique_ptr", align 8
  store %"class.altered_carbon::js::ACAstVariantNode"* %0, %"class.altered_carbon::js::ACAstVariantNode"** %81, align 8
  call void @llvm.dbg.declare(metadata %"class.altered_carbon::js::ACAstVariantNode"** %81, metadata !6022, metadata !DIExpression()), !dbg !6023
  call void @llvm.dbg.declare(metadata %"class.std::__1::unique_ptr"* %1, metadata !6024, metadata !DIExpression()), !dbg !6025
  store %"class.altered_carbon::js::ACLexToken"* %2, %"class.altered_carbon::js::ACLexToken"** %82, align 8
  call void @llvm.dbg.declare(metadata %"class.altered_carbon::js::ACLexToken"** %82, metadata !6026, metadata !DIExpression()), !dbg !6027
  %84 = load %"class.altered_carbon::js::ACAstVariantNode"*, %"class.altered_carbon::js::ACAstVariantNode"** %81, align 8
  %85 = bitcast %"class.altered_carbon::js::ACAstVariantNode"* %84 to %"class.altered_carbon::js::ACAstBaseNode"*, !dbg !6028
  store %"class.std::__1::unique_ptr"* %1, %"class.std::__1::unique_ptr"** %80, align 8
  %86 = load %"class.std::__1::unique_ptr"*, %"class.std::__1::unique_ptr"** %80, align 8, !dbg !6029
  store %"class.std::__1::unique_ptr"* %83, %"class.std::__1::unique_ptr"** %31, align 8
  store %"class.std::__1::unique_ptr"* %86, %"class.std::__1::unique_ptr"** %32, align 8
  %87 = load %"class.std::__1::unique_ptr"*, %"class.std::__1::unique_ptr"** %31, align 8
  %88 = load %"class.std::__1::unique_ptr"*, %"class.std::__1::unique_ptr"** %32, align 8, !dbg !6030
  store %"class.std::__1::unique_ptr"* %87, %"class.std::__1::unique_ptr"** %28, align 8
  store %"class.std::__1::unique_ptr"* %88, %"class.std::__1::unique_ptr"** %29, align 8
  %89 = load %"class.std::__1::unique_ptr"*, %"class.std::__1::unique_ptr"** %28, align 8
  %90 = getelementptr inbounds %"class.std::__1::unique_ptr", %"class.std::__1::unique_ptr"* %89, i32 0, i32 0, !dbg !6031
  %91 = load %"class.std::__1::unique_ptr"*, %"class.std::__1::unique_ptr"** %29, align 8, !dbg !6032
  store %"class.std::__1::unique_ptr"* %91, %"class.std::__1::unique_ptr"** %26, align 8
  %92 = load %"class.std::__1::unique_ptr"*, %"class.std::__1::unique_ptr"** %26, align 8
  %93 = getelementptr inbounds %"class.std::__1::unique_ptr", %"class.std::__1::unique_ptr"* %92, i32 0, i32 0, !dbg !6033
  store %"class.std::__1::__compressed_pair"* %93, %"class.std::__1::__compressed_pair"** %25, align 8
  %94 = load %"class.std::__1::__compressed_pair"*, %"class.std::__1::__compressed_pair"** %25, align 8
  %95 = bitcast %"class.std::__1::__compressed_pair"* %94 to %"struct.std::__1::__compressed_pair_elem"*, !dbg !6034
  store %"struct.std::__1::__compressed_pair_elem"* %95, %"struct.std::__1::__compressed_pair_elem"** %24, align 8
  %96 = load %"struct.std::__1::__compressed_pair_elem"*, %"struct.std::__1::__compressed_pair_elem"** %24, align 8
  %97 = getelementptr inbounds %"struct.std::__1::__compressed_pair_elem", %"struct.std::__1::__compressed_pair_elem"* %96, i32 0, i32 0, !dbg !6035
  %98 = load %"struct.altered_carbon::js::ACLexPosition"*, %"struct.altered_carbon::js::ACLexPosition"** %97, align 8, !dbg !6036
  store %"struct.altered_carbon::js::ACLexPosition"* %98, %"struct.altered_carbon::js::ACLexPosition"** %27, align 8, !dbg !5935
  %99 = getelementptr inbounds %"class.std::__1::unique_ptr", %"class.std::__1::unique_ptr"* %92, i32 0, i32 0, !dbg !6037
  store %"class.std::__1::__compressed_pair"* %99, %"class.std::__1::__compressed_pair"** %23, align 8
  %100 = load %"class.std::__1::__compressed_pair"*, %"class.std::__1::__compressed_pair"** %23, align 8
  %101 = bitcast %"class.std::__1::__compressed_pair"* %100 to %"struct.std::__1::__compressed_pair_elem"*, !dbg !6038
  store %"struct.std::__1::__compressed_pair_elem"* %101, %"struct.std::__1::__compressed_pair_elem"** %22, align 8
  %102 = load %"struct.std::__1::__compressed_pair_elem"*, %"struct.std::__1::__compressed_pair_elem"** %22, align 8
  %103 = getelementptr inbounds %"struct.std::__1::__compressed_pair_elem", %"struct.std::__1::__compressed_pair_elem"* %102, i32 0, i32 0, !dbg !6039
  store %"struct.altered_carbon::js::ACLexPosition"* null, %"struct.altered_carbon::js::ACLexPosition"** %103, align 8, !dbg !6040
  %104 = load %"struct.altered_carbon::js::ACLexPosition"*, %"struct.altered_carbon::js::ACLexPosition"** %27, align 8, !dbg !6041
  store %"struct.altered_carbon::js::ACLexPosition"* %104, %"struct.altered_carbon::js::ACLexPosition"** %30, align 8, !dbg !6032
  %105 = load %"class.std::__1::unique_ptr"*, %"class.std::__1::unique_ptr"** %29, align 8, !dbg !6042
  store %"class.std::__1::unique_ptr"* %105, %"class.std::__1::unique_ptr"** %6, align 8
  %106 = load %"class.std::__1::unique_ptr"*, %"class.std::__1::unique_ptr"** %6, align 8
  %107 = getelementptr inbounds %"class.std::__1::unique_ptr", %"class.std::__1::unique_ptr"* %106, i32 0, i32 0, !dbg !6043
  store %"class.std::__1::__compressed_pair"* %107, %"class.std::__1::__compressed_pair"** %5, align 8
  %108 = load %"class.std::__1::__compressed_pair"*, %"class.std::__1::__compressed_pair"** %5, align 8
  %109 = bitcast %"class.std::__1::__compressed_pair"* %108 to %"struct.std::__1::__compressed_pair_elem.0"*, !dbg !6044
  store %"struct.std::__1::__compressed_pair_elem.0"* %109, %"struct.std::__1::__compressed_pair_elem.0"** %4, align 8
  %110 = load %"struct.std::__1::__compressed_pair_elem.0"*, %"struct.std::__1::__compressed_pair_elem.0"** %4, align 8
  %111 = bitcast %"struct.std::__1::__compressed_pair_elem.0"* %110 to %"struct.std::__1::default_delete"*, !dbg !6045
  store %"struct.std::__1::default_delete"* %111, %"struct.std::__1::default_delete"** %7, align 8
  %112 = load %"struct.std::__1::default_delete"*, %"struct.std::__1::default_delete"** %7, align 8, !dbg !6046
  store %"class.std::__1::__compressed_pair"* %90, %"class.std::__1::__compressed_pair"** %19, align 8
  store %"struct.altered_carbon::js::ACLexPosition"** %30, %"struct.altered_carbon::js::ACLexPosition"*** %20, align 8
  store %"struct.std::__1::default_delete"* %112, %"struct.std::__1::default_delete"** %21, align 8
  %113 = load %"class.std::__1::__compressed_pair"*, %"class.std::__1::__compressed_pair"** %19, align 8
  %114 = load %"struct.altered_carbon::js::ACLexPosition"**, %"struct.altered_carbon::js::ACLexPosition"*** %20, align 8, !dbg !6047
  %115 = load %"struct.std::__1::default_delete"*, %"struct.std::__1::default_delete"** %21, align 8, !dbg !6047
  store %"class.std::__1::__compressed_pair"* %113, %"class.std::__1::__compressed_pair"** %16, align 8
  store %"struct.altered_carbon::js::ACLexPosition"** %114, %"struct.altered_carbon::js::ACLexPosition"*** %17, align 8
  store %"struct.std::__1::default_delete"* %115, %"struct.std::__1::default_delete"** %18, align 8
  %116 = load %"class.std::__1::__compressed_pair"*, %"class.std::__1::__compressed_pair"** %16, align 8
  %117 = bitcast %"class.std::__1::__compressed_pair"* %116 to %"struct.std::__1::__compressed_pair_elem"*, !dbg !6048
  %118 = load %"struct.altered_carbon::js::ACLexPosition"**, %"struct.altered_carbon::js::ACLexPosition"*** %17, align 8, !dbg !6049
  store %"struct.altered_carbon::js::ACLexPosition"** %118, %"struct.altered_carbon::js::ACLexPosition"*** %15, align 8
  %119 = load %"struct.altered_carbon::js::ACLexPosition"**, %"struct.altered_carbon::js::ACLexPosition"*** %15, align 8, !dbg !6050
  store %"struct.std::__1::__compressed_pair_elem"* %117, %"struct.std::__1::__compressed_pair_elem"** %9, align 8
  store %"struct.altered_carbon::js::ACLexPosition"** %119, %"struct.altered_carbon::js::ACLexPosition"*** %10, align 8
  %120 = load %"struct.std::__1::__compressed_pair_elem"*, %"struct.std::__1::__compressed_pair_elem"** %9, align 8
  %121 = getelementptr inbounds %"struct.std::__1::__compressed_pair_elem", %"struct.std::__1::__compressed_pair_elem"* %120, i32 0, i32 0, !dbg !6051
  %122 = load %"struct.altered_carbon::js::ACLexPosition"**, %"struct.altered_carbon::js::ACLexPosition"*** %10, align 8, !dbg !6052
  store %"struct.altered_carbon::js::ACLexPosition"** %122, %"struct.altered_carbon::js::ACLexPosition"*** %8, align 8
  %123 = load %"struct.altered_carbon::js::ACLexPosition"**, %"struct.altered_carbon::js::ACLexPosition"*** %8, align 8, !dbg !6053
  %124 = load %"struct.altered_carbon::js::ACLexPosition"*, %"struct.altered_carbon::js::ACLexPosition"** %123, align 8, !dbg !6054
  store %"struct.altered_carbon::js::ACLexPosition"* %124, %"struct.altered_carbon::js::ACLexPosition"** %121, align 8, !dbg !6051
  %125 = bitcast %"class.std::__1::__compressed_pair"* %116 to %"struct.std::__1::__compressed_pair_elem.0"*, !dbg !6048
  %126 = load %"struct.std::__1::default_delete"*, %"struct.std::__1::default_delete"** %18, align 8, !dbg !6055
  store %"struct.std::__1::default_delete"* %126, %"struct.std::__1::default_delete"** %11, align 8
  %127 = load %"struct.std::__1::default_delete"*, %"struct.std::__1::default_delete"** %11, align 8, !dbg !6056
  store %"struct.std::__1::__compressed_pair_elem.0"* %125, %"struct.std::__1::__compressed_pair_elem.0"** %13, align 8
  store %"struct.std::__1::default_delete"* %127, %"struct.std::__1::default_delete"** %14, align 8
  %128 = load %"struct.std::__1::__compressed_pair_elem.0"*, %"struct.std::__1::__compressed_pair_elem.0"** %13, align 8
  %129 = bitcast %"struct.std::__1::__compressed_pair_elem.0"* %128 to %"struct.std::__1::default_delete"*, !dbg !6057
  %130 = load %"struct.std::__1::default_delete"*, %"struct.std::__1::default_delete"** %14, align 8, !dbg !6058
  store %"struct.std::__1::default_delete"* %130, %"struct.std::__1::default_delete"** %12, align 8
  %131 = load %"struct.std::__1::default_delete"*, %"struct.std::__1::default_delete"** %12, align 8, !dbg !6059
  call void @_ZN14altered_carbon2js13ACAstBaseNodeC2ENSt3__110unique_ptrINS0_13ACLexPositionENS2_14default_deleteIS4_EEEENS1_11AstNodeTypeENS1_14AstNodeSubTypeE(%"class.altered_carbon::js::ACAstBaseNode"* %85, %"class.std::__1::unique_ptr"* %83, i32 6, i32 605), !dbg !6060
  store %"class.std::__1::unique_ptr"* %83, %"class.std::__1::unique_ptr"** %45, align 8
  %132 = load %"class.std::__1::unique_ptr"*, %"class.std::__1::unique_ptr"** %45, align 8
  store %"class.std::__1::unique_ptr"* %132, %"class.std::__1::unique_ptr"** %44, align 8
  %133 = load %"class.std::__1::unique_ptr"*, %"class.std::__1::unique_ptr"** %44, align 8
  store %"class.std::__1::unique_ptr"* %133, %"class.std::__1::unique_ptr"** %41, align 8
  store %"struct.altered_carbon::js::ACLexPosition"* null, %"struct.altered_carbon::js::ACLexPosition"** %42, align 8
  %134 = load %"class.std::__1::unique_ptr"*, %"class.std::__1::unique_ptr"** %41, align 8
  %135 = getelementptr inbounds %"class.std::__1::unique_ptr", %"class.std::__1::unique_ptr"* %134, i32 0, i32 0, !dbg !6061
  store %"class.std::__1::__compressed_pair"* %135, %"class.std::__1::__compressed_pair"** %40, align 8
  %136 = load %"class.std::__1::__compressed_pair"*, %"class.std::__1::__compressed_pair"** %40, align 8
  %137 = bitcast %"class.std::__1::__compressed_pair"* %136 to %"struct.std::__1::__compressed_pair_elem"*, !dbg !6062
  store %"struct.std::__1::__compressed_pair_elem"* %137, %"struct.std::__1::__compressed_pair_elem"** %39, align 8
  %138 = load %"struct.std::__1::__compressed_pair_elem"*, %"struct.std::__1::__compressed_pair_elem"** %39, align 8
  %139 = getelementptr inbounds %"struct.std::__1::__compressed_pair_elem", %"struct.std::__1::__compressed_pair_elem"* %138, i32 0, i32 0, !dbg !6063
  %140 = load %"struct.altered_carbon::js::ACLexPosition"*, %"struct.altered_carbon::js::ACLexPosition"** %139, align 8, !dbg !6064
  store %"struct.altered_carbon::js::ACLexPosition"* %140, %"struct.altered_carbon::js::ACLexPosition"** %43, align 8, !dbg !5960
  %141 = load %"struct.altered_carbon::js::ACLexPosition"*, %"struct.altered_carbon::js::ACLexPosition"** %42, align 8, !dbg !6065
  %142 = getelementptr inbounds %"class.std::__1::unique_ptr", %"class.std::__1::unique_ptr"* %134, i32 0, i32 0, !dbg !6066
  store %"class.std::__1::__compressed_pair"* %142, %"class.std::__1::__compressed_pair"** %36, align 8
  %143 = load %"class.std::__1::__compressed_pair"*, %"class.std::__1::__compressed_pair"** %36, align 8
  %144 = bitcast %"class.std::__1::__compressed_pair"* %143 to %"struct.std::__1::__compressed_pair_elem"*, !dbg !6067
  store %"struct.std::__1::__compressed_pair_elem"* %144, %"struct.std::__1::__compressed_pair_elem"** %35, align 8
  %145 = load %"struct.std::__1::__compressed_pair_elem"*, %"struct.std::__1::__compressed_pair_elem"** %35, align 8
  %146 = getelementptr inbounds %"struct.std::__1::__compressed_pair_elem", %"struct.std::__1::__compressed_pair_elem"* %145, i32 0, i32 0, !dbg !6068
  store %"struct.altered_carbon::js::ACLexPosition"* %141, %"struct.altered_carbon::js::ACLexPosition"** %146, align 8, !dbg !6069
  %147 = load %"struct.altered_carbon::js::ACLexPosition"*, %"struct.altered_carbon::js::ACLexPosition"** %43, align 8, !dbg !6070
  %148 = icmp ne %"struct.altered_carbon::js::ACLexPosition"* %147, null, !dbg !6070
  br i1 %148, label %149, label %165, !dbg !6071

; <label>:149:                                    ; preds = %3
  %150 = getelementptr inbounds %"class.std::__1::unique_ptr", %"class.std::__1::unique_ptr"* %134, i32 0, i32 0, !dbg !6072
  store %"class.std::__1::__compressed_pair"* %150, %"class.std::__1::__compressed_pair"** %34, align 8
  %151 = load %"class.std::__1::__compressed_pair"*, %"class.std::__1::__compressed_pair"** %34, align 8
  %152 = bitcast %"class.std::__1::__compressed_pair"* %151 to %"struct.std::__1::__compressed_pair_elem.0"*, !dbg !6073
  store %"struct.std::__1::__compressed_pair_elem.0"* %152, %"struct.std::__1::__compressed_pair_elem.0"** %33, align 8
  %153 = load %"struct.std::__1::__compressed_pair_elem.0"*, %"struct.std::__1::__compressed_pair_elem.0"** %33, align 8
  %154 = bitcast %"struct.std::__1::__compressed_pair_elem.0"* %153 to %"struct.std::__1::default_delete"*, !dbg !6074
  %155 = load %"struct.altered_carbon::js::ACLexPosition"*, %"struct.altered_carbon::js::ACLexPosition"** %43, align 8, !dbg !6075
  store %"struct.std::__1::default_delete"* %154, %"struct.std::__1::default_delete"** %37, align 8
  store %"struct.altered_carbon::js::ACLexPosition"* %155, %"struct.altered_carbon::js::ACLexPosition"** %38, align 8
  %156 = load %"struct.std::__1::default_delete"*, %"struct.std::__1::default_delete"** %37, align 8
  %157 = load %"struct.altered_carbon::js::ACLexPosition"*, %"struct.altered_carbon::js::ACLexPosition"** %38, align 8, !dbg !6076
  %158 = icmp eq %"struct.altered_carbon::js::ACLexPosition"* %157, null, !dbg !6077
  br i1 %158, label %164, label %159, !dbg !6077

; <label>:159:                                    ; preds = %149
  %160 = bitcast %"struct.altered_carbon::js::ACLexPosition"* %157 to void (%"struct.altered_carbon::js::ACLexPosition"*)***, !dbg !6077
  %161 = load void (%"struct.altered_carbon::js::ACLexPosition"*)**, void (%"struct.altered_carbon::js::ACLexPosition"*)*** %160, align 8, !dbg !6077
  %162 = getelementptr inbounds void (%"struct.altered_carbon::js::ACLexPosition"*)*, void (%"struct.altered_carbon::js::ACLexPosition"*)** %161, i64 1, !dbg !6077
  %163 = load void (%"struct.altered_carbon::js::ACLexPosition"*)*, void (%"struct.altered_carbon::js::ACLexPosition"*)** %162, align 8, !dbg !6077
  call void %163(%"struct.altered_carbon::js::ACLexPosition"* %157) #2, !dbg !6077
  br label %164, !dbg !6077

; <label>:164:                                    ; preds = %159, %149
  br label %165, !dbg !6072

; <label>:165:                                    ; preds = %3, %164
  %166 = bitcast %"class.altered_carbon::js::ACAstVariantNode"* %84 to i32 (...)***, !dbg !6028
  store i32 (...)** bitcast (i8** getelementptr inbounds ({ [14 x i8*] }, { [14 x i8*] }* @_ZTVN14altered_carbon2js16ACAstVariantNodeE, i32 0, inrange i32 0, i32 2) to i32 (...)**), i32 (...)*** %166, align 8, !dbg !6028
  %167 = getelementptr inbounds %"class.altered_carbon::js::ACAstVariantNode", %"class.altered_carbon::js::ACAstVariantNode"* %84, i32 0, i32 1, !dbg !6078
  store %"class.std::__1::basic_string"* %167, %"class.std::__1::basic_string"** %57, align 8
  %168 = load %"class.std::__1::basic_string"*, %"class.std::__1::basic_string"** %57, align 8
  store %"class.std::__1::basic_string"* %168, %"class.std::__1::basic_string"** %56, align 8
  %169 = load %"class.std::__1::basic_string"*, %"class.std::__1::basic_string"** %56, align 8
  %170 = bitcast %"class.std::__1::basic_string"* %169 to %"class.std::__1::__basic_string_common"*, !dbg !6079
  %171 = getelementptr inbounds %"class.std::__1::basic_string", %"class.std::__1::basic_string"* %169, i32 0, i32 0, !dbg !6080
  store %"class.std::__1::__compressed_pair.10"* %171, %"class.std::__1::__compressed_pair.10"** %55, align 8
  %172 = load %"class.std::__1::__compressed_pair.10"*, %"class.std::__1::__compressed_pair.10"** %55, align 8
  store %"class.std::__1::__compressed_pair.10"* %172, %"class.std::__1::__compressed_pair.10"** %54, align 8
  %173 = load %"class.std::__1::__compressed_pair.10"*, %"class.std::__1::__compressed_pair.10"** %54, align 8
  %174 = bitcast %"class.std::__1::__compressed_pair.10"* %173 to %"struct.std::__1::__compressed_pair_elem.11"*, !dbg !6081
  store %"struct.std::__1::__compressed_pair_elem.11"* %174, %"struct.std::__1::__compressed_pair_elem.11"** %53, align 8
  %175 = load %"struct.std::__1::__compressed_pair_elem.11"*, %"struct.std::__1::__compressed_pair_elem.11"** %53, align 8
  %176 = getelementptr inbounds %"struct.std::__1::__compressed_pair_elem.11", %"struct.std::__1::__compressed_pair_elem.11"* %175, i32 0, i32 0, !dbg !6082
  %177 = bitcast %"struct.std::__1::basic_string<wchar_t, std::__1::char_traits<wchar_t>, std::__1::allocator<wchar_t> >::__rep"* %176 to i8*, !dbg !6082
  call void @llvm.memset.p0i8.i64(i8* align 8 %177, i8 0, i64 24, i1 false), !dbg !6082
  %178 = bitcast %"class.std::__1::__compressed_pair.10"* %173 to %"struct.std::__1::__compressed_pair_elem.13"*, !dbg !6081
  store %"struct.std::__1::__compressed_pair_elem.13"* %178, %"struct.std::__1::__compressed_pair_elem.13"** %52, align 8
  %179 = load %"struct.std::__1::__compressed_pair_elem.13"*, %"struct.std::__1::__compressed_pair_elem.13"** %52, align 8
  %180 = bitcast %"struct.std::__1::__compressed_pair_elem.13"* %179 to %"class.std::__1::allocator.14"*, !dbg !6083
  store %"class.std::__1::allocator.14"* %180, %"class.std::__1::allocator.14"** %51, align 8
  %181 = load %"class.std::__1::allocator.14"*, %"class.std::__1::allocator.14"** %51, align 8
  store %"class.std::__1::basic_string"* %169, %"class.std::__1::basic_string"** %48, align 8
  %182 = load %"class.std::__1::basic_string"*, %"class.std::__1::basic_string"** %48, align 8
  %183 = getelementptr inbounds %"class.std::__1::basic_string", %"class.std::__1::basic_string"* %182, i32 0, i32 0, !dbg !6084
  store %"class.std::__1::__compressed_pair.10"* %183, %"class.std::__1::__compressed_pair.10"** %47, align 8
  %184 = load %"class.std::__1::__compressed_pair.10"*, %"class.std::__1::__compressed_pair.10"** %47, align 8
  %185 = bitcast %"class.std::__1::__compressed_pair.10"* %184 to %"struct.std::__1::__compressed_pair_elem.11"*, !dbg !6085
  store %"struct.std::__1::__compressed_pair_elem.11"* %185, %"struct.std::__1::__compressed_pair_elem.11"** %46, align 8
  %186 = load %"struct.std::__1::__compressed_pair_elem.11"*, %"struct.std::__1::__compressed_pair_elem.11"** %46, align 8
  %187 = getelementptr inbounds %"struct.std::__1::__compressed_pair_elem.11", %"struct.std::__1::__compressed_pair_elem.11"* %186, i32 0, i32 0, !dbg !6086
  %188 = getelementptr inbounds %"struct.std::__1::basic_string<wchar_t, std::__1::char_traits<wchar_t>, std::__1::allocator<wchar_t> >::__rep", %"struct.std::__1::basic_string<wchar_t, std::__1::char_traits<wchar_t>, std::__1::allocator<wchar_t> >::__rep"* %187, i32 0, i32 0, !dbg !6087
  %189 = bitcast %union.anon* %188 to %"struct.std::__1::basic_string<wchar_t, std::__1::char_traits<wchar_t>, std::__1::allocator<wchar_t> >::__raw"*, !dbg !6087
  %190 = getelementptr inbounds %"struct.std::__1::basic_string<wchar_t, std::__1::char_traits<wchar_t>, std::__1::allocator<wchar_t> >::__raw", %"struct.std::__1::basic_string<wchar_t, std::__1::char_traits<wchar_t>, std::__1::allocator<wchar_t> >::__raw"* %189, i32 0, i32 0, !dbg !6088
  store [3 x i64]* %190, [3 x i64]** %49, align 8, !dbg !5971
  store i32 0, i32* %50, align 4, !dbg !5972
  br label %191, !dbg !6089

; <label>:191:                                    ; preds = %194, %165
  %192 = load i32, i32* %50, align 4, !dbg !6090
  %193 = icmp ult i32 %192, 3, !dbg !6091
  br i1 %193, label %194, label %201, !dbg !6092

; <label>:194:                                    ; preds = %191
  %195 = load [3 x i64]*, [3 x i64]** %49, align 8, !dbg !6093
  %196 = load i32, i32* %50, align 4, !dbg !6094
  %197 = zext i32 %196 to i64, !dbg !6093
  %198 = getelementptr inbounds [3 x i64], [3 x i64]* %195, i64 0, i64 %197, !dbg !6093
  store i64 0, i64* %198, align 8, !dbg !6095
  %199 = load i32, i32* %50, align 4, !dbg !6096
  %200 = add i32 %199, 1, !dbg !6096
  store i32 %200, i32* %50, align 4, !dbg !6096
  br label %191, !dbg !6097, !llvm.loop !5348

; <label>:201:                                    ; preds = %191
  %202 = getelementptr inbounds %"class.altered_carbon::js::ACAstVariantNode", %"class.altered_carbon::js::ACAstVariantNode"* %84, i32 0, i32 3, !dbg !6078
  call void @_ZN14altered_carbon2js11ACLexNumberC1Ev(%"class.altered_carbon::js::ACLexNumber"* %202), !dbg !6078
  %203 = getelementptr inbounds %"class.altered_carbon::js::ACAstVariantNode", %"class.altered_carbon::js::ACAstVariantNode"* %84, i32 0, i32 4, !dbg !6098
  %204 = load %"class.altered_carbon::js::ACLexToken"*, %"class.altered_carbon::js::ACLexToken"** %82, align 8, !dbg !6099
  %205 = getelementptr inbounds %"class.altered_carbon::js::ACLexToken", %"class.altered_carbon::js::ACLexToken"* %204, i32 0, i32 5, !dbg !6100
  store %"class.std::__1::basic_string"* %205, %"class.std::__1::basic_string"** %58, align 8
  %206 = load %"class.std::__1::basic_string"*, %"class.std::__1::basic_string"** %58, align 8, !dbg !6101
  store %"class.std::__1::basic_string"* %203, %"class.std::__1::basic_string"** %67, align 8
  store %"class.std::__1::basic_string"* %206, %"class.std::__1::basic_string"** %68, align 8
  %207 = load %"class.std::__1::basic_string"*, %"class.std::__1::basic_string"** %67, align 8
  %208 = load %"class.std::__1::basic_string"*, %"class.std::__1::basic_string"** %68, align 8, !dbg !6102
  store %"class.std::__1::basic_string"* %207, %"class.std::__1::basic_string"** %65, align 8
  store %"class.std::__1::basic_string"* %208, %"class.std::__1::basic_string"** %66, align 8
  %209 = load %"class.std::__1::basic_string"*, %"class.std::__1::basic_string"** %65, align 8
  %210 = bitcast %"class.std::__1::basic_string"* %209 to %"class.std::__1::__basic_string_common"*, !dbg !6103
  %211 = getelementptr inbounds %"class.std::__1::basic_string", %"class.std::__1::basic_string"* %209, i32 0, i32 0, !dbg !6104
  %212 = load %"class.std::__1::basic_string"*, %"class.std::__1::basic_string"** %66, align 8, !dbg !6105
  %213 = getelementptr inbounds %"class.std::__1::basic_string", %"class.std::__1::basic_string"* %212, i32 0, i32 0, !dbg !6106
  store %"class.std::__1::__compressed_pair.10"* %213, %"class.std::__1::__compressed_pair.10"** %64, align 8
  %214 = load %"class.std::__1::__compressed_pair.10"*, %"class.std::__1::__compressed_pair.10"** %64, align 8, !dbg !6107
  %215 = bitcast %"class.std::__1::__compressed_pair.10"* %211 to i8*, !dbg !6104
  %216 = bitcast %"class.std::__1::__compressed_pair.10"* %214 to i8*, !dbg !6104
  call void @llvm.memcpy.p0i8.p0i8.i64(i8* align 8 %215, i8* align 8 %216, i64 24, i1 false), !dbg !6104
  %217 = load %"class.std::__1::basic_string"*, %"class.std::__1::basic_string"** %66, align 8, !dbg !6108
  store %"class.std::__1::basic_string"* %217, %"class.std::__1::basic_string"** %61, align 8
  %218 = load %"class.std::__1::basic_string"*, %"class.std::__1::basic_string"** %61, align 8
  %219 = getelementptr inbounds %"class.std::__1::basic_string", %"class.std::__1::basic_string"* %218, i32 0, i32 0, !dbg !6109
  store %"class.std::__1::__compressed_pair.10"* %219, %"class.std::__1::__compressed_pair.10"** %60, align 8
  %220 = load %"class.std::__1::__compressed_pair.10"*, %"class.std::__1::__compressed_pair.10"** %60, align 8
  %221 = bitcast %"class.std::__1::__compressed_pair.10"* %220 to %"struct.std::__1::__compressed_pair_elem.11"*, !dbg !6110
  store %"struct.std::__1::__compressed_pair_elem.11"* %221, %"struct.std::__1::__compressed_pair_elem.11"** %59, align 8
  %222 = load %"struct.std::__1::__compressed_pair_elem.11"*, %"struct.std::__1::__compressed_pair_elem.11"** %59, align 8
  %223 = getelementptr inbounds %"struct.std::__1::__compressed_pair_elem.11", %"struct.std::__1::__compressed_pair_elem.11"* %222, i32 0, i32 0, !dbg !6111
  %224 = getelementptr inbounds %"struct.std::__1::basic_string<wchar_t, std::__1::char_traits<wchar_t>, std::__1::allocator<wchar_t> >::__rep", %"struct.std::__1::basic_string<wchar_t, std::__1::char_traits<wchar_t>, std::__1::allocator<wchar_t> >::__rep"* %223, i32 0, i32 0, !dbg !6112
  %225 = bitcast %union.anon* %224 to %"struct.std::__1::basic_string<wchar_t, std::__1::char_traits<wchar_t>, std::__1::allocator<wchar_t> >::__raw"*, !dbg !6112
  %226 = getelementptr inbounds %"struct.std::__1::basic_string<wchar_t, std::__1::char_traits<wchar_t>, std::__1::allocator<wchar_t> >::__raw", %"struct.std::__1::basic_string<wchar_t, std::__1::char_traits<wchar_t>, std::__1::allocator<wchar_t> >::__raw"* %225, i32 0, i32 0, !dbg !6113
  store [3 x i64]* %226, [3 x i64]** %62, align 8, !dbg !5995
  store i32 0, i32* %63, align 4, !dbg !5996
  br label %227, !dbg !6114

; <label>:227:                                    ; preds = %230, %201
  %228 = load i32, i32* %63, align 4, !dbg !6115
  %229 = icmp ult i32 %228, 3, !dbg !6116
  br i1 %229, label %230, label %237, !dbg !6117

; <label>:230:                                    ; preds = %227
  %231 = load [3 x i64]*, [3 x i64]** %62, align 8, !dbg !6118
  %232 = load i32, i32* %63, align 4, !dbg !6119
  %233 = zext i32 %232 to i64, !dbg !6118
  %234 = getelementptr inbounds [3 x i64], [3 x i64]* %231, i64 0, i64 %233, !dbg !6118
  store i64 0, i64* %234, align 8, !dbg !6120
  %235 = load i32, i32* %63, align 4, !dbg !6121
  %236 = add i32 %235, 1, !dbg !6121
  store i32 %236, i32* %63, align 4, !dbg !6121
  br label %227, !dbg !6122, !llvm.loop !5348

; <label>:237:                                    ; preds = %227
  %238 = getelementptr inbounds %"class.altered_carbon::js::ACAstVariantNode", %"class.altered_carbon::js::ACAstVariantNode"* %84, i32 0, i32 6, !dbg !6078
  store %"class.std::__1::unique_ptr.17"* %238, %"class.std::__1::unique_ptr.17"** %79, align 8
  %239 = load %"class.std::__1::unique_ptr.17"*, %"class.std::__1::unique_ptr.17"** %79, align 8
  store %"class.std::__1::unique_ptr.17"* %239, %"class.std::__1::unique_ptr.17"** %77, align 8
  %240 = load %"class.std::__1::unique_ptr.17"*, %"class.std::__1::unique_ptr.17"** %77, align 8
  %241 = getelementptr inbounds %"class.std::__1::unique_ptr.17", %"class.std::__1::unique_ptr.17"* %240, i32 0, i32 0, !dbg !6123
  store %"class.altered_carbon::js::ACLexRegex"* null, %"class.altered_carbon::js::ACLexRegex"** %78, align 8, !dbg !6124
  store %"class.std::__1::__compressed_pair.18"* %241, %"class.std::__1::__compressed_pair.18"** %75, align 8
  store %"class.altered_carbon::js::ACLexRegex"** %78, %"class.altered_carbon::js::ACLexRegex"*** %76, align 8
  %242 = load %"class.std::__1::__compressed_pair.18"*, %"class.std::__1::__compressed_pair.18"** %75, align 8
  %243 = load %"class.altered_carbon::js::ACLexRegex"**, %"class.altered_carbon::js::ACLexRegex"*** %76, align 8, !dbg !6125
  store %"class.std::__1::__compressed_pair.18"* %242, %"class.std::__1::__compressed_pair.18"** %73, align 8
  store %"class.altered_carbon::js::ACLexRegex"** %243, %"class.altered_carbon::js::ACLexRegex"*** %74, align 8
  %244 = load %"class.std::__1::__compressed_pair.18"*, %"class.std::__1::__compressed_pair.18"** %73, align 8
  %245 = bitcast %"class.std::__1::__compressed_pair.18"* %244 to %"struct.std::__1::__compressed_pair_elem.19"*, !dbg !6126
  %246 = load %"class.altered_carbon::js::ACLexRegex"**, %"class.altered_carbon::js::ACLexRegex"*** %74, align 8, !dbg !6127
  store %"class.altered_carbon::js::ACLexRegex"** %246, %"class.altered_carbon::js::ACLexRegex"*** %72, align 8
  %247 = load %"class.altered_carbon::js::ACLexRegex"**, %"class.altered_carbon::js::ACLexRegex"*** %72, align 8, !dbg !6128
  store %"struct.std::__1::__compressed_pair_elem.19"* %245, %"struct.std::__1::__compressed_pair_elem.19"** %70, align 8
  store %"class.altered_carbon::js::ACLexRegex"** %247, %"class.altered_carbon::js::ACLexRegex"*** %71, align 8
  %248 = load %"struct.std::__1::__compressed_pair_elem.19"*, %"struct.std::__1::__compressed_pair_elem.19"** %70, align 8
  %249 = getelementptr inbounds %"struct.std::__1::__compressed_pair_elem.19", %"struct.std::__1::__compressed_pair_elem.19"* %248, i32 0, i32 0, !dbg !6129
  %250 = load %"class.altered_carbon::js::ACLexRegex"**, %"class.altered_carbon::js::ACLexRegex"*** %71, align 8, !dbg !6130
  store %"class.altered_carbon::js::ACLexRegex"** %250, %"class.altered_carbon::js::ACLexRegex"*** %69, align 8
  %251 = load %"class.altered_carbon::js::ACLexRegex"**, %"class.altered_carbon::js::ACLexRegex"*** %69, align 8, !dbg !6131
  %252 = load %"class.altered_carbon::js::ACLexRegex"*, %"class.altered_carbon::js::ACLexRegex"** %251, align 8, !dbg !6132
  store %"class.altered_carbon::js::ACLexRegex"* %252, %"class.altered_carbon::js::ACLexRegex"** %249, align 8, !dbg !6129
  %253 = bitcast %"class.std::__1::__compressed_pair.18"* %244 to %"struct.std::__1::__compressed_pair_elem.28"*, !dbg !6126
  ret void, !dbg !6133
}

; Function Attrs: noinline nounwind optnone ssp uwtable
define void @_ZN14altered_carbon2js16ACAstVariantNodeC1ENSt3__110unique_ptrINS0_13ACLexPositionENS2_14default_deleteIS4_EEEEPNS0_10ACLexTokenE(%"class.altered_carbon::js::ACAstVariantNode"*, %"class.std::__1::unique_ptr"*, %"class.altered_carbon::js::ACLexToken"*) unnamed_addr #1 align 2 !dbg !6134 {
  %4 = alloca %"class.altered_carbon::js::ACAstVariantNode"*, align 8
  %5 = alloca %"class.altered_carbon::js::ACLexToken"*, align 8
  store %"class.altered_carbon::js::ACAstVariantNode"* %0, %"class.altered_carbon::js::ACAstVariantNode"** %4, align 8
  call void @llvm.dbg.declare(metadata %"class.altered_carbon::js::ACAstVariantNode"** %4, metadata !6135, metadata !DIExpression()), !dbg !6136
  call void @llvm.dbg.declare(metadata %"class.std::__1::unique_ptr"* %1, metadata !6137, metadata !DIExpression()), !dbg !6138
  store %"class.altered_carbon::js::ACLexToken"* %2, %"class.altered_carbon::js::ACLexToken"** %5, align 8
  call void @llvm.dbg.declare(metadata %"class.altered_carbon::js::ACLexToken"** %5, metadata !6139, metadata !DIExpression()), !dbg !6140
  %6 = load %"class.altered_carbon::js::ACAstVariantNode"*, %"class.altered_carbon::js::ACAstVariantNode"** %4, align 8
  %7 = load %"class.altered_carbon::js::ACLexToken"*, %"class.altered_carbon::js::ACLexToken"** %5, align 8, !dbg !6141
  call void @_ZN14altered_carbon2js16ACAstVariantNodeC2ENSt3__110unique_ptrINS0_13ACLexPositionENS2_14default_deleteIS4_EEEEPNS0_10ACLexTokenE(%"class.altered_carbon::js::ACAstVariantNode"* %6, %"class.std::__1::unique_ptr"* %1, %"class.altered_carbon::js::ACLexToken"* %7), !dbg !6141
  ret void, !dbg !6142
}

; Function Attrs: noinline nounwind optnone ssp uwtable
define void @_ZN14altered_carbon2js16ACAstVariantNodeC2ENSt3__110unique_ptrINS0_13ACLexPositionENS2_14default_deleteIS4_EEEE(%"class.altered_carbon::js::ACAstVariantNode"*, %"class.std::__1::unique_ptr"*) unnamed_addr #1 align 2 !dbg !6143 {
  %3 = alloca %"struct.std::__1::__compressed_pair_elem.0"*, align 8
  call void @llvm.dbg.declare(metadata %"struct.std::__1::__compressed_pair_elem.0"** %3, metadata !4948, metadata !DIExpression()), !dbg !6144
  %4 = alloca %"class.std::__1::__compressed_pair"*, align 8
  call void @llvm.dbg.declare(metadata %"class.std::__1::__compressed_pair"** %4, metadata !4961, metadata !DIExpression()), !dbg !6150
  %5 = alloca %"class.std::__1::unique_ptr"*, align 8
  call void @llvm.dbg.declare(metadata %"class.std::__1::unique_ptr"** %5, metadata !4964, metadata !DIExpression()), !dbg !6151
  %6 = alloca %"struct.std::__1::default_delete"*, align 8
  call void @llvm.dbg.declare(metadata %"struct.std::__1::default_delete"** %6, metadata !4967, metadata !DIExpression()), !dbg !6152
  %7 = alloca %"struct.altered_carbon::js::ACLexPosition"**, align 8
  call void @llvm.dbg.declare(metadata %"struct.altered_carbon::js::ACLexPosition"*** %7, metadata !4978, metadata !DIExpression()), !dbg !6154
  %8 = alloca %"struct.std::__1::__compressed_pair_elem"*, align 8
  call void @llvm.dbg.declare(metadata %"struct.std::__1::__compressed_pair_elem"** %8, metadata !5007, metadata !DIExpression()), !dbg !6159
  %9 = alloca %"struct.altered_carbon::js::ACLexPosition"**, align 8
  call void @llvm.dbg.declare(metadata %"struct.altered_carbon::js::ACLexPosition"*** %9, metadata !5010, metadata !DIExpression()), !dbg !6160
  %10 = alloca %"struct.std::__1::default_delete"*, align 8
  call void @llvm.dbg.declare(metadata %"struct.std::__1::default_delete"** %10, metadata !4967, metadata !DIExpression()), !dbg !6161
  %11 = alloca %"struct.std::__1::default_delete"*, align 8
  call void @llvm.dbg.declare(metadata %"struct.std::__1::default_delete"** %11, metadata !4967, metadata !DIExpression()), !dbg !6163
  %12 = alloca %"struct.std::__1::__compressed_pair_elem.0"*, align 8
  call void @llvm.dbg.declare(metadata %"struct.std::__1::__compressed_pair_elem.0"** %12, metadata !5023, metadata !DIExpression()), !dbg !6166
  %13 = alloca %"struct.std::__1::default_delete"*, align 8
  call void @llvm.dbg.declare(metadata %"struct.std::__1::default_delete"** %13, metadata !5025, metadata !DIExpression()), !dbg !6167
  %14 = alloca %"struct.altered_carbon::js::ACLexPosition"**, align 8
  call void @llvm.dbg.declare(metadata %"struct.altered_carbon::js::ACLexPosition"*** %14, metadata !4978, metadata !DIExpression()), !dbg !6168
  %15 = alloca %"class.std::__1::__compressed_pair"*, align 8
  call void @llvm.dbg.declare(metadata %"class.std::__1::__compressed_pair"** %15, metadata !5029, metadata !DIExpression()), !dbg !6170
  %16 = alloca %"struct.altered_carbon::js::ACLexPosition"**, align 8
  call void @llvm.dbg.declare(metadata %"struct.altered_carbon::js::ACLexPosition"*** %16, metadata !5031, metadata !DIExpression()), !dbg !6171
  %17 = alloca %"struct.std::__1::default_delete"*, align 8
  call void @llvm.dbg.declare(metadata %"struct.std::__1::default_delete"** %17, metadata !5033, metadata !DIExpression()), !dbg !6172
  %18 = alloca %"class.std::__1::__compressed_pair"*, align 8
  call void @llvm.dbg.declare(metadata %"class.std::__1::__compressed_pair"** %18, metadata !5035, metadata !DIExpression()), !dbg !6173
  %19 = alloca %"struct.altered_carbon::js::ACLexPosition"**, align 8
  call void @llvm.dbg.declare(metadata %"struct.altered_carbon::js::ACLexPosition"*** %19, metadata !5037, metadata !DIExpression()), !dbg !6174
  %20 = alloca %"struct.std::__1::default_delete"*, align 8
  call void @llvm.dbg.declare(metadata %"struct.std::__1::default_delete"** %20, metadata !5039, metadata !DIExpression()), !dbg !6175
  %21 = alloca %"struct.std::__1::__compressed_pair_elem"*, align 8
  call void @llvm.dbg.declare(metadata %"struct.std::__1::__compressed_pair_elem"** %21, metadata !5041, metadata !DIExpression()), !dbg !6176
  %22 = alloca %"class.std::__1::__compressed_pair"*, align 8
  call void @llvm.dbg.declare(metadata %"class.std::__1::__compressed_pair"** %22, metadata !5049, metadata !DIExpression()), !dbg !6180
  %23 = alloca %"struct.std::__1::__compressed_pair_elem"*, align 8
  call void @llvm.dbg.declare(metadata %"struct.std::__1::__compressed_pair_elem"** %23, metadata !5041, metadata !DIExpression()), !dbg !6181
  %24 = alloca %"class.std::__1::__compressed_pair"*, align 8
  call void @llvm.dbg.declare(metadata %"class.std::__1::__compressed_pair"** %24, metadata !5049, metadata !DIExpression()), !dbg !6184
  %25 = alloca %"class.std::__1::unique_ptr"*, align 8
  call void @llvm.dbg.declare(metadata %"class.std::__1::unique_ptr"** %25, metadata !5055, metadata !DIExpression()), !dbg !6185
  %26 = alloca %"struct.altered_carbon::js::ACLexPosition"*, align 8
  call void @llvm.dbg.declare(metadata %"struct.altered_carbon::js::ACLexPosition"** %26, metadata !5057, metadata !DIExpression()), !dbg !6186
  %27 = alloca %"class.std::__1::unique_ptr"*, align 8
  call void @llvm.dbg.declare(metadata %"class.std::__1::unique_ptr"** %27, metadata !5059, metadata !DIExpression()), !dbg !6187
  %28 = alloca %"class.std::__1::unique_ptr"*, align 8
  call void @llvm.dbg.declare(metadata %"class.std::__1::unique_ptr"** %28, metadata !5061, metadata !DIExpression()), !dbg !6188
  %29 = alloca %"struct.altered_carbon::js::ACLexPosition"*, align 8
  %30 = alloca %"class.std::__1::unique_ptr"*, align 8
  call void @llvm.dbg.declare(metadata %"class.std::__1::unique_ptr"** %30, metadata !5063, metadata !DIExpression()), !dbg !6189
  %31 = alloca %"class.std::__1::unique_ptr"*, align 8
  call void @llvm.dbg.declare(metadata %"class.std::__1::unique_ptr"** %31, metadata !5065, metadata !DIExpression()), !dbg !6190
  %32 = alloca %"struct.std::__1::__compressed_pair_elem.0"*, align 8
  call void @llvm.dbg.declare(metadata %"struct.std::__1::__compressed_pair_elem.0"** %32, metadata !4948, metadata !DIExpression()), !dbg !6191
  %33 = alloca %"class.std::__1::__compressed_pair"*, align 8
  call void @llvm.dbg.declare(metadata %"class.std::__1::__compressed_pair"** %33, metadata !4961, metadata !DIExpression()), !dbg !6197
  %34 = alloca %"struct.std::__1::__compressed_pair_elem"*, align 8
  call void @llvm.dbg.declare(metadata %"struct.std::__1::__compressed_pair_elem"** %34, metadata !5041, metadata !DIExpression()), !dbg !6198
  %35 = alloca %"class.std::__1::__compressed_pair"*, align 8
  call void @llvm.dbg.declare(metadata %"class.std::__1::__compressed_pair"** %35, metadata !5049, metadata !DIExpression()), !dbg !6201
  %36 = alloca %"struct.std::__1::default_delete"*, align 8
  call void @llvm.dbg.declare(metadata %"struct.std::__1::default_delete"** %36, metadata !5083, metadata !DIExpression()), !dbg !6202
  %37 = alloca %"struct.altered_carbon::js::ACLexPosition"*, align 8
  call void @llvm.dbg.declare(metadata %"struct.altered_carbon::js::ACLexPosition"** %37, metadata !5088, metadata !DIExpression()), !dbg !6204
  %38 = alloca %"struct.std::__1::__compressed_pair_elem"*, align 8
  call void @llvm.dbg.declare(metadata %"struct.std::__1::__compressed_pair_elem"** %38, metadata !5041, metadata !DIExpression()), !dbg !6205
  %39 = alloca %"class.std::__1::__compressed_pair"*, align 8
  call void @llvm.dbg.declare(metadata %"class.std::__1::__compressed_pair"** %39, metadata !5049, metadata !DIExpression()), !dbg !6208
  %40 = alloca %"class.std::__1::unique_ptr"*, align 8
  call void @llvm.dbg.declare(metadata %"class.std::__1::unique_ptr"** %40, metadata !5094, metadata !DIExpression()), !dbg !6209
  %41 = alloca %"struct.altered_carbon::js::ACLexPosition"*, align 8
  call void @llvm.dbg.declare(metadata %"struct.altered_carbon::js::ACLexPosition"** %41, metadata !5096, metadata !DIExpression()), !dbg !6210
  %42 = alloca %"struct.altered_carbon::js::ACLexPosition"*, align 8
  call void @llvm.dbg.declare(metadata %"struct.altered_carbon::js::ACLexPosition"** %42, metadata !5098, metadata !DIExpression()), !dbg !6211
  %43 = alloca %"class.std::__1::unique_ptr"*, align 8
  call void @llvm.dbg.declare(metadata %"class.std::__1::unique_ptr"** %43, metadata !5100, metadata !DIExpression()), !dbg !6212
  %44 = alloca %"class.std::__1::unique_ptr"*, align 8
  call void @llvm.dbg.declare(metadata %"class.std::__1::unique_ptr"** %44, metadata !5102, metadata !DIExpression()), !dbg !6213
  %45 = alloca %"struct.std::__1::__compressed_pair_elem.11"*, align 8
  call void @llvm.dbg.declare(metadata %"struct.std::__1::__compressed_pair_elem.11"** %45, metadata !5115, metadata !DIExpression()), !dbg !6214
  %46 = alloca %"class.std::__1::__compressed_pair.10"*, align 8
  call void @llvm.dbg.declare(metadata %"class.std::__1::__compressed_pair.10"** %46, metadata !5129, metadata !DIExpression()), !dbg !6220
  %47 = alloca %"class.std::__1::basic_string"*, align 8
  call void @llvm.dbg.declare(metadata %"class.std::__1::basic_string"** %47, metadata !5132, metadata !DIExpression()), !dbg !6221
  %48 = alloca [3 x i64]*, align 8
  call void @llvm.dbg.declare(metadata [3 x i64]** %48, metadata !5135, metadata !DIExpression()), !dbg !6222
  %49 = alloca i32, align 4
  call void @llvm.dbg.declare(metadata i32* %49, metadata !5138, metadata !DIExpression()), !dbg !6223
  %50 = alloca %"class.std::__1::allocator.14"*, align 8
  call void @llvm.dbg.declare(metadata %"class.std::__1::allocator.14"** %50, metadata !5173, metadata !DIExpression()), !dbg !6224
  %51 = alloca %"struct.std::__1::__compressed_pair_elem.13"*, align 8
  call void @llvm.dbg.declare(metadata %"struct.std::__1::__compressed_pair_elem.13"** %51, metadata !5189, metadata !DIExpression()), !dbg !6229
  %52 = alloca %"struct.std::__1::__compressed_pair_elem.11"*, align 8
  call void @llvm.dbg.declare(metadata %"struct.std::__1::__compressed_pair_elem.11"** %52, metadata !5192, metadata !DIExpression()), !dbg !6230
  %53 = alloca %"class.std::__1::__compressed_pair.10"*, align 8
  call void @llvm.dbg.declare(metadata %"class.std::__1::__compressed_pair.10"** %53, metadata !5196, metadata !DIExpression()), !dbg !6232
  %54 = alloca %"class.std::__1::__compressed_pair.10"*, align 8
  call void @llvm.dbg.declare(metadata %"class.std::__1::__compressed_pair.10"** %54, metadata !5198, metadata !DIExpression()), !dbg !6233
  %55 = alloca %"class.std::__1::basic_string"*, align 8
  call void @llvm.dbg.declare(metadata %"class.std::__1::basic_string"** %55, metadata !5200, metadata !DIExpression()), !dbg !6234
  %56 = alloca %"class.std::__1::basic_string"*, align 8
  call void @llvm.dbg.declare(metadata %"class.std::__1::basic_string"** %56, metadata !5202, metadata !DIExpression()), !dbg !6235
  %57 = alloca %"struct.std::__1::__compressed_pair_elem.11"*, align 8
  call void @llvm.dbg.declare(metadata %"struct.std::__1::__compressed_pair_elem.11"** %57, metadata !5115, metadata !DIExpression()), !dbg !6236
  %58 = alloca %"class.std::__1::__compressed_pair.10"*, align 8
  call void @llvm.dbg.declare(metadata %"class.std::__1::__compressed_pair.10"** %58, metadata !5129, metadata !DIExpression()), !dbg !6242
  %59 = alloca %"class.std::__1::basic_string"*, align 8
  call void @llvm.dbg.declare(metadata %"class.std::__1::basic_string"** %59, metadata !5132, metadata !DIExpression()), !dbg !6243
  %60 = alloca [3 x i64]*, align 8
  call void @llvm.dbg.declare(metadata [3 x i64]** %60, metadata !5135, metadata !DIExpression()), !dbg !6244
  %61 = alloca i32, align 4
  call void @llvm.dbg.declare(metadata i32* %61, metadata !5138, metadata !DIExpression()), !dbg !6245
  %62 = alloca %"class.std::__1::allocator.14"*, align 8
  call void @llvm.dbg.declare(metadata %"class.std::__1::allocator.14"** %62, metadata !5173, metadata !DIExpression()), !dbg !6246
  %63 = alloca %"struct.std::__1::__compressed_pair_elem.13"*, align 8
  call void @llvm.dbg.declare(metadata %"struct.std::__1::__compressed_pair_elem.13"** %63, metadata !5189, metadata !DIExpression()), !dbg !6251
  %64 = alloca %"struct.std::__1::__compressed_pair_elem.11"*, align 8
  call void @llvm.dbg.declare(metadata %"struct.std::__1::__compressed_pair_elem.11"** %64, metadata !5192, metadata !DIExpression()), !dbg !6252
  %65 = alloca %"class.std::__1::__compressed_pair.10"*, align 8
  call void @llvm.dbg.declare(metadata %"class.std::__1::__compressed_pair.10"** %65, metadata !5196, metadata !DIExpression()), !dbg !6254
  %66 = alloca %"class.std::__1::__compressed_pair.10"*, align 8
  call void @llvm.dbg.declare(metadata %"class.std::__1::__compressed_pair.10"** %66, metadata !5198, metadata !DIExpression()), !dbg !6255
  %67 = alloca %"class.std::__1::basic_string"*, align 8
  call void @llvm.dbg.declare(metadata %"class.std::__1::basic_string"** %67, metadata !5200, metadata !DIExpression()), !dbg !6256
  %68 = alloca %"class.std::__1::basic_string"*, align 8
  call void @llvm.dbg.declare(metadata %"class.std::__1::basic_string"** %68, metadata !5202, metadata !DIExpression()), !dbg !6257
  %69 = alloca %"class.altered_carbon::js::ACLexRegex"**, align 8
  call void @llvm.dbg.declare(metadata %"class.altered_carbon::js::ACLexRegex"*** %69, metadata !5204, metadata !DIExpression()), !dbg !6258
  %70 = alloca %"struct.std::__1::__compressed_pair_elem.19"*, align 8
  call void @llvm.dbg.declare(metadata %"struct.std::__1::__compressed_pair_elem.19"** %70, metadata !5235, metadata !DIExpression()), !dbg !6265
  %71 = alloca %"class.altered_carbon::js::ACLexRegex"**, align 8
  call void @llvm.dbg.declare(metadata %"class.altered_carbon::js::ACLexRegex"*** %71, metadata !5238, metadata !DIExpression()), !dbg !6266
  %72 = alloca %"class.altered_carbon::js::ACLexRegex"**, align 8
  call void @llvm.dbg.declare(metadata %"class.altered_carbon::js::ACLexRegex"*** %72, metadata !5204, metadata !DIExpression()), !dbg !6267
  %73 = alloca %"class.std::__1::__compressed_pair.18"*, align 8
  call void @llvm.dbg.declare(metadata %"class.std::__1::__compressed_pair.18"** %73, metadata !5242, metadata !DIExpression()), !dbg !6269
  %74 = alloca %"class.altered_carbon::js::ACLexRegex"**, align 8
  call void @llvm.dbg.declare(metadata %"class.altered_carbon::js::ACLexRegex"*** %74, metadata !5245, metadata !DIExpression()), !dbg !6270
  %75 = alloca %"class.std::__1::__compressed_pair.18"*, align 8
  call void @llvm.dbg.declare(metadata %"class.std::__1::__compressed_pair.18"** %75, metadata !5247, metadata !DIExpression()), !dbg !6271
  %76 = alloca %"class.altered_carbon::js::ACLexRegex"**, align 8
  call void @llvm.dbg.declare(metadata %"class.altered_carbon::js::ACLexRegex"*** %76, metadata !5249, metadata !DIExpression()), !dbg !6272
  %77 = alloca %"class.std::__1::unique_ptr.17"*, align 8
  call void @llvm.dbg.declare(metadata %"class.std::__1::unique_ptr.17"** %77, metadata !5251, metadata !DIExpression()), !dbg !6273
  %78 = alloca %"class.altered_carbon::js::ACLexRegex"*, align 8
  %79 = alloca %"class.std::__1::unique_ptr.17"*, align 8
  call void @llvm.dbg.declare(metadata %"class.std::__1::unique_ptr.17"** %79, metadata !5254, metadata !DIExpression()), !dbg !6274
  %80 = alloca %"class.std::__1::unique_ptr"*, align 8
  call void @llvm.dbg.declare(metadata %"class.std::__1::unique_ptr"** %80, metadata !5256, metadata !DIExpression()), !dbg !6275
  %81 = alloca %"class.altered_carbon::js::ACAstVariantNode"*, align 8
  %82 = alloca %"class.std::__1::unique_ptr", align 8
  store %"class.altered_carbon::js::ACAstVariantNode"* %0, %"class.altered_carbon::js::ACAstVariantNode"** %81, align 8
  call void @llvm.dbg.declare(metadata %"class.altered_carbon::js::ACAstVariantNode"** %81, metadata !6277, metadata !DIExpression()), !dbg !6278
  call void @llvm.dbg.declare(metadata %"class.std::__1::unique_ptr"* %1, metadata !6279, metadata !DIExpression()), !dbg !6280
  %83 = load %"class.altered_carbon::js::ACAstVariantNode"*, %"class.altered_carbon::js::ACAstVariantNode"** %81, align 8
  %84 = bitcast %"class.altered_carbon::js::ACAstVariantNode"* %83 to %"class.altered_carbon::js::ACAstBaseNode"*, !dbg !6281
  store %"class.std::__1::unique_ptr"* %1, %"class.std::__1::unique_ptr"** %80, align 8
  %85 = load %"class.std::__1::unique_ptr"*, %"class.std::__1::unique_ptr"** %80, align 8, !dbg !6282
  store %"class.std::__1::unique_ptr"* %82, %"class.std::__1::unique_ptr"** %30, align 8
  store %"class.std::__1::unique_ptr"* %85, %"class.std::__1::unique_ptr"** %31, align 8
  %86 = load %"class.std::__1::unique_ptr"*, %"class.std::__1::unique_ptr"** %30, align 8
  %87 = load %"class.std::__1::unique_ptr"*, %"class.std::__1::unique_ptr"** %31, align 8, !dbg !6283
  store %"class.std::__1::unique_ptr"* %86, %"class.std::__1::unique_ptr"** %27, align 8
  store %"class.std::__1::unique_ptr"* %87, %"class.std::__1::unique_ptr"** %28, align 8
  %88 = load %"class.std::__1::unique_ptr"*, %"class.std::__1::unique_ptr"** %27, align 8
  %89 = getelementptr inbounds %"class.std::__1::unique_ptr", %"class.std::__1::unique_ptr"* %88, i32 0, i32 0, !dbg !6284
  %90 = load %"class.std::__1::unique_ptr"*, %"class.std::__1::unique_ptr"** %28, align 8, !dbg !6285
  store %"class.std::__1::unique_ptr"* %90, %"class.std::__1::unique_ptr"** %25, align 8
  %91 = load %"class.std::__1::unique_ptr"*, %"class.std::__1::unique_ptr"** %25, align 8
  %92 = getelementptr inbounds %"class.std::__1::unique_ptr", %"class.std::__1::unique_ptr"* %91, i32 0, i32 0, !dbg !6286
  store %"class.std::__1::__compressed_pair"* %92, %"class.std::__1::__compressed_pair"** %24, align 8
  %93 = load %"class.std::__1::__compressed_pair"*, %"class.std::__1::__compressed_pair"** %24, align 8
  %94 = bitcast %"class.std::__1::__compressed_pair"* %93 to %"struct.std::__1::__compressed_pair_elem"*, !dbg !6287
  store %"struct.std::__1::__compressed_pair_elem"* %94, %"struct.std::__1::__compressed_pair_elem"** %23, align 8
  %95 = load %"struct.std::__1::__compressed_pair_elem"*, %"struct.std::__1::__compressed_pair_elem"** %23, align 8
  %96 = getelementptr inbounds %"struct.std::__1::__compressed_pair_elem", %"struct.std::__1::__compressed_pair_elem"* %95, i32 0, i32 0, !dbg !6288
  %97 = load %"struct.altered_carbon::js::ACLexPosition"*, %"struct.altered_carbon::js::ACLexPosition"** %96, align 8, !dbg !6289
  store %"struct.altered_carbon::js::ACLexPosition"* %97, %"struct.altered_carbon::js::ACLexPosition"** %26, align 8, !dbg !6186
  %98 = getelementptr inbounds %"class.std::__1::unique_ptr", %"class.std::__1::unique_ptr"* %91, i32 0, i32 0, !dbg !6290
  store %"class.std::__1::__compressed_pair"* %98, %"class.std::__1::__compressed_pair"** %22, align 8
  %99 = load %"class.std::__1::__compressed_pair"*, %"class.std::__1::__compressed_pair"** %22, align 8
  %100 = bitcast %"class.std::__1::__compressed_pair"* %99 to %"struct.std::__1::__compressed_pair_elem"*, !dbg !6291
  store %"struct.std::__1::__compressed_pair_elem"* %100, %"struct.std::__1::__compressed_pair_elem"** %21, align 8
  %101 = load %"struct.std::__1::__compressed_pair_elem"*, %"struct.std::__1::__compressed_pair_elem"** %21, align 8
  %102 = getelementptr inbounds %"struct.std::__1::__compressed_pair_elem", %"struct.std::__1::__compressed_pair_elem"* %101, i32 0, i32 0, !dbg !6292
  store %"struct.altered_carbon::js::ACLexPosition"* null, %"struct.altered_carbon::js::ACLexPosition"** %102, align 8, !dbg !6293
  %103 = load %"struct.altered_carbon::js::ACLexPosition"*, %"struct.altered_carbon::js::ACLexPosition"** %26, align 8, !dbg !6294
  store %"struct.altered_carbon::js::ACLexPosition"* %103, %"struct.altered_carbon::js::ACLexPosition"** %29, align 8, !dbg !6285
  %104 = load %"class.std::__1::unique_ptr"*, %"class.std::__1::unique_ptr"** %28, align 8, !dbg !6295
  store %"class.std::__1::unique_ptr"* %104, %"class.std::__1::unique_ptr"** %5, align 8
  %105 = load %"class.std::__1::unique_ptr"*, %"class.std::__1::unique_ptr"** %5, align 8
  %106 = getelementptr inbounds %"class.std::__1::unique_ptr", %"class.std::__1::unique_ptr"* %105, i32 0, i32 0, !dbg !6296
  store %"class.std::__1::__compressed_pair"* %106, %"class.std::__1::__compressed_pair"** %4, align 8
  %107 = load %"class.std::__1::__compressed_pair"*, %"class.std::__1::__compressed_pair"** %4, align 8
  %108 = bitcast %"class.std::__1::__compressed_pair"* %107 to %"struct.std::__1::__compressed_pair_elem.0"*, !dbg !6297
  store %"struct.std::__1::__compressed_pair_elem.0"* %108, %"struct.std::__1::__compressed_pair_elem.0"** %3, align 8
  %109 = load %"struct.std::__1::__compressed_pair_elem.0"*, %"struct.std::__1::__compressed_pair_elem.0"** %3, align 8
  %110 = bitcast %"struct.std::__1::__compressed_pair_elem.0"* %109 to %"struct.std::__1::default_delete"*, !dbg !6298
  store %"struct.std::__1::default_delete"* %110, %"struct.std::__1::default_delete"** %6, align 8
  %111 = load %"struct.std::__1::default_delete"*, %"struct.std::__1::default_delete"** %6, align 8, !dbg !6299
  store %"class.std::__1::__compressed_pair"* %89, %"class.std::__1::__compressed_pair"** %18, align 8
  store %"struct.altered_carbon::js::ACLexPosition"** %29, %"struct.altered_carbon::js::ACLexPosition"*** %19, align 8
  store %"struct.std::__1::default_delete"* %111, %"struct.std::__1::default_delete"** %20, align 8
  %112 = load %"class.std::__1::__compressed_pair"*, %"class.std::__1::__compressed_pair"** %18, align 8
  %113 = load %"struct.altered_carbon::js::ACLexPosition"**, %"struct.altered_carbon::js::ACLexPosition"*** %19, align 8, !dbg !6300
  %114 = load %"struct.std::__1::default_delete"*, %"struct.std::__1::default_delete"** %20, align 8, !dbg !6300
  store %"class.std::__1::__compressed_pair"* %112, %"class.std::__1::__compressed_pair"** %15, align 8
  store %"struct.altered_carbon::js::ACLexPosition"** %113, %"struct.altered_carbon::js::ACLexPosition"*** %16, align 8
  store %"struct.std::__1::default_delete"* %114, %"struct.std::__1::default_delete"** %17, align 8
  %115 = load %"class.std::__1::__compressed_pair"*, %"class.std::__1::__compressed_pair"** %15, align 8
  %116 = bitcast %"class.std::__1::__compressed_pair"* %115 to %"struct.std::__1::__compressed_pair_elem"*, !dbg !6301
  %117 = load %"struct.altered_carbon::js::ACLexPosition"**, %"struct.altered_carbon::js::ACLexPosition"*** %16, align 8, !dbg !6302
  store %"struct.altered_carbon::js::ACLexPosition"** %117, %"struct.altered_carbon::js::ACLexPosition"*** %14, align 8
  %118 = load %"struct.altered_carbon::js::ACLexPosition"**, %"struct.altered_carbon::js::ACLexPosition"*** %14, align 8, !dbg !6303
  store %"struct.std::__1::__compressed_pair_elem"* %116, %"struct.std::__1::__compressed_pair_elem"** %8, align 8
  store %"struct.altered_carbon::js::ACLexPosition"** %118, %"struct.altered_carbon::js::ACLexPosition"*** %9, align 8
  %119 = load %"struct.std::__1::__compressed_pair_elem"*, %"struct.std::__1::__compressed_pair_elem"** %8, align 8
  %120 = getelementptr inbounds %"struct.std::__1::__compressed_pair_elem", %"struct.std::__1::__compressed_pair_elem"* %119, i32 0, i32 0, !dbg !6304
  %121 = load %"struct.altered_carbon::js::ACLexPosition"**, %"struct.altered_carbon::js::ACLexPosition"*** %9, align 8, !dbg !6305
  store %"struct.altered_carbon::js::ACLexPosition"** %121, %"struct.altered_carbon::js::ACLexPosition"*** %7, align 8
  %122 = load %"struct.altered_carbon::js::ACLexPosition"**, %"struct.altered_carbon::js::ACLexPosition"*** %7, align 8, !dbg !6306
  %123 = load %"struct.altered_carbon::js::ACLexPosition"*, %"struct.altered_carbon::js::ACLexPosition"** %122, align 8, !dbg !6307
  store %"struct.altered_carbon::js::ACLexPosition"* %123, %"struct.altered_carbon::js::ACLexPosition"** %120, align 8, !dbg !6304
  %124 = bitcast %"class.std::__1::__compressed_pair"* %115 to %"struct.std::__1::__compressed_pair_elem.0"*, !dbg !6301
  %125 = load %"struct.std::__1::default_delete"*, %"struct.std::__1::default_delete"** %17, align 8, !dbg !6308
  store %"struct.std::__1::default_delete"* %125, %"struct.std::__1::default_delete"** %10, align 8
  %126 = load %"struct.std::__1::default_delete"*, %"struct.std::__1::default_delete"** %10, align 8, !dbg !6309
  store %"struct.std::__1::__compressed_pair_elem.0"* %124, %"struct.std::__1::__compressed_pair_elem.0"** %12, align 8
  store %"struct.std::__1::default_delete"* %126, %"struct.std::__1::default_delete"** %13, align 8
  %127 = load %"struct.std::__1::__compressed_pair_elem.0"*, %"struct.std::__1::__compressed_pair_elem.0"** %12, align 8
  %128 = bitcast %"struct.std::__1::__compressed_pair_elem.0"* %127 to %"struct.std::__1::default_delete"*, !dbg !6310
  %129 = load %"struct.std::__1::default_delete"*, %"struct.std::__1::default_delete"** %13, align 8, !dbg !6311
  store %"struct.std::__1::default_delete"* %129, %"struct.std::__1::default_delete"** %11, align 8
  %130 = load %"struct.std::__1::default_delete"*, %"struct.std::__1::default_delete"** %11, align 8, !dbg !6312
  call void @_ZN14altered_carbon2js13ACAstBaseNodeC2ENSt3__110unique_ptrINS0_13ACLexPositionENS2_14default_deleteIS4_EEEENS1_11AstNodeTypeENS1_14AstNodeSubTypeE(%"class.altered_carbon::js::ACAstBaseNode"* %84, %"class.std::__1::unique_ptr"* %82, i32 6, i32 606), !dbg !6313
  store %"class.std::__1::unique_ptr"* %82, %"class.std::__1::unique_ptr"** %44, align 8
  %131 = load %"class.std::__1::unique_ptr"*, %"class.std::__1::unique_ptr"** %44, align 8
  store %"class.std::__1::unique_ptr"* %131, %"class.std::__1::unique_ptr"** %43, align 8
  %132 = load %"class.std::__1::unique_ptr"*, %"class.std::__1::unique_ptr"** %43, align 8
  store %"class.std::__1::unique_ptr"* %132, %"class.std::__1::unique_ptr"** %40, align 8
  store %"struct.altered_carbon::js::ACLexPosition"* null, %"struct.altered_carbon::js::ACLexPosition"** %41, align 8
  %133 = load %"class.std::__1::unique_ptr"*, %"class.std::__1::unique_ptr"** %40, align 8
  %134 = getelementptr inbounds %"class.std::__1::unique_ptr", %"class.std::__1::unique_ptr"* %133, i32 0, i32 0, !dbg !6314
  store %"class.std::__1::__compressed_pair"* %134, %"class.std::__1::__compressed_pair"** %39, align 8
  %135 = load %"class.std::__1::__compressed_pair"*, %"class.std::__1::__compressed_pair"** %39, align 8
  %136 = bitcast %"class.std::__1::__compressed_pair"* %135 to %"struct.std::__1::__compressed_pair_elem"*, !dbg !6315
  store %"struct.std::__1::__compressed_pair_elem"* %136, %"struct.std::__1::__compressed_pair_elem"** %38, align 8
  %137 = load %"struct.std::__1::__compressed_pair_elem"*, %"struct.std::__1::__compressed_pair_elem"** %38, align 8
  %138 = getelementptr inbounds %"struct.std::__1::__compressed_pair_elem", %"struct.std::__1::__compressed_pair_elem"* %137, i32 0, i32 0, !dbg !6316
  %139 = load %"struct.altered_carbon::js::ACLexPosition"*, %"struct.altered_carbon::js::ACLexPosition"** %138, align 8, !dbg !6317
  store %"struct.altered_carbon::js::ACLexPosition"* %139, %"struct.altered_carbon::js::ACLexPosition"** %42, align 8, !dbg !6211
  %140 = load %"struct.altered_carbon::js::ACLexPosition"*, %"struct.altered_carbon::js::ACLexPosition"** %41, align 8, !dbg !6318
  %141 = getelementptr inbounds %"class.std::__1::unique_ptr", %"class.std::__1::unique_ptr"* %133, i32 0, i32 0, !dbg !6319
  store %"class.std::__1::__compressed_pair"* %141, %"class.std::__1::__compressed_pair"** %35, align 8
  %142 = load %"class.std::__1::__compressed_pair"*, %"class.std::__1::__compressed_pair"** %35, align 8
  %143 = bitcast %"class.std::__1::__compressed_pair"* %142 to %"struct.std::__1::__compressed_pair_elem"*, !dbg !6320
  store %"struct.std::__1::__compressed_pair_elem"* %143, %"struct.std::__1::__compressed_pair_elem"** %34, align 8
  %144 = load %"struct.std::__1::__compressed_pair_elem"*, %"struct.std::__1::__compressed_pair_elem"** %34, align 8
  %145 = getelementptr inbounds %"struct.std::__1::__compressed_pair_elem", %"struct.std::__1::__compressed_pair_elem"* %144, i32 0, i32 0, !dbg !6321
  store %"struct.altered_carbon::js::ACLexPosition"* %140, %"struct.altered_carbon::js::ACLexPosition"** %145, align 8, !dbg !6322
  %146 = load %"struct.altered_carbon::js::ACLexPosition"*, %"struct.altered_carbon::js::ACLexPosition"** %42, align 8, !dbg !6323
  %147 = icmp ne %"struct.altered_carbon::js::ACLexPosition"* %146, null, !dbg !6323
  br i1 %147, label %148, label %164, !dbg !6324

; <label>:148:                                    ; preds = %2
  %149 = getelementptr inbounds %"class.std::__1::unique_ptr", %"class.std::__1::unique_ptr"* %133, i32 0, i32 0, !dbg !6325
