; ModuleID = 'temp.bc'
source_filename = "../ac_js_initializer_parser.cc"
target datalayout = "e-m:o-i64:64-f80:128-n8:16:32:64-S128"
target triple = "x86_64-apple-macosx10.13.0"

%"class.altered_carbon::js::NullStream" = type { %"class.altered_carbon::js::NullStreamBuf", %"class.std::__1::basic_ostream.base", %"class.std::__1::basic_ios.base" }
%"class.altered_carbon::js::NullStreamBuf" = type { %"class.std::__1::basic_streambuf", [256 x i8] }
%"class.std::__1::basic_streambuf" = type { i32 (...)**, %"class.std::__1::locale", i8*, i8*, i8*, i8*, i8*, i8* }
%"class.std::__1::locale" = type { %"class.std::__1::locale::__imp"* }
%"class.std::__1::locale::__imp" = type opaque
%"class.std::__1::basic_ostream.base" = type { i32 (...)** }
%"class.std::__1::basic_ios.base" = type <{ %"class.std::__1::ios_base", %"class.std::__1::basic_ostream"*, i32 }>
%"class.std::__1::ios_base" = type { i32 (...)**, i32, i64, i64, i32, i32, i8*, i8*, void (i32, %"class.std::__1::ios_base"*, i32)**, i32*, i64, i64, i64*, i64, i64, i8**, i64, i64 }
%"class.std::__1::basic_ostream" = type { i32 (...)**, %"class.std::__1::basic_ios.base" }
%"class.std::__1::locale::id" = type <{ %"struct.std::__1::once_flag", i32, [4 x i8] }>
%"struct.std::__1::once_flag" = type { i64 }
%"class.std::__1::basic_ios" = type <{ %"class.std::__1::ios_base", %"class.std::__1::basic_ostream"*, i32, [4 x i8] }>
%"class.std::__1::unique_ptr.29" = type { %"class.std::__1::__compressed_pair.30" }
%"class.std::__1::__compressed_pair.30" = type { %"struct.std::__1::__compressed_pair_elem.31" }
%"struct.std::__1::__compressed_pair_elem.31" = type { %"class.altered_carbon::js::ACAstBaseNode"* }
%"class.altered_carbon::js::ACAstBaseNode" = type { i32 (...)**, %"class.std::__1::unique_ptr.32", i32, i32, %"class.std::__1::vector.38" }
%"class.std::__1::unique_ptr.32" = type { %"class.std::__1::__compressed_pair.33" }
%"class.std::__1::__compressed_pair.33" = type { %"struct.std::__1::__compressed_pair_elem.34" }
%"struct.std::__1::__compressed_pair_elem.34" = type { %"struct.altered_carbon::js::ACLexPosition"* }
%"struct.altered_carbon::js::ACLexPosition" = type { i32 (...)**, i64, i32, i64 }
%"class.std::__1::vector.38" = type { %"class.std::__1::__vector_base.39" }
%"class.std::__1::__vector_base.39" = type { %"class.std::__1::unique_ptr.29"*, %"class.std::__1::unique_ptr.29"*, %"class.std::__1::__compressed_pair.40" }
%"class.std::__1::__compressed_pair.40" = type { %"struct.std::__1::__compressed_pair_elem.41" }
%"struct.std::__1::__compressed_pair_elem.41" = type { %"class.std::__1::unique_ptr.29"* }
%"class.altered_carbon::js::ACAstBuilder" = type { %"class.altered_carbon::js::ACJsParser", %"class.std::__1::unique_ptr.26" }
%"class.altered_carbon::js::ACJsParser" = type { i32 (...)**, i8*, %"class.std::__1::basic_string", i8*, i8, i32, i8, i8, i32, i32, %"class.altered_carbon::js::ACLexState", %"struct.altered_carbon::js::ACLexPosition", %"struct.altered_carbon::js::ACLexPosition", %"struct.altered_carbon::js::ACLexPosition", %"class.std::__1::unique_ptr" }
%"class.std::__1::basic_string" = type { %"class.std::__1::__compressed_pair" }
%"class.std::__1::__compressed_pair" = type { %"struct.std::__1::__compressed_pair_elem" }
%"struct.std::__1::__compressed_pair_elem" = type { %"struct.std::__1::basic_string<char, std::__1::char_traits<char>, std::__1::allocator<char> >::__rep" }
%"struct.std::__1::basic_string<char, std::__1::char_traits<char>, std::__1::allocator<char> >::__rep" = type { %union.anon }
%union.anon = type { %"struct.std::__1::basic_string<char, std::__1::char_traits<char>, std::__1::allocator<char> >::__long" }
%"struct.std::__1::basic_string<char, std::__1::char_traits<char>, std::__1::allocator<char> >::__long" = type { i64, i64, i8* }
%"class.altered_carbon::js::ACLexState" = type { i32 (...)**, i32, %"struct.altered_carbon::js::BlockLevelState", i8, i8, %"class.std::__1::map", %"class.std::__1::vector" }
%"struct.altered_carbon::js::BlockLevelState" = type { i8, i8, i8 }
%"class.std::__1::map" = type { %"class.std::__1::__tree" }
%"class.std::__1::__tree" = type { %"class.std::__1::__tree_end_node"*, %"class.std::__1::__compressed_pair.2", %"class.std::__1::__compressed_pair.7" }
%"class.std::__1::__tree_end_node" = type { %"class.std::__1::__tree_node_base"* }
%"class.std::__1::__tree_node_base" = type <{ %"class.std::__1::__tree_end_node", %"class.std::__1::__tree_node_base"*, %"class.std::__1::__tree_end_node"*, i8, [7 x i8] }>
%"class.std::__1::__compressed_pair.2" = type { %"struct.std::__1::__compressed_pair_elem.3" }
%"struct.std::__1::__compressed_pair_elem.3" = type { %"class.std::__1::__tree_end_node" }
%"class.std::__1::__compressed_pair.7" = type { %"struct.std::__1::__compressed_pair_elem.8" }
%"struct.std::__1::__compressed_pair_elem.8" = type { i64 }
%"class.std::__1::vector" = type { %"class.std::__1::__vector_base" }
%"class.std::__1::__vector_base" = type { i32*, i32*, %"class.std::__1::__compressed_pair.10" }
%"class.std::__1::__compressed_pair.10" = type { %"struct.std::__1::__compressed_pair_elem.11" }
%"struct.std::__1::__compressed_pair_elem.11" = type { i32* }
%"class.std::__1::unique_ptr" = type { %"class.std::__1::__compressed_pair.15" }
%"class.std::__1::__compressed_pair.15" = type { %"struct.std::__1::__compressed_pair_elem.16" }
%"struct.std::__1::__compressed_pair_elem.16" = type { %"class.altered_carbon::js::ACLexToken"* }
%"class.altered_carbon::js::ACLexToken" = type { i32 (...)**, i32, i64, %"class.std::__1::basic_string_view", %"struct.altered_carbon::js::ACLexPosition", %"class.std::__1::basic_string.17" }
%"class.std::__1::basic_string_view" = type { i8*, i64 }
%"class.std::__1::basic_string.17" = type { %"class.std::__1::__compressed_pair.18" }
%"class.std::__1::__compressed_pair.18" = type { %"struct.std::__1::__compressed_pair_elem.19" }
%"struct.std::__1::__compressed_pair_elem.19" = type { %"struct.std::__1::basic_string<wchar_t, std::__1::char_traits<wchar_t>, std::__1::allocator<wchar_t> >::__rep" }
%"struct.std::__1::basic_string<wchar_t, std::__1::char_traits<wchar_t>, std::__1::allocator<wchar_t> >::__rep" = type { %union.anon.20 }
%union.anon.20 = type { %"struct.std::__1::basic_string<wchar_t, std::__1::char_traits<wchar_t>, std::__1::allocator<wchar_t> >::__long" }
%"struct.std::__1::basic_string<wchar_t, std::__1::char_traits<wchar_t>, std::__1::allocator<wchar_t> >::__long" = type { i64, i64, i32* }
%"class.std::__1::unique_ptr.26" = type { %"class.std::__1::__compressed_pair.27" }
%"class.std::__1::__compressed_pair.27" = type { %"struct.std::__1::__compressed_pair_elem.28" }
%"struct.std::__1::__compressed_pair_elem.28" = type { %"class.altered_carbon::js::ACJsState"* }
%"class.altered_carbon::js::ACJsState" = type { i32 (...)**, i8, i8, %"class.std::__1::unique_ptr.29" }
%"struct.std::__1::__compressed_pair_elem.45" = type { i8 }
%"struct.std::__1::default_delete.46" = type { i8 }
%"struct.std::__1::__compressed_pair_elem.25" = type { i8 }
%"struct.std::__1::default_delete" = type { i8 }
%"struct.std::__1::__compressed_pair_elem.66" = type { %"class.altered_carbon::js::ACAstCollectionNode"* }
%"class.altered_carbon::js::ACAstCollectionNode" = type { %"class.altered_carbon::js::ACAstBaseNode" }
%"class.std::__1::__compressed_pair.65" = type { %"struct.std::__1::__compressed_pair_elem.66" }
%"class.std::__1::unique_ptr.64" = type { %"class.std::__1::__compressed_pair.65" }
%"struct.std::__1::__compressed_pair_elem.42" = type { i8 }
%"class.std::__1::allocator.43" = type { i8 }
%"struct.std::__1::__has_construct" = type { i8 }
%"struct.std::__1::vector<std::__1::unique_ptr<altered_carbon::js::ACAstBaseNode, std::__1::default_delete<altered_carbon::js::ACAstBaseNode> >, std::__1::allocator<std::__1::unique_ptr<altered_carbon::js::ACAstBaseNode, std::__1::default_delete<altered_carbon::js::ACAstBaseNode> > > >::__RAII_IncreaseAnnotator" = type { i8 }
%"struct.std::__1::__compressed_pair_elem.35" = type { i8 }
%"struct.std::__1::default_delete.36" = type { i8 }
%"struct.std::__1::__compressed_pair_elem.61" = type { i8 }
%"class.std::__1::__compressed_pair.52" = type { %"struct.std::__1::__compressed_pair_elem.53" }
%"struct.std::__1::__compressed_pair_elem.53" = type { %"class.altered_carbon::js::ACAstVariantNode"* }
%"class.altered_carbon::js::ACAstVariantNode" = type { %"class.altered_carbon::js::ACAstBaseNode", %"class.std::__1::basic_string.17", i8, %"class.altered_carbon::js::ACLexNumber", %"class.std::__1::basic_string.17", i32, %"class.std::__1::unique_ptr.55" }
%"class.altered_carbon::js::ACLexNumber" = type { i32 (...)**, i8, %union.anon.54 }
%union.anon.54 = type { double }
%"class.std::__1::unique_ptr.55" = type { %"class.std::__1::__compressed_pair.56" }
%"class.std::__1::__compressed_pair.56" = type { %"struct.std::__1::__compressed_pair_elem.57" }
%"struct.std::__1::__compressed_pair_elem.57" = type { %"class.altered_carbon::js::ACLexRegex"* }
%"class.altered_carbon::js::ACLexRegex" = type <{ i32 (...)**, %"class.std::__1::basic_string", i8, i8, i8, [5 x i8] }>
%"struct.std::__1::default_delete.62" = type { i8 }
%"class.std::__1::unique_ptr.51" = type { %"class.std::__1::__compressed_pair.52" }
%"struct.std::__1::__compressed_pair_elem.67" = type { i8 }
%"struct.std::__1::default_delete.68" = type { i8 }
%"class.std::__1::__vector_base_common" = type { i8 }
%"struct.std::__1::basic_string<char, std::__1::char_traits<char>, std::__1::allocator<char> >::__short" = type { %union.anon.0, [23 x i8] }
%union.anon.0 = type { i8 }
%"struct.std::__1::integral_constant" = type { i8 }
%"struct.std::__1::__compressed_pair_elem.72" = type { %"class.altered_carbon::js::ACAstObjectInitProperty"* }
%"class.altered_carbon::js::ACAstObjectInitProperty" = type <{ %"class.altered_carbon::js::ACAstBaseNode", %"class.std::__1::unique_ptr.29", %"class.std::__1::unique_ptr.29", i8, i8, i8, [5 x i8] }>
%"class.std::__1::__compressed_pair.71" = type { %"struct.std::__1::__compressed_pair_elem.72" }
%"class.std::__1::unique_ptr.70" = type { %"class.std::__1::__compressed_pair.71" }
%"struct.std::__1::__compressed_pair_elem.73" = type { i8 }
%"struct.std::__1::default_delete.74" = type { i8 }
%"struct.std::__1::__compressed_pair_elem.78" = type { %"class.altered_carbon::js::ACAstObjectNode"* }
%"class.altered_carbon::js::ACAstObjectNode" = type { %"class.altered_carbon::js::ACAstBaseNode" }
%"class.std::__1::__compressed_pair.77" = type { %"struct.std::__1::__compressed_pair_elem.78" }
%"class.std::__1::unique_ptr.76" = type { %"class.std::__1::__compressed_pair.77" }
%"struct.std::__1::__compressed_pair_elem.79" = type { i8 }
%"struct.std::__1::default_delete.80" = type { i8 }
%"struct.std::__1::__has_destroy" = type { i8 }
%"class.std::__1::ctype" = type <{ %"class.std::__1::locale::facet", i32*, i8, [7 x i8] }>
%"class.std::__1::locale::facet" = type { %"class.std::__1::__shared_count" }
%"class.std::__1::__shared_count" = type { i32 (...)**, i64 }
%"class.std::__1::ostreambuf_iterator" = type { %"class.std::__1::basic_streambuf"* }
%"class.std::__1::basic_ostream<char, std::__1::char_traits<char> >::sentry" = type { i8, %"class.std::__1::basic_ostream"* }
%"struct.std::__1::iterator" = type { i8 }
%"class.std::__1::allocator" = type { i8 }
%"struct.std::__1::__compressed_pair_elem.1" = type { i8 }
%"class.std::__1::__basic_string_common" = type { i8 }
%"struct.std::__1::__less" = type { i8 }
%"struct.std::__1::__split_buffer" = type { %"class.std::__1::unique_ptr.29"*, %"class.std::__1::unique_ptr.29"*, %"class.std::__1::unique_ptr.29"*, %"class.std::__1::__compressed_pair.82" }
%"class.std::__1::__compressed_pair.82" = type { %"struct.std::__1::__compressed_pair_elem.41", %"struct.std::__1::__compressed_pair_elem.83" }
%"struct.std::__1::__compressed_pair_elem.83" = type { %"class.std::__1::allocator.43"* }
%"struct.std::__1::__has_max_size" = type { i8 }
%"class.std::__1::__split_buffer_common" = type { i8 }

@_ZN14altered_carbon2jsL9BlackHoleE = internal global %"class.altered_carbon::js::NullStream" zeroinitializer, align 8, !dbg !0
@__dso_handle = external hidden global i8
@.str = private unnamed_addr constant [1 x i8] zeroinitializer, align 1
@.str.1 = private unnamed_addr constant [9 x i8] c"[ACLex] \00", align 1
@.str.2 = private unnamed_addr constant [2 x i8] c"(\00", align 1
@.str.3 = private unnamed_addr constant [3 x i8] c") \00", align 1
@.str.4 = private unnamed_addr constant [34 x i8] c"ACAstBuilder::parseArrayInit <B>:\00", align 1
@.str.5 = private unnamed_addr constant [10 x i8] c"\1B[1m\1B[31m\00", align 1
@.str.6 = private unnamed_addr constant [5 x i8] c"\1B[0m\00", align 1
@.str.7 = private unnamed_addr constant [5 x i8] c"ERR-\00", align 1
@.str.8 = private unnamed_addr constant [24 x i8] c" JS Compilation Error (\00", align 1
@.str.9 = private unnamed_addr constant [30 x i8] c"Collection begin '[' expected\00", align 1
@.str.10 = private unnamed_addr constant [4 x i8] c").\0A\00", align 1
@.str.11 = private unnamed_addr constant [33 x i8] c"spread operator is not supported\00", align 1
@.str.12 = private unnamed_addr constant [27 x i8] c"',' after element expected\00", align 1
@.str.13 = private unnamed_addr constant [26 x i8] c"Object begin ']' expected\00", align 1
@.str.14 = private unnamed_addr constant [34 x i8] c"ACAstBuilder::parseArrayInit <E>:\00", align 1
@.str.15 = private unnamed_addr constant [42 x i8] c"ACAstBuilder::parseObjectPropertyKey <B>:\00", align 1
@.str.16 = private unnamed_addr constant [36 x i8] c"closing square bracket ']' expected\00", align 1
@.str.17 = private unnamed_addr constant [19 x i8] c"Invalid object key\00", align 1
@.str.18 = private unnamed_addr constant [42 x i8] c"ACAstBuilder::parseObjectPropertyKey <E>:\00", align 1
@.str.19 = private unnamed_addr constant [39 x i8] c"ACAstBuilder::parseObjectProperty <B>:\00", align 1
@.str.20 = private unnamed_addr constant [42 x i8] c"definition key as method is not supported\00", align 1
@.str.21 = private unnamed_addr constant [35 x i8] c"Unexpected token in property value\00", align 1
@.str.22 = private unnamed_addr constant [39 x i8] c"ACAstBuilder::parseObjectProperty <E>:\00", align 1
@.str.23 = private unnamed_addr constant [35 x i8] c"ACAstBuilder::parseObjectInit <B>:\00", align 1
@.str.24 = private unnamed_addr constant [26 x i8] c"Object begin '{' expected\00", align 1
@.str.25 = private unnamed_addr constant [27 x i8] c"',' after prperty expected\00", align 1
@.str.26 = private unnamed_addr constant [26 x i8] c"Object begin '}' expected\00", align 1
@.str.27 = private unnamed_addr constant [35 x i8] c"ACAstBuilder::parseObjectInit <E>:\00", align 1
@_ZTVN14altered_carbon2js10NullStreamE = linkonce_odr unnamed_addr constant { [17 x i8*], [5 x i8*], [5 x i8*] } { [17 x i8*] [i8* inttoptr (i64 328 to i8*), i8* null, i8* bitcast ({ i8*, i8*, i32, i32, i8*, i64, i8*, i64 }* @_ZTIN14altered_carbon2js10NullStreamE to i8*), i8* bitcast (void (%"class.altered_carbon::js::NullStream"*)* @_ZN14altered_carbon2js10NullStreamD1Ev to i8*), i8* bitcast (void (%"class.altered_carbon::js::NullStream"*)* @_ZN14altered_carbon2js10NullStreamD0Ev to i8*), i8* bitcast (void (%"class.std::__1::basic_streambuf"*, %"class.std::__1::locale"*)* @_ZNSt3__115basic_streambufIcNS_11char_traitsIcEEE5imbueERKNS_6localeE to i8*), i8* bitcast (%"class.std::__1::basic_streambuf"* (%"class.std::__1::basic_streambuf"*, i8*, i64)* @_ZNSt3__115basic_streambufIcNS_11char_traitsIcEEE6setbufEPcl to i8*), i8* bitcast (void ()* @_ZNSt3__115basic_streambufIcNS_11char_traitsIcEEE7seekoffExNS_8ios_base7seekdirEj to i8*), i8* bitcast (void ()* @_ZNSt3__115basic_streambufIcNS_11char_traitsIcEEE7seekposENS_4fposI11__mbstate_tEEj to i8*), i8* bitcast (i32 (%"class.std::__1::basic_streambuf"*)* @_ZNSt3__115basic_streambufIcNS_11char_traitsIcEEE4syncEv to i8*), i8* bitcast (i64 (%"class.std::__1::basic_streambuf"*)* @_ZNSt3__115basic_streambufIcNS_11char_traitsIcEEE9showmanycEv to i8*), i8* bitcast (i64 (%"class.std::__1::basic_streambuf"*, i8*, i64)* @_ZNSt3__115basic_streambufIcNS_11char_traitsIcEEE6xsgetnEPcl to i8*), i8* bitcast (i32 (%"class.std::__1::basic_streambuf"*)* @_ZNSt3__115basic_streambufIcNS_11char_traitsIcEEE9underflowEv to i8*), i8* bitcast (i32 (%"class.std::__1::basic_streambuf"*)* @_ZNSt3__115basic_streambufIcNS_11char_traitsIcEEE5uflowEv to i8*), i8* bitcast (i32 (%"class.std::__1::basic_streambuf"*, i32)* @_ZNSt3__115basic_streambufIcNS_11char_traitsIcEEE9pbackfailEi to i8*), i8* bitcast (i64 (%"class.std::__1::basic_streambuf"*, i8*, i64)* @_ZNSt3__115basic_streambufIcNS_11char_traitsIcEEE6xsputnEPKcl to i8*), i8* bitcast (i32 (%"class.altered_carbon::js::NullStreamBuf"*, i32)* @_ZN14altered_carbon2js13NullStreamBuf8overflowEi to i8*)], [5 x i8*] [i8* inttoptr (i64 8 to i8*), i8* inttoptr (i64 -320 to i8*), i8* bitcast ({ i8*, i8*, i32, i32, i8*, i64, i8*, i64 }* @_ZTIN14altered_carbon2js10NullStreamE to i8*), i8* bitcast (void (%"class.altered_carbon::js::NullStream"*)* @_ZThn320_N14altered_carbon2js10NullStreamD1Ev to i8*), i8* bitcast (void (%"class.altered_carbon::js::NullStream"*)* @_ZThn320_N14altered_carbon2js10NullStreamD0Ev to i8*)], [5 x i8*] [i8* inttoptr (i64 -328 to i8*), i8* inttoptr (i64 -328 to i8*), i8* bitcast ({ i8*, i8*, i32, i32, i8*, i64, i8*, i64 }* @_ZTIN14altered_carbon2js10NullStreamE to i8*), i8* bitcast (void (%"class.altered_carbon::js::NullStream"*)* @_ZTv0_n24_N14altered_carbon2js10NullStreamD1Ev to i8*), i8* bitcast (void (%"class.altered_carbon::js::NullStream"*)* @_ZTv0_n24_N14altered_carbon2js10NullStreamD0Ev to i8*)] }, align 8
@_ZTTN14altered_carbon2js10NullStreamE = linkonce_odr unnamed_addr constant [5 x i8*] [i8* bitcast (i8** getelementptr inbounds ({ [17 x i8*], [5 x i8*], [5 x i8*] }, { [17 x i8*], [5 x i8*], [5 x i8*] }* @_ZTVN14altered_carbon2js10NullStreamE, i32 0, inrange i32 0, i32 3) to i8*), i8* bitcast (i8** getelementptr inbounds ({ [5 x i8*], [5 x i8*] }, { [5 x i8*], [5 x i8*] }* @_ZTCN14altered_carbon2js10NullStreamE320_NSt3__113basic_ostreamIcNS1_11char_traitsIcEEEE, i32 0, inrange i32 0, i32 3) to i8*), i8* bitcast (i8** getelementptr inbounds ({ [5 x i8*], [5 x i8*] }, { [5 x i8*], [5 x i8*] }* @_ZTCN14altered_carbon2js10NullStreamE320_NSt3__113basic_ostreamIcNS1_11char_traitsIcEEEE, i32 0, inrange i32 1, i32 3) to i8*), i8* bitcast (i8** getelementptr inbounds ({ [17 x i8*], [5 x i8*], [5 x i8*] }, { [17 x i8*], [5 x i8*], [5 x i8*] }* @_ZTVN14altered_carbon2js10NullStreamE, i32 0, inrange i32 1, i32 3) to i8*), i8* bitcast (i8** getelementptr inbounds ({ [17 x i8*], [5 x i8*], [5 x i8*] }, { [17 x i8*], [5 x i8*], [5 x i8*] }* @_ZTVN14altered_carbon2js10NullStreamE, i32 0, inrange i32 2, i32 3) to i8*)]
@_ZTCN14altered_carbon2js10NullStreamE320_NSt3__113basic_ostreamIcNS1_11char_traitsIcEEEE = linkonce_odr unnamed_addr constant { [5 x i8*], [5 x i8*] } { [5 x i8*] [i8* inttoptr (i64 8 to i8*), i8* null, i8* bitcast (i8** @_ZTINSt3__113basic_ostreamIcNS_11char_traitsIcEEEE to i8*), i8* bitcast (void (%"class.std::__1::basic_ostream"*)* @_ZNSt3__113basic_ostreamIcNS_11char_traitsIcEEED1Ev to i8*), i8* bitcast (void (%"class.std::__1::basic_ostream"*)* @_ZNSt3__113basic_ostreamIcNS_11char_traitsIcEEED0Ev to i8*)], [5 x i8*] [i8* inttoptr (i64 -8 to i8*), i8* inttoptr (i64 -8 to i8*), i8* bitcast (i8** @_ZTINSt3__113basic_ostreamIcNS_11char_traitsIcEEEE to i8*), i8* bitcast (void (%"class.std::__1::basic_ostream"*)* @_ZTv0_n24_NSt3__113basic_ostreamIcNS_11char_traitsIcEEED1Ev to i8*), i8* bitcast (void (%"class.std::__1::basic_ostream"*)* @_ZTv0_n24_NSt3__113basic_ostreamIcNS_11char_traitsIcEEED0Ev to i8*)] }
@_ZTINSt3__113basic_ostreamIcNS_11char_traitsIcEEEE = external constant i8*
@_ZTVN10__cxxabiv121__vmi_class_type_infoE = external global i8*
@_ZTSN14altered_carbon2js10NullStreamE = linkonce_odr constant [34 x i8] c"N14altered_carbon2js10NullStreamE\00"
@_ZTIN14altered_carbon2js13NullStreamBufE = external constant i8*
@_ZTIN14altered_carbon2js10NullStreamE = linkonce_odr constant { i8*, i8*, i32, i32, i8*, i64, i8*, i64 } { i8* bitcast (i8** getelementptr inbounds (i8*, i8** @_ZTVN10__cxxabiv121__vmi_class_type_infoE, i64 2) to i8*), i8* getelementptr inbounds ([34 x i8], [34 x i8]* @_ZTSN14altered_carbon2js10NullStreamE, i32 0, i32 0), i32 0, i32 2, i8* bitcast (i8** @_ZTIN14altered_carbon2js13NullStreamBufE to i8*), i64 0, i8* bitcast (i8** @_ZTINSt3__113basic_ostreamIcNS_11char_traitsIcEEEE to i8*), i64 81922 }
@_ZTVNSt3__19basic_iosIcNS_11char_traitsIcEEEE = external unnamed_addr constant { [4 x i8*] }
@_ZTVNSt3__18ios_baseE = external unnamed_addr constant { [4 x i8*] }
@_ZTVN14altered_carbon2js13NullStreamBufE = external unnamed_addr constant { [16 x i8*] }
@_ZTVN14altered_carbon2js10ACLexTokenE = external unnamed_addr constant { [7 x i8*] }
@_ZNSt3__15ctypeIcE2idE = external global %"class.std::__1::locale::id", align 8
@.str.28 = private unnamed_addr constant [68 x i8] c"allocator<T>::allocate(size_t n) 'n' exceeds maximum supported size\00", align 1
@llvm.global_ctors = appending global [1 x { i32, void ()*, i8* }] [{ i32, void ()*, i8* } { i32 65535, void ()* @_GLOBAL__sub_I_ac_js_initializer_parser.cc, i8* null }]

; Function Attrs: noinline nounwind ssp uwtable
define internal void @__cxx_global_var_init() #0 section "__TEXT,__StaticInit,regular,pure_instructions" !dbg !8232 {
  call void @_ZN14altered_carbon2js10NullStreamC1Ev(%"class.altered_carbon::js::NullStream"* @_ZN14altered_carbon2jsL9BlackHoleE), !dbg !8233
  %1 = call i32 @__cxa_atexit(void (i8*)* bitcast (void (%"class.altered_carbon::js::NullStream"*)* @_ZN14altered_carbon2js10NullStreamD1Ev to void (i8*)*), i8* bitcast (%"class.altered_carbon::js::NullStream"* @_ZN14altered_carbon2jsL9BlackHoleE to i8*), i8* @__dso_handle) #2, !dbg !8233
  ret void, !dbg !8233
}

; Function Attrs: noinline nounwind optnone ssp uwtable
define linkonce_odr hidden void @_ZN14altered_carbon2js10NullStreamC1Ev(%"class.altered_carbon::js::NullStream"*) unnamed_addr #1 align 2 !dbg !8234 {
  %2 = alloca %"class.std::__1::basic_ios"*, align 8
  call void @llvm.dbg.declare(metadata %"class.std::__1::basic_ios"** %2, metadata !8235, metadata !DIExpression()), !dbg !8238
  %3 = alloca %"class.std::__1::basic_streambuf"*, align 8
  call void @llvm.dbg.declare(metadata %"class.std::__1::basic_streambuf"** %3, metadata !8243, metadata !DIExpression()), !dbg !8244
  %4 = alloca %"class.std::__1::basic_ostream"*, align 8
  call void @llvm.dbg.declare(metadata %"class.std::__1::basic_ostream"** %4, metadata !8245, metadata !DIExpression()), !dbg !8246
  %5 = alloca i8**, align 8
  call void @llvm.dbg.declare(metadata i8*** %5, metadata !8247, metadata !DIExpression()), !dbg !8246
  %6 = alloca %"class.std::__1::basic_streambuf"*, align 8
  call void @llvm.dbg.declare(metadata %"class.std::__1::basic_streambuf"** %6, metadata !8248, metadata !DIExpression()), !dbg !8249
  %7 = alloca %"class.std::__1::ios_base"*, align 8
  call void @llvm.dbg.declare(metadata %"class.std::__1::ios_base"** %7, metadata !8250, metadata !DIExpression()), !dbg !8253
  %8 = alloca %"class.std::__1::basic_ios"*, align 8
  call void @llvm.dbg.declare(metadata %"class.std::__1::basic_ios"** %8, metadata !8257, metadata !DIExpression()), !dbg !8258
  %9 = alloca %"class.altered_carbon::js::NullStream"*, align 8
  store %"class.altered_carbon::js::NullStream"* %0, %"class.altered_carbon::js::NullStream"** %9, align 8
  call void @llvm.dbg.declare(metadata %"class.altered_carbon::js::NullStream"** %9, metadata !8259, metadata !DIExpression()), !dbg !8260
  %10 = load %"class.altered_carbon::js::NullStream"*, %"class.altered_carbon::js::NullStream"** %9, align 8
  %11 = bitcast %"class.altered_carbon::js::NullStream"* %10 to i8*, !dbg !8261
  %12 = getelementptr inbounds i8, i8* %11, i64 328, !dbg !8261
  %13 = bitcast i8* %12 to %"class.std::__1::basic_ios"*, !dbg !8261
  store %"class.std::__1::basic_ios"* %13, %"class.std::__1::basic_ios"** %8, align 8
  %14 = load %"class.std::__1::basic_ios"*, %"class.std::__1::basic_ios"** %8, align 8
  %15 = bitcast %"class.std::__1::basic_ios"* %14 to %"class.std::__1::ios_base"*, !dbg !8262
  store %"class.std::__1::ios_base"* %15, %"class.std::__1::ios_base"** %7, align 8
  %16 = load %"class.std::__1::ios_base"*, %"class.std::__1::ios_base"** %7, align 8
  %17 = bitcast %"class.std::__1::ios_base"* %16 to i32 (...)***, !dbg !8263
  store i32 (...)** bitcast (i8** getelementptr inbounds ({ [4 x i8*] }, { [4 x i8*] }* @_ZTVNSt3__18ios_baseE, i32 0, inrange i32 0, i32 2) to i32 (...)**), i32 (...)*** %17, align 8, !dbg !8263
  %18 = bitcast %"class.std::__1::basic_ios"* %14 to i32 (...)***, !dbg !8262
  store i32 (...)** bitcast (i8** getelementptr inbounds ({ [4 x i8*] }, { [4 x i8*] }* @_ZTVNSt3__19basic_iosIcNS_11char_traitsIcEEEE, i32 0, inrange i32 0, i32 2) to i32 (...)**), i32 (...)*** %18, align 8, !dbg !8262
  %19 = bitcast %"class.altered_carbon::js::NullStream"* %10 to %"class.altered_carbon::js::NullStreamBuf"*, !dbg !8261
  call void @_ZN14altered_carbon2js13NullStreamBufC2Ev(%"class.altered_carbon::js::NullStreamBuf"* %19), !dbg !8264
  %20 = bitcast %"class.altered_carbon::js::NullStream"* %10 to i32 (...)***, !dbg !8261
  store i32 (...)** bitcast (i8** getelementptr inbounds ({ [17 x i8*], [5 x i8*], [5 x i8*] }, { [17 x i8*], [5 x i8*], [5 x i8*] }* @_ZTVN14altered_carbon2js10NullStreamE, i32 0, inrange i32 0, i32 3) to i32 (...)**), i32 (...)*** %20, align 8, !dbg !8261
  %21 = bitcast %"class.altered_carbon::js::NullStream"* %10 to i8*, !dbg !8261
  %22 = getelementptr inbounds i8, i8* %21, i64 320, !dbg !8261
  %23 = bitcast i8* %22 to i32 (...)***, !dbg !8261
  store i32 (...)** bitcast (i8** getelementptr inbounds ({ [17 x i8*], [5 x i8*], [5 x i8*] }, { [17 x i8*], [5 x i8*], [5 x i8*] }* @_ZTVN14altered_carbon2js10NullStreamE, i32 0, inrange i32 1, i32 3) to i32 (...)**), i32 (...)*** %23, align 8, !dbg !8261
  %24 = bitcast %"class.altered_carbon::js::NullStream"* %10 to i8*, !dbg !8261
  %25 = getelementptr inbounds i8, i8* %24, i64 328, !dbg !8261
  %26 = bitcast i8* %25 to i32 (...)***, !dbg !8261
  store i32 (...)** bitcast (i8** getelementptr inbounds ({ [17 x i8*], [5 x i8*], [5 x i8*] }, { [17 x i8*], [5 x i8*], [5 x i8*] }* @_ZTVN14altered_carbon2js10NullStreamE, i32 0, inrange i32 2, i32 3) to i32 (...)**), i32 (...)*** %26, align 8, !dbg !8261
  %27 = bitcast %"class.altered_carbon::js::NullStream"* %10 to i8*, !dbg !8261
  %28 = getelementptr inbounds i8, i8* %27, i64 320, !dbg !8261
  %29 = bitcast i8* %28 to %"class.std::__1::basic_ostream"*, !dbg !8261
  %30 = bitcast %"class.altered_carbon::js::NullStream"* %10 to %"class.std::__1::basic_streambuf"*, !dbg !8265
  store %"class.std::__1::basic_ostream"* %29, %"class.std::__1::basic_ostream"** %4, align 8
  store i8** getelementptr inbounds ([5 x i8*], [5 x i8*]* @_ZTTN14altered_carbon2js10NullStreamE, i64 0, i64 1), i8*** %5, align 8
  store %"class.std::__1::basic_streambuf"* %30, %"class.std::__1::basic_streambuf"** %6, align 8
  %31 = load %"class.std::__1::basic_ostream"*, %"class.std::__1::basic_ostream"** %4, align 8
  %32 = load i8**, i8*** %5, align 8
  %33 = load i8*, i8** %32, align 8, !dbg !8266
  %34 = bitcast %"class.std::__1::basic_ostream"* %31 to i32 (...)***, !dbg !8266
  %35 = bitcast i8* %33 to i32 (...)**, !dbg !8266
  store i32 (...)** %35, i32 (...)*** %34, align 8, !dbg !8266
  %36 = getelementptr inbounds i8*, i8** %32, i64 1, !dbg !8266
  %37 = load i8*, i8** %36, align 8, !dbg !8266
  %38 = bitcast %"class.std::__1::basic_ostream"* %31 to i8**, !dbg !8266
  %39 = load i8*, i8** %38, align 8, !dbg !8266
  %40 = getelementptr i8, i8* %39, i64 -24, !dbg !8266
  %41 = bitcast i8* %40 to i64*, !dbg !8266
  %42 = load i64, i64* %41, align 8, !dbg !8266
  %43 = bitcast %"class.std::__1::basic_ostream"* %31 to i8*, !dbg !8266
  %44 = getelementptr inbounds i8, i8* %43, i64 %42, !dbg !8266
  %45 = bitcast i8* %44 to i32 (...)***, !dbg !8266
  %46 = bitcast i8* %37 to i32 (...)**, !dbg !8266
  store i32 (...)** %46, i32 (...)*** %45, align 8, !dbg !8266
  %47 = bitcast %"class.std::__1::basic_ostream"* %31 to i8**, !dbg !8267
  %48 = load i8*, i8** %47, align 8, !dbg !8267
  %49 = getelementptr i8, i8* %48, i64 -24, !dbg !8267
  %50 = bitcast i8* %49 to i64*, !dbg !8267
  %51 = load i64, i64* %50, align 8, !dbg !8267
  %52 = bitcast %"class.std::__1::basic_ostream"* %31 to i8*, !dbg !8267
  %53 = getelementptr inbounds i8, i8* %52, i64 %51, !dbg !8267
  %54 = bitcast i8* %53 to %"class.std::__1::basic_ios"*, !dbg !8267
  %55 = load %"class.std::__1::basic_streambuf"*, %"class.std::__1::basic_streambuf"** %6, align 8, !dbg !8268
  store %"class.std::__1::basic_ios"* %54, %"class.std::__1::basic_ios"** %2, align 8
  store %"class.std::__1::basic_streambuf"* %55, %"class.std::__1::basic_streambuf"** %3, align 8
  %56 = load %"class.std::__1::basic_ios"*, %"class.std::__1::basic_ios"** %2, align 8
  %57 = bitcast %"class.std::__1::basic_ios"* %56 to %"class.std::__1::ios_base"*, !dbg !8269
  %58 = load %"class.std::__1::basic_streambuf"*, %"class.std::__1::basic_streambuf"** %3, align 8, !dbg !8270
  %59 = bitcast %"class.std::__1::basic_streambuf"* %58 to i8*, !dbg !8270
  call void @_ZNSt3__18ios_base4initEPv(%"class.std::__1::ios_base"* %57, i8* %59) #2, !dbg !8269
  %60 = getelementptr inbounds %"class.std::__1::basic_ios", %"class.std::__1::basic_ios"* %56, i32 0, i32 1, !dbg !8271
  store %"class.std::__1::basic_ostream"* null, %"class.std::__1::basic_ostream"** %60, align 8, !dbg !8272
  %61 = call i32 @_ZNSt3__111char_traitsIcE3eofEv() #2, !dbg !8273
  %62 = getelementptr inbounds %"class.std::__1::basic_ios", %"class.std::__1::basic_ios"* %56, i32 0, i32 2, !dbg !8274
  store i32 %61, i32* %62, align 8, !dbg !8275
  %63 = bitcast %"class.altered_carbon::js::NullStream"* %10 to i32 (...)***, !dbg !8261
  store i32 (...)** bitcast (i8** getelementptr inbounds ({ [17 x i8*], [5 x i8*], [5 x i8*] }, { [17 x i8*], [5 x i8*], [5 x i8*] }* @_ZTVN14altered_carbon2js10NullStreamE, i32 0, inrange i32 0, i32 3) to i32 (...)**), i32 (...)*** %63, align 8, !dbg !8261
  %64 = bitcast %"class.altered_carbon::js::NullStream"* %10 to i8*, !dbg !8261
  %65 = getelementptr inbounds i8, i8* %64, i64 320, !dbg !8261
  %66 = bitcast i8* %65 to i32 (...)***, !dbg !8261
  store i32 (...)** bitcast (i8** getelementptr inbounds ({ [17 x i8*], [5 x i8*], [5 x i8*] }, { [17 x i8*], [5 x i8*], [5 x i8*] }* @_ZTVN14altered_carbon2js10NullStreamE, i32 0, inrange i32 1, i32 3) to i32 (...)**), i32 (...)*** %66, align 8, !dbg !8261
  %67 = bitcast %"class.altered_carbon::js::NullStream"* %10 to i8*, !dbg !8261
  %68 = getelementptr inbounds i8, i8* %67, i64 328, !dbg !8261
  %69 = bitcast i8* %68 to i32 (...)***, !dbg !8261
  store i32 (...)** bitcast (i8** getelementptr inbounds ({ [17 x i8*], [5 x i8*], [5 x i8*] }, { [17 x i8*], [5 x i8*], [5 x i8*] }* @_ZTVN14altered_carbon2js10NullStreamE, i32 0, inrange i32 2, i32 3) to i32 (...)**), i32 (...)*** %69, align 8, !dbg !8261
  ret void, !dbg !8276
}

; Function Attrs: noinline nounwind optnone ssp uwtable
define linkonce_odr hidden void @_ZN14altered_carbon2js10NullStreamD1Ev(%"class.altered_carbon::js::NullStream"*) unnamed_addr #1 align 2 !dbg !8277 {
  %2 = alloca %"class.altered_carbon::js::NullStream"*, align 8
  store %"class.altered_carbon::js::NullStream"* %0, %"class.altered_carbon::js::NullStream"** %2, align 8
  call void @llvm.dbg.declare(metadata %"class.altered_carbon::js::NullStream"** %2, metadata !8279, metadata !DIExpression()), !dbg !8280
  %3 = load %"class.altered_carbon::js::NullStream"*, %"class.altered_carbon::js::NullStream"** %2, align 8
  call void @_ZN14altered_carbon2js10NullStreamD2Ev(%"class.altered_carbon::js::NullStream"* %3, i8** getelementptr inbounds ([5 x i8*], [5 x i8*]* @_ZTTN14altered_carbon2js10NullStreamE, i64 0, i64 0)) #2, !dbg !8281
  %4 = bitcast %"class.altered_carbon::js::NullStream"* %3 to i8*, !dbg !8281
  %5 = getelementptr inbounds i8, i8* %4, i64 328, !dbg !8281
  %6 = bitcast i8* %5 to %"class.std::__1::basic_ios"*, !dbg !8281
  call void @_ZNSt3__19basic_iosIcNS_11char_traitsIcEEED2Ev(%"class.std::__1::basic_ios"* %6) #2, !dbg !8281
  ret void, !dbg !8281
}

; Function Attrs: nounwind
declare i32 @__cxa_atexit(void (i8*)*, i8*, i8*) #2

; Function Attrs: noinline nounwind optnone ssp uwtable
define void @_ZN14altered_carbon2js12ACAstBuilder14parseArrayInitEv(%"class.std::__1::unique_ptr.29"* noalias sret, %"class.altered_carbon::js::ACAstBuilder"*) #1 align 2 !dbg !8282 {
  %3 = alloca %"struct.std::__1::__compressed_pair_elem.45"*, align 8
  call void @llvm.dbg.declare(metadata %"struct.std::__1::__compressed_pair_elem.45"** %3, metadata !8283, metadata !DIExpression()), !dbg !8286
  %4 = alloca %"class.std::__1::__compressed_pair.30"*, align 8
  call void @llvm.dbg.declare(metadata %"class.std::__1::__compressed_pair.30"** %4, metadata !8301, metadata !DIExpression()), !dbg !8303
  %5 = alloca %"class.std::__1::unique_ptr.29"*, align 8
  call void @llvm.dbg.declare(metadata %"class.std::__1::unique_ptr.29"** %5, metadata !8304, metadata !DIExpression()), !dbg !8305
  %6 = alloca %"struct.std::__1::default_delete.46"*, align 8
  call void @llvm.dbg.declare(metadata %"struct.std::__1::default_delete.46"** %6, metadata !8306, metadata !DIExpression()), !dbg !8315
  %7 = alloca %"class.altered_carbon::js::ACAstBaseNode"**, align 8
  call void @llvm.dbg.declare(metadata %"class.altered_carbon::js::ACAstBaseNode"*** %7, metadata !8317, metadata !DIExpression()), !dbg !8326
  %8 = alloca %"struct.std::__1::__compressed_pair_elem.31"*, align 8
  call void @llvm.dbg.declare(metadata %"struct.std::__1::__compressed_pair_elem.31"** %8, metadata !8346, metadata !DIExpression()), !dbg !8348
  %9 = alloca %"class.altered_carbon::js::ACAstBaseNode"**, align 8
  call void @llvm.dbg.declare(metadata %"class.altered_carbon::js::ACAstBaseNode"*** %9, metadata !8349, metadata !DIExpression()), !dbg !8350
  %10 = alloca %"struct.std::__1::default_delete.46"*, align 8
  call void @llvm.dbg.declare(metadata %"struct.std::__1::default_delete.46"** %10, metadata !8306, metadata !DIExpression()), !dbg !8351
  %11 = alloca %"struct.std::__1::default_delete.46"*, align 8
  call void @llvm.dbg.declare(metadata %"struct.std::__1::default_delete.46"** %11, metadata !8306, metadata !DIExpression()), !dbg !8353
  %12 = alloca %"struct.std::__1::__compressed_pair_elem.45"*, align 8
  call void @llvm.dbg.declare(metadata %"struct.std::__1::__compressed_pair_elem.45"** %12, metadata !8362, metadata !DIExpression()), !dbg !8363
  %13 = alloca %"struct.std::__1::default_delete.46"*, align 8
  call void @llvm.dbg.declare(metadata %"struct.std::__1::default_delete.46"** %13, metadata !8364, metadata !DIExpression()), !dbg !8365
  %14 = alloca %"class.altered_carbon::js::ACAstBaseNode"**, align 8
  call void @llvm.dbg.declare(metadata %"class.altered_carbon::js::ACAstBaseNode"*** %14, metadata !8317, metadata !DIExpression()), !dbg !8366
  %15 = alloca %"class.std::__1::__compressed_pair.30"*, align 8
  call void @llvm.dbg.declare(metadata %"class.std::__1::__compressed_pair.30"** %15, metadata !8368, metadata !DIExpression()), !dbg !8369
  %16 = alloca %"class.altered_carbon::js::ACAstBaseNode"**, align 8
  call void @llvm.dbg.declare(metadata %"class.altered_carbon::js::ACAstBaseNode"*** %16, metadata !8370, metadata !DIExpression()), !dbg !8371
  %17 = alloca %"struct.std::__1::default_delete.46"*, align 8
  call void @llvm.dbg.declare(metadata %"struct.std::__1::default_delete.46"** %17, metadata !8372, metadata !DIExpression()), !dbg !8373
  %18 = alloca %"class.std::__1::__compressed_pair.30"*, align 8
  call void @llvm.dbg.declare(metadata %"class.std::__1::__compressed_pair.30"** %18, metadata !8374, metadata !DIExpression()), !dbg !8375
  %19 = alloca %"class.altered_carbon::js::ACAstBaseNode"**, align 8
  call void @llvm.dbg.declare(metadata %"class.altered_carbon::js::ACAstBaseNode"*** %19, metadata !8376, metadata !DIExpression()), !dbg !8377
  %20 = alloca %"struct.std::__1::default_delete.46"*, align 8
  call void @llvm.dbg.declare(metadata %"struct.std::__1::default_delete.46"** %20, metadata !8378, metadata !DIExpression()), !dbg !8379
  %21 = alloca %"struct.std::__1::__compressed_pair_elem.31"*, align 8
  call void @llvm.dbg.declare(metadata %"struct.std::__1::__compressed_pair_elem.31"** %21, metadata !8380, metadata !DIExpression()), !dbg !8382
  %22 = alloca %"class.std::__1::__compressed_pair.30"*, align 8
  call void @llvm.dbg.declare(metadata %"class.std::__1::__compressed_pair.30"** %22, metadata !8388, metadata !DIExpression()), !dbg !8389
  %23 = alloca %"struct.std::__1::__compressed_pair_elem.31"*, align 8
  call void @llvm.dbg.declare(metadata %"struct.std::__1::__compressed_pair_elem.31"** %23, metadata !8380, metadata !DIExpression()), !dbg !8390
  %24 = alloca %"class.std::__1::__compressed_pair.30"*, align 8
  call void @llvm.dbg.declare(metadata %"class.std::__1::__compressed_pair.30"** %24, metadata !8388, metadata !DIExpression()), !dbg !8393
  %25 = alloca %"class.std::__1::unique_ptr.29"*, align 8
  call void @llvm.dbg.declare(metadata %"class.std::__1::unique_ptr.29"** %25, metadata !8394, metadata !DIExpression()), !dbg !8395
  %26 = alloca %"class.altered_carbon::js::ACAstBaseNode"*, align 8
  call void @llvm.dbg.declare(metadata %"class.altered_carbon::js::ACAstBaseNode"** %26, metadata !8396, metadata !DIExpression()), !dbg !8397
  %27 = alloca %"class.std::__1::unique_ptr.29"*, align 8
  call void @llvm.dbg.declare(metadata %"class.std::__1::unique_ptr.29"** %27, metadata !8398, metadata !DIExpression()), !dbg !8399
  %28 = alloca %"class.std::__1::unique_ptr.29"*, align 8
  call void @llvm.dbg.declare(metadata %"class.std::__1::unique_ptr.29"** %28, metadata !8400, metadata !DIExpression()), !dbg !8401
  %29 = alloca %"class.altered_carbon::js::ACAstBaseNode"*, align 8
  %30 = alloca %"class.std::__1::unique_ptr.29"*, align 8
  call void @llvm.dbg.declare(metadata %"class.std::__1::unique_ptr.29"** %30, metadata !8402, metadata !DIExpression()), !dbg !8403
  %31 = alloca %"class.std::__1::unique_ptr.29"*, align 8
  call void @llvm.dbg.declare(metadata %"class.std::__1::unique_ptr.29"** %31, metadata !8404, metadata !DIExpression()), !dbg !8405
  %32 = alloca %"struct.std::__1::__compressed_pair_elem.25"*, align 8
  call void @llvm.dbg.declare(metadata %"struct.std::__1::__compressed_pair_elem.25"** %32, metadata !8406, metadata !DIExpression()), !dbg !8409
  %33 = alloca %"class.std::__1::__compressed_pair.15"*, align 8
  call void @llvm.dbg.declare(metadata %"class.std::__1::__compressed_pair.15"** %33, metadata !8421, metadata !DIExpression()), !dbg !8423
  %34 = alloca %"struct.std::__1::__compressed_pair_elem.16"*, align 8
  call void @llvm.dbg.declare(metadata %"struct.std::__1::__compressed_pair_elem.16"** %34, metadata !8424, metadata !DIExpression()), !dbg !8427
  %35 = alloca %"class.std::__1::__compressed_pair.15"*, align 8
  call void @llvm.dbg.declare(metadata %"class.std::__1::__compressed_pair.15"** %35, metadata !8431, metadata !DIExpression()), !dbg !8432
  %36 = alloca %"struct.std::__1::default_delete"*, align 8
  call void @llvm.dbg.declare(metadata %"struct.std::__1::default_delete"** %36, metadata !8433, metadata !DIExpression()), !dbg !8436
  %37 = alloca %"class.altered_carbon::js::ACLexToken"*, align 8
  call void @llvm.dbg.declare(metadata %"class.altered_carbon::js::ACLexToken"** %37, metadata !8438, metadata !DIExpression()), !dbg !8439
  %38 = alloca %"struct.std::__1::__compressed_pair_elem.16"*, align 8
  call void @llvm.dbg.declare(metadata %"struct.std::__1::__compressed_pair_elem.16"** %38, metadata !8424, metadata !DIExpression()), !dbg !8440
  %39 = alloca %"class.std::__1::__compressed_pair.15"*, align 8
  call void @llvm.dbg.declare(metadata %"class.std::__1::__compressed_pair.15"** %39, metadata !8431, metadata !DIExpression()), !dbg !8443
  %40 = alloca %"class.std::__1::unique_ptr"*, align 8
  call void @llvm.dbg.declare(metadata %"class.std::__1::unique_ptr"** %40, metadata !8444, metadata !DIExpression()), !dbg !8446
  %41 = alloca %"class.altered_carbon::js::ACLexToken"*, align 8
  call void @llvm.dbg.declare(metadata %"class.altered_carbon::js::ACLexToken"** %41, metadata !8447, metadata !DIExpression()), !dbg !8448
  %42 = alloca %"class.altered_carbon::js::ACLexToken"*, align 8
  call void @llvm.dbg.declare(metadata %"class.altered_carbon::js::ACLexToken"** %42, metadata !8449, metadata !DIExpression()), !dbg !8450
  %43 = alloca %"class.std::__1::unique_ptr"*, align 8
  call void @llvm.dbg.declare(metadata %"class.std::__1::unique_ptr"** %43, metadata !8451, metadata !DIExpression()), !dbg !8452
  %44 = alloca %"class.std::__1::unique_ptr"*, align 8
  call void @llvm.dbg.declare(metadata %"class.std::__1::unique_ptr"** %44, metadata !8453, metadata !DIExpression()), !dbg !8454
  %45 = alloca %"struct.std::__1::__compressed_pair_elem.16"*, align 8
  call void @llvm.dbg.declare(metadata %"struct.std::__1::__compressed_pair_elem.16"** %45, metadata !8455, metadata !DIExpression()), !dbg !8458
  %46 = alloca %"class.std::__1::__compressed_pair.15"*, align 8
  call void @llvm.dbg.declare(metadata %"class.std::__1::__compressed_pair.15"** %46, metadata !8464, metadata !DIExpression()), !dbg !8466
  %47 = alloca %"class.std::__1::unique_ptr"*, align 8
  call void @llvm.dbg.declare(metadata %"class.std::__1::unique_ptr"** %47, metadata !8467, metadata !DIExpression()), !dbg !8469
  %48 = alloca %"struct.std::__1::__compressed_pair_elem.16"*, align 8
  call void @llvm.dbg.declare(metadata %"struct.std::__1::__compressed_pair_elem.16"** %48, metadata !8455, metadata !DIExpression()), !dbg !8470
  %49 = alloca %"class.std::__1::__compressed_pair.15"*, align 8
  call void @llvm.dbg.declare(metadata %"class.std::__1::__compressed_pair.15"** %49, metadata !8464, metadata !DIExpression()), !dbg !8475
  %50 = alloca %"class.std::__1::unique_ptr"*, align 8
  call void @llvm.dbg.declare(metadata %"class.std::__1::unique_ptr"** %50, metadata !8476, metadata !DIExpression()), !dbg !8477
  %51 = alloca %"struct.std::__1::__compressed_pair_elem.16"*, align 8
  call void @llvm.dbg.declare(metadata %"struct.std::__1::__compressed_pair_elem.16"** %51, metadata !8455, metadata !DIExpression()), !dbg !8478
  %52 = alloca %"class.std::__1::__compressed_pair.15"*, align 8
  call void @llvm.dbg.declare(metadata %"class.std::__1::__compressed_pair.15"** %52, metadata !8464, metadata !DIExpression()), !dbg !8482
  %53 = alloca %"class.std::__1::unique_ptr"*, align 8
  call void @llvm.dbg.declare(metadata %"class.std::__1::unique_ptr"** %53, metadata !8476, metadata !DIExpression()), !dbg !8483
  %54 = alloca %"struct.std::__1::__compressed_pair_elem.25"*, align 8
  call void @llvm.dbg.declare(metadata %"struct.std::__1::__compressed_pair_elem.25"** %54, metadata !8406, metadata !DIExpression()), !dbg !8484
  %55 = alloca %"class.std::__1::__compressed_pair.15"*, align 8
  call void @llvm.dbg.declare(metadata %"class.std::__1::__compressed_pair.15"** %55, metadata !8421, metadata !DIExpression()), !dbg !8495
  %56 = alloca %"struct.std::__1::__compressed_pair_elem.16"*, align 8
  call void @llvm.dbg.declare(metadata %"struct.std::__1::__compressed_pair_elem.16"** %56, metadata !8424, metadata !DIExpression()), !dbg !8496
  %57 = alloca %"class.std::__1::__compressed_pair.15"*, align 8
  call void @llvm.dbg.declare(metadata %"class.std::__1::__compressed_pair.15"** %57, metadata !8431, metadata !DIExpression()), !dbg !8499
  %58 = alloca %"struct.std::__1::default_delete"*, align 8
  call void @llvm.dbg.declare(metadata %"struct.std::__1::default_delete"** %58, metadata !8433, metadata !DIExpression()), !dbg !8500
  %59 = alloca %"class.altered_carbon::js::ACLexToken"*, align 8
  call void @llvm.dbg.declare(metadata %"class.altered_carbon::js::ACLexToken"** %59, metadata !8438, metadata !DIExpression()), !dbg !8502
  %60 = alloca %"struct.std::__1::__compressed_pair_elem.16"*, align 8
  call void @llvm.dbg.declare(metadata %"struct.std::__1::__compressed_pair_elem.16"** %60, metadata !8424, metadata !DIExpression()), !dbg !8503
  %61 = alloca %"class.std::__1::__compressed_pair.15"*, align 8
  call void @llvm.dbg.declare(metadata %"class.std::__1::__compressed_pair.15"** %61, metadata !8431, metadata !DIExpression()), !dbg !8506
  %62 = alloca %"class.std::__1::unique_ptr"*, align 8
  call void @llvm.dbg.declare(metadata %"class.std::__1::unique_ptr"** %62, metadata !8444, metadata !DIExpression()), !dbg !8507
  %63 = alloca %"class.altered_carbon::js::ACLexToken"*, align 8
  call void @llvm.dbg.declare(metadata %"class.altered_carbon::js::ACLexToken"** %63, metadata !8447, metadata !DIExpression()), !dbg !8508
  %64 = alloca %"class.altered_carbon::js::ACLexToken"*, align 8
  call void @llvm.dbg.declare(metadata %"class.altered_carbon::js::ACLexToken"** %64, metadata !8449, metadata !DIExpression()), !dbg !8509
  %65 = alloca %"class.std::__1::unique_ptr"*, align 8
  call void @llvm.dbg.declare(metadata %"class.std::__1::unique_ptr"** %65, metadata !8451, metadata !DIExpression()), !dbg !8510
  %66 = alloca %"class.std::__1::unique_ptr"*, align 8
  call void @llvm.dbg.declare(metadata %"class.std::__1::unique_ptr"** %66, metadata !8453, metadata !DIExpression()), !dbg !8511
  %67 = alloca %"class.std::__1::vector.38"*, align 8
  call void @llvm.dbg.declare(metadata %"class.std::__1::vector.38"** %67, metadata !8512, metadata !DIExpression()), !dbg !8521
  %68 = alloca %"struct.std::__1::__compressed_pair_elem.45"*, align 8
  call void @llvm.dbg.declare(metadata %"struct.std::__1::__compressed_pair_elem.45"** %68, metadata !8283, metadata !DIExpression()), !dbg !8523
  %69 = alloca %"class.std::__1::__compressed_pair.30"*, align 8
  call void @llvm.dbg.declare(metadata %"class.std::__1::__compressed_pair.30"** %69, metadata !8301, metadata !DIExpression()), !dbg !8533
  %70 = alloca %"class.std::__1::unique_ptr.29"*, align 8
  call void @llvm.dbg.declare(metadata %"class.std::__1::unique_ptr.29"** %70, metadata !8304, metadata !DIExpression()), !dbg !8534
  %71 = alloca %"struct.std::__1::default_delete.46"*, align 8
  call void @llvm.dbg.declare(metadata %"struct.std::__1::default_delete.46"** %71, metadata !8306, metadata !DIExpression()), !dbg !8535
  %72 = alloca %"class.altered_carbon::js::ACAstBaseNode"**, align 8
  call void @llvm.dbg.declare(metadata %"class.altered_carbon::js::ACAstBaseNode"*** %72, metadata !8317, metadata !DIExpression()), !dbg !8537
  %73 = alloca %"struct.std::__1::__compressed_pair_elem.31"*, align 8
  call void @llvm.dbg.declare(metadata %"struct.std::__1::__compressed_pair_elem.31"** %73, metadata !8346, metadata !DIExpression()), !dbg !8542
  %74 = alloca %"class.altered_carbon::js::ACAstBaseNode"**, align 8
  call void @llvm.dbg.declare(metadata %"class.altered_carbon::js::ACAstBaseNode"*** %74, metadata !8349, metadata !DIExpression()), !dbg !8543
  %75 = alloca %"struct.std::__1::default_delete.46"*, align 8
  call void @llvm.dbg.declare(metadata %"struct.std::__1::default_delete.46"** %75, metadata !8306, metadata !DIExpression()), !dbg !8544
  %76 = alloca %"struct.std::__1::default_delete.46"*, align 8
  call void @llvm.dbg.declare(metadata %"struct.std::__1::default_delete.46"** %76, metadata !8306, metadata !DIExpression()), !dbg !8546
  %77 = alloca %"struct.std::__1::__compressed_pair_elem.45"*, align 8
  call void @llvm.dbg.declare(metadata %"struct.std::__1::__compressed_pair_elem.45"** %77, metadata !8362, metadata !DIExpression()), !dbg !8549
  %78 = alloca %"struct.std::__1::default_delete.46"*, align 8
  call void @llvm.dbg.declare(metadata %"struct.std::__1::default_delete.46"** %78, metadata !8364, metadata !DIExpression()), !dbg !8550
  %79 = alloca %"class.altered_carbon::js::ACAstBaseNode"**, align 8
  call void @llvm.dbg.declare(metadata %"class.altered_carbon::js::ACAstBaseNode"*** %79, metadata !8317, metadata !DIExpression()), !dbg !8551
  %80 = alloca %"class.std::__1::__compressed_pair.30"*, align 8
  call void @llvm.dbg.declare(metadata %"class.std::__1::__compressed_pair.30"** %80, metadata !8368, metadata !DIExpression()), !dbg !8553
  %81 = alloca %"class.altered_carbon::js::ACAstBaseNode"**, align 8
  call void @llvm.dbg.declare(metadata %"class.altered_carbon::js::ACAstBaseNode"*** %81, metadata !8370, metadata !DIExpression()), !dbg !8554
  %82 = alloca %"struct.std::__1::default_delete.46"*, align 8
  call void @llvm.dbg.declare(metadata %"struct.std::__1::default_delete.46"** %82, metadata !8372, metadata !DIExpression()), !dbg !8555
  %83 = alloca %"class.std::__1::__compressed_pair.30"*, align 8
  call void @llvm.dbg.declare(metadata %"class.std::__1::__compressed_pair.30"** %83, metadata !8374, metadata !DIExpression()), !dbg !8556
  %84 = alloca %"class.altered_carbon::js::ACAstBaseNode"**, align 8
  call void @llvm.dbg.declare(metadata %"class.altered_carbon::js::ACAstBaseNode"*** %84, metadata !8376, metadata !DIExpression()), !dbg !8557
  %85 = alloca %"struct.std::__1::default_delete.46"*, align 8
  call void @llvm.dbg.declare(metadata %"struct.std::__1::default_delete.46"** %85, metadata !8378, metadata !DIExpression()), !dbg !8558
  %86 = alloca %"struct.std::__1::__compressed_pair_elem.31"*, align 8
  call void @llvm.dbg.declare(metadata %"struct.std::__1::__compressed_pair_elem.31"** %86, metadata !8380, metadata !DIExpression()), !dbg !8559
  %87 = alloca %"class.std::__1::__compressed_pair.30"*, align 8
  call void @llvm.dbg.declare(metadata %"class.std::__1::__compressed_pair.30"** %87, metadata !8388, metadata !DIExpression()), !dbg !8563
  %88 = alloca %"struct.std::__1::__compressed_pair_elem.31"*, align 8
  call void @llvm.dbg.declare(metadata %"struct.std::__1::__compressed_pair_elem.31"** %88, metadata !8380, metadata !DIExpression()), !dbg !8564
  %89 = alloca %"class.std::__1::__compressed_pair.30"*, align 8
  call void @llvm.dbg.declare(metadata %"class.std::__1::__compressed_pair.30"** %89, metadata !8388, metadata !DIExpression()), !dbg !8567
  %90 = alloca %"class.std::__1::unique_ptr.29"*, align 8
  call void @llvm.dbg.declare(metadata %"class.std::__1::unique_ptr.29"** %90, metadata !8394, metadata !DIExpression()), !dbg !8568
  %91 = alloca %"class.altered_carbon::js::ACAstBaseNode"*, align 8
  call void @llvm.dbg.declare(metadata %"class.altered_carbon::js::ACAstBaseNode"** %91, metadata !8396, metadata !DIExpression()), !dbg !8569
  %92 = alloca %"class.std::__1::unique_ptr.29"*, align 8
  call void @llvm.dbg.declare(metadata %"class.std::__1::unique_ptr.29"** %92, metadata !8398, metadata !DIExpression()), !dbg !8570
  %93 = alloca %"class.std::__1::unique_ptr.29"*, align 8
  call void @llvm.dbg.declare(metadata %"class.std::__1::unique_ptr.29"** %93, metadata !8400, metadata !DIExpression()), !dbg !8571
  %94 = alloca %"class.altered_carbon::js::ACAstBaseNode"*, align 8
  %95 = alloca %"class.std::__1::unique_ptr.29"*, align 8
  call void @llvm.dbg.declare(metadata %"class.std::__1::unique_ptr.29"** %95, metadata !8402, metadata !DIExpression()), !dbg !8572
  %96 = alloca %"class.std::__1::unique_ptr.29"*, align 8
  call void @llvm.dbg.declare(metadata %"class.std::__1::unique_ptr.29"** %96, metadata !8404, metadata !DIExpression()), !dbg !8573
  %97 = alloca %"struct.std::__1::__compressed_pair_elem.66"*, align 8
  call void @llvm.dbg.declare(metadata %"struct.std::__1::__compressed_pair_elem.66"** %97, metadata !8574, metadata !DIExpression()), !dbg !8577
  %98 = alloca %"class.std::__1::__compressed_pair.65"*, align 8
  call void @llvm.dbg.declare(metadata %"class.std::__1::__compressed_pair.65"** %98, metadata !8583, metadata !DIExpression()), !dbg !8585
  %99 = alloca %"struct.std::__1::__compressed_pair_elem.66"*, align 8
  call void @llvm.dbg.declare(metadata %"struct.std::__1::__compressed_pair_elem.66"** %99, metadata !8574, metadata !DIExpression()), !dbg !8586
  %100 = alloca %"class.std::__1::__compressed_pair.65"*, align 8
  call void @llvm.dbg.declare(metadata %"class.std::__1::__compressed_pair.65"** %100, metadata !8583, metadata !DIExpression()), !dbg !8589
  %101 = alloca %"class.std::__1::unique_ptr.64"*, align 8
  call void @llvm.dbg.declare(metadata %"class.std::__1::unique_ptr.64"** %101, metadata !8590, metadata !DIExpression()), !dbg !8592
  %102 = alloca %"class.altered_carbon::js::ACAstCollectionNode"*, align 8
  call void @llvm.dbg.declare(metadata %"class.altered_carbon::js::ACAstCollectionNode"** %102, metadata !8593, metadata !DIExpression()), !dbg !8594
  %103 = alloca %"struct.std::__1::__compressed_pair_elem.16"*, align 8
  call void @llvm.dbg.declare(metadata %"struct.std::__1::__compressed_pair_elem.16"** %103, metadata !8455, metadata !DIExpression()), !dbg !8595
  %104 = alloca %"class.std::__1::__compressed_pair.15"*, align 8
  call void @llvm.dbg.declare(metadata %"class.std::__1::__compressed_pair.15"** %104, metadata !8464, metadata !DIExpression()), !dbg !8599
  %105 = alloca %"class.std::__1::unique_ptr"*, align 8
  call void @llvm.dbg.declare(metadata %"class.std::__1::unique_ptr"** %105, metadata !8476, metadata !DIExpression()), !dbg !8600
  %106 = alloca %"struct.std::__1::__compressed_pair_elem.45"*, align 8
  call void @llvm.dbg.declare(metadata %"struct.std::__1::__compressed_pair_elem.45"** %106, metadata !8283, metadata !DIExpression()), !dbg !8601
  %107 = alloca %"class.std::__1::__compressed_pair.30"*, align 8
  call void @llvm.dbg.declare(metadata %"class.std::__1::__compressed_pair.30"** %107, metadata !8301, metadata !DIExpression()), !dbg !8607
  %108 = alloca %"struct.std::__1::__compressed_pair_elem.31"*, align 8
  call void @llvm.dbg.declare(metadata %"struct.std::__1::__compressed_pair_elem.31"** %108, metadata !8380, metadata !DIExpression()), !dbg !8608
  %109 = alloca %"class.std::__1::__compressed_pair.30"*, align 8
  call void @llvm.dbg.declare(metadata %"class.std::__1::__compressed_pair.30"** %109, metadata !8388, metadata !DIExpression()), !dbg !8611
  %110 = alloca %"struct.std::__1::default_delete.46"*, align 8
  call void @llvm.dbg.declare(metadata %"struct.std::__1::default_delete.46"** %110, metadata !8612, metadata !DIExpression()), !dbg !8615
  %111 = alloca %"class.altered_carbon::js::ACAstBaseNode"*, align 8
  call void @llvm.dbg.declare(metadata %"class.altered_carbon::js::ACAstBaseNode"** %111, metadata !8617, metadata !DIExpression()), !dbg !8618
  %112 = alloca %"struct.std::__1::__compressed_pair_elem.31"*, align 8
  call void @llvm.dbg.declare(metadata %"struct.std::__1::__compressed_pair_elem.31"** %112, metadata !8380, metadata !DIExpression()), !dbg !8619
  %113 = alloca %"class.std::__1::__compressed_pair.30"*, align 8
  call void @llvm.dbg.declare(metadata %"class.std::__1::__compressed_pair.30"** %113, metadata !8388, metadata !DIExpression()), !dbg !8622
  %114 = alloca %"class.std::__1::unique_ptr.29"*, align 8
  call void @llvm.dbg.declare(metadata %"class.std::__1::unique_ptr.29"** %114, metadata !8623, metadata !DIExpression()), !dbg !8624
  %115 = alloca %"class.altered_carbon::js::ACAstBaseNode"*, align 8
  call void @llvm.dbg.declare(metadata %"class.altered_carbon::js::ACAstBaseNode"** %115, metadata !8625, metadata !DIExpression()), !dbg !8626
  %116 = alloca %"class.altered_carbon::js::ACAstBaseNode"*, align 8
  call void @llvm.dbg.declare(metadata %"class.altered_carbon::js::ACAstBaseNode"** %116, metadata !8627, metadata !DIExpression()), !dbg !8628
  %117 = alloca %"struct.std::__1::__compressed_pair_elem.16"*, align 8
  call void @llvm.dbg.declare(metadata %"struct.std::__1::__compressed_pair_elem.16"** %117, metadata !8455, metadata !DIExpression()), !dbg !8629
  %118 = alloca %"class.std::__1::__compressed_pair.15"*, align 8
  call void @llvm.dbg.declare(metadata %"class.std::__1::__compressed_pair.15"** %118, metadata !8464, metadata !DIExpression()), !dbg !8633
  %119 = alloca %"class.std::__1::unique_ptr"*, align 8
  call void @llvm.dbg.declare(metadata %"class.std::__1::unique_ptr"** %119, metadata !8476, metadata !DIExpression()), !dbg !8634
  %120 = alloca %"struct.std::__1::__compressed_pair_elem.45"*, align 8
  call void @llvm.dbg.declare(metadata %"struct.std::__1::__compressed_pair_elem.45"** %120, metadata !8283, metadata !DIExpression()), !dbg !8635
  %121 = alloca %"class.std::__1::__compressed_pair.30"*, align 8
  call void @llvm.dbg.declare(metadata %"class.std::__1::__compressed_pair.30"** %121, metadata !8301, metadata !DIExpression()), !dbg !8644
  %122 = alloca %"struct.std::__1::__compressed_pair_elem.31"*, align 8
  call void @llvm.dbg.declare(metadata %"struct.std::__1::__compressed_pair_elem.31"** %122, metadata !8380, metadata !DIExpression()), !dbg !8645
  %123 = alloca %"class.std::__1::__compressed_pair.30"*, align 8
  call void @llvm.dbg.declare(metadata %"class.std::__1::__compressed_pair.30"** %123, metadata !8388, metadata !DIExpression()), !dbg !8648
  %124 = alloca %"struct.std::__1::default_delete.46"*, align 8
  call void @llvm.dbg.declare(metadata %"struct.std::__1::default_delete.46"** %124, metadata !8612, metadata !DIExpression()), !dbg !8649
  %125 = alloca %"class.altered_carbon::js::ACAstBaseNode"*, align 8
  call void @llvm.dbg.declare(metadata %"class.altered_carbon::js::ACAstBaseNode"** %125, metadata !8617, metadata !DIExpression()), !dbg !8651
  %126 = alloca %"struct.std::__1::__compressed_pair_elem.31"*, align 8
  call void @llvm.dbg.declare(metadata %"struct.std::__1::__compressed_pair_elem.31"** %126, metadata !8380, metadata !DIExpression()), !dbg !8652
  %127 = alloca %"class.std::__1::__compressed_pair.30"*, align 8
  call void @llvm.dbg.declare(metadata %"class.std::__1::__compressed_pair.30"** %127, metadata !8388, metadata !DIExpression()), !dbg !8655
  %128 = alloca %"class.std::__1::unique_ptr.29"*, align 8
  call void @llvm.dbg.declare(metadata %"class.std::__1::unique_ptr.29"** %128, metadata !8623, metadata !DIExpression()), !dbg !8656
  %129 = alloca %"class.altered_carbon::js::ACAstBaseNode"*, align 8
  call void @llvm.dbg.declare(metadata %"class.altered_carbon::js::ACAstBaseNode"** %129, metadata !8625, metadata !DIExpression()), !dbg !8657
  %130 = alloca %"class.altered_carbon::js::ACAstBaseNode"*, align 8
  call void @llvm.dbg.declare(metadata %"class.altered_carbon::js::ACAstBaseNode"** %130, metadata !8627, metadata !DIExpression()), !dbg !8658
  %131 = alloca %"class.std::__1::unique_ptr.29"*, align 8
  call void @llvm.dbg.declare(metadata %"class.std::__1::unique_ptr.29"** %131, metadata !8659, metadata !DIExpression()), !dbg !8660
  %132 = alloca %"class.std::__1::unique_ptr.29"*, align 8
  call void @llvm.dbg.declare(metadata %"class.std::__1::unique_ptr.29"** %132, metadata !8661, metadata !DIExpression()), !dbg !8662
  %133 = alloca %"struct.std::__1::__compressed_pair_elem.42"*, align 8
  call void @llvm.dbg.declare(metadata %"struct.std::__1::__compressed_pair_elem.42"** %133, metadata !8663, metadata !DIExpression()), !dbg !8666
  %134 = alloca %"class.std::__1::__compressed_pair.40"*, align 8
  call void @llvm.dbg.declare(metadata %"class.std::__1::__compressed_pair.40"** %134, metadata !8676, metadata !DIExpression()), !dbg !8678
  %135 = alloca %"class.std::__1::__vector_base.39"*, align 8
  call void @llvm.dbg.declare(metadata %"class.std::__1::__vector_base.39"** %135, metadata !8679, metadata !DIExpression()), !dbg !8681
  %136 = alloca %"class.std::__1::unique_ptr.29"*, align 8
  call void @llvm.dbg.declare(metadata %"class.std::__1::unique_ptr.29"** %136, metadata !8682, metadata !DIExpression()), !dbg !8686
  %137 = alloca %"class.std::__1::unique_ptr.29"*, align 8
  call void @llvm.dbg.declare(metadata %"class.std::__1::unique_ptr.29"** %137, metadata !8688, metadata !DIExpression()), !dbg !8697
  %138 = alloca %"struct.std::__1::__compressed_pair_elem.45"*, align 8
  call void @llvm.dbg.declare(metadata %"struct.std::__1::__compressed_pair_elem.45"** %138, metadata !8283, metadata !DIExpression()), !dbg !8699
  %139 = alloca %"class.std::__1::__compressed_pair.30"*, align 8
  call void @llvm.dbg.declare(metadata %"class.std::__1::__compressed_pair.30"** %139, metadata !8301, metadata !DIExpression()), !dbg !8726
  %140 = alloca %"class.std::__1::unique_ptr.29"*, align 8
  call void @llvm.dbg.declare(metadata %"class.std::__1::unique_ptr.29"** %140, metadata !8304, metadata !DIExpression()), !dbg !8727
  %141 = alloca %"struct.std::__1::default_delete.46"*, align 8
  call void @llvm.dbg.declare(metadata %"struct.std::__1::default_delete.46"** %141, metadata !8306, metadata !DIExpression()), !dbg !8728
  %142 = alloca %"class.altered_carbon::js::ACAstBaseNode"**, align 8
  call void @llvm.dbg.declare(metadata %"class.altered_carbon::js::ACAstBaseNode"*** %142, metadata !8317, metadata !DIExpression()), !dbg !8730
  %143 = alloca %"struct.std::__1::__compressed_pair_elem.31"*, align 8
  call void @llvm.dbg.declare(metadata %"struct.std::__1::__compressed_pair_elem.31"** %143, metadata !8346, metadata !DIExpression()), !dbg !8735
  %144 = alloca %"class.altered_carbon::js::ACAstBaseNode"**, align 8
  call void @llvm.dbg.declare(metadata %"class.altered_carbon::js::ACAstBaseNode"*** %144, metadata !8349, metadata !DIExpression()), !dbg !8736
  %145 = alloca %"struct.std::__1::default_delete.46"*, align 8
  call void @llvm.dbg.declare(metadata %"struct.std::__1::default_delete.46"** %145, metadata !8306, metadata !DIExpression()), !dbg !8737
  %146 = alloca %"struct.std::__1::default_delete.46"*, align 8
  call void @llvm.dbg.declare(metadata %"struct.std::__1::default_delete.46"** %146, metadata !8306, metadata !DIExpression()), !dbg !8739
  %147 = alloca %"struct.std::__1::__compressed_pair_elem.45"*, align 8
  call void @llvm.dbg.declare(metadata %"struct.std::__1::__compressed_pair_elem.45"** %147, metadata !8362, metadata !DIExpression()), !dbg !8742
  %148 = alloca %"struct.std::__1::default_delete.46"*, align 8
  call void @llvm.dbg.declare(metadata %"struct.std::__1::default_delete.46"** %148, metadata !8364, metadata !DIExpression()), !dbg !8743
  %149 = alloca %"class.altered_carbon::js::ACAstBaseNode"**, align 8
  call void @llvm.dbg.declare(metadata %"class.altered_carbon::js::ACAstBaseNode"*** %149, metadata !8317, metadata !DIExpression()), !dbg !8744
  %150 = alloca %"class.std::__1::__compressed_pair.30"*, align 8
  call void @llvm.dbg.declare(metadata %"class.std::__1::__compressed_pair.30"** %150, metadata !8368, metadata !DIExpression()), !dbg !8746
  %151 = alloca %"class.altered_carbon::js::ACAstBaseNode"**, align 8
  call void @llvm.dbg.declare(metadata %"class.altered_carbon::js::ACAstBaseNode"*** %151, metadata !8370, metadata !DIExpression()), !dbg !8747
  %152 = alloca %"struct.std::__1::default_delete.46"*, align 8
  call void @llvm.dbg.declare(metadata %"struct.std::__1::default_delete.46"** %152, metadata !8372, metadata !DIExpression()), !dbg !8748
  %153 = alloca %"class.std::__1::__compressed_pair.30"*, align 8
  call void @llvm.dbg.declare(metadata %"class.std::__1::__compressed_pair.30"** %153, metadata !8374, metadata !DIExpression()), !dbg !8749
  %154 = alloca %"class.altered_carbon::js::ACAstBaseNode"**, align 8
  call void @llvm.dbg.declare(metadata %"class.altered_carbon::js::ACAstBaseNode"*** %154, metadata !8376, metadata !DIExpression()), !dbg !8750
  %155 = alloca %"struct.std::__1::default_delete.46"*, align 8
  call void @llvm.dbg.declare(metadata %"struct.std::__1::default_delete.46"** %155, metadata !8378, metadata !DIExpression()), !dbg !8751
  %156 = alloca %"struct.std::__1::__compressed_pair_elem.31"*, align 8
  call void @llvm.dbg.declare(metadata %"struct.std::__1::__compressed_pair_elem.31"** %156, metadata !8380, metadata !DIExpression()), !dbg !8752
  %157 = alloca %"class.std::__1::__compressed_pair.30"*, align 8
  call void @llvm.dbg.declare(metadata %"class.std::__1::__compressed_pair.30"** %157, metadata !8388, metadata !DIExpression()), !dbg !8756
  %158 = alloca %"struct.std::__1::__compressed_pair_elem.31"*, align 8
  call void @llvm.dbg.declare(metadata %"struct.std::__1::__compressed_pair_elem.31"** %158, metadata !8380, metadata !DIExpression()), !dbg !8757
  %159 = alloca %"class.std::__1::__compressed_pair.30"*, align 8
  call void @llvm.dbg.declare(metadata %"class.std::__1::__compressed_pair.30"** %159, metadata !8388, metadata !DIExpression()), !dbg !8760
  %160 = alloca %"class.std::__1::unique_ptr.29"*, align 8
  call void @llvm.dbg.declare(metadata %"class.std::__1::unique_ptr.29"** %160, metadata !8394, metadata !DIExpression()), !dbg !8761
  %161 = alloca %"class.altered_carbon::js::ACAstBaseNode"*, align 8
  call void @llvm.dbg.declare(metadata %"class.altered_carbon::js::ACAstBaseNode"** %161, metadata !8396, metadata !DIExpression()), !dbg !8762
  %162 = alloca %"class.std::__1::unique_ptr.29"*, align 8
  call void @llvm.dbg.declare(metadata %"class.std::__1::unique_ptr.29"** %162, metadata !8398, metadata !DIExpression()), !dbg !8763
  %163 = alloca %"class.std::__1::unique_ptr.29"*, align 8
  call void @llvm.dbg.declare(metadata %"class.std::__1::unique_ptr.29"** %163, metadata !8400, metadata !DIExpression()), !dbg !8764
  %164 = alloca %"class.altered_carbon::js::ACAstBaseNode"*, align 8
  %165 = alloca %"class.std::__1::unique_ptr.29"*, align 8
  call void @llvm.dbg.declare(metadata %"class.std::__1::unique_ptr.29"** %165, metadata !8402, metadata !DIExpression()), !dbg !8765
  %166 = alloca %"class.std::__1::unique_ptr.29"*, align 8
  call void @llvm.dbg.declare(metadata %"class.std::__1::unique_ptr.29"** %166, metadata !8404, metadata !DIExpression()), !dbg !8766
  %167 = alloca %"class.std::__1::unique_ptr.29"*, align 8
  call void @llvm.dbg.declare(metadata %"class.std::__1::unique_ptr.29"** %167, metadata !8767, metadata !DIExpression()), !dbg !8774
  %168 = alloca %"class.std::__1::allocator.43"*, align 8
  call void @llvm.dbg.declare(metadata %"class.std::__1::allocator.43"** %168, metadata !8776, metadata !DIExpression()), !dbg !8778
  %169 = alloca %"class.std::__1::unique_ptr.29"*, align 8
  call void @llvm.dbg.declare(metadata %"class.std::__1::unique_ptr.29"** %169, metadata !8779, metadata !DIExpression()), !dbg !8780
  %170 = alloca %"class.std::__1::unique_ptr.29"*, align 8
  call void @llvm.dbg.declare(metadata %"class.std::__1::unique_ptr.29"** %170, metadata !8781, metadata !DIExpression()), !dbg !8782
  %171 = alloca %"class.std::__1::unique_ptr.29"*, align 8
  call void @llvm.dbg.declare(metadata %"class.std::__1::unique_ptr.29"** %171, metadata !8767, metadata !DIExpression()), !dbg !8783
  %172 = alloca %"class.std::__1::allocator.43"*, align 8
  call void @llvm.dbg.declare(metadata %"class.std::__1::allocator.43"** %172, metadata !8785, metadata !DIExpression()), !dbg !8786
  %173 = alloca %"class.std::__1::unique_ptr.29"*, align 8
  call void @llvm.dbg.declare(metadata %"class.std::__1::unique_ptr.29"** %173, metadata !8787, metadata !DIExpression()), !dbg !8788
  %174 = alloca %"class.std::__1::unique_ptr.29"*, align 8
  call void @llvm.dbg.declare(metadata %"class.std::__1::unique_ptr.29"** %174, metadata !8789, metadata !DIExpression()), !dbg !8790
  %175 = alloca %"class.std::__1::unique_ptr.29"*, align 8
  call void @llvm.dbg.declare(metadata %"class.std::__1::unique_ptr.29"** %175, metadata !8767, metadata !DIExpression()), !dbg !8791
  %176 = alloca %"class.std::__1::allocator.43"*, align 8
  call void @llvm.dbg.declare(metadata %"class.std::__1::allocator.43"** %176, metadata !8793, metadata !DIExpression()), !dbg !8794
  %177 = alloca %"class.std::__1::unique_ptr.29"*, align 8
  call void @llvm.dbg.declare(metadata %"class.std::__1::unique_ptr.29"** %177, metadata !8795, metadata !DIExpression()), !dbg !8796
  %178 = alloca %"class.std::__1::unique_ptr.29"*, align 8
  call void @llvm.dbg.declare(metadata %"class.std::__1::unique_ptr.29"** %178, metadata !8797, metadata !DIExpression()), !dbg !8798
  %179 = alloca %"struct.std::__1::__has_construct", align 1
  %180 = alloca %"struct.std::__1::vector<std::__1::unique_ptr<altered_carbon::js::ACAstBaseNode, std::__1::default_delete<altered_carbon::js::ACAstBaseNode> >, std::__1::allocator<std::__1::unique_ptr<altered_carbon::js::ACAstBaseNode, std::__1::default_delete<altered_carbon::js::ACAstBaseNode> > > >::__RAII_IncreaseAnnotator"*, align 8
  call void @llvm.dbg.declare(metadata %"struct.std::__1::vector<std::__1::unique_ptr<altered_carbon::js::ACAstBaseNode, std::__1::default_delete<altered_carbon::js::ACAstBaseNode> >, std::__1::allocator<std::__1::unique_ptr<altered_carbon::js::ACAstBaseNode, std::__1::default_delete<altered_carbon::js::ACAstBaseNode> > > >::__RAII_IncreaseAnnotator"** %180, metadata !8799, metadata !DIExpression()), !dbg !8811
  %181 = alloca %"class.std::__1::unique_ptr.29"*, align 8
  call void @llvm.dbg.declare(metadata %"class.std::__1::unique_ptr.29"** %181, metadata !8688, metadata !DIExpression()), !dbg !8813
  %182 = alloca %"struct.std::__1::vector<std::__1::unique_ptr<altered_carbon::js::ACAstBaseNode, std::__1::default_delete<altered_carbon::js::ACAstBaseNode> >, std::__1::allocator<std::__1::unique_ptr<altered_carbon::js::ACAstBaseNode, std::__1::default_delete<altered_carbon::js::ACAstBaseNode> > > >::__RAII_IncreaseAnnotator"*, align 8
  call void @llvm.dbg.declare(metadata %"struct.std::__1::vector<std::__1::unique_ptr<altered_carbon::js::ACAstBaseNode, std::__1::default_delete<altered_carbon::js::ACAstBaseNode> >, std::__1::allocator<std::__1::unique_ptr<altered_carbon::js::ACAstBaseNode, std::__1::default_delete<altered_carbon::js::ACAstBaseNode> > > >::__RAII_IncreaseAnnotator"** %182, metadata !8815, metadata !DIExpression()), !dbg !8817
  %183 = alloca %"class.std::__1::vector.38"*, align 8
  call void @llvm.dbg.declare(metadata %"class.std::__1::vector.38"** %183, metadata !8821, metadata !DIExpression()), !dbg !8822
  %184 = alloca i64, align 8
  call void @llvm.dbg.declare(metadata i64* %184, metadata !8823, metadata !DIExpression()), !dbg !8824
  %185 = alloca %"struct.std::__1::vector<std::__1::unique_ptr<altered_carbon::js::ACAstBaseNode, std::__1::default_delete<altered_carbon::js::ACAstBaseNode> >, std::__1::allocator<std::__1::unique_ptr<altered_carbon::js::ACAstBaseNode, std::__1::default_delete<altered_carbon::js::ACAstBaseNode> > > >::__RAII_IncreaseAnnotator"*, align 8
  call void @llvm.dbg.declare(metadata %"struct.std::__1::vector<std::__1::unique_ptr<altered_carbon::js::ACAstBaseNode, std::__1::default_delete<altered_carbon::js::ACAstBaseNode> >, std::__1::allocator<std::__1::unique_ptr<altered_carbon::js::ACAstBaseNode, std::__1::default_delete<altered_carbon::js::ACAstBaseNode> > > >::__RAII_IncreaseAnnotator"** %185, metadata !8825, metadata !DIExpression()), !dbg !8826
  %186 = alloca %"class.std::__1::vector.38"*, align 8
  call void @llvm.dbg.declare(metadata %"class.std::__1::vector.38"** %186, metadata !8827, metadata !DIExpression()), !dbg !8828
  %187 = alloca i64, align 8
  call void @llvm.dbg.declare(metadata i64* %187, metadata !8829, metadata !DIExpression()), !dbg !8830
  %188 = alloca %"struct.std::__1::__compressed_pair_elem.41"*, align 8
  call void @llvm.dbg.declare(metadata %"struct.std::__1::__compressed_pair_elem.41"** %188, metadata !8831, metadata !DIExpression()), !dbg !8834
  %189 = alloca %"class.std::__1::__compressed_pair.40"*, align 8
  call void @llvm.dbg.declare(metadata %"class.std::__1::__compressed_pair.40"** %189, metadata !8840, metadata !DIExpression()), !dbg !8841
  %190 = alloca %"class.std::__1::__vector_base.39"*, align 8
  call void @llvm.dbg.declare(metadata %"class.std::__1::__vector_base.39"** %190, metadata !8842, metadata !DIExpression()), !dbg !8843
  %191 = alloca %"class.std::__1::vector.38"*, align 8
  call void @llvm.dbg.declare(metadata %"class.std::__1::vector.38"** %191, metadata !8844, metadata !DIExpression()), !dbg !8846
  %192 = alloca %"class.std::__1::unique_ptr.29"*, align 8
  call void @llvm.dbg.declare(metadata %"class.std::__1::unique_ptr.29"** %192, metadata !8847, metadata !DIExpression()), !dbg !8848
  %193 = alloca %"struct.std::__1::vector<std::__1::unique_ptr<altered_carbon::js::ACAstBaseNode, std::__1::default_delete<altered_carbon::js::ACAstBaseNode> >, std::__1::allocator<std::__1::unique_ptr<altered_carbon::js::ACAstBaseNode, std::__1::default_delete<altered_carbon::js::ACAstBaseNode> > > >::__RAII_IncreaseAnnotator", align 1
  call void @llvm.dbg.declare(metadata %"struct.std::__1::vector<std::__1::unique_ptr<altered_carbon::js::ACAstBaseNode, std::__1::default_delete<altered_carbon::js::ACAstBaseNode> >, std::__1::allocator<std::__1::unique_ptr<altered_carbon::js::ACAstBaseNode, std::__1::default_delete<altered_carbon::js::ACAstBaseNode> > > >::__RAII_IncreaseAnnotator"* %193, metadata !8849, metadata !DIExpression()), !dbg !8850
  %194 = alloca %"struct.std::__1::__compressed_pair_elem.35"*, align 8
  call void @llvm.dbg.declare(metadata %"struct.std::__1::__compressed_pair_elem.35"** %194, metadata !8851, metadata !DIExpression()), !dbg !8854
  %195 = alloca %"class.std::__1::__compressed_pair.33"*, align 8
  call void @llvm.dbg.declare(metadata %"class.std::__1::__compressed_pair.33"** %195, metadata !8866, metadata !DIExpression()), !dbg !8868
  %196 = alloca %"struct.std::__1::__compressed_pair_elem.34"*, align 8
  call void @llvm.dbg.declare(metadata %"struct.std::__1::__compressed_pair_elem.34"** %196, metadata !8869, metadata !DIExpression()), !dbg !8872
  %197 = alloca %"class.std::__1::__compressed_pair.33"*, align 8
  call void @llvm.dbg.declare(metadata %"class.std::__1::__compressed_pair.33"** %197, metadata !8876, metadata !DIExpression()), !dbg !8877
  %198 = alloca %"struct.std::__1::default_delete.36"*, align 8
  call void @llvm.dbg.declare(metadata %"struct.std::__1::default_delete.36"** %198, metadata !8878, metadata !DIExpression()), !dbg !8881
  %199 = alloca %"struct.altered_carbon::js::ACLexPosition"*, align 8
  call void @llvm.dbg.declare(metadata %"struct.altered_carbon::js::ACLexPosition"** %199, metadata !8883, metadata !DIExpression()), !dbg !8884
  %200 = alloca %"struct.std::__1::__compressed_pair_elem.34"*, align 8
  call void @llvm.dbg.declare(metadata %"struct.std::__1::__compressed_pair_elem.34"** %200, metadata !8869, metadata !DIExpression()), !dbg !8885
  %201 = alloca %"class.std::__1::__compressed_pair.33"*, align 8
  call void @llvm.dbg.declare(metadata %"class.std::__1::__compressed_pair.33"** %201, metadata !8876, metadata !DIExpression()), !dbg !8888
  %202 = alloca %"class.std::__1::unique_ptr.32"*, align 8
  call void @llvm.dbg.declare(metadata %"class.std::__1::unique_ptr.32"** %202, metadata !8889, metadata !DIExpression()), !dbg !8891
  %203 = alloca %"struct.altered_carbon::js::ACLexPosition"*, align 8
  call void @llvm.dbg.declare(metadata %"struct.altered_carbon::js::ACLexPosition"** %203, metadata !8892, metadata !DIExpression()), !dbg !8893
  %204 = alloca %"struct.altered_carbon::js::ACLexPosition"*, align 8
  call void @llvm.dbg.declare(metadata %"struct.altered_carbon::js::ACLexPosition"** %204, metadata !8894, metadata !DIExpression()), !dbg !8895
  %205 = alloca %"class.std::__1::unique_ptr.32"*, align 8
  call void @llvm.dbg.declare(metadata %"class.std::__1::unique_ptr.32"** %205, metadata !8896, metadata !DIExpression()), !dbg !8897
  %206 = alloca %"class.std::__1::unique_ptr.32"*, align 8
  call void @llvm.dbg.declare(metadata %"class.std::__1::unique_ptr.32"** %206, metadata !8898, metadata !DIExpression()), !dbg !8899
  %207 = alloca %"struct.std::__1::__compressed_pair_elem.61"*, align 8
  call void @llvm.dbg.declare(metadata %"struct.std::__1::__compressed_pair_elem.61"** %207, metadata !8900, metadata !DIExpression()), !dbg !8903
  %208 = alloca %"class.std::__1::__compressed_pair.52"*, align 8
  call void @llvm.dbg.declare(metadata %"class.std::__1::__compressed_pair.52"** %208, metadata !8915, metadata !DIExpression()), !dbg !8917
  %209 = alloca %"struct.std::__1::__compressed_pair_elem.53"*, align 8
  call void @llvm.dbg.declare(metadata %"struct.std::__1::__compressed_pair_elem.53"** %209, metadata !8918, metadata !DIExpression()), !dbg !8921
  %210 = alloca %"class.std::__1::__compressed_pair.52"*, align 8
  call void @llvm.dbg.declare(metadata %"class.std::__1::__compressed_pair.52"** %210, metadata !8925, metadata !DIExpression()), !dbg !8926
  %211 = alloca %"struct.std::__1::default_delete.62"*, align 8
  call void @llvm.dbg.declare(metadata %"struct.std::__1::default_delete.62"** %211, metadata !8927, metadata !DIExpression()), !dbg !8930
  %212 = alloca %"class.altered_carbon::js::ACAstVariantNode"*, align 8
  call void @llvm.dbg.declare(metadata %"class.altered_carbon::js::ACAstVariantNode"** %212, metadata !8932, metadata !DIExpression()), !dbg !8933
  %213 = alloca %"struct.std::__1::__compressed_pair_elem.53"*, align 8
  call void @llvm.dbg.declare(metadata %"struct.std::__1::__compressed_pair_elem.53"** %213, metadata !8918, metadata !DIExpression()), !dbg !8934
  %214 = alloca %"class.std::__1::__compressed_pair.52"*, align 8
  call void @llvm.dbg.declare(metadata %"class.std::__1::__compressed_pair.52"** %214, metadata !8925, metadata !DIExpression()), !dbg !8937
  %215 = alloca %"class.std::__1::unique_ptr.51"*, align 8
  call void @llvm.dbg.declare(metadata %"class.std::__1::unique_ptr.51"** %215, metadata !8938, metadata !DIExpression()), !dbg !8940
  %216 = alloca %"class.altered_carbon::js::ACAstVariantNode"*, align 8
  call void @llvm.dbg.declare(metadata %"class.altered_carbon::js::ACAstVariantNode"** %216, metadata !8941, metadata !DIExpression()), !dbg !8942
  %217 = alloca %"class.altered_carbon::js::ACAstVariantNode"*, align 8
  call void @llvm.dbg.declare(metadata %"class.altered_carbon::js::ACAstVariantNode"** %217, metadata !8943, metadata !DIExpression()), !dbg !8944
  %218 = alloca %"class.std::__1::unique_ptr.51"*, align 8
  call void @llvm.dbg.declare(metadata %"class.std::__1::unique_ptr.51"** %218, metadata !8945, metadata !DIExpression()), !dbg !8946
  %219 = alloca %"class.std::__1::unique_ptr.51"*, align 8
  call void @llvm.dbg.declare(metadata %"class.std::__1::unique_ptr.51"** %219, metadata !8947, metadata !DIExpression()), !dbg !8948
  %220 = alloca %"struct.std::__1::__compressed_pair_elem.45"*, align 8
  call void @llvm.dbg.declare(metadata %"struct.std::__1::__compressed_pair_elem.45"** %220, metadata !8283, metadata !DIExpression()), !dbg !8949
  %221 = alloca %"class.std::__1::__compressed_pair.30"*, align 8
  call void @llvm.dbg.declare(metadata %"class.std::__1::__compressed_pair.30"** %221, metadata !8301, metadata !DIExpression()), !dbg !8955
  %222 = alloca %"struct.std::__1::__compressed_pair_elem.31"*, align 8
  call void @llvm.dbg.declare(metadata %"struct.std::__1::__compressed_pair_elem.31"** %222, metadata !8380, metadata !DIExpression()), !dbg !8956
  %223 = alloca %"class.std::__1::__compressed_pair.30"*, align 8
  call void @llvm.dbg.declare(metadata %"class.std::__1::__compressed_pair.30"** %223, metadata !8388, metadata !DIExpression()), !dbg !8959
  %224 = alloca %"struct.std::__1::default_delete.46"*, align 8
  call void @llvm.dbg.declare(metadata %"struct.std::__1::default_delete.46"** %224, metadata !8612, metadata !DIExpression()), !dbg !8960
  %225 = alloca %"class.altered_carbon::js::ACAstBaseNode"*, align 8
  call void @llvm.dbg.declare(metadata %"class.altered_carbon::js::ACAstBaseNode"** %225, metadata !8617, metadata !DIExpression()), !dbg !8962
  %226 = alloca %"struct.std::__1::__compressed_pair_elem.31"*, align 8
  call void @llvm.dbg.declare(metadata %"struct.std::__1::__compressed_pair_elem.31"** %226, metadata !8380, metadata !DIExpression()), !dbg !8963
  %227 = alloca %"class.std::__1::__compressed_pair.30"*, align 8
  call void @llvm.dbg.declare(metadata %"class.std::__1::__compressed_pair.30"** %227, metadata !8388, metadata !DIExpression()), !dbg !8966
  %228 = alloca %"class.std::__1::unique_ptr.29"*, align 8
  call void @llvm.dbg.declare(metadata %"class.std::__1::unique_ptr.29"** %228, metadata !8623, metadata !DIExpression()), !dbg !8967
  %229 = alloca %"class.altered_carbon::js::ACAstBaseNode"*, align 8
  call void @llvm.dbg.declare(metadata %"class.altered_carbon::js::ACAstBaseNode"** %229, metadata !8625, metadata !DIExpression()), !dbg !8968
  %230 = alloca %"class.altered_carbon::js::ACAstBaseNode"*, align 8
  call void @llvm.dbg.declare(metadata %"class.altered_carbon::js::ACAstBaseNode"** %230, metadata !8627, metadata !DIExpression()), !dbg !8969
  %231 = alloca %"class.std::__1::unique_ptr.29"*, align 8
  call void @llvm.dbg.declare(metadata %"class.std::__1::unique_ptr.29"** %231, metadata !8659, metadata !DIExpression()), !dbg !8970
  %232 = alloca %"class.std::__1::unique_ptr.29"*, align 8
  call void @llvm.dbg.declare(metadata %"class.std::__1::unique_ptr.29"** %232, metadata !8661, metadata !DIExpression()), !dbg !8971
  %233 = alloca %"struct.std::__1::__compressed_pair_elem.42"*, align 8
  call void @llvm.dbg.declare(metadata %"struct.std::__1::__compressed_pair_elem.42"** %233, metadata !8663, metadata !DIExpression()), !dbg !8972
  %234 = alloca %"class.std::__1::__compressed_pair.40"*, align 8
  call void @llvm.dbg.declare(metadata %"class.std::__1::__compressed_pair.40"** %234, metadata !8676, metadata !DIExpression()), !dbg !8977
  %235 = alloca %"class.std::__1::__vector_base.39"*, align 8
  call void @llvm.dbg.declare(metadata %"class.std::__1::__vector_base.39"** %235, metadata !8679, metadata !DIExpression()), !dbg !8978
  %236 = alloca %"class.std::__1::unique_ptr.29"*, align 8
  call void @llvm.dbg.declare(metadata %"class.std::__1::unique_ptr.29"** %236, metadata !8682, metadata !DIExpression()), !dbg !8979
  %237 = alloca %"class.std::__1::unique_ptr.29"*, align 8
  call void @llvm.dbg.declare(metadata %"class.std::__1::unique_ptr.29"** %237, metadata !8688, metadata !DIExpression()), !dbg !8981
  %238 = alloca %"struct.std::__1::__compressed_pair_elem.45"*, align 8
  call void @llvm.dbg.declare(metadata %"struct.std::__1::__compressed_pair_elem.45"** %238, metadata !8283, metadata !DIExpression()), !dbg !8983
  %239 = alloca %"class.std::__1::__compressed_pair.30"*, align 8
  call void @llvm.dbg.declare(metadata %"class.std::__1::__compressed_pair.30"** %239, metadata !8301, metadata !DIExpression()), !dbg !8992
  %240 = alloca %"class.std::__1::unique_ptr.29"*, align 8
  call void @llvm.dbg.declare(metadata %"class.std::__1::unique_ptr.29"** %240, metadata !8304, metadata !DIExpression()), !dbg !8993
  %241 = alloca %"struct.std::__1::default_delete.46"*, align 8
  call void @llvm.dbg.declare(metadata %"struct.std::__1::default_delete.46"** %241, metadata !8306, metadata !DIExpression()), !dbg !8994
  %242 = alloca %"class.altered_carbon::js::ACAstBaseNode"**, align 8
  call void @llvm.dbg.declare(metadata %"class.altered_carbon::js::ACAstBaseNode"*** %242, metadata !8317, metadata !DIExpression()), !dbg !8996
  %243 = alloca %"struct.std::__1::__compressed_pair_elem.31"*, align 8
  call void @llvm.dbg.declare(metadata %"struct.std::__1::__compressed_pair_elem.31"** %243, metadata !8346, metadata !DIExpression()), !dbg !9001
  %244 = alloca %"class.altered_carbon::js::ACAstBaseNode"**, align 8
  call void @llvm.dbg.declare(metadata %"class.altered_carbon::js::ACAstBaseNode"*** %244, metadata !8349, metadata !DIExpression()), !dbg !9002
  %245 = alloca %"struct.std::__1::default_delete.46"*, align 8
  call void @llvm.dbg.declare(metadata %"struct.std::__1::default_delete.46"** %245, metadata !8306, metadata !DIExpression()), !dbg !9003
  %246 = alloca %"struct.std::__1::default_delete.46"*, align 8
  call void @llvm.dbg.declare(metadata %"struct.std::__1::default_delete.46"** %246, metadata !8306, metadata !DIExpression()), !dbg !9005
  %247 = alloca %"struct.std::__1::__compressed_pair_elem.45"*, align 8
  call void @llvm.dbg.declare(metadata %"struct.std::__1::__compressed_pair_elem.45"** %247, metadata !8362, metadata !DIExpression()), !dbg !9008
  %248 = alloca %"struct.std::__1::default_delete.46"*, align 8
  call void @llvm.dbg.declare(metadata %"struct.std::__1::default_delete.46"** %248, metadata !8364, metadata !DIExpression()), !dbg !9009
  %249 = alloca %"class.altered_carbon::js::ACAstBaseNode"**, align 8
  call void @llvm.dbg.declare(metadata %"class.altered_carbon::js::ACAstBaseNode"*** %249, metadata !8317, metadata !DIExpression()), !dbg !9010
  %250 = alloca %"class.std::__1::__compressed_pair.30"*, align 8
  call void @llvm.dbg.declare(metadata %"class.std::__1::__compressed_pair.30"** %250, metadata !8368, metadata !DIExpression()), !dbg !9012
  %251 = alloca %"class.altered_carbon::js::ACAstBaseNode"**, align 8
  call void @llvm.dbg.declare(metadata %"class.altered_carbon::js::ACAstBaseNode"*** %251, metadata !8370, metadata !DIExpression()), !dbg !9013
  %252 = alloca %"struct.std::__1::default_delete.46"*, align 8
  call void @llvm.dbg.declare(metadata %"struct.std::__1::default_delete.46"** %252, metadata !8372, metadata !DIExpression()), !dbg !9014
  %253 = alloca %"class.std::__1::__compressed_pair.30"*, align 8
  call void @llvm.dbg.declare(metadata %"class.std::__1::__compressed_pair.30"** %253, metadata !8374, metadata !DIExpression()), !dbg !9015
  %254 = alloca %"class.altered_carbon::js::ACAstBaseNode"**, align 8
  call void @llvm.dbg.declare(metadata %"class.altered_carbon::js::ACAstBaseNode"*** %254, metadata !8376, metadata !DIExpression()), !dbg !9016
  %255 = alloca %"struct.std::__1::default_delete.46"*, align 8
  call void @llvm.dbg.declare(metadata %"struct.std::__1::default_delete.46"** %255, metadata !8378, metadata !DIExpression()), !dbg !9017
  %256 = alloca %"struct.std::__1::__compressed_pair_elem.31"*, align 8
  call void @llvm.dbg.declare(metadata %"struct.std::__1::__compressed_pair_elem.31"** %256, metadata !8380, metadata !DIExpression()), !dbg !9018
  %257 = alloca %"class.std::__1::__compressed_pair.30"*, align 8
  call void @llvm.dbg.declare(metadata %"class.std::__1::__compressed_pair.30"** %257, metadata !8388, metadata !DIExpression()), !dbg !9022
  %258 = alloca %"struct.std::__1::__compressed_pair_elem.31"*, align 8
  call void @llvm.dbg.declare(metadata %"struct.std::__1::__compressed_pair_elem.31"** %258, metadata !8380, metadata !DIExpression()), !dbg !9023
  %259 = alloca %"class.std::__1::__compressed_pair.30"*, align 8
  call void @llvm.dbg.declare(metadata %"class.std::__1::__compressed_pair.30"** %259, metadata !8388, metadata !DIExpression()), !dbg !9026
  %260 = alloca %"class.std::__1::unique_ptr.29"*, align 8
  call void @llvm.dbg.declare(metadata %"class.std::__1::unique_ptr.29"** %260, metadata !8394, metadata !DIExpression()), !dbg !9027
  %261 = alloca %"class.altered_carbon::js::ACAstBaseNode"*, align 8
  call void @llvm.dbg.declare(metadata %"class.altered_carbon::js::ACAstBaseNode"** %261, metadata !8396, metadata !DIExpression()), !dbg !9028
  %262 = alloca %"class.std::__1::unique_ptr.29"*, align 8
  call void @llvm.dbg.declare(metadata %"class.std::__1::unique_ptr.29"** %262, metadata !8398, metadata !DIExpression()), !dbg !9029
  %263 = alloca %"class.std::__1::unique_ptr.29"*, align 8
  call void @llvm.dbg.declare(metadata %"class.std::__1::unique_ptr.29"** %263, metadata !8400, metadata !DIExpression()), !dbg !9030
  %264 = alloca %"class.altered_carbon::js::ACAstBaseNode"*, align 8
  %265 = alloca %"class.std::__1::unique_ptr.29"*, align 8
  call void @llvm.dbg.declare(metadata %"class.std::__1::unique_ptr.29"** %265, metadata !8402, metadata !DIExpression()), !dbg !9031
  %266 = alloca %"class.std::__1::unique_ptr.29"*, align 8
  call void @llvm.dbg.declare(metadata %"class.std::__1::unique_ptr.29"** %266, metadata !8404, metadata !DIExpression()), !dbg !9032
  %267 = alloca %"class.std::__1::unique_ptr.29"*, align 8
  call void @llvm.dbg.declare(metadata %"class.std::__1::unique_ptr.29"** %267, metadata !8767, metadata !DIExpression()), !dbg !9033
  %268 = alloca %"class.std::__1::allocator.43"*, align 8
  call void @llvm.dbg.declare(metadata %"class.std::__1::allocator.43"** %268, metadata !8776, metadata !DIExpression()), !dbg !9035
  %269 = alloca %"class.std::__1::unique_ptr.29"*, align 8
  call void @llvm.dbg.declare(metadata %"class.std::__1::unique_ptr.29"** %269, metadata !8779, metadata !DIExpression()), !dbg !9036
  %270 = alloca %"class.std::__1::unique_ptr.29"*, align 8
  call void @llvm.dbg.declare(metadata %"class.std::__1::unique_ptr.29"** %270, metadata !8781, metadata !DIExpression()), !dbg !9037
  %271 = alloca %"class.std::__1::unique_ptr.29"*, align 8
  call void @llvm.dbg.declare(metadata %"class.std::__1::unique_ptr.29"** %271, metadata !8767, metadata !DIExpression()), !dbg !9038
  %272 = alloca %"class.std::__1::allocator.43"*, align 8
  call void @llvm.dbg.declare(metadata %"class.std::__1::allocator.43"** %272, metadata !8785, metadata !DIExpression()), !dbg !9040
  %273 = alloca %"class.std::__1::unique_ptr.29"*, align 8
  call void @llvm.dbg.declare(metadata %"class.std::__1::unique_ptr.29"** %273, metadata !8787, metadata !DIExpression()), !dbg !9041
  %274 = alloca %"class.std::__1::unique_ptr.29"*, align 8
  call void @llvm.dbg.declare(metadata %"class.std::__1::unique_ptr.29"** %274, metadata !8789, metadata !DIExpression()), !dbg !9042
  %275 = alloca %"class.std::__1::unique_ptr.29"*, align 8
  call void @llvm.dbg.declare(metadata %"class.std::__1::unique_ptr.29"** %275, metadata !8767, metadata !DIExpression()), !dbg !9043
  %276 = alloca %"class.std::__1::allocator.43"*, align 8
  call void @llvm.dbg.declare(metadata %"class.std::__1::allocator.43"** %276, metadata !8793, metadata !DIExpression()), !dbg !9045
  %277 = alloca %"class.std::__1::unique_ptr.29"*, align 8
  call void @llvm.dbg.declare(metadata %"class.std::__1::unique_ptr.29"** %277, metadata !8795, metadata !DIExpression()), !dbg !9046
  %278 = alloca %"class.std::__1::unique_ptr.29"*, align 8
  call void @llvm.dbg.declare(metadata %"class.std::__1::unique_ptr.29"** %278, metadata !8797, metadata !DIExpression()), !dbg !9047
  %279 = alloca %"struct.std::__1::__has_construct", align 1
  %280 = alloca %"struct.std::__1::vector<std::__1::unique_ptr<altered_carbon::js::ACAstBaseNode, std::__1::default_delete<altered_carbon::js::ACAstBaseNode> >, std::__1::allocator<std::__1::unique_ptr<altered_carbon::js::ACAstBaseNode, std::__1::default_delete<altered_carbon::js::ACAstBaseNode> > > >::__RAII_IncreaseAnnotator"*, align 8
  call void @llvm.dbg.declare(metadata %"struct.std::__1::vector<std::__1::unique_ptr<altered_carbon::js::ACAstBaseNode, std::__1::default_delete<altered_carbon::js::ACAstBaseNode> >, std::__1::allocator<std::__1::unique_ptr<altered_carbon::js::ACAstBaseNode, std::__1::default_delete<altered_carbon::js::ACAstBaseNode> > > >::__RAII_IncreaseAnnotator"** %280, metadata !8799, metadata !DIExpression()), !dbg !9048
  %281 = alloca %"class.std::__1::unique_ptr.29"*, align 8
  call void @llvm.dbg.declare(metadata %"class.std::__1::unique_ptr.29"** %281, metadata !8688, metadata !DIExpression()), !dbg !9050
  %282 = alloca %"struct.std::__1::vector<std::__1::unique_ptr<altered_carbon::js::ACAstBaseNode, std::__1::default_delete<altered_carbon::js::ACAstBaseNode> >, std::__1::allocator<std::__1::unique_ptr<altered_carbon::js::ACAstBaseNode, std::__1::default_delete<altered_carbon::js::ACAstBaseNode> > > >::__RAII_IncreaseAnnotator"*, align 8
  call void @llvm.dbg.declare(metadata %"struct.std::__1::vector<std::__1::unique_ptr<altered_carbon::js::ACAstBaseNode, std::__1::default_delete<altered_carbon::js::ACAstBaseNode> >, std::__1::allocator<std::__1::unique_ptr<altered_carbon::js::ACAstBaseNode, std::__1::default_delete<altered_carbon::js::ACAstBaseNode> > > >::__RAII_IncreaseAnnotator"** %282, metadata !8815, metadata !DIExpression()), !dbg !9052
  %283 = alloca %"class.std::__1::vector.38"*, align 8
  call void @llvm.dbg.declare(metadata %"class.std::__1::vector.38"** %283, metadata !8821, metadata !DIExpression()), !dbg !9055
  %284 = alloca i64, align 8
  call void @llvm.dbg.declare(metadata i64* %284, metadata !8823, metadata !DIExpression()), !dbg !9056
  %285 = alloca %"struct.std::__1::vector<std::__1::unique_ptr<altered_carbon::js::ACAstBaseNode, std::__1::default_delete<altered_carbon::js::ACAstBaseNode> >, std::__1::allocator<std::__1::unique_ptr<altered_carbon::js::ACAstBaseNode, std::__1::default_delete<altered_carbon::js::ACAstBaseNode> > > >::__RAII_IncreaseAnnotator"*, align 8
  call void @llvm.dbg.declare(metadata %"struct.std::__1::vector<std::__1::unique_ptr<altered_carbon::js::ACAstBaseNode, std::__1::default_delete<altered_carbon::js::ACAstBaseNode> >, std::__1::allocator<std::__1::unique_ptr<altered_carbon::js::ACAstBaseNode, std::__1::default_delete<altered_carbon::js::ACAstBaseNode> > > >::__RAII_IncreaseAnnotator"** %285, metadata !8825, metadata !DIExpression()), !dbg !9057
  %286 = alloca %"class.std::__1::vector.38"*, align 8
  call void @llvm.dbg.declare(metadata %"class.std::__1::vector.38"** %286, metadata !8827, metadata !DIExpression()), !dbg !9058
  %287 = alloca i64, align 8
  call void @llvm.dbg.declare(metadata i64* %287, metadata !8829, metadata !DIExpression()), !dbg !9059
  %288 = alloca %"struct.std::__1::__compressed_pair_elem.41"*, align 8
  call void @llvm.dbg.declare(metadata %"struct.std::__1::__compressed_pair_elem.41"** %288, metadata !8831, metadata !DIExpression()), !dbg !9060
  %289 = alloca %"class.std::__1::__compressed_pair.40"*, align 8
  call void @llvm.dbg.declare(metadata %"class.std::__1::__compressed_pair.40"** %289, metadata !8840, metadata !DIExpression()), !dbg !9064
  %290 = alloca %"class.std::__1::__vector_base.39"*, align 8
  call void @llvm.dbg.declare(metadata %"class.std::__1::__vector_base.39"** %290, metadata !8842, metadata !DIExpression()), !dbg !9065
  %291 = alloca %"class.std::__1::vector.38"*, align 8
  call void @llvm.dbg.declare(metadata %"class.std::__1::vector.38"** %291, metadata !8844, metadata !DIExpression()), !dbg !9066
  %292 = alloca %"class.std::__1::unique_ptr.29"*, align 8
  call void @llvm.dbg.declare(metadata %"class.std::__1::unique_ptr.29"** %292, metadata !8847, metadata !DIExpression()), !dbg !9067
  %293 = alloca %"struct.std::__1::vector<std::__1::unique_ptr<altered_carbon::js::ACAstBaseNode, std::__1::default_delete<altered_carbon::js::ACAstBaseNode> >, std::__1::allocator<std::__1::unique_ptr<altered_carbon::js::ACAstBaseNode, std::__1::default_delete<altered_carbon::js::ACAstBaseNode> > > >::__RAII_IncreaseAnnotator", align 1
  call void @llvm.dbg.declare(metadata %"struct.std::__1::vector<std::__1::unique_ptr<altered_carbon::js::ACAstBaseNode, std::__1::default_delete<altered_carbon::js::ACAstBaseNode> >, std::__1::allocator<std::__1::unique_ptr<altered_carbon::js::ACAstBaseNode, std::__1::default_delete<altered_carbon::js::ACAstBaseNode> > > >::__RAII_IncreaseAnnotator"* %293, metadata !8849, metadata !DIExpression()), !dbg !9068
  %294 = alloca %"struct.std::__1::__compressed_pair_elem.67"*, align 8
  call void @llvm.dbg.declare(metadata %"struct.std::__1::__compressed_pair_elem.67"** %294, metadata !9069, metadata !DIExpression()), !dbg !9072
  %295 = alloca %"class.std::__1::__compressed_pair.65"*, align 8
  call void @llvm.dbg.declare(metadata %"class.std::__1::__compressed_pair.65"** %295, metadata !9084, metadata !DIExpression()), !dbg !9085
  %296 = alloca %"struct.std::__1::__compressed_pair_elem.66"*, align 8
  call void @llvm.dbg.declare(metadata %"struct.std::__1::__compressed_pair_elem.66"** %296, metadata !8574, metadata !DIExpression()), !dbg !9086
  %297 = alloca %"class.std::__1::__compressed_pair.65"*, align 8
  call void @llvm.dbg.declare(metadata %"class.std::__1::__compressed_pair.65"** %297, metadata !8583, metadata !DIExpression()), !dbg !9089
  %298 = alloca %"struct.std::__1::default_delete.68"*, align 8
  call void @llvm.dbg.declare(metadata %"struct.std::__1::default_delete.68"** %298, metadata !9090, metadata !DIExpression()), !dbg !9093
  %299 = alloca %"class.altered_carbon::js::ACAstCollectionNode"*, align 8
  call void @llvm.dbg.declare(metadata %"class.altered_carbon::js::ACAstCollectionNode"** %299, metadata !9095, metadata !DIExpression()), !dbg !9096
  %300 = alloca %"struct.std::__1::__compressed_pair_elem.66"*, align 8
  call void @llvm.dbg.declare(metadata %"struct.std::__1::__compressed_pair_elem.66"** %300, metadata !8574, metadata !DIExpression()), !dbg !9097
  %301 = alloca %"class.std::__1::__compressed_pair.65"*, align 8
  call void @llvm.dbg.declare(metadata %"class.std::__1::__compressed_pair.65"** %301, metadata !8583, metadata !DIExpression()), !dbg !9100
  %302 = alloca %"class.std::__1::unique_ptr.64"*, align 8
  call void @llvm.dbg.declare(metadata %"class.std::__1::unique_ptr.64"** %302, metadata !9101, metadata !DIExpression()), !dbg !9102
  %303 = alloca %"class.altered_carbon::js::ACAstCollectionNode"*, align 8
  call void @llvm.dbg.declare(metadata %"class.altered_carbon::js::ACAstCollectionNode"** %303, metadata !9103, metadata !DIExpression()), !dbg !9104
  %304 = alloca %"class.altered_carbon::js::ACAstCollectionNode"*, align 8
  call void @llvm.dbg.declare(metadata %"class.altered_carbon::js::ACAstCollectionNode"** %304, metadata !9105, metadata !DIExpression()), !dbg !9106
  %305 = alloca %"class.std::__1::unique_ptr.64"*, align 8
  call void @llvm.dbg.declare(metadata %"class.std::__1::unique_ptr.64"** %305, metadata !9107, metadata !DIExpression()), !dbg !9108
  %306 = alloca %"class.std::__1::unique_ptr.64"*, align 8
  call void @llvm.dbg.declare(metadata %"class.std::__1::unique_ptr.64"** %306, metadata !9109, metadata !DIExpression()), !dbg !9110
  %307 = alloca %"class.altered_carbon::js::ACAstBaseNode"**, align 8
  call void @llvm.dbg.declare(metadata %"class.altered_carbon::js::ACAstBaseNode"*** %307, metadata !9111, metadata !DIExpression()), !dbg !9120
  %308 = alloca %"struct.std::__1::__compressed_pair_elem.31"*, align 8
  call void @llvm.dbg.declare(metadata %"struct.std::__1::__compressed_pair_elem.31"** %308, metadata !9144, metadata !DIExpression()), !dbg !9145
  %309 = alloca %"class.altered_carbon::js::ACAstBaseNode"**, align 8
  call void @llvm.dbg.declare(metadata %"class.altered_carbon::js::ACAstBaseNode"*** %309, metadata !9146, metadata !DIExpression()), !dbg !9147
  %310 = alloca %"class.altered_carbon::js::ACAstBaseNode"**, align 8
  call void @llvm.dbg.declare(metadata %"class.altered_carbon::js::ACAstBaseNode"*** %310, metadata !9111, metadata !DIExpression()), !dbg !9148
  %311 = alloca %"class.std::__1::__compressed_pair.30"*, align 8
  call void @llvm.dbg.declare(metadata %"class.std::__1::__compressed_pair.30"** %311, metadata !9150, metadata !DIExpression()), !dbg !9151
  %312 = alloca %"class.altered_carbon::js::ACAstBaseNode"**, align 8
  call void @llvm.dbg.declare(metadata %"class.altered_carbon::js::ACAstBaseNode"*** %312, metadata !9152, metadata !DIExpression()), !dbg !9153
  %313 = alloca %"class.std::__1::__compressed_pair.30"*, align 8
  call void @llvm.dbg.declare(metadata %"class.std::__1::__compressed_pair.30"** %313, metadata !9154, metadata !DIExpression()), !dbg !9155
  %314 = alloca %"class.altered_carbon::js::ACAstBaseNode"**, align 8
  call void @llvm.dbg.declare(metadata %"class.altered_carbon::js::ACAstBaseNode"*** %314, metadata !9156, metadata !DIExpression()), !dbg !9157
  %315 = alloca %"class.std::__1::unique_ptr.29"*, align 8
  call void @llvm.dbg.declare(metadata %"class.std::__1::unique_ptr.29"** %315, metadata !9158, metadata !DIExpression()), !dbg !9159
  %316 = alloca %"class.altered_carbon::js::ACAstBaseNode"*, align 8
  call void @llvm.dbg.declare(metadata %"class.altered_carbon::js::ACAstBaseNode"** %316, metadata !9160, metadata !DIExpression()), !dbg !9161
  %317 = alloca %"class.std::__1::unique_ptr.29"*, align 8
  call void @llvm.dbg.declare(metadata %"class.std::__1::unique_ptr.29"** %317, metadata !9162, metadata !DIExpression()), !dbg !9163
  %318 = alloca %"class.altered_carbon::js::ACAstBaseNode"*, align 8
  call void @llvm.dbg.declare(metadata %"class.altered_carbon::js::ACAstBaseNode"** %318, metadata !9164, metadata !DIExpression()), !dbg !9165
  %319 = alloca %"struct.std::__1::__compressed_pair_elem.35"*, align 8
  call void @llvm.dbg.declare(metadata %"struct.std::__1::__compressed_pair_elem.35"** %319, metadata !8851, metadata !DIExpression()), !dbg !9166
  %320 = alloca %"class.std::__1::__compressed_pair.33"*, align 8
  call void @llvm.dbg.declare(metadata %"class.std::__1::__compressed_pair.33"** %320, metadata !8866, metadata !DIExpression()), !dbg !9172
  %321 = alloca %"struct.std::__1::__compressed_pair_elem.34"*, align 8
  call void @llvm.dbg.declare(metadata %"struct.std::__1::__compressed_pair_elem.34"** %321, metadata !8869, metadata !DIExpression()), !dbg !9173
  %322 = alloca %"class.std::__1::__compressed_pair.33"*, align 8
  call void @llvm.dbg.declare(metadata %"class.std::__1::__compressed_pair.33"** %322, metadata !8876, metadata !DIExpression()), !dbg !9176
  %323 = alloca %"struct.std::__1::default_delete.36"*, align 8
  call void @llvm.dbg.declare(metadata %"struct.std::__1::default_delete.36"** %323, metadata !8878, metadata !DIExpression()), !dbg !9177
  %324 = alloca %"struct.altered_carbon::js::ACLexPosition"*, align 8
  call void @llvm.dbg.declare(metadata %"struct.altered_carbon::js::ACLexPosition"** %324, metadata !8883, metadata !DIExpression()), !dbg !9179
  %325 = alloca %"struct.std::__1::__compressed_pair_elem.34"*, align 8
  call void @llvm.dbg.declare(metadata %"struct.std::__1::__compressed_pair_elem.34"** %325, metadata !8869, metadata !DIExpression()), !dbg !9180
  %326 = alloca %"class.std::__1::__compressed_pair.33"*, align 8
  call void @llvm.dbg.declare(metadata %"class.std::__1::__compressed_pair.33"** %326, metadata !8876, metadata !DIExpression()), !dbg !9183
  %327 = alloca %"class.std::__1::unique_ptr.32"*, align 8
  call void @llvm.dbg.declare(metadata %"class.std::__1::unique_ptr.32"** %327, metadata !8889, metadata !DIExpression()), !dbg !9184
  %328 = alloca %"struct.altered_carbon::js::ACLexPosition"*, align 8
  call void @llvm.dbg.declare(metadata %"struct.altered_carbon::js::ACLexPosition"** %328, metadata !8892, metadata !DIExpression()), !dbg !9185
  %329 = alloca %"struct.altered_carbon::js::ACLexPosition"*, align 8
  call void @llvm.dbg.declare(metadata %"struct.altered_carbon::js::ACLexPosition"** %329, metadata !8894, metadata !DIExpression()), !dbg !9186
  %330 = alloca %"class.std::__1::unique_ptr.32"*, align 8
  call void @llvm.dbg.declare(metadata %"class.std::__1::unique_ptr.32"** %330, metadata !8896, metadata !DIExpression()), !dbg !9187
  %331 = alloca %"class.std::__1::unique_ptr.32"*, align 8
  call void @llvm.dbg.declare(metadata %"class.std::__1::unique_ptr.32"** %331, metadata !8898, metadata !DIExpression()), !dbg !9188
  %332 = alloca %"struct.std::__1::__compressed_pair_elem.53"*, align 8
  call void @llvm.dbg.declare(metadata %"struct.std::__1::__compressed_pair_elem.53"** %332, metadata !8918, metadata !DIExpression()), !dbg !9189
  %333 = alloca %"class.std::__1::__compressed_pair.52"*, align 8
  call void @llvm.dbg.declare(metadata %"class.std::__1::__compressed_pair.52"** %333, metadata !8925, metadata !DIExpression()), !dbg !9194
  %334 = alloca %"struct.std::__1::__compressed_pair_elem.53"*, align 8
  call void @llvm.dbg.declare(metadata %"struct.std::__1::__compressed_pair_elem.53"** %334, metadata !8918, metadata !DIExpression()), !dbg !9195
  %335 = alloca %"class.std::__1::__compressed_pair.52"*, align 8
  call void @llvm.dbg.declare(metadata %"class.std::__1::__compressed_pair.52"** %335, metadata !8925, metadata !DIExpression()), !dbg !9198
  %336 = alloca %"class.std::__1::unique_ptr.51"*, align 8
  call void @llvm.dbg.declare(metadata %"class.std::__1::unique_ptr.51"** %336, metadata !9199, metadata !DIExpression()), !dbg !9200
  %337 = alloca %"class.altered_carbon::js::ACAstVariantNode"*, align 8
  call void @llvm.dbg.declare(metadata %"class.altered_carbon::js::ACAstVariantNode"** %337, metadata !9201, metadata !DIExpression()), !dbg !9202
  %338 = alloca %"struct.std::__1::__compressed_pair_elem.16"*, align 8
  call void @llvm.dbg.declare(metadata %"struct.std::__1::__compressed_pair_elem.16"** %338, metadata !8455, metadata !DIExpression()), !dbg !9203
  %339 = alloca %"class.std::__1::__compressed_pair.15"*, align 8
  call void @llvm.dbg.declare(metadata %"class.std::__1::__compressed_pair.15"** %339, metadata !8464, metadata !DIExpression()), !dbg !9207
  %340 = alloca %"class.std::__1::unique_ptr"*, align 8
  call void @llvm.dbg.declare(metadata %"class.std::__1::unique_ptr"** %340, metadata !8476, metadata !DIExpression()), !dbg !9208
  %341 = alloca %"struct.std::__1::__compressed_pair_elem.16"*, align 8
  call void @llvm.dbg.declare(metadata %"struct.std::__1::__compressed_pair_elem.16"** %341, metadata !8455, metadata !DIExpression()), !dbg !9209
  %342 = alloca %"class.std::__1::__compressed_pair.15"*, align 8
  call void @llvm.dbg.declare(metadata %"class.std::__1::__compressed_pair.15"** %342, metadata !8464, metadata !DIExpression()), !dbg !9213
  %343 = alloca %"class.std::__1::unique_ptr"*, align 8
  call void @llvm.dbg.declare(metadata %"class.std::__1::unique_ptr"** %343, metadata !8467, metadata !DIExpression()), !dbg !9214
  %344 = alloca %"struct.std::__1::__compressed_pair_elem.25"*, align 8
  call void @llvm.dbg.declare(metadata %"struct.std::__1::__compressed_pair_elem.25"** %344, metadata !8406, metadata !DIExpression()), !dbg !9215
  %345 = alloca %"class.std::__1::__compressed_pair.15"*, align 8
  call void @llvm.dbg.declare(metadata %"class.std::__1::__compressed_pair.15"** %345, metadata !8421, metadata !DIExpression()), !dbg !9221
  %346 = alloca %"struct.std::__1::__compressed_pair_elem.16"*, align 8
  call void @llvm.dbg.declare(metadata %"struct.std::__1::__compressed_pair_elem.16"** %346, metadata !8424, metadata !DIExpression()), !dbg !9222
  %347 = alloca %"class.std::__1::__compressed_pair.15"*, align 8
  call void @llvm.dbg.declare(metadata %"class.std::__1::__compressed_pair.15"** %347, metadata !8431, metadata !DIExpression()), !dbg !9225
  %348 = alloca %"struct.std::__1::default_delete"*, align 8
  call void @llvm.dbg.declare(metadata %"struct.std::__1::default_delete"** %348, metadata !8433, metadata !DIExpression()), !dbg !9226
  %349 = alloca %"class.altered_carbon::js::ACLexToken"*, align 8
  call void @llvm.dbg.declare(metadata %"class.altered_carbon::js::ACLexToken"** %349, metadata !8438, metadata !DIExpression()), !dbg !9228
  %350 = alloca %"struct.std::__1::__compressed_pair_elem.16"*, align 8
  call void @llvm.dbg.declare(metadata %"struct.std::__1::__compressed_pair_elem.16"** %350, metadata !8424, metadata !DIExpression()), !dbg !9229
  %351 = alloca %"class.std::__1::__compressed_pair.15"*, align 8
  call void @llvm.dbg.declare(metadata %"class.std::__1::__compressed_pair.15"** %351, metadata !8431, metadata !DIExpression()), !dbg !9232
  %352 = alloca %"class.std::__1::unique_ptr"*, align 8
  call void @llvm.dbg.declare(metadata %"class.std::__1::unique_ptr"** %352, metadata !8444, metadata !DIExpression()), !dbg !9233
  %353 = alloca %"class.altered_carbon::js::ACLexToken"*, align 8
  call void @llvm.dbg.declare(metadata %"class.altered_carbon::js::ACLexToken"** %353, metadata !8447, metadata !DIExpression()), !dbg !9234
  %354 = alloca %"class.altered_carbon::js::ACLexToken"*, align 8
  call void @llvm.dbg.declare(metadata %"class.altered_carbon::js::ACLexToken"** %354, metadata !8449, metadata !DIExpression()), !dbg !9235
  %355 = alloca %"class.std::__1::unique_ptr"*, align 8
  call void @llvm.dbg.declare(metadata %"class.std::__1::unique_ptr"** %355, metadata !8451, metadata !DIExpression()), !dbg !9236
  %356 = alloca %"class.std::__1::unique_ptr"*, align 8
  call void @llvm.dbg.declare(metadata %"class.std::__1::unique_ptr"** %356, metadata !8453, metadata !DIExpression()), !dbg !9237
  %357 = alloca %"struct.std::__1::__compressed_pair_elem.16"*, align 8
  call void @llvm.dbg.declare(metadata %"struct.std::__1::__compressed_pair_elem.16"** %357, metadata !8455, metadata !DIExpression()), !dbg !9238
  %358 = alloca %"class.std::__1::__compressed_pair.15"*, align 8
  call void @llvm.dbg.declare(metadata %"class.std::__1::__compressed_pair.15"** %358, metadata !8464, metadata !DIExpression()), !dbg !9242
  %359 = alloca %"class.std::__1::unique_ptr"*, align 8
  call void @llvm.dbg.declare(metadata %"class.std::__1::unique_ptr"** %359, metadata !8476, metadata !DIExpression()), !dbg !9243
  %360 = alloca %"struct.std::__1::__compressed_pair_elem.16"*, align 8
  call void @llvm.dbg.declare(metadata %"struct.std::__1::__compressed_pair_elem.16"** %360, metadata !8455, metadata !DIExpression()), !dbg !9244
  %361 = alloca %"class.std::__1::__compressed_pair.15"*, align 8
  call void @llvm.dbg.declare(metadata %"class.std::__1::__compressed_pair.15"** %361, metadata !8464, metadata !DIExpression()), !dbg !9248
  %362 = alloca %"class.std::__1::unique_ptr"*, align 8
  call void @llvm.dbg.declare(metadata %"class.std::__1::unique_ptr"** %362, metadata !8476, metadata !DIExpression()), !dbg !9249
  %363 = alloca %"struct.std::__1::__compressed_pair_elem"*, align 8
  call void @llvm.dbg.declare(metadata %"struct.std::__1::__compressed_pair_elem"** %363, metadata !9250, metadata !DIExpression()), !dbg !9253
  %364 = alloca %"class.std::__1::__compressed_pair"*, align 8
  call void @llvm.dbg.declare(metadata %"class.std::__1::__compressed_pair"** %364, metadata !9263, metadata !DIExpression()), !dbg !9265
  %365 = alloca %"class.std::__1::basic_string"*, align 8
  call void @llvm.dbg.declare(metadata %"class.std::__1::basic_string"** %365, metadata !9266, metadata !DIExpression()), !dbg !9268
  %366 = alloca %"struct.std::__1::__compressed_pair_elem"*, align 8
  call void @llvm.dbg.declare(metadata %"struct.std::__1::__compressed_pair_elem"** %366, metadata !9250, metadata !DIExpression()), !dbg !9269
  %367 = alloca %"class.std::__1::__compressed_pair"*, align 8
  call void @llvm.dbg.declare(metadata %"class.std::__1::__compressed_pair"** %367, metadata !9263, metadata !DIExpression()), !dbg !9274
  %368 = alloca %"class.std::__1::basic_string"*, align 8
  call void @llvm.dbg.declare(metadata %"class.std::__1::basic_string"** %368, metadata !9275, metadata !DIExpression()), !dbg !9276
  %369 = alloca %"struct.std::__1::__compressed_pair_elem"*, align 8
  call void @llvm.dbg.declare(metadata %"struct.std::__1::__compressed_pair_elem"** %369, metadata !9250, metadata !DIExpression()), !dbg !9277
  %370 = alloca %"class.std::__1::__compressed_pair"*, align 8
  call void @llvm.dbg.declare(metadata %"class.std::__1::__compressed_pair"** %370, metadata !9263, metadata !DIExpression()), !dbg !9282
  %371 = alloca %"class.std::__1::basic_string"*, align 8
  call void @llvm.dbg.declare(metadata %"class.std::__1::basic_string"** %371, metadata !9283, metadata !DIExpression()), !dbg !9284
  %372 = alloca %"class.std::__1::basic_string"*, align 8
  call void @llvm.dbg.declare(metadata %"class.std::__1::basic_string"** %372, metadata !9285, metadata !DIExpression()), !dbg !9286
  %373 = alloca %"class.std::__1::basic_string"*, align 8
  call void @llvm.dbg.declare(metadata %"class.std::__1::basic_string"** %373, metadata !9287, metadata !DIExpression()), !dbg !9288
  %374 = alloca %"struct.std::__1::__compressed_pair_elem.25"*, align 8
  call void @llvm.dbg.declare(metadata %"struct.std::__1::__compressed_pair_elem.25"** %374, metadata !8406, metadata !DIExpression()), !dbg !9289
  %375 = alloca %"class.std::__1::__compressed_pair.15"*, align 8
  call void @llvm.dbg.declare(metadata %"class.std::__1::__compressed_pair.15"** %375, metadata !8421, metadata !DIExpression()), !dbg !9296
  %376 = alloca %"struct.std::__1::__compressed_pair_elem.16"*, align 8
  call void @llvm.dbg.declare(metadata %"struct.std::__1::__compressed_pair_elem.16"** %376, metadata !8424, metadata !DIExpression()), !dbg !9297
  %377 = alloca %"class.std::__1::__compressed_pair.15"*, align 8
  call void @llvm.dbg.declare(metadata %"class.std::__1::__compressed_pair.15"** %377, metadata !8431, metadata !DIExpression()), !dbg !9300
  %378 = alloca %"struct.std::__1::default_delete"*, align 8
  call void @llvm.dbg.declare(metadata %"struct.std::__1::default_delete"** %378, metadata !8433, metadata !DIExpression()), !dbg !9301
  %379 = alloca %"class.altered_carbon::js::ACLexToken"*, align 8
  call void @llvm.dbg.declare(metadata %"class.altered_carbon::js::ACLexToken"** %379, metadata !8438, metadata !DIExpression()), !dbg !9303
  %380 = alloca %"struct.std::__1::__compressed_pair_elem.16"*, align 8
  call void @llvm.dbg.declare(metadata %"struct.std::__1::__compressed_pair_elem.16"** %380, metadata !8424, metadata !DIExpression()), !dbg !9304
  %381 = alloca %"class.std::__1::__compressed_pair.15"*, align 8
  call void @llvm.dbg.declare(metadata %"class.std::__1::__compressed_pair.15"** %381, metadata !8431, metadata !DIExpression()), !dbg !9307
  %382 = alloca %"class.std::__1::unique_ptr"*, align 8
  call void @llvm.dbg.declare(metadata %"class.std::__1::unique_ptr"** %382, metadata !8444, metadata !DIExpression()), !dbg !9308
  %383 = alloca %"class.altered_carbon::js::ACLexToken"*, align 8
  call void @llvm.dbg.declare(metadata %"class.altered_carbon::js::ACLexToken"** %383, metadata !8447, metadata !DIExpression()), !dbg !9309
  %384 = alloca %"class.altered_carbon::js::ACLexToken"*, align 8
  call void @llvm.dbg.declare(metadata %"class.altered_carbon::js::ACLexToken"** %384, metadata !8449, metadata !DIExpression()), !dbg !9310
  %385 = alloca %"class.std::__1::unique_ptr"*, align 8
  call void @llvm.dbg.declare(metadata %"class.std::__1::unique_ptr"** %385, metadata !8451, metadata !DIExpression()), !dbg !9311
  %386 = alloca %"class.std::__1::unique_ptr"*, align 8
  call void @llvm.dbg.declare(metadata %"class.std::__1::unique_ptr"** %386, metadata !8453, metadata !DIExpression()), !dbg !9312
  %387 = alloca %"struct.std::__1::__compressed_pair_elem.45"*, align 8
  call void @llvm.dbg.declare(metadata %"struct.std::__1::__compressed_pair_elem.45"** %387, metadata !8283, metadata !DIExpression()), !dbg !9313
  %388 = alloca %"class.std::__1::__compressed_pair.30"*, align 8
  call void @llvm.dbg.declare(metadata %"class.std::__1::__compressed_pair.30"** %388, metadata !8301, metadata !DIExpression()), !dbg !9323
  %389 = alloca %"class.std::__1::unique_ptr.29"*, align 8
  call void @llvm.dbg.declare(metadata %"class.std::__1::unique_ptr.29"** %389, metadata !8304, metadata !DIExpression()), !dbg !9324
  %390 = alloca %"struct.std::__1::default_delete.46"*, align 8
  call void @llvm.dbg.declare(metadata %"struct.std::__1::default_delete.46"** %390, metadata !8306, metadata !DIExpression()), !dbg !9325
  %391 = alloca %"class.altered_carbon::js::ACAstBaseNode"**, align 8
  call void @llvm.dbg.declare(metadata %"class.altered_carbon::js::ACAstBaseNode"*** %391, metadata !8317, metadata !DIExpression()), !dbg !9327
  %392 = alloca %"struct.std::__1::__compressed_pair_elem.31"*, align 8
  call void @llvm.dbg.declare(metadata %"struct.std::__1::__compressed_pair_elem.31"** %392, metadata !8346, metadata !DIExpression()), !dbg !9332
  %393 = alloca %"class.altered_carbon::js::ACAstBaseNode"**, align 8
  call void @llvm.dbg.declare(metadata %"class.altered_carbon::js::ACAstBaseNode"*** %393, metadata !8349, metadata !DIExpression()), !dbg !9333
  %394 = alloca %"struct.std::__1::default_delete.46"*, align 8
  call void @llvm.dbg.declare(metadata %"struct.std::__1::default_delete.46"** %394, metadata !8306, metadata !DIExpression()), !dbg !9334
  %395 = alloca %"struct.std::__1::default_delete.46"*, align 8
  call void @llvm.dbg.declare(metadata %"struct.std::__1::default_delete.46"** %395, metadata !8306, metadata !DIExpression()), !dbg !9336
  %396 = alloca %"struct.std::__1::__compressed_pair_elem.45"*, align 8
  call void @llvm.dbg.declare(metadata %"struct.std::__1::__compressed_pair_elem.45"** %396, metadata !8362, metadata !DIExpression()), !dbg !9339
  %397 = alloca %"struct.std::__1::default_delete.46"*, align 8
  call void @llvm.dbg.declare(metadata %"struct.std::__1::default_delete.46"** %397, metadata !8364, metadata !DIExpression()), !dbg !9340
  %398 = alloca %"class.altered_carbon::js::ACAstBaseNode"**, align 8
  call void @llvm.dbg.declare(metadata %"class.altered_carbon::js::ACAstBaseNode"*** %398, metadata !8317, metadata !DIExpression()), !dbg !9341
  %399 = alloca %"class.std::__1::__compressed_pair.30"*, align 8
  call void @llvm.dbg.declare(metadata %"class.std::__1::__compressed_pair.30"** %399, metadata !8368, metadata !DIExpression()), !dbg !9343
  %400 = alloca %"class.altered_carbon::js::ACAstBaseNode"**, align 8
  call void @llvm.dbg.declare(metadata %"class.altered_carbon::js::ACAstBaseNode"*** %400, metadata !8370, metadata !DIExpression()), !dbg !9344
  %401 = alloca %"struct.std::__1::default_delete.46"*, align 8
  call void @llvm.dbg.declare(metadata %"struct.std::__1::default_delete.46"** %401, metadata !8372, metadata !DIExpression()), !dbg !9345
  %402 = alloca %"class.std::__1::__compressed_pair.30"*, align 8
  call void @llvm.dbg.declare(metadata %"class.std::__1::__compressed_pair.30"** %402, metadata !8374, metadata !DIExpression()), !dbg !9346
  %403 = alloca %"class.altered_carbon::js::ACAstBaseNode"**, align 8
  call void @llvm.dbg.declare(metadata %"class.altered_carbon::js::ACAstBaseNode"*** %403, metadata !8376, metadata !DIExpression()), !dbg !9347
  %404 = alloca %"struct.std::__1::default_delete.46"*, align 8
  call void @llvm.dbg.declare(metadata %"struct.std::__1::default_delete.46"** %404, metadata !8378, metadata !DIExpression()), !dbg !9348
  %405 = alloca %"struct.std::__1::__compressed_pair_elem.31"*, align 8
  call void @llvm.dbg.declare(metadata %"struct.std::__1::__compressed_pair_elem.31"** %405, metadata !8380, metadata !DIExpression()), !dbg !9349
  %406 = alloca %"class.std::__1::__compressed_pair.30"*, align 8
  call void @llvm.dbg.declare(metadata %"class.std::__1::__compressed_pair.30"** %406, metadata !8388, metadata !DIExpression()), !dbg !9353
  %407 = alloca %"struct.std::__1::__compressed_pair_elem.31"*, align 8
  call void @llvm.dbg.declare(metadata %"struct.std::__1::__compressed_pair_elem.31"** %407, metadata !8380, metadata !DIExpression()), !dbg !9354
  %408 = alloca %"class.std::__1::__compressed_pair.30"*, align 8
  call void @llvm.dbg.declare(metadata %"class.std::__1::__compressed_pair.30"** %408, metadata !8388, metadata !DIExpression()), !dbg !9357
  %409 = alloca %"class.std::__1::unique_ptr.29"*, align 8
  call void @llvm.dbg.declare(metadata %"class.std::__1::unique_ptr.29"** %409, metadata !8394, metadata !DIExpression()), !dbg !9358
  %410 = alloca %"class.altered_carbon::js::ACAstBaseNode"*, align 8
  call void @llvm.dbg.declare(metadata %"class.altered_carbon::js::ACAstBaseNode"** %410, metadata !8396, metadata !DIExpression()), !dbg !9359
  %411 = alloca %"class.std::__1::unique_ptr.29"*, align 8
  call void @llvm.dbg.declare(metadata %"class.std::__1::unique_ptr.29"** %411, metadata !8398, metadata !DIExpression()), !dbg !9360
  %412 = alloca %"class.std::__1::unique_ptr.29"*, align 8
  call void @llvm.dbg.declare(metadata %"class.std::__1::unique_ptr.29"** %412, metadata !8400, metadata !DIExpression()), !dbg !9361
  %413 = alloca %"class.altered_carbon::js::ACAstBaseNode"*, align 8
  %414 = alloca %"class.std::__1::unique_ptr.29"*, align 8
  call void @llvm.dbg.declare(metadata %"class.std::__1::unique_ptr.29"** %414, metadata !8402, metadata !DIExpression()), !dbg !9362
  %415 = alloca %"class.std::__1::unique_ptr.29"*, align 8
  call void @llvm.dbg.declare(metadata %"class.std::__1::unique_ptr.29"** %415, metadata !8404, metadata !DIExpression()), !dbg !9363
  %416 = alloca %"struct.std::__1::__compressed_pair_elem.45"*, align 8
  call void @llvm.dbg.declare(metadata %"struct.std::__1::__compressed_pair_elem.45"** %416, metadata !8283, metadata !DIExpression()), !dbg !9364
  %417 = alloca %"class.std::__1::__compressed_pair.30"*, align 8
  call void @llvm.dbg.declare(metadata %"class.std::__1::__compressed_pair.30"** %417, metadata !8301, metadata !DIExpression()), !dbg !9371
  %418 = alloca %"class.std::__1::unique_ptr.29"*, align 8
  call void @llvm.dbg.declare(metadata %"class.std::__1::unique_ptr.29"** %418, metadata !8304, metadata !DIExpression()), !dbg !9372
  %419 = alloca %"struct.std::__1::default_delete.46"*, align 8
  call void @llvm.dbg.declare(metadata %"struct.std::__1::default_delete.46"** %419, metadata !8306, metadata !DIExpression()), !dbg !9373
  %420 = alloca %"class.altered_carbon::js::ACAstBaseNode"**, align 8
  call void @llvm.dbg.declare(metadata %"class.altered_carbon::js::ACAstBaseNode"*** %420, metadata !8317, metadata !DIExpression()), !dbg !9375
  %421 = alloca %"struct.std::__1::__compressed_pair_elem.31"*, align 8
  call void @llvm.dbg.declare(metadata %"struct.std::__1::__compressed_pair_elem.31"** %421, metadata !8346, metadata !DIExpression()), !dbg !9380
  %422 = alloca %"class.altered_carbon::js::ACAstBaseNode"**, align 8
  call void @llvm.dbg.declare(metadata %"class.altered_carbon::js::ACAstBaseNode"*** %422, metadata !8349, metadata !DIExpression()), !dbg !9381
  %423 = alloca %"struct.std::__1::default_delete.46"*, align 8
  call void @llvm.dbg.declare(metadata %"struct.std::__1::default_delete.46"** %423, metadata !8306, metadata !DIExpression()), !dbg !9382
  %424 = alloca %"struct.std::__1::default_delete.46"*, align 8
  call void @llvm.dbg.declare(metadata %"struct.std::__1::default_delete.46"** %424, metadata !8306, metadata !DIExpression()), !dbg !9384
  %425 = alloca %"struct.std::__1::__compressed_pair_elem.45"*, align 8
  call void @llvm.dbg.declare(metadata %"struct.std::__1::__compressed_pair_elem.45"** %425, metadata !8362, metadata !DIExpression()), !dbg !9387
  %426 = alloca %"struct.std::__1::default_delete.46"*, align 8
  call void @llvm.dbg.declare(metadata %"struct.std::__1::default_delete.46"** %426, metadata !8364, metadata !DIExpression()), !dbg !9388
  %427 = alloca %"class.altered_carbon::js::ACAstBaseNode"**, align 8
  call void @llvm.dbg.declare(metadata %"class.altered_carbon::js::ACAstBaseNode"*** %427, metadata !8317, metadata !DIExpression()), !dbg !9389
  %428 = alloca %"class.std::__1::__compressed_pair.30"*, align 8
  call void @llvm.dbg.declare(metadata %"class.std::__1::__compressed_pair.30"** %428, metadata !8368, metadata !DIExpression()), !dbg !9391
  %429 = alloca %"class.altered_carbon::js::ACAstBaseNode"**, align 8
  call void @llvm.dbg.declare(metadata %"class.altered_carbon::js::ACAstBaseNode"*** %429, metadata !8370, metadata !DIExpression()), !dbg !9392
  %430 = alloca %"struct.std::__1::default_delete.46"*, align 8
  call void @llvm.dbg.declare(metadata %"struct.std::__1::default_delete.46"** %430, metadata !8372, metadata !DIExpression()), !dbg !9393
  %431 = alloca %"class.std::__1::__compressed_pair.30"*, align 8
  call void @llvm.dbg.declare(metadata %"class.std::__1::__compressed_pair.30"** %431, metadata !8374, metadata !DIExpression()), !dbg !9394
  %432 = alloca %"class.altered_carbon::js::ACAstBaseNode"**, align 8
  call void @llvm.dbg.declare(metadata %"class.altered_carbon::js::ACAstBaseNode"*** %432, metadata !8376, metadata !DIExpression()), !dbg !9395
  %433 = alloca %"struct.std::__1::default_delete.46"*, align 8
  call void @llvm.dbg.declare(metadata %"struct.std::__1::default_delete.46"** %433, metadata !8378, metadata !DIExpression()), !dbg !9396
  %434 = alloca %"struct.std::__1::__compressed_pair_elem.31"*, align 8
  call void @llvm.dbg.declare(metadata %"struct.std::__1::__compressed_pair_elem.31"** %434, metadata !8380, metadata !DIExpression()), !dbg !9397
  %435 = alloca %"class.std::__1::__compressed_pair.30"*, align 8
  call void @llvm.dbg.declare(metadata %"class.std::__1::__compressed_pair.30"** %435, metadata !8388, metadata !DIExpression()), !dbg !9401
  %436 = alloca %"struct.std::__1::__compressed_pair_elem.31"*, align 8
  call void @llvm.dbg.declare(metadata %"struct.std::__1::__compressed_pair_elem.31"** %436, metadata !8380, metadata !DIExpression()), !dbg !9402
  %437 = alloca %"class.std::__1::__compressed_pair.30"*, align 8
  call void @llvm.dbg.declare(metadata %"class.std::__1::__compressed_pair.30"** %437, metadata !8388, metadata !DIExpression()), !dbg !9405
  %438 = alloca %"class.std::__1::unique_ptr.29"*, align 8
  call void @llvm.dbg.declare(metadata %"class.std::__1::unique_ptr.29"** %438, metadata !8394, metadata !DIExpression()), !dbg !9406
  %439 = alloca %"class.altered_carbon::js::ACAstBaseNode"*, align 8
  call void @llvm.dbg.declare(metadata %"class.altered_carbon::js::ACAstBaseNode"** %439, metadata !8396, metadata !DIExpression()), !dbg !9407
  %440 = alloca %"class.std::__1::unique_ptr.29"*, align 8
  call void @llvm.dbg.declare(metadata %"class.std::__1::unique_ptr.29"** %440, metadata !8398, metadata !DIExpression()), !dbg !9408
  %441 = alloca %"class.std::__1::unique_ptr.29"*, align 8
  call void @llvm.dbg.declare(metadata %"class.std::__1::unique_ptr.29"** %441, metadata !8400, metadata !DIExpression()), !dbg !9409
  %442 = alloca %"class.altered_carbon::js::ACAstBaseNode"*, align 8
  %443 = alloca %"class.std::__1::unique_ptr.29"*, align 8
  call void @llvm.dbg.declare(metadata %"class.std::__1::unique_ptr.29"** %443, metadata !8402, metadata !DIExpression()), !dbg !9410
  %444 = alloca %"class.std::__1::unique_ptr.29"*, align 8
  call void @llvm.dbg.declare(metadata %"class.std::__1::unique_ptr.29"** %444, metadata !8404, metadata !DIExpression()), !dbg !9411
  %445 = alloca %"struct.std::__1::__compressed_pair_elem.16"*, align 8
  call void @llvm.dbg.declare(metadata %"struct.std::__1::__compressed_pair_elem.16"** %445, metadata !8455, metadata !DIExpression()), !dbg !9412
  %446 = alloca %"class.std::__1::__compressed_pair.15"*, align 8
  call void @llvm.dbg.declare(metadata %"class.std::__1::__compressed_pair.15"** %446, metadata !8464, metadata !DIExpression()), !dbg !9416
  %447 = alloca %"class.std::__1::unique_ptr"*, align 8
  call void @llvm.dbg.declare(metadata %"class.std::__1::unique_ptr"** %447, metadata !8476, metadata !DIExpression()), !dbg !9417
  %448 = alloca %"struct.std::__1::__compressed_pair_elem.45"*, align 8
  call void @llvm.dbg.declare(metadata %"struct.std::__1::__compressed_pair_elem.45"** %448, metadata !8283, metadata !DIExpression()), !dbg !9418
  %449 = alloca %"class.std::__1::__compressed_pair.30"*, align 8
  call void @llvm.dbg.declare(metadata %"class.std::__1::__compressed_pair.30"** %449, metadata !8301, metadata !DIExpression()), !dbg !9424
  %450 = alloca %"struct.std::__1::__compressed_pair_elem.31"*, align 8
  call void @llvm.dbg.declare(metadata %"struct.std::__1::__compressed_pair_elem.31"** %450, metadata !8380, metadata !DIExpression()), !dbg !9425
  %451 = alloca %"class.std::__1::__compressed_pair.30"*, align 8
  call void @llvm.dbg.declare(metadata %"class.std::__1::__compressed_pair.30"** %451, metadata !8388, metadata !DIExpression()), !dbg !9428
  %452 = alloca %"struct.std::__1::default_delete.46"*, align 8
  call void @llvm.dbg.declare(metadata %"struct.std::__1::default_delete.46"** %452, metadata !8612, metadata !DIExpression()), !dbg !9429
  %453 = alloca %"class.altered_carbon::js::ACAstBaseNode"*, align 8
  call void @llvm.dbg.declare(metadata %"class.altered_carbon::js::ACAstBaseNode"** %453, metadata !8617, metadata !DIExpression()), !dbg !9431
  %454 = alloca %"struct.std::__1::__compressed_pair_elem.31"*, align 8
  call void @llvm.dbg.declare(metadata %"struct.std::__1::__compressed_pair_elem.31"** %454, metadata !8380, metadata !DIExpression()), !dbg !9432
  %455 = alloca %"class.std::__1::__compressed_pair.30"*, align 8
  call void @llvm.dbg.declare(metadata %"class.std::__1::__compressed_pair.30"** %455, metadata !8388, metadata !DIExpression()), !dbg !9435
  %456 = alloca %"class.std::__1::unique_ptr.29"*, align 8
  call void @llvm.dbg.declare(metadata %"class.std::__1::unique_ptr.29"** %456, metadata !8623, metadata !DIExpression()), !dbg !9436
  %457 = alloca %"class.altered_carbon::js::ACAstBaseNode"*, align 8
  call void @llvm.dbg.declare(metadata %"class.altered_carbon::js::ACAstBaseNode"** %457, metadata !8625, metadata !DIExpression()), !dbg !9437
  %458 = alloca %"class.altered_carbon::js::ACAstBaseNode"*, align 8
  call void @llvm.dbg.declare(metadata %"class.altered_carbon::js::ACAstBaseNode"** %458, metadata !8627, metadata !DIExpression()), !dbg !9438
  %459 = alloca %"class.std::__1::unique_ptr.29"*, align 8
  call void @llvm.dbg.declare(metadata %"class.std::__1::unique_ptr.29"** %459, metadata !8659, metadata !DIExpression()), !dbg !9439
  %460 = alloca %"class.std::__1::unique_ptr.29"*, align 8
  call void @llvm.dbg.declare(metadata %"class.std::__1::unique_ptr.29"** %460, metadata !8661, metadata !DIExpression()), !dbg !9440
  %461 = alloca %"class.altered_carbon::js::ACAstBaseNode"**, align 8
  call void @llvm.dbg.declare(metadata %"class.altered_carbon::js::ACAstBaseNode"*** %461, metadata !8317, metadata !DIExpression()), !dbg !9441
  %462 = alloca %"struct.std::__1::__compressed_pair_elem.31"*, align 8
  call void @llvm.dbg.declare(metadata %"struct.std::__1::__compressed_pair_elem.31"** %462, metadata !8346, metadata !DIExpression()), !dbg !9457
  %463 = alloca %"class.altered_carbon::js::ACAstBaseNode"**, align 8
  call void @llvm.dbg.declare(metadata %"class.altered_carbon::js::ACAstBaseNode"*** %463, metadata !8349, metadata !DIExpression()), !dbg !9458
  %464 = alloca %"class.altered_carbon::js::ACAstBaseNode"**, align 8
  call void @llvm.dbg.declare(metadata %"class.altered_carbon::js::ACAstBaseNode"*** %464, metadata !8317, metadata !DIExpression()), !dbg !9459
  %465 = alloca %"class.std::__1::__compressed_pair.30"*, align 8
  call void @llvm.dbg.declare(metadata %"class.std::__1::__compressed_pair.30"** %465, metadata !9461, metadata !DIExpression()), !dbg !9462
  %466 = alloca %"class.altered_carbon::js::ACAstBaseNode"**, align 8
  call void @llvm.dbg.declare(metadata %"class.altered_carbon::js::ACAstBaseNode"*** %466, metadata !9463, metadata !DIExpression()), !dbg !9464
  %467 = alloca %"class.std::__1::__compressed_pair.30"*, align 8
  call void @llvm.dbg.declare(metadata %"class.std::__1::__compressed_pair.30"** %467, metadata !9465, metadata !DIExpression()), !dbg !9466
  %468 = alloca %"class.altered_carbon::js::ACAstBaseNode"**, align 8
  call void @llvm.dbg.declare(metadata %"class.altered_carbon::js::ACAstBaseNode"*** %468, metadata !9467, metadata !DIExpression()), !dbg !9468
  %469 = alloca %"class.std::__1::unique_ptr.29"*, align 8
  call void @llvm.dbg.declare(metadata %"class.std::__1::unique_ptr.29"** %469, metadata !9469, metadata !DIExpression()), !dbg !9470
  %470 = alloca %"class.altered_carbon::js::ACAstBaseNode"*, align 8
  %471 = alloca %"class.std::__1::unique_ptr.29"*, align 8
  call void @llvm.dbg.declare(metadata %"class.std::__1::unique_ptr.29"** %471, metadata !9471, metadata !DIExpression()), !dbg !9472
  %472 = alloca i8**, align 8
  call void @llvm.dbg.declare(metadata i8*** %472, metadata !9473, metadata !DIExpression()), !dbg !9483
  %473 = alloca %"struct.std::__1::__compressed_pair_elem.41"*, align 8
  call void @llvm.dbg.declare(metadata %"struct.std::__1::__compressed_pair_elem.41"** %473, metadata !9506, metadata !DIExpression()), !dbg !9507
  %474 = alloca i8**, align 8
  call void @llvm.dbg.declare(metadata i8*** %474, metadata !9508, metadata !DIExpression()), !dbg !9509
  %475 = alloca %"class.std::__1::allocator.43"*, align 8
  call void @llvm.dbg.declare(metadata %"class.std::__1::allocator.43"** %475, metadata !9510, metadata !DIExpression()), !dbg !9512
  %476 = alloca %"struct.std::__1::__compressed_pair_elem.42"*, align 8
  call void @llvm.dbg.declare(metadata %"struct.std::__1::__compressed_pair_elem.42"** %476, metadata !9516, metadata !DIExpression()), !dbg !9517
  %477 = alloca i8**, align 8
  call void @llvm.dbg.declare(metadata i8*** %477, metadata !9473, metadata !DIExpression()), !dbg !9518
  %478 = alloca %"class.std::__1::__compressed_pair.40"*, align 8
  call void @llvm.dbg.declare(metadata %"class.std::__1::__compressed_pair.40"** %478, metadata !9520, metadata !DIExpression()), !dbg !9521
  %479 = alloca i8**, align 8
  call void @llvm.dbg.declare(metadata i8*** %479, metadata !9522, metadata !DIExpression()), !dbg !9523
  %480 = alloca %"class.std::__1::__compressed_pair.40"*, align 8
  call void @llvm.dbg.declare(metadata %"class.std::__1::__compressed_pair.40"** %480, metadata !9524, metadata !DIExpression()), !dbg !9525
  %481 = alloca i8**, align 8
  call void @llvm.dbg.declare(metadata i8*** %481, metadata !9526, metadata !DIExpression()), !dbg !9527
  %482 = alloca %"class.std::__1::__vector_base_common"*, align 8
  call void @llvm.dbg.declare(metadata %"class.std::__1::__vector_base_common"** %482, metadata !9528, metadata !DIExpression()), !dbg !9531
  %483 = alloca %"class.std::__1::__vector_base.39"*, align 8
  call void @llvm.dbg.declare(metadata %"class.std::__1::__vector_base.39"** %483, metadata !9533, metadata !DIExpression()), !dbg !9534
  %484 = alloca i8*, align 8
  %485 = alloca %"class.std::__1::vector.38"*, align 8
  call void @llvm.dbg.declare(metadata %"class.std::__1::vector.38"** %485, metadata !9535, metadata !DIExpression()), !dbg !9536
  %486 = alloca %"class.std::__1::vector.38"*, align 8
  call void @llvm.dbg.declare(metadata %"class.std::__1::vector.38"** %486, metadata !9537, metadata !DIExpression()), !dbg !9538
  %487 = alloca %"class.altered_carbon::js::ACAstBuilder"*, align 8
  %488 = alloca %"class.std::__1::vector.38", align 8
  %489 = alloca %"class.std::__1::unique_ptr.29", align 8
  %490 = alloca i32
  %491 = alloca %"class.std::__1::unique_ptr", align 8
  %492 = alloca %"class.std::__1::unique_ptr", align 8
  %493 = alloca %"class.std::__1::unique_ptr.29", align 8
  %494 = alloca %"class.std::__1::unique_ptr.51", align 8
  %495 = alloca %"class.std::__1::unique_ptr.32", align 8
  %496 = alloca %"struct.altered_carbon::js::ACLexPosition", align 8
  %497 = alloca i32, align 4
  %498 = alloca %"class.std::__1::unique_ptr.29", align 8
  %499 = alloca { i64, i64 }, align 8
  %500 = alloca %"class.std::__1::unique_ptr", align 8
  %501 = alloca %"class.std::__1::unique_ptr", align 8
  %502 = alloca %"class.std::__1::unique_ptr.64", align 8
  %503 = alloca %"class.std::__1::unique_ptr.32", align 8
  %504 = alloca %"struct.altered_carbon::js::ACLexPosition", align 8
  store %"class.altered_carbon::js::ACAstBuilder"* %1, %"class.altered_carbon::js::ACAstBuilder"** %487, align 8
  call void @llvm.dbg.declare(metadata %"class.altered_carbon::js::ACAstBuilder"** %487, metadata !9539, metadata !DIExpression()), !dbg !9541
  %505 = load %"class.altered_carbon::js::ACAstBuilder"*, %"class.altered_carbon::js::ACAstBuilder"** %487, align 8
  br label %506, !dbg !9542, !llvm.loop !9543

; <label>:506:                                    ; preds = %2
  br label %507, !dbg !9544, !llvm.loop !9546

; <label>:507:                                    ; preds = %506
  %508 = call dereferenceable(160) %"class.std::__1::basic_ostream"* @_ZNSt3__1lsINS_11char_traitsIcEEEERNS_13basic_ostreamIcT_EES6_PKc(%"class.std::__1::basic_ostream"* dereferenceable(160) bitcast (i8* getelementptr inbounds (i8, i8* bitcast (%"class.altered_carbon::js::NullStream"* @_ZN14altered_carbon2jsL9BlackHoleE to i8*), i64 320) to %"class.std::__1::basic_ostream"*), i8* getelementptr inbounds ([1 x i8], [1 x i8]* @.str, i32 0, i32 0)), !dbg !9547
  %509 = call dereferenceable(160) %"class.std::__1::basic_ostream"* @_ZNSt3__1lsINS_11char_traitsIcEEEERNS_13basic_ostreamIcT_EES6_PKc(%"class.std::__1::basic_ostream"* dereferenceable(160) %508, i8* getelementptr inbounds ([9 x i8], [9 x i8]* @.str.1, i32 0, i32 0)), !dbg !9547
  %510 = call dereferenceable(160) %"class.std::__1::basic_ostream"* @_ZNSt3__1lsINS_11char_traitsIcEEEERNS_13basic_ostreamIcT_EES6_PKc(%"class.std::__1::basic_ostream"* dereferenceable(160) %509, i8* getelementptr inbounds ([1 x i8], [1 x i8]* @.str, i32 0, i32 0)), !dbg !9547
  %511 = call dereferenceable(160) %"class.std::__1::basic_ostream"* @_ZNSt3__1lsINS_11char_traitsIcEEEERNS_13basic_ostreamIcT_EES6_PKc(%"class.std::__1::basic_ostream"* dereferenceable(160) %510, i8* getelementptr inbounds ([2 x i8], [2 x i8]* @.str.2, i32 0, i32 0)), !dbg !9547
  %512 = call dereferenceable(160) %"class.std::__1::basic_ostream"* @_ZNSt3__113basic_ostreamIcNS_11char_traitsIcEEElsEi(%"class.std::__1::basic_ostream"* %511, i32 10), !dbg !9547
  %513 = call dereferenceable(160) %"class.std::__1::basic_ostream"* @_ZNSt3__1lsINS_11char_traitsIcEEEERNS_13basic_ostreamIcT_EES6_PKc(%"class.std::__1::basic_ostream"* dereferenceable(160) %512, i8* getelementptr inbounds ([3 x i8], [3 x i8]* @.str.3, i32 0, i32 0)), !dbg !9547
  %514 = call dereferenceable(160) %"class.std::__1::basic_ostream"* @_ZNSt3__1lsINS_11char_traitsIcEEEERNS_13basic_ostreamIcT_EES6_PKc(%"class.std::__1::basic_ostream"* dereferenceable(160) %513, i8* getelementptr inbounds ([34 x i8], [34 x i8]* @.str.4, i32 0, i32 0)), !dbg !9547
  br label %515, !dbg !9547

; <label>:515:                                    ; preds = %507
  br label %516, !dbg !9544

; <label>:516:                                    ; preds = %515
  call void @llvm.dbg.declare(metadata %"class.std::__1::vector.38"* %488, metadata !9549, metadata !DIExpression()), !dbg !9550
  store %"class.std::__1::vector.38"* %488, %"class.std::__1::vector.38"** %486, align 8
  %517 = load %"class.std::__1::vector.38"*, %"class.std::__1::vector.38"** %486, align 8
  store %"class.std::__1::vector.38"* %517, %"class.std::__1::vector.38"** %485, align 8
  %518 = load %"class.std::__1::vector.38"*, %"class.std::__1::vector.38"** %485, align 8
  %519 = bitcast %"class.std::__1::vector.38"* %518 to %"class.std::__1::__vector_base.39"*, !dbg !9551
  store %"class.std::__1::__vector_base.39"* %519, %"class.std::__1::__vector_base.39"** %483, align 8
  %520 = load %"class.std::__1::__vector_base.39"*, %"class.std::__1::__vector_base.39"** %483, align 8
  %521 = bitcast %"class.std::__1::__vector_base.39"* %520 to %"class.std::__1::__vector_base_common"*, !dbg !9552
  store %"class.std::__1::__vector_base_common"* %521, %"class.std::__1::__vector_base_common"** %482, align 8
  %522 = load %"class.std::__1::__vector_base_common"*, %"class.std::__1::__vector_base_common"** %482, align 8
  %523 = getelementptr inbounds %"class.std::__1::__vector_base.39", %"class.std::__1::__vector_base.39"* %520, i32 0, i32 0, !dbg !9553
  store %"class.std::__1::unique_ptr.29"* null, %"class.std::__1::unique_ptr.29"** %523, align 8, !dbg !9553
  %524 = getelementptr inbounds %"class.std::__1::__vector_base.39", %"class.std::__1::__vector_base.39"* %520, i32 0, i32 1, !dbg !9554
  store %"class.std::__1::unique_ptr.29"* null, %"class.std::__1::unique_ptr.29"** %524, align 8, !dbg !9554
  %525 = getelementptr inbounds %"class.std::__1::__vector_base.39", %"class.std::__1::__vector_base.39"* %520, i32 0, i32 2, !dbg !9555
  store i8* null, i8** %484, align 8, !dbg !9556
  store %"class.std::__1::__compressed_pair.40"* %525, %"class.std::__1::__compressed_pair.40"** %480, align 8
  store i8** %484, i8*** %481, align 8
  %526 = load %"class.std::__1::__compressed_pair.40"*, %"class.std::__1::__compressed_pair.40"** %480, align 8
  %527 = load i8**, i8*** %481, align 8, !dbg !9557
  store %"class.std::__1::__compressed_pair.40"* %526, %"class.std::__1::__compressed_pair.40"** %478, align 8
  store i8** %527, i8*** %479, align 8
  %528 = load %"class.std::__1::__compressed_pair.40"*, %"class.std::__1::__compressed_pair.40"** %478, align 8
  %529 = bitcast %"class.std::__1::__compressed_pair.40"* %528 to %"struct.std::__1::__compressed_pair_elem.41"*, !dbg !9558
  %530 = load i8**, i8*** %479, align 8, !dbg !9559
  store i8** %530, i8*** %477, align 8
  %531 = load i8**, i8*** %477, align 8, !dbg !9560
  store %"struct.std::__1::__compressed_pair_elem.41"* %529, %"struct.std::__1::__compressed_pair_elem.41"** %473, align 8
  store i8** %531, i8*** %474, align 8
  %532 = load %"struct.std::__1::__compressed_pair_elem.41"*, %"struct.std::__1::__compressed_pair_elem.41"** %473, align 8
  %533 = getelementptr inbounds %"struct.std::__1::__compressed_pair_elem.41", %"struct.std::__1::__compressed_pair_elem.41"* %532, i32 0, i32 0, !dbg !9561
  %534 = load i8**, i8*** %474, align 8, !dbg !9562
  store i8** %534, i8*** %472, align 8
  %535 = load i8**, i8*** %472, align 8, !dbg !9563
  %536 = load i8*, i8** %535, align 8, !dbg !9564
  store %"class.std::__1::unique_ptr.29"* null, %"class.std::__1::unique_ptr.29"** %533, align 8, !dbg !9561
  %537 = bitcast %"class.std::__1::__compressed_pair.40"* %528 to %"struct.std::__1::__compressed_pair_elem.42"*, !dbg !9558
  store %"struct.std::__1::__compressed_pair_elem.42"* %537, %"struct.std::__1::__compressed_pair_elem.42"** %476, align 8
  %538 = load %"struct.std::__1::__compressed_pair_elem.42"*, %"struct.std::__1::__compressed_pair_elem.42"** %476, align 8
  %539 = bitcast %"struct.std::__1::__compressed_pair_elem.42"* %538 to %"class.std::__1::allocator.43"*, !dbg !9565
  store %"class.std::__1::allocator.43"* %539, %"class.std::__1::allocator.43"** %475, align 8
  %540 = load %"class.std::__1::allocator.43"*, %"class.std::__1::allocator.43"** %475, align 8
  call void @llvm.dbg.declare(metadata %"class.std::__1::unique_ptr.29"* %489, metadata !9566, metadata !DIExpression()), !dbg !9567
  store %"class.std::__1::unique_ptr.29"* %489, %"class.std::__1::unique_ptr.29"** %471, align 8
  %541 = load %"class.std::__1::unique_ptr.29"*, %"class.std::__1::unique_ptr.29"** %471, align 8
  store %"class.std::__1::unique_ptr.29"* %541, %"class.std::__1::unique_ptr.29"** %469, align 8
  %542 = load %"class.std::__1::unique_ptr.29"*, %"class.std::__1::unique_ptr.29"** %469, align 8
  %543 = getelementptr inbounds %"class.std::__1::unique_ptr.29", %"class.std::__1::unique_ptr.29"* %542, i32 0, i32 0, !dbg !9568
  store %"class.altered_carbon::js::ACAstBaseNode"* null, %"class.altered_carbon::js::ACAstBaseNode"** %470, align 8, !dbg !9569
  store %"class.std::__1::__compressed_pair.30"* %543, %"class.std::__1::__compressed_pair.30"** %467, align 8
  store %"class.altered_carbon::js::ACAstBaseNode"** %470, %"class.altered_carbon::js::ACAstBaseNode"*** %468, align 8
  %544 = load %"class.std::__1::__compressed_pair.30"*, %"class.std::__1::__compressed_pair.30"** %467, align 8
  %545 = load %"class.altered_carbon::js::ACAstBaseNode"**, %"class.altered_carbon::js::ACAstBaseNode"*** %468, align 8, !dbg !9570
  store %"class.std::__1::__compressed_pair.30"* %544, %"class.std::__1::__compressed_pair.30"** %465, align 8
  store %"class.altered_carbon::js::ACAstBaseNode"** %545, %"class.altered_carbon::js::ACAstBaseNode"*** %466, align 8
  %546 = load %"class.std::__1::__compressed_pair.30"*, %"class.std::__1::__compressed_pair.30"** %465, align 8
  %547 = bitcast %"class.std::__1::__compressed_pair.30"* %546 to %"struct.std::__1::__compressed_pair_elem.31"*, !dbg !9571
  %548 = load %"class.altered_carbon::js::ACAstBaseNode"**, %"class.altered_carbon::js::ACAstBaseNode"*** %466, align 8, !dbg !9572
  store %"class.altered_carbon::js::ACAstBaseNode"** %548, %"class.altered_carbon::js::ACAstBaseNode"*** %464, align 8
  %549 = load %"class.altered_carbon::js::ACAstBaseNode"**, %"class.altered_carbon::js::ACAstBaseNode"*** %464, align 8, !dbg !9573
  store %"struct.std::__1::__compressed_pair_elem.31"* %547, %"struct.std::__1::__compressed_pair_elem.31"** %462, align 8
  store %"class.altered_carbon::js::ACAstBaseNode"** %549, %"class.altered_carbon::js::ACAstBaseNode"*** %463, align 8
  %550 = load %"struct.std::__1::__compressed_pair_elem.31"*, %"struct.std::__1::__compressed_pair_elem.31"** %462, align 8
  %551 = getelementptr inbounds %"struct.std::__1::__compressed_pair_elem.31", %"struct.std::__1::__compressed_pair_elem.31"* %550, i32 0, i32 0, !dbg !9574
  %552 = load %"class.altered_carbon::js::ACAstBaseNode"**, %"class.altered_carbon::js::ACAstBaseNode"*** %463, align 8, !dbg !9575
  store %"class.altered_carbon::js::ACAstBaseNode"** %552, %"class.altered_carbon::js::ACAstBaseNode"*** %461, align 8
  %553 = load %"class.altered_carbon::js::ACAstBaseNode"**, %"class.altered_carbon::js::ACAstBaseNode"*** %461, align 8, !dbg !9576
  %554 = load %"class.altered_carbon::js::ACAstBaseNode"*, %"class.altered_carbon::js::ACAstBaseNode"** %553, align 8, !dbg !9577
  store %"class.altered_carbon::js::ACAstBaseNode"* %554, %"class.altered_carbon::js::ACAstBaseNode"** %551, align 8, !dbg !9574
  %555 = bitcast %"class.std::__1::__compressed_pair.30"* %546 to %"struct.std::__1::__compressed_pair_elem.45"*, !dbg !9571
  br label %556, !dbg !9578, !llvm.loop !9579

; <label>:556:                                    ; preds = %516
  br label %557, !dbg !9580, !llvm.loop !9581

; <label>:557:                                    ; preds = %556
  %558 = bitcast %"class.altered_carbon::js::ACAstBuilder"* %505 to %"class.altered_carbon::js::ACJsParser"*, !dbg !9582
  %559 = getelementptr inbounds %"class.altered_carbon::js::ACJsParser", %"class.altered_carbon::js::ACJsParser"* %558, i32 0, i32 14, !dbg !9582
  store %"class.std::__1::unique_ptr"* %559, %"class.std::__1::unique_ptr"** %447, align 8
  %560 = load %"class.std::__1::unique_ptr"*, %"class.std::__1::unique_ptr"** %447, align 8
  %561 = getelementptr inbounds %"class.std::__1::unique_ptr", %"class.std::__1::unique_ptr"* %560, i32 0, i32 0, !dbg !9583
  store %"class.std::__1::__compressed_pair.15"* %561, %"class.std::__1::__compressed_pair.15"** %446, align 8
  %562 = load %"class.std::__1::__compressed_pair.15"*, %"class.std::__1::__compressed_pair.15"** %446, align 8
  %563 = bitcast %"class.std::__1::__compressed_pair.15"* %562 to %"struct.std::__1::__compressed_pair_elem.16"*, !dbg !9584
  store %"struct.std::__1::__compressed_pair_elem.16"* %563, %"struct.std::__1::__compressed_pair_elem.16"** %445, align 8
  %564 = load %"struct.std::__1::__compressed_pair_elem.16"*, %"struct.std::__1::__compressed_pair_elem.16"** %445, align 8
  %565 = getelementptr inbounds %"struct.std::__1::__compressed_pair_elem.16", %"struct.std::__1::__compressed_pair_elem.16"* %564, i32 0, i32 0, !dbg !9585
  %566 = load %"class.altered_carbon::js::ACLexToken"*, %"class.altered_carbon::js::ACLexToken"** %565, align 8, !dbg !9586
  %567 = getelementptr inbounds %"class.altered_carbon::js::ACLexToken", %"class.altered_carbon::js::ACLexToken"* %566, i32 0, i32 1, !dbg !9582
  %568 = load i32, i32* %567, align 8, !dbg !9582
  %569 = icmp eq i32 %568, 19, !dbg !9582
  br i1 %569, label %631, label %570, !dbg !9587

; <label>:570:                                    ; preds = %557
  br label %571, !dbg !9588, !llvm.loop !9589

; <label>:571:                                    ; preds = %570
  br label %572, !dbg !9590, !llvm.loop !9591

; <label>:572:                                    ; preds = %571
  %573 = call dereferenceable(160) %"class.std::__1::basic_ostream"* @_ZNSt3__1lsINS_11char_traitsIcEEEERNS_13basic_ostreamIcT_EES6_PKc(%"class.std::__1::basic_ostream"* dereferenceable(160) bitcast (i8* getelementptr inbounds (i8, i8* bitcast (%"class.altered_carbon::js::NullStream"* @_ZN14altered_carbon2jsL9BlackHoleE to i8*), i64 320) to %"class.std::__1::basic_ostream"*), i8* getelementptr inbounds ([10 x i8], [10 x i8]* @.str.5, i32 0, i32 0)), !dbg !9592
  %574 = call dereferenceable(160) %"class.std::__1::basic_ostream"* @_ZNSt3__1lsINS_11char_traitsIcEEEERNS_13basic_ostreamIcT_EES6_PKc(%"class.std::__1::basic_ostream"* dereferenceable(160) %573, i8* getelementptr inbounds ([9 x i8], [9 x i8]* @.str.1, i32 0, i32 0)), !dbg !9592
  %575 = call dereferenceable(160) %"class.std::__1::basic_ostream"* @_ZNSt3__1lsINS_11char_traitsIcEEEERNS_13basic_ostreamIcT_EES6_PKc(%"class.std::__1::basic_ostream"* dereferenceable(160) %574, i8* getelementptr inbounds ([5 x i8], [5 x i8]* @.str.6, i32 0, i32 0)), !dbg !9592
  %576 = call dereferenceable(160) %"class.std::__1::basic_ostream"* @_ZNSt3__1lsINS_11char_traitsIcEEEERNS_13basic_ostreamIcT_EES6_PKc(%"class.std::__1::basic_ostream"* dereferenceable(160) %575, i8* getelementptr inbounds ([5 x i8], [5 x i8]* @.str.7, i32 0, i32 0)), !dbg !9592
  %577 = call dereferenceable(160) %"class.std::__1::basic_ostream"* @_ZNSt3__113basic_ostreamIcNS_11char_traitsIcEEElsEi(%"class.std::__1::basic_ostream"* %576, i32 1014), !dbg !9592
  %578 = call dereferenceable(160) %"class.std::__1::basic_ostream"* @_ZNSt3__1lsINS_11char_traitsIcEEEERNS_13basic_ostreamIcT_EES6_PKc(%"class.std::__1::basic_ostream"* dereferenceable(160) %577, i8* getelementptr inbounds ([24 x i8], [24 x i8]* @.str.8, i32 0, i32 0)), !dbg !9592
  %579 = call dereferenceable(160) %"class.std::__1::basic_ostream"* @_ZNSt3__1lsINS_11char_traitsIcEEEERNS_13basic_ostreamIcT_EES6_PKc(%"class.std::__1::basic_ostream"* dereferenceable(160) %578, i8* getelementptr inbounds ([30 x i8], [30 x i8]* @.str.9, i32 0, i32 0)), !dbg !9592
  %580 = call dereferenceable(160) %"class.std::__1::basic_ostream"* @_ZNSt3__1lsINS_11char_traitsIcEEEERNS_13basic_ostreamIcT_EES6_PKc(%"class.std::__1::basic_ostream"* dereferenceable(160) %579, i8* getelementptr inbounds ([4 x i8], [4 x i8]* @.str.10, i32 0, i32 0)), !dbg !9592
  %581 = bitcast %"class.altered_carbon::js::ACAstBuilder"* %505 to %"class.altered_carbon::js::ACJsParser"*, !dbg !9592
  call void @_ZN14altered_carbon2js10ACJsParser16showErrorContextEv(%"class.altered_carbon::js::ACJsParser"* %581), !dbg !9592
  br label %582, !dbg !9592

; <label>:582:                                    ; preds = %572
  br label %583, !dbg !9592

; <label>:583:                                    ; preds = %582
  store %"class.std::__1::unique_ptr.29"* %0, %"class.std::__1::unique_ptr.29"** %414, align 8
  store %"class.std::__1::unique_ptr.29"* %489, %"class.std::__1::unique_ptr.29"** %415, align 8
  %584 = load %"class.std::__1::unique_ptr.29"*, %"class.std::__1::unique_ptr.29"** %414, align 8
  %585 = load %"class.std::__1::unique_ptr.29"*, %"class.std::__1::unique_ptr.29"** %415, align 8, !dbg !9594
  store %"class.std::__1::unique_ptr.29"* %584, %"class.std::__1::unique_ptr.29"** %411, align 8
  store %"class.std::__1::unique_ptr.29"* %585, %"class.std::__1::unique_ptr.29"** %412, align 8
  %586 = load %"class.std::__1::unique_ptr.29"*, %"class.std::__1::unique_ptr.29"** %411, align 8
  %587 = getelementptr inbounds %"class.std::__1::unique_ptr.29", %"class.std::__1::unique_ptr.29"* %586, i32 0, i32 0, !dbg !9595
  %588 = load %"class.std::__1::unique_ptr.29"*, %"class.std::__1::unique_ptr.29"** %412, align 8, !dbg !9596
  store %"class.std::__1::unique_ptr.29"* %588, %"class.std::__1::unique_ptr.29"** %409, align 8
  %589 = load %"class.std::__1::unique_ptr.29"*, %"class.std::__1::unique_ptr.29"** %409, align 8
  %590 = getelementptr inbounds %"class.std::__1::unique_ptr.29", %"class.std::__1::unique_ptr.29"* %589, i32 0, i32 0, !dbg !9597
  store %"class.std::__1::__compressed_pair.30"* %590, %"class.std::__1::__compressed_pair.30"** %408, align 8
  %591 = load %"class.std::__1::__compressed_pair.30"*, %"class.std::__1::__compressed_pair.30"** %408, align 8
  %592 = bitcast %"class.std::__1::__compressed_pair.30"* %591 to %"struct.std::__1::__compressed_pair_elem.31"*, !dbg !9598
  store %"struct.std::__1::__compressed_pair_elem.31"* %592, %"struct.std::__1::__compressed_pair_elem.31"** %407, align 8
  %593 = load %"struct.std::__1::__compressed_pair_elem.31"*, %"struct.std::__1::__compressed_pair_elem.31"** %407, align 8
  %594 = getelementptr inbounds %"struct.std::__1::__compressed_pair_elem.31", %"struct.std::__1::__compressed_pair_elem.31"* %593, i32 0, i32 0, !dbg !9599
  %595 = load %"class.altered_carbon::js::ACAstBaseNode"*, %"class.altered_carbon::js::ACAstBaseNode"** %594, align 8, !dbg !9600
  store %"class.altered_carbon::js::ACAstBaseNode"* %595, %"class.altered_carbon::js::ACAstBaseNode"** %410, align 8, !dbg !9359
  %596 = getelementptr inbounds %"class.std::__1::unique_ptr.29", %"class.std::__1::unique_ptr.29"* %589, i32 0, i32 0, !dbg !9601
  store %"class.std::__1::__compressed_pair.30"* %596, %"class.std::__1::__compressed_pair.30"** %406, align 8
  %597 = load %"class.std::__1::__compressed_pair.30"*, %"class.std::__1::__compressed_pair.30"** %406, align 8
  %598 = bitcast %"class.std::__1::__compressed_pair.30"* %597 to %"struct.std::__1::__compressed_pair_elem.31"*, !dbg !9602
  store %"struct.std::__1::__compressed_pair_elem.31"* %598, %"struct.std::__1::__compressed_pair_elem.31"** %405, align 8
  %599 = load %"struct.std::__1::__compressed_pair_elem.31"*, %"struct.std::__1::__compressed_pair_elem.31"** %405, align 8
  %600 = getelementptr inbounds %"struct.std::__1::__compressed_pair_elem.31", %"struct.std::__1::__compressed_pair_elem.31"* %599, i32 0, i32 0, !dbg !9603
  store %"class.altered_carbon::js::ACAstBaseNode"* null, %"class.altered_carbon::js::ACAstBaseNode"** %600, align 8, !dbg !9604
  %601 = load %"class.altered_carbon::js::ACAstBaseNode"*, %"class.altered_carbon::js::ACAstBaseNode"** %410, align 8, !dbg !9605
  store %"class.altered_carbon::js::ACAstBaseNode"* %601, %"class.altered_carbon::js::ACAstBaseNode"** %413, align 8, !dbg !9596
  %602 = load %"class.std::__1::unique_ptr.29"*, %"class.std::__1::unique_ptr.29"** %412, align 8, !dbg !9606
  store %"class.std::__1::unique_ptr.29"* %602, %"class.std::__1::unique_ptr.29"** %389, align 8
  %603 = load %"class.std::__1::unique_ptr.29"*, %"class.std::__1::unique_ptr.29"** %389, align 8
  %604 = getelementptr inbounds %"class.std::__1::unique_ptr.29", %"class.std::__1::unique_ptr.29"* %603, i32 0, i32 0, !dbg !9607
  store %"class.std::__1::__compressed_pair.30"* %604, %"class.std::__1::__compressed_pair.30"** %388, align 8
  %605 = load %"class.std::__1::__compressed_pair.30"*, %"class.std::__1::__compressed_pair.30"** %388, align 8
  %606 = bitcast %"class.std::__1::__compressed_pair.30"* %605 to %"struct.std::__1::__compressed_pair_elem.45"*, !dbg !9608
  store %"struct.std::__1::__compressed_pair_elem.45"* %606, %"struct.std::__1::__compressed_pair_elem.45"** %387, align 8
  %607 = load %"struct.std::__1::__compressed_pair_elem.45"*, %"struct.std::__1::__compressed_pair_elem.45"** %387, align 8
  %608 = bitcast %"struct.std::__1::__compressed_pair_elem.45"* %607 to %"struct.std::__1::default_delete.46"*, !dbg !9609
  store %"struct.std::__1::default_delete.46"* %608, %"struct.std::__1::default_delete.46"** %390, align 8
  %609 = load %"struct.std::__1::default_delete.46"*, %"struct.std::__1::default_delete.46"** %390, align 8, !dbg !9610
  store %"class.std::__1::__compressed_pair.30"* %587, %"class.std::__1::__compressed_pair.30"** %402, align 8
  store %"class.altered_carbon::js::ACAstBaseNode"** %413, %"class.altered_carbon::js::ACAstBaseNode"*** %403, align 8
  store %"struct.std::__1::default_delete.46"* %609, %"struct.std::__1::default_delete.46"** %404, align 8
  %610 = load %"class.std::__1::__compressed_pair.30"*, %"class.std::__1::__compressed_pair.30"** %402, align 8
  %611 = load %"class.altered_carbon::js::ACAstBaseNode"**, %"class.altered_carbon::js::ACAstBaseNode"*** %403, align 8, !dbg !9611
  %612 = load %"struct.std::__1::default_delete.46"*, %"struct.std::__1::default_delete.46"** %404, align 8, !dbg !9611
  store %"class.std::__1::__compressed_pair.30"* %610, %"class.std::__1::__compressed_pair.30"** %399, align 8
  store %"class.altered_carbon::js::ACAstBaseNode"** %611, %"class.altered_carbon::js::ACAstBaseNode"*** %400, align 8
  store %"struct.std::__1::default_delete.46"* %612, %"struct.std::__1::default_delete.46"** %401, align 8
  %613 = load %"class.std::__1::__compressed_pair.30"*, %"class.std::__1::__compressed_pair.30"** %399, align 8
  %614 = bitcast %"class.std::__1::__compressed_pair.30"* %613 to %"struct.std::__1::__compressed_pair_elem.31"*, !dbg !9612
  %615 = load %"class.altered_carbon::js::ACAstBaseNode"**, %"class.altered_carbon::js::ACAstBaseNode"*** %400, align 8, !dbg !9613
  store %"class.altered_carbon::js::ACAstBaseNode"** %615, %"class.altered_carbon::js::ACAstBaseNode"*** %398, align 8
  %616 = load %"class.altered_carbon::js::ACAstBaseNode"**, %"class.altered_carbon::js::ACAstBaseNode"*** %398, align 8, !dbg !9614
  store %"struct.std::__1::__compressed_pair_elem.31"* %614, %"struct.std::__1::__compressed_pair_elem.31"** %392, align 8
  store %"class.altered_carbon::js::ACAstBaseNode"** %616, %"class.altered_carbon::js::ACAstBaseNode"*** %393, align 8
  %617 = load %"struct.std::__1::__compressed_pair_elem.31"*, %"struct.std::__1::__compressed_pair_elem.31"** %392, align 8
  %618 = getelementptr inbounds %"struct.std::__1::__compressed_pair_elem.31", %"struct.std::__1::__compressed_pair_elem.31"* %617, i32 0, i32 0, !dbg !9615
  %619 = load %"class.altered_carbon::js::ACAstBaseNode"**, %"class.altered_carbon::js::ACAstBaseNode"*** %393, align 8, !dbg !9616
  store %"class.altered_carbon::js::ACAstBaseNode"** %619, %"class.altered_carbon::js::ACAstBaseNode"*** %391, align 8
  %620 = load %"class.altered_carbon::js::ACAstBaseNode"**, %"class.altered_carbon::js::ACAstBaseNode"*** %391, align 8, !dbg !9617
  %621 = load %"class.altered_carbon::js::ACAstBaseNode"*, %"class.altered_carbon::js::ACAstBaseNode"** %620, align 8, !dbg !9618
  store %"class.altered_carbon::js::ACAstBaseNode"* %621, %"class.altered_carbon::js::ACAstBaseNode"** %618, align 8, !dbg !9615
  %622 = bitcast %"class.std::__1::__compressed_pair.30"* %613 to %"struct.std::__1::__compressed_pair_elem.45"*, !dbg !9612
  %623 = load %"struct.std::__1::default_delete.46"*, %"struct.std::__1::default_delete.46"** %401, align 8, !dbg !9619
  store %"struct.std::__1::default_delete.46"* %623, %"struct.std::__1::default_delete.46"** %394, align 8
  %624 = load %"struct.std::__1::default_delete.46"*, %"struct.std::__1::default_delete.46"** %394, align 8, !dbg !9620
  store %"struct.std::__1::__compressed_pair_elem.45"* %622, %"struct.std::__1::__compressed_pair_elem.45"** %396, align 8
  store %"struct.std::__1::default_delete.46"* %624, %"struct.std::__1::default_delete.46"** %397, align 8
  %625 = load %"struct.std::__1::__compressed_pair_elem.45"*, %"struct.std::__1::__compressed_pair_elem.45"** %396, align 8
  %626 = bitcast %"struct.std::__1::__compressed_pair_elem.45"* %625 to %"struct.std::__1::default_delete.46"*, !dbg !9621
  %627 = load %"struct.std::__1::default_delete.46"*, %"struct.std::__1::default_delete.46"** %397, align 8, !dbg !9622
  store %"struct.std::__1::default_delete.46"* %627, %"struct.std::__1::default_delete.46"** %395, align 8
  %628 = load %"struct.std::__1::default_delete.46"*, %"struct.std::__1::default_delete.46"** %395, align 8, !dbg !9623
  store i32 1, i32* %490, align 4
  br label %1638, !dbg !9590
                                                  ; No predecessors!
  br label %630, !dbg !9590

; <label>:630:                                    ; preds = %629
  br label %631, !dbg !9588

; <label>:631:                                    ; preds = %630, %557
  br label %632, !dbg !9587

; <label>:632:                                    ; preds = %631
  br label %633, !dbg !9587

; <label>:633:                                    ; preds = %632
  %634 = bitcast %"class.altered_carbon::js::ACAstBuilder"* %505 to %"class.altered_carbon::js::ACJsParser"*, !dbg !9580
  call void @_ZN14altered_carbon2js10ACJsParser9nextTokenEv(%"class.std::__1::unique_ptr"* sret %491, %"class.altered_carbon::js::ACJsParser"* %634), !dbg !9580
  store %"class.std::__1::unique_ptr"* %491, %"class.std::__1::unique_ptr"** %386, align 8
  %635 = load %"class.std::__1::unique_ptr"*, %"class.std::__1::unique_ptr"** %386, align 8
  store %"class.std::__1::unique_ptr"* %635, %"class.std::__1::unique_ptr"** %385, align 8
  %636 = load %"class.std::__1::unique_ptr"*, %"class.std::__1::unique_ptr"** %385, align 8
  store %"class.std::__1::unique_ptr"* %636, %"class.std::__1::unique_ptr"** %382, align 8
  store %"class.altered_carbon::js::ACLexToken"* null, %"class.altered_carbon::js::ACLexToken"** %383, align 8
  %637 = load %"class.std::__1::unique_ptr"*, %"class.std::__1::unique_ptr"** %382, align 8
  %638 = getelementptr inbounds %"class.std::__1::unique_ptr", %"class.std::__1::unique_ptr"* %637, i32 0, i32 0, !dbg !9624
  store %"class.std::__1::__compressed_pair.15"* %638, %"class.std::__1::__compressed_pair.15"** %381, align 8
  %639 = load %"class.std::__1::__compressed_pair.15"*, %"class.std::__1::__compressed_pair.15"** %381, align 8
  %640 = bitcast %"class.std::__1::__compressed_pair.15"* %639 to %"struct.std::__1::__compressed_pair_elem.16"*, !dbg !9625
  store %"struct.std::__1::__compressed_pair_elem.16"* %640, %"struct.std::__1::__compressed_pair_elem.16"** %380, align 8
  %641 = load %"struct.std::__1::__compressed_pair_elem.16"*, %"struct.std::__1::__compressed_pair_elem.16"** %380, align 8
  %642 = getelementptr inbounds %"struct.std::__1::__compressed_pair_elem.16", %"struct.std::__1::__compressed_pair_elem.16"* %641, i32 0, i32 0, !dbg !9626
  %643 = load %"class.altered_carbon::js::ACLexToken"*, %"class.altered_carbon::js::ACLexToken"** %642, align 8, !dbg !9627
  store %"class.altered_carbon::js::ACLexToken"* %643, %"class.altered_carbon::js::ACLexToken"** %384, align 8, !dbg !9310
  %644 = load %"class.altered_carbon::js::ACLexToken"*, %"class.altered_carbon::js::ACLexToken"** %383, align 8, !dbg !9628
  %645 = getelementptr inbounds %"class.std::__1::unique_ptr", %"class.std::__1::unique_ptr"* %637, i32 0, i32 0, !dbg !9629
  store %"class.std::__1::__compressed_pair.15"* %645, %"class.std::__1::__compressed_pair.15"** %377, align 8
  %646 = load %"class.std::__1::__compressed_pair.15"*, %"class.std::__1::__compressed_pair.15"** %377, align 8
  %647 = bitcast %"class.std::__1::__compressed_pair.15"* %646 to %"struct.std::__1::__compressed_pair_elem.16"*, !dbg !9630
  store %"struct.std::__1::__compressed_pair_elem.16"* %647, %"struct.std::__1::__compressed_pair_elem.16"** %376, align 8
  %648 = load %"struct.std::__1::__compressed_pair_elem.16"*, %"struct.std::__1::__compressed_pair_elem.16"** %376, align 8
  %649 = getelementptr inbounds %"struct.std::__1::__compressed_pair_elem.16", %"struct.std::__1::__compressed_pair_elem.16"* %648, i32 0, i32 0, !dbg !9631
  store %"class.altered_carbon::js::ACLexToken"* %644, %"class.altered_carbon::js::ACLexToken"** %649, align 8, !dbg !9632
  %650 = load %"class.altered_carbon::js::ACLexToken"*, %"class.altered_carbon::js::ACLexToken"** %384, align 8, !dbg !9633
  %651 = icmp ne %"class.altered_carbon::js::ACLexToken"* %650, null, !dbg !9633
  br i1 %651, label %652, label %668, !dbg !9634

; <label>:652:                                    ; preds = %633
  %653 = getelementptr inbounds %"class.std::__1::unique_ptr", %"class.std::__1::unique_ptr"* %637, i32 0, i32 0, !dbg !9635
  store %"class.std::__1::__compressed_pair.15"* %653, %"class.std::__1::__compressed_pair.15"** %375, align 8
  %654 = load %"class.std::__1::__compressed_pair.15"*, %"class.std::__1::__compressed_pair.15"** %375, align 8
  %655 = bitcast %"class.std::__1::__compressed_pair.15"* %654 to %"struct.std::__1::__compressed_pair_elem.25"*, !dbg !9636
  store %"struct.std::__1::__compressed_pair_elem.25"* %655, %"struct.std::__1::__compressed_pair_elem.25"** %374, align 8
  %656 = load %"struct.std::__1::__compressed_pair_elem.25"*, %"struct.std::__1::__compressed_pair_elem.25"** %374, align 8
  %657 = bitcast %"struct.std::__1::__compressed_pair_elem.25"* %656 to %"struct.std::__1::default_delete"*, !dbg !9637
  %658 = load %"class.altered_carbon::js::ACLexToken"*, %"class.altered_carbon::js::ACLexToken"** %384, align 8, !dbg !9638
  store %"struct.std::__1::default_delete"* %657, %"struct.std::__1::default_delete"** %378, align 8
  store %"class.altered_carbon::js::ACLexToken"* %658, %"class.altered_carbon::js::ACLexToken"** %379, align 8
  %659 = load %"struct.std::__1::default_delete"*, %"struct.std::__1::default_delete"** %378, align 8
  %660 = load %"class.altered_carbon::js::ACLexToken"*, %"class.altered_carbon::js::ACLexToken"** %379, align 8, !dbg !9639
  %661 = icmp eq %"class.altered_carbon::js::ACLexToken"* %660, null, !dbg !9640
  br i1 %661, label %667, label %662, !dbg !9640

; <label>:662:                                    ; preds = %652
  %663 = bitcast %"class.altered_carbon::js::ACLexToken"* %660 to void (%"class.altered_carbon::js::ACLexToken"*)***, !dbg !9640
  %664 = load void (%"class.altered_carbon::js::ACLexToken"*)**, void (%"class.altered_carbon::js::ACLexToken"*)*** %663, align 8, !dbg !9640
  %665 = getelementptr inbounds void (%"class.altered_carbon::js::ACLexToken"*)*, void (%"class.altered_carbon::js::ACLexToken"*)** %664, i64 2, !dbg !9640
  %666 = load void (%"class.altered_carbon::js::ACLexToken"*)*, void (%"class.altered_carbon::js::ACLexToken"*)** %665, align 8, !dbg !9640
  call void %666(%"class.altered_carbon::js::ACLexToken"* %660) #2, !dbg !9640
  br label %667, !dbg !9640

; <label>:667:                                    ; preds = %662, %652
  br label %668, !dbg !9635

; <label>:668:                                    ; preds = %633, %667
  br label %669, !dbg !9580

; <label>:669:                                    ; preds = %668
  br label %670, !dbg !9580

; <label>:670:                                    ; preds = %669
  br label %671, !dbg !9641

; <label>:671:                                    ; preds = %1325, %670
  %672 = bitcast %"class.altered_carbon::js::ACAstBuilder"* %505 to %"class.altered_carbon::js::ACJsParser"*, !dbg !9642
  %673 = getelementptr inbounds %"class.altered_carbon::js::ACJsParser", %"class.altered_carbon::js::ACJsParser"* %672, i32 0, i32 11, !dbg !9642
  %674 = getelementptr inbounds %"struct.altered_carbon::js::ACLexPosition", %"struct.altered_carbon::js::ACLexPosition"* %673, i32 0, i32 1, !dbg !9642
  %675 = load i64, i64* %674, align 8, !dbg !9642
  %676 = bitcast %"class.altered_carbon::js::ACAstBuilder"* %505 to %"class.altered_carbon::js::ACJsParser"*, !dbg !9642
  %677 = getelementptr inbounds %"class.altered_carbon::js::ACJsParser", %"class.altered_carbon::js::ACJsParser"* %676, i32 0, i32 2, !dbg !9642
  store %"class.std::__1::basic_string"* %677, %"class.std::__1::basic_string"** %373, align 8
  %678 = load %"class.std::__1::basic_string"*, %"class.std::__1::basic_string"** %373, align 8
  store %"class.std::__1::basic_string"* %678, %"class.std::__1::basic_string"** %372, align 8
  %679 = load %"class.std::__1::basic_string"*, %"class.std::__1::basic_string"** %372, align 8
  store %"class.std::__1::basic_string"* %679, %"class.std::__1::basic_string"** %371, align 8
  %680 = load %"class.std::__1::basic_string"*, %"class.std::__1::basic_string"** %371, align 8
  %681 = getelementptr inbounds %"class.std::__1::basic_string", %"class.std::__1::basic_string"* %680, i32 0, i32 0, !dbg !9643
  store %"class.std::__1::__compressed_pair"* %681, %"class.std::__1::__compressed_pair"** %370, align 8
  %682 = load %"class.std::__1::__compressed_pair"*, %"class.std::__1::__compressed_pair"** %370, align 8
  %683 = bitcast %"class.std::__1::__compressed_pair"* %682 to %"struct.std::__1::__compressed_pair_elem"*, !dbg !9644
  store %"struct.std::__1::__compressed_pair_elem"* %683, %"struct.std::__1::__compressed_pair_elem"** %369, align 8
  %684 = load %"struct.std::__1::__compressed_pair_elem"*, %"struct.std::__1::__compressed_pair_elem"** %369, align 8
  %685 = getelementptr inbounds %"struct.std::__1::__compressed_pair_elem", %"struct.std::__1::__compressed_pair_elem"* %684, i32 0, i32 0, !dbg !9645
  %686 = getelementptr inbounds %"struct.std::__1::basic_string<char, std::__1::char_traits<char>, std::__1::allocator<char> >::__rep", %"struct.std::__1::basic_string<char, std::__1::char_traits<char>, std::__1::allocator<char> >::__rep"* %685, i32 0, i32 0, !dbg !9646
  %687 = bitcast %union.anon* %686 to %"struct.std::__1::basic_string<char, std::__1::char_traits<char>, std::__1::allocator<char> >::__short"*, !dbg !9646
  %688 = getelementptr inbounds %"struct.std::__1::basic_string<char, std::__1::char_traits<char>, std::__1::allocator<char> >::__short", %"struct.std::__1::basic_string<char, std::__1::char_traits<char>, std::__1::allocator<char> >::__short"* %687, i32 0, i32 0, !dbg !9647
  %689 = bitcast %union.anon.0* %688 to i8*, !dbg !9647
  %690 = load i8, i8* %689, align 8, !dbg !9647
  %691 = zext i8 %690 to i64, !dbg !9643
  %692 = and i64 %691, 1, !dbg !9648
  %693 = icmp ne i64 %692, 0, !dbg !9643
  br i1 %693, label %694, label %705, !dbg !9649

; <label>:694:                                    ; preds = %671
  store %"class.std::__1::basic_string"* %679, %"class.std::__1::basic_string"** %365, align 8
  %695 = load %"class.std::__1::basic_string"*, %"class.std::__1::basic_string"** %365, align 8
  %696 = getelementptr inbounds %"class.std::__1::basic_string", %"class.std::__1::basic_string"* %695, i32 0, i32 0, !dbg !9650
  store %"class.std::__1::__compressed_pair"* %696, %"class.std::__1::__compressed_pair"** %364, align 8
  %697 = load %"class.std::__1::__compressed_pair"*, %"class.std::__1::__compressed_pair"** %364, align 8
  %698 = bitcast %"class.std::__1::__compressed_pair"* %697 to %"struct.std::__1::__compressed_pair_elem"*, !dbg !9651
  store %"struct.std::__1::__compressed_pair_elem"* %698, %"struct.std::__1::__compressed_pair_elem"** %363, align 8
  %699 = load %"struct.std::__1::__compressed_pair_elem"*, %"struct.std::__1::__compressed_pair_elem"** %363, align 8
  %700 = getelementptr inbounds %"struct.std::__1::__compressed_pair_elem", %"struct.std::__1::__compressed_pair_elem"* %699, i32 0, i32 0, !dbg !9652
  %701 = getelementptr inbounds %"struct.std::__1::basic_string<char, std::__1::char_traits<char>, std::__1::allocator<char> >::__rep", %"struct.std::__1::basic_string<char, std::__1::char_traits<char>, std::__1::allocator<char> >::__rep"* %700, i32 0, i32 0, !dbg !9653
  %702 = bitcast %union.anon* %701 to %"struct.std::__1::basic_string<char, std::__1::char_traits<char>, std::__1::allocator<char> >::__long"*, !dbg !9653
  %703 = getelementptr inbounds %"struct.std::__1::basic_string<char, std::__1::char_traits<char>, std::__1::allocator<char> >::__long", %"struct.std::__1::basic_string<char, std::__1::char_traits<char>, std::__1::allocator<char> >::__long"* %702, i32 0, i32 1, !dbg !9654
  %704 = load i64, i64* %703, align 8, !dbg !9654
  br label %720, !dbg !9649

; <label>:705:                                    ; preds = %671
  store %"class.std::__1::basic_string"* %679, %"class.std::__1::basic_string"** %368, align 8
  %706 = load %"class.std::__1::basic_string"*, %"class.std::__1::basic_string"** %368, align 8
  %707 = getelementptr inbounds %"class.std::__1::basic_string", %"class.std::__1::basic_string"* %706, i32 0, i32 0, !dbg !9655
  store %"class.std::__1::__compressed_pair"* %707, %"class.std::__1::__compressed_pair"** %367, align 8
  %708 = load %"class.std::__1::__compressed_pair"*, %"class.std::__1::__compressed_pair"** %367, align 8
  %709 = bitcast %"class.std::__1::__compressed_pair"* %708 to %"struct.std::__1::__compressed_pair_elem"*, !dbg !9656
  store %"struct.std::__1::__compressed_pair_elem"* %709, %"struct.std::__1::__compressed_pair_elem"** %366, align 8
  %710 = load %"struct.std::__1::__compressed_pair_elem"*, %"struct.std::__1::__compressed_pair_elem"** %366, align 8
  %711 = getelementptr inbounds %"struct.std::__1::__compressed_pair_elem", %"struct.std::__1::__compressed_pair_elem"* %710, i32 0, i32 0, !dbg !9657
  %712 = getelementptr inbounds %"struct.std::__1::basic_string<char, std::__1::char_traits<char>, std::__1::allocator<char> >::__rep", %"struct.std::__1::basic_string<char, std::__1::char_traits<char>, std::__1::allocator<char> >::__rep"* %711, i32 0, i32 0, !dbg !9658
  %713 = bitcast %union.anon* %712 to %"struct.std::__1::basic_string<char, std::__1::char_traits<char>, std::__1::allocator<char> >::__short"*, !dbg !9658
  %714 = getelementptr inbounds %"struct.std::__1::basic_string<char, std::__1::char_traits<char>, std::__1::allocator<char> >::__short", %"struct.std::__1::basic_string<char, std::__1::char_traits<char>, std::__1::allocator<char> >::__short"* %713, i32 0, i32 0, !dbg !9659
  %715 = bitcast %union.anon.0* %714 to i8*, !dbg !9659
  %716 = load i8, i8* %715, align 8, !dbg !9659
  %717 = zext i8 %716 to i32, !dbg !9655
  %718 = ashr i32 %717, 1, !dbg !9660
  %719 = sext i32 %718 to i64, !dbg !9655
  br label %720, !dbg !9649

; <label>:720:                                    ; preds = %694, %705
  %721 = phi i64 [ %704, %694 ], [ %719, %705 ], !dbg !9649
  %722 = icmp uge i64 %675, %721, !dbg !9642
  br i1 %722, label %736, label %723, !dbg !9661

; <label>:723:                                    ; preds = %720
  %724 = bitcast %"class.altered_carbon::js::ACAstBuilder"* %505 to %"class.altered_carbon::js::ACJsParser"*, !dbg !9662
  %725 = getelementptr inbounds %"class.altered_carbon::js::ACJsParser", %"class.altered_carbon::js::ACJsParser"* %724, i32 0, i32 14, !dbg !9662
  store %"class.std::__1::unique_ptr"* %725, %"class.std::__1::unique_ptr"** %362, align 8
  %726 = load %"class.std::__1::unique_ptr"*, %"class.std::__1::unique_ptr"** %362, align 8
  %727 = getelementptr inbounds %"class.std::__1::unique_ptr", %"class.std::__1::unique_ptr"* %726, i32 0, i32 0, !dbg !9663
  store %"class.std::__1::__compressed_pair.15"* %727, %"class.std::__1::__compressed_pair.15"** %361, align 8
  %728 = load %"class.std::__1::__compressed_pair.15"*, %"class.std::__1::__compressed_pair.15"** %361, align 8
  %729 = bitcast %"class.std::__1::__compressed_pair.15"* %728 to %"struct.std::__1::__compressed_pair_elem.16"*, !dbg !9664
  store %"struct.std::__1::__compressed_pair_elem.16"* %729, %"struct.std::__1::__compressed_pair_elem.16"** %360, align 8
  %730 = load %"struct.std::__1::__compressed_pair_elem.16"*, %"struct.std::__1::__compressed_pair_elem.16"** %360, align 8
  %731 = getelementptr inbounds %"struct.std::__1::__compressed_pair_elem.16", %"struct.std::__1::__compressed_pair_elem.16"* %730, i32 0, i32 0, !dbg !9665
  %732 = load %"class.altered_carbon::js::ACLexToken"*, %"class.altered_carbon::js::ACLexToken"** %731, align 8, !dbg !9666
  %733 = getelementptr inbounds %"class.altered_carbon::js::ACLexToken", %"class.altered_carbon::js::ACLexToken"* %732, i32 0, i32 1, !dbg !9667
  %734 = load i32, i32* %733, align 8, !dbg !9667
  %735 = icmp ne i32 %734, 20, !dbg !9668
  br label %736

; <label>:736:                                    ; preds = %723, %720
  %737 = phi i1 [ false, %720 ], [ %735, %723 ]
  br i1 %737, label %738, label %1326, !dbg !9641

; <label>:738:                                    ; preds = %736
  %739 = bitcast %"class.altered_carbon::js::ACAstBuilder"* %505 to %"class.altered_carbon::js::ACJsParser"*, !dbg !9669
  %740 = getelementptr inbounds %"class.altered_carbon::js::ACJsParser", %"class.altered_carbon::js::ACJsParser"* %739, i32 0, i32 14, !dbg !9669
  store %"class.std::__1::unique_ptr"* %740, %"class.std::__1::unique_ptr"** %359, align 8
  %741 = load %"class.std::__1::unique_ptr"*, %"class.std::__1::unique_ptr"** %359, align 8
  %742 = getelementptr inbounds %"class.std::__1::unique_ptr", %"class.std::__1::unique_ptr"* %741, i32 0, i32 0, !dbg !9670
  store %"class.std::__1::__compressed_pair.15"* %742, %"class.std::__1::__compressed_pair.15"** %358, align 8
  %743 = load %"class.std::__1::__compressed_pair.15"*, %"class.std::__1::__compressed_pair.15"** %358, align 8
  %744 = bitcast %"class.std::__1::__compressed_pair.15"* %743 to %"struct.std::__1::__compressed_pair_elem.16"*, !dbg !9671
  store %"struct.std::__1::__compressed_pair_elem.16"* %744, %"struct.std::__1::__compressed_pair_elem.16"** %357, align 8
  %745 = load %"struct.std::__1::__compressed_pair_elem.16"*, %"struct.std::__1::__compressed_pair_elem.16"** %357, align 8
  %746 = getelementptr inbounds %"struct.std::__1::__compressed_pair_elem.16", %"struct.std::__1::__compressed_pair_elem.16"* %745, i32 0, i32 0, !dbg !9672
  %747 = load %"class.altered_carbon::js::ACLexToken"*, %"class.altered_carbon::js::ACLexToken"** %746, align 8, !dbg !9673
  %748 = getelementptr inbounds %"class.altered_carbon::js::ACLexToken", %"class.altered_carbon::js::ACLexToken"* %747, i32 0, i32 1, !dbg !9674
  %749 = load i32, i32* %748, align 8, !dbg !9674
  switch i32 %749, label %1058 [
    i32 128, label %750
    i32 132, label %1040
  ], !dbg !9675

; <label>:750:                                    ; preds = %738
  %751 = bitcast %"class.altered_carbon::js::ACAstBuilder"* %505 to %"class.altered_carbon::js::ACJsParser"*, !dbg !9676
  call void @_ZN14altered_carbon2js10ACJsParser9nextTokenEv(%"class.std::__1::unique_ptr"* sret %492, %"class.altered_carbon::js::ACJsParser"* %751), !dbg !9676
  store %"class.std::__1::unique_ptr"* %492, %"class.std::__1::unique_ptr"** %356, align 8
  %752 = load %"class.std::__1::unique_ptr"*, %"class.std::__1::unique_ptr"** %356, align 8
  store %"class.std::__1::unique_ptr"* %752, %"class.std::__1::unique_ptr"** %355, align 8
  %753 = load %"class.std::__1::unique_ptr"*, %"class.std::__1::unique_ptr"** %355, align 8
  store %"class.std::__1::unique_ptr"* %753, %"class.std::__1::unique_ptr"** %352, align 8
  store %"class.altered_carbon::js::ACLexToken"* null, %"class.altered_carbon::js::ACLexToken"** %353, align 8
  %754 = load %"class.std::__1::unique_ptr"*, %"class.std::__1::unique_ptr"** %352, align 8
  %755 = getelementptr inbounds %"class.std::__1::unique_ptr", %"class.std::__1::unique_ptr"* %754, i32 0, i32 0, !dbg !9677
  store %"class.std::__1::__compressed_pair.15"* %755, %"class.std::__1::__compressed_pair.15"** %351, align 8
  %756 = load %"class.std::__1::__compressed_pair.15"*, %"class.std::__1::__compressed_pair.15"** %351, align 8
  %757 = bitcast %"class.std::__1::__compressed_pair.15"* %756 to %"struct.std::__1::__compressed_pair_elem.16"*, !dbg !9678
  store %"struct.std::__1::__compressed_pair_elem.16"* %757, %"struct.std::__1::__compressed_pair_elem.16"** %350, align 8
  %758 = load %"struct.std::__1::__compressed_pair_elem.16"*, %"struct.std::__1::__compressed_pair_elem.16"** %350, align 8
  %759 = getelementptr inbounds %"struct.std::__1::__compressed_pair_elem.16", %"struct.std::__1::__compressed_pair_elem.16"* %758, i32 0, i32 0, !dbg !9679
  %760 = load %"class.altered_carbon::js::ACLexToken"*, %"class.altered_carbon::js::ACLexToken"** %759, align 8, !dbg !9680
  store %"class.altered_carbon::js::ACLexToken"* %760, %"class.altered_carbon::js::ACLexToken"** %354, align 8, !dbg !9235
  %761 = load %"class.altered_carbon::js::ACLexToken"*, %"class.altered_carbon::js::ACLexToken"** %353, align 8, !dbg !9681
  %762 = getelementptr inbounds %"class.std::__1::unique_ptr", %"class.std::__1::unique_ptr"* %754, i32 0, i32 0, !dbg !9682
  store %"class.std::__1::__compressed_pair.15"* %762, %"class.std::__1::__compressed_pair.15"** %347, align 8
  %763 = load %"class.std::__1::__compressed_pair.15"*, %"class.std::__1::__compressed_pair.15"** %347, align 8
  %764 = bitcast %"class.std::__1::__compressed_pair.15"* %763 to %"struct.std::__1::__compressed_pair_elem.16"*, !dbg !9683
  store %"struct.std::__1::__compressed_pair_elem.16"* %764, %"struct.std::__1::__compressed_pair_elem.16"** %346, align 8
  %765 = load %"struct.std::__1::__compressed_pair_elem.16"*, %"struct.std::__1::__compressed_pair_elem.16"** %346, align 8
  %766 = getelementptr inbounds %"struct.std::__1::__compressed_pair_elem.16", %"struct.std::__1::__compressed_pair_elem.16"* %765, i32 0, i32 0, !dbg !9684
  store %"class.altered_carbon::js::ACLexToken"* %761, %"class.altered_carbon::js::ACLexToken"** %766, align 8, !dbg !9685
  %767 = load %"class.altered_carbon::js::ACLexToken"*, %"class.altered_carbon::js::ACLexToken"** %354, align 8, !dbg !9686
  %768 = icmp ne %"class.altered_carbon::js::ACLexToken"* %767, null, !dbg !9686
  br i1 %768, label %769, label %785, !dbg !9687

; <label>:769:                                    ; preds = %750
  %770 = getelementptr inbounds %"class.std::__1::unique_ptr", %"class.std::__1::unique_ptr"* %754, i32 0, i32 0, !dbg !9688
  store %"class.std::__1::__compressed_pair.15"* %770, %"class.std::__1::__compressed_pair.15"** %345, align 8
  %771 = load %"class.std::__1::__compressed_pair.15"*, %"class.std::__1::__compressed_pair.15"** %345, align 8
  %772 = bitcast %"class.std::__1::__compressed_pair.15"* %771 to %"struct.std::__1::__compressed_pair_elem.25"*, !dbg !9689
  store %"struct.std::__1::__compressed_pair_elem.25"* %772, %"struct.std::__1::__compressed_pair_elem.25"** %344, align 8
  %773 = load %"struct.std::__1::__compressed_pair_elem.25"*, %"struct.std::__1::__compressed_pair_elem.25"** %344, align 8
  %774 = bitcast %"struct.std::__1::__compressed_pair_elem.25"* %773 to %"struct.std::__1::default_delete"*, !dbg !9690
  %775 = load %"class.altered_carbon::js::ACLexToken"*, %"class.altered_carbon::js::ACLexToken"** %354, align 8, !dbg !9691
  store %"struct.std::__1::default_delete"* %774, %"struct.std::__1::default_delete"** %348, align 8
  store %"class.altered_carbon::js::ACLexToken"* %775, %"class.altered_carbon::js::ACLexToken"** %349, align 8
  %776 = load %"struct.std::__1::default_delete"*, %"struct.std::__1::default_delete"** %348, align 8
  %777 = load %"class.altered_carbon::js::ACLexToken"*, %"class.altered_carbon::js::ACLexToken"** %349, align 8, !dbg !9692
  %778 = icmp eq %"class.altered_carbon::js::ACLexToken"* %777, null, !dbg !9693
  br i1 %778, label %784, label %779, !dbg !9693

; <label>:779:                                    ; preds = %769
  %780 = bitcast %"class.altered_carbon::js::ACLexToken"* %777 to void (%"class.altered_carbon::js::ACLexToken"*)***, !dbg !9693
  %781 = load void (%"class.altered_carbon::js::ACLexToken"*)**, void (%"class.altered_carbon::js::ACLexToken"*)*** %780, align 8, !dbg !9693
  %782 = getelementptr inbounds void (%"class.altered_carbon::js::ACLexToken"*)*, void (%"class.altered_carbon::js::ACLexToken"*)** %781, i64 2, !dbg !9693
  %783 = load void (%"class.altered_carbon::js::ACLexToken"*)*, void (%"class.altered_carbon::js::ACLexToken"*)** %782, align 8, !dbg !9693
  call void %783(%"class.altered_carbon::js::ACLexToken"* %777) #2, !dbg !9693
  br label %784, !dbg !9693

; <label>:784:                                    ; preds = %779, %769
  br label %785, !dbg !9688

; <label>:785:                                    ; preds = %750, %784
  %786 = bitcast %"class.altered_carbon::js::ACAstBuilder"* %505 to %"class.altered_carbon::js::ACJsParser"*, !dbg !9694
  %787 = getelementptr inbounds %"class.altered_carbon::js::ACJsParser", %"class.altered_carbon::js::ACJsParser"* %786, i32 0, i32 14, !dbg !9694
  store %"class.std::__1::unique_ptr"* %787, %"class.std::__1::unique_ptr"** %343, align 8
  %788 = load %"class.std::__1::unique_ptr"*, %"class.std::__1::unique_ptr"** %343, align 8
  %789 = getelementptr inbounds %"class.std::__1::unique_ptr", %"class.std::__1::unique_ptr"* %788, i32 0, i32 0, !dbg !9695
  store %"class.std::__1::__compressed_pair.15"* %789, %"class.std::__1::__compressed_pair.15"** %342, align 8
  %790 = load %"class.std::__1::__compressed_pair.15"*, %"class.std::__1::__compressed_pair.15"** %342, align 8
  %791 = bitcast %"class.std::__1::__compressed_pair.15"* %790 to %"struct.std::__1::__compressed_pair_elem.16"*, !dbg !9696
  store %"struct.std::__1::__compressed_pair_elem.16"* %791, %"struct.std::__1::__compressed_pair_elem.16"** %341, align 8
  %792 = load %"struct.std::__1::__compressed_pair_elem.16"*, %"struct.std::__1::__compressed_pair_elem.16"** %341, align 8
  %793 = getelementptr inbounds %"struct.std::__1::__compressed_pair_elem.16", %"struct.std::__1::__compressed_pair_elem.16"* %792, i32 0, i32 0, !dbg !9697
  %794 = load %"class.altered_carbon::js::ACLexToken"*, %"class.altered_carbon::js::ACLexToken"** %793, align 8, !dbg !9698
  %795 = icmp ne %"class.altered_carbon::js::ACLexToken"* %794, null, !dbg !9699
  br i1 %795, label %796, label %807, !dbg !9694

; <label>:796:                                    ; preds = %785
  %797 = bitcast %"class.altered_carbon::js::ACAstBuilder"* %505 to %"class.altered_carbon::js::ACJsParser"*, !dbg !9694
  %798 = getelementptr inbounds %"class.altered_carbon::js::ACJsParser", %"class.altered_carbon::js::ACJsParser"* %797, i32 0, i32 14, !dbg !9694
  store %"class.std::__1::unique_ptr"* %798, %"class.std::__1::unique_ptr"** %340, align 8
  %799 = load %"class.std::__1::unique_ptr"*, %"class.std::__1::unique_ptr"** %340, align 8
  %800 = getelementptr inbounds %"class.std::__1::unique_ptr", %"class.std::__1::unique_ptr"* %799, i32 0, i32 0, !dbg !9700
  store %"class.std::__1::__compressed_pair.15"* %800, %"class.std::__1::__compressed_pair.15"** %339, align 8
  %801 = load %"class.std::__1::__compressed_pair.15"*, %"class.std::__1::__compressed_pair.15"** %339, align 8
  %802 = bitcast %"class.std::__1::__compressed_pair.15"* %801 to %"struct.std::__1::__compressed_pair_elem.16"*, !dbg !9701
  store %"struct.std::__1::__compressed_pair_elem.16"* %802, %"struct.std::__1::__compressed_pair_elem.16"** %338, align 8
  %803 = load %"struct.std::__1::__compressed_pair_elem.16"*, %"struct.std::__1::__compressed_pair_elem.16"** %338, align 8
  %804 = getelementptr inbounds %"struct.std::__1::__compressed_pair_elem.16", %"struct.std::__1::__compressed_pair_elem.16"* %803, i32 0, i32 0, !dbg !9702
  %805 = load %"class.altered_carbon::js::ACLexToken"*, %"class.altered_carbon::js::ACLexToken"** %804, align 8, !dbg !9703
  %806 = getelementptr inbounds %"class.altered_carbon::js::ACLexToken", %"class.altered_carbon::js::ACLexToken"* %805, i32 0, i32 4, !dbg !9694
  call void @_ZN14altered_carbon2js13ACLexPositionC1ERKS1_(%"struct.altered_carbon::js::ACLexPosition"* %496, %"struct.altered_carbon::js::ACLexPosition"* dereferenceable(32) %806), !dbg !9694
  br label %808, !dbg !9694

; <label>:807:                                    ; preds = %785
  call void @_ZN14altered_carbon2js13ACLexPositionC1EPKS1_(%"struct.altered_carbon::js::ACLexPosition"* %496, %"struct.altered_carbon::js::ACLexPosition"* null), !dbg !9694
  br label %808, !dbg !9694

; <label>:808:                                    ; preds = %807, %796
  call void @_ZN4llvm11make_uniqueIN14altered_carbon2js13ACLexPositionEJS3_EEENSt3__19enable_ifIXntsr3std8is_arrayIT_EE5valueENS4_10unique_ptrIS6_NS4_14default_deleteIS6_EEEEE4typeEDpOT0_(%"class.std::__1::unique_ptr.32"* sret %495, %"struct.altered_carbon::js::ACLexPosition"* dereferenceable(32) %496), !dbg !9694
  store i32 10, i32* %497, align 4, !dbg !9694
  call void @_ZN4llvm11make_uniqueIN14altered_carbon2js16ACAstVariantNodeEJNSt3__110unique_ptrINS2_13ACLexPositionENS4_14default_deleteIS6_EEEENS2_14ACLexTokenTypeEEEENS4_9enable_ifIXntsr3std8is_arrayIT_EE5valueENS5_ISC_NS7_ISC_EEEEE4typeEDpOT0_(%"class.std::__1::unique_ptr.51"* sret %494, %"class.std::__1::unique_ptr.32"* dereferenceable(8) %495, i32* dereferenceable(4) %497), !dbg !9694
  store %"class.std::__1::unique_ptr.51"* %494, %"class.std::__1::unique_ptr.51"** %336, align 8
  %809 = load %"class.std::__1::unique_ptr.51"*, %"class.std::__1::unique_ptr.51"** %336, align 8
  %810 = getelementptr inbounds %"class.std::__1::unique_ptr.51", %"class.std::__1::unique_ptr.51"* %809, i32 0, i32 0, !dbg !9704
  store %"class.std::__1::__compressed_pair.52"* %810, %"class.std::__1::__compressed_pair.52"** %335, align 8
  %811 = load %"class.std::__1::__compressed_pair.52"*, %"class.std::__1::__compressed_pair.52"** %335, align 8
  %812 = bitcast %"class.std::__1::__compressed_pair.52"* %811 to %"struct.std::__1::__compressed_pair_elem.53"*, !dbg !9705
  store %"struct.std::__1::__compressed_pair_elem.53"* %812, %"struct.std::__1::__compressed_pair_elem.53"** %334, align 8
  %813 = load %"struct.std::__1::__compressed_pair_elem.53"*, %"struct.std::__1::__compressed_pair_elem.53"** %334, align 8
  %814 = getelementptr inbounds %"struct.std::__1::__compressed_pair_elem.53", %"struct.std::__1::__compressed_pair_elem.53"* %813, i32 0, i32 0, !dbg !9706
  %815 = load %"class.altered_carbon::js::ACAstVariantNode"*, %"class.altered_carbon::js::ACAstVariantNode"** %814, align 8, !dbg !9707
  store %"class.altered_carbon::js::ACAstVariantNode"* %815, %"class.altered_carbon::js::ACAstVariantNode"** %337, align 8, !dbg !9202
  %816 = getelementptr inbounds %"class.std::__1::unique_ptr.51", %"class.std::__1::unique_ptr.51"* %809, i32 0, i32 0, !dbg !9708
  store %"class.std::__1::__compressed_pair.52"* %816, %"class.std::__1::__compressed_pair.52"** %333, align 8
  %817 = load %"class.std::__1::__compressed_pair.52"*, %"class.std::__1::__compressed_pair.52"** %333, align 8
  %818 = bitcast %"class.std::__1::__compressed_pair.52"* %817 to %"struct.std::__1::__compressed_pair_elem.53"*, !dbg !9709
  store %"struct.std::__1::__compressed_pair_elem.53"* %818, %"struct.std::__1::__compressed_pair_elem.53"** %332, align 8
  %819 = load %"struct.std::__1::__compressed_pair_elem.53"*, %"struct.std::__1::__compressed_pair_elem.53"** %332, align 8
  %820 = getelementptr inbounds %"struct.std::__1::__compressed_pair_elem.53", %"struct.std::__1::__compressed_pair_elem.53"* %819, i32 0, i32 0, !dbg !9710
  store %"class.altered_carbon::js::ACAstVariantNode"* null, %"class.altered_carbon::js::ACAstVariantNode"** %820, align 8, !dbg !9711
  %821 = load %"class.altered_carbon::js::ACAstVariantNode"*, %"class.altered_carbon::js::ACAstVariantNode"** %337, align 8, !dbg !9712
  %822 = bitcast %"class.altered_carbon::js::ACAstVariantNode"* %821 to %"class.altered_carbon::js::ACAstBaseNode"*, !dbg !9694
  store %"class.std::__1::unique_ptr.29"* %493, %"class.std::__1::unique_ptr.29"** %317, align 8
  store %"class.altered_carbon::js::ACAstBaseNode"* %822, %"class.altered_carbon::js::ACAstBaseNode"** %318, align 8
  %823 = load %"class.std::__1::unique_ptr.29"*, %"class.std::__1::unique_ptr.29"** %317, align 8
  %824 = load %"class.altered_carbon::js::ACAstBaseNode"*, %"class.altered_carbon::js::ACAstBaseNode"** %318, align 8, !dbg !9713
  store %"class.std::__1::unique_ptr.29"* %823, %"class.std::__1::unique_ptr.29"** %315, align 8
  store %"class.altered_carbon::js::ACAstBaseNode"* %824, %"class.altered_carbon::js::ACAstBaseNode"** %316, align 8
  %825 = load %"class.std::__1::unique_ptr.29"*, %"class.std::__1::unique_ptr.29"** %315, align 8
  %826 = getelementptr inbounds %"class.std::__1::unique_ptr.29", %"class.std::__1::unique_ptr.29"* %825, i32 0, i32 0, !dbg !9714
  store %"class.std::__1::__compressed_pair.30"* %826, %"class.std::__1::__compressed_pair.30"** %313, align 8
  store %"class.altered_carbon::js::ACAstBaseNode"** %316, %"class.altered_carbon::js::ACAstBaseNode"*** %314, align 8
  %827 = load %"class.std::__1::__compressed_pair.30"*, %"class.std::__1::__compressed_pair.30"** %313, align 8
  %828 = load %"class.altered_carbon::js::ACAstBaseNode"**, %"class.altered_carbon::js::ACAstBaseNode"*** %314, align 8, !dbg !9715
  store %"class.std::__1::__compressed_pair.30"* %827, %"class.std::__1::__compressed_pair.30"** %311, align 8
  store %"class.altered_carbon::js::ACAstBaseNode"** %828, %"class.altered_carbon::js::ACAstBaseNode"*** %312, align 8
  %829 = load %"class.std::__1::__compressed_pair.30"*, %"class.std::__1::__compressed_pair.30"** %311, align 8
  %830 = bitcast %"class.std::__1::__compressed_pair.30"* %829 to %"struct.std::__1::__compressed_pair_elem.31"*, !dbg !9716
  %831 = load %"class.altered_carbon::js::ACAstBaseNode"**, %"class.altered_carbon::js::ACAstBaseNode"*** %312, align 8, !dbg !9717
  store %"class.altered_carbon::js::ACAstBaseNode"** %831, %"class.altered_carbon::js::ACAstBaseNode"*** %310, align 8
  %832 = load %"class.altered_carbon::js::ACAstBaseNode"**, %"class.altered_carbon::js::ACAstBaseNode"*** %310, align 8, !dbg !9718
  store %"struct.std::__1::__compressed_pair_elem.31"* %830, %"struct.std::__1::__compressed_pair_elem.31"** %308, align 8
  store %"class.altered_carbon::js::ACAstBaseNode"** %832, %"class.altered_carbon::js::ACAstBaseNode"*** %309, align 8
  %833 = load %"struct.std::__1::__compressed_pair_elem.31"*, %"struct.std::__1::__compressed_pair_elem.31"** %308, align 8
  %834 = getelementptr inbounds %"struct.std::__1::__compressed_pair_elem.31", %"struct.std::__1::__compressed_pair_elem.31"* %833, i32 0, i32 0, !dbg !9719
  %835 = load %"class.altered_carbon::js::ACAstBaseNode"**, %"class.altered_carbon::js::ACAstBaseNode"*** %309, align 8, !dbg !9720
  store %"class.altered_carbon::js::ACAstBaseNode"** %835, %"class.altered_carbon::js::ACAstBaseNode"*** %307, align 8
  %836 = load %"class.altered_carbon::js::ACAstBaseNode"**, %"class.altered_carbon::js::ACAstBaseNode"*** %307, align 8, !dbg !9721
  %837 = load %"class.altered_carbon::js::ACAstBaseNode"*, %"class.altered_carbon::js::ACAstBaseNode"** %836, align 8, !dbg !9722
  store %"class.altered_carbon::js::ACAstBaseNode"* %837, %"class.altered_carbon::js::ACAstBaseNode"** %834, align 8, !dbg !9719
  %838 = bitcast %"class.std::__1::__compressed_pair.30"* %829 to %"struct.std::__1::__compressed_pair_elem.45"*, !dbg !9716
  store %"class.std::__1::vector.38"* %488, %"class.std::__1::vector.38"** %291, align 8
  store %"class.std::__1::unique_ptr.29"* %493, %"class.std::__1::unique_ptr.29"** %292, align 8
  %839 = load %"class.std::__1::vector.38"*, %"class.std::__1::vector.38"** %291, align 8
  %840 = bitcast %"class.std::__1::vector.38"* %839 to %"class.std::__1::__vector_base.39"*, !dbg !9723
  %841 = getelementptr inbounds %"class.std::__1::__vector_base.39", %"class.std::__1::__vector_base.39"* %840, i32 0, i32 1, !dbg !9723
  %842 = load %"class.std::__1::unique_ptr.29"*, %"class.std::__1::unique_ptr.29"** %841, align 8, !dbg !9723
  %843 = bitcast %"class.std::__1::vector.38"* %839 to %"class.std::__1::__vector_base.39"*, !dbg !9724
  store %"class.std::__1::__vector_base.39"* %843, %"class.std::__1::__vector_base.39"** %290, align 8
  %844 = load %"class.std::__1::__vector_base.39"*, %"class.std::__1::__vector_base.39"** %290, align 8
  %845 = getelementptr inbounds %"class.std::__1::__vector_base.39", %"class.std::__1::__vector_base.39"* %844, i32 0, i32 2, !dbg !9725
  store %"class.std::__1::__compressed_pair.40"* %845, %"class.std::__1::__compressed_pair.40"** %289, align 8
  %846 = load %"class.std::__1::__compressed_pair.40"*, %"class.std::__1::__compressed_pair.40"** %289, align 8
  %847 = bitcast %"class.std::__1::__compressed_pair.40"* %846 to %"struct.std::__1::__compressed_pair_elem.41"*, !dbg !9726
  store %"struct.std::__1::__compressed_pair_elem.41"* %847, %"struct.std::__1::__compressed_pair_elem.41"** %288, align 8
  %848 = load %"struct.std::__1::__compressed_pair_elem.41"*, %"struct.std::__1::__compressed_pair_elem.41"** %288, align 8
  %849 = getelementptr inbounds %"struct.std::__1::__compressed_pair_elem.41", %"struct.std::__1::__compressed_pair_elem.41"* %848, i32 0, i32 0, !dbg !9727
  %850 = load %"class.std::__1::unique_ptr.29"*, %"class.std::__1::unique_ptr.29"** %849, align 8, !dbg !9724
  %851 = icmp ult %"class.std::__1::unique_ptr.29"* %842, %850, !dbg !9728
  br i1 %851, label %852, label %934, !dbg !9729

; <label>:852:                                    ; preds = %808
  store %"struct.std::__1::vector<std::__1::unique_ptr<altered_carbon::js::ACAstBaseNode, std::__1::default_delete<altered_carbon::js::ACAstBaseNode> >, std::__1::allocator<std::__1::unique_ptr<altered_carbon::js::ACAstBaseNode, std::__1::default_delete<altered_carbon::js::ACAstBaseNode> > > >::__RAII_IncreaseAnnotator"* %293, %"struct.std::__1::vector<std::__1::unique_ptr<altered_carbon::js::ACAstBaseNode, std::__1::default_delete<altered_carbon::js::ACAstBaseNode> >, std::__1::allocator<std::__1::unique_ptr<altered_carbon::js::ACAstBaseNode, std::__1::default_delete<altered_carbon::js::ACAstBaseNode> > > >::__RAII_IncreaseAnnotator"** %285, align 8
  store %"class.std::__1::vector.38"* %839, %"class.std::__1::vector.38"** %286, align 8
  store i64 1, i64* %287, align 8
  %853 = load %"struct.std::__1::vector<std::__1::unique_ptr<altered_carbon::js::ACAstBaseNode, std::__1::default_delete<altered_carbon::js::ACAstBaseNode> >, std::__1::allocator<std::__1::unique_ptr<altered_carbon::js::ACAstBaseNode, std::__1::default_delete<altered_carbon::js::ACAstBaseNode> > > >::__RAII_IncreaseAnnotator"*, %"struct.std::__1::vector<std::__1::unique_ptr<altered_carbon::js::ACAstBaseNode, std::__1::default_delete<altered_carbon::js::ACAstBaseNode> >, std::__1::allocator<std::__1::unique_ptr<altered_carbon::js::ACAstBaseNode, std::__1::default_delete<altered_carbon::js::ACAstBaseNode> > > >::__RAII_IncreaseAnnotator"** %285, align 8
  %854 = load %"class.std::__1::vector.38"*, %"class.std::__1::vector.38"** %286, align 8, !dbg !9730
  %855 = load i64, i64* %287, align 8, !dbg !9730
  store %"struct.std::__1::vector<std::__1::unique_ptr<altered_carbon::js::ACAstBaseNode, std::__1::default_delete<altered_carbon::js::ACAstBaseNode> >, std::__1::allocator<std::__1::unique_ptr<altered_carbon::js::ACAstBaseNode, std::__1::default_delete<altered_carbon::js::ACAstBaseNode> > > >::__RAII_IncreaseAnnotator"* %853, %"struct.std::__1::vector<std::__1::unique_ptr<altered_carbon::js::ACAstBaseNode, std::__1::default_delete<altered_carbon::js::ACAstBaseNode> >, std::__1::allocator<std::__1::unique_ptr<altered_carbon::js::ACAstBaseNode, std::__1::default_delete<altered_carbon::js::ACAstBaseNode> > > >::__RAII_IncreaseAnnotator"** %282, align 8
  store %"class.std::__1::vector.38"* %854, %"class.std::__1::vector.38"** %283, align 8
  store i64 %855, i64* %284, align 8
  %856 = load %"struct.std::__1::vector<std::__1::unique_ptr<altered_carbon::js::ACAstBaseNode, std::__1::default_delete<altered_carbon::js::ACAstBaseNode> >, std::__1::allocator<std::__1::unique_ptr<altered_carbon::js::ACAstBaseNode, std::__1::default_delete<altered_carbon::js::ACAstBaseNode> > > >::__RAII_IncreaseAnnotator"*, %"struct.std::__1::vector<std::__1::unique_ptr<altered_carbon::js::ACAstBaseNode, std::__1::default_delete<altered_carbon::js::ACAstBaseNode> >, std::__1::allocator<std::__1::unique_ptr<altered_carbon::js::ACAstBaseNode, std::__1::default_delete<altered_carbon::js::ACAstBaseNode> > > >::__RAII_IncreaseAnnotator"** %282, align 8
  %857 = bitcast %"class.std::__1::vector.38"* %839 to %"class.std::__1::__vector_base.39"*, !dbg !9731
  store %"class.std::__1::__vector_base.39"* %857, %"class.std::__1::__vector_base.39"** %235, align 8
  %858 = load %"class.std::__1::__vector_base.39"*, %"class.std::__1::__vector_base.39"** %235, align 8
  %859 = getelementptr inbounds %"class.std::__1::__vector_base.39", %"class.std::__1::__vector_base.39"* %858, i32 0, i32 2, !dbg !9732
  store %"class.std::__1::__compressed_pair.40"* %859, %"class.std::__1::__compressed_pair.40"** %234, align 8
  %860 = load %"class.std::__1::__compressed_pair.40"*, %"class.std::__1::__compressed_pair.40"** %234, align 8
  %861 = bitcast %"class.std::__1::__compressed_pair.40"* %860 to %"struct.std::__1::__compressed_pair_elem.42"*, !dbg !9733
  store %"struct.std::__1::__compressed_pair_elem.42"* %861, %"struct.std::__1::__compressed_pair_elem.42"** %233, align 8
  %862 = load %"struct.std::__1::__compressed_pair_elem.42"*, %"struct.std::__1::__compressed_pair_elem.42"** %233, align 8
  %863 = bitcast %"struct.std::__1::__compressed_pair_elem.42"* %862 to %"class.std::__1::allocator.43"*, !dbg !9734
  %864 = bitcast %"class.std::__1::vector.38"* %839 to %"class.std::__1::__vector_base.39"*, !dbg !9735
  %865 = getelementptr inbounds %"class.std::__1::__vector_base.39", %"class.std::__1::__vector_base.39"* %864, i32 0, i32 1, !dbg !9735
  %866 = load %"class.std::__1::unique_ptr.29"*, %"class.std::__1::unique_ptr.29"** %865, align 8, !dbg !9735
  store %"class.std::__1::unique_ptr.29"* %866, %"class.std::__1::unique_ptr.29"** %236, align 8
  %867 = load %"class.std::__1::unique_ptr.29"*, %"class.std::__1::unique_ptr.29"** %236, align 8, !dbg !9736
  %868 = load %"class.std::__1::unique_ptr.29"*, %"class.std::__1::unique_ptr.29"** %292, align 8, !dbg !9737
  store %"class.std::__1::unique_ptr.29"* %868, %"class.std::__1::unique_ptr.29"** %237, align 8
  %869 = load %"class.std::__1::unique_ptr.29"*, %"class.std::__1::unique_ptr.29"** %237, align 8, !dbg !9738
  store %"class.std::__1::allocator.43"* %863, %"class.std::__1::allocator.43"** %276, align 8
  store %"class.std::__1::unique_ptr.29"* %867, %"class.std::__1::unique_ptr.29"** %277, align 8
  store %"class.std::__1::unique_ptr.29"* %869, %"class.std::__1::unique_ptr.29"** %278, align 8
  %870 = bitcast %"struct.std::__1::__has_construct"* %279 to %"struct.std::__1::integral_constant"*, !dbg !9739
  %871 = load %"class.std::__1::allocator.43"*, %"class.std::__1::allocator.43"** %276, align 8, !dbg !9740
  %872 = load %"class.std::__1::unique_ptr.29"*, %"class.std::__1::unique_ptr.29"** %277, align 8, !dbg !9741
  %873 = load %"class.std::__1::unique_ptr.29"*, %"class.std::__1::unique_ptr.29"** %278, align 8, !dbg !9742
  store %"class.std::__1::unique_ptr.29"* %873, %"class.std::__1::unique_ptr.29"** %275, align 8
  %874 = load %"class.std::__1::unique_ptr.29"*, %"class.std::__1::unique_ptr.29"** %275, align 8, !dbg !9743
  call void @llvm.dbg.declare(metadata !90, metadata !9744, metadata !DIExpression()) #2, !dbg !9745
  store %"class.std::__1::allocator.43"* %871, %"class.std::__1::allocator.43"** %272, align 8
  store %"class.std::__1::unique_ptr.29"* %872, %"class.std::__1::unique_ptr.29"** %273, align 8
  store %"class.std::__1::unique_ptr.29"* %874, %"class.std::__1::unique_ptr.29"** %274, align 8
  %875 = load %"class.std::__1::allocator.43"*, %"class.std::__1::allocator.43"** %272, align 8, !dbg !9746
  %876 = load %"class.std::__1::unique_ptr.29"*, %"class.std::__1::unique_ptr.29"** %273, align 8, !dbg !9747
  %877 = load %"class.std::__1::unique_ptr.29"*, %"class.std::__1::unique_ptr.29"** %274, align 8, !dbg !9748
  store %"class.std::__1::unique_ptr.29"* %877, %"class.std::__1::unique_ptr.29"** %271, align 8
  %878 = load %"class.std::__1::unique_ptr.29"*, %"class.std::__1::unique_ptr.29"** %271, align 8, !dbg !9749
  store %"class.std::__1::allocator.43"* %875, %"class.std::__1::allocator.43"** %268, align 8
  store %"class.std::__1::unique_ptr.29"* %876, %"class.std::__1::unique_ptr.29"** %269, align 8
  store %"class.std::__1::unique_ptr.29"* %878, %"class.std::__1::unique_ptr.29"** %270, align 8
  %879 = load %"class.std::__1::allocator.43"*, %"class.std::__1::allocator.43"** %268, align 8
  %880 = load %"class.std::__1::unique_ptr.29"*, %"class.std::__1::unique_ptr.29"** %269, align 8, !dbg !9750
  %881 = bitcast %"class.std::__1::unique_ptr.29"* %880 to i8*, !dbg !9750
  %882 = load %"class.std::__1::unique_ptr.29"*, %"class.std::__1::unique_ptr.29"** %270, align 8, !dbg !9751
  store %"class.std::__1::unique_ptr.29"* %882, %"class.std::__1::unique_ptr.29"** %267, align 8
  %883 = load %"class.std::__1::unique_ptr.29"*, %"class.std::__1::unique_ptr.29"** %267, align 8, !dbg !9752
  store %"class.std::__1::unique_ptr.29"* %880, %"class.std::__1::unique_ptr.29"** %265, align 8
  store %"class.std::__1::unique_ptr.29"* %883, %"class.std::__1::unique_ptr.29"** %266, align 8
  %884 = load %"class.std::__1::unique_ptr.29"*, %"class.std::__1::unique_ptr.29"** %265, align 8
  %885 = load %"class.std::__1::unique_ptr.29"*, %"class.std::__1::unique_ptr.29"** %266, align 8, !dbg !9753
  store %"class.std::__1::unique_ptr.29"* %884, %"class.std::__1::unique_ptr.29"** %262, align 8
  store %"class.std::__1::unique_ptr.29"* %885, %"class.std::__1::unique_ptr.29"** %263, align 8
  %886 = load %"class.std::__1::unique_ptr.29"*, %"class.std::__1::unique_ptr.29"** %262, align 8
  %887 = getelementptr inbounds %"class.std::__1::unique_ptr.29", %"class.std::__1::unique_ptr.29"* %886, i32 0, i32 0, !dbg !9754
  %888 = load %"class.std::__1::unique_ptr.29"*, %"class.std::__1::unique_ptr.29"** %263, align 8, !dbg !9755
  store %"class.std::__1::unique_ptr.29"* %888, %"class.std::__1::unique_ptr.29"** %260, align 8
  %889 = load %"class.std::__1::unique_ptr.29"*, %"class.std::__1::unique_ptr.29"** %260, align 8
  %890 = getelementptr inbounds %"class.std::__1::unique_ptr.29", %"class.std::__1::unique_ptr.29"* %889, i32 0, i32 0, !dbg !9756
  store %"class.std::__1::__compressed_pair.30"* %890, %"class.std::__1::__compressed_pair.30"** %259, align 8
  %891 = load %"class.std::__1::__compressed_pair.30"*, %"class.std::__1::__compressed_pair.30"** %259, align 8
  %892 = bitcast %"class.std::__1::__compressed_pair.30"* %891 to %"struct.std::__1::__compressed_pair_elem.31"*, !dbg !9757
  store %"struct.std::__1::__compressed_pair_elem.31"* %892, %"struct.std::__1::__compressed_pair_elem.31"** %258, align 8
  %893 = load %"struct.std::__1::__compressed_pair_elem.31"*, %"struct.std::__1::__compressed_pair_elem.31"** %258, align 8
  %894 = getelementptr inbounds %"struct.std::__1::__compressed_pair_elem.31", %"struct.std::__1::__compressed_pair_elem.31"* %893, i32 0, i32 0, !dbg !9758
  %895 = load %"class.altered_carbon::js::ACAstBaseNode"*, %"class.altered_carbon::js::ACAstBaseNode"** %894, align 8, !dbg !9759
  store %"class.altered_carbon::js::ACAstBaseNode"* %895, %"class.altered_carbon::js::ACAstBaseNode"** %261, align 8, !dbg !9028
  %896 = getelementptr inbounds %"class.std::__1::unique_ptr.29", %"class.std::__1::unique_ptr.29"* %889, i32 0, i32 0, !dbg !9760
  store %"class.std::__1::__compressed_pair.30"* %896, %"class.std::__1::__compressed_pair.30"** %257, align 8
  %897 = load %"class.std::__1::__compressed_pair.30"*, %"class.std::__1::__compressed_pair.30"** %257, align 8
  %898 = bitcast %"class.std::__1::__compressed_pair.30"* %897 to %"struct.std::__1::__compressed_pair_elem.31"*, !dbg !9761
  store %"struct.std::__1::__compressed_pair_elem.31"* %898, %"struct.std::__1::__compressed_pair_elem.31"** %256, align 8
  %899 = load %"struct.std::__1::__compressed_pair_elem.31"*, %"struct.std::__1::__compressed_pair_elem.31"** %256, align 8
  %900 = getelementptr inbounds %"struct.std::__1::__compressed_pair_elem.31", %"struct.std::__1::__compressed_pair_elem.31"* %899, i32 0, i32 0, !dbg !9762
  store %"class.altered_carbon::js::ACAstBaseNode"* null, %"class.altered_carbon::js::ACAstBaseNode"** %900, align 8, !dbg !9763
  %901 = load %"class.altered_carbon::js::ACAstBaseNode"*, %"class.altered_carbon::js::ACAstBaseNode"** %261, align 8, !dbg !9764
  store %"class.altered_carbon::js::ACAstBaseNode"* %901, %"class.altered_carbon::js::ACAstBaseNode"** %264, align 8, !dbg !9755
  %902 = load %"class.std::__1::unique_ptr.29"*, %"class.std::__1::unique_ptr.29"** %263, align 8, !dbg !9765
  store %"class.std::__1::unique_ptr.29"* %902, %"class.std::__1::unique_ptr.29"** %240, align 8
  %903 = load %"class.std::__1::unique_ptr.29"*, %"class.std::__1::unique_ptr.29"** %240, align 8
  %904 = getelementptr inbounds %"class.std::__1::unique_ptr.29", %"class.std::__1::unique_ptr.29"* %903, i32 0, i32 0, !dbg !9766
  store %"class.std::__1::__compressed_pair.30"* %904, %"class.std::__1::__compressed_pair.30"** %239, align 8
  %905 = load %"class.std::__1::__compressed_pair.30"*, %"class.std::__1::__compressed_pair.30"** %239, align 8
  %906 = bitcast %"class.std::__1::__compressed_pair.30"* %905 to %"struct.std::__1::__compressed_pair_elem.45"*, !dbg !9767
  store %"struct.std::__1::__compressed_pair_elem.45"* %906, %"struct.std::__1::__compressed_pair_elem.45"** %238, align 8
  %907 = load %"struct.std::__1::__compressed_pair_elem.45"*, %"struct.std::__1::__compressed_pair_elem.45"** %238, align 8
  %908 = bitcast %"struct.std::__1::__compressed_pair_elem.45"* %907 to %"struct.std::__1::default_delete.46"*, !dbg !9768
  store %"struct.std::__1::default_delete.46"* %908, %"struct.std::__1::default_delete.46"** %241, align 8
  %909 = load %"struct.std::__1::default_delete.46"*, %"struct.std::__1::default_delete.46"** %241, align 8, !dbg !9769
  store %"class.std::__1::__compressed_pair.30"* %887, %"class.std::__1::__compressed_pair.30"** %253, align 8
  store %"class.altered_carbon::js::ACAstBaseNode"** %264, %"class.altered_carbon::js::ACAstBaseNode"*** %254, align 8
  store %"struct.std::__1::default_delete.46"* %909, %"struct.std::__1::default_delete.46"** %255, align 8
  %910 = load %"class.std::__1::__compressed_pair.30"*, %"class.std::__1::__compressed_pair.30"** %253, align 8
  %911 = load %"class.altered_carbon::js::ACAstBaseNode"**, %"class.altered_carbon::js::ACAstBaseNode"*** %254, align 8, !dbg !9770
  %912 = load %"struct.std::__1::default_delete.46"*, %"struct.std::__1::default_delete.46"** %255, align 8, !dbg !9770
  store %"class.std::__1::__compressed_pair.30"* %910, %"class.std::__1::__compressed_pair.30"** %250, align 8
  store %"class.altered_carbon::js::ACAstBaseNode"** %911, %"class.altered_carbon::js::ACAstBaseNode"*** %251, align 8
  store %"struct.std::__1::default_delete.46"* %912, %"struct.std::__1::default_delete.46"** %252, align 8
  %913 = load %"class.std::__1::__compressed_pair.30"*, %"class.std::__1::__compressed_pair.30"** %250, align 8
  %914 = bitcast %"class.std::__1::__compressed_pair.30"* %913 to %"struct.std::__1::__compressed_pair_elem.31"*, !dbg !9771
  %915 = load %"class.altered_carbon::js::ACAstBaseNode"**, %"class.altered_carbon::js::ACAstBaseNode"*** %251, align 8, !dbg !9772
  store %"class.altered_carbon::js::ACAstBaseNode"** %915, %"class.altered_carbon::js::ACAstBaseNode"*** %249, align 8
  %916 = load %"class.altered_carbon::js::ACAstBaseNode"**, %"class.altered_carbon::js::ACAstBaseNode"*** %249, align 8, !dbg !9773
  store %"struct.std::__1::__compressed_pair_elem.31"* %914, %"struct.std::__1::__compressed_pair_elem.31"** %243, align 8
  store %"class.altered_carbon::js::ACAstBaseNode"** %916, %"class.altered_carbon::js::ACAstBaseNode"*** %244, align 8
  %917 = load %"struct.std::__1::__compressed_pair_elem.31"*, %"struct.std::__1::__compressed_pair_elem.31"** %243, align 8
  %918 = getelementptr inbounds %"struct.std::__1::__compressed_pair_elem.31", %"struct.std::__1::__compressed_pair_elem.31"* %917, i32 0, i32 0, !dbg !9774
  %919 = load %"class.altered_carbon::js::ACAstBaseNode"**, %"class.altered_carbon::js::ACAstBaseNode"*** %244, align 8, !dbg !9775
  store %"class.altered_carbon::js::ACAstBaseNode"** %919, %"class.altered_carbon::js::ACAstBaseNode"*** %242, align 8
  %920 = load %"class.altered_carbon::js::ACAstBaseNode"**, %"class.altered_carbon::js::ACAstBaseNode"*** %242, align 8, !dbg !9776
  %921 = load %"class.altered_carbon::js::ACAstBaseNode"*, %"class.altered_carbon::js::ACAstBaseNode"** %920, align 8, !dbg !9777
  store %"class.altered_carbon::js::ACAstBaseNode"* %921, %"class.altered_carbon::js::ACAstBaseNode"** %918, align 8, !dbg !9774
  %922 = bitcast %"class.std::__1::__compressed_pair.30"* %913 to %"struct.std::__1::__compressed_pair_elem.45"*, !dbg !9771
  %923 = load %"struct.std::__1::default_delete.46"*, %"struct.std::__1::default_delete.46"** %252, align 8, !dbg !9778
  store %"struct.std::__1::default_delete.46"* %923, %"struct.std::__1::default_delete.46"** %245, align 8
  %924 = load %"struct.std::__1::default_delete.46"*, %"struct.std::__1::default_delete.46"** %245, align 8, !dbg !9779
  store %"struct.std::__1::__compressed_pair_elem.45"* %922, %"struct.std::__1::__compressed_pair_elem.45"** %247, align 8
  store %"struct.std::__1::default_delete.46"* %924, %"struct.std::__1::default_delete.46"** %248, align 8
  %925 = load %"struct.std::__1::__compressed_pair_elem.45"*, %"struct.std::__1::__compressed_pair_elem.45"** %247, align 8
  %926 = bitcast %"struct.std::__1::__compressed_pair_elem.45"* %925 to %"struct.std::__1::default_delete.46"*, !dbg !9780
  %927 = load %"struct.std::__1::default_delete.46"*, %"struct.std::__1::default_delete.46"** %248, align 8, !dbg !9781
  store %"struct.std::__1::default_delete.46"* %927, %"struct.std::__1::default_delete.46"** %246, align 8
  %928 = load %"struct.std::__1::default_delete.46"*, %"struct.std::__1::default_delete.46"** %246, align 8, !dbg !9782
  store %"struct.std::__1::vector<std::__1::unique_ptr<altered_carbon::js::ACAstBaseNode, std::__1::default_delete<altered_carbon::js::ACAstBaseNode> >, std::__1::allocator<std::__1::unique_ptr<altered_carbon::js::ACAstBaseNode, std::__1::default_delete<altered_carbon::js::ACAstBaseNode> > > >::__RAII_IncreaseAnnotator"* %293, %"struct.std::__1::vector<std::__1::unique_ptr<altered_carbon::js::ACAstBaseNode, std::__1::default_delete<altered_carbon::js::ACAstBaseNode> >, std::__1::allocator<std::__1::unique_ptr<altered_carbon::js::ACAstBaseNode, std::__1::default_delete<altered_carbon::js::ACAstBaseNode> > > >::__RAII_IncreaseAnnotator"** %280, align 8
  %929 = load %"struct.std::__1::vector<std::__1::unique_ptr<altered_carbon::js::ACAstBaseNode, std::__1::default_delete<altered_carbon::js::ACAstBaseNode> >, std::__1::allocator<std::__1::unique_ptr<altered_carbon::js::ACAstBaseNode, std::__1::default_delete<altered_carbon::js::ACAstBaseNode> > > >::__RAII_IncreaseAnnotator"*, %"struct.std::__1::vector<std::__1::unique_ptr<altered_carbon::js::ACAstBaseNode, std::__1::default_delete<altered_carbon::js::ACAstBaseNode> >, std::__1::allocator<std::__1::unique_ptr<altered_carbon::js::ACAstBaseNode, std::__1::default_delete<altered_carbon::js::ACAstBaseNode> > > >::__RAII_IncreaseAnnotator"** %280, align 8
  %930 = bitcast %"class.std::__1::vector.38"* %839 to %"class.std::__1::__vector_base.39"*, !dbg !9783
  %931 = getelementptr inbounds %"class.std::__1::__vector_base.39", %"class.std::__1::__vector_base.39"* %930, i32 0, i32 1, !dbg !9783
  %932 = load %"class.std::__1::unique_ptr.29"*, %"class.std::__1::unique_ptr.29"** %931, align 8, !dbg !9784
  %933 = getelementptr inbounds %"class.std::__1::unique_ptr.29", %"class.std::__1::unique_ptr.29"* %932, i32 1, !dbg !9784
  store %"class.std::__1::unique_ptr.29"* %933, %"class.std::__1::unique_ptr.29"** %931, align 8, !dbg !9784
  br label %937, !dbg !9785

; <label>:934:                                    ; preds = %808
  %935 = load %"class.std::__1::unique_ptr.29"*, %"class.std::__1::unique_ptr.29"** %292, align 8, !dbg !9786
  store %"class.std::__1::unique_ptr.29"* %935, %"class.std::__1::unique_ptr.29"** %281, align 8
  %936 = load %"class.std::__1::unique_ptr.29"*, %"class.std::__1::unique_ptr.29"** %281, align 8, !dbg !9787
  call void @_ZNSt3__16vectorINS_10unique_ptrIN14altered_carbon2js13ACAstBaseNodeENS_14default_deleteIS4_EEEENS_9allocatorIS7_EEE21__push_back_slow_pathIS7_EEvOT_(%"class.std::__1::vector.38"* %839, %"class.std::__1::unique_ptr.29"* dereferenceable(8) %936) #2, !dbg !9788
  br label %937

; <label>:937:                                    ; preds = %852, %934
  store %"class.std::__1::unique_ptr.29"* %493, %"class.std::__1::unique_ptr.29"** %232, align 8
  %938 = load %"class.std::__1::unique_ptr.29"*, %"class.std::__1::unique_ptr.29"** %232, align 8
  store %"class.std::__1::unique_ptr.29"* %938, %"class.std::__1::unique_ptr.29"** %231, align 8
  %939 = load %"class.std::__1::unique_ptr.29"*, %"class.std::__1::unique_ptr.29"** %231, align 8
  store %"class.std::__1::unique_ptr.29"* %939, %"class.std::__1::unique_ptr.29"** %228, align 8
  store %"class.altered_carbon::js::ACAstBaseNode"* null, %"class.altered_carbon::js::ACAstBaseNode"** %229, align 8
  %940 = load %"class.std::__1::unique_ptr.29"*, %"class.std::__1::unique_ptr.29"** %228, align 8
  %941 = getelementptr inbounds %"class.std::__1::unique_ptr.29", %"class.std::__1::unique_ptr.29"* %940, i32 0, i32 0, !dbg !9789
  store %"class.std::__1::__compressed_pair.30"* %941, %"class.std::__1::__compressed_pair.30"** %227, align 8
  %942 = load %"class.std::__1::__compressed_pair.30"*, %"class.std::__1::__compressed_pair.30"** %227, align 8
  %943 = bitcast %"class.std::__1::__compressed_pair.30"* %942 to %"struct.std::__1::__compressed_pair_elem.31"*, !dbg !9790
  store %"struct.std::__1::__compressed_pair_elem.31"* %943, %"struct.std::__1::__compressed_pair_elem.31"** %226, align 8
  %944 = load %"struct.std::__1::__compressed_pair_elem.31"*, %"struct.std::__1::__compressed_pair_elem.31"** %226, align 8
  %945 = getelementptr inbounds %"struct.std::__1::__compressed_pair_elem.31", %"struct.std::__1::__compressed_pair_elem.31"* %944, i32 0, i32 0, !dbg !9791
  %946 = load %"class.altered_carbon::js::ACAstBaseNode"*, %"class.altered_carbon::js::ACAstBaseNode"** %945, align 8, !dbg !9792
  store %"class.altered_carbon::js::ACAstBaseNode"* %946, %"class.altered_carbon::js::ACAstBaseNode"** %230, align 8, !dbg !8969
  %947 = load %"class.altered_carbon::js::ACAstBaseNode"*, %"class.altered_carbon::js::ACAstBaseNode"** %229, align 8, !dbg !9793
  %948 = getelementptr inbounds %"class.std::__1::unique_ptr.29", %"class.std::__1::unique_ptr.29"* %940, i32 0, i32 0, !dbg !9794
  store %"class.std::__1::__compressed_pair.30"* %948, %"class.std::__1::__compressed_pair.30"** %223, align 8
  %949 = load %"class.std::__1::__compressed_pair.30"*, %"class.std::__1::__compressed_pair.30"** %223, align 8
  %950 = bitcast %"class.std::__1::__compressed_pair.30"* %949 to %"struct.std::__1::__compressed_pair_elem.31"*, !dbg !9795
  store %"struct.std::__1::__compressed_pair_elem.31"* %950, %"struct.std::__1::__compressed_pair_elem.31"** %222, align 8
  %951 = load %"struct.std::__1::__compressed_pair_elem.31"*, %"struct.std::__1::__compressed_pair_elem.31"** %222, align 8
  %952 = getelementptr inbounds %"struct.std::__1::__compressed_pair_elem.31", %"struct.std::__1::__compressed_pair_elem.31"* %951, i32 0, i32 0, !dbg !9796
  store %"class.altered_carbon::js::ACAstBaseNode"* %947, %"class.altered_carbon::js::ACAstBaseNode"** %952, align 8, !dbg !9797
  %953 = load %"class.altered_carbon::js::ACAstBaseNode"*, %"class.altered_carbon::js::ACAstBaseNode"** %230, align 8, !dbg !9798
  %954 = icmp ne %"class.altered_carbon::js::ACAstBaseNode"* %953, null, !dbg !9798
  br i1 %954, label %955, label %971, !dbg !9799

; <label>:955:                                    ; preds = %937
  %956 = getelementptr inbounds %"class.std::__1::unique_ptr.29", %"class.std::__1::unique_ptr.29"* %940, i32 0, i32 0, !dbg !9800
  store %"class.std::__1::__compressed_pair.30"* %956, %"class.std::__1::__compressed_pair.30"** %221, align 8
  %957 = load %"class.std::__1::__compressed_pair.30"*, %"class.std::__1::__compressed_pair.30"** %221, align 8
  %958 = bitcast %"class.std::__1::__compressed_pair.30"* %957 to %"struct.std::__1::__compressed_pair_elem.45"*, !dbg !9801
  store %"struct.std::__1::__compressed_pair_elem.45"* %958, %"struct.std::__1::__compressed_pair_elem.45"** %220, align 8
  %959 = load %"struct.std::__1::__compressed_pair_elem.45"*, %"struct.std::__1::__compressed_pair_elem.45"** %220, align 8
  %960 = bitcast %"struct.std::__1::__compressed_pair_elem.45"* %959 to %"struct.std::__1::default_delete.46"*, !dbg !9802
  %961 = load %"class.altered_carbon::js::ACAstBaseNode"*, %"class.altered_carbon::js::ACAstBaseNode"** %230, align 8, !dbg !9803
  store %"struct.std::__1::default_delete.46"* %960, %"struct.std::__1::default_delete.46"** %224, align 8
  store %"class.altered_carbon::js::ACAstBaseNode"* %961, %"class.altered_carbon::js::ACAstBaseNode"** %225, align 8
  %962 = load %"struct.std::__1::default_delete.46"*, %"struct.std::__1::default_delete.46"** %224, align 8
  %963 = load %"class.altered_carbon::js::ACAstBaseNode"*, %"class.altered_carbon::js::ACAstBaseNode"** %225, align 8, !dbg !9804
  %964 = icmp eq %"class.altered_carbon::js::ACAstBaseNode"* %963, null, !dbg !9805
  br i1 %964, label %970, label %965, !dbg !9805

; <label>:965:                                    ; preds = %955
  %966 = bitcast %"class.altered_carbon::js::ACAstBaseNode"* %963 to void (%"class.altered_carbon::js::ACAstBaseNode"*)***, !dbg !9805
  %967 = load void (%"class.altered_carbon::js::ACAstBaseNode"*)**, void (%"class.altered_carbon::js::ACAstBaseNode"*)*** %966, align 8, !dbg !9805
  %968 = getelementptr inbounds void (%"class.altered_carbon::js::ACAstBaseNode"*)*, void (%"class.altered_carbon::js::ACAstBaseNode"*)** %967, i64 1, !dbg !9805
  %969 = load void (%"class.altered_carbon::js::ACAstBaseNode"*)*, void (%"class.altered_carbon::js::ACAstBaseNode"*)** %968, align 8, !dbg !9805
  call void %969(%"class.altered_carbon::js::ACAstBaseNode"* %963) #2, !dbg !9805
  br label %970, !dbg !9805

; <label>:970:                                    ; preds = %965, %955
  br label %971, !dbg !9800

; <label>:971:                                    ; preds = %937, %970
  store %"class.std::__1::unique_ptr.51"* %494, %"class.std::__1::unique_ptr.51"** %219, align 8
  %972 = load %"class.std::__1::unique_ptr.51"*, %"class.std::__1::unique_ptr.51"** %219, align 8
  store %"class.std::__1::unique_ptr.51"* %972, %"class.std::__1::unique_ptr.51"** %218, align 8
  %973 = load %"class.std::__1::unique_ptr.51"*, %"class.std::__1::unique_ptr.51"** %218, align 8
  store %"class.std::__1::unique_ptr.51"* %973, %"class.std::__1::unique_ptr.51"** %215, align 8
  store %"class.altered_carbon::js::ACAstVariantNode"* null, %"class.altered_carbon::js::ACAstVariantNode"** %216, align 8
  %974 = load %"class.std::__1::unique_ptr.51"*, %"class.std::__1::unique_ptr.51"** %215, align 8
  %975 = getelementptr inbounds %"class.std::__1::unique_ptr.51", %"class.std::__1::unique_ptr.51"* %974, i32 0, i32 0, !dbg !9806
  store %"class.std::__1::__compressed_pair.52"* %975, %"class.std::__1::__compressed_pair.52"** %214, align 8
  %976 = load %"class.std::__1::__compressed_pair.52"*, %"class.std::__1::__compressed_pair.52"** %214, align 8
  %977 = bitcast %"class.std::__1::__compressed_pair.52"* %976 to %"struct.std::__1::__compressed_pair_elem.53"*, !dbg !9807
  store %"struct.std::__1::__compressed_pair_elem.53"* %977, %"struct.std::__1::__compressed_pair_elem.53"** %213, align 8
  %978 = load %"struct.std::__1::__compressed_pair_elem.53"*, %"struct.std::__1::__compressed_pair_elem.53"** %213, align 8
  %979 = getelementptr inbounds %"struct.std::__1::__compressed_pair_elem.53", %"struct.std::__1::__compressed_pair_elem.53"* %978, i32 0, i32 0, !dbg !9808
  %980 = load %"class.altered_carbon::js::ACAstVariantNode"*, %"class.altered_carbon::js::ACAstVariantNode"** %979, align 8, !dbg !9809
  store %"class.altered_carbon::js::ACAstVariantNode"* %980, %"class.altered_carbon::js::ACAstVariantNode"** %217, align 8, !dbg !8944
  %981 = load %"class.altered_carbon::js::ACAstVariantNode"*, %"class.altered_carbon::js::ACAstVariantNode"** %216, align 8, !dbg !9810
  %982 = getelementptr inbounds %"class.std::__1::unique_ptr.51", %"class.std::__1::unique_ptr.51"* %974, i32 0, i32 0, !dbg !9811
  store %"class.std::__1::__compressed_pair.52"* %982, %"class.std::__1::__compressed_pair.52"** %210, align 8
  %983 = load %"class.std::__1::__compressed_pair.52"*, %"class.std::__1::__compressed_pair.52"** %210, align 8
  %984 = bitcast %"class.std::__1::__compressed_pair.52"* %983 to %"struct.std::__1::__compressed_pair_elem.53"*, !dbg !9812
  store %"struct.std::__1::__compressed_pair_elem.53"* %984, %"struct.std::__1::__compressed_pair_elem.53"** %209, align 8
  %985 = load %"struct.std::__1::__compressed_pair_elem.53"*, %"struct.std::__1::__compressed_pair_elem.53"** %209, align 8
  %986 = getelementptr inbounds %"struct.std::__1::__compressed_pair_elem.53", %"struct.std::__1::__compressed_pair_elem.53"* %985, i32 0, i32 0, !dbg !9813
  store %"class.altered_carbon::js::ACAstVariantNode"* %981, %"class.altered_carbon::js::ACAstVariantNode"** %986, align 8, !dbg !9814
  %987 = load %"class.altered_carbon::js::ACAstVariantNode"*, %"class.altered_carbon::js::ACAstVariantNode"** %217, align 8, !dbg !9815
  %988 = icmp ne %"class.altered_carbon::js::ACAstVariantNode"* %987, null, !dbg !9815
  br i1 %988, label %989, label %1005, !dbg !9816

; <label>:989:                                    ; preds = %971
  %990 = getelementptr inbounds %"class.std::__1::unique_ptr.51", %"class.std::__1::unique_ptr.51"* %974, i32 0, i32 0, !dbg !9817
  store %"class.std::__1::__compressed_pair.52"* %990, %"class.std::__1::__compressed_pair.52"** %208, align 8
  %991 = load %"class.std::__1::__compressed_pair.52"*, %"class.std::__1::__compressed_pair.52"** %208, align 8
  %992 = bitcast %"class.std::__1::__compressed_pair.52"* %991 to %"struct.std::__1::__compressed_pair_elem.61"*, !dbg !9818
  store %"struct.std::__1::__compressed_pair_elem.61"* %992, %"struct.std::__1::__compressed_pair_elem.61"** %207, align 8
  %993 = load %"struct.std::__1::__compressed_pair_elem.61"*, %"struct.std::__1::__compressed_pair_elem.61"** %207, align 8
  %994 = bitcast %"struct.std::__1::__compressed_pair_elem.61"* %993 to %"struct.std::__1::default_delete.62"*, !dbg !9819
  %995 = load %"class.altered_carbon::js::ACAstVariantNode"*, %"class.altered_carbon::js::ACAstVariantNode"** %217, align 8, !dbg !9820
  store %"struct.std::__1::default_delete.62"* %994, %"struct.std::__1::default_delete.62"** %211, align 8
  store %"class.altered_carbon::js::ACAstVariantNode"* %995, %"class.altered_carbon::js::ACAstVariantNode"** %212, align 8
  %996 = load %"struct.std::__1::default_delete.62"*, %"struct.std::__1::default_delete.62"** %211, align 8
  %997 = load %"class.altered_carbon::js::ACAstVariantNode"*, %"class.altered_carbon::js::ACAstVariantNode"** %212, align 8, !dbg !9821
  %998 = icmp eq %"class.altered_carbon::js::ACAstVariantNode"* %997, null, !dbg !9822
  br i1 %998, label %1004, label %999, !dbg !9822

; <label>:999:                                    ; preds = %989
  %1000 = bitcast %"class.altered_carbon::js::ACAstVariantNode"* %997 to void (%"class.altered_carbon::js::ACAstVariantNode"*)***, !dbg !9822
  %1001 = load void (%"class.altered_carbon::js::ACAstVariantNode"*)**, void (%"class.altered_carbon::js::ACAstVariantNode"*)*** %1000, align 8, !dbg !9822
  %1002 = getelementptr inbounds void (%"class.altered_carbon::js::ACAstVariantNode"*)*, void (%"class.altered_carbon::js::ACAstVariantNode"*)** %1001, i64 1, !dbg !9822
  %1003 = load void (%"class.altered_carbon::js::ACAstVariantNode"*)*, void (%"class.altered_carbon::js::ACAstVariantNode"*)** %1002, align 8, !dbg !9822
  call void %1003(%"class.altered_carbon::js::ACAstVariantNode"* %997) #2, !dbg !9822
  br label %1004, !dbg !9822

; <label>:1004:                                   ; preds = %999, %989
  br label %1005, !dbg !9817

; <label>:1005:                                   ; preds = %971, %1004
  store %"class.std::__1::unique_ptr.32"* %495, %"class.std::__1::unique_ptr.32"** %206, align 8
  %1006 = load %"class.std::__1::unique_ptr.32"*, %"class.std::__1::unique_ptr.32"** %206, align 8
  store %"class.std::__1::unique_ptr.32"* %1006, %"class.std::__1::unique_ptr.32"** %205, align 8
  %1007 = load %"class.std::__1::unique_ptr.32"*, %"class.std::__1::unique_ptr.32"** %205, align 8
  store %"class.std::__1::unique_ptr.32"* %1007, %"class.std::__1::unique_ptr.32"** %202, align 8
  store %"struct.altered_carbon::js::ACLexPosition"* null, %"struct.altered_carbon::js::ACLexPosition"** %203, align 8
  %1008 = load %"class.std::__1::unique_ptr.32"*, %"class.std::__1::unique_ptr.32"** %202, align 8
  %1009 = getelementptr inbounds %"class.std::__1::unique_ptr.32", %"class.std::__1::unique_ptr.32"* %1008, i32 0, i32 0, !dbg !9823
  store %"class.std::__1::__compressed_pair.33"* %1009, %"class.std::__1::__compressed_pair.33"** %201, align 8
  %1010 = load %"class.std::__1::__compressed_pair.33"*, %"class.std::__1::__compressed_pair.33"** %201, align 8
  %1011 = bitcast %"class.std::__1::__compressed_pair.33"* %1010 to %"struct.std::__1::__compressed_pair_elem.34"*, !dbg !9824
  store %"struct.std::__1::__compressed_pair_elem.34"* %1011, %"struct.std::__1::__compressed_pair_elem.34"** %200, align 8
  %1012 = load %"struct.std::__1::__compressed_pair_elem.34"*, %"struct.std::__1::__compressed_pair_elem.34"** %200, align 8
  %1013 = getelementptr inbounds %"struct.std::__1::__compressed_pair_elem.34", %"struct.std::__1::__compressed_pair_elem.34"* %1012, i32 0, i32 0, !dbg !9825
  %1014 = load %"struct.altered_carbon::js::ACLexPosition"*, %"struct.altered_carbon::js::ACLexPosition"** %1013, align 8, !dbg !9826
  store %"struct.altered_carbon::js::ACLexPosition"* %1014, %"struct.altered_carbon::js::ACLexPosition"** %204, align 8, !dbg !8895
  %1015 = load %"struct.altered_carbon::js::ACLexPosition"*, %"struct.altered_carbon::js::ACLexPosition"** %203, align 8, !dbg !9827
  %1016 = getelementptr inbounds %"class.std::__1::unique_ptr.32", %"class.std::__1::unique_ptr.32"* %1008, i32 0, i32 0, !dbg !9828
  store %"class.std::__1::__compressed_pair.33"* %1016, %"class.std::__1::__compressed_pair.33"** %197, align 8
  %1017 = load %"class.std::__1::__compressed_pair.33"*, %"class.std::__1::__compressed_pair.33"** %197, align 8
  %1018 = bitcast %"class.std::__1::__compressed_pair.33"* %1017 to %"struct.std::__1::__compressed_pair_elem.34"*, !dbg !9829
  store %"struct.std::__1::__compressed_pair_elem.34"* %1018, %"struct.std::__1::__compressed_pair_elem.34"** %196, align 8
  %1019 = load %"struct.std::__1::__compressed_pair_elem.34"*, %"struct.std::__1::__compressed_pair_elem.34"** %196, align 8
  %1020 = getelementptr inbounds %"struct.std::__1::__compressed_pair_elem.34", %"struct.std::__1::__compressed_pair_elem.34"* %1019, i32 0, i32 0, !dbg !9830
  store %"struct.altered_carbon::js::ACLexPosition"* %1015, %"struct.altered_carbon::js::ACLexPosition"** %1020, align 8, !dbg !9831
  %1021 = load %"struct.altered_carbon::js::ACLexPosition"*, %"struct.altered_carbon::js::ACLexPosition"** %204, align 8, !dbg !9832
  %1022 = icmp ne %"struct.altered_carbon::js::ACLexPosition"* %1021, null, !dbg !9832
  br i1 %1022, label %1023, label %1039, !dbg !9833

; <label>:1023:                                   ; preds = %1005
  %1024 = getelementptr inbounds %"class.std::__1::unique_ptr.32", %"class.std::__1::unique_ptr.32"* %1008, i32 0, i32 0, !dbg !9834
  store %"class.std::__1::__compressed_pair.33"* %1024, %"class.std::__1::__compressed_pair.33"** %195, align 8
  %1025 = load %"class.std::__1::__compressed_pair.33"*, %"class.std::__1::__compressed_pair.33"** %195, align 8
  %1026 = bitcast %"class.std::__1::__compressed_pair.33"* %1025 to %"struct.std::__1::__compressed_pair_elem.35"*, !dbg !9835
  store %"struct.std::__1::__compressed_pair_elem.35"* %1026, %"struct.std::__1::__compressed_pair_elem.35"** %194, align 8
  %1027 = load %"struct.std::__1::__compressed_pair_elem.35"*, %"struct.std::__1::__compressed_pair_elem.35"** %194, align 8
  %1028 = bitcast %"struct.std::__1::__compressed_pair_elem.35"* %1027 to %"struct.std::__1::default_delete.36"*, !dbg !9836
  %1029 = load %"struct.altered_carbon::js::ACLexPosition"*, %"struct.altered_carbon::js::ACLexPosition"** %204, align 8, !dbg !9837
  store %"struct.std::__1::default_delete.36"* %1028, %"struct.std::__1::default_delete.36"** %198, align 8
  store %"struct.altered_carbon::js::ACLexPosition"* %1029, %"struct.altered_carbon::js::ACLexPosition"** %199, align 8
  %1030 = load %"struct.std::__1::default_delete.36"*, %"struct.std::__1::default_delete.36"** %198, align 8
  %1031 = load %"struct.altered_carbon::js::ACLexPosition"*, %"struct.altered_carbon::js::ACLexPosition"** %199, align 8, !dbg !9838
  %1032 = icmp eq %"struct.altered_carbon::js::ACLexPosition"* %1031, null, !dbg !9839
  br i1 %1032, label %1038, label %1033, !dbg !9839

; <label>:1033:                                   ; preds = %1023
  %1034 = bitcast %"struct.altered_carbon::js::ACLexPosition"* %1031 to void (%"struct.altered_carbon::js::ACLexPosition"*)***, !dbg !9839
  %1035 = load void (%"struct.altered_carbon::js::ACLexPosition"*)**, void (%"struct.altered_carbon::js::ACLexPosition"*)*** %1034, align 8, !dbg !9839
  %1036 = getelementptr inbounds void (%"struct.altered_carbon::js::ACLexPosition"*)*, void (%"struct.altered_carbon::js::ACLexPosition"*)** %1035, i64 1, !dbg !9839
  %1037 = load void (%"struct.altered_carbon::js::ACLexPosition"*)*, void (%"struct.altered_carbon::js::ACLexPosition"*)** %1036, align 8, !dbg !9839
  call void %1037(%"struct.altered_carbon::js::ACLexPosition"* %1031) #2, !dbg !9839
  br label %1038, !dbg !9839

; <label>:1038:                                   ; preds = %1033, %1023
  br label %1039, !dbg !9834

; <label>:1039:                                   ; preds = %1005, %1038
  call void @_ZN14altered_carbon2js13ACLexPositionD1Ev(%"struct.altered_carbon::js::ACLexPosition"* %496) #2, !dbg !9840
  br label %1325, !dbg !9841

; <label>:1040:                                   ; preds = %738
  br label %1041, !dbg !9842, !llvm.loop !9843

; <label>:1041:                                   ; preds = %1040
  br label %1042, !dbg !9844, !llvm.loop !9846

; <label>:1042:                                   ; preds = %1041
  %1043 = call dereferenceable(160) %"class.std::__1::basic_ostream"* @_ZNSt3__1lsINS_11char_traitsIcEEEERNS_13basic_ostreamIcT_EES6_PKc(%"class.std::__1::basic_ostream"* dereferenceable(160) bitcast (i8* getelementptr inbounds (i8, i8* bitcast (%"class.altered_carbon::js::NullStream"* @_ZN14altered_carbon2jsL9BlackHoleE to i8*), i64 320) to %"class.std::__1::basic_ostream"*), i8* getelementptr inbounds ([10 x i8], [10 x i8]* @.str.5, i32 0, i32 0)), !dbg !9847
  %1044 = call dereferenceable(160) %"class.std::__1::basic_ostream"* @_ZNSt3__1lsINS_11char_traitsIcEEEERNS_13basic_ostreamIcT_EES6_PKc(%"class.std::__1::basic_ostream"* dereferenceable(160) %1043, i8* getelementptr inbounds ([9 x i8], [9 x i8]* @.str.1, i32 0, i32 0)), !dbg !9847
  %1045 = call dereferenceable(160) %"class.std::__1::basic_ostream"* @_ZNSt3__1lsINS_11char_traitsIcEEEERNS_13basic_ostreamIcT_EES6_PKc(%"class.std::__1::basic_ostream"* dereferenceable(160) %1044, i8* getelementptr inbounds ([5 x i8], [5 x i8]* @.str.6, i32 0, i32 0)), !dbg !9847
  %1046 = call dereferenceable(160) %"class.std::__1::basic_ostream"* @_ZNSt3__1lsINS_11char_traitsIcEEEERNS_13basic_ostreamIcT_EES6_PKc(%"class.std::__1::basic_ostream"* dereferenceable(160) %1045, i8* getelementptr inbounds ([5 x i8], [5 x i8]* @.str.7, i32 0, i32 0)), !dbg !9847
  %1047 = call dereferenceable(160) %"class.std::__1::basic_ostream"* @_ZNSt3__113basic_ostreamIcNS_11char_traitsIcEEElsEi(%"class.std::__1::basic_ostream"* %1046, i32 5), !dbg !9847
  %1048 = call dereferenceable(160) %"class.std::__1::basic_ostream"* @_ZNSt3__1lsINS_11char_traitsIcEEEERNS_13basic_ostreamIcT_EES6_PKc(%"class.std::__1::basic_ostream"* dereferenceable(160) %1047, i8* getelementptr inbounds ([24 x i8], [24 x i8]* @.str.8, i32 0, i32 0)), !dbg !9847
  %1049 = call dereferenceable(160) %"class.std::__1::basic_ostream"* @_ZNSt3__1lsINS_11char_traitsIcEEEERNS_13basic_ostreamIcT_EES6_PKc(%"class.std::__1::basic_ostream"* dereferenceable(160) %1048, i8* getelementptr inbounds ([33 x i8], [33 x i8]* @.str.11, i32 0, i32 0)), !dbg !9847
  %1050 = call dereferenceable(160) %"class.std::__1::basic_ostream"* @_ZNSt3__1lsINS_11char_traitsIcEEEERNS_13basic_ostreamIcT_EES6_PKc(%"class.std::__1::basic_ostream"* dereferenceable(160) %1049, i8* getelementptr inbounds ([4 x i8], [4 x i8]* @.str.10, i32 0, i32 0)), !dbg !9847
  %1051 = bitcast %"class.altered_carbon::js::ACAstBuilder"* %505 to %"class.altered_carbon::js::ACJsParser"*, !dbg !9847
  call void @_ZN14altered_carbon2js10ACJsParser16showErrorContextEv(%"class.altered_carbon::js::ACJsParser"* %1051), !dbg !9847
  br label %1052, !dbg !9847

; <label>:1052:                                   ; preds = %1042
  br label %1053, !dbg !9847

; <label>:1053:                                   ; preds = %1052
  %1054 = bitcast %"class.altered_carbon::js::ACAstBuilder"* %505 to %"class.altered_carbon::js::ACJsParser"*, !dbg !9844
  %1055 = getelementptr inbounds %"class.altered_carbon::js::ACJsParser", %"class.altered_carbon::js::ACJsParser"* %1054, i32 0, i32 14, !dbg !9844
  call void @_ZN14altered_carbon2js12ACAstBuilder16recoverFromErrorERKNSt3__110unique_ptrINS0_10ACLexTokenENS2_14default_deleteIS4_EEEE(%"class.std::__1::unique_ptr.29"* sret %0, %"class.altered_carbon::js::ACAstBuilder"* %505, %"class.std::__1::unique_ptr"* dereferenceable(8) %1055), !dbg !9844
  store i32 1, i32* %490, align 4
  br label %1638, !dbg !9844
                                                  ; No predecessors!
  br label %1057, !dbg !9844

; <label>:1057:                                   ; preds = %1056
  br label %1058, !dbg !9844

; <label>:1058:                                   ; preds = %738, %1057
  store { i64, i64 } { i64 ptrtoint (void (%"class.std::__1::unique_ptr.29"*, %"class.altered_carbon::js::ACAstBuilder"*)* @_ZN14altered_carbon2js12ACAstBuilder19parseAssignmentExprEv to i64), i64 0 }, { i64, i64 }* %499, align 8, !dbg !9849
  %1059 = getelementptr inbounds { i64, i64 }, { i64, i64 }* %499, i32 0, i32 0, !dbg !9849
  %1060 = load i64, i64* %1059, align 8, !dbg !9849
  %1061 = getelementptr inbounds { i64, i64 }, { i64, i64 }* %499, i32 0, i32 1, !dbg !9849
  %1062 = load i64, i64* %1061, align 8, !dbg !9849
  call void @_ZN14altered_carbon2js12ACAstBuilder26prepareInheritCoverGrammarEMS1_FNSt3__110unique_ptrINS0_13ACAstBaseNodeENS2_14default_deleteIS4_EEEEvE(%"class.std::__1::unique_ptr.29"* sret %498, %"class.altered_carbon::js::ACAstBuilder"* %505, i64 %1060, i64 %1062), !dbg !9849
  store %"class.std::__1::vector.38"* %488, %"class.std::__1::vector.38"** %191, align 8
  store %"class.std::__1::unique_ptr.29"* %498, %"class.std::__1::unique_ptr.29"** %192, align 8
  %1063 = load %"class.std::__1::vector.38"*, %"class.std::__1::vector.38"** %191, align 8
  %1064 = bitcast %"class.std::__1::vector.38"* %1063 to %"class.std::__1::__vector_base.39"*, !dbg !9850
  %1065 = getelementptr inbounds %"class.std::__1::__vector_base.39", %"class.std::__1::__vector_base.39"* %1064, i32 0, i32 1, !dbg !9850
  %1066 = load %"class.std::__1::unique_ptr.29"*, %"class.std::__1::unique_ptr.29"** %1065, align 8, !dbg !9850
  %1067 = bitcast %"class.std::__1::vector.38"* %1063 to %"class.std::__1::__vector_base.39"*, !dbg !9851
  store %"class.std::__1::__vector_base.39"* %1067, %"class.std::__1::__vector_base.39"** %190, align 8
  %1068 = load %"class.std::__1::__vector_base.39"*, %"class.std::__1::__vector_base.39"** %190, align 8
  %1069 = getelementptr inbounds %"class.std::__1::__vector_base.39", %"class.std::__1::__vector_base.39"* %1068, i32 0, i32 2, !dbg !9852
  store %"class.std::__1::__compressed_pair.40"* %1069, %"class.std::__1::__compressed_pair.40"** %189, align 8
  %1070 = load %"class.std::__1::__compressed_pair.40"*, %"class.std::__1::__compressed_pair.40"** %189, align 8
  %1071 = bitcast %"class.std::__1::__compressed_pair.40"* %1070 to %"struct.std::__1::__compressed_pair_elem.41"*, !dbg !9853
  store %"struct.std::__1::__compressed_pair_elem.41"* %1071, %"struct.std::__1::__compressed_pair_elem.41"** %188, align 8
  %1072 = load %"struct.std::__1::__compressed_pair_elem.41"*, %"struct.std::__1::__compressed_pair_elem.41"** %188, align 8
  %1073 = getelementptr inbounds %"struct.std::__1::__compressed_pair_elem.41", %"struct.std::__1::__compressed_pair_elem.41"* %1072, i32 0, i32 0, !dbg !9854
  %1074 = load %"class.std::__1::unique_ptr.29"*, %"class.std::__1::unique_ptr.29"** %1073, align 8, !dbg !9851
  %1075 = icmp ult %"class.std::__1::unique_ptr.29"* %1066, %1074, !dbg !9855
  br i1 %1075, label %1076, label %1158, !dbg !9856

; <label>:1076:                                   ; preds = %1058
  store %"struct.std::__1::vector<std::__1::unique_ptr<altered_carbon::js::ACAstBaseNode, std::__1::default_delete<altered_carbon::js::ACAstBaseNode> >, std::__1::allocator<std::__1::unique_ptr<altered_carbon::js::ACAstBaseNode, std::__1::default_delete<altered_carbon::js::ACAstBaseNode> > > >::__RAII_IncreaseAnnotator"* %193, %"struct.std::__1::vector<std::__1::unique_ptr<altered_carbon::js::ACAstBaseNode, std::__1::default_delete<altered_carbon::js::ACAstBaseNode> >, std::__1::allocator<std::__1::unique_ptr<altered_carbon::js::ACAstBaseNode, std::__1::default_delete<altered_carbon::js::ACAstBaseNode> > > >::__RAII_IncreaseAnnotator"** %185, align 8
  store %"class.std::__1::vector.38"* %1063, %"class.std::__1::vector.38"** %186, align 8
  store i64 1, i64* %187, align 8
  %1077 = load %"struct.std::__1::vector<std::__1::unique_ptr<altered_carbon::js::ACAstBaseNode, std::__1::default_delete<altered_carbon::js::ACAstBaseNode> >, std::__1::allocator<std::__1::unique_ptr<altered_carbon::js::ACAstBaseNode, std::__1::default_delete<altered_carbon::js::ACAstBaseNode> > > >::__RAII_IncreaseAnnotator"*, %"struct.std::__1::vector<std::__1::unique_ptr<altered_carbon::js::ACAstBaseNode, std::__1::default_delete<altered_carbon::js::ACAstBaseNode> >, std::__1::allocator<std::__1::unique_ptr<altered_carbon::js::ACAstBaseNode, std::__1::default_delete<altered_carbon::js::ACAstBaseNode> > > >::__RAII_IncreaseAnnotator"** %185, align 8
  %1078 = load %"class.std::__1::vector.38"*, %"class.std::__1::vector.38"** %186, align 8, !dbg !9857
  %1079 = load i64, i64* %187, align 8, !dbg !9857
  store %"struct.std::__1::vector<std::__1::unique_ptr<altered_carbon::js::ACAstBaseNode, std::__1::default_delete<altered_carbon::js::ACAstBaseNode> >, std::__1::allocator<std::__1::unique_ptr<altered_carbon::js::ACAstBaseNode, std::__1::default_delete<altered_carbon::js::ACAstBaseNode> > > >::__RAII_IncreaseAnnotator"* %1077, %"struct.std::__1::vector<std::__1::unique_ptr<altered_carbon::js::ACAstBaseNode, std::__1::default_delete<altered_carbon::js::ACAstBaseNode> >, std::__1::allocator<std::__1::unique_ptr<altered_carbon::js::ACAstBaseNode, std::__1::default_delete<altered_carbon::js::ACAstBaseNode> > > >::__RAII_IncreaseAnnotator"** %182, align 8
  store %"class.std::__1::vector.38"* %1078, %"class.std::__1::vector.38"** %183, align 8
  store i64 %1079, i64* %184, align 8
  %1080 = load %"struct.std::__1::vector<std::__1::unique_ptr<altered_carbon::js::ACAstBaseNode, std::__1::default_delete<altered_carbon::js::ACAstBaseNode> >, std::__1::allocator<std::__1::unique_ptr<altered_carbon::js::ACAstBaseNode, std::__1::default_delete<altered_carbon::js::ACAstBaseNode> > > >::__RAII_IncreaseAnnotator"*, %"struct.std::__1::vector<std::__1::unique_ptr<altered_carbon::js::ACAstBaseNode, std::__1::default_delete<altered_carbon::js::ACAstBaseNode> >, std::__1::allocator<std::__1::unique_ptr<altered_carbon::js::ACAstBaseNode, std::__1::default_delete<altered_carbon::js::ACAstBaseNode> > > >::__RAII_IncreaseAnnotator"** %182, align 8
  %1081 = bitcast %"class.std::__1::vector.38"* %1063 to %"class.std::__1::__vector_base.39"*, !dbg !9858
  store %"class.std::__1::__vector_base.39"* %1081, %"class.std::__1::__vector_base.39"** %135, align 8
  %1082 = load %"class.std::__1::__vector_base.39"*, %"class.std::__1::__vector_base.39"** %135, align 8
  %1083 = getelementptr inbounds %"class.std::__1::__vector_base.39", %"class.std::__1::__vector_base.39"* %1082, i32 0, i32 2, !dbg !9859
  store %"class.std::__1::__compressed_pair.40"* %1083, %"class.std::__1::__compressed_pair.40"** %134, align 8
  %1084 = load %"class.std::__1::__compressed_pair.40"*, %"class.std::__1::__compressed_pair.40"** %134, align 8
  %1085 = bitcast %"class.std::__1::__compressed_pair.40"* %1084 to %"struct.std::__1::__compressed_pair_elem.42"*, !dbg !9860
  store %"struct.std::__1::__compressed_pair_elem.42"* %1085, %"struct.std::__1::__compressed_pair_elem.42"** %133, align 8
  %1086 = load %"struct.std::__1::__compressed_pair_elem.42"*, %"struct.std::__1::__compressed_pair_elem.42"** %133, align 8
  %1087 = bitcast %"struct.std::__1::__compressed_pair_elem.42"* %1086 to %"class.std::__1::allocator.43"*, !dbg !9861
  %1088 = bitcast %"class.std::__1::vector.38"* %1063 to %"class.std::__1::__vector_base.39"*, !dbg !9862
  %1089 = getelementptr inbounds %"class.std::__1::__vector_base.39", %"class.std::__1::__vector_base.39"* %1088, i32 0, i32 1, !dbg !9862
  %1090 = load %"class.std::__1::unique_ptr.29"*, %"class.std::__1::unique_ptr.29"** %1089, align 8, !dbg !9862
  store %"class.std::__1::unique_ptr.29"* %1090, %"class.std::__1::unique_ptr.29"** %136, align 8
  %1091 = load %"class.std::__1::unique_ptr.29"*, %"class.std::__1::unique_ptr.29"** %136, align 8, !dbg !9863
  %1092 = load %"class.std::__1::unique_ptr.29"*, %"class.std::__1::unique_ptr.29"** %192, align 8, !dbg !9864
  store %"class.std::__1::unique_ptr.29"* %1092, %"class.std::__1::unique_ptr.29"** %137, align 8
  %1093 = load %"class.std::__1::unique_ptr.29"*, %"class.std::__1::unique_ptr.29"** %137, align 8, !dbg !9865
  store %"class.std::__1::allocator.43"* %1087, %"class.std::__1::allocator.43"** %176, align 8
  store %"class.std::__1::unique_ptr.29"* %1091, %"class.std::__1::unique_ptr.29"** %177, align 8
  store %"class.std::__1::unique_ptr.29"* %1093, %"class.std::__1::unique_ptr.29"** %178, align 8
  %1094 = bitcast %"struct.std::__1::__has_construct"* %179 to %"struct.std::__1::integral_constant"*, !dbg !9866
  %1095 = load %"class.std::__1::allocator.43"*, %"class.std::__1::allocator.43"** %176, align 8, !dbg !9867
  %1096 = load %"class.std::__1::unique_ptr.29"*, %"class.std::__1::unique_ptr.29"** %177, align 8, !dbg !9868
  %1097 = load %"class.std::__1::unique_ptr.29"*, %"class.std::__1::unique_ptr.29"** %178, align 8, !dbg !9869
  store %"class.std::__1::unique_ptr.29"* %1097, %"class.std::__1::unique_ptr.29"** %175, align 8
  %1098 = load %"class.std::__1::unique_ptr.29"*, %"class.std::__1::unique_ptr.29"** %175, align 8, !dbg !9870
  call void @llvm.dbg.declare(metadata !90, metadata !9744, metadata !DIExpression()) #2, !dbg !9871
  store %"class.std::__1::allocator.43"* %1095, %"class.std::__1::allocator.43"** %172, align 8
  store %"class.std::__1::unique_ptr.29"* %1096, %"class.std::__1::unique_ptr.29"** %173, align 8
  store %"class.std::__1::unique_ptr.29"* %1098, %"class.std::__1::unique_ptr.29"** %174, align 8
  %1099 = load %"class.std::__1::allocator.43"*, %"class.std::__1::allocator.43"** %172, align 8, !dbg !9872
  %1100 = load %"class.std::__1::unique_ptr.29"*, %"class.std::__1::unique_ptr.29"** %173, align 8, !dbg !9873
  %1101 = load %"class.std::__1::unique_ptr.29"*, %"class.std::__1::unique_ptr.29"** %174, align 8, !dbg !9874
  store %"class.std::__1::unique_ptr.29"* %1101, %"class.std::__1::unique_ptr.29"** %171, align 8
  %1102 = load %"class.std::__1::unique_ptr.29"*, %"class.std::__1::unique_ptr.29"** %171, align 8, !dbg !9875
  store %"class.std::__1::allocator.43"* %1099, %"class.std::__1::allocator.43"** %168, align 8
  store %"class.std::__1::unique_ptr.29"* %1100, %"class.std::__1::unique_ptr.29"** %169, align 8
  store %"class.std::__1::unique_ptr.29"* %1102, %"class.std::__1::unique_ptr.29"** %170, align 8
  %1103 = load %"class.std::__1::allocator.43"*, %"class.std::__1::allocator.43"** %168, align 8
  %1104 = load %"class.std::__1::unique_ptr.29"*, %"class.std::__1::unique_ptr.29"** %169, align 8, !dbg !9876
  %1105 = bitcast %"class.std::__1::unique_ptr.29"* %1104 to i8*, !dbg !9876
  %1106 = load %"class.std::__1::unique_ptr.29"*, %"class.std::__1::unique_ptr.29"** %170, align 8, !dbg !9877
  store %"class.std::__1::unique_ptr.29"* %1106, %"class.std::__1::unique_ptr.29"** %167, align 8
  %1107 = load %"class.std::__1::unique_ptr.29"*, %"class.std::__1::unique_ptr.29"** %167, align 8, !dbg !9878
  store %"class.std::__1::unique_ptr.29"* %1104, %"class.std::__1::unique_ptr.29"** %165, align 8
  store %"class.std::__1::unique_ptr.29"* %1107, %"class.std::__1::unique_ptr.29"** %166, align 8
  %1108 = load %"class.std::__1::unique_ptr.29"*, %"class.std::__1::unique_ptr.29"** %165, align 8
  %1109 = load %"class.std::__1::unique_ptr.29"*, %"class.std::__1::unique_ptr.29"** %166, align 8, !dbg !9879
  store %"class.std::__1::unique_ptr.29"* %1108, %"class.std::__1::unique_ptr.29"** %162, align 8
  store %"class.std::__1::unique_ptr.29"* %1109, %"class.std::__1::unique_ptr.29"** %163, align 8
  %1110 = load %"class.std::__1::unique_ptr.29"*, %"class.std::__1::unique_ptr.29"** %162, align 8
  %1111 = getelementptr inbounds %"class.std::__1::unique_ptr.29", %"class.std::__1::unique_ptr.29"* %1110, i32 0, i32 0, !dbg !9880
  %1112 = load %"class.std::__1::unique_ptr.29"*, %"class.std::__1::unique_ptr.29"** %163, align 8, !dbg !9881
  store %"class.std::__1::unique_ptr.29"* %1112, %"class.std::__1::unique_ptr.29"** %160, align 8
  %1113 = load %"class.std::__1::unique_ptr.29"*, %"class.std::__1::unique_ptr.29"** %160, align 8
  %1114 = getelementptr inbounds %"class.std::__1::unique_ptr.29", %"class.std::__1::unique_ptr.29"* %1113, i32 0, i32 0, !dbg !9882
  store %"class.std::__1::__compressed_pair.30"* %1114, %"class.std::__1::__compressed_pair.30"** %159, align 8
  %1115 = load %"class.std::__1::__compressed_pair.30"*, %"class.std::__1::__compressed_pair.30"** %159, align 8
