; ModuleID = 'temp.bc'
source_filename = "../ac_js_misc_parser.cc"
target datalayout = "e-m:o-i64:64-f80:128-n8:16:32:64-S128"
target triple = "x86_64-apple-macosx10.13.0"

%"class.altered_carbon::js::NullStream" = type { %"class.altered_carbon::js::NullStreamBuf", %"class.std::__1::basic_ostream.base", %"class.std::__1::basic_ios.base" }
%"class.altered_carbon::js::NullStreamBuf" = type { %"class.std::__1::basic_streambuf", [256 x i8] }
%"class.std::__1::basic_streambuf" = type { i32 (...)**, %"class.std::__1::locale", i8*, i8*, i8*, i8*, i8*, i8* }
%"class.std::__1::locale" = type { %"class.std::__1::locale::__imp"* }
%"class.std::__1::locale::__imp" = type opaque
%"class.std::__1::basic_ostream.base" = type { i32 (...)** }
%"class.std::__1::basic_ios.base" = type <{ %"class.std::__1::ios_base", %"class.std::__1::basic_ostream"*, i32 }>
%"class.std::__1::ios_base" = type { i32 (...)**, i32, i64, i64, i32, i32, i8*, i8*, void (i32, %"class.std::__1::ios_base"*, i32)**, i32*, i64, i64, i64*, i64, i64, i8**, i64, i64 }
%"class.std::__1::basic_ostream" = type { i32 (...)**, %"class.std::__1::basic_ios.base" }
%"class.std::__1::locale::id" = type <{ %"struct.std::__1::once_flag", i32, [4 x i8] }>
%"struct.std::__1::once_flag" = type { i64 }
%"class.std::__1::basic_ios" = type <{ %"class.std::__1::ios_base", %"class.std::__1::basic_ostream"*, i32, [4 x i8] }>
%"class.std::__1::unique_ptr.29" = type { %"class.std::__1::__compressed_pair.30" }
%"class.std::__1::__compressed_pair.30" = type { %"struct.std::__1::__compressed_pair_elem.31" }
%"struct.std::__1::__compressed_pair_elem.31" = type { %"class.altered_carbon::js::ACAstBaseNode"* }
%"class.altered_carbon::js::ACAstBaseNode" = type { i32 (...)**, %"class.std::__1::unique_ptr.32", i32, i32, %"class.std::__1::vector.38" }
%"class.std::__1::unique_ptr.32" = type { %"class.std::__1::__compressed_pair.33" }
%"class.std::__1::__compressed_pair.33" = type { %"struct.std::__1::__compressed_pair_elem.34" }
%"struct.std::__1::__compressed_pair_elem.34" = type { %"struct.altered_carbon::js::ACLexPosition"* }
%"struct.altered_carbon::js::ACLexPosition" = type { i32 (...)**, i64, i32, i64 }
%"class.std::__1::vector.38" = type { %"class.std::__1::__vector_base.39" }
%"class.std::__1::__vector_base.39" = type { %"class.std::__1::unique_ptr.29"*, %"class.std::__1::unique_ptr.29"*, %"class.std::__1::__compressed_pair.40" }
%"class.std::__1::__compressed_pair.40" = type { %"struct.std::__1::__compressed_pair_elem.41" }
%"struct.std::__1::__compressed_pair_elem.41" = type { %"class.std::__1::unique_ptr.29"* }
%"class.altered_carbon::js::ACAstBuilder" = type { %"class.altered_carbon::js::ACJsParser", %"class.std::__1::unique_ptr.26" }
%"class.altered_carbon::js::ACJsParser" = type { i32 (...)**, i8*, %"class.std::__1::basic_string", i8*, i8, i32, i8, i8, i32, i32, %"class.altered_carbon::js::ACLexState", %"struct.altered_carbon::js::ACLexPosition", %"struct.altered_carbon::js::ACLexPosition", %"struct.altered_carbon::js::ACLexPosition", %"class.std::__1::unique_ptr" }
%"class.std::__1::basic_string" = type { %"class.std::__1::__compressed_pair" }
%"class.std::__1::__compressed_pair" = type { %"struct.std::__1::__compressed_pair_elem" }
%"struct.std::__1::__compressed_pair_elem" = type { %"struct.std::__1::basic_string<char, std::__1::char_traits<char>, std::__1::allocator<char> >::__rep" }
%"struct.std::__1::basic_string<char, std::__1::char_traits<char>, std::__1::allocator<char> >::__rep" = type { %union.anon }
%union.anon = type { %"struct.std::__1::basic_string<char, std::__1::char_traits<char>, std::__1::allocator<char> >::__long" }
%"struct.std::__1::basic_string<char, std::__1::char_traits<char>, std::__1::allocator<char> >::__long" = type { i64, i64, i8* }
%"class.altered_carbon::js::ACLexState" = type { i32 (...)**, i32, %"struct.altered_carbon::js::BlockLevelState", i8, i8, %"class.std::__1::map", %"class.std::__1::vector" }
%"struct.altered_carbon::js::BlockLevelState" = type { i8, i8, i8 }
%"class.std::__1::map" = type { %"class.std::__1::__tree" }
%"class.std::__1::__tree" = type { %"class.std::__1::__tree_end_node"*, %"class.std::__1::__compressed_pair.2", %"class.std::__1::__compressed_pair.7" }
%"class.std::__1::__tree_end_node" = type { %"class.std::__1::__tree_node_base"* }
%"class.std::__1::__tree_node_base" = type <{ %"class.std::__1::__tree_end_node", %"class.std::__1::__tree_node_base"*, %"class.std::__1::__tree_end_node"*, i8, [7 x i8] }>
%"class.std::__1::__compressed_pair.2" = type { %"struct.std::__1::__compressed_pair_elem.3" }
%"struct.std::__1::__compressed_pair_elem.3" = type { %"class.std::__1::__tree_end_node" }
%"class.std::__1::__compressed_pair.7" = type { %"struct.std::__1::__compressed_pair_elem.8" }
%"struct.std::__1::__compressed_pair_elem.8" = type { i64 }
%"class.std::__1::vector" = type { %"class.std::__1::__vector_base" }
%"class.std::__1::__vector_base" = type { i32*, i32*, %"class.std::__1::__compressed_pair.10" }
%"class.std::__1::__compressed_pair.10" = type { %"struct.std::__1::__compressed_pair_elem.11" }
%"struct.std::__1::__compressed_pair_elem.11" = type { i32* }
%"class.std::__1::unique_ptr" = type { %"class.std::__1::__compressed_pair.15" }
%"class.std::__1::__compressed_pair.15" = type { %"struct.std::__1::__compressed_pair_elem.16" }
%"struct.std::__1::__compressed_pair_elem.16" = type { %"class.altered_carbon::js::ACLexToken"* }
%"class.altered_carbon::js::ACLexToken" = type { i32 (...)**, i32, i64, %"class.std::__1::basic_string_view", %"struct.altered_carbon::js::ACLexPosition", %"class.std::__1::basic_string.17" }
%"class.std::__1::basic_string_view" = type { i8*, i64 }
%"class.std::__1::basic_string.17" = type { %"class.std::__1::__compressed_pair.18" }
%"class.std::__1::__compressed_pair.18" = type { %"struct.std::__1::__compressed_pair_elem.19" }
%"struct.std::__1::__compressed_pair_elem.19" = type { %"struct.std::__1::basic_string<wchar_t, std::__1::char_traits<wchar_t>, std::__1::allocator<wchar_t> >::__rep" }
%"struct.std::__1::basic_string<wchar_t, std::__1::char_traits<wchar_t>, std::__1::allocator<wchar_t> >::__rep" = type { %union.anon.20 }
%union.anon.20 = type { %"struct.std::__1::basic_string<wchar_t, std::__1::char_traits<wchar_t>, std::__1::allocator<wchar_t> >::__long" }
%"struct.std::__1::basic_string<wchar_t, std::__1::char_traits<wchar_t>, std::__1::allocator<wchar_t> >::__long" = type { i64, i64, i32* }
%"class.std::__1::unique_ptr.26" = type { %"class.std::__1::__compressed_pair.27" }
%"class.std::__1::__compressed_pair.27" = type { %"struct.std::__1::__compressed_pair_elem.28" }
%"struct.std::__1::__compressed_pair_elem.28" = type { %"class.altered_carbon::js::ACJsState"* }
%"class.altered_carbon::js::ACJsState" = type { i32 (...)**, i8, i8, %"class.std::__1::unique_ptr.29" }
%"struct.std::__1::__compressed_pair_elem.53" = type { %"class.altered_carbon::js::ACAstBlockNode"* }
%"class.altered_carbon::js::ACAstBlockNode" = type { %"class.altered_carbon::js::ACAstBaseNode" }
%"class.std::__1::__compressed_pair.52" = type { %"struct.std::__1::__compressed_pair_elem.53" }
%"class.std::__1::unique_ptr.51" = type { %"class.std::__1::__compressed_pair.52" }
%"struct.std::__1::__compressed_pair_elem.54" = type { i8 }
%"struct.std::__1::default_delete.55" = type { i8 }
%"struct.std::__1::__compressed_pair_elem.35" = type { i8 }
%"struct.std::__1::default_delete.36" = type { i8 }
%"struct.std::__1::__compressed_pair_elem.25" = type { i8 }
%"struct.std::__1::default_delete" = type { i8 }
%"struct.std::__1::__compressed_pair_elem.45" = type { i8 }
%"class.std::__1::allocator.43" = type { i8 }
%"struct.std::__1::__compressed_pair_elem.42" = type { i8 }
%"class.std::__1::__vector_base_common" = type { i8 }
%"struct.std::__1::default_delete.46" = type { i8 }
%"struct.std::__1::__has_construct" = type { i8 }
%"struct.std::__1::vector<std::__1::unique_ptr<altered_carbon::js::ACAstBaseNode, std::__1::default_delete<altered_carbon::js::ACAstBaseNode> >, std::__1::allocator<std::__1::unique_ptr<altered_carbon::js::ACAstBaseNode, std::__1::default_delete<altered_carbon::js::ACAstBaseNode> > > >::__RAII_IncreaseAnnotator" = type { i8 }
%"struct.std::__1::basic_string<char, std::__1::char_traits<char>, std::__1::allocator<char> >::__short" = type { %union.anon.0, [23 x i8] }
%union.anon.0 = type { i8 }
%"struct.std::__1::integral_constant" = type { i8 }
%"class.std::__1::__wrap_iter" = type { %"class.std::__1::unique_ptr.29"* }
%"struct.std::__1::__compressed_pair_elem.67" = type { i8 }
%"class.std::__1::__compressed_pair.58" = type { %"struct.std::__1::__compressed_pair_elem.59" }
%"struct.std::__1::__compressed_pair_elem.59" = type { %"class.altered_carbon::js::ACAstVariantNode"* }
%"class.altered_carbon::js::ACAstVariantNode" = type { %"class.altered_carbon::js::ACAstBaseNode", %"class.std::__1::basic_string.17", i8, %"class.altered_carbon::js::ACLexNumber", %"class.std::__1::basic_string.17", i32, %"class.std::__1::unique_ptr.61" }
%"class.altered_carbon::js::ACLexNumber" = type { i32 (...)**, i8, %union.anon.60 }
%union.anon.60 = type { double }
%"class.std::__1::unique_ptr.61" = type { %"class.std::__1::__compressed_pair.62" }
%"class.std::__1::__compressed_pair.62" = type { %"struct.std::__1::__compressed_pair_elem.63" }
%"struct.std::__1::__compressed_pair_elem.63" = type { %"class.altered_carbon::js::ACLexRegex"* }
%"class.altered_carbon::js::ACLexRegex" = type <{ i32 (...)**, %"class.std::__1::basic_string", i8, i8, i8, [5 x i8] }>
%"struct.std::__1::default_delete.68" = type { i8 }
%"class.std::__1::unique_ptr.57" = type { %"class.std::__1::__compressed_pair.58" }
%"class.std::__1::__basic_string_common" = type { i8 }
%"struct.std::__1::basic_string<wchar_t, std::__1::char_traits<wchar_t>, std::__1::allocator<wchar_t> >::__raw" = type { [3 x i64] }
%"struct.std::__1::__has_destroy" = type { i8 }
%"class.std::__1::ctype" = type <{ %"class.std::__1::locale::facet", i32*, i8, [7 x i8] }>
%"class.std::__1::locale::facet" = type { %"class.std::__1::__shared_count" }
%"class.std::__1::__shared_count" = type { i32 (...)**, i64 }
%"class.std::__1::ostreambuf_iterator" = type { %"class.std::__1::basic_streambuf"* }
%"class.std::__1::basic_ostream<char, std::__1::char_traits<char> >::sentry" = type { i8, %"class.std::__1::basic_ostream"* }
%"struct.std::__1::iterator" = type { i8 }
%"class.std::__1::allocator" = type { i8 }
%"struct.std::__1::__compressed_pair_elem.1" = type { i8 }
%"struct.std::__1::__less" = type { i8 }
%"struct.std::__1::__split_buffer" = type { %"class.std::__1::unique_ptr.29"*, %"class.std::__1::unique_ptr.29"*, %"class.std::__1::unique_ptr.29"*, %"class.std::__1::__compressed_pair.70" }
%"class.std::__1::__compressed_pair.70" = type { %"struct.std::__1::__compressed_pair_elem.41", %"struct.std::__1::__compressed_pair_elem.71" }
%"struct.std::__1::__compressed_pair_elem.71" = type { %"class.std::__1::allocator.43"* }
%"struct.std::__1::__has_max_size" = type { i8 }
%"class.std::__1::__split_buffer_common" = type { i8 }

@_ZN14altered_carbon2jsL9BlackHoleE = internal global %"class.altered_carbon::js::NullStream" zeroinitializer, align 8, !dbg !0
@__dso_handle = external hidden global i8
@.str = private unnamed_addr constant [10 x i8] c"\1B[1m\1B[31m\00", align 1
@.str.1 = private unnamed_addr constant [9 x i8] c"[ACLex] \00", align 1
@.str.2 = private unnamed_addr constant [5 x i8] c"\1B[0m\00", align 1
@.str.3 = private unnamed_addr constant [5 x i8] c"ERR-\00", align 1
@.str.4 = private unnamed_addr constant [24 x i8] c" JS Compilation Error (\00", align 1
@.str.5 = private unnamed_addr constant [27 x i8] c"Missing '{' at block start\00", align 1
@.str.6 = private unnamed_addr constant [4 x i8] c").\0A\00", align 1
@.str.7 = private unnamed_addr constant [25 x i8] c"Missing '}' at block end\00", align 1
@.str.8 = private unnamed_addr constant [1 x i8] zeroinitializer, align 1
@.str.9 = private unnamed_addr constant [2 x i8] c"(\00", align 1
@.str.10 = private unnamed_addr constant [3 x i8] c") \00", align 1
@.str.11 = private unnamed_addr constant [35 x i8] c"ACAstBuilder::parseScriptBody <B>:\00", align 1
@.str.12 = private unnamed_addr constant [32 x i8] c"Block start marker '{' expected\00", align 1
@.str.13 = private unnamed_addr constant [33 x i8] c"Lexicon literal is not supported\00", align 1
@.str.14 = private unnamed_addr constant [34 x i8] c"Block closing marker '}' expected\00", align 1
@.str.15 = private unnamed_addr constant [45 x i8] c"Unexpected token while semicolon is expected\00", align 1
@.str.16 = private unnamed_addr constant [30 x i8] c"Cannot parse token as variant\00", align 1
@.str.17 = private unnamed_addr constant [41 x i8] c"Missing leading '(' in the argument list\00", align 1
@.str.18 = private unnamed_addr constant [41 x i8] c"Missing ',' in between the argument list\00", align 1
@.str.19 = private unnamed_addr constant [41 x i8] c"Missing trailer ')' in the argument list\00", align 1
@.str.20 = private unnamed_addr constant [31 x i8] c"Invalid identifier of a member\00", align 1
@.str.21 = private unnamed_addr constant [44 x i8] c"Missing leading '.' in the member reference\00", align 1
@.str.22 = private unnamed_addr constant [44 x i8] c"Missing leading '[' in the member reference\00", align 1
@.str.23 = private unnamed_addr constant [45 x i8] c"Missing trailing ']' in the member reference\00", align 1
@_ZTVN14altered_carbon2js10NullStreamE = linkonce_odr unnamed_addr constant { [17 x i8*], [5 x i8*], [5 x i8*] } { [17 x i8*] [i8* inttoptr (i64 328 to i8*), i8* null, i8* bitcast ({ i8*, i8*, i32, i32, i8*, i64, i8*, i64 }* @_ZTIN14altered_carbon2js10NullStreamE to i8*), i8* bitcast (void (%"class.altered_carbon::js::NullStream"*)* @_ZN14altered_carbon2js10NullStreamD1Ev to i8*), i8* bitcast (void (%"class.altered_carbon::js::NullStream"*)* @_ZN14altered_carbon2js10NullStreamD0Ev to i8*), i8* bitcast (void (%"class.std::__1::basic_streambuf"*, %"class.std::__1::locale"*)* @_ZNSt3__115basic_streambufIcNS_11char_traitsIcEEE5imbueERKNS_6localeE to i8*), i8* bitcast (%"class.std::__1::basic_streambuf"* (%"class.std::__1::basic_streambuf"*, i8*, i64)* @_ZNSt3__115basic_streambufIcNS_11char_traitsIcEEE6setbufEPcl to i8*), i8* bitcast (void ()* @_ZNSt3__115basic_streambufIcNS_11char_traitsIcEEE7seekoffExNS_8ios_base7seekdirEj to i8*), i8* bitcast (void ()* @_ZNSt3__115basic_streambufIcNS_11char_traitsIcEEE7seekposENS_4fposI11__mbstate_tEEj to i8*), i8* bitcast (i32 (%"class.std::__1::basic_streambuf"*)* @_ZNSt3__115basic_streambufIcNS_11char_traitsIcEEE4syncEv to i8*), i8* bitcast (i64 (%"class.std::__1::basic_streambuf"*)* @_ZNSt3__115basic_streambufIcNS_11char_traitsIcEEE9showmanycEv to i8*), i8* bitcast (i64 (%"class.std::__1::basic_streambuf"*, i8*, i64)* @_ZNSt3__115basic_streambufIcNS_11char_traitsIcEEE6xsgetnEPcl to i8*), i8* bitcast (i32 (%"class.std::__1::basic_streambuf"*)* @_ZNSt3__115basic_streambufIcNS_11char_traitsIcEEE9underflowEv to i8*), i8* bitcast (i32 (%"class.std::__1::basic_streambuf"*)* @_ZNSt3__115basic_streambufIcNS_11char_traitsIcEEE5uflowEv to i8*), i8* bitcast (i32 (%"class.std::__1::basic_streambuf"*, i32)* @_ZNSt3__115basic_streambufIcNS_11char_traitsIcEEE9pbackfailEi to i8*), i8* bitcast (i64 (%"class.std::__1::basic_streambuf"*, i8*, i64)* @_ZNSt3__115basic_streambufIcNS_11char_traitsIcEEE6xsputnEPKcl to i8*), i8* bitcast (i32 (%"class.altered_carbon::js::NullStreamBuf"*, i32)* @_ZN14altered_carbon2js13NullStreamBuf8overflowEi to i8*)], [5 x i8*] [i8* inttoptr (i64 8 to i8*), i8* inttoptr (i64 -320 to i8*), i8* bitcast ({ i8*, i8*, i32, i32, i8*, i64, i8*, i64 }* @_ZTIN14altered_carbon2js10NullStreamE to i8*), i8* bitcast (void (%"class.altered_carbon::js::NullStream"*)* @_ZThn320_N14altered_carbon2js10NullStreamD1Ev to i8*), i8* bitcast (void (%"class.altered_carbon::js::NullStream"*)* @_ZThn320_N14altered_carbon2js10NullStreamD0Ev to i8*)], [5 x i8*] [i8* inttoptr (i64 -328 to i8*), i8* inttoptr (i64 -328 to i8*), i8* bitcast ({ i8*, i8*, i32, i32, i8*, i64, i8*, i64 }* @_ZTIN14altered_carbon2js10NullStreamE to i8*), i8* bitcast (void (%"class.altered_carbon::js::NullStream"*)* @_ZTv0_n24_N14altered_carbon2js10NullStreamD1Ev to i8*), i8* bitcast (void (%"class.altered_carbon::js::NullStream"*)* @_ZTv0_n24_N14altered_carbon2js10NullStreamD0Ev to i8*)] }, align 8
@_ZTTN14altered_carbon2js10NullStreamE = linkonce_odr unnamed_addr constant [5 x i8*] [i8* bitcast (i8** getelementptr inbounds ({ [17 x i8*], [5 x i8*], [5 x i8*] }, { [17 x i8*], [5 x i8*], [5 x i8*] }* @_ZTVN14altered_carbon2js10NullStreamE, i32 0, inrange i32 0, i32 3) to i8*), i8* bitcast (i8** getelementptr inbounds ({ [5 x i8*], [5 x i8*] }, { [5 x i8*], [5 x i8*] }* @_ZTCN14altered_carbon2js10NullStreamE320_NSt3__113basic_ostreamIcNS1_11char_traitsIcEEEE, i32 0, inrange i32 0, i32 3) to i8*), i8* bitcast (i8** getelementptr inbounds ({ [5 x i8*], [5 x i8*] }, { [5 x i8*], [5 x i8*] }* @_ZTCN14altered_carbon2js10NullStreamE320_NSt3__113basic_ostreamIcNS1_11char_traitsIcEEEE, i32 0, inrange i32 1, i32 3) to i8*), i8* bitcast (i8** getelementptr inbounds ({ [17 x i8*], [5 x i8*], [5 x i8*] }, { [17 x i8*], [5 x i8*], [5 x i8*] }* @_ZTVN14altered_carbon2js10NullStreamE, i32 0, inrange i32 1, i32 3) to i8*), i8* bitcast (i8** getelementptr inbounds ({ [17 x i8*], [5 x i8*], [5 x i8*] }, { [17 x i8*], [5 x i8*], [5 x i8*] }* @_ZTVN14altered_carbon2js10NullStreamE, i32 0, inrange i32 2, i32 3) to i8*)]
@_ZTCN14altered_carbon2js10NullStreamE320_NSt3__113basic_ostreamIcNS1_11char_traitsIcEEEE = linkonce_odr unnamed_addr constant { [5 x i8*], [5 x i8*] } { [5 x i8*] [i8* inttoptr (i64 8 to i8*), i8* null, i8* bitcast (i8** @_ZTINSt3__113basic_ostreamIcNS_11char_traitsIcEEEE to i8*), i8* bitcast (void (%"class.std::__1::basic_ostream"*)* @_ZNSt3__113basic_ostreamIcNS_11char_traitsIcEEED1Ev to i8*), i8* bitcast (void (%"class.std::__1::basic_ostream"*)* @_ZNSt3__113basic_ostreamIcNS_11char_traitsIcEEED0Ev to i8*)], [5 x i8*] [i8* inttoptr (i64 -8 to i8*), i8* inttoptr (i64 -8 to i8*), i8* bitcast (i8** @_ZTINSt3__113basic_ostreamIcNS_11char_traitsIcEEEE to i8*), i8* bitcast (void (%"class.std::__1::basic_ostream"*)* @_ZTv0_n24_NSt3__113basic_ostreamIcNS_11char_traitsIcEEED1Ev to i8*), i8* bitcast (void (%"class.std::__1::basic_ostream"*)* @_ZTv0_n24_NSt3__113basic_ostreamIcNS_11char_traitsIcEEED0Ev to i8*)] }
@_ZTINSt3__113basic_ostreamIcNS_11char_traitsIcEEEE = external constant i8*
@_ZTVN10__cxxabiv121__vmi_class_type_infoE = external global i8*
@_ZTSN14altered_carbon2js10NullStreamE = linkonce_odr constant [34 x i8] c"N14altered_carbon2js10NullStreamE\00"
@_ZTIN14altered_carbon2js13NullStreamBufE = external constant i8*
@_ZTIN14altered_carbon2js10NullStreamE = linkonce_odr constant { i8*, i8*, i32, i32, i8*, i64, i8*, i64 } { i8* bitcast (i8** getelementptr inbounds (i8*, i8** @_ZTVN10__cxxabiv121__vmi_class_type_infoE, i64 2) to i8*), i8* getelementptr inbounds ([34 x i8], [34 x i8]* @_ZTSN14altered_carbon2js10NullStreamE, i32 0, i32 0), i32 0, i32 2, i8* bitcast (i8** @_ZTIN14altered_carbon2js13NullStreamBufE to i8*), i64 0, i8* bitcast (i8** @_ZTINSt3__113basic_ostreamIcNS_11char_traitsIcEEEE to i8*), i64 81922 }
@_ZTVNSt3__19basic_iosIcNS_11char_traitsIcEEEE = external unnamed_addr constant { [4 x i8*] }
@_ZTVNSt3__18ios_baseE = external unnamed_addr constant { [4 x i8*] }
@_ZTVN14altered_carbon2js13NullStreamBufE = external unnamed_addr constant { [16 x i8*] }
@_ZTVN14altered_carbon2js11ACLexNumberE = linkonce_odr unnamed_addr constant { [4 x i8*] } { [4 x i8*] [i8* null, i8* bitcast ({ i8*, i8* }* @_ZTIN14altered_carbon2js11ACLexNumberE to i8*), i8* bitcast (void (%"class.altered_carbon::js::ACLexNumber"*)* @_ZN14altered_carbon2js11ACLexNumberD1Ev to i8*), i8* bitcast (void (%"class.altered_carbon::js::ACLexNumber"*)* @_ZN14altered_carbon2js11ACLexNumberD0Ev to i8*)] }, align 8
@_ZTVN10__cxxabiv117__class_type_infoE = external global i8*
@_ZTSN14altered_carbon2js11ACLexNumberE = linkonce_odr constant [35 x i8] c"N14altered_carbon2js11ACLexNumberE\00"
@_ZTIN14altered_carbon2js11ACLexNumberE = linkonce_odr constant { i8*, i8* } { i8* bitcast (i8** getelementptr inbounds (i8*, i8** @_ZTVN10__cxxabiv117__class_type_infoE, i64 2) to i8*), i8* getelementptr inbounds ([35 x i8], [35 x i8]* @_ZTSN14altered_carbon2js11ACLexNumberE, i32 0, i32 0) }
@_ZNSt3__15ctypeIcE2idE = external global %"class.std::__1::locale::id", align 8
@.str.24 = private unnamed_addr constant [68 x i8] c"allocator<T>::allocate(size_t n) 'n' exceeds maximum supported size\00", align 1
@llvm.global_ctors = appending global [1 x { i32, void ()*, i8* }] [{ i32, void ()*, i8* } { i32 65535, void ()* @_GLOBAL__sub_I_ac_js_misc_parser.cc, i8* null }]

; Function Attrs: noinline nounwind ssp uwtable
define internal void @__cxx_global_var_init() #0 section "__TEXT,__StaticInit,regular,pure_instructions" !dbg !7959 {
  call void @_ZN14altered_carbon2js10NullStreamC1Ev(%"class.altered_carbon::js::NullStream"* @_ZN14altered_carbon2jsL9BlackHoleE), !dbg !7960
  %1 = call i32 @__cxa_atexit(void (i8*)* bitcast (void (%"class.altered_carbon::js::NullStream"*)* @_ZN14altered_carbon2js10NullStreamD1Ev to void (i8*)*), i8* bitcast (%"class.altered_carbon::js::NullStream"* @_ZN14altered_carbon2jsL9BlackHoleE to i8*), i8* @__dso_handle) #2, !dbg !7960
  ret void, !dbg !7960
}

; Function Attrs: noinline nounwind optnone ssp uwtable
define linkonce_odr hidden void @_ZN14altered_carbon2js10NullStreamC1Ev(%"class.altered_carbon::js::NullStream"*) unnamed_addr #1 align 2 !dbg !7961 {
  %2 = alloca %"class.std::__1::basic_ios"*, align 8
  call void @llvm.dbg.declare(metadata %"class.std::__1::basic_ios"** %2, metadata !7962, metadata !DIExpression()), !dbg !7965
  %3 = alloca %"class.std::__1::basic_streambuf"*, align 8
  call void @llvm.dbg.declare(metadata %"class.std::__1::basic_streambuf"** %3, metadata !7970, metadata !DIExpression()), !dbg !7971
  %4 = alloca %"class.std::__1::basic_ostream"*, align 8
  call void @llvm.dbg.declare(metadata %"class.std::__1::basic_ostream"** %4, metadata !7972, metadata !DIExpression()), !dbg !7973
  %5 = alloca i8**, align 8
  call void @llvm.dbg.declare(metadata i8*** %5, metadata !7974, metadata !DIExpression()), !dbg !7973
  %6 = alloca %"class.std::__1::basic_streambuf"*, align 8
  call void @llvm.dbg.declare(metadata %"class.std::__1::basic_streambuf"** %6, metadata !7975, metadata !DIExpression()), !dbg !7976
  %7 = alloca %"class.std::__1::ios_base"*, align 8
  call void @llvm.dbg.declare(metadata %"class.std::__1::ios_base"** %7, metadata !7977, metadata !DIExpression()), !dbg !7980
  %8 = alloca %"class.std::__1::basic_ios"*, align 8
  call void @llvm.dbg.declare(metadata %"class.std::__1::basic_ios"** %8, metadata !7984, metadata !DIExpression()), !dbg !7985
  %9 = alloca %"class.altered_carbon::js::NullStream"*, align 8
  store %"class.altered_carbon::js::NullStream"* %0, %"class.altered_carbon::js::NullStream"** %9, align 8
  call void @llvm.dbg.declare(metadata %"class.altered_carbon::js::NullStream"** %9, metadata !7986, metadata !DIExpression()), !dbg !7987
  %10 = load %"class.altered_carbon::js::NullStream"*, %"class.altered_carbon::js::NullStream"** %9, align 8
  %11 = bitcast %"class.altered_carbon::js::NullStream"* %10 to i8*, !dbg !7988
  %12 = getelementptr inbounds i8, i8* %11, i64 328, !dbg !7988
  %13 = bitcast i8* %12 to %"class.std::__1::basic_ios"*, !dbg !7988
  store %"class.std::__1::basic_ios"* %13, %"class.std::__1::basic_ios"** %8, align 8
  %14 = load %"class.std::__1::basic_ios"*, %"class.std::__1::basic_ios"** %8, align 8
  %15 = bitcast %"class.std::__1::basic_ios"* %14 to %"class.std::__1::ios_base"*, !dbg !7989
  store %"class.std::__1::ios_base"* %15, %"class.std::__1::ios_base"** %7, align 8
  %16 = load %"class.std::__1::ios_base"*, %"class.std::__1::ios_base"** %7, align 8
  %17 = bitcast %"class.std::__1::ios_base"* %16 to i32 (...)***, !dbg !7990
  store i32 (...)** bitcast (i8** getelementptr inbounds ({ [4 x i8*] }, { [4 x i8*] }* @_ZTVNSt3__18ios_baseE, i32 0, inrange i32 0, i32 2) to i32 (...)**), i32 (...)*** %17, align 8, !dbg !7990
  %18 = bitcast %"class.std::__1::basic_ios"* %14 to i32 (...)***, !dbg !7989
  store i32 (...)** bitcast (i8** getelementptr inbounds ({ [4 x i8*] }, { [4 x i8*] }* @_ZTVNSt3__19basic_iosIcNS_11char_traitsIcEEEE, i32 0, inrange i32 0, i32 2) to i32 (...)**), i32 (...)*** %18, align 8, !dbg !7989
  %19 = bitcast %"class.altered_carbon::js::NullStream"* %10 to %"class.altered_carbon::js::NullStreamBuf"*, !dbg !7988
  call void @_ZN14altered_carbon2js13NullStreamBufC2Ev(%"class.altered_carbon::js::NullStreamBuf"* %19), !dbg !7991
  %20 = bitcast %"class.altered_carbon::js::NullStream"* %10 to i32 (...)***, !dbg !7988
  store i32 (...)** bitcast (i8** getelementptr inbounds ({ [17 x i8*], [5 x i8*], [5 x i8*] }, { [17 x i8*], [5 x i8*], [5 x i8*] }* @_ZTVN14altered_carbon2js10NullStreamE, i32 0, inrange i32 0, i32 3) to i32 (...)**), i32 (...)*** %20, align 8, !dbg !7988
  %21 = bitcast %"class.altered_carbon::js::NullStream"* %10 to i8*, !dbg !7988
  %22 = getelementptr inbounds i8, i8* %21, i64 320, !dbg !7988
  %23 = bitcast i8* %22 to i32 (...)***, !dbg !7988
  store i32 (...)** bitcast (i8** getelementptr inbounds ({ [17 x i8*], [5 x i8*], [5 x i8*] }, { [17 x i8*], [5 x i8*], [5 x i8*] }* @_ZTVN14altered_carbon2js10NullStreamE, i32 0, inrange i32 1, i32 3) to i32 (...)**), i32 (...)*** %23, align 8, !dbg !7988
  %24 = bitcast %"class.altered_carbon::js::NullStream"* %10 to i8*, !dbg !7988
  %25 = getelementptr inbounds i8, i8* %24, i64 328, !dbg !7988
  %26 = bitcast i8* %25 to i32 (...)***, !dbg !7988
  store i32 (...)** bitcast (i8** getelementptr inbounds ({ [17 x i8*], [5 x i8*], [5 x i8*] }, { [17 x i8*], [5 x i8*], [5 x i8*] }* @_ZTVN14altered_carbon2js10NullStreamE, i32 0, inrange i32 2, i32 3) to i32 (...)**), i32 (...)*** %26, align 8, !dbg !7988
  %27 = bitcast %"class.altered_carbon::js::NullStream"* %10 to i8*, !dbg !7988
  %28 = getelementptr inbounds i8, i8* %27, i64 320, !dbg !7988
  %29 = bitcast i8* %28 to %"class.std::__1::basic_ostream"*, !dbg !7988
  %30 = bitcast %"class.altered_carbon::js::NullStream"* %10 to %"class.std::__1::basic_streambuf"*, !dbg !7992
  store %"class.std::__1::basic_ostream"* %29, %"class.std::__1::basic_ostream"** %4, align 8
  store i8** getelementptr inbounds ([5 x i8*], [5 x i8*]* @_ZTTN14altered_carbon2js10NullStreamE, i64 0, i64 1), i8*** %5, align 8
  store %"class.std::__1::basic_streambuf"* %30, %"class.std::__1::basic_streambuf"** %6, align 8
  %31 = load %"class.std::__1::basic_ostream"*, %"class.std::__1::basic_ostream"** %4, align 8
  %32 = load i8**, i8*** %5, align 8
  %33 = load i8*, i8** %32, align 8, !dbg !7993
  %34 = bitcast %"class.std::__1::basic_ostream"* %31 to i32 (...)***, !dbg !7993
  %35 = bitcast i8* %33 to i32 (...)**, !dbg !7993
  store i32 (...)** %35, i32 (...)*** %34, align 8, !dbg !7993
  %36 = getelementptr inbounds i8*, i8** %32, i64 1, !dbg !7993
  %37 = load i8*, i8** %36, align 8, !dbg !7993
  %38 = bitcast %"class.std::__1::basic_ostream"* %31 to i8**, !dbg !7993
  %39 = load i8*, i8** %38, align 8, !dbg !7993
  %40 = getelementptr i8, i8* %39, i64 -24, !dbg !7993
  %41 = bitcast i8* %40 to i64*, !dbg !7993
  %42 = load i64, i64* %41, align 8, !dbg !7993
  %43 = bitcast %"class.std::__1::basic_ostream"* %31 to i8*, !dbg !7993
  %44 = getelementptr inbounds i8, i8* %43, i64 %42, !dbg !7993
  %45 = bitcast i8* %44 to i32 (...)***, !dbg !7993
  %46 = bitcast i8* %37 to i32 (...)**, !dbg !7993
  store i32 (...)** %46, i32 (...)*** %45, align 8, !dbg !7993
  %47 = bitcast %"class.std::__1::basic_ostream"* %31 to i8**, !dbg !7994
  %48 = load i8*, i8** %47, align 8, !dbg !7994
  %49 = getelementptr i8, i8* %48, i64 -24, !dbg !7994
  %50 = bitcast i8* %49 to i64*, !dbg !7994
  %51 = load i64, i64* %50, align 8, !dbg !7994
  %52 = bitcast %"class.std::__1::basic_ostream"* %31 to i8*, !dbg !7994
  %53 = getelementptr inbounds i8, i8* %52, i64 %51, !dbg !7994
  %54 = bitcast i8* %53 to %"class.std::__1::basic_ios"*, !dbg !7994
  %55 = load %"class.std::__1::basic_streambuf"*, %"class.std::__1::basic_streambuf"** %6, align 8, !dbg !7995
  store %"class.std::__1::basic_ios"* %54, %"class.std::__1::basic_ios"** %2, align 8
  store %"class.std::__1::basic_streambuf"* %55, %"class.std::__1::basic_streambuf"** %3, align 8
  %56 = load %"class.std::__1::basic_ios"*, %"class.std::__1::basic_ios"** %2, align 8
  %57 = bitcast %"class.std::__1::basic_ios"* %56 to %"class.std::__1::ios_base"*, !dbg !7996
  %58 = load %"class.std::__1::basic_streambuf"*, %"class.std::__1::basic_streambuf"** %3, align 8, !dbg !7997
  %59 = bitcast %"class.std::__1::basic_streambuf"* %58 to i8*, !dbg !7997
  call void @_ZNSt3__18ios_base4initEPv(%"class.std::__1::ios_base"* %57, i8* %59) #2, !dbg !7996
  %60 = getelementptr inbounds %"class.std::__1::basic_ios", %"class.std::__1::basic_ios"* %56, i32 0, i32 1, !dbg !7998
  store %"class.std::__1::basic_ostream"* null, %"class.std::__1::basic_ostream"** %60, align 8, !dbg !7999
  %61 = call i32 @_ZNSt3__111char_traitsIcE3eofEv() #2, !dbg !8000
  %62 = getelementptr inbounds %"class.std::__1::basic_ios", %"class.std::__1::basic_ios"* %56, i32 0, i32 2, !dbg !8001
  store i32 %61, i32* %62, align 8, !dbg !8002
  %63 = bitcast %"class.altered_carbon::js::NullStream"* %10 to i32 (...)***, !dbg !7988
  store i32 (...)** bitcast (i8** getelementptr inbounds ({ [17 x i8*], [5 x i8*], [5 x i8*] }, { [17 x i8*], [5 x i8*], [5 x i8*] }* @_ZTVN14altered_carbon2js10NullStreamE, i32 0, inrange i32 0, i32 3) to i32 (...)**), i32 (...)*** %63, align 8, !dbg !7988
  %64 = bitcast %"class.altered_carbon::js::NullStream"* %10 to i8*, !dbg !7988
  %65 = getelementptr inbounds i8, i8* %64, i64 320, !dbg !7988
  %66 = bitcast i8* %65 to i32 (...)***, !dbg !7988
  store i32 (...)** bitcast (i8** getelementptr inbounds ({ [17 x i8*], [5 x i8*], [5 x i8*] }, { [17 x i8*], [5 x i8*], [5 x i8*] }* @_ZTVN14altered_carbon2js10NullStreamE, i32 0, inrange i32 1, i32 3) to i32 (...)**), i32 (...)*** %66, align 8, !dbg !7988
  %67 = bitcast %"class.altered_carbon::js::NullStream"* %10 to i8*, !dbg !7988
  %68 = getelementptr inbounds i8, i8* %67, i64 328, !dbg !7988
  %69 = bitcast i8* %68 to i32 (...)***, !dbg !7988
  store i32 (...)** bitcast (i8** getelementptr inbounds ({ [17 x i8*], [5 x i8*], [5 x i8*] }, { [17 x i8*], [5 x i8*], [5 x i8*] }* @_ZTVN14altered_carbon2js10NullStreamE, i32 0, inrange i32 2, i32 3) to i32 (...)**), i32 (...)*** %69, align 8, !dbg !7988
  ret void, !dbg !8003
}

; Function Attrs: noinline nounwind optnone ssp uwtable
define linkonce_odr hidden void @_ZN14altered_carbon2js10NullStreamD1Ev(%"class.altered_carbon::js::NullStream"*) unnamed_addr #1 align 2 !dbg !8004 {
  %2 = alloca %"class.altered_carbon::js::NullStream"*, align 8
  store %"class.altered_carbon::js::NullStream"* %0, %"class.altered_carbon::js::NullStream"** %2, align 8
  call void @llvm.dbg.declare(metadata %"class.altered_carbon::js::NullStream"** %2, metadata !8006, metadata !DIExpression()), !dbg !8007
  %3 = load %"class.altered_carbon::js::NullStream"*, %"class.altered_carbon::js::NullStream"** %2, align 8
  call void @_ZN14altered_carbon2js10NullStreamD2Ev(%"class.altered_carbon::js::NullStream"* %3, i8** getelementptr inbounds ([5 x i8*], [5 x i8*]* @_ZTTN14altered_carbon2js10NullStreamE, i64 0, i64 0)) #2, !dbg !8008
  %4 = bitcast %"class.altered_carbon::js::NullStream"* %3 to i8*, !dbg !8008
  %5 = getelementptr inbounds i8, i8* %4, i64 328, !dbg !8008
  %6 = bitcast i8* %5 to %"class.std::__1::basic_ios"*, !dbg !8008
  call void @_ZNSt3__19basic_iosIcNS_11char_traitsIcEEED2Ev(%"class.std::__1::basic_ios"* %6) #2, !dbg !8008
  ret void, !dbg !8008
}

; Function Attrs: nounwind
declare i32 @__cxa_atexit(void (i8*)*, i8*, i8*) #2

; Function Attrs: noinline nounwind optnone ssp uwtable
define void @_ZN14altered_carbon2js12ACAstBuilder10parseBlockEv(%"class.std::__1::unique_ptr.29"* noalias sret, %"class.altered_carbon::js::ACAstBuilder"*) #1 align 2 !dbg !8009 {
  %3 = alloca %"class.altered_carbon::js::ACAstBaseNode"**, align 8
  call void @llvm.dbg.declare(metadata %"class.altered_carbon::js::ACAstBaseNode"*** %3, metadata !8010, metadata !DIExpression()), !dbg !8019
  %4 = alloca %"struct.std::__1::__compressed_pair_elem.31"*, align 8
  call void @llvm.dbg.declare(metadata %"struct.std::__1::__compressed_pair_elem.31"** %4, metadata !8044, metadata !DIExpression()), !dbg !8046
  %5 = alloca %"class.altered_carbon::js::ACAstBaseNode"**, align 8
  call void @llvm.dbg.declare(metadata %"class.altered_carbon::js::ACAstBaseNode"*** %5, metadata !8047, metadata !DIExpression()), !dbg !8048
  %6 = alloca %"class.altered_carbon::js::ACAstBaseNode"**, align 8
  call void @llvm.dbg.declare(metadata %"class.altered_carbon::js::ACAstBaseNode"*** %6, metadata !8010, metadata !DIExpression()), !dbg !8049
  %7 = alloca %"class.std::__1::__compressed_pair.30"*, align 8
  call void @llvm.dbg.declare(metadata %"class.std::__1::__compressed_pair.30"** %7, metadata !8051, metadata !DIExpression()), !dbg !8053
  %8 = alloca %"class.altered_carbon::js::ACAstBaseNode"**, align 8
  call void @llvm.dbg.declare(metadata %"class.altered_carbon::js::ACAstBaseNode"*** %8, metadata !8054, metadata !DIExpression()), !dbg !8055
  %9 = alloca %"class.std::__1::__compressed_pair.30"*, align 8
  call void @llvm.dbg.declare(metadata %"class.std::__1::__compressed_pair.30"** %9, metadata !8056, metadata !DIExpression()), !dbg !8057
  %10 = alloca %"class.altered_carbon::js::ACAstBaseNode"**, align 8
  call void @llvm.dbg.declare(metadata %"class.altered_carbon::js::ACAstBaseNode"*** %10, metadata !8058, metadata !DIExpression()), !dbg !8059
  %11 = alloca %"class.std::__1::unique_ptr.29"*, align 8
  call void @llvm.dbg.declare(metadata %"class.std::__1::unique_ptr.29"** %11, metadata !8060, metadata !DIExpression()), !dbg !8061
  %12 = alloca %"class.altered_carbon::js::ACAstBaseNode"*, align 8
  call void @llvm.dbg.declare(metadata %"class.altered_carbon::js::ACAstBaseNode"** %12, metadata !8062, metadata !DIExpression()), !dbg !8063
  %13 = alloca %"class.std::__1::unique_ptr.29"*, align 8
  call void @llvm.dbg.declare(metadata %"class.std::__1::unique_ptr.29"** %13, metadata !8064, metadata !DIExpression()), !dbg !8065
  %14 = alloca %"class.altered_carbon::js::ACAstBaseNode"*, align 8
  call void @llvm.dbg.declare(metadata %"class.altered_carbon::js::ACAstBaseNode"** %14, metadata !8066, metadata !DIExpression()), !dbg !8067
  %15 = alloca %"struct.std::__1::__compressed_pair_elem.53"*, align 8
  call void @llvm.dbg.declare(metadata %"struct.std::__1::__compressed_pair_elem.53"** %15, metadata !8068, metadata !DIExpression()), !dbg !8071
  %16 = alloca %"class.std::__1::__compressed_pair.52"*, align 8
  call void @llvm.dbg.declare(metadata %"class.std::__1::__compressed_pair.52"** %16, metadata !8077, metadata !DIExpression()), !dbg !8079
  %17 = alloca %"struct.std::__1::__compressed_pair_elem.53"*, align 8
  call void @llvm.dbg.declare(metadata %"struct.std::__1::__compressed_pair_elem.53"** %17, metadata !8068, metadata !DIExpression()), !dbg !8080
  %18 = alloca %"class.std::__1::__compressed_pair.52"*, align 8
  call void @llvm.dbg.declare(metadata %"class.std::__1::__compressed_pair.52"** %18, metadata !8077, metadata !DIExpression()), !dbg !8083
  %19 = alloca %"class.std::__1::unique_ptr.51"*, align 8
  call void @llvm.dbg.declare(metadata %"class.std::__1::unique_ptr.51"** %19, metadata !8084, metadata !DIExpression()), !dbg !8086
  %20 = alloca %"class.altered_carbon::js::ACAstBlockNode"*, align 8
  call void @llvm.dbg.declare(metadata %"class.altered_carbon::js::ACAstBlockNode"** %20, metadata !8087, metadata !DIExpression()), !dbg !8088
  %21 = alloca %"struct.std::__1::__compressed_pair_elem.54"*, align 8
  call void @llvm.dbg.declare(metadata %"struct.std::__1::__compressed_pair_elem.54"** %21, metadata !8089, metadata !DIExpression()), !dbg !8092
  %22 = alloca %"class.std::__1::__compressed_pair.52"*, align 8
  call void @llvm.dbg.declare(metadata %"class.std::__1::__compressed_pair.52"** %22, metadata !8104, metadata !DIExpression()), !dbg !8105
  %23 = alloca %"struct.std::__1::__compressed_pair_elem.53"*, align 8
  call void @llvm.dbg.declare(metadata %"struct.std::__1::__compressed_pair_elem.53"** %23, metadata !8068, metadata !DIExpression()), !dbg !8106
  %24 = alloca %"class.std::__1::__compressed_pair.52"*, align 8
  call void @llvm.dbg.declare(metadata %"class.std::__1::__compressed_pair.52"** %24, metadata !8077, metadata !DIExpression()), !dbg !8109
  %25 = alloca %"struct.std::__1::default_delete.55"*, align 8
  call void @llvm.dbg.declare(metadata %"struct.std::__1::default_delete.55"** %25, metadata !8110, metadata !DIExpression()), !dbg !8113
  %26 = alloca %"class.altered_carbon::js::ACAstBlockNode"*, align 8
  call void @llvm.dbg.declare(metadata %"class.altered_carbon::js::ACAstBlockNode"** %26, metadata !8115, metadata !DIExpression()), !dbg !8116
  %27 = alloca %"struct.std::__1::__compressed_pair_elem.53"*, align 8
  call void @llvm.dbg.declare(metadata %"struct.std::__1::__compressed_pair_elem.53"** %27, metadata !8068, metadata !DIExpression()), !dbg !8117
  %28 = alloca %"class.std::__1::__compressed_pair.52"*, align 8
  call void @llvm.dbg.declare(metadata %"class.std::__1::__compressed_pair.52"** %28, metadata !8077, metadata !DIExpression()), !dbg !8120
  %29 = alloca %"class.std::__1::unique_ptr.51"*, align 8
  call void @llvm.dbg.declare(metadata %"class.std::__1::unique_ptr.51"** %29, metadata !8121, metadata !DIExpression()), !dbg !8122
  %30 = alloca %"class.altered_carbon::js::ACAstBlockNode"*, align 8
  call void @llvm.dbg.declare(metadata %"class.altered_carbon::js::ACAstBlockNode"** %30, metadata !8123, metadata !DIExpression()), !dbg !8124
  %31 = alloca %"class.altered_carbon::js::ACAstBlockNode"*, align 8
  call void @llvm.dbg.declare(metadata %"class.altered_carbon::js::ACAstBlockNode"** %31, metadata !8125, metadata !DIExpression()), !dbg !8126
  %32 = alloca %"class.std::__1::unique_ptr.51"*, align 8
  call void @llvm.dbg.declare(metadata %"class.std::__1::unique_ptr.51"** %32, metadata !8127, metadata !DIExpression()), !dbg !8128
  %33 = alloca %"class.std::__1::unique_ptr.51"*, align 8
  call void @llvm.dbg.declare(metadata %"class.std::__1::unique_ptr.51"** %33, metadata !8129, metadata !DIExpression()), !dbg !8130
  %34 = alloca %"class.std::__1::vector.38"*, align 8
  call void @llvm.dbg.declare(metadata %"class.std::__1::vector.38"** %34, metadata !8131, metadata !DIExpression()), !dbg !8140
  %35 = alloca %"struct.std::__1::__compressed_pair_elem.35"*, align 8
  call void @llvm.dbg.declare(metadata %"struct.std::__1::__compressed_pair_elem.35"** %35, metadata !8142, metadata !DIExpression()), !dbg !8145
  %36 = alloca %"class.std::__1::__compressed_pair.33"*, align 8
  call void @llvm.dbg.declare(metadata %"class.std::__1::__compressed_pair.33"** %36, metadata !8157, metadata !DIExpression()), !dbg !8159
  %37 = alloca %"struct.std::__1::__compressed_pair_elem.34"*, align 8
  call void @llvm.dbg.declare(metadata %"struct.std::__1::__compressed_pair_elem.34"** %37, metadata !8160, metadata !DIExpression()), !dbg !8163
  %38 = alloca %"class.std::__1::__compressed_pair.33"*, align 8
  call void @llvm.dbg.declare(metadata %"class.std::__1::__compressed_pair.33"** %38, metadata !8167, metadata !DIExpression()), !dbg !8168
  %39 = alloca %"struct.std::__1::default_delete.36"*, align 8
  call void @llvm.dbg.declare(metadata %"struct.std::__1::default_delete.36"** %39, metadata !8169, metadata !DIExpression()), !dbg !8172
  %40 = alloca %"struct.altered_carbon::js::ACLexPosition"*, align 8
  call void @llvm.dbg.declare(metadata %"struct.altered_carbon::js::ACLexPosition"** %40, metadata !8174, metadata !DIExpression()), !dbg !8175
  %41 = alloca %"struct.std::__1::__compressed_pair_elem.34"*, align 8
  call void @llvm.dbg.declare(metadata %"struct.std::__1::__compressed_pair_elem.34"** %41, metadata !8160, metadata !DIExpression()), !dbg !8176
  %42 = alloca %"class.std::__1::__compressed_pair.33"*, align 8
  call void @llvm.dbg.declare(metadata %"class.std::__1::__compressed_pair.33"** %42, metadata !8167, metadata !DIExpression()), !dbg !8179
  %43 = alloca %"class.std::__1::unique_ptr.32"*, align 8
  call void @llvm.dbg.declare(metadata %"class.std::__1::unique_ptr.32"** %43, metadata !8180, metadata !DIExpression()), !dbg !8182
  %44 = alloca %"struct.altered_carbon::js::ACLexPosition"*, align 8
  call void @llvm.dbg.declare(metadata %"struct.altered_carbon::js::ACLexPosition"** %44, metadata !8183, metadata !DIExpression()), !dbg !8184
  %45 = alloca %"struct.altered_carbon::js::ACLexPosition"*, align 8
  call void @llvm.dbg.declare(metadata %"struct.altered_carbon::js::ACLexPosition"** %45, metadata !8185, metadata !DIExpression()), !dbg !8186
  %46 = alloca %"class.std::__1::unique_ptr.32"*, align 8
  call void @llvm.dbg.declare(metadata %"class.std::__1::unique_ptr.32"** %46, metadata !8187, metadata !DIExpression()), !dbg !8188
  %47 = alloca %"class.std::__1::unique_ptr.32"*, align 8
  call void @llvm.dbg.declare(metadata %"class.std::__1::unique_ptr.32"** %47, metadata !8189, metadata !DIExpression()), !dbg !8190
  %48 = alloca %"struct.std::__1::__compressed_pair_elem.16"*, align 8
  call void @llvm.dbg.declare(metadata %"struct.std::__1::__compressed_pair_elem.16"** %48, metadata !8191, metadata !DIExpression()), !dbg !8194
  %49 = alloca %"class.std::__1::__compressed_pair.15"*, align 8
  call void @llvm.dbg.declare(metadata %"class.std::__1::__compressed_pair.15"** %49, metadata !8200, metadata !DIExpression()), !dbg !8202
  %50 = alloca %"class.std::__1::unique_ptr"*, align 8
  call void @llvm.dbg.declare(metadata %"class.std::__1::unique_ptr"** %50, metadata !8203, metadata !DIExpression()), !dbg !8205
  %51 = alloca %"struct.std::__1::__compressed_pair_elem.16"*, align 8
  call void @llvm.dbg.declare(metadata %"struct.std::__1::__compressed_pair_elem.16"** %51, metadata !8191, metadata !DIExpression()), !dbg !8206
  %52 = alloca %"class.std::__1::__compressed_pair.15"*, align 8
  call void @llvm.dbg.declare(metadata %"class.std::__1::__compressed_pair.15"** %52, metadata !8200, metadata !DIExpression()), !dbg !8211
  %53 = alloca %"class.std::__1::unique_ptr"*, align 8
  call void @llvm.dbg.declare(metadata %"class.std::__1::unique_ptr"** %53, metadata !8212, metadata !DIExpression()), !dbg !8213
  %54 = alloca %"struct.std::__1::__compressed_pair_elem.25"*, align 8
  call void @llvm.dbg.declare(metadata %"struct.std::__1::__compressed_pair_elem.25"** %54, metadata !8214, metadata !DIExpression()), !dbg !8217
  %55 = alloca %"class.std::__1::__compressed_pair.15"*, align 8
  call void @llvm.dbg.declare(metadata %"class.std::__1::__compressed_pair.15"** %55, metadata !8230, metadata !DIExpression()), !dbg !8232
  %56 = alloca %"struct.std::__1::__compressed_pair_elem.16"*, align 8
  call void @llvm.dbg.declare(metadata %"struct.std::__1::__compressed_pair_elem.16"** %56, metadata !8233, metadata !DIExpression()), !dbg !8236
  %57 = alloca %"class.std::__1::__compressed_pair.15"*, align 8
  call void @llvm.dbg.declare(metadata %"class.std::__1::__compressed_pair.15"** %57, metadata !8240, metadata !DIExpression()), !dbg !8241
  %58 = alloca %"struct.std::__1::default_delete"*, align 8
  call void @llvm.dbg.declare(metadata %"struct.std::__1::default_delete"** %58, metadata !8242, metadata !DIExpression()), !dbg !8245
  %59 = alloca %"class.altered_carbon::js::ACLexToken"*, align 8
  call void @llvm.dbg.declare(metadata %"class.altered_carbon::js::ACLexToken"** %59, metadata !8247, metadata !DIExpression()), !dbg !8248
  %60 = alloca %"struct.std::__1::__compressed_pair_elem.16"*, align 8
  call void @llvm.dbg.declare(metadata %"struct.std::__1::__compressed_pair_elem.16"** %60, metadata !8233, metadata !DIExpression()), !dbg !8249
  %61 = alloca %"class.std::__1::__compressed_pair.15"*, align 8
  call void @llvm.dbg.declare(metadata %"class.std::__1::__compressed_pair.15"** %61, metadata !8240, metadata !DIExpression()), !dbg !8252
  %62 = alloca %"class.std::__1::unique_ptr"*, align 8
  call void @llvm.dbg.declare(metadata %"class.std::__1::unique_ptr"** %62, metadata !8253, metadata !DIExpression()), !dbg !8255
  %63 = alloca %"class.altered_carbon::js::ACLexToken"*, align 8
  call void @llvm.dbg.declare(metadata %"class.altered_carbon::js::ACLexToken"** %63, metadata !8256, metadata !DIExpression()), !dbg !8257
  %64 = alloca %"class.altered_carbon::js::ACLexToken"*, align 8
  call void @llvm.dbg.declare(metadata %"class.altered_carbon::js::ACLexToken"** %64, metadata !8258, metadata !DIExpression()), !dbg !8259
  %65 = alloca %"class.std::__1::unique_ptr"*, align 8
  call void @llvm.dbg.declare(metadata %"class.std::__1::unique_ptr"** %65, metadata !8260, metadata !DIExpression()), !dbg !8261
  %66 = alloca %"class.std::__1::unique_ptr"*, align 8
  call void @llvm.dbg.declare(metadata %"class.std::__1::unique_ptr"** %66, metadata !8262, metadata !DIExpression()), !dbg !8263
  %67 = alloca %"struct.std::__1::__compressed_pair_elem.16"*, align 8
  call void @llvm.dbg.declare(metadata %"struct.std::__1::__compressed_pair_elem.16"** %67, metadata !8191, metadata !DIExpression()), !dbg !8264
  %68 = alloca %"class.std::__1::__compressed_pair.15"*, align 8
  call void @llvm.dbg.declare(metadata %"class.std::__1::__compressed_pair.15"** %68, metadata !8200, metadata !DIExpression()), !dbg !8270
  %69 = alloca %"class.std::__1::unique_ptr"*, align 8
  call void @llvm.dbg.declare(metadata %"class.std::__1::unique_ptr"** %69, metadata !8203, metadata !DIExpression()), !dbg !8271
  %70 = alloca %"struct.std::__1::__compressed_pair_elem.25"*, align 8
  call void @llvm.dbg.declare(metadata %"struct.std::__1::__compressed_pair_elem.25"** %70, metadata !8214, metadata !DIExpression()), !dbg !8272
  %71 = alloca %"class.std::__1::__compressed_pair.15"*, align 8
  call void @llvm.dbg.declare(metadata %"class.std::__1::__compressed_pair.15"** %71, metadata !8230, metadata !DIExpression()), !dbg !8279
  %72 = alloca %"struct.std::__1::__compressed_pair_elem.16"*, align 8
  call void @llvm.dbg.declare(metadata %"struct.std::__1::__compressed_pair_elem.16"** %72, metadata !8233, metadata !DIExpression()), !dbg !8280
  %73 = alloca %"class.std::__1::__compressed_pair.15"*, align 8
  call void @llvm.dbg.declare(metadata %"class.std::__1::__compressed_pair.15"** %73, metadata !8240, metadata !DIExpression()), !dbg !8283
  %74 = alloca %"struct.std::__1::default_delete"*, align 8
  call void @llvm.dbg.declare(metadata %"struct.std::__1::default_delete"** %74, metadata !8242, metadata !DIExpression()), !dbg !8284
  %75 = alloca %"class.altered_carbon::js::ACLexToken"*, align 8
  call void @llvm.dbg.declare(metadata %"class.altered_carbon::js::ACLexToken"** %75, metadata !8247, metadata !DIExpression()), !dbg !8286
  %76 = alloca %"struct.std::__1::__compressed_pair_elem.16"*, align 8
  call void @llvm.dbg.declare(metadata %"struct.std::__1::__compressed_pair_elem.16"** %76, metadata !8233, metadata !DIExpression()), !dbg !8287
  %77 = alloca %"class.std::__1::__compressed_pair.15"*, align 8
  call void @llvm.dbg.declare(metadata %"class.std::__1::__compressed_pair.15"** %77, metadata !8240, metadata !DIExpression()), !dbg !8290
  %78 = alloca %"class.std::__1::unique_ptr"*, align 8
  call void @llvm.dbg.declare(metadata %"class.std::__1::unique_ptr"** %78, metadata !8253, metadata !DIExpression()), !dbg !8291
  %79 = alloca %"class.altered_carbon::js::ACLexToken"*, align 8
  call void @llvm.dbg.declare(metadata %"class.altered_carbon::js::ACLexToken"** %79, metadata !8256, metadata !DIExpression()), !dbg !8292
  %80 = alloca %"class.altered_carbon::js::ACLexToken"*, align 8
  call void @llvm.dbg.declare(metadata %"class.altered_carbon::js::ACLexToken"** %80, metadata !8258, metadata !DIExpression()), !dbg !8293
  %81 = alloca %"class.std::__1::unique_ptr"*, align 8
  call void @llvm.dbg.declare(metadata %"class.std::__1::unique_ptr"** %81, metadata !8260, metadata !DIExpression()), !dbg !8294
  %82 = alloca %"class.std::__1::unique_ptr"*, align 8
  call void @llvm.dbg.declare(metadata %"class.std::__1::unique_ptr"** %82, metadata !8262, metadata !DIExpression()), !dbg !8295
  %83 = alloca %"struct.std::__1::__compressed_pair_elem.16"*, align 8
  call void @llvm.dbg.declare(metadata %"struct.std::__1::__compressed_pair_elem.16"** %83, metadata !8191, metadata !DIExpression()), !dbg !8296
  %84 = alloca %"class.std::__1::__compressed_pair.15"*, align 8
  call void @llvm.dbg.declare(metadata %"class.std::__1::__compressed_pair.15"** %84, metadata !8200, metadata !DIExpression()), !dbg !8302
  %85 = alloca %"class.std::__1::unique_ptr"*, align 8
  call void @llvm.dbg.declare(metadata %"class.std::__1::unique_ptr"** %85, metadata !8203, metadata !DIExpression()), !dbg !8303
  %86 = alloca %"class.altered_carbon::js::ACAstBuilder"*, align 8
  %87 = alloca %"struct.altered_carbon::js::ACLexPosition", align 8
  %88 = alloca i32
  %89 = alloca %"class.std::__1::unique_ptr", align 8
  %90 = alloca %"class.std::__1::vector.38", align 8
  %91 = alloca %"class.std::__1::unique_ptr", align 8
  %92 = alloca %"class.std::__1::unique_ptr.51", align 8
  %93 = alloca %"class.std::__1::unique_ptr.32", align 8
  %94 = alloca %"struct.altered_carbon::js::ACLexPosition", align 8
  store %"class.altered_carbon::js::ACAstBuilder"* %1, %"class.altered_carbon::js::ACAstBuilder"** %86, align 8
  call void @llvm.dbg.declare(metadata %"class.altered_carbon::js::ACAstBuilder"** %86, metadata !8304, metadata !DIExpression()), !dbg !8306
  %95 = load %"class.altered_carbon::js::ACAstBuilder"*, %"class.altered_carbon::js::ACAstBuilder"** %86, align 8
  call void @llvm.dbg.declare(metadata %"struct.altered_carbon::js::ACLexPosition"* %87, metadata !8307, metadata !DIExpression()), !dbg !8308
  %96 = bitcast %"class.altered_carbon::js::ACAstBuilder"* %95 to %"class.altered_carbon::js::ACJsParser"*, !dbg !8309
  %97 = getelementptr inbounds %"class.altered_carbon::js::ACJsParser", %"class.altered_carbon::js::ACJsParser"* %96, i32 0, i32 11, !dbg !8309
  call void @_ZN14altered_carbon2js13ACLexPositionC1ERKS1_(%"struct.altered_carbon::js::ACLexPosition"* %87, %"struct.altered_carbon::js::ACLexPosition"* dereferenceable(32) %97), !dbg !8309
  br label %98, !dbg !8310, !llvm.loop !8311

; <label>:98:                                     ; preds = %2
  br label %99, !dbg !8312, !llvm.loop !8313

; <label>:99:                                     ; preds = %98
  %100 = bitcast %"class.altered_carbon::js::ACAstBuilder"* %95 to %"class.altered_carbon::js::ACJsParser"*, !dbg !8314
  %101 = getelementptr inbounds %"class.altered_carbon::js::ACJsParser", %"class.altered_carbon::js::ACJsParser"* %100, i32 0, i32 14, !dbg !8314
  store %"class.std::__1::unique_ptr"* %101, %"class.std::__1::unique_ptr"** %85, align 8
  %102 = load %"class.std::__1::unique_ptr"*, %"class.std::__1::unique_ptr"** %85, align 8
  %103 = getelementptr inbounds %"class.std::__1::unique_ptr", %"class.std::__1::unique_ptr"* %102, i32 0, i32 0, !dbg !8315
  store %"class.std::__1::__compressed_pair.15"* %103, %"class.std::__1::__compressed_pair.15"** %84, align 8
  %104 = load %"class.std::__1::__compressed_pair.15"*, %"class.std::__1::__compressed_pair.15"** %84, align 8
  %105 = bitcast %"class.std::__1::__compressed_pair.15"* %104 to %"struct.std::__1::__compressed_pair_elem.16"*, !dbg !8316
  store %"struct.std::__1::__compressed_pair_elem.16"* %105, %"struct.std::__1::__compressed_pair_elem.16"** %83, align 8
  %106 = load %"struct.std::__1::__compressed_pair_elem.16"*, %"struct.std::__1::__compressed_pair_elem.16"** %83, align 8
  %107 = getelementptr inbounds %"struct.std::__1::__compressed_pair_elem.16", %"struct.std::__1::__compressed_pair_elem.16"* %106, i32 0, i32 0, !dbg !8317
  %108 = load %"class.altered_carbon::js::ACLexToken"*, %"class.altered_carbon::js::ACLexToken"** %107, align 8, !dbg !8318
  %109 = getelementptr inbounds %"class.altered_carbon::js::ACLexToken", %"class.altered_carbon::js::ACLexToken"* %108, i32 0, i32 1, !dbg !8314
  %110 = load i32, i32* %109, align 8, !dbg !8314
  %111 = icmp eq i32 %110, 17, !dbg !8314
  br i1 %111, label %130, label %112, !dbg !8319

; <label>:112:                                    ; preds = %99
  br label %113, !dbg !8320, !llvm.loop !8322

; <label>:113:                                    ; preds = %112
  br label %114, !dbg !8323, !llvm.loop !8325

; <label>:114:                                    ; preds = %113
  %115 = call dereferenceable(160) %"class.std::__1::basic_ostream"* @_ZNSt3__1lsINS_11char_traitsIcEEEERNS_13basic_ostreamIcT_EES6_PKc(%"class.std::__1::basic_ostream"* dereferenceable(160) bitcast (i8* getelementptr inbounds (i8, i8* bitcast (%"class.altered_carbon::js::NullStream"* @_ZN14altered_carbon2jsL9BlackHoleE to i8*), i64 320) to %"class.std::__1::basic_ostream"*), i8* getelementptr inbounds ([10 x i8], [10 x i8]* @.str, i32 0, i32 0)), !dbg !8326
  %116 = call dereferenceable(160) %"class.std::__1::basic_ostream"* @_ZNSt3__1lsINS_11char_traitsIcEEEERNS_13basic_ostreamIcT_EES6_PKc(%"class.std::__1::basic_ostream"* dereferenceable(160) %115, i8* getelementptr inbounds ([9 x i8], [9 x i8]* @.str.1, i32 0, i32 0)), !dbg !8326
  %117 = call dereferenceable(160) %"class.std::__1::basic_ostream"* @_ZNSt3__1lsINS_11char_traitsIcEEEERNS_13basic_ostreamIcT_EES6_PKc(%"class.std::__1::basic_ostream"* dereferenceable(160) %116, i8* getelementptr inbounds ([5 x i8], [5 x i8]* @.str.2, i32 0, i32 0)), !dbg !8326
  %118 = call dereferenceable(160) %"class.std::__1::basic_ostream"* @_ZNSt3__1lsINS_11char_traitsIcEEEERNS_13basic_ostreamIcT_EES6_PKc(%"class.std::__1::basic_ostream"* dereferenceable(160) %117, i8* getelementptr inbounds ([5 x i8], [5 x i8]* @.str.3, i32 0, i32 0)), !dbg !8326
  %119 = call dereferenceable(160) %"class.std::__1::basic_ostream"* @_ZNSt3__113basic_ostreamIcNS_11char_traitsIcEEElsEi(%"class.std::__1::basic_ostream"* %118, i32 1000), !dbg !8326
  %120 = call dereferenceable(160) %"class.std::__1::basic_ostream"* @_ZNSt3__1lsINS_11char_traitsIcEEEERNS_13basic_ostreamIcT_EES6_PKc(%"class.std::__1::basic_ostream"* dereferenceable(160) %119, i8* getelementptr inbounds ([24 x i8], [24 x i8]* @.str.4, i32 0, i32 0)), !dbg !8326
  %121 = call dereferenceable(160) %"class.std::__1::basic_ostream"* @_ZNSt3__1lsINS_11char_traitsIcEEEERNS_13basic_ostreamIcT_EES6_PKc(%"class.std::__1::basic_ostream"* dereferenceable(160) %120, i8* getelementptr inbounds ([27 x i8], [27 x i8]* @.str.5, i32 0, i32 0)), !dbg !8326
  %122 = call dereferenceable(160) %"class.std::__1::basic_ostream"* @_ZNSt3__1lsINS_11char_traitsIcEEEERNS_13basic_ostreamIcT_EES6_PKc(%"class.std::__1::basic_ostream"* dereferenceable(160) %121, i8* getelementptr inbounds ([4 x i8], [4 x i8]* @.str.6, i32 0, i32 0)), !dbg !8326
  %123 = bitcast %"class.altered_carbon::js::ACAstBuilder"* %95 to %"class.altered_carbon::js::ACJsParser"*, !dbg !8326
  call void @_ZN14altered_carbon2js10ACJsParser16showErrorContextEv(%"class.altered_carbon::js::ACJsParser"* %123), !dbg !8326
  br label %124, !dbg !8326

; <label>:124:                                    ; preds = %114
  br label %125, !dbg !8326

; <label>:125:                                    ; preds = %124
  %126 = bitcast %"class.altered_carbon::js::ACAstBuilder"* %95 to %"class.altered_carbon::js::ACJsParser"*, !dbg !8323
  %127 = getelementptr inbounds %"class.altered_carbon::js::ACJsParser", %"class.altered_carbon::js::ACJsParser"* %126, i32 0, i32 14, !dbg !8323
  call void @_ZN14altered_carbon2js12ACAstBuilder16recoverFromErrorERKNSt3__110unique_ptrINS0_10ACLexTokenENS2_14default_deleteIS4_EEEE(%"class.std::__1::unique_ptr.29"* sret %0, %"class.altered_carbon::js::ACAstBuilder"* %95, %"class.std::__1::unique_ptr"* dereferenceable(8) %127), !dbg !8323
  store i32 1, i32* %88, align 4
  br label %365, !dbg !8323
                                                  ; No predecessors!
  br label %129, !dbg !8323

; <label>:129:                                    ; preds = %128
  br label %130, !dbg !8320

; <label>:130:                                    ; preds = %129, %99
  br label %131, !dbg !8319

; <label>:131:                                    ; preds = %130
  br label %132, !dbg !8319

; <label>:132:                                    ; preds = %131
  %133 = bitcast %"class.altered_carbon::js::ACAstBuilder"* %95 to %"class.altered_carbon::js::ACJsParser"*, !dbg !8312
  call void @_ZN14altered_carbon2js10ACJsParser9nextTokenEv(%"class.std::__1::unique_ptr"* sret %89, %"class.altered_carbon::js::ACJsParser"* %133), !dbg !8312
  store %"class.std::__1::unique_ptr"* %89, %"class.std::__1::unique_ptr"** %82, align 8
  %134 = load %"class.std::__1::unique_ptr"*, %"class.std::__1::unique_ptr"** %82, align 8
  store %"class.std::__1::unique_ptr"* %134, %"class.std::__1::unique_ptr"** %81, align 8
  %135 = load %"class.std::__1::unique_ptr"*, %"class.std::__1::unique_ptr"** %81, align 8
  store %"class.std::__1::unique_ptr"* %135, %"class.std::__1::unique_ptr"** %78, align 8
  store %"class.altered_carbon::js::ACLexToken"* null, %"class.altered_carbon::js::ACLexToken"** %79, align 8
  %136 = load %"class.std::__1::unique_ptr"*, %"class.std::__1::unique_ptr"** %78, align 8
  %137 = getelementptr inbounds %"class.std::__1::unique_ptr", %"class.std::__1::unique_ptr"* %136, i32 0, i32 0, !dbg !8328
  store %"class.std::__1::__compressed_pair.15"* %137, %"class.std::__1::__compressed_pair.15"** %77, align 8
  %138 = load %"class.std::__1::__compressed_pair.15"*, %"class.std::__1::__compressed_pair.15"** %77, align 8
  %139 = bitcast %"class.std::__1::__compressed_pair.15"* %138 to %"struct.std::__1::__compressed_pair_elem.16"*, !dbg !8329
  store %"struct.std::__1::__compressed_pair_elem.16"* %139, %"struct.std::__1::__compressed_pair_elem.16"** %76, align 8
  %140 = load %"struct.std::__1::__compressed_pair_elem.16"*, %"struct.std::__1::__compressed_pair_elem.16"** %76, align 8
  %141 = getelementptr inbounds %"struct.std::__1::__compressed_pair_elem.16", %"struct.std::__1::__compressed_pair_elem.16"* %140, i32 0, i32 0, !dbg !8330
  %142 = load %"class.altered_carbon::js::ACLexToken"*, %"class.altered_carbon::js::ACLexToken"** %141, align 8, !dbg !8331
  store %"class.altered_carbon::js::ACLexToken"* %142, %"class.altered_carbon::js::ACLexToken"** %80, align 8, !dbg !8293
  %143 = load %"class.altered_carbon::js::ACLexToken"*, %"class.altered_carbon::js::ACLexToken"** %79, align 8, !dbg !8332
  %144 = getelementptr inbounds %"class.std::__1::unique_ptr", %"class.std::__1::unique_ptr"* %136, i32 0, i32 0, !dbg !8333
  store %"class.std::__1::__compressed_pair.15"* %144, %"class.std::__1::__compressed_pair.15"** %73, align 8
  %145 = load %"class.std::__1::__compressed_pair.15"*, %"class.std::__1::__compressed_pair.15"** %73, align 8
  %146 = bitcast %"class.std::__1::__compressed_pair.15"* %145 to %"struct.std::__1::__compressed_pair_elem.16"*, !dbg !8334
  store %"struct.std::__1::__compressed_pair_elem.16"* %146, %"struct.std::__1::__compressed_pair_elem.16"** %72, align 8
  %147 = load %"struct.std::__1::__compressed_pair_elem.16"*, %"struct.std::__1::__compressed_pair_elem.16"** %72, align 8
  %148 = getelementptr inbounds %"struct.std::__1::__compressed_pair_elem.16", %"struct.std::__1::__compressed_pair_elem.16"* %147, i32 0, i32 0, !dbg !8335
  store %"class.altered_carbon::js::ACLexToken"* %143, %"class.altered_carbon::js::ACLexToken"** %148, align 8, !dbg !8336
  %149 = load %"class.altered_carbon::js::ACLexToken"*, %"class.altered_carbon::js::ACLexToken"** %80, align 8, !dbg !8337
  %150 = icmp ne %"class.altered_carbon::js::ACLexToken"* %149, null, !dbg !8337
  br i1 %150, label %151, label %167, !dbg !8338

; <label>:151:                                    ; preds = %132
  %152 = getelementptr inbounds %"class.std::__1::unique_ptr", %"class.std::__1::unique_ptr"* %136, i32 0, i32 0, !dbg !8339
  store %"class.std::__1::__compressed_pair.15"* %152, %"class.std::__1::__compressed_pair.15"** %71, align 8
  %153 = load %"class.std::__1::__compressed_pair.15"*, %"class.std::__1::__compressed_pair.15"** %71, align 8
  %154 = bitcast %"class.std::__1::__compressed_pair.15"* %153 to %"struct.std::__1::__compressed_pair_elem.25"*, !dbg !8340
  store %"struct.std::__1::__compressed_pair_elem.25"* %154, %"struct.std::__1::__compressed_pair_elem.25"** %70, align 8
  %155 = load %"struct.std::__1::__compressed_pair_elem.25"*, %"struct.std::__1::__compressed_pair_elem.25"** %70, align 8
  %156 = bitcast %"struct.std::__1::__compressed_pair_elem.25"* %155 to %"struct.std::__1::default_delete"*, !dbg !8341
  %157 = load %"class.altered_carbon::js::ACLexToken"*, %"class.altered_carbon::js::ACLexToken"** %80, align 8, !dbg !8342
  store %"struct.std::__1::default_delete"* %156, %"struct.std::__1::default_delete"** %74, align 8
  store %"class.altered_carbon::js::ACLexToken"* %157, %"class.altered_carbon::js::ACLexToken"** %75, align 8
  %158 = load %"struct.std::__1::default_delete"*, %"struct.std::__1::default_delete"** %74, align 8
  %159 = load %"class.altered_carbon::js::ACLexToken"*, %"class.altered_carbon::js::ACLexToken"** %75, align 8, !dbg !8343
  %160 = icmp eq %"class.altered_carbon::js::ACLexToken"* %159, null, !dbg !8344
  br i1 %160, label %166, label %161, !dbg !8344

; <label>:161:                                    ; preds = %151
  %162 = bitcast %"class.altered_carbon::js::ACLexToken"* %159 to void (%"class.altered_carbon::js::ACLexToken"*)***, !dbg !8344
  %163 = load void (%"class.altered_carbon::js::ACLexToken"*)**, void (%"class.altered_carbon::js::ACLexToken"*)*** %162, align 8, !dbg !8344
  %164 = getelementptr inbounds void (%"class.altered_carbon::js::ACLexToken"*)*, void (%"class.altered_carbon::js::ACLexToken"*)** %163, i64 2, !dbg !8344
  %165 = load void (%"class.altered_carbon::js::ACLexToken"*)*, void (%"class.altered_carbon::js::ACLexToken"*)** %164, align 8, !dbg !8344
  call void %165(%"class.altered_carbon::js::ACLexToken"* %159) #2, !dbg !8344
  br label %166, !dbg !8344

; <label>:166:                                    ; preds = %161, %151
  br label %167, !dbg !8339

; <label>:167:                                    ; preds = %132, %166
  br label %168, !dbg !8312

; <label>:168:                                    ; preds = %167
  br label %169, !dbg !8312

; <label>:169:                                    ; preds = %168
  call void @llvm.dbg.declare(metadata %"class.std::__1::vector.38"* %90, metadata !8345, metadata !DIExpression()), !dbg !8346
  call void @_ZN14altered_carbon2js12ACAstBuilder13parseStmtListEv(%"class.std::__1::vector.38"* sret %90, %"class.altered_carbon::js::ACAstBuilder"* %95), !dbg !8347
  br label %170, !dbg !8348, !llvm.loop !8349

; <label>:170:                                    ; preds = %169
  br label %171, !dbg !8350, !llvm.loop !8351

; <label>:171:                                    ; preds = %170
  %172 = bitcast %"class.altered_carbon::js::ACAstBuilder"* %95 to %"class.altered_carbon::js::ACJsParser"*, !dbg !8352
  %173 = getelementptr inbounds %"class.altered_carbon::js::ACJsParser", %"class.altered_carbon::js::ACJsParser"* %172, i32 0, i32 14, !dbg !8352
  store %"class.std::__1::unique_ptr"* %173, %"class.std::__1::unique_ptr"** %69, align 8
  %174 = load %"class.std::__1::unique_ptr"*, %"class.std::__1::unique_ptr"** %69, align 8
  %175 = getelementptr inbounds %"class.std::__1::unique_ptr", %"class.std::__1::unique_ptr"* %174, i32 0, i32 0, !dbg !8353
  store %"class.std::__1::__compressed_pair.15"* %175, %"class.std::__1::__compressed_pair.15"** %68, align 8
  %176 = load %"class.std::__1::__compressed_pair.15"*, %"class.std::__1::__compressed_pair.15"** %68, align 8
  %177 = bitcast %"class.std::__1::__compressed_pair.15"* %176 to %"struct.std::__1::__compressed_pair_elem.16"*, !dbg !8354
  store %"struct.std::__1::__compressed_pair_elem.16"* %177, %"struct.std::__1::__compressed_pair_elem.16"** %67, align 8
  %178 = load %"struct.std::__1::__compressed_pair_elem.16"*, %"struct.std::__1::__compressed_pair_elem.16"** %67, align 8
  %179 = getelementptr inbounds %"struct.std::__1::__compressed_pair_elem.16", %"struct.std::__1::__compressed_pair_elem.16"* %178, i32 0, i32 0, !dbg !8355
  %180 = load %"class.altered_carbon::js::ACLexToken"*, %"class.altered_carbon::js::ACLexToken"** %179, align 8, !dbg !8356
  %181 = getelementptr inbounds %"class.altered_carbon::js::ACLexToken", %"class.altered_carbon::js::ACLexToken"* %180, i32 0, i32 1, !dbg !8352
  %182 = load i32, i32* %181, align 8, !dbg !8352
  %183 = icmp eq i32 %182, 18, !dbg !8352
  br i1 %183, label %202, label %184, !dbg !8357

; <label>:184:                                    ; preds = %171
  br label %185, !dbg !8358, !llvm.loop !8360

; <label>:185:                                    ; preds = %184
  br label %186, !dbg !8361, !llvm.loop !8363

; <label>:186:                                    ; preds = %185
  %187 = call dereferenceable(160) %"class.std::__1::basic_ostream"* @_ZNSt3__1lsINS_11char_traitsIcEEEERNS_13basic_ostreamIcT_EES6_PKc(%"class.std::__1::basic_ostream"* dereferenceable(160) bitcast (i8* getelementptr inbounds (i8, i8* bitcast (%"class.altered_carbon::js::NullStream"* @_ZN14altered_carbon2jsL9BlackHoleE to i8*), i64 320) to %"class.std::__1::basic_ostream"*), i8* getelementptr inbounds ([10 x i8], [10 x i8]* @.str, i32 0, i32 0)), !dbg !8364
  %188 = call dereferenceable(160) %"class.std::__1::basic_ostream"* @_ZNSt3__1lsINS_11char_traitsIcEEEERNS_13basic_ostreamIcT_EES6_PKc(%"class.std::__1::basic_ostream"* dereferenceable(160) %187, i8* getelementptr inbounds ([9 x i8], [9 x i8]* @.str.1, i32 0, i32 0)), !dbg !8364
  %189 = call dereferenceable(160) %"class.std::__1::basic_ostream"* @_ZNSt3__1lsINS_11char_traitsIcEEEERNS_13basic_ostreamIcT_EES6_PKc(%"class.std::__1::basic_ostream"* dereferenceable(160) %188, i8* getelementptr inbounds ([5 x i8], [5 x i8]* @.str.2, i32 0, i32 0)), !dbg !8364
  %190 = call dereferenceable(160) %"class.std::__1::basic_ostream"* @_ZNSt3__1lsINS_11char_traitsIcEEEERNS_13basic_ostreamIcT_EES6_PKc(%"class.std::__1::basic_ostream"* dereferenceable(160) %189, i8* getelementptr inbounds ([5 x i8], [5 x i8]* @.str.3, i32 0, i32 0)), !dbg !8364
  %191 = call dereferenceable(160) %"class.std::__1::basic_ostream"* @_ZNSt3__113basic_ostreamIcNS_11char_traitsIcEEElsEi(%"class.std::__1::basic_ostream"* %190, i32 1000), !dbg !8364
  %192 = call dereferenceable(160) %"class.std::__1::basic_ostream"* @_ZNSt3__1lsINS_11char_traitsIcEEEERNS_13basic_ostreamIcT_EES6_PKc(%"class.std::__1::basic_ostream"* dereferenceable(160) %191, i8* getelementptr inbounds ([24 x i8], [24 x i8]* @.str.4, i32 0, i32 0)), !dbg !8364
  %193 = call dereferenceable(160) %"class.std::__1::basic_ostream"* @_ZNSt3__1lsINS_11char_traitsIcEEEERNS_13basic_ostreamIcT_EES6_PKc(%"class.std::__1::basic_ostream"* dereferenceable(160) %192, i8* getelementptr inbounds ([25 x i8], [25 x i8]* @.str.7, i32 0, i32 0)), !dbg !8364
  %194 = call dereferenceable(160) %"class.std::__1::basic_ostream"* @_ZNSt3__1lsINS_11char_traitsIcEEEERNS_13basic_ostreamIcT_EES6_PKc(%"class.std::__1::basic_ostream"* dereferenceable(160) %193, i8* getelementptr inbounds ([4 x i8], [4 x i8]* @.str.6, i32 0, i32 0)), !dbg !8364
  %195 = bitcast %"class.altered_carbon::js::ACAstBuilder"* %95 to %"class.altered_carbon::js::ACJsParser"*, !dbg !8364
  call void @_ZN14altered_carbon2js10ACJsParser16showErrorContextEv(%"class.altered_carbon::js::ACJsParser"* %195), !dbg !8364
  br label %196, !dbg !8364

; <label>:196:                                    ; preds = %186
  br label %197, !dbg !8364

; <label>:197:                                    ; preds = %196
  %198 = bitcast %"class.altered_carbon::js::ACAstBuilder"* %95 to %"class.altered_carbon::js::ACJsParser"*, !dbg !8361
  %199 = getelementptr inbounds %"class.altered_carbon::js::ACJsParser", %"class.altered_carbon::js::ACJsParser"* %198, i32 0, i32 14, !dbg !8361
  call void @_ZN14altered_carbon2js12ACAstBuilder16recoverFromErrorERKNSt3__110unique_ptrINS0_10ACLexTokenENS2_14default_deleteIS4_EEEE(%"class.std::__1::unique_ptr.29"* sret %0, %"class.altered_carbon::js::ACAstBuilder"* %95, %"class.std::__1::unique_ptr"* dereferenceable(8) %199), !dbg !8361
  store i32 1, i32* %88, align 4
  br label %364, !dbg !8361
                                                  ; No predecessors!
  br label %201, !dbg !8361

; <label>:201:                                    ; preds = %200
  br label %202, !dbg !8358

; <label>:202:                                    ; preds = %201, %171
  br label %203, !dbg !8357

; <label>:203:                                    ; preds = %202
  br label %204, !dbg !8357

; <label>:204:                                    ; preds = %203
  %205 = bitcast %"class.altered_carbon::js::ACAstBuilder"* %95 to %"class.altered_carbon::js::ACJsParser"*, !dbg !8350
  call void @_ZN14altered_carbon2js10ACJsParser9nextTokenEv(%"class.std::__1::unique_ptr"* sret %91, %"class.altered_carbon::js::ACJsParser"* %205), !dbg !8350
  store %"class.std::__1::unique_ptr"* %91, %"class.std::__1::unique_ptr"** %66, align 8
  %206 = load %"class.std::__1::unique_ptr"*, %"class.std::__1::unique_ptr"** %66, align 8
  store %"class.std::__1::unique_ptr"* %206, %"class.std::__1::unique_ptr"** %65, align 8
  %207 = load %"class.std::__1::unique_ptr"*, %"class.std::__1::unique_ptr"** %65, align 8
  store %"class.std::__1::unique_ptr"* %207, %"class.std::__1::unique_ptr"** %62, align 8
  store %"class.altered_carbon::js::ACLexToken"* null, %"class.altered_carbon::js::ACLexToken"** %63, align 8
  %208 = load %"class.std::__1::unique_ptr"*, %"class.std::__1::unique_ptr"** %62, align 8
  %209 = getelementptr inbounds %"class.std::__1::unique_ptr", %"class.std::__1::unique_ptr"* %208, i32 0, i32 0, !dbg !8366
  store %"class.std::__1::__compressed_pair.15"* %209, %"class.std::__1::__compressed_pair.15"** %61, align 8
  %210 = load %"class.std::__1::__compressed_pair.15"*, %"class.std::__1::__compressed_pair.15"** %61, align 8
  %211 = bitcast %"class.std::__1::__compressed_pair.15"* %210 to %"struct.std::__1::__compressed_pair_elem.16"*, !dbg !8367
  store %"struct.std::__1::__compressed_pair_elem.16"* %211, %"struct.std::__1::__compressed_pair_elem.16"** %60, align 8
  %212 = load %"struct.std::__1::__compressed_pair_elem.16"*, %"struct.std::__1::__compressed_pair_elem.16"** %60, align 8
  %213 = getelementptr inbounds %"struct.std::__1::__compressed_pair_elem.16", %"struct.std::__1::__compressed_pair_elem.16"* %212, i32 0, i32 0, !dbg !8368
  %214 = load %"class.altered_carbon::js::ACLexToken"*, %"class.altered_carbon::js::ACLexToken"** %213, align 8, !dbg !8369
  store %"class.altered_carbon::js::ACLexToken"* %214, %"class.altered_carbon::js::ACLexToken"** %64, align 8, !dbg !8259
  %215 = load %"class.altered_carbon::js::ACLexToken"*, %"class.altered_carbon::js::ACLexToken"** %63, align 8, !dbg !8370
  %216 = getelementptr inbounds %"class.std::__1::unique_ptr", %"class.std::__1::unique_ptr"* %208, i32 0, i32 0, !dbg !8371
  store %"class.std::__1::__compressed_pair.15"* %216, %"class.std::__1::__compressed_pair.15"** %57, align 8
  %217 = load %"class.std::__1::__compressed_pair.15"*, %"class.std::__1::__compressed_pair.15"** %57, align 8
  %218 = bitcast %"class.std::__1::__compressed_pair.15"* %217 to %"struct.std::__1::__compressed_pair_elem.16"*, !dbg !8372
  store %"struct.std::__1::__compressed_pair_elem.16"* %218, %"struct.std::__1::__compressed_pair_elem.16"** %56, align 8
  %219 = load %"struct.std::__1::__compressed_pair_elem.16"*, %"struct.std::__1::__compressed_pair_elem.16"** %56, align 8
  %220 = getelementptr inbounds %"struct.std::__1::__compressed_pair_elem.16", %"struct.std::__1::__compressed_pair_elem.16"* %219, i32 0, i32 0, !dbg !8373
  store %"class.altered_carbon::js::ACLexToken"* %215, %"class.altered_carbon::js::ACLexToken"** %220, align 8, !dbg !8374
  %221 = load %"class.altered_carbon::js::ACLexToken"*, %"class.altered_carbon::js::ACLexToken"** %64, align 8, !dbg !8375
  %222 = icmp ne %"class.altered_carbon::js::ACLexToken"* %221, null, !dbg !8375
  br i1 %222, label %223, label %239, !dbg !8376

; <label>:223:                                    ; preds = %204
  %224 = getelementptr inbounds %"class.std::__1::unique_ptr", %"class.std::__1::unique_ptr"* %208, i32 0, i32 0, !dbg !8377
  store %"class.std::__1::__compressed_pair.15"* %224, %"class.std::__1::__compressed_pair.15"** %55, align 8
  %225 = load %"class.std::__1::__compressed_pair.15"*, %"class.std::__1::__compressed_pair.15"** %55, align 8
  %226 = bitcast %"class.std::__1::__compressed_pair.15"* %225 to %"struct.std::__1::__compressed_pair_elem.25"*, !dbg !8378
  store %"struct.std::__1::__compressed_pair_elem.25"* %226, %"struct.std::__1::__compressed_pair_elem.25"** %54, align 8
  %227 = load %"struct.std::__1::__compressed_pair_elem.25"*, %"struct.std::__1::__compressed_pair_elem.25"** %54, align 8
  %228 = bitcast %"struct.std::__1::__compressed_pair_elem.25"* %227 to %"struct.std::__1::default_delete"*, !dbg !8379
  %229 = load %"class.altered_carbon::js::ACLexToken"*, %"class.altered_carbon::js::ACLexToken"** %64, align 8, !dbg !8380
  store %"struct.std::__1::default_delete"* %228, %"struct.std::__1::default_delete"** %58, align 8
  store %"class.altered_carbon::js::ACLexToken"* %229, %"class.altered_carbon::js::ACLexToken"** %59, align 8
  %230 = load %"struct.std::__1::default_delete"*, %"struct.std::__1::default_delete"** %58, align 8
  %231 = load %"class.altered_carbon::js::ACLexToken"*, %"class.altered_carbon::js::ACLexToken"** %59, align 8, !dbg !8381
  %232 = icmp eq %"class.altered_carbon::js::ACLexToken"* %231, null, !dbg !8382
  br i1 %232, label %238, label %233, !dbg !8382

; <label>:233:                                    ; preds = %223
  %234 = bitcast %"class.altered_carbon::js::ACLexToken"* %231 to void (%"class.altered_carbon::js::ACLexToken"*)***, !dbg !8382
  %235 = load void (%"class.altered_carbon::js::ACLexToken"*)**, void (%"class.altered_carbon::js::ACLexToken"*)*** %234, align 8, !dbg !8382
  %236 = getelementptr inbounds void (%"class.altered_carbon::js::ACLexToken"*)*, void (%"class.altered_carbon::js::ACLexToken"*)** %235, i64 2, !dbg !8382
  %237 = load void (%"class.altered_carbon::js::ACLexToken"*)*, void (%"class.altered_carbon::js::ACLexToken"*)** %236, align 8, !dbg !8382
  call void %237(%"class.altered_carbon::js::ACLexToken"* %231) #2, !dbg !8382
  br label %238, !dbg !8382

; <label>:238:                                    ; preds = %233, %223
  br label %239, !dbg !8377

; <label>:239:                                    ; preds = %204, %238
  br label %240, !dbg !8350

; <label>:240:                                    ; preds = %239
  br label %241, !dbg !8350

; <label>:241:                                    ; preds = %240
  %242 = bitcast %"class.altered_carbon::js::ACAstBuilder"* %95 to %"class.altered_carbon::js::ACJsParser"*, !dbg !8383
  %243 = getelementptr inbounds %"class.altered_carbon::js::ACJsParser", %"class.altered_carbon::js::ACJsParser"* %242, i32 0, i32 14, !dbg !8383
  store %"class.std::__1::unique_ptr"* %243, %"class.std::__1::unique_ptr"** %53, align 8
  %244 = load %"class.std::__1::unique_ptr"*, %"class.std::__1::unique_ptr"** %53, align 8
  %245 = getelementptr inbounds %"class.std::__1::unique_ptr", %"class.std::__1::unique_ptr"* %244, i32 0, i32 0, !dbg !8384
  store %"class.std::__1::__compressed_pair.15"* %245, %"class.std::__1::__compressed_pair.15"** %52, align 8
  %246 = load %"class.std::__1::__compressed_pair.15"*, %"class.std::__1::__compressed_pair.15"** %52, align 8
  %247 = bitcast %"class.std::__1::__compressed_pair.15"* %246 to %"struct.std::__1::__compressed_pair_elem.16"*, !dbg !8385
  store %"struct.std::__1::__compressed_pair_elem.16"* %247, %"struct.std::__1::__compressed_pair_elem.16"** %51, align 8
  %248 = load %"struct.std::__1::__compressed_pair_elem.16"*, %"struct.std::__1::__compressed_pair_elem.16"** %51, align 8
  %249 = getelementptr inbounds %"struct.std::__1::__compressed_pair_elem.16", %"struct.std::__1::__compressed_pair_elem.16"* %248, i32 0, i32 0, !dbg !8386
  %250 = load %"class.altered_carbon::js::ACLexToken"*, %"class.altered_carbon::js::ACLexToken"** %249, align 8, !dbg !8387
  %251 = icmp ne %"class.altered_carbon::js::ACLexToken"* %250, null, !dbg !8388
  br i1 %251, label %252, label %263, !dbg !8383

; <label>:252:                                    ; preds = %241
  %253 = bitcast %"class.altered_carbon::js::ACAstBuilder"* %95 to %"class.altered_carbon::js::ACJsParser"*, !dbg !8383
  %254 = getelementptr inbounds %"class.altered_carbon::js::ACJsParser", %"class.altered_carbon::js::ACJsParser"* %253, i32 0, i32 14, !dbg !8383
  store %"class.std::__1::unique_ptr"* %254, %"class.std::__1::unique_ptr"** %50, align 8
  %255 = load %"class.std::__1::unique_ptr"*, %"class.std::__1::unique_ptr"** %50, align 8
  %256 = getelementptr inbounds %"class.std::__1::unique_ptr", %"class.std::__1::unique_ptr"* %255, i32 0, i32 0, !dbg !8389
  store %"class.std::__1::__compressed_pair.15"* %256, %"class.std::__1::__compressed_pair.15"** %49, align 8
  %257 = load %"class.std::__1::__compressed_pair.15"*, %"class.std::__1::__compressed_pair.15"** %49, align 8
  %258 = bitcast %"class.std::__1::__compressed_pair.15"* %257 to %"struct.std::__1::__compressed_pair_elem.16"*, !dbg !8390
  store %"struct.std::__1::__compressed_pair_elem.16"* %258, %"struct.std::__1::__compressed_pair_elem.16"** %48, align 8
  %259 = load %"struct.std::__1::__compressed_pair_elem.16"*, %"struct.std::__1::__compressed_pair_elem.16"** %48, align 8
  %260 = getelementptr inbounds %"struct.std::__1::__compressed_pair_elem.16", %"struct.std::__1::__compressed_pair_elem.16"* %259, i32 0, i32 0, !dbg !8391
  %261 = load %"class.altered_carbon::js::ACLexToken"*, %"class.altered_carbon::js::ACLexToken"** %260, align 8, !dbg !8392
  %262 = getelementptr inbounds %"class.altered_carbon::js::ACLexToken", %"class.altered_carbon::js::ACLexToken"* %261, i32 0, i32 4, !dbg !8383
  call void @_ZN14altered_carbon2js13ACLexPositionC1ERKS1_(%"struct.altered_carbon::js::ACLexPosition"* %94, %"struct.altered_carbon::js::ACLexPosition"* dereferenceable(32) %262), !dbg !8383
  br label %264, !dbg !8383

; <label>:263:                                    ; preds = %241
  call void @_ZN14altered_carbon2js13ACLexPositionC1EPKS1_(%"struct.altered_carbon::js::ACLexPosition"* %94, %"struct.altered_carbon::js::ACLexPosition"* null), !dbg !8383
  br label %264, !dbg !8383

; <label>:264:                                    ; preds = %263, %252
  call void @_ZN4llvm11make_uniqueIN14altered_carbon2js13ACLexPositionEJS3_EEENSt3__19enable_ifIXntsr3std8is_arrayIT_EE5valueENS4_10unique_ptrIS6_NS4_14default_deleteIS6_EEEEE4typeEDpOT0_(%"class.std::__1::unique_ptr.32"* sret %93, %"struct.altered_carbon::js::ACLexPosition"* dereferenceable(32) %94), !dbg !8383
  store %"class.std::__1::vector.38"* %90, %"class.std::__1::vector.38"** %34, align 8
  %265 = load %"class.std::__1::vector.38"*, %"class.std::__1::vector.38"** %34, align 8, !dbg !8393
  call void @_ZN4llvm11make_uniqueIN14altered_carbon2js14ACAstBlockNodeEJNSt3__110unique_ptrINS2_13ACLexPositionENS4_14default_deleteIS6_EEEENS4_6vectorINS5_INS2_13ACAstBaseNodeENS7_ISB_EEEENS4_9allocatorISD_EEEEEEENS4_9enable_ifIXntsr3std8is_arrayIT_EE5valueENS5_ISI_NS7_ISI_EEEEE4typeEDpOT0_(%"class.std::__1::unique_ptr.51"* sret %92, %"class.std::__1::unique_ptr.32"* dereferenceable(8) %93, %"class.std::__1::vector.38"* dereferenceable(24) %265), !dbg !8383
  store %"class.std::__1::unique_ptr.51"* %92, %"class.std::__1::unique_ptr.51"** %19, align 8
  %266 = load %"class.std::__1::unique_ptr.51"*, %"class.std::__1::unique_ptr.51"** %19, align 8
  %267 = getelementptr inbounds %"class.std::__1::unique_ptr.51", %"class.std::__1::unique_ptr.51"* %266, i32 0, i32 0, !dbg !8394
  store %"class.std::__1::__compressed_pair.52"* %267, %"class.std::__1::__compressed_pair.52"** %18, align 8
  %268 = load %"class.std::__1::__compressed_pair.52"*, %"class.std::__1::__compressed_pair.52"** %18, align 8
  %269 = bitcast %"class.std::__1::__compressed_pair.52"* %268 to %"struct.std::__1::__compressed_pair_elem.53"*, !dbg !8395
  store %"struct.std::__1::__compressed_pair_elem.53"* %269, %"struct.std::__1::__compressed_pair_elem.53"** %17, align 8
  %270 = load %"struct.std::__1::__compressed_pair_elem.53"*, %"struct.std::__1::__compressed_pair_elem.53"** %17, align 8
  %271 = getelementptr inbounds %"struct.std::__1::__compressed_pair_elem.53", %"struct.std::__1::__compressed_pair_elem.53"* %270, i32 0, i32 0, !dbg !8396
  %272 = load %"class.altered_carbon::js::ACAstBlockNode"*, %"class.altered_carbon::js::ACAstBlockNode"** %271, align 8, !dbg !8397
  store %"class.altered_carbon::js::ACAstBlockNode"* %272, %"class.altered_carbon::js::ACAstBlockNode"** %20, align 8, !dbg !8088
  %273 = getelementptr inbounds %"class.std::__1::unique_ptr.51", %"class.std::__1::unique_ptr.51"* %266, i32 0, i32 0, !dbg !8398
  store %"class.std::__1::__compressed_pair.52"* %273, %"class.std::__1::__compressed_pair.52"** %16, align 8
  %274 = load %"class.std::__1::__compressed_pair.52"*, %"class.std::__1::__compressed_pair.52"** %16, align 8
  %275 = bitcast %"class.std::__1::__compressed_pair.52"* %274 to %"struct.std::__1::__compressed_pair_elem.53"*, !dbg !8399
  store %"struct.std::__1::__compressed_pair_elem.53"* %275, %"struct.std::__1::__compressed_pair_elem.53"** %15, align 8
  %276 = load %"struct.std::__1::__compressed_pair_elem.53"*, %"struct.std::__1::__compressed_pair_elem.53"** %15, align 8
  %277 = getelementptr inbounds %"struct.std::__1::__compressed_pair_elem.53", %"struct.std::__1::__compressed_pair_elem.53"* %276, i32 0, i32 0, !dbg !8400
  store %"class.altered_carbon::js::ACAstBlockNode"* null, %"class.altered_carbon::js::ACAstBlockNode"** %277, align 8, !dbg !8401
  %278 = load %"class.altered_carbon::js::ACAstBlockNode"*, %"class.altered_carbon::js::ACAstBlockNode"** %20, align 8, !dbg !8402
  %279 = bitcast %"class.altered_carbon::js::ACAstBlockNode"* %278 to %"class.altered_carbon::js::ACAstBaseNode"*, !dbg !8383
  store %"class.std::__1::unique_ptr.29"* %0, %"class.std::__1::unique_ptr.29"** %13, align 8
  store %"class.altered_carbon::js::ACAstBaseNode"* %279, %"class.altered_carbon::js::ACAstBaseNode"** %14, align 8
  %280 = load %"class.std::__1::unique_ptr.29"*, %"class.std::__1::unique_ptr.29"** %13, align 8
  %281 = load %"class.altered_carbon::js::ACAstBaseNode"*, %"class.altered_carbon::js::ACAstBaseNode"** %14, align 8, !dbg !8403
  store %"class.std::__1::unique_ptr.29"* %280, %"class.std::__1::unique_ptr.29"** %11, align 8
  store %"class.altered_carbon::js::ACAstBaseNode"* %281, %"class.altered_carbon::js::ACAstBaseNode"** %12, align 8
  %282 = load %"class.std::__1::unique_ptr.29"*, %"class.std::__1::unique_ptr.29"** %11, align 8
  %283 = getelementptr inbounds %"class.std::__1::unique_ptr.29", %"class.std::__1::unique_ptr.29"* %282, i32 0, i32 0, !dbg !8404
  store %"class.std::__1::__compressed_pair.30"* %283, %"class.std::__1::__compressed_pair.30"** %9, align 8
  store %"class.altered_carbon::js::ACAstBaseNode"** %12, %"class.altered_carbon::js::ACAstBaseNode"*** %10, align 8
  %284 = load %"class.std::__1::__compressed_pair.30"*, %"class.std::__1::__compressed_pair.30"** %9, align 8
  %285 = load %"class.altered_carbon::js::ACAstBaseNode"**, %"class.altered_carbon::js::ACAstBaseNode"*** %10, align 8, !dbg !8405
  store %"class.std::__1::__compressed_pair.30"* %284, %"class.std::__1::__compressed_pair.30"** %7, align 8
  store %"class.altered_carbon::js::ACAstBaseNode"** %285, %"class.altered_carbon::js::ACAstBaseNode"*** %8, align 8
  %286 = load %"class.std::__1::__compressed_pair.30"*, %"class.std::__1::__compressed_pair.30"** %7, align 8
  %287 = bitcast %"class.std::__1::__compressed_pair.30"* %286 to %"struct.std::__1::__compressed_pair_elem.31"*, !dbg !8406
  %288 = load %"class.altered_carbon::js::ACAstBaseNode"**, %"class.altered_carbon::js::ACAstBaseNode"*** %8, align 8, !dbg !8407
  store %"class.altered_carbon::js::ACAstBaseNode"** %288, %"class.altered_carbon::js::ACAstBaseNode"*** %6, align 8
  %289 = load %"class.altered_carbon::js::ACAstBaseNode"**, %"class.altered_carbon::js::ACAstBaseNode"*** %6, align 8, !dbg !8408
  store %"struct.std::__1::__compressed_pair_elem.31"* %287, %"struct.std::__1::__compressed_pair_elem.31"** %4, align 8
  store %"class.altered_carbon::js::ACAstBaseNode"** %289, %"class.altered_carbon::js::ACAstBaseNode"*** %5, align 8
  %290 = load %"struct.std::__1::__compressed_pair_elem.31"*, %"struct.std::__1::__compressed_pair_elem.31"** %4, align 8
  %291 = getelementptr inbounds %"struct.std::__1::__compressed_pair_elem.31", %"struct.std::__1::__compressed_pair_elem.31"* %290, i32 0, i32 0, !dbg !8409
  %292 = load %"class.altered_carbon::js::ACAstBaseNode"**, %"class.altered_carbon::js::ACAstBaseNode"*** %5, align 8, !dbg !8410
  store %"class.altered_carbon::js::ACAstBaseNode"** %292, %"class.altered_carbon::js::ACAstBaseNode"*** %3, align 8
  %293 = load %"class.altered_carbon::js::ACAstBaseNode"**, %"class.altered_carbon::js::ACAstBaseNode"*** %3, align 8, !dbg !8411
  %294 = load %"class.altered_carbon::js::ACAstBaseNode"*, %"class.altered_carbon::js::ACAstBaseNode"** %293, align 8, !dbg !8412
  store %"class.altered_carbon::js::ACAstBaseNode"* %294, %"class.altered_carbon::js::ACAstBaseNode"** %291, align 8, !dbg !8409
  %295 = bitcast %"class.std::__1::__compressed_pair.30"* %286 to %"struct.std::__1::__compressed_pair_elem.45"*, !dbg !8406
  store %"class.std::__1::unique_ptr.51"* %92, %"class.std::__1::unique_ptr.51"** %33, align 8
  %296 = load %"class.std::__1::unique_ptr.51"*, %"class.std::__1::unique_ptr.51"** %33, align 8
  store %"class.std::__1::unique_ptr.51"* %296, %"class.std::__1::unique_ptr.51"** %32, align 8
  %297 = load %"class.std::__1::unique_ptr.51"*, %"class.std::__1::unique_ptr.51"** %32, align 8
  store %"class.std::__1::unique_ptr.51"* %297, %"class.std::__1::unique_ptr.51"** %29, align 8
  store %"class.altered_carbon::js::ACAstBlockNode"* null, %"class.altered_carbon::js::ACAstBlockNode"** %30, align 8
  %298 = load %"class.std::__1::unique_ptr.51"*, %"class.std::__1::unique_ptr.51"** %29, align 8
  %299 = getelementptr inbounds %"class.std::__1::unique_ptr.51", %"class.std::__1::unique_ptr.51"* %298, i32 0, i32 0, !dbg !8413
  store %"class.std::__1::__compressed_pair.52"* %299, %"class.std::__1::__compressed_pair.52"** %28, align 8
  %300 = load %"class.std::__1::__compressed_pair.52"*, %"class.std::__1::__compressed_pair.52"** %28, align 8
  %301 = bitcast %"class.std::__1::__compressed_pair.52"* %300 to %"struct.std::__1::__compressed_pair_elem.53"*, !dbg !8414
  store %"struct.std::__1::__compressed_pair_elem.53"* %301, %"struct.std::__1::__compressed_pair_elem.53"** %27, align 8
  %302 = load %"struct.std::__1::__compressed_pair_elem.53"*, %"struct.std::__1::__compressed_pair_elem.53"** %27, align 8
  %303 = getelementptr inbounds %"struct.std::__1::__compressed_pair_elem.53", %"struct.std::__1::__compressed_pair_elem.53"* %302, i32 0, i32 0, !dbg !8415
  %304 = load %"class.altered_carbon::js::ACAstBlockNode"*, %"class.altered_carbon::js::ACAstBlockNode"** %303, align 8, !dbg !8416
  store %"class.altered_carbon::js::ACAstBlockNode"* %304, %"class.altered_carbon::js::ACAstBlockNode"** %31, align 8, !dbg !8126
  %305 = load %"class.altered_carbon::js::ACAstBlockNode"*, %"class.altered_carbon::js::ACAstBlockNode"** %30, align 8, !dbg !8417
  %306 = getelementptr inbounds %"class.std::__1::unique_ptr.51", %"class.std::__1::unique_ptr.51"* %298, i32 0, i32 0, !dbg !8418
  store %"class.std::__1::__compressed_pair.52"* %306, %"class.std::__1::__compressed_pair.52"** %24, align 8
  %307 = load %"class.std::__1::__compressed_pair.52"*, %"class.std::__1::__compressed_pair.52"** %24, align 8
  %308 = bitcast %"class.std::__1::__compressed_pair.52"* %307 to %"struct.std::__1::__compressed_pair_elem.53"*, !dbg !8419
  store %"struct.std::__1::__compressed_pair_elem.53"* %308, %"struct.std::__1::__compressed_pair_elem.53"** %23, align 8
  %309 = load %"struct.std::__1::__compressed_pair_elem.53"*, %"struct.std::__1::__compressed_pair_elem.53"** %23, align 8
  %310 = getelementptr inbounds %"struct.std::__1::__compressed_pair_elem.53", %"struct.std::__1::__compressed_pair_elem.53"* %309, i32 0, i32 0, !dbg !8420
  store %"class.altered_carbon::js::ACAstBlockNode"* %305, %"class.altered_carbon::js::ACAstBlockNode"** %310, align 8, !dbg !8421
  %311 = load %"class.altered_carbon::js::ACAstBlockNode"*, %"class.altered_carbon::js::ACAstBlockNode"** %31, align 8, !dbg !8422
  %312 = icmp ne %"class.altered_carbon::js::ACAstBlockNode"* %311, null, !dbg !8422
  br i1 %312, label %313, label %329, !dbg !8423

; <label>:313:                                    ; preds = %264
  %314 = getelementptr inbounds %"class.std::__1::unique_ptr.51", %"class.std::__1::unique_ptr.51"* %298, i32 0, i32 0, !dbg !8424
  store %"class.std::__1::__compressed_pair.52"* %314, %"class.std::__1::__compressed_pair.52"** %22, align 8
  %315 = load %"class.std::__1::__compressed_pair.52"*, %"class.std::__1::__compressed_pair.52"** %22, align 8
  %316 = bitcast %"class.std::__1::__compressed_pair.52"* %315 to %"struct.std::__1::__compressed_pair_elem.54"*, !dbg !8425
  store %"struct.std::__1::__compressed_pair_elem.54"* %316, %"struct.std::__1::__compressed_pair_elem.54"** %21, align 8
  %317 = load %"struct.std::__1::__compressed_pair_elem.54"*, %"struct.std::__1::__compressed_pair_elem.54"** %21, align 8
  %318 = bitcast %"struct.std::__1::__compressed_pair_elem.54"* %317 to %"struct.std::__1::default_delete.55"*, !dbg !8426
  %319 = load %"class.altered_carbon::js::ACAstBlockNode"*, %"class.altered_carbon::js::ACAstBlockNode"** %31, align 8, !dbg !8427
  store %"struct.std::__1::default_delete.55"* %318, %"struct.std::__1::default_delete.55"** %25, align 8
  store %"class.altered_carbon::js::ACAstBlockNode"* %319, %"class.altered_carbon::js::ACAstBlockNode"** %26, align 8
  %320 = load %"struct.std::__1::default_delete.55"*, %"struct.std::__1::default_delete.55"** %25, align 8
  %321 = load %"class.altered_carbon::js::ACAstBlockNode"*, %"class.altered_carbon::js::ACAstBlockNode"** %26, align 8, !dbg !8428
  %322 = icmp eq %"class.altered_carbon::js::ACAstBlockNode"* %321, null, !dbg !8429
  br i1 %322, label %328, label %323, !dbg !8429

; <label>:323:                                    ; preds = %313
  %324 = bitcast %"class.altered_carbon::js::ACAstBlockNode"* %321 to void (%"class.altered_carbon::js::ACAstBlockNode"*)***, !dbg !8429
  %325 = load void (%"class.altered_carbon::js::ACAstBlockNode"*)**, void (%"class.altered_carbon::js::ACAstBlockNode"*)*** %324, align 8, !dbg !8429
  %326 = getelementptr inbounds void (%"class.altered_carbon::js::ACAstBlockNode"*)*, void (%"class.altered_carbon::js::ACAstBlockNode"*)** %325, i64 1, !dbg !8429
  %327 = load void (%"class.altered_carbon::js::ACAstBlockNode"*)*, void (%"class.altered_carbon::js::ACAstBlockNode"*)** %326, align 8, !dbg !8429
  call void %327(%"class.altered_carbon::js::ACAstBlockNode"* %321) #2, !dbg !8429
  br label %328, !dbg !8429

; <label>:328:                                    ; preds = %323, %313
  br label %329, !dbg !8424

; <label>:329:                                    ; preds = %264, %328
  store %"class.std::__1::unique_ptr.32"* %93, %"class.std::__1::unique_ptr.32"** %47, align 8
  %330 = load %"class.std::__1::unique_ptr.32"*, %"class.std::__1::unique_ptr.32"** %47, align 8
  store %"class.std::__1::unique_ptr.32"* %330, %"class.std::__1::unique_ptr.32"** %46, align 8
  %331 = load %"class.std::__1::unique_ptr.32"*, %"class.std::__1::unique_ptr.32"** %46, align 8
  store %"class.std::__1::unique_ptr.32"* %331, %"class.std::__1::unique_ptr.32"** %43, align 8
  store %"struct.altered_carbon::js::ACLexPosition"* null, %"struct.altered_carbon::js::ACLexPosition"** %44, align 8
  %332 = load %"class.std::__1::unique_ptr.32"*, %"class.std::__1::unique_ptr.32"** %43, align 8
  %333 = getelementptr inbounds %"class.std::__1::unique_ptr.32", %"class.std::__1::unique_ptr.32"* %332, i32 0, i32 0, !dbg !8430
  store %"class.std::__1::__compressed_pair.33"* %333, %"class.std::__1::__compressed_pair.33"** %42, align 8
  %334 = load %"class.std::__1::__compressed_pair.33"*, %"class.std::__1::__compressed_pair.33"** %42, align 8
  %335 = bitcast %"class.std::__1::__compressed_pair.33"* %334 to %"struct.std::__1::__compressed_pair_elem.34"*, !dbg !8431
  store %"struct.std::__1::__compressed_pair_elem.34"* %335, %"struct.std::__1::__compressed_pair_elem.34"** %41, align 8
  %336 = load %"struct.std::__1::__compressed_pair_elem.34"*, %"struct.std::__1::__compressed_pair_elem.34"** %41, align 8
  %337 = getelementptr inbounds %"struct.std::__1::__compressed_pair_elem.34", %"struct.std::__1::__compressed_pair_elem.34"* %336, i32 0, i32 0, !dbg !8432
  %338 = load %"struct.altered_carbon::js::ACLexPosition"*, %"struct.altered_carbon::js::ACLexPosition"** %337, align 8, !dbg !8433
  store %"struct.altered_carbon::js::ACLexPosition"* %338, %"struct.altered_carbon::js::ACLexPosition"** %45, align 8, !dbg !8186
  %339 = load %"struct.altered_carbon::js::ACLexPosition"*, %"struct.altered_carbon::js::ACLexPosition"** %44, align 8, !dbg !8434
  %340 = getelementptr inbounds %"class.std::__1::unique_ptr.32", %"class.std::__1::unique_ptr.32"* %332, i32 0, i32 0, !dbg !8435
  store %"class.std::__1::__compressed_pair.33"* %340, %"class.std::__1::__compressed_pair.33"** %38, align 8
  %341 = load %"class.std::__1::__compressed_pair.33"*, %"class.std::__1::__compressed_pair.33"** %38, align 8
  %342 = bitcast %"class.std::__1::__compressed_pair.33"* %341 to %"struct.std::__1::__compressed_pair_elem.34"*, !dbg !8436
  store %"struct.std::__1::__compressed_pair_elem.34"* %342, %"struct.std::__1::__compressed_pair_elem.34"** %37, align 8
  %343 = load %"struct.std::__1::__compressed_pair_elem.34"*, %"struct.std::__1::__compressed_pair_elem.34"** %37, align 8
  %344 = getelementptr inbounds %"struct.std::__1::__compressed_pair_elem.34", %"struct.std::__1::__compressed_pair_elem.34"* %343, i32 0, i32 0, !dbg !8437
  store %"struct.altered_carbon::js::ACLexPosition"* %339, %"struct.altered_carbon::js::ACLexPosition"** %344, align 8, !dbg !8438
  %345 = load %"struct.altered_carbon::js::ACLexPosition"*, %"struct.altered_carbon::js::ACLexPosition"** %45, align 8, !dbg !8439
  %346 = icmp ne %"struct.altered_carbon::js::ACLexPosition"* %345, null, !dbg !8439
  br i1 %346, label %347, label %363, !dbg !8440

; <label>:347:                                    ; preds = %329
  %348 = getelementptr inbounds %"class.std::__1::unique_ptr.32", %"class.std::__1::unique_ptr.32"* %332, i32 0, i32 0, !dbg !8441
  store %"class.std::__1::__compressed_pair.33"* %348, %"class.std::__1::__compressed_pair.33"** %36, align 8
  %349 = load %"class.std::__1::__compressed_pair.33"*, %"class.std::__1::__compressed_pair.33"** %36, align 8
  %350 = bitcast %"class.std::__1::__compressed_pair.33"* %349 to %"struct.std::__1::__compressed_pair_elem.35"*, !dbg !8442
  store %"struct.std::__1::__compressed_pair_elem.35"* %350, %"struct.std::__1::__compressed_pair_elem.35"** %35, align 8
  %351 = load %"struct.std::__1::__compressed_pair_elem.35"*, %"struct.std::__1::__compressed_pair_elem.35"** %35, align 8
  %352 = bitcast %"struct.std::__1::__compressed_pair_elem.35"* %351 to %"struct.std::__1::default_delete.36"*, !dbg !8443
  %353 = load %"struct.altered_carbon::js::ACLexPosition"*, %"struct.altered_carbon::js::ACLexPosition"** %45, align 8, !dbg !8444
  store %"struct.std::__1::default_delete.36"* %352, %"struct.std::__1::default_delete.36"** %39, align 8
  store %"struct.altered_carbon::js::ACLexPosition"* %353, %"struct.altered_carbon::js::ACLexPosition"** %40, align 8
  %354 = load %"struct.std::__1::default_delete.36"*, %"struct.std::__1::default_delete.36"** %39, align 8
  %355 = load %"struct.altered_carbon::js::ACLexPosition"*, %"struct.altered_carbon::js::ACLexPosition"** %40, align 8, !dbg !8445
  %356 = icmp eq %"struct.altered_carbon::js::ACLexPosition"* %355, null, !dbg !8446
  br i1 %356, label %362, label %357, !dbg !8446

; <label>:357:                                    ; preds = %347
  %358 = bitcast %"struct.altered_carbon::js::ACLexPosition"* %355 to void (%"struct.altered_carbon::js::ACLexPosition"*)***, !dbg !8446
  %359 = load void (%"struct.altered_carbon::js::ACLexPosition"*)**, void (%"struct.altered_carbon::js::ACLexPosition"*)*** %358, align 8, !dbg !8446
  %360 = getelementptr inbounds void (%"struct.altered_carbon::js::ACLexPosition"*)*, void (%"struct.altered_carbon::js::ACLexPosition"*)** %359, i64 1, !dbg !8446
  %361 = load void (%"struct.altered_carbon::js::ACLexPosition"*)*, void (%"struct.altered_carbon::js::ACLexPosition"*)** %360, align 8, !dbg !8446
  call void %361(%"struct.altered_carbon::js::ACLexPosition"* %355) #2, !dbg !8446
  br label %362, !dbg !8446

; <label>:362:                                    ; preds = %357, %347
  br label %363, !dbg !8441

; <label>:363:                                    ; preds = %329, %362
  call void @_ZN14altered_carbon2js13ACLexPositionD1Ev(%"struct.altered_carbon::js::ACLexPosition"* %94) #2, !dbg !8447
  store i32 1, i32* %88, align 4
  br label %364, !dbg !8447

; <label>:364:                                    ; preds = %363, %197
  call void @_ZNSt3__16vectorINS_10unique_ptrIN14altered_carbon2js13ACAstBaseNodeENS_14default_deleteIS4_EEEENS_9allocatorIS7_EEED1Ev(%"class.std::__1::vector.38"* %90) #2, !dbg !8448
  br label %365

; <label>:365:                                    ; preds = %364, %125
  call void @_ZN14altered_carbon2js13ACLexPositionD1Ev(%"struct.altered_carbon::js::ACLexPosition"* %87) #2, !dbg !8448
  ret void, !dbg !8448
}

; Function Attrs: nounwind readnone speculatable
declare void @llvm.dbg.declare(metadata, metadata, metadata) #3

declare void @_ZN14altered_carbon2js13ACLexPositionC1ERKS1_(%"struct.altered_carbon::js::ACLexPosition"*, %"struct.altered_carbon::js::ACLexPosition"* dereferenceable(32)) unnamed_addr #4

; Function Attrs: noinline nounwind optnone ssp uwtable
define linkonce_odr dereferenceable(160) %"class.std::__1::basic_ostream"* @_ZNSt3__1lsINS_11char_traitsIcEEEERNS_13basic_ostreamIcT_EES6_PKc(%"class.std::__1::basic_ostream"* dereferenceable(160), i8*) #1 !dbg !8449 {
  %3 = alloca %"class.std::__1::basic_ostream"*, align 8
  %4 = alloca i8*, align 8
  store %"class.std::__1::basic_ostream"* %0, %"class.std::__1::basic_ostream"** %3, align 8
  call void @llvm.dbg.declare(metadata %"class.std::__1::basic_ostream"** %3, metadata !8453, metadata !DIExpression()), !dbg !8454
  store i8* %1, i8** %4, align 8
  call void @llvm.dbg.declare(metadata i8** %4, metadata !8455, metadata !DIExpression()), !dbg !8456
  %5 = load %"class.std::__1::basic_ostream"*, %"class.std::__1::basic_ostream"** %3, align 8, !dbg !8457
  %6 = load i8*, i8** %4, align 8, !dbg !8458
  %7 = load i8*, i8** %4, align 8, !dbg !8459
  %8 = call i64 @_ZNSt3__111char_traitsIcE6lengthEPKc(i8* %7) #2, !dbg !8460
  %9 = call dereferenceable(160) %"class.std::__1::basic_ostream"* @_ZNSt3__124__put_character_sequenceIcNS_11char_traitsIcEEEERNS_13basic_ostreamIT_T0_EES7_PKS4_m(%"class.std::__1::basic_ostream"* dereferenceable(160) %5, i8* %6, i64 %8), !dbg !8461
  ret %"class.std::__1::basic_ostream"* %9, !dbg !8462
}

declare dereferenceable(160) %"class.std::__1::basic_ostream"* @_ZNSt3__113basic_ostreamIcNS_11char_traitsIcEEElsEi(%"class.std::__1::basic_ostream"*, i32) #4

declare void @_ZN14altered_carbon2js10ACJsParser16showErrorContextEv(%"class.altered_carbon::js::ACJsParser"*) #4

declare void @_ZN14altered_carbon2js12ACAstBuilder16recoverFromErrorERKNSt3__110unique_ptrINS0_10ACLexTokenENS2_14default_deleteIS4_EEEE(%"class.std::__1::unique_ptr.29"* sret, %"class.altered_carbon::js::ACAstBuilder"*, %"class.std::__1::unique_ptr"* dereferenceable(8)) #4

declare void @_ZN14altered_carbon2js10ACJsParser9nextTokenEv(%"class.std::__1::unique_ptr"* sret, %"class.altered_carbon::js::ACJsParser"*) #4

declare void @_ZN14altered_carbon2js12ACAstBuilder13parseStmtListEv(%"class.std::__1::vector.38"* sret, %"class.altered_carbon::js::ACAstBuilder"*) #4

; Function Attrs: noinline nounwind optnone ssp uwtable
define linkonce_odr void @_ZN4llvm11make_uniqueIN14altered_carbon2js14ACAstBlockNodeEJNSt3__110unique_ptrINS2_13ACLexPositionENS4_14default_deleteIS6_EEEENS4_6vectorINS5_INS2_13ACAstBaseNodeENS7_ISB_EEEENS4_9allocatorISD_EEEEEEENS4_9enable_ifIXntsr3std8is_arrayIT_EE5valueENS5_ISI_NS7_ISI_EEEEE4typeEDpOT0_(%"class.std::__1::unique_ptr.51"* noalias sret, %"class.std::__1::unique_ptr.32"* dereferenceable(8), %"class.std::__1::vector.38"* dereferenceable(24)) #1 !dbg !8463 {
  %4 = alloca %"class.std::__1::allocator.43"*, align 8
  call void @llvm.dbg.declare(metadata %"class.std::__1::allocator.43"** %4, metadata !8477, metadata !DIExpression()), !dbg !8482
  %5 = alloca i8**, align 8
  call void @llvm.dbg.declare(metadata i8*** %5, metadata !8488, metadata !DIExpression()), !dbg !8498
  %6 = alloca %"struct.std::__1::__compressed_pair_elem.41"*, align 8
  call void @llvm.dbg.declare(metadata %"struct.std::__1::__compressed_pair_elem.41"** %6, metadata !8519, metadata !DIExpression()), !dbg !8521
  %7 = alloca i8**, align 8
  call void @llvm.dbg.declare(metadata i8*** %7, metadata !8522, metadata !DIExpression()), !dbg !8523
  %8 = alloca %"class.std::__1::allocator.43"*, align 8
  call void @llvm.dbg.declare(metadata %"class.std::__1::allocator.43"** %8, metadata !8524, metadata !DIExpression()), !dbg !8533
  %9 = alloca %"class.std::__1::allocator.43"*, align 8
  call void @llvm.dbg.declare(metadata %"class.std::__1::allocator.43"** %9, metadata !8524, metadata !DIExpression()), !dbg !8535
  %10 = alloca %"struct.std::__1::__compressed_pair_elem.42"*, align 8
  call void @llvm.dbg.declare(metadata %"struct.std::__1::__compressed_pair_elem.42"** %10, metadata !8544, metadata !DIExpression()), !dbg !8546
  %11 = alloca %"class.std::__1::allocator.43"*, align 8
  call void @llvm.dbg.declare(metadata %"class.std::__1::allocator.43"** %11, metadata !8547, metadata !DIExpression()), !dbg !8548
  %12 = alloca i8**, align 8
  call void @llvm.dbg.declare(metadata i8*** %12, metadata !8488, metadata !DIExpression()), !dbg !8549
  %13 = alloca %"class.std::__1::__compressed_pair.40"*, align 8
  call void @llvm.dbg.declare(metadata %"class.std::__1::__compressed_pair.40"** %13, metadata !8551, metadata !DIExpression()), !dbg !8553
  %14 = alloca i8**, align 8
  call void @llvm.dbg.declare(metadata i8*** %14, metadata !8554, metadata !DIExpression()), !dbg !8555
  %15 = alloca %"class.std::__1::allocator.43"*, align 8
  call void @llvm.dbg.declare(metadata %"class.std::__1::allocator.43"** %15, metadata !8556, metadata !DIExpression()), !dbg !8557
  %16 = alloca %"class.std::__1::__compressed_pair.40"*, align 8
  call void @llvm.dbg.declare(metadata %"class.std::__1::__compressed_pair.40"** %16, metadata !8558, metadata !DIExpression()), !dbg !8559
  %17 = alloca i8**, align 8
  call void @llvm.dbg.declare(metadata i8*** %17, metadata !8560, metadata !DIExpression()), !dbg !8561
  %18 = alloca %"class.std::__1::allocator.43"*, align 8
  call void @llvm.dbg.declare(metadata %"class.std::__1::allocator.43"** %18, metadata !8562, metadata !DIExpression()), !dbg !8563
  %19 = alloca %"class.std::__1::__vector_base_common"*, align 8
  call void @llvm.dbg.declare(metadata %"class.std::__1::__vector_base_common"** %19, metadata !8564, metadata !DIExpression()), !dbg !8567
  %20 = alloca %"class.std::__1::__vector_base.39"*, align 8
  call void @llvm.dbg.declare(metadata %"class.std::__1::__vector_base.39"** %20, metadata !8569, metadata !DIExpression()), !dbg !8571
  %21 = alloca %"class.std::__1::allocator.43"*, align 8
  call void @llvm.dbg.declare(metadata %"class.std::__1::allocator.43"** %21, metadata !8572, metadata !DIExpression()), !dbg !8573
  %22 = alloca i8*, align 8
  %23 = alloca %"struct.std::__1::__compressed_pair_elem.41"*, align 8
  call void @llvm.dbg.declare(metadata %"struct.std::__1::__compressed_pair_elem.41"** %23, metadata !8574, metadata !DIExpression()), !dbg !8576
  %24 = alloca %"class.std::__1::__compressed_pair.40"*, align 8
  call void @llvm.dbg.declare(metadata %"class.std::__1::__compressed_pair.40"** %24, metadata !8583, metadata !DIExpression()), !dbg !8584
  %25 = alloca %"class.std::__1::__vector_base.39"*, align 8
  call void @llvm.dbg.declare(metadata %"class.std::__1::__vector_base.39"** %25, metadata !8585, metadata !DIExpression()), !dbg !8586
  %26 = alloca %"struct.std::__1::__compressed_pair_elem.41"*, align 8
  call void @llvm.dbg.declare(metadata %"struct.std::__1::__compressed_pair_elem.41"** %26, metadata !8574, metadata !DIExpression()), !dbg !8587
  %27 = alloca %"class.std::__1::__compressed_pair.40"*, align 8
  call void @llvm.dbg.declare(metadata %"class.std::__1::__compressed_pair.40"** %27, metadata !8583, metadata !DIExpression()), !dbg !8591
  %28 = alloca %"class.std::__1::__vector_base.39"*, align 8
  call void @llvm.dbg.declare(metadata %"class.std::__1::__vector_base.39"** %28, metadata !8585, metadata !DIExpression()), !dbg !8592
  %29 = alloca %"struct.std::__1::__compressed_pair_elem.41"*, align 8
  call void @llvm.dbg.declare(metadata %"struct.std::__1::__compressed_pair_elem.41"** %29, metadata !8574, metadata !DIExpression()), !dbg !8593
  %30 = alloca %"class.std::__1::__compressed_pair.40"*, align 8
  call void @llvm.dbg.declare(metadata %"class.std::__1::__compressed_pair.40"** %30, metadata !8583, metadata !DIExpression()), !dbg !8597
  %31 = alloca %"class.std::__1::__vector_base.39"*, align 8
  call void @llvm.dbg.declare(metadata %"class.std::__1::__vector_base.39"** %31, metadata !8585, metadata !DIExpression()), !dbg !8598
  %32 = alloca %"struct.std::__1::__compressed_pair_elem.42"*, align 8
  call void @llvm.dbg.declare(metadata %"struct.std::__1::__compressed_pair_elem.42"** %32, metadata !8599, metadata !DIExpression()), !dbg !8601
  %33 = alloca %"class.std::__1::__compressed_pair.40"*, align 8
  call void @llvm.dbg.declare(metadata %"class.std::__1::__compressed_pair.40"** %33, metadata !8607, metadata !DIExpression()), !dbg !8608
  %34 = alloca %"class.std::__1::__vector_base.39"*, align 8
  call void @llvm.dbg.declare(metadata %"class.std::__1::__vector_base.39"** %34, metadata !8609, metadata !DIExpression()), !dbg !8610
  %35 = alloca %"class.std::__1::vector.38"*, align 8
  call void @llvm.dbg.declare(metadata %"class.std::__1::vector.38"** %35, metadata !8611, metadata !DIExpression()), !dbg !8613
  %36 = alloca %"class.std::__1::vector.38"*, align 8
  call void @llvm.dbg.declare(metadata %"class.std::__1::vector.38"** %36, metadata !8614, metadata !DIExpression()), !dbg !8615
  %37 = alloca %"class.std::__1::vector.38"*, align 8
  call void @llvm.dbg.declare(metadata %"class.std::__1::vector.38"** %37, metadata !8616, metadata !DIExpression()), !dbg !8617
  %38 = alloca %"class.std::__1::vector.38"*, align 8
  call void @llvm.dbg.declare(metadata %"class.std::__1::vector.38"** %38, metadata !8618, metadata !DIExpression()), !dbg !8619
  %39 = alloca %"class.altered_carbon::js::ACAstBlockNode"**, align 8
  call void @llvm.dbg.declare(metadata %"class.altered_carbon::js::ACAstBlockNode"*** %39, metadata !8620, metadata !DIExpression()), !dbg !8629
  %40 = alloca %"struct.std::__1::__compressed_pair_elem.53"*, align 8
  call void @llvm.dbg.declare(metadata %"struct.std::__1::__compressed_pair_elem.53"** %40, metadata !8651, metadata !DIExpression()), !dbg !8652
  %41 = alloca %"class.altered_carbon::js::ACAstBlockNode"**, align 8
  call void @llvm.dbg.declare(metadata %"class.altered_carbon::js::ACAstBlockNode"*** %41, metadata !8653, metadata !DIExpression()), !dbg !8654
  %42 = alloca %"class.altered_carbon::js::ACAstBlockNode"**, align 8
  call void @llvm.dbg.declare(metadata %"class.altered_carbon::js::ACAstBlockNode"*** %42, metadata !8620, metadata !DIExpression()), !dbg !8655
  %43 = alloca %"class.std::__1::__compressed_pair.52"*, align 8
  call void @llvm.dbg.declare(metadata %"class.std::__1::__compressed_pair.52"** %43, metadata !8657, metadata !DIExpression()), !dbg !8658
  %44 = alloca %"class.altered_carbon::js::ACAstBlockNode"**, align 8
  call void @llvm.dbg.declare(metadata %"class.altered_carbon::js::ACAstBlockNode"*** %44, metadata !8659, metadata !DIExpression()), !dbg !8660
  %45 = alloca %"class.std::__1::__compressed_pair.52"*, align 8
  call void @llvm.dbg.declare(metadata %"class.std::__1::__compressed_pair.52"** %45, metadata !8661, metadata !DIExpression()), !dbg !8662
  %46 = alloca %"class.altered_carbon::js::ACAstBlockNode"**, align 8
  call void @llvm.dbg.declare(metadata %"class.altered_carbon::js::ACAstBlockNode"*** %46, metadata !8663, metadata !DIExpression()), !dbg !8664
  %47 = alloca %"class.std::__1::unique_ptr.51"*, align 8
  call void @llvm.dbg.declare(metadata %"class.std::__1::unique_ptr.51"** %47, metadata !8665, metadata !DIExpression()), !dbg !8666
  %48 = alloca %"class.altered_carbon::js::ACAstBlockNode"*, align 8
  call void @llvm.dbg.declare(metadata %"class.altered_carbon::js::ACAstBlockNode"** %48, metadata !8667, metadata !DIExpression()), !dbg !8668
  %49 = alloca %"class.std::__1::unique_ptr.51"*, align 8
  call void @llvm.dbg.declare(metadata %"class.std::__1::unique_ptr.51"** %49, metadata !8669, metadata !DIExpression()), !dbg !8670
  %50 = alloca %"class.altered_carbon::js::ACAstBlockNode"*, align 8
  call void @llvm.dbg.declare(metadata %"class.altered_carbon::js::ACAstBlockNode"** %50, metadata !8671, metadata !DIExpression()), !dbg !8672
  %51 = alloca %"class.std::__1::vector.38"*, align 8
  call void @llvm.dbg.declare(metadata %"class.std::__1::vector.38"** %51, metadata !8673, metadata !DIExpression()), !dbg !8682
  %52 = alloca %"struct.std::__1::__compressed_pair_elem.35"*, align 8
  call void @llvm.dbg.declare(metadata %"struct.std::__1::__compressed_pair_elem.35"** %52, metadata !8142, metadata !DIExpression()), !dbg !8684
  %53 = alloca %"class.std::__1::__compressed_pair.33"*, align 8
  call void @llvm.dbg.declare(metadata %"class.std::__1::__compressed_pair.33"** %53, metadata !8157, metadata !DIExpression()), !dbg !8693
  %54 = alloca %"class.std::__1::unique_ptr.32"*, align 8
  call void @llvm.dbg.declare(metadata %"class.std::__1::unique_ptr.32"** %54, metadata !8694, metadata !DIExpression()), !dbg !8695
  %55 = alloca %"struct.std::__1::default_delete.36"*, align 8
  call void @llvm.dbg.declare(metadata %"struct.std::__1::default_delete.36"** %55, metadata !8696, metadata !DIExpression()), !dbg !8705
  %56 = alloca %"struct.altered_carbon::js::ACLexPosition"**, align 8
  call void @llvm.dbg.declare(metadata %"struct.altered_carbon::js::ACLexPosition"*** %56, metadata !8707, metadata !DIExpression()), !dbg !8716
  %57 = alloca %"struct.std::__1::__compressed_pair_elem.34"*, align 8
  call void @llvm.dbg.declare(metadata %"struct.std::__1::__compressed_pair_elem.34"** %57, metadata !8735, metadata !DIExpression()), !dbg !8736
  %58 = alloca %"struct.altered_carbon::js::ACLexPosition"**, align 8
  call void @llvm.dbg.declare(metadata %"struct.altered_carbon::js::ACLexPosition"*** %58, metadata !8737, metadata !DIExpression()), !dbg !8738
  %59 = alloca %"struct.std::__1::default_delete.36"*, align 8
  call void @llvm.dbg.declare(metadata %"struct.std::__1::default_delete.36"** %59, metadata !8696, metadata !DIExpression()), !dbg !8739
  %60 = alloca %"struct.std::__1::default_delete.36"*, align 8
  call void @llvm.dbg.declare(metadata %"struct.std::__1::default_delete.36"** %60, metadata !8696, metadata !DIExpression()), !dbg !8741
  %61 = alloca %"struct.std::__1::__compressed_pair_elem.35"*, align 8
  call void @llvm.dbg.declare(metadata %"struct.std::__1::__compressed_pair_elem.35"** %61, metadata !8750, metadata !DIExpression()), !dbg !8751
  %62 = alloca %"struct.std::__1::default_delete.36"*, align 8
  call void @llvm.dbg.declare(metadata %"struct.std::__1::default_delete.36"** %62, metadata !8752, metadata !DIExpression()), !dbg !8753
  %63 = alloca %"struct.altered_carbon::js::ACLexPosition"**, align 8
  call void @llvm.dbg.declare(metadata %"struct.altered_carbon::js::ACLexPosition"*** %63, metadata !8707, metadata !DIExpression()), !dbg !8754
  %64 = alloca %"class.std::__1::__compressed_pair.33"*, align 8
  call void @llvm.dbg.declare(metadata %"class.std::__1::__compressed_pair.33"** %64, metadata !8756, metadata !DIExpression()), !dbg !8757
  %65 = alloca %"struct.altered_carbon::js::ACLexPosition"**, align 8
  call void @llvm.dbg.declare(metadata %"struct.altered_carbon::js::ACLexPosition"*** %65, metadata !8758, metadata !DIExpression()), !dbg !8759
  %66 = alloca %"struct.std::__1::default_delete.36"*, align 8
  call void @llvm.dbg.declare(metadata %"struct.std::__1::default_delete.36"** %66, metadata !8760, metadata !DIExpression()), !dbg !8761
  %67 = alloca %"class.std::__1::__compressed_pair.33"*, align 8
  call void @llvm.dbg.declare(metadata %"class.std::__1::__compressed_pair.33"** %67, metadata !8762, metadata !DIExpression()), !dbg !8763
  %68 = alloca %"struct.altered_carbon::js::ACLexPosition"**, align 8
  call void @llvm.dbg.declare(metadata %"struct.altered_carbon::js::ACLexPosition"*** %68, metadata !8764, metadata !DIExpression()), !dbg !8765
  %69 = alloca %"struct.std::__1::default_delete.36"*, align 8
  call void @llvm.dbg.declare(metadata %"struct.std::__1::default_delete.36"** %69, metadata !8766, metadata !DIExpression()), !dbg !8767
  %70 = alloca %"struct.std::__1::__compressed_pair_elem.34"*, align 8
  call void @llvm.dbg.declare(metadata %"struct.std::__1::__compressed_pair_elem.34"** %70, metadata !8160, metadata !DIExpression()), !dbg !8768
  %71 = alloca %"class.std::__1::__compressed_pair.33"*, align 8
  call void @llvm.dbg.declare(metadata %"class.std::__1::__compressed_pair.33"** %71, metadata !8167, metadata !DIExpression()), !dbg !8773
  %72 = alloca %"struct.std::__1::__compressed_pair_elem.34"*, align 8
  call void @llvm.dbg.declare(metadata %"struct.std::__1::__compressed_pair_elem.34"** %72, metadata !8160, metadata !DIExpression()), !dbg !8774
  %73 = alloca %"class.std::__1::__compressed_pair.33"*, align 8
  call void @llvm.dbg.declare(metadata %"class.std::__1::__compressed_pair.33"** %73, metadata !8167, metadata !DIExpression()), !dbg !8777
  %74 = alloca %"class.std::__1::unique_ptr.32"*, align 8
  call void @llvm.dbg.declare(metadata %"class.std::__1::unique_ptr.32"** %74, metadata !8778, metadata !DIExpression()), !dbg !8779
  %75 = alloca %"struct.altered_carbon::js::ACLexPosition"*, align 8
  call void @llvm.dbg.declare(metadata %"struct.altered_carbon::js::ACLexPosition"** %75, metadata !8780, metadata !DIExpression()), !dbg !8781
  %76 = alloca %"class.std::__1::unique_ptr.32"*, align 8
  call void @llvm.dbg.declare(metadata %"class.std::__1::unique_ptr.32"** %76, metadata !8782, metadata !DIExpression()), !dbg !8783
  %77 = alloca %"class.std::__1::unique_ptr.32"*, align 8
  call void @llvm.dbg.declare(metadata %"class.std::__1::unique_ptr.32"** %77, metadata !8784, metadata !DIExpression()), !dbg !8785
  %78 = alloca %"struct.altered_carbon::js::ACLexPosition"*, align 8
  %79 = alloca %"class.std::__1::unique_ptr.32"*, align 8
  call void @llvm.dbg.declare(metadata %"class.std::__1::unique_ptr.32"** %79, metadata !8786, metadata !DIExpression()), !dbg !8787
  %80 = alloca %"class.std::__1::unique_ptr.32"*, align 8
  call void @llvm.dbg.declare(metadata %"class.std::__1::unique_ptr.32"** %80, metadata !8788, metadata !DIExpression()), !dbg !8789
  %81 = alloca %"struct.std::__1::__compressed_pair_elem.35"*, align 8
  call void @llvm.dbg.declare(metadata %"struct.std::__1::__compressed_pair_elem.35"** %81, metadata !8142, metadata !DIExpression()), !dbg !8790
  %82 = alloca %"class.std::__1::__compressed_pair.33"*, align 8
  call void @llvm.dbg.declare(metadata %"class.std::__1::__compressed_pair.33"** %82, metadata !8157, metadata !DIExpression()), !dbg !8796
  %83 = alloca %"struct.std::__1::__compressed_pair_elem.34"*, align 8
  call void @llvm.dbg.declare(metadata %"struct.std::__1::__compressed_pair_elem.34"** %83, metadata !8160, metadata !DIExpression()), !dbg !8797
  %84 = alloca %"class.std::__1::__compressed_pair.33"*, align 8
  call void @llvm.dbg.declare(metadata %"class.std::__1::__compressed_pair.33"** %84, metadata !8167, metadata !DIExpression()), !dbg !8800
  %85 = alloca %"struct.std::__1::default_delete.36"*, align 8
  call void @llvm.dbg.declare(metadata %"struct.std::__1::default_delete.36"** %85, metadata !8169, metadata !DIExpression()), !dbg !8801
  %86 = alloca %"struct.altered_carbon::js::ACLexPosition"*, align 8
  call void @llvm.dbg.declare(metadata %"struct.altered_carbon::js::ACLexPosition"** %86, metadata !8174, metadata !DIExpression()), !dbg !8803
  %87 = alloca %"struct.std::__1::__compressed_pair_elem.34"*, align 8
  call void @llvm.dbg.declare(metadata %"struct.std::__1::__compressed_pair_elem.34"** %87, metadata !8160, metadata !DIExpression()), !dbg !8804
  %88 = alloca %"class.std::__1::__compressed_pair.33"*, align 8
  call void @llvm.dbg.declare(metadata %"class.std::__1::__compressed_pair.33"** %88, metadata !8167, metadata !DIExpression()), !dbg !8807
  %89 = alloca %"class.std::__1::unique_ptr.32"*, align 8
  call void @llvm.dbg.declare(metadata %"class.std::__1::unique_ptr.32"** %89, metadata !8180, metadata !DIExpression()), !dbg !8808
  %90 = alloca %"struct.altered_carbon::js::ACLexPosition"*, align 8
  call void @llvm.dbg.declare(metadata %"struct.altered_carbon::js::ACLexPosition"** %90, metadata !8183, metadata !DIExpression()), !dbg !8809
  %91 = alloca %"struct.altered_carbon::js::ACLexPosition"*, align 8
  call void @llvm.dbg.declare(metadata %"struct.altered_carbon::js::ACLexPosition"** %91, metadata !8185, metadata !DIExpression()), !dbg !8810
  %92 = alloca %"class.std::__1::unique_ptr.32"*, align 8
  call void @llvm.dbg.declare(metadata %"class.std::__1::unique_ptr.32"** %92, metadata !8187, metadata !DIExpression()), !dbg !8811
  %93 = alloca %"class.std::__1::unique_ptr.32"*, align 8
  call void @llvm.dbg.declare(metadata %"class.std::__1::unique_ptr.32"** %93, metadata !8189, metadata !DIExpression()), !dbg !8812
  %94 = alloca %"class.std::__1::unique_ptr.32"*, align 8
  call void @llvm.dbg.declare(metadata %"class.std::__1::unique_ptr.32"** %94, metadata !8813, metadata !DIExpression()), !dbg !8822
  %95 = alloca %"class.std::__1::unique_ptr.32"*, align 8
  %96 = alloca %"class.std::__1::vector.38"*, align 8
  %97 = alloca %"class.std::__1::unique_ptr.32", align 8
  %98 = alloca %"class.std::__1::vector.38", align 8
  store %"class.std::__1::unique_ptr.32"* %1, %"class.std::__1::unique_ptr.32"** %95, align 8
  call void @llvm.dbg.declare(metadata %"class.std::__1::unique_ptr.32"** %95, metadata !8824, metadata !DIExpression()), !dbg !8825
  store %"class.std::__1::vector.38"* %2, %"class.std::__1::vector.38"** %96, align 8
  call void @llvm.dbg.declare(metadata %"class.std::__1::vector.38"** %96, metadata !8826, metadata !DIExpression()), !dbg !8825
  %99 = call i8* @_Znwm(i64 48) #10, !dbg !8827
  %100 = bitcast i8* %99 to %"class.altered_carbon::js::ACAstBlockNode"*, !dbg !8827
  %101 = load %"class.std::__1::unique_ptr.32"*, %"class.std::__1::unique_ptr.32"** %95, align 8, !dbg !8828
  store %"class.std::__1::unique_ptr.32"* %101, %"class.std::__1::unique_ptr.32"** %94, align 8
  %102 = load %"class.std::__1::unique_ptr.32"*, %"class.std::__1::unique_ptr.32"** %94, align 8, !dbg !8829
  store %"class.std::__1::unique_ptr.32"* %97, %"class.std::__1::unique_ptr.32"** %79, align 8
  store %"class.std::__1::unique_ptr.32"* %102, %"class.std::__1::unique_ptr.32"** %80, align 8
  %103 = load %"class.std::__1::unique_ptr.32"*, %"class.std::__1::unique_ptr.32"** %79, align 8
  %104 = load %"class.std::__1::unique_ptr.32"*, %"class.std::__1::unique_ptr.32"** %80, align 8, !dbg !8830
  store %"class.std::__1::unique_ptr.32"* %103, %"class.std::__1::unique_ptr.32"** %76, align 8
  store %"class.std::__1::unique_ptr.32"* %104, %"class.std::__1::unique_ptr.32"** %77, align 8
  %105 = load %"class.std::__1::unique_ptr.32"*, %"class.std::__1::unique_ptr.32"** %76, align 8
  %106 = getelementptr inbounds %"class.std::__1::unique_ptr.32", %"class.std::__1::unique_ptr.32"* %105, i32 0, i32 0, !dbg !8831
  %107 = load %"class.std::__1::unique_ptr.32"*, %"class.std::__1::unique_ptr.32"** %77, align 8, !dbg !8832
  store %"class.std::__1::unique_ptr.32"* %107, %"class.std::__1::unique_ptr.32"** %74, align 8
  %108 = load %"class.std::__1::unique_ptr.32"*, %"class.std::__1::unique_ptr.32"** %74, align 8
  %109 = getelementptr inbounds %"class.std::__1::unique_ptr.32", %"class.std::__1::unique_ptr.32"* %108, i32 0, i32 0, !dbg !8833
  store %"class.std::__1::__compressed_pair.33"* %109, %"class.std::__1::__compressed_pair.33"** %73, align 8
  %110 = load %"class.std::__1::__compressed_pair.33"*, %"class.std::__1::__compressed_pair.33"** %73, align 8
  %111 = bitcast %"class.std::__1::__compressed_pair.33"* %110 to %"struct.std::__1::__compressed_pair_elem.34"*, !dbg !8834
  store %"struct.std::__1::__compressed_pair_elem.34"* %111, %"struct.std::__1::__compressed_pair_elem.34"** %72, align 8
  %112 = load %"struct.std::__1::__compressed_pair_elem.34"*, %"struct.std::__1::__compressed_pair_elem.34"** %72, align 8
  %113 = getelementptr inbounds %"struct.std::__1::__compressed_pair_elem.34", %"struct.std::__1::__compressed_pair_elem.34"* %112, i32 0, i32 0, !dbg !8835
  %114 = load %"struct.altered_carbon::js::ACLexPosition"*, %"struct.altered_carbon::js::ACLexPosition"** %113, align 8, !dbg !8836
  store %"struct.altered_carbon::js::ACLexPosition"* %114, %"struct.altered_carbon::js::ACLexPosition"** %75, align 8, !dbg !8781
  %115 = getelementptr inbounds %"class.std::__1::unique_ptr.32", %"class.std::__1::unique_ptr.32"* %108, i32 0, i32 0, !dbg !8837
  store %"class.std::__1::__compressed_pair.33"* %115, %"class.std::__1::__compressed_pair.33"** %71, align 8
  %116 = load %"class.std::__1::__compressed_pair.33"*, %"class.std::__1::__compressed_pair.33"** %71, align 8
  %117 = bitcast %"class.std::__1::__compressed_pair.33"* %116 to %"struct.std::__1::__compressed_pair_elem.34"*, !dbg !8838
  store %"struct.std::__1::__compressed_pair_elem.34"* %117, %"struct.std::__1::__compressed_pair_elem.34"** %70, align 8
  %118 = load %"struct.std::__1::__compressed_pair_elem.34"*, %"struct.std::__1::__compressed_pair_elem.34"** %70, align 8
  %119 = getelementptr inbounds %"struct.std::__1::__compressed_pair_elem.34", %"struct.std::__1::__compressed_pair_elem.34"* %118, i32 0, i32 0, !dbg !8839
  store %"struct.altered_carbon::js::ACLexPosition"* null, %"struct.altered_carbon::js::ACLexPosition"** %119, align 8, !dbg !8840
  %120 = load %"struct.altered_carbon::js::ACLexPosition"*, %"struct.altered_carbon::js::ACLexPosition"** %75, align 8, !dbg !8841
  store %"struct.altered_carbon::js::ACLexPosition"* %120, %"struct.altered_carbon::js::ACLexPosition"** %78, align 8, !dbg !8832
  %121 = load %"class.std::__1::unique_ptr.32"*, %"class.std::__1::unique_ptr.32"** %77, align 8, !dbg !8842
  store %"class.std::__1::unique_ptr.32"* %121, %"class.std::__1::unique_ptr.32"** %54, align 8
  %122 = load %"class.std::__1::unique_ptr.32"*, %"class.std::__1::unique_ptr.32"** %54, align 8
  %123 = getelementptr inbounds %"class.std::__1::unique_ptr.32", %"class.std::__1::unique_ptr.32"* %122, i32 0, i32 0, !dbg !8843
  store %"class.std::__1::__compressed_pair.33"* %123, %"class.std::__1::__compressed_pair.33"** %53, align 8
  %124 = load %"class.std::__1::__compressed_pair.33"*, %"class.std::__1::__compressed_pair.33"** %53, align 8
  %125 = bitcast %"class.std::__1::__compressed_pair.33"* %124 to %"struct.std::__1::__compressed_pair_elem.35"*, !dbg !8844
  store %"struct.std::__1::__compressed_pair_elem.35"* %125, %"struct.std::__1::__compressed_pair_elem.35"** %52, align 8
  %126 = load %"struct.std::__1::__compressed_pair_elem.35"*, %"struct.std::__1::__compressed_pair_elem.35"** %52, align 8
  %127 = bitcast %"struct.std::__1::__compressed_pair_elem.35"* %126 to %"struct.std::__1::default_delete.36"*, !dbg !8845
  store %"struct.std::__1::default_delete.36"* %127, %"struct.std::__1::default_delete.36"** %55, align 8
  %128 = load %"struct.std::__1::default_delete.36"*, %"struct.std::__1::default_delete.36"** %55, align 8, !dbg !8846
  store %"class.std::__1::__compressed_pair.33"* %106, %"class.std::__1::__compressed_pair.33"** %67, align 8
  store %"struct.altered_carbon::js::ACLexPosition"** %78, %"struct.altered_carbon::js::ACLexPosition"*** %68, align 8
  store %"struct.std::__1::default_delete.36"* %128, %"struct.std::__1::default_delete.36"** %69, align 8
  %129 = load %"class.std::__1::__compressed_pair.33"*, %"class.std::__1::__compressed_pair.33"** %67, align 8
  %130 = load %"struct.altered_carbon::js::ACLexPosition"**, %"struct.altered_carbon::js::ACLexPosition"*** %68, align 8, !dbg !8847
  %131 = load %"struct.std::__1::default_delete.36"*, %"struct.std::__1::default_delete.36"** %69, align 8, !dbg !8847
  store %"class.std::__1::__compressed_pair.33"* %129, %"class.std::__1::__compressed_pair.33"** %64, align 8
  store %"struct.altered_carbon::js::ACLexPosition"** %130, %"struct.altered_carbon::js::ACLexPosition"*** %65, align 8
  store %"struct.std::__1::default_delete.36"* %131, %"struct.std::__1::default_delete.36"** %66, align 8
  %132 = load %"class.std::__1::__compressed_pair.33"*, %"class.std::__1::__compressed_pair.33"** %64, align 8
  %133 = bitcast %"class.std::__1::__compressed_pair.33"* %132 to %"struct.std::__1::__compressed_pair_elem.34"*, !dbg !8848
  %134 = load %"struct.altered_carbon::js::ACLexPosition"**, %"struct.altered_carbon::js::ACLexPosition"*** %65, align 8, !dbg !8849
  store %"struct.altered_carbon::js::ACLexPosition"** %134, %"struct.altered_carbon::js::ACLexPosition"*** %63, align 8
  %135 = load %"struct.altered_carbon::js::ACLexPosition"**, %"struct.altered_carbon::js::ACLexPosition"*** %63, align 8, !dbg !8850
  store %"struct.std::__1::__compressed_pair_elem.34"* %133, %"struct.std::__1::__compressed_pair_elem.34"** %57, align 8
  store %"struct.altered_carbon::js::ACLexPosition"** %135, %"struct.altered_carbon::js::ACLexPosition"*** %58, align 8
  %136 = load %"struct.std::__1::__compressed_pair_elem.34"*, %"struct.std::__1::__compressed_pair_elem.34"** %57, align 8
  %137 = getelementptr inbounds %"struct.std::__1::__compressed_pair_elem.34", %"struct.std::__1::__compressed_pair_elem.34"* %136, i32 0, i32 0, !dbg !8851
  %138 = load %"struct.altered_carbon::js::ACLexPosition"**, %"struct.altered_carbon::js::ACLexPosition"*** %58, align 8, !dbg !8852
  store %"struct.altered_carbon::js::ACLexPosition"** %138, %"struct.altered_carbon::js::ACLexPosition"*** %56, align 8
  %139 = load %"struct.altered_carbon::js::ACLexPosition"**, %"struct.altered_carbon::js::ACLexPosition"*** %56, align 8, !dbg !8853
  %140 = load %"struct.altered_carbon::js::ACLexPosition"*, %"struct.altered_carbon::js::ACLexPosition"** %139, align 8, !dbg !8854
  store %"struct.altered_carbon::js::ACLexPosition"* %140, %"struct.altered_carbon::js::ACLexPosition"** %137, align 8, !dbg !8851
  %141 = bitcast %"class.std::__1::__compressed_pair.33"* %132 to %"struct.std::__1::__compressed_pair_elem.35"*, !dbg !8848
  %142 = load %"struct.std::__1::default_delete.36"*, %"struct.std::__1::default_delete.36"** %66, align 8, !dbg !8855
  store %"struct.std::__1::default_delete.36"* %142, %"struct.std::__1::default_delete.36"** %59, align 8
  %143 = load %"struct.std::__1::default_delete.36"*, %"struct.std::__1::default_delete.36"** %59, align 8, !dbg !8856
  store %"struct.std::__1::__compressed_pair_elem.35"* %141, %"struct.std::__1::__compressed_pair_elem.35"** %61, align 8
  store %"struct.std::__1::default_delete.36"* %143, %"struct.std::__1::default_delete.36"** %62, align 8
  %144 = load %"struct.std::__1::__compressed_pair_elem.35"*, %"struct.std::__1::__compressed_pair_elem.35"** %61, align 8
  %145 = bitcast %"struct.std::__1::__compressed_pair_elem.35"* %144 to %"struct.std::__1::default_delete.36"*, !dbg !8857
  %146 = load %"struct.std::__1::default_delete.36"*, %"struct.std::__1::default_delete.36"** %62, align 8, !dbg !8858
  store %"struct.std::__1::default_delete.36"* %146, %"struct.std::__1::default_delete.36"** %60, align 8
  %147 = load %"struct.std::__1::default_delete.36"*, %"struct.std::__1::default_delete.36"** %60, align 8, !dbg !8859
  %148 = load %"class.std::__1::vector.38"*, %"class.std::__1::vector.38"** %96, align 8, !dbg !8828
  store %"class.std::__1::vector.38"* %148, %"class.std::__1::vector.38"** %51, align 8
  %149 = load %"class.std::__1::vector.38"*, %"class.std::__1::vector.38"** %51, align 8, !dbg !8860
  store %"class.std::__1::vector.38"* %98, %"class.std::__1::vector.38"** %37, align 8
  store %"class.std::__1::vector.38"* %149, %"class.std::__1::vector.38"** %38, align 8
  %150 = load %"class.std::__1::vector.38"*, %"class.std::__1::vector.38"** %37, align 8
  %151 = load %"class.std::__1::vector.38"*, %"class.std::__1::vector.38"** %38, align 8, !dbg !8861
  store %"class.std::__1::vector.38"* %150, %"class.std::__1::vector.38"** %35, align 8
  store %"class.std::__1::vector.38"* %151, %"class.std::__1::vector.38"** %36, align 8
  %152 = load %"class.std::__1::vector.38"*, %"class.std::__1::vector.38"** %35, align 8
  %153 = bitcast %"class.std::__1::vector.38"* %152 to %"class.std::__1::__vector_base.39"*, !dbg !8862
  %154 = load %"class.std::__1::vector.38"*, %"class.std::__1::vector.38"** %36, align 8, !dbg !8863
  %155 = bitcast %"class.std::__1::vector.38"* %154 to %"class.std::__1::__vector_base.39"*, !dbg !8863
  store %"class.std::__1::__vector_base.39"* %155, %"class.std::__1::__vector_base.39"** %34, align 8
  %156 = load %"class.std::__1::__vector_base.39"*, %"class.std::__1::__vector_base.39"** %34, align 8
  %157 = getelementptr inbounds %"class.std::__1::__vector_base.39", %"class.std::__1::__vector_base.39"* %156, i32 0, i32 2, !dbg !8864
  store %"class.std::__1::__compressed_pair.40"* %157, %"class.std::__1::__compressed_pair.40"** %33, align 8
  %158 = load %"class.std::__1::__compressed_pair.40"*, %"class.std::__1::__compressed_pair.40"** %33, align 8
  %159 = bitcast %"class.std::__1::__compressed_pair.40"* %158 to %"struct.std::__1::__compressed_pair_elem.42"*, !dbg !8865
  store %"struct.std::__1::__compressed_pair_elem.42"* %159, %"struct.std::__1::__compressed_pair_elem.42"** %32, align 8
  %160 = load %"struct.std::__1::__compressed_pair_elem.42"*, %"struct.std::__1::__compressed_pair_elem.42"** %32, align 8
  %161 = bitcast %"struct.std::__1::__compressed_pair_elem.42"* %160 to %"class.std::__1::allocator.43"*, !dbg !8866
  store %"class.std::__1::allocator.43"* %161, %"class.std::__1::allocator.43"** %4, align 8
  %162 = load %"class.std::__1::allocator.43"*, %"class.std::__1::allocator.43"** %4, align 8, !dbg !8867
  store %"class.std::__1::__vector_base.39"* %153, %"class.std::__1::__vector_base.39"** %20, align 8
  store %"class.std::__1::allocator.43"* %162, %"class.std::__1::allocator.43"** %21, align 8
  %163 = load %"class.std::__1::__vector_base.39"*, %"class.std::__1::__vector_base.39"** %20, align 8
  %164 = bitcast %"class.std::__1::__vector_base.39"* %163 to %"class.std::__1::__vector_base_common"*, !dbg !8868
  store %"class.std::__1::__vector_base_common"* %164, %"class.std::__1::__vector_base_common"** %19, align 8
  %165 = load %"class.std::__1::__vector_base_common"*, %"class.std::__1::__vector_base_common"** %19, align 8
  %166 = getelementptr inbounds %"class.std::__1::__vector_base.39", %"class.std::__1::__vector_base.39"* %163, i32 0, i32 0, !dbg !8869
  store %"class.std::__1::unique_ptr.29"* null, %"class.std::__1::unique_ptr.29"** %166, align 8, !dbg !8869
  %167 = getelementptr inbounds %"class.std::__1::__vector_base.39", %"class.std::__1::__vector_base.39"* %163, i32 0, i32 1, !dbg !8870
  store %"class.std::__1::unique_ptr.29"* null, %"class.std::__1::unique_ptr.29"** %167, align 8, !dbg !8870
  %168 = getelementptr inbounds %"class.std::__1::__vector_base.39", %"class.std::__1::__vector_base.39"* %163, i32 0, i32 2, !dbg !8871
  store i8* null, i8** %22, align 8, !dbg !8872
  %169 = load %"class.std::__1::allocator.43"*, %"class.std::__1::allocator.43"** %21, align 8, !dbg !8873
  store %"class.std::__1::__compressed_pair.40"* %168, %"class.std::__1::__compressed_pair.40"** %16, align 8
  store i8** %22, i8*** %17, align 8
  store %"class.std::__1::allocator.43"* %169, %"class.std::__1::allocator.43"** %18, align 8
  %170 = load %"class.std::__1::__compressed_pair.40"*, %"class.std::__1::__compressed_pair.40"** %16, align 8
  %171 = load i8**, i8*** %17, align 8, !dbg !8874
  %172 = load %"class.std::__1::allocator.43"*, %"class.std::__1::allocator.43"** %18, align 8, !dbg !8874
  store %"class.std::__1::__compressed_pair.40"* %170, %"class.std::__1::__compressed_pair.40"** %13, align 8
  store i8** %171, i8*** %14, align 8
  store %"class.std::__1::allocator.43"* %172, %"class.std::__1::allocator.43"** %15, align 8
  %173 = load %"class.std::__1::__compressed_pair.40"*, %"class.std::__1::__compressed_pair.40"** %13, align 8
  %174 = bitcast %"class.std::__1::__compressed_pair.40"* %173 to %"struct.std::__1::__compressed_pair_elem.41"*, !dbg !8875
  %175 = load i8**, i8*** %14, align 8, !dbg !8876
  store i8** %175, i8*** %12, align 8
  %176 = load i8**, i8*** %12, align 8, !dbg !8877
  store %"struct.std::__1::__compressed_pair_elem.41"* %174, %"struct.std::__1::__compressed_pair_elem.41"** %6, align 8
  store i8** %176, i8*** %7, align 8
  %177 = load %"struct.std::__1::__compressed_pair_elem.41"*, %"struct.std::__1::__compressed_pair_elem.41"** %6, align 8
  %178 = getelementptr inbounds %"struct.std::__1::__compressed_pair_elem.41", %"struct.std::__1::__compressed_pair_elem.41"* %177, i32 0, i32 0, !dbg !8878
  %179 = load i8**, i8*** %7, align 8, !dbg !8879
  store i8** %179, i8*** %5, align 8
  %180 = load i8**, i8*** %5, align 8, !dbg !8880
  %181 = load i8*, i8** %180, align 8, !dbg !8881
  store %"class.std::__1::unique_ptr.29"* null, %"class.std::__1::unique_ptr.29"** %178, align 8, !dbg !8878
  %182 = bitcast %"class.std::__1::__compressed_pair.40"* %173 to %"struct.std::__1::__compressed_pair_elem.42"*, !dbg !8875
  %183 = load %"class.std::__1::allocator.43"*, %"class.std::__1::allocator.43"** %15, align 8, !dbg !8882
  store %"class.std::__1::allocator.43"* %183, %"class.std::__1::allocator.43"** %8, align 8
  %184 = load %"class.std::__1::allocator.43"*, %"class.std::__1::allocator.43"** %8, align 8, !dbg !8883
  store %"struct.std::__1::__compressed_pair_elem.42"* %182, %"struct.std::__1::__compressed_pair_elem.42"** %10, align 8
  store %"class.std::__1::allocator.43"* %184, %"class.std::__1::allocator.43"** %11, align 8
  %185 = load %"struct.std::__1::__compressed_pair_elem.42"*, %"struct.std::__1::__compressed_pair_elem.42"** %10, align 8
  %186 = bitcast %"struct.std::__1::__compressed_pair_elem.42"* %185 to %"class.std::__1::allocator.43"*, !dbg !8884
  %187 = load %"class.std::__1::allocator.43"*, %"class.std::__1::allocator.43"** %11, align 8, !dbg !8885
  store %"class.std::__1::allocator.43"* %187, %"class.std::__1::allocator.43"** %9, align 8
  %188 = load %"class.std::__1::allocator.43"*, %"class.std::__1::allocator.43"** %9, align 8, !dbg !8886
  %189 = load %"class.std::__1::vector.38"*, %"class.std::__1::vector.38"** %36, align 8, !dbg !8887
  %190 = bitcast %"class.std::__1::vector.38"* %189 to %"class.std::__1::__vector_base.39"*, !dbg !8887
  %191 = getelementptr inbounds %"class.std::__1::__vector_base.39", %"class.std::__1::__vector_base.39"* %190, i32 0, i32 0, !dbg !8888
  %192 = load %"class.std::__1::unique_ptr.29"*, %"class.std::__1::unique_ptr.29"** %191, align 8, !dbg !8888
  %193 = bitcast %"class.std::__1::vector.38"* %152 to %"class.std::__1::__vector_base.39"*, !dbg !8889
  %194 = getelementptr inbounds %"class.std::__1::__vector_base.39", %"class.std::__1::__vector_base.39"* %193, i32 0, i32 0, !dbg !8889
  store %"class.std::__1::unique_ptr.29"* %192, %"class.std::__1::unique_ptr.29"** %194, align 8, !dbg !8890
  %195 = load %"class.std::__1::vector.38"*, %"class.std::__1::vector.38"** %36, align 8, !dbg !8891
  %196 = bitcast %"class.std::__1::vector.38"* %195 to %"class.std::__1::__vector_base.39"*, !dbg !8891
  %197 = getelementptr inbounds %"class.std::__1::__vector_base.39", %"class.std::__1::__vector_base.39"* %196, i32 0, i32 1, !dbg !8892
  %198 = load %"class.std::__1::unique_ptr.29"*, %"class.std::__1::unique_ptr.29"** %197, align 8, !dbg !8892
  %199 = bitcast %"class.std::__1::vector.38"* %152 to %"class.std::__1::__vector_base.39"*, !dbg !8893
  %200 = getelementptr inbounds %"class.std::__1::__vector_base.39", %"class.std::__1::__vector_base.39"* %199, i32 0, i32 1, !dbg !8893
  store %"class.std::__1::unique_ptr.29"* %198, %"class.std::__1::unique_ptr.29"** %200, align 8, !dbg !8894
  %201 = load %"class.std::__1::vector.38"*, %"class.std::__1::vector.38"** %36, align 8, !dbg !8895
  %202 = bitcast %"class.std::__1::vector.38"* %201 to %"class.std::__1::__vector_base.39"*, !dbg !8895
  store %"class.std::__1::__vector_base.39"* %202, %"class.std::__1::__vector_base.39"** %25, align 8
  %203 = load %"class.std::__1::__vector_base.39"*, %"class.std::__1::__vector_base.39"** %25, align 8
  %204 = getelementptr inbounds %"class.std::__1::__vector_base.39", %"class.std::__1::__vector_base.39"* %203, i32 0, i32 2, !dbg !8896
  store %"class.std::__1::__compressed_pair.40"* %204, %"class.std::__1::__compressed_pair.40"** %24, align 8
  %205 = load %"class.std::__1::__compressed_pair.40"*, %"class.std::__1::__compressed_pair.40"** %24, align 8
  %206 = bitcast %"class.std::__1::__compressed_pair.40"* %205 to %"struct.std::__1::__compressed_pair_elem.41"*, !dbg !8897
  store %"struct.std::__1::__compressed_pair_elem.41"* %206, %"struct.std::__1::__compressed_pair_elem.41"** %23, align 8
  %207 = load %"struct.std::__1::__compressed_pair_elem.41"*, %"struct.std::__1::__compressed_pair_elem.41"** %23, align 8
  %208 = getelementptr inbounds %"struct.std::__1::__compressed_pair_elem.41", %"struct.std::__1::__compressed_pair_elem.41"* %207, i32 0, i32 0, !dbg !8898
  %209 = load %"class.std::__1::unique_ptr.29"*, %"class.std::__1::unique_ptr.29"** %208, align 8, !dbg !8899
  %210 = bitcast %"class.std::__1::vector.38"* %152 to %"class.std::__1::__vector_base.39"*, !dbg !8900
  store %"class.std::__1::__vector_base.39"* %210, %"class.std::__1::__vector_base.39"** %28, align 8
  %211 = load %"class.std::__1::__vector_base.39"*, %"class.std::__1::__vector_base.39"** %28, align 8
  %212 = getelementptr inbounds %"class.std::__1::__vector_base.39", %"class.std::__1::__vector_base.39"* %211, i32 0, i32 2, !dbg !8901
  store %"class.std::__1::__compressed_pair.40"* %212, %"class.std::__1::__compressed_pair.40"** %27, align 8
  %213 = load %"class.std::__1::__compressed_pair.40"*, %"class.std::__1::__compressed_pair.40"** %27, align 8
  %214 = bitcast %"class.std::__1::__compressed_pair.40"* %213 to %"struct.std::__1::__compressed_pair_elem.41"*, !dbg !8902
  store %"struct.std::__1::__compressed_pair_elem.41"* %214, %"struct.std::__1::__compressed_pair_elem.41"** %26, align 8
  %215 = load %"struct.std::__1::__compressed_pair_elem.41"*, %"struct.std::__1::__compressed_pair_elem.41"** %26, align 8
  %216 = getelementptr inbounds %"struct.std::__1::__compressed_pair_elem.41", %"struct.std::__1::__compressed_pair_elem.41"* %215, i32 0, i32 0, !dbg !8903
  store %"class.std::__1::unique_ptr.29"* %209, %"class.std::__1::unique_ptr.29"** %216, align 8, !dbg !8904
  %217 = load %"class.std::__1::vector.38"*, %"class.std::__1::vector.38"** %36, align 8, !dbg !8905
  %218 = bitcast %"class.std::__1::vector.38"* %217 to %"class.std::__1::__vector_base.39"*, !dbg !8905
  store %"class.std::__1::__vector_base.39"* %218, %"class.std::__1::__vector_base.39"** %31, align 8
  %219 = load %"class.std::__1::__vector_base.39"*, %"class.std::__1::__vector_base.39"** %31, align 8
  %220 = getelementptr inbounds %"class.std::__1::__vector_base.39", %"class.std::__1::__vector_base.39"* %219, i32 0, i32 2, !dbg !8906
  store %"class.std::__1::__compressed_pair.40"* %220, %"class.std::__1::__compressed_pair.40"** %30, align 8
  %221 = load %"class.std::__1::__compressed_pair.40"*, %"class.std::__1::__compressed_pair.40"** %30, align 8
  %222 = bitcast %"class.std::__1::__compressed_pair.40"* %221 to %"struct.std::__1::__compressed_pair_elem.41"*, !dbg !8907
  store %"struct.std::__1::__compressed_pair_elem.41"* %222, %"struct.std::__1::__compressed_pair_elem.41"** %29, align 8
  %223 = load %"struct.std::__1::__compressed_pair_elem.41"*, %"struct.std::__1::__compressed_pair_elem.41"** %29, align 8
  %224 = getelementptr inbounds %"struct.std::__1::__compressed_pair_elem.41", %"struct.std::__1::__compressed_pair_elem.41"* %223, i32 0, i32 0, !dbg !8908
  store %"class.std::__1::unique_ptr.29"* null, %"class.std::__1::unique_ptr.29"** %224, align 8, !dbg !8909
  %225 = load %"class.std::__1::vector.38"*, %"class.std::__1::vector.38"** %36, align 8, !dbg !8910
  %226 = bitcast %"class.std::__1::vector.38"* %225 to %"class.std::__1::__vector_base.39"*, !dbg !8910
  %227 = getelementptr inbounds %"class.std::__1::__vector_base.39", %"class.std::__1::__vector_base.39"* %226, i32 0, i32 1, !dbg !8911
  store %"class.std::__1::unique_ptr.29"* null, %"class.std::__1::unique_ptr.29"** %227, align 8, !dbg !8912
  %228 = load %"class.std::__1::vector.38"*, %"class.std::__1::vector.38"** %36, align 8, !dbg !8913
  %229 = bitcast %"class.std::__1::vector.38"* %228 to %"class.std::__1::__vector_base.39"*, !dbg !8913
  %230 = getelementptr inbounds %"class.std::__1::__vector_base.39", %"class.std::__1::__vector_base.39"* %229, i32 0, i32 0, !dbg !8914
  store %"class.std::__1::unique_ptr.29"* null, %"class.std::__1::unique_ptr.29"** %230, align 8, !dbg !8915
  call void @_ZN14altered_carbon2js14ACAstBlockNodeC1ENSt3__110unique_ptrINS0_13ACLexPositionENS2_14default_deleteIS4_EEEENS2_6vectorINS3_INS0_13ACAstBaseNodeENS5_IS9_EEEENS2_9allocatorISB_EEEENS9_11AstNodeTypeENS9_14AstNodeSubTypeE(%"class.altered_carbon::js::ACAstBlockNode"* %100, %"class.std::__1::unique_ptr.32"* %97, %"class.std::__1::vector.38"* %98, i32 12, i32 1), !dbg !8916
  store %"class.std::__1::unique_ptr.51"* %0, %"class.std::__1::unique_ptr.51"** %49, align 8
  store %"class.altered_carbon::js::ACAstBlockNode"* %100, %"class.altered_carbon::js::ACAstBlockNode"** %50, align 8
  %231 = load %"class.std::__1::unique_ptr.51"*, %"class.std::__1::unique_ptr.51"** %49, align 8
  %232 = load %"class.altered_carbon::js::ACAstBlockNode"*, %"class.altered_carbon::js::ACAstBlockNode"** %50, align 8, !dbg !8917
  store %"class.std::__1::unique_ptr.51"* %231, %"class.std::__1::unique_ptr.51"** %47, align 8
  store %"class.altered_carbon::js::ACAstBlockNode"* %232, %"class.altered_carbon::js::ACAstBlockNode"** %48, align 8
  %233 = load %"class.std::__1::unique_ptr.51"*, %"class.std::__1::unique_ptr.51"** %47, align 8
  %234 = getelementptr inbounds %"class.std::__1::unique_ptr.51", %"class.std::__1::unique_ptr.51"* %233, i32 0, i32 0, !dbg !8918
  store %"class.std::__1::__compressed_pair.52"* %234, %"class.std::__1::__compressed_pair.52"** %45, align 8
  store %"class.altered_carbon::js::ACAstBlockNode"** %48, %"class.altered_carbon::js::ACAstBlockNode"*** %46, align 8
  %235 = load %"class.std::__1::__compressed_pair.52"*, %"class.std::__1::__compressed_pair.52"** %45, align 8
  %236 = load %"class.altered_carbon::js::ACAstBlockNode"**, %"class.altered_carbon::js::ACAstBlockNode"*** %46, align 8, !dbg !8919
  store %"class.std::__1::__compressed_pair.52"* %235, %"class.std::__1::__compressed_pair.52"** %43, align 8
  store %"class.altered_carbon::js::ACAstBlockNode"** %236, %"class.altered_carbon::js::ACAstBlockNode"*** %44, align 8
  %237 = load %"class.std::__1::__compressed_pair.52"*, %"class.std::__1::__compressed_pair.52"** %43, align 8
  %238 = bitcast %"class.std::__1::__compressed_pair.52"* %237 to %"struct.std::__1::__compressed_pair_elem.53"*, !dbg !8920
  %239 = load %"class.altered_carbon::js::ACAstBlockNode"**, %"class.altered_carbon::js::ACAstBlockNode"*** %44, align 8, !dbg !8921
  store %"class.altered_carbon::js::ACAstBlockNode"** %239, %"class.altered_carbon::js::ACAstBlockNode"*** %42, align 8
  %240 = load %"class.altered_carbon::js::ACAstBlockNode"**, %"class.altered_carbon::js::ACAstBlockNode"*** %42, align 8, !dbg !8922
  store %"struct.std::__1::__compressed_pair_elem.53"* %238, %"struct.std::__1::__compressed_pair_elem.53"** %40, align 8
  store %"class.altered_carbon::js::ACAstBlockNode"** %240, %"class.altered_carbon::js::ACAstBlockNode"*** %41, align 8
  %241 = load %"struct.std::__1::__compressed_pair_elem.53"*, %"struct.std::__1::__compressed_pair_elem.53"** %40, align 8
  %242 = getelementptr inbounds %"struct.std::__1::__compressed_pair_elem.53", %"struct.std::__1::__compressed_pair_elem.53"* %241, i32 0, i32 0, !dbg !8923
  %243 = load %"class.altered_carbon::js::ACAstBlockNode"**, %"class.altered_carbon::js::ACAstBlockNode"*** %41, align 8, !dbg !8924
  store %"class.altered_carbon::js::ACAstBlockNode"** %243, %"class.altered_carbon::js::ACAstBlockNode"*** %39, align 8
  %244 = load %"class.altered_carbon::js::ACAstBlockNode"**, %"class.altered_carbon::js::ACAstBlockNode"*** %39, align 8, !dbg !8925
  %245 = load %"class.altered_carbon::js::ACAstBlockNode"*, %"class.altered_carbon::js::ACAstBlockNode"** %244, align 8, !dbg !8926
  store %"class.altered_carbon::js::ACAstBlockNode"* %245, %"class.altered_carbon::js::ACAstBlockNode"** %242, align 8, !dbg !8923
  %246 = bitcast %"class.std::__1::__compressed_pair.52"* %237 to %"struct.std::__1::__compressed_pair_elem.54"*, !dbg !8920
  call void @_ZNSt3__16vectorINS_10unique_ptrIN14altered_carbon2js13ACAstBaseNodeENS_14default_deleteIS4_EEEENS_9allocatorIS7_EEED1Ev(%"class.std::__1::vector.38"* %98) #2, !dbg !8927
  store %"class.std::__1::unique_ptr.32"* %97, %"class.std::__1::unique_ptr.32"** %93, align 8
  %247 = load %"class.std::__1::unique_ptr.32"*, %"class.std::__1::unique_ptr.32"** %93, align 8
  store %"class.std::__1::unique_ptr.32"* %247, %"class.std::__1::unique_ptr.32"** %92, align 8
  %248 = load %"class.std::__1::unique_ptr.32"*, %"class.std::__1::unique_ptr.32"** %92, align 8
  store %"class.std::__1::unique_ptr.32"* %248, %"class.std::__1::unique_ptr.32"** %89, align 8
  store %"struct.altered_carbon::js::ACLexPosition"* null, %"struct.altered_carbon::js::ACLexPosition"** %90, align 8
  %249 = load %"class.std::__1::unique_ptr.32"*, %"class.std::__1::unique_ptr.32"** %89, align 8
  %250 = getelementptr inbounds %"class.std::__1::unique_ptr.32", %"class.std::__1::unique_ptr.32"* %249, i32 0, i32 0, !dbg !8928
  store %"class.std::__1::__compressed_pair.33"* %250, %"class.std::__1::__compressed_pair.33"** %88, align 8
  %251 = load %"class.std::__1::__compressed_pair.33"*, %"class.std::__1::__compressed_pair.33"** %88, align 8
  %252 = bitcast %"class.std::__1::__compressed_pair.33"* %251 to %"struct.std::__1::__compressed_pair_elem.34"*, !dbg !8929
  store %"struct.std::__1::__compressed_pair_elem.34"* %252, %"struct.std::__1::__compressed_pair_elem.34"** %87, align 8
  %253 = load %"struct.std::__1::__compressed_pair_elem.34"*, %"struct.std::__1::__compressed_pair_elem.34"** %87, align 8
  %254 = getelementptr inbounds %"struct.std::__1::__compressed_pair_elem.34", %"struct.std::__1::__compressed_pair_elem.34"* %253, i32 0, i32 0, !dbg !8930
  %255 = load %"struct.altered_carbon::js::ACLexPosition"*, %"struct.altered_carbon::js::ACLexPosition"** %254, align 8, !dbg !8931
  store %"struct.altered_carbon::js::ACLexPosition"* %255, %"struct.altered_carbon::js::ACLexPosition"** %91, align 8, !dbg !8810
  %256 = load %"struct.altered_carbon::js::ACLexPosition"*, %"struct.altered_carbon::js::ACLexPosition"** %90, align 8, !dbg !8932
  %257 = getelementptr inbounds %"class.std::__1::unique_ptr.32", %"class.std::__1::unique_ptr.32"* %249, i32 0, i32 0, !dbg !8933
  store %"class.std::__1::__compressed_pair.33"* %257, %"class.std::__1::__compressed_pair.33"** %84, align 8
  %258 = load %"class.std::__1::__compressed_pair.33"*, %"class.std::__1::__compressed_pair.33"** %84, align 8
  %259 = bitcast %"class.std::__1::__compressed_pair.33"* %258 to %"struct.std::__1::__compressed_pair_elem.34"*, !dbg !8934
  store %"struct.std::__1::__compressed_pair_elem.34"* %259, %"struct.std::__1::__compressed_pair_elem.34"** %83, align 8
  %260 = load %"struct.std::__1::__compressed_pair_elem.34"*, %"struct.std::__1::__compressed_pair_elem.34"** %83, align 8
  %261 = getelementptr inbounds %"struct.std::__1::__compressed_pair_elem.34", %"struct.std::__1::__compressed_pair_elem.34"* %260, i32 0, i32 0, !dbg !8935
  store %"struct.altered_carbon::js::ACLexPosition"* %256, %"struct.altered_carbon::js::ACLexPosition"** %261, align 8, !dbg !8936
  %262 = load %"struct.altered_carbon::js::ACLexPosition"*, %"struct.altered_carbon::js::ACLexPosition"** %91, align 8, !dbg !8937
  %263 = icmp ne %"struct.altered_carbon::js::ACLexPosition"* %262, null, !dbg !8937
  br i1 %263, label %264, label %280, !dbg !8938

; <label>:264:                                    ; preds = %3
  %265 = getelementptr inbounds %"class.std::__1::unique_ptr.32", %"class.std::__1::unique_ptr.32"* %249, i32 0, i32 0, !dbg !8939
  store %"class.std::__1::__compressed_pair.33"* %265, %"class.std::__1::__compressed_pair.33"** %82, align 8
  %266 = load %"class.std::__1::__compressed_pair.33"*, %"class.std::__1::__compressed_pair.33"** %82, align 8
  %267 = bitcast %"class.std::__1::__compressed_pair.33"* %266 to %"struct.std::__1::__compressed_pair_elem.35"*, !dbg !8940
  store %"struct.std::__1::__compressed_pair_elem.35"* %267, %"struct.std::__1::__compressed_pair_elem.35"** %81, align 8
  %268 = load %"struct.std::__1::__compressed_pair_elem.35"*, %"struct.std::__1::__compressed_pair_elem.35"** %81, align 8
  %269 = bitcast %"struct.std::__1::__compressed_pair_elem.35"* %268 to %"struct.std::__1::default_delete.36"*, !dbg !8941
  %270 = load %"struct.altered_carbon::js::ACLexPosition"*, %"struct.altered_carbon::js::ACLexPosition"** %91, align 8, !dbg !8942
  store %"struct.std::__1::default_delete.36"* %269, %"struct.std::__1::default_delete.36"** %85, align 8
  store %"struct.altered_carbon::js::ACLexPosition"* %270, %"struct.altered_carbon::js::ACLexPosition"** %86, align 8
  %271 = load %"struct.std::__1::default_delete.36"*, %"struct.std::__1::default_delete.36"** %85, align 8
  %272 = load %"struct.altered_carbon::js::ACLexPosition"*, %"struct.altered_carbon::js::ACLexPosition"** %86, align 8, !dbg !8943
  %273 = icmp eq %"struct.altered_carbon::js::ACLexPosition"* %272, null, !dbg !8944
  br i1 %273, label %279, label %274, !dbg !8944

; <label>:274:                                    ; preds = %264
  %275 = bitcast %"struct.altered_carbon::js::ACLexPosition"* %272 to void (%"struct.altered_carbon::js::ACLexPosition"*)***, !dbg !8944
  %276 = load void (%"struct.altered_carbon::js::ACLexPosition"*)**, void (%"struct.altered_carbon::js::ACLexPosition"*)*** %275, align 8, !dbg !8944
  %277 = getelementptr inbounds void (%"struct.altered_carbon::js::ACLexPosition"*)*, void (%"struct.altered_carbon::js::ACLexPosition"*)** %276, i64 1, !dbg !8944
  %278 = load void (%"struct.altered_carbon::js::ACLexPosition"*)*, void (%"struct.altered_carbon::js::ACLexPosition"*)** %277, align 8, !dbg !8944
  call void %278(%"struct.altered_carbon::js::ACLexPosition"* %272) #2, !dbg !8944
  br label %279, !dbg !8944

; <label>:279:                                    ; preds = %274, %264
  br label %280, !dbg !8939

; <label>:280:                                    ; preds = %3, %279
  ret void, !dbg !8927
}

; Function Attrs: noinline nounwind optnone ssp uwtable
define linkonce_odr void @_ZN4llvm11make_uniqueIN14altered_carbon2js13ACLexPositionEJS3_EEENSt3__19enable_ifIXntsr3std8is_arrayIT_EE5valueENS4_10unique_ptrIS6_NS4_14default_deleteIS6_EEEEE4typeEDpOT0_(%"class.std::__1::unique_ptr.32"* noalias sret, %"struct.altered_carbon::js::ACLexPosition"* dereferenceable(32)) #1 !dbg !8945 {
  %3 = alloca %"struct.altered_carbon::js::ACLexPosition"**, align 8
  call void @llvm.dbg.declare(metadata %"struct.altered_carbon::js::ACLexPosition"*** %3, metadata !8957, metadata !DIExpression()), !dbg !8966
  %4 = alloca %"struct.std::__1::__compressed_pair_elem.34"*, align 8
  call void @llvm.dbg.declare(metadata %"struct.std::__1::__compressed_pair_elem.34"** %4, metadata !8988, metadata !DIExpression()), !dbg !8989
  %5 = alloca %"struct.altered_carbon::js::ACLexPosition"**, align 8
  call void @llvm.dbg.declare(metadata %"struct.altered_carbon::js::ACLexPosition"*** %5, metadata !8990, metadata !DIExpression()), !dbg !8991
  %6 = alloca %"struct.altered_carbon::js::ACLexPosition"**, align 8
  call void @llvm.dbg.declare(metadata %"struct.altered_carbon::js::ACLexPosition"*** %6, metadata !8957, metadata !DIExpression()), !dbg !8992
  %7 = alloca %"class.std::__1::__compressed_pair.33"*, align 8
  call void @llvm.dbg.declare(metadata %"class.std::__1::__compressed_pair.33"** %7, metadata !8994, metadata !DIExpression()), !dbg !8995
  %8 = alloca %"struct.altered_carbon::js::ACLexPosition"**, align 8
  call void @llvm.dbg.declare(metadata %"struct.altered_carbon::js::ACLexPosition"*** %8, metadata !8996, metadata !DIExpression()), !dbg !8997
  %9 = alloca %"class.std::__1::__compressed_pair.33"*, align 8
  call void @llvm.dbg.declare(metadata %"class.std::__1::__compressed_pair.33"** %9, metadata !8998, metadata !DIExpression()), !dbg !8999
  %10 = alloca %"struct.altered_carbon::js::ACLexPosition"**, align 8
  call void @llvm.dbg.declare(metadata %"struct.altered_carbon::js::ACLexPosition"*** %10, metadata !9000, metadata !DIExpression()), !dbg !9001
  %11 = alloca %"class.std::__1::unique_ptr.32"*, align 8
  call void @llvm.dbg.declare(metadata %"class.std::__1::unique_ptr.32"** %11, metadata !9002, metadata !DIExpression()), !dbg !9003
  %12 = alloca %"struct.altered_carbon::js::ACLexPosition"*, align 8
  call void @llvm.dbg.declare(metadata %"struct.altered_carbon::js::ACLexPosition"** %12, metadata !9004, metadata !DIExpression()), !dbg !9005
  %13 = alloca %"class.std::__1::unique_ptr.32"*, align 8
  call void @llvm.dbg.declare(metadata %"class.std::__1::unique_ptr.32"** %13, metadata !9006, metadata !DIExpression()), !dbg !9007
  %14 = alloca %"struct.altered_carbon::js::ACLexPosition"*, align 8
  call void @llvm.dbg.declare(metadata %"struct.altered_carbon::js::ACLexPosition"** %14, metadata !9008, metadata !DIExpression()), !dbg !9009
  %15 = alloca %"struct.altered_carbon::js::ACLexPosition"*, align 8
  call void @llvm.dbg.declare(metadata %"struct.altered_carbon::js::ACLexPosition"** %15, metadata !9010, metadata !DIExpression()), !dbg !9017
  %16 = alloca %"struct.altered_carbon::js::ACLexPosition"*, align 8
  store %"struct.altered_carbon::js::ACLexPosition"* %1, %"struct.altered_carbon::js::ACLexPosition"** %16, align 8
  call void @llvm.dbg.declare(metadata %"struct.altered_carbon::js::ACLexPosition"** %16, metadata !9019, metadata !DIExpression()), !dbg !9020
  %17 = call i8* @_Znwm(i64 32) #10, !dbg !9021
  %18 = bitcast i8* %17 to %"struct.altered_carbon::js::ACLexPosition"*, !dbg !9021
  %19 = load %"struct.altered_carbon::js::ACLexPosition"*, %"struct.altered_carbon::js::ACLexPosition"** %16, align 8, !dbg !9022
  store %"struct.altered_carbon::js::ACLexPosition"* %19, %"struct.altered_carbon::js::ACLexPosition"** %15, align 8
  %20 = load %"struct.altered_carbon::js::ACLexPosition"*, %"struct.altered_carbon::js::ACLexPosition"** %15, align 8, !dbg !9023
  call void @_ZN14altered_carbon2js13ACLexPositionC1ERKS1_(%"struct.altered_carbon::js::ACLexPosition"* %18, %"struct.altered_carbon::js::ACLexPosition"* dereferenceable(32) %20), !dbg !9024
  store %"class.std::__1::unique_ptr.32"* %0, %"class.std::__1::unique_ptr.32"** %13, align 8
  store %"struct.altered_carbon::js::ACLexPosition"* %18, %"struct.altered_carbon::js::ACLexPosition"** %14, align 8
  %21 = load %"class.std::__1::unique_ptr.32"*, %"class.std::__1::unique_ptr.32"** %13, align 8
  %22 = load %"struct.altered_carbon::js::ACLexPosition"*, %"struct.altered_carbon::js::ACLexPosition"** %14, align 8, !dbg !9025
  store %"class.std::__1::unique_ptr.32"* %21, %"class.std::__1::unique_ptr.32"** %11, align 8
  store %"struct.altered_carbon::js::ACLexPosition"* %22, %"struct.altered_carbon::js::ACLexPosition"** %12, align 8
  %23 = load %"class.std::__1::unique_ptr.32"*, %"class.std::__1::unique_ptr.32"** %11, align 8
  %24 = getelementptr inbounds %"class.std::__1::unique_ptr.32", %"class.std::__1::unique_ptr.32"* %23, i32 0, i32 0, !dbg !9026
  store %"class.std::__1::__compressed_pair.33"* %24, %"class.std::__1::__compressed_pair.33"** %9, align 8
  store %"struct.altered_carbon::js::ACLexPosition"** %12, %"struct.altered_carbon::js::ACLexPosition"*** %10, align 8
  %25 = load %"class.std::__1::__compressed_pair.33"*, %"class.std::__1::__compressed_pair.33"** %9, align 8
  %26 = load %"struct.altered_carbon::js::ACLexPosition"**, %"struct.altered_carbon::js::ACLexPosition"*** %10, align 8, !dbg !9027
  store %"class.std::__1::__compressed_pair.33"* %25, %"class.std::__1::__compressed_pair.33"** %7, align 8
  store %"struct.altered_carbon::js::ACLexPosition"** %26, %"struct.altered_carbon::js::ACLexPosition"*** %8, align 8
  %27 = load %"class.std::__1::__compressed_pair.33"*, %"class.std::__1::__compressed_pair.33"** %7, align 8
  %28 = bitcast %"class.std::__1::__compressed_pair.33"* %27 to %"struct.std::__1::__compressed_pair_elem.34"*, !dbg !9028
  %29 = load %"struct.altered_carbon::js::ACLexPosition"**, %"struct.altered_carbon::js::ACLexPosition"*** %8, align 8, !dbg !9029
  store %"struct.altered_carbon::js::ACLexPosition"** %29, %"struct.altered_carbon::js::ACLexPosition"*** %6, align 8
  %30 = load %"struct.altered_carbon::js::ACLexPosition"**, %"struct.altered_carbon::js::ACLexPosition"*** %6, align 8, !dbg !9030
  store %"struct.std::__1::__compressed_pair_elem.34"* %28, %"struct.std::__1::__compressed_pair_elem.34"** %4, align 8
  store %"struct.altered_carbon::js::ACLexPosition"** %30, %"struct.altered_carbon::js::ACLexPosition"*** %5, align 8
  %31 = load %"struct.std::__1::__compressed_pair_elem.34"*, %"struct.std::__1::__compressed_pair_elem.34"** %4, align 8
  %32 = getelementptr inbounds %"struct.std::__1::__compressed_pair_elem.34", %"struct.std::__1::__compressed_pair_elem.34"* %31, i32 0, i32 0, !dbg !9031
  %33 = load %"struct.altered_carbon::js::ACLexPosition"**, %"struct.altered_carbon::js::ACLexPosition"*** %5, align 8, !dbg !9032
  store %"struct.altered_carbon::js::ACLexPosition"** %33, %"struct.altered_carbon::js::ACLexPosition"*** %3, align 8
  %34 = load %"struct.altered_carbon::js::ACLexPosition"**, %"struct.altered_carbon::js::ACLexPosition"*** %3, align 8, !dbg !9033
  %35 = load %"struct.altered_carbon::js::ACLexPosition"*, %"struct.altered_carbon::js::ACLexPosition"** %34, align 8, !dbg !9034
  store %"struct.altered_carbon::js::ACLexPosition"* %35, %"struct.altered_carbon::js::ACLexPosition"** %32, align 8, !dbg !9031
  %36 = bitcast %"class.std::__1::__compressed_pair.33"* %27 to %"struct.std::__1::__compressed_pair_elem.35"*, !dbg !9028
  ret void, !dbg !9035
}

declare void @_ZN14altered_carbon2js13ACLexPositionC1EPKS1_(%"struct.altered_carbon::js::ACLexPosition"*, %"struct.altered_carbon::js::ACLexPosition"*) unnamed_addr #4

; Function Attrs: noinline nounwind optnone ssp uwtable
define linkonce_odr hidden void @_ZN14altered_carbon2js13ACLexPositionD1Ev(%"struct.altered_carbon::js::ACLexPosition"*) unnamed_addr #1 align 2 !dbg !9036 {
  %2 = alloca %"struct.altered_carbon::js::ACLexPosition"*, align 8
  store %"struct.altered_carbon::js::ACLexPosition"* %0, %"struct.altered_carbon::js::ACLexPosition"** %2, align 8
  call void @llvm.dbg.declare(metadata %"struct.altered_carbon::js::ACLexPosition"** %2, metadata !9037, metadata !DIExpression()), !dbg !9038
  %3 = load %"struct.altered_carbon::js::ACLexPosition"*, %"struct.altered_carbon::js::ACLexPosition"** %2, align 8
  call void @_ZN14altered_carbon2js13ACLexPositionD2Ev(%"struct.altered_carbon::js::ACLexPosition"* %3) #2, !dbg !9039
  ret void, !dbg !9040
}

; Function Attrs: noinline nounwind optnone ssp uwtable
define linkonce_odr hidden void @_ZNSt3__16vectorINS_10unique_ptrIN14altered_carbon2js13ACAstBaseNodeENS_14default_deleteIS4_EEEENS_9allocatorIS7_EEED1Ev(%"class.std::__1::vector.38"*) unnamed_addr #1 align 2 !dbg !9041 {
  %2 = alloca %"class.std::__1::vector.38"*, align 8
  store %"class.std::__1::vector.38"* %0, %"class.std::__1::vector.38"** %2, align 8
  call void @llvm.dbg.declare(metadata %"class.std::__1::vector.38"** %2, metadata !9043, metadata !DIExpression()), !dbg !9044
  %3 = load %"class.std::__1::vector.38"*, %"class.std::__1::vector.38"** %2, align 8
  call void @_ZNSt3__16vectorINS_10unique_ptrIN14altered_carbon2js13ACAstBaseNodeENS_14default_deleteIS4_EEEENS_9allocatorIS7_EEED2Ev(%"class.std::__1::vector.38"* %3) #2, !dbg !9045
  ret void, !dbg !9045
}

; Function Attrs: noinline nounwind optnone ssp uwtable
define void @_ZN14altered_carbon2js12ACAstBuilder15parseScriptBodyEbbb(%"class.std::__1::vector.38"* noalias sret, %"class.altered_carbon::js::ACAstBuilder"*, i1 zeroext, i1 zeroext, i1 zeroext) #1 align 2 !dbg !9046 {
  %6 = alloca %"struct.std::__1::__compressed_pair_elem.31"*, align 8
  call void @llvm.dbg.declare(metadata %"struct.std::__1::__compressed_pair_elem.31"** %6, metadata !9047, metadata !DIExpression()), !dbg !9050
  %7 = alloca %"class.std::__1::__compressed_pair.30"*, align 8
  call void @llvm.dbg.declare(metadata %"class.std::__1::__compressed_pair.30"** %7, metadata !9058, metadata !DIExpression()), !dbg !9060
  %8 = alloca %"class.std::__1::unique_ptr.29"*, align 8
  call void @llvm.dbg.declare(metadata %"class.std::__1::unique_ptr.29"** %8, metadata !9061, metadata !DIExpression()), !dbg !9062
  %9 = alloca %"class.std::__1::unique_ptr.29"*, align 8
  call void @llvm.dbg.declare(metadata %"class.std::__1::unique_ptr.29"** %9, metadata !9063, metadata !DIExpression()), !dbg !9072
  %10 = alloca %"struct.std::__1::__compressed_pair_elem.31"*, align 8
  call void @llvm.dbg.declare(metadata %"struct.std::__1::__compressed_pair_elem.31"** %10, metadata !9047, metadata !DIExpression()), !dbg !9074
  %11 = alloca %"class.std::__1::__compressed_pair.30"*, align 8
  call void @llvm.dbg.declare(metadata %"class.std::__1::__compressed_pair.30"** %11, metadata !9058, metadata !DIExpression()), !dbg !9080
  %12 = alloca %"class.std::__1::unique_ptr.29"*, align 8
  call void @llvm.dbg.declare(metadata %"class.std::__1::unique_ptr.29"** %12, metadata !9081, metadata !DIExpression()), !dbg !9082
  %13 = alloca %"struct.std::__1::__compressed_pair_elem.45"*, align 8
  call void @llvm.dbg.declare(metadata %"struct.std::__1::__compressed_pair_elem.45"** %13, metadata !9083, metadata !DIExpression()), !dbg !9086
  %14 = alloca %"class.std::__1::__compressed_pair.30"*, align 8
  call void @llvm.dbg.declare(metadata %"class.std::__1::__compressed_pair.30"** %14, metadata !9098, metadata !DIExpression()), !dbg !9099
  %15 = alloca %"struct.std::__1::__compressed_pair_elem.31"*, align 8
  call void @llvm.dbg.declare(metadata %"struct.std::__1::__compressed_pair_elem.31"** %15, metadata !9100, metadata !DIExpression()), !dbg !9102
  %16 = alloca %"class.std::__1::__compressed_pair.30"*, align 8
  call void @llvm.dbg.declare(metadata %"class.std::__1::__compressed_pair.30"** %16, metadata !9106, metadata !DIExpression()), !dbg !9107
  %17 = alloca %"struct.std::__1::default_delete.46"*, align 8
  call void @llvm.dbg.declare(metadata %"struct.std::__1::default_delete.46"** %17, metadata !9108, metadata !DIExpression()), !dbg !9111
  %18 = alloca %"class.altered_carbon::js::ACAstBaseNode"*, align 8
  call void @llvm.dbg.declare(metadata %"class.altered_carbon::js::ACAstBaseNode"** %18, metadata !9113, metadata !DIExpression()), !dbg !9114
  %19 = alloca %"struct.std::__1::__compressed_pair_elem.31"*, align 8
  call void @llvm.dbg.declare(metadata %"struct.std::__1::__compressed_pair_elem.31"** %19, metadata !9100, metadata !DIExpression()), !dbg !9115
  %20 = alloca %"class.std::__1::__compressed_pair.30"*, align 8
  call void @llvm.dbg.declare(metadata %"class.std::__1::__compressed_pair.30"** %20, metadata !9106, metadata !DIExpression()), !dbg !9118
  %21 = alloca %"class.std::__1::unique_ptr.29"*, align 8
  call void @llvm.dbg.declare(metadata %"class.std::__1::unique_ptr.29"** %21, metadata !9119, metadata !DIExpression()), !dbg !9120
  %22 = alloca %"class.altered_carbon::js::ACAstBaseNode"*, align 8
  call void @llvm.dbg.declare(metadata %"class.altered_carbon::js::ACAstBaseNode"** %22, metadata !9121, metadata !DIExpression()), !dbg !9122
  %23 = alloca %"class.altered_carbon::js::ACAstBaseNode"*, align 8
  call void @llvm.dbg.declare(metadata %"class.altered_carbon::js::ACAstBaseNode"** %23, metadata !9123, metadata !DIExpression()), !dbg !9124
  %24 = alloca %"class.std::__1::unique_ptr.29"*, align 8
  call void @llvm.dbg.declare(metadata %"class.std::__1::unique_ptr.29"** %24, metadata !9125, metadata !DIExpression()), !dbg !9126
  %25 = alloca %"class.std::__1::unique_ptr.29"*, align 8
  call void @llvm.dbg.declare(metadata %"class.std::__1::unique_ptr.29"** %25, metadata !9127, metadata !DIExpression()), !dbg !9128
  %26 = alloca %"struct.std::__1::__compressed_pair_elem.45"*, align 8
  call void @llvm.dbg.declare(metadata %"struct.std::__1::__compressed_pair_elem.45"** %26, metadata !9083, metadata !DIExpression()), !dbg !9129
  %27 = alloca %"class.std::__1::__compressed_pair.30"*, align 8
  call void @llvm.dbg.declare(metadata %"class.std::__1::__compressed_pair.30"** %27, metadata !9098, metadata !DIExpression()), !dbg !9135
  %28 = alloca %"struct.std::__1::__compressed_pair_elem.31"*, align 8
  call void @llvm.dbg.declare(metadata %"struct.std::__1::__compressed_pair_elem.31"** %28, metadata !9100, metadata !DIExpression()), !dbg !9136
  %29 = alloca %"class.std::__1::__compressed_pair.30"*, align 8
  call void @llvm.dbg.declare(metadata %"class.std::__1::__compressed_pair.30"** %29, metadata !9106, metadata !DIExpression()), !dbg !9139
  %30 = alloca %"struct.std::__1::default_delete.46"*, align 8
  call void @llvm.dbg.declare(metadata %"struct.std::__1::default_delete.46"** %30, metadata !9108, metadata !DIExpression()), !dbg !9140
  %31 = alloca %"class.altered_carbon::js::ACAstBaseNode"*, align 8
  call void @llvm.dbg.declare(metadata %"class.altered_carbon::js::ACAstBaseNode"** %31, metadata !9113, metadata !DIExpression()), !dbg !9142
  %32 = alloca %"struct.std::__1::__compressed_pair_elem.31"*, align 8
  call void @llvm.dbg.declare(metadata %"struct.std::__1::__compressed_pair_elem.31"** %32, metadata !9100, metadata !DIExpression()), !dbg !9143
  %33 = alloca %"class.std::__1::__compressed_pair.30"*, align 8
  call void @llvm.dbg.declare(metadata %"class.std::__1::__compressed_pair.30"** %33, metadata !9106, metadata !DIExpression()), !dbg !9146
  %34 = alloca %"class.std::__1::unique_ptr.29"*, align 8
  call void @llvm.dbg.declare(metadata %"class.std::__1::unique_ptr.29"** %34, metadata !9119, metadata !DIExpression()), !dbg !9147
  %35 = alloca %"class.altered_carbon::js::ACAstBaseNode"*, align 8
  call void @llvm.dbg.declare(metadata %"class.altered_carbon::js::ACAstBaseNode"** %35, metadata !9121, metadata !DIExpression()), !dbg !9148
  %36 = alloca %"class.altered_carbon::js::ACAstBaseNode"*, align 8
  call void @llvm.dbg.declare(metadata %"class.altered_carbon::js::ACAstBaseNode"** %36, metadata !9123, metadata !DIExpression()), !dbg !9149
  %37 = alloca %"struct.std::__1::__compressed_pair_elem.45"*, align 8
  call void @llvm.dbg.declare(metadata %"struct.std::__1::__compressed_pair_elem.45"** %37, metadata !9083, metadata !DIExpression()), !dbg !9150
  %38 = alloca %"class.std::__1::__compressed_pair.30"*, align 8
  call void @llvm.dbg.declare(metadata %"class.std::__1::__compressed_pair.30"** %38, metadata !9098, metadata !DIExpression()), !dbg !9155
  %39 = alloca %"class.std::__1::unique_ptr.29"*, align 8
  call void @llvm.dbg.declare(metadata %"class.std::__1::unique_ptr.29"** %39, metadata !9156, metadata !DIExpression()), !dbg !9157
  %40 = alloca %"struct.std::__1::default_delete.46"*, align 8
  call void @llvm.dbg.declare(metadata %"struct.std::__1::default_delete.46"** %40, metadata !9158, metadata !DIExpression()), !dbg !9167
  %41 = alloca %"struct.std::__1::__compressed_pair_elem.45"*, align 8
  call void @llvm.dbg.declare(metadata %"struct.std::__1::__compressed_pair_elem.45"** %41, metadata !9083, metadata !DIExpression()), !dbg !9169
  %42 = alloca %"class.std::__1::__compressed_pair.30"*, align 8
  call void @llvm.dbg.declare(metadata %"class.std::__1::__compressed_pair.30"** %42, metadata !9098, metadata !DIExpression()), !dbg !9172
  %43 = alloca %"struct.std::__1::__compressed_pair_elem.31"*, align 8
  call void @llvm.dbg.declare(metadata %"struct.std::__1::__compressed_pair_elem.31"** %43, metadata !9100, metadata !DIExpression()), !dbg !9173
  %44 = alloca %"class.std::__1::__compressed_pair.30"*, align 8
  call void @llvm.dbg.declare(metadata %"class.std::__1::__compressed_pair.30"** %44, metadata !9106, metadata !DIExpression()), !dbg !9178
  %45 = alloca %"struct.std::__1::__compressed_pair_elem.31"*, align 8
  call void @llvm.dbg.declare(metadata %"struct.std::__1::__compressed_pair_elem.31"** %45, metadata !9100, metadata !DIExpression()), !dbg !9179
  %46 = alloca %"class.std::__1::__compressed_pair.30"*, align 8
  call void @llvm.dbg.declare(metadata %"class.std::__1::__compressed_pair.30"** %46, metadata !9106, metadata !DIExpression()), !dbg !9182
  %47 = alloca %"class.std::__1::unique_ptr.29"*, align 8
  call void @llvm.dbg.declare(metadata %"class.std::__1::unique_ptr.29"** %47, metadata !9183, metadata !DIExpression()), !dbg !9184
  %48 = alloca %"class.altered_carbon::js::ACAstBaseNode"*, align 8
  call void @llvm.dbg.declare(metadata %"class.altered_carbon::js::ACAstBaseNode"** %48, metadata !9185, metadata !DIExpression()), !dbg !9186
  %49 = alloca %"class.std::__1::unique_ptr.29"*, align 8
  call void @llvm.dbg.declare(metadata %"class.std::__1::unique_ptr.29"** %49, metadata !9187, metadata !DIExpression()), !dbg !9188
  %50 = alloca %"class.std::__1::unique_ptr.29"*, align 8
  call void @llvm.dbg.declare(metadata %"class.std::__1::unique_ptr.29"** %50, metadata !9189, metadata !DIExpression()), !dbg !9190
  %51 = alloca %"struct.std::__1::__compressed_pair_elem.42"*, align 8
  call void @llvm.dbg.declare(metadata %"struct.std::__1::__compressed_pair_elem.42"** %51, metadata !8599, metadata !DIExpression()), !dbg !9191
  %52 = alloca %"class.std::__1::__compressed_pair.40"*, align 8
  call void @llvm.dbg.declare(metadata %"class.std::__1::__compressed_pair.40"** %52, metadata !8607, metadata !DIExpression()), !dbg !9199
  %53 = alloca %"class.std::__1::__vector_base.39"*, align 8
  call void @llvm.dbg.declare(metadata %"class.std::__1::__vector_base.39"** %53, metadata !8609, metadata !DIExpression()), !dbg !9200
  %54 = alloca %"class.std::__1::unique_ptr.29"*, align 8
  call void @llvm.dbg.declare(metadata %"class.std::__1::unique_ptr.29"** %54, metadata !9201, metadata !DIExpression()), !dbg !9205
  %55 = alloca %"class.std::__1::unique_ptr.29"*, align 8
  call void @llvm.dbg.declare(metadata %"class.std::__1::unique_ptr.29"** %55, metadata !9063, metadata !DIExpression()), !dbg !9207
  %56 = alloca %"struct.std::__1::__compressed_pair_elem.45"*, align 8
  call void @llvm.dbg.declare(metadata %"struct.std::__1::__compressed_pair_elem.45"** %56, metadata !9083, metadata !DIExpression()), !dbg !9209
  %57 = alloca %"class.std::__1::__compressed_pair.30"*, align 8
  call void @llvm.dbg.declare(metadata %"class.std::__1::__compressed_pair.30"** %57, metadata !9098, metadata !DIExpression()), !dbg !9238
  %58 = alloca %"class.std::__1::unique_ptr.29"*, align 8
  call void @llvm.dbg.declare(metadata %"class.std::__1::unique_ptr.29"** %58, metadata !9156, metadata !DIExpression()), !dbg !9239
  %59 = alloca %"struct.std::__1::default_delete.46"*, align 8
  call void @llvm.dbg.declare(metadata %"struct.std::__1::default_delete.46"** %59, metadata !9158, metadata !DIExpression()), !dbg !9240
  %60 = alloca %"class.altered_carbon::js::ACAstBaseNode"**, align 8
  call void @llvm.dbg.declare(metadata %"class.altered_carbon::js::ACAstBaseNode"*** %60, metadata !9242, metadata !DIExpression()), !dbg !9251
  %61 = alloca %"struct.std::__1::__compressed_pair_elem.31"*, align 8
  call void @llvm.dbg.declare(metadata %"struct.std::__1::__compressed_pair_elem.31"** %61, metadata !9270, metadata !DIExpression()), !dbg !9271
  %62 = alloca %"class.altered_carbon::js::ACAstBaseNode"**, align 8
  call void @llvm.dbg.declare(metadata %"class.altered_carbon::js::ACAstBaseNode"*** %62, metadata !9272, metadata !DIExpression()), !dbg !9273
  %63 = alloca %"struct.std::__1::default_delete.46"*, align 8
  call void @llvm.dbg.declare(metadata %"struct.std::__1::default_delete.46"** %63, metadata !9158, metadata !DIExpression()), !dbg !9274
  %64 = alloca %"struct.std::__1::default_delete.46"*, align 8
  call void @llvm.dbg.declare(metadata %"struct.std::__1::default_delete.46"** %64, metadata !9158, metadata !DIExpression()), !dbg !9276
  %65 = alloca %"struct.std::__1::__compressed_pair_elem.45"*, align 8
  call void @llvm.dbg.declare(metadata %"struct.std::__1::__compressed_pair_elem.45"** %65, metadata !9285, metadata !DIExpression()), !dbg !9286
  %66 = alloca %"struct.std::__1::default_delete.46"*, align 8
  call void @llvm.dbg.declare(metadata %"struct.std::__1::default_delete.46"** %66, metadata !9287, metadata !DIExpression()), !dbg !9288
  %67 = alloca %"class.altered_carbon::js::ACAstBaseNode"**, align 8
  call void @llvm.dbg.declare(metadata %"class.altered_carbon::js::ACAstBaseNode"*** %67, metadata !9242, metadata !DIExpression()), !dbg !9289
  %68 = alloca %"class.std::__1::__compressed_pair.30"*, align 8
  call void @llvm.dbg.declare(metadata %"class.std::__1::__compressed_pair.30"** %68, metadata !9291, metadata !DIExpression()), !dbg !9292
  %69 = alloca %"class.altered_carbon::js::ACAstBaseNode"**, align 8
  call void @llvm.dbg.declare(metadata %"class.altered_carbon::js::ACAstBaseNode"*** %69, metadata !9293, metadata !DIExpression()), !dbg !9294
  %70 = alloca %"struct.std::__1::default_delete.46"*, align 8
  call void @llvm.dbg.declare(metadata %"struct.std::__1::default_delete.46"** %70, metadata !9295, metadata !DIExpression()), !dbg !9296
  %71 = alloca %"class.std::__1::__compressed_pair.30"*, align 8
  call void @llvm.dbg.declare(metadata %"class.std::__1::__compressed_pair.30"** %71, metadata !9297, metadata !DIExpression()), !dbg !9298
  %72 = alloca %"class.altered_carbon::js::ACAstBaseNode"**, align 8
  call void @llvm.dbg.declare(metadata %"class.altered_carbon::js::ACAstBaseNode"*** %72, metadata !9299, metadata !DIExpression()), !dbg !9300
  %73 = alloca %"struct.std::__1::default_delete.46"*, align 8
  call void @llvm.dbg.declare(metadata %"struct.std::__1::default_delete.46"** %73, metadata !9301, metadata !DIExpression()), !dbg !9302
  %74 = alloca %"struct.std::__1::__compressed_pair_elem.31"*, align 8
  call void @llvm.dbg.declare(metadata %"struct.std::__1::__compressed_pair_elem.31"** %74, metadata !9100, metadata !DIExpression()), !dbg !9303
  %75 = alloca %"class.std::__1::__compressed_pair.30"*, align 8
  call void @llvm.dbg.declare(metadata %"class.std::__1::__compressed_pair.30"** %75, metadata !9106, metadata !DIExpression()), !dbg !9307
  %76 = alloca %"struct.std::__1::__compressed_pair_elem.31"*, align 8
  call void @llvm.dbg.declare(metadata %"struct.std::__1::__compressed_pair_elem.31"** %76, metadata !9100, metadata !DIExpression()), !dbg !9308
  %77 = alloca %"class.std::__1::__compressed_pair.30"*, align 8
  call void @llvm.dbg.declare(metadata %"class.std::__1::__compressed_pair.30"** %77, metadata !9106, metadata !DIExpression()), !dbg !9311
  %78 = alloca %"class.std::__1::unique_ptr.29"*, align 8
  call void @llvm.dbg.declare(metadata %"class.std::__1::unique_ptr.29"** %78, metadata !9183, metadata !DIExpression()), !dbg !9312
  %79 = alloca %"class.altered_carbon::js::ACAstBaseNode"*, align 8
  call void @llvm.dbg.declare(metadata %"class.altered_carbon::js::ACAstBaseNode"** %79, metadata !9185, metadata !DIExpression()), !dbg !9313
  %80 = alloca %"class.std::__1::unique_ptr.29"*, align 8
  call void @llvm.dbg.declare(metadata %"class.std::__1::unique_ptr.29"** %80, metadata !9314, metadata !DIExpression()), !dbg !9315
  %81 = alloca %"class.std::__1::unique_ptr.29"*, align 8
  call void @llvm.dbg.declare(metadata %"class.std::__1::unique_ptr.29"** %81, metadata !9316, metadata !DIExpression()), !dbg !9317
  %82 = alloca %"class.altered_carbon::js::ACAstBaseNode"*, align 8
  %83 = alloca %"class.std::__1::unique_ptr.29"*, align 8
  call void @llvm.dbg.declare(metadata %"class.std::__1::unique_ptr.29"** %83, metadata !9318, metadata !DIExpression()), !dbg !9319
  %84 = alloca %"class.std::__1::unique_ptr.29"*, align 8
  call void @llvm.dbg.declare(metadata %"class.std::__1::unique_ptr.29"** %84, metadata !9320, metadata !DIExpression()), !dbg !9321
  %85 = alloca %"class.std::__1::unique_ptr.29"*, align 8
  call void @llvm.dbg.declare(metadata %"class.std::__1::unique_ptr.29"** %85, metadata !9322, metadata !DIExpression()), !dbg !9329
  %86 = alloca %"class.std::__1::allocator.43"*, align 8
  call void @llvm.dbg.declare(metadata %"class.std::__1::allocator.43"** %86, metadata !9331, metadata !DIExpression()), !dbg !9333
  %87 = alloca %"class.std::__1::unique_ptr.29"*, align 8
  call void @llvm.dbg.declare(metadata %"class.std::__1::unique_ptr.29"** %87, metadata !9334, metadata !DIExpression()), !dbg !9335
  %88 = alloca %"class.std::__1::unique_ptr.29"*, align 8
  call void @llvm.dbg.declare(metadata %"class.std::__1::unique_ptr.29"** %88, metadata !9336, metadata !DIExpression()), !dbg !9337
  %89 = alloca %"class.std::__1::unique_ptr.29"*, align 8
  call void @llvm.dbg.declare(metadata %"class.std::__1::unique_ptr.29"** %89, metadata !9322, metadata !DIExpression()), !dbg !9338
  %90 = alloca %"class.std::__1::allocator.43"*, align 8
  call void @llvm.dbg.declare(metadata %"class.std::__1::allocator.43"** %90, metadata !9340, metadata !DIExpression()), !dbg !9341
  %91 = alloca %"class.std::__1::unique_ptr.29"*, align 8
  call void @llvm.dbg.declare(metadata %"class.std::__1::unique_ptr.29"** %91, metadata !9342, metadata !DIExpression()), !dbg !9343
  %92 = alloca %"class.std::__1::unique_ptr.29"*, align 8
  call void @llvm.dbg.declare(metadata %"class.std::__1::unique_ptr.29"** %92, metadata !9344, metadata !DIExpression()), !dbg !9345
  %93 = alloca %"class.std::__1::unique_ptr.29"*, align 8
  call void @llvm.dbg.declare(metadata %"class.std::__1::unique_ptr.29"** %93, metadata !9322, metadata !DIExpression()), !dbg !9346
  %94 = alloca %"class.std::__1::allocator.43"*, align 8
  call void @llvm.dbg.declare(metadata %"class.std::__1::allocator.43"** %94, metadata !9348, metadata !DIExpression()), !dbg !9349
  %95 = alloca %"class.std::__1::unique_ptr.29"*, align 8
  call void @llvm.dbg.declare(metadata %"class.std::__1::unique_ptr.29"** %95, metadata !9350, metadata !DIExpression()), !dbg !9351
  %96 = alloca %"class.std::__1::unique_ptr.29"*, align 8
  call void @llvm.dbg.declare(metadata %"class.std::__1::unique_ptr.29"** %96, metadata !9352, metadata !DIExpression()), !dbg !9353
  %97 = alloca %"struct.std::__1::__has_construct", align 1
  %98 = alloca %"struct.std::__1::vector<std::__1::unique_ptr<altered_carbon::js::ACAstBaseNode, std::__1::default_delete<altered_carbon::js::ACAstBaseNode> >, std::__1::allocator<std::__1::unique_ptr<altered_carbon::js::ACAstBaseNode, std::__1::default_delete<altered_carbon::js::ACAstBaseNode> > > >::__RAII_IncreaseAnnotator"*, align 8
  call void @llvm.dbg.declare(metadata %"struct.std::__1::vector<std::__1::unique_ptr<altered_carbon::js::ACAstBaseNode, std::__1::default_delete<altered_carbon::js::ACAstBaseNode> >, std::__1::allocator<std::__1::unique_ptr<altered_carbon::js::ACAstBaseNode, std::__1::default_delete<altered_carbon::js::ACAstBaseNode> > > >::__RAII_IncreaseAnnotator"** %98, metadata !9354, metadata !DIExpression()), !dbg !9366
  %99 = alloca %"class.std::__1::unique_ptr.29"*, align 8
  call void @llvm.dbg.declare(metadata %"class.std::__1::unique_ptr.29"** %99, metadata !9063, metadata !DIExpression()), !dbg !9368
  %100 = alloca %"struct.std::__1::vector<std::__1::unique_ptr<altered_carbon::js::ACAstBaseNode, std::__1::default_delete<altered_carbon::js::ACAstBaseNode> >, std::__1::allocator<std::__1::unique_ptr<altered_carbon::js::ACAstBaseNode, std::__1::default_delete<altered_carbon::js::ACAstBaseNode> > > >::__RAII_IncreaseAnnotator"*, align 8
  call void @llvm.dbg.declare(metadata %"struct.std::__1::vector<std::__1::unique_ptr<altered_carbon::js::ACAstBaseNode, std::__1::default_delete<altered_carbon::js::ACAstBaseNode> >, std::__1::allocator<std::__1::unique_ptr<altered_carbon::js::ACAstBaseNode, std::__1::default_delete<altered_carbon::js::ACAstBaseNode> > > >::__RAII_IncreaseAnnotator"** %100, metadata !9370, metadata !DIExpression()), !dbg !9372
  %101 = alloca %"class.std::__1::vector.38"*, align 8
  call void @llvm.dbg.declare(metadata %"class.std::__1::vector.38"** %101, metadata !9376, metadata !DIExpression()), !dbg !9377
  %102 = alloca i64, align 8
  call void @llvm.dbg.declare(metadata i64* %102, metadata !9378, metadata !DIExpression()), !dbg !9379
  %103 = alloca %"struct.std::__1::vector<std::__1::unique_ptr<altered_carbon::js::ACAstBaseNode, std::__1::default_delete<altered_carbon::js::ACAstBaseNode> >, std::__1::allocator<std::__1::unique_ptr<altered_carbon::js::ACAstBaseNode, std::__1::default_delete<altered_carbon::js::ACAstBaseNode> > > >::__RAII_IncreaseAnnotator"*, align 8
  call void @llvm.dbg.declare(metadata %"struct.std::__1::vector<std::__1::unique_ptr<altered_carbon::js::ACAstBaseNode, std::__1::default_delete<altered_carbon::js::ACAstBaseNode> >, std::__1::allocator<std::__1::unique_ptr<altered_carbon::js::ACAstBaseNode, std::__1::default_delete<altered_carbon::js::ACAstBaseNode> > > >::__RAII_IncreaseAnnotator"** %103, metadata !9380, metadata !DIExpression()), !dbg !9381
  %104 = alloca %"class.std::__1::vector.38"*, align 8
  call void @llvm.dbg.declare(metadata %"class.std::__1::vector.38"** %104, metadata !9382, metadata !DIExpression()), !dbg !9383
  %105 = alloca i64, align 8
  call void @llvm.dbg.declare(metadata i64* %105, metadata !9384, metadata !DIExpression()), !dbg !9385
  %106 = alloca %"struct.std::__1::__compressed_pair_elem.41"*, align 8
  call void @llvm.dbg.declare(metadata %"struct.std::__1::__compressed_pair_elem.41"** %106, metadata !8574, metadata !DIExpression()), !dbg !9386
  %107 = alloca %"class.std::__1::__compressed_pair.40"*, align 8
  call void @llvm.dbg.declare(metadata %"class.std::__1::__compressed_pair.40"** %107, metadata !8583, metadata !DIExpression()), !dbg !9390
  %108 = alloca %"class.std::__1::__vector_base.39"*, align 8
  call void @llvm.dbg.declare(metadata %"class.std::__1::__vector_base.39"** %108, metadata !8585, metadata !DIExpression()), !dbg !9391
  %109 = alloca %"class.std::__1::vector.38"*, align 8
  call void @llvm.dbg.declare(metadata %"class.std::__1::vector.38"** %109, metadata !9392, metadata !DIExpression()), !dbg !9393
  %110 = alloca %"class.std::__1::unique_ptr.29"*, align 8
  call void @llvm.dbg.declare(metadata %"class.std::__1::unique_ptr.29"** %110, metadata !9394, metadata !DIExpression()), !dbg !9395
  %111 = alloca %"struct.std::__1::vector<std::__1::unique_ptr<altered_carbon::js::ACAstBaseNode, std::__1::default_delete<altered_carbon::js::ACAstBaseNode> >, std::__1::allocator<std::__1::unique_ptr<altered_carbon::js::ACAstBaseNode, std::__1::default_delete<altered_carbon::js::ACAstBaseNode> > > >::__RAII_IncreaseAnnotator", align 1
  call void @llvm.dbg.declare(metadata %"struct.std::__1::vector<std::__1::unique_ptr<altered_carbon::js::ACAstBaseNode, std::__1::default_delete<altered_carbon::js::ACAstBaseNode> >, std::__1::allocator<std::__1::unique_ptr<altered_carbon::js::ACAstBaseNode, std::__1::default_delete<altered_carbon::js::ACAstBaseNode> > > >::__RAII_IncreaseAnnotator"* %111, metadata !9396, metadata !DIExpression()), !dbg !9397
  %112 = alloca %"struct.std::__1::__compressed_pair_elem.16"*, align 8
  call void @llvm.dbg.declare(metadata %"struct.std::__1::__compressed_pair_elem.16"** %112, metadata !8191, metadata !DIExpression()), !dbg !9398
  %113 = alloca %"class.std::__1::__compressed_pair.15"*, align 8
  call void @llvm.dbg.declare(metadata %"class.std::__1::__compressed_pair.15"** %113, metadata !8200, metadata !DIExpression()), !dbg !9407
  %114 = alloca %"class.std::__1::unique_ptr"*, align 8
  call void @llvm.dbg.declare(metadata %"class.std::__1::unique_ptr"** %114, metadata !8203, metadata !DIExpression()), !dbg !9408
  %115 = alloca %"struct.std::__1::__compressed_pair_elem.16"*, align 8
  call void @llvm.dbg.declare(metadata %"struct.std::__1::__compressed_pair_elem.16"** %115, metadata !8191, metadata !DIExpression()), !dbg !9409
  %116 = alloca %"class.std::__1::__compressed_pair.15"*, align 8
  call void @llvm.dbg.declare(metadata %"class.std::__1::__compressed_pair.15"** %116, metadata !8200, metadata !DIExpression()), !dbg !9414
  %117 = alloca %"class.std::__1::unique_ptr"*, align 8
  call void @llvm.dbg.declare(metadata %"class.std::__1::unique_ptr"** %117, metadata !8203, metadata !DIExpression()), !dbg !9415
  %118 = alloca %"struct.std::__1::__compressed_pair_elem"*, align 8
  call void @llvm.dbg.declare(metadata %"struct.std::__1::__compressed_pair_elem"** %118, metadata !9416, metadata !DIExpression()), !dbg !9419
  %119 = alloca %"class.std::__1::__compressed_pair"*, align 8
  call void @llvm.dbg.declare(metadata %"class.std::__1::__compressed_pair"** %119, metadata !9429, metadata !DIExpression()), !dbg !9431
  %120 = alloca %"class.std::__1::basic_string"*, align 8
  call void @llvm.dbg.declare(metadata %"class.std::__1::basic_string"** %120, metadata !9432, metadata !DIExpression()), !dbg !9434
  %121 = alloca %"struct.std::__1::__compressed_pair_elem"*, align 8
  call void @llvm.dbg.declare(metadata %"struct.std::__1::__compressed_pair_elem"** %121, metadata !9416, metadata !DIExpression()), !dbg !9435
  %122 = alloca %"class.std::__1::__compressed_pair"*, align 8
  call void @llvm.dbg.declare(metadata %"class.std::__1::__compressed_pair"** %122, metadata !9429, metadata !DIExpression()), !dbg !9440
  %123 = alloca %"class.std::__1::basic_string"*, align 8
  call void @llvm.dbg.declare(metadata %"class.std::__1::basic_string"** %123, metadata !9441, metadata !DIExpression()), !dbg !9442
  %124 = alloca %"struct.std::__1::__compressed_pair_elem"*, align 8
  call void @llvm.dbg.declare(metadata %"struct.std::__1::__compressed_pair_elem"** %124, metadata !9416, metadata !DIExpression()), !dbg !9443
  %125 = alloca %"class.std::__1::__compressed_pair"*, align 8
  call void @llvm.dbg.declare(metadata %"class.std::__1::__compressed_pair"** %125, metadata !9429, metadata !DIExpression()), !dbg !9448
  %126 = alloca %"class.std::__1::basic_string"*, align 8
  call void @llvm.dbg.declare(metadata %"class.std::__1::basic_string"** %126, metadata !9449, metadata !DIExpression()), !dbg !9450
  %127 = alloca %"class.std::__1::basic_string"*, align 8
  call void @llvm.dbg.declare(metadata %"class.std::__1::basic_string"** %127, metadata !9451, metadata !DIExpression()), !dbg !9452
  %128 = alloca %"class.std::__1::basic_string"*, align 8
  call void @llvm.dbg.declare(metadata %"class.std::__1::basic_string"** %128, metadata !9453, metadata !DIExpression()), !dbg !9454
  %129 = alloca %"struct.std::__1::__compressed_pair_elem.31"*, align 8
  call void @llvm.dbg.declare(metadata %"struct.std::__1::__compressed_pair_elem.31"** %129, metadata !9047, metadata !DIExpression()), !dbg !9455
  %130 = alloca %"class.std::__1::__compressed_pair.30"*, align 8
  call void @llvm.dbg.declare(metadata %"class.std::__1::__compressed_pair.30"** %130, metadata !9058, metadata !DIExpression()), !dbg !9461
  %131 = alloca %"class.std::__1::unique_ptr.29"*, align 8
  call void @llvm.dbg.declare(metadata %"class.std::__1::unique_ptr.29"** %131, metadata !9081, metadata !DIExpression()), !dbg !9462
  %132 = alloca %"class.std::__1::vector.38"*, align 8
  call void @llvm.dbg.declare(metadata %"class.std::__1::vector.38"** %132, metadata !9463, metadata !DIExpression()), !dbg !9465
  %133 = alloca %"struct.std::__1::__compressed_pair_elem.42"*, align 8
  call void @llvm.dbg.declare(metadata %"struct.std::__1::__compressed_pair_elem.42"** %133, metadata !8599, metadata !DIExpression()), !dbg !9467
  %134 = alloca %"class.std::__1::__compressed_pair.40"*, align 8
  call void @llvm.dbg.declare(metadata %"class.std::__1::__compressed_pair.40"** %134, metadata !8607, metadata !DIExpression()), !dbg !9472
  %135 = alloca %"class.std::__1::__vector_base.39"*, align 8
  call void @llvm.dbg.declare(metadata %"class.std::__1::__vector_base.39"** %135, metadata !8609, metadata !DIExpression()), !dbg !9473
  %136 = alloca %"class.std::__1::unique_ptr.29"*, align 8
  call void @llvm.dbg.declare(metadata %"class.std::__1::unique_ptr.29"** %136, metadata !9201, metadata !DIExpression()), !dbg !9474
  %137 = alloca %"class.std::__1::unique_ptr.29"*, align 8
  call void @llvm.dbg.declare(metadata %"class.std::__1::unique_ptr.29"** %137, metadata !9063, metadata !DIExpression()), !dbg !9476
  %138 = alloca %"struct.std::__1::__compressed_pair_elem.45"*, align 8
  call void @llvm.dbg.declare(metadata %"struct.std::__1::__compressed_pair_elem.45"** %138, metadata !9083, metadata !DIExpression()), !dbg !9478
  %139 = alloca %"class.std::__1::__compressed_pair.30"*, align 8
  call void @llvm.dbg.declare(metadata %"class.std::__1::__compressed_pair.30"** %139, metadata !9098, metadata !DIExpression()), !dbg !9487
  %140 = alloca %"class.std::__1::unique_ptr.29"*, align 8
  call void @llvm.dbg.declare(metadata %"class.std::__1::unique_ptr.29"** %140, metadata !9156, metadata !DIExpression()), !dbg !9488
  %141 = alloca %"struct.std::__1::default_delete.46"*, align 8
  call void @llvm.dbg.declare(metadata %"struct.std::__1::default_delete.46"** %141, metadata !9158, metadata !DIExpression()), !dbg !9489
  %142 = alloca %"class.altered_carbon::js::ACAstBaseNode"**, align 8
  call void @llvm.dbg.declare(metadata %"class.altered_carbon::js::ACAstBaseNode"*** %142, metadata !9242, metadata !DIExpression()), !dbg !9491
  %143 = alloca %"struct.std::__1::__compressed_pair_elem.31"*, align 8
  call void @llvm.dbg.declare(metadata %"struct.std::__1::__compressed_pair_elem.31"** %143, metadata !9270, metadata !DIExpression()), !dbg !9496
  %144 = alloca %"class.altered_carbon::js::ACAstBaseNode"**, align 8
  call void @llvm.dbg.declare(metadata %"class.altered_carbon::js::ACAstBaseNode"*** %144, metadata !9272, metadata !DIExpression()), !dbg !9497
  %145 = alloca %"struct.std::__1::default_delete.46"*, align 8
  call void @llvm.dbg.declare(metadata %"struct.std::__1::default_delete.46"** %145, metadata !9158, metadata !DIExpression()), !dbg !9498
  %146 = alloca %"struct.std::__1::default_delete.46"*, align 8
  call void @llvm.dbg.declare(metadata %"struct.std::__1::default_delete.46"** %146, metadata !9158, metadata !DIExpression()), !dbg !9500
  %147 = alloca %"struct.std::__1::__compressed_pair_elem.45"*, align 8
  call void @llvm.dbg.declare(metadata %"struct.std::__1::__compressed_pair_elem.45"** %147, metadata !9285, metadata !DIExpression()), !dbg !9503
  %148 = alloca %"struct.std::__1::default_delete.46"*, align 8
  call void @llvm.dbg.declare(metadata %"struct.std::__1::default_delete.46"** %148, metadata !9287, metadata !DIExpression()), !dbg !9504
  %149 = alloca %"class.altered_carbon::js::ACAstBaseNode"**, align 8
  call void @llvm.dbg.declare(metadata %"class.altered_carbon::js::ACAstBaseNode"*** %149, metadata !9242, metadata !DIExpression()), !dbg !9505
  %150 = alloca %"class.std::__1::__compressed_pair.30"*, align 8
  call void @llvm.dbg.declare(metadata %"class.std::__1::__compressed_pair.30"** %150, metadata !9291, metadata !DIExpression()), !dbg !9507
  %151 = alloca %"class.altered_carbon::js::ACAstBaseNode"**, align 8
  call void @llvm.dbg.declare(metadata %"class.altered_carbon::js::ACAstBaseNode"*** %151, metadata !9293, metadata !DIExpression()), !dbg !9508
  %152 = alloca %"struct.std::__1::default_delete.46"*, align 8
  call void @llvm.dbg.declare(metadata %"struct.std::__1::default_delete.46"** %152, metadata !9295, metadata !DIExpression()), !dbg !9509
  %153 = alloca %"class.std::__1::__compressed_pair.30"*, align 8
  call void @llvm.dbg.declare(metadata %"class.std::__1::__compressed_pair.30"** %153, metadata !9297, metadata !DIExpression()), !dbg !9510
  %154 = alloca %"class.altered_carbon::js::ACAstBaseNode"**, align 8
  call void @llvm.dbg.declare(metadata %"class.altered_carbon::js::ACAstBaseNode"*** %154, metadata !9299, metadata !DIExpression()), !dbg !9511
  %155 = alloca %"struct.std::__1::default_delete.46"*, align 8
  call void @llvm.dbg.declare(metadata %"struct.std::__1::default_delete.46"** %155, metadata !9301, metadata !DIExpression()), !dbg !9512
  %156 = alloca %"struct.std::__1::__compressed_pair_elem.31"*, align 8
  call void @llvm.dbg.declare(metadata %"struct.std::__1::__compressed_pair_elem.31"** %156, metadata !9100, metadata !DIExpression()), !dbg !9513
  %157 = alloca %"class.std::__1::__compressed_pair.30"*, align 8
  call void @llvm.dbg.declare(metadata %"class.std::__1::__compressed_pair.30"** %157, metadata !9106, metadata !DIExpression()), !dbg !9517
  %158 = alloca %"struct.std::__1::__compressed_pair_elem.31"*, align 8
  call void @llvm.dbg.declare(metadata %"struct.std::__1::__compressed_pair_elem.31"** %158, metadata !9100, metadata !DIExpression()), !dbg !9518
  %159 = alloca %"class.std::__1::__compressed_pair.30"*, align 8
  call void @llvm.dbg.declare(metadata %"class.std::__1::__compressed_pair.30"** %159, metadata !9106, metadata !DIExpression()), !dbg !9521
  %160 = alloca %"class.std::__1::unique_ptr.29"*, align 8
  call void @llvm.dbg.declare(metadata %"class.std::__1::unique_ptr.29"** %160, metadata !9183, metadata !DIExpression()), !dbg !9522
  %161 = alloca %"class.altered_carbon::js::ACAstBaseNode"*, align 8
  call void @llvm.dbg.declare(metadata %"class.altered_carbon::js::ACAstBaseNode"** %161, metadata !9185, metadata !DIExpression()), !dbg !9523
  %162 = alloca %"class.std::__1::unique_ptr.29"*, align 8
  call void @llvm.dbg.declare(metadata %"class.std::__1::unique_ptr.29"** %162, metadata !9314, metadata !DIExpression()), !dbg !9524
  %163 = alloca %"class.std::__1::unique_ptr.29"*, align 8
  call void @llvm.dbg.declare(metadata %"class.std::__1::unique_ptr.29"** %163, metadata !9316, metadata !DIExpression()), !dbg !9525
  %164 = alloca %"class.altered_carbon::js::ACAstBaseNode"*, align 8
  %165 = alloca %"class.std::__1::unique_ptr.29"*, align 8
  call void @llvm.dbg.declare(metadata %"class.std::__1::unique_ptr.29"** %165, metadata !9318, metadata !DIExpression()), !dbg !9526
  %166 = alloca %"class.std::__1::unique_ptr.29"*, align 8
  call void @llvm.dbg.declare(metadata %"class.std::__1::unique_ptr.29"** %166, metadata !9320, metadata !DIExpression()), !dbg !9527
  %167 = alloca %"class.std::__1::unique_ptr.29"*, align 8
  call void @llvm.dbg.declare(metadata %"class.std::__1::unique_ptr.29"** %167, metadata !9322, metadata !DIExpression()), !dbg !9528
  %168 = alloca %"class.std::__1::allocator.43"*, align 8
  call void @llvm.dbg.declare(metadata %"class.std::__1::allocator.43"** %168, metadata !9331, metadata !DIExpression()), !dbg !9530
  %169 = alloca %"class.std::__1::unique_ptr.29"*, align 8
  call void @llvm.dbg.declare(metadata %"class.std::__1::unique_ptr.29"** %169, metadata !9334, metadata !DIExpression()), !dbg !9531
  %170 = alloca %"class.std::__1::unique_ptr.29"*, align 8
  call void @llvm.dbg.declare(metadata %"class.std::__1::unique_ptr.29"** %170, metadata !9336, metadata !DIExpression()), !dbg !9532
  %171 = alloca %"class.std::__1::unique_ptr.29"*, align 8
  call void @llvm.dbg.declare(metadata %"class.std::__1::unique_ptr.29"** %171, metadata !9322, metadata !DIExpression()), !dbg !9533
  %172 = alloca %"class.std::__1::allocator.43"*, align 8
  call void @llvm.dbg.declare(metadata %"class.std::__1::allocator.43"** %172, metadata !9340, metadata !DIExpression()), !dbg !9535
  %173 = alloca %"class.std::__1::unique_ptr.29"*, align 8
  call void @llvm.dbg.declare(metadata %"class.std::__1::unique_ptr.29"** %173, metadata !9342, metadata !DIExpression()), !dbg !9536
  %174 = alloca %"class.std::__1::unique_ptr.29"*, align 8
  call void @llvm.dbg.declare(metadata %"class.std::__1::unique_ptr.29"** %174, metadata !9344, metadata !DIExpression()), !dbg !9537
  %175 = alloca %"class.std::__1::unique_ptr.29"*, align 8
  call void @llvm.dbg.declare(metadata %"class.std::__1::unique_ptr.29"** %175, metadata !9322, metadata !DIExpression()), !dbg !9538
  %176 = alloca %"class.std::__1::allocator.43"*, align 8
  call void @llvm.dbg.declare(metadata %"class.std::__1::allocator.43"** %176, metadata !9348, metadata !DIExpression()), !dbg !9540
  %177 = alloca %"class.std::__1::unique_ptr.29"*, align 8
  call void @llvm.dbg.declare(metadata %"class.std::__1::unique_ptr.29"** %177, metadata !9350, metadata !DIExpression()), !dbg !9541
  %178 = alloca %"class.std::__1::unique_ptr.29"*, align 8
  call void @llvm.dbg.declare(metadata %"class.std::__1::unique_ptr.29"** %178, metadata !9352, metadata !DIExpression()), !dbg !9542
  %179 = alloca %"struct.std::__1::__has_construct", align 1
  %180 = alloca %"struct.std::__1::vector<std::__1::unique_ptr<altered_carbon::js::ACAstBaseNode, std::__1::default_delete<altered_carbon::js::ACAstBaseNode> >, std::__1::allocator<std::__1::unique_ptr<altered_carbon::js::ACAstBaseNode, std::__1::default_delete<altered_carbon::js::ACAstBaseNode> > > >::__RAII_IncreaseAnnotator"*, align 8
  call void @llvm.dbg.declare(metadata %"struct.std::__1::vector<std::__1::unique_ptr<altered_carbon::js::ACAstBaseNode, std::__1::default_delete<altered_carbon::js::ACAstBaseNode> >, std::__1::allocator<std::__1::unique_ptr<altered_carbon::js::ACAstBaseNode, std::__1::default_delete<altered_carbon::js::ACAstBaseNode> > > >::__RAII_IncreaseAnnotator"** %180, metadata !9354, metadata !DIExpression()), !dbg !9543
  %181 = alloca %"class.std::__1::unique_ptr.29"*, align 8
  call void @llvm.dbg.declare(metadata %"class.std::__1::unique_ptr.29"** %181, metadata !9063, metadata !DIExpression()), !dbg !9545
  %182 = alloca %"struct.std::__1::vector<std::__1::unique_ptr<altered_carbon::js::ACAstBaseNode, std::__1::default_delete<altered_carbon::js::ACAstBaseNode> >, std::__1::allocator<std::__1::unique_ptr<altered_carbon::js::ACAstBaseNode, std::__1::default_delete<altered_carbon::js::ACAstBaseNode> > > >::__RAII_IncreaseAnnotator"*, align 8
  call void @llvm.dbg.declare(metadata %"struct.std::__1::vector<std::__1::unique_ptr<altered_carbon::js::ACAstBaseNode, std::__1::default_delete<altered_carbon::js::ACAstBaseNode> >, std::__1::allocator<std::__1::unique_ptr<altered_carbon::js::ACAstBaseNode, std::__1::default_delete<altered_carbon::js::ACAstBaseNode> > > >::__RAII_IncreaseAnnotator"** %182, metadata !9370, metadata !DIExpression()), !dbg !9547
  %183 = alloca %"class.std::__1::vector.38"*, align 8
  call void @llvm.dbg.declare(metadata %"class.std::__1::vector.38"** %183, metadata !9376, metadata !DIExpression()), !dbg !9550
  %184 = alloca i64, align 8
  call void @llvm.dbg.declare(metadata i64* %184, metadata !9378, metadata !DIExpression()), !dbg !9551
  %185 = alloca %"struct.std::__1::vector<std::__1::unique_ptr<altered_carbon::js::ACAstBaseNode, std::__1::default_delete<altered_carbon::js::ACAstBaseNode> >, std::__1::allocator<std::__1::unique_ptr<altered_carbon::js::ACAstBaseNode, std::__1::default_delete<altered_carbon::js::ACAstBaseNode> > > >::__RAII_IncreaseAnnotator"*, align 8
  call void @llvm.dbg.declare(metadata %"struct.std::__1::vector<std::__1::unique_ptr<altered_carbon::js::ACAstBaseNode, std::__1::default_delete<altered_carbon::js::ACAstBaseNode> >, std::__1::allocator<std::__1::unique_ptr<altered_carbon::js::ACAstBaseNode, std::__1::default_delete<altered_carbon::js::ACAstBaseNode> > > >::__RAII_IncreaseAnnotator"** %185, metadata !9380, metadata !DIExpression()), !dbg !9552
  %186 = alloca %"class.std::__1::vector.38"*, align 8
  call void @llvm.dbg.declare(metadata %"class.std::__1::vector.38"** %186, metadata !9382, metadata !DIExpression()), !dbg !9553
  %187 = alloca i64, align 8
  call void @llvm.dbg.declare(metadata i64* %187, metadata !9384, metadata !DIExpression()), !dbg !9554
  %188 = alloca %"struct.std::__1::__compressed_pair_elem.41"*, align 8
  call void @llvm.dbg.declare(metadata %"struct.std::__1::__compressed_pair_elem.41"** %188, metadata !8574, metadata !DIExpression()), !dbg !9555
  %189 = alloca %"class.std::__1::__compressed_pair.40"*, align 8
  call void @llvm.dbg.declare(metadata %"class.std::__1::__compressed_pair.40"** %189, metadata !8583, metadata !DIExpression()), !dbg !9559
  %190 = alloca %"class.std::__1::__vector_base.39"*, align 8
  call void @llvm.dbg.declare(metadata %"class.std::__1::__vector_base.39"** %190, metadata !8585, metadata !DIExpression()), !dbg !9560
  %191 = alloca %"class.std::__1::vector.38"*, align 8
  call void @llvm.dbg.declare(metadata %"class.std::__1::vector.38"** %191, metadata !9392, metadata !DIExpression()), !dbg !9561
  %192 = alloca %"class.std::__1::unique_ptr.29"*, align 8
  call void @llvm.dbg.declare(metadata %"class.std::__1::unique_ptr.29"** %192, metadata !9394, metadata !DIExpression()), !dbg !9562
  %193 = alloca %"struct.std::__1::vector<std::__1::unique_ptr<altered_carbon::js::ACAstBaseNode, std::__1::default_delete<altered_carbon::js::ACAstBaseNode> >, std::__1::allocator<std::__1::unique_ptr<altered_carbon::js::ACAstBaseNode, std::__1::default_delete<altered_carbon::js::ACAstBaseNode> > > >::__RAII_IncreaseAnnotator", align 1
  call void @llvm.dbg.declare(metadata %"struct.std::__1::vector<std::__1::unique_ptr<altered_carbon::js::ACAstBaseNode, std::__1::default_delete<altered_carbon::js::ACAstBaseNode> >, std::__1::allocator<std::__1::unique_ptr<altered_carbon::js::ACAstBaseNode, std::__1::default_delete<altered_carbon::js::ACAstBaseNode> > > >::__RAII_IncreaseAnnotator"* %193, metadata !9396, metadata !DIExpression()), !dbg !9563
  %194 = alloca %"class.std::__1::unique_ptr.29"*, align 8
  call void @llvm.dbg.declare(metadata %"class.std::__1::unique_ptr.29"** %194, metadata !9063, metadata !DIExpression()), !dbg !9564
  %195 = alloca %"struct.std::__1::__compressed_pair_elem.45"*, align 8
  call void @llvm.dbg.declare(metadata %"struct.std::__1::__compressed_pair_elem.45"** %195, metadata !9083, metadata !DIExpression()), !dbg !9566
  %196 = alloca %"class.std::__1::__compressed_pair.30"*, align 8
  call void @llvm.dbg.declare(metadata %"class.std::__1::__compressed_pair.30"** %196, metadata !9098, metadata !DIExpression()), !dbg !9572
  %197 = alloca %"struct.std::__1::__compressed_pair_elem.31"*, align 8
  call void @llvm.dbg.declare(metadata %"struct.std::__1::__compressed_pair_elem.31"** %197, metadata !9100, metadata !DIExpression()), !dbg !9573
  %198 = alloca %"class.std::__1::__compressed_pair.30"*, align 8
  call void @llvm.dbg.declare(metadata %"class.std::__1::__compressed_pair.30"** %198, metadata !9106, metadata !DIExpression()), !dbg !9576
  %199 = alloca %"struct.std::__1::default_delete.46"*, align 8
  call void @llvm.dbg.declare(metadata %"struct.std::__1::default_delete.46"** %199, metadata !9108, metadata !DIExpression()), !dbg !9577
  %200 = alloca %"class.altered_carbon::js::ACAstBaseNode"*, align 8
  call void @llvm.dbg.declare(metadata %"class.altered_carbon::js::ACAstBaseNode"** %200, metadata !9113, metadata !DIExpression()), !dbg !9579
  %201 = alloca %"struct.std::__1::__compressed_pair_elem.31"*, align 8
  call void @llvm.dbg.declare(metadata %"struct.std::__1::__compressed_pair_elem.31"** %201, metadata !9100, metadata !DIExpression()), !dbg !9580
  %202 = alloca %"class.std::__1::__compressed_pair.30"*, align 8
  call void @llvm.dbg.declare(metadata %"class.std::__1::__compressed_pair.30"** %202, metadata !9106, metadata !DIExpression()), !dbg !9583
  %203 = alloca %"class.std::__1::unique_ptr.29"*, align 8
  call void @llvm.dbg.declare(metadata %"class.std::__1::unique_ptr.29"** %203, metadata !9119, metadata !DIExpression()), !dbg !9584
  %204 = alloca %"class.altered_carbon::js::ACAstBaseNode"*, align 8
  call void @llvm.dbg.declare(metadata %"class.altered_carbon::js::ACAstBaseNode"** %204, metadata !9121, metadata !DIExpression()), !dbg !9585
  %205 = alloca %"class.altered_carbon::js::ACAstBaseNode"*, align 8
  call void @llvm.dbg.declare(metadata %"class.altered_carbon::js::ACAstBaseNode"** %205, metadata !9123, metadata !DIExpression()), !dbg !9586
  %206 = alloca %"class.std::__1::unique_ptr.29"*, align 8
  call void @llvm.dbg.declare(metadata %"class.std::__1::unique_ptr.29"** %206, metadata !9125, metadata !DIExpression()), !dbg !9587
  %207 = alloca %"class.std::__1::unique_ptr.29"*, align 8
  call void @llvm.dbg.declare(metadata %"class.std::__1::unique_ptr.29"** %207, metadata !9127, metadata !DIExpression()), !dbg !9588
  %208 = alloca %"struct.std::__1::__compressed_pair_elem.45"*, align 8
  call void @llvm.dbg.declare(metadata %"struct.std::__1::__compressed_pair_elem.45"** %208, metadata !9083, metadata !DIExpression()), !dbg !9589
  %209 = alloca %"class.std::__1::__compressed_pair.30"*, align 8
  call void @llvm.dbg.declare(metadata %"class.std::__1::__compressed_pair.30"** %209, metadata !9098, metadata !DIExpression()), !dbg !9594
  %210 = alloca %"struct.std::__1::__compressed_pair_elem.31"*, align 8
  call void @llvm.dbg.declare(metadata %"struct.std::__1::__compressed_pair_elem.31"** %210, metadata !9100, metadata !DIExpression()), !dbg !9595
  %211 = alloca %"class.std::__1::__compressed_pair.30"*, align 8
  call void @llvm.dbg.declare(metadata %"class.std::__1::__compressed_pair.30"** %211, metadata !9106, metadata !DIExpression()), !dbg !9598
  %212 = alloca %"struct.std::__1::default_delete.46"*, align 8
  call void @llvm.dbg.declare(metadata %"struct.std::__1::default_delete.46"** %212, metadata !9108, metadata !DIExpression()), !dbg !9599
  %213 = alloca %"class.altered_carbon::js::ACAstBaseNode"*, align 8
  call void @llvm.dbg.declare(metadata %"class.altered_carbon::js::ACAstBaseNode"** %213, metadata !9113, metadata !DIExpression()), !dbg !9601
  %214 = alloca %"struct.std::__1::__compressed_pair_elem.31"*, align 8
  call void @llvm.dbg.declare(metadata %"struct.std::__1::__compressed_pair_elem.31"** %214, metadata !9100, metadata !DIExpression()), !dbg !9602
  %215 = alloca %"class.std::__1::__compressed_pair.30"*, align 8
  call void @llvm.dbg.declare(metadata %"class.std::__1::__compressed_pair.30"** %215, metadata !9106, metadata !DIExpression()), !dbg !9605
  %216 = alloca %"class.std::__1::unique_ptr.29"*, align 8
  call void @llvm.dbg.declare(metadata %"class.std::__1::unique_ptr.29"** %216, metadata !9119, metadata !DIExpression()), !dbg !9606
  %217 = alloca %"class.altered_carbon::js::ACAstBaseNode"*, align 8
  call void @llvm.dbg.declare(metadata %"class.altered_carbon::js::ACAstBaseNode"** %217, metadata !9121, metadata !DIExpression()), !dbg !9607
  %218 = alloca %"class.altered_carbon::js::ACAstBaseNode"*, align 8
  call void @llvm.dbg.declare(metadata %"class.altered_carbon::js::ACAstBaseNode"** %218, metadata !9123, metadata !DIExpression()), !dbg !9608
  %219 = alloca %"struct.std::__1::__compressed_pair_elem.45"*, align 8
  call void @llvm.dbg.declare(metadata %"struct.std::__1::__compressed_pair_elem.45"** %219, metadata !9083, metadata !DIExpression()), !dbg !9609
  %220 = alloca %"class.std::__1::__compressed_pair.30"*, align 8
  call void @llvm.dbg.declare(metadata %"class.std::__1::__compressed_pair.30"** %220, metadata !9098, metadata !DIExpression()), !dbg !9613
  %221 = alloca %"class.std::__1::unique_ptr.29"*, align 8
  call void @llvm.dbg.declare(metadata %"class.std::__1::unique_ptr.29"** %221, metadata !9156, metadata !DIExpression()), !dbg !9614
  %222 = alloca %"struct.std::__1::default_delete.46"*, align 8
  call void @llvm.dbg.declare(metadata %"struct.std::__1::default_delete.46"** %222, metadata !9158, metadata !DIExpression()), !dbg !9615
  %223 = alloca %"struct.std::__1::__compressed_pair_elem.45"*, align 8
  call void @llvm.dbg.declare(metadata %"struct.std::__1::__compressed_pair_elem.45"** %223, metadata !9083, metadata !DIExpression()), !dbg !9617
  %224 = alloca %"class.std::__1::__compressed_pair.30"*, align 8
  call void @llvm.dbg.declare(metadata %"class.std::__1::__compressed_pair.30"** %224, metadata !9098, metadata !DIExpression()), !dbg !9620
  %225 = alloca %"struct.std::__1::__compressed_pair_elem.31"*, align 8
  call void @llvm.dbg.declare(metadata %"struct.std::__1::__compressed_pair_elem.31"** %225, metadata !9100, metadata !DIExpression()), !dbg !9621
  %226 = alloca %"class.std::__1::__compressed_pair.30"*, align 8
  call void @llvm.dbg.declare(metadata %"class.std::__1::__compressed_pair.30"** %226, metadata !9106, metadata !DIExpression()), !dbg !9625
  %227 = alloca %"struct.std::__1::__compressed_pair_elem.31"*, align 8
  call void @llvm.dbg.declare(metadata %"struct.std::__1::__compressed_pair_elem.31"** %227, metadata !9100, metadata !DIExpression()), !dbg !9626
  %228 = alloca %"class.std::__1::__compressed_pair.30"*, align 8
  call void @llvm.dbg.declare(metadata %"class.std::__1::__compressed_pair.30"** %228, metadata !9106, metadata !DIExpression()), !dbg !9629
  %229 = alloca %"class.std::__1::unique_ptr.29"*, align 8
  call void @llvm.dbg.declare(metadata %"class.std::__1::unique_ptr.29"** %229, metadata !9183, metadata !DIExpression()), !dbg !9630
  %230 = alloca %"class.altered_carbon::js::ACAstBaseNode"*, align 8
  call void @llvm.dbg.declare(metadata %"class.altered_carbon::js::ACAstBaseNode"** %230, metadata !9185, metadata !DIExpression()), !dbg !9631
  %231 = alloca %"class.std::__1::unique_ptr.29"*, align 8
  call void @llvm.dbg.declare(metadata %"class.std::__1::unique_ptr.29"** %231, metadata !9187, metadata !DIExpression()), !dbg !9632
  %232 = alloca %"class.std::__1::unique_ptr.29"*, align 8
  call void @llvm.dbg.declare(metadata %"class.std::__1::unique_ptr.29"** %232, metadata !9189, metadata !DIExpression()), !dbg !9633
  %233 = alloca %"struct.std::__1::__compressed_pair_elem.16"*, align 8
  call void @llvm.dbg.declare(metadata %"struct.std::__1::__compressed_pair_elem.16"** %233, metadata !8191, metadata !DIExpression()), !dbg !9634
  %234 = alloca %"class.std::__1::__compressed_pair.15"*, align 8
  call void @llvm.dbg.declare(metadata %"class.std::__1::__compressed_pair.15"** %234, metadata !8200, metadata !DIExpression()), !dbg !9639
  %235 = alloca %"class.std::__1::unique_ptr"*, align 8
  call void @llvm.dbg.declare(metadata %"class.std::__1::unique_ptr"** %235, metadata !8203, metadata !DIExpression()), !dbg !9640
  %236 = alloca %"struct.std::__1::__compressed_pair_elem"*, align 8
  call void @llvm.dbg.declare(metadata %"struct.std::__1::__compressed_pair_elem"** %236, metadata !9416, metadata !DIExpression()), !dbg !9641
  %237 = alloca %"class.std::__1::__compressed_pair"*, align 8
  call void @llvm.dbg.declare(metadata %"class.std::__1::__compressed_pair"** %237, metadata !9429, metadata !DIExpression()), !dbg !9647
  %238 = alloca %"class.std::__1::basic_string"*, align 8
  call void @llvm.dbg.declare(metadata %"class.std::__1::basic_string"** %238, metadata !9432, metadata !DIExpression()), !dbg !9648
  %239 = alloca %"struct.std::__1::__compressed_pair_elem"*, align 8
  call void @llvm.dbg.declare(metadata %"struct.std::__1::__compressed_pair_elem"** %239, metadata !9416, metadata !DIExpression()), !dbg !9649
  %240 = alloca %"class.std::__1::__compressed_pair"*, align 8
  call void @llvm.dbg.declare(metadata %"class.std::__1::__compressed_pair"** %240, metadata !9429, metadata !DIExpression()), !dbg !9653
  %241 = alloca %"class.std::__1::basic_string"*, align 8
  call void @llvm.dbg.declare(metadata %"class.std::__1::basic_string"** %241, metadata !9441, metadata !DIExpression()), !dbg !9654
  %242 = alloca %"struct.std::__1::__compressed_pair_elem"*, align 8
  call void @llvm.dbg.declare(metadata %"struct.std::__1::__compressed_pair_elem"** %242, metadata !9416, metadata !DIExpression()), !dbg !9655
  %243 = alloca %"class.std::__1::__compressed_pair"*, align 8
  call void @llvm.dbg.declare(metadata %"class.std::__1::__compressed_pair"** %243, metadata !9429, metadata !DIExpression()), !dbg !9659
  %244 = alloca %"class.std::__1::basic_string"*, align 8
  call void @llvm.dbg.declare(metadata %"class.std::__1::basic_string"** %244, metadata !9449, metadata !DIExpression()), !dbg !9660
  %245 = alloca %"class.std::__1::basic_string"*, align 8
  call void @llvm.dbg.declare(metadata %"class.std::__1::basic_string"** %245, metadata !9451, metadata !DIExpression()), !dbg !9661
  %246 = alloca %"class.std::__1::basic_string"*, align 8
  call void @llvm.dbg.declare(metadata %"class.std::__1::basic_string"** %246, metadata !9453, metadata !DIExpression()), !dbg !9662
  %247 = alloca %"struct.std::__1::__compressed_pair_elem.25"*, align 8
  call void @llvm.dbg.declare(metadata %"struct.std::__1::__compressed_pair_elem.25"** %247, metadata !8214, metadata !DIExpression()), !dbg !9663
  %248 = alloca %"class.std::__1::__compressed_pair.15"*, align 8
  call void @llvm.dbg.declare(metadata %"class.std::__1::__compressed_pair.15"** %248, metadata !8230, metadata !DIExpression()), !dbg !9673
  %249 = alloca %"struct.std::__1::__compressed_pair_elem.16"*, align 8
  call void @llvm.dbg.declare(metadata %"struct.std::__1::__compressed_pair_elem.16"** %249, metadata !8233, metadata !DIExpression()), !dbg !9674
  %250 = alloca %"class.std::__1::__compressed_pair.15"*, align 8
  call void @llvm.dbg.declare(metadata %"class.std::__1::__compressed_pair.15"** %250, metadata !8240, metadata !DIExpression()), !dbg !9677
  %251 = alloca %"struct.std::__1::default_delete"*, align 8
  call void @llvm.dbg.declare(metadata %"struct.std::__1::default_delete"** %251, metadata !8242, metadata !DIExpression()), !dbg !9678
  %252 = alloca %"class.altered_carbon::js::ACLexToken"*, align 8
  call void @llvm.dbg.declare(metadata %"class.altered_carbon::js::ACLexToken"** %252, metadata !8247, metadata !DIExpression()), !dbg !9680
  %253 = alloca %"struct.std::__1::__compressed_pair_elem.16"*, align 8
  call void @llvm.dbg.declare(metadata %"struct.std::__1::__compressed_pair_elem.16"** %253, metadata !8233, metadata !DIExpression()), !dbg !9681
  %254 = alloca %"class.std::__1::__compressed_pair.15"*, align 8
  call void @llvm.dbg.declare(metadata %"class.std::__1::__compressed_pair.15"** %254, metadata !8240, metadata !DIExpression()), !dbg !9684
  %255 = alloca %"class.std::__1::unique_ptr"*, align 8
  call void @llvm.dbg.declare(metadata %"class.std::__1::unique_ptr"** %255, metadata !8253, metadata !DIExpression()), !dbg !9685
  %256 = alloca %"class.altered_carbon::js::ACLexToken"*, align 8
  call void @llvm.dbg.declare(metadata %"class.altered_carbon::js::ACLexToken"** %256, metadata !8256, metadata !DIExpression()), !dbg !9686
  %257 = alloca %"class.altered_carbon::js::ACLexToken"*, align 8
  call void @llvm.dbg.declare(metadata %"class.altered_carbon::js::ACLexToken"** %257, metadata !8258, metadata !DIExpression()), !dbg !9687
  %258 = alloca %"class.std::__1::unique_ptr"*, align 8
  call void @llvm.dbg.declare(metadata %"class.std::__1::unique_ptr"** %258, metadata !8260, metadata !DIExpression()), !dbg !9688
  %259 = alloca %"class.std::__1::unique_ptr"*, align 8
  call void @llvm.dbg.declare(metadata %"class.std::__1::unique_ptr"** %259, metadata !8262, metadata !DIExpression()), !dbg !9689
  %260 = alloca %"struct.std::__1::__compressed_pair_elem.16"*, align 8
  call void @llvm.dbg.declare(metadata %"struct.std::__1::__compressed_pair_elem.16"** %260, metadata !8191, metadata !DIExpression()), !dbg !9690
  %261 = alloca %"class.std::__1::__compressed_pair.15"*, align 8
  call void @llvm.dbg.declare(metadata %"class.std::__1::__compressed_pair.15"** %261, metadata !8200, metadata !DIExpression()), !dbg !9694
  %262 = alloca %"class.std::__1::unique_ptr"*, align 8
  call void @llvm.dbg.declare(metadata %"class.std::__1::unique_ptr"** %262, metadata !8203, metadata !DIExpression()), !dbg !9695
  %263 = alloca %"struct.std::__1::__compressed_pair_elem.25"*, align 8
  call void @llvm.dbg.declare(metadata %"struct.std::__1::__compressed_pair_elem.25"** %263, metadata !8214, metadata !DIExpression()), !dbg !9696
  %264 = alloca %"class.std::__1::__compressed_pair.15"*, align 8
  call void @llvm.dbg.declare(metadata %"class.std::__1::__compressed_pair.15"** %264, metadata !8230, metadata !DIExpression()), !dbg !9703
  %265 = alloca %"struct.std::__1::__compressed_pair_elem.16"*, align 8
  call void @llvm.dbg.declare(metadata %"struct.std::__1::__compressed_pair_elem.16"** %265, metadata !8233, metadata !DIExpression()), !dbg !9704
  %266 = alloca %"class.std::__1::__compressed_pair.15"*, align 8
  call void @llvm.dbg.declare(metadata %"class.std::__1::__compressed_pair.15"** %266, metadata !8240, metadata !DIExpression()), !dbg !9707
  %267 = alloca %"struct.std::__1::default_delete"*, align 8
  call void @llvm.dbg.declare(metadata %"struct.std::__1::default_delete"** %267, metadata !8242, metadata !DIExpression()), !dbg !9708
  %268 = alloca %"class.altered_carbon::js::ACLexToken"*, align 8
  call void @llvm.dbg.declare(metadata %"class.altered_carbon::js::ACLexToken"** %268, metadata !8247, metadata !DIExpression()), !dbg !9710
  %269 = alloca %"struct.std::__1::__compressed_pair_elem.16"*, align 8
  call void @llvm.dbg.declare(metadata %"struct.std::__1::__compressed_pair_elem.16"** %269, metadata !8233, metadata !DIExpression()), !dbg !9711
  %270 = alloca %"class.std::__1::__compressed_pair.15"*, align 8
  call void @llvm.dbg.declare(metadata %"class.std::__1::__compressed_pair.15"** %270, metadata !8240, metadata !DIExpression()), !dbg !9714
  %271 = alloca %"class.std::__1::unique_ptr"*, align 8
  call void @llvm.dbg.declare(metadata %"class.std::__1::unique_ptr"** %271, metadata !8253, metadata !DIExpression()), !dbg !9715
  %272 = alloca %"class.altered_carbon::js::ACLexToken"*, align 8
  call void @llvm.dbg.declare(metadata %"class.altered_carbon::js::ACLexToken"** %272, metadata !8256, metadata !DIExpression()), !dbg !9716
  %273 = alloca %"class.altered_carbon::js::ACLexToken"*, align 8
  call void @llvm.dbg.declare(metadata %"class.altered_carbon::js::ACLexToken"** %273, metadata !8258, metadata !DIExpression()), !dbg !9717
  %274 = alloca %"class.std::__1::unique_ptr"*, align 8
  call void @llvm.dbg.declare(metadata %"class.std::__1::unique_ptr"** %274, metadata !8260, metadata !DIExpression()), !dbg !9718
  %275 = alloca %"class.std::__1::unique_ptr"*, align 8
  call void @llvm.dbg.declare(metadata %"class.std::__1::unique_ptr"** %275, metadata !8262, metadata !DIExpression()), !dbg !9719
  %276 = alloca %"struct.std::__1::__compressed_pair_elem.25"*, align 8
  call void @llvm.dbg.declare(metadata %"struct.std::__1::__compressed_pair_elem.25"** %276, metadata !8214, metadata !DIExpression()), !dbg !9720
  %277 = alloca %"class.std::__1::__compressed_pair.15"*, align 8
  call void @llvm.dbg.declare(metadata %"class.std::__1::__compressed_pair.15"** %277, metadata !8230, metadata !DIExpression()), !dbg !9726
  %278 = alloca %"struct.std::__1::__compressed_pair_elem.16"*, align 8
  call void @llvm.dbg.declare(metadata %"struct.std::__1::__compressed_pair_elem.16"** %278, metadata !8233, metadata !DIExpression()), !dbg !9727
  %279 = alloca %"class.std::__1::__compressed_pair.15"*, align 8
  call void @llvm.dbg.declare(metadata %"class.std::__1::__compressed_pair.15"** %279, metadata !8240, metadata !DIExpression()), !dbg !9730
  %280 = alloca %"struct.std::__1::default_delete"*, align 8
  call void @llvm.dbg.declare(metadata %"struct.std::__1::default_delete"** %280, metadata !8242, metadata !DIExpression()), !dbg !9731
  %281 = alloca %"class.altered_carbon::js::ACLexToken"*, align 8
  call void @llvm.dbg.declare(metadata %"class.altered_carbon::js::ACLexToken"** %281, metadata !8247, metadata !DIExpression()), !dbg !9733
  %282 = alloca %"struct.std::__1::__compressed_pair_elem.16"*, align 8
  call void @llvm.dbg.declare(metadata %"struct.std::__1::__compressed_pair_elem.16"** %282, metadata !8233, metadata !DIExpression()), !dbg !9734
  %283 = alloca %"class.std::__1::__compressed_pair.15"*, align 8
  call void @llvm.dbg.declare(metadata %"class.std::__1::__compressed_pair.15"** %283, metadata !8240, metadata !DIExpression()), !dbg !9737
  %284 = alloca %"class.std::__1::unique_ptr"*, align 8
  call void @llvm.dbg.declare(metadata %"class.std::__1::unique_ptr"** %284, metadata !8253, metadata !DIExpression()), !dbg !9738
  %285 = alloca %"class.altered_carbon::js::ACLexToken"*, align 8
  call void @llvm.dbg.declare(metadata %"class.altered_carbon::js::ACLexToken"** %285, metadata !8256, metadata !DIExpression()), !dbg !9739
  %286 = alloca %"class.altered_carbon::js::ACLexToken"*, align 8
  call void @llvm.dbg.declare(metadata %"class.altered_carbon::js::ACLexToken"** %286, metadata !8258, metadata !DIExpression()), !dbg !9740
  %287 = alloca %"class.std::__1::unique_ptr"*, align 8
  call void @llvm.dbg.declare(metadata %"class.std::__1::unique_ptr"** %287, metadata !8260, metadata !DIExpression()), !dbg !9741
  %288 = alloca %"class.std::__1::unique_ptr"*, align 8
  call void @llvm.dbg.declare(metadata %"class.std::__1::unique_ptr"** %288, metadata !8262, metadata !DIExpression()), !dbg !9742
  %289 = alloca %"struct.std::__1::__compressed_pair_elem.16"*, align 8
  call void @llvm.dbg.declare(metadata %"struct.std::__1::__compressed_pair_elem.16"** %289, metadata !8191, metadata !DIExpression()), !dbg !9743
  %290 = alloca %"class.std::__1::__compressed_pair.15"*, align 8
  call void @llvm.dbg.declare(metadata %"class.std::__1::__compressed_pair.15"** %290, metadata !8200, metadata !DIExpression()), !dbg !9749
  %291 = alloca %"class.std::__1::unique_ptr"*, align 8
  call void @llvm.dbg.declare(metadata %"class.std::__1::unique_ptr"** %291, metadata !8203, metadata !DIExpression()), !dbg !9750
  %292 = alloca %"struct.std::__1::__compressed_pair_elem.45"*, align 8
  call void @llvm.dbg.declare(metadata %"struct.std::__1::__compressed_pair_elem.45"** %292, metadata !9083, metadata !DIExpression()), !dbg !9751
  %293 = alloca %"class.std::__1::__compressed_pair.30"*, align 8
  call void @llvm.dbg.declare(metadata %"class.std::__1::__compressed_pair.30"** %293, metadata !9098, metadata !DIExpression()), !dbg !9757
  %294 = alloca %"struct.std::__1::__compressed_pair_elem.31"*, align 8
  call void @llvm.dbg.declare(metadata %"struct.std::__1::__compressed_pair_elem.31"** %294, metadata !9100, metadata !DIExpression()), !dbg !9758
  %295 = alloca %"class.std::__1::__compressed_pair.30"*, align 8
  call void @llvm.dbg.declare(metadata %"class.std::__1::__compressed_pair.30"** %295, metadata !9106, metadata !DIExpression()), !dbg !9761
  %296 = alloca %"struct.std::__1::default_delete.46"*, align 8
  call void @llvm.dbg.declare(metadata %"struct.std::__1::default_delete.46"** %296, metadata !9108, metadata !DIExpression()), !dbg !9762
  %297 = alloca %"class.altered_carbon::js::ACAstBaseNode"*, align 8
  call void @llvm.dbg.declare(metadata %"class.altered_carbon::js::ACAstBaseNode"** %297, metadata !9113, metadata !DIExpression()), !dbg !9764
  %298 = alloca %"struct.std::__1::__compressed_pair_elem.31"*, align 8
  call void @llvm.dbg.declare(metadata %"struct.std::__1::__compressed_pair_elem.31"** %298, metadata !9100, metadata !DIExpression()), !dbg !9765
  %299 = alloca %"class.std::__1::__compressed_pair.30"*, align 8
  call void @llvm.dbg.declare(metadata %"class.std::__1::__compressed_pair.30"** %299, metadata !9106, metadata !DIExpression()), !dbg !9768
  %300 = alloca %"class.std::__1::unique_ptr.29"*, align 8
  call void @llvm.dbg.declare(metadata %"class.std::__1::unique_ptr.29"** %300, metadata !9119, metadata !DIExpression()), !dbg !9769
  %301 = alloca %"class.altered_carbon::js::ACAstBaseNode"*, align 8
  call void @llvm.dbg.declare(metadata %"class.altered_carbon::js::ACAstBaseNode"** %301, metadata !9121, metadata !DIExpression()), !dbg !9770
  %302 = alloca %"class.altered_carbon::js::ACAstBaseNode"*, align 8
  call void @llvm.dbg.declare(metadata %"class.altered_carbon::js::ACAstBaseNode"** %302, metadata !9123, metadata !DIExpression()), !dbg !9771
  %303 = alloca %"class.std::__1::unique_ptr.29"*, align 8
  call void @llvm.dbg.declare(metadata %"class.std::__1::unique_ptr.29"** %303, metadata !9125, metadata !DIExpression()), !dbg !9772
  %304 = alloca %"class.std::__1::unique_ptr.29"*, align 8
  call void @llvm.dbg.declare(metadata %"class.std::__1::unique_ptr.29"** %304, metadata !9127, metadata !DIExpression()), !dbg !9773
  %305 = alloca %"class.altered_carbon::js::ACAstBaseNode"**, align 8
  call void @llvm.dbg.declare(metadata %"class.altered_carbon::js::ACAstBaseNode"*** %305, metadata !9242, metadata !DIExpression()), !dbg !9774
  %306 = alloca %"struct.std::__1::__compressed_pair_elem.31"*, align 8
  call void @llvm.dbg.declare(metadata %"struct.std::__1::__compressed_pair_elem.31"** %306, metadata !9270, metadata !DIExpression()), !dbg !9790
  %307 = alloca %"class.altered_carbon::js::ACAstBaseNode"**, align 8
  call void @llvm.dbg.declare(metadata %"class.altered_carbon::js::ACAstBaseNode"*** %307, metadata !9272, metadata !DIExpression()), !dbg !9791
  %308 = alloca %"class.altered_carbon::js::ACAstBaseNode"**, align 8
  call void @llvm.dbg.declare(metadata %"class.altered_carbon::js::ACAstBaseNode"*** %308, metadata !9242, metadata !DIExpression()), !dbg !9792
  %309 = alloca %"class.std::__1::__compressed_pair.30"*, align 8
  call void @llvm.dbg.declare(metadata %"class.std::__1::__compressed_pair.30"** %309, metadata !9794, metadata !DIExpression()), !dbg !9795
  %310 = alloca %"class.altered_carbon::js::ACAstBaseNode"**, align 8
  call void @llvm.dbg.declare(metadata %"class.altered_carbon::js::ACAstBaseNode"*** %310, metadata !9796, metadata !DIExpression()), !dbg !9797
  %311 = alloca %"class.std::__1::__compressed_pair.30"*, align 8
  call void @llvm.dbg.declare(metadata %"class.std::__1::__compressed_pair.30"** %311, metadata !9798, metadata !DIExpression()), !dbg !9799
  %312 = alloca %"class.altered_carbon::js::ACAstBaseNode"**, align 8
  call void @llvm.dbg.declare(metadata %"class.altered_carbon::js::ACAstBaseNode"*** %312, metadata !9800, metadata !DIExpression()), !dbg !9801
  %313 = alloca %"class.std::__1::unique_ptr.29"*, align 8
  call void @llvm.dbg.declare(metadata %"class.std::__1::unique_ptr.29"** %313, metadata !9802, metadata !DIExpression()), !dbg !9803
  %314 = alloca %"class.altered_carbon::js::ACAstBaseNode"*, align 8
  %315 = alloca %"class.std::__1::unique_ptr.29"*, align 8
  call void @llvm.dbg.declare(metadata %"class.std::__1::unique_ptr.29"** %315, metadata !9804, metadata !DIExpression()), !dbg !9805
  %316 = alloca i8**, align 8
  call void @llvm.dbg.declare(metadata i8*** %316, metadata !8488, metadata !DIExpression()), !dbg !9806
  %317 = alloca %"struct.std::__1::__compressed_pair_elem.41"*, align 8
  call void @llvm.dbg.declare(metadata %"struct.std::__1::__compressed_pair_elem.41"** %317, metadata !8519, metadata !DIExpression()), !dbg !9823
  %318 = alloca i8**, align 8
  call void @llvm.dbg.declare(metadata i8*** %318, metadata !8522, metadata !DIExpression()), !dbg !9824
  %319 = alloca %"class.std::__1::allocator.43"*, align 8
  call void @llvm.dbg.declare(metadata %"class.std::__1::allocator.43"** %319, metadata !9825, metadata !DIExpression()), !dbg !9827
  %320 = alloca %"struct.std::__1::__compressed_pair_elem.42"*, align 8
  call void @llvm.dbg.declare(metadata %"struct.std::__1::__compressed_pair_elem.42"** %320, metadata !9831, metadata !DIExpression()), !dbg !9832
  %321 = alloca i8**, align 8
  call void @llvm.dbg.declare(metadata i8*** %321, metadata !8488, metadata !DIExpression()), !dbg !9833
  %322 = alloca %"class.std::__1::__compressed_pair.40"*, align 8
  call void @llvm.dbg.declare(metadata %"class.std::__1::__compressed_pair.40"** %322, metadata !9835, metadata !DIExpression()), !dbg !9836
  %323 = alloca i8**, align 8
  call void @llvm.dbg.declare(metadata i8*** %323, metadata !9837, metadata !DIExpression()), !dbg !9838
  %324 = alloca %"class.std::__1::__compressed_pair.40"*, align 8
  call void @llvm.dbg.declare(metadata %"class.std::__1::__compressed_pair.40"** %324, metadata !9839, metadata !DIExpression()), !dbg !9840
  %325 = alloca i8**, align 8
  call void @llvm.dbg.declare(metadata i8*** %325, metadata !9841, metadata !DIExpression()), !dbg !9842
  %326 = alloca %"class.std::__1::__vector_base_common"*, align 8
  call void @llvm.dbg.declare(metadata %"class.std::__1::__vector_base_common"** %326, metadata !8564, metadata !DIExpression()), !dbg !9843
  %327 = alloca %"class.std::__1::__vector_base.39"*, align 8
  call void @llvm.dbg.declare(metadata %"class.std::__1::__vector_base.39"** %327, metadata !9845, metadata !DIExpression()), !dbg !9846
  %328 = alloca i8*, align 8
  %329 = alloca %"class.std::__1::vector.38"*, align 8
  call void @llvm.dbg.declare(metadata %"class.std::__1::vector.38"** %329, metadata !9847, metadata !DIExpression()), !dbg !9848
  %330 = alloca %"class.std::__1::vector.38"*, align 8
  call void @llvm.dbg.declare(metadata %"class.std::__1::vector.38"** %330, metadata !9849, metadata !DIExpression()), !dbg !9850
  %331 = alloca %"class.altered_carbon::js::ACAstBuilder"*, align 8
  %332 = alloca i8, align 1
  %333 = alloca i8, align 1
  %334 = alloca i8, align 1
  %335 = alloca i1, align 1
  %336 = alloca %"class.std::__1::unique_ptr.29", align 8
  %337 = alloca i32
  %338 = alloca %"class.std::__1::unique_ptr", align 8
  %339 = alloca %"class.std::__1::unique_ptr", align 8
  %340 = alloca %"struct.altered_carbon::js::BlockLevelState", align 1
  %341 = alloca %"class.std::__1::unique_ptr.29", align 8
  %342 = alloca %"class.std::__1::unique_ptr.29", align 8
  %343 = alloca %"class.std::__1::unique_ptr", align 8
  store %"class.altered_carbon::js::ACAstBuilder"* %1, %"class.altered_carbon::js::ACAstBuilder"** %331, align 8
  call void @llvm.dbg.declare(metadata %"class.altered_carbon::js::ACAstBuilder"** %331, metadata !9851, metadata !DIExpression()), !dbg !9852
  %344 = zext i1 %2 to i8
  store i8 %344, i8* %332, align 1
  call void @llvm.dbg.declare(metadata i8* %332, metadata !9853, metadata !DIExpression()), !dbg !9854
  %345 = zext i1 %3 to i8
  store i8 %345, i8* %333, align 1
  call void @llvm.dbg.declare(metadata i8* %333, metadata !9855, metadata !DIExpression()), !dbg !9856
  %346 = zext i1 %4 to i8
  store i8 %346, i8* %334, align 1
  call void @llvm.dbg.declare(metadata i8* %334, metadata !9857, metadata !DIExpression()), !dbg !9858
  %347 = load %"class.altered_carbon::js::ACAstBuilder"*, %"class.altered_carbon::js::ACAstBuilder"** %331, align 8
  br label %348, !dbg !9859, !llvm.loop !9860

; <label>:348:                                    ; preds = %5
  br label %349, !dbg !9861, !llvm.loop !9863

; <label>:349:                                    ; preds = %348
  %350 = call dereferenceable(160) %"class.std::__1::basic_ostream"* @_ZNSt3__1lsINS_11char_traitsIcEEEERNS_13basic_ostreamIcT_EES6_PKc(%"class.std::__1::basic_ostream"* dereferenceable(160) bitcast (i8* getelementptr inbounds (i8, i8* bitcast (%"class.altered_carbon::js::NullStream"* @_ZN14altered_carbon2jsL9BlackHoleE to i8*), i64 320) to %"class.std::__1::basic_ostream"*), i8* getelementptr inbounds ([1 x i8], [1 x i8]* @.str.8, i32 0, i32 0)), !dbg !9864
  %351 = call dereferenceable(160) %"class.std::__1::basic_ostream"* @_ZNSt3__1lsINS_11char_traitsIcEEEERNS_13basic_ostreamIcT_EES6_PKc(%"class.std::__1::basic_ostream"* dereferenceable(160) %350, i8* getelementptr inbounds ([9 x i8], [9 x i8]* @.str.1, i32 0, i32 0)), !dbg !9864
  %352 = call dereferenceable(160) %"class.std::__1::basic_ostream"* @_ZNSt3__1lsINS_11char_traitsIcEEEERNS_13basic_ostreamIcT_EES6_PKc(%"class.std::__1::basic_ostream"* dereferenceable(160) %351, i8* getelementptr inbounds ([1 x i8], [1 x i8]* @.str.8, i32 0, i32 0)), !dbg !9864
  %353 = call dereferenceable(160) %"class.std::__1::basic_ostream"* @_ZNSt3__1lsINS_11char_traitsIcEEEERNS_13basic_ostreamIcT_EES6_PKc(%"class.std::__1::basic_ostream"* dereferenceable(160) %352, i8* getelementptr inbounds ([2 x i8], [2 x i8]* @.str.9, i32 0, i32 0)), !dbg !9864
  %354 = call dereferenceable(160) %"class.std::__1::basic_ostream"* @_ZNSt3__113basic_ostreamIcNS_11char_traitsIcEEElsEi(%"class.std::__1::basic_ostream"* %353, i32 22), !dbg !9864
  %355 = call dereferenceable(160) %"class.std::__1::basic_ostream"* @_ZNSt3__1lsINS_11char_traitsIcEEEERNS_13basic_ostreamIcT_EES6_PKc(%"class.std::__1::basic_ostream"* dereferenceable(160) %354, i8* getelementptr inbounds ([3 x i8], [3 x i8]* @.str.10, i32 0, i32 0)), !dbg !9864
  %356 = call dereferenceable(160) %"class.std::__1::basic_ostream"* @_ZNSt3__1lsINS_11char_traitsIcEEEERNS_13basic_ostreamIcT_EES6_PKc(%"class.std::__1::basic_ostream"* dereferenceable(160) %355, i8* getelementptr inbounds ([35 x i8], [35 x i8]* @.str.11, i32 0, i32 0)), !dbg !9864
  br label %357, !dbg !9864

; <label>:357:                                    ; preds = %349
  br label %358, !dbg !9861

; <label>:358:                                    ; preds = %357
  store i1 false, i1* %335, align 1, !dbg !9866
  call void @llvm.dbg.declare(metadata %"class.std::__1::vector.38"* %0, metadata !9867, metadata !DIExpression()), !dbg !9868
  store %"class.std::__1::vector.38"* %0, %"class.std::__1::vector.38"** %330, align 8
  %359 = load %"class.std::__1::vector.38"*, %"class.std::__1::vector.38"** %330, align 8
  store %"class.std::__1::vector.38"* %359, %"class.std::__1::vector.38"** %329, align 8
  %360 = load %"class.std::__1::vector.38"*, %"class.std::__1::vector.38"** %329, align 8
  %361 = bitcast %"class.std::__1::vector.38"* %360 to %"class.std::__1::__vector_base.39"*, !dbg !9869
  store %"class.std::__1::__vector_base.39"* %361, %"class.std::__1::__vector_base.39"** %327, align 8
  %362 = load %"class.std::__1::__vector_base.39"*, %"class.std::__1::__vector_base.39"** %327, align 8
  %363 = bitcast %"class.std::__1::__vector_base.39"* %362 to %"class.std::__1::__vector_base_common"*, !dbg !9870
  store %"class.std::__1::__vector_base_common"* %363, %"class.std::__1::__vector_base_common"** %326, align 8
  %364 = load %"class.std::__1::__vector_base_common"*, %"class.std::__1::__vector_base_common"** %326, align 8
  %365 = getelementptr inbounds %"class.std::__1::__vector_base.39", %"class.std::__1::__vector_base.39"* %362, i32 0, i32 0, !dbg !9871
  store %"class.std::__1::unique_ptr.29"* null, %"class.std::__1::unique_ptr.29"** %365, align 8, !dbg !9871
  %366 = getelementptr inbounds %"class.std::__1::__vector_base.39", %"class.std::__1::__vector_base.39"* %362, i32 0, i32 1, !dbg !9872
  store %"class.std::__1::unique_ptr.29"* null, %"class.std::__1::unique_ptr.29"** %366, align 8, !dbg !9872
  %367 = getelementptr inbounds %"class.std::__1::__vector_base.39", %"class.std::__1::__vector_base.39"* %362, i32 0, i32 2, !dbg !9873
  store i8* null, i8** %328, align 8, !dbg !9874
  store %"class.std::__1::__compressed_pair.40"* %367, %"class.std::__1::__compressed_pair.40"** %324, align 8
  store i8** %328, i8*** %325, align 8
  %368 = load %"class.std::__1::__compressed_pair.40"*, %"class.std::__1::__compressed_pair.40"** %324, align 8
  %369 = load i8**, i8*** %325, align 8, !dbg !9875
  store %"class.std::__1::__compressed_pair.40"* %368, %"class.std::__1::__compressed_pair.40"** %322, align 8
  store i8** %369, i8*** %323, align 8
  %370 = load %"class.std::__1::__compressed_pair.40"*, %"class.std::__1::__compressed_pair.40"** %322, align 8
  %371 = bitcast %"class.std::__1::__compressed_pair.40"* %370 to %"struct.std::__1::__compressed_pair_elem.41"*, !dbg !9876
  %372 = load i8**, i8*** %323, align 8, !dbg !9877
  store i8** %372, i8*** %321, align 8
  %373 = load i8**, i8*** %321, align 8, !dbg !9878
  store %"struct.std::__1::__compressed_pair_elem.41"* %371, %"struct.std::__1::__compressed_pair_elem.41"** %317, align 8
  store i8** %373, i8*** %318, align 8
  %374 = load %"struct.std::__1::__compressed_pair_elem.41"*, %"struct.std::__1::__compressed_pair_elem.41"** %317, align 8
  %375 = getelementptr inbounds %"struct.std::__1::__compressed_pair_elem.41", %"struct.std::__1::__compressed_pair_elem.41"* %374, i32 0, i32 0, !dbg !9879
  %376 = load i8**, i8*** %318, align 8, !dbg !9880
  store i8** %376, i8*** %316, align 8
  %377 = load i8**, i8*** %316, align 8, !dbg !9881
  %378 = load i8*, i8** %377, align 8, !dbg !9882
  store %"class.std::__1::unique_ptr.29"* null, %"class.std::__1::unique_ptr.29"** %375, align 8, !dbg !9879
  %379 = bitcast %"class.std::__1::__compressed_pair.40"* %370 to %"struct.std::__1::__compressed_pair_elem.42"*, !dbg !9876
  store %"struct.std::__1::__compressed_pair_elem.42"* %379, %"struct.std::__1::__compressed_pair_elem.42"** %320, align 8
  %380 = load %"struct.std::__1::__compressed_pair_elem.42"*, %"struct.std::__1::__compressed_pair_elem.42"** %320, align 8
  %381 = bitcast %"struct.std::__1::__compressed_pair_elem.42"* %380 to %"class.std::__1::allocator.43"*, !dbg !9883
  store %"class.std::__1::allocator.43"* %381, %"class.std::__1::allocator.43"** %319, align 8
  %382 = load %"class.std::__1::allocator.43"*, %"class.std::__1::allocator.43"** %319, align 8
  call void @llvm.dbg.declare(metadata %"class.std::__1::unique_ptr.29"* %336, metadata !9884, metadata !DIExpression()), !dbg !9885
  store %"class.std::__1::unique_ptr.29"* %336, %"class.std::__1::unique_ptr.29"** %315, align 8
  %383 = load %"class.std::__1::unique_ptr.29"*, %"class.std::__1::unique_ptr.29"** %315, align 8
  store %"class.std::__1::unique_ptr.29"* %383, %"class.std::__1::unique_ptr.29"** %313, align 8
  %384 = load %"class.std::__1::unique_ptr.29"*, %"class.std::__1::unique_ptr.29"** %313, align 8
  %385 = getelementptr inbounds %"class.std::__1::unique_ptr.29", %"class.std::__1::unique_ptr.29"* %384, i32 0, i32 0, !dbg !9886
  store %"class.altered_carbon::js::ACAstBaseNode"* null, %"class.altered_carbon::js::ACAstBaseNode"** %314, align 8, !dbg !9887
  store %"class.std::__1::__compressed_pair.30"* %385, %"class.std::__1::__compressed_pair.30"** %311, align 8
  store %"class.altered_carbon::js::ACAstBaseNode"** %314, %"class.altered_carbon::js::ACAstBaseNode"*** %312, align 8
  %386 = load %"class.std::__1::__compressed_pair.30"*, %"class.std::__1::__compressed_pair.30"** %311, align 8
  %387 = load %"class.altered_carbon::js::ACAstBaseNode"**, %"class.altered_carbon::js::ACAstBaseNode"*** %312, align 8, !dbg !9888
  store %"class.std::__1::__compressed_pair.30"* %386, %"class.std::__1::__compressed_pair.30"** %309, align 8
  store %"class.altered_carbon::js::ACAstBaseNode"** %387, %"class.altered_carbon::js::ACAstBaseNode"*** %310, align 8
  %388 = load %"class.std::__1::__compressed_pair.30"*, %"class.std::__1::__compressed_pair.30"** %309, align 8
  %389 = bitcast %"class.std::__1::__compressed_pair.30"* %388 to %"struct.std::__1::__compressed_pair_elem.31"*, !dbg !9889
  %390 = load %"class.altered_carbon::js::ACAstBaseNode"**, %"class.altered_carbon::js::ACAstBaseNode"*** %310, align 8, !dbg !9890
  store %"class.altered_carbon::js::ACAstBaseNode"** %390, %"class.altered_carbon::js::ACAstBaseNode"*** %308, align 8
  %391 = load %"class.altered_carbon::js::ACAstBaseNode"**, %"class.altered_carbon::js::ACAstBaseNode"*** %308, align 8, !dbg !9891
  store %"struct.std::__1::__compressed_pair_elem.31"* %389, %"struct.std::__1::__compressed_pair_elem.31"** %306, align 8
  store %"class.altered_carbon::js::ACAstBaseNode"** %391, %"class.altered_carbon::js::ACAstBaseNode"*** %307, align 8
  %392 = load %"struct.std::__1::__compressed_pair_elem.31"*, %"struct.std::__1::__compressed_pair_elem.31"** %306, align 8
  %393 = getelementptr inbounds %"struct.std::__1::__compressed_pair_elem.31", %"struct.std::__1::__compressed_pair_elem.31"* %392, i32 0, i32 0, !dbg !9892
  %394 = load %"class.altered_carbon::js::ACAstBaseNode"**, %"class.altered_carbon::js::ACAstBaseNode"*** %307, align 8, !dbg !9893
  store %"class.altered_carbon::js::ACAstBaseNode"** %394, %"class.altered_carbon::js::ACAstBaseNode"*** %305, align 8
  %395 = load %"class.altered_carbon::js::ACAstBaseNode"**, %"class.altered_carbon::js::ACAstBaseNode"*** %305, align 8, !dbg !9894
  %396 = load %"class.altered_carbon::js::ACAstBaseNode"*, %"class.altered_carbon::js::ACAstBaseNode"** %395, align 8, !dbg !9895
  store %"class.altered_carbon::js::ACAstBaseNode"* %396, %"class.altered_carbon::js::ACAstBaseNode"** %393, align 8, !dbg !9892
  %397 = bitcast %"class.std::__1::__compressed_pair.30"* %388 to %"struct.std::__1::__compressed_pair_elem.45"*, !dbg !9889
  %398 = load i8, i8* %334, align 1, !dbg !9896
  %399 = trunc i8 %398 to i1, !dbg !9896
  br i1 %399, label %400, label %520, !dbg !9897

; <label>:400:                                    ; preds = %358
  br label %401, !dbg !9898, !llvm.loop !9899

; <label>:401:                                    ; preds = %400
  br label %402, !dbg !9900, !llvm.loop !9901

; <label>:402:                                    ; preds = %401
  %403 = bitcast %"class.altered_carbon::js::ACAstBuilder"* %347 to %"class.altered_carbon::js::ACJsParser"*, !dbg !9902
  %404 = getelementptr inbounds %"class.altered_carbon::js::ACJsParser", %"class.altered_carbon::js::ACJsParser"* %403, i32 0, i32 14, !dbg !9902
  store %"class.std::__1::unique_ptr"* %404, %"class.std::__1::unique_ptr"** %291, align 8
  %405 = load %"class.std::__1::unique_ptr"*, %"class.std::__1::unique_ptr"** %291, align 8
  %406 = getelementptr inbounds %"class.std::__1::unique_ptr", %"class.std::__1::unique_ptr"* %405, i32 0, i32 0, !dbg !9903
  store %"class.std::__1::__compressed_pair.15"* %406, %"class.std::__1::__compressed_pair.15"** %290, align 8
  %407 = load %"class.std::__1::__compressed_pair.15"*, %"class.std::__1::__compressed_pair.15"** %290, align 8
  %408 = bitcast %"class.std::__1::__compressed_pair.15"* %407 to %"struct.std::__1::__compressed_pair_elem.16"*, !dbg !9904
  store %"struct.std::__1::__compressed_pair_elem.16"* %408, %"struct.std::__1::__compressed_pair_elem.16"** %289, align 8
  %409 = load %"struct.std::__1::__compressed_pair_elem.16"*, %"struct.std::__1::__compressed_pair_elem.16"** %289, align 8
  %410 = getelementptr inbounds %"struct.std::__1::__compressed_pair_elem.16", %"struct.std::__1::__compressed_pair_elem.16"* %409, i32 0, i32 0, !dbg !9905
  %411 = load %"class.altered_carbon::js::ACLexToken"*, %"class.altered_carbon::js::ACLexToken"** %410, align 8, !dbg !9906
  %412 = getelementptr inbounds %"class.altered_carbon::js::ACLexToken", %"class.altered_carbon::js::ACLexToken"* %411, i32 0, i32 1, !dbg !9902
  %413 = load i32, i32* %412, align 8, !dbg !9902
  %414 = icmp eq i32 %413, 17, !dbg !9902
  br i1 %414, label %431, label %415, !dbg !9907

; <label>:415:                                    ; preds = %402
  br label %416, !dbg !9908, !llvm.loop !9910

; <label>:416:                                    ; preds = %415
  br label %417, !dbg !9911, !llvm.loop !9913

; <label>:417:                                    ; preds = %416
  %418 = call dereferenceable(160) %"class.std::__1::basic_ostream"* @_ZNSt3__1lsINS_11char_traitsIcEEEERNS_13basic_ostreamIcT_EES6_PKc(%"class.std::__1::basic_ostream"* dereferenceable(160) bitcast (i8* getelementptr inbounds (i8, i8* bitcast (%"class.altered_carbon::js::NullStream"* @_ZN14altered_carbon2jsL9BlackHoleE to i8*), i64 320) to %"class.std::__1::basic_ostream"*), i8* getelementptr inbounds ([10 x i8], [10 x i8]* @.str, i32 0, i32 0)), !dbg !9914
  %419 = call dereferenceable(160) %"class.std::__1::basic_ostream"* @_ZNSt3__1lsINS_11char_traitsIcEEEERNS_13basic_ostreamIcT_EES6_PKc(%"class.std::__1::basic_ostream"* dereferenceable(160) %418, i8* getelementptr inbounds ([9 x i8], [9 x i8]* @.str.1, i32 0, i32 0)), !dbg !9914
  %420 = call dereferenceable(160) %"class.std::__1::basic_ostream"* @_ZNSt3__1lsINS_11char_traitsIcEEEERNS_13basic_ostreamIcT_EES6_PKc(%"class.std::__1::basic_ostream"* dereferenceable(160) %419, i8* getelementptr inbounds ([5 x i8], [5 x i8]* @.str.2, i32 0, i32 0)), !dbg !9914
  %421 = call dereferenceable(160) %"class.std::__1::basic_ostream"* @_ZNSt3__1lsINS_11char_traitsIcEEEERNS_13basic_ostreamIcT_EES6_PKc(%"class.std::__1::basic_ostream"* dereferenceable(160) %420, i8* getelementptr inbounds ([5 x i8], [5 x i8]* @.str.3, i32 0, i32 0)), !dbg !9914
  %422 = call dereferenceable(160) %"class.std::__1::basic_ostream"* @_ZNSt3__113basic_ostreamIcNS_11char_traitsIcEEElsEi(%"class.std::__1::basic_ostream"* %421, i32 1023), !dbg !9914
  %423 = call dereferenceable(160) %"class.std::__1::basic_ostream"* @_ZNSt3__1lsINS_11char_traitsIcEEEERNS_13basic_ostreamIcT_EES6_PKc(%"class.std::__1::basic_ostream"* dereferenceable(160) %422, i8* getelementptr inbounds ([24 x i8], [24 x i8]* @.str.4, i32 0, i32 0)), !dbg !9914
  %424 = call dereferenceable(160) %"class.std::__1::basic_ostream"* @_ZNSt3__1lsINS_11char_traitsIcEEEERNS_13basic_ostreamIcT_EES6_PKc(%"class.std::__1::basic_ostream"* dereferenceable(160) %423, i8* getelementptr inbounds ([32 x i8], [32 x i8]* @.str.12, i32 0, i32 0)), !dbg !9914
  %425 = call dereferenceable(160) %"class.std::__1::basic_ostream"* @_ZNSt3__1lsINS_11char_traitsIcEEEERNS_13basic_ostreamIcT_EES6_PKc(%"class.std::__1::basic_ostream"* dereferenceable(160) %424, i8* getelementptr inbounds ([4 x i8], [4 x i8]* @.str.6, i32 0, i32 0)), !dbg !9914
  %426 = bitcast %"class.altered_carbon::js::ACAstBuilder"* %347 to %"class.altered_carbon::js::ACJsParser"*, !dbg !9914
  call void @_ZN14altered_carbon2js10ACJsParser16showErrorContextEv(%"class.altered_carbon::js::ACJsParser"* %426), !dbg !9914
  br label %427, !dbg !9914

; <label>:427:                                    ; preds = %417
  br label %428, !dbg !9914

; <label>:428:                                    ; preds = %427
  store i1 true, i1* %335, align 1, !dbg !9911
  store i32 1, i32* %337, align 4
  br label %1207, !dbg !9911
                                                  ; No predecessors!
  br label %430, !dbg !9911

; <label>:430:                                    ; preds = %429
  br label %431, !dbg !9908

; <label>:431:                                    ; preds = %430, %402
  br label %432, !dbg !9907

; <label>:432:                                    ; preds = %431
  br label %433, !dbg !9907

; <label>:433:                                    ; preds = %432
  %434 = bitcast %"class.altered_carbon::js::ACAstBuilder"* %347 to %"class.altered_carbon::js::ACJsParser"*, !dbg !9900
  call void @_ZN14altered_carbon2js10ACJsParser9nextTokenEv(%"class.std::__1::unique_ptr"* sret %338, %"class.altered_carbon::js::ACJsParser"* %434), !dbg !9900
  store %"class.std::__1::unique_ptr"* %338, %"class.std::__1::unique_ptr"** %275, align 8
  %435 = load %"class.std::__1::unique_ptr"*, %"class.std::__1::unique_ptr"** %275, align 8
  store %"class.std::__1::unique_ptr"* %435, %"class.std::__1::unique_ptr"** %274, align 8
  %436 = load %"class.std::__1::unique_ptr"*, %"class.std::__1::unique_ptr"** %274, align 8
  store %"class.std::__1::unique_ptr"* %436, %"class.std::__1::unique_ptr"** %271, align 8
  store %"class.altered_carbon::js::ACLexToken"* null, %"class.altered_carbon::js::ACLexToken"** %272, align 8
  %437 = load %"class.std::__1::unique_ptr"*, %"class.std::__1::unique_ptr"** %271, align 8
  %438 = getelementptr inbounds %"class.std::__1::unique_ptr", %"class.std::__1::unique_ptr"* %437, i32 0, i32 0, !dbg !9916
