; ModuleID = 'temp.bc'
source_filename = "../ac_lex_util.cc"
target datalayout = "e-m:o-i64:64-f80:128-n8:16:32:64-S128"
target triple = "x86_64-apple-macosx10.13.0"

%"class.std::__1::locale::id" = type <{ %"struct.std::__1::once_flag", i32, [4 x i8] }>
%"struct.std::__1::once_flag" = type { i64 }
%"class.std::__1::basic_string" = type { %"class.std::__1::__compressed_pair" }
%"class.std::__1::__compressed_pair" = type { %"struct.std::__1::__compressed_pair_elem" }
%"struct.std::__1::__compressed_pair_elem" = type { %"struct.std::__1::basic_string<char, std::__1::char_traits<char>, std::__1::allocator<char> >::__rep" }
%"struct.std::__1::basic_string<char, std::__1::char_traits<char>, std::__1::allocator<char> >::__rep" = type { %union.anon }
%union.anon = type { %"struct.std::__1::basic_string<char, std::__1::char_traits<char>, std::__1::allocator<char> >::__long" }
%"struct.std::__1::basic_string<char, std::__1::char_traits<char>, std::__1::allocator<char> >::__long" = type { i64, i64, i8* }
%"class.std::__1::ios_base" = type { i32 (...)**, i32, i64, i64, i32, i32, i8*, i8*, void (i32, %"class.std::__1::ios_base"*, i32)**, i32*, i64, i64, i64*, i64, i64, i8**, i64, i64 }
%"class.std::__1::basic_ios" = type <{ %"class.std::__1::ios_base", %"class.std::__1::basic_ostream"*, i32, [4 x i8] }>
%"class.std::__1::basic_ostream" = type { i32 (...)**, %"class.std::__1::basic_ios.base" }
%"class.std::__1::basic_ios.base" = type <{ %"class.std::__1::ios_base", %"class.std::__1::basic_ostream"*, i32 }>
%"class.std::__1::basic_ifstream" = type { %"class.std::__1::basic_istream.base", %"class.std::__1::basic_filebuf", %"class.std::__1::basic_ios.base" }
%"class.std::__1::basic_istream.base" = type { i32 (...)**, i64 }
%"class.std::__1::basic_filebuf" = type <{ %"class.std::__1::basic_streambuf", i8*, i8*, i8*, [8 x i8], i64, i8*, i64, %struct.__sFILE*, %"class.std::__1::codecvt"*, %union.__mbstate_t, %union.__mbstate_t, i32, i32, i8, i8, i8, [5 x i8] }>
%"class.std::__1::basic_streambuf" = type { i32 (...)**, %"class.std::__1::locale", i8*, i8*, i8*, i8*, i8*, i8* }
%"class.std::__1::locale" = type { %"class.std::__1::locale::__imp"* }
%"class.std::__1::locale::__imp" = type opaque
%struct.__sFILE = type { i8*, i32, i32, i16, i16, %struct.__sbuf, i32, i8*, i32 (i8*)*, i32 (i8*, i8*, i32)*, i64 (i8*, i64, i32)*, i32 (i8*, i8*, i32)*, %struct.__sbuf, %struct.__sFILEX*, i32, [3 x i8], [1 x i8], %struct.__sbuf, i32, i64 }
%struct.__sFILEX = type opaque
%struct.__sbuf = type { i8*, i32 }
%"class.std::__1::codecvt" = type { %"class.std::__1::locale::facet" }
%"class.std::__1::locale::facet" = type { %"class.std::__1::__shared_count" }
%"class.std::__1::__shared_count" = type { i32 (...)**, i64 }
%union.__mbstate_t = type { i64, [120 x i8] }
%"class.std::__1::back_insert_iterator" = type { %"class.std::__1::basic_string"* }
%"class.std::__1::istreambuf_iterator" = type { %"class.std::__1::basic_streambuf"* }
%"class.std::__1::basic_istream" = type { i32 (...)**, i64, %"class.std::__1::basic_ios.base" }
%"class.std::__1::fpos" = type { %union.__mbstate_t, i64 }
%"struct.std::__1::iterator.2" = type { i8 }
%"struct.std::__1::iterator" = type { i8 }
%"struct.std::__1::__compressed_pair_elem.4" = type { %struct.__sFILE* }
%"class.std::__1::__compressed_pair.3" = type { %"struct.std::__1::__compressed_pair_elem.4", %"struct.std::__1::__compressed_pair_elem.5" }
%"struct.std::__1::__compressed_pair_elem.5" = type { i32 (%struct.__sFILE*)* }
%"class.std::__1::unique_ptr" = type { %"class.std::__1::__compressed_pair.3" }
%"struct.std::__1::__less" = type { i8 }
%"struct.std::__1::__less.6" = type { i8 }

@_ZZN14altered_carbon2js11utf8_decodeEPKcPwPiE7lengths = internal constant [32 x i8] c"\01\01\01\01\01\01\01\01\01\01\01\01\01\01\01\01\00\00\00\00\00\00\00\00\02\02\02\02\03\03\04\00", align 16, !dbg !0
@_ZZN14altered_carbon2js11utf8_decodeEPKcPwPiE5masks = internal constant [5 x i32] [i32 0, i32 127, i32 31, i32 15, i32 7], align 16, !dbg !2064
@_ZZN14altered_carbon2js11utf8_decodeEPKcPwPiE4mins = internal constant [5 x i32] [i32 4194304, i32 0, i32 128, i32 2048, i32 65536], align 16, !dbg !2070
@_ZZN14altered_carbon2js11utf8_decodeEPKcPwPiE10shift_char = internal constant [5 x i32] [i32 0, i32 18, i32 12, i32 6, i32 0], align 16, !dbg !2074
@_ZZN14altered_carbon2js11utf8_decodeEPKcPwPiE9shift_err = internal constant [5 x i32] [i32 0, i32 6, i32 4, i32 2, i32 0], align 16, !dbg !2076
@_ZN14altered_carbon2jsL5TRIALE = internal global i8* getelementptr inbounds ([11 x i8], [11 x i8]* @.str, i32 0, i32 0), align 8, !dbg !2078
@.str = private unnamed_addr constant [11 x i8] c"// ac_end.\00", align 1
@_ZTVNSt3__114basic_ifstreamIcNS_11char_traitsIcEEEE = linkonce_odr unnamed_addr constant { [5 x i8*], [5 x i8*] } { [5 x i8*] [i8* inttoptr (i64 424 to i8*), i8* null, i8* bitcast ({ i8*, i8*, i8* }* @_ZTINSt3__114basic_ifstreamIcNS_11char_traitsIcEEEE to i8*), i8* bitcast (void (%"class.std::__1::basic_ifstream"*)* @_ZNSt3__114basic_ifstreamIcNS_11char_traitsIcEEED1Ev to i8*), i8* bitcast (void (%"class.std::__1::basic_ifstream"*)* @_ZNSt3__114basic_ifstreamIcNS_11char_traitsIcEEED0Ev to i8*)], [5 x i8*] [i8* inttoptr (i64 -424 to i8*), i8* inttoptr (i64 -424 to i8*), i8* bitcast ({ i8*, i8*, i8* }* @_ZTINSt3__114basic_ifstreamIcNS_11char_traitsIcEEEE to i8*), i8* bitcast (void (%"class.std::__1::basic_ifstream"*)* @_ZTv0_n24_NSt3__114basic_ifstreamIcNS_11char_traitsIcEEED1Ev to i8*), i8* bitcast (void (%"class.std::__1::basic_ifstream"*)* @_ZTv0_n24_NSt3__114basic_ifstreamIcNS_11char_traitsIcEEED0Ev to i8*)] }, align 8
@_ZTTNSt3__114basic_ifstreamIcNS_11char_traitsIcEEEE = linkonce_odr unnamed_addr constant [4 x i8*] [i8* bitcast (i8** getelementptr inbounds ({ [5 x i8*], [5 x i8*] }, { [5 x i8*], [5 x i8*] }* @_ZTVNSt3__114basic_ifstreamIcNS_11char_traitsIcEEEE, i32 0, inrange i32 0, i32 3) to i8*), i8* bitcast (i8** getelementptr inbounds ({ [5 x i8*], [5 x i8*] }, { [5 x i8*], [5 x i8*] }* @_ZTCNSt3__114basic_ifstreamIcNS_11char_traitsIcEEEE0_NS_13basic_istreamIcS2_EE, i32 0, inrange i32 0, i32 3) to i8*), i8* bitcast (i8** getelementptr inbounds ({ [5 x i8*], [5 x i8*] }, { [5 x i8*], [5 x i8*] }* @_ZTCNSt3__114basic_ifstreamIcNS_11char_traitsIcEEEE0_NS_13basic_istreamIcS2_EE, i32 0, inrange i32 1, i32 3) to i8*), i8* bitcast (i8** getelementptr inbounds ({ [5 x i8*], [5 x i8*] }, { [5 x i8*], [5 x i8*] }* @_ZTVNSt3__114basic_ifstreamIcNS_11char_traitsIcEEEE, i32 0, inrange i32 1, i32 3) to i8*)]
@_ZTCNSt3__114basic_ifstreamIcNS_11char_traitsIcEEEE0_NS_13basic_istreamIcS2_EE = linkonce_odr unnamed_addr constant { [5 x i8*], [5 x i8*] } { [5 x i8*] [i8* inttoptr (i64 424 to i8*), i8* null, i8* bitcast (i8** @_ZTINSt3__113basic_istreamIcNS_11char_traitsIcEEEE to i8*), i8* bitcast (void (%"class.std::__1::basic_istream"*)* @_ZNSt3__113basic_istreamIcNS_11char_traitsIcEEED1Ev to i8*), i8* bitcast (void (%"class.std::__1::basic_istream"*)* @_ZNSt3__113basic_istreamIcNS_11char_traitsIcEEED0Ev to i8*)], [5 x i8*] [i8* inttoptr (i64 -424 to i8*), i8* inttoptr (i64 -424 to i8*), i8* bitcast (i8** @_ZTINSt3__113basic_istreamIcNS_11char_traitsIcEEEE to i8*), i8* bitcast (void (%"class.std::__1::basic_istream"*)* @_ZTv0_n24_NSt3__113basic_istreamIcNS_11char_traitsIcEEED1Ev to i8*), i8* bitcast (void (%"class.std::__1::basic_istream"*)* @_ZTv0_n24_NSt3__113basic_istreamIcNS_11char_traitsIcEEED0Ev to i8*)] }
@_ZTINSt3__113basic_istreamIcNS_11char_traitsIcEEEE = external constant i8*
@_ZTVN10__cxxabiv120__si_class_type_infoE = external global i8*
@_ZTSNSt3__114basic_ifstreamIcNS_11char_traitsIcEEEE = linkonce_odr constant [48 x i8] c"NSt3__114basic_ifstreamIcNS_11char_traitsIcEEEE\00"
@_ZTINSt3__114basic_ifstreamIcNS_11char_traitsIcEEEE = linkonce_odr constant { i8*, i8*, i8* } { i8* bitcast (i8** getelementptr inbounds (i8*, i8** @_ZTVN10__cxxabiv120__si_class_type_infoE, i64 2) to i8*), i8* getelementptr inbounds ([48 x i8], [48 x i8]* @_ZTSNSt3__114basic_ifstreamIcNS_11char_traitsIcEEEE, i32 0, i32 0), i8* bitcast (i8** @_ZTINSt3__113basic_istreamIcNS_11char_traitsIcEEEE to i8*) }
@_ZTVNSt3__113basic_filebufIcNS_11char_traitsIcEEEE = linkonce_odr unnamed_addr constant { [16 x i8*] } { [16 x i8*] [i8* null, i8* bitcast ({ i8*, i8*, i8* }* @_ZTINSt3__113basic_filebufIcNS_11char_traitsIcEEEE to i8*), i8* bitcast (void (%"class.std::__1::basic_filebuf"*)* @_ZNSt3__113basic_filebufIcNS_11char_traitsIcEEED1Ev to i8*), i8* bitcast (void (%"class.std::__1::basic_filebuf"*)* @_ZNSt3__113basic_filebufIcNS_11char_traitsIcEEED0Ev to i8*), i8* bitcast (void (%"class.std::__1::basic_filebuf"*, %"class.std::__1::locale"*)* @_ZNSt3__113basic_filebufIcNS_11char_traitsIcEEE5imbueERKNS_6localeE to i8*), i8* bitcast (%"class.std::__1::basic_streambuf"* (%"class.std::__1::basic_filebuf"*, i8*, i64)* @_ZNSt3__113basic_filebufIcNS_11char_traitsIcEEE6setbufEPcl to i8*), i8* bitcast (void (%"class.std::__1::fpos"*, %"class.std::__1::basic_filebuf"*, i64, i32, i32)* @_ZNSt3__113basic_filebufIcNS_11char_traitsIcEEE7seekoffExNS_8ios_base7seekdirEj to i8*), i8* bitcast (void (%"class.std::__1::fpos"*, %"class.std::__1::basic_filebuf"*, %"class.std::__1::fpos"*, i32)* @_ZNSt3__113basic_filebufIcNS_11char_traitsIcEEE7seekposENS_4fposI11__mbstate_tEEj to i8*), i8* bitcast (i32 (%"class.std::__1::basic_filebuf"*)* @_ZNSt3__113basic_filebufIcNS_11char_traitsIcEEE4syncEv to i8*), i8* bitcast (i64 (%"class.std::__1::basic_streambuf"*)* @_ZNSt3__115basic_streambufIcNS_11char_traitsIcEEE9showmanycEv to i8*), i8* bitcast (i64 (%"class.std::__1::basic_streambuf"*, i8*, i64)* @_ZNSt3__115basic_streambufIcNS_11char_traitsIcEEE6xsgetnEPcl to i8*), i8* bitcast (i32 (%"class.std::__1::basic_filebuf"*)* @_ZNSt3__113basic_filebufIcNS_11char_traitsIcEEE9underflowEv to i8*), i8* bitcast (i32 (%"class.std::__1::basic_streambuf"*)* @_ZNSt3__115basic_streambufIcNS_11char_traitsIcEEE5uflowEv to i8*), i8* bitcast (i32 (%"class.std::__1::basic_filebuf"*, i32)* @_ZNSt3__113basic_filebufIcNS_11char_traitsIcEEE9pbackfailEi to i8*), i8* bitcast (i64 (%"class.std::__1::basic_streambuf"*, i8*, i64)* @_ZNSt3__115basic_streambufIcNS_11char_traitsIcEEE6xsputnEPKcl to i8*), i8* bitcast (i32 (%"class.std::__1::basic_filebuf"*, i32)* @_ZNSt3__113basic_filebufIcNS_11char_traitsIcEEE8overflowEi to i8*)] }, align 8
@_ZTSNSt3__113basic_filebufIcNS_11char_traitsIcEEEE = linkonce_odr constant [47 x i8] c"NSt3__113basic_filebufIcNS_11char_traitsIcEEEE\00"
@_ZTINSt3__115basic_streambufIcNS_11char_traitsIcEEEE = external constant i8*
@_ZTINSt3__113basic_filebufIcNS_11char_traitsIcEEEE = linkonce_odr constant { i8*, i8*, i8* } { i8* bitcast (i8** getelementptr inbounds (i8*, i8** @_ZTVN10__cxxabiv120__si_class_type_infoE, i64 2) to i8*), i8* getelementptr inbounds ([47 x i8], [47 x i8]* @_ZTSNSt3__113basic_filebufIcNS_11char_traitsIcEEEE, i32 0, i32 0), i8* bitcast (i8** @_ZTINSt3__115basic_streambufIcNS_11char_traitsIcEEEE to i8*) }
@_ZNSt3__17codecvtIcc11__mbstate_tE2idE = external global %"class.std::__1::locale::id", align 8
@_ZTVNSt3__19basic_iosIcNS_11char_traitsIcEEEE = external unnamed_addr constant { [4 x i8*] }
@_ZTVNSt3__18ios_baseE = external unnamed_addr constant { [4 x i8*] }
@.str.1 = private unnamed_addr constant [2 x i8] c"w\00", align 1
@.str.2 = private unnamed_addr constant [2 x i8] c"a\00", align 1
@.str.3 = private unnamed_addr constant [2 x i8] c"r\00", align 1
@.str.4 = private unnamed_addr constant [3 x i8] c"r+\00", align 1
@.str.5 = private unnamed_addr constant [3 x i8] c"w+\00", align 1
@.str.6 = private unnamed_addr constant [3 x i8] c"a+\00", align 1
@.str.7 = private unnamed_addr constant [3 x i8] c"wb\00", align 1
@.str.8 = private unnamed_addr constant [3 x i8] c"ab\00", align 1
@.str.9 = private unnamed_addr constant [3 x i8] c"rb\00", align 1
@.str.10 = private unnamed_addr constant [4 x i8] c"r+b\00", align 1
@.str.11 = private unnamed_addr constant [4 x i8] c"w+b\00", align 1
@.str.12 = private unnamed_addr constant [4 x i8] c"a+b\00", align 1

; Function Attrs: noinline nounwind optnone ssp uwtable
define i32 @_ZN14altered_carbon2js11utf8_decodeEPKcPwPi(i8*, i32*, i32*) #0 !dbg !2 {
  %4 = alloca i8*, align 8
  %5 = alloca i32*, align 8
  %6 = alloca i32*, align 8
  %7 = alloca i32, align 4
  store i8* %0, i8** %4, align 8
  call void @llvm.dbg.declare(metadata i8** %4, metadata !2940, metadata !DIExpression()), !dbg !2941
  store i32* %1, i32** %5, align 8
  call void @llvm.dbg.declare(metadata i32** %5, metadata !2942, metadata !DIExpression()), !dbg !2943
  store i32* %2, i32** %6, align 8
  call void @llvm.dbg.declare(metadata i32** %6, metadata !2944, metadata !DIExpression()), !dbg !2945
  call void @llvm.dbg.declare(metadata i32* %7, metadata !2946, metadata !DIExpression()), !dbg !2947
  %8 = load i8*, i8** %4, align 8, !dbg !2948
  %9 = getelementptr inbounds i8, i8* %8, i64 0, !dbg !2948
  %10 = load i8, i8* %9, align 1, !dbg !2948
  %11 = sext i8 %10 to i32, !dbg !2948
  %12 = and i32 %11, 255, !dbg !2949
  %13 = ashr i32 %12, 3, !dbg !2950
  %14 = sext i32 %13 to i64, !dbg !2951
  %15 = getelementptr inbounds [32 x i8], [32 x i8]* @_ZZN14altered_carbon2js11utf8_decodeEPKcPwPiE7lengths, i64 0, i64 %14, !dbg !2951
  %16 = load i8, i8* %15, align 1, !dbg !2951
  %17 = sext i8 %16 to i32, !dbg !2951
  store i32 %17, i32* %7, align 4, !dbg !2947
  %18 = load i8*, i8** %4, align 8, !dbg !2952
  %19 = getelementptr inbounds i8, i8* %18, i64 0, !dbg !2952
  %20 = load i8, i8* %19, align 1, !dbg !2952
  %21 = sext i8 %20 to i32, !dbg !2952
  %22 = load i32, i32* %7, align 4, !dbg !2953
  %23 = sext i32 %22 to i64, !dbg !2954
  %24 = getelementptr inbounds [5 x i32], [5 x i32]* @_ZZN14altered_carbon2js11utf8_decodeEPKcPwPiE5masks, i64 0, i64 %23, !dbg !2954
  %25 = load i32, i32* %24, align 4, !dbg !2954
  %26 = and i32 %21, %25, !dbg !2955
  %27 = shl i32 %26, 18, !dbg !2956
  %28 = load i32*, i32** %5, align 8, !dbg !2957
  store i32 %27, i32* %28, align 4, !dbg !2958
  %29 = load i8*, i8** %4, align 8, !dbg !2959
  %30 = getelementptr inbounds i8, i8* %29, i64 1, !dbg !2959
  %31 = load i8, i8* %30, align 1, !dbg !2959
  %32 = sext i8 %31 to i32, !dbg !2959
  %33 = and i32 %32, 63, !dbg !2960
  %34 = shl i32 %33, 12, !dbg !2961
  %35 = load i32*, i32** %5, align 8, !dbg !2962
  %36 = load i32, i32* %35, align 4, !dbg !2963
  %37 = or i32 %36, %34, !dbg !2963
  store i32 %37, i32* %35, align 4, !dbg !2963
  %38 = load i8*, i8** %4, align 8, !dbg !2964
  %39 = getelementptr inbounds i8, i8* %38, i64 2, !dbg !2964
  %40 = load i8, i8* %39, align 1, !dbg !2964
  %41 = sext i8 %40 to i32, !dbg !2964
  %42 = and i32 %41, 63, !dbg !2965
  %43 = shl i32 %42, 6, !dbg !2966
  %44 = load i32*, i32** %5, align 8, !dbg !2967
  %45 = load i32, i32* %44, align 4, !dbg !2968
  %46 = or i32 %45, %43, !dbg !2968
  store i32 %46, i32* %44, align 4, !dbg !2968
  %47 = load i8*, i8** %4, align 8, !dbg !2969
  %48 = getelementptr inbounds i8, i8* %47, i64 3, !dbg !2969
  %49 = load i8, i8* %48, align 1, !dbg !2969
  %50 = sext i8 %49 to i32, !dbg !2969
  %51 = and i32 %50, 63, !dbg !2970
  %52 = load i32*, i32** %5, align 8, !dbg !2971
  %53 = load i32, i32* %52, align 4, !dbg !2972
  %54 = or i32 %53, %51, !dbg !2972
  store i32 %54, i32* %52, align 4, !dbg !2972
  %55 = load i32, i32* %7, align 4, !dbg !2973
  %56 = sext i32 %55 to i64, !dbg !2974
  %57 = getelementptr inbounds [5 x i32], [5 x i32]* @_ZZN14altered_carbon2js11utf8_decodeEPKcPwPiE10shift_char, i64 0, i64 %56, !dbg !2974
  %58 = load i32, i32* %57, align 4, !dbg !2974
  %59 = load i32*, i32** %5, align 8, !dbg !2975
  %60 = load i32, i32* %59, align 4, !dbg !2976
  %61 = ashr i32 %60, %58, !dbg !2976
  store i32 %61, i32* %59, align 4, !dbg !2976
  %62 = load i32*, i32** %5, align 8, !dbg !2977
  %63 = load i32, i32* %62, align 4, !dbg !2978
  %64 = load i32, i32* %7, align 4, !dbg !2979
  %65 = sext i32 %64 to i64, !dbg !2980
  %66 = getelementptr inbounds [5 x i32], [5 x i32]* @_ZZN14altered_carbon2js11utf8_decodeEPKcPwPiE4mins, i64 0, i64 %65, !dbg !2980
  %67 = load i32, i32* %66, align 4, !dbg !2980
  %68 = icmp slt i32 %63, %67, !dbg !2981
  %69 = zext i1 %68 to i32, !dbg !2982
  %70 = shl i32 %69, 6, !dbg !2983
  %71 = load i32*, i32** %6, align 8, !dbg !2984
  store i32 %70, i32* %71, align 4, !dbg !2985
  %72 = load i32*, i32** %5, align 8, !dbg !2986
  %73 = load i32, i32* %72, align 4, !dbg !2987
  %74 = ashr i32 %73, 11, !dbg !2988
  %75 = icmp eq i32 %74, 27, !dbg !2989
  %76 = zext i1 %75 to i32, !dbg !2990
  %77 = shl i32 %76, 7, !dbg !2991
  %78 = load i32*, i32** %6, align 8, !dbg !2992
  %79 = load i32, i32* %78, align 4, !dbg !2993
  %80 = or i32 %79, %77, !dbg !2993
  store i32 %80, i32* %78, align 4, !dbg !2993
  %81 = load i32*, i32** %5, align 8, !dbg !2994
  %82 = load i32, i32* %81, align 4, !dbg !2995
  %83 = icmp sgt i32 %82, 1114111, !dbg !2996
  %84 = zext i1 %83 to i32, !dbg !2997
  %85 = shl i32 %84, 8, !dbg !2998
  %86 = load i32*, i32** %6, align 8, !dbg !2999
  %87 = load i32, i32* %86, align 4, !dbg !3000
  %88 = or i32 %87, %85, !dbg !3000
  store i32 %88, i32* %86, align 4, !dbg !3000
  %89 = load i8*, i8** %4, align 8, !dbg !3001
  %90 = getelementptr inbounds i8, i8* %89, i64 1, !dbg !3001
  %91 = load i8, i8* %90, align 1, !dbg !3001
  %92 = sext i8 %91 to i32, !dbg !3001
  %93 = and i32 %92, 192, !dbg !3002
  %94 = ashr i32 %93, 2, !dbg !3003
  %95 = load i32*, i32** %6, align 8, !dbg !3004
  %96 = load i32, i32* %95, align 4, !dbg !3005
  %97 = or i32 %96, %94, !dbg !3005
  store i32 %97, i32* %95, align 4, !dbg !3005
  %98 = load i8*, i8** %4, align 8, !dbg !3006
  %99 = getelementptr inbounds i8, i8* %98, i64 2, !dbg !3006
  %100 = load i8, i8* %99, align 1, !dbg !3006
  %101 = sext i8 %100 to i32, !dbg !3006
  %102 = and i32 %101, 192, !dbg !3007
  %103 = ashr i32 %102, 4, !dbg !3008
  %104 = load i32*, i32** %6, align 8, !dbg !3009
  %105 = load i32, i32* %104, align 4, !dbg !3010
  %106 = or i32 %105, %103, !dbg !3010
  store i32 %106, i32* %104, align 4, !dbg !3010
  %107 = load i8*, i8** %4, align 8, !dbg !3011
  %108 = getelementptr inbounds i8, i8* %107, i64 3, !dbg !3011
  %109 = load i8, i8* %108, align 1, !dbg !3011
  %110 = sext i8 %109 to i32, !dbg !3012
  %111 = ashr i32 %110, 6, !dbg !3013
  %112 = load i32*, i32** %6, align 8, !dbg !3014
  %113 = load i32, i32* %112, align 4, !dbg !3015
  %114 = or i32 %113, %111, !dbg !3015
  store i32 %114, i32* %112, align 4, !dbg !3015
  %115 = load i32*, i32** %6, align 8, !dbg !3016
  %116 = load i32, i32* %115, align 4, !dbg !3017
  %117 = xor i32 %116, 42, !dbg !3017
  store i32 %117, i32* %115, align 4, !dbg !3017
  %118 = load i32, i32* %7, align 4, !dbg !3018
  %119 = sext i32 %118 to i64, !dbg !3019
  %120 = getelementptr inbounds [5 x i32], [5 x i32]* @_ZZN14altered_carbon2js11utf8_decodeEPKcPwPiE9shift_err, i64 0, i64 %119, !dbg !3019
  %121 = load i32, i32* %120, align 4, !dbg !3019
  %122 = load i32*, i32** %6, align 8, !dbg !3020
  %123 = load i32, i32* %122, align 4, !dbg !3021
  %124 = ashr i32 %123, %121, !dbg !3021
  store i32 %124, i32* %122, align 4, !dbg !3021
  %125 = load i32, i32* %7, align 4, !dbg !3022
  ret i32 %125, !dbg !3023
}

; Function Attrs: nounwind readnone speculatable
declare void @llvm.dbg.declare(metadata, metadata, metadata) #1

; Function Attrs: noinline nounwind optnone ssp uwtable
define zeroext i1 @_ZN14altered_carbon2js17get_file_contentsEPNSt3__112basic_stringIcNS1_11char_traitsIcEENS1_9allocatorIcEEEEPKc(%"class.std::__1::basic_string"*, i8*) #0 !dbg !3024 {
  %3 = alloca %"class.std::__1::ios_base"*, align 8
  call void @llvm.dbg.declare(metadata %"class.std::__1::ios_base"** %3, metadata !3028, metadata !DIExpression()), !dbg !3031
  %4 = alloca i32, align 4
  call void @llvm.dbg.declare(metadata i32* %4, metadata !3076, metadata !DIExpression()), !dbg !3077
  %5 = alloca %"class.std::__1::basic_ios"*, align 8
  call void @llvm.dbg.declare(metadata %"class.std::__1::basic_ios"** %5, metadata !3078, metadata !DIExpression()), !dbg !3080
  %6 = alloca i32, align 4
  call void @llvm.dbg.declare(metadata i32* %6, metadata !3081, metadata !DIExpression()), !dbg !3082
  %7 = alloca %"class.std::__1::basic_ifstream"*, align 8
  call void @llvm.dbg.declare(metadata %"class.std::__1::basic_ifstream"** %7, metadata !3083, metadata !DIExpression()), !dbg !3085
  %8 = alloca %"class.std::__1::back_insert_iterator", align 8
  %9 = alloca %"class.std::__1::back_insert_iterator", align 8
  call void @llvm.dbg.declare(metadata %"class.std::__1::back_insert_iterator"* %9, metadata !3086, metadata !DIExpression()), !dbg !3093
  %10 = alloca %"class.std::__1::istreambuf_iterator", align 8
  %11 = alloca %"class.std::__1::istreambuf_iterator", align 8
  call void @llvm.dbg.declare(metadata %"class.std::__1::istreambuf_iterator"* %11, metadata !3102, metadata !DIExpression()), !dbg !3108
  %12 = alloca %"class.std::__1::back_insert_iterator"*, align 8
  call void @llvm.dbg.declare(metadata %"class.std::__1::back_insert_iterator"** %12, metadata !3110, metadata !DIExpression()), !dbg !3113
  %13 = alloca i32, align 4
  %14 = alloca %"class.std::__1::basic_streambuf"*, align 8
  call void @llvm.dbg.declare(metadata %"class.std::__1::basic_streambuf"** %14, metadata !3119, metadata !DIExpression()), !dbg !3121
  %15 = alloca %"class.std::__1::istreambuf_iterator"*, align 8
  call void @llvm.dbg.declare(metadata %"class.std::__1::istreambuf_iterator"** %15, metadata !3125, metadata !DIExpression()), !dbg !3127
  %16 = alloca i8*, align 8
  call void @llvm.dbg.declare(metadata i8** %16, metadata !3128, metadata !DIExpression()), !dbg !3137
  %17 = alloca %"class.std::__1::back_insert_iterator"*, align 8
  call void @llvm.dbg.declare(metadata %"class.std::__1::back_insert_iterator"** %17, metadata !3141, metadata !DIExpression()), !dbg !3142
  %18 = alloca i8*, align 8
  call void @llvm.dbg.declare(metadata i8** %18, metadata !3143, metadata !DIExpression()), !dbg !3144
  %19 = alloca %"class.std::__1::back_insert_iterator"*, align 8
  call void @llvm.dbg.declare(metadata %"class.std::__1::back_insert_iterator"** %19, metadata !3145, metadata !DIExpression()), !dbg !3147
  %20 = alloca i32, align 4
  %21 = alloca %"class.std::__1::basic_streambuf"*, align 8
  call void @llvm.dbg.declare(metadata %"class.std::__1::basic_streambuf"** %21, metadata !3149, metadata !DIExpression()), !dbg !3151
  %22 = alloca %"class.std::__1::istreambuf_iterator"*, align 8
  call void @llvm.dbg.declare(metadata %"class.std::__1::istreambuf_iterator"** %22, metadata !3155, metadata !DIExpression()), !dbg !3157
  %23 = alloca i32, align 4
  %24 = alloca %"class.std::__1::basic_streambuf"*, align 8
  call void @llvm.dbg.declare(metadata %"class.std::__1::basic_streambuf"** %24, metadata !3149, metadata !DIExpression()), !dbg !3158
  %25 = alloca %"class.std::__1::istreambuf_iterator"*, align 8
  call void @llvm.dbg.declare(metadata %"class.std::__1::istreambuf_iterator"** %25, metadata !3169, metadata !DIExpression()), !dbg !3170
  %26 = alloca i32, align 4
  %27 = alloca %"class.std::__1::basic_streambuf"*, align 8
  call void @llvm.dbg.declare(metadata %"class.std::__1::basic_streambuf"** %27, metadata !3149, metadata !DIExpression()), !dbg !3171
  %28 = alloca %"class.std::__1::istreambuf_iterator"*, align 8
  call void @llvm.dbg.declare(metadata %"class.std::__1::istreambuf_iterator"** %28, metadata !3169, metadata !DIExpression()), !dbg !3174
  %29 = alloca %"class.std::__1::istreambuf_iterator"*, align 8
  call void @llvm.dbg.declare(metadata %"class.std::__1::istreambuf_iterator"** %29, metadata !3175, metadata !DIExpression()), !dbg !3176
  %30 = alloca %"class.std::__1::istreambuf_iterator"*, align 8
  call void @llvm.dbg.declare(metadata %"class.std::__1::istreambuf_iterator"** %30, metadata !3177, metadata !DIExpression()), !dbg !3178
  %31 = alloca %"class.std::__1::istreambuf_iterator"*, align 8
  call void @llvm.dbg.declare(metadata %"class.std::__1::istreambuf_iterator"** %31, metadata !3179, metadata !DIExpression()), !dbg !3180
  %32 = alloca %"class.std::__1::istreambuf_iterator"*, align 8
  call void @llvm.dbg.declare(metadata %"class.std::__1::istreambuf_iterator"** %32, metadata !3181, metadata !DIExpression()), !dbg !3182
  %33 = alloca %"class.std::__1::back_insert_iterator", align 8
  %34 = alloca %"class.std::__1::istreambuf_iterator", align 8
  call void @llvm.dbg.declare(metadata %"class.std::__1::istreambuf_iterator"* %34, metadata !3183, metadata !DIExpression()), !dbg !3184
  %35 = alloca %"class.std::__1::istreambuf_iterator", align 8
  call void @llvm.dbg.declare(metadata %"class.std::__1::istreambuf_iterator"* %35, metadata !3185, metadata !DIExpression()), !dbg !3186
  %36 = alloca %"class.std::__1::back_insert_iterator", align 8
  call void @llvm.dbg.declare(metadata %"class.std::__1::back_insert_iterator"* %36, metadata !3187, metadata !DIExpression()), !dbg !3188
  %37 = alloca i8, align 1
  %38 = alloca %"class.std::__1::istreambuf_iterator", align 8
  %39 = alloca %"class.std::__1::istreambuf_iterator", align 8
  call void @llvm.dbg.declare(metadata %"class.std::__1::istreambuf_iterator"* %39, metadata !3102, metadata !DIExpression()), !dbg !3189
  %40 = alloca %"class.std::__1::back_insert_iterator", align 8
  %41 = alloca %"class.std::__1::istreambuf_iterator", align 8
  call void @llvm.dbg.declare(metadata %"class.std::__1::istreambuf_iterator"* %41, metadata !3191, metadata !DIExpression()), !dbg !3192
  %42 = alloca %"class.std::__1::istreambuf_iterator", align 8
  call void @llvm.dbg.declare(metadata %"class.std::__1::istreambuf_iterator"* %42, metadata !3193, metadata !DIExpression()), !dbg !3194
  %43 = alloca %"class.std::__1::back_insert_iterator", align 8
  call void @llvm.dbg.declare(metadata %"class.std::__1::back_insert_iterator"* %43, metadata !3195, metadata !DIExpression()), !dbg !3196
  %44 = alloca %"class.std::__1::istreambuf_iterator", align 8
  %45 = alloca %"class.std::__1::istreambuf_iterator", align 8
  %46 = alloca %"class.std::__1::istreambuf_iterator", align 8
  %47 = alloca %"class.std::__1::istreambuf_iterator", align 8
  %48 = alloca %"class.std::__1::back_insert_iterator", align 8
  %49 = alloca %"class.std::__1::back_insert_iterator", align 8
  %50 = alloca %"class.std::__1::basic_string"*, align 8
  call void @llvm.dbg.declare(metadata %"class.std::__1::basic_string"** %50, metadata !3197, metadata !DIExpression()), !dbg !3203
  %51 = alloca %"class.std::__1::back_insert_iterator"*, align 8
  call void @llvm.dbg.declare(metadata %"class.std::__1::back_insert_iterator"** %51, metadata !3213, metadata !DIExpression()), !dbg !3214
  %52 = alloca %"class.std::__1::basic_string"*, align 8
  call void @llvm.dbg.declare(metadata %"class.std::__1::basic_string"** %52, metadata !3215, metadata !DIExpression()), !dbg !3216
  %53 = alloca %"class.std::__1::back_insert_iterator"*, align 8
  call void @llvm.dbg.declare(metadata %"class.std::__1::back_insert_iterator"** %53, metadata !3217, metadata !DIExpression()), !dbg !3218
  %54 = alloca %"class.std::__1::basic_string"*, align 8
  call void @llvm.dbg.declare(metadata %"class.std::__1::basic_string"** %54, metadata !3219, metadata !DIExpression()), !dbg !3220
  %55 = alloca %"class.std::__1::back_insert_iterator", align 8
  %56 = alloca %"class.std::__1::basic_string"*, align 8
  call void @llvm.dbg.declare(metadata %"class.std::__1::basic_string"** %56, metadata !3221, metadata !DIExpression()), !dbg !3222
  %57 = alloca %"class.std::__1::istreambuf_iterator"*, align 8
  call void @llvm.dbg.declare(metadata %"class.std::__1::istreambuf_iterator"** %57, metadata !3223, metadata !DIExpression()), !dbg !3225
  %58 = alloca %"class.std::__1::istreambuf_iterator"*, align 8
  call void @llvm.dbg.declare(metadata %"class.std::__1::istreambuf_iterator"** %58, metadata !3229, metadata !DIExpression()), !dbg !3230
  %59 = alloca %"class.std::__1::ios_base"*, align 8
  call void @llvm.dbg.declare(metadata %"class.std::__1::ios_base"** %59, metadata !3231, metadata !DIExpression()), !dbg !3234
  %60 = alloca %"class.std::__1::basic_ios"*, align 8
  call void @llvm.dbg.declare(metadata %"class.std::__1::basic_ios"** %60, metadata !3242, metadata !DIExpression()), !dbg !3244
  %61 = alloca %"class.std::__1::istreambuf_iterator"*, align 8
  call void @llvm.dbg.declare(metadata %"class.std::__1::istreambuf_iterator"** %61, metadata !3245, metadata !DIExpression()), !dbg !3246
  %62 = alloca %"class.std::__1::basic_istream"*, align 8
  call void @llvm.dbg.declare(metadata %"class.std::__1::basic_istream"** %62, metadata !3247, metadata !DIExpression()), !dbg !3248
  %63 = alloca %"class.std::__1::istreambuf_iterator"*, align 8
  call void @llvm.dbg.declare(metadata %"class.std::__1::istreambuf_iterator"** %63, metadata !3249, metadata !DIExpression()), !dbg !3250
  %64 = alloca %"class.std::__1::basic_istream"*, align 8
  call void @llvm.dbg.declare(metadata %"class.std::__1::basic_istream"** %64, metadata !3251, metadata !DIExpression()), !dbg !3252
  %65 = alloca %"class.std::__1::fpos"*, align 8
  call void @llvm.dbg.declare(metadata %"class.std::__1::fpos"** %65, metadata !3253, metadata !DIExpression()), !dbg !3256
  %66 = alloca %"class.std::__1::ios_base"*, align 8
  call void @llvm.dbg.declare(metadata %"class.std::__1::ios_base"** %66, metadata !3258, metadata !DIExpression()), !dbg !3260
  %67 = alloca %"class.std::__1::basic_ios"*, align 8
  call void @llvm.dbg.declare(metadata %"class.std::__1::basic_ios"** %67, metadata !3266, metadata !DIExpression()), !dbg !3267
  %68 = alloca %"class.std::__1::basic_ios"*, align 8
  call void @llvm.dbg.declare(metadata %"class.std::__1::basic_ios"** %68, metadata !3268, metadata !DIExpression()), !dbg !3269
  %69 = alloca %"class.std::__1::basic_ios"*, align 8
  call void @llvm.dbg.declare(metadata %"class.std::__1::basic_ios"** %69, metadata !3270, metadata !DIExpression()), !dbg !3272
  %70 = alloca %"class.std::__1::basic_streambuf"*, align 8
  call void @llvm.dbg.declare(metadata %"class.std::__1::basic_streambuf"** %70, metadata !3279, metadata !DIExpression()), !dbg !3280
  %71 = alloca %"class.std::__1::basic_istream"*, align 8
  call void @llvm.dbg.declare(metadata %"class.std::__1::basic_istream"** %71, metadata !3281, metadata !DIExpression()), !dbg !3283
  %72 = alloca i8**, align 8
  call void @llvm.dbg.declare(metadata i8*** %72, metadata !3284, metadata !DIExpression()), !dbg !3283
  %73 = alloca %"class.std::__1::basic_streambuf"*, align 8
  call void @llvm.dbg.declare(metadata %"class.std::__1::basic_streambuf"** %73, metadata !3285, metadata !DIExpression()), !dbg !3286
  %74 = alloca %"class.std::__1::ios_base"*, align 8
  call void @llvm.dbg.declare(metadata %"class.std::__1::ios_base"** %74, metadata !3028, metadata !DIExpression()), !dbg !3287
  %75 = alloca i32, align 4
  call void @llvm.dbg.declare(metadata i32* %75, metadata !3076, metadata !DIExpression()), !dbg !3292
  %76 = alloca %"class.std::__1::basic_ios"*, align 8
  call void @llvm.dbg.declare(metadata %"class.std::__1::basic_ios"** %76, metadata !3078, metadata !DIExpression()), !dbg !3293
  %77 = alloca i32, align 4
  call void @llvm.dbg.declare(metadata i32* %77, metadata !3081, metadata !DIExpression()), !dbg !3294
  %78 = alloca %"class.std::__1::ios_base"*, align 8
  call void @llvm.dbg.declare(metadata %"class.std::__1::ios_base"** %78, metadata !3295, metadata !DIExpression()), !dbg !3297
  %79 = alloca %"class.std::__1::basic_ios"*, align 8
  call void @llvm.dbg.declare(metadata %"class.std::__1::basic_ios"** %79, metadata !3301, metadata !DIExpression()), !dbg !3302
  %80 = alloca %"class.std::__1::basic_ifstream"*, align 8
  call void @llvm.dbg.declare(metadata %"class.std::__1::basic_ifstream"** %80, metadata !3303, metadata !DIExpression()), !dbg !3304
  %81 = alloca i8*, align 8
  call void @llvm.dbg.declare(metadata i8** %81, metadata !3305, metadata !DIExpression()), !dbg !3306
  %82 = alloca i32, align 4
  call void @llvm.dbg.declare(metadata i32* %82, metadata !3307, metadata !DIExpression()), !dbg !3308
  %83 = alloca i1, align 1
  %84 = alloca %"class.std::__1::basic_string"*, align 8
  %85 = alloca i8*, align 8
  %86 = alloca %"class.std::__1::basic_ifstream", align 8
  %87 = alloca %"class.std::__1::fpos", align 8
  %88 = alloca %"class.std::__1::istreambuf_iterator", align 8
  %89 = alloca %"class.std::__1::istreambuf_iterator", align 8
  %90 = alloca %"class.std::__1::back_insert_iterator", align 8
  %91 = alloca %"class.std::__1::back_insert_iterator", align 8
  store %"class.std::__1::basic_string"* %0, %"class.std::__1::basic_string"** %84, align 8
  call void @llvm.dbg.declare(metadata %"class.std::__1::basic_string"** %84, metadata !3309, metadata !DIExpression()), !dbg !3310
  store i8* %1, i8** %85, align 8
  call void @llvm.dbg.declare(metadata i8** %85, metadata !3311, metadata !DIExpression()), !dbg !3312
  %92 = load %"class.std::__1::basic_string"*, %"class.std::__1::basic_string"** %84, align 8, !dbg !3313
  %93 = icmp eq %"class.std::__1::basic_string"* %92, null, !dbg !3315
  br i1 %93, label %94, label %95, !dbg !3316

; <label>:94:                                     ; preds = %2
  store i1 false, i1* %83, align 1, !dbg !3317
  br label %454, !dbg !3317

; <label>:95:                                     ; preds = %2
  call void @llvm.dbg.declare(metadata %"class.std::__1::basic_ifstream"* %86, metadata !3319, metadata !DIExpression()), !dbg !3321
  %96 = load i8*, i8** %85, align 8, !dbg !3322
  store %"class.std::__1::basic_ifstream"* %86, %"class.std::__1::basic_ifstream"** %80, align 8
  store i8* %96, i8** %81, align 8
  store i32 12, i32* %82, align 4
  %97 = load %"class.std::__1::basic_ifstream"*, %"class.std::__1::basic_ifstream"** %80, align 8
  %98 = bitcast %"class.std::__1::basic_ifstream"* %97 to i8*, !dbg !3323
  %99 = getelementptr inbounds i8, i8* %98, i64 424, !dbg !3323
  %100 = bitcast i8* %99 to %"class.std::__1::basic_ios"*, !dbg !3323
  store %"class.std::__1::basic_ios"* %100, %"class.std::__1::basic_ios"** %79, align 8
  %101 = load %"class.std::__1::basic_ios"*, %"class.std::__1::basic_ios"** %79, align 8
  %102 = bitcast %"class.std::__1::basic_ios"* %101 to %"class.std::__1::ios_base"*, !dbg !3324
  store %"class.std::__1::ios_base"* %102, %"class.std::__1::ios_base"** %78, align 8
  %103 = load %"class.std::__1::ios_base"*, %"class.std::__1::ios_base"** %78, align 8
  %104 = bitcast %"class.std::__1::ios_base"* %103 to i32 (...)***, !dbg !3325
  store i32 (...)** bitcast (i8** getelementptr inbounds ({ [4 x i8*] }, { [4 x i8*] }* @_ZTVNSt3__18ios_baseE, i32 0, inrange i32 0, i32 2) to i32 (...)**), i32 (...)*** %104, align 8, !dbg !3325
  %105 = bitcast %"class.std::__1::basic_ios"* %101 to i32 (...)***, !dbg !3324
  store i32 (...)** bitcast (i8** getelementptr inbounds ({ [4 x i8*] }, { [4 x i8*] }* @_ZTVNSt3__19basic_iosIcNS_11char_traitsIcEEEE, i32 0, inrange i32 0, i32 2) to i32 (...)**), i32 (...)*** %105, align 8, !dbg !3324
  %106 = bitcast %"class.std::__1::basic_ifstream"* %97 to i32 (...)***, !dbg !3323
  store i32 (...)** bitcast (i8** getelementptr inbounds ({ [5 x i8*], [5 x i8*] }, { [5 x i8*], [5 x i8*] }* @_ZTVNSt3__114basic_ifstreamIcNS_11char_traitsIcEEEE, i32 0, inrange i32 0, i32 3) to i32 (...)**), i32 (...)*** %106, align 8, !dbg !3323
  %107 = bitcast %"class.std::__1::basic_ifstream"* %97 to i8*, !dbg !3323
  %108 = getelementptr inbounds i8, i8* %107, i64 424, !dbg !3323
  %109 = bitcast i8* %108 to i32 (...)***, !dbg !3323
  store i32 (...)** bitcast (i8** getelementptr inbounds ({ [5 x i8*], [5 x i8*] }, { [5 x i8*], [5 x i8*] }* @_ZTVNSt3__114basic_ifstreamIcNS_11char_traitsIcEEEE, i32 0, inrange i32 1, i32 3) to i32 (...)**), i32 (...)*** %109, align 8, !dbg !3323
  %110 = bitcast %"class.std::__1::basic_ifstream"* %97 to %"class.std::__1::basic_istream"*, !dbg !3323
  %111 = getelementptr inbounds %"class.std::__1::basic_ifstream", %"class.std::__1::basic_ifstream"* %97, i32 0, i32 1, !dbg !3326
  %112 = bitcast %"class.std::__1::basic_filebuf"* %111 to %"class.std::__1::basic_streambuf"*, !dbg !3327
  store %"class.std::__1::basic_istream"* %110, %"class.std::__1::basic_istream"** %71, align 8
  store i8** getelementptr inbounds ([4 x i8*], [4 x i8*]* @_ZTTNSt3__114basic_ifstreamIcNS_11char_traitsIcEEEE, i64 0, i64 1), i8*** %72, align 8
  store %"class.std::__1::basic_streambuf"* %112, %"class.std::__1::basic_streambuf"** %73, align 8
  %113 = load %"class.std::__1::basic_istream"*, %"class.std::__1::basic_istream"** %71, align 8
  %114 = load i8**, i8*** %72, align 8
  %115 = load i8*, i8** %114, align 8, !dbg !3328
  %116 = bitcast %"class.std::__1::basic_istream"* %113 to i32 (...)***, !dbg !3328
  %117 = bitcast i8* %115 to i32 (...)**, !dbg !3328
  store i32 (...)** %117, i32 (...)*** %116, align 8, !dbg !3328
  %118 = getelementptr inbounds i8*, i8** %114, i64 1, !dbg !3328
  %119 = load i8*, i8** %118, align 8, !dbg !3328
  %120 = bitcast %"class.std::__1::basic_istream"* %113 to i8**, !dbg !3328
  %121 = load i8*, i8** %120, align 8, !dbg !3328
  %122 = getelementptr i8, i8* %121, i64 -24, !dbg !3328
  %123 = bitcast i8* %122 to i64*, !dbg !3328
  %124 = load i64, i64* %123, align 8, !dbg !3328
  %125 = bitcast %"class.std::__1::basic_istream"* %113 to i8*, !dbg !3328
  %126 = getelementptr inbounds i8, i8* %125, i64 %124, !dbg !3328
  %127 = bitcast i8* %126 to i32 (...)***, !dbg !3328
  %128 = bitcast i8* %119 to i32 (...)**, !dbg !3328
  store i32 (...)** %128, i32 (...)*** %127, align 8, !dbg !3328
  %129 = getelementptr inbounds %"class.std::__1::basic_istream", %"class.std::__1::basic_istream"* %113, i32 0, i32 1, !dbg !3329
  store i64 0, i64* %129, align 8, !dbg !3329
  %130 = bitcast %"class.std::__1::basic_istream"* %113 to i8**, !dbg !3330
  %131 = load i8*, i8** %130, align 8, !dbg !3330
  %132 = getelementptr i8, i8* %131, i64 -24, !dbg !3330
  %133 = bitcast i8* %132 to i64*, !dbg !3330
  %134 = load i64, i64* %133, align 8, !dbg !3330
  %135 = bitcast %"class.std::__1::basic_istream"* %113 to i8*, !dbg !3330
  %136 = getelementptr inbounds i8, i8* %135, i64 %134, !dbg !3330
  %137 = bitcast i8* %136 to %"class.std::__1::basic_ios"*, !dbg !3330
  %138 = load %"class.std::__1::basic_streambuf"*, %"class.std::__1::basic_streambuf"** %73, align 8, !dbg !3331
  store %"class.std::__1::basic_ios"* %137, %"class.std::__1::basic_ios"** %69, align 8
  store %"class.std::__1::basic_streambuf"* %138, %"class.std::__1::basic_streambuf"** %70, align 8
  %139 = load %"class.std::__1::basic_ios"*, %"class.std::__1::basic_ios"** %69, align 8
  %140 = bitcast %"class.std::__1::basic_ios"* %139 to %"class.std::__1::ios_base"*, !dbg !3332
  %141 = load %"class.std::__1::basic_streambuf"*, %"class.std::__1::basic_streambuf"** %70, align 8, !dbg !3333
  %142 = bitcast %"class.std::__1::basic_streambuf"* %141 to i8*, !dbg !3333
  call void @_ZNSt3__18ios_base4initEPv(%"class.std::__1::ios_base"* %140, i8* %142) #8, !dbg !3332
  %143 = getelementptr inbounds %"class.std::__1::basic_ios", %"class.std::__1::basic_ios"* %139, i32 0, i32 1, !dbg !3334
  store %"class.std::__1::basic_ostream"* null, %"class.std::__1::basic_ostream"** %143, align 8, !dbg !3335
  %144 = call i32 @_ZNSt3__111char_traitsIcE3eofEv() #8, !dbg !3336
  %145 = getelementptr inbounds %"class.std::__1::basic_ios", %"class.std::__1::basic_ios"* %139, i32 0, i32 2, !dbg !3337
  store i32 %144, i32* %145, align 8, !dbg !3338
  %146 = bitcast %"class.std::__1::basic_ifstream"* %97 to i32 (...)***, !dbg !3323
  store i32 (...)** bitcast (i8** getelementptr inbounds ({ [5 x i8*], [5 x i8*] }, { [5 x i8*], [5 x i8*] }* @_ZTVNSt3__114basic_ifstreamIcNS_11char_traitsIcEEEE, i32 0, inrange i32 0, i32 3) to i32 (...)**), i32 (...)*** %146, align 8, !dbg !3323
  %147 = bitcast %"class.std::__1::basic_ifstream"* %97 to i8*, !dbg !3323
  %148 = getelementptr inbounds i8, i8* %147, i64 424, !dbg !3323
  %149 = bitcast i8* %148 to i32 (...)***, !dbg !3323
  store i32 (...)** bitcast (i8** getelementptr inbounds ({ [5 x i8*], [5 x i8*] }, { [5 x i8*], [5 x i8*] }* @_ZTVNSt3__114basic_ifstreamIcNS_11char_traitsIcEEEE, i32 0, inrange i32 1, i32 3) to i32 (...)**), i32 (...)*** %149, align 8, !dbg !3323
  %150 = getelementptr inbounds %"class.std::__1::basic_ifstream", %"class.std::__1::basic_ifstream"* %97, i32 0, i32 1, !dbg !3339
  call void @_ZNSt3__113basic_filebufIcNS_11char_traitsIcEEEC1Ev(%"class.std::__1::basic_filebuf"* %150) #8, !dbg !3339
  %151 = getelementptr inbounds %"class.std::__1::basic_ifstream", %"class.std::__1::basic_ifstream"* %97, i32 0, i32 1, !dbg !3340
  %152 = load i8*, i8** %81, align 8, !dbg !3341
  %153 = load i32, i32* %82, align 4, !dbg !3342
  %154 = or i32 %153, 8, !dbg !3343
  %155 = call %"class.std::__1::basic_filebuf"* @_ZNSt3__113basic_filebufIcNS_11char_traitsIcEEE4openEPKcj(%"class.std::__1::basic_filebuf"* %151, i8* %152, i32 %154) #8, !dbg !3344
  %156 = icmp eq %"class.std::__1::basic_filebuf"* %155, null, !dbg !3345
  br i1 %156, label %157, label %174, !dbg !3346

; <label>:157:                                    ; preds = %95
  %158 = bitcast %"class.std::__1::basic_ifstream"* %97 to i8**, !dbg !3347
  %159 = load i8*, i8** %158, align 8, !dbg !3347
  %160 = getelementptr i8, i8* %159, i64 -24, !dbg !3347
  %161 = bitcast i8* %160 to i64*, !dbg !3347
  %162 = load i64, i64* %161, align 8, !dbg !3347
  %163 = bitcast %"class.std::__1::basic_ifstream"* %97 to i8*, !dbg !3347
  %164 = getelementptr inbounds i8, i8* %163, i64 %162, !dbg !3347
  %165 = bitcast i8* %164 to %"class.std::__1::basic_ios"*, !dbg !3347
  store %"class.std::__1::basic_ios"* %165, %"class.std::__1::basic_ios"** %76, align 8
  store i32 4, i32* %77, align 4
  %166 = load %"class.std::__1::basic_ios"*, %"class.std::__1::basic_ios"** %76, align 8
  %167 = bitcast %"class.std::__1::basic_ios"* %166 to %"class.std::__1::ios_base"*, !dbg !3348
  %168 = load i32, i32* %77, align 4, !dbg !3349
  store %"class.std::__1::ios_base"* %167, %"class.std::__1::ios_base"** %74, align 8
  store i32 %168, i32* %75, align 4
  %169 = load %"class.std::__1::ios_base"*, %"class.std::__1::ios_base"** %74, align 8
  %170 = getelementptr inbounds %"class.std::__1::ios_base", %"class.std::__1::ios_base"* %169, i32 0, i32 4, !dbg !3350
  %171 = load i32, i32* %170, align 8, !dbg !3350
  %172 = load i32, i32* %75, align 4, !dbg !3351
  %173 = or i32 %171, %172, !dbg !3352
  call void @_ZNSt3__18ios_base5clearEj(%"class.std::__1::ios_base"* %169, i32 %173) #8, !dbg !3353
  br label %174, !dbg !3354

; <label>:174:                                    ; preds = %95, %157
  %175 = bitcast %"class.std::__1::basic_ifstream"* %86 to i8**, !dbg !3355
  %176 = load i8*, i8** %175, align 8, !dbg !3355
  %177 = getelementptr i8, i8* %176, i64 -24, !dbg !3355
  %178 = bitcast i8* %177 to i64*, !dbg !3355
  %179 = load i64, i64* %178, align 8, !dbg !3355
  %180 = bitcast %"class.std::__1::basic_ifstream"* %86 to i8*, !dbg !3355
  %181 = getelementptr inbounds i8, i8* %180, i64 %179, !dbg !3355
  %182 = bitcast i8* %181 to %"class.std::__1::basic_ios"*, !dbg !3355
  store %"class.std::__1::basic_ios"* %182, %"class.std::__1::basic_ios"** %68, align 8
  %183 = load %"class.std::__1::basic_ios"*, %"class.std::__1::basic_ios"** %68, align 8
  store %"class.std::__1::basic_ios"* %183, %"class.std::__1::basic_ios"** %67, align 8
  %184 = load %"class.std::__1::basic_ios"*, %"class.std::__1::basic_ios"** %67, align 8
  %185 = bitcast %"class.std::__1::basic_ios"* %184 to %"class.std::__1::ios_base"*, !dbg !3356
  store %"class.std::__1::ios_base"* %185, %"class.std::__1::ios_base"** %66, align 8
  %186 = load %"class.std::__1::ios_base"*, %"class.std::__1::ios_base"** %66, align 8
  %187 = getelementptr inbounds %"class.std::__1::ios_base", %"class.std::__1::ios_base"* %186, i32 0, i32 4, !dbg !3357
  %188 = load i32, i32* %187, align 8, !dbg !3357
  %189 = and i32 %188, 5, !dbg !3358
  %190 = icmp ne i32 %189, 0, !dbg !3359
  %191 = xor i1 %190, true, !dbg !3360
  br i1 %191, label %192, label %450, !dbg !3361

; <label>:192:                                    ; preds = %174
  %193 = bitcast %"class.std::__1::basic_ifstream"* %86 to %"class.std::__1::basic_istream"*, !dbg !3362
  %194 = call dereferenceable(168) %"class.std::__1::basic_istream"* @_ZNSt3__113basic_istreamIcNS_11char_traitsIcEEE5seekgExNS_8ios_base7seekdirE(%"class.std::__1::basic_istream"* %193, i64 0, i32 2), !dbg !3363
  %195 = load %"class.std::__1::basic_string"*, %"class.std::__1::basic_string"** %84, align 8, !dbg !3364
  %196 = bitcast %"class.std::__1::basic_ifstream"* %86 to %"class.std::__1::basic_istream"*, !dbg !3365
  call void @_ZNSt3__113basic_istreamIcNS_11char_traitsIcEEE5tellgEv(%"class.std::__1::fpos"* sret %87, %"class.std::__1::basic_istream"* %196), !dbg !3366
  store %"class.std::__1::fpos"* %87, %"class.std::__1::fpos"** %65, align 8
  %197 = load %"class.std::__1::fpos"*, %"class.std::__1::fpos"** %65, align 8
  %198 = getelementptr inbounds %"class.std::__1::fpos", %"class.std::__1::fpos"* %197, i32 0, i32 1, !dbg !3367
  %199 = load i64, i64* %198, align 8, !dbg !3367
  call void @_ZNSt3__112basic_stringIcNS_11char_traitsIcEENS_9allocatorIcEEE7reserveEm(%"class.std::__1::basic_string"* %195, i64 %199), !dbg !3368
  %200 = bitcast %"class.std::__1::basic_ifstream"* %86 to %"class.std::__1::basic_istream"*, !dbg !3369
  %201 = call dereferenceable(168) %"class.std::__1::basic_istream"* @_ZNSt3__113basic_istreamIcNS_11char_traitsIcEEE5seekgExNS_8ios_base7seekdirE(%"class.std::__1::basic_istream"* %200, i64 0, i32 0), !dbg !3370
  %202 = bitcast %"class.std::__1::basic_ifstream"* %86 to %"class.std::__1::basic_istream"*, !dbg !3371
  store %"class.std::__1::istreambuf_iterator"* %88, %"class.std::__1::istreambuf_iterator"** %63, align 8
  store %"class.std::__1::basic_istream"* %202, %"class.std::__1::basic_istream"** %64, align 8
  %203 = load %"class.std::__1::istreambuf_iterator"*, %"class.std::__1::istreambuf_iterator"** %63, align 8
  %204 = load %"class.std::__1::basic_istream"*, %"class.std::__1::basic_istream"** %64, align 8, !dbg !3372
  store %"class.std::__1::istreambuf_iterator"* %203, %"class.std::__1::istreambuf_iterator"** %61, align 8
  store %"class.std::__1::basic_istream"* %204, %"class.std::__1::basic_istream"** %62, align 8
  %205 = load %"class.std::__1::istreambuf_iterator"*, %"class.std::__1::istreambuf_iterator"** %61, align 8
  %206 = bitcast %"class.std::__1::istreambuf_iterator"* %205 to %"struct.std::__1::iterator.2"*, !dbg !3373
  %207 = getelementptr inbounds %"class.std::__1::istreambuf_iterator", %"class.std::__1::istreambuf_iterator"* %205, i32 0, i32 0, !dbg !3374
  %208 = load %"class.std::__1::basic_istream"*, %"class.std::__1::basic_istream"** %62, align 8, !dbg !3375
  %209 = bitcast %"class.std::__1::basic_istream"* %208 to i8**, !dbg !3375
  %210 = load i8*, i8** %209, align 8, !dbg !3375
  %211 = getelementptr i8, i8* %210, i64 -24, !dbg !3375
  %212 = bitcast i8* %211 to i64*, !dbg !3375
  %213 = load i64, i64* %212, align 8, !dbg !3375
  %214 = bitcast %"class.std::__1::basic_istream"* %208 to i8*, !dbg !3375
  %215 = getelementptr inbounds i8, i8* %214, i64 %213, !dbg !3375
  %216 = bitcast i8* %215 to %"class.std::__1::basic_ios"*, !dbg !3375
  store %"class.std::__1::basic_ios"* %216, %"class.std::__1::basic_ios"** %60, align 8
  %217 = load %"class.std::__1::basic_ios"*, %"class.std::__1::basic_ios"** %60, align 8
  %218 = bitcast %"class.std::__1::basic_ios"* %217 to %"class.std::__1::ios_base"*, !dbg !3376
  store %"class.std::__1::ios_base"* %218, %"class.std::__1::ios_base"** %59, align 8
  %219 = load %"class.std::__1::ios_base"*, %"class.std::__1::ios_base"** %59, align 8
  %220 = getelementptr inbounds %"class.std::__1::ios_base", %"class.std::__1::ios_base"* %219, i32 0, i32 6, !dbg !3377
  %221 = load i8*, i8** %220, align 8, !dbg !3377
  %222 = bitcast i8* %221 to %"class.std::__1::basic_streambuf"*, !dbg !3378
  store %"class.std::__1::basic_streambuf"* %222, %"class.std::__1::basic_streambuf"** %207, align 8, !dbg !3374
  store %"class.std::__1::istreambuf_iterator"* %89, %"class.std::__1::istreambuf_iterator"** %58, align 8
  %223 = load %"class.std::__1::istreambuf_iterator"*, %"class.std::__1::istreambuf_iterator"** %58, align 8
  store %"class.std::__1::istreambuf_iterator"* %223, %"class.std::__1::istreambuf_iterator"** %57, align 8
  %224 = load %"class.std::__1::istreambuf_iterator"*, %"class.std::__1::istreambuf_iterator"** %57, align 8
  %225 = bitcast %"class.std::__1::istreambuf_iterator"* %224 to %"struct.std::__1::iterator.2"*, !dbg !3379
  %226 = getelementptr inbounds %"class.std::__1::istreambuf_iterator", %"class.std::__1::istreambuf_iterator"* %224, i32 0, i32 0, !dbg !3380
  store %"class.std::__1::basic_streambuf"* null, %"class.std::__1::basic_streambuf"** %226, align 8, !dbg !3380
  %227 = load %"class.std::__1::basic_string"*, %"class.std::__1::basic_string"** %84, align 8, !dbg !3381
  store %"class.std::__1::basic_string"* %227, %"class.std::__1::basic_string"** %56, align 8
  %228 = load %"class.std::__1::basic_string"*, %"class.std::__1::basic_string"** %56, align 8, !dbg !3382
  store %"class.std::__1::back_insert_iterator"* %55, %"class.std::__1::back_insert_iterator"** %53, align 8
  store %"class.std::__1::basic_string"* %228, %"class.std::__1::basic_string"** %54, align 8
  %229 = load %"class.std::__1::back_insert_iterator"*, %"class.std::__1::back_insert_iterator"** %53, align 8
  %230 = load %"class.std::__1::basic_string"*, %"class.std::__1::basic_string"** %54, align 8, !dbg !3383
  store %"class.std::__1::back_insert_iterator"* %229, %"class.std::__1::back_insert_iterator"** %51, align 8
  store %"class.std::__1::basic_string"* %230, %"class.std::__1::basic_string"** %52, align 8
  %231 = load %"class.std::__1::back_insert_iterator"*, %"class.std::__1::back_insert_iterator"** %51, align 8
  %232 = bitcast %"class.std::__1::back_insert_iterator"* %231 to %"struct.std::__1::iterator"*, !dbg !3384
  %233 = getelementptr inbounds %"class.std::__1::back_insert_iterator", %"class.std::__1::back_insert_iterator"* %231, i32 0, i32 0, !dbg !3385
  %234 = load %"class.std::__1::basic_string"*, %"class.std::__1::basic_string"** %52, align 8, !dbg !3386
  store %"class.std::__1::basic_string"* %234, %"class.std::__1::basic_string"** %50, align 8
  %235 = load %"class.std::__1::basic_string"*, %"class.std::__1::basic_string"** %50, align 8, !dbg !3387
  store %"class.std::__1::basic_string"* %235, %"class.std::__1::basic_string"** %233, align 8, !dbg !3385
  %236 = getelementptr inbounds %"class.std::__1::back_insert_iterator", %"class.std::__1::back_insert_iterator"* %55, i32 0, i32 0, !dbg !3388
  %237 = load %"class.std::__1::basic_string"*, %"class.std::__1::basic_string"** %236, align 8, !dbg !3388
  %238 = getelementptr inbounds %"class.std::__1::back_insert_iterator", %"class.std::__1::back_insert_iterator"* %90, i32 0, i32 0, !dbg !3389
  store %"class.std::__1::basic_string"* %237, %"class.std::__1::basic_string"** %238, align 8, !dbg !3389
  %239 = getelementptr inbounds %"class.std::__1::istreambuf_iterator", %"class.std::__1::istreambuf_iterator"* %88, i32 0, i32 0, !dbg !3390
  %240 = load %"class.std::__1::basic_streambuf"*, %"class.std::__1::basic_streambuf"** %239, align 8, !dbg !3390
  %241 = getelementptr inbounds %"class.std::__1::istreambuf_iterator", %"class.std::__1::istreambuf_iterator"* %89, i32 0, i32 0, !dbg !3390
  %242 = load %"class.std::__1::basic_streambuf"*, %"class.std::__1::basic_streambuf"** %241, align 8, !dbg !3390
  %243 = getelementptr inbounds %"class.std::__1::back_insert_iterator", %"class.std::__1::back_insert_iterator"* %90, i32 0, i32 0, !dbg !3390
  %244 = load %"class.std::__1::basic_string"*, %"class.std::__1::basic_string"** %243, align 8, !dbg !3390
  %245 = getelementptr inbounds %"class.std::__1::istreambuf_iterator", %"class.std::__1::istreambuf_iterator"* %41, i32 0, i32 0
  store %"class.std::__1::basic_streambuf"* %240, %"class.std::__1::basic_streambuf"** %245, align 8
  %246 = getelementptr inbounds %"class.std::__1::istreambuf_iterator", %"class.std::__1::istreambuf_iterator"* %42, i32 0, i32 0
  store %"class.std::__1::basic_streambuf"* %242, %"class.std::__1::basic_streambuf"** %246, align 8
  %247 = getelementptr inbounds %"class.std::__1::back_insert_iterator", %"class.std::__1::back_insert_iterator"* %43, i32 0, i32 0
  store %"class.std::__1::basic_string"* %244, %"class.std::__1::basic_string"** %247, align 8
  %248 = bitcast %"class.std::__1::istreambuf_iterator"* %45 to i8*, !dbg !3391
  %249 = bitcast %"class.std::__1::istreambuf_iterator"* %41 to i8*, !dbg !3391
  call void @llvm.memcpy.p0i8.p0i8.i64(i8* align 8 %248, i8* align 8 %249, i64 8, i1 false), !dbg !3391
  %250 = getelementptr inbounds %"class.std::__1::istreambuf_iterator", %"class.std::__1::istreambuf_iterator"* %45, i32 0, i32 0, !dbg !3392
  %251 = load %"class.std::__1::basic_streambuf"*, %"class.std::__1::basic_streambuf"** %250, align 8, !dbg !3392
  %252 = getelementptr inbounds %"class.std::__1::istreambuf_iterator", %"class.std::__1::istreambuf_iterator"* %39, i32 0, i32 0
  store %"class.std::__1::basic_streambuf"* %251, %"class.std::__1::basic_streambuf"** %252, align 8
  %253 = bitcast %"class.std::__1::istreambuf_iterator"* %38 to i8*, !dbg !3393
  %254 = bitcast %"class.std::__1::istreambuf_iterator"* %39 to i8*, !dbg !3393
  call void @llvm.memcpy.p0i8.p0i8.i64(i8* align 8 %253, i8* align 8 %254, i64 8, i1 false), !dbg !3393
  %255 = getelementptr inbounds %"class.std::__1::istreambuf_iterator", %"class.std::__1::istreambuf_iterator"* %38, i32 0, i32 0, !dbg !3394
  %256 = load %"class.std::__1::basic_streambuf"*, %"class.std::__1::basic_streambuf"** %255, align 8, !dbg !3394
  %257 = getelementptr inbounds %"class.std::__1::istreambuf_iterator", %"class.std::__1::istreambuf_iterator"* %44, i32 0, i32 0, !dbg !3392
  store %"class.std::__1::basic_streambuf"* %256, %"class.std::__1::basic_streambuf"** %257, align 8, !dbg !3392
  %258 = bitcast %"class.std::__1::istreambuf_iterator"* %47 to i8*, !dbg !3395
  %259 = bitcast %"class.std::__1::istreambuf_iterator"* %42 to i8*, !dbg !3395
  call void @llvm.memcpy.p0i8.p0i8.i64(i8* align 8 %258, i8* align 8 %259, i64 8, i1 false), !dbg !3395
  %260 = getelementptr inbounds %"class.std::__1::istreambuf_iterator", %"class.std::__1::istreambuf_iterator"* %47, i32 0, i32 0, !dbg !3396
  %261 = load %"class.std::__1::basic_streambuf"*, %"class.std::__1::basic_streambuf"** %260, align 8, !dbg !3396
  %262 = getelementptr inbounds %"class.std::__1::istreambuf_iterator", %"class.std::__1::istreambuf_iterator"* %11, i32 0, i32 0
  store %"class.std::__1::basic_streambuf"* %261, %"class.std::__1::basic_streambuf"** %262, align 8
  %263 = bitcast %"class.std::__1::istreambuf_iterator"* %10 to i8*, !dbg !3397
  %264 = bitcast %"class.std::__1::istreambuf_iterator"* %11 to i8*, !dbg !3397
  call void @llvm.memcpy.p0i8.p0i8.i64(i8* align 8 %263, i8* align 8 %264, i64 8, i1 false), !dbg !3397
  %265 = getelementptr inbounds %"class.std::__1::istreambuf_iterator", %"class.std::__1::istreambuf_iterator"* %10, i32 0, i32 0, !dbg !3398
  %266 = load %"class.std::__1::basic_streambuf"*, %"class.std::__1::basic_streambuf"** %265, align 8, !dbg !3398
  %267 = getelementptr inbounds %"class.std::__1::istreambuf_iterator", %"class.std::__1::istreambuf_iterator"* %46, i32 0, i32 0, !dbg !3396
  store %"class.std::__1::basic_streambuf"* %266, %"class.std::__1::basic_streambuf"** %267, align 8, !dbg !3396
  %268 = bitcast %"class.std::__1::back_insert_iterator"* %49 to i8*, !dbg !3399
  %269 = bitcast %"class.std::__1::back_insert_iterator"* %43 to i8*, !dbg !3399
  call void @llvm.memcpy.p0i8.p0i8.i64(i8* align 8 %268, i8* align 8 %269, i64 8, i1 false), !dbg !3399
  %270 = getelementptr inbounds %"class.std::__1::back_insert_iterator", %"class.std::__1::back_insert_iterator"* %49, i32 0, i32 0, !dbg !3400
  %271 = load %"class.std::__1::basic_string"*, %"class.std::__1::basic_string"** %270, align 8, !dbg !3400
  %272 = getelementptr inbounds %"class.std::__1::back_insert_iterator", %"class.std::__1::back_insert_iterator"* %9, i32 0, i32 0
  store %"class.std::__1::basic_string"* %271, %"class.std::__1::basic_string"** %272, align 8
  %273 = bitcast %"class.std::__1::back_insert_iterator"* %8 to i8*, !dbg !3401
  %274 = bitcast %"class.std::__1::back_insert_iterator"* %9 to i8*, !dbg !3401
  call void @llvm.memcpy.p0i8.p0i8.i64(i8* align 8 %273, i8* align 8 %274, i64 8, i1 false), !dbg !3401
  %275 = getelementptr inbounds %"class.std::__1::back_insert_iterator", %"class.std::__1::back_insert_iterator"* %8, i32 0, i32 0, !dbg !3402
  %276 = load %"class.std::__1::basic_string"*, %"class.std::__1::basic_string"** %275, align 8, !dbg !3402
  %277 = getelementptr inbounds %"class.std::__1::back_insert_iterator", %"class.std::__1::back_insert_iterator"* %48, i32 0, i32 0, !dbg !3400
  store %"class.std::__1::basic_string"* %276, %"class.std::__1::basic_string"** %277, align 8, !dbg !3400
  %278 = getelementptr inbounds %"class.std::__1::istreambuf_iterator", %"class.std::__1::istreambuf_iterator"* %44, i32 0, i32 0, !dbg !3403
  %279 = load %"class.std::__1::basic_streambuf"*, %"class.std::__1::basic_streambuf"** %278, align 8, !dbg !3403
  %280 = getelementptr inbounds %"class.std::__1::istreambuf_iterator", %"class.std::__1::istreambuf_iterator"* %46, i32 0, i32 0, !dbg !3403
  %281 = load %"class.std::__1::basic_streambuf"*, %"class.std::__1::basic_streambuf"** %280, align 8, !dbg !3403
  %282 = getelementptr inbounds %"class.std::__1::back_insert_iterator", %"class.std::__1::back_insert_iterator"* %48, i32 0, i32 0, !dbg !3403
  %283 = load %"class.std::__1::basic_string"*, %"class.std::__1::basic_string"** %282, align 8, !dbg !3403
  %284 = getelementptr inbounds %"class.std::__1::istreambuf_iterator", %"class.std::__1::istreambuf_iterator"* %34, i32 0, i32 0
  store %"class.std::__1::basic_streambuf"* %279, %"class.std::__1::basic_streambuf"** %284, align 8
  %285 = getelementptr inbounds %"class.std::__1::istreambuf_iterator", %"class.std::__1::istreambuf_iterator"* %35, i32 0, i32 0
  store %"class.std::__1::basic_streambuf"* %281, %"class.std::__1::basic_streambuf"** %285, align 8
  %286 = getelementptr inbounds %"class.std::__1::back_insert_iterator", %"class.std::__1::back_insert_iterator"* %36, i32 0, i32 0
  store %"class.std::__1::basic_string"* %283, %"class.std::__1::basic_string"** %286, align 8
  br label %287, !dbg !3404

; <label>:287:                                    ; preds = %416, %192
  store %"class.std::__1::istreambuf_iterator"* %34, %"class.std::__1::istreambuf_iterator"** %31, align 8
  store %"class.std::__1::istreambuf_iterator"* %35, %"class.std::__1::istreambuf_iterator"** %32, align 8
  %288 = load %"class.std::__1::istreambuf_iterator"*, %"class.std::__1::istreambuf_iterator"** %31, align 8, !dbg !3405
  %289 = load %"class.std::__1::istreambuf_iterator"*, %"class.std::__1::istreambuf_iterator"** %32, align 8, !dbg !3406
  store %"class.std::__1::istreambuf_iterator"* %288, %"class.std::__1::istreambuf_iterator"** %29, align 8
  store %"class.std::__1::istreambuf_iterator"* %289, %"class.std::__1::istreambuf_iterator"** %30, align 8
  %290 = load %"class.std::__1::istreambuf_iterator"*, %"class.std::__1::istreambuf_iterator"** %29, align 8
  store %"class.std::__1::istreambuf_iterator"* %290, %"class.std::__1::istreambuf_iterator"** %28, align 8
  %291 = load %"class.std::__1::istreambuf_iterator"*, %"class.std::__1::istreambuf_iterator"** %28, align 8
  %292 = getelementptr inbounds %"class.std::__1::istreambuf_iterator", %"class.std::__1::istreambuf_iterator"* %291, i32 0, i32 0, !dbg !3407
  %293 = load %"class.std::__1::basic_streambuf"*, %"class.std::__1::basic_streambuf"** %292, align 8, !dbg !3407
  %294 = icmp ne %"class.std::__1::basic_streambuf"* %293, null, !dbg !3407
  br i1 %294, label %295, label %321, !dbg !3408

; <label>:295:                                    ; preds = %287
  %296 = getelementptr inbounds %"class.std::__1::istreambuf_iterator", %"class.std::__1::istreambuf_iterator"* %291, i32 0, i32 0, !dbg !3409
  %297 = load %"class.std::__1::basic_streambuf"*, %"class.std::__1::basic_streambuf"** %296, align 8, !dbg !3409
  store %"class.std::__1::basic_streambuf"* %297, %"class.std::__1::basic_streambuf"** %27, align 8
  %298 = load %"class.std::__1::basic_streambuf"*, %"class.std::__1::basic_streambuf"** %27, align 8
  %299 = getelementptr inbounds %"class.std::__1::basic_streambuf", %"class.std::__1::basic_streambuf"* %298, i32 0, i32 3, !dbg !3410
  %300 = load i8*, i8** %299, align 8, !dbg !3410
  %301 = getelementptr inbounds %"class.std::__1::basic_streambuf", %"class.std::__1::basic_streambuf"* %298, i32 0, i32 4, !dbg !3412
  %302 = load i8*, i8** %301, align 8, !dbg !3412
  %303 = icmp eq i8* %300, %302, !dbg !3413
  br i1 %303, label %304, label %310, !dbg !3414

; <label>:304:                                    ; preds = %295
  %305 = bitcast %"class.std::__1::basic_streambuf"* %298 to i32 (%"class.std::__1::basic_streambuf"*)***, !dbg !3415
  %306 = load i32 (%"class.std::__1::basic_streambuf"*)**, i32 (%"class.std::__1::basic_streambuf"*)*** %305, align 8, !dbg !3415
  %307 = getelementptr inbounds i32 (%"class.std::__1::basic_streambuf"*)*, i32 (%"class.std::__1::basic_streambuf"*)** %306, i64 9, !dbg !3415
  %308 = load i32 (%"class.std::__1::basic_streambuf"*)*, i32 (%"class.std::__1::basic_streambuf"*)** %307, align 8, !dbg !3415
  %309 = call i32 %308(%"class.std::__1::basic_streambuf"* %298) #8, !dbg !3415
  store i32 %309, i32* %26, align 4, !dbg !3416
  br label %315, !dbg !3416

; <label>:310:                                    ; preds = %295
  %311 = getelementptr inbounds %"class.std::__1::basic_streambuf", %"class.std::__1::basic_streambuf"* %298, i32 0, i32 3, !dbg !3417
  %312 = load i8*, i8** %311, align 8, !dbg !3417
  %313 = load i8, i8* %312, align 1, !dbg !3418
  %314 = call i32 @_ZNSt3__111char_traitsIcE11to_int_typeEc(i8 signext %313) #8, !dbg !3419
  store i32 %314, i32* %26, align 4, !dbg !3420
  br label %315, !dbg !3420

; <label>:315:                                    ; preds = %310, %304
  %316 = load i32, i32* %26, align 4, !dbg !3421
  %317 = call i32 @_ZNSt3__111char_traitsIcE3eofEv() #8, !dbg !3422
  %318 = call zeroext i1 @_ZNSt3__111char_traitsIcE11eq_int_typeEii(i32 %316, i32 %317) #8, !dbg !3423
  br i1 %318, label %319, label %321, !dbg !3424

; <label>:319:                                    ; preds = %315
  %320 = getelementptr inbounds %"class.std::__1::istreambuf_iterator", %"class.std::__1::istreambuf_iterator"* %291, i32 0, i32 0, !dbg !3425
  store %"class.std::__1::basic_streambuf"* null, %"class.std::__1::basic_streambuf"** %320, align 8, !dbg !3426
  br label %321, !dbg !3425

; <label>:321:                                    ; preds = %319, %315, %287
  %322 = getelementptr inbounds %"class.std::__1::istreambuf_iterator", %"class.std::__1::istreambuf_iterator"* %291, i32 0, i32 0, !dbg !3427
  %323 = load %"class.std::__1::basic_streambuf"*, %"class.std::__1::basic_streambuf"** %322, align 8, !dbg !3427
  %324 = icmp eq %"class.std::__1::basic_streambuf"* %323, null, !dbg !3428
  %325 = zext i1 %324 to i32, !dbg !3429
  %326 = load %"class.std::__1::istreambuf_iterator"*, %"class.std::__1::istreambuf_iterator"** %30, align 8, !dbg !3430
  store %"class.std::__1::istreambuf_iterator"* %326, %"class.std::__1::istreambuf_iterator"** %25, align 8
  %327 = load %"class.std::__1::istreambuf_iterator"*, %"class.std::__1::istreambuf_iterator"** %25, align 8
  %328 = getelementptr inbounds %"class.std::__1::istreambuf_iterator", %"class.std::__1::istreambuf_iterator"* %327, i32 0, i32 0, !dbg !3431
  %329 = load %"class.std::__1::basic_streambuf"*, %"class.std::__1::basic_streambuf"** %328, align 8, !dbg !3431
  %330 = icmp ne %"class.std::__1::basic_streambuf"* %329, null, !dbg !3431
  br i1 %330, label %331, label %357, !dbg !3432

; <label>:331:                                    ; preds = %321
  %332 = getelementptr inbounds %"class.std::__1::istreambuf_iterator", %"class.std::__1::istreambuf_iterator"* %327, i32 0, i32 0, !dbg !3433
  %333 = load %"class.std::__1::basic_streambuf"*, %"class.std::__1::basic_streambuf"** %332, align 8, !dbg !3433
  store %"class.std::__1::basic_streambuf"* %333, %"class.std::__1::basic_streambuf"** %24, align 8
  %334 = load %"class.std::__1::basic_streambuf"*, %"class.std::__1::basic_streambuf"** %24, align 8
  %335 = getelementptr inbounds %"class.std::__1::basic_streambuf", %"class.std::__1::basic_streambuf"* %334, i32 0, i32 3, !dbg !3434
  %336 = load i8*, i8** %335, align 8, !dbg !3434
  %337 = getelementptr inbounds %"class.std::__1::basic_streambuf", %"class.std::__1::basic_streambuf"* %334, i32 0, i32 4, !dbg !3435
  %338 = load i8*, i8** %337, align 8, !dbg !3435
  %339 = icmp eq i8* %336, %338, !dbg !3436
  br i1 %339, label %340, label %346, !dbg !3437

; <label>:340:                                    ; preds = %331
  %341 = bitcast %"class.std::__1::basic_streambuf"* %334 to i32 (%"class.std::__1::basic_streambuf"*)***, !dbg !3438
  %342 = load i32 (%"class.std::__1::basic_streambuf"*)**, i32 (%"class.std::__1::basic_streambuf"*)*** %341, align 8, !dbg !3438
  %343 = getelementptr inbounds i32 (%"class.std::__1::basic_streambuf"*)*, i32 (%"class.std::__1::basic_streambuf"*)** %342, i64 9, !dbg !3438
  %344 = load i32 (%"class.std::__1::basic_streambuf"*)*, i32 (%"class.std::__1::basic_streambuf"*)** %343, align 8, !dbg !3438
  %345 = call i32 %344(%"class.std::__1::basic_streambuf"* %334) #8, !dbg !3438
  store i32 %345, i32* %23, align 4, !dbg !3439
  br label %351, !dbg !3439

; <label>:346:                                    ; preds = %331
  %347 = getelementptr inbounds %"class.std::__1::basic_streambuf", %"class.std::__1::basic_streambuf"* %334, i32 0, i32 3, !dbg !3440
  %348 = load i8*, i8** %347, align 8, !dbg !3440
  %349 = load i8, i8* %348, align 1, !dbg !3441
  %350 = call i32 @_ZNSt3__111char_traitsIcE11to_int_typeEc(i8 signext %349) #8, !dbg !3442
  store i32 %350, i32* %23, align 4, !dbg !3443
  br label %351, !dbg !3443

; <label>:351:                                    ; preds = %346, %340
  %352 = load i32, i32* %23, align 4, !dbg !3444
  %353 = call i32 @_ZNSt3__111char_traitsIcE3eofEv() #8, !dbg !3445
  %354 = call zeroext i1 @_ZNSt3__111char_traitsIcE11eq_int_typeEii(i32 %352, i32 %353) #8, !dbg !3446
  br i1 %354, label %355, label %357, !dbg !3447

; <label>:355:                                    ; preds = %351
  %356 = getelementptr inbounds %"class.std::__1::istreambuf_iterator", %"class.std::__1::istreambuf_iterator"* %327, i32 0, i32 0, !dbg !3448
  store %"class.std::__1::basic_streambuf"* null, %"class.std::__1::basic_streambuf"** %356, align 8, !dbg !3449
  br label %357, !dbg !3448

; <label>:357:                                    ; preds = %355, %351, %321
  %358 = getelementptr inbounds %"class.std::__1::istreambuf_iterator", %"class.std::__1::istreambuf_iterator"* %327, i32 0, i32 0, !dbg !3450
  %359 = load %"class.std::__1::basic_streambuf"*, %"class.std::__1::basic_streambuf"** %358, align 8, !dbg !3450
  %360 = icmp eq %"class.std::__1::basic_streambuf"* %359, null, !dbg !3451
  %361 = zext i1 %360 to i32, !dbg !3430
  %362 = icmp eq i32 %325, %361, !dbg !3452
  %363 = xor i1 %362, true, !dbg !3453
  br i1 %363, label %364, label %419, !dbg !3454

; <label>:364:                                    ; preds = %357
  store %"class.std::__1::istreambuf_iterator"* %34, %"class.std::__1::istreambuf_iterator"** %22, align 8
  %365 = load %"class.std::__1::istreambuf_iterator"*, %"class.std::__1::istreambuf_iterator"** %22, align 8
  %366 = getelementptr inbounds %"class.std::__1::istreambuf_iterator", %"class.std::__1::istreambuf_iterator"* %365, i32 0, i32 0, !dbg !3455
  %367 = load %"class.std::__1::basic_streambuf"*, %"class.std::__1::basic_streambuf"** %366, align 8, !dbg !3455
  store %"class.std::__1::basic_streambuf"* %367, %"class.std::__1::basic_streambuf"** %21, align 8
  %368 = load %"class.std::__1::basic_streambuf"*, %"class.std::__1::basic_streambuf"** %21, align 8
  %369 = getelementptr inbounds %"class.std::__1::basic_streambuf", %"class.std::__1::basic_streambuf"* %368, i32 0, i32 3, !dbg !3456
  %370 = load i8*, i8** %369, align 8, !dbg !3456
  %371 = getelementptr inbounds %"class.std::__1::basic_streambuf", %"class.std::__1::basic_streambuf"* %368, i32 0, i32 4, !dbg !3457
  %372 = load i8*, i8** %371, align 8, !dbg !3457
  %373 = icmp eq i8* %370, %372, !dbg !3458
  br i1 %373, label %374, label %380, !dbg !3459

; <label>:374:                                    ; preds = %364
  %375 = bitcast %"class.std::__1::basic_streambuf"* %368 to i32 (%"class.std::__1::basic_streambuf"*)***, !dbg !3460
  %376 = load i32 (%"class.std::__1::basic_streambuf"*)**, i32 (%"class.std::__1::basic_streambuf"*)*** %375, align 8, !dbg !3460
  %377 = getelementptr inbounds i32 (%"class.std::__1::basic_streambuf"*)*, i32 (%"class.std::__1::basic_streambuf"*)** %376, i64 9, !dbg !3460
  %378 = load i32 (%"class.std::__1::basic_streambuf"*)*, i32 (%"class.std::__1::basic_streambuf"*)** %377, align 8, !dbg !3460
  %379 = call i32 %378(%"class.std::__1::basic_streambuf"* %368) #8, !dbg !3460
  store i32 %379, i32* %20, align 4, !dbg !3461
  br label %385, !dbg !3461

; <label>:380:                                    ; preds = %364
  %381 = getelementptr inbounds %"class.std::__1::basic_streambuf", %"class.std::__1::basic_streambuf"* %368, i32 0, i32 3, !dbg !3462
  %382 = load i8*, i8** %381, align 8, !dbg !3462
  %383 = load i8, i8* %382, align 1, !dbg !3463
  %384 = call i32 @_ZNSt3__111char_traitsIcE11to_int_typeEc(i8 signext %383) #8, !dbg !3464
  store i32 %384, i32* %20, align 4, !dbg !3465
  br label %385, !dbg !3465

; <label>:385:                                    ; preds = %380, %374
  %386 = load i32, i32* %20, align 4, !dbg !3466
  %387 = trunc i32 %386 to i8, !dbg !3455
  store i8 %387, i8* %37, align 1, !dbg !3467
  store %"class.std::__1::back_insert_iterator"* %36, %"class.std::__1::back_insert_iterator"** %19, align 8
  %388 = load %"class.std::__1::back_insert_iterator"*, %"class.std::__1::back_insert_iterator"** %19, align 8
  store %"class.std::__1::back_insert_iterator"* %388, %"class.std::__1::back_insert_iterator"** %17, align 8
  store i8* %37, i8** %18, align 8
  %389 = load %"class.std::__1::back_insert_iterator"*, %"class.std::__1::back_insert_iterator"** %17, align 8
  %390 = getelementptr inbounds %"class.std::__1::back_insert_iterator", %"class.std::__1::back_insert_iterator"* %389, i32 0, i32 0, !dbg !3468
  %391 = load %"class.std::__1::basic_string"*, %"class.std::__1::basic_string"** %390, align 8, !dbg !3468
  %392 = load i8*, i8** %18, align 8, !dbg !3469
  store i8* %392, i8** %16, align 8
  %393 = load i8*, i8** %16, align 8, !dbg !3470
  %394 = load i8, i8* %393, align 1, !dbg !3471
  call void @_ZNSt3__112basic_stringIcNS_11char_traitsIcEENS_9allocatorIcEEE9push_backEc(%"class.std::__1::basic_string"* %391, i8 signext %394) #8, !dbg !3472
  store %"class.std::__1::istreambuf_iterator"* %34, %"class.std::__1::istreambuf_iterator"** %15, align 8
  %395 = load %"class.std::__1::istreambuf_iterator"*, %"class.std::__1::istreambuf_iterator"** %15, align 8
  %396 = getelementptr inbounds %"class.std::__1::istreambuf_iterator", %"class.std::__1::istreambuf_iterator"* %395, i32 0, i32 0, !dbg !3473
  %397 = load %"class.std::__1::basic_streambuf"*, %"class.std::__1::basic_streambuf"** %396, align 8, !dbg !3473
  store %"class.std::__1::basic_streambuf"* %397, %"class.std::__1::basic_streambuf"** %14, align 8
  %398 = load %"class.std::__1::basic_streambuf"*, %"class.std::__1::basic_streambuf"** %14, align 8
  %399 = getelementptr inbounds %"class.std::__1::basic_streambuf", %"class.std::__1::basic_streambuf"* %398, i32 0, i32 3, !dbg !3474
  %400 = load i8*, i8** %399, align 8, !dbg !3474
  %401 = getelementptr inbounds %"class.std::__1::basic_streambuf", %"class.std::__1::basic_streambuf"* %398, i32 0, i32 4, !dbg !3476
  %402 = load i8*, i8** %401, align 8, !dbg !3476
  %403 = icmp eq i8* %400, %402, !dbg !3477
  br i1 %403, label %404, label %410, !dbg !3478

; <label>:404:                                    ; preds = %385
  %405 = bitcast %"class.std::__1::basic_streambuf"* %398 to i32 (%"class.std::__1::basic_streambuf"*)***, !dbg !3479
  %406 = load i32 (%"class.std::__1::basic_streambuf"*)**, i32 (%"class.std::__1::basic_streambuf"*)*** %405, align 8, !dbg !3479
  %407 = getelementptr inbounds i32 (%"class.std::__1::basic_streambuf"*)*, i32 (%"class.std::__1::basic_streambuf"*)** %406, i64 10, !dbg !3479
  %408 = load i32 (%"class.std::__1::basic_streambuf"*)*, i32 (%"class.std::__1::basic_streambuf"*)** %407, align 8, !dbg !3479
  %409 = call i32 %408(%"class.std::__1::basic_streambuf"* %398) #8, !dbg !3479
  store i32 %409, i32* %13, align 4, !dbg !3480
  br label %416, !dbg !3480

; <label>:410:                                    ; preds = %385
  %411 = getelementptr inbounds %"class.std::__1::basic_streambuf", %"class.std::__1::basic_streambuf"* %398, i32 0, i32 3, !dbg !3481
  %412 = load i8*, i8** %411, align 8, !dbg !3482
  %413 = getelementptr inbounds i8, i8* %412, i32 1, !dbg !3482
  store i8* %413, i8** %411, align 8, !dbg !3482
  %414 = load i8, i8* %412, align 1, !dbg !3483
  %415 = call i32 @_ZNSt3__111char_traitsIcE11to_int_typeEc(i8 signext %414) #8, !dbg !3484
  store i32 %415, i32* %13, align 4, !dbg !3485
  br label %416, !dbg !3485

; <label>:416:                                    ; preds = %410, %404
  %417 = load i32, i32* %13, align 4, !dbg !3486
  store %"class.std::__1::back_insert_iterator"* %36, %"class.std::__1::back_insert_iterator"** %12, align 8
  %418 = load %"class.std::__1::back_insert_iterator"*, %"class.std::__1::back_insert_iterator"** %12, align 8
  br label %287, !dbg !3487, !llvm.loop !3488

; <label>:419:                                    ; preds = %357
  %420 = bitcast %"class.std::__1::back_insert_iterator"* %33 to i8*, !dbg !3491
  %421 = bitcast %"class.std::__1::back_insert_iterator"* %36 to i8*, !dbg !3491
  call void @llvm.memcpy.p0i8.p0i8.i64(i8* align 8 %420, i8* align 8 %421, i64 8, i1 false), !dbg !3491
  %422 = getelementptr inbounds %"class.std::__1::back_insert_iterator", %"class.std::__1::back_insert_iterator"* %33, i32 0, i32 0, !dbg !3492
  %423 = load %"class.std::__1::basic_string"*, %"class.std::__1::basic_string"** %422, align 8, !dbg !3492
  %424 = getelementptr inbounds %"class.std::__1::back_insert_iterator", %"class.std::__1::back_insert_iterator"* %40, i32 0, i32 0, !dbg !3403
  store %"class.std::__1::basic_string"* %423, %"class.std::__1::basic_string"** %424, align 8, !dbg !3403
  %425 = getelementptr inbounds %"class.std::__1::back_insert_iterator", %"class.std::__1::back_insert_iterator"* %40, i32 0, i32 0, !dbg !3493
  %426 = load %"class.std::__1::basic_string"*, %"class.std::__1::basic_string"** %425, align 8, !dbg !3493
  %427 = getelementptr inbounds %"class.std::__1::back_insert_iterator", %"class.std::__1::back_insert_iterator"* %91, i32 0, i32 0, !dbg !3390
  store %"class.std::__1::basic_string"* %426, %"class.std::__1::basic_string"** %427, align 8, !dbg !3390
  store %"class.std::__1::basic_ifstream"* %86, %"class.std::__1::basic_ifstream"** %7, align 8
  %428 = load %"class.std::__1::basic_ifstream"*, %"class.std::__1::basic_ifstream"** %7, align 8
  %429 = getelementptr inbounds %"class.std::__1::basic_ifstream", %"class.std::__1::basic_ifstream"* %428, i32 0, i32 1, !dbg !3494
  %430 = call %"class.std::__1::basic_filebuf"* @_ZNSt3__113basic_filebufIcNS_11char_traitsIcEEE5closeEv(%"class.std::__1::basic_filebuf"* %429) #8, !dbg !3495
  %431 = icmp eq %"class.std::__1::basic_filebuf"* %430, null, !dbg !3496
  br i1 %431, label %432, label %449, !dbg !3497

; <label>:432:                                    ; preds = %419
  %433 = bitcast %"class.std::__1::basic_ifstream"* %428 to i8**, !dbg !3498
  %434 = load i8*, i8** %433, align 8, !dbg !3498
  %435 = getelementptr i8, i8* %434, i64 -24, !dbg !3498
  %436 = bitcast i8* %435 to i64*, !dbg !3498
  %437 = load i64, i64* %436, align 8, !dbg !3498
  %438 = bitcast %"class.std::__1::basic_ifstream"* %428 to i8*, !dbg !3498
  %439 = getelementptr inbounds i8, i8* %438, i64 %437, !dbg !3498
  %440 = bitcast i8* %439 to %"class.std::__1::basic_ios"*, !dbg !3498
  store %"class.std::__1::basic_ios"* %440, %"class.std::__1::basic_ios"** %5, align 8
  store i32 4, i32* %6, align 4
  %441 = load %"class.std::__1::basic_ios"*, %"class.std::__1::basic_ios"** %5, align 8
  %442 = bitcast %"class.std::__1::basic_ios"* %441 to %"class.std::__1::ios_base"*, !dbg !3499
  %443 = load i32, i32* %6, align 4, !dbg !3500
  store %"class.std::__1::ios_base"* %442, %"class.std::__1::ios_base"** %3, align 8
  store i32 %443, i32* %4, align 4
  %444 = load %"class.std::__1::ios_base"*, %"class.std::__1::ios_base"** %3, align 8
  %445 = getelementptr inbounds %"class.std::__1::ios_base", %"class.std::__1::ios_base"* %444, i32 0, i32 4, !dbg !3501
  %446 = load i32, i32* %445, align 8, !dbg !3501
  %447 = load i32, i32* %4, align 4, !dbg !3502
  %448 = or i32 %446, %447, !dbg !3503
  call void @_ZNSt3__18ios_base5clearEj(%"class.std::__1::ios_base"* %444, i32 %448) #8, !dbg !3504
  br label %449, !dbg !3505

; <label>:449:                                    ; preds = %419, %432
  br label %450, !dbg !3506

; <label>:450:                                    ; preds = %449, %174
  %451 = load %"class.std::__1::basic_string"*, %"class.std::__1::basic_string"** %84, align 8, !dbg !3507
  %452 = load i8*, i8** @_ZN14altered_carbon2jsL5TRIALE, align 8, !dbg !3508
  %453 = call dereferenceable(24) %"class.std::__1::basic_string"* @_ZNSt3__112basic_stringIcNS_11char_traitsIcEENS_9allocatorIcEEE6appendEPKc(%"class.std::__1::basic_string"* %451, i8* %452), !dbg !3509
  store i1 true, i1* %83, align 1, !dbg !3510
  call void @_ZNSt3__114basic_ifstreamIcNS_11char_traitsIcEEED1Ev(%"class.std::__1::basic_ifstream"* %86) #8, !dbg !3511
  br label %454

; <label>:454:                                    ; preds = %450, %94
  %455 = load i1, i1* %83, align 1, !dbg !3511
  ret i1 %455, !dbg !3511
}

declare dereferenceable(168) %"class.std::__1::basic_istream"* @_ZNSt3__113basic_istreamIcNS_11char_traitsIcEEE5seekgExNS_8ios_base7seekdirE(%"class.std::__1::basic_istream"*, i64, i32) #2

declare void @_ZNSt3__112basic_stringIcNS_11char_traitsIcEENS_9allocatorIcEEE7reserveEm(%"class.std::__1::basic_string"*, i64) #2

declare void @_ZNSt3__113basic_istreamIcNS_11char_traitsIcEEE5tellgEv(%"class.std::__1::fpos"* sret, %"class.std::__1::basic_istream"*) #2

declare dereferenceable(24) %"class.std::__1::basic_string"* @_ZNSt3__112basic_stringIcNS_11char_traitsIcEENS_9allocatorIcEEE6appendEPKc(%"class.std::__1::basic_string"*, i8*) #2

; Function Attrs: noinline nounwind optnone ssp uwtable
define linkonce_odr hidden void @_ZNSt3__114basic_ifstreamIcNS_11char_traitsIcEEED1Ev(%"class.std::__1::basic_ifstream"*) unnamed_addr #0 align 2 !dbg !3512 {
  %2 = alloca %"class.std::__1::basic_ifstream"*, align 8
  store %"class.std::__1::basic_ifstream"* %0, %"class.std::__1::basic_ifstream"** %2, align 8
  call void @llvm.dbg.declare(metadata %"class.std::__1::basic_ifstream"** %2, metadata !3514, metadata !DIExpression()), !dbg !3515
  %3 = load %"class.std::__1::basic_ifstream"*, %"class.std::__1::basic_ifstream"** %2, align 8
  call void @_ZNSt3__114basic_ifstreamIcNS_11char_traitsIcEEED2Ev(%"class.std::__1::basic_ifstream"* %3, i8** getelementptr inbounds ([4 x i8*], [4 x i8*]* @_ZTTNSt3__114basic_ifstreamIcNS_11char_traitsIcEEEE, i64 0, i64 0)) #8, !dbg !3516
  %4 = bitcast %"class.std::__1::basic_ifstream"* %3 to i8*, !dbg !3516
  %5 = getelementptr inbounds i8, i8* %4, i64 424, !dbg !3516
  %6 = bitcast i8* %5 to %"class.std::__1::basic_ios"*, !dbg !3516
  call void @_ZNSt3__19basic_iosIcNS_11char_traitsIcEEED2Ev(%"class.std::__1::basic_ios"* %6) #8, !dbg !3516
  ret void, !dbg !3516
}

; Function Attrs: noinline nounwind optnone ssp uwtable
define i32 @_ZN14altered_carbon2js14compareKeywordEPKwPKc(i32*, i8*) #0 !dbg !3517 {
  %3 = alloca i32*, align 8
  %4 = alloca i8*, align 8
  %5 = alloca i32, align 4
  store i32* %0, i32** %3, align 8
  call void @llvm.dbg.declare(metadata i32** %3, metadata !3520, metadata !DIExpression()), !dbg !3521
  store i8* %1, i8** %4, align 8
  call void @llvm.dbg.declare(metadata i8** %4, metadata !3522, metadata !DIExpression()), !dbg !3523
  call void @llvm.dbg.declare(metadata i32* %5, metadata !3524, metadata !DIExpression()), !dbg !3525
  br label %6, !dbg !3526, !llvm.loop !3527

; <label>:6:                                      ; preds = %18, %2
  %7 = load i8*, i8** %4, align 8, !dbg !3529
  %8 = getelementptr inbounds i8, i8* %7, i32 1, !dbg !3529
  store i8* %8, i8** %4, align 8, !dbg !3529
  %9 = load i8, i8* %7, align 1, !dbg !3531
  %10 = sext i8 %9 to i32, !dbg !3531
  store i32 %10, i32* %5, align 4, !dbg !3532
  %11 = load i32*, i32** %3, align 8, !dbg !3533
  %12 = getelementptr inbounds i32, i32* %11, i32 1, !dbg !3533
  store i32* %12, i32** %3, align 8, !dbg !3533
  %13 = load i32, i32* %11, align 4, !dbg !3535
  %14 = load i32, i32* %5, align 4, !dbg !3536
  %15 = icmp ne i32 %13, %14, !dbg !3537
  br i1 %15, label %16, label %17, !dbg !3538

; <label>:16:                                     ; preds = %6
  br label %21, !dbg !3539

; <label>:17:                                     ; preds = %6
  br label %18, !dbg !3541

; <label>:18:                                     ; preds = %17
  %19 = load i32, i32* %5, align 4, !dbg !3542
  %20 = icmp ne i32 %19, 0, !dbg !3543
  br i1 %20, label %6, label %21, !dbg !3541, !llvm.loop !3527

; <label>:21:                                     ; preds = %18, %16
  %22 = load i32*, i32** %3, align 8, !dbg !3544
  %23 = getelementptr inbounds i32, i32* %22, i32 -1, !dbg !3544
  store i32* %23, i32** %3, align 8, !dbg !3544
  %24 = load i32, i32* %23, align 4, !dbg !3545
  %25 = load i32, i32* %5, align 4, !dbg !3546
  %26 = sub nsw i32 %24, %25, !dbg !3547
  ret i32 %26, !dbg !3548
}

; Function Attrs: noinline nounwind optnone ssp uwtable
define linkonce_odr hidden void @_ZNSt3__114basic_ifstreamIcNS_11char_traitsIcEEED2Ev(%"class.std::__1::basic_ifstream"*, i8**) unnamed_addr #0 align 2 !dbg !3549 {
  %3 = alloca %"class.std::__1::basic_ifstream"*, align 8
  %4 = alloca i8**, align 8
  store %"class.std::__1::basic_ifstream"* %0, %"class.std::__1::basic_ifstream"** %3, align 8
  call void @llvm.dbg.declare(metadata %"class.std::__1::basic_ifstream"** %3, metadata !3550, metadata !DIExpression()), !dbg !3551
  store i8** %1, i8*** %4, align 8
  call void @llvm.dbg.declare(metadata i8*** %4, metadata !3552, metadata !DIExpression()), !dbg !3551
  %5 = load %"class.std::__1::basic_ifstream"*, %"class.std::__1::basic_ifstream"** %3, align 8
  %6 = load i8**, i8*** %4, align 8
  %7 = load i8*, i8** %6, align 8, !dbg !3553
  %8 = bitcast %"class.std::__1::basic_ifstream"* %5 to i32 (...)***, !dbg !3553
  %9 = bitcast i8* %7 to i32 (...)**, !dbg !3553
  store i32 (...)** %9, i32 (...)*** %8, align 8, !dbg !3553
  %10 = getelementptr inbounds i8*, i8** %6, i64 3, !dbg !3553
  %11 = load i8*, i8** %10, align 8, !dbg !3553
  %12 = bitcast %"class.std::__1::basic_ifstream"* %5 to i8**, !dbg !3553
  %13 = load i8*, i8** %12, align 8, !dbg !3553
  %14 = getelementptr i8, i8* %13, i64 -24, !dbg !3553
  %15 = bitcast i8* %14 to i64*, !dbg !3553
  %16 = load i64, i64* %15, align 8, !dbg !3553
  %17 = bitcast %"class.std::__1::basic_ifstream"* %5 to i8*, !dbg !3553
  %18 = getelementptr inbounds i8, i8* %17, i64 %16, !dbg !3553
  %19 = bitcast i8* %18 to i32 (...)***, !dbg !3553
  %20 = bitcast i8* %11 to i32 (...)**, !dbg !3553
  store i32 (...)** %20, i32 (...)*** %19, align 8, !dbg !3553
  %21 = getelementptr inbounds %"class.std::__1::basic_ifstream", %"class.std::__1::basic_ifstream"* %5, i32 0, i32 1, !dbg !3554
  call void @_ZNSt3__113basic_filebufIcNS_11char_traitsIcEEED1Ev(%"class.std::__1::basic_filebuf"* %21) #8, !dbg !3554
  %22 = bitcast %"class.std::__1::basic_ifstream"* %5 to %"class.std::__1::basic_istream"*, !dbg !3554
  %23 = getelementptr inbounds i8*, i8** %6, i64 1, !dbg !3554
  call void @_ZNSt3__113basic_istreamIcNS_11char_traitsIcEEED2Ev(%"class.std::__1::basic_istream"* %22, i8** %23) #8, !dbg !3554
  ret void, !dbg !3553
}

; Function Attrs: nounwind
declare void @_ZNSt3__19basic_iosIcNS_11char_traitsIcEEED2Ev(%"class.std::__1::basic_ios"*) unnamed_addr #3

; Function Attrs: noinline nounwind optnone ssp uwtable
define linkonce_odr hidden void @_ZTv0_n24_NSt3__114basic_ifstreamIcNS_11char_traitsIcEEED1Ev(%"class.std::__1::basic_ifstream"*) unnamed_addr #0 align 2 !dbg !3556 {
  %2 = alloca %"class.std::__1::basic_ifstream"*, align 8
  store %"class.std::__1::basic_ifstream"* %0, %"class.std::__1::basic_ifstream"** %2, align 8
  call void @llvm.dbg.declare(metadata %"class.std::__1::basic_ifstream"** %2, metadata !3558, metadata !DIExpression()), !dbg !3559
  %3 = load %"class.std::__1::basic_ifstream"*, %"class.std::__1::basic_ifstream"** %2, align 8, !dbg !3559
  %4 = bitcast %"class.std::__1::basic_ifstream"* %3 to i8*, !dbg !3559
  %5 = bitcast i8* %4 to i8**, !dbg !3559
  %6 = load i8*, i8** %5, align 8, !dbg !3559
  %7 = getelementptr inbounds i8, i8* %6, i64 -24, !dbg !3559
  %8 = bitcast i8* %7 to i64*, !dbg !3559
  %9 = load i64, i64* %8, align 8, !dbg !3559
  %10 = getelementptr inbounds i8, i8* %4, i64 %9, !dbg !3559
  %11 = bitcast i8* %10 to %"class.std::__1::basic_ifstream"*, !dbg !3559
  tail call void @_ZNSt3__114basic_ifstreamIcNS_11char_traitsIcEEED1Ev(%"class.std::__1::basic_ifstream"* %11) #8, !dbg !3559
  ret void, !dbg !3559
}

; Function Attrs: nounwind
declare void @_ZNSt3__113basic_istreamIcNS_11char_traitsIcEEED1Ev(%"class.std::__1::basic_istream"*) unnamed_addr #3

; Function Attrs: nounwind
declare void @_ZNSt3__113basic_istreamIcNS_11char_traitsIcEEED0Ev(%"class.std::__1::basic_istream"*) unnamed_addr #3

; Function Attrs: nounwind
declare void @_ZTv0_n24_NSt3__113basic_istreamIcNS_11char_traitsIcEEED1Ev(%"class.std::__1::basic_istream"*) unnamed_addr #3

; Function Attrs: nounwind
declare void @_ZTv0_n24_NSt3__113basic_istreamIcNS_11char_traitsIcEEED0Ev(%"class.std::__1::basic_istream"*) unnamed_addr #3

; Function Attrs: noinline nounwind optnone ssp uwtable
define linkonce_odr hidden void @_ZNSt3__114basic_ifstreamIcNS_11char_traitsIcEEED0Ev(%"class.std::__1::basic_ifstream"*) unnamed_addr #0 align 2 !dbg !3560 {
  %2 = alloca %"class.std::__1::basic_ifstream"*, align 8
  store %"class.std::__1::basic_ifstream"* %0, %"class.std::__1::basic_ifstream"** %2, align 8
  call void @llvm.dbg.declare(metadata %"class.std::__1::basic_ifstream"** %2, metadata !3561, metadata !DIExpression()), !dbg !3562
  %3 = load %"class.std::__1::basic_ifstream"*, %"class.std::__1::basic_ifstream"** %2, align 8
  call void @_ZNSt3__114basic_ifstreamIcNS_11char_traitsIcEEED1Ev(%"class.std::__1::basic_ifstream"* %3) #8, !dbg !3563
  %4 = bitcast %"class.std::__1::basic_ifstream"* %3 to i8*, !dbg !3563
  call void @_ZdlPv(i8* %4) #9, !dbg !3563
  ret void, !dbg !3563
}

; Function Attrs: noinline nounwind optnone ssp uwtable
define linkonce_odr hidden void @_ZTv0_n24_NSt3__114basic_ifstreamIcNS_11char_traitsIcEEED0Ev(%"class.std::__1::basic_ifstream"*) unnamed_addr #0 align 2 !dbg !3564 {
  %2 = alloca %"class.std::__1::basic_ifstream"*, align 8
  store %"class.std::__1::basic_ifstream"* %0, %"class.std::__1::basic_ifstream"** %2, align 8
  call void @llvm.dbg.declare(metadata %"class.std::__1::basic_ifstream"** %2, metadata !3565, metadata !DIExpression()), !dbg !3566
  %3 = load %"class.std::__1::basic_ifstream"*, %"class.std::__1::basic_ifstream"** %2, align 8, !dbg !3566
  %4 = bitcast %"class.std::__1::basic_ifstream"* %3 to i8*, !dbg !3566
  %5 = bitcast i8* %4 to i8**, !dbg !3566
  %6 = load i8*, i8** %5, align 8, !dbg !3566
  %7 = getelementptr inbounds i8, i8* %6, i64 -24, !dbg !3566
  %8 = bitcast i8* %7 to i64*, !dbg !3566
  %9 = load i64, i64* %8, align 8, !dbg !3566
  %10 = getelementptr inbounds i8, i8* %4, i64 %9, !dbg !3566
  %11 = bitcast i8* %10 to %"class.std::__1::basic_ifstream"*, !dbg !3566
  tail call void @_ZNSt3__114basic_ifstreamIcNS_11char_traitsIcEEED0Ev(%"class.std::__1::basic_ifstream"* %11) #8, !dbg !3566
  ret void, !dbg !3566
}

; Function Attrs: noinline nounwind optnone ssp uwtable
define linkonce_odr void @_ZNSt3__113basic_filebufIcNS_11char_traitsIcEEED1Ev(%"class.std::__1::basic_filebuf"*) unnamed_addr #0 align 2 !dbg !3567 {
  %2 = alloca %"class.std::__1::basic_filebuf"*, align 8
  store %"class.std::__1::basic_filebuf"* %0, %"class.std::__1::basic_filebuf"** %2, align 8
  call void @llvm.dbg.declare(metadata %"class.std::__1::basic_filebuf"** %2, metadata !3568, metadata !DIExpression()), !dbg !3569
  %3 = load %"class.std::__1::basic_filebuf"*, %"class.std::__1::basic_filebuf"** %2, align 8
  call void @_ZNSt3__113basic_filebufIcNS_11char_traitsIcEEED2Ev(%"class.std::__1::basic_filebuf"* %3) #8, !dbg !3570
  ret void, !dbg !3571
}

; Function Attrs: nounwind
declare void @_ZNSt3__113basic_istreamIcNS_11char_traitsIcEEED2Ev(%"class.std::__1::basic_istream"*, i8**) unnamed_addr #3

; Function Attrs: noinline nounwind optnone ssp uwtable
define linkonce_odr void @_ZNSt3__113basic_filebufIcNS_11char_traitsIcEEED2Ev(%"class.std::__1::basic_filebuf"*) unnamed_addr #0 align 2 !dbg !3572 {
  %2 = alloca %"class.std::__1::basic_filebuf"*, align 8
  store %"class.std::__1::basic_filebuf"* %0, %"class.std::__1::basic_filebuf"** %2, align 8
  call void @llvm.dbg.declare(metadata %"class.std::__1::basic_filebuf"** %2, metadata !3573, metadata !DIExpression()), !dbg !3574
  %3 = load %"class.std::__1::basic_filebuf"*, %"class.std::__1::basic_filebuf"** %2, align 8
  %4 = bitcast %"class.std::__1::basic_filebuf"* %3 to i32 (...)***, !dbg !3575
  store i32 (...)** bitcast (i8** getelementptr inbounds ({ [16 x i8*] }, { [16 x i8*] }* @_ZTVNSt3__113basic_filebufIcNS_11char_traitsIcEEEE, i32 0, inrange i32 0, i32 2) to i32 (...)**), i32 (...)*** %4, align 8, !dbg !3575
  %5 = call %"class.std::__1::basic_filebuf"* @_ZNSt3__113basic_filebufIcNS_11char_traitsIcEEE5closeEv(%"class.std::__1::basic_filebuf"* %3), !dbg !3576
  %6 = getelementptr inbounds %"class.std::__1::basic_filebuf", %"class.std::__1::basic_filebuf"* %3, i32 0, i32 14, !dbg !3578
  %7 = load i8, i8* %6, align 8, !dbg !3578
  %8 = trunc i8 %7 to i1, !dbg !3578
  br i1 %8, label %9, label %15, !dbg !3580

; <label>:9:                                      ; preds = %1
  %10 = getelementptr inbounds %"class.std::__1::basic_filebuf", %"class.std::__1::basic_filebuf"* %3, i32 0, i32 1, !dbg !3581
  %11 = load i8*, i8** %10, align 8, !dbg !3581
  %12 = icmp eq i8* %11, null, !dbg !3582
  br i1 %12, label %14, label %13, !dbg !3582

; <label>:13:                                     ; preds = %9
  call void @_ZdaPv(i8* %11) #9, !dbg !3582
  br label %14, !dbg !3582

; <label>:14:                                     ; preds = %13, %9
  br label %15, !dbg !3582

; <label>:15:                                     ; preds = %14, %1
  %16 = getelementptr inbounds %"class.std::__1::basic_filebuf", %"class.std::__1::basic_filebuf"* %3, i32 0, i32 15, !dbg !3583
  %17 = load i8, i8* %16, align 1, !dbg !3583
  %18 = trunc i8 %17 to i1, !dbg !3583
  br i1 %18, label %19, label %25, !dbg !3585

; <label>:19:                                     ; preds = %15
  %20 = getelementptr inbounds %"class.std::__1::basic_filebuf", %"class.std::__1::basic_filebuf"* %3, i32 0, i32 6, !dbg !3586
  %21 = load i8*, i8** %20, align 8, !dbg !3586
  %22 = icmp eq i8* %21, null, !dbg !3587
  br i1 %22, label %24, label %23, !dbg !3587

; <label>:23:                                     ; preds = %19
  call void @_ZdaPv(i8* %21) #9, !dbg !3587
  br label %24, !dbg !3587

; <label>:24:                                     ; preds = %23, %19
  br label %25, !dbg !3587

; <label>:25:                                     ; preds = %24, %15
  %26 = bitcast %"class.std::__1::basic_filebuf"* %3 to %"class.std::__1::basic_streambuf"*, !dbg !3588
  call void @_ZNSt3__115basic_streambufIcNS_11char_traitsIcEEED2Ev(%"class.std::__1::basic_streambuf"* %26) #8, !dbg !3588
  ret void, !dbg !3589
}

; Function Attrs: noinline nounwind optnone ssp uwtable
define linkonce_odr %"class.std::__1::basic_filebuf"* @_ZNSt3__113basic_filebufIcNS_11char_traitsIcEEE5closeEv(%"class.std::__1::basic_filebuf"*) #0 align 2 !dbg !3590 {
  %2 = alloca %"struct.std::__1::__compressed_pair_elem.4"*, align 8
  call void @llvm.dbg.declare(metadata %"struct.std::__1::__compressed_pair_elem.4"** %2, metadata !3591, metadata !DIExpression()), !dbg !3617
  %3 = alloca %"class.std::__1::__compressed_pair.3"*, align 8
  call void @llvm.dbg.declare(metadata %"class.std::__1::__compressed_pair.3"** %3, metadata !3745, metadata !DIExpression()), !dbg !3747
  %4 = alloca %"struct.std::__1::__compressed_pair_elem.4"*, align 8
  call void @llvm.dbg.declare(metadata %"struct.std::__1::__compressed_pair_elem.4"** %4, metadata !3591, metadata !DIExpression()), !dbg !3748
  %5 = alloca %"class.std::__1::__compressed_pair.3"*, align 8
  call void @llvm.dbg.declare(metadata %"class.std::__1::__compressed_pair.3"** %5, metadata !3745, metadata !DIExpression()), !dbg !3751
  %6 = alloca %"class.std::__1::unique_ptr"*, align 8
  call void @llvm.dbg.declare(metadata %"class.std::__1::unique_ptr"** %6, metadata !3752, metadata !DIExpression()), !dbg !3754
  %7 = alloca %struct.__sFILE*, align 8
  call void @llvm.dbg.declare(metadata %struct.__sFILE** %7, metadata !3755, metadata !DIExpression()), !dbg !3756
  %8 = alloca %"struct.std::__1::__compressed_pair_elem.5"*, align 8
  call void @llvm.dbg.declare(metadata %"struct.std::__1::__compressed_pair_elem.5"** %8, metadata !3757, metadata !DIExpression()), !dbg !3760
  %9 = alloca %"class.std::__1::__compressed_pair.3"*, align 8
  call void @llvm.dbg.declare(metadata %"class.std::__1::__compressed_pair.3"** %9, metadata !3772, metadata !DIExpression()), !dbg !3773
  %10 = alloca %"struct.std::__1::__compressed_pair_elem.4"*, align 8
  call void @llvm.dbg.declare(metadata %"struct.std::__1::__compressed_pair_elem.4"** %10, metadata !3591, metadata !DIExpression()), !dbg !3774
  %11 = alloca %"class.std::__1::__compressed_pair.3"*, align 8
  call void @llvm.dbg.declare(metadata %"class.std::__1::__compressed_pair.3"** %11, metadata !3745, metadata !DIExpression()), !dbg !3777
  %12 = alloca %"struct.std::__1::__compressed_pair_elem.4"*, align 8
  call void @llvm.dbg.declare(metadata %"struct.std::__1::__compressed_pair_elem.4"** %12, metadata !3591, metadata !DIExpression()), !dbg !3778
  %13 = alloca %"class.std::__1::__compressed_pair.3"*, align 8
  call void @llvm.dbg.declare(metadata %"class.std::__1::__compressed_pair.3"** %13, metadata !3745, metadata !DIExpression()), !dbg !3781
  %14 = alloca %"class.std::__1::unique_ptr"*, align 8
  call void @llvm.dbg.declare(metadata %"class.std::__1::unique_ptr"** %14, metadata !3782, metadata !DIExpression()), !dbg !3783
  %15 = alloca %struct.__sFILE*, align 8
  call void @llvm.dbg.declare(metadata %struct.__sFILE** %15, metadata !3784, metadata !DIExpression()), !dbg !3785
  %16 = alloca %struct.__sFILE*, align 8
  call void @llvm.dbg.declare(metadata %struct.__sFILE** %16, metadata !3786, metadata !DIExpression()), !dbg !3787
  %17 = alloca %"class.std::__1::unique_ptr"*, align 8
  call void @llvm.dbg.declare(metadata %"class.std::__1::unique_ptr"** %17, metadata !3788, metadata !DIExpression()), !dbg !3789
  %18 = alloca %"class.std::__1::unique_ptr"*, align 8
  call void @llvm.dbg.declare(metadata %"class.std::__1::unique_ptr"** %18, metadata !3790, metadata !DIExpression()), !dbg !3791
  %19 = alloca %struct.__sFILE**, align 8
  call void @llvm.dbg.declare(metadata %struct.__sFILE*** %19, metadata !3792, metadata !DIExpression()), !dbg !3801
  %20 = alloca %"struct.std::__1::__compressed_pair_elem.4"*, align 8
  call void @llvm.dbg.declare(metadata %"struct.std::__1::__compressed_pair_elem.4"** %20, metadata !3836, metadata !DIExpression()), !dbg !3837
  %21 = alloca %struct.__sFILE**, align 8
  call void @llvm.dbg.declare(metadata %struct.__sFILE*** %21, metadata !3838, metadata !DIExpression()), !dbg !3839
  %22 = alloca i32 (%struct.__sFILE*)**, align 8
  call void @llvm.dbg.declare(metadata i32 (%struct.__sFILE*)*** %22, metadata !3840, metadata !DIExpression()), !dbg !3848
  %23 = alloca i32 (%struct.__sFILE*)**, align 8
  call void @llvm.dbg.declare(metadata i32 (%struct.__sFILE*)*** %23, metadata !3840, metadata !DIExpression()), !dbg !3850
  %24 = alloca %"struct.std::__1::__compressed_pair_elem.5"*, align 8
  call void @llvm.dbg.declare(metadata %"struct.std::__1::__compressed_pair_elem.5"** %24, metadata !3859, metadata !DIExpression()), !dbg !3860
  %25 = alloca i32 (%struct.__sFILE*)**, align 8
  call void @llvm.dbg.declare(metadata i32 (%struct.__sFILE*)*** %25, metadata !3861, metadata !DIExpression()), !dbg !3862
  %26 = alloca %struct.__sFILE**, align 8
  call void @llvm.dbg.declare(metadata %struct.__sFILE*** %26, metadata !3792, metadata !DIExpression()), !dbg !3863
  %27 = alloca %"class.std::__1::__compressed_pair.3"*, align 8
  call void @llvm.dbg.declare(metadata %"class.std::__1::__compressed_pair.3"** %27, metadata !3865, metadata !DIExpression()), !dbg !3866
  %28 = alloca %struct.__sFILE**, align 8
  call void @llvm.dbg.declare(metadata %struct.__sFILE*** %28, metadata !3867, metadata !DIExpression()), !dbg !3868
  %29 = alloca i32 (%struct.__sFILE*)**, align 8
  call void @llvm.dbg.declare(metadata i32 (%struct.__sFILE*)*** %29, metadata !3869, metadata !DIExpression()), !dbg !3870
  %30 = alloca %"class.std::__1::__compressed_pair.3"*, align 8
  call void @llvm.dbg.declare(metadata %"class.std::__1::__compressed_pair.3"** %30, metadata !3871, metadata !DIExpression()), !dbg !3872
  %31 = alloca %struct.__sFILE**, align 8
  call void @llvm.dbg.declare(metadata %struct.__sFILE*** %31, metadata !3873, metadata !DIExpression()), !dbg !3874
  %32 = alloca i32 (%struct.__sFILE*)**, align 8
  call void @llvm.dbg.declare(metadata i32 (%struct.__sFILE*)*** %32, metadata !3875, metadata !DIExpression()), !dbg !3876
  %33 = alloca i32 (%struct.__sFILE*)**, align 8
  call void @llvm.dbg.declare(metadata i32 (%struct.__sFILE*)*** %33, metadata !3877, metadata !DIExpression()), !dbg !3886
  %34 = alloca %"class.std::__1::unique_ptr"*, align 8
  call void @llvm.dbg.declare(metadata %"class.std::__1::unique_ptr"** %34, metadata !3888, metadata !DIExpression()), !dbg !3889
  %35 = alloca %struct.__sFILE*, align 8
  call void @llvm.dbg.declare(metadata %struct.__sFILE** %35, metadata !3890, metadata !DIExpression()), !dbg !3891
  %36 = alloca i32 (%struct.__sFILE*)**, align 8
  call void @llvm.dbg.declare(metadata i32 (%struct.__sFILE*)*** %36, metadata !3892, metadata !DIExpression()), !dbg !3893
  %37 = alloca %"class.std::__1::unique_ptr"*, align 8
  call void @llvm.dbg.declare(metadata %"class.std::__1::unique_ptr"** %37, metadata !3894, metadata !DIExpression()), !dbg !3895
  %38 = alloca %struct.__sFILE*, align 8
  call void @llvm.dbg.declare(metadata %struct.__sFILE** %38, metadata !3896, metadata !DIExpression()), !dbg !3897
  %39 = alloca i32 (%struct.__sFILE*)**, align 8
  call void @llvm.dbg.declare(metadata i32 (%struct.__sFILE*)*** %39, metadata !3898, metadata !DIExpression()), !dbg !3899
  %40 = alloca %"class.std::__1::basic_filebuf"*, align 8
  %41 = alloca %"class.std::__1::basic_filebuf"*, align 8
  %42 = alloca %"class.std::__1::unique_ptr", align 8
  %43 = alloca i32 (%struct.__sFILE*)*, align 8
  store %"class.std::__1::basic_filebuf"* %0, %"class.std::__1::basic_filebuf"** %40, align 8
  call void @llvm.dbg.declare(metadata %"class.std::__1::basic_filebuf"** %40, metadata !3900, metadata !DIExpression()), !dbg !3901
  %44 = load %"class.std::__1::basic_filebuf"*, %"class.std::__1::basic_filebuf"** %40, align 8
  call void @llvm.dbg.declare(metadata %"class.std::__1::basic_filebuf"** %41, metadata !3902, metadata !DIExpression()), !dbg !3903
  store %"class.std::__1::basic_filebuf"* null, %"class.std::__1::basic_filebuf"** %41, align 8, !dbg !3903
  %45 = getelementptr inbounds %"class.std::__1::basic_filebuf", %"class.std::__1::basic_filebuf"* %44, i32 0, i32 8, !dbg !3904
  %46 = load %struct.__sFILE*, %struct.__sFILE** %45, align 8, !dbg !3904
  %47 = icmp ne %struct.__sFILE* %46, null, !dbg !3904
  br i1 %47, label %48, label %136, !dbg !3905

; <label>:48:                                     ; preds = %1
  store %"class.std::__1::basic_filebuf"* %44, %"class.std::__1::basic_filebuf"** %41, align 8, !dbg !3906
  call void @llvm.dbg.declare(metadata %"class.std::__1::unique_ptr"* %42, metadata !3907, metadata !DIExpression()), !dbg !3908
  %49 = getelementptr inbounds %"class.std::__1::basic_filebuf", %"class.std::__1::basic_filebuf"* %44, i32 0, i32 8, !dbg !3909
  %50 = load %struct.__sFILE*, %struct.__sFILE** %49, align 8, !dbg !3909
  store i32 (%struct.__sFILE*)* @fclose, i32 (%struct.__sFILE*)** %43, align 8, !dbg !3910
  store %"class.std::__1::unique_ptr"* %42, %"class.std::__1::unique_ptr"** %37, align 8
  store %struct.__sFILE* %50, %struct.__sFILE** %38, align 8
  store i32 (%struct.__sFILE*)** %43, i32 (%struct.__sFILE*)*** %39, align 8
  %51 = load %"class.std::__1::unique_ptr"*, %"class.std::__1::unique_ptr"** %37, align 8
  %52 = load %struct.__sFILE*, %struct.__sFILE** %38, align 8, !dbg !3911
  %53 = load i32 (%struct.__sFILE*)**, i32 (%struct.__sFILE*)*** %39, align 8, !dbg !3911
  store %"class.std::__1::unique_ptr"* %51, %"class.std::__1::unique_ptr"** %34, align 8
  store %struct.__sFILE* %52, %struct.__sFILE** %35, align 8
  store i32 (%struct.__sFILE*)** %53, i32 (%struct.__sFILE*)*** %36, align 8
  %54 = load %"class.std::__1::unique_ptr"*, %"class.std::__1::unique_ptr"** %34, align 8
  %55 = getelementptr inbounds %"class.std::__1::unique_ptr", %"class.std::__1::unique_ptr"* %54, i32 0, i32 0, !dbg !3912
  %56 = load i32 (%struct.__sFILE*)**, i32 (%struct.__sFILE*)*** %36, align 8, !dbg !3913
  store i32 (%struct.__sFILE*)** %56, i32 (%struct.__sFILE*)*** %33, align 8
  %57 = load i32 (%struct.__sFILE*)**, i32 (%struct.__sFILE*)*** %33, align 8, !dbg !3914
  store %"class.std::__1::__compressed_pair.3"* %55, %"class.std::__1::__compressed_pair.3"** %30, align 8
  store %struct.__sFILE** %35, %struct.__sFILE*** %31, align 8
  store i32 (%struct.__sFILE*)** %57, i32 (%struct.__sFILE*)*** %32, align 8
  %58 = load %"class.std::__1::__compressed_pair.3"*, %"class.std::__1::__compressed_pair.3"** %30, align 8
  %59 = load %struct.__sFILE**, %struct.__sFILE*** %31, align 8, !dbg !3915
  %60 = load i32 (%struct.__sFILE*)**, i32 (%struct.__sFILE*)*** %32, align 8, !dbg !3915
  store %"class.std::__1::__compressed_pair.3"* %58, %"class.std::__1::__compressed_pair.3"** %27, align 8
  store %struct.__sFILE** %59, %struct.__sFILE*** %28, align 8
  store i32 (%struct.__sFILE*)** %60, i32 (%struct.__sFILE*)*** %29, align 8
  %61 = load %"class.std::__1::__compressed_pair.3"*, %"class.std::__1::__compressed_pair.3"** %27, align 8
  %62 = bitcast %"class.std::__1::__compressed_pair.3"* %61 to %"struct.std::__1::__compressed_pair_elem.4"*, !dbg !3916
  %63 = load %struct.__sFILE**, %struct.__sFILE*** %28, align 8, !dbg !3917
  store %struct.__sFILE** %63, %struct.__sFILE*** %26, align 8
  %64 = load %struct.__sFILE**, %struct.__sFILE*** %26, align 8, !dbg !3918
  store %"struct.std::__1::__compressed_pair_elem.4"* %62, %"struct.std::__1::__compressed_pair_elem.4"** %20, align 8
  store %struct.__sFILE** %64, %struct.__sFILE*** %21, align 8
  %65 = load %"struct.std::__1::__compressed_pair_elem.4"*, %"struct.std::__1::__compressed_pair_elem.4"** %20, align 8
  %66 = getelementptr inbounds %"struct.std::__1::__compressed_pair_elem.4", %"struct.std::__1::__compressed_pair_elem.4"* %65, i32 0, i32 0, !dbg !3919
  %67 = load %struct.__sFILE**, %struct.__sFILE*** %21, align 8, !dbg !3920
  store %struct.__sFILE** %67, %struct.__sFILE*** %19, align 8
  %68 = load %struct.__sFILE**, %struct.__sFILE*** %19, align 8, !dbg !3921
  %69 = load %struct.__sFILE*, %struct.__sFILE** %68, align 8, !dbg !3922
  store %struct.__sFILE* %69, %struct.__sFILE** %66, align 8, !dbg !3919
  %70 = bitcast %"class.std::__1::__compressed_pair.3"* %61 to i8*, !dbg !3916
  %71 = getelementptr inbounds i8, i8* %70, i64 8, !dbg !3916
  %72 = bitcast i8* %71 to %"struct.std::__1::__compressed_pair_elem.5"*, !dbg !3916
  %73 = load i32 (%struct.__sFILE*)**, i32 (%struct.__sFILE*)*** %29, align 8, !dbg !3923
  store i32 (%struct.__sFILE*)** %73, i32 (%struct.__sFILE*)*** %22, align 8
  %74 = load i32 (%struct.__sFILE*)**, i32 (%struct.__sFILE*)*** %22, align 8, !dbg !3924
  store %"struct.std::__1::__compressed_pair_elem.5"* %72, %"struct.std::__1::__compressed_pair_elem.5"** %24, align 8
  store i32 (%struct.__sFILE*)** %74, i32 (%struct.__sFILE*)*** %25, align 8
  %75 = load %"struct.std::__1::__compressed_pair_elem.5"*, %"struct.std::__1::__compressed_pair_elem.5"** %24, align 8
  %76 = getelementptr inbounds %"struct.std::__1::__compressed_pair_elem.5", %"struct.std::__1::__compressed_pair_elem.5"* %75, i32 0, i32 0, !dbg !3925
  %77 = load i32 (%struct.__sFILE*)**, i32 (%struct.__sFILE*)*** %25, align 8, !dbg !3926
  store i32 (%struct.__sFILE*)** %77, i32 (%struct.__sFILE*)*** %23, align 8
  %78 = load i32 (%struct.__sFILE*)**, i32 (%struct.__sFILE*)*** %23, align 8, !dbg !3927
  %79 = load i32 (%struct.__sFILE*)*, i32 (%struct.__sFILE*)** %78, align 8, !dbg !3928
  store i32 (%struct.__sFILE*)* %79, i32 (%struct.__sFILE*)** %76, align 8, !dbg !3925
  %80 = bitcast %"class.std::__1::basic_filebuf"* %44 to i32 (%"class.std::__1::basic_filebuf"*)***, !dbg !3929
  %81 = load i32 (%"class.std::__1::basic_filebuf"*)**, i32 (%"class.std::__1::basic_filebuf"*)*** %80, align 8, !dbg !3929
  %82 = getelementptr inbounds i32 (%"class.std::__1::basic_filebuf"*)*, i32 (%"class.std::__1::basic_filebuf"*)** %81, i64 6, !dbg !3929
  %83 = load i32 (%"class.std::__1::basic_filebuf"*)*, i32 (%"class.std::__1::basic_filebuf"*)** %82, align 8, !dbg !3929
  %84 = call i32 %83(%"class.std::__1::basic_filebuf"* %44), !dbg !3929
  %85 = icmp ne i32 %84, 0, !dbg !3929
  br i1 %85, label %86, label %87, !dbg !3931

; <label>:86:                                     ; preds = %48
  store %"class.std::__1::basic_filebuf"* null, %"class.std::__1::basic_filebuf"** %41, align 8, !dbg !3932
  br label %87, !dbg !3933

; <label>:87:                                     ; preds = %86, %48
  store %"class.std::__1::unique_ptr"* %42, %"class.std::__1::unique_ptr"** %6, align 8
  %88 = load %"class.std::__1::unique_ptr"*, %"class.std::__1::unique_ptr"** %6, align 8
  %89 = getelementptr inbounds %"class.std::__1::unique_ptr", %"class.std::__1::unique_ptr"* %88, i32 0, i32 0, !dbg !3934
  store %"class.std::__1::__compressed_pair.3"* %89, %"class.std::__1::__compressed_pair.3"** %5, align 8
  %90 = load %"class.std::__1::__compressed_pair.3"*, %"class.std::__1::__compressed_pair.3"** %5, align 8
  %91 = bitcast %"class.std::__1::__compressed_pair.3"* %90 to %"struct.std::__1::__compressed_pair_elem.4"*, !dbg !3935
  store %"struct.std::__1::__compressed_pair_elem.4"* %91, %"struct.std::__1::__compressed_pair_elem.4"** %4, align 8
  %92 = load %"struct.std::__1::__compressed_pair_elem.4"*, %"struct.std::__1::__compressed_pair_elem.4"** %4, align 8
  %93 = getelementptr inbounds %"struct.std::__1::__compressed_pair_elem.4", %"struct.std::__1::__compressed_pair_elem.4"* %92, i32 0, i32 0, !dbg !3936
  %94 = load %struct.__sFILE*, %struct.__sFILE** %93, align 8, !dbg !3937
  store %struct.__sFILE* %94, %struct.__sFILE** %7, align 8, !dbg !3756
  %95 = getelementptr inbounds %"class.std::__1::unique_ptr", %"class.std::__1::unique_ptr"* %88, i32 0, i32 0, !dbg !3938
  store %"class.std::__1::__compressed_pair.3"* %95, %"class.std::__1::__compressed_pair.3"** %3, align 8
  %96 = load %"class.std::__1::__compressed_pair.3"*, %"class.std::__1::__compressed_pair.3"** %3, align 8
  %97 = bitcast %"class.std::__1::__compressed_pair.3"* %96 to %"struct.std::__1::__compressed_pair_elem.4"*, !dbg !3939
  store %"struct.std::__1::__compressed_pair_elem.4"* %97, %"struct.std::__1::__compressed_pair_elem.4"** %2, align 8
  %98 = load %"struct.std::__1::__compressed_pair_elem.4"*, %"struct.std::__1::__compressed_pair_elem.4"** %2, align 8
  %99 = getelementptr inbounds %"struct.std::__1::__compressed_pair_elem.4", %"struct.std::__1::__compressed_pair_elem.4"* %98, i32 0, i32 0, !dbg !3940
  store %struct.__sFILE* null, %struct.__sFILE** %99, align 8, !dbg !3941
  %100 = load %struct.__sFILE*, %struct.__sFILE** %7, align 8, !dbg !3942
  %101 = call i32 @fclose(%struct.__sFILE* %100), !dbg !3943
  %102 = icmp eq i32 %101, 0, !dbg !3944
  br i1 %102, label %103, label %105, !dbg !3945

; <label>:103:                                    ; preds = %87
  %104 = getelementptr inbounds %"class.std::__1::basic_filebuf", %"class.std::__1::basic_filebuf"* %44, i32 0, i32 8, !dbg !3946
  store %struct.__sFILE* null, %struct.__sFILE** %104, align 8, !dbg !3947
  br label %106, !dbg !3946

; <label>:105:                                    ; preds = %87
  store %"class.std::__1::basic_filebuf"* null, %"class.std::__1::basic_filebuf"** %41, align 8, !dbg !3948
  br label %106

; <label>:106:                                    ; preds = %105, %103
  store %"class.std::__1::unique_ptr"* %42, %"class.std::__1::unique_ptr"** %18, align 8
  %107 = load %"class.std::__1::unique_ptr"*, %"class.std::__1::unique_ptr"** %18, align 8
  store %"class.std::__1::unique_ptr"* %107, %"class.std::__1::unique_ptr"** %17, align 8
  %108 = load %"class.std::__1::unique_ptr"*, %"class.std::__1::unique_ptr"** %17, align 8
  store %"class.std::__1::unique_ptr"* %108, %"class.std::__1::unique_ptr"** %14, align 8
  store %struct.__sFILE* null, %struct.__sFILE** %15, align 8
  %109 = load %"class.std::__1::unique_ptr"*, %"class.std::__1::unique_ptr"** %14, align 8
  %110 = getelementptr inbounds %"class.std::__1::unique_ptr", %"class.std::__1::unique_ptr"* %109, i32 0, i32 0, !dbg !3949
  store %"class.std::__1::__compressed_pair.3"* %110, %"class.std::__1::__compressed_pair.3"** %13, align 8
  %111 = load %"class.std::__1::__compressed_pair.3"*, %"class.std::__1::__compressed_pair.3"** %13, align 8
  %112 = bitcast %"class.std::__1::__compressed_pair.3"* %111 to %"struct.std::__1::__compressed_pair_elem.4"*, !dbg !3950
  store %"struct.std::__1::__compressed_pair_elem.4"* %112, %"struct.std::__1::__compressed_pair_elem.4"** %12, align 8
  %113 = load %"struct.std::__1::__compressed_pair_elem.4"*, %"struct.std::__1::__compressed_pair_elem.4"** %12, align 8
  %114 = getelementptr inbounds %"struct.std::__1::__compressed_pair_elem.4", %"struct.std::__1::__compressed_pair_elem.4"* %113, i32 0, i32 0, !dbg !3951
  %115 = load %struct.__sFILE*, %struct.__sFILE** %114, align 8, !dbg !3952
  store %struct.__sFILE* %115, %struct.__sFILE** %16, align 8, !dbg !3787
  %116 = load %struct.__sFILE*, %struct.__sFILE** %15, align 8, !dbg !3953
  %117 = getelementptr inbounds %"class.std::__1::unique_ptr", %"class.std::__1::unique_ptr"* %109, i32 0, i32 0, !dbg !3954
  store %"class.std::__1::__compressed_pair.3"* %117, %"class.std::__1::__compressed_pair.3"** %11, align 8
  %118 = load %"class.std::__1::__compressed_pair.3"*, %"class.std::__1::__compressed_pair.3"** %11, align 8
  %119 = bitcast %"class.std::__1::__compressed_pair.3"* %118 to %"struct.std::__1::__compressed_pair_elem.4"*, !dbg !3955
  store %"struct.std::__1::__compressed_pair_elem.4"* %119, %"struct.std::__1::__compressed_pair_elem.4"** %10, align 8
  %120 = load %"struct.std::__1::__compressed_pair_elem.4"*, %"struct.std::__1::__compressed_pair_elem.4"** %10, align 8
  %121 = getelementptr inbounds %"struct.std::__1::__compressed_pair_elem.4", %"struct.std::__1::__compressed_pair_elem.4"* %120, i32 0, i32 0, !dbg !3956
  store %struct.__sFILE* %116, %struct.__sFILE** %121, align 8, !dbg !3957
  %122 = load %struct.__sFILE*, %struct.__sFILE** %16, align 8, !dbg !3958
  %123 = icmp ne %struct.__sFILE* %122, null, !dbg !3958
  br i1 %123, label %124, label %135, !dbg !3959

; <label>:124:                                    ; preds = %106
  %125 = getelementptr inbounds %"class.std::__1::unique_ptr", %"class.std::__1::unique_ptr"* %109, i32 0, i32 0, !dbg !3960
  store %"class.std::__1::__compressed_pair.3"* %125, %"class.std::__1::__compressed_pair.3"** %9, align 8
  %126 = load %"class.std::__1::__compressed_pair.3"*, %"class.std::__1::__compressed_pair.3"** %9, align 8
  %127 = bitcast %"class.std::__1::__compressed_pair.3"* %126 to i8*, !dbg !3961
  %128 = getelementptr inbounds i8, i8* %127, i64 8, !dbg !3961
  %129 = bitcast i8* %128 to %"struct.std::__1::__compressed_pair_elem.5"*, !dbg !3961
  store %"struct.std::__1::__compressed_pair_elem.5"* %129, %"struct.std::__1::__compressed_pair_elem.5"** %8, align 8
  %130 = load %"struct.std::__1::__compressed_pair_elem.5"*, %"struct.std::__1::__compressed_pair_elem.5"** %8, align 8
  %131 = getelementptr inbounds %"struct.std::__1::__compressed_pair_elem.5", %"struct.std::__1::__compressed_pair_elem.5"* %130, i32 0, i32 0, !dbg !3962
  %132 = load i32 (%struct.__sFILE*)*, i32 (%struct.__sFILE*)** %131, align 8, !dbg !3963
  %133 = load %struct.__sFILE*, %struct.__sFILE** %16, align 8, !dbg !3964
  %134 = call i32 %132(%struct.__sFILE* %133) #8, !dbg !3960
  br label %135, !dbg !3960

; <label>:135:                                    ; preds = %106, %124
  br label %136, !dbg !3965

; <label>:136:                                    ; preds = %135, %1
  %137 = load %"class.std::__1::basic_filebuf"*, %"class.std::__1::basic_filebuf"** %41, align 8, !dbg !3966
  ret %"class.std::__1::basic_filebuf"* %137, !dbg !3967
}

; Function Attrs: nobuiltin nounwind
declare void @_ZdaPv(i8*) #4

; Function Attrs: nounwind
declare void @_ZNSt3__115basic_streambufIcNS_11char_traitsIcEEED2Ev(%"class.std::__1::basic_streambuf"*) unnamed_addr #3

; Function Attrs: noinline nounwind optnone ssp uwtable
define linkonce_odr void @_ZNSt3__113basic_filebufIcNS_11char_traitsIcEEED0Ev(%"class.std::__1::basic_filebuf"*) unnamed_addr #0 align 2 !dbg !3968 {
  %2 = alloca %"class.std::__1::basic_filebuf"*, align 8
  store %"class.std::__1::basic_filebuf"* %0, %"class.std::__1::basic_filebuf"** %2, align 8
  call void @llvm.dbg.declare(metadata %"class.std::__1::basic_filebuf"** %2, metadata !3969, metadata !DIExpression()), !dbg !3970
  %3 = load %"class.std::__1::basic_filebuf"*, %"class.std::__1::basic_filebuf"** %2, align 8
  call void @_ZNSt3__113basic_filebufIcNS_11char_traitsIcEEED1Ev(%"class.std::__1::basic_filebuf"* %3) #8, !dbg !3971
  %4 = bitcast %"class.std::__1::basic_filebuf"* %3 to i8*, !dbg !3971
  call void @_ZdlPv(i8* %4) #9, !dbg !3971
  ret void, !dbg !3972
}

; Function Attrs: noinline nounwind optnone ssp uwtable
define linkonce_odr void @_ZNSt3__113basic_filebufIcNS_11char_traitsIcEEE5imbueERKNS_6localeE(%"class.std::__1::basic_filebuf"*, %"class.std::__1::locale"* dereferenceable(8)) unnamed_addr #0 align 2 !dbg !3973 {
  %3 = alloca %"class.std::__1::basic_streambuf"*, align 8
  call void @llvm.dbg.declare(metadata %"class.std::__1::basic_streambuf"** %3, metadata !3974, metadata !DIExpression()), !dbg !3976
  %4 = alloca i8*, align 8
  call void @llvm.dbg.declare(metadata i8** %4, metadata !3980, metadata !DIExpression()), !dbg !3981
  %5 = alloca i8*, align 8
  call void @llvm.dbg.declare(metadata i8** %5, metadata !3982, metadata !DIExpression()), !dbg !3983
  %6 = alloca %"class.std::__1::basic_streambuf"*, align 8
  call void @llvm.dbg.declare(metadata %"class.std::__1::basic_streambuf"** %6, metadata !3984, metadata !DIExpression()), !dbg !3986
  %7 = alloca i8*, align 8
  call void @llvm.dbg.declare(metadata i8** %7, metadata !3988, metadata !DIExpression()), !dbg !3989
  %8 = alloca i8*, align 8
  call void @llvm.dbg.declare(metadata i8** %8, metadata !3990, metadata !DIExpression()), !dbg !3991
  %9 = alloca i8*, align 8
  call void @llvm.dbg.declare(metadata i8** %9, metadata !3992, metadata !DIExpression()), !dbg !3993
  %10 = alloca %"class.std::__1::codecvt"*, align 8
  call void @llvm.dbg.declare(metadata %"class.std::__1::codecvt"** %10, metadata !3994, metadata !DIExpression()), !dbg !3996
  %11 = alloca %"class.std::__1::locale"*, align 8
  call void @llvm.dbg.declare(metadata %"class.std::__1::locale"** %11, metadata !3998, metadata !DIExpression()), !dbg !4005
  %12 = alloca %"class.std::__1::basic_filebuf"*, align 8
  %13 = alloca %"class.std::__1::locale"*, align 8
  %14 = alloca i8, align 1
  store %"class.std::__1::basic_filebuf"* %0, %"class.std::__1::basic_filebuf"** %12, align 8
  call void @llvm.dbg.declare(metadata %"class.std::__1::basic_filebuf"** %12, metadata !4007, metadata !DIExpression()), !dbg !4008
  store %"class.std::__1::locale"* %1, %"class.std::__1::locale"** %13, align 8
  call void @llvm.dbg.declare(metadata %"class.std::__1::locale"** %13, metadata !4009, metadata !DIExpression()), !dbg !4010
  %15 = load %"class.std::__1::basic_filebuf"*, %"class.std::__1::basic_filebuf"** %12, align 8
  %16 = bitcast %"class.std::__1::basic_filebuf"* %15 to i32 (%"class.std::__1::basic_filebuf"*)***, !dbg !4011
  %17 = load i32 (%"class.std::__1::basic_filebuf"*)**, i32 (%"class.std::__1::basic_filebuf"*)*** %16, align 8, !dbg !4011
  %18 = getelementptr inbounds i32 (%"class.std::__1::basic_filebuf"*)*, i32 (%"class.std::__1::basic_filebuf"*)** %17, i64 6, !dbg !4011
  %19 = load i32 (%"class.std::__1::basic_filebuf"*)*, i32 (%"class.std::__1::basic_filebuf"*)** %18, align 8, !dbg !4011
  %20 = call i32 %19(%"class.std::__1::basic_filebuf"* %15), !dbg !4011
  %21 = load %"class.std::__1::locale"*, %"class.std::__1::locale"** %13, align 8, !dbg !4012
  store %"class.std::__1::locale"* %21, %"class.std::__1::locale"** %11, align 8
  %22 = load %"class.std::__1::locale"*, %"class.std::__1::locale"** %11, align 8, !dbg !4013
  %23 = call %"class.std::__1::locale::facet"* @_ZNKSt3__16locale9use_facetERNS0_2idE(%"class.std::__1::locale"* %22, %"class.std::__1::locale::id"* dereferenceable(16) @_ZNSt3__17codecvtIcc11__mbstate_tE2idE) #8, !dbg !4014
  %24 = bitcast %"class.std::__1::locale::facet"* %23 to %"class.std::__1::codecvt"*, !dbg !4015
  %25 = getelementptr inbounds %"class.std::__1::basic_filebuf", %"class.std::__1::basic_filebuf"* %15, i32 0, i32 9, !dbg !4016
  store %"class.std::__1::codecvt"* %24, %"class.std::__1::codecvt"** %25, align 8, !dbg !4017
  call void @llvm.dbg.declare(metadata i8* %14, metadata !4018, metadata !DIExpression()), !dbg !4019
  %26 = getelementptr inbounds %"class.std::__1::basic_filebuf", %"class.std::__1::basic_filebuf"* %15, i32 0, i32 16, !dbg !4020
  %27 = load i8, i8* %26, align 2, !dbg !4020
  %28 = trunc i8 %27 to i1, !dbg !4020
  %29 = zext i1 %28 to i8, !dbg !4019
  store i8 %29, i8* %14, align 1, !dbg !4019
  %30 = getelementptr inbounds %"class.std::__1::basic_filebuf", %"class.std::__1::basic_filebuf"* %15, i32 0, i32 9, !dbg !4021
  %31 = load %"class.std::__1::codecvt"*, %"class.std::__1::codecvt"** %30, align 8, !dbg !4021
  store %"class.std::__1::codecvt"* %31, %"class.std::__1::codecvt"** %10, align 8
  %32 = load %"class.std::__1::codecvt"*, %"class.std::__1::codecvt"** %10, align 8
  %33 = bitcast %"class.std::__1::codecvt"* %32 to i1 (%"class.std::__1::codecvt"*)***, !dbg !4022
  %34 = load i1 (%"class.std::__1::codecvt"*)**, i1 (%"class.std::__1::codecvt"*)*** %33, align 8, !dbg !4022
  %35 = getelementptr inbounds i1 (%"class.std::__1::codecvt"*)*, i1 (%"class.std::__1::codecvt"*)** %34, i64 7, !dbg !4022
  %36 = load i1 (%"class.std::__1::codecvt"*)*, i1 (%"class.std::__1::codecvt"*)** %35, align 8, !dbg !4022
  %37 = call zeroext i1 %36(%"class.std::__1::codecvt"* %32) #8, !dbg !4022
  %38 = getelementptr inbounds %"class.std::__1::basic_filebuf", %"class.std::__1::basic_filebuf"* %15, i32 0, i32 16, !dbg !4023
  %39 = zext i1 %37 to i8, !dbg !4024
  store i8 %39, i8* %38, align 2, !dbg !4024
  %40 = load i8, i8* %14, align 1, !dbg !4025
  %41 = trunc i8 %40 to i1, !dbg !4025
  %42 = zext i1 %41 to i32, !dbg !4025
  %43 = getelementptr inbounds %"class.std::__1::basic_filebuf", %"class.std::__1::basic_filebuf"* %15, i32 0, i32 16, !dbg !4026
  %44 = load i8, i8* %43, align 2, !dbg !4026
  %45 = trunc i8 %44 to i1, !dbg !4026
  %46 = zext i1 %45 to i32, !dbg !4026
  %47 = icmp ne i32 %42, %46, !dbg !4027
  br i1 %47, label %48, label %126, !dbg !4028

; <label>:48:                                     ; preds = %2
  %49 = bitcast %"class.std::__1::basic_filebuf"* %15 to %"class.std::__1::basic_streambuf"*, !dbg !4029
  store %"class.std::__1::basic_streambuf"* %49, %"class.std::__1::basic_streambuf"** %6, align 8
  store i8* null, i8** %7, align 8
  store i8* null, i8** %8, align 8
  store i8* null, i8** %9, align 8
  %50 = load %"class.std::__1::basic_streambuf"*, %"class.std::__1::basic_streambuf"** %6, align 8
  %51 = load i8*, i8** %7, align 8, !dbg !4030
  %52 = getelementptr inbounds %"class.std::__1::basic_streambuf", %"class.std::__1::basic_streambuf"* %50, i32 0, i32 2, !dbg !4031
  store i8* %51, i8** %52, align 8, !dbg !4032
  %53 = load i8*, i8** %8, align 8, !dbg !4033
  %54 = getelementptr inbounds %"class.std::__1::basic_streambuf", %"class.std::__1::basic_streambuf"* %50, i32 0, i32 3, !dbg !4034
  store i8* %53, i8** %54, align 8, !dbg !4035
  %55 = load i8*, i8** %9, align 8, !dbg !4036
  %56 = getelementptr inbounds %"class.std::__1::basic_streambuf", %"class.std::__1::basic_streambuf"* %50, i32 0, i32 4, !dbg !4037
  store i8* %55, i8** %56, align 8, !dbg !4038
  %57 = bitcast %"class.std::__1::basic_filebuf"* %15 to %"class.std::__1::basic_streambuf"*, !dbg !4039
  store %"class.std::__1::basic_streambuf"* %57, %"class.std::__1::basic_streambuf"** %3, align 8
  store i8* null, i8** %4, align 8
  store i8* null, i8** %5, align 8
  %58 = load %"class.std::__1::basic_streambuf"*, %"class.std::__1::basic_streambuf"** %3, align 8
  %59 = load i8*, i8** %4, align 8, !dbg !4040
  %60 = getelementptr inbounds %"class.std::__1::basic_streambuf", %"class.std::__1::basic_streambuf"* %58, i32 0, i32 6, !dbg !4041
  store i8* %59, i8** %60, align 8, !dbg !4042
  %61 = getelementptr inbounds %"class.std::__1::basic_streambuf", %"class.std::__1::basic_streambuf"* %58, i32 0, i32 5, !dbg !4043
  store i8* %59, i8** %61, align 8, !dbg !4044
  %62 = load i8*, i8** %5, align 8, !dbg !4045
  %63 = getelementptr inbounds %"class.std::__1::basic_streambuf", %"class.std::__1::basic_streambuf"* %58, i32 0, i32 7, !dbg !4046
  store i8* %62, i8** %63, align 8, !dbg !4047
  %64 = getelementptr inbounds %"class.std::__1::basic_filebuf", %"class.std::__1::basic_filebuf"* %15, i32 0, i32 16, !dbg !4048
  %65 = load i8, i8* %64, align 2, !dbg !4048
  %66 = trunc i8 %65 to i1, !dbg !4048
  br i1 %66, label %67, label %92, !dbg !4050

; <label>:67:                                     ; preds = %48
  %68 = getelementptr inbounds %"class.std::__1::basic_filebuf", %"class.std::__1::basic_filebuf"* %15, i32 0, i32 14, !dbg !4051
  %69 = load i8, i8* %68, align 8, !dbg !4051
  %70 = trunc i8 %69 to i1, !dbg !4051
  br i1 %70, label %71, label %77, !dbg !4054

; <label>:71:                                     ; preds = %67
  %72 = getelementptr inbounds %"class.std::__1::basic_filebuf", %"class.std::__1::basic_filebuf"* %15, i32 0, i32 1, !dbg !4055
  %73 = load i8*, i8** %72, align 8, !dbg !4055
  %74 = icmp eq i8* %73, null, !dbg !4056
  br i1 %74, label %76, label %75, !dbg !4056

; <label>:75:                                     ; preds = %71
  call void @_ZdaPv(i8* %73) #9, !dbg !4056
  br label %76, !dbg !4056

; <label>:76:                                     ; preds = %75, %71
  br label %77, !dbg !4056

; <label>:77:                                     ; preds = %76, %67
  %78 = getelementptr inbounds %"class.std::__1::basic_filebuf", %"class.std::__1::basic_filebuf"* %15, i32 0, i32 15, !dbg !4057
  %79 = load i8, i8* %78, align 1, !dbg !4057
  %80 = trunc i8 %79 to i1, !dbg !4057
  %81 = getelementptr inbounds %"class.std::__1::basic_filebuf", %"class.std::__1::basic_filebuf"* %15, i32 0, i32 14, !dbg !4058
  %82 = zext i1 %80 to i8, !dbg !4059
  store i8 %82, i8* %81, align 8, !dbg !4059
  %83 = getelementptr inbounds %"class.std::__1::basic_filebuf", %"class.std::__1::basic_filebuf"* %15, i32 0, i32 7, !dbg !4060
  %84 = load i64, i64* %83, align 8, !dbg !4060
  %85 = getelementptr inbounds %"class.std::__1::basic_filebuf", %"class.std::__1::basic_filebuf"* %15, i32 0, i32 5, !dbg !4061
  store i64 %84, i64* %85, align 8, !dbg !4062
  %86 = getelementptr inbounds %"class.std::__1::basic_filebuf", %"class.std::__1::basic_filebuf"* %15, i32 0, i32 6, !dbg !4063
  %87 = load i8*, i8** %86, align 8, !dbg !4063
  %88 = getelementptr inbounds %"class.std::__1::basic_filebuf", %"class.std::__1::basic_filebuf"* %15, i32 0, i32 1, !dbg !4064
  store i8* %87, i8** %88, align 8, !dbg !4065
  %89 = getelementptr inbounds %"class.std::__1::basic_filebuf", %"class.std::__1::basic_filebuf"* %15, i32 0, i32 7, !dbg !4066
  store i64 0, i64* %89, align 8, !dbg !4067
  %90 = getelementptr inbounds %"class.std::__1::basic_filebuf", %"class.std::__1::basic_filebuf"* %15, i32 0, i32 6, !dbg !4068
  store i8* null, i8** %90, align 8, !dbg !4069
  %91 = getelementptr inbounds %"class.std::__1::basic_filebuf", %"class.std::__1::basic_filebuf"* %15, i32 0, i32 15, !dbg !4070
  store i8 0, i8* %91, align 1, !dbg !4071
  br label %125, !dbg !4072

; <label>:92:                                     ; preds = %48
  %93 = getelementptr inbounds %"class.std::__1::basic_filebuf", %"class.std::__1::basic_filebuf"* %15, i32 0, i32 14, !dbg !4073
  %94 = load i8, i8* %93, align 8, !dbg !4073
  %95 = trunc i8 %94 to i1, !dbg !4073
  br i1 %95, label %115, label %96, !dbg !4076

; <label>:96:                                     ; preds = %92
  %97 = getelementptr inbounds %"class.std::__1::basic_filebuf", %"class.std::__1::basic_filebuf"* %15, i32 0, i32 1, !dbg !4077
  %98 = load i8*, i8** %97, align 8, !dbg !4077
  %99 = getelementptr inbounds %"class.std::__1::basic_filebuf", %"class.std::__1::basic_filebuf"* %15, i32 0, i32 4, !dbg !4078
  %100 = getelementptr inbounds [8 x i8], [8 x i8]* %99, i32 0, i32 0, !dbg !4078
  %101 = icmp ne i8* %98, %100, !dbg !4079
  br i1 %101, label %102, label %115, !dbg !4080

; <label>:102:                                    ; preds = %96
  %103 = getelementptr inbounds %"class.std::__1::basic_filebuf", %"class.std::__1::basic_filebuf"* %15, i32 0, i32 5, !dbg !4081
  %104 = load i64, i64* %103, align 8, !dbg !4081
  %105 = getelementptr inbounds %"class.std::__1::basic_filebuf", %"class.std::__1::basic_filebuf"* %15, i32 0, i32 7, !dbg !4083
  store i64 %104, i64* %105, align 8, !dbg !4084
  %106 = getelementptr inbounds %"class.std::__1::basic_filebuf", %"class.std::__1::basic_filebuf"* %15, i32 0, i32 1, !dbg !4085
  %107 = load i8*, i8** %106, align 8, !dbg !4085
  %108 = getelementptr inbounds %"class.std::__1::basic_filebuf", %"class.std::__1::basic_filebuf"* %15, i32 0, i32 6, !dbg !4086
  store i8* %107, i8** %108, align 8, !dbg !4087
  %109 = getelementptr inbounds %"class.std::__1::basic_filebuf", %"class.std::__1::basic_filebuf"* %15, i32 0, i32 15, !dbg !4088
  store i8 0, i8* %109, align 1, !dbg !4089
  %110 = getelementptr inbounds %"class.std::__1::basic_filebuf", %"class.std::__1::basic_filebuf"* %15, i32 0, i32 5, !dbg !4090
  %111 = load i64, i64* %110, align 8, !dbg !4090
  %112 = call i8* @_Znam(i64 %111) #10, !dbg !4091
  %113 = getelementptr inbounds %"class.std::__1::basic_filebuf", %"class.std::__1::basic_filebuf"* %15, i32 0, i32 1, !dbg !4092
  store i8* %112, i8** %113, align 8, !dbg !4093
  %114 = getelementptr inbounds %"class.std::__1::basic_filebuf", %"class.std::__1::basic_filebuf"* %15, i32 0, i32 14, !dbg !4094
  store i8 1, i8* %114, align 8, !dbg !4095
  br label %124, !dbg !4096

; <label>:115:                                    ; preds = %96, %92
  %116 = getelementptr inbounds %"class.std::__1::basic_filebuf", %"class.std::__1::basic_filebuf"* %15, i32 0, i32 5, !dbg !4097
  %117 = load i64, i64* %116, align 8, !dbg !4097
  %118 = getelementptr inbounds %"class.std::__1::basic_filebuf", %"class.std::__1::basic_filebuf"* %15, i32 0, i32 7, !dbg !4099
  store i64 %117, i64* %118, align 8, !dbg !4100
  %119 = getelementptr inbounds %"class.std::__1::basic_filebuf", %"class.std::__1::basic_filebuf"* %15, i32 0, i32 7, !dbg !4101
  %120 = load i64, i64* %119, align 8, !dbg !4101
  %121 = call i8* @_Znam(i64 %120) #10, !dbg !4102
  %122 = getelementptr inbounds %"class.std::__1::basic_filebuf", %"class.std::__1::basic_filebuf"* %15, i32 0, i32 6, !dbg !4103
  store i8* %121, i8** %122, align 8, !dbg !4104
  %123 = getelementptr inbounds %"class.std::__1::basic_filebuf", %"class.std::__1::basic_filebuf"* %15, i32 0, i32 15, !dbg !4105
  store i8 1, i8* %123, align 1, !dbg !4106
  br label %124

; <label>:124:                                    ; preds = %115, %102
  br label %125

; <label>:125:                                    ; preds = %124, %77
  br label %126, !dbg !4107

; <label>:126:                                    ; preds = %125, %2
  ret void, !dbg !4108
}

; Function Attrs: noinline nounwind optnone ssp uwtable
define linkonce_odr %"class.std::__1::basic_streambuf"* @_ZNSt3__113basic_filebufIcNS_11char_traitsIcEEE6setbufEPcl(%"class.std::__1::basic_filebuf"*, i8*, i64) unnamed_addr #0 align 2 !dbg !4109 {
  %4 = alloca %"class.std::__1::basic_streambuf"*, align 8
  call void @llvm.dbg.declare(metadata %"class.std::__1::basic_streambuf"** %4, metadata !3974, metadata !DIExpression()), !dbg !4110
  %5 = alloca i8*, align 8
  call void @llvm.dbg.declare(metadata i8** %5, metadata !3980, metadata !DIExpression()), !dbg !4112
  %6 = alloca i8*, align 8
  call void @llvm.dbg.declare(metadata i8** %6, metadata !3982, metadata !DIExpression()), !dbg !4113
  %7 = alloca %"struct.std::__1::__less"*, align 8
  call void @llvm.dbg.declare(metadata %"struct.std::__1::__less"** %7, metadata !4114, metadata !DIExpression()), !dbg !4129
  %8 = alloca i64*, align 8
  call void @llvm.dbg.declare(metadata i64** %8, metadata !4145, metadata !DIExpression()), !dbg !4146
  %9 = alloca i64*, align 8
  call void @llvm.dbg.declare(metadata i64** %9, metadata !4147, metadata !DIExpression()), !dbg !4148
  %10 = alloca %"struct.std::__1::__less", align 1
  call void @llvm.dbg.declare(metadata %"struct.std::__1::__less"* %10, metadata !4149, metadata !DIExpression()), !dbg !4150
  %11 = alloca i64*, align 8
  call void @llvm.dbg.declare(metadata i64** %11, metadata !4151, metadata !DIExpression()), !dbg !4152
  %12 = alloca i64*, align 8
  call void @llvm.dbg.declare(metadata i64** %12, metadata !4153, metadata !DIExpression()), !dbg !4154
  %13 = alloca i64*, align 8
  call void @llvm.dbg.declare(metadata i64** %13, metadata !4155, metadata !DIExpression()), !dbg !4156
  %14 = alloca i64*, align 8
  call void @llvm.dbg.declare(metadata i64** %14, metadata !4157, metadata !DIExpression()), !dbg !4158
  %15 = alloca %"struct.std::__1::__less", align 1
  %16 = alloca %"class.std::__1::basic_streambuf"*, align 8
  call void @llvm.dbg.declare(metadata %"class.std::__1::basic_streambuf"** %16, metadata !3984, metadata !DIExpression()), !dbg !4159
  %17 = alloca i8*, align 8
  call void @llvm.dbg.declare(metadata i8** %17, metadata !3988, metadata !DIExpression()), !dbg !4161
  %18 = alloca i8*, align 8
  call void @llvm.dbg.declare(metadata i8** %18, metadata !3990, metadata !DIExpression()), !dbg !4162
  %19 = alloca i8*, align 8
  call void @llvm.dbg.declare(metadata i8** %19, metadata !3992, metadata !DIExpression()), !dbg !4163
  %20 = alloca %"class.std::__1::basic_filebuf"*, align 8
  %21 = alloca i8*, align 8
  %22 = alloca i64, align 8
  %23 = alloca i64, align 8
  store %"class.std::__1::basic_filebuf"* %0, %"class.std::__1::basic_filebuf"** %20, align 8
  call void @llvm.dbg.declare(metadata %"class.std::__1::basic_filebuf"** %20, metadata !4164, metadata !DIExpression()), !dbg !4165
  store i8* %1, i8** %21, align 8
  call void @llvm.dbg.declare(metadata i8** %21, metadata !4166, metadata !DIExpression()), !dbg !4167
  store i64 %2, i64* %22, align 8
  call void @llvm.dbg.declare(metadata i64* %22, metadata !4168, metadata !DIExpression()), !dbg !4169
  %24 = load %"class.std::__1::basic_filebuf"*, %"class.std::__1::basic_filebuf"** %20, align 8
  %25 = bitcast %"class.std::__1::basic_filebuf"* %24 to %"class.std::__1::basic_streambuf"*, !dbg !4170
  store %"class.std::__1::basic_streambuf"* %25, %"class.std::__1::basic_streambuf"** %16, align 8
  store i8* null, i8** %17, align 8
  store i8* null, i8** %18, align 8
  store i8* null, i8** %19, align 8
  %26 = load %"class.std::__1::basic_streambuf"*, %"class.std::__1::basic_streambuf"** %16, align 8
  %27 = load i8*, i8** %17, align 8, !dbg !4171
  %28 = getelementptr inbounds %"class.std::__1::basic_streambuf", %"class.std::__1::basic_streambuf"* %26, i32 0, i32 2, !dbg !4172
  store i8* %27, i8** %28, align 8, !dbg !4173
  %29 = load i8*, i8** %18, align 8, !dbg !4174
  %30 = getelementptr inbounds %"class.std::__1::basic_streambuf", %"class.std::__1::basic_streambuf"* %26, i32 0, i32 3, !dbg !4175
  store i8* %29, i8** %30, align 8, !dbg !4176
  %31 = load i8*, i8** %19, align 8, !dbg !4177
  %32 = getelementptr inbounds %"class.std::__1::basic_streambuf", %"class.std::__1::basic_streambuf"* %26, i32 0, i32 4, !dbg !4178
  store i8* %31, i8** %32, align 8, !dbg !4179
  %33 = bitcast %"class.std::__1::basic_filebuf"* %24 to %"class.std::__1::basic_streambuf"*, !dbg !4180
  store %"class.std::__1::basic_streambuf"* %33, %"class.std::__1::basic_streambuf"** %4, align 8
  store i8* null, i8** %5, align 8
  store i8* null, i8** %6, align 8
  %34 = load %"class.std::__1::basic_streambuf"*, %"class.std::__1::basic_streambuf"** %4, align 8
  %35 = load i8*, i8** %5, align 8, !dbg !4181
  %36 = getelementptr inbounds %"class.std::__1::basic_streambuf", %"class.std::__1::basic_streambuf"* %34, i32 0, i32 6, !dbg !4182
  store i8* %35, i8** %36, align 8, !dbg !4183
  %37 = getelementptr inbounds %"class.std::__1::basic_streambuf", %"class.std::__1::basic_streambuf"* %34, i32 0, i32 5, !dbg !4184
  store i8* %35, i8** %37, align 8, !dbg !4185
  %38 = load i8*, i8** %6, align 8, !dbg !4186
  %39 = getelementptr inbounds %"class.std::__1::basic_streambuf", %"class.std::__1::basic_streambuf"* %34, i32 0, i32 7, !dbg !4187
  store i8* %38, i8** %39, align 8, !dbg !4188
  %40 = getelementptr inbounds %"class.std::__1::basic_filebuf", %"class.std::__1::basic_filebuf"* %24, i32 0, i32 14, !dbg !4189
  %41 = load i8, i8* %40, align 8, !dbg !4189
  %42 = trunc i8 %41 to i1, !dbg !4189
  br i1 %42, label %43, label %49, !dbg !4191

; <label>:43:                                     ; preds = %3
  %44 = getelementptr inbounds %"class.std::__1::basic_filebuf", %"class.std::__1::basic_filebuf"* %24, i32 0, i32 1, !dbg !4192
  %45 = load i8*, i8** %44, align 8, !dbg !4192
  %46 = icmp eq i8* %45, null, !dbg !4193
  br i1 %46, label %48, label %47, !dbg !4193

; <label>:47:                                     ; preds = %43
  call void @_ZdaPv(i8* %45) #9, !dbg !4193
  br label %48, !dbg !4193

; <label>:48:                                     ; preds = %47, %43
  br label %49, !dbg !4193

; <label>:49:                                     ; preds = %48, %3
  %50 = getelementptr inbounds %"class.std::__1::basic_filebuf", %"class.std::__1::basic_filebuf"* %24, i32 0, i32 15, !dbg !4194
  %51 = load i8, i8* %50, align 1, !dbg !4194
  %52 = trunc i8 %51 to i1, !dbg !4194
  br i1 %52, label %53, label %59, !dbg !4196

; <label>:53:                                     ; preds = %49
  %54 = getelementptr inbounds %"class.std::__1::basic_filebuf", %"class.std::__1::basic_filebuf"* %24, i32 0, i32 6, !dbg !4197
  %55 = load i8*, i8** %54, align 8, !dbg !4197
  %56 = icmp eq i8* %55, null, !dbg !4198
  br i1 %56, label %58, label %57, !dbg !4198

; <label>:57:                                     ; preds = %53
  call void @_ZdaPv(i8* %55) #9, !dbg !4198
  br label %58, !dbg !4198

; <label>:58:                                     ; preds = %57, %53
  br label %59, !dbg !4198

; <label>:59:                                     ; preds = %58, %49
  %60 = load i64, i64* %22, align 8, !dbg !4199
  %61 = getelementptr inbounds %"class.std::__1::basic_filebuf", %"class.std::__1::basic_filebuf"* %24, i32 0, i32 5, !dbg !4200
  store i64 %60, i64* %61, align 8, !dbg !4201
  %62 = getelementptr inbounds %"class.std::__1::basic_filebuf", %"class.std::__1::basic_filebuf"* %24, i32 0, i32 5, !dbg !4202
  %63 = load i64, i64* %62, align 8, !dbg !4202
  %64 = icmp ugt i64 %63, 8, !dbg !4204
  br i1 %64, label %65, label %83, !dbg !4205

; <label>:65:                                     ; preds = %59
  %66 = getelementptr inbounds %"class.std::__1::basic_filebuf", %"class.std::__1::basic_filebuf"* %24, i32 0, i32 16, !dbg !4206
  %67 = load i8, i8* %66, align 2, !dbg !4206
  %68 = trunc i8 %67 to i1, !dbg !4206
  br i1 %68, label %69, label %76, !dbg !4209

; <label>:69:                                     ; preds = %65
  %70 = load i8*, i8** %21, align 8, !dbg !4210
  %71 = icmp ne i8* %70, null, !dbg !4210
  br i1 %71, label %72, label %76, !dbg !4211

; <label>:72:                                     ; preds = %69
  %73 = load i8*, i8** %21, align 8, !dbg !4212
  %74 = getelementptr inbounds %"class.std::__1::basic_filebuf", %"class.std::__1::basic_filebuf"* %24, i32 0, i32 1, !dbg !4214
  store i8* %73, i8** %74, align 8, !dbg !4215
  %75 = getelementptr inbounds %"class.std::__1::basic_filebuf", %"class.std::__1::basic_filebuf"* %24, i32 0, i32 14, !dbg !4216
  store i8 0, i8* %75, align 8, !dbg !4217
  br label %82, !dbg !4218

; <label>:76:                                     ; preds = %69, %65
  %77 = getelementptr inbounds %"class.std::__1::basic_filebuf", %"class.std::__1::basic_filebuf"* %24, i32 0, i32 5, !dbg !4219
  %78 = load i64, i64* %77, align 8, !dbg !4219
  %79 = call i8* @_Znam(i64 %78) #10, !dbg !4221
  %80 = getelementptr inbounds %"class.std::__1::basic_filebuf", %"class.std::__1::basic_filebuf"* %24, i32 0, i32 1, !dbg !4222
  store i8* %79, i8** %80, align 8, !dbg !4223
  %81 = getelementptr inbounds %"class.std::__1::basic_filebuf", %"class.std::__1::basic_filebuf"* %24, i32 0, i32 14, !dbg !4224
  store i8 1, i8* %81, align 8, !dbg !4225
  br label %82

; <label>:82:                                     ; preds = %76, %72
  br label %89, !dbg !4226

; <label>:83:                                     ; preds = %59
  %84 = getelementptr inbounds %"class.std::__1::basic_filebuf", %"class.std::__1::basic_filebuf"* %24, i32 0, i32 4, !dbg !4227
  %85 = getelementptr inbounds [8 x i8], [8 x i8]* %84, i32 0, i32 0, !dbg !4227
  %86 = getelementptr inbounds %"class.std::__1::basic_filebuf", %"class.std::__1::basic_filebuf"* %24, i32 0, i32 1, !dbg !4229
  store i8* %85, i8** %86, align 8, !dbg !4230
  %87 = getelementptr inbounds %"class.std::__1::basic_filebuf", %"class.std::__1::basic_filebuf"* %24, i32 0, i32 5, !dbg !4231
  store i64 8, i64* %87, align 8, !dbg !4232
  %88 = getelementptr inbounds %"class.std::__1::basic_filebuf", %"class.std::__1::basic_filebuf"* %24, i32 0, i32 14, !dbg !4233
  store i8 0, i8* %88, align 8, !dbg !4234
  br label %89

; <label>:89:                                     ; preds = %83, %82
  %90 = getelementptr inbounds %"class.std::__1::basic_filebuf", %"class.std::__1::basic_filebuf"* %24, i32 0, i32 16, !dbg !4235
  %91 = load i8, i8* %90, align 2, !dbg !4235
  %92 = trunc i8 %91 to i1, !dbg !4235
  br i1 %92, label %129, label %93, !dbg !4236

; <label>:93:                                     ; preds = %89
  store i64 8, i64* %23, align 8, !dbg !4237
  store i64* %22, i64** %13, align 8
  store i64* %23, i64** %14, align 8
  %94 = load i64*, i64** %13, align 8, !dbg !4238
  %95 = load i64*, i64** %14, align 8, !dbg !4239
  store i64* %94, i64** %11, align 8
  store i64* %95, i64** %12, align 8
  %96 = load i64*, i64** %11, align 8, !dbg !4240
  %97 = load i64*, i64** %12, align 8, !dbg !4241
  store %"struct.std::__1::__less"* %10, %"struct.std::__1::__less"** %7, align 8
  store i64* %96, i64** %8, align 8
  store i64* %97, i64** %9, align 8
  %98 = load %"struct.std::__1::__less"*, %"struct.std::__1::__less"** %7, align 8
  %99 = load i64*, i64** %8, align 8, !dbg !4242
  %100 = load i64, i64* %99, align 8, !dbg !4242
  %101 = load i64*, i64** %9, align 8, !dbg !4243
  %102 = load i64, i64* %101, align 8, !dbg !4243
  %103 = icmp slt i64 %100, %102, !dbg !4244
  br i1 %103, label %104, label %106, !dbg !4245

; <label>:104:                                    ; preds = %93
  %105 = load i64*, i64** %12, align 8, !dbg !4246
  br label %108, !dbg !4245

; <label>:106:                                    ; preds = %93
  %107 = load i64*, i64** %11, align 8, !dbg !4247
  br label %108, !dbg !4245

; <label>:108:                                    ; preds = %104, %106
  %109 = phi i64* [ %105, %104 ], [ %107, %106 ], !dbg !4245
  %110 = load i64, i64* %109, align 8, !dbg !4248
  %111 = getelementptr inbounds %"class.std::__1::basic_filebuf", %"class.std::__1::basic_filebuf"* %24, i32 0, i32 7, !dbg !4249
  store i64 %110, i64* %111, align 8, !dbg !4250
  %112 = load i8*, i8** %21, align 8, !dbg !4251
  %113 = icmp ne i8* %112, null, !dbg !4251
  br i1 %113, label %114, label %122, !dbg !4253

; <label>:114:                                    ; preds = %108
  %115 = getelementptr inbounds %"class.std::__1::basic_filebuf", %"class.std::__1::basic_filebuf"* %24, i32 0, i32 7, !dbg !4254
  %116 = load i64, i64* %115, align 8, !dbg !4254
  %117 = icmp uge i64 %116, 8, !dbg !4255
  br i1 %117, label %118, label %122, !dbg !4256

; <label>:118:                                    ; preds = %114
  %119 = load i8*, i8** %21, align 8, !dbg !4257
  %120 = getelementptr inbounds %"class.std::__1::basic_filebuf", %"class.std::__1::basic_filebuf"* %24, i32 0, i32 6, !dbg !4259
  store i8* %119, i8** %120, align 8, !dbg !4260
  %121 = getelementptr inbounds %"class.std::__1::basic_filebuf", %"class.std::__1::basic_filebuf"* %24, i32 0, i32 15, !dbg !4261
  store i8 0, i8* %121, align 1, !dbg !4262
  br label %128, !dbg !4263

; <label>:122:                                    ; preds = %114, %108
  %123 = getelementptr inbounds %"class.std::__1::basic_filebuf", %"class.std::__1::basic_filebuf"* %24, i32 0, i32 7, !dbg !4264
  %124 = load i64, i64* %123, align 8, !dbg !4264
  %125 = call i8* @_Znam(i64 %124) #10, !dbg !4266
  %126 = getelementptr inbounds %"class.std::__1::basic_filebuf", %"class.std::__1::basic_filebuf"* %24, i32 0, i32 6, !dbg !4267
  store i8* %125, i8** %126, align 8, !dbg !4268
  %127 = getelementptr inbounds %"class.std::__1::basic_filebuf", %"class.std::__1::basic_filebuf"* %24, i32 0, i32 15, !dbg !4269
  store i8 1, i8* %127, align 1, !dbg !4270
  br label %128

; <label>:128:                                    ; preds = %122, %118
  br label %133, !dbg !4271

; <label>:129:                                    ; preds = %89
  %130 = getelementptr inbounds %"class.std::__1::basic_filebuf", %"class.std::__1::basic_filebuf"* %24, i32 0, i32 7, !dbg !4272
  store i64 0, i64* %130, align 8, !dbg !4274
  %131 = getelementptr inbounds %"class.std::__1::basic_filebuf", %"class.std::__1::basic_filebuf"* %24, i32 0, i32 6, !dbg !4275
  store i8* null, i8** %131, align 8, !dbg !4276
  %132 = getelementptr inbounds %"class.std::__1::basic_filebuf", %"class.std::__1::basic_filebuf"* %24, i32 0, i32 15, !dbg !4277
  store i8 0, i8* %132, align 1, !dbg !4278
  br label %133

; <label>:133:                                    ; preds = %129, %128
  %134 = bitcast %"class.std::__1::basic_filebuf"* %24 to %"class.std::__1::basic_streambuf"*, !dbg !4279
  ret %"class.std::__1::basic_streambuf"* %134, !dbg !4280
}

; Function Attrs: noinline nounwind optnone ssp uwtable
define linkonce_odr void @_ZNSt3__113basic_filebufIcNS_11char_traitsIcEEE7seekoffExNS_8ios_base7seekdirEj(%"class.std::__1::fpos"* noalias sret, %"class.std::__1::basic_filebuf"*, i64, i32, i32) unnamed_addr #0 align 2 !dbg !4281 {
  %6 = alloca %"class.std::__1::fpos"*, align 8
  call void @llvm.dbg.declare(metadata %"class.std::__1::fpos"** %6, metadata !4282, metadata !DIExpression()), !dbg !4285
  %7 = alloca i64, align 8
  call void @llvm.dbg.declare(metadata i64* %7, metadata !4290, metadata !DIExpression()), !dbg !4291
  %8 = alloca %"class.std::__1::fpos"*, align 8
  call void @llvm.dbg.declare(metadata %"class.std::__1::fpos"** %8, metadata !4292, metadata !DIExpression()), !dbg !4293
  %9 = alloca i64, align 8
  call void @llvm.dbg.declare(metadata i64* %9, metadata !4294, metadata !DIExpression()), !dbg !4295
  %10 = alloca %"class.std::__1::fpos"*, align 8
  call void @llvm.dbg.declare(metadata %"class.std::__1::fpos"** %10, metadata !4282, metadata !DIExpression()), !dbg !4296
  %11 = alloca i64, align 8
  call void @llvm.dbg.declare(metadata i64* %11, metadata !4290, metadata !DIExpression()), !dbg !4300
  %12 = alloca %"class.std::__1::fpos"*, align 8
  call void @llvm.dbg.declare(metadata %"class.std::__1::fpos"** %12, metadata !4292, metadata !DIExpression()), !dbg !4301
  %13 = alloca i64, align 8
  call void @llvm.dbg.declare(metadata i64* %13, metadata !4294, metadata !DIExpression()), !dbg !4302
  %14 = alloca %"class.std::__1::fpos"*, align 8
  call void @llvm.dbg.declare(metadata %"class.std::__1::fpos"** %14, metadata !4282, metadata !DIExpression()), !dbg !4303
  %15 = alloca i64, align 8
  call void @llvm.dbg.declare(metadata i64* %15, metadata !4290, metadata !DIExpression()), !dbg !4306
  %16 = alloca %"class.std::__1::fpos"*, align 8
  call void @llvm.dbg.declare(metadata %"class.std::__1::fpos"** %16, metadata !4292, metadata !DIExpression()), !dbg !4307
  %17 = alloca i64, align 8
  call void @llvm.dbg.declare(metadata i64* %17, metadata !4294, metadata !DIExpression()), !dbg !4308
  %18 = alloca %"class.std::__1::fpos"*, align 8
  call void @llvm.dbg.declare(metadata %"class.std::__1::fpos"** %18, metadata !4309, metadata !DIExpression()), !dbg !4311
  %19 = alloca %union.__mbstate_t, align 8
  call void @llvm.dbg.declare(metadata %union.__mbstate_t* %19, metadata !4313, metadata !DIExpression()), !dbg !4314
  %20 = alloca %"class.std::__1::fpos"*, align 8
  call void @llvm.dbg.declare(metadata %"class.std::__1::fpos"** %20, metadata !4282, metadata !DIExpression()), !dbg !4315
  %21 = alloca i64, align 8
  call void @llvm.dbg.declare(metadata i64* %21, metadata !4290, metadata !DIExpression()), !dbg !4319
  %22 = alloca %"class.std::__1::fpos"*, align 8
  call void @llvm.dbg.declare(metadata %"class.std::__1::fpos"** %22, metadata !4292, metadata !DIExpression()), !dbg !4320
  %23 = alloca i64, align 8
  call void @llvm.dbg.declare(metadata i64* %23, metadata !4294, metadata !DIExpression()), !dbg !4321
  %24 = alloca %"class.std::__1::codecvt"*, align 8
  call void @llvm.dbg.declare(metadata %"class.std::__1::codecvt"** %24, metadata !4322, metadata !DIExpression()), !dbg !4324
  %25 = alloca %"class.std::__1::basic_filebuf"*, align 8
  %26 = alloca i64, align 8
  %27 = alloca i32, align 4
  %28 = alloca i32, align 4
  %29 = alloca i32, align 4
  %30 = alloca i32, align 4
  %31 = alloca %"class.std::__1::fpos", align 8
  %32 = alloca %union.__mbstate_t, align 8
  store %"class.std::__1::basic_filebuf"* %1, %"class.std::__1::basic_filebuf"** %25, align 8
  call void @llvm.dbg.declare(metadata %"class.std::__1::basic_filebuf"** %25, metadata !4326, metadata !DIExpression()), !dbg !4327
  store i64 %2, i64* %26, align 8
  call void @llvm.dbg.declare(metadata i64* %26, metadata !4328, metadata !DIExpression()), !dbg !4329
  store i32 %3, i32* %27, align 4
  call void @llvm.dbg.declare(metadata i32* %27, metadata !4330, metadata !DIExpression()), !dbg !4331
  store i32 %4, i32* %28, align 4
  call void @llvm.dbg.declare(metadata i32* %28, metadata !4332, metadata !DIExpression()), !dbg !4333
  %33 = load %"class.std::__1::basic_filebuf"*, %"class.std::__1::basic_filebuf"** %25, align 8
  %34 = getelementptr inbounds %"class.std::__1::basic_filebuf", %"class.std::__1::basic_filebuf"* %33, i32 0, i32 9, !dbg !4334
  %35 = load %"class.std::__1::codecvt"*, %"class.std::__1::codecvt"** %34, align 8, !dbg !4334
  %36 = icmp ne %"class.std::__1::codecvt"* %35, null, !dbg !4334
  br i1 %36, label %39, label %37, !dbg !4336

; <label>:37:                                     ; preds = %5
  call void @abort() #11, !dbg !4337
  unreachable, !dbg !4337
                                                  ; No predecessors!
  unreachable, !dbg !4341

; <label>:39:                                     ; preds = %5
  call void @llvm.dbg.declare(metadata i32* %29, metadata !4342, metadata !DIExpression()), !dbg !4343
  %40 = getelementptr inbounds %"class.std::__1::basic_filebuf", %"class.std::__1::basic_filebuf"* %33, i32 0, i32 9, !dbg !4344
  %41 = load %"class.std::__1::codecvt"*, %"class.std::__1::codecvt"** %40, align 8, !dbg !4344
  store %"class.std::__1::codecvt"* %41, %"class.std::__1::codecvt"** %24, align 8
  %42 = load %"class.std::__1::codecvt"*, %"class.std::__1::codecvt"** %24, align 8
  %43 = bitcast %"class.std::__1::codecvt"* %42 to i32 (%"class.std::__1::codecvt"*)***, !dbg !4345
  %44 = load i32 (%"class.std::__1::codecvt"*)**, i32 (%"class.std::__1::codecvt"*)*** %43, align 8, !dbg !4345
  %45 = getelementptr inbounds i32 (%"class.std::__1::codecvt"*)*, i32 (%"class.std::__1::codecvt"*)** %44, i64 6, !dbg !4345
  %46 = load i32 (%"class.std::__1::codecvt"*)*, i32 (%"class.std::__1::codecvt"*)** %45, align 8, !dbg !4345
  %47 = call i32 %46(%"class.std::__1::codecvt"* %42) #8, !dbg !4345
  store i32 %47, i32* %29, align 4, !dbg !4343
  %48 = getelementptr inbounds %"class.std::__1::basic_filebuf", %"class.std::__1::basic_filebuf"* %33, i32 0, i32 8, !dbg !4346
  %49 = load %struct.__sFILE*, %struct.__sFILE** %48, align 8, !dbg !4346
  %50 = icmp eq %struct.__sFILE* %49, null, !dbg !4347
  br i1 %50, label %64, label %51, !dbg !4348

; <label>:51:                                     ; preds = %39
  %52 = load i32, i32* %29, align 4, !dbg !4349
  %53 = icmp sle i32 %52, 0, !dbg !4350
  br i1 %53, label %54, label %57, !dbg !4351

; <label>:54:                                     ; preds = %51
  %55 = load i64, i64* %26, align 8, !dbg !4352
  %56 = icmp ne i64 %55, 0, !dbg !4353
  br i1 %56, label %64, label %57, !dbg !4354

; <label>:57:                                     ; preds = %54, %51
  %58 = bitcast %"class.std::__1::basic_filebuf"* %33 to i32 (%"class.std::__1::basic_filebuf"*)***, !dbg !4355
  %59 = load i32 (%"class.std::__1::basic_filebuf"*)**, i32 (%"class.std::__1::basic_filebuf"*)*** %58, align 8, !dbg !4355
  %60 = getelementptr inbounds i32 (%"class.std::__1::basic_filebuf"*)*, i32 (%"class.std::__1::basic_filebuf"*)** %59, i64 6, !dbg !4355
  %61 = load i32 (%"class.std::__1::basic_filebuf"*)*, i32 (%"class.std::__1::basic_filebuf"*)** %60, align 8, !dbg !4355
  %62 = call i32 %61(%"class.std::__1::basic_filebuf"* %33), !dbg !4355
  %63 = icmp ne i32 %62, 0, !dbg !4355
  br i1 %63, label %64, label %72, !dbg !4356

; <label>:64:                                     ; preds = %57, %54, %39
  store %"class.std::__1::fpos"* %0, %"class.std::__1::fpos"** %22, align 8
  store i64 -1, i64* %23, align 8
  %65 = load %"class.std::__1::fpos"*, %"class.std::__1::fpos"** %22, align 8
  %66 = load i64, i64* %23, align 8, !dbg !4357
  store %"class.std::__1::fpos"* %65, %"class.std::__1::fpos"** %20, align 8
  store i64 %66, i64* %21, align 8
  %67 = load %"class.std::__1::fpos"*, %"class.std::__1::fpos"** %20, align 8
  %68 = getelementptr inbounds %"class.std::__1::fpos", %"class.std::__1::fpos"* %67, i32 0, i32 0, !dbg !4358
  %69 = bitcast %union.__mbstate_t* %68 to i8*, !dbg !4358
  call void @llvm.memset.p0i8.i64(i8* align 8 %69, i8 0, i64 128, i1 false), !dbg !4358
  %70 = getelementptr inbounds %"class.std::__1::fpos", %"class.std::__1::fpos"* %67, i32 0, i32 1, !dbg !4359
  %71 = load i64, i64* %21, align 8, !dbg !4360
  store i64 %71, i64* %70, align 8, !dbg !4359
  br label %131, !dbg !4361

; <label>:72:                                     ; preds = %57
  call void @llvm.dbg.declare(metadata i32* %30, metadata !4362, metadata !DIExpression()), !dbg !4363
  %73 = load i32, i32* %27, align 4, !dbg !4364
  switch i32 %73, label %77 [
    i32 0, label %74
    i32 1, label %75
    i32 2, label %76
  ], !dbg !4365

; <label>:74:                                     ; preds = %72
  store i32 0, i32* %30, align 4, !dbg !4366
  br label %85, !dbg !4367

; <label>:75:                                     ; preds = %72
  store i32 1, i32* %30, align 4, !dbg !4368
  br label %85, !dbg !4369

; <label>:76:                                     ; preds = %72
  store i32 2, i32* %30, align 4, !dbg !4370
  br label %85, !dbg !4371

; <label>:77:                                     ; preds = %72
  store %"class.std::__1::fpos"* %0, %"class.std::__1::fpos"** %8, align 8
  store i64 -1, i64* %9, align 8
  %78 = load %"class.std::__1::fpos"*, %"class.std::__1::fpos"** %8, align 8
  %79 = load i64, i64* %9, align 8, !dbg !4372
  store %"class.std::__1::fpos"* %78, %"class.std::__1::fpos"** %6, align 8
  store i64 %79, i64* %7, align 8
  %80 = load %"class.std::__1::fpos"*, %"class.std::__1::fpos"** %6, align 8
  %81 = getelementptr inbounds %"class.std::__1::fpos", %"class.std::__1::fpos"* %80, i32 0, i32 0, !dbg !4373
  %82 = bitcast %union.__mbstate_t* %81 to i8*, !dbg !4373
  call void @llvm.memset.p0i8.i64(i8* align 8 %82, i8 0, i64 128, i1 false), !dbg !4373
  %83 = getelementptr inbounds %"class.std::__1::fpos", %"class.std::__1::fpos"* %80, i32 0, i32 1, !dbg !4374
  %84 = load i64, i64* %7, align 8, !dbg !4375
  store i64 %84, i64* %83, align 8, !dbg !4374
  br label %131, !dbg !4376

; <label>:85:                                     ; preds = %76, %75, %74
  %86 = getelementptr inbounds %"class.std::__1::basic_filebuf", %"class.std::__1::basic_filebuf"* %33, i32 0, i32 8, !dbg !4377
  %87 = load %struct.__sFILE*, %struct.__sFILE** %86, align 8, !dbg !4377
  %88 = load i32, i32* %29, align 4, !dbg !4378
  %89 = icmp sgt i32 %88, 0, !dbg !4379
  br i1 %89, label %90, label %95, !dbg !4378

; <label>:90:                                     ; preds = %85
  %91 = load i32, i32* %29, align 4, !dbg !4380
  %92 = sext i32 %91 to i64, !dbg !4380
  %93 = load i64, i64* %26, align 8, !dbg !4381
  %94 = mul nsw i64 %92, %93, !dbg !4382
  br label %96, !dbg !4378

; <label>:95:                                     ; preds = %85
  br label %96, !dbg !4378

; <label>:96:                                     ; preds = %95, %90
  %97 = phi i64 [ %94, %90 ], [ 0, %95 ], !dbg !4378
  %98 = load i32, i32* %30, align 4, !dbg !4383
  %99 = call i32 @fseeko(%struct.__sFILE* %87, i64 %97, i32 %98), !dbg !4384
  %100 = icmp ne i32 %99, 0, !dbg !4384
  br i1 %100, label %101, label %109, !dbg !4385

; <label>:101:                                    ; preds = %96
  store %"class.std::__1::fpos"* %0, %"class.std::__1::fpos"** %12, align 8
  store i64 -1, i64* %13, align 8
  %102 = load %"class.std::__1::fpos"*, %"class.std::__1::fpos"** %12, align 8
  %103 = load i64, i64* %13, align 8, !dbg !4386
  store %"class.std::__1::fpos"* %102, %"class.std::__1::fpos"** %10, align 8
  store i64 %103, i64* %11, align 8
  %104 = load %"class.std::__1::fpos"*, %"class.std::__1::fpos"** %10, align 8
  %105 = getelementptr inbounds %"class.std::__1::fpos", %"class.std::__1::fpos"* %104, i32 0, i32 0, !dbg !4387
  %106 = bitcast %union.__mbstate_t* %105 to i8*, !dbg !4387
  call void @llvm.memset.p0i8.i64(i8* align 8 %106, i8 0, i64 128, i1 false), !dbg !4387
  %107 = getelementptr inbounds %"class.std::__1::fpos", %"class.std::__1::fpos"* %104, i32 0, i32 1, !dbg !4388
  %108 = load i64, i64* %11, align 8, !dbg !4389
  store i64 %108, i64* %107, align 8, !dbg !4388
  br label %131, !dbg !4390

; <label>:109:                                    ; preds = %96
  call void @llvm.dbg.declare(metadata %"class.std::__1::fpos"* %31, metadata !4391, metadata !DIExpression()), !dbg !4392
  %110 = getelementptr inbounds %"class.std::__1::basic_filebuf", %"class.std::__1::basic_filebuf"* %33, i32 0, i32 8, !dbg !4393
  %111 = load %struct.__sFILE*, %struct.__sFILE** %110, align 8, !dbg !4393
  %112 = call i64 @ftello(%struct.__sFILE* %111), !dbg !4394
  store %"class.std::__1::fpos"* %31, %"class.std::__1::fpos"** %16, align 8
  store i64 %112, i64* %17, align 8
  %113 = load %"class.std::__1::fpos"*, %"class.std::__1::fpos"** %16, align 8
  %114 = load i64, i64* %17, align 8, !dbg !4395
  store %"class.std::__1::fpos"* %113, %"class.std::__1::fpos"** %14, align 8
  store i64 %114, i64* %15, align 8
  %115 = load %"class.std::__1::fpos"*, %"class.std::__1::fpos"** %14, align 8
  %116 = getelementptr inbounds %"class.std::__1::fpos", %"class.std::__1::fpos"* %115, i32 0, i32 0, !dbg !4396
  %117 = bitcast %union.__mbstate_t* %116 to i8*, !dbg !4396
  call void @llvm.memset.p0i8.i64(i8* align 8 %117, i8 0, i64 128, i1 false), !dbg !4396
  %118 = getelementptr inbounds %"class.std::__1::fpos", %"class.std::__1::fpos"* %115, i32 0, i32 1, !dbg !4397
  %119 = load i64, i64* %15, align 8, !dbg !4398
  store i64 %119, i64* %118, align 8, !dbg !4397
  %120 = getelementptr inbounds %"class.std::__1::basic_filebuf", %"class.std::__1::basic_filebuf"* %33, i32 0, i32 10, !dbg !4399
  %121 = bitcast %union.__mbstate_t* %32 to i8*, !dbg !4399
  %122 = bitcast %union.__mbstate_t* %120 to i8*, !dbg !4399
  call void @llvm.memcpy.p0i8.p0i8.i64(i8* align 8 %121, i8* align 8 %122, i64 128, i1 false), !dbg !4399
  %123 = bitcast %union.__mbstate_t* %19 to i8*
  %124 = bitcast %union.__mbstate_t* %32 to i8*
  call void @llvm.memcpy.p0i8.p0i8.i64(i8* align 1 %123, i8* align 1 %124, i64 128, i1 false)
  store %"class.std::__1::fpos"* %31, %"class.std::__1::fpos"** %18, align 8
  %125 = load %"class.std::__1::fpos"*, %"class.std::__1::fpos"** %18, align 8
  %126 = getelementptr inbounds %"class.std::__1::fpos", %"class.std::__1::fpos"* %125, i32 0, i32 0, !dbg !4400
  %127 = bitcast %union.__mbstate_t* %126 to i8*, !dbg !4401
  %128 = bitcast %union.__mbstate_t* %19 to i8*, !dbg !4401
  call void @llvm.memcpy.p0i8.p0i8.i64(i8* align 8 %127, i8* align 8 %128, i64 128, i1 false), !dbg !4401
  %129 = bitcast %"class.std::__1::fpos"* %0 to i8*, !dbg !4402
  %130 = bitcast %"class.std::__1::fpos"* %31 to i8*, !dbg !4402
  call void @llvm.memcpy.p0i8.p0i8.i64(i8* align 8 %129, i8* align 8 %130, i64 136, i1 false), !dbg !4402
  br label %131, !dbg !4403

; <label>:131:                                    ; preds = %109, %101, %77, %64
  ret void, !dbg !4404
}

; Function Attrs: noinline nounwind optnone ssp uwtable
define linkonce_odr void @_ZNSt3__113basic_filebufIcNS_11char_traitsIcEEE7seekposENS_4fposI11__mbstate_tEEj(%"class.std::__1::fpos"* noalias sret, %"class.std::__1::basic_filebuf"*, %"class.std::__1::fpos"* byval align 8, i32) unnamed_addr #0 align 2 !dbg !4405 {
  %5 = alloca %"class.std::__1::fpos"*, align 8
  call void @llvm.dbg.declare(metadata %"class.std::__1::fpos"** %5, metadata !3253, metadata !DIExpression()), !dbg !4406
  %6 = alloca %"class.std::__1::fpos"*, align 8
  call void @llvm.dbg.declare(metadata %"class.std::__1::fpos"** %6, metadata !4282, metadata !DIExpression()), !dbg !4409
  %7 = alloca i64, align 8
  call void @llvm.dbg.declare(metadata i64* %7, metadata !4290, metadata !DIExpression()), !dbg !4412
  %8 = alloca %"class.std::__1::fpos"*, align 8
  call void @llvm.dbg.declare(metadata %"class.std::__1::fpos"** %8, metadata !4292, metadata !DIExpression()), !dbg !4413
  %9 = alloca i64, align 8
  call void @llvm.dbg.declare(metadata i64* %9, metadata !4294, metadata !DIExpression()), !dbg !4414
  %10 = alloca %"class.std::__1::fpos"*, align 8
  call void @llvm.dbg.declare(metadata %"class.std::__1::fpos"** %10, metadata !4415, metadata !DIExpression()), !dbg !4417
  %11 = alloca %"class.std::__1::fpos"*, align 8
  call void @llvm.dbg.declare(metadata %"class.std::__1::fpos"** %11, metadata !4282, metadata !DIExpression()), !dbg !4419
  %12 = alloca i64, align 8
  call void @llvm.dbg.declare(metadata i64* %12, metadata !4290, metadata !DIExpression()), !dbg !4423
  %13 = alloca %"class.std::__1::fpos"*, align 8
  call void @llvm.dbg.declare(metadata %"class.std::__1::fpos"** %13, metadata !4292, metadata !DIExpression()), !dbg !4424
  %14 = alloca i64, align 8
  call void @llvm.dbg.declare(metadata i64* %14, metadata !4294, metadata !DIExpression()), !dbg !4425
  %15 = alloca %"class.std::__1::basic_filebuf"*, align 8
  %16 = alloca i32, align 4
  %17 = alloca %union.__mbstate_t, align 8
  store %"class.std::__1::basic_filebuf"* %1, %"class.std::__1::basic_filebuf"** %15, align 8
  call void @llvm.dbg.declare(metadata %"class.std::__1::basic_filebuf"** %15, metadata !4426, metadata !DIExpression()), !dbg !4427
  call void @llvm.dbg.declare(metadata %"class.std::__1::fpos"* %2, metadata !4428, metadata !DIExpression()), !dbg !4429
  store i32 %3, i32* %16, align 4
  call void @llvm.dbg.declare(metadata i32* %16, metadata !4430, metadata !DIExpression()), !dbg !4431
  %18 = load %"class.std::__1::basic_filebuf"*, %"class.std::__1::basic_filebuf"** %15, align 8
  %19 = getelementptr inbounds %"class.std::__1::basic_filebuf", %"class.std::__1::basic_filebuf"* %18, i32 0, i32 8, !dbg !4432
  %20 = load %struct.__sFILE*, %struct.__sFILE** %19, align 8, !dbg !4432
  %21 = icmp eq %struct.__sFILE* %20, null, !dbg !4433
  br i1 %21, label %29, label %22, !dbg !4434

; <label>:22:                                     ; preds = %4
  %23 = bitcast %"class.std::__1::basic_filebuf"* %18 to i32 (%"class.std::__1::basic_filebuf"*)***, !dbg !4435
  %24 = load i32 (%"class.std::__1::basic_filebuf"*)**, i32 (%"class.std::__1::basic_filebuf"*)*** %23, align 8, !dbg !4435
  %25 = getelementptr inbounds i32 (%"class.std::__1::basic_filebuf"*)*, i32 (%"class.std::__1::basic_filebuf"*)** %24, i64 6, !dbg !4435
  %26 = load i32 (%"class.std::__1::basic_filebuf"*)*, i32 (%"class.std::__1::basic_filebuf"*)** %25, align 8, !dbg !4435
  %27 = call i32 %26(%"class.std::__1::basic_filebuf"* %18), !dbg !4435
  %28 = icmp ne i32 %27, 0, !dbg !4435
  br i1 %28, label %29, label %37, !dbg !4436

; <label>:29:                                     ; preds = %22, %4
  store %"class.std::__1::fpos"* %0, %"class.std::__1::fpos"** %13, align 8
  store i64 -1, i64* %14, align 8
  %30 = load %"class.std::__1::fpos"*, %"class.std::__1::fpos"** %13, align 8
  %31 = load i64, i64* %14, align 8, !dbg !4437
  store %"class.std::__1::fpos"* %30, %"class.std::__1::fpos"** %11, align 8
  store i64 %31, i64* %12, align 8
  %32 = load %"class.std::__1::fpos"*, %"class.std::__1::fpos"** %11, align 8
  %33 = getelementptr inbounds %"class.std::__1::fpos", %"class.std::__1::fpos"* %32, i32 0, i32 0, !dbg !4438
  %34 = bitcast %union.__mbstate_t* %33 to i8*, !dbg !4438
  call void @llvm.memset.p0i8.i64(i8* align 8 %34, i8 0, i64 128, i1 false), !dbg !4438
  %35 = getelementptr inbounds %"class.std::__1::fpos", %"class.std::__1::fpos"* %32, i32 0, i32 1, !dbg !4439
  %36 = load i64, i64* %12, align 8, !dbg !4440
  store i64 %36, i64* %35, align 8, !dbg !4439
  br label %63, !dbg !4441

; <label>:37:                                     ; preds = %22
  %38 = getelementptr inbounds %"class.std::__1::basic_filebuf", %"class.std::__1::basic_filebuf"* %18, i32 0, i32 8, !dbg !4442
  %39 = load %struct.__sFILE*, %struct.__sFILE** %38, align 8, !dbg !4442
  store %"class.std::__1::fpos"* %2, %"class.std::__1::fpos"** %5, align 8
  %40 = load %"class.std::__1::fpos"*, %"class.std::__1::fpos"** %5, align 8
  %41 = getelementptr inbounds %"class.std::__1::fpos", %"class.std::__1::fpos"* %40, i32 0, i32 1, !dbg !4443
  %42 = load i64, i64* %41, align 8, !dbg !4443
  %43 = call i32 @fseeko(%struct.__sFILE* %39, i64 %42, i32 0), !dbg !4444
  %44 = icmp ne i32 %43, 0, !dbg !4444
  br i1 %44, label %45, label %53, !dbg !4445

; <label>:45:                                     ; preds = %37
  store %"class.std::__1::fpos"* %0, %"class.std::__1::fpos"** %8, align 8
  store i64 -1, i64* %9, align 8
  %46 = load %"class.std::__1::fpos"*, %"class.std::__1::fpos"** %8, align 8
  %47 = load i64, i64* %9, align 8, !dbg !4446
  store %"class.std::__1::fpos"* %46, %"class.std::__1::fpos"** %6, align 8
  store i64 %47, i64* %7, align 8
  %48 = load %"class.std::__1::fpos"*, %"class.std::__1::fpos"** %6, align 8
  %49 = getelementptr inbounds %"class.std::__1::fpos", %"class.std::__1::fpos"* %48, i32 0, i32 0, !dbg !4447
  %50 = bitcast %union.__mbstate_t* %49 to i8*, !dbg !4447
  call void @llvm.memset.p0i8.i64(i8* align 8 %50, i8 0, i64 128, i1 false), !dbg !4447
  %51 = getelementptr inbounds %"class.std::__1::fpos", %"class.std::__1::fpos"* %48, i32 0, i32 1, !dbg !4448
  %52 = load i64, i64* %7, align 8, !dbg !4449
  store i64 %52, i64* %51, align 8, !dbg !4448
  br label %63, !dbg !4450

; <label>:53:                                     ; preds = %37
  store %"class.std::__1::fpos"* %2, %"class.std::__1::fpos"** %10, align 8, !noalias !4451
  %54 = load %"class.std::__1::fpos"*, %"class.std::__1::fpos"** %10, align 8, !noalias !4451
  %55 = getelementptr inbounds %"class.std::__1::fpos", %"class.std::__1::fpos"* %54, i32 0, i32 0, !dbg !4454
  %56 = bitcast %union.__mbstate_t* %17 to i8*, !dbg !4454
  %57 = bitcast %union.__mbstate_t* %55 to i8*, !dbg !4454
  call void @llvm.memcpy.p0i8.p0i8.i64(i8* align 8 %56, i8* align 8 %57, i64 128, i1 false), !dbg !4454
  %58 = getelementptr inbounds %"class.std::__1::basic_filebuf", %"class.std::__1::basic_filebuf"* %18, i32 0, i32 10, !dbg !4455
  %59 = bitcast %union.__mbstate_t* %58 to i8*, !dbg !4456
  %60 = bitcast %union.__mbstate_t* %17 to i8*, !dbg !4456
  call void @llvm.memcpy.p0i8.p0i8.i64(i8* align 8 %59, i8* align 8 %60, i64 128, i1 false), !dbg !4456
  %61 = bitcast %"class.std::__1::fpos"* %0 to i8*, !dbg !4457
  %62 = bitcast %"class.std::__1::fpos"* %2 to i8*, !dbg !4457
  call void @llvm.memcpy.p0i8.p0i8.i64(i8* align 8 %61, i8* align 8 %62, i64 136, i1 false), !dbg !4457
  br label %63, !dbg !4458

; <label>:63:                                     ; preds = %53, %45, %29
  ret void, !dbg !4459
}

; Function Attrs: noinline nounwind optnone ssp uwtable
define linkonce_odr i32 @_ZNSt3__113basic_filebufIcNS_11char_traitsIcEEE4syncEv(%"class.std::__1::basic_filebuf"*) unnamed_addr #0 align 2 !dbg !4460 {
  %2 = alloca %"class.std::__1::basic_streambuf"*, align 8
  call void @llvm.dbg.declare(metadata %"class.std::__1::basic_streambuf"** %2, metadata !4461, metadata !DIExpression()), !dbg !4464
  %3 = alloca %"class.std::__1::basic_streambuf"*, align 8
  call void @llvm.dbg.declare(metadata %"class.std::__1::basic_streambuf"** %3, metadata !4470, metadata !DIExpression()), !dbg !4472
  %4 = alloca %"class.std::__1::codecvt"*, align 8
  call void @llvm.dbg.declare(metadata %"class.std::__1::codecvt"** %4, metadata !4474, metadata !DIExpression()), !dbg !4476
  %5 = alloca %union.__mbstate_t*, align 8
  call void @llvm.dbg.declare(metadata %union.__mbstate_t** %5, metadata !4480, metadata !DIExpression()), !dbg !4481
  %6 = alloca i8*, align 8
  call void @llvm.dbg.declare(metadata i8** %6, metadata !4482, metadata !DIExpression()), !dbg !4483
  %7 = alloca i8*, align 8
  call void @llvm.dbg.declare(metadata i8** %7, metadata !4484, metadata !DIExpression()), !dbg !4485
  %8 = alloca i8**, align 8
  call void @llvm.dbg.declare(metadata i8*** %8, metadata !4486, metadata !DIExpression()), !dbg !4487
  %9 = alloca %"class.std::__1::codecvt"*, align 8
  call void @llvm.dbg.declare(metadata %"class.std::__1::codecvt"** %9, metadata !4322, metadata !DIExpression()), !dbg !4488
  %10 = alloca %"class.std::__1::basic_streambuf"*, align 8
  call void @llvm.dbg.declare(metadata %"class.std::__1::basic_streambuf"** %10, metadata !4470, metadata !DIExpression()), !dbg !4491
  %11 = alloca %"class.std::__1::basic_streambuf"*, align 8
  call void @llvm.dbg.declare(metadata %"class.std::__1::basic_streambuf"** %11, metadata !4461, metadata !DIExpression()), !dbg !4494
  %12 = alloca %"class.std::__1::basic_streambuf"*, align 8
  call void @llvm.dbg.declare(metadata %"class.std::__1::basic_streambuf"** %12, metadata !4461, metadata !DIExpression()), !dbg !4496
  %13 = alloca %"class.std::__1::basic_streambuf"*, align 8
  call void @llvm.dbg.declare(metadata %"class.std::__1::basic_streambuf"** %13, metadata !4470, metadata !DIExpression()), !dbg !4500
  %14 = alloca %"class.std::__1::basic_streambuf"*, align 8
  call void @llvm.dbg.declare(metadata %"class.std::__1::basic_streambuf"** %14, metadata !4461, metadata !DIExpression()), !dbg !4502
  %15 = alloca %"class.std::__1::basic_streambuf"*, align 8
  call void @llvm.dbg.declare(metadata %"class.std::__1::basic_streambuf"** %15, metadata !4505, metadata !DIExpression()), !dbg !4507
  %16 = alloca %"class.std::__1::basic_streambuf"*, align 8
  call void @llvm.dbg.declare(metadata %"class.std::__1::basic_streambuf"** %16, metadata !4509, metadata !DIExpression()), !dbg !4511
  %17 = alloca %"class.std::__1::codecvt"*, align 8
  call void @llvm.dbg.declare(metadata %"class.std::__1::codecvt"** %17, metadata !4514, metadata !DIExpression()), !dbg !4516
  %18 = alloca %union.__mbstate_t*, align 8
  call void @llvm.dbg.declare(metadata %union.__mbstate_t** %18, metadata !4518, metadata !DIExpression()), !dbg !4519
  %19 = alloca i8*, align 8
  call void @llvm.dbg.declare(metadata i8** %19, metadata !4520, metadata !DIExpression()), !dbg !4521
  %20 = alloca i8*, align 8
  call void @llvm.dbg.declare(metadata i8** %20, metadata !4522, metadata !DIExpression()), !dbg !4523
  %21 = alloca i64, align 8
  call void @llvm.dbg.declare(metadata i64* %21, metadata !4524, metadata !DIExpression()), !dbg !4525
  %22 = alloca %"class.std::__1::basic_streambuf"*, align 8
  call void @llvm.dbg.declare(metadata %"class.std::__1::basic_streambuf"** %22, metadata !3984, metadata !DIExpression()), !dbg !4526
  %23 = alloca i8*, align 8
  call void @llvm.dbg.declare(metadata i8** %23, metadata !3988, metadata !DIExpression()), !dbg !4528
  %24 = alloca i8*, align 8
  call void @llvm.dbg.declare(metadata i8** %24, metadata !3990, metadata !DIExpression()), !dbg !4529
  %25 = alloca i8*, align 8
  call void @llvm.dbg.declare(metadata i8** %25, metadata !3992, metadata !DIExpression()), !dbg !4530
  %26 = alloca %"class.std::__1::basic_streambuf"*, align 8
  call void @llvm.dbg.declare(metadata %"class.std::__1::basic_streambuf"** %26, metadata !4531, metadata !DIExpression()), !dbg !4533
  %27 = alloca i32, align 4
  %28 = alloca %"class.std::__1::basic_filebuf"*, align 8
  %29 = alloca i32, align 4
  %30 = alloca i8*, align 8
  %31 = alloca i64, align 8
  %32 = alloca i64, align 8
  %33 = alloca %union.__mbstate_t, align 8
  %34 = alloca i8, align 1
  %35 = alloca i32, align 4
  %36 = alloca i32, align 4
  store %"class.std::__1::basic_filebuf"* %0, %"class.std::__1::basic_filebuf"** %28, align 8
  call void @llvm.dbg.declare(metadata %"class.std::__1::basic_filebuf"** %28, metadata !4535, metadata !DIExpression()), !dbg !4536
  %37 = load %"class.std::__1::basic_filebuf"*, %"class.std::__1::basic_filebuf"** %28, align 8
  %38 = getelementptr inbounds %"class.std::__1::basic_filebuf", %"class.std::__1::basic_filebuf"* %37, i32 0, i32 8, !dbg !4537
  %39 = load %struct.__sFILE*, %struct.__sFILE** %38, align 8, !dbg !4537
  %40 = icmp eq %struct.__sFILE* %39, null, !dbg !4539
  br i1 %40, label %41, label %42, !dbg !4540

; <label>:41:                                     ; preds = %1
  store i32 0, i32* %27, align 4, !dbg !4541
  br label %268, !dbg !4541

; <label>:42:                                     ; preds = %1
  %43 = getelementptr inbounds %"class.std::__1::basic_filebuf", %"class.std::__1::basic_filebuf"* %37, i32 0, i32 9, !dbg !4542
  %44 = load %"class.std::__1::codecvt"*, %"class.std::__1::codecvt"** %43, align 8, !dbg !4542
  %45 = icmp ne %"class.std::__1::codecvt"* %44, null, !dbg !4542
  br i1 %45, label %48, label %46, !dbg !4544

; <label>:46:                                     ; preds = %42
  call void @abort() #11, !dbg !4545
  unreachable, !dbg !4545
                                                  ; No predecessors!
  unreachable, !dbg !4547

; <label>:48:                                     ; preds = %42
  %49 = getelementptr inbounds %"class.std::__1::basic_filebuf", %"class.std::__1::basic_filebuf"* %37, i32 0, i32 13, !dbg !4548
  %50 = load i32, i32* %49, align 4, !dbg !4548
  %51 = and i32 %50, 16, !dbg !4549
  %52 = icmp ne i32 %51, 0, !dbg !4548
  br i1 %52, label %53, label %126, !dbg !4550

; <label>:53:                                     ; preds = %48
  %54 = bitcast %"class.std::__1::basic_filebuf"* %37 to %"class.std::__1::basic_streambuf"*, !dbg !4551
  store %"class.std::__1::basic_streambuf"* %54, %"class.std::__1::basic_streambuf"** %26, align 8
  %55 = load %"class.std::__1::basic_streambuf"*, %"class.std::__1::basic_streambuf"** %26, align 8
  %56 = getelementptr inbounds %"class.std::__1::basic_streambuf", %"class.std::__1::basic_streambuf"* %55, i32 0, i32 6, !dbg !4552
  %57 = load i8*, i8** %56, align 8, !dbg !4552
  %58 = bitcast %"class.std::__1::basic_filebuf"* %37 to %"class.std::__1::basic_streambuf"*, !dbg !4553
  store %"class.std::__1::basic_streambuf"* %58, %"class.std::__1::basic_streambuf"** %16, align 8
  %59 = load %"class.std::__1::basic_streambuf"*, %"class.std::__1::basic_streambuf"** %16, align 8
  %60 = getelementptr inbounds %"class.std::__1::basic_streambuf", %"class.std::__1::basic_streambuf"* %59, i32 0, i32 5, !dbg !4554
  %61 = load i8*, i8** %60, align 8, !dbg !4554
  %62 = icmp ne i8* %57, %61, !dbg !4555
  br i1 %62, label %63, label %74, !dbg !4556

; <label>:63:                                     ; preds = %53
  %64 = bitcast %"class.std::__1::basic_filebuf"* %37 to i32 (%"class.std::__1::basic_filebuf"*, i32)***, !dbg !4557
  %65 = load i32 (%"class.std::__1::basic_filebuf"*, i32)**, i32 (%"class.std::__1::basic_filebuf"*, i32)*** %64, align 8, !dbg !4557
  %66 = getelementptr inbounds i32 (%"class.std::__1::basic_filebuf"*, i32)*, i32 (%"class.std::__1::basic_filebuf"*, i32)** %65, i64 13, !dbg !4557
  %67 = load i32 (%"class.std::__1::basic_filebuf"*, i32)*, i32 (%"class.std::__1::basic_filebuf"*, i32)** %66, align 8, !dbg !4557
  %68 = call i32 @_ZNSt3__111char_traitsIcE3eofEv() #8, !dbg !4557
  %69 = call i32 %67(%"class.std::__1::basic_filebuf"* %37, i32 %68), !dbg !4557
  %70 = call i32 @_ZNSt3__111char_traitsIcE3eofEv() #8, !dbg !4559
  %71 = icmp eq i32 %69, %70, !dbg !4560
  br i1 %71, label %72, label %73, !dbg !4561

; <label>:72:                                     ; preds = %63
  store i32 -1, i32* %27, align 4, !dbg !4562
  br label %268, !dbg !4562

; <label>:73:                                     ; preds = %63
  br label %74, !dbg !4563

; <label>:74:                                     ; preds = %73, %53
  call void @llvm.dbg.declare(metadata i32* %29, metadata !4564, metadata !DIExpression()), !dbg !4565
  br label %75, !dbg !4566, !llvm.loop !4567

; <label>:75:                                     ; preds = %112, %74
  call void @llvm.dbg.declare(metadata i8** %30, metadata !4569, metadata !DIExpression()), !dbg !4570
  %76 = getelementptr inbounds %"class.std::__1::basic_filebuf", %"class.std::__1::basic_filebuf"* %37, i32 0, i32 9, !dbg !4571
  %77 = load %"class.std::__1::codecvt"*, %"class.std::__1::codecvt"** %76, align 8, !dbg !4571
  %78 = getelementptr inbounds %"class.std::__1::basic_filebuf", %"class.std::__1::basic_filebuf"* %37, i32 0, i32 10, !dbg !4572
  %79 = getelementptr inbounds %"class.std::__1::basic_filebuf", %"class.std::__1::basic_filebuf"* %37, i32 0, i32 1, !dbg !4573
  %80 = load i8*, i8** %79, align 8, !dbg !4573
  %81 = getelementptr inbounds %"class.std::__1::basic_filebuf", %"class.std::__1::basic_filebuf"* %37, i32 0, i32 1, !dbg !4574
  %82 = load i8*, i8** %81, align 8, !dbg !4574
  %83 = getelementptr inbounds %"class.std::__1::basic_filebuf", %"class.std::__1::basic_filebuf"* %37, i32 0, i32 5, !dbg !4575
  %84 = load i64, i64* %83, align 8, !dbg !4575
  %85 = getelementptr inbounds i8, i8* %82, i64 %84, !dbg !4576
  store %"class.std::__1::codecvt"* %77, %"class.std::__1::codecvt"** %4, align 8
  store %union.__mbstate_t* %78, %union.__mbstate_t** %5, align 8
  store i8* %80, i8** %6, align 8
  store i8* %85, i8** %7, align 8
  store i8** %30, i8*** %8, align 8
  %86 = load %"class.std::__1::codecvt"*, %"class.std::__1::codecvt"** %4, align 8
  %87 = bitcast %"class.std::__1::codecvt"* %86 to i32 (%"class.std::__1::codecvt"*, %union.__mbstate_t*, i8*, i8*, i8**)***, !dbg !4577
  %88 = load i32 (%"class.std::__1::codecvt"*, %union.__mbstate_t*, i8*, i8*, i8**)**, i32 (%"class.std::__1::codecvt"*, %union.__mbstate_t*, i8*, i8*, i8**)*** %87, align 8, !dbg !4577
  %89 = getelementptr inbounds i32 (%"class.std::__1::codecvt"*, %union.__mbstate_t*, i8*, i8*, i8**)*, i32 (%"class.std::__1::codecvt"*, %union.__mbstate_t*, i8*, i8*, i8**)** %88, i64 5, !dbg !4577
  %90 = load i32 (%"class.std::__1::codecvt"*, %union.__mbstate_t*, i8*, i8*, i8**)*, i32 (%"class.std::__1::codecvt"*, %union.__mbstate_t*, i8*, i8*, i8**)** %89, align 8, !dbg !4577
  %91 = load %union.__mbstate_t*, %union.__mbstate_t** %5, align 8, !dbg !4578
  %92 = load i8*, i8** %6, align 8, !dbg !4579
  %93 = load i8*, i8** %7, align 8, !dbg !4580
  %94 = load i8**, i8*** %8, align 8, !dbg !4581
  %95 = call i32 %90(%"class.std::__1::codecvt"* %86, %union.__mbstate_t* dereferenceable(128) %91, i8* %92, i8* %93, i8** dereferenceable(8) %94) #8, !dbg !4577
  store i32 %95, i32* %29, align 4, !dbg !4582
  call void @llvm.dbg.declare(metadata i64* %31, metadata !4583, metadata !DIExpression()), !dbg !4584
  %96 = load i8*, i8** %30, align 8, !dbg !4585
  %97 = getelementptr inbounds %"class.std::__1::basic_filebuf", %"class.std::__1::basic_filebuf"* %37, i32 0, i32 1, !dbg !4586
  %98 = load i8*, i8** %97, align 8, !dbg !4586
  %99 = ptrtoint i8* %96 to i64, !dbg !4587
  %100 = ptrtoint i8* %98 to i64, !dbg !4587
  %101 = sub i64 %99, %100, !dbg !4587
  store i64 %101, i64* %31, align 8, !dbg !4584
  %102 = getelementptr inbounds %"class.std::__1::basic_filebuf", %"class.std::__1::basic_filebuf"* %37, i32 0, i32 1, !dbg !4588
  %103 = load i8*, i8** %102, align 8, !dbg !4588
  %104 = load i64, i64* %31, align 8, !dbg !4590
  %105 = getelementptr inbounds %"class.std::__1::basic_filebuf", %"class.std::__1::basic_filebuf"* %37, i32 0, i32 8, !dbg !4591
  %106 = load %struct.__sFILE*, %struct.__sFILE** %105, align 8, !dbg !4591
  %107 = call i64 @"\01_fwrite"(i8* %103, i64 1, i64 %104, %struct.__sFILE* %106), !dbg !4592
  %108 = load i64, i64* %31, align 8, !dbg !4593
  %109 = icmp ne i64 %107, %108, !dbg !4594
  br i1 %109, label %110, label %111, !dbg !4595

; <label>:110:                                    ; preds = %75
  store i32 -1, i32* %27, align 4, !dbg !4596
  br label %268, !dbg !4596

; <label>:111:                                    ; preds = %75
  br label %112, !dbg !4597

; <label>:112:                                    ; preds = %111
  %113 = load i32, i32* %29, align 4, !dbg !4598
  %114 = icmp eq i32 %113, 1, !dbg !4599
  br i1 %114, label %75, label %115, !dbg !4597, !llvm.loop !4567

; <label>:115:                                    ; preds = %112
  %116 = load i32, i32* %29, align 4, !dbg !4600
  %117 = icmp eq i32 %116, 2, !dbg !4602
  br i1 %117, label %118, label %119, !dbg !4603

; <label>:118:                                    ; preds = %115
  store i32 -1, i32* %27, align 4, !dbg !4604
  br label %268, !dbg !4604

; <label>:119:                                    ; preds = %115
  %120 = getelementptr inbounds %"class.std::__1::basic_filebuf", %"class.std::__1::basic_filebuf"* %37, i32 0, i32 8, !dbg !4605
  %121 = load %struct.__sFILE*, %struct.__sFILE** %120, align 8, !dbg !4605
  %122 = call i32 @fflush(%struct.__sFILE* %121), !dbg !4607
  %123 = icmp ne i32 %122, 0, !dbg !4607
  br i1 %123, label %124, label %125, !dbg !4608

; <label>:124:                                    ; preds = %119
  store i32 -1, i32* %27, align 4, !dbg !4609
  br label %268, !dbg !4609

; <label>:125:                                    ; preds = %119
  br label %267, !dbg !4610

; <label>:126:                                    ; preds = %48
  %127 = getelementptr inbounds %"class.std::__1::basic_filebuf", %"class.std::__1::basic_filebuf"* %37, i32 0, i32 13, !dbg !4611
  %128 = load i32, i32* %127, align 4, !dbg !4611
  %129 = and i32 %128, 8, !dbg !4612
  %130 = icmp ne i32 %129, 0, !dbg !4611
  br i1 %130, label %131, label %266, !dbg !4613

; <label>:131:                                    ; preds = %126
  call void @llvm.dbg.declare(metadata i64* %32, metadata !4614, metadata !DIExpression()), !dbg !4615
  call void @llvm.dbg.declare(metadata %union.__mbstate_t* %33, metadata !4616, metadata !DIExpression()), !dbg !4617
  %132 = getelementptr inbounds %"class.std::__1::basic_filebuf", %"class.std::__1::basic_filebuf"* %37, i32 0, i32 11, !dbg !4618
  %133 = bitcast %union.__mbstate_t* %33 to i8*, !dbg !4618
  %134 = bitcast %union.__mbstate_t* %132 to i8*, !dbg !4618
  call void @llvm.memcpy.p0i8.p0i8.i64(i8* align 8 %133, i8* align 8 %134, i64 128, i1 false), !dbg !4618
  call void @llvm.dbg.declare(metadata i8* %34, metadata !4619, metadata !DIExpression()), !dbg !4620
  store i8 0, i8* %34, align 1, !dbg !4620
  %135 = getelementptr inbounds %"class.std::__1::basic_filebuf", %"class.std::__1::basic_filebuf"* %37, i32 0, i32 16, !dbg !4621
  %136 = load i8, i8* %135, align 2, !dbg !4621
  %137 = trunc i8 %136 to i1, !dbg !4621
  br i1 %137, label %138, label %150, !dbg !4622

; <label>:138:                                    ; preds = %131
  %139 = bitcast %"class.std::__1::basic_filebuf"* %37 to %"class.std::__1::basic_streambuf"*, !dbg !4623
  store %"class.std::__1::basic_streambuf"* %139, %"class.std::__1::basic_streambuf"** %3, align 8
  %140 = load %"class.std::__1::basic_streambuf"*, %"class.std::__1::basic_streambuf"** %3, align 8
  %141 = getelementptr inbounds %"class.std::__1::basic_streambuf", %"class.std::__1::basic_streambuf"* %140, i32 0, i32 4, !dbg !4624
  %142 = load i8*, i8** %141, align 8, !dbg !4624
  %143 = bitcast %"class.std::__1::basic_filebuf"* %37 to %"class.std::__1::basic_streambuf"*, !dbg !4625
  store %"class.std::__1::basic_streambuf"* %143, %"class.std::__1::basic_streambuf"** %2, align 8
  %144 = load %"class.std::__1::basic_streambuf"*, %"class.std::__1::basic_streambuf"** %2, align 8
  %145 = getelementptr inbounds %"class.std::__1::basic_streambuf", %"class.std::__1::basic_streambuf"* %144, i32 0, i32 3, !dbg !4626
  %146 = load i8*, i8** %145, align 8, !dbg !4626
  %147 = ptrtoint i8* %142 to i64, !dbg !4627
  %148 = ptrtoint i8* %146 to i64, !dbg !4627
  %149 = sub i64 %147, %148, !dbg !4627
  store i64 %149, i64* %32, align 8, !dbg !4628
  br label %237, !dbg !4629

; <label>:150:                                    ; preds = %131
  call void @llvm.dbg.declare(metadata i32* %35, metadata !4630, metadata !DIExpression()), !dbg !4631
  %151 = getelementptr inbounds %"class.std::__1::basic_filebuf", %"class.std::__1::basic_filebuf"* %37, i32 0, i32 9, !dbg !4632
  %152 = load %"class.std::__1::codecvt"*, %"class.std::__1::codecvt"** %151, align 8, !dbg !4632
  store %"class.std::__1::codecvt"* %152, %"class.std::__1::codecvt"** %9, align 8
  %153 = load %"class.std::__1::codecvt"*, %"class.std::__1::codecvt"** %9, align 8
  %154 = bitcast %"class.std::__1::codecvt"* %153 to i32 (%"class.std::__1::codecvt"*)***, !dbg !4633
  %155 = load i32 (%"class.std::__1::codecvt"*)**, i32 (%"class.std::__1::codecvt"*)*** %154, align 8, !dbg !4633
  %156 = getelementptr inbounds i32 (%"class.std::__1::codecvt"*)*, i32 (%"class.std::__1::codecvt"*)** %155, i64 6, !dbg !4633
  %157 = load i32 (%"class.std::__1::codecvt"*)*, i32 (%"class.std::__1::codecvt"*)** %156, align 8, !dbg !4633
  %158 = call i32 %157(%"class.std::__1::codecvt"* %153) #8, !dbg !4633
  store i32 %158, i32* %35, align 4, !dbg !4631
  %159 = getelementptr inbounds %"class.std::__1::basic_filebuf", %"class.std::__1::basic_filebuf"* %37, i32 0, i32 3, !dbg !4634
  %160 = load i8*, i8** %159, align 8, !dbg !4634
  %161 = getelementptr inbounds %"class.std::__1::basic_filebuf", %"class.std::__1::basic_filebuf"* %37, i32 0, i32 2, !dbg !4635
  %162 = load i8*, i8** %161, align 8, !dbg !4635
  %163 = ptrtoint i8* %160 to i64, !dbg !4636
  %164 = ptrtoint i8* %162 to i64, !dbg !4636
  %165 = sub i64 %163, %164, !dbg !4636
  store i64 %165, i64* %32, align 8, !dbg !4637
  %166 = load i32, i32* %35, align 4, !dbg !4638
  %167 = icmp sgt i32 %166, 0, !dbg !4639
  br i1 %167, label %168, label %185, !dbg !4640

; <label>:168:                                    ; preds = %150
  %169 = load i32, i32* %35, align 4, !dbg !4641
  %170 = sext i32 %169 to i64, !dbg !4641
  %171 = bitcast %"class.std::__1::basic_filebuf"* %37 to %"class.std::__1::basic_streambuf"*, !dbg !4642
  store %"class.std::__1::basic_streambuf"* %171, %"class.std::__1::basic_streambuf"** %10, align 8
  %172 = load %"class.std::__1::basic_streambuf"*, %"class.std::__1::basic_streambuf"** %10, align 8
  %173 = getelementptr inbounds %"class.std::__1::basic_streambuf", %"class.std::__1::basic_streambuf"* %172, i32 0, i32 4, !dbg !4643
  %174 = load i8*, i8** %173, align 8, !dbg !4643
  %175 = bitcast %"class.std::__1::basic_filebuf"* %37 to %"class.std::__1::basic_streambuf"*, !dbg !4644
  store %"class.std::__1::basic_streambuf"* %175, %"class.std::__1::basic_streambuf"** %11, align 8
  %176 = load %"class.std::__1::basic_streambuf"*, %"class.std::__1::basic_streambuf"** %11, align 8
  %177 = getelementptr inbounds %"class.std::__1::basic_streambuf", %"class.std::__1::basic_streambuf"* %176, i32 0, i32 3, !dbg !4645
  %178 = load i8*, i8** %177, align 8, !dbg !4645
  %179 = ptrtoint i8* %174 to i64, !dbg !4646
  %180 = ptrtoint i8* %178 to i64, !dbg !4646
  %181 = sub i64 %179, %180, !dbg !4646
  %182 = mul nsw i64 %170, %181, !dbg !4647
  %183 = load i64, i64* %32, align 8, !dbg !4648
  %184 = add nsw i64 %183, %182, !dbg !4648
  store i64 %184, i64* %32, align 8, !dbg !4648
  br label %236, !dbg !4649

; <label>:185:                                    ; preds = %150
  %186 = bitcast %"class.std::__1::basic_filebuf"* %37 to %"class.std::__1::basic_streambuf"*, !dbg !4650
  store %"class.std::__1::basic_streambuf"* %186, %"class.std::__1::basic_streambuf"** %12, align 8
  %187 = load %"class.std::__1::basic_streambuf"*, %"class.std::__1::basic_streambuf"** %12, align 8
  %188 = getelementptr inbounds %"class.std::__1::basic_streambuf", %"class.std::__1::basic_streambuf"* %187, i32 0, i32 3, !dbg !4651
  %189 = load i8*, i8** %188, align 8, !dbg !4651
  %190 = bitcast %"class.std::__1::basic_filebuf"* %37 to %"class.std::__1::basic_streambuf"*, !dbg !4652
  store %"class.std::__1::basic_streambuf"* %190, %"class.std::__1::basic_streambuf"** %13, align 8
  %191 = load %"class.std::__1::basic_streambuf"*, %"class.std::__1::basic_streambuf"** %13, align 8
  %192 = getelementptr inbounds %"class.std::__1::basic_streambuf", %"class.std::__1::basic_streambuf"* %191, i32 0, i32 4, !dbg !4653
  %193 = load i8*, i8** %192, align 8, !dbg !4653
  %194 = icmp ne i8* %189, %193, !dbg !4654
  br i1 %194, label %195, label %235, !dbg !4655

; <label>:195:                                    ; preds = %185
  call void @llvm.dbg.declare(metadata i32* %36, metadata !4656, metadata !DIExpression()), !dbg !4657
  %196 = getelementptr inbounds %"class.std::__1::basic_filebuf", %"class.std::__1::basic_filebuf"* %37, i32 0, i32 9, !dbg !4658
  %197 = load %"class.std::__1::codecvt"*, %"class.std::__1::codecvt"** %196, align 8, !dbg !4658
  %198 = getelementptr inbounds %"class.std::__1::basic_filebuf", %"class.std::__1::basic_filebuf"* %37, i32 0, i32 1, !dbg !4659
  %199 = load i8*, i8** %198, align 8, !dbg !4659
  %200 = getelementptr inbounds %"class.std::__1::basic_filebuf", %"class.std::__1::basic_filebuf"* %37, i32 0, i32 2, !dbg !4660
  %201 = load i8*, i8** %200, align 8, !dbg !4660
  %202 = bitcast %"class.std::__1::basic_filebuf"* %37 to %"class.std::__1::basic_streambuf"*, !dbg !4661
  store %"class.std::__1::basic_streambuf"* %202, %"class.std::__1::basic_streambuf"** %14, align 8
  %203 = load %"class.std::__1::basic_streambuf"*, %"class.std::__1::basic_streambuf"** %14, align 8
  %204 = getelementptr inbounds %"class.std::__1::basic_streambuf", %"class.std::__1::basic_streambuf"* %203, i32 0, i32 3, !dbg !4662
  %205 = load i8*, i8** %204, align 8, !dbg !4662
  %206 = bitcast %"class.std::__1::basic_filebuf"* %37 to %"class.std::__1::basic_streambuf"*, !dbg !4663
  store %"class.std::__1::basic_streambuf"* %206, %"class.std::__1::basic_streambuf"** %15, align 8
  %207 = load %"class.std::__1::basic_streambuf"*, %"class.std::__1::basic_streambuf"** %15, align 8
  %208 = getelementptr inbounds %"class.std::__1::basic_streambuf", %"class.std::__1::basic_streambuf"* %207, i32 0, i32 2, !dbg !4664
  %209 = load i8*, i8** %208, align 8, !dbg !4664
  %210 = ptrtoint i8* %205 to i64, !dbg !4665
  %211 = ptrtoint i8* %209 to i64, !dbg !4665
  %212 = sub i64 %210, %211, !dbg !4665
  store %"class.std::__1::codecvt"* %197, %"class.std::__1::codecvt"** %17, align 8
  store %union.__mbstate_t* %33, %union.__mbstate_t** %18, align 8
  store i8* %199, i8** %19, align 8
  store i8* %201, i8** %20, align 8
  store i64 %212, i64* %21, align 8
  %213 = load %"class.std::__1::codecvt"*, %"class.std::__1::codecvt"** %17, align 8
  %214 = bitcast %"class.std::__1::codecvt"* %213 to i32 (%"class.std::__1::codecvt"*, %union.__mbstate_t*, i8*, i8*, i64)***, !dbg !4666
  %215 = load i32 (%"class.std::__1::codecvt"*, %union.__mbstate_t*, i8*, i8*, i64)**, i32 (%"class.std::__1::codecvt"*, %union.__mbstate_t*, i8*, i8*, i64)*** %214, align 8, !dbg !4666
  %216 = getelementptr inbounds i32 (%"class.std::__1::codecvt"*, %union.__mbstate_t*, i8*, i8*, i64)*, i32 (%"class.std::__1::codecvt"*, %union.__mbstate_t*, i8*, i8*, i64)** %215, i64 8, !dbg !4666
  %217 = load i32 (%"class.std::__1::codecvt"*, %union.__mbstate_t*, i8*, i8*, i64)*, i32 (%"class.std::__1::codecvt"*, %union.__mbstate_t*, i8*, i8*, i64)** %216, align 8, !dbg !4666
  %218 = load %union.__mbstate_t*, %union.__mbstate_t** %18, align 8, !dbg !4667
  %219 = load i8*, i8** %19, align 8, !dbg !4668
  %220 = load i8*, i8** %20, align 8, !dbg !4669
  %221 = load i64, i64* %21, align 8, !dbg !4670
  %222 = call i32 %217(%"class.std::__1::codecvt"* %213, %union.__mbstate_t* dereferenceable(128) %218, i8* %219, i8* %220, i64 %221) #8, !dbg !4666
  store i32 %222, i32* %36, align 4, !dbg !4657
  %223 = getelementptr inbounds %"class.std::__1::basic_filebuf", %"class.std::__1::basic_filebuf"* %37, i32 0, i32 2, !dbg !4671
  %224 = load i8*, i8** %223, align 8, !dbg !4671
  %225 = getelementptr inbounds %"class.std::__1::basic_filebuf", %"class.std::__1::basic_filebuf"* %37, i32 0, i32 1, !dbg !4672
  %226 = load i8*, i8** %225, align 8, !dbg !4672
  %227 = ptrtoint i8* %224 to i64, !dbg !4673
  %228 = ptrtoint i8* %226 to i64, !dbg !4673
  %229 = sub i64 %227, %228, !dbg !4673
  %230 = load i32, i32* %36, align 4, !dbg !4674
  %231 = sext i32 %230 to i64, !dbg !4674
  %232 = sub nsw i64 %229, %231, !dbg !4675
  %233 = load i64, i64* %32, align 8, !dbg !4676
  %234 = add nsw i64 %233, %232, !dbg !4676
  store i64 %234, i64* %32, align 8, !dbg !4676
  store i8 1, i8* %34, align 1, !dbg !4677
  br label %235, !dbg !4678

; <label>:235:                                    ; preds = %195, %185
  br label %236

; <label>:236:                                    ; preds = %235, %168
  br label %237

; <label>:237:                                    ; preds = %236, %138
  %238 = getelementptr inbounds %"class.std::__1::basic_filebuf", %"class.std::__1::basic_filebuf"* %37, i32 0, i32 8, !dbg !4679
  %239 = load %struct.__sFILE*, %struct.__sFILE** %238, align 8, !dbg !4679
  %240 = load i64, i64* %32, align 8, !dbg !4681
  %241 = sub nsw i64 0, %240, !dbg !4682
  %242 = call i32 @fseeko(%struct.__sFILE* %239, i64 %241, i32 1), !dbg !4683
  %243 = icmp ne i32 %242, 0, !dbg !4683
  br i1 %243, label %244, label %245, !dbg !4684

; <label>:244:                                    ; preds = %237
  store i32 -1, i32* %27, align 4, !dbg !4685
  br label %268, !dbg !4685

; <label>:245:                                    ; preds = %237
  %246 = load i8, i8* %34, align 1, !dbg !4686
  %247 = trunc i8 %246 to i1, !dbg !4686
  br i1 %247, label %248, label %252, !dbg !4688

; <label>:248:                                    ; preds = %245
  %249 = getelementptr inbounds %"class.std::__1::basic_filebuf", %"class.std::__1::basic_filebuf"* %37, i32 0, i32 10, !dbg !4689
  %250 = bitcast %union.__mbstate_t* %249 to i8*, !dbg !4690
  %251 = bitcast %union.__mbstate_t* %33 to i8*, !dbg !4690
  call void @llvm.memcpy.p0i8.p0i8.i64(i8* align 8 %250, i8* align 8 %251, i64 128, i1 false), !dbg !4690
  br label %252, !dbg !4689

; <label>:252:                                    ; preds = %248, %245
  %253 = getelementptr inbounds %"class.std::__1::basic_filebuf", %"class.std::__1::basic_filebuf"* %37, i32 0, i32 1, !dbg !4691
  %254 = load i8*, i8** %253, align 8, !dbg !4691
  %255 = getelementptr inbounds %"class.std::__1::basic_filebuf", %"class.std::__1::basic_filebuf"* %37, i32 0, i32 3, !dbg !4692
  store i8* %254, i8** %255, align 8, !dbg !4693
  %256 = getelementptr inbounds %"class.std::__1::basic_filebuf", %"class.std::__1::basic_filebuf"* %37, i32 0, i32 2, !dbg !4694
  store i8* %254, i8** %256, align 8, !dbg !4695
  %257 = bitcast %"class.std::__1::basic_filebuf"* %37 to %"class.std::__1::basic_streambuf"*, !dbg !4696
  store %"class.std::__1::basic_streambuf"* %257, %"class.std::__1::basic_streambuf"** %22, align 8
  store i8* null, i8** %23, align 8
  store i8* null, i8** %24, align 8
  store i8* null, i8** %25, align 8
  %258 = load %"class.std::__1::basic_streambuf"*, %"class.std::__1::basic_streambuf"** %22, align 8
  %259 = load i8*, i8** %23, align 8, !dbg !4697
  %260 = getelementptr inbounds %"class.std::__1::basic_streambuf", %"class.std::__1::basic_streambuf"* %258, i32 0, i32 2, !dbg !4698
  store i8* %259, i8** %260, align 8, !dbg !4699
  %261 = load i8*, i8** %24, align 8, !dbg !4700
  %262 = getelementptr inbounds %"class.std::__1::basic_streambuf", %"class.std::__1::basic_streambuf"* %258, i32 0, i32 3, !dbg !4701
  store i8* %261, i8** %262, align 8, !dbg !4702
  %263 = load i8*, i8** %25, align 8, !dbg !4703
  %264 = getelementptr inbounds %"class.std::__1::basic_streambuf", %"class.std::__1::basic_streambuf"* %258, i32 0, i32 4, !dbg !4704
  store i8* %263, i8** %264, align 8, !dbg !4705
  %265 = getelementptr inbounds %"class.std::__1::basic_filebuf", %"class.std::__1::basic_filebuf"* %37, i32 0, i32 13, !dbg !4706
  store i32 0, i32* %265, align 4, !dbg !4707
  br label %266, !dbg !4708

; <label>:266:                                    ; preds = %252, %126
  br label %267

; <label>:267:                                    ; preds = %266, %125
  store i32 0, i32* %27, align 4, !dbg !4709
  br label %268, !dbg !4709

; <label>:268:                                    ; preds = %267, %244, %124, %118, %110, %72, %41
  %269 = load i32, i32* %27, align 4, !dbg !4710
  ret i32 %269, !dbg !4710
}

declare i64 @_ZNSt3__115basic_streambufIcNS_11char_traitsIcEEE9showmanycEv(%"class.std::__1::basic_streambuf"*) unnamed_addr #2

declare i64 @_ZNSt3__115basic_streambufIcNS_11char_traitsIcEEE6xsgetnEPcl(%"class.std::__1::basic_streambuf"*, i8*, i64) unnamed_addr #2

; Function Attrs: noinline nounwind optnone ssp uwtable
define linkonce_odr i32 @_ZNSt3__113basic_filebufIcNS_11char_traitsIcEEE9underflowEv(%"class.std::__1::basic_filebuf"*) unnamed_addr #0 align 2 !dbg !4711 {
  %2 = alloca %"class.std::__1::basic_streambuf"*, align 8
  call void @llvm.dbg.declare(metadata %"class.std::__1::basic_streambuf"** %2, metadata !4505, metadata !DIExpression()), !dbg !4712
  %3 = alloca %"class.std::__1::basic_streambuf"*, align 8
  call void @llvm.dbg.declare(metadata %"class.std::__1::basic_streambuf"** %3, metadata !4470, metadata !DIExpression()), !dbg !4716
  %4 = alloca %"class.std::__1::basic_streambuf"*, align 8
  call void @llvm.dbg.declare(metadata %"class.std::__1::basic_streambuf"** %4, metadata !4470, metadata !DIExpression()), !dbg !4718
  %5 = alloca %"class.std::__1::basic_streambuf"*, align 8
  call void @llvm.dbg.declare(metadata %"class.std::__1::basic_streambuf"** %5, metadata !4505, metadata !DIExpression()), !dbg !4722
  %6 = alloca %"class.std::__1::basic_streambuf"*, align 8
  call void @llvm.dbg.declare(metadata %"class.std::__1::basic_streambuf"** %6, metadata !4505, metadata !DIExpression()), !dbg !4724
  %7 = alloca %"class.std::__1::basic_streambuf"*, align 8
  call void @llvm.dbg.declare(metadata %"class.std::__1::basic_streambuf"** %7, metadata !4505, metadata !DIExpression()), !dbg !4726
  %8 = alloca %"class.std::__1::basic_streambuf"*, align 8
  call void @llvm.dbg.declare(metadata %"class.std::__1::basic_streambuf"** %8, metadata !4505, metadata !DIExpression()), !dbg !4730
  %9 = alloca %"class.std::__1::basic_streambuf"*, align 8
  call void @llvm.dbg.declare(metadata %"class.std::__1::basic_streambuf"** %9, metadata !4505, metadata !DIExpression()), !dbg !4732
  %10 = alloca %"class.std::__1::basic_streambuf"*, align 8
  call void @llvm.dbg.declare(metadata %"class.std::__1::basic_streambuf"** %10, metadata !3984, metadata !DIExpression()), !dbg !4734
  %11 = alloca i8*, align 8
  call void @llvm.dbg.declare(metadata i8** %11, metadata !3988, metadata !DIExpression()), !dbg !4736
  %12 = alloca i8*, align 8
  call void @llvm.dbg.declare(metadata i8** %12, metadata !3990, metadata !DIExpression()), !dbg !4737
  %13 = alloca i8*, align 8
  call void @llvm.dbg.declare(metadata i8** %13, metadata !3992, metadata !DIExpression()), !dbg !4738
  %14 = alloca %"class.std::__1::basic_streambuf"*, align 8
  call void @llvm.dbg.declare(metadata %"class.std::__1::basic_streambuf"** %14, metadata !4461, metadata !DIExpression()), !dbg !4739
  %15 = alloca %"class.std::__1::basic_streambuf"*, align 8
  call void @llvm.dbg.declare(metadata %"class.std::__1::basic_streambuf"** %15, metadata !4470, metadata !DIExpression()), !dbg !4741
  %16 = alloca %"struct.std::__1::__less.6"*, align 8
  call void @llvm.dbg.declare(metadata %"struct.std::__1::__less.6"** %16, metadata !4743, metadata !DIExpression()), !dbg !4758
  %17 = alloca i64*, align 8
  call void @llvm.dbg.declare(metadata i64** %17, metadata !4773, metadata !DIExpression()), !dbg !4774
  %18 = alloca i64*, align 8
  call void @llvm.dbg.declare(metadata i64** %18, metadata !4775, metadata !DIExpression()), !dbg !4776
  %19 = alloca %"struct.std::__1::__less.6", align 1
  call void @llvm.dbg.declare(metadata %"struct.std::__1::__less.6"* %19, metadata !4777, metadata !DIExpression()), !dbg !4778
  %20 = alloca i64*, align 8
  call void @llvm.dbg.declare(metadata i64** %20, metadata !4779, metadata !DIExpression()), !dbg !4780
  %21 = alloca i64*, align 8
  call void @llvm.dbg.declare(metadata i64** %21, metadata !4781, metadata !DIExpression()), !dbg !4782
  %22 = alloca i64*, align 8
  call void @llvm.dbg.declare(metadata i64** %22, metadata !4783, metadata !DIExpression()), !dbg !4784
  %23 = alloca i64*, align 8
  call void @llvm.dbg.declare(metadata i64** %23, metadata !4785, metadata !DIExpression()), !dbg !4786
  %24 = alloca %"struct.std::__1::__less.6", align 1
  %25 = alloca %"class.std::__1::basic_streambuf"*, align 8
  call void @llvm.dbg.declare(metadata %"class.std::__1::basic_streambuf"** %25, metadata !4461, metadata !DIExpression()), !dbg !4787
  %26 = alloca %"class.std::__1::basic_streambuf"*, align 8
  call void @llvm.dbg.declare(metadata %"class.std::__1::basic_streambuf"** %26, metadata !4505, metadata !DIExpression()), !dbg !4789
  %27 = alloca %"class.std::__1::basic_streambuf"*, align 8
  call void @llvm.dbg.declare(metadata %"class.std::__1::basic_streambuf"** %27, metadata !4505, metadata !DIExpression()), !dbg !4793
  %28 = alloca %"struct.std::__1::__less.6"*, align 8
  call void @llvm.dbg.declare(metadata %"struct.std::__1::__less.6"** %28, metadata !4743, metadata !DIExpression()), !dbg !4795
  %29 = alloca i64*, align 8
  call void @llvm.dbg.declare(metadata i64** %29, metadata !4773, metadata !DIExpression()), !dbg !4799
  %30 = alloca i64*, align 8
  call void @llvm.dbg.declare(metadata i64** %30, metadata !4775, metadata !DIExpression()), !dbg !4800
  %31 = alloca %"struct.std::__1::__less.6", align 1
  call void @llvm.dbg.declare(metadata %"struct.std::__1::__less.6"* %31, metadata !4777, metadata !DIExpression()), !dbg !4801
  %32 = alloca i64*, align 8
  call void @llvm.dbg.declare(metadata i64** %32, metadata !4779, metadata !DIExpression()), !dbg !4802
  %33 = alloca i64*, align 8
  call void @llvm.dbg.declare(metadata i64** %33, metadata !4781, metadata !DIExpression()), !dbg !4803
  %34 = alloca i64*, align 8
  call void @llvm.dbg.declare(metadata i64** %34, metadata !4783, metadata !DIExpression()), !dbg !4804
  %35 = alloca i64*, align 8
  call void @llvm.dbg.declare(metadata i64** %35, metadata !4785, metadata !DIExpression()), !dbg !4805
  %36 = alloca %"struct.std::__1::__less.6", align 1
  %37 = alloca %"class.std::__1::codecvt"*, align 8
  call void @llvm.dbg.declare(metadata %"class.std::__1::codecvt"** %37, metadata !4806, metadata !DIExpression()), !dbg !4808
  %38 = alloca %union.__mbstate_t*, align 8
  call void @llvm.dbg.declare(metadata %union.__mbstate_t** %38, metadata !4810, metadata !DIExpression()), !dbg !4811
  %39 = alloca i8*, align 8
  call void @llvm.dbg.declare(metadata i8** %39, metadata !4812, metadata !DIExpression()), !dbg !4813
  %40 = alloca i8*, align 8
  call void @llvm.dbg.declare(metadata i8** %40, metadata !4814, metadata !DIExpression()), !dbg !4815
  %41 = alloca i8**, align 8
  call void @llvm.dbg.declare(metadata i8*** %41, metadata !4816, metadata !DIExpression()), !dbg !4817
  %42 = alloca i8*, align 8
  call void @llvm.dbg.declare(metadata i8** %42, metadata !4818, metadata !DIExpression()), !dbg !4819
  %43 = alloca i8*, align 8
  call void @llvm.dbg.declare(metadata i8** %43, metadata !4820, metadata !DIExpression()), !dbg !4821
  %44 = alloca i8**, align 8
  call void @llvm.dbg.declare(metadata i8*** %44, metadata !4822, metadata !DIExpression()), !dbg !4823
  %45 = alloca %"class.std::__1::basic_streambuf"*, align 8
  call void @llvm.dbg.declare(metadata %"class.std::__1::basic_streambuf"** %45, metadata !3984, metadata !DIExpression()), !dbg !4824
  %46 = alloca i8*, align 8
  call void @llvm.dbg.declare(metadata i8** %46, metadata !3988, metadata !DIExpression()), !dbg !4828
  %47 = alloca i8*, align 8
  call void @llvm.dbg.declare(metadata i8** %47, metadata !3990, metadata !DIExpression()), !dbg !4829
  %48 = alloca i8*, align 8
  call void @llvm.dbg.declare(metadata i8** %48, metadata !3992, metadata !DIExpression()), !dbg !4830
  %49 = alloca %"class.std::__1::basic_streambuf"*, align 8
  call void @llvm.dbg.declare(metadata %"class.std::__1::basic_streambuf"** %49, metadata !4461, metadata !DIExpression()), !dbg !4831
  %50 = alloca %"class.std::__1::basic_streambuf"*, align 8
  call void @llvm.dbg.declare(metadata %"class.std::__1::basic_streambuf"** %50, metadata !4505, metadata !DIExpression()), !dbg !4833
  %51 = alloca %"class.std::__1::basic_streambuf"*, align 8
  call void @llvm.dbg.declare(metadata %"class.std::__1::basic_streambuf"** %51, metadata !4505, metadata !DIExpression()), !dbg !4835
  %52 = alloca %"class.std::__1::basic_streambuf"*, align 8
  call void @llvm.dbg.declare(metadata %"class.std::__1::basic_streambuf"** %52, metadata !4505, metadata !DIExpression()), !dbg !4838
  %53 = alloca %"class.std::__1::basic_streambuf"*, align 8
  call void @llvm.dbg.declare(metadata %"class.std::__1::basic_streambuf"** %53, metadata !4505, metadata !DIExpression()), !dbg !4841
  %54 = alloca %"class.std::__1::basic_streambuf"*, align 8
  call void @llvm.dbg.declare(metadata %"class.std::__1::basic_streambuf"** %54, metadata !3984, metadata !DIExpression()), !dbg !4843
  %55 = alloca i8*, align 8
  call void @llvm.dbg.declare(metadata i8** %55, metadata !3988, metadata !DIExpression()), !dbg !4845
  %56 = alloca i8*, align 8
  call void @llvm.dbg.declare(metadata i8** %56, metadata !3990, metadata !DIExpression()), !dbg !4846
  %57 = alloca i8*, align 8
  call void @llvm.dbg.declare(metadata i8** %57, metadata !3992, metadata !DIExpression()), !dbg !4847
  %58 = alloca %"class.std::__1::basic_streambuf"*, align 8
  call void @llvm.dbg.declare(metadata %"class.std::__1::basic_streambuf"** %58, metadata !4461, metadata !DIExpression()), !dbg !4848
  %59 = alloca %"class.std::__1::basic_streambuf"*, align 8
  call void @llvm.dbg.declare(metadata %"class.std::__1::basic_streambuf"** %59, metadata !4470, metadata !DIExpression()), !dbg !4850
  %60 = alloca %"class.std::__1::basic_streambuf"*, align 8
  call void @llvm.dbg.declare(metadata %"class.std::__1::basic_streambuf"** %60, metadata !4461, metadata !DIExpression()), !dbg !4852
  %61 = alloca %"class.std::__1::basic_streambuf"*, align 8
  call void @llvm.dbg.declare(metadata %"class.std::__1::basic_streambuf"** %61, metadata !3984, metadata !DIExpression()), !dbg !4854
  %62 = alloca i8*, align 8
  call void @llvm.dbg.declare(metadata i8** %62, metadata !3988, metadata !DIExpression()), !dbg !4857
  %63 = alloca i8*, align 8
  call void @llvm.dbg.declare(metadata i8** %63, metadata !3990, metadata !DIExpression()), !dbg !4858
  %64 = alloca i8*, align 8
  call void @llvm.dbg.declare(metadata i8** %64, metadata !3992, metadata !DIExpression()), !dbg !4859
  %65 = alloca %"class.std::__1::basic_streambuf"*, align 8
  call void @llvm.dbg.declare(metadata %"class.std::__1::basic_streambuf"** %65, metadata !4505, metadata !DIExpression()), !dbg !4860
  %66 = alloca %"class.std::__1::basic_streambuf"*, align 8
  call void @llvm.dbg.declare(metadata %"class.std::__1::basic_streambuf"** %66, metadata !3984, metadata !DIExpression()), !dbg !4863
  %67 = alloca i8*, align 8
  call void @llvm.dbg.declare(metadata i8** %67, metadata !3988, metadata !DIExpression()), !dbg !4865
  %68 = alloca i8*, align 8
  call void @llvm.dbg.declare(metadata i8** %68, metadata !3990, metadata !DIExpression()), !dbg !4866
  %69 = alloca i8*, align 8
  call void @llvm.dbg.declare(metadata i8** %69, metadata !3992, metadata !DIExpression()), !dbg !4867
  %70 = alloca %"class.std::__1::basic_streambuf"*, align 8
  call void @llvm.dbg.declare(metadata %"class.std::__1::basic_streambuf"** %70, metadata !4461, metadata !DIExpression()), !dbg !4868
  %71 = alloca i32, align 4
  %72 = alloca %"class.std::__1::basic_filebuf"*, align 8
  %73 = alloca i8, align 1
  %74 = alloca i8, align 1
  %75 = alloca i64, align 8
  %76 = alloca i64, align 8
  %77 = alloca i64, align 8
  %78 = alloca i32, align 4
  %79 = alloca i64, align 8
  %80 = alloca i64, align 8
  %81 = alloca i64, align 8
  %82 = alloca i64, align 8
  %83 = alloca i32, align 4
  %84 = alloca i64, align 8
  %85 = alloca i8*, align 8
  store %"class.std::__1::basic_filebuf"* %0, %"class.std::__1::basic_filebuf"** %72, align 8
  call void @llvm.dbg.declare(metadata %"class.std::__1::basic_filebuf"** %72, metadata !4870, metadata !DIExpression()), !dbg !4871
  %86 = load %"class.std::__1::basic_filebuf"*, %"class.std::__1::basic_filebuf"** %72, align 8
  %87 = getelementptr inbounds %"class.std::__1::basic_filebuf", %"class.std::__1::basic_filebuf"* %86, i32 0, i32 8, !dbg !4872
  %88 = load %struct.__sFILE*, %struct.__sFILE** %87, align 8, !dbg !4872
  %89 = icmp eq %struct.__sFILE* %88, null, !dbg !4874
  br i1 %89, label %90, label %92, !dbg !4875

; <label>:90:                                     ; preds = %1
  %91 = call i32 @_ZNSt3__111char_traitsIcE3eofEv() #8, !dbg !4876
  store i32 %91, i32* %71, align 4, !dbg !4877
  br label %451, !dbg !4877

; <label>:92:                                     ; preds = %1
  call void @llvm.dbg.declare(metadata i8* %73, metadata !4878, metadata !DIExpression()), !dbg !4879
  %93 = call zeroext i1 @_ZNSt3__113basic_filebufIcNS_11char_traitsIcEEE11__read_modeEv(%"class.std::__1::basic_filebuf"* %86), !dbg !4880
  %94 = zext i1 %93 to i8, !dbg !4879
  store i8 %94, i8* %73, align 1, !dbg !4879
  call void @llvm.dbg.declare(metadata i8* %74, metadata !4881, metadata !DIExpression()), !dbg !4882
  %95 = bitcast %"class.std::__1::basic_filebuf"* %86 to %"class.std::__1::basic_streambuf"*, !dbg !4883
  store %"class.std::__1::basic_streambuf"* %95, %"class.std::__1::basic_streambuf"** %70, align 8
  %96 = load %"class.std::__1::basic_streambuf"*, %"class.std::__1::basic_streambuf"** %70, align 8
  %97 = getelementptr inbounds %"class.std::__1::basic_streambuf", %"class.std::__1::basic_streambuf"* %96, i32 0, i32 3, !dbg !4884
  %98 = load i8*, i8** %97, align 8, !dbg !4884
  %99 = icmp eq i8* %98, null, !dbg !4885
  br i1 %99, label %100, label %111, !dbg !4886

; <label>:100:                                    ; preds = %92
  %101 = bitcast %"class.std::__1::basic_filebuf"* %86 to %"class.std::__1::basic_streambuf"*, !dbg !4887
  %102 = getelementptr inbounds i8, i8* %74, i64 1, !dbg !4888
  %103 = getelementptr inbounds i8, i8* %74, i64 1, !dbg !4889
  store %"class.std::__1::basic_streambuf"* %101, %"class.std::__1::basic_streambuf"** %61, align 8
  store i8* %74, i8** %62, align 8
  store i8* %102, i8** %63, align 8
  store i8* %103, i8** %64, align 8
  %104 = load %"class.std::__1::basic_streambuf"*, %"class.std::__1::basic_streambuf"** %61, align 8
  %105 = load i8*, i8** %62, align 8, !dbg !4890
  %106 = getelementptr inbounds %"class.std::__1::basic_streambuf", %"class.std::__1::basic_streambuf"* %104, i32 0, i32 2, !dbg !4891
  store i8* %105, i8** %106, align 8, !dbg !4892
  %107 = load i8*, i8** %63, align 8, !dbg !4893
  %108 = getelementptr inbounds %"class.std::__1::basic_streambuf", %"class.std::__1::basic_streambuf"* %104, i32 0, i32 3, !dbg !4894
  store i8* %107, i8** %108, align 8, !dbg !4895
  %109 = load i8*, i8** %64, align 8, !dbg !4896
  %110 = getelementptr inbounds %"class.std::__1::basic_streambuf", %"class.std::__1::basic_streambuf"* %104, i32 0, i32 4, !dbg !4897
  store i8* %109, i8** %110, align 8, !dbg !4898
  br label %111, !dbg !4899

; <label>:111:                                    ; preds = %100, %92
  call void @llvm.dbg.declare(metadata i64* %75, metadata !4900, metadata !DIExpression()), !dbg !4902
  %112 = load i8, i8* %73, align 1, !dbg !4903
  %113 = trunc i8 %112 to i1, !dbg !4903
  br i1 %113, label %114, label %115, !dbg !4903

; <label>:114:                                    ; preds = %111
  br label %145, !dbg !4903

; <label>:115:                                    ; preds = %111
  %116 = bitcast %"class.std::__1::basic_filebuf"* %86 to %"class.std::__1::basic_streambuf"*, !dbg !4904
  store %"class.std::__1::basic_streambuf"* %116, %"class.std::__1::basic_streambuf"** %59, align 8
  %117 = load %"class.std::__1::basic_streambuf"*, %"class.std::__1::basic_streambuf"** %59, align 8
  %118 = getelementptr inbounds %"class.std::__1::basic_streambuf", %"class.std::__1::basic_streambuf"* %117, i32 0, i32 4, !dbg !4905
  %119 = load i8*, i8** %118, align 8, !dbg !4905
  %120 = bitcast %"class.std::__1::basic_filebuf"* %86 to %"class.std::__1::basic_streambuf"*, !dbg !4906
  store %"class.std::__1::basic_streambuf"* %120, %"class.std::__1::basic_streambuf"** %50, align 8
  %121 = load %"class.std::__1::basic_streambuf"*, %"class.std::__1::basic_streambuf"** %50, align 8
  %122 = getelementptr inbounds %"class.std::__1::basic_streambuf", %"class.std::__1::basic_streambuf"* %121, i32 0, i32 2, !dbg !4907
  %123 = load i8*, i8** %122, align 8, !dbg !4907
  %124 = ptrtoint i8* %119 to i64, !dbg !4908
  %125 = ptrtoint i8* %123 to i64, !dbg !4908
  %126 = sub i64 %124, %125, !dbg !4908
  %127 = sdiv i64 %126, 2, !dbg !4909
  store i64 %127, i64* %76, align 8, !dbg !4910
  store i64 4, i64* %77, align 8, !dbg !4911
  store i64* %76, i64** %34, align 8
  store i64* %77, i64** %35, align 8
  %128 = load i64*, i64** %34, align 8, !dbg !4912
  %129 = load i64*, i64** %35, align 8, !dbg !4913
  store i64* %128, i64** %32, align 8
  store i64* %129, i64** %33, align 8
  %130 = load i64*, i64** %33, align 8, !dbg !4914
  %131 = load i64*, i64** %32, align 8, !dbg !4915
  store %"struct.std::__1::__less.6"* %31, %"struct.std::__1::__less.6"** %28, align 8
  store i64* %130, i64** %29, align 8
  store i64* %131, i64** %30, align 8
  %132 = load %"struct.std::__1::__less.6"*, %"struct.std::__1::__less.6"** %28, align 8
  %133 = load i64*, i64** %29, align 8, !dbg !4916
  %134 = load i64, i64* %133, align 8, !dbg !4916
  %135 = load i64*, i64** %30, align 8, !dbg !4917
  %136 = load i64, i64* %135, align 8, !dbg !4917
  %137 = icmp ult i64 %134, %136, !dbg !4918
  br i1 %137, label %138, label %140, !dbg !4919

; <label>:138:                                    ; preds = %115
  %139 = load i64*, i64** %33, align 8, !dbg !4920
  br label %142, !dbg !4919

; <label>:140:                                    ; preds = %115
  %141 = load i64*, i64** %32, align 8, !dbg !4921
  br label %142, !dbg !4919

; <label>:142:                                    ; preds = %138, %140
  %143 = phi i64* [ %139, %138 ], [ %141, %140 ], !dbg !4919
  %144 = load i64, i64* %143, align 8, !dbg !4922
  br label %145, !dbg !4903

; <label>:145:                                    ; preds = %142, %114
  %146 = phi i64 [ 0, %114 ], [ %144, %142 ], !dbg !4903
  store i64 %146, i64* %75, align 8, !dbg !4902
  call void @llvm.dbg.declare(metadata i32* %78, metadata !4923, metadata !DIExpression()), !dbg !4924
  %147 = call i32 @_ZNSt3__111char_traitsIcE3eofEv() #8, !dbg !4925
  store i32 %147, i32* %78, align 4, !dbg !4924
  %148 = bitcast %"class.std::__1::basic_filebuf"* %86 to %"class.std::__1::basic_streambuf"*, !dbg !4926
  store %"class.std::__1::basic_streambuf"* %148, %"class.std::__1::basic_streambuf"** %25, align 8
  %149 = load %"class.std::__1::basic_streambuf"*, %"class.std::__1::basic_streambuf"** %25, align 8
  %150 = getelementptr inbounds %"class.std::__1::basic_streambuf", %"class.std::__1::basic_streambuf"* %149, i32 0, i32 3, !dbg !4927
  %151 = load i8*, i8** %150, align 8, !dbg !4927
  %152 = bitcast %"class.std::__1::basic_filebuf"* %86 to %"class.std::__1::basic_streambuf"*, !dbg !4928
  store %"class.std::__1::basic_streambuf"* %152, %"class.std::__1::basic_streambuf"** %15, align 8
  %153 = load %"class.std::__1::basic_streambuf"*, %"class.std::__1::basic_streambuf"** %15, align 8
  %154 = getelementptr inbounds %"class.std::__1::basic_streambuf", %"class.std::__1::basic_streambuf"* %153, i32 0, i32 4, !dbg !4929
  %155 = load i8*, i8** %154, align 8, !dbg !4929
  %156 = icmp eq i8* %151, %155, !dbg !4930
  br i1 %156, label %157, label %427, !dbg !4931

; <label>:157:                                    ; preds = %145
  %158 = bitcast %"class.std::__1::basic_filebuf"* %86 to %"class.std::__1::basic_streambuf"*, !dbg !4932
  store %"class.std::__1::basic_streambuf"* %158, %"class.std::__1::basic_streambuf"** %2, align 8
  %159 = load %"class.std::__1::basic_streambuf"*, %"class.std::__1::basic_streambuf"** %2, align 8
  %160 = getelementptr inbounds %"class.std::__1::basic_streambuf", %"class.std::__1::basic_streambuf"* %159, i32 0, i32 2, !dbg !4933
  %161 = load i8*, i8** %160, align 8, !dbg !4933
  %162 = bitcast %"class.std::__1::basic_filebuf"* %86 to %"class.std::__1::basic_streambuf"*, !dbg !4934
  store %"class.std::__1::basic_streambuf"* %162, %"class.std::__1::basic_streambuf"** %3, align 8
  %163 = load %"class.std::__1::basic_streambuf"*, %"class.std::__1::basic_streambuf"** %3, align 8
  %164 = getelementptr inbounds %"class.std::__1::basic_streambuf", %"class.std::__1::basic_streambuf"* %163, i32 0, i32 4, !dbg !4935
  %165 = load i8*, i8** %164, align 8, !dbg !4935
  %166 = load i64, i64* %75, align 8, !dbg !4936
  %167 = sub i64 0, %166, !dbg !4937
  %168 = getelementptr inbounds i8, i8* %165, i64 %167, !dbg !4937
  %169 = load i64, i64* %75, align 8, !dbg !4938
  %170 = mul i64 %169, 1, !dbg !4939
  call void @llvm.memmove.p0i8.p0i8.i64(i8* align 1 %161, i8* align 1 %168, i64 %170, i1 false), !dbg !4940
  %171 = getelementptr inbounds %"class.std::__1::basic_filebuf", %"class.std::__1::basic_filebuf"* %86, i32 0, i32 16, !dbg !4941
  %172 = load i8, i8* %171, align 2, !dbg !4941
  %173 = trunc i8 %172 to i1, !dbg !4941
  br i1 %173, label %174, label %234, !dbg !4942

; <label>:174:                                    ; preds = %157
  call void @llvm.dbg.declare(metadata i64* %79, metadata !4943, metadata !DIExpression()), !dbg !4944
  %175 = bitcast %"class.std::__1::basic_filebuf"* %86 to %"class.std::__1::basic_streambuf"*, !dbg !4945
  store %"class.std::__1::basic_streambuf"* %175, %"class.std::__1::basic_streambuf"** %4, align 8
  %176 = load %"class.std::__1::basic_streambuf"*, %"class.std::__1::basic_streambuf"** %4, align 8
  %177 = getelementptr inbounds %"class.std::__1::basic_streambuf", %"class.std::__1::basic_streambuf"* %176, i32 0, i32 4, !dbg !4946
  %178 = load i8*, i8** %177, align 8, !dbg !4946
  %179 = bitcast %"class.std::__1::basic_filebuf"* %86 to %"class.std::__1::basic_streambuf"*, !dbg !4947
  store %"class.std::__1::basic_streambuf"* %179, %"class.std::__1::basic_streambuf"** %5, align 8
  %180 = load %"class.std::__1::basic_streambuf"*, %"class.std::__1::basic_streambuf"** %5, align 8
  %181 = getelementptr inbounds %"class.std::__1::basic_streambuf", %"class.std::__1::basic_streambuf"* %180, i32 0, i32 2, !dbg !4948
  %182 = load i8*, i8** %181, align 8, !dbg !4948
  %183 = ptrtoint i8* %178 to i64, !dbg !4949
  %184 = ptrtoint i8* %182 to i64, !dbg !4949
  %185 = sub i64 %183, %184, !dbg !4949
  %186 = load i64, i64* %75, align 8, !dbg !4950
  %187 = sub i64 %185, %186, !dbg !4951
  store i64 %187, i64* %79, align 8, !dbg !4944
  %188 = bitcast %"class.std::__1::basic_filebuf"* %86 to %"class.std::__1::basic_streambuf"*, !dbg !4952
  store %"class.std::__1::basic_streambuf"* %188, %"class.std::__1::basic_streambuf"** %6, align 8
  %189 = load %"class.std::__1::basic_streambuf"*, %"class.std::__1::basic_streambuf"** %6, align 8
  %190 = getelementptr inbounds %"class.std::__1::basic_streambuf", %"class.std::__1::basic_streambuf"* %189, i32 0, i32 2, !dbg !4953
  %191 = load i8*, i8** %190, align 8, !dbg !4953
  %192 = load i64, i64* %75, align 8, !dbg !4954
  %193 = getelementptr inbounds i8, i8* %191, i64 %192, !dbg !4955
  %194 = load i64, i64* %79, align 8, !dbg !4956
  %195 = getelementptr inbounds %"class.std::__1::basic_filebuf", %"class.std::__1::basic_filebuf"* %86, i32 0, i32 8, !dbg !4957
  %196 = load %struct.__sFILE*, %struct.__sFILE** %195, align 8, !dbg !4957
  %197 = call i64 @fread(i8* %193, i64 1, i64 %194, %struct.__sFILE* %196), !dbg !4958
  store i64 %197, i64* %79, align 8, !dbg !4959
  %198 = load i64, i64* %79, align 8, !dbg !4960
  %199 = icmp ne i64 %198, 0, !dbg !4961
  br i1 %199, label %200, label %233, !dbg !4962

; <label>:200:                                    ; preds = %174
  %201 = bitcast %"class.std::__1::basic_filebuf"* %86 to %"class.std::__1::basic_streambuf"*, !dbg !4963
  %202 = bitcast %"class.std::__1::basic_filebuf"* %86 to %"class.std::__1::basic_streambuf"*, !dbg !4964
  store %"class.std::__1::basic_streambuf"* %202, %"class.std::__1::basic_streambuf"** %7, align 8
  %203 = load %"class.std::__1::basic_streambuf"*, %"class.std::__1::basic_streambuf"** %7, align 8
  %204 = getelementptr inbounds %"class.std::__1::basic_streambuf", %"class.std::__1::basic_streambuf"* %203, i32 0, i32 2, !dbg !4965
  %205 = load i8*, i8** %204, align 8, !dbg !4965
  %206 = bitcast %"class.std::__1::basic_filebuf"* %86 to %"class.std::__1::basic_streambuf"*, !dbg !4966
  store %"class.std::__1::basic_streambuf"* %206, %"class.std::__1::basic_streambuf"** %8, align 8
  %207 = load %"class.std::__1::basic_streambuf"*, %"class.std::__1::basic_streambuf"** %8, align 8
  %208 = getelementptr inbounds %"class.std::__1::basic_streambuf", %"class.std::__1::basic_streambuf"* %207, i32 0, i32 2, !dbg !4967
  %209 = load i8*, i8** %208, align 8, !dbg !4967
  %210 = load i64, i64* %75, align 8, !dbg !4968
  %211 = getelementptr inbounds i8, i8* %209, i64 %210, !dbg !4969
  %212 = bitcast %"class.std::__1::basic_filebuf"* %86 to %"class.std::__1::basic_streambuf"*, !dbg !4970
  store %"class.std::__1::basic_streambuf"* %212, %"class.std::__1::basic_streambuf"** %9, align 8
  %213 = load %"class.std::__1::basic_streambuf"*, %"class.std::__1::basic_streambuf"** %9, align 8
  %214 = getelementptr inbounds %"class.std::__1::basic_streambuf", %"class.std::__1::basic_streambuf"* %213, i32 0, i32 2, !dbg !4971
  %215 = load i8*, i8** %214, align 8, !dbg !4971
  %216 = load i64, i64* %75, align 8, !dbg !4972
  %217 = getelementptr inbounds i8, i8* %215, i64 %216, !dbg !4973
  %218 = load i64, i64* %79, align 8, !dbg !4974
  %219 = getelementptr inbounds i8, i8* %217, i64 %218, !dbg !4975
  store %"class.std::__1::basic_streambuf"* %201, %"class.std::__1::basic_streambuf"** %10, align 8
  store i8* %205, i8** %11, align 8
  store i8* %211, i8** %12, align 8
  store i8* %219, i8** %13, align 8
  %220 = load %"class.std::__1::basic_streambuf"*, %"class.std::__1::basic_streambuf"** %10, align 8
  %221 = load i8*, i8** %11, align 8, !dbg !4976
  %222 = getelementptr inbounds %"class.std::__1::basic_streambuf", %"class.std::__1::basic_streambuf"* %220, i32 0, i32 2, !dbg !4977
  store i8* %221, i8** %222, align 8, !dbg !4978
  %223 = load i8*, i8** %12, align 8, !dbg !4979
  %224 = getelementptr inbounds %"class.std::__1::basic_streambuf", %"class.std::__1::basic_streambuf"* %220, i32 0, i32 3, !dbg !4980
  store i8* %223, i8** %224, align 8, !dbg !4981
  %225 = load i8*, i8** %13, align 8, !dbg !4982
  %226 = getelementptr inbounds %"class.std::__1::basic_streambuf", %"class.std::__1::basic_streambuf"* %220, i32 0, i32 4, !dbg !4983
  store i8* %225, i8** %226, align 8, !dbg !4984
  %227 = bitcast %"class.std::__1::basic_filebuf"* %86 to %"class.std::__1::basic_streambuf"*, !dbg !4985
  store %"class.std::__1::basic_streambuf"* %227, %"class.std::__1::basic_streambuf"** %14, align 8
  %228 = load %"class.std::__1::basic_streambuf"*, %"class.std::__1::basic_streambuf"** %14, align 8
  %229 = getelementptr inbounds %"class.std::__1::basic_streambuf", %"class.std::__1::basic_streambuf"* %228, i32 0, i32 3, !dbg !4986
  %230 = load i8*, i8** %229, align 8, !dbg !4986
  %231 = load i8, i8* %230, align 1, !dbg !4987
  %232 = call i32 @_ZNSt3__111char_traitsIcE11to_int_typeEc(i8 signext %231) #8, !dbg !4988
  store i32 %232, i32* %78, align 4, !dbg !4989
  br label %233, !dbg !4990

; <label>:233:                                    ; preds = %200, %174
  br label %426, !dbg !4991

; <label>:234:                                    ; preds = %157
  %235 = getelementptr inbounds %"class.std::__1::basic_filebuf", %"class.std::__1::basic_filebuf"* %86, i32 0, i32 3, !dbg !4992
  %236 = load i8*, i8** %235, align 8, !dbg !4992
  %237 = getelementptr inbounds %"class.std::__1::basic_filebuf", %"class.std::__1::basic_filebuf"* %86, i32 0, i32 2, !dbg !4994
  %238 = load i8*, i8** %237, align 8, !dbg !4994
  %239 = icmp ne i8* %236, %238, !dbg !4995
  br i1 %239, label %240, label %252, !dbg !4996

; <label>:240:                                    ; preds = %234
  %241 = getelementptr inbounds %"class.std::__1::basic_filebuf", %"class.std::__1::basic_filebuf"* %86, i32 0, i32 1, !dbg !4997
  %242 = load i8*, i8** %241, align 8, !dbg !4997
  %243 = getelementptr inbounds %"class.std::__1::basic_filebuf", %"class.std::__1::basic_filebuf"* %86, i32 0, i32 2, !dbg !4998
  %244 = load i8*, i8** %243, align 8, !dbg !4998
  %245 = getelementptr inbounds %"class.std::__1::basic_filebuf", %"class.std::__1::basic_filebuf"* %86, i32 0, i32 3, !dbg !4999
  %246 = load i8*, i8** %245, align 8, !dbg !4999
  %247 = getelementptr inbounds %"class.std::__1::basic_filebuf", %"class.std::__1::basic_filebuf"* %86, i32 0, i32 2, !dbg !5000
  %248 = load i8*, i8** %247, align 8, !dbg !5000
  %249 = ptrtoint i8* %246 to i64, !dbg !5001
  %250 = ptrtoint i8* %248 to i64, !dbg !5001
  %251 = sub i64 %249, %250, !dbg !5001
  call void @llvm.memmove.p0i8.p0i8.i64(i8* align 1 %242, i8* align 1 %244, i64 %251, i1 false), !dbg !5002
  br label %252, !dbg !5002

; <label>:252:                                    ; preds = %240, %234
  %253 = getelementptr inbounds %"class.std::__1::basic_filebuf", %"class.std::__1::basic_filebuf"* %86, i32 0, i32 1, !dbg !5003
  %254 = load i8*, i8** %253, align 8, !dbg !5003
  %255 = getelementptr inbounds %"class.std::__1::basic_filebuf", %"class.std::__1::basic_filebuf"* %86, i32 0, i32 3, !dbg !5004
  %256 = load i8*, i8** %255, align 8, !dbg !5004
  %257 = getelementptr inbounds %"class.std::__1::basic_filebuf", %"class.std::__1::basic_filebuf"* %86, i32 0, i32 2, !dbg !5005
  %258 = load i8*, i8** %257, align 8, !dbg !5005
  %259 = ptrtoint i8* %256 to i64, !dbg !5006
  %260 = ptrtoint i8* %258 to i64, !dbg !5006
  %261 = sub i64 %259, %260, !dbg !5006
  %262 = getelementptr inbounds i8, i8* %254, i64 %261, !dbg !5007
  %263 = getelementptr inbounds %"class.std::__1::basic_filebuf", %"class.std::__1::basic_filebuf"* %86, i32 0, i32 2, !dbg !5008
  store i8* %262, i8** %263, align 8, !dbg !5009
  %264 = getelementptr inbounds %"class.std::__1::basic_filebuf", %"class.std::__1::basic_filebuf"* %86, i32 0, i32 1, !dbg !5010
  %265 = load i8*, i8** %264, align 8, !dbg !5010
  %266 = getelementptr inbounds %"class.std::__1::basic_filebuf", %"class.std::__1::basic_filebuf"* %86, i32 0, i32 1, !dbg !5011
  %267 = load i8*, i8** %266, align 8, !dbg !5011
  %268 = getelementptr inbounds %"class.std::__1::basic_filebuf", %"class.std::__1::basic_filebuf"* %86, i32 0, i32 4, !dbg !5012
  %269 = getelementptr inbounds [8 x i8], [8 x i8]* %268, i32 0, i32 0, !dbg !5012
  %270 = icmp eq i8* %267, %269, !dbg !5013
  br i1 %270, label %271, label %272, !dbg !5011

; <label>:271:                                    ; preds = %252
  br label %275, !dbg !5011

; <label>:272:                                    ; preds = %252
  %273 = getelementptr inbounds %"class.std::__1::basic_filebuf", %"class.std::__1::basic_filebuf"* %86, i32 0, i32 5, !dbg !5014
  %274 = load i64, i64* %273, align 8, !dbg !5014
  br label %275, !dbg !5011

; <label>:275:                                    ; preds = %272, %271
  %276 = phi i64 [ 8, %271 ], [ %274, %272 ], !dbg !5011
  %277 = getelementptr inbounds i8, i8* %265, i64 %276, !dbg !5015
  %278 = getelementptr inbounds %"class.std::__1::basic_filebuf", %"class.std::__1::basic_filebuf"* %86, i32 0, i32 3, !dbg !5016
  store i8* %277, i8** %278, align 8, !dbg !5017
  call void @llvm.dbg.declare(metadata i64* %80, metadata !5018, metadata !DIExpression()), !dbg !5019
  %279 = getelementptr inbounds %"class.std::__1::basic_filebuf", %"class.std::__1::basic_filebuf"* %86, i32 0, i32 7, !dbg !5020
  %280 = load i64, i64* %279, align 8, !dbg !5020
  %281 = load i64, i64* %75, align 8, !dbg !5021
  %282 = sub i64 %280, %281, !dbg !5022
  store i64 %282, i64* %81, align 8, !dbg !5023
  %283 = getelementptr inbounds %"class.std::__1::basic_filebuf", %"class.std::__1::basic_filebuf"* %86, i32 0, i32 3, !dbg !5024
  %284 = load i8*, i8** %283, align 8, !dbg !5024
  %285 = getelementptr inbounds %"class.std::__1::basic_filebuf", %"class.std::__1::basic_filebuf"* %86, i32 0, i32 2, !dbg !5025
  %286 = load i8*, i8** %285, align 8, !dbg !5025
  %287 = ptrtoint i8* %284 to i64, !dbg !5026
  %288 = ptrtoint i8* %286 to i64, !dbg !5026
  %289 = sub i64 %287, %288, !dbg !5026
  store i64 %289, i64* %82, align 8, !dbg !5027
  store i64* %81, i64** %22, align 8
  store i64* %82, i64** %23, align 8
  %290 = load i64*, i64** %22, align 8, !dbg !5028
  %291 = load i64*, i64** %23, align 8, !dbg !5029
  store i64* %290, i64** %20, align 8
  store i64* %291, i64** %21, align 8
  %292 = load i64*, i64** %21, align 8, !dbg !5030
  %293 = load i64*, i64** %20, align 8, !dbg !5031
  store %"struct.std::__1::__less.6"* %19, %"struct.std::__1::__less.6"** %16, align 8
  store i64* %292, i64** %17, align 8
  store i64* %293, i64** %18, align 8
  %294 = load %"struct.std::__1::__less.6"*, %"struct.std::__1::__less.6"** %16, align 8
  %295 = load i64*, i64** %17, align 8, !dbg !5032
  %296 = load i64, i64* %295, align 8, !dbg !5032
  %297 = load i64*, i64** %18, align 8, !dbg !5033
  %298 = load i64, i64* %297, align 8, !dbg !5033
  %299 = icmp ult i64 %296, %298, !dbg !5034
  br i1 %299, label %300, label %302, !dbg !5035

; <label>:300:                                    ; preds = %275
  %301 = load i64*, i64** %21, align 8, !dbg !5036
  br label %304, !dbg !5035

; <label>:302:                                    ; preds = %275
  %303 = load i64*, i64** %20, align 8, !dbg !5037
  br label %304, !dbg !5035

; <label>:304:                                    ; preds = %300, %302
  %305 = phi i64* [ %301, %300 ], [ %303, %302 ], !dbg !5035
  %306 = load i64, i64* %305, align 8, !dbg !5038
  store i64 %306, i64* %80, align 8, !dbg !5019
  call void @llvm.dbg.declare(metadata i32* %83, metadata !5039, metadata !DIExpression()), !dbg !5040
  %307 = getelementptr inbounds %"class.std::__1::basic_filebuf", %"class.std::__1::basic_filebuf"* %86, i32 0, i32 10, !dbg !5041
  %308 = getelementptr inbounds %"class.std::__1::basic_filebuf", %"class.std::__1::basic_filebuf"* %86, i32 0, i32 11, !dbg !5042
  %309 = bitcast %union.__mbstate_t* %308 to i8*, !dbg !5043
  %310 = bitcast %union.__mbstate_t* %307 to i8*, !dbg !5043
  call void @llvm.memcpy.p0i8.p0i8.i64(i8* align 8 %309, i8* align 8 %310, i64 128, i1 false), !dbg !5043
  call void @llvm.dbg.declare(metadata i64* %84, metadata !5044, metadata !DIExpression()), !dbg !5045
  %311 = getelementptr inbounds %"class.std::__1::basic_filebuf", %"class.std::__1::basic_filebuf"* %86, i32 0, i32 2, !dbg !5046
  %312 = load i8*, i8** %311, align 8, !dbg !5046
  %313 = load i64, i64* %80, align 8, !dbg !5047
  %314 = getelementptr inbounds %"class.std::__1::basic_filebuf", %"class.std::__1::basic_filebuf"* %86, i32 0, i32 8, !dbg !5048
  %315 = load %struct.__sFILE*, %struct.__sFILE** %314, align 8, !dbg !5048
  %316 = call i64 @fread(i8* %312, i64 1, i64 %313, %struct.__sFILE* %315), !dbg !5049
  store i64 %316, i64* %84, align 8, !dbg !5045
  %317 = load i64, i64* %84, align 8, !dbg !5050
  %318 = icmp ne i64 %317, 0, !dbg !5051
  br i1 %318, label %319, label %425, !dbg !5052

; <label>:319:                                    ; preds = %304
  %320 = getelementptr inbounds %"class.std::__1::basic_filebuf", %"class.std::__1::basic_filebuf"* %86, i32 0, i32 9, !dbg !5053
  %321 = load %"class.std::__1::codecvt"*, %"class.std::__1::codecvt"** %320, align 8, !dbg !5053
  %322 = icmp ne %"class.std::__1::codecvt"* %321, null, !dbg !5053
  br i1 %322, label %325, label %323, !dbg !5055

; <label>:323:                                    ; preds = %319
  call void @abort() #11, !dbg !5056
  unreachable, !dbg !5056
                                                  ; No predecessors!
  unreachable, !dbg !5058

; <label>:325:                                    ; preds = %319
  %326 = getelementptr inbounds %"class.std::__1::basic_filebuf", %"class.std::__1::basic_filebuf"* %86, i32 0, i32 2, !dbg !5059
  %327 = load i8*, i8** %326, align 8, !dbg !5059
  %328 = load i64, i64* %84, align 8, !dbg !5060
  %329 = getelementptr inbounds i8, i8* %327, i64 %328, !dbg !5061
  %330 = getelementptr inbounds %"class.std::__1::basic_filebuf", %"class.std::__1::basic_filebuf"* %86, i32 0, i32 3, !dbg !5062
  store i8* %329, i8** %330, align 8, !dbg !5063
  call void @llvm.dbg.declare(metadata i8** %85, metadata !5064, metadata !DIExpression()), !dbg !5065
  %331 = getelementptr inbounds %"class.std::__1::basic_filebuf", %"class.std::__1::basic_filebuf"* %86, i32 0, i32 9, !dbg !5066
  %332 = load %"class.std::__1::codecvt"*, %"class.std::__1::codecvt"** %331, align 8, !dbg !5066
  %333 = getelementptr inbounds %"class.std::__1::basic_filebuf", %"class.std::__1::basic_filebuf"* %86, i32 0, i32 10, !dbg !5067
  %334 = getelementptr inbounds %"class.std::__1::basic_filebuf", %"class.std::__1::basic_filebuf"* %86, i32 0, i32 1, !dbg !5068
  %335 = load i8*, i8** %334, align 8, !dbg !5068
  %336 = getelementptr inbounds %"class.std::__1::basic_filebuf", %"class.std::__1::basic_filebuf"* %86, i32 0, i32 3, !dbg !5069
  %337 = load i8*, i8** %336, align 8, !dbg !5069
  %338 = getelementptr inbounds %"class.std::__1::basic_filebuf", %"class.std::__1::basic_filebuf"* %86, i32 0, i32 2, !dbg !5070
  %339 = bitcast %"class.std::__1::basic_filebuf"* %86 to %"class.std::__1::basic_streambuf"*, !dbg !5071
  store %"class.std::__1::basic_streambuf"* %339, %"class.std::__1::basic_streambuf"** %26, align 8
  %340 = load %"class.std::__1::basic_streambuf"*, %"class.std::__1::basic_streambuf"** %26, align 8
  %341 = getelementptr inbounds %"class.std::__1::basic_streambuf", %"class.std::__1::basic_streambuf"* %340, i32 0, i32 2, !dbg !5072
  %342 = load i8*, i8** %341, align 8, !dbg !5072
  %343 = load i64, i64* %75, align 8, !dbg !5073
  %344 = getelementptr inbounds i8, i8* %342, i64 %343, !dbg !5074
  %345 = bitcast %"class.std::__1::basic_filebuf"* %86 to %"class.std::__1::basic_streambuf"*, !dbg !5075
  store %"class.std::__1::basic_streambuf"* %345, %"class.std::__1::basic_streambuf"** %27, align 8
  %346 = load %"class.std::__1::basic_streambuf"*, %"class.std::__1::basic_streambuf"** %27, align 8
  %347 = getelementptr inbounds %"class.std::__1::basic_streambuf", %"class.std::__1::basic_streambuf"* %346, i32 0, i32 2, !dbg !5076
  %348 = load i8*, i8** %347, align 8, !dbg !5076
  %349 = getelementptr inbounds %"class.std::__1::basic_filebuf", %"class.std::__1::basic_filebuf"* %86, i32 0, i32 7, !dbg !5077
  %350 = load i64, i64* %349, align 8, !dbg !5077
  %351 = getelementptr inbounds i8, i8* %348, i64 %350, !dbg !5078
  store %"class.std::__1::codecvt"* %332, %"class.std::__1::codecvt"** %37, align 8
  store %union.__mbstate_t* %333, %union.__mbstate_t** %38, align 8
  store i8* %335, i8** %39, align 8
  store i8* %337, i8** %40, align 8
  store i8** %338, i8*** %41, align 8
  store i8* %344, i8** %42, align 8
  store i8* %351, i8** %43, align 8
  store i8** %85, i8*** %44, align 8
  %352 = load %"class.std::__1::codecvt"*, %"class.std::__1::codecvt"** %37, align 8
  %353 = bitcast %"class.std::__1::codecvt"* %352 to i32 (%"class.std::__1::codecvt"*, %union.__mbstate_t*, i8*, i8*, i8**, i8*, i8*, i8**)***, !dbg !5079
  %354 = load i32 (%"class.std::__1::codecvt"*, %union.__mbstate_t*, i8*, i8*, i8**, i8*, i8*, i8**)**, i32 (%"class.std::__1::codecvt"*, %union.__mbstate_t*, i8*, i8*, i8**, i8*, i8*, i8**)*** %353, align 8, !dbg !5079
  %355 = getelementptr inbounds i32 (%"class.std::__1::codecvt"*, %union.__mbstate_t*, i8*, i8*, i8**, i8*, i8*, i8**)*, i32 (%"class.std::__1::codecvt"*, %union.__mbstate_t*, i8*, i8*, i8**, i8*, i8*, i8**)** %354, i64 4, !dbg !5079
  %356 = load i32 (%"class.std::__1::codecvt"*, %union.__mbstate_t*, i8*, i8*, i8**, i8*, i8*, i8**)*, i32 (%"class.std::__1::codecvt"*, %union.__mbstate_t*, i8*, i8*, i8**, i8*, i8*, i8**)** %355, align 8, !dbg !5079
  %357 = load %union.__mbstate_t*, %union.__mbstate_t** %38, align 8, !dbg !5080
  %358 = load i8*, i8** %39, align 8, !dbg !5081
  %359 = load i8*, i8** %40, align 8, !dbg !5082
  %360 = load i8**, i8*** %41, align 8, !dbg !5083
  %361 = load i8*, i8** %42, align 8, !dbg !5084
  %362 = load i8*, i8** %43, align 8, !dbg !5085
  %363 = load i8**, i8*** %44, align 8, !dbg !5086
  %364 = call i32 %356(%"class.std::__1::codecvt"* %352, %union.__mbstate_t* dereferenceable(128) %357, i8* %358, i8* %359, i8** dereferenceable(8) %360, i8* %361, i8* %362, i8** dereferenceable(8) %363) #8, !dbg !5079
  store i32 %364, i32* %83, align 4, !dbg !5087
  %365 = load i32, i32* %83, align 4, !dbg !5088
  %366 = icmp eq i32 %365, 3, !dbg !5089
  br i1 %366, label %367, label %388, !dbg !5090

; <label>:367:                                    ; preds = %325
  %368 = bitcast %"class.std::__1::basic_filebuf"* %86 to %"class.std::__1::basic_streambuf"*, !dbg !5091
  %369 = getelementptr inbounds %"class.std::__1::basic_filebuf", %"class.std::__1::basic_filebuf"* %86, i32 0, i32 1, !dbg !5092
  %370 = load i8*, i8** %369, align 8, !dbg !5092
  %371 = getelementptr inbounds %"class.std::__1::basic_filebuf", %"class.std::__1::basic_filebuf"* %86, i32 0, i32 1, !dbg !5093
  %372 = load i8*, i8** %371, align 8, !dbg !5093
  %373 = getelementptr inbounds %"class.std::__1::basic_filebuf", %"class.std::__1::basic_filebuf"* %86, i32 0, i32 3, !dbg !5094
  %374 = load i8*, i8** %373, align 8, !dbg !5094
  store %"class.std::__1::basic_streambuf"* %368, %"class.std::__1::basic_streambuf"** %45, align 8
  store i8* %370, i8** %46, align 8
  store i8* %372, i8** %47, align 8
  store i8* %374, i8** %48, align 8
  %375 = load %"class.std::__1::basic_streambuf"*, %"class.std::__1::basic_streambuf"** %45, align 8
  %376 = load i8*, i8** %46, align 8, !dbg !5095
  %377 = getelementptr inbounds %"class.std::__1::basic_streambuf", %"class.std::__1::basic_streambuf"* %375, i32 0, i32 2, !dbg !5096
  store i8* %376, i8** %377, align 8, !dbg !5097
  %378 = load i8*, i8** %47, align 8, !dbg !5098
  %379 = getelementptr inbounds %"class.std::__1::basic_streambuf", %"class.std::__1::basic_streambuf"* %375, i32 0, i32 3, !dbg !5099
  store i8* %378, i8** %379, align 8, !dbg !5100
  %380 = load i8*, i8** %48, align 8, !dbg !5101
  %381 = getelementptr inbounds %"class.std::__1::basic_streambuf", %"class.std::__1::basic_streambuf"* %375, i32 0, i32 4, !dbg !5102
  store i8* %380, i8** %381, align 8, !dbg !5103
  %382 = bitcast %"class.std::__1::basic_filebuf"* %86 to %"class.std::__1::basic_streambuf"*, !dbg !5104
  store %"class.std::__1::basic_streambuf"* %382, %"class.std::__1::basic_streambuf"** %49, align 8
  %383 = load %"class.std::__1::basic_streambuf"*, %"class.std::__1::basic_streambuf"** %49, align 8
  %384 = getelementptr inbounds %"class.std::__1::basic_streambuf", %"class.std::__1::basic_streambuf"* %383, i32 0, i32 3, !dbg !5105
  %385 = load i8*, i8** %384, align 8, !dbg !5105
  %386 = load i8, i8* %385, align 1, !dbg !5106
  %387 = call i32 @_ZNSt3__111char_traitsIcE11to_int_typeEc(i8 signext %386) #8, !dbg !5107
  store i32 %387, i32* %78, align 4, !dbg !5108
  br label %424, !dbg !5109

; <label>:388:                                    ; preds = %325
  %389 = load i8*, i8** %85, align 8, !dbg !5110
  %390 = bitcast %"class.std::__1::basic_filebuf"* %86 to %"class.std::__1::basic_streambuf"*, !dbg !5111
  store %"class.std::__1::basic_streambuf"* %390, %"class.std::__1::basic_streambuf"** %51, align 8
  %391 = load %"class.std::__1::basic_streambuf"*, %"class.std::__1::basic_streambuf"** %51, align 8
  %392 = getelementptr inbounds %"class.std::__1::basic_streambuf", %"class.std::__1::basic_streambuf"* %391, i32 0, i32 2, !dbg !5112
  %393 = load i8*, i8** %392, align 8, !dbg !5112
  %394 = load i64, i64* %75, align 8, !dbg !5113
  %395 = getelementptr inbounds i8, i8* %393, i64 %394, !dbg !5114
  %396 = icmp ne i8* %389, %395, !dbg !5115
  br i1 %396, label %397, label %423, !dbg !5116

; <label>:397:                                    ; preds = %388
  %398 = bitcast %"class.std::__1::basic_filebuf"* %86 to %"class.std::__1::basic_streambuf"*, !dbg !5117
  %399 = bitcast %"class.std::__1::basic_filebuf"* %86 to %"class.std::__1::basic_streambuf"*, !dbg !5118
  store %"class.std::__1::basic_streambuf"* %399, %"class.std::__1::basic_streambuf"** %52, align 8
  %400 = load %"class.std::__1::basic_streambuf"*, %"class.std::__1::basic_streambuf"** %52, align 8
  %401 = getelementptr inbounds %"class.std::__1::basic_streambuf", %"class.std::__1::basic_streambuf"* %400, i32 0, i32 2, !dbg !5119
  %402 = load i8*, i8** %401, align 8, !dbg !5119
  %403 = bitcast %"class.std::__1::basic_filebuf"* %86 to %"class.std::__1::basic_streambuf"*, !dbg !5120
  store %"class.std::__1::basic_streambuf"* %403, %"class.std::__1::basic_streambuf"** %53, align 8
  %404 = load %"class.std::__1::basic_streambuf"*, %"class.std::__1::basic_streambuf"** %53, align 8
  %405 = getelementptr inbounds %"class.std::__1::basic_streambuf", %"class.std::__1::basic_streambuf"* %404, i32 0, i32 2, !dbg !5121
  %406 = load i8*, i8** %405, align 8, !dbg !5121
  %407 = load i64, i64* %75, align 8, !dbg !5122
  %408 = getelementptr inbounds i8, i8* %406, i64 %407, !dbg !5123
  %409 = load i8*, i8** %85, align 8, !dbg !5124
  store %"class.std::__1::basic_streambuf"* %398, %"class.std::__1::basic_streambuf"** %54, align 8
  store i8* %402, i8** %55, align 8
  store i8* %408, i8** %56, align 8
  store i8* %409, i8** %57, align 8
  %410 = load %"class.std::__1::basic_streambuf"*, %"class.std::__1::basic_streambuf"** %54, align 8
  %411 = load i8*, i8** %55, align 8, !dbg !5125
  %412 = getelementptr inbounds %"class.std::__1::basic_streambuf", %"class.std::__1::basic_streambuf"* %410, i32 0, i32 2, !dbg !5126
  store i8* %411, i8** %412, align 8, !dbg !5127
  %413 = load i8*, i8** %56, align 8, !dbg !5128
  %414 = getelementptr inbounds %"class.std::__1::basic_streambuf", %"class.std::__1::basic_streambuf"* %410, i32 0, i32 3, !dbg !5129
  store i8* %413, i8** %414, align 8, !dbg !5130
  %415 = load i8*, i8** %57, align 8, !dbg !5131
  %416 = getelementptr inbounds %"class.std::__1::basic_streambuf", %"class.std::__1::basic_streambuf"* %410, i32 0, i32 4, !dbg !5132
  store i8* %415, i8** %416, align 8, !dbg !5133
  %417 = bitcast %"class.std::__1::basic_filebuf"* %86 to %"class.std::__1::basic_streambuf"*, !dbg !5134
  store %"class.std::__1::basic_streambuf"* %417, %"class.std::__1::basic_streambuf"** %58, align 8
  %418 = load %"class.std::__1::basic_streambuf"*, %"class.std::__1::basic_streambuf"** %58, align 8
  %419 = getelementptr inbounds %"class.std::__1::basic_streambuf", %"class.std::__1::basic_streambuf"* %418, i32 0, i32 3, !dbg !5135
  %420 = load i8*, i8** %419, align 8, !dbg !5135
  %421 = load i8, i8* %420, align 1, !dbg !5136
  %422 = call i32 @_ZNSt3__111char_traitsIcE11to_int_typeEc(i8 signext %421) #8, !dbg !5137
  store i32 %422, i32* %78, align 4, !dbg !5138
  br label %423, !dbg !5139

; <label>:423:                                    ; preds = %397, %388
  br label %424

; <label>:424:                                    ; preds = %423, %367
  br label %425, !dbg !5140

; <label>:425:                                    ; preds = %424, %304
  br label %426

; <label>:426:                                    ; preds = %425, %233
  br label %434, !dbg !5141

; <label>:427:                                    ; preds = %145
  %428 = bitcast %"class.std::__1::basic_filebuf"* %86 to %"class.std::__1::basic_streambuf"*, !dbg !5142
  store %"class.std::__1::basic_streambuf"* %428, %"class.std::__1::basic_streambuf"** %60, align 8
  %429 = load %"class.std::__1::basic_streambuf"*, %"class.std::__1::basic_streambuf"** %60, align 8
  %430 = getelementptr inbounds %"class.std::__1::basic_streambuf", %"class.std::__1::basic_streambuf"* %429, i32 0, i32 3, !dbg !5143
  %431 = load i8*, i8** %430, align 8, !dbg !5143
  %432 = load i8, i8* %431, align 1, !dbg !5144
  %433 = call i32 @_ZNSt3__111char_traitsIcE11to_int_typeEc(i8 signext %432) #8, !dbg !5145
  store i32 %433, i32* %78, align 4, !dbg !5146
  br label %434

; <label>:434:                                    ; preds = %427, %426
  %435 = bitcast %"class.std::__1::basic_filebuf"* %86 to %"class.std::__1::basic_streambuf"*, !dbg !5147
  store %"class.std::__1::basic_streambuf"* %435, %"class.std::__1::basic_streambuf"** %65, align 8
  %436 = load %"class.std::__1::basic_streambuf"*, %"class.std::__1::basic_streambuf"** %65, align 8
  %437 = getelementptr inbounds %"class.std::__1::basic_streambuf", %"class.std::__1::basic_streambuf"* %436, i32 0, i32 2, !dbg !5148
  %438 = load i8*, i8** %437, align 8, !dbg !5148
  %439 = icmp eq i8* %438, %74, !dbg !5149
  br i1 %439, label %440, label %449, !dbg !5150

; <label>:440:                                    ; preds = %434
  %441 = bitcast %"class.std::__1::basic_filebuf"* %86 to %"class.std::__1::basic_streambuf"*, !dbg !5151
  store %"class.std::__1::basic_streambuf"* %441, %"class.std::__1::basic_streambuf"** %66, align 8
  store i8* null, i8** %67, align 8
  store i8* null, i8** %68, align 8
  store i8* null, i8** %69, align 8
  %442 = load %"class.std::__1::basic_streambuf"*, %"class.std::__1::basic_streambuf"** %66, align 8
  %443 = load i8*, i8** %67, align 8, !dbg !5152
  %444 = getelementptr inbounds %"class.std::__1::basic_streambuf", %"class.std::__1::basic_streambuf"* %442, i32 0, i32 2, !dbg !5153
  store i8* %443, i8** %444, align 8, !dbg !5154
  %445 = load i8*, i8** %68, align 8, !dbg !5155
  %446 = getelementptr inbounds %"class.std::__1::basic_streambuf", %"class.std::__1::basic_streambuf"* %442, i32 0, i32 3, !dbg !5156
  store i8* %445, i8** %446, align 8, !dbg !5157
  %447 = load i8*, i8** %69, align 8, !dbg !5158
  %448 = getelementptr inbounds %"class.std::__1::basic_streambuf", %"class.std::__1::basic_streambuf"* %442, i32 0, i32 4, !dbg !5159
  store i8* %447, i8** %448, align 8, !dbg !5160
  br label %449, !dbg !5161

; <label>:449:                                    ; preds = %440, %434
  %450 = load i32, i32* %78, align 4, !dbg !5162
  store i32 %450, i32* %71, align 4, !dbg !5163
  br label %451, !dbg !5163

; <label>:451:                                    ; preds = %449, %90
  %452 = load i32, i32* %71, align 4, !dbg !5164
  ret i32 %452, !dbg !5164
}

declare i32 @_ZNSt3__115basic_streambufIcNS_11char_traitsIcEEE5uflowEv(%"class.std::__1::basic_streambuf"*) unnamed_addr #2

; Function Attrs: noinline nounwind optnone ssp uwtable
define linkonce_odr i32 @_ZNSt3__113basic_filebufIcNS_11char_traitsIcEEE9pbackfailEi(%"class.std::__1::basic_filebuf"*, i32) unnamed_addr #0 align 2 !dbg !5165 {
  %3 = alloca %"class.std::__1::basic_streambuf"*, align 8
  call void @llvm.dbg.declare(metadata %"class.std::__1::basic_streambuf"** %3, metadata !4461, metadata !DIExpression()), !dbg !5166
  %4 = alloca %"class.std::__1::basic_streambuf"*, align 8
  call void @llvm.dbg.declare(metadata %"class.std::__1::basic_streambuf"** %4, metadata !5171, metadata !DIExpression()), !dbg !5173
  %5 = alloca i32, align 4
  call void @llvm.dbg.declare(metadata i32* %5, metadata !5176, metadata !DIExpression()), !dbg !5177
  %6 = alloca %"class.std::__1::basic_streambuf"*, align 8
  call void @llvm.dbg.declare(metadata %"class.std::__1::basic_streambuf"** %6, metadata !5171, metadata !DIExpression()), !dbg !5178
  %7 = alloca i32, align 4
  call void @llvm.dbg.declare(metadata i32* %7, metadata !5176, metadata !DIExpression()), !dbg !5182
  %8 = alloca %"class.std::__1::basic_streambuf"*, align 8
  call void @llvm.dbg.declare(metadata %"class.std::__1::basic_streambuf"** %8, metadata !4461, metadata !DIExpression()), !dbg !5183
  %9 = alloca %"class.std::__1::basic_streambuf"*, align 8
  call void @llvm.dbg.declare(metadata %"class.std::__1::basic_streambuf"** %9, metadata !4461, metadata !DIExpression()), !dbg !5185
  %10 = alloca %"class.std::__1::basic_streambuf"*, align 8
  call void @llvm.dbg.declare(metadata %"class.std::__1::basic_streambuf"** %10, metadata !4505, metadata !DIExpression()), !dbg !5187
  %11 = alloca i32, align 4
  %12 = alloca %"class.std::__1::basic_filebuf"*, align 8
  %13 = alloca i32, align 4
  store %"class.std::__1::basic_filebuf"* %0, %"class.std::__1::basic_filebuf"** %12, align 8
  call void @llvm.dbg.declare(metadata %"class.std::__1::basic_filebuf"** %12, metadata !5189, metadata !DIExpression()), !dbg !5190
  store i32 %1, i32* %13, align 4
  call void @llvm.dbg.declare(metadata i32* %13, metadata !5191, metadata !DIExpression()), !dbg !5192
  %14 = load %"class.std::__1::basic_filebuf"*, %"class.std::__1::basic_filebuf"** %12, align 8
  %15 = getelementptr inbounds %"class.std::__1::basic_filebuf", %"class.std::__1::basic_filebuf"* %14, i32 0, i32 8, !dbg !5193
  %16 = load %struct.__sFILE*, %struct.__sFILE** %15, align 8, !dbg !5193
  %17 = icmp ne %struct.__sFILE* %16, null, !dbg !5193
