; ModuleID = 'temp.bc'
source_filename = "../ac_lex_token_pos.cc"
target datalayout = "e-m:o-i64:64-f80:128-n8:16:32:64-S128"
target triple = "x86_64-apple-macosx10.13.0"

%"class.std::__1::locale::id" = type <{ %"struct.std::__1::once_flag", i32, [4 x i8] }>
%"struct.std::__1::once_flag" = type { i64 }
%"class.altered_carbon::js::ACLexToken" = type { i32 (...)**, i32, i64, %"class.std::__1::basic_string_view", %"struct.altered_carbon::js::ACLexPosition", %"class.std::__1::basic_string" }
%"class.std::__1::basic_string_view" = type { i8*, i64 }
%"struct.altered_carbon::js::ACLexPosition" = type { i32 (...)**, i64, i32, i64 }
%"class.std::__1::basic_string" = type { %"class.std::__1::__compressed_pair" }
%"class.std::__1::__compressed_pair" = type { %"struct.std::__1::__compressed_pair_elem" }
%"struct.std::__1::__compressed_pair_elem" = type { %"struct.std::__1::basic_string<wchar_t, std::__1::char_traits<wchar_t>, std::__1::allocator<wchar_t> >::__rep" }
%"struct.std::__1::basic_string<wchar_t, std::__1::char_traits<wchar_t>, std::__1::allocator<wchar_t> >::__rep" = type { %union.anon }
%union.anon = type { %"struct.std::__1::basic_string<wchar_t, std::__1::char_traits<wchar_t>, std::__1::allocator<wchar_t> >::__long" }
%"struct.std::__1::basic_string<wchar_t, std::__1::char_traits<wchar_t>, std::__1::allocator<wchar_t> >::__long" = type { i64, i64, i32* }
%"class.std::__1::allocator" = type { i8 }
%"struct.std::__1::__compressed_pair_elem.1" = type { i8 }
%"class.std::__1::__basic_string_common" = type { i8 }
%"struct.std::__1::basic_string<wchar_t, std::__1::char_traits<wchar_t>, std::__1::allocator<wchar_t> >::__raw" = type { [3 x i64] }
%"class.std::__1::basic_ostream" = type { i32 (...)**, %"class.std::__1::basic_ios.base" }
%"class.std::__1::basic_ios.base" = type <{ %"class.std::__1::ios_base", %"class.std::__1::basic_ostream"*, i32 }>
%"class.std::__1::ios_base" = type { i32 (...)**, i32, i64, i64, i32, i32, i8*, i8*, void (i32, %"class.std::__1::ios_base"*, i32)**, i32*, i64, i64, i64*, i64, i64, i8**, i64, i64 }
%"struct.std::__1::basic_string<wchar_t, std::__1::char_traits<wchar_t>, std::__1::allocator<wchar_t> >::__short" = type { %union.anon.0, [5 x i32] }
%union.anon.0 = type { i32 }
%"class.altered_carbon::js::ACLexNumberToken" = type <{ %"class.altered_carbon::js::ACLexToken", %"class.altered_carbon::js::ACLexNumber", i32, [4 x i8] }>
%"class.altered_carbon::js::ACLexNumber" = type { i32 (...)**, i8, %union.anon.2 }
%union.anon.2 = type { double }
%"class.altered_carbon::js::ACLexRegexToken" = type { %"class.altered_carbon::js::ACLexToken", %"class.std::__1::unique_ptr" }
%"class.std::__1::unique_ptr" = type { %"class.std::__1::__compressed_pair.3" }
%"class.std::__1::__compressed_pair.3" = type { %"struct.std::__1::__compressed_pair_elem.4" }
%"struct.std::__1::__compressed_pair_elem.4" = type { %"class.altered_carbon::js::ACLexRegex"* }
%"class.altered_carbon::js::ACLexRegex" = type <{ i32 (...)**, %"class.std::__1::basic_string.5", i8, i8, i8, [5 x i8] }>
%"class.std::__1::basic_string.5" = type { %"class.std::__1::__compressed_pair.6" }
%"class.std::__1::__compressed_pair.6" = type { %"struct.std::__1::__compressed_pair_elem.7" }
%"struct.std::__1::__compressed_pair_elem.7" = type { %"struct.std::__1::basic_string<char, std::__1::char_traits<char>, std::__1::allocator<char> >::__rep" }
%"struct.std::__1::basic_string<char, std::__1::char_traits<char>, std::__1::allocator<char> >::__rep" = type { %union.anon.8 }
%union.anon.8 = type { %"struct.std::__1::basic_string<char, std::__1::char_traits<char>, std::__1::allocator<char> >::__long" }
%"struct.std::__1::basic_string<char, std::__1::char_traits<char>, std::__1::allocator<char> >::__long" = type { i64, i64, i8* }
%"struct.std::__1::__compressed_pair_elem.13" = type { i8 }
%"struct.std::__1::default_delete" = type { i8 }
%"class.std::__1::ctype" = type <{ %"class.std::__1::locale::facet", i32*, i8, [7 x i8] }>
%"class.std::__1::locale::facet" = type { %"class.std::__1::__shared_count" }
%"class.std::__1::__shared_count" = type { i32 (...)**, i64 }
%"class.std::__1::locale" = type { %"class.std::__1::locale::__imp"* }
%"class.std::__1::locale::__imp" = type opaque
%"class.std::__1::basic_ios" = type <{ %"class.std::__1::ios_base", %"class.std::__1::basic_ostream"*, i32, [4 x i8] }>
%"class.std::__1::ostreambuf_iterator" = type { %"class.std::__1::basic_streambuf"* }
%"class.std::__1::basic_streambuf" = type { i32 (...)**, %"class.std::__1::locale", i8*, i8*, i8*, i8*, i8*, i8* }
%"class.std::__1::basic_ostream<char, std::__1::char_traits<char> >::sentry" = type { i8, %"class.std::__1::basic_ostream"* }
%"struct.std::__1::iterator" = type { i8 }
%"class.std::__1::allocator.11" = type { i8 }
%"struct.std::__1::__compressed_pair_elem.10" = type { i8 }
%"struct.std::__1::basic_string<char, std::__1::char_traits<char>, std::__1::allocator<char> >::__short" = type { %union.anon.9, [23 x i8] }
%union.anon.9 = type { i8 }

@.str = private unnamed_addr constant [8 x i8] c"INVALID\00", align 1
@.str.1 = private unnamed_addr constant [4 x i8] c"EOF\00", align 1
@.str.2 = private unnamed_addr constant [11 x i8] c"IDENTIFIER\00", align 1
@.str.3 = private unnamed_addr constant [8 x i8] c"KEYWORD\00", align 1
@.str.4 = private unnamed_addr constant [8 x i8] c"NUMERIC\00", align 1
@.str.5 = private unnamed_addr constant [11 x i8] c"PUNCTUATOR\00", align 1
@.str.6 = private unnamed_addr constant [7 x i8] c"STRING\00", align 1
@.str.7 = private unnamed_addr constant [6 x i8] c"REGEX\00", align 1
@.str.8 = private unnamed_addr constant [9 x i8] c"TEMPLATE\00", align 1
@.str.9 = private unnamed_addr constant [2 x i8] c"?\00", align 1
@.str.10 = private unnamed_addr constant [5 x i8] c"NULL\00", align 1
@.str.11 = private unnamed_addr constant [4 x i8] c"NAN\00", align 1
@.str.12 = private unnamed_addr constant [5 x i8] c"TRUE\00", align 1
@.str.13 = private unnamed_addr constant [6 x i8] c"FALSE\00", align 1
@.str.14 = private unnamed_addr constant [10 x i8] c"UNDEFINED\00", align 1
@.str.15 = private unnamed_addr constant [12 x i8] c"PAREN_RIGHT\00", align 1
@.str.16 = private unnamed_addr constant [11 x i8] c"PAREN_LEFT\00", align 1
@.str.17 = private unnamed_addr constant [19 x i8] c"CURLY_BRACKET_LEFT\00", align 1
@.str.18 = private unnamed_addr constant [20 x i8] c"CURLY_BRACKET_RIGHT\00", align 1
@.str.19 = private unnamed_addr constant [20 x i8] c"SQUARE_BRACKET_LEFT\00", align 1
@.str.20 = private unnamed_addr constant [21 x i8] c"SQUARE_BRACKET_RIGHT\00", align 1
@.str.21 = private unnamed_addr constant [10 x i8] c"SEMICOLON\00", align 1
@.str.22 = private unnamed_addr constant [12 x i8] c"BOOL_NOT(!)\00", align 1
@.str.23 = private unnamed_addr constant [12 x i8] c"BOOL_OR(||)\00", align 1
@.str.24 = private unnamed_addr constant [13 x i8] c"BOOL_AND(&&)\00", align 1
@.str.25 = private unnamed_addr constant [10 x i8] c"BIT_OR(|)\00", align 1
@.str.26 = private unnamed_addr constant [11 x i8] c"BIT_XOR(^)\00", align 1
@.str.27 = private unnamed_addr constant [11 x i8] c"BIT_AND(&)\00", align 1
@.str.28 = private unnamed_addr constant [12 x i8] c"EQUAL_V(==)\00", align 1
@.str.29 = private unnamed_addr constant [16 x i8] c"NOT_EQUAL_V(!=)\00", align 1
@.str.30 = private unnamed_addr constant [14 x i8] c"EQUAL_VT(===)\00", align 1
@.str.31 = private unnamed_addr constant [18 x i8] c"NOT_EQUAL_VT(!==)\00", align 1
@.str.32 = private unnamed_addr constant [6 x i8] c"LT(<)\00", align 1
@.str.33 = private unnamed_addr constant [6 x i8] c"GT(>)\00", align 1
@.str.34 = private unnamed_addr constant [8 x i8] c"LTE(<=)\00", align 1
@.str.35 = private unnamed_addr constant [8 x i8] c"LGE(>=)\00", align 1
@.str.36 = private unnamed_addr constant [12 x i8] c"INSTANCE_OF\00", align 1
@.str.37 = private unnamed_addr constant [3 x i8] c"IN\00", align 1
@.str.38 = private unnamed_addr constant [16 x i8] c"BIT_SHIFT_L(<<)\00", align 1
@.str.39 = private unnamed_addr constant [16 x i8] c"BIT_SHIFT_R(>>)\00", align 1
@.str.40 = private unnamed_addr constant [18 x i8] c"BIT_SHIFT_RZ(>>>)\00", align 1
@.str.41 = private unnamed_addr constant [8 x i8] c"PLUS(+)\00", align 1
@.str.42 = private unnamed_addr constant [9 x i8] c"MINUS(-)\00", align 1
@.str.43 = private unnamed_addr constant [12 x i8] c"MULTIPLY(*)\00", align 1
@.str.44 = private unnamed_addr constant [10 x i8] c"DIVIDE(/)\00", align 1
@.str.45 = private unnamed_addr constant [7 x i8] c"MOD(%)\00", align 1
@.str.46 = private unnamed_addr constant [7 x i8] c"DOT(.)\00", align 1
@.str.47 = private unnamed_addr constant [9 x i8] c"COLON(:)\00", align 1
@.str.48 = private unnamed_addr constant [17 x i8] c"QUESTION_MARK(?)\00", align 1
@.str.49 = private unnamed_addr constant [9 x i8] c"TILDA(~)\00", align 1
@.str.50 = private unnamed_addr constant [9 x i8] c"COMMA(,)\00", align 1
@.str.51 = private unnamed_addr constant [14 x i8] c"SELF_PLUS(++)\00", align 1
@.str.52 = private unnamed_addr constant [15 x i8] c"SELF_MINUS(--)\00", align 1
@.str.53 = private unnamed_addr constant [11 x i8] c"LAMBDA(=>)\00", align 1
@.str.54 = private unnamed_addr constant [12 x i8] c"SPREAD(...)\00", align 1
@.str.55 = private unnamed_addr constant [16 x i8] c"ASSIGN_EQUAL(=)\00", align 1
@.str.56 = private unnamed_addr constant [16 x i8] c"ASSIGN_PLUS(+=)\00", align 1
@.str.57 = private unnamed_addr constant [17 x i8] c"ASSIGN_MINUS(-=)\00", align 1
@.str.58 = private unnamed_addr constant [20 x i8] c"ASSIGN_MULTIPLY(*=)\00", align 1
@.str.59 = private unnamed_addr constant [18 x i8] c"ASSIGN_DIVIDE(/=)\00", align 1
@.str.60 = private unnamed_addr constant [15 x i8] c"ASSIGN_MOD(%=)\00", align 1
@.str.61 = private unnamed_addr constant [23 x i8] c"ASSIGN_SHIFT_LEFT(<<=)\00", align 1
@.str.62 = private unnamed_addr constant [24 x i8] c"ASSIGN_SHIFT_RIGHT(>>=)\00", align 1
@.str.63 = private unnamed_addr constant [26 x i8] c"ASSIGN_SHIFT_RIGHTZ(>>>=)\00", align 1
@.str.64 = private unnamed_addr constant [19 x i8] c"ASSIGN_BIT_AND(&=)\00", align 1
@.str.65 = private unnamed_addr constant [18 x i8] c"ASSIGN_BIT_OR(|=)\00", align 1
@.str.66 = private unnamed_addr constant [19 x i8] c"ASSIGN_BIT_XOR(^=)\00", align 1
@.str.67 = private unnamed_addr constant [15 x i8] c"(ASSIGN_COMMA)\00", align 1
@.str.68 = private unnamed_addr constant [9 x i8] c"abstract\00", align 1
@.str.69 = private unnamed_addr constant [8 x i8] c"boolean\00", align 1
@.str.70 = private unnamed_addr constant [6 x i8] c"break\00", align 1
@.str.71 = private unnamed_addr constant [5 x i8] c"byte\00", align 1
@.str.72 = private unnamed_addr constant [5 x i8] c"case\00", align 1
@.str.73 = private unnamed_addr constant [6 x i8] c"catch\00", align 1
@.str.74 = private unnamed_addr constant [5 x i8] c"char\00", align 1
@.str.75 = private unnamed_addr constant [6 x i8] c"class\00", align 1
@.str.76 = private unnamed_addr constant [6 x i8] c"const\00", align 1
@.str.77 = private unnamed_addr constant [9 x i8] c"continue\00", align 1
@.str.78 = private unnamed_addr constant [9 x i8] c"debugger\00", align 1
@.str.79 = private unnamed_addr constant [8 x i8] c"default\00", align 1
@.str.80 = private unnamed_addr constant [7 x i8] c"delete\00", align 1
@.str.81 = private unnamed_addr constant [3 x i8] c"do\00", align 1
@.str.82 = private unnamed_addr constant [7 x i8] c"double\00", align 1
@.str.83 = private unnamed_addr constant [5 x i8] c"else\00", align 1
@.str.84 = private unnamed_addr constant [5 x i8] c"enum\00", align 1
@.str.85 = private unnamed_addr constant [7 x i8] c"export\00", align 1
@.str.86 = private unnamed_addr constant [8 x i8] c"extends\00", align 1
@.str.87 = private unnamed_addr constant [6 x i8] c"final\00", align 1
@.str.88 = private unnamed_addr constant [8 x i8] c"finally\00", align 1
@.str.89 = private unnamed_addr constant [6 x i8] c"float\00", align 1
@.str.90 = private unnamed_addr constant [4 x i8] c"for\00", align 1
@.str.91 = private unnamed_addr constant [9 x i8] c"function\00", align 1
@.str.92 = private unnamed_addr constant [5 x i8] c"goto\00", align 1
@.str.93 = private unnamed_addr constant [3 x i8] c"if\00", align 1
@.str.94 = private unnamed_addr constant [11 x i8] c"implements\00", align 1
@.str.95 = private unnamed_addr constant [7 x i8] c"import\00", align 1
@.str.96 = private unnamed_addr constant [3 x i8] c"in\00", align 1
@.str.97 = private unnamed_addr constant [11 x i8] c"instanceof\00", align 1
@.str.98 = private unnamed_addr constant [4 x i8] c"int\00", align 1
@.str.99 = private unnamed_addr constant [10 x i8] c"interface\00", align 1
@.str.100 = private unnamed_addr constant [4 x i8] c"let\00", align 1
@.str.101 = private unnamed_addr constant [5 x i8] c"long\00", align 1
@.str.102 = private unnamed_addr constant [7 x i8] c"native\00", align 1
@.str.103 = private unnamed_addr constant [4 x i8] c"new\00", align 1
@.str.104 = private unnamed_addr constant [8 x i8] c"package\00", align 1
@.str.105 = private unnamed_addr constant [8 x i8] c"private\00", align 1
@.str.106 = private unnamed_addr constant [10 x i8] c"projected\00", align 1
@.str.107 = private unnamed_addr constant [7 x i8] c"public\00", align 1
@.str.108 = private unnamed_addr constant [7 x i8] c"return\00", align 1
@.str.109 = private unnamed_addr constant [6 x i8] c"short\00", align 1
@.str.110 = private unnamed_addr constant [7 x i8] c"static\00", align 1
@.str.111 = private unnamed_addr constant [6 x i8] c"super\00", align 1
@.str.112 = private unnamed_addr constant [7 x i8] c"switch\00", align 1
@.str.113 = private unnamed_addr constant [13 x i8] c"synchronized\00", align 1
@.str.114 = private unnamed_addr constant [5 x i8] c"this\00", align 1
@.str.115 = private unnamed_addr constant [6 x i8] c"throw\00", align 1
@.str.116 = private unnamed_addr constant [7 x i8] c"throws\00", align 1
@.str.117 = private unnamed_addr constant [10 x i8] c"transient\00", align 1
@.str.118 = private unnamed_addr constant [4 x i8] c"try\00", align 1
@.str.119 = private unnamed_addr constant [7 x i8] c"typeof\00", align 1
@.str.120 = private unnamed_addr constant [4 x i8] c"var\00", align 1
@.str.121 = private unnamed_addr constant [5 x i8] c"void\00", align 1
@.str.122 = private unnamed_addr constant [9 x i8] c"volatile\00", align 1
@.str.123 = private unnamed_addr constant [6 x i8] c"while\00", align 1
@.str.124 = private unnamed_addr constant [5 x i8] c"with\00", align 1
@.str.125 = private unnamed_addr constant [6 x i8] c"yield\00", align 1
@_ZN14altered_carbon2js10ACLexToken11TOKEN_NAMESE = global [258 x i8*] [i8* getelementptr inbounds ([8 x i8], [8 x i8]* @.str, i32 0, i32 0), i8* getelementptr inbounds ([4 x i8], [4 x i8]* @.str.1, i32 0, i32 0), i8* getelementptr inbounds ([11 x i8], [11 x i8]* @.str.2, i32 0, i32 0), i8* getelementptr inbounds ([8 x i8], [8 x i8]* @.str.3, i32 0, i32 0), i8* getelementptr inbounds ([8 x i8], [8 x i8]* @.str.4, i32 0, i32 0), i8* getelementptr inbounds ([11 x i8], [11 x i8]* @.str.5, i32 0, i32 0), i8* getelementptr inbounds ([7 x i8], [7 x i8]* @.str.6, i32 0, i32 0), i8* getelementptr inbounds ([6 x i8], [6 x i8]* @.str.7, i32 0, i32 0), i8* getelementptr inbounds ([9 x i8], [9 x i8]* @.str.8, i32 0, i32 0), i8* getelementptr inbounds ([2 x i8], [2 x i8]* @.str.9, i32 0, i32 0), i8* getelementptr inbounds ([5 x i8], [5 x i8]* @.str.10, i32 0, i32 0), i8* getelementptr inbounds ([4 x i8], [4 x i8]* @.str.11, i32 0, i32 0), i8* getelementptr inbounds ([5 x i8], [5 x i8]* @.str.12, i32 0, i32 0), i8* getelementptr inbounds ([6 x i8], [6 x i8]* @.str.13, i32 0, i32 0), i8* getelementptr inbounds ([10 x i8], [10 x i8]* @.str.14, i32 0, i32 0), i8* getelementptr inbounds ([12 x i8], [12 x i8]* @.str.15, i32 0, i32 0), i8* getelementptr inbounds ([11 x i8], [11 x i8]* @.str.16, i32 0, i32 0), i8* getelementptr inbounds ([19 x i8], [19 x i8]* @.str.17, i32 0, i32 0), i8* getelementptr inbounds ([20 x i8], [20 x i8]* @.str.18, i32 0, i32 0), i8* getelementptr inbounds ([20 x i8], [20 x i8]* @.str.19, i32 0, i32 0), i8* getelementptr inbounds ([21 x i8], [21 x i8]* @.str.20, i32 0, i32 0), i8* getelementptr inbounds ([10 x i8], [10 x i8]* @.str.21, i32 0, i32 0), i8* getelementptr inbounds ([2 x i8], [2 x i8]* @.str.9, i32 0, i32 0), i8* getelementptr inbounds ([2 x i8], [2 x i8]* @.str.9, i32 0, i32 0), i8* getelementptr inbounds ([2 x i8], [2 x i8]* @.str.9, i32 0, i32 0), i8* getelementptr inbounds ([2 x i8], [2 x i8]* @.str.9, i32 0, i32 0), i8* getelementptr inbounds ([2 x i8], [2 x i8]* @.str.9, i32 0, i32 0), i8* getelementptr inbounds ([2 x i8], [2 x i8]* @.str.9, i32 0, i32 0), i8* getelementptr inbounds ([2 x i8], [2 x i8]* @.str.9, i32 0, i32 0), i8* getelementptr inbounds ([2 x i8], [2 x i8]* @.str.9, i32 0, i32 0), i8* getelementptr inbounds ([2 x i8], [2 x i8]* @.str.9, i32 0, i32 0), i8* getelementptr inbounds ([2 x i8], [2 x i8]* @.str.9, i32 0, i32 0), i8* getelementptr inbounds ([2 x i8], [2 x i8]* @.str.9, i32 0, i32 0), i8* getelementptr inbounds ([2 x i8], [2 x i8]* @.str.9, i32 0, i32 0), i8* getelementptr inbounds ([2 x i8], [2 x i8]* @.str.9, i32 0, i32 0), i8* getelementptr inbounds ([2 x i8], [2 x i8]* @.str.9, i32 0, i32 0), i8* getelementptr inbounds ([2 x i8], [2 x i8]* @.str.9, i32 0, i32 0), i8* getelementptr inbounds ([2 x i8], [2 x i8]* @.str.9, i32 0, i32 0), i8* getelementptr inbounds ([2 x i8], [2 x i8]* @.str.9, i32 0, i32 0), i8* getelementptr inbounds ([2 x i8], [2 x i8]* @.str.9, i32 0, i32 0), i8* getelementptr inbounds ([2 x i8], [2 x i8]* @.str.9, i32 0, i32 0), i8* getelementptr inbounds ([2 x i8], [2 x i8]* @.str.9, i32 0, i32 0), i8* getelementptr inbounds ([2 x i8], [2 x i8]* @.str.9, i32 0, i32 0), i8* getelementptr inbounds ([2 x i8], [2 x i8]* @.str.9, i32 0, i32 0), i8* getelementptr inbounds ([2 x i8], [2 x i8]* @.str.9, i32 0, i32 0), i8* getelementptr inbounds ([2 x i8], [2 x i8]* @.str.9, i32 0, i32 0), i8* getelementptr inbounds ([2 x i8], [2 x i8]* @.str.9, i32 0, i32 0), i8* getelementptr inbounds ([2 x i8], [2 x i8]* @.str.9, i32 0, i32 0), i8* getelementptr inbounds ([2 x i8], [2 x i8]* @.str.9, i32 0, i32 0), i8* getelementptr inbounds ([2 x i8], [2 x i8]* @.str.9, i32 0, i32 0), i8* getelementptr inbounds ([2 x i8], [2 x i8]* @.str.9, i32 0, i32 0), i8* getelementptr inbounds ([2 x i8], [2 x i8]* @.str.9, i32 0, i32 0), i8* getelementptr inbounds ([2 x i8], [2 x i8]* @.str.9, i32 0, i32 0), i8* getelementptr inbounds ([2 x i8], [2 x i8]* @.str.9, i32 0, i32 0), i8* getelementptr inbounds ([2 x i8], [2 x i8]* @.str.9, i32 0, i32 0), i8* getelementptr inbounds ([2 x i8], [2 x i8]* @.str.9, i32 0, i32 0), i8* getelementptr inbounds ([2 x i8], [2 x i8]* @.str.9, i32 0, i32 0), i8* getelementptr inbounds ([2 x i8], [2 x i8]* @.str.9, i32 0, i32 0), i8* getelementptr inbounds ([2 x i8], [2 x i8]* @.str.9, i32 0, i32 0), i8* getelementptr inbounds ([2 x i8], [2 x i8]* @.str.9, i32 0, i32 0), i8* getelementptr inbounds ([2 x i8], [2 x i8]* @.str.9, i32 0, i32 0), i8* getelementptr inbounds ([2 x i8], [2 x i8]* @.str.9, i32 0, i32 0), i8* getelementptr inbounds ([2 x i8], [2 x i8]* @.str.9, i32 0, i32 0), i8* getelementptr inbounds ([2 x i8], [2 x i8]* @.str.9, i32 0, i32 0), i8* getelementptr inbounds ([2 x i8], [2 x i8]* @.str.9, i32 0, i32 0), i8* getelementptr inbounds ([2 x i8], [2 x i8]* @.str.9, i32 0, i32 0), i8* getelementptr inbounds ([2 x i8], [2 x i8]* @.str.9, i32 0, i32 0), i8* getelementptr inbounds ([2 x i8], [2 x i8]* @.str.9, i32 0, i32 0), i8* getelementptr inbounds ([2 x i8], [2 x i8]* @.str.9, i32 0, i32 0), i8* getelementptr inbounds ([2 x i8], [2 x i8]* @.str.9, i32 0, i32 0), i8* getelementptr inbounds ([2 x i8], [2 x i8]* @.str.9, i32 0, i32 0), i8* getelementptr inbounds ([2 x i8], [2 x i8]* @.str.9, i32 0, i32 0), i8* getelementptr inbounds ([2 x i8], [2 x i8]* @.str.9, i32 0, i32 0), i8* getelementptr inbounds ([2 x i8], [2 x i8]* @.str.9, i32 0, i32 0), i8* getelementptr inbounds ([2 x i8], [2 x i8]* @.str.9, i32 0, i32 0), i8* getelementptr inbounds ([2 x i8], [2 x i8]* @.str.9, i32 0, i32 0), i8* getelementptr inbounds ([2 x i8], [2 x i8]* @.str.9, i32 0, i32 0), i8* getelementptr inbounds ([2 x i8], [2 x i8]* @.str.9, i32 0, i32 0), i8* getelementptr inbounds ([2 x i8], [2 x i8]* @.str.9, i32 0, i32 0), i8* getelementptr inbounds ([2 x i8], [2 x i8]* @.str.9, i32 0, i32 0), i8* getelementptr inbounds ([2 x i8], [2 x i8]* @.str.9, i32 0, i32 0), i8* getelementptr inbounds ([2 x i8], [2 x i8]* @.str.9, i32 0, i32 0), i8* getelementptr inbounds ([2 x i8], [2 x i8]* @.str.9, i32 0, i32 0), i8* getelementptr inbounds ([2 x i8], [2 x i8]* @.str.9, i32 0, i32 0), i8* getelementptr inbounds ([2 x i8], [2 x i8]* @.str.9, i32 0, i32 0), i8* getelementptr inbounds ([2 x i8], [2 x i8]* @.str.9, i32 0, i32 0), i8* getelementptr inbounds ([2 x i8], [2 x i8]* @.str.9, i32 0, i32 0), i8* getelementptr inbounds ([2 x i8], [2 x i8]* @.str.9, i32 0, i32 0), i8* getelementptr inbounds ([2 x i8], [2 x i8]* @.str.9, i32 0, i32 0), i8* getelementptr inbounds ([2 x i8], [2 x i8]* @.str.9, i32 0, i32 0), i8* getelementptr inbounds ([2 x i8], [2 x i8]* @.str.9, i32 0, i32 0), i8* getelementptr inbounds ([2 x i8], [2 x i8]* @.str.9, i32 0, i32 0), i8* getelementptr inbounds ([2 x i8], [2 x i8]* @.str.9, i32 0, i32 0), i8* getelementptr inbounds ([2 x i8], [2 x i8]* @.str.9, i32 0, i32 0), i8* getelementptr inbounds ([2 x i8], [2 x i8]* @.str.9, i32 0, i32 0), i8* getelementptr inbounds ([2 x i8], [2 x i8]* @.str.9, i32 0, i32 0), i8* getelementptr inbounds ([2 x i8], [2 x i8]* @.str.9, i32 0, i32 0), i8* getelementptr inbounds ([2 x i8], [2 x i8]* @.str.9, i32 0, i32 0), i8* getelementptr inbounds ([2 x i8], [2 x i8]* @.str.9, i32 0, i32 0), i8* getelementptr inbounds ([2 x i8], [2 x i8]* @.str.9, i32 0, i32 0), i8* getelementptr inbounds ([12 x i8], [12 x i8]* @.str.22, i32 0, i32 0), i8* getelementptr inbounds ([12 x i8], [12 x i8]* @.str.23, i32 0, i32 0), i8* getelementptr inbounds ([13 x i8], [13 x i8]* @.str.24, i32 0, i32 0), i8* getelementptr inbounds ([10 x i8], [10 x i8]* @.str.25, i32 0, i32 0), i8* getelementptr inbounds ([11 x i8], [11 x i8]* @.str.26, i32 0, i32 0), i8* getelementptr inbounds ([11 x i8], [11 x i8]* @.str.27, i32 0, i32 0), i8* getelementptr inbounds ([12 x i8], [12 x i8]* @.str.28, i32 0, i32 0), i8* getelementptr inbounds ([16 x i8], [16 x i8]* @.str.29, i32 0, i32 0), i8* getelementptr inbounds ([14 x i8], [14 x i8]* @.str.30, i32 0, i32 0), i8* getelementptr inbounds ([18 x i8], [18 x i8]* @.str.31, i32 0, i32 0), i8* getelementptr inbounds ([6 x i8], [6 x i8]* @.str.32, i32 0, i32 0), i8* getelementptr inbounds ([6 x i8], [6 x i8]* @.str.33, i32 0, i32 0), i8* getelementptr inbounds ([8 x i8], [8 x i8]* @.str.34, i32 0, i32 0), i8* getelementptr inbounds ([8 x i8], [8 x i8]* @.str.35, i32 0, i32 0), i8* getelementptr inbounds ([12 x i8], [12 x i8]* @.str.36, i32 0, i32 0), i8* getelementptr inbounds ([3 x i8], [3 x i8]* @.str.37, i32 0, i32 0), i8* getelementptr inbounds ([16 x i8], [16 x i8]* @.str.38, i32 0, i32 0), i8* getelementptr inbounds ([16 x i8], [16 x i8]* @.str.39, i32 0, i32 0), i8* getelementptr inbounds ([18 x i8], [18 x i8]* @.str.40, i32 0, i32 0), i8* getelementptr inbounds ([8 x i8], [8 x i8]* @.str.41, i32 0, i32 0), i8* getelementptr inbounds ([9 x i8], [9 x i8]* @.str.42, i32 0, i32 0), i8* getelementptr inbounds ([12 x i8], [12 x i8]* @.str.43, i32 0, i32 0), i8* getelementptr inbounds ([10 x i8], [10 x i8]* @.str.44, i32 0, i32 0), i8* getelementptr inbounds ([7 x i8], [7 x i8]* @.str.45, i32 0, i32 0), i8* getelementptr inbounds ([7 x i8], [7 x i8]* @.str.46, i32 0, i32 0), i8* getelementptr inbounds ([9 x i8], [9 x i8]* @.str.47, i32 0, i32 0), i8* getelementptr inbounds ([17 x i8], [17 x i8]* @.str.48, i32 0, i32 0), i8* getelementptr inbounds ([9 x i8], [9 x i8]* @.str.49, i32 0, i32 0), i8* getelementptr inbounds ([9 x i8], [9 x i8]* @.str.50, i32 0, i32 0), i8* getelementptr inbounds ([14 x i8], [14 x i8]* @.str.51, i32 0, i32 0), i8* getelementptr inbounds ([15 x i8], [15 x i8]* @.str.52, i32 0, i32 0), i8* getelementptr inbounds ([11 x i8], [11 x i8]* @.str.53, i32 0, i32 0), i8* getelementptr inbounds ([12 x i8], [12 x i8]* @.str.54, i32 0, i32 0), i8* getelementptr inbounds ([2 x i8], [2 x i8]* @.str.9, i32 0, i32 0), i8* getelementptr inbounds ([2 x i8], [2 x i8]* @.str.9, i32 0, i32 0), i8* getelementptr inbounds ([2 x i8], [2 x i8]* @.str.9, i32 0, i32 0), i8* getelementptr inbounds ([2 x i8], [2 x i8]* @.str.9, i32 0, i32 0), i8* getelementptr inbounds ([2 x i8], [2 x i8]* @.str.9, i32 0, i32 0), i8* getelementptr inbounds ([2 x i8], [2 x i8]* @.str.9, i32 0, i32 0), i8* getelementptr inbounds ([2 x i8], [2 x i8]* @.str.9, i32 0, i32 0), i8* getelementptr inbounds ([16 x i8], [16 x i8]* @.str.55, i32 0, i32 0), i8* getelementptr inbounds ([16 x i8], [16 x i8]* @.str.56, i32 0, i32 0), i8* getelementptr inbounds ([17 x i8], [17 x i8]* @.str.57, i32 0, i32 0), i8* getelementptr inbounds ([20 x i8], [20 x i8]* @.str.58, i32 0, i32 0), i8* getelementptr inbounds ([18 x i8], [18 x i8]* @.str.59, i32 0, i32 0), i8* getelementptr inbounds ([15 x i8], [15 x i8]* @.str.60, i32 0, i32 0), i8* getelementptr inbounds ([23 x i8], [23 x i8]* @.str.61, i32 0, i32 0), i8* getelementptr inbounds ([24 x i8], [24 x i8]* @.str.62, i32 0, i32 0), i8* getelementptr inbounds ([26 x i8], [26 x i8]* @.str.63, i32 0, i32 0), i8* getelementptr inbounds ([19 x i8], [19 x i8]* @.str.64, i32 0, i32 0), i8* getelementptr inbounds ([18 x i8], [18 x i8]* @.str.65, i32 0, i32 0), i8* getelementptr inbounds ([19 x i8], [19 x i8]* @.str.66, i32 0, i32 0), i8* getelementptr inbounds ([15 x i8], [15 x i8]* @.str.67, i32 0, i32 0), i8* getelementptr inbounds ([2 x i8], [2 x i8]* @.str.9, i32 0, i32 0), i8* getelementptr inbounds ([2 x i8], [2 x i8]* @.str.9, i32 0, i32 0), i8* getelementptr inbounds ([2 x i8], [2 x i8]* @.str.9, i32 0, i32 0), i8* getelementptr inbounds ([2 x i8], [2 x i8]* @.str.9, i32 0, i32 0), i8* getelementptr inbounds ([2 x i8], [2 x i8]* @.str.9, i32 0, i32 0), i8* getelementptr inbounds ([2 x i8], [2 x i8]* @.str.9, i32 0, i32 0), i8* getelementptr inbounds ([2 x i8], [2 x i8]* @.str.9, i32 0, i32 0), i8* getelementptr inbounds ([2 x i8], [2 x i8]* @.str.9, i32 0, i32 0), i8* getelementptr inbounds ([2 x i8], [2 x i8]* @.str.9, i32 0, i32 0), i8* getelementptr inbounds ([2 x i8], [2 x i8]* @.str.9, i32 0, i32 0), i8* getelementptr inbounds ([2 x i8], [2 x i8]* @.str.9, i32 0, i32 0), i8* getelementptr inbounds ([2 x i8], [2 x i8]* @.str.9, i32 0, i32 0), i8* getelementptr inbounds ([2 x i8], [2 x i8]* @.str.9, i32 0, i32 0), i8* getelementptr inbounds ([2 x i8], [2 x i8]* @.str.9, i32 0, i32 0), i8* getelementptr inbounds ([2 x i8], [2 x i8]* @.str.9, i32 0, i32 0), i8* getelementptr inbounds ([2 x i8], [2 x i8]* @.str.9, i32 0, i32 0), i8* getelementptr inbounds ([2 x i8], [2 x i8]* @.str.9, i32 0, i32 0), i8* getelementptr inbounds ([2 x i8], [2 x i8]* @.str.9, i32 0, i32 0), i8* getelementptr inbounds ([2 x i8], [2 x i8]* @.str.9, i32 0, i32 0), i8* getelementptr inbounds ([2 x i8], [2 x i8]* @.str.9, i32 0, i32 0), i8* getelementptr inbounds ([2 x i8], [2 x i8]* @.str.9, i32 0, i32 0), i8* getelementptr inbounds ([2 x i8], [2 x i8]* @.str.9, i32 0, i32 0), i8* getelementptr inbounds ([2 x i8], [2 x i8]* @.str.9, i32 0, i32 0), i8* getelementptr inbounds ([2 x i8], [2 x i8]* @.str.9, i32 0, i32 0), i8* getelementptr inbounds ([2 x i8], [2 x i8]* @.str.9, i32 0, i32 0), i8* getelementptr inbounds ([2 x i8], [2 x i8]* @.str.9, i32 0, i32 0), i8* getelementptr inbounds ([2 x i8], [2 x i8]* @.str.9, i32 0, i32 0), i8* getelementptr inbounds ([2 x i8], [2 x i8]* @.str.9, i32 0, i32 0), i8* getelementptr inbounds ([2 x i8], [2 x i8]* @.str.9, i32 0, i32 0), i8* getelementptr inbounds ([2 x i8], [2 x i8]* @.str.9, i32 0, i32 0), i8* getelementptr inbounds ([2 x i8], [2 x i8]* @.str.9, i32 0, i32 0), i8* getelementptr inbounds ([2 x i8], [2 x i8]* @.str.9, i32 0, i32 0), i8* getelementptr inbounds ([2 x i8], [2 x i8]* @.str.9, i32 0, i32 0), i8* getelementptr inbounds ([2 x i8], [2 x i8]* @.str.9, i32 0, i32 0), i8* getelementptr inbounds ([2 x i8], [2 x i8]* @.str.9, i32 0, i32 0), i8* getelementptr inbounds ([2 x i8], [2 x i8]* @.str.9, i32 0, i32 0), i8* getelementptr inbounds ([2 x i8], [2 x i8]* @.str.9, i32 0, i32 0), i8* getelementptr inbounds ([2 x i8], [2 x i8]* @.str.9, i32 0, i32 0), i8* getelementptr inbounds ([2 x i8], [2 x i8]* @.str.9, i32 0, i32 0), i8* getelementptr inbounds ([2 x i8], [2 x i8]* @.str.9, i32 0, i32 0), i8* getelementptr inbounds ([2 x i8], [2 x i8]* @.str.9, i32 0, i32 0), i8* getelementptr inbounds ([2 x i8], [2 x i8]* @.str.9, i32 0, i32 0), i8* getelementptr inbounds ([2 x i8], [2 x i8]* @.str.9, i32 0, i32 0), i8* getelementptr inbounds ([2 x i8], [2 x i8]* @.str.9, i32 0, i32 0), i8* getelementptr inbounds ([2 x i8], [2 x i8]* @.str.9, i32 0, i32 0), i8* getelementptr inbounds ([2 x i8], [2 x i8]* @.str.9, i32 0, i32 0), i8* getelementptr inbounds ([2 x i8], [2 x i8]* @.str.9, i32 0, i32 0), i8* getelementptr inbounds ([9 x i8], [9 x i8]* @.str.68, i32 0, i32 0), i8* getelementptr inbounds ([8 x i8], [8 x i8]* @.str.69, i32 0, i32 0), i8* getelementptr inbounds ([6 x i8], [6 x i8]* @.str.70, i32 0, i32 0), i8* getelementptr inbounds ([5 x i8], [5 x i8]* @.str.71, i32 0, i32 0), i8* getelementptr inbounds ([5 x i8], [5 x i8]* @.str.72, i32 0, i32 0), i8* getelementptr inbounds ([6 x i8], [6 x i8]* @.str.73, i32 0, i32 0), i8* getelementptr inbounds ([5 x i8], [5 x i8]* @.str.74, i32 0, i32 0), i8* getelementptr inbounds ([6 x i8], [6 x i8]* @.str.75, i32 0, i32 0), i8* getelementptr inbounds ([6 x i8], [6 x i8]* @.str.76, i32 0, i32 0), i8* getelementptr inbounds ([9 x i8], [9 x i8]* @.str.77, i32 0, i32 0), i8* getelementptr inbounds ([9 x i8], [9 x i8]* @.str.78, i32 0, i32 0), i8* getelementptr inbounds ([8 x i8], [8 x i8]* @.str.79, i32 0, i32 0), i8* getelementptr inbounds ([7 x i8], [7 x i8]* @.str.80, i32 0, i32 0), i8* getelementptr inbounds ([3 x i8], [3 x i8]* @.str.81, i32 0, i32 0), i8* getelementptr inbounds ([7 x i8], [7 x i8]* @.str.82, i32 0, i32 0), i8* getelementptr inbounds ([5 x i8], [5 x i8]* @.str.83, i32 0, i32 0), i8* getelementptr inbounds ([5 x i8], [5 x i8]* @.str.84, i32 0, i32 0), i8* getelementptr inbounds ([7 x i8], [7 x i8]* @.str.85, i32 0, i32 0), i8* getelementptr inbounds ([8 x i8], [8 x i8]* @.str.86, i32 0, i32 0), i8* getelementptr inbounds ([6 x i8], [6 x i8]* @.str.87, i32 0, i32 0), i8* getelementptr inbounds ([8 x i8], [8 x i8]* @.str.88, i32 0, i32 0), i8* getelementptr inbounds ([6 x i8], [6 x i8]* @.str.89, i32 0, i32 0), i8* getelementptr inbounds ([4 x i8], [4 x i8]* @.str.90, i32 0, i32 0), i8* getelementptr inbounds ([9 x i8], [9 x i8]* @.str.91, i32 0, i32 0), i8* getelementptr inbounds ([5 x i8], [5 x i8]* @.str.92, i32 0, i32 0), i8* getelementptr inbounds ([3 x i8], [3 x i8]* @.str.93, i32 0, i32 0), i8* getelementptr inbounds ([11 x i8], [11 x i8]* @.str.94, i32 0, i32 0), i8* getelementptr inbounds ([7 x i8], [7 x i8]* @.str.95, i32 0, i32 0), i8* getelementptr inbounds ([3 x i8], [3 x i8]* @.str.96, i32 0, i32 0), i8* getelementptr inbounds ([11 x i8], [11 x i8]* @.str.97, i32 0, i32 0), i8* getelementptr inbounds ([4 x i8], [4 x i8]* @.str.98, i32 0, i32 0), i8* getelementptr inbounds ([10 x i8], [10 x i8]* @.str.99, i32 0, i32 0), i8* getelementptr inbounds ([4 x i8], [4 x i8]* @.str.100, i32 0, i32 0), i8* getelementptr inbounds ([5 x i8], [5 x i8]* @.str.101, i32 0, i32 0), i8* getelementptr inbounds ([7 x i8], [7 x i8]* @.str.102, i32 0, i32 0), i8* getelementptr inbounds ([4 x i8], [4 x i8]* @.str.103, i32 0, i32 0), i8* getelementptr inbounds ([8 x i8], [8 x i8]* @.str.104, i32 0, i32 0), i8* getelementptr inbounds ([8 x i8], [8 x i8]* @.str.105, i32 0, i32 0), i8* getelementptr inbounds ([10 x i8], [10 x i8]* @.str.106, i32 0, i32 0), i8* getelementptr inbounds ([7 x i8], [7 x i8]* @.str.107, i32 0, i32 0), i8* getelementptr inbounds ([7 x i8], [7 x i8]* @.str.108, i32 0, i32 0), i8* getelementptr inbounds ([6 x i8], [6 x i8]* @.str.109, i32 0, i32 0), i8* getelementptr inbounds ([7 x i8], [7 x i8]* @.str.110, i32 0, i32 0), i8* getelementptr inbounds ([6 x i8], [6 x i8]* @.str.111, i32 0, i32 0), i8* getelementptr inbounds ([7 x i8], [7 x i8]* @.str.112, i32 0, i32 0), i8* getelementptr inbounds ([13 x i8], [13 x i8]* @.str.113, i32 0, i32 0), i8* getelementptr inbounds ([5 x i8], [5 x i8]* @.str.114, i32 0, i32 0), i8* getelementptr inbounds ([6 x i8], [6 x i8]* @.str.115, i32 0, i32 0), i8* getelementptr inbounds ([7 x i8], [7 x i8]* @.str.116, i32 0, i32 0), i8* getelementptr inbounds ([10 x i8], [10 x i8]* @.str.117, i32 0, i32 0), i8* getelementptr inbounds ([4 x i8], [4 x i8]* @.str.118, i32 0, i32 0), i8* getelementptr inbounds ([7 x i8], [7 x i8]* @.str.119, i32 0, i32 0), i8* getelementptr inbounds ([4 x i8], [4 x i8]* @.str.120, i32 0, i32 0), i8* getelementptr inbounds ([5 x i8], [5 x i8]* @.str.121, i32 0, i32 0), i8* getelementptr inbounds ([9 x i8], [9 x i8]* @.str.122, i32 0, i32 0), i8* getelementptr inbounds ([6 x i8], [6 x i8]* @.str.123, i32 0, i32 0), i8* getelementptr inbounds ([5 x i8], [5 x i8]* @.str.124, i32 0, i32 0), i8* getelementptr inbounds ([6 x i8], [6 x i8]* @.str.125, i32 0, i32 0)], align 16, !dbg !0
@_ZTVN14altered_carbon2js10ACLexTokenE = unnamed_addr constant { [7 x i8*] } { [7 x i8*] [i8* null, i8* bitcast ({ i8*, i8* }* @_ZTIN14altered_carbon2js10ACLexTokenE to i8*), i8* bitcast (void (%"class.altered_carbon::js::ACLexToken"*, %"class.std::__1::basic_ostream"*)* @_ZNK14altered_carbon2js10ACLexToken4dumpERNSt3__113basic_ostreamIcNS2_11char_traitsIcEEEE to i8*), i8* bitcast (void (%"class.altered_carbon::js::ACLexToken"*)* @_ZN14altered_carbon2js10ACLexTokenD1Ev to i8*), i8* bitcast (void (%"class.altered_carbon::js::ACLexToken"*)* @_ZN14altered_carbon2js10ACLexTokenD0Ev to i8*), i8* bitcast (void (%"class.altered_carbon::js::ACLexNumber"*, %"class.altered_carbon::js::ACLexToken"*)* @_ZNK14altered_carbon2js10ACLexToken11numberValueEv to i8*), i8* bitcast (void (%"class.std::__1::unique_ptr"*, %"class.altered_carbon::js::ACLexToken"*)* @_ZN14altered_carbon2js10ACLexToken10regexValueEv to i8*)] }, align 8
@.str.126 = private unnamed_addr constant [1 x i8] zeroinitializer, align 1
@.str.127 = private unnamed_addr constant [7 x i8] c"{Type(\00", align 1
@.str.128 = private unnamed_addr constant [3 x i8] c")=\00", align 1
@.str.129 = private unnamed_addr constant [7 x i8] c", Pos=\00", align 1
@.str.130 = private unnamed_addr constant [7 x i8] c", len=\00", align 1
@.str.131 = private unnamed_addr constant [4 x i8] c", `\00", align 1
@.str.132 = private unnamed_addr constant [2 x i8] c"'\00", align 1
@.str.133 = private unnamed_addr constant [14 x i8] c"(unicode len=\00", align 1
@.str.134 = private unnamed_addr constant [2 x i8] c"[\00", align 1
@.str.135 = private unnamed_addr constant [2 x i8] c"]\00", align 1
@.str.136 = private unnamed_addr constant [3 x i8] c")}\00", align 1
@_ZTVN14altered_carbon2js13ACLexPositionE = linkonce_odr unnamed_addr constant { [4 x i8*] } { [4 x i8*] [i8* null, i8* bitcast ({ i8*, i8* }* @_ZTIN14altered_carbon2js13ACLexPositionE to i8*), i8* bitcast (void (%"struct.altered_carbon::js::ACLexPosition"*)* @_ZN14altered_carbon2js13ACLexPositionD1Ev to i8*), i8* bitcast (void (%"struct.altered_carbon::js::ACLexPosition"*)* @_ZN14altered_carbon2js13ACLexPositionD0Ev to i8*)] }, align 8
@.str.137 = private unnamed_addr constant [7 x i8] c"{Line=\00", align 1
@.str.138 = private unnamed_addr constant [7 x i8] c", Col=\00", align 1
@.str.139 = private unnamed_addr constant [10 x i8] c", AbsPos=\00", align 1
@.str.140 = private unnamed_addr constant [11 x i8] c", LinePos=\00", align 1
@.str.141 = private unnamed_addr constant [2 x i8] c"}\00", align 1
@_ZTVN14altered_carbon2js16ACLexNumberTokenE = unnamed_addr constant { [7 x i8*] } { [7 x i8*] [i8* null, i8* bitcast ({ i8*, i8*, i8* }* @_ZTIN14altered_carbon2js16ACLexNumberTokenE to i8*), i8* bitcast (void (%"class.altered_carbon::js::ACLexNumberToken"*, %"class.std::__1::basic_ostream"*)* @_ZNK14altered_carbon2js16ACLexNumberToken4dumpERNSt3__113basic_ostreamIcNS2_11char_traitsIcEEEE to i8*), i8* bitcast (void (%"class.altered_carbon::js::ACLexNumberToken"*)* @_ZN14altered_carbon2js16ACLexNumberTokenD1Ev to i8*), i8* bitcast (void (%"class.altered_carbon::js::ACLexNumberToken"*)* @_ZN14altered_carbon2js16ACLexNumberTokenD0Ev to i8*), i8* bitcast (void (%"class.altered_carbon::js::ACLexNumber"*, %"class.altered_carbon::js::ACLexNumberToken"*)* @_ZNK14altered_carbon2js16ACLexNumberToken11numberValueEv to i8*), i8* bitcast (void (%"class.std::__1::unique_ptr"*, %"class.altered_carbon::js::ACLexToken"*)* @_ZN14altered_carbon2js10ACLexToken10regexValueEv to i8*)] }, align 8
@.str.142 = private unnamed_addr constant [16 x i8] c"(numeric value=\00", align 1
@.str.143 = private unnamed_addr constant [8 x i8] c" [Base=\00", align 1
@_ZTVN14altered_carbon2js15ACLexRegexTokenE = unnamed_addr constant { [7 x i8*] } { [7 x i8*] [i8* null, i8* bitcast ({ i8*, i8*, i8* }* @_ZTIN14altered_carbon2js15ACLexRegexTokenE to i8*), i8* bitcast (void (%"class.altered_carbon::js::ACLexRegexToken"*, %"class.std::__1::basic_ostream"*)* @_ZNK14altered_carbon2js15ACLexRegexToken4dumpERNSt3__113basic_ostreamIcNS2_11char_traitsIcEEEE to i8*), i8* bitcast (void (%"class.altered_carbon::js::ACLexRegexToken"*)* @_ZN14altered_carbon2js15ACLexRegexTokenD1Ev to i8*), i8* bitcast (void (%"class.altered_carbon::js::ACLexRegexToken"*)* @_ZN14altered_carbon2js15ACLexRegexTokenD0Ev to i8*), i8* bitcast (void (%"class.altered_carbon::js::ACLexNumber"*, %"class.altered_carbon::js::ACLexToken"*)* @_ZNK14altered_carbon2js10ACLexToken11numberValueEv to i8*), i8* bitcast (void (%"class.std::__1::unique_ptr"*, %"class.altered_carbon::js::ACLexRegexToken"*)* @_ZN14altered_carbon2js15ACLexRegexToken10regexValueEv to i8*)] }, align 8
@.str.144 = private unnamed_addr constant [3 x i8] c"'(\00", align 1
@_ZTVN10__cxxabiv117__class_type_infoE = external global i8*
@_ZTSN14altered_carbon2js10ACLexTokenE = constant [34 x i8] c"N14altered_carbon2js10ACLexTokenE\00"
@_ZTIN14altered_carbon2js10ACLexTokenE = constant { i8*, i8* } { i8* bitcast (i8** getelementptr inbounds (i8*, i8** @_ZTVN10__cxxabiv117__class_type_infoE, i64 2) to i8*), i8* getelementptr inbounds ([34 x i8], [34 x i8]* @_ZTSN14altered_carbon2js10ACLexTokenE, i32 0, i32 0) }
@_ZTVN10__cxxabiv120__si_class_type_infoE = external global i8*
@_ZTSN14altered_carbon2js16ACLexNumberTokenE = constant [40 x i8] c"N14altered_carbon2js16ACLexNumberTokenE\00"
@_ZTIN14altered_carbon2js16ACLexNumberTokenE = constant { i8*, i8*, i8* } { i8* bitcast (i8** getelementptr inbounds (i8*, i8** @_ZTVN10__cxxabiv120__si_class_type_infoE, i64 2) to i8*), i8* getelementptr inbounds ([40 x i8], [40 x i8]* @_ZTSN14altered_carbon2js16ACLexNumberTokenE, i32 0, i32 0), i8* bitcast ({ i8*, i8* }* @_ZTIN14altered_carbon2js10ACLexTokenE to i8*) }
@_ZTSN14altered_carbon2js15ACLexRegexTokenE = constant [39 x i8] c"N14altered_carbon2js15ACLexRegexTokenE\00"
@_ZTIN14altered_carbon2js15ACLexRegexTokenE = constant { i8*, i8*, i8* } { i8* bitcast (i8** getelementptr inbounds (i8*, i8** @_ZTVN10__cxxabiv120__si_class_type_infoE, i64 2) to i8*), i8* getelementptr inbounds ([39 x i8], [39 x i8]* @_ZTSN14altered_carbon2js15ACLexRegexTokenE, i32 0, i32 0), i8* bitcast ({ i8*, i8* }* @_ZTIN14altered_carbon2js10ACLexTokenE to i8*) }
@_ZTSN14altered_carbon2js13ACLexPositionE = linkonce_odr constant [37 x i8] c"N14altered_carbon2js13ACLexPositionE\00"
@_ZTIN14altered_carbon2js13ACLexPositionE = linkonce_odr constant { i8*, i8* } { i8* bitcast (i8** getelementptr inbounds (i8*, i8** @_ZTVN10__cxxabiv117__class_type_infoE, i64 2) to i8*), i8* getelementptr inbounds ([37 x i8], [37 x i8]* @_ZTSN14altered_carbon2js13ACLexPositionE, i32 0, i32 0) }
@_ZTVN14altered_carbon2js11ACLexNumberE = linkonce_odr unnamed_addr constant { [4 x i8*] } { [4 x i8*] [i8* null, i8* bitcast ({ i8*, i8* }* @_ZTIN14altered_carbon2js11ACLexNumberE to i8*), i8* bitcast (void (%"class.altered_carbon::js::ACLexNumber"*)* @_ZN14altered_carbon2js11ACLexNumberD1Ev to i8*), i8* bitcast (void (%"class.altered_carbon::js::ACLexNumber"*)* @_ZN14altered_carbon2js11ACLexNumberD0Ev to i8*)] }, align 8
@_ZTSN14altered_carbon2js11ACLexNumberE = linkonce_odr constant [35 x i8] c"N14altered_carbon2js11ACLexNumberE\00"
@_ZTIN14altered_carbon2js11ACLexNumberE = linkonce_odr constant { i8*, i8* } { i8* bitcast (i8** getelementptr inbounds (i8*, i8** @_ZTVN10__cxxabiv117__class_type_infoE, i64 2) to i8*), i8* getelementptr inbounds ([35 x i8], [35 x i8]* @_ZTSN14altered_carbon2js11ACLexNumberE, i32 0, i32 0) }
@_ZNSt3__15ctypeIcE2idE = external global %"class.std::__1::locale::id", align 8

; Function Attrs: noinline nounwind optnone ssp uwtable
define void @_ZN14altered_carbon2js10ACLexTokenC2Ev(%"class.altered_carbon::js::ACLexToken"*) unnamed_addr #0 align 2 !dbg !4104 {
  %2 = alloca %"struct.std::__1::__compressed_pair_elem"*, align 8
  call void @llvm.dbg.declare(metadata %"struct.std::__1::__compressed_pair_elem"** %2, metadata !4105, metadata !DIExpression()), !dbg !4108
  %3 = alloca %"class.std::__1::__compressed_pair"*, align 8
  call void @llvm.dbg.declare(metadata %"class.std::__1::__compressed_pair"** %3, metadata !4119, metadata !DIExpression()), !dbg !4121
  %4 = alloca %"class.std::__1::basic_string"*, align 8
  call void @llvm.dbg.declare(metadata %"class.std::__1::basic_string"** %4, metadata !4122, metadata !DIExpression()), !dbg !4124
  %5 = alloca [3 x i64]*, align 8
  call void @llvm.dbg.declare(metadata [3 x i64]** %5, metadata !4125, metadata !DIExpression()), !dbg !4127
  %6 = alloca i32, align 4
  call void @llvm.dbg.declare(metadata i32* %6, metadata !4128, metadata !DIExpression()), !dbg !4130
  %7 = alloca %"class.std::__1::allocator"*, align 8
  call void @llvm.dbg.declare(metadata %"class.std::__1::allocator"** %7, metadata !4131, metadata !DIExpression()), !dbg !4134
  %8 = alloca %"struct.std::__1::__compressed_pair_elem.1"*, align 8
  call void @llvm.dbg.declare(metadata %"struct.std::__1::__compressed_pair_elem.1"** %8, metadata !4148, metadata !DIExpression()), !dbg !4150
  %9 = alloca %"struct.std::__1::__compressed_pair_elem"*, align 8
  call void @llvm.dbg.declare(metadata %"struct.std::__1::__compressed_pair_elem"** %9, metadata !4151, metadata !DIExpression()), !dbg !4153
  %10 = alloca %"class.std::__1::__compressed_pair"*, align 8
  call void @llvm.dbg.declare(metadata %"class.std::__1::__compressed_pair"** %10, metadata !4155, metadata !DIExpression()), !dbg !4156
  %11 = alloca %"class.std::__1::__compressed_pair"*, align 8
  call void @llvm.dbg.declare(metadata %"class.std::__1::__compressed_pair"** %11, metadata !4157, metadata !DIExpression()), !dbg !4158
  %12 = alloca %"class.std::__1::basic_string"*, align 8
  call void @llvm.dbg.declare(metadata %"class.std::__1::basic_string"** %12, metadata !4159, metadata !DIExpression()), !dbg !4160
  %13 = alloca %"class.std::__1::basic_string"*, align 8
  call void @llvm.dbg.declare(metadata %"class.std::__1::basic_string"** %13, metadata !4161, metadata !DIExpression()), !dbg !4162
  %14 = alloca %"class.std::__1::basic_string_view"*, align 8
  call void @llvm.dbg.declare(metadata %"class.std::__1::basic_string_view"** %14, metadata !4163, metadata !DIExpression()), !dbg !4166
  %15 = alloca i8*, align 8
  call void @llvm.dbg.declare(metadata i8** %15, metadata !4170, metadata !DIExpression()), !dbg !4171
  %16 = alloca %"class.std::__1::basic_string_view"*, align 8
  call void @llvm.dbg.declare(metadata %"class.std::__1::basic_string_view"** %16, metadata !4172, metadata !DIExpression()), !dbg !4173
  %17 = alloca i8*, align 8
  call void @llvm.dbg.declare(metadata i8** %17, metadata !4174, metadata !DIExpression()), !dbg !4175
  %18 = alloca %"class.altered_carbon::js::ACLexToken"*, align 8
  store %"class.altered_carbon::js::ACLexToken"* %0, %"class.altered_carbon::js::ACLexToken"** %18, align 8
  call void @llvm.dbg.declare(metadata %"class.altered_carbon::js::ACLexToken"** %18, metadata !4176, metadata !DIExpression()), !dbg !4178
  %19 = load %"class.altered_carbon::js::ACLexToken"*, %"class.altered_carbon::js::ACLexToken"** %18, align 8
  %20 = bitcast %"class.altered_carbon::js::ACLexToken"* %19 to i32 (...)***, !dbg !4179
  store i32 (...)** bitcast (i8** getelementptr inbounds ({ [7 x i8*] }, { [7 x i8*] }* @_ZTVN14altered_carbon2js10ACLexTokenE, i32 0, inrange i32 0, i32 2) to i32 (...)**), i32 (...)*** %20, align 8, !dbg !4179
  %21 = getelementptr inbounds %"class.altered_carbon::js::ACLexToken", %"class.altered_carbon::js::ACLexToken"* %19, i32 0, i32 1, !dbg !4180
  store i32 0, i32* %21, align 8, !dbg !4180
  %22 = getelementptr inbounds %"class.altered_carbon::js::ACLexToken", %"class.altered_carbon::js::ACLexToken"* %19, i32 0, i32 2, !dbg !4181
  store i64 0, i64* %22, align 8, !dbg !4181
  %23 = getelementptr inbounds %"class.altered_carbon::js::ACLexToken", %"class.altered_carbon::js::ACLexToken"* %19, i32 0, i32 3, !dbg !4182
  store %"class.std::__1::basic_string_view"* %23, %"class.std::__1::basic_string_view"** %16, align 8
  store i8* getelementptr inbounds ([1 x i8], [1 x i8]* @.str.126, i32 0, i32 0), i8** %17, align 8
  %24 = load %"class.std::__1::basic_string_view"*, %"class.std::__1::basic_string_view"** %16, align 8
  %25 = load i8*, i8** %17, align 8, !dbg !4183
  store %"class.std::__1::basic_string_view"* %24, %"class.std::__1::basic_string_view"** %14, align 8
  store i8* %25, i8** %15, align 8
  %26 = load %"class.std::__1::basic_string_view"*, %"class.std::__1::basic_string_view"** %14, align 8
  %27 = getelementptr inbounds %"class.std::__1::basic_string_view", %"class.std::__1::basic_string_view"* %26, i32 0, i32 0, !dbg !4184
  %28 = load i8*, i8** %15, align 8, !dbg !4185
  store i8* %28, i8** %27, align 8, !dbg !4184
  %29 = getelementptr inbounds %"class.std::__1::basic_string_view", %"class.std::__1::basic_string_view"* %26, i32 0, i32 1, !dbg !4186
  %30 = load i8*, i8** %15, align 8, !dbg !4187
  %31 = call i64 @_ZNSt3__111char_traitsIcE6lengthEPKc(i8* %30) #6, !dbg !4188
  store i64 %31, i64* %29, align 8, !dbg !4186
  %32 = getelementptr inbounds %"class.altered_carbon::js::ACLexToken", %"class.altered_carbon::js::ACLexToken"* %19, i32 0, i32 4, !dbg !4189
  call void @_ZN14altered_carbon2js13ACLexPositionC1Ev(%"struct.altered_carbon::js::ACLexPosition"* %32), !dbg !4189
  %33 = getelementptr inbounds %"class.altered_carbon::js::ACLexToken", %"class.altered_carbon::js::ACLexToken"* %19, i32 0, i32 5, !dbg !4189
  store %"class.std::__1::basic_string"* %33, %"class.std::__1::basic_string"** %13, align 8
  %34 = load %"class.std::__1::basic_string"*, %"class.std::__1::basic_string"** %13, align 8
  store %"class.std::__1::basic_string"* %34, %"class.std::__1::basic_string"** %12, align 8
  %35 = load %"class.std::__1::basic_string"*, %"class.std::__1::basic_string"** %12, align 8
  %36 = bitcast %"class.std::__1::basic_string"* %35 to %"class.std::__1::__basic_string_common"*, !dbg !4190
  %37 = getelementptr inbounds %"class.std::__1::basic_string", %"class.std::__1::basic_string"* %35, i32 0, i32 0, !dbg !4191
  store %"class.std::__1::__compressed_pair"* %37, %"class.std::__1::__compressed_pair"** %11, align 8
  %38 = load %"class.std::__1::__compressed_pair"*, %"class.std::__1::__compressed_pair"** %11, align 8
  store %"class.std::__1::__compressed_pair"* %38, %"class.std::__1::__compressed_pair"** %10, align 8
  %39 = load %"class.std::__1::__compressed_pair"*, %"class.std::__1::__compressed_pair"** %10, align 8
  %40 = bitcast %"class.std::__1::__compressed_pair"* %39 to %"struct.std::__1::__compressed_pair_elem"*, !dbg !4192
  store %"struct.std::__1::__compressed_pair_elem"* %40, %"struct.std::__1::__compressed_pair_elem"** %9, align 8
  %41 = load %"struct.std::__1::__compressed_pair_elem"*, %"struct.std::__1::__compressed_pair_elem"** %9, align 8
  %42 = getelementptr inbounds %"struct.std::__1::__compressed_pair_elem", %"struct.std::__1::__compressed_pair_elem"* %41, i32 0, i32 0, !dbg !4193
  %43 = bitcast %"struct.std::__1::basic_string<wchar_t, std::__1::char_traits<wchar_t>, std::__1::allocator<wchar_t> >::__rep"* %42 to i8*, !dbg !4193
  call void @llvm.memset.p0i8.i64(i8* align 8 %43, i8 0, i64 24, i1 false), !dbg !4193
  %44 = bitcast %"class.std::__1::__compressed_pair"* %39 to %"struct.std::__1::__compressed_pair_elem.1"*, !dbg !4192
  store %"struct.std::__1::__compressed_pair_elem.1"* %44, %"struct.std::__1::__compressed_pair_elem.1"** %8, align 8
  %45 = load %"struct.std::__1::__compressed_pair_elem.1"*, %"struct.std::__1::__compressed_pair_elem.1"** %8, align 8
  %46 = bitcast %"struct.std::__1::__compressed_pair_elem.1"* %45 to %"class.std::__1::allocator"*, !dbg !4194
  store %"class.std::__1::allocator"* %46, %"class.std::__1::allocator"** %7, align 8
  %47 = load %"class.std::__1::allocator"*, %"class.std::__1::allocator"** %7, align 8
  store %"class.std::__1::basic_string"* %35, %"class.std::__1::basic_string"** %4, align 8
  %48 = load %"class.std::__1::basic_string"*, %"class.std::__1::basic_string"** %4, align 8
  %49 = getelementptr inbounds %"class.std::__1::basic_string", %"class.std::__1::basic_string"* %48, i32 0, i32 0, !dbg !4195
  store %"class.std::__1::__compressed_pair"* %49, %"class.std::__1::__compressed_pair"** %3, align 8
  %50 = load %"class.std::__1::__compressed_pair"*, %"class.std::__1::__compressed_pair"** %3, align 8
  %51 = bitcast %"class.std::__1::__compressed_pair"* %50 to %"struct.std::__1::__compressed_pair_elem"*, !dbg !4196
  store %"struct.std::__1::__compressed_pair_elem"* %51, %"struct.std::__1::__compressed_pair_elem"** %2, align 8
  %52 = load %"struct.std::__1::__compressed_pair_elem"*, %"struct.std::__1::__compressed_pair_elem"** %2, align 8
  %53 = getelementptr inbounds %"struct.std::__1::__compressed_pair_elem", %"struct.std::__1::__compressed_pair_elem"* %52, i32 0, i32 0, !dbg !4197
  %54 = getelementptr inbounds %"struct.std::__1::basic_string<wchar_t, std::__1::char_traits<wchar_t>, std::__1::allocator<wchar_t> >::__rep", %"struct.std::__1::basic_string<wchar_t, std::__1::char_traits<wchar_t>, std::__1::allocator<wchar_t> >::__rep"* %53, i32 0, i32 0, !dbg !4198
  %55 = bitcast %union.anon* %54 to %"struct.std::__1::basic_string<wchar_t, std::__1::char_traits<wchar_t>, std::__1::allocator<wchar_t> >::__raw"*, !dbg !4198
  %56 = getelementptr inbounds %"struct.std::__1::basic_string<wchar_t, std::__1::char_traits<wchar_t>, std::__1::allocator<wchar_t> >::__raw", %"struct.std::__1::basic_string<wchar_t, std::__1::char_traits<wchar_t>, std::__1::allocator<wchar_t> >::__raw"* %55, i32 0, i32 0, !dbg !4199
  store [3 x i64]* %56, [3 x i64]** %5, align 8, !dbg !4127
  store i32 0, i32* %6, align 4, !dbg !4130
  br label %57, !dbg !4200

; <label>:57:                                     ; preds = %60, %1
  %58 = load i32, i32* %6, align 4, !dbg !4201
  %59 = icmp ult i32 %58, 3, !dbg !4203
  br i1 %59, label %60, label %67, !dbg !4204

; <label>:60:                                     ; preds = %57
  %61 = load [3 x i64]*, [3 x i64]** %5, align 8, !dbg !4205
  %62 = load i32, i32* %6, align 4, !dbg !4206
  %63 = zext i32 %62 to i64, !dbg !4205
  %64 = getelementptr inbounds [3 x i64], [3 x i64]* %61, i64 0, i64 %63, !dbg !4205
  store i64 0, i64* %64, align 8, !dbg !4207
  %65 = load i32, i32* %6, align 4, !dbg !4208
  %66 = add i32 %65, 1, !dbg !4208
  store i32 %66, i32* %6, align 4, !dbg !4208
  br label %57, !dbg !4209, !llvm.loop !4210

; <label>:67:                                     ; preds = %57
  ret void, !dbg !4213
}

; Function Attrs: nounwind readnone speculatable
declare void @llvm.dbg.declare(metadata, metadata, metadata) #1

; Function Attrs: noinline nounwind optnone ssp uwtable
define void @_ZN14altered_carbon2js13ACLexPositionC1Ev(%"struct.altered_carbon::js::ACLexPosition"*) unnamed_addr #0 align 2 !dbg !4214 {
  %2 = alloca %"struct.altered_carbon::js::ACLexPosition"*, align 8
  store %"struct.altered_carbon::js::ACLexPosition"* %0, %"struct.altered_carbon::js::ACLexPosition"** %2, align 8
  call void @llvm.dbg.declare(metadata %"struct.altered_carbon::js::ACLexPosition"** %2, metadata !4215, metadata !DIExpression()), !dbg !4217
  %3 = load %"struct.altered_carbon::js::ACLexPosition"*, %"struct.altered_carbon::js::ACLexPosition"** %2, align 8
  call void @_ZN14altered_carbon2js13ACLexPositionC2Ev(%"struct.altered_carbon::js::ACLexPosition"* %3), !dbg !4218
  ret void, !dbg !4219
}

; Function Attrs: noinline nounwind optnone ssp uwtable
define void @_ZN14altered_carbon2js10ACLexTokenC1Ev(%"class.altered_carbon::js::ACLexToken"*) unnamed_addr #0 align 2 !dbg !4220 {
  %2 = alloca %"class.altered_carbon::js::ACLexToken"*, align 8
  store %"class.altered_carbon::js::ACLexToken"* %0, %"class.altered_carbon::js::ACLexToken"** %2, align 8
  call void @llvm.dbg.declare(metadata %"class.altered_carbon::js::ACLexToken"** %2, metadata !4221, metadata !DIExpression()), !dbg !4222
  %3 = load %"class.altered_carbon::js::ACLexToken"*, %"class.altered_carbon::js::ACLexToken"** %2, align 8
  call void @_ZN14altered_carbon2js10ACLexTokenC2Ev(%"class.altered_carbon::js::ACLexToken"* %3), !dbg !4223
  ret void, !dbg !4224
}

; Function Attrs: noinline nounwind optnone ssp uwtable
define void @_ZN14altered_carbon2js10ACLexTokenC2ENS0_14ACLexTokenTypeE(%"class.altered_carbon::js::ACLexToken"*, i32) unnamed_addr #0 align 2 !dbg !4225 {
  %3 = alloca %"struct.std::__1::__compressed_pair_elem"*, align 8
  call void @llvm.dbg.declare(metadata %"struct.std::__1::__compressed_pair_elem"** %3, metadata !4105, metadata !DIExpression()), !dbg !4226
  %4 = alloca %"class.std::__1::__compressed_pair"*, align 8
  call void @llvm.dbg.declare(metadata %"class.std::__1::__compressed_pair"** %4, metadata !4119, metadata !DIExpression()), !dbg !4232
  %5 = alloca %"class.std::__1::basic_string"*, align 8
  call void @llvm.dbg.declare(metadata %"class.std::__1::basic_string"** %5, metadata !4122, metadata !DIExpression()), !dbg !4233
  %6 = alloca [3 x i64]*, align 8
  call void @llvm.dbg.declare(metadata [3 x i64]** %6, metadata !4125, metadata !DIExpression()), !dbg !4234
  %7 = alloca i32, align 4
  call void @llvm.dbg.declare(metadata i32* %7, metadata !4128, metadata !DIExpression()), !dbg !4235
  %8 = alloca %"class.std::__1::allocator"*, align 8
  call void @llvm.dbg.declare(metadata %"class.std::__1::allocator"** %8, metadata !4131, metadata !DIExpression()), !dbg !4236
  %9 = alloca %"struct.std::__1::__compressed_pair_elem.1"*, align 8
  call void @llvm.dbg.declare(metadata %"struct.std::__1::__compressed_pair_elem.1"** %9, metadata !4148, metadata !DIExpression()), !dbg !4241
  %10 = alloca %"struct.std::__1::__compressed_pair_elem"*, align 8
  call void @llvm.dbg.declare(metadata %"struct.std::__1::__compressed_pair_elem"** %10, metadata !4151, metadata !DIExpression()), !dbg !4242
  %11 = alloca %"class.std::__1::__compressed_pair"*, align 8
  call void @llvm.dbg.declare(metadata %"class.std::__1::__compressed_pair"** %11, metadata !4155, metadata !DIExpression()), !dbg !4244
  %12 = alloca %"class.std::__1::__compressed_pair"*, align 8
  call void @llvm.dbg.declare(metadata %"class.std::__1::__compressed_pair"** %12, metadata !4157, metadata !DIExpression()), !dbg !4245
  %13 = alloca %"class.std::__1::basic_string"*, align 8
  call void @llvm.dbg.declare(metadata %"class.std::__1::basic_string"** %13, metadata !4159, metadata !DIExpression()), !dbg !4246
  %14 = alloca %"class.std::__1::basic_string"*, align 8
  call void @llvm.dbg.declare(metadata %"class.std::__1::basic_string"** %14, metadata !4161, metadata !DIExpression()), !dbg !4247
  %15 = alloca %"class.std::__1::basic_string_view"*, align 8
  call void @llvm.dbg.declare(metadata %"class.std::__1::basic_string_view"** %15, metadata !4163, metadata !DIExpression()), !dbg !4248
  %16 = alloca i8*, align 8
  call void @llvm.dbg.declare(metadata i8** %16, metadata !4170, metadata !DIExpression()), !dbg !4251
  %17 = alloca %"class.std::__1::basic_string_view"*, align 8
  call void @llvm.dbg.declare(metadata %"class.std::__1::basic_string_view"** %17, metadata !4172, metadata !DIExpression()), !dbg !4252
  %18 = alloca i8*, align 8
  call void @llvm.dbg.declare(metadata i8** %18, metadata !4174, metadata !DIExpression()), !dbg !4253
  %19 = alloca %"class.altered_carbon::js::ACLexToken"*, align 8
  %20 = alloca i32, align 4
  store %"class.altered_carbon::js::ACLexToken"* %0, %"class.altered_carbon::js::ACLexToken"** %19, align 8
  call void @llvm.dbg.declare(metadata %"class.altered_carbon::js::ACLexToken"** %19, metadata !4254, metadata !DIExpression()), !dbg !4255
  store i32 %1, i32* %20, align 4
  call void @llvm.dbg.declare(metadata i32* %20, metadata !4256, metadata !DIExpression()), !dbg !4257
  %21 = load %"class.altered_carbon::js::ACLexToken"*, %"class.altered_carbon::js::ACLexToken"** %19, align 8
  %22 = bitcast %"class.altered_carbon::js::ACLexToken"* %21 to i32 (...)***, !dbg !4258
  store i32 (...)** bitcast (i8** getelementptr inbounds ({ [7 x i8*] }, { [7 x i8*] }* @_ZTVN14altered_carbon2js10ACLexTokenE, i32 0, inrange i32 0, i32 2) to i32 (...)**), i32 (...)*** %22, align 8, !dbg !4258
  %23 = getelementptr inbounds %"class.altered_carbon::js::ACLexToken", %"class.altered_carbon::js::ACLexToken"* %21, i32 0, i32 1, !dbg !4259
  %24 = load i32, i32* %20, align 4, !dbg !4260
  store i32 %24, i32* %23, align 8, !dbg !4259
  %25 = getelementptr inbounds %"class.altered_carbon::js::ACLexToken", %"class.altered_carbon::js::ACLexToken"* %21, i32 0, i32 2, !dbg !4261
  store i64 0, i64* %25, align 8, !dbg !4261
  %26 = getelementptr inbounds %"class.altered_carbon::js::ACLexToken", %"class.altered_carbon::js::ACLexToken"* %21, i32 0, i32 3, !dbg !4262
  store %"class.std::__1::basic_string_view"* %26, %"class.std::__1::basic_string_view"** %17, align 8
  store i8* getelementptr inbounds ([1 x i8], [1 x i8]* @.str.126, i32 0, i32 0), i8** %18, align 8
  %27 = load %"class.std::__1::basic_string_view"*, %"class.std::__1::basic_string_view"** %17, align 8
  %28 = load i8*, i8** %18, align 8, !dbg !4263
  store %"class.std::__1::basic_string_view"* %27, %"class.std::__1::basic_string_view"** %15, align 8
  store i8* %28, i8** %16, align 8
  %29 = load %"class.std::__1::basic_string_view"*, %"class.std::__1::basic_string_view"** %15, align 8
  %30 = getelementptr inbounds %"class.std::__1::basic_string_view", %"class.std::__1::basic_string_view"* %29, i32 0, i32 0, !dbg !4264
  %31 = load i8*, i8** %16, align 8, !dbg !4265
  store i8* %31, i8** %30, align 8, !dbg !4264
  %32 = getelementptr inbounds %"class.std::__1::basic_string_view", %"class.std::__1::basic_string_view"* %29, i32 0, i32 1, !dbg !4266
  %33 = load i8*, i8** %16, align 8, !dbg !4267
  %34 = call i64 @_ZNSt3__111char_traitsIcE6lengthEPKc(i8* %33) #6, !dbg !4268
  store i64 %34, i64* %32, align 8, !dbg !4266
  %35 = getelementptr inbounds %"class.altered_carbon::js::ACLexToken", %"class.altered_carbon::js::ACLexToken"* %21, i32 0, i32 4, !dbg !4269
  call void @_ZN14altered_carbon2js13ACLexPositionC1Ev(%"struct.altered_carbon::js::ACLexPosition"* %35), !dbg !4269
  %36 = getelementptr inbounds %"class.altered_carbon::js::ACLexToken", %"class.altered_carbon::js::ACLexToken"* %21, i32 0, i32 5, !dbg !4269
  store %"class.std::__1::basic_string"* %36, %"class.std::__1::basic_string"** %14, align 8
  %37 = load %"class.std::__1::basic_string"*, %"class.std::__1::basic_string"** %14, align 8
  store %"class.std::__1::basic_string"* %37, %"class.std::__1::basic_string"** %13, align 8
  %38 = load %"class.std::__1::basic_string"*, %"class.std::__1::basic_string"** %13, align 8
  %39 = bitcast %"class.std::__1::basic_string"* %38 to %"class.std::__1::__basic_string_common"*, !dbg !4270
  %40 = getelementptr inbounds %"class.std::__1::basic_string", %"class.std::__1::basic_string"* %38, i32 0, i32 0, !dbg !4271
  store %"class.std::__1::__compressed_pair"* %40, %"class.std::__1::__compressed_pair"** %12, align 8
  %41 = load %"class.std::__1::__compressed_pair"*, %"class.std::__1::__compressed_pair"** %12, align 8
  store %"class.std::__1::__compressed_pair"* %41, %"class.std::__1::__compressed_pair"** %11, align 8
  %42 = load %"class.std::__1::__compressed_pair"*, %"class.std::__1::__compressed_pair"** %11, align 8
  %43 = bitcast %"class.std::__1::__compressed_pair"* %42 to %"struct.std::__1::__compressed_pair_elem"*, !dbg !4272
  store %"struct.std::__1::__compressed_pair_elem"* %43, %"struct.std::__1::__compressed_pair_elem"** %10, align 8
  %44 = load %"struct.std::__1::__compressed_pair_elem"*, %"struct.std::__1::__compressed_pair_elem"** %10, align 8
  %45 = getelementptr inbounds %"struct.std::__1::__compressed_pair_elem", %"struct.std::__1::__compressed_pair_elem"* %44, i32 0, i32 0, !dbg !4273
  %46 = bitcast %"struct.std::__1::basic_string<wchar_t, std::__1::char_traits<wchar_t>, std::__1::allocator<wchar_t> >::__rep"* %45 to i8*, !dbg !4273
  call void @llvm.memset.p0i8.i64(i8* align 8 %46, i8 0, i64 24, i1 false), !dbg !4273
  %47 = bitcast %"class.std::__1::__compressed_pair"* %42 to %"struct.std::__1::__compressed_pair_elem.1"*, !dbg !4272
  store %"struct.std::__1::__compressed_pair_elem.1"* %47, %"struct.std::__1::__compressed_pair_elem.1"** %9, align 8
  %48 = load %"struct.std::__1::__compressed_pair_elem.1"*, %"struct.std::__1::__compressed_pair_elem.1"** %9, align 8
  %49 = bitcast %"struct.std::__1::__compressed_pair_elem.1"* %48 to %"class.std::__1::allocator"*, !dbg !4274
  store %"class.std::__1::allocator"* %49, %"class.std::__1::allocator"** %8, align 8
  %50 = load %"class.std::__1::allocator"*, %"class.std::__1::allocator"** %8, align 8
  store %"class.std::__1::basic_string"* %38, %"class.std::__1::basic_string"** %5, align 8
  %51 = load %"class.std::__1::basic_string"*, %"class.std::__1::basic_string"** %5, align 8
  %52 = getelementptr inbounds %"class.std::__1::basic_string", %"class.std::__1::basic_string"* %51, i32 0, i32 0, !dbg !4275
  store %"class.std::__1::__compressed_pair"* %52, %"class.std::__1::__compressed_pair"** %4, align 8
  %53 = load %"class.std::__1::__compressed_pair"*, %"class.std::__1::__compressed_pair"** %4, align 8
  %54 = bitcast %"class.std::__1::__compressed_pair"* %53 to %"struct.std::__1::__compressed_pair_elem"*, !dbg !4276
  store %"struct.std::__1::__compressed_pair_elem"* %54, %"struct.std::__1::__compressed_pair_elem"** %3, align 8
  %55 = load %"struct.std::__1::__compressed_pair_elem"*, %"struct.std::__1::__compressed_pair_elem"** %3, align 8
  %56 = getelementptr inbounds %"struct.std::__1::__compressed_pair_elem", %"struct.std::__1::__compressed_pair_elem"* %55, i32 0, i32 0, !dbg !4277
  %57 = getelementptr inbounds %"struct.std::__1::basic_string<wchar_t, std::__1::char_traits<wchar_t>, std::__1::allocator<wchar_t> >::__rep", %"struct.std::__1::basic_string<wchar_t, std::__1::char_traits<wchar_t>, std::__1::allocator<wchar_t> >::__rep"* %56, i32 0, i32 0, !dbg !4278
  %58 = bitcast %union.anon* %57 to %"struct.std::__1::basic_string<wchar_t, std::__1::char_traits<wchar_t>, std::__1::allocator<wchar_t> >::__raw"*, !dbg !4278
  %59 = getelementptr inbounds %"struct.std::__1::basic_string<wchar_t, std::__1::char_traits<wchar_t>, std::__1::allocator<wchar_t> >::__raw", %"struct.std::__1::basic_string<wchar_t, std::__1::char_traits<wchar_t>, std::__1::allocator<wchar_t> >::__raw"* %58, i32 0, i32 0, !dbg !4279
  store [3 x i64]* %59, [3 x i64]** %6, align 8, !dbg !4234
  store i32 0, i32* %7, align 4, !dbg !4235
  br label %60, !dbg !4280

; <label>:60:                                     ; preds = %63, %2
  %61 = load i32, i32* %7, align 4, !dbg !4281
  %62 = icmp ult i32 %61, 3, !dbg !4282
  br i1 %62, label %63, label %70, !dbg !4283

; <label>:63:                                     ; preds = %60
  %64 = load [3 x i64]*, [3 x i64]** %6, align 8, !dbg !4284
  %65 = load i32, i32* %7, align 4, !dbg !4285
  %66 = zext i32 %65 to i64, !dbg !4284
  %67 = getelementptr inbounds [3 x i64], [3 x i64]* %64, i64 0, i64 %66, !dbg !4284
  store i64 0, i64* %67, align 8, !dbg !4286
  %68 = load i32, i32* %7, align 4, !dbg !4287
  %69 = add i32 %68, 1, !dbg !4287
  store i32 %69, i32* %7, align 4, !dbg !4287
  br label %60, !dbg !4288, !llvm.loop !4210

; <label>:70:                                     ; preds = %60
  ret void, !dbg !4289
}

; Function Attrs: noinline nounwind optnone ssp uwtable
define void @_ZN14altered_carbon2js10ACLexTokenC1ENS0_14ACLexTokenTypeE(%"class.altered_carbon::js::ACLexToken"*, i32) unnamed_addr #0 align 2 !dbg !4290 {
  %3 = alloca %"class.altered_carbon::js::ACLexToken"*, align 8
  %4 = alloca i32, align 4
  store %"class.altered_carbon::js::ACLexToken"* %0, %"class.altered_carbon::js::ACLexToken"** %3, align 8
  call void @llvm.dbg.declare(metadata %"class.altered_carbon::js::ACLexToken"** %3, metadata !4291, metadata !DIExpression()), !dbg !4292
  store i32 %1, i32* %4, align 4
  call void @llvm.dbg.declare(metadata i32* %4, metadata !4293, metadata !DIExpression()), !dbg !4294
  %5 = load %"class.altered_carbon::js::ACLexToken"*, %"class.altered_carbon::js::ACLexToken"** %3, align 8
  %6 = load i32, i32* %4, align 4, !dbg !4295
  call void @_ZN14altered_carbon2js10ACLexTokenC2ENS0_14ACLexTokenTypeE(%"class.altered_carbon::js::ACLexToken"* %5, i32 %6), !dbg !4295
  ret void, !dbg !4296
}

; Function Attrs: noinline nounwind optnone ssp uwtable
define void @_ZN14altered_carbon2js10ACLexTokenC2ENS0_14ACLexTokenTypeEmNSt3__117basic_string_viewIcNS3_11char_traitsIcEEEERNS0_13ACLexPositionE(%"class.altered_carbon::js::ACLexToken"*, i32, i64, i8*, i64, %"struct.altered_carbon::js::ACLexPosition"* dereferenceable(32)) unnamed_addr #0 align 2 !dbg !4297 {
  %7 = alloca %"struct.std::__1::__compressed_pair_elem"*, align 8
  call void @llvm.dbg.declare(metadata %"struct.std::__1::__compressed_pair_elem"** %7, metadata !4105, metadata !DIExpression()), !dbg !4298
  %8 = alloca %"class.std::__1::__compressed_pair"*, align 8
  call void @llvm.dbg.declare(metadata %"class.std::__1::__compressed_pair"** %8, metadata !4119, metadata !DIExpression()), !dbg !4304
  %9 = alloca %"class.std::__1::basic_string"*, align 8
  call void @llvm.dbg.declare(metadata %"class.std::__1::basic_string"** %9, metadata !4122, metadata !DIExpression()), !dbg !4305
  %10 = alloca [3 x i64]*, align 8
  call void @llvm.dbg.declare(metadata [3 x i64]** %10, metadata !4125, metadata !DIExpression()), !dbg !4306
  %11 = alloca i32, align 4
  call void @llvm.dbg.declare(metadata i32* %11, metadata !4128, metadata !DIExpression()), !dbg !4307
  %12 = alloca %"class.std::__1::allocator"*, align 8
  call void @llvm.dbg.declare(metadata %"class.std::__1::allocator"** %12, metadata !4131, metadata !DIExpression()), !dbg !4308
  %13 = alloca %"struct.std::__1::__compressed_pair_elem.1"*, align 8
  call void @llvm.dbg.declare(metadata %"struct.std::__1::__compressed_pair_elem.1"** %13, metadata !4148, metadata !DIExpression()), !dbg !4313
  %14 = alloca %"struct.std::__1::__compressed_pair_elem"*, align 8
  call void @llvm.dbg.declare(metadata %"struct.std::__1::__compressed_pair_elem"** %14, metadata !4151, metadata !DIExpression()), !dbg !4314
  %15 = alloca %"class.std::__1::__compressed_pair"*, align 8
  call void @llvm.dbg.declare(metadata %"class.std::__1::__compressed_pair"** %15, metadata !4155, metadata !DIExpression()), !dbg !4316
  %16 = alloca %"class.std::__1::__compressed_pair"*, align 8
  call void @llvm.dbg.declare(metadata %"class.std::__1::__compressed_pair"** %16, metadata !4157, metadata !DIExpression()), !dbg !4317
  %17 = alloca %"class.std::__1::basic_string"*, align 8
  call void @llvm.dbg.declare(metadata %"class.std::__1::basic_string"** %17, metadata !4159, metadata !DIExpression()), !dbg !4318
  %18 = alloca %"class.std::__1::basic_string"*, align 8
  call void @llvm.dbg.declare(metadata %"class.std::__1::basic_string"** %18, metadata !4161, metadata !DIExpression()), !dbg !4319
  %19 = alloca %"class.std::__1::basic_string_view", align 8
  %20 = alloca %"class.altered_carbon::js::ACLexToken"*, align 8
  %21 = alloca i32, align 4
  %22 = alloca i64, align 8
  %23 = alloca %"struct.altered_carbon::js::ACLexPosition"*, align 8
  %24 = bitcast %"class.std::__1::basic_string_view"* %19 to { i8*, i64 }*
  %25 = getelementptr inbounds { i8*, i64 }, { i8*, i64 }* %24, i32 0, i32 0
  store i8* %3, i8** %25, align 8
  %26 = getelementptr inbounds { i8*, i64 }, { i8*, i64 }* %24, i32 0, i32 1
  store i64 %4, i64* %26, align 8
  store %"class.altered_carbon::js::ACLexToken"* %0, %"class.altered_carbon::js::ACLexToken"** %20, align 8
  call void @llvm.dbg.declare(metadata %"class.altered_carbon::js::ACLexToken"** %20, metadata !4320, metadata !DIExpression()), !dbg !4321
  store i32 %1, i32* %21, align 4
  call void @llvm.dbg.declare(metadata i32* %21, metadata !4322, metadata !DIExpression()), !dbg !4323
  store i64 %2, i64* %22, align 8
  call void @llvm.dbg.declare(metadata i64* %22, metadata !4324, metadata !DIExpression()), !dbg !4325
  call void @llvm.dbg.declare(metadata %"class.std::__1::basic_string_view"* %19, metadata !4326, metadata !DIExpression()), !dbg !4327
  store %"struct.altered_carbon::js::ACLexPosition"* %5, %"struct.altered_carbon::js::ACLexPosition"** %23, align 8
  call void @llvm.dbg.declare(metadata %"struct.altered_carbon::js::ACLexPosition"** %23, metadata !4328, metadata !DIExpression()), !dbg !4329
  %27 = load %"class.altered_carbon::js::ACLexToken"*, %"class.altered_carbon::js::ACLexToken"** %20, align 8
  %28 = bitcast %"class.altered_carbon::js::ACLexToken"* %27 to i32 (...)***, !dbg !4330
  store i32 (...)** bitcast (i8** getelementptr inbounds ({ [7 x i8*] }, { [7 x i8*] }* @_ZTVN14altered_carbon2js10ACLexTokenE, i32 0, inrange i32 0, i32 2) to i32 (...)**), i32 (...)*** %28, align 8, !dbg !4330
  %29 = getelementptr inbounds %"class.altered_carbon::js::ACLexToken", %"class.altered_carbon::js::ACLexToken"* %27, i32 0, i32 1, !dbg !4331
  %30 = load i32, i32* %21, align 4, !dbg !4332
  store i32 %30, i32* %29, align 8, !dbg !4331
  %31 = getelementptr inbounds %"class.altered_carbon::js::ACLexToken", %"class.altered_carbon::js::ACLexToken"* %27, i32 0, i32 2, !dbg !4333
  %32 = load i64, i64* %22, align 8, !dbg !4334
  store i64 %32, i64* %31, align 8, !dbg !4333
  %33 = getelementptr inbounds %"class.altered_carbon::js::ACLexToken", %"class.altered_carbon::js::ACLexToken"* %27, i32 0, i32 3, !dbg !4335
  %34 = bitcast %"class.std::__1::basic_string_view"* %33 to i8*, !dbg !4335
  %35 = bitcast %"class.std::__1::basic_string_view"* %19 to i8*, !dbg !4335
  call void @llvm.memcpy.p0i8.p0i8.i64(i8* align 8 %34, i8* align 8 %35, i64 16, i1 false), !dbg !4335
  %36 = getelementptr inbounds %"class.altered_carbon::js::ACLexToken", %"class.altered_carbon::js::ACLexToken"* %27, i32 0, i32 4, !dbg !4336
  %37 = load %"struct.altered_carbon::js::ACLexPosition"*, %"struct.altered_carbon::js::ACLexPosition"** %23, align 8, !dbg !4337
  call void @_ZN14altered_carbon2js13ACLexPositionC1ERKS1_(%"struct.altered_carbon::js::ACLexPosition"* %36, %"struct.altered_carbon::js::ACLexPosition"* dereferenceable(32) %37), !dbg !4336
  %38 = getelementptr inbounds %"class.altered_carbon::js::ACLexToken", %"class.altered_carbon::js::ACLexToken"* %27, i32 0, i32 5, !dbg !4338
  store %"class.std::__1::basic_string"* %38, %"class.std::__1::basic_string"** %18, align 8
  %39 = load %"class.std::__1::basic_string"*, %"class.std::__1::basic_string"** %18, align 8
  store %"class.std::__1::basic_string"* %39, %"class.std::__1::basic_string"** %17, align 8
  %40 = load %"class.std::__1::basic_string"*, %"class.std::__1::basic_string"** %17, align 8
  %41 = bitcast %"class.std::__1::basic_string"* %40 to %"class.std::__1::__basic_string_common"*, !dbg !4339
  %42 = getelementptr inbounds %"class.std::__1::basic_string", %"class.std::__1::basic_string"* %40, i32 0, i32 0, !dbg !4340
  store %"class.std::__1::__compressed_pair"* %42, %"class.std::__1::__compressed_pair"** %16, align 8
  %43 = load %"class.std::__1::__compressed_pair"*, %"class.std::__1::__compressed_pair"** %16, align 8
  store %"class.std::__1::__compressed_pair"* %43, %"class.std::__1::__compressed_pair"** %15, align 8
  %44 = load %"class.std::__1::__compressed_pair"*, %"class.std::__1::__compressed_pair"** %15, align 8
  %45 = bitcast %"class.std::__1::__compressed_pair"* %44 to %"struct.std::__1::__compressed_pair_elem"*, !dbg !4341
  store %"struct.std::__1::__compressed_pair_elem"* %45, %"struct.std::__1::__compressed_pair_elem"** %14, align 8
  %46 = load %"struct.std::__1::__compressed_pair_elem"*, %"struct.std::__1::__compressed_pair_elem"** %14, align 8
  %47 = getelementptr inbounds %"struct.std::__1::__compressed_pair_elem", %"struct.std::__1::__compressed_pair_elem"* %46, i32 0, i32 0, !dbg !4342
  %48 = bitcast %"struct.std::__1::basic_string<wchar_t, std::__1::char_traits<wchar_t>, std::__1::allocator<wchar_t> >::__rep"* %47 to i8*, !dbg !4342
  call void @llvm.memset.p0i8.i64(i8* align 8 %48, i8 0, i64 24, i1 false), !dbg !4342
  %49 = bitcast %"class.std::__1::__compressed_pair"* %44 to %"struct.std::__1::__compressed_pair_elem.1"*, !dbg !4341
  store %"struct.std::__1::__compressed_pair_elem.1"* %49, %"struct.std::__1::__compressed_pair_elem.1"** %13, align 8
  %50 = load %"struct.std::__1::__compressed_pair_elem.1"*, %"struct.std::__1::__compressed_pair_elem.1"** %13, align 8
  %51 = bitcast %"struct.std::__1::__compressed_pair_elem.1"* %50 to %"class.std::__1::allocator"*, !dbg !4343
  store %"class.std::__1::allocator"* %51, %"class.std::__1::allocator"** %12, align 8
  %52 = load %"class.std::__1::allocator"*, %"class.std::__1::allocator"** %12, align 8
  store %"class.std::__1::basic_string"* %40, %"class.std::__1::basic_string"** %9, align 8
  %53 = load %"class.std::__1::basic_string"*, %"class.std::__1::basic_string"** %9, align 8
  %54 = getelementptr inbounds %"class.std::__1::basic_string", %"class.std::__1::basic_string"* %53, i32 0, i32 0, !dbg !4344
  store %"class.std::__1::__compressed_pair"* %54, %"class.std::__1::__compressed_pair"** %8, align 8
  %55 = load %"class.std::__1::__compressed_pair"*, %"class.std::__1::__compressed_pair"** %8, align 8
  %56 = bitcast %"class.std::__1::__compressed_pair"* %55 to %"struct.std::__1::__compressed_pair_elem"*, !dbg !4345
  store %"struct.std::__1::__compressed_pair_elem"* %56, %"struct.std::__1::__compressed_pair_elem"** %7, align 8
  %57 = load %"struct.std::__1::__compressed_pair_elem"*, %"struct.std::__1::__compressed_pair_elem"** %7, align 8
  %58 = getelementptr inbounds %"struct.std::__1::__compressed_pair_elem", %"struct.std::__1::__compressed_pair_elem"* %57, i32 0, i32 0, !dbg !4346
  %59 = getelementptr inbounds %"struct.std::__1::basic_string<wchar_t, std::__1::char_traits<wchar_t>, std::__1::allocator<wchar_t> >::__rep", %"struct.std::__1::basic_string<wchar_t, std::__1::char_traits<wchar_t>, std::__1::allocator<wchar_t> >::__rep"* %58, i32 0, i32 0, !dbg !4347
  %60 = bitcast %union.anon* %59 to %"struct.std::__1::basic_string<wchar_t, std::__1::char_traits<wchar_t>, std::__1::allocator<wchar_t> >::__raw"*, !dbg !4347
  %61 = getelementptr inbounds %"struct.std::__1::basic_string<wchar_t, std::__1::char_traits<wchar_t>, std::__1::allocator<wchar_t> >::__raw", %"struct.std::__1::basic_string<wchar_t, std::__1::char_traits<wchar_t>, std::__1::allocator<wchar_t> >::__raw"* %60, i32 0, i32 0, !dbg !4348
  store [3 x i64]* %61, [3 x i64]** %10, align 8, !dbg !4306
  store i32 0, i32* %11, align 4, !dbg !4307
  br label %62, !dbg !4349

; <label>:62:                                     ; preds = %65, %6
  %63 = load i32, i32* %11, align 4, !dbg !4350
  %64 = icmp ult i32 %63, 3, !dbg !4351
  br i1 %64, label %65, label %72, !dbg !4352

; <label>:65:                                     ; preds = %62
  %66 = load [3 x i64]*, [3 x i64]** %10, align 8, !dbg !4353
  %67 = load i32, i32* %11, align 4, !dbg !4354
  %68 = zext i32 %67 to i64, !dbg !4353
  %69 = getelementptr inbounds [3 x i64], [3 x i64]* %66, i64 0, i64 %68, !dbg !4353
  store i64 0, i64* %69, align 8, !dbg !4355
  %70 = load i32, i32* %11, align 4, !dbg !4356
  %71 = add i32 %70, 1, !dbg !4356
  store i32 %71, i32* %11, align 4, !dbg !4356
  br label %62, !dbg !4357, !llvm.loop !4210

; <label>:72:                                     ; preds = %62
  ret void, !dbg !4358
}

; Function Attrs: noinline nounwind optnone ssp uwtable
define void @_ZN14altered_carbon2js13ACLexPositionC1ERKS1_(%"struct.altered_carbon::js::ACLexPosition"*, %"struct.altered_carbon::js::ACLexPosition"* dereferenceable(32)) unnamed_addr #0 align 2 !dbg !4359 {
  %3 = alloca %"struct.altered_carbon::js::ACLexPosition"*, align 8
  %4 = alloca %"struct.altered_carbon::js::ACLexPosition"*, align 8
  store %"struct.altered_carbon::js::ACLexPosition"* %0, %"struct.altered_carbon::js::ACLexPosition"** %3, align 8
  call void @llvm.dbg.declare(metadata %"struct.altered_carbon::js::ACLexPosition"** %3, metadata !4360, metadata !DIExpression()), !dbg !4361
  store %"struct.altered_carbon::js::ACLexPosition"* %1, %"struct.altered_carbon::js::ACLexPosition"** %4, align 8
  call void @llvm.dbg.declare(metadata %"struct.altered_carbon::js::ACLexPosition"** %4, metadata !4362, metadata !DIExpression()), !dbg !4363
  %5 = load %"struct.altered_carbon::js::ACLexPosition"*, %"struct.altered_carbon::js::ACLexPosition"** %3, align 8
  %6 = load %"struct.altered_carbon::js::ACLexPosition"*, %"struct.altered_carbon::js::ACLexPosition"** %4, align 8, !dbg !4364
  call void @_ZN14altered_carbon2js13ACLexPositionC2ERKS1_(%"struct.altered_carbon::js::ACLexPosition"* %5, %"struct.altered_carbon::js::ACLexPosition"* dereferenceable(32) %6), !dbg !4364
  ret void, !dbg !4365
}

; Function Attrs: noinline nounwind optnone ssp uwtable
define void @_ZN14altered_carbon2js10ACLexTokenC1ENS0_14ACLexTokenTypeEmNSt3__117basic_string_viewIcNS3_11char_traitsIcEEEERNS0_13ACLexPositionE(%"class.altered_carbon::js::ACLexToken"*, i32, i64, i8*, i64, %"struct.altered_carbon::js::ACLexPosition"* dereferenceable(32)) unnamed_addr #0 align 2 !dbg !4366 {
  %7 = alloca %"class.std::__1::basic_string_view", align 8
  %8 = alloca %"class.altered_carbon::js::ACLexToken"*, align 8
  %9 = alloca i32, align 4
  %10 = alloca i64, align 8
  %11 = alloca %"struct.altered_carbon::js::ACLexPosition"*, align 8
  %12 = bitcast %"class.std::__1::basic_string_view"* %7 to { i8*, i64 }*
  %13 = getelementptr inbounds { i8*, i64 }, { i8*, i64 }* %12, i32 0, i32 0
  store i8* %3, i8** %13, align 8
  %14 = getelementptr inbounds { i8*, i64 }, { i8*, i64 }* %12, i32 0, i32 1
  store i64 %4, i64* %14, align 8
  store %"class.altered_carbon::js::ACLexToken"* %0, %"class.altered_carbon::js::ACLexToken"** %8, align 8
  call void @llvm.dbg.declare(metadata %"class.altered_carbon::js::ACLexToken"** %8, metadata !4367, metadata !DIExpression()), !dbg !4368
  store i32 %1, i32* %9, align 4
  call void @llvm.dbg.declare(metadata i32* %9, metadata !4369, metadata !DIExpression()), !dbg !4370
  store i64 %2, i64* %10, align 8
  call void @llvm.dbg.declare(metadata i64* %10, metadata !4371, metadata !DIExpression()), !dbg !4372
  call void @llvm.dbg.declare(metadata %"class.std::__1::basic_string_view"* %7, metadata !4373, metadata !DIExpression()), !dbg !4374
  store %"struct.altered_carbon::js::ACLexPosition"* %5, %"struct.altered_carbon::js::ACLexPosition"** %11, align 8
  call void @llvm.dbg.declare(metadata %"struct.altered_carbon::js::ACLexPosition"** %11, metadata !4375, metadata !DIExpression()), !dbg !4376
  %15 = load %"class.altered_carbon::js::ACLexToken"*, %"class.altered_carbon::js::ACLexToken"** %8, align 8
  %16 = load i32, i32* %9, align 4, !dbg !4377
  %17 = load i64, i64* %10, align 8, !dbg !4377
  %18 = load %"struct.altered_carbon::js::ACLexPosition"*, %"struct.altered_carbon::js::ACLexPosition"** %11, align 8, !dbg !4377
  %19 = bitcast %"class.std::__1::basic_string_view"* %7 to { i8*, i64 }*, !dbg !4377
  %20 = getelementptr inbounds { i8*, i64 }, { i8*, i64 }* %19, i32 0, i32 0, !dbg !4377
  %21 = load i8*, i8** %20, align 8, !dbg !4377
  %22 = getelementptr inbounds { i8*, i64 }, { i8*, i64 }* %19, i32 0, i32 1, !dbg !4377
  %23 = load i64, i64* %22, align 8, !dbg !4377
  call void @_ZN14altered_carbon2js10ACLexTokenC2ENS0_14ACLexTokenTypeEmNSt3__117basic_string_viewIcNS3_11char_traitsIcEEEERNS0_13ACLexPositionE(%"class.altered_carbon::js::ACLexToken"* %15, i32 %16, i64 %17, i8* %21, i64 %23, %"struct.altered_carbon::js::ACLexPosition"* dereferenceable(32) %18), !dbg !4377
  ret void, !dbg !4378
}

; Function Attrs: noinline nounwind optnone ssp uwtable
define void @_ZN14altered_carbon2js10ACLexTokenC2ENS0_14ACLexTokenTypeEmNSt3__117basic_string_viewIcNS3_11char_traitsIcEEEERNS0_13ACLexPositionERNS3_12basic_stringIwNS5_IwEENS3_9allocatorIwEEEE(%"class.altered_carbon::js::ACLexToken"*, i32, i64, i8*, i64, %"struct.altered_carbon::js::ACLexPosition"* dereferenceable(32), %"class.std::__1::basic_string"* dereferenceable(24)) unnamed_addr #0 align 2 !dbg !4379 {
  %8 = alloca %"struct.std::__1::__compressed_pair_elem"*, align 8
  call void @llvm.dbg.declare(metadata %"struct.std::__1::__compressed_pair_elem"** %8, metadata !4105, metadata !DIExpression()), !dbg !4380
  %9 = alloca %"class.std::__1::__compressed_pair"*, align 8
  call void @llvm.dbg.declare(metadata %"class.std::__1::__compressed_pair"** %9, metadata !4119, metadata !DIExpression()), !dbg !4386
  %10 = alloca %"struct.std::__1::basic_string<wchar_t, std::__1::char_traits<wchar_t>, std::__1::allocator<wchar_t> >::__rep"*, align 8
  call void @llvm.dbg.declare(metadata %"struct.std::__1::basic_string<wchar_t, std::__1::char_traits<wchar_t>, std::__1::allocator<wchar_t> >::__rep"** %10, metadata !4387, metadata !DIExpression()), !dbg !4396
  %11 = alloca %"struct.std::__1::basic_string<wchar_t, std::__1::char_traits<wchar_t>, std::__1::allocator<wchar_t> >::__rep"*, align 8
  call void @llvm.dbg.declare(metadata %"struct.std::__1::basic_string<wchar_t, std::__1::char_traits<wchar_t>, std::__1::allocator<wchar_t> >::__rep"** %11, metadata !4387, metadata !DIExpression()), !dbg !4406
  %12 = alloca %"struct.std::__1::basic_string<wchar_t, std::__1::char_traits<wchar_t>, std::__1::allocator<wchar_t> >::__rep"*, align 8
  call void @llvm.dbg.declare(metadata %"struct.std::__1::basic_string<wchar_t, std::__1::char_traits<wchar_t>, std::__1::allocator<wchar_t> >::__rep"** %12, metadata !4387, metadata !DIExpression()), !dbg !4408
  %13 = alloca %"struct.std::__1::basic_string<wchar_t, std::__1::char_traits<wchar_t>, std::__1::allocator<wchar_t> >::__rep"*, align 8
  call void @llvm.dbg.declare(metadata %"struct.std::__1::basic_string<wchar_t, std::__1::char_traits<wchar_t>, std::__1::allocator<wchar_t> >::__rep"** %13, metadata !4410, metadata !DIExpression()), !dbg !4411
  %14 = alloca %"struct.std::__1::basic_string<wchar_t, std::__1::char_traits<wchar_t>, std::__1::allocator<wchar_t> >::__rep"*, align 8
  call void @llvm.dbg.declare(metadata %"struct.std::__1::basic_string<wchar_t, std::__1::char_traits<wchar_t>, std::__1::allocator<wchar_t> >::__rep"** %14, metadata !4412, metadata !DIExpression()), !dbg !4413
  %15 = alloca %"struct.std::__1::basic_string<wchar_t, std::__1::char_traits<wchar_t>, std::__1::allocator<wchar_t> >::__rep", align 8
  call void @llvm.dbg.declare(metadata %"struct.std::__1::basic_string<wchar_t, std::__1::char_traits<wchar_t>, std::__1::allocator<wchar_t> >::__rep"* %15, metadata !4414, metadata !DIExpression()), !dbg !4415
  %16 = alloca %"struct.std::__1::__compressed_pair_elem.1"*, align 8
  call void @llvm.dbg.declare(metadata %"struct.std::__1::__compressed_pair_elem.1"** %16, metadata !4416, metadata !DIExpression()), !dbg !4418
  %17 = alloca %"class.std::__1::__compressed_pair"*, align 8
  call void @llvm.dbg.declare(metadata %"class.std::__1::__compressed_pair"** %17, metadata !4424, metadata !DIExpression()), !dbg !4425
  %18 = alloca %"class.std::__1::basic_string"*, align 8
  call void @llvm.dbg.declare(metadata %"class.std::__1::basic_string"** %18, metadata !4426, metadata !DIExpression()), !dbg !4427
  %19 = alloca %"struct.std::__1::__compressed_pair_elem.1"*, align 8
  call void @llvm.dbg.declare(metadata %"struct.std::__1::__compressed_pair_elem.1"** %19, metadata !4416, metadata !DIExpression()), !dbg !4428
  %20 = alloca %"class.std::__1::__compressed_pair"*, align 8
  call void @llvm.dbg.declare(metadata %"class.std::__1::__compressed_pair"** %20, metadata !4424, metadata !DIExpression()), !dbg !4432
  %21 = alloca %"class.std::__1::basic_string"*, align 8
  call void @llvm.dbg.declare(metadata %"class.std::__1::basic_string"** %21, metadata !4426, metadata !DIExpression()), !dbg !4433
  %22 = alloca %"class.std::__1::allocator"*, align 8
  call void @llvm.dbg.declare(metadata %"class.std::__1::allocator"** %22, metadata !4434, metadata !DIExpression()), !dbg !4438
  %23 = alloca %"class.std::__1::allocator"*, align 8
  call void @llvm.dbg.declare(metadata %"class.std::__1::allocator"** %23, metadata !4444, metadata !DIExpression()), !dbg !4445
  %24 = alloca %"class.std::__1::allocator"*, align 8
  call void @llvm.dbg.declare(metadata %"class.std::__1::allocator"** %24, metadata !4446, metadata !DIExpression()), !dbg !4447
  %25 = alloca %"class.std::__1::allocator"*, align 8
  call void @llvm.dbg.declare(metadata %"class.std::__1::allocator"** %25, metadata !4448, metadata !DIExpression()), !dbg !4449
  %26 = alloca %"struct.std::__1::__compressed_pair_elem"*, align 8
  call void @llvm.dbg.declare(metadata %"struct.std::__1::__compressed_pair_elem"** %26, metadata !4105, metadata !DIExpression()), !dbg !4450
  %27 = alloca %"class.std::__1::__compressed_pair"*, align 8
  call void @llvm.dbg.declare(metadata %"class.std::__1::__compressed_pair"** %27, metadata !4119, metadata !DIExpression()), !dbg !4453
  %28 = alloca %"class.std::__1::basic_string"*, align 8
  call void @llvm.dbg.declare(metadata %"class.std::__1::basic_string"** %28, metadata !4454, metadata !DIExpression()), !dbg !4455
  %29 = alloca %"class.std::__1::basic_string"*, align 8
  call void @llvm.dbg.declare(metadata %"class.std::__1::basic_string"** %29, metadata !4456, metadata !DIExpression()), !dbg !4457
  %30 = alloca %"struct.std::__1::__compressed_pair_elem"*, align 8
  call void @llvm.dbg.declare(metadata %"struct.std::__1::__compressed_pair_elem"** %30, metadata !4105, metadata !DIExpression()), !dbg !4458
  %31 = alloca %"class.std::__1::__compressed_pair"*, align 8
  call void @llvm.dbg.declare(metadata %"class.std::__1::__compressed_pair"** %31, metadata !4119, metadata !DIExpression()), !dbg !4464
  %32 = alloca %"class.std::__1::basic_string"*, align 8
  call void @llvm.dbg.declare(metadata %"class.std::__1::basic_string"** %32, metadata !4122, metadata !DIExpression()), !dbg !4465
  %33 = alloca [3 x i64]*, align 8
  call void @llvm.dbg.declare(metadata [3 x i64]** %33, metadata !4125, metadata !DIExpression()), !dbg !4466
  %34 = alloca i32, align 4
  call void @llvm.dbg.declare(metadata i32* %34, metadata !4128, metadata !DIExpression()), !dbg !4467
  %35 = alloca %"class.std::__1::allocator"*, align 8
  call void @llvm.dbg.declare(metadata %"class.std::__1::allocator"** %35, metadata !4131, metadata !DIExpression()), !dbg !4468
  %36 = alloca %"struct.std::__1::__compressed_pair_elem.1"*, align 8
  call void @llvm.dbg.declare(metadata %"struct.std::__1::__compressed_pair_elem.1"** %36, metadata !4148, metadata !DIExpression()), !dbg !4473
  %37 = alloca %"struct.std::__1::__compressed_pair_elem"*, align 8
  call void @llvm.dbg.declare(metadata %"struct.std::__1::__compressed_pair_elem"** %37, metadata !4151, metadata !DIExpression()), !dbg !4474
  %38 = alloca %"class.std::__1::__compressed_pair"*, align 8
  call void @llvm.dbg.declare(metadata %"class.std::__1::__compressed_pair"** %38, metadata !4155, metadata !DIExpression()), !dbg !4476
  %39 = alloca %"class.std::__1::__compressed_pair"*, align 8
  call void @llvm.dbg.declare(metadata %"class.std::__1::__compressed_pair"** %39, metadata !4157, metadata !DIExpression()), !dbg !4477
  %40 = alloca %"class.std::__1::basic_string"*, align 8
  call void @llvm.dbg.declare(metadata %"class.std::__1::basic_string"** %40, metadata !4159, metadata !DIExpression()), !dbg !4478
  %41 = alloca %"class.std::__1::basic_string"*, align 8
  call void @llvm.dbg.declare(metadata %"class.std::__1::basic_string"** %41, metadata !4161, metadata !DIExpression()), !dbg !4479
  %42 = alloca %"class.std::__1::basic_string_view", align 8
  %43 = alloca %"class.altered_carbon::js::ACLexToken"*, align 8
  %44 = alloca i32, align 4
  %45 = alloca i64, align 8
  %46 = alloca %"struct.altered_carbon::js::ACLexPosition"*, align 8
  %47 = alloca %"class.std::__1::basic_string"*, align 8
  %48 = bitcast %"class.std::__1::basic_string_view"* %42 to { i8*, i64 }*
  %49 = getelementptr inbounds { i8*, i64 }, { i8*, i64 }* %48, i32 0, i32 0
  store i8* %3, i8** %49, align 8
  %50 = getelementptr inbounds { i8*, i64 }, { i8*, i64 }* %48, i32 0, i32 1
  store i64 %4, i64* %50, align 8
  store %"class.altered_carbon::js::ACLexToken"* %0, %"class.altered_carbon::js::ACLexToken"** %43, align 8
  call void @llvm.dbg.declare(metadata %"class.altered_carbon::js::ACLexToken"** %43, metadata !4480, metadata !DIExpression()), !dbg !4481
  store i32 %1, i32* %44, align 4
  call void @llvm.dbg.declare(metadata i32* %44, metadata !4482, metadata !DIExpression()), !dbg !4483
  store i64 %2, i64* %45, align 8
  call void @llvm.dbg.declare(metadata i64* %45, metadata !4484, metadata !DIExpression()), !dbg !4485
  call void @llvm.dbg.declare(metadata %"class.std::__1::basic_string_view"* %42, metadata !4486, metadata !DIExpression()), !dbg !4487
  store %"struct.altered_carbon::js::ACLexPosition"* %5, %"struct.altered_carbon::js::ACLexPosition"** %46, align 8
  call void @llvm.dbg.declare(metadata %"struct.altered_carbon::js::ACLexPosition"** %46, metadata !4488, metadata !DIExpression()), !dbg !4489
  store %"class.std::__1::basic_string"* %6, %"class.std::__1::basic_string"** %47, align 8
  call void @llvm.dbg.declare(metadata %"class.std::__1::basic_string"** %47, metadata !4490, metadata !DIExpression()), !dbg !4491
  %51 = load %"class.altered_carbon::js::ACLexToken"*, %"class.altered_carbon::js::ACLexToken"** %43, align 8
  %52 = bitcast %"class.altered_carbon::js::ACLexToken"* %51 to i32 (...)***, !dbg !4492
  store i32 (...)** bitcast (i8** getelementptr inbounds ({ [7 x i8*] }, { [7 x i8*] }* @_ZTVN14altered_carbon2js10ACLexTokenE, i32 0, inrange i32 0, i32 2) to i32 (...)**), i32 (...)*** %52, align 8, !dbg !4492
  %53 = getelementptr inbounds %"class.altered_carbon::js::ACLexToken", %"class.altered_carbon::js::ACLexToken"* %51, i32 0, i32 1, !dbg !4493
  %54 = load i32, i32* %44, align 4, !dbg !4494
  store i32 %54, i32* %53, align 8, !dbg !4493
  %55 = getelementptr inbounds %"class.altered_carbon::js::ACLexToken", %"class.altered_carbon::js::ACLexToken"* %51, i32 0, i32 2, !dbg !4495
  %56 = load i64, i64* %45, align 8, !dbg !4496
  store i64 %56, i64* %55, align 8, !dbg !4495
  %57 = getelementptr inbounds %"class.altered_carbon::js::ACLexToken", %"class.altered_carbon::js::ACLexToken"* %51, i32 0, i32 3, !dbg !4497
  %58 = bitcast %"class.std::__1::basic_string_view"* %57 to i8*, !dbg !4497
  %59 = bitcast %"class.std::__1::basic_string_view"* %42 to i8*, !dbg !4497
  call void @llvm.memcpy.p0i8.p0i8.i64(i8* align 8 %58, i8* align 8 %59, i64 16, i1 false), !dbg !4497
  %60 = getelementptr inbounds %"class.altered_carbon::js::ACLexToken", %"class.altered_carbon::js::ACLexToken"* %51, i32 0, i32 4, !dbg !4498
  %61 = load %"struct.altered_carbon::js::ACLexPosition"*, %"struct.altered_carbon::js::ACLexPosition"** %46, align 8, !dbg !4499
  call void @_ZN14altered_carbon2js13ACLexPositionC1ERKS1_(%"struct.altered_carbon::js::ACLexPosition"* %60, %"struct.altered_carbon::js::ACLexPosition"* dereferenceable(32) %61), !dbg !4498
  %62 = getelementptr inbounds %"class.altered_carbon::js::ACLexToken", %"class.altered_carbon::js::ACLexToken"* %51, i32 0, i32 5, !dbg !4500
  store %"class.std::__1::basic_string"* %62, %"class.std::__1::basic_string"** %41, align 8
  %63 = load %"class.std::__1::basic_string"*, %"class.std::__1::basic_string"** %41, align 8
  store %"class.std::__1::basic_string"* %63, %"class.std::__1::basic_string"** %40, align 8
  %64 = load %"class.std::__1::basic_string"*, %"class.std::__1::basic_string"** %40, align 8
  %65 = bitcast %"class.std::__1::basic_string"* %64 to %"class.std::__1::__basic_string_common"*, !dbg !4501
  %66 = getelementptr inbounds %"class.std::__1::basic_string", %"class.std::__1::basic_string"* %64, i32 0, i32 0, !dbg !4502
  store %"class.std::__1::__compressed_pair"* %66, %"class.std::__1::__compressed_pair"** %39, align 8
  %67 = load %"class.std::__1::__compressed_pair"*, %"class.std::__1::__compressed_pair"** %39, align 8
  store %"class.std::__1::__compressed_pair"* %67, %"class.std::__1::__compressed_pair"** %38, align 8
  %68 = load %"class.std::__1::__compressed_pair"*, %"class.std::__1::__compressed_pair"** %38, align 8
  %69 = bitcast %"class.std::__1::__compressed_pair"* %68 to %"struct.std::__1::__compressed_pair_elem"*, !dbg !4503
  store %"struct.std::__1::__compressed_pair_elem"* %69, %"struct.std::__1::__compressed_pair_elem"** %37, align 8
  %70 = load %"struct.std::__1::__compressed_pair_elem"*, %"struct.std::__1::__compressed_pair_elem"** %37, align 8
  %71 = getelementptr inbounds %"struct.std::__1::__compressed_pair_elem", %"struct.std::__1::__compressed_pair_elem"* %70, i32 0, i32 0, !dbg !4504
  %72 = bitcast %"struct.std::__1::basic_string<wchar_t, std::__1::char_traits<wchar_t>, std::__1::allocator<wchar_t> >::__rep"* %71 to i8*, !dbg !4504
  call void @llvm.memset.p0i8.i64(i8* align 8 %72, i8 0, i64 24, i1 false), !dbg !4504
  %73 = bitcast %"class.std::__1::__compressed_pair"* %68 to %"struct.std::__1::__compressed_pair_elem.1"*, !dbg !4503
  store %"struct.std::__1::__compressed_pair_elem.1"* %73, %"struct.std::__1::__compressed_pair_elem.1"** %36, align 8
  %74 = load %"struct.std::__1::__compressed_pair_elem.1"*, %"struct.std::__1::__compressed_pair_elem.1"** %36, align 8
  %75 = bitcast %"struct.std::__1::__compressed_pair_elem.1"* %74 to %"class.std::__1::allocator"*, !dbg !4505
  store %"class.std::__1::allocator"* %75, %"class.std::__1::allocator"** %35, align 8
  %76 = load %"class.std::__1::allocator"*, %"class.std::__1::allocator"** %35, align 8
  store %"class.std::__1::basic_string"* %64, %"class.std::__1::basic_string"** %32, align 8
  %77 = load %"class.std::__1::basic_string"*, %"class.std::__1::basic_string"** %32, align 8
  %78 = getelementptr inbounds %"class.std::__1::basic_string", %"class.std::__1::basic_string"* %77, i32 0, i32 0, !dbg !4506
  store %"class.std::__1::__compressed_pair"* %78, %"class.std::__1::__compressed_pair"** %31, align 8
  %79 = load %"class.std::__1::__compressed_pair"*, %"class.std::__1::__compressed_pair"** %31, align 8
  %80 = bitcast %"class.std::__1::__compressed_pair"* %79 to %"struct.std::__1::__compressed_pair_elem"*, !dbg !4507
  store %"struct.std::__1::__compressed_pair_elem"* %80, %"struct.std::__1::__compressed_pair_elem"** %30, align 8
  %81 = load %"struct.std::__1::__compressed_pair_elem"*, %"struct.std::__1::__compressed_pair_elem"** %30, align 8
  %82 = getelementptr inbounds %"struct.std::__1::__compressed_pair_elem", %"struct.std::__1::__compressed_pair_elem"* %81, i32 0, i32 0, !dbg !4508
  %83 = getelementptr inbounds %"struct.std::__1::basic_string<wchar_t, std::__1::char_traits<wchar_t>, std::__1::allocator<wchar_t> >::__rep", %"struct.std::__1::basic_string<wchar_t, std::__1::char_traits<wchar_t>, std::__1::allocator<wchar_t> >::__rep"* %82, i32 0, i32 0, !dbg !4509
  %84 = bitcast %union.anon* %83 to %"struct.std::__1::basic_string<wchar_t, std::__1::char_traits<wchar_t>, std::__1::allocator<wchar_t> >::__raw"*, !dbg !4509
  %85 = getelementptr inbounds %"struct.std::__1::basic_string<wchar_t, std::__1::char_traits<wchar_t>, std::__1::allocator<wchar_t> >::__raw", %"struct.std::__1::basic_string<wchar_t, std::__1::char_traits<wchar_t>, std::__1::allocator<wchar_t> >::__raw"* %84, i32 0, i32 0, !dbg !4510
  store [3 x i64]* %85, [3 x i64]** %33, align 8, !dbg !4466
  store i32 0, i32* %34, align 4, !dbg !4467
  br label %86, !dbg !4511

; <label>:86:                                     ; preds = %89, %7
  %87 = load i32, i32* %34, align 4, !dbg !4512
  %88 = icmp ult i32 %87, 3, !dbg !4513
  br i1 %88, label %89, label %96, !dbg !4514

; <label>:89:                                     ; preds = %86
  %90 = load [3 x i64]*, [3 x i64]** %33, align 8, !dbg !4515
  %91 = load i32, i32* %34, align 4, !dbg !4516
  %92 = zext i32 %91 to i64, !dbg !4515
  %93 = getelementptr inbounds [3 x i64], [3 x i64]* %90, i64 0, i64 %92, !dbg !4515
  store i64 0, i64* %93, align 8, !dbg !4517
  %94 = load i32, i32* %34, align 4, !dbg !4518
  %95 = add i32 %94, 1, !dbg !4518
  store i32 %95, i32* %34, align 4, !dbg !4518
  br label %86, !dbg !4519, !llvm.loop !4210

; <label>:96:                                     ; preds = %86
  %97 = getelementptr inbounds %"class.altered_carbon::js::ACLexToken", %"class.altered_carbon::js::ACLexToken"* %51, i32 0, i32 5, !dbg !4520
  %98 = load %"class.std::__1::basic_string"*, %"class.std::__1::basic_string"** %47, align 8, !dbg !4521
  store %"class.std::__1::basic_string"* %97, %"class.std::__1::basic_string"** %28, align 8
  store %"class.std::__1::basic_string"* %98, %"class.std::__1::basic_string"** %29, align 8
  %99 = load %"class.std::__1::basic_string"*, %"class.std::__1::basic_string"** %28, align 8
  %100 = getelementptr inbounds %"class.std::__1::basic_string", %"class.std::__1::basic_string"* %99, i32 0, i32 0, !dbg !4522
  store %"class.std::__1::__compressed_pair"* %100, %"class.std::__1::__compressed_pair"** %27, align 8
  %101 = load %"class.std::__1::__compressed_pair"*, %"class.std::__1::__compressed_pair"** %27, align 8
  %102 = bitcast %"class.std::__1::__compressed_pair"* %101 to %"struct.std::__1::__compressed_pair_elem"*, !dbg !4523
  store %"struct.std::__1::__compressed_pair_elem"* %102, %"struct.std::__1::__compressed_pair_elem"** %26, align 8
  %103 = load %"struct.std::__1::__compressed_pair_elem"*, %"struct.std::__1::__compressed_pair_elem"** %26, align 8
  %104 = getelementptr inbounds %"struct.std::__1::__compressed_pair_elem", %"struct.std::__1::__compressed_pair_elem"* %103, i32 0, i32 0, !dbg !4524
  %105 = load %"class.std::__1::basic_string"*, %"class.std::__1::basic_string"** %29, align 8, !dbg !4525
  %106 = getelementptr inbounds %"class.std::__1::basic_string", %"class.std::__1::basic_string"* %105, i32 0, i32 0, !dbg !4526
  store %"class.std::__1::__compressed_pair"* %106, %"class.std::__1::__compressed_pair"** %9, align 8
  %107 = load %"class.std::__1::__compressed_pair"*, %"class.std::__1::__compressed_pair"** %9, align 8
  %108 = bitcast %"class.std::__1::__compressed_pair"* %107 to %"struct.std::__1::__compressed_pair_elem"*, !dbg !4527
  store %"struct.std::__1::__compressed_pair_elem"* %108, %"struct.std::__1::__compressed_pair_elem"** %8, align 8
  %109 = load %"struct.std::__1::__compressed_pair_elem"*, %"struct.std::__1::__compressed_pair_elem"** %8, align 8
  %110 = getelementptr inbounds %"struct.std::__1::__compressed_pair_elem", %"struct.std::__1::__compressed_pair_elem"* %109, i32 0, i32 0, !dbg !4528
  store %"struct.std::__1::basic_string<wchar_t, std::__1::char_traits<wchar_t>, std::__1::allocator<wchar_t> >::__rep"* %104, %"struct.std::__1::basic_string<wchar_t, std::__1::char_traits<wchar_t>, std::__1::allocator<wchar_t> >::__rep"** %13, align 8
  store %"struct.std::__1::basic_string<wchar_t, std::__1::char_traits<wchar_t>, std::__1::allocator<wchar_t> >::__rep"* %110, %"struct.std::__1::basic_string<wchar_t, std::__1::char_traits<wchar_t>, std::__1::allocator<wchar_t> >::__rep"** %14, align 8
  %111 = load %"struct.std::__1::basic_string<wchar_t, std::__1::char_traits<wchar_t>, std::__1::allocator<wchar_t> >::__rep"*, %"struct.std::__1::basic_string<wchar_t, std::__1::char_traits<wchar_t>, std::__1::allocator<wchar_t> >::__rep"** %13, align 8, !dbg !4529
  store %"struct.std::__1::basic_string<wchar_t, std::__1::char_traits<wchar_t>, std::__1::allocator<wchar_t> >::__rep"* %111, %"struct.std::__1::basic_string<wchar_t, std::__1::char_traits<wchar_t>, std::__1::allocator<wchar_t> >::__rep"** %12, align 8
  %112 = load %"struct.std::__1::basic_string<wchar_t, std::__1::char_traits<wchar_t>, std::__1::allocator<wchar_t> >::__rep"*, %"struct.std::__1::basic_string<wchar_t, std::__1::char_traits<wchar_t>, std::__1::allocator<wchar_t> >::__rep"** %12, align 8, !dbg !4530
  %113 = bitcast %"struct.std::__1::basic_string<wchar_t, std::__1::char_traits<wchar_t>, std::__1::allocator<wchar_t> >::__rep"* %15 to i8*, !dbg !4415
  %114 = bitcast %"struct.std::__1::basic_string<wchar_t, std::__1::char_traits<wchar_t>, std::__1::allocator<wchar_t> >::__rep"* %112 to i8*, !dbg !4415
  call void @llvm.memcpy.p0i8.p0i8.i64(i8* align 8 %113, i8* align 8 %114, i64 24, i1 false), !dbg !4415
  %115 = load %"struct.std::__1::basic_string<wchar_t, std::__1::char_traits<wchar_t>, std::__1::allocator<wchar_t> >::__rep"*, %"struct.std::__1::basic_string<wchar_t, std::__1::char_traits<wchar_t>, std::__1::allocator<wchar_t> >::__rep"** %14, align 8, !dbg !4531
  store %"struct.std::__1::basic_string<wchar_t, std::__1::char_traits<wchar_t>, std::__1::allocator<wchar_t> >::__rep"* %115, %"struct.std::__1::basic_string<wchar_t, std::__1::char_traits<wchar_t>, std::__1::allocator<wchar_t> >::__rep"** %10, align 8
  %116 = load %"struct.std::__1::basic_string<wchar_t, std::__1::char_traits<wchar_t>, std::__1::allocator<wchar_t> >::__rep"*, %"struct.std::__1::basic_string<wchar_t, std::__1::char_traits<wchar_t>, std::__1::allocator<wchar_t> >::__rep"** %10, align 8, !dbg !4532
  %117 = load %"struct.std::__1::basic_string<wchar_t, std::__1::char_traits<wchar_t>, std::__1::allocator<wchar_t> >::__rep"*, %"struct.std::__1::basic_string<wchar_t, std::__1::char_traits<wchar_t>, std::__1::allocator<wchar_t> >::__rep"** %13, align 8, !dbg !4533
  %118 = bitcast %"struct.std::__1::basic_string<wchar_t, std::__1::char_traits<wchar_t>, std::__1::allocator<wchar_t> >::__rep"* %117 to i8*, !dbg !4534
  %119 = bitcast %"struct.std::__1::basic_string<wchar_t, std::__1::char_traits<wchar_t>, std::__1::allocator<wchar_t> >::__rep"* %116 to i8*, !dbg !4534
  call void @llvm.memcpy.p0i8.p0i8.i64(i8* align 8 %118, i8* align 8 %119, i64 24, i1 false), !dbg !4534
  store %"struct.std::__1::basic_string<wchar_t, std::__1::char_traits<wchar_t>, std::__1::allocator<wchar_t> >::__rep"* %15, %"struct.std::__1::basic_string<wchar_t, std::__1::char_traits<wchar_t>, std::__1::allocator<wchar_t> >::__rep"** %11, align 8
  %120 = load %"struct.std::__1::basic_string<wchar_t, std::__1::char_traits<wchar_t>, std::__1::allocator<wchar_t> >::__rep"*, %"struct.std::__1::basic_string<wchar_t, std::__1::char_traits<wchar_t>, std::__1::allocator<wchar_t> >::__rep"** %11, align 8, !dbg !4535
  %121 = load %"struct.std::__1::basic_string<wchar_t, std::__1::char_traits<wchar_t>, std::__1::allocator<wchar_t> >::__rep"*, %"struct.std::__1::basic_string<wchar_t, std::__1::char_traits<wchar_t>, std::__1::allocator<wchar_t> >::__rep"** %14, align 8, !dbg !4536
  %122 = bitcast %"struct.std::__1::basic_string<wchar_t, std::__1::char_traits<wchar_t>, std::__1::allocator<wchar_t> >::__rep"* %121 to i8*, !dbg !4537
  %123 = bitcast %"struct.std::__1::basic_string<wchar_t, std::__1::char_traits<wchar_t>, std::__1::allocator<wchar_t> >::__rep"* %120 to i8*, !dbg !4537
  call void @llvm.memcpy.p0i8.p0i8.i64(i8* align 8 %122, i8* align 8 %123, i64 24, i1 false), !dbg !4537
  store %"class.std::__1::basic_string"* %99, %"class.std::__1::basic_string"** %18, align 8
  %124 = load %"class.std::__1::basic_string"*, %"class.std::__1::basic_string"** %18, align 8
  %125 = getelementptr inbounds %"class.std::__1::basic_string", %"class.std::__1::basic_string"* %124, i32 0, i32 0, !dbg !4538
  store %"class.std::__1::__compressed_pair"* %125, %"class.std::__1::__compressed_pair"** %17, align 8
  %126 = load %"class.std::__1::__compressed_pair"*, %"class.std::__1::__compressed_pair"** %17, align 8
  %127 = bitcast %"class.std::__1::__compressed_pair"* %126 to %"struct.std::__1::__compressed_pair_elem.1"*, !dbg !4539
  store %"struct.std::__1::__compressed_pair_elem.1"* %127, %"struct.std::__1::__compressed_pair_elem.1"** %16, align 8
  %128 = load %"struct.std::__1::__compressed_pair_elem.1"*, %"struct.std::__1::__compressed_pair_elem.1"** %16, align 8
  %129 = bitcast %"struct.std::__1::__compressed_pair_elem.1"* %128 to %"class.std::__1::allocator"*, !dbg !4540
  %130 = load %"class.std::__1::basic_string"*, %"class.std::__1::basic_string"** %29, align 8, !dbg !4541
  store %"class.std::__1::basic_string"* %130, %"class.std::__1::basic_string"** %21, align 8
  %131 = load %"class.std::__1::basic_string"*, %"class.std::__1::basic_string"** %21, align 8
  %132 = getelementptr inbounds %"class.std::__1::basic_string", %"class.std::__1::basic_string"* %131, i32 0, i32 0, !dbg !4542
  store %"class.std::__1::__compressed_pair"* %132, %"class.std::__1::__compressed_pair"** %20, align 8
  %133 = load %"class.std::__1::__compressed_pair"*, %"class.std::__1::__compressed_pair"** %20, align 8
  %134 = bitcast %"class.std::__1::__compressed_pair"* %133 to %"struct.std::__1::__compressed_pair_elem.1"*, !dbg !4543
  store %"struct.std::__1::__compressed_pair_elem.1"* %134, %"struct.std::__1::__compressed_pair_elem.1"** %19, align 8
  %135 = load %"struct.std::__1::__compressed_pair_elem.1"*, %"struct.std::__1::__compressed_pair_elem.1"** %19, align 8
  %136 = bitcast %"struct.std::__1::__compressed_pair_elem.1"* %135 to %"class.std::__1::allocator"*, !dbg !4544
  store %"class.std::__1::allocator"* %129, %"class.std::__1::allocator"** %24, align 8
  store %"class.std::__1::allocator"* %136, %"class.std::__1::allocator"** %25, align 8
  %137 = load %"class.std::__1::allocator"*, %"class.std::__1::allocator"** %24, align 8, !dbg !4545
  %138 = load %"class.std::__1::allocator"*, %"class.std::__1::allocator"** %25, align 8, !dbg !4546
  store %"class.std::__1::allocator"* %137, %"class.std::__1::allocator"** %22, align 8
  store %"class.std::__1::allocator"* %138, %"class.std::__1::allocator"** %23, align 8
  call void @llvm.dbg.declare(metadata !396, metadata !4547, metadata !DIExpression()) #6, !dbg !4548
  ret void, !dbg !4549
}

; Function Attrs: noinline nounwind optnone ssp uwtable
define void @_ZN14altered_carbon2js10ACLexTokenC1ENS0_14ACLexTokenTypeEmNSt3__117basic_string_viewIcNS3_11char_traitsIcEEEERNS0_13ACLexPositionERNS3_12basic_stringIwNS5_IwEENS3_9allocatorIwEEEE(%"class.altered_carbon::js::ACLexToken"*, i32, i64, i8*, i64, %"struct.altered_carbon::js::ACLexPosition"* dereferenceable(32), %"class.std::__1::basic_string"* dereferenceable(24)) unnamed_addr #0 align 2 !dbg !4550 {
  %8 = alloca %"class.std::__1::basic_string_view", align 8
  %9 = alloca %"class.altered_carbon::js::ACLexToken"*, align 8
  %10 = alloca i32, align 4
  %11 = alloca i64, align 8
  %12 = alloca %"struct.altered_carbon::js::ACLexPosition"*, align 8
  %13 = alloca %"class.std::__1::basic_string"*, align 8
  %14 = bitcast %"class.std::__1::basic_string_view"* %8 to { i8*, i64 }*
  %15 = getelementptr inbounds { i8*, i64 }, { i8*, i64 }* %14, i32 0, i32 0
  store i8* %3, i8** %15, align 8
  %16 = getelementptr inbounds { i8*, i64 }, { i8*, i64 }* %14, i32 0, i32 1
  store i64 %4, i64* %16, align 8
  store %"class.altered_carbon::js::ACLexToken"* %0, %"class.altered_carbon::js::ACLexToken"** %9, align 8
  call void @llvm.dbg.declare(metadata %"class.altered_carbon::js::ACLexToken"** %9, metadata !4551, metadata !DIExpression()), !dbg !4552
  store i32 %1, i32* %10, align 4
  call void @llvm.dbg.declare(metadata i32* %10, metadata !4553, metadata !DIExpression()), !dbg !4554
  store i64 %2, i64* %11, align 8
  call void @llvm.dbg.declare(metadata i64* %11, metadata !4555, metadata !DIExpression()), !dbg !4556
  call void @llvm.dbg.declare(metadata %"class.std::__1::basic_string_view"* %8, metadata !4557, metadata !DIExpression()), !dbg !4558
  store %"struct.altered_carbon::js::ACLexPosition"* %5, %"struct.altered_carbon::js::ACLexPosition"** %12, align 8
  call void @llvm.dbg.declare(metadata %"struct.altered_carbon::js::ACLexPosition"** %12, metadata !4559, metadata !DIExpression()), !dbg !4560
  store %"class.std::__1::basic_string"* %6, %"class.std::__1::basic_string"** %13, align 8
  call void @llvm.dbg.declare(metadata %"class.std::__1::basic_string"** %13, metadata !4561, metadata !DIExpression()), !dbg !4562
  %17 = load %"class.altered_carbon::js::ACLexToken"*, %"class.altered_carbon::js::ACLexToken"** %9, align 8
  %18 = load i32, i32* %10, align 4, !dbg !4563
  %19 = load i64, i64* %11, align 8, !dbg !4563
  %20 = load %"struct.altered_carbon::js::ACLexPosition"*, %"struct.altered_carbon::js::ACLexPosition"** %12, align 8, !dbg !4563
  %21 = load %"class.std::__1::basic_string"*, %"class.std::__1::basic_string"** %13, align 8, !dbg !4563
  %22 = bitcast %"class.std::__1::basic_string_view"* %8 to { i8*, i64 }*, !dbg !4563
  %23 = getelementptr inbounds { i8*, i64 }, { i8*, i64 }* %22, i32 0, i32 0, !dbg !4563
  %24 = load i8*, i8** %23, align 8, !dbg !4563
  %25 = getelementptr inbounds { i8*, i64 }, { i8*, i64 }* %22, i32 0, i32 1, !dbg !4563
  %26 = load i64, i64* %25, align 8, !dbg !4563
  call void @_ZN14altered_carbon2js10ACLexTokenC2ENS0_14ACLexTokenTypeEmNSt3__117basic_string_viewIcNS3_11char_traitsIcEEEERNS0_13ACLexPositionERNS3_12basic_stringIwNS5_IwEENS3_9allocatorIwEEEE(%"class.altered_carbon::js::ACLexToken"* %17, i32 %18, i64 %19, i8* %24, i64 %26, %"struct.altered_carbon::js::ACLexPosition"* dereferenceable(32) %20, %"class.std::__1::basic_string"* dereferenceable(24) %21), !dbg !4563
  ret void, !dbg !4564
}

; Function Attrs: noinline nounwind optnone ssp uwtable
define void @_ZN14altered_carbon2js10ACLexTokenC2ENS0_14ACLexTokenTypeEmNSt3__117basic_string_viewIcNS3_11char_traitsIcEEEERNS0_13ACLexPositionEPKw(%"class.altered_carbon::js::ACLexToken"*, i32, i64, i8*, i64, %"struct.altered_carbon::js::ACLexPosition"* dereferenceable(32), i32*) unnamed_addr #0 align 2 !dbg !4565 {
  %8 = alloca %"class.std::__1::allocator"*, align 8
  call void @llvm.dbg.declare(metadata %"class.std::__1::allocator"** %8, metadata !4131, metadata !DIExpression()), !dbg !4566
  %9 = alloca %"struct.std::__1::__compressed_pair_elem.1"*, align 8
  call void @llvm.dbg.declare(metadata %"struct.std::__1::__compressed_pair_elem.1"** %9, metadata !4148, metadata !DIExpression()), !dbg !4575
  %10 = alloca %"struct.std::__1::__compressed_pair_elem"*, align 8
  call void @llvm.dbg.declare(metadata %"struct.std::__1::__compressed_pair_elem"** %10, metadata !4151, metadata !DIExpression()), !dbg !4576
  %11 = alloca %"class.std::__1::__compressed_pair"*, align 8
  call void @llvm.dbg.declare(metadata %"class.std::__1::__compressed_pair"** %11, metadata !4155, metadata !DIExpression()), !dbg !4578
  %12 = alloca %"class.std::__1::__compressed_pair"*, align 8
  call void @llvm.dbg.declare(metadata %"class.std::__1::__compressed_pair"** %12, metadata !4157, metadata !DIExpression()), !dbg !4579
  %13 = alloca %"class.std::__1::basic_string"*, align 8
  call void @llvm.dbg.declare(metadata %"class.std::__1::basic_string"** %13, metadata !4580, metadata !DIExpression()), !dbg !4581
  %14 = alloca i32*, align 8
  call void @llvm.dbg.declare(metadata i32** %14, metadata !4582, metadata !DIExpression()), !dbg !4583
  %15 = alloca %"class.std::__1::basic_string"*, align 8
  call void @llvm.dbg.declare(metadata %"class.std::__1::basic_string"** %15, metadata !4584, metadata !DIExpression()), !dbg !4585
  %16 = alloca i32*, align 8
  call void @llvm.dbg.declare(metadata i32** %16, metadata !4586, metadata !DIExpression()), !dbg !4587
  %17 = alloca %"class.std::__1::basic_string_view", align 8
  %18 = alloca %"class.altered_carbon::js::ACLexToken"*, align 8
  %19 = alloca i32, align 4
  %20 = alloca i64, align 8
  %21 = alloca %"struct.altered_carbon::js::ACLexPosition"*, align 8
  %22 = alloca i32*, align 8
  %23 = bitcast %"class.std::__1::basic_string_view"* %17 to { i8*, i64 }*
  %24 = getelementptr inbounds { i8*, i64 }, { i8*, i64 }* %23, i32 0, i32 0
  store i8* %3, i8** %24, align 8
  %25 = getelementptr inbounds { i8*, i64 }, { i8*, i64 }* %23, i32 0, i32 1
  store i64 %4, i64* %25, align 8
  store %"class.altered_carbon::js::ACLexToken"* %0, %"class.altered_carbon::js::ACLexToken"** %18, align 8
  call void @llvm.dbg.declare(metadata %"class.altered_carbon::js::ACLexToken"** %18, metadata !4588, metadata !DIExpression()), !dbg !4589
  store i32 %1, i32* %19, align 4
  call void @llvm.dbg.declare(metadata i32* %19, metadata !4590, metadata !DIExpression()), !dbg !4591
  store i64 %2, i64* %20, align 8
  call void @llvm.dbg.declare(metadata i64* %20, metadata !4592, metadata !DIExpression()), !dbg !4593
  call void @llvm.dbg.declare(metadata %"class.std::__1::basic_string_view"* %17, metadata !4594, metadata !DIExpression()), !dbg !4595
  store %"struct.altered_carbon::js::ACLexPosition"* %5, %"struct.altered_carbon::js::ACLexPosition"** %21, align 8
  call void @llvm.dbg.declare(metadata %"struct.altered_carbon::js::ACLexPosition"** %21, metadata !4596, metadata !DIExpression()), !dbg !4597
  store i32* %6, i32** %22, align 8
  call void @llvm.dbg.declare(metadata i32** %22, metadata !4598, metadata !DIExpression()), !dbg !4599
  %26 = load %"class.altered_carbon::js::ACLexToken"*, %"class.altered_carbon::js::ACLexToken"** %18, align 8
  %27 = bitcast %"class.altered_carbon::js::ACLexToken"* %26 to i32 (...)***, !dbg !4600
  store i32 (...)** bitcast (i8** getelementptr inbounds ({ [7 x i8*] }, { [7 x i8*] }* @_ZTVN14altered_carbon2js10ACLexTokenE, i32 0, inrange i32 0, i32 2) to i32 (...)**), i32 (...)*** %27, align 8, !dbg !4600
  %28 = getelementptr inbounds %"class.altered_carbon::js::ACLexToken", %"class.altered_carbon::js::ACLexToken"* %26, i32 0, i32 1, !dbg !4601
  %29 = load i32, i32* %19, align 4, !dbg !4602
  store i32 %29, i32* %28, align 8, !dbg !4601
  %30 = getelementptr inbounds %"class.altered_carbon::js::ACLexToken", %"class.altered_carbon::js::ACLexToken"* %26, i32 0, i32 2, !dbg !4603
  %31 = load i64, i64* %20, align 8, !dbg !4604
  store i64 %31, i64* %30, align 8, !dbg !4603
  %32 = getelementptr inbounds %"class.altered_carbon::js::ACLexToken", %"class.altered_carbon::js::ACLexToken"* %26, i32 0, i32 3, !dbg !4605
  %33 = bitcast %"class.std::__1::basic_string_view"* %32 to i8*, !dbg !4605
  %34 = bitcast %"class.std::__1::basic_string_view"* %17 to i8*, !dbg !4605
  call void @llvm.memcpy.p0i8.p0i8.i64(i8* align 8 %33, i8* align 8 %34, i64 16, i1 false), !dbg !4605
  %35 = getelementptr inbounds %"class.altered_carbon::js::ACLexToken", %"class.altered_carbon::js::ACLexToken"* %26, i32 0, i32 4, !dbg !4606
  %36 = load %"struct.altered_carbon::js::ACLexPosition"*, %"struct.altered_carbon::js::ACLexPosition"** %21, align 8, !dbg !4607
  call void @_ZN14altered_carbon2js13ACLexPositionC1ERKS1_(%"struct.altered_carbon::js::ACLexPosition"* %35, %"struct.altered_carbon::js::ACLexPosition"* dereferenceable(32) %36), !dbg !4606
  %37 = getelementptr inbounds %"class.altered_carbon::js::ACLexToken", %"class.altered_carbon::js::ACLexToken"* %26, i32 0, i32 5, !dbg !4608
  %38 = load i32*, i32** %22, align 8, !dbg !4609
  store %"class.std::__1::basic_string"* %37, %"class.std::__1::basic_string"** %15, align 8
  store i32* %38, i32** %16, align 8
  %39 = load %"class.std::__1::basic_string"*, %"class.std::__1::basic_string"** %15, align 8
  %40 = load i32*, i32** %16, align 8, !dbg !4610
  store %"class.std::__1::basic_string"* %39, %"class.std::__1::basic_string"** %13, align 8
  store i32* %40, i32** %14, align 8
  %41 = load %"class.std::__1::basic_string"*, %"class.std::__1::basic_string"** %13, align 8
  %42 = bitcast %"class.std::__1::basic_string"* %41 to %"class.std::__1::__basic_string_common"*, !dbg !4611
  %43 = getelementptr inbounds %"class.std::__1::basic_string", %"class.std::__1::basic_string"* %41, i32 0, i32 0, !dbg !4612
  store %"class.std::__1::__compressed_pair"* %43, %"class.std::__1::__compressed_pair"** %12, align 8
  %44 = load %"class.std::__1::__compressed_pair"*, %"class.std::__1::__compressed_pair"** %12, align 8
  store %"class.std::__1::__compressed_pair"* %44, %"class.std::__1::__compressed_pair"** %11, align 8
  %45 = load %"class.std::__1::__compressed_pair"*, %"class.std::__1::__compressed_pair"** %11, align 8
  %46 = bitcast %"class.std::__1::__compressed_pair"* %45 to %"struct.std::__1::__compressed_pair_elem"*, !dbg !4613
  store %"struct.std::__1::__compressed_pair_elem"* %46, %"struct.std::__1::__compressed_pair_elem"** %10, align 8
  %47 = load %"struct.std::__1::__compressed_pair_elem"*, %"struct.std::__1::__compressed_pair_elem"** %10, align 8
  %48 = getelementptr inbounds %"struct.std::__1::__compressed_pair_elem", %"struct.std::__1::__compressed_pair_elem"* %47, i32 0, i32 0, !dbg !4614
  %49 = bitcast %"struct.std::__1::basic_string<wchar_t, std::__1::char_traits<wchar_t>, std::__1::allocator<wchar_t> >::__rep"* %48 to i8*, !dbg !4614
  call void @llvm.memset.p0i8.i64(i8* align 8 %49, i8 0, i64 24, i1 false), !dbg !4614
  %50 = bitcast %"class.std::__1::__compressed_pair"* %45 to %"struct.std::__1::__compressed_pair_elem.1"*, !dbg !4613
  store %"struct.std::__1::__compressed_pair_elem.1"* %50, %"struct.std::__1::__compressed_pair_elem.1"** %9, align 8
  %51 = load %"struct.std::__1::__compressed_pair_elem.1"*, %"struct.std::__1::__compressed_pair_elem.1"** %9, align 8
  %52 = bitcast %"struct.std::__1::__compressed_pair_elem.1"* %51 to %"class.std::__1::allocator"*, !dbg !4615
  store %"class.std::__1::allocator"* %52, %"class.std::__1::allocator"** %8, align 8
  %53 = load %"class.std::__1::allocator"*, %"class.std::__1::allocator"** %8, align 8
  %54 = load i32*, i32** %14, align 8, !dbg !4616
  %55 = load i32*, i32** %14, align 8, !dbg !4618
  %56 = call i64 @_ZNSt3__111char_traitsIwE6lengthEPKw(i32* %55) #6, !dbg !4619
  call void @_ZNSt3__112basic_stringIwNS_11char_traitsIwEENS_9allocatorIwEEE6__initEPKwm(%"class.std::__1::basic_string"* %41, i32* %54, i64 %56) #6, !dbg !4620
  ret void, !dbg !4621
}

; Function Attrs: noinline nounwind optnone ssp uwtable
define void @_ZN14altered_carbon2js10ACLexTokenC1ENS0_14ACLexTokenTypeEmNSt3__117basic_string_viewIcNS3_11char_traitsIcEEEERNS0_13ACLexPositionEPKw(%"class.altered_carbon::js::ACLexToken"*, i32, i64, i8*, i64, %"struct.altered_carbon::js::ACLexPosition"* dereferenceable(32), i32*) unnamed_addr #0 align 2 !dbg !4622 {
  %8 = alloca %"class.std::__1::basic_string_view", align 8
  %9 = alloca %"class.altered_carbon::js::ACLexToken"*, align 8
  %10 = alloca i32, align 4
  %11 = alloca i64, align 8
  %12 = alloca %"struct.altered_carbon::js::ACLexPosition"*, align 8
  %13 = alloca i32*, align 8
  %14 = bitcast %"class.std::__1::basic_string_view"* %8 to { i8*, i64 }*
  %15 = getelementptr inbounds { i8*, i64 }, { i8*, i64 }* %14, i32 0, i32 0
  store i8* %3, i8** %15, align 8
  %16 = getelementptr inbounds { i8*, i64 }, { i8*, i64 }* %14, i32 0, i32 1
  store i64 %4, i64* %16, align 8
  store %"class.altered_carbon::js::ACLexToken"* %0, %"class.altered_carbon::js::ACLexToken"** %9, align 8
  call void @llvm.dbg.declare(metadata %"class.altered_carbon::js::ACLexToken"** %9, metadata !4623, metadata !DIExpression()), !dbg !4624
  store i32 %1, i32* %10, align 4
  call void @llvm.dbg.declare(metadata i32* %10, metadata !4625, metadata !DIExpression()), !dbg !4626
  store i64 %2, i64* %11, align 8
  call void @llvm.dbg.declare(metadata i64* %11, metadata !4627, metadata !DIExpression()), !dbg !4628
  call void @llvm.dbg.declare(metadata %"class.std::__1::basic_string_view"* %8, metadata !4629, metadata !DIExpression()), !dbg !4630
  store %"struct.altered_carbon::js::ACLexPosition"* %5, %"struct.altered_carbon::js::ACLexPosition"** %12, align 8
  call void @llvm.dbg.declare(metadata %"struct.altered_carbon::js::ACLexPosition"** %12, metadata !4631, metadata !DIExpression()), !dbg !4632
  store i32* %6, i32** %13, align 8
  call void @llvm.dbg.declare(metadata i32** %13, metadata !4633, metadata !DIExpression()), !dbg !4634
  %17 = load %"class.altered_carbon::js::ACLexToken"*, %"class.altered_carbon::js::ACLexToken"** %9, align 8
  %18 = load i32, i32* %10, align 4, !dbg !4635
  %19 = load i64, i64* %11, align 8, !dbg !4635
  %20 = load %"struct.altered_carbon::js::ACLexPosition"*, %"struct.altered_carbon::js::ACLexPosition"** %12, align 8, !dbg !4635
  %21 = load i32*, i32** %13, align 8, !dbg !4635
  %22 = bitcast %"class.std::__1::basic_string_view"* %8 to { i8*, i64 }*, !dbg !4635
  %23 = getelementptr inbounds { i8*, i64 }, { i8*, i64 }* %22, i32 0, i32 0, !dbg !4635
  %24 = load i8*, i8** %23, align 8, !dbg !4635
  %25 = getelementptr inbounds { i8*, i64 }, { i8*, i64 }* %22, i32 0, i32 1, !dbg !4635
  %26 = load i64, i64* %25, align 8, !dbg !4635
  call void @_ZN14altered_carbon2js10ACLexTokenC2ENS0_14ACLexTokenTypeEmNSt3__117basic_string_viewIcNS3_11char_traitsIcEEEERNS0_13ACLexPositionEPKw(%"class.altered_carbon::js::ACLexToken"* %17, i32 %18, i64 %19, i8* %24, i64 %26, %"struct.altered_carbon::js::ACLexPosition"* dereferenceable(32) %20, i32* %21), !dbg !4635
  ret void, !dbg !4636
}

; Function Attrs: noinline nounwind optnone ssp uwtable
define void @_ZN14altered_carbon2js10ACLexTokenC2ENS0_14ACLexTokenTypeEmNSt3__117basic_string_viewIcNS3_11char_traitsIcEEEERNS0_13ACLexPositionEw(%"class.altered_carbon::js::ACLexToken"*, i32, i64, i8*, i64, %"struct.altered_carbon::js::ACLexPosition"* dereferenceable(32), i32 signext) unnamed_addr #0 align 2 !dbg !4637 {
  %8 = alloca %"struct.std::__1::__compressed_pair_elem"*, align 8
  call void @llvm.dbg.declare(metadata %"struct.std::__1::__compressed_pair_elem"** %8, metadata !4105, metadata !DIExpression()), !dbg !4638
  %9 = alloca %"class.std::__1::__compressed_pair"*, align 8
  call void @llvm.dbg.declare(metadata %"class.std::__1::__compressed_pair"** %9, metadata !4119, metadata !DIExpression()), !dbg !4644
  %10 = alloca %"class.std::__1::basic_string"*, align 8
  call void @llvm.dbg.declare(metadata %"class.std::__1::basic_string"** %10, metadata !4122, metadata !DIExpression()), !dbg !4645
  %11 = alloca [3 x i64]*, align 8
  call void @llvm.dbg.declare(metadata [3 x i64]** %11, metadata !4125, metadata !DIExpression()), !dbg !4646
  %12 = alloca i32, align 4
  call void @llvm.dbg.declare(metadata i32* %12, metadata !4128, metadata !DIExpression()), !dbg !4647
  %13 = alloca %"class.std::__1::allocator"*, align 8
  call void @llvm.dbg.declare(metadata %"class.std::__1::allocator"** %13, metadata !4131, metadata !DIExpression()), !dbg !4648
  %14 = alloca %"struct.std::__1::__compressed_pair_elem.1"*, align 8
  call void @llvm.dbg.declare(metadata %"struct.std::__1::__compressed_pair_elem.1"** %14, metadata !4148, metadata !DIExpression()), !dbg !4653
  %15 = alloca %"struct.std::__1::__compressed_pair_elem"*, align 8
  call void @llvm.dbg.declare(metadata %"struct.std::__1::__compressed_pair_elem"** %15, metadata !4151, metadata !DIExpression()), !dbg !4654
  %16 = alloca %"class.std::__1::__compressed_pair"*, align 8
  call void @llvm.dbg.declare(metadata %"class.std::__1::__compressed_pair"** %16, metadata !4155, metadata !DIExpression()), !dbg !4656
  %17 = alloca %"class.std::__1::__compressed_pair"*, align 8
  call void @llvm.dbg.declare(metadata %"class.std::__1::__compressed_pair"** %17, metadata !4157, metadata !DIExpression()), !dbg !4657
  %18 = alloca %"class.std::__1::basic_string"*, align 8
  call void @llvm.dbg.declare(metadata %"class.std::__1::basic_string"** %18, metadata !4159, metadata !DIExpression()), !dbg !4658
  %19 = alloca %"class.std::__1::basic_string"*, align 8
  call void @llvm.dbg.declare(metadata %"class.std::__1::basic_string"** %19, metadata !4161, metadata !DIExpression()), !dbg !4659
  %20 = alloca %"class.std::__1::basic_string_view", align 8
  %21 = alloca %"class.altered_carbon::js::ACLexToken"*, align 8
  %22 = alloca i32, align 4
  %23 = alloca i64, align 8
  %24 = alloca %"struct.altered_carbon::js::ACLexPosition"*, align 8
  %25 = alloca i32, align 4
  %26 = bitcast %"class.std::__1::basic_string_view"* %20 to { i8*, i64 }*
  %27 = getelementptr inbounds { i8*, i64 }, { i8*, i64 }* %26, i32 0, i32 0
  store i8* %3, i8** %27, align 8
  %28 = getelementptr inbounds { i8*, i64 }, { i8*, i64 }* %26, i32 0, i32 1
  store i64 %4, i64* %28, align 8
  store %"class.altered_carbon::js::ACLexToken"* %0, %"class.altered_carbon::js::ACLexToken"** %21, align 8
  call void @llvm.dbg.declare(metadata %"class.altered_carbon::js::ACLexToken"** %21, metadata !4660, metadata !DIExpression()), !dbg !4661
  store i32 %1, i32* %22, align 4
  call void @llvm.dbg.declare(metadata i32* %22, metadata !4662, metadata !DIExpression()), !dbg !4663
  store i64 %2, i64* %23, align 8
  call void @llvm.dbg.declare(metadata i64* %23, metadata !4664, metadata !DIExpression()), !dbg !4665
  call void @llvm.dbg.declare(metadata %"class.std::__1::basic_string_view"* %20, metadata !4666, metadata !DIExpression()), !dbg !4667
  store %"struct.altered_carbon::js::ACLexPosition"* %5, %"struct.altered_carbon::js::ACLexPosition"** %24, align 8
  call void @llvm.dbg.declare(metadata %"struct.altered_carbon::js::ACLexPosition"** %24, metadata !4668, metadata !DIExpression()), !dbg !4669
  store i32 %6, i32* %25, align 4
  call void @llvm.dbg.declare(metadata i32* %25, metadata !4670, metadata !DIExpression()), !dbg !4671
  %29 = load %"class.altered_carbon::js::ACLexToken"*, %"class.altered_carbon::js::ACLexToken"** %21, align 8
  %30 = bitcast %"class.altered_carbon::js::ACLexToken"* %29 to i32 (...)***, !dbg !4672
  store i32 (...)** bitcast (i8** getelementptr inbounds ({ [7 x i8*] }, { [7 x i8*] }* @_ZTVN14altered_carbon2js10ACLexTokenE, i32 0, inrange i32 0, i32 2) to i32 (...)**), i32 (...)*** %30, align 8, !dbg !4672
  %31 = getelementptr inbounds %"class.altered_carbon::js::ACLexToken", %"class.altered_carbon::js::ACLexToken"* %29, i32 0, i32 1, !dbg !4673
  %32 = load i32, i32* %22, align 4, !dbg !4674
  store i32 %32, i32* %31, align 8, !dbg !4673
  %33 = getelementptr inbounds %"class.altered_carbon::js::ACLexToken", %"class.altered_carbon::js::ACLexToken"* %29, i32 0, i32 2, !dbg !4675
  %34 = load i64, i64* %23, align 8, !dbg !4676
  store i64 %34, i64* %33, align 8, !dbg !4675
  %35 = getelementptr inbounds %"class.altered_carbon::js::ACLexToken", %"class.altered_carbon::js::ACLexToken"* %29, i32 0, i32 3, !dbg !4677
  %36 = bitcast %"class.std::__1::basic_string_view"* %35 to i8*, !dbg !4677
  %37 = bitcast %"class.std::__1::basic_string_view"* %20 to i8*, !dbg !4677
  call void @llvm.memcpy.p0i8.p0i8.i64(i8* align 8 %36, i8* align 8 %37, i64 16, i1 false), !dbg !4677
  %38 = getelementptr inbounds %"class.altered_carbon::js::ACLexToken", %"class.altered_carbon::js::ACLexToken"* %29, i32 0, i32 4, !dbg !4678
  %39 = load %"struct.altered_carbon::js::ACLexPosition"*, %"struct.altered_carbon::js::ACLexPosition"** %24, align 8, !dbg !4679
  call void @_ZN14altered_carbon2js13ACLexPositionC1ERKS1_(%"struct.altered_carbon::js::ACLexPosition"* %38, %"struct.altered_carbon::js::ACLexPosition"* dereferenceable(32) %39), !dbg !4678
  %40 = getelementptr inbounds %"class.altered_carbon::js::ACLexToken", %"class.altered_carbon::js::ACLexToken"* %29, i32 0, i32 5, !dbg !4680
  store %"class.std::__1::basic_string"* %40, %"class.std::__1::basic_string"** %19, align 8
  %41 = load %"class.std::__1::basic_string"*, %"class.std::__1::basic_string"** %19, align 8
  store %"class.std::__1::basic_string"* %41, %"class.std::__1::basic_string"** %18, align 8
  %42 = load %"class.std::__1::basic_string"*, %"class.std::__1::basic_string"** %18, align 8
  %43 = bitcast %"class.std::__1::basic_string"* %42 to %"class.std::__1::__basic_string_common"*, !dbg !4681
  %44 = getelementptr inbounds %"class.std::__1::basic_string", %"class.std::__1::basic_string"* %42, i32 0, i32 0, !dbg !4682
  store %"class.std::__1::__compressed_pair"* %44, %"class.std::__1::__compressed_pair"** %17, align 8
  %45 = load %"class.std::__1::__compressed_pair"*, %"class.std::__1::__compressed_pair"** %17, align 8
  store %"class.std::__1::__compressed_pair"* %45, %"class.std::__1::__compressed_pair"** %16, align 8
  %46 = load %"class.std::__1::__compressed_pair"*, %"class.std::__1::__compressed_pair"** %16, align 8
  %47 = bitcast %"class.std::__1::__compressed_pair"* %46 to %"struct.std::__1::__compressed_pair_elem"*, !dbg !4683
  store %"struct.std::__1::__compressed_pair_elem"* %47, %"struct.std::__1::__compressed_pair_elem"** %15, align 8
  %48 = load %"struct.std::__1::__compressed_pair_elem"*, %"struct.std::__1::__compressed_pair_elem"** %15, align 8
  %49 = getelementptr inbounds %"struct.std::__1::__compressed_pair_elem", %"struct.std::__1::__compressed_pair_elem"* %48, i32 0, i32 0, !dbg !4684
  %50 = bitcast %"struct.std::__1::basic_string<wchar_t, std::__1::char_traits<wchar_t>, std::__1::allocator<wchar_t> >::__rep"* %49 to i8*, !dbg !4684
  call void @llvm.memset.p0i8.i64(i8* align 8 %50, i8 0, i64 24, i1 false), !dbg !4684
  %51 = bitcast %"class.std::__1::__compressed_pair"* %46 to %"struct.std::__1::__compressed_pair_elem.1"*, !dbg !4683
  store %"struct.std::__1::__compressed_pair_elem.1"* %51, %"struct.std::__1::__compressed_pair_elem.1"** %14, align 8
  %52 = load %"struct.std::__1::__compressed_pair_elem.1"*, %"struct.std::__1::__compressed_pair_elem.1"** %14, align 8
  %53 = bitcast %"struct.std::__1::__compressed_pair_elem.1"* %52 to %"class.std::__1::allocator"*, !dbg !4685
  store %"class.std::__1::allocator"* %53, %"class.std::__1::allocator"** %13, align 8
  %54 = load %"class.std::__1::allocator"*, %"class.std::__1::allocator"** %13, align 8
  store %"class.std::__1::basic_string"* %42, %"class.std::__1::basic_string"** %10, align 8
  %55 = load %"class.std::__1::basic_string"*, %"class.std::__1::basic_string"** %10, align 8
  %56 = getelementptr inbounds %"class.std::__1::basic_string", %"class.std::__1::basic_string"* %55, i32 0, i32 0, !dbg !4686
  store %"class.std::__1::__compressed_pair"* %56, %"class.std::__1::__compressed_pair"** %9, align 8
  %57 = load %"class.std::__1::__compressed_pair"*, %"class.std::__1::__compressed_pair"** %9, align 8
  %58 = bitcast %"class.std::__1::__compressed_pair"* %57 to %"struct.std::__1::__compressed_pair_elem"*, !dbg !4687
  store %"struct.std::__1::__compressed_pair_elem"* %58, %"struct.std::__1::__compressed_pair_elem"** %8, align 8
  %59 = load %"struct.std::__1::__compressed_pair_elem"*, %"struct.std::__1::__compressed_pair_elem"** %8, align 8
  %60 = getelementptr inbounds %"struct.std::__1::__compressed_pair_elem", %"struct.std::__1::__compressed_pair_elem"* %59, i32 0, i32 0, !dbg !4688
  %61 = getelementptr inbounds %"struct.std::__1::basic_string<wchar_t, std::__1::char_traits<wchar_t>, std::__1::allocator<wchar_t> >::__rep", %"struct.std::__1::basic_string<wchar_t, std::__1::char_traits<wchar_t>, std::__1::allocator<wchar_t> >::__rep"* %60, i32 0, i32 0, !dbg !4689
  %62 = bitcast %union.anon* %61 to %"struct.std::__1::basic_string<wchar_t, std::__1::char_traits<wchar_t>, std::__1::allocator<wchar_t> >::__raw"*, !dbg !4689
  %63 = getelementptr inbounds %"struct.std::__1::basic_string<wchar_t, std::__1::char_traits<wchar_t>, std::__1::allocator<wchar_t> >::__raw", %"struct.std::__1::basic_string<wchar_t, std::__1::char_traits<wchar_t>, std::__1::allocator<wchar_t> >::__raw"* %62, i32 0, i32 0, !dbg !4690
  store [3 x i64]* %63, [3 x i64]** %11, align 8, !dbg !4646
  store i32 0, i32* %12, align 4, !dbg !4647
  br label %64, !dbg !4691

; <label>:64:                                     ; preds = %67, %7
  %65 = load i32, i32* %12, align 4, !dbg !4692
  %66 = icmp ult i32 %65, 3, !dbg !4693
  br i1 %66, label %67, label %74, !dbg !4694

; <label>:67:                                     ; preds = %64
  %68 = load [3 x i64]*, [3 x i64]** %11, align 8, !dbg !4695
  %69 = load i32, i32* %12, align 4, !dbg !4696
  %70 = zext i32 %69 to i64, !dbg !4695
  %71 = getelementptr inbounds [3 x i64], [3 x i64]* %68, i64 0, i64 %70, !dbg !4695
  store i64 0, i64* %71, align 8, !dbg !4697
  %72 = load i32, i32* %12, align 4, !dbg !4698
  %73 = add i32 %72, 1, !dbg !4698
  store i32 %73, i32* %12, align 4, !dbg !4698
  br label %64, !dbg !4699, !llvm.loop !4210

; <label>:74:                                     ; preds = %64
  %75 = getelementptr inbounds %"class.altered_carbon::js::ACLexToken", %"class.altered_carbon::js::ACLexToken"* %29, i32 0, i32 5, !dbg !4700
  %76 = load i32, i32* %25, align 4, !dbg !4702
  %77 = call dereferenceable(24) %"class.std::__1::basic_string"* @_ZNSt3__112basic_stringIwNS_11char_traitsIwEENS_9allocatorIwEEE6appendEmw(%"class.std::__1::basic_string"* %75, i64 1, i32 signext %76), !dbg !4703
  ret void, !dbg !4704
}

declare dereferenceable(24) %"class.std::__1::basic_string"* @_ZNSt3__112basic_stringIwNS_11char_traitsIwEENS_9allocatorIwEEE6appendEmw(%"class.std::__1::basic_string"*, i64, i32 signext) #2

; Function Attrs: noinline nounwind optnone ssp uwtable
define void @_ZN14altered_carbon2js10ACLexTokenC1ENS0_14ACLexTokenTypeEmNSt3__117basic_string_viewIcNS3_11char_traitsIcEEEERNS0_13ACLexPositionEw(%"class.altered_carbon::js::ACLexToken"*, i32, i64, i8*, i64, %"struct.altered_carbon::js::ACLexPosition"* dereferenceable(32), i32 signext) unnamed_addr #0 align 2 !dbg !4705 {
  %8 = alloca %"class.std::__1::basic_string_view", align 8
  %9 = alloca %"class.altered_carbon::js::ACLexToken"*, align 8
  %10 = alloca i32, align 4
  %11 = alloca i64, align 8
  %12 = alloca %"struct.altered_carbon::js::ACLexPosition"*, align 8
  %13 = alloca i32, align 4
  %14 = bitcast %"class.std::__1::basic_string_view"* %8 to { i8*, i64 }*
  %15 = getelementptr inbounds { i8*, i64 }, { i8*, i64 }* %14, i32 0, i32 0
  store i8* %3, i8** %15, align 8
  %16 = getelementptr inbounds { i8*, i64 }, { i8*, i64 }* %14, i32 0, i32 1
  store i64 %4, i64* %16, align 8
  store %"class.altered_carbon::js::ACLexToken"* %0, %"class.altered_carbon::js::ACLexToken"** %9, align 8
  call void @llvm.dbg.declare(metadata %"class.altered_carbon::js::ACLexToken"** %9, metadata !4706, metadata !DIExpression()), !dbg !4707
  store i32 %1, i32* %10, align 4
  call void @llvm.dbg.declare(metadata i32* %10, metadata !4708, metadata !DIExpression()), !dbg !4709
  store i64 %2, i64* %11, align 8
  call void @llvm.dbg.declare(metadata i64* %11, metadata !4710, metadata !DIExpression()), !dbg !4711
  call void @llvm.dbg.declare(metadata %"class.std::__1::basic_string_view"* %8, metadata !4712, metadata !DIExpression()), !dbg !4713
  store %"struct.altered_carbon::js::ACLexPosition"* %5, %"struct.altered_carbon::js::ACLexPosition"** %12, align 8
  call void @llvm.dbg.declare(metadata %"struct.altered_carbon::js::ACLexPosition"** %12, metadata !4714, metadata !DIExpression()), !dbg !4715
  store i32 %6, i32* %13, align 4
  call void @llvm.dbg.declare(metadata i32* %13, metadata !4716, metadata !DIExpression()), !dbg !4717
  %17 = load %"class.altered_carbon::js::ACLexToken"*, %"class.altered_carbon::js::ACLexToken"** %9, align 8
  %18 = load i32, i32* %10, align 4, !dbg !4718
  %19 = load i64, i64* %11, align 8, !dbg !4718
  %20 = load %"struct.altered_carbon::js::ACLexPosition"*, %"struct.altered_carbon::js::ACLexPosition"** %12, align 8, !dbg !4718
  %21 = load i32, i32* %13, align 4, !dbg !4718
  %22 = bitcast %"class.std::__1::basic_string_view"* %8 to { i8*, i64 }*, !dbg !4718
  %23 = getelementptr inbounds { i8*, i64 }, { i8*, i64 }* %22, i32 0, i32 0, !dbg !4718
  %24 = load i8*, i8** %23, align 8, !dbg !4718
  %25 = getelementptr inbounds { i8*, i64 }, { i8*, i64 }* %22, i32 0, i32 1, !dbg !4718
  %26 = load i64, i64* %25, align 8, !dbg !4718
  call void @_ZN14altered_carbon2js10ACLexTokenC2ENS0_14ACLexTokenTypeEmNSt3__117basic_string_viewIcNS3_11char_traitsIcEEEERNS0_13ACLexPositionEw(%"class.altered_carbon::js::ACLexToken"* %17, i32 %18, i64 %19, i8* %24, i64 %26, %"struct.altered_carbon::js::ACLexPosition"* dereferenceable(32) %20, i32 signext %21), !dbg !4718
  ret void, !dbg !4719
}

; Function Attrs: noinline nounwind optnone ssp uwtable
define void @_ZNK14altered_carbon2js10ACLexToken4dumpERNSt3__113basic_ostreamIcNS2_11char_traitsIcEEEE(%"class.altered_carbon::js::ACLexToken"*, %"class.std::__1::basic_ostream"* dereferenceable(160)) unnamed_addr #0 align 2 !dbg !4720 {
  %3 = alloca %"struct.std::__1::__compressed_pair_elem"*, align 8
  call void @llvm.dbg.declare(metadata %"struct.std::__1::__compressed_pair_elem"** %3, metadata !4721, metadata !DIExpression()), !dbg !4724
  %4 = alloca %"class.std::__1::__compressed_pair"*, align 8
  call void @llvm.dbg.declare(metadata %"class.std::__1::__compressed_pair"** %4, metadata !4738, metadata !DIExpression()), !dbg !4740
  %5 = alloca %"class.std::__1::basic_string"*, align 8
  call void @llvm.dbg.declare(metadata %"class.std::__1::basic_string"** %5, metadata !4741, metadata !DIExpression()), !dbg !4743
  %6 = alloca %"struct.std::__1::__compressed_pair_elem"*, align 8
  call void @llvm.dbg.declare(metadata %"struct.std::__1::__compressed_pair_elem"** %6, metadata !4721, metadata !DIExpression()), !dbg !4744
  %7 = alloca %"class.std::__1::__compressed_pair"*, align 8
  call void @llvm.dbg.declare(metadata %"class.std::__1::__compressed_pair"** %7, metadata !4738, metadata !DIExpression()), !dbg !4749
  %8 = alloca %"class.std::__1::basic_string"*, align 8
  call void @llvm.dbg.declare(metadata %"class.std::__1::basic_string"** %8, metadata !4750, metadata !DIExpression()), !dbg !4751
  %9 = alloca %"struct.std::__1::__compressed_pair_elem"*, align 8
  call void @llvm.dbg.declare(metadata %"struct.std::__1::__compressed_pair_elem"** %9, metadata !4721, metadata !DIExpression()), !dbg !4752
  %10 = alloca %"class.std::__1::__compressed_pair"*, align 8
  call void @llvm.dbg.declare(metadata %"class.std::__1::__compressed_pair"** %10, metadata !4738, metadata !DIExpression()), !dbg !4757
  %11 = alloca %"class.std::__1::basic_string"*, align 8
  call void @llvm.dbg.declare(metadata %"class.std::__1::basic_string"** %11, metadata !4758, metadata !DIExpression()), !dbg !4759
  %12 = alloca %"class.std::__1::basic_string"*, align 8
  call void @llvm.dbg.declare(metadata %"class.std::__1::basic_string"** %12, metadata !4760, metadata !DIExpression()), !dbg !4761
  %13 = alloca %"class.std::__1::basic_string"*, align 8
  call void @llvm.dbg.declare(metadata %"class.std::__1::basic_string"** %13, metadata !4762, metadata !DIExpression()), !dbg !4763
  %14 = alloca %"struct.std::__1::__compressed_pair_elem"*, align 8
  call void @llvm.dbg.declare(metadata %"struct.std::__1::__compressed_pair_elem"** %14, metadata !4721, metadata !DIExpression()), !dbg !4764
  %15 = alloca %"class.std::__1::__compressed_pair"*, align 8
  call void @llvm.dbg.declare(metadata %"class.std::__1::__compressed_pair"** %15, metadata !4738, metadata !DIExpression()), !dbg !4770
  %16 = alloca %"class.std::__1::basic_string"*, align 8
  call void @llvm.dbg.declare(metadata %"class.std::__1::basic_string"** %16, metadata !4741, metadata !DIExpression()), !dbg !4771
  %17 = alloca %"struct.std::__1::__compressed_pair_elem"*, align 8
  call void @llvm.dbg.declare(metadata %"struct.std::__1::__compressed_pair_elem"** %17, metadata !4721, metadata !DIExpression()), !dbg !4772
  %18 = alloca %"class.std::__1::__compressed_pair"*, align 8
  call void @llvm.dbg.declare(metadata %"class.std::__1::__compressed_pair"** %18, metadata !4738, metadata !DIExpression()), !dbg !4776
  %19 = alloca %"class.std::__1::basic_string"*, align 8
  call void @llvm.dbg.declare(metadata %"class.std::__1::basic_string"** %19, metadata !4750, metadata !DIExpression()), !dbg !4777
  %20 = alloca %"struct.std::__1::__compressed_pair_elem"*, align 8
  call void @llvm.dbg.declare(metadata %"struct.std::__1::__compressed_pair_elem"** %20, metadata !4721, metadata !DIExpression()), !dbg !4778
  %21 = alloca %"class.std::__1::__compressed_pair"*, align 8
  call void @llvm.dbg.declare(metadata %"class.std::__1::__compressed_pair"** %21, metadata !4738, metadata !DIExpression()), !dbg !4782
  %22 = alloca %"class.std::__1::basic_string"*, align 8
  call void @llvm.dbg.declare(metadata %"class.std::__1::basic_string"** %22, metadata !4758, metadata !DIExpression()), !dbg !4783
  %23 = alloca %"class.std::__1::basic_string"*, align 8
  call void @llvm.dbg.declare(metadata %"class.std::__1::basic_string"** %23, metadata !4760, metadata !DIExpression()), !dbg !4784
  %24 = alloca %"class.std::__1::basic_string"*, align 8
  call void @llvm.dbg.declare(metadata %"class.std::__1::basic_string"** %24, metadata !4762, metadata !DIExpression()), !dbg !4785
  %25 = alloca %"class.altered_carbon::js::ACLexToken"*, align 8
  %26 = alloca %"class.std::__1::basic_ostream"*, align 8
  %27 = alloca %"class.std::__1::basic_string_view", align 8
  %28 = alloca i64, align 8
  store %"class.altered_carbon::js::ACLexToken"* %0, %"class.altered_carbon::js::ACLexToken"** %25, align 8
  call void @llvm.dbg.declare(metadata %"class.altered_carbon::js::ACLexToken"** %25, metadata !4786, metadata !DIExpression()), !dbg !4788
  store %"class.std::__1::basic_ostream"* %1, %"class.std::__1::basic_ostream"** %26, align 8
  call void @llvm.dbg.declare(metadata %"class.std::__1::basic_ostream"** %26, metadata !4789, metadata !DIExpression()), !dbg !4790
  %29 = load %"class.altered_carbon::js::ACLexToken"*, %"class.altered_carbon::js::ACLexToken"** %25, align 8
  %30 = load %"class.std::__1::basic_ostream"*, %"class.std::__1::basic_ostream"** %26, align 8, !dbg !4791
  %31 = call dereferenceable(160) %"class.std::__1::basic_ostream"* @_ZNSt3__1lsINS_11char_traitsIcEEEERNS_13basic_ostreamIcT_EES6_PKc(%"class.std::__1::basic_ostream"* dereferenceable(160) %30, i8* getelementptr inbounds ([7 x i8], [7 x i8]* @.str.127, i32 0, i32 0)), !dbg !4792
  %32 = getelementptr inbounds %"class.altered_carbon::js::ACLexToken", %"class.altered_carbon::js::ACLexToken"* %29, i32 0, i32 1, !dbg !4793
  %33 = load i32, i32* %32, align 8, !dbg !4793
  %34 = call dereferenceable(160) %"class.std::__1::basic_ostream"* @_ZNSt3__113basic_ostreamIcNS_11char_traitsIcEEElsEi(%"class.std::__1::basic_ostream"* %31, i32 %33), !dbg !4794
  %35 = call dereferenceable(160) %"class.std::__1::basic_ostream"* @_ZNSt3__1lsINS_11char_traitsIcEEEERNS_13basic_ostreamIcT_EES6_PKc(%"class.std::__1::basic_ostream"* dereferenceable(160) %34, i8* getelementptr inbounds ([3 x i8], [3 x i8]* @.str.128, i32 0, i32 0)), !dbg !4795
  %36 = getelementptr inbounds %"class.altered_carbon::js::ACLexToken", %"class.altered_carbon::js::ACLexToken"* %29, i32 0, i32 1, !dbg !4796
  %37 = load i32, i32* %36, align 8, !dbg !4796
  %38 = zext i32 %37 to i64, !dbg !4797
  %39 = getelementptr inbounds [258 x i8*], [258 x i8*]* @_ZN14altered_carbon2js10ACLexToken11TOKEN_NAMESE, i64 0, i64 %38, !dbg !4797
  %40 = load i8*, i8** %39, align 8, !dbg !4797
  %41 = call dereferenceable(160) %"class.std::__1::basic_ostream"* @_ZNSt3__1lsINS_11char_traitsIcEEEERNS_13basic_ostreamIcT_EES6_PKc(%"class.std::__1::basic_ostream"* dereferenceable(160) %35, i8* %40), !dbg !4798
  %42 = call dereferenceable(160) %"class.std::__1::basic_ostream"* @_ZNSt3__1lsINS_11char_traitsIcEEEERNS_13basic_ostreamIcT_EES6_PKc(%"class.std::__1::basic_ostream"* dereferenceable(160) %41, i8* getelementptr inbounds ([7 x i8], [7 x i8]* @.str.129, i32 0, i32 0)), !dbg !4799
  %43 = getelementptr inbounds %"class.altered_carbon::js::ACLexToken", %"class.altered_carbon::js::ACLexToken"* %29, i32 0, i32 4, !dbg !4800
  %44 = call dereferenceable(160) %"class.std::__1::basic_ostream"* @_ZN14altered_carbon2jslsERNSt3__113basic_ostreamIcNS1_11char_traitsIcEEEERKNS0_13ACLexPositionE(%"class.std::__1::basic_ostream"* dereferenceable(160) %42, %"struct.altered_carbon::js::ACLexPosition"* dereferenceable(32) %43), !dbg !4801
  %45 = call dereferenceable(160) %"class.std::__1::basic_ostream"* @_ZNSt3__1lsINS_11char_traitsIcEEEERNS_13basic_ostreamIcT_EES6_PKc(%"class.std::__1::basic_ostream"* dereferenceable(160) %44, i8* getelementptr inbounds ([7 x i8], [7 x i8]* @.str.130, i32 0, i32 0)), !dbg !4802
  %46 = getelementptr inbounds %"class.altered_carbon::js::ACLexToken", %"class.altered_carbon::js::ACLexToken"* %29, i32 0, i32 2, !dbg !4803
  %47 = load i64, i64* %46, align 8, !dbg !4803
  %48 = call dereferenceable(160) %"class.std::__1::basic_ostream"* @_ZNSt3__113basic_ostreamIcNS_11char_traitsIcEEElsEm(%"class.std::__1::basic_ostream"* %45, i64 %47), !dbg !4804
  %49 = call dereferenceable(160) %"class.std::__1::basic_ostream"* @_ZNSt3__1lsINS_11char_traitsIcEEEERNS_13basic_ostreamIcT_EES6_PKc(%"class.std::__1::basic_ostream"* dereferenceable(160) %48, i8* getelementptr inbounds ([4 x i8], [4 x i8]* @.str.131, i32 0, i32 0)), !dbg !4805
  %50 = getelementptr inbounds %"class.altered_carbon::js::ACLexToken", %"class.altered_carbon::js::ACLexToken"* %29, i32 0, i32 3, !dbg !4806
  %51 = bitcast %"class.std::__1::basic_string_view"* %27 to i8*, !dbg !4806
  %52 = bitcast %"class.std::__1::basic_string_view"* %50 to i8*, !dbg !4806
  call void @llvm.memcpy.p0i8.p0i8.i64(i8* align 8 %51, i8* align 8 %52, i64 16, i1 false), !dbg !4806
  %53 = bitcast %"class.std::__1::basic_string_view"* %27 to { i8*, i64 }*, !dbg !4807
  %54 = getelementptr inbounds { i8*, i64 }, { i8*, i64 }* %53, i32 0, i32 0, !dbg !4807
  %55 = load i8*, i8** %54, align 8, !dbg !4807
  %56 = getelementptr inbounds { i8*, i64 }, { i8*, i64 }* %53, i32 0, i32 1, !dbg !4807
  %57 = load i64, i64* %56, align 8, !dbg !4807
  %58 = call dereferenceable(160) %"class.std::__1::basic_ostream"* @_ZNSt3__1lsIcNS_11char_traitsIcEEEERNS_13basic_ostreamIT_T0_EES7_NS_17basic_string_viewIS4_S5_EE(%"class.std::__1::basic_ostream"* dereferenceable(160) %49, i8* %55, i64 %57), !dbg !4807
  %59 = call dereferenceable(160) %"class.std::__1::basic_ostream"* @_ZNSt3__1lsINS_11char_traitsIcEEEERNS_13basic_ostreamIcT_EES6_PKc(%"class.std::__1::basic_ostream"* dereferenceable(160) %58, i8* getelementptr inbounds ([2 x i8], [2 x i8]* @.str.132, i32 0, i32 0)), !dbg !4808
  %60 = call dereferenceable(160) %"class.std::__1::basic_ostream"* @_ZNSt3__1lsINS_11char_traitsIcEEEERNS_13basic_ostreamIcT_EES6_PKc(%"class.std::__1::basic_ostream"* dereferenceable(160) %59, i8* getelementptr inbounds ([14 x i8], [14 x i8]* @.str.133, i32 0, i32 0)), !dbg !4809
  %61 = getelementptr inbounds %"class.altered_carbon::js::ACLexToken", %"class.altered_carbon::js::ACLexToken"* %29, i32 0, i32 5, !dbg !4810
  store %"class.std::__1::basic_string"* %61, %"class.std::__1::basic_string"** %24, align 8
  %62 = load %"class.std::__1::basic_string"*, %"class.std::__1::basic_string"** %24, align 8
  store %"class.std::__1::basic_string"* %62, %"class.std::__1::basic_string"** %23, align 8
  %63 = load %"class.std::__1::basic_string"*, %"class.std::__1::basic_string"** %23, align 8
  store %"class.std::__1::basic_string"* %63, %"class.std::__1::basic_string"** %22, align 8
  %64 = load %"class.std::__1::basic_string"*, %"class.std::__1::basic_string"** %22, align 8
  %65 = getelementptr inbounds %"class.std::__1::basic_string", %"class.std::__1::basic_string"* %64, i32 0, i32 0, !dbg !4811
  store %"class.std::__1::__compressed_pair"* %65, %"class.std::__1::__compressed_pair"** %21, align 8
  %66 = load %"class.std::__1::__compressed_pair"*, %"class.std::__1::__compressed_pair"** %21, align 8
  %67 = bitcast %"class.std::__1::__compressed_pair"* %66 to %"struct.std::__1::__compressed_pair_elem"*, !dbg !4812
  store %"struct.std::__1::__compressed_pair_elem"* %67, %"struct.std::__1::__compressed_pair_elem"** %20, align 8
  %68 = load %"struct.std::__1::__compressed_pair_elem"*, %"struct.std::__1::__compressed_pair_elem"** %20, align 8
  %69 = getelementptr inbounds %"struct.std::__1::__compressed_pair_elem", %"struct.std::__1::__compressed_pair_elem"* %68, i32 0, i32 0, !dbg !4813
  %70 = getelementptr inbounds %"struct.std::__1::basic_string<wchar_t, std::__1::char_traits<wchar_t>, std::__1::allocator<wchar_t> >::__rep", %"struct.std::__1::basic_string<wchar_t, std::__1::char_traits<wchar_t>, std::__1::allocator<wchar_t> >::__rep"* %69, i32 0, i32 0, !dbg !4814
  %71 = bitcast %union.anon* %70 to %"struct.std::__1::basic_string<wchar_t, std::__1::char_traits<wchar_t>, std::__1::allocator<wchar_t> >::__short"*, !dbg !4814
  %72 = getelementptr inbounds %"struct.std::__1::basic_string<wchar_t, std::__1::char_traits<wchar_t>, std::__1::allocator<wchar_t> >::__short", %"struct.std::__1::basic_string<wchar_t, std::__1::char_traits<wchar_t>, std::__1::allocator<wchar_t> >::__short"* %71, i32 0, i32 0, !dbg !4815
  %73 = bitcast %union.anon.0* %72 to i8*, !dbg !4815
  %74 = load i8, i8* %73, align 8, !dbg !4815
  %75 = zext i8 %74 to i64, !dbg !4811
  %76 = and i64 %75, 1, !dbg !4816
  %77 = icmp ne i64 %76, 0, !dbg !4811
  br i1 %77, label %78, label %89, !dbg !4817

; <label>:78:                                     ; preds = %2
  store %"class.std::__1::basic_string"* %63, %"class.std::__1::basic_string"** %16, align 8
  %79 = load %"class.std::__1::basic_string"*, %"class.std::__1::basic_string"** %16, align 8
  %80 = getelementptr inbounds %"class.std::__1::basic_string", %"class.std::__1::basic_string"* %79, i32 0, i32 0, !dbg !4818
  store %"class.std::__1::__compressed_pair"* %80, %"class.std::__1::__compressed_pair"** %15, align 8
  %81 = load %"class.std::__1::__compressed_pair"*, %"class.std::__1::__compressed_pair"** %15, align 8
  %82 = bitcast %"class.std::__1::__compressed_pair"* %81 to %"struct.std::__1::__compressed_pair_elem"*, !dbg !4819
  store %"struct.std::__1::__compressed_pair_elem"* %82, %"struct.std::__1::__compressed_pair_elem"** %14, align 8
  %83 = load %"struct.std::__1::__compressed_pair_elem"*, %"struct.std::__1::__compressed_pair_elem"** %14, align 8
  %84 = getelementptr inbounds %"struct.std::__1::__compressed_pair_elem", %"struct.std::__1::__compressed_pair_elem"* %83, i32 0, i32 0, !dbg !4820
  %85 = getelementptr inbounds %"struct.std::__1::basic_string<wchar_t, std::__1::char_traits<wchar_t>, std::__1::allocator<wchar_t> >::__rep", %"struct.std::__1::basic_string<wchar_t, std::__1::char_traits<wchar_t>, std::__1::allocator<wchar_t> >::__rep"* %84, i32 0, i32 0, !dbg !4821
  %86 = bitcast %union.anon* %85 to %"struct.std::__1::basic_string<wchar_t, std::__1::char_traits<wchar_t>, std::__1::allocator<wchar_t> >::__long"*, !dbg !4821
  %87 = getelementptr inbounds %"struct.std::__1::basic_string<wchar_t, std::__1::char_traits<wchar_t>, std::__1::allocator<wchar_t> >::__long", %"struct.std::__1::basic_string<wchar_t, std::__1::char_traits<wchar_t>, std::__1::allocator<wchar_t> >::__long"* %86, i32 0, i32 1, !dbg !4822
  %88 = load i64, i64* %87, align 8, !dbg !4822
  br label %104, !dbg !4817

; <label>:89:                                     ; preds = %2
  store %"class.std::__1::basic_string"* %63, %"class.std::__1::basic_string"** %19, align 8
  %90 = load %"class.std::__1::basic_string"*, %"class.std::__1::basic_string"** %19, align 8
  %91 = getelementptr inbounds %"class.std::__1::basic_string", %"class.std::__1::basic_string"* %90, i32 0, i32 0, !dbg !4823
  store %"class.std::__1::__compressed_pair"* %91, %"class.std::__1::__compressed_pair"** %18, align 8
  %92 = load %"class.std::__1::__compressed_pair"*, %"class.std::__1::__compressed_pair"** %18, align 8
  %93 = bitcast %"class.std::__1::__compressed_pair"* %92 to %"struct.std::__1::__compressed_pair_elem"*, !dbg !4824
  store %"struct.std::__1::__compressed_pair_elem"* %93, %"struct.std::__1::__compressed_pair_elem"** %17, align 8
  %94 = load %"struct.std::__1::__compressed_pair_elem"*, %"struct.std::__1::__compressed_pair_elem"** %17, align 8
  %95 = getelementptr inbounds %"struct.std::__1::__compressed_pair_elem", %"struct.std::__1::__compressed_pair_elem"* %94, i32 0, i32 0, !dbg !4825
  %96 = getelementptr inbounds %"struct.std::__1::basic_string<wchar_t, std::__1::char_traits<wchar_t>, std::__1::allocator<wchar_t> >::__rep", %"struct.std::__1::basic_string<wchar_t, std::__1::char_traits<wchar_t>, std::__1::allocator<wchar_t> >::__rep"* %95, i32 0, i32 0, !dbg !4826
  %97 = bitcast %union.anon* %96 to %"struct.std::__1::basic_string<wchar_t, std::__1::char_traits<wchar_t>, std::__1::allocator<wchar_t> >::__short"*, !dbg !4826
  %98 = getelementptr inbounds %"struct.std::__1::basic_string<wchar_t, std::__1::char_traits<wchar_t>, std::__1::allocator<wchar_t> >::__short", %"struct.std::__1::basic_string<wchar_t, std::__1::char_traits<wchar_t>, std::__1::allocator<wchar_t> >::__short"* %97, i32 0, i32 0, !dbg !4827
  %99 = bitcast %union.anon.0* %98 to i8*, !dbg !4827
  %100 = load i8, i8* %99, align 8, !dbg !4827
  %101 = zext i8 %100 to i32, !dbg !4823
  %102 = ashr i32 %101, 1, !dbg !4828
  %103 = sext i32 %102 to i64, !dbg !4823
  br label %104, !dbg !4817

; <label>:104:                                    ; preds = %78, %89
  %105 = phi i64 [ %88, %78 ], [ %103, %89 ], !dbg !4817
  %106 = call dereferenceable(160) %"class.std::__1::basic_ostream"* @_ZNSt3__113basic_ostreamIcNS_11char_traitsIcEEElsEm(%"class.std::__1::basic_ostream"* %60, i64 %105), !dbg !4829
  %107 = getelementptr inbounds %"class.altered_carbon::js::ACLexToken", %"class.altered_carbon::js::ACLexToken"* %29, i32 0, i32 1, !dbg !4830
  %108 = load i32, i32* %107, align 8, !dbg !4830
  %109 = icmp eq i32 %108, 6, !dbg !4831
  br i1 %109, label %114, label %110, !dbg !4832

; <label>:110:                                    ; preds = %104
  %111 = getelementptr inbounds %"class.altered_carbon::js::ACLexToken", %"class.altered_carbon::js::ACLexToken"* %29, i32 0, i32 1, !dbg !4833
  %112 = load i32, i32* %111, align 8, !dbg !4833
  %113 = icmp eq i32 %112, 2, !dbg !4834
  br i1 %113, label %114, label %176, !dbg !4835

; <label>:114:                                    ; preds = %110, %104
  call void @llvm.dbg.declare(metadata i64* %28, metadata !4836, metadata !DIExpression()), !dbg !4837
  store i64 0, i64* %28, align 8, !dbg !4837
  br label %115, !dbg !4838

; <label>:115:                                    ; preds = %172, %114
  %116 = load i64, i64* %28, align 8, !dbg !4839
  %117 = getelementptr inbounds %"class.altered_carbon::js::ACLexToken", %"class.altered_carbon::js::ACLexToken"* %29, i32 0, i32 5, !dbg !4840
  store %"class.std::__1::basic_string"* %117, %"class.std::__1::basic_string"** %13, align 8
  %118 = load %"class.std::__1::basic_string"*, %"class.std::__1::basic_string"** %13, align 8
  store %"class.std::__1::basic_string"* %118, %"class.std::__1::basic_string"** %12, align 8
  %119 = load %"class.std::__1::basic_string"*, %"class.std::__1::basic_string"** %12, align 8
  store %"class.std::__1::basic_string"* %119, %"class.std::__1::basic_string"** %11, align 8
  %120 = load %"class.std::__1::basic_string"*, %"class.std::__1::basic_string"** %11, align 8
  %121 = getelementptr inbounds %"class.std::__1::basic_string", %"class.std::__1::basic_string"* %120, i32 0, i32 0, !dbg !4841
  store %"class.std::__1::__compressed_pair"* %121, %"class.std::__1::__compressed_pair"** %10, align 8
  %122 = load %"class.std::__1::__compressed_pair"*, %"class.std::__1::__compressed_pair"** %10, align 8
  %123 = bitcast %"class.std::__1::__compressed_pair"* %122 to %"struct.std::__1::__compressed_pair_elem"*, !dbg !4842
  store %"struct.std::__1::__compressed_pair_elem"* %123, %"struct.std::__1::__compressed_pair_elem"** %9, align 8
  %124 = load %"struct.std::__1::__compressed_pair_elem"*, %"struct.std::__1::__compressed_pair_elem"** %9, align 8
  %125 = getelementptr inbounds %"struct.std::__1::__compressed_pair_elem", %"struct.std::__1::__compressed_pair_elem"* %124, i32 0, i32 0, !dbg !4843
  %126 = getelementptr inbounds %"struct.std::__1::basic_string<wchar_t, std::__1::char_traits<wchar_t>, std::__1::allocator<wchar_t> >::__rep", %"struct.std::__1::basic_string<wchar_t, std::__1::char_traits<wchar_t>, std::__1::allocator<wchar_t> >::__rep"* %125, i32 0, i32 0, !dbg !4844
  %127 = bitcast %union.anon* %126 to %"struct.std::__1::basic_string<wchar_t, std::__1::char_traits<wchar_t>, std::__1::allocator<wchar_t> >::__short"*, !dbg !4844
  %128 = getelementptr inbounds %"struct.std::__1::basic_string<wchar_t, std::__1::char_traits<wchar_t>, std::__1::allocator<wchar_t> >::__short", %"struct.std::__1::basic_string<wchar_t, std::__1::char_traits<wchar_t>, std::__1::allocator<wchar_t> >::__short"* %127, i32 0, i32 0, !dbg !4845
  %129 = bitcast %union.anon.0* %128 to i8*, !dbg !4845
  %130 = load i8, i8* %129, align 8, !dbg !4845
  %131 = zext i8 %130 to i64, !dbg !4841
  %132 = and i64 %131, 1, !dbg !4846
  %133 = icmp ne i64 %132, 0, !dbg !4841
  br i1 %133, label %134, label %145, !dbg !4847

; <label>:134:                                    ; preds = %115
  store %"class.std::__1::basic_string"* %119, %"class.std::__1::basic_string"** %5, align 8
  %135 = load %"class.std::__1::basic_string"*, %"class.std::__1::basic_string"** %5, align 8
  %136 = getelementptr inbounds %"class.std::__1::basic_string", %"class.std::__1::basic_string"* %135, i32 0, i32 0, !dbg !4848
  store %"class.std::__1::__compressed_pair"* %136, %"class.std::__1::__compressed_pair"** %4, align 8
  %137 = load %"class.std::__1::__compressed_pair"*, %"class.std::__1::__compressed_pair"** %4, align 8
  %138 = bitcast %"class.std::__1::__compressed_pair"* %137 to %"struct.std::__1::__compressed_pair_elem"*, !dbg !4849
  store %"struct.std::__1::__compressed_pair_elem"* %138, %"struct.std::__1::__compressed_pair_elem"** %3, align 8
  %139 = load %"struct.std::__1::__compressed_pair_elem"*, %"struct.std::__1::__compressed_pair_elem"** %3, align 8
  %140 = getelementptr inbounds %"struct.std::__1::__compressed_pair_elem", %"struct.std::__1::__compressed_pair_elem"* %139, i32 0, i32 0, !dbg !4850
  %141 = getelementptr inbounds %"struct.std::__1::basic_string<wchar_t, std::__1::char_traits<wchar_t>, std::__1::allocator<wchar_t> >::__rep", %"struct.std::__1::basic_string<wchar_t, std::__1::char_traits<wchar_t>, std::__1::allocator<wchar_t> >::__rep"* %140, i32 0, i32 0, !dbg !4851
  %142 = bitcast %union.anon* %141 to %"struct.std::__1::basic_string<wchar_t, std::__1::char_traits<wchar_t>, std::__1::allocator<wchar_t> >::__long"*, !dbg !4851
  %143 = getelementptr inbounds %"struct.std::__1::basic_string<wchar_t, std::__1::char_traits<wchar_t>, std::__1::allocator<wchar_t> >::__long", %"struct.std::__1::basic_string<wchar_t, std::__1::char_traits<wchar_t>, std::__1::allocator<wchar_t> >::__long"* %142, i32 0, i32 1, !dbg !4852
  %144 = load i64, i64* %143, align 8, !dbg !4852
  br label %160, !dbg !4847

; <label>:145:                                    ; preds = %115
  store %"class.std::__1::basic_string"* %119, %"class.std::__1::basic_string"** %8, align 8
  %146 = load %"class.std::__1::basic_string"*, %"class.std::__1::basic_string"** %8, align 8
  %147 = getelementptr inbounds %"class.std::__1::basic_string", %"class.std::__1::basic_string"* %146, i32 0, i32 0, !dbg !4853
  store %"class.std::__1::__compressed_pair"* %147, %"class.std::__1::__compressed_pair"** %7, align 8
  %148 = load %"class.std::__1::__compressed_pair"*, %"class.std::__1::__compressed_pair"** %7, align 8
  %149 = bitcast %"class.std::__1::__compressed_pair"* %148 to %"struct.std::__1::__compressed_pair_elem"*, !dbg !4854
  store %"struct.std::__1::__compressed_pair_elem"* %149, %"struct.std::__1::__compressed_pair_elem"** %6, align 8
  %150 = load %"struct.std::__1::__compressed_pair_elem"*, %"struct.std::__1::__compressed_pair_elem"** %6, align 8
  %151 = getelementptr inbounds %"struct.std::__1::__compressed_pair_elem", %"struct.std::__1::__compressed_pair_elem"* %150, i32 0, i32 0, !dbg !4855
  %152 = getelementptr inbounds %"struct.std::__1::basic_string<wchar_t, std::__1::char_traits<wchar_t>, std::__1::allocator<wchar_t> >::__rep", %"struct.std::__1::basic_string<wchar_t, std::__1::char_traits<wchar_t>, std::__1::allocator<wchar_t> >::__rep"* %151, i32 0, i32 0, !dbg !4856
  %153 = bitcast %union.anon* %152 to %"struct.std::__1::basic_string<wchar_t, std::__1::char_traits<wchar_t>, std::__1::allocator<wchar_t> >::__short"*, !dbg !4856
  %154 = getelementptr inbounds %"struct.std::__1::basic_string<wchar_t, std::__1::char_traits<wchar_t>, std::__1::allocator<wchar_t> >::__short", %"struct.std::__1::basic_string<wchar_t, std::__1::char_traits<wchar_t>, std::__1::allocator<wchar_t> >::__short"* %153, i32 0, i32 0, !dbg !4857
  %155 = bitcast %union.anon.0* %154 to i8*, !dbg !4857
  %156 = load i8, i8* %155, align 8, !dbg !4857
  %157 = zext i8 %156 to i32, !dbg !4853
  %158 = ashr i32 %157, 1, !dbg !4858
  %159 = sext i32 %158 to i64, !dbg !4853
  br label %160, !dbg !4847

; <label>:160:                                    ; preds = %134, %145
  %161 = phi i64 [ %144, %134 ], [ %159, %145 ], !dbg !4847
  %162 = icmp ult i64 %116, %161, !dbg !4859
  br i1 %162, label %163, label %175, !dbg !4860

; <label>:163:                                    ; preds = %160
  %164 = load %"class.std::__1::basic_ostream"*, %"class.std::__1::basic_ostream"** %26, align 8, !dbg !4861
  %165 = call dereferenceable(160) %"class.std::__1::basic_ostream"* @_ZNSt3__1lsINS_11char_traitsIcEEEERNS_13basic_ostreamIcT_EES6_PKc(%"class.std::__1::basic_ostream"* dereferenceable(160) %164, i8* getelementptr inbounds ([2 x i8], [2 x i8]* @.str.134, i32 0, i32 0)), !dbg !4863
  %166 = getelementptr inbounds %"class.altered_carbon::js::ACLexToken", %"class.altered_carbon::js::ACLexToken"* %29, i32 0, i32 5, !dbg !4864
  %167 = load i64, i64* %28, align 8, !dbg !4865
  %168 = call dereferenceable(4) i32* @_ZNKSt3__112basic_stringIwNS_11char_traitsIwEENS_9allocatorIwEEE2atEm(%"class.std::__1::basic_string"* %166, i64 %167), !dbg !4866
  %169 = load i32, i32* %168, align 4, !dbg !4866
  %170 = call dereferenceable(160) %"class.std::__1::basic_ostream"* @_ZNSt3__113basic_ostreamIcNS_11char_traitsIcEEElsEi(%"class.std::__1::basic_ostream"* %165, i32 %169), !dbg !4867
  %171 = call dereferenceable(160) %"class.std::__1::basic_ostream"* @_ZNSt3__1lsINS_11char_traitsIcEEEERNS_13basic_ostreamIcT_EES6_PKc(%"class.std::__1::basic_ostream"* dereferenceable(160) %170, i8* getelementptr inbounds ([2 x i8], [2 x i8]* @.str.135, i32 0, i32 0)), !dbg !4868
  br label %172, !dbg !4869

; <label>:172:                                    ; preds = %163
  %173 = load i64, i64* %28, align 8, !dbg !4870
  %174 = add i64 %173, 1, !dbg !4870
  store i64 %174, i64* %28, align 8, !dbg !4870
  br label %115, !dbg !4871, !llvm.loop !4872

; <label>:175:                                    ; preds = %160
  br label %176, !dbg !4874

; <label>:176:                                    ; preds = %175, %110
  %177 = load %"class.std::__1::basic_ostream"*, %"class.std::__1::basic_ostream"** %26, align 8, !dbg !4875
  %178 = call dereferenceable(160) %"class.std::__1::basic_ostream"* @_ZNSt3__1lsINS_11char_traitsIcEEEERNS_13basic_ostreamIcT_EES6_PKc(%"class.std::__1::basic_ostream"* dereferenceable(160) %177, i8* getelementptr inbounds ([3 x i8], [3 x i8]* @.str.136, i32 0, i32 0)), !dbg !4876
  ret void, !dbg !4877
}

; Function Attrs: noinline nounwind optnone ssp uwtable
define linkonce_odr dereferenceable(160) %"class.std::__1::basic_ostream"* @_ZNSt3__1lsINS_11char_traitsIcEEEERNS_13basic_ostreamIcT_EES6_PKc(%"class.std::__1::basic_ostream"* dereferenceable(160), i8*) #0 !dbg !4878 {
  %3 = alloca %"class.std::__1::basic_ostream"*, align 8
  %4 = alloca i8*, align 8
  store %"class.std::__1::basic_ostream"* %0, %"class.std::__1::basic_ostream"** %3, align 8
  call void @llvm.dbg.declare(metadata %"class.std::__1::basic_ostream"** %3, metadata !4882, metadata !DIExpression()), !dbg !4883
  store i8* %1, i8** %4, align 8
  call void @llvm.dbg.declare(metadata i8** %4, metadata !4884, metadata !DIExpression()), !dbg !4885
  %5 = load %"class.std::__1::basic_ostream"*, %"class.std::__1::basic_ostream"** %3, align 8, !dbg !4886
  %6 = load i8*, i8** %4, align 8, !dbg !4887
  %7 = load i8*, i8** %4, align 8, !dbg !4888
  %8 = call i64 @_ZNSt3__111char_traitsIcE6lengthEPKc(i8* %7) #6, !dbg !4889
  %9 = call dereferenceable(160) %"class.std::__1::basic_ostream"* @_ZNSt3__124__put_character_sequenceIcNS_11char_traitsIcEEEERNS_13basic_ostreamIT_T0_EES7_PKS4_m(%"class.std::__1::basic_ostream"* dereferenceable(160) %5, i8* %6, i64 %8), !dbg !4890
  ret %"class.std::__1::basic_ostream"* %9, !dbg !4891
}

; Function Attrs: noinline nounwind optnone ssp uwtable
define linkonce_odr dereferenceable(160) %"class.std::__1::basic_ostream"* @_ZNSt3__1lsIcNS_11char_traitsIcEEEERNS_13basic_ostreamIT_T0_EES7_NS_17basic_string_viewIS4_S5_EE(%"class.std::__1::basic_ostream"* dereferenceable(160), i8*, i64) #0 !dbg !4892 {
  %4 = alloca %"class.std::__1::basic_string_view"*, align 8
  call void @llvm.dbg.declare(metadata %"class.std::__1::basic_string_view"** %4, metadata !4895, metadata !DIExpression()), !dbg !4898
  %5 = alloca %"class.std::__1::basic_string_view"*, align 8
  call void @llvm.dbg.declare(metadata %"class.std::__1::basic_string_view"** %5, metadata !4900, metadata !DIExpression()), !dbg !4902
  %6 = alloca %"class.std::__1::basic_string_view", align 8
  %7 = alloca %"class.std::__1::basic_ostream"*, align 8
  %8 = bitcast %"class.std::__1::basic_string_view"* %6 to { i8*, i64 }*
  %9 = getelementptr inbounds { i8*, i64 }, { i8*, i64 }* %8, i32 0, i32 0
  store i8* %1, i8** %9, align 8
  %10 = getelementptr inbounds { i8*, i64 }, { i8*, i64 }* %8, i32 0, i32 1
  store i64 %2, i64* %10, align 8
  store %"class.std::__1::basic_ostream"* %0, %"class.std::__1::basic_ostream"** %7, align 8
  call void @llvm.dbg.declare(metadata %"class.std::__1::basic_ostream"** %7, metadata !4904, metadata !DIExpression()), !dbg !4905
  call void @llvm.dbg.declare(metadata %"class.std::__1::basic_string_view"* %6, metadata !4906, metadata !DIExpression()), !dbg !4907
  %11 = load %"class.std::__1::basic_ostream"*, %"class.std::__1::basic_ostream"** %7, align 8, !dbg !4908
  store %"class.std::__1::basic_string_view"* %6, %"class.std::__1::basic_string_view"** %5, align 8
  %12 = load %"class.std::__1::basic_string_view"*, %"class.std::__1::basic_string_view"** %5, align 8
  %13 = getelementptr inbounds %"class.std::__1::basic_string_view", %"class.std::__1::basic_string_view"* %12, i32 0, i32 0, !dbg !4909
  %14 = load i8*, i8** %13, align 8, !dbg !4909
  store %"class.std::__1::basic_string_view"* %6, %"class.std::__1::basic_string_view"** %4, align 8
  %15 = load %"class.std::__1::basic_string_view"*, %"class.std::__1::basic_string_view"** %4, align 8
  %16 = getelementptr inbounds %"class.std::__1::basic_string_view", %"class.std::__1::basic_string_view"* %15, i32 0, i32 1, !dbg !4910
  %17 = load i64, i64* %16, align 8, !dbg !4910
  %18 = call dereferenceable(160) %"class.std::__1::basic_ostream"* @_ZNSt3__124__put_character_sequenceIcNS_11char_traitsIcEEEERNS_13basic_ostreamIT_T0_EES7_PKS4_m(%"class.std::__1::basic_ostream"* dereferenceable(160) %11, i8* %14, i64 %17), !dbg !4911
  ret %"class.std::__1::basic_ostream"* %18, !dbg !4912
}

; Function Attrs: noinline nounwind optnone ssp uwtable
define dereferenceable(160) %"class.std::__1::basic_ostream"* @_ZN14altered_carbon2jslsERNSt3__113basic_ostreamIcNS1_11char_traitsIcEEEERKNS0_13ACLexPositionE(%"class.std::__1::basic_ostream"* dereferenceable(160), %"struct.altered_carbon::js::ACLexPosition"* dereferenceable(32)) #0 !dbg !4913 {
  %3 = alloca %"class.std::__1::basic_ostream"*, align 8
  %4 = alloca %"struct.altered_carbon::js::ACLexPosition"*, align 8
  store %"class.std::__1::basic_ostream"* %0, %"class.std::__1::basic_ostream"** %3, align 8
  call void @llvm.dbg.declare(metadata %"class.std::__1::basic_ostream"** %3, metadata !4918, metadata !DIExpression()), !dbg !4919
  store %"struct.altered_carbon::js::ACLexPosition"* %1, %"struct.altered_carbon::js::ACLexPosition"** %4, align 8
  call void @llvm.dbg.declare(metadata %"struct.altered_carbon::js::ACLexPosition"** %4, metadata !4920, metadata !DIExpression()), !dbg !4921
  %5 = load %"class.std::__1::basic_ostream"*, %"class.std::__1::basic_ostream"** %3, align 8, !dbg !4922
  %6 = call dereferenceable(160) %"class.std::__1::basic_ostream"* @_ZNSt3__1lsINS_11char_traitsIcEEEERNS_13basic_ostreamIcT_EES6_PKc(%"class.std::__1::basic_ostream"* dereferenceable(160) %5, i8* getelementptr inbounds ([7 x i8], [7 x i8]* @.str.137, i32 0, i32 0)), !dbg !4923
  %7 = load %"struct.altered_carbon::js::ACLexPosition"*, %"struct.altered_carbon::js::ACLexPosition"** %4, align 8, !dbg !4924
  %8 = getelementptr inbounds %"struct.altered_carbon::js::ACLexPosition", %"struct.altered_carbon::js::ACLexPosition"* %7, i32 0, i32 2, !dbg !4925
  %9 = load i32, i32* %8, align 8, !dbg !4925
  %10 = call dereferenceable(160) %"class.std::__1::basic_ostream"* @_ZNSt3__113basic_ostreamIcNS_11char_traitsIcEEElsEi(%"class.std::__1::basic_ostream"* %6, i32 %9), !dbg !4926
  %11 = call dereferenceable(160) %"class.std::__1::basic_ostream"* @_ZNSt3__1lsINS_11char_traitsIcEEEERNS_13basic_ostreamIcT_EES6_PKc(%"class.std::__1::basic_ostream"* dereferenceable(160) %10, i8* getelementptr inbounds ([7 x i8], [7 x i8]* @.str.138, i32 0, i32 0)), !dbg !4927
  %12 = load %"struct.altered_carbon::js::ACLexPosition"*, %"struct.altered_carbon::js::ACLexPosition"** %4, align 8, !dbg !4928
  %13 = getelementptr inbounds %"struct.altered_carbon::js::ACLexPosition", %"struct.altered_carbon::js::ACLexPosition"* %12, i32 0, i32 1, !dbg !4929
  %14 = load i64, i64* %13, align 8, !dbg !4929
  %15 = load %"struct.altered_carbon::js::ACLexPosition"*, %"struct.altered_carbon::js::ACLexPosition"** %4, align 8, !dbg !4930
  %16 = getelementptr inbounds %"struct.altered_carbon::js::ACLexPosition", %"struct.altered_carbon::js::ACLexPosition"* %15, i32 0, i32 3, !dbg !4931
  %17 = load i64, i64* %16, align 8, !dbg !4931
  %18 = sub i64 %14, %17, !dbg !4932
  %19 = call dereferenceable(160) %"class.std::__1::basic_ostream"* @_ZNSt3__113basic_ostreamIcNS_11char_traitsIcEEElsEm(%"class.std::__1::basic_ostream"* %11, i64 %18), !dbg !4933
  %20 = call dereferenceable(160) %"class.std::__1::basic_ostream"* @_ZNSt3__1lsINS_11char_traitsIcEEEERNS_13basic_ostreamIcT_EES6_PKc(%"class.std::__1::basic_ostream"* dereferenceable(160) %19, i8* getelementptr inbounds ([10 x i8], [10 x i8]* @.str.139, i32 0, i32 0)), !dbg !4934
  %21 = load %"struct.altered_carbon::js::ACLexPosition"*, %"struct.altered_carbon::js::ACLexPosition"** %4, align 8, !dbg !4935
  %22 = getelementptr inbounds %"struct.altered_carbon::js::ACLexPosition", %"struct.altered_carbon::js::ACLexPosition"* %21, i32 0, i32 1, !dbg !4936
  %23 = load i64, i64* %22, align 8, !dbg !4936
  %24 = call dereferenceable(160) %"class.std::__1::basic_ostream"* @_ZNSt3__113basic_ostreamIcNS_11char_traitsIcEEElsEm(%"class.std::__1::basic_ostream"* %20, i64 %23), !dbg !4937
  %25 = call dereferenceable(160) %"class.std::__1::basic_ostream"* @_ZNSt3__1lsINS_11char_traitsIcEEEERNS_13basic_ostreamIcT_EES6_PKc(%"class.std::__1::basic_ostream"* dereferenceable(160) %24, i8* getelementptr inbounds ([11 x i8], [11 x i8]* @.str.140, i32 0, i32 0)), !dbg !4938
  %26 = load %"struct.altered_carbon::js::ACLexPosition"*, %"struct.altered_carbon::js::ACLexPosition"** %4, align 8, !dbg !4939
  %27 = getelementptr inbounds %"struct.altered_carbon::js::ACLexPosition", %"struct.altered_carbon::js::ACLexPosition"* %26, i32 0, i32 3, !dbg !4940
  %28 = load i64, i64* %27, align 8, !dbg !4940
  %29 = call dereferenceable(160) %"class.std::__1::basic_ostream"* @_ZNSt3__113basic_ostreamIcNS_11char_traitsIcEEElsEm(%"class.std::__1::basic_ostream"* %25, i64 %28), !dbg !4941
  %30 = call dereferenceable(160) %"class.std::__1::basic_ostream"* @_ZNSt3__1lsINS_11char_traitsIcEEEERNS_13basic_ostreamIcT_EES6_PKc(%"class.std::__1::basic_ostream"* dereferenceable(160) %29, i8* getelementptr inbounds ([2 x i8], [2 x i8]* @.str.141, i32 0, i32 0)), !dbg !4942
  %31 = load %"class.std::__1::basic_ostream"*, %"class.std::__1::basic_ostream"** %3, align 8, !dbg !4943
  ret %"class.std::__1::basic_ostream"* %31, !dbg !4944
}

declare dereferenceable(160) %"class.std::__1::basic_ostream"* @_ZNSt3__113basic_ostreamIcNS_11char_traitsIcEEElsEi(%"class.std::__1::basic_ostream"*, i32) #2

declare dereferenceable(160) %"class.std::__1::basic_ostream"* @_ZNSt3__113basic_ostreamIcNS_11char_traitsIcEEElsEm(%"class.std::__1::basic_ostream"*, i64) #2

declare dereferenceable(4) i32* @_ZNKSt3__112basic_stringIwNS_11char_traitsIwEENS_9allocatorIwEEE2atEm(%"class.std::__1::basic_string"*, i64) #2

; Function Attrs: noinline nounwind optnone ssp uwtable
define void @_ZN14altered_carbon2js13ACLexPositionC2Ev(%"struct.altered_carbon::js::ACLexPosition"*) unnamed_addr #0 align 2 !dbg !4945 {
  %2 = alloca %"struct.altered_carbon::js::ACLexPosition"*, align 8
  store %"struct.altered_carbon::js::ACLexPosition"* %0, %"struct.altered_carbon::js::ACLexPosition"** %2, align 8
  call void @llvm.dbg.declare(metadata %"struct.altered_carbon::js::ACLexPosition"** %2, metadata !4946, metadata !DIExpression()), !dbg !4947
  %3 = load %"struct.altered_carbon::js::ACLexPosition"*, %"struct.altered_carbon::js::ACLexPosition"** %2, align 8
  %4 = bitcast %"struct.altered_carbon::js::ACLexPosition"* %3 to i32 (...)***, !dbg !4948
  store i32 (...)** bitcast (i8** getelementptr inbounds ({ [4 x i8*] }, { [4 x i8*] }* @_ZTVN14altered_carbon2js13ACLexPositionE, i32 0, inrange i32 0, i32 2) to i32 (...)**), i32 (...)*** %4, align 8, !dbg !4948
  %5 = getelementptr inbounds %"struct.altered_carbon::js::ACLexPosition", %"struct.altered_carbon::js::ACLexPosition"* %3, i32 0, i32 1, !dbg !4949
  store i64 0, i64* %5, align 8, !dbg !4949
  %6 = getelementptr inbounds %"struct.altered_carbon::js::ACLexPosition", %"struct.altered_carbon::js::ACLexPosition"* %3, i32 0, i32 2, !dbg !4950
  store i32 1, i32* %6, align 8, !dbg !4950
  %7 = getelementptr inbounds %"struct.altered_carbon::js::ACLexPosition", %"struct.altered_carbon::js::ACLexPosition"* %3, i32 0, i32 3, !dbg !4951
  store i64 0, i64* %7, align 8, !dbg !4951
  ret void, !dbg !4952
}

; Function Attrs: noinline nounwind optnone ssp uwtable
define void @_ZN14altered_carbon2js13ACLexPositionC2ERKS1_(%"struct.altered_carbon::js::ACLexPosition"*, %"struct.altered_carbon::js::ACLexPosition"* dereferenceable(32)) unnamed_addr #0 align 2 !dbg !4953 {
  %3 = alloca %"struct.altered_carbon::js::ACLexPosition"*, align 8
  %4 = alloca %"struct.altered_carbon::js::ACLexPosition"*, align 8
  store %"struct.altered_carbon::js::ACLexPosition"* %0, %"struct.altered_carbon::js::ACLexPosition"** %3, align 8
  call void @llvm.dbg.declare(metadata %"struct.altered_carbon::js::ACLexPosition"** %3, metadata !4954, metadata !DIExpression()), !dbg !4955
  store %"struct.altered_carbon::js::ACLexPosition"* %1, %"struct.altered_carbon::js::ACLexPosition"** %4, align 8
  call void @llvm.dbg.declare(metadata %"struct.altered_carbon::js::ACLexPosition"** %4, metadata !4956, metadata !DIExpression()), !dbg !4957
  %5 = load %"struct.altered_carbon::js::ACLexPosition"*, %"struct.altered_carbon::js::ACLexPosition"** %3, align 8
  %6 = bitcast %"struct.altered_carbon::js::ACLexPosition"* %5 to i32 (...)***, !dbg !4958
  store i32 (...)** bitcast (i8** getelementptr inbounds ({ [4 x i8*] }, { [4 x i8*] }* @_ZTVN14altered_carbon2js13ACLexPositionE, i32 0, inrange i32 0, i32 2) to i32 (...)**), i32 (...)*** %6, align 8, !dbg !4958
  %7 = getelementptr inbounds %"struct.altered_carbon::js::ACLexPosition", %"struct.altered_carbon::js::ACLexPosition"* %5, i32 0, i32 1, !dbg !4959
  %8 = load %"struct.altered_carbon::js::ACLexPosition"*, %"struct.altered_carbon::js::ACLexPosition"** %4, align 8, !dbg !4960
  %9 = getelementptr inbounds %"struct.altered_carbon::js::ACLexPosition", %"struct.altered_carbon::js::ACLexPosition"* %8, i32 0, i32 1, !dbg !4961
  %10 = load i64, i64* %9, align 8, !dbg !4961
  store i64 %10, i64* %7, align 8, !dbg !4959
  %11 = getelementptr inbounds %"struct.altered_carbon::js::ACLexPosition", %"struct.altered_carbon::js::ACLexPosition"* %5, i32 0, i32 2, !dbg !4962
  %12 = load %"struct.altered_carbon::js::ACLexPosition"*, %"struct.altered_carbon::js::ACLexPosition"** %4, align 8, !dbg !4963
  %13 = getelementptr inbounds %"struct.altered_carbon::js::ACLexPosition", %"struct.altered_carbon::js::ACLexPosition"* %12, i32 0, i32 2, !dbg !4964
  %14 = load i32, i32* %13, align 8, !dbg !4964
  store i32 %14, i32* %11, align 8, !dbg !4962
  %15 = getelementptr inbounds %"struct.altered_carbon::js::ACLexPosition", %"struct.altered_carbon::js::ACLexPosition"* %5, i32 0, i32 3, !dbg !4965
  %16 = load %"struct.altered_carbon::js::ACLexPosition"*, %"struct.altered_carbon::js::ACLexPosition"** %4, align 8, !dbg !4966
  %17 = getelementptr inbounds %"struct.altered_carbon::js::ACLexPosition", %"struct.altered_carbon::js::ACLexPosition"* %16, i32 0, i32 3, !dbg !4967
  %18 = load i64, i64* %17, align 8, !dbg !4967
  store i64 %18, i64* %15, align 8, !dbg !4965
  ret void, !dbg !4968
}

; Function Attrs: noinline nounwind optnone ssp uwtable
define void @_ZN14altered_carbon2js13ACLexPositionC2EPKS1_(%"struct.altered_carbon::js::ACLexPosition"*, %"struct.altered_carbon::js::ACLexPosition"*) unnamed_addr #0 align 2 !dbg !4969 {
  %3 = alloca %"struct.altered_carbon::js::ACLexPosition"*, align 8
  %4 = alloca %"struct.altered_carbon::js::ACLexPosition"*, align 8
  store %"struct.altered_carbon::js::ACLexPosition"* %0, %"struct.altered_carbon::js::ACLexPosition"** %3, align 8
  call void @llvm.dbg.declare(metadata %"struct.altered_carbon::js::ACLexPosition"** %3, metadata !4970, metadata !DIExpression()), !dbg !4971
  store %"struct.altered_carbon::js::ACLexPosition"* %1, %"struct.altered_carbon::js::ACLexPosition"** %4, align 8
  call void @llvm.dbg.declare(metadata %"struct.altered_carbon::js::ACLexPosition"** %4, metadata !4972, metadata !DIExpression()), !dbg !4973
  %5 = load %"struct.altered_carbon::js::ACLexPosition"*, %"struct.altered_carbon::js::ACLexPosition"** %3, align 8
  %6 = bitcast %"struct.altered_carbon::js::ACLexPosition"* %5 to i32 (...)***, !dbg !4974
  store i32 (...)** bitcast (i8** getelementptr inbounds ({ [4 x i8*] }, { [4 x i8*] }* @_ZTVN14altered_carbon2js13ACLexPositionE, i32 0, inrange i32 0, i32 2) to i32 (...)**), i32 (...)*** %6, align 8, !dbg !4974
  %7 = load %"struct.altered_carbon::js::ACLexPosition"*, %"struct.altered_carbon::js::ACLexPosition"** %4, align 8, !dbg !4975
  %8 = icmp ne %"struct.altered_carbon::js::ACLexPosition"* %7, null, !dbg !4978
  br i1 %8, label %9, label %22, !dbg !4979

; <label>:9:                                      ; preds = %2
  %10 = load %"struct.altered_carbon::js::ACLexPosition"*, %"struct.altered_carbon::js::ACLexPosition"** %4, align 8, !dbg !4980
  %11 = getelementptr inbounds %"struct.altered_carbon::js::ACLexPosition", %"struct.altered_carbon::js::ACLexPosition"* %10, i32 0, i32 1, !dbg !4982
  %12 = load i64, i64* %11, align 8, !dbg !4982
  %13 = getelementptr inbounds %"struct.altered_carbon::js::ACLexPosition", %"struct.altered_carbon::js::ACLexPosition"* %5, i32 0, i32 1, !dbg !4983
  store i64 %12, i64* %13, align 8, !dbg !4984
  %14 = load %"struct.altered_carbon::js::ACLexPosition"*, %"struct.altered_carbon::js::ACLexPosition"** %4, align 8, !dbg !4985
  %15 = getelementptr inbounds %"struct.altered_carbon::js::ACLexPosition", %"struct.altered_carbon::js::ACLexPosition"* %14, i32 0, i32 2, !dbg !4986
  %16 = load i32, i32* %15, align 8, !dbg !4986
  %17 = getelementptr inbounds %"struct.altered_carbon::js::ACLexPosition", %"struct.altered_carbon::js::ACLexPosition"* %5, i32 0, i32 2, !dbg !4987
  store i32 %16, i32* %17, align 8, !dbg !4988
  %18 = load %"struct.altered_carbon::js::ACLexPosition"*, %"struct.altered_carbon::js::ACLexPosition"** %4, align 8, !dbg !4989
  %19 = getelementptr inbounds %"struct.altered_carbon::js::ACLexPosition", %"struct.altered_carbon::js::ACLexPosition"* %18, i32 0, i32 3, !dbg !4990
  %20 = load i64, i64* %19, align 8, !dbg !4990
  %21 = getelementptr inbounds %"struct.altered_carbon::js::ACLexPosition", %"struct.altered_carbon::js::ACLexPosition"* %5, i32 0, i32 3, !dbg !4991
  store i64 %20, i64* %21, align 8, !dbg !4992
  br label %26, !dbg !4993

; <label>:22:                                     ; preds = %2
  %23 = getelementptr inbounds %"struct.altered_carbon::js::ACLexPosition", %"struct.altered_carbon::js::ACLexPosition"* %5, i32 0, i32 1, !dbg !4994
  store i64 0, i64* %23, align 8, !dbg !4996
  %24 = getelementptr inbounds %"struct.altered_carbon::js::ACLexPosition", %"struct.altered_carbon::js::ACLexPosition"* %5, i32 0, i32 2, !dbg !4997
  store i32 1, i32* %24, align 8, !dbg !4998
  %25 = getelementptr inbounds %"struct.altered_carbon::js::ACLexPosition", %"struct.altered_carbon::js::ACLexPosition"* %5, i32 0, i32 3, !dbg !4999
  store i64 0, i64* %25, align 8, !dbg !5000
  br label %26

; <label>:26:                                     ; preds = %22, %9
  ret void, !dbg !5001
}

; Function Attrs: noinline nounwind optnone ssp uwtable
define void @_ZN14altered_carbon2js13ACLexPositionC1EPKS1_(%"struct.altered_carbon::js::ACLexPosition"*, %"struct.altered_carbon::js::ACLexPosition"*) unnamed_addr #0 align 2 !dbg !5002 {
  %3 = alloca %"struct.altered_carbon::js::ACLexPosition"*, align 8
  %4 = alloca %"struct.altered_carbon::js::ACLexPosition"*, align 8
  store %"struct.altered_carbon::js::ACLexPosition"* %0, %"struct.altered_carbon::js::ACLexPosition"** %3, align 8
  call void @llvm.dbg.declare(metadata %"struct.altered_carbon::js::ACLexPosition"** %3, metadata !5003, metadata !DIExpression()), !dbg !5004
  store %"struct.altered_carbon::js::ACLexPosition"* %1, %"struct.altered_carbon::js::ACLexPosition"** %4, align 8
  call void @llvm.dbg.declare(metadata %"struct.altered_carbon::js::ACLexPosition"** %4, metadata !5005, metadata !DIExpression()), !dbg !5006
  %5 = load %"struct.altered_carbon::js::ACLexPosition"*, %"struct.altered_carbon::js::ACLexPosition"** %3, align 8
  %6 = load %"struct.altered_carbon::js::ACLexPosition"*, %"struct.altered_carbon::js::ACLexPosition"** %4, align 8, !dbg !5007
  call void @_ZN14altered_carbon2js13ACLexPositionC2EPKS1_(%"struct.altered_carbon::js::ACLexPosition"* %5, %"struct.altered_carbon::js::ACLexPosition"* %6), !dbg !5007
  ret void, !dbg !5008
}

; Function Attrs: noinline nounwind optnone ssp uwtable
define void @_ZN14altered_carbon2js13ACLexPosition7newLineEv(%"struct.altered_carbon::js::ACLexPosition"*) #0 align 2 !dbg !5009 {
  %2 = alloca %"struct.altered_carbon::js::ACLexPosition"*, align 8
  store %"struct.altered_carbon::js::ACLexPosition"* %0, %"struct.altered_carbon::js::ACLexPosition"** %2, align 8
  call void @llvm.dbg.declare(metadata %"struct.altered_carbon::js::ACLexPosition"** %2, metadata !5010, metadata !DIExpression()), !dbg !5011
  %3 = load %"struct.altered_carbon::js::ACLexPosition"*, %"struct.altered_carbon::js::ACLexPosition"** %2, align 8
  %4 = getelementptr inbounds %"struct.altered_carbon::js::ACLexPosition", %"struct.altered_carbon::js::ACLexPosition"* %3, i32 0, i32 2, !dbg !5012
  %5 = load i32, i32* %4, align 8, !dbg !5013
  %6 = add nsw i32 %5, 1, !dbg !5013
  store i32 %6, i32* %4, align 8, !dbg !5013
  %7 = getelementptr inbounds %"struct.altered_carbon::js::ACLexPosition", %"struct.altered_carbon::js::ACLexPosition"* %3, i32 0, i32 1, !dbg !5014
  %8 = load i64, i64* %7, align 8, !dbg !5014
  %9 = getelementptr inbounds %"struct.altered_carbon::js::ACLexPosition", %"struct.altered_carbon::js::ACLexPosition"* %3, i32 0, i32 3, !dbg !5015
  store i64 %8, i64* %9, align 8, !dbg !5016
  ret void, !dbg !5017
}

; Function Attrs: noinline nounwind optnone ssp uwtable
define void @_ZN14altered_carbon2js16ACLexNumberTokenC2Ev(%"class.altered_carbon::js::ACLexNumberToken"*) unnamed_addr #0 align 2 !dbg !5018 {
  %2 = alloca %"class.altered_carbon::js::ACLexNumberToken"*, align 8
  store %"class.altered_carbon::js::ACLexNumberToken"* %0, %"class.altered_carbon::js::ACLexNumberToken"** %2, align 8
  call void @llvm.dbg.declare(metadata %"class.altered_carbon::js::ACLexNumberToken"** %2, metadata !5019, metadata !DIExpression()), !dbg !5021
  %3 = load %"class.altered_carbon::js::ACLexNumberToken"*, %"class.altered_carbon::js::ACLexNumberToken"** %2, align 8
  %4 = bitcast %"class.altered_carbon::js::ACLexNumberToken"* %3 to %"class.altered_carbon::js::ACLexToken"*, !dbg !5022
  call void @_ZN14altered_carbon2js10ACLexTokenC2ENS0_14ACLexTokenTypeE(%"class.altered_carbon::js::ACLexToken"* %4, i32 4), !dbg !5023
  %5 = bitcast %"class.altered_carbon::js::ACLexNumberToken"* %3 to i32 (...)***, !dbg !5022
  store i32 (...)** bitcast (i8** getelementptr inbounds ({ [7 x i8*] }, { [7 x i8*] }* @_ZTVN14altered_carbon2js16ACLexNumberTokenE, i32 0, inrange i32 0, i32 2) to i32 (...)**), i32 (...)*** %5, align 8, !dbg !5022
  %6 = getelementptr inbounds %"class.altered_carbon::js::ACLexNumberToken", %"class.altered_carbon::js::ACLexNumberToken"* %3, i32 0, i32 1, !dbg !5024
  call void @_ZN14altered_carbon2js11ACLexNumberC1Ev(%"class.altered_carbon::js::ACLexNumber"* %6), !dbg !5024
  ret void, !dbg !5025
}

declare void @_ZN14altered_carbon2js11ACLexNumberC1Ev(%"class.altered_carbon::js::ACLexNumber"*) unnamed_addr #2

; Function Attrs: noinline nounwind optnone ssp uwtable
define void @_ZN14altered_carbon2js16ACLexNumberTokenC1Ev(%"class.altered_carbon::js::ACLexNumberToken"*) unnamed_addr #0 align 2 !dbg !5026 {
  %2 = alloca %"class.altered_carbon::js::ACLexNumberToken"*, align 8
  store %"class.altered_carbon::js::ACLexNumberToken"* %0, %"class.altered_carbon::js::ACLexNumberToken"** %2, align 8
  call void @llvm.dbg.declare(metadata %"class.altered_carbon::js::ACLexNumberToken"** %2, metadata !5027, metadata !DIExpression()), !dbg !5028
  %3 = load %"class.altered_carbon::js::ACLexNumberToken"*, %"class.altered_carbon::js::ACLexNumberToken"** %2, align 8
  call void @_ZN14altered_carbon2js16ACLexNumberTokenC2Ev(%"class.altered_carbon::js::ACLexNumberToken"* %3), !dbg !5029
  ret void, !dbg !5030
}

; Function Attrs: noinline nounwind optnone ssp uwtable
define void @_ZN14altered_carbon2js16ACLexNumberTokenC2EmNSt3__117basic_string_viewIcNS2_11char_traitsIcEEEERNS0_13ACLexPositionExNS1_10NumberBaseE(%"class.altered_carbon::js::ACLexNumberToken"*, i64, i8*, i64, %"struct.altered_carbon::js::ACLexPosition"* dereferenceable(32), i64, i32) unnamed_addr #0 align 2 !dbg !5031 {
  %8 = alloca %"class.std::__1::basic_string_view", align 8
  %9 = alloca %"class.altered_carbon::js::ACLexNumberToken"*, align 8
  %10 = alloca i64, align 8
  %11 = alloca %"struct.altered_carbon::js::ACLexPosition"*, align 8
  %12 = alloca i64, align 8
  %13 = alloca i32, align 4
  %14 = alloca %"class.std::__1::basic_string_view", align 8
  %15 = bitcast %"class.std::__1::basic_string_view"* %8 to { i8*, i64 }*
  %16 = getelementptr inbounds { i8*, i64 }, { i8*, i64 }* %15, i32 0, i32 0
  store i8* %2, i8** %16, align 8
  %17 = getelementptr inbounds { i8*, i64 }, { i8*, i64 }* %15, i32 0, i32 1
  store i64 %3, i64* %17, align 8
  store %"class.altered_carbon::js::ACLexNumberToken"* %0, %"class.altered_carbon::js::ACLexNumberToken"** %9, align 8
  call void @llvm.dbg.declare(metadata %"class.altered_carbon::js::ACLexNumberToken"** %9, metadata !5032, metadata !DIExpression()), !dbg !5033
  store i64 %1, i64* %10, align 8
  call void @llvm.dbg.declare(metadata i64* %10, metadata !5034, metadata !DIExpression()), !dbg !5035
  call void @llvm.dbg.declare(metadata %"class.std::__1::basic_string_view"* %8, metadata !5036, metadata !DIExpression()), !dbg !5037
  store %"struct.altered_carbon::js::ACLexPosition"* %4, %"struct.altered_carbon::js::ACLexPosition"** %11, align 8
  call void @llvm.dbg.declare(metadata %"struct.altered_carbon::js::ACLexPosition"** %11, metadata !5038, metadata !DIExpression()), !dbg !5039
  store i64 %5, i64* %12, align 8
  call void @llvm.dbg.declare(metadata i64* %12, metadata !5040, metadata !DIExpression()), !dbg !5041
  store i32 %6, i32* %13, align 4
  call void @llvm.dbg.declare(metadata i32* %13, metadata !5042, metadata !DIExpression()), !dbg !5043
  %18 = load %"class.altered_carbon::js::ACLexNumberToken"*, %"class.altered_carbon::js::ACLexNumberToken"** %9, align 8
  %19 = bitcast %"class.altered_carbon::js::ACLexNumberToken"* %18 to %"class.altered_carbon::js::ACLexToken"*, !dbg !5044
  %20 = load i64, i64* %10, align 8, !dbg !5045
  %21 = bitcast %"class.std::__1::basic_string_view"* %14 to i8*, !dbg !5046
  %22 = bitcast %"class.std::__1::basic_string_view"* %8 to i8*, !dbg !5046
  call void @llvm.memcpy.p0i8.p0i8.i64(i8* align 8 %21, i8* align 8 %22, i64 16, i1 false), !dbg !5046
  %23 = load %"struct.altered_carbon::js::ACLexPosition"*, %"struct.altered_carbon::js::ACLexPosition"** %11, align 8, !dbg !5047
  %24 = bitcast %"class.std::__1::basic_string_view"* %14 to { i8*, i64 }*, !dbg !5048
  %25 = getelementptr inbounds { i8*, i64 }, { i8*, i64 }* %24, i32 0, i32 0, !dbg !5048
  %26 = load i8*, i8** %25, align 8, !dbg !5048
  %27 = getelementptr inbounds { i8*, i64 }, { i8*, i64 }* %24, i32 0, i32 1, !dbg !5048
  %28 = load i64, i64* %27, align 8, !dbg !5048
  call void @_ZN14altered_carbon2js10ACLexTokenC2ENS0_14ACLexTokenTypeEmNSt3__117basic_string_viewIcNS3_11char_traitsIcEEEERNS0_13ACLexPositionE(%"class.altered_carbon::js::ACLexToken"* %19, i32 4, i64 %20, i8* %26, i64 %28, %"struct.altered_carbon::js::ACLexPosition"* dereferenceable(32) %23), !dbg !5048
  %29 = bitcast %"class.altered_carbon::js::ACLexNumberToken"* %18 to i32 (...)***, !dbg !5044
  store i32 (...)** bitcast (i8** getelementptr inbounds ({ [7 x i8*] }, { [7 x i8*] }* @_ZTVN14altered_carbon2js16ACLexNumberTokenE, i32 0, inrange i32 0, i32 2) to i32 (...)**), i32 (...)*** %29, align 8, !dbg !5044
  %30 = getelementptr inbounds %"class.altered_carbon::js::ACLexNumberToken", %"class.altered_carbon::js::ACLexNumberToken"* %18, i32 0, i32 1, !dbg !5049
  %31 = load i64, i64* %12, align 8, !dbg !5050
  call void @_ZN14altered_carbon2js11ACLexNumberC1Ex(%"class.altered_carbon::js::ACLexNumber"* %30, i64 %31), !dbg !5049
  %32 = getelementptr inbounds %"class.altered_carbon::js::ACLexNumberToken", %"class.altered_carbon::js::ACLexNumberToken"* %18, i32 0, i32 2, !dbg !5051
  %33 = load i32, i32* %13, align 4, !dbg !5052
  store i32 %33, i32* %32, align 8, !dbg !5051
  ret void, !dbg !5053
}

declare void @_ZN14altered_carbon2js11ACLexNumberC1Ex(%"class.altered_carbon::js::ACLexNumber"*, i64) unnamed_addr #2

; Function Attrs: noinline nounwind optnone ssp uwtable
define void @_ZN14altered_carbon2js16ACLexNumberTokenC1EmNSt3__117basic_string_viewIcNS2_11char_traitsIcEEEERNS0_13ACLexPositionExNS1_10NumberBaseE(%"class.altered_carbon::js::ACLexNumberToken"*, i64, i8*, i64, %"struct.altered_carbon::js::ACLexPosition"* dereferenceable(32), i64, i32) unnamed_addr #0 align 2 !dbg !5054 {
  %8 = alloca %"class.std::__1::basic_string_view", align 8
  %9 = alloca %"class.altered_carbon::js::ACLexNumberToken"*, align 8
  %10 = alloca i64, align 8
  %11 = alloca %"struct.altered_carbon::js::ACLexPosition"*, align 8
  %12 = alloca i64, align 8
  %13 = alloca i32, align 4
  %14 = bitcast %"class.std::__1::basic_string_view"* %8 to { i8*, i64 }*
  %15 = getelementptr inbounds { i8*, i64 }, { i8*, i64 }* %14, i32 0, i32 0
  store i8* %2, i8** %15, align 8
  %16 = getelementptr inbounds { i8*, i64 }, { i8*, i64 }* %14, i32 0, i32 1
  store i64 %3, i64* %16, align 8
  store %"class.altered_carbon::js::ACLexNumberToken"* %0, %"class.altered_carbon::js::ACLexNumberToken"** %9, align 8
  call void @llvm.dbg.declare(metadata %"class.altered_carbon::js::ACLexNumberToken"** %9, metadata !5055, metadata !DIExpression()), !dbg !5056
  store i64 %1, i64* %10, align 8
  call void @llvm.dbg.declare(metadata i64* %10, metadata !5057, metadata !DIExpression()), !dbg !5058
  call void @llvm.dbg.declare(metadata %"class.std::__1::basic_string_view"* %8, metadata !5059, metadata !DIExpression()), !dbg !5060
  store %"struct.altered_carbon::js::ACLexPosition"* %4, %"struct.altered_carbon::js::ACLexPosition"** %11, align 8
  call void @llvm.dbg.declare(metadata %"struct.altered_carbon::js::ACLexPosition"** %11, metadata !5061, metadata !DIExpression()), !dbg !5062
  store i64 %5, i64* %12, align 8
  call void @llvm.dbg.declare(metadata i64* %12, metadata !5063, metadata !DIExpression()), !dbg !5064
  store i32 %6, i32* %13, align 4
  call void @llvm.dbg.declare(metadata i32* %13, metadata !5065, metadata !DIExpression()), !dbg !5066
  %17 = load %"class.altered_carbon::js::ACLexNumberToken"*, %"class.altered_carbon::js::ACLexNumberToken"** %9, align 8
  %18 = load i64, i64* %10, align 8, !dbg !5067
  %19 = load %"struct.altered_carbon::js::ACLexPosition"*, %"struct.altered_carbon::js::ACLexPosition"** %11, align 8, !dbg !5067
  %20 = load i64, i64* %12, align 8, !dbg !5067
  %21 = load i32, i32* %13, align 4, !dbg !5067
  %22 = bitcast %"class.std::__1::basic_string_view"* %8 to { i8*, i64 }*, !dbg !5067
  %23 = getelementptr inbounds { i8*, i64 }, { i8*, i64 }* %22, i32 0, i32 0, !dbg !5067
  %24 = load i8*, i8** %23, align 8, !dbg !5067
  %25 = getelementptr inbounds { i8*, i64 }, { i8*, i64 }* %22, i32 0, i32 1, !dbg !5067
  %26 = load i64, i64* %25, align 8, !dbg !5067
  call void @_ZN14altered_carbon2js16ACLexNumberTokenC2EmNSt3__117basic_string_viewIcNS2_11char_traitsIcEEEERNS0_13ACLexPositionExNS1_10NumberBaseE(%"class.altered_carbon::js::ACLexNumberToken"* %17, i64 %18, i8* %24, i64 %26, %"struct.altered_carbon::js::ACLexPosition"* dereferenceable(32) %19, i64 %20, i32 %21), !dbg !5067
  ret void, !dbg !5068
}

; Function Attrs: noinline nounwind optnone ssp uwtable
define void @_ZN14altered_carbon2js16ACLexNumberTokenC2EmNSt3__117basic_string_viewIcNS2_11char_traitsIcEEEERNS0_13ACLexPositionEd(%"class.altered_carbon::js::ACLexNumberToken"*, i64, i8*, i64, %"struct.altered_carbon::js::ACLexPosition"* dereferenceable(32), double) unnamed_addr #0 align 2 !dbg !5069 {
  %7 = alloca %"class.std::__1::basic_string_view", align 8
  %8 = alloca %"class.altered_carbon::js::ACLexNumberToken"*, align 8
  %9 = alloca i64, align 8
  %10 = alloca %"struct.altered_carbon::js::ACLexPosition"*, align 8
  %11 = alloca double, align 8
  %12 = alloca %"class.std::__1::basic_string_view", align 8
  %13 = bitcast %"class.std::__1::basic_string_view"* %7 to { i8*, i64 }*
  %14 = getelementptr inbounds { i8*, i64 }, { i8*, i64 }* %13, i32 0, i32 0
  store i8* %2, i8** %14, align 8
  %15 = getelementptr inbounds { i8*, i64 }, { i8*, i64 }* %13, i32 0, i32 1
  store i64 %3, i64* %15, align 8
  store %"class.altered_carbon::js::ACLexNumberToken"* %0, %"class.altered_carbon::js::ACLexNumberToken"** %8, align 8
  call void @llvm.dbg.declare(metadata %"class.altered_carbon::js::ACLexNumberToken"** %8, metadata !5070, metadata !DIExpression()), !dbg !5071
  store i64 %1, i64* %9, align 8
  call void @llvm.dbg.declare(metadata i64* %9, metadata !5072, metadata !DIExpression()), !dbg !5073
  call void @llvm.dbg.declare(metadata %"class.std::__1::basic_string_view"* %7, metadata !5074, metadata !DIExpression()), !dbg !5075
  store %"struct.altered_carbon::js::ACLexPosition"* %4, %"struct.altered_carbon::js::ACLexPosition"** %10, align 8
  call void @llvm.dbg.declare(metadata %"struct.altered_carbon::js::ACLexPosition"** %10, metadata !5076, metadata !DIExpression()), !dbg !5077
  store double %5, double* %11, align 8
  call void @llvm.dbg.declare(metadata double* %11, metadata !5078, metadata !DIExpression()), !dbg !5079
  %16 = load %"class.altered_carbon::js::ACLexNumberToken"*, %"class.altered_carbon::js::ACLexNumberToken"** %8, align 8
  %17 = bitcast %"class.altered_carbon::js::ACLexNumberToken"* %16 to %"class.altered_carbon::js::ACLexToken"*, !dbg !5080
  %18 = load i64, i64* %9, align 8, !dbg !5081
  %19 = bitcast %"class.std::__1::basic_string_view"* %12 to i8*, !dbg !5082
  %20 = bitcast %"class.std::__1::basic_string_view"* %7 to i8*, !dbg !5082
  call void @llvm.memcpy.p0i8.p0i8.i64(i8* align 8 %19, i8* align 8 %20, i64 16, i1 false), !dbg !5082
  %21 = load %"struct.altered_carbon::js::ACLexPosition"*, %"struct.altered_carbon::js::ACLexPosition"** %10, align 8, !dbg !5083
  %22 = bitcast %"class.std::__1::basic_string_view"* %12 to { i8*, i64 }*, !dbg !5084
  %23 = getelementptr inbounds { i8*, i64 }, { i8*, i64 }* %22, i32 0, i32 0, !dbg !5084
  %24 = load i8*, i8** %23, align 8, !dbg !5084
  %25 = getelementptr inbounds { i8*, i64 }, { i8*, i64 }* %22, i32 0, i32 1, !dbg !5084
  %26 = load i64, i64* %25, align 8, !dbg !5084
  call void @_ZN14altered_carbon2js10ACLexTokenC2ENS0_14ACLexTokenTypeEmNSt3__117basic_string_viewIcNS3_11char_traitsIcEEEERNS0_13ACLexPositionE(%"class.altered_carbon::js::ACLexToken"* %17, i32 4, i64 %18, i8* %24, i64 %26, %"struct.altered_carbon::js::ACLexPosition"* dereferenceable(32) %21), !dbg !5084
  %27 = bitcast %"class.altered_carbon::js::ACLexNumberToken"* %16 to i32 (...)***, !dbg !5080
  store i32 (...)** bitcast (i8** getelementptr inbounds ({ [7 x i8*] }, { [7 x i8*] }* @_ZTVN14altered_carbon2js16ACLexNumberTokenE, i32 0, inrange i32 0, i32 2) to i32 (...)**), i32 (...)*** %27, align 8, !dbg !5080
  %28 = getelementptr inbounds %"class.altered_carbon::js::ACLexNumberToken", %"class.altered_carbon::js::ACLexNumberToken"* %16, i32 0, i32 1, !dbg !5085
  %29 = load double, double* %11, align 8, !dbg !5086
  call void @_ZN14altered_carbon2js11ACLexNumberC1Ed(%"class.altered_carbon::js::ACLexNumber"* %28, double %29), !dbg !5085
  %30 = getelementptr inbounds %"class.altered_carbon::js::ACLexNumberToken", %"class.altered_carbon::js::ACLexNumberToken"* %16, i32 0, i32 2, !dbg !5087
  store i32 10, i32* %30, align 8, !dbg !5087
  ret void, !dbg !5088
}

declare void @_ZN14altered_carbon2js11ACLexNumberC1Ed(%"class.altered_carbon::js::ACLexNumber"*, double) unnamed_addr #2

; Function Attrs: noinline nounwind optnone ssp uwtable
define void @_ZN14altered_carbon2js16ACLexNumberTokenC1EmNSt3__117basic_string_viewIcNS2_11char_traitsIcEEEERNS0_13ACLexPositionEd(%"class.altered_carbon::js::ACLexNumberToken"*, i64, i8*, i64, %"struct.altered_carbon::js::ACLexPosition"* dereferenceable(32), double) unnamed_addr #0 align 2 !dbg !5089 {
  %7 = alloca %"class.std::__1::basic_string_view", align 8
  %8 = alloca %"class.altered_carbon::js::ACLexNumberToken"*, align 8
  %9 = alloca i64, align 8
  %10 = alloca %"struct.altered_carbon::js::ACLexPosition"*, align 8
  %11 = alloca double, align 8
  %12 = bitcast %"class.std::__1::basic_string_view"* %7 to { i8*, i64 }*
  %13 = getelementptr inbounds { i8*, i64 }, { i8*, i64 }* %12, i32 0, i32 0
  store i8* %2, i8** %13, align 8
  %14 = getelementptr inbounds { i8*, i64 }, { i8*, i64 }* %12, i32 0, i32 1
  store i64 %3, i64* %14, align 8
  store %"class.altered_carbon::js::ACLexNumberToken"* %0, %"class.altered_carbon::js::ACLexNumberToken"** %8, align 8
  call void @llvm.dbg.declare(metadata %"class.altered_carbon::js::ACLexNumberToken"** %8, metadata !5090, metadata !DIExpression()), !dbg !5091
  store i64 %1, i64* %9, align 8
  call void @llvm.dbg.declare(metadata i64* %9, metadata !5092, metadata !DIExpression()), !dbg !5093
  call void @llvm.dbg.declare(metadata %"class.std::__1::basic_string_view"* %7, metadata !5094, metadata !DIExpression()), !dbg !5095
  store %"struct.altered_carbon::js::ACLexPosition"* %4, %"struct.altered_carbon::js::ACLexPosition"** %10, align 8
  call void @llvm.dbg.declare(metadata %"struct.altered_carbon::js::ACLexPosition"** %10, metadata !5096, metadata !DIExpression()), !dbg !5097
  store double %5, double* %11, align 8
  call void @llvm.dbg.declare(metadata double* %11, metadata !5098, metadata !DIExpression()), !dbg !5099
  %15 = load %"class.altered_carbon::js::ACLexNumberToken"*, %"class.altered_carbon::js::ACLexNumberToken"** %8, align 8
  %16 = load i64, i64* %9, align 8, !dbg !5100
  %17 = load %"struct.altered_carbon::js::ACLexPosition"*, %"struct.altered_carbon::js::ACLexPosition"** %10, align 8, !dbg !5100
  %18 = load double, double* %11, align 8, !dbg !5100
  %19 = bitcast %"class.std::__1::basic_string_view"* %7 to { i8*, i64 }*, !dbg !5100
  %20 = getelementptr inbounds { i8*, i64 }, { i8*, i64 }* %19, i32 0, i32 0, !dbg !5100
  %21 = load i8*, i8** %20, align 8, !dbg !5100
  %22 = getelementptr inbounds { i8*, i64 }, { i8*, i64 }* %19, i32 0, i32 1, !dbg !5100
  %23 = load i64, i64* %22, align 8, !dbg !5100
  call void @_ZN14altered_carbon2js16ACLexNumberTokenC2EmNSt3__117basic_string_viewIcNS2_11char_traitsIcEEEERNS0_13ACLexPositionEd(%"class.altered_carbon::js::ACLexNumberToken"* %15, i64 %16, i8* %21, i64 %23, %"struct.altered_carbon::js::ACLexPosition"* dereferenceable(32) %17, double %18), !dbg !5100
  ret void, !dbg !5101
}

; Function Attrs: noinline nounwind optnone ssp uwtable
define void @_ZNK14altered_carbon2js16ACLexNumberToken4dumpERNSt3__113basic_ostreamIcNS2_11char_traitsIcEEEE(%"class.altered_carbon::js::ACLexNumberToken"*, %"class.std::__1::basic_ostream"* dereferenceable(160)) unnamed_addr #0 align 2 !dbg !5102 {
  %3 = alloca %"class.altered_carbon::js::ACLexNumberToken"*, align 8
  %4 = alloca %"class.std::__1::basic_ostream"*, align 8
  %5 = alloca %"class.std::__1::basic_string_view", align 8
  store %"class.altered_carbon::js::ACLexNumberToken"* %0, %"class.altered_carbon::js::ACLexNumberToken"** %3, align 8
  call void @llvm.dbg.declare(metadata %"class.altered_carbon::js::ACLexNumberToken"** %3, metadata !5103, metadata !DIExpression()), !dbg !5105
  store %"class.std::__1::basic_ostream"* %1, %"class.std::__1::basic_ostream"** %4, align 8
  call void @llvm.dbg.declare(metadata %"class.std::__1::basic_ostream"** %4, metadata !5106, metadata !DIExpression()), !dbg !5107
  %6 = load %"class.altered_carbon::js::ACLexNumberToken"*, %"class.altered_carbon::js::ACLexNumberToken"** %3, align 8
  %7 = load %"class.std::__1::basic_ostream"*, %"class.std::__1::basic_ostream"** %4, align 8, !dbg !5108
  %8 = call dereferenceable(160) %"class.std::__1::basic_ostream"* @_ZNSt3__1lsINS_11char_traitsIcEEEERNS_13basic_ostreamIcT_EES6_PKc(%"class.std::__1::basic_ostream"* dereferenceable(160) %7, i8* getelementptr inbounds ([7 x i8], [7 x i8]* @.str.127, i32 0, i32 0)), !dbg !5109
  %9 = bitcast %"class.altered_carbon::js::ACLexNumberToken"* %6 to %"class.altered_carbon::js::ACLexToken"*, !dbg !5110
  %10 = getelementptr inbounds %"class.altered_carbon::js::ACLexToken", %"class.altered_carbon::js::ACLexToken"* %9, i32 0, i32 1, !dbg !5110
  %11 = load i32, i32* %10, align 8, !dbg !5110
  %12 = call dereferenceable(160) %"class.std::__1::basic_ostream"* @_ZNSt3__113basic_ostreamIcNS_11char_traitsIcEEElsEi(%"class.std::__1::basic_ostream"* %8, i32 %11), !dbg !5111
  %13 = call dereferenceable(160) %"class.std::__1::basic_ostream"* @_ZNSt3__1lsINS_11char_traitsIcEEEERNS_13basic_ostreamIcT_EES6_PKc(%"class.std::__1::basic_ostream"* dereferenceable(160) %12, i8* getelementptr inbounds ([3 x i8], [3 x i8]* @.str.128, i32 0, i32 0)), !dbg !5112
  %14 = bitcast %"class.altered_carbon::js::ACLexNumberToken"* %6 to %"class.altered_carbon::js::ACLexToken"*, !dbg !5113
  %15 = getelementptr inbounds %"class.altered_carbon::js::ACLexToken", %"class.altered_carbon::js::ACLexToken"* %14, i32 0, i32 1, !dbg !5113
  %16 = load i32, i32* %15, align 8, !dbg !5113
  %17 = zext i32 %16 to i64, !dbg !5114
  %18 = getelementptr inbounds [258 x i8*], [258 x i8*]* @_ZN14altered_carbon2js10ACLexToken11TOKEN_NAMESE, i64 0, i64 %17, !dbg !5114
  %19 = load i8*, i8** %18, align 8, !dbg !5114
  %20 = call dereferenceable(160) %"class.std::__1::basic_ostream"* @_ZNSt3__1lsINS_11char_traitsIcEEEERNS_13basic_ostreamIcT_EES6_PKc(%"class.std::__1::basic_ostream"* dereferenceable(160) %13, i8* %19), !dbg !5115
  %21 = call dereferenceable(160) %"class.std::__1::basic_ostream"* @_ZNSt3__1lsINS_11char_traitsIcEEEERNS_13basic_ostreamIcT_EES6_PKc(%"class.std::__1::basic_ostream"* dereferenceable(160) %20, i8* getelementptr inbounds ([7 x i8], [7 x i8]* @.str.129, i32 0, i32 0)), !dbg !5116
  %22 = bitcast %"class.altered_carbon::js::ACLexNumberToken"* %6 to %"class.altered_carbon::js::ACLexToken"*, !dbg !5117
  %23 = getelementptr inbounds %"class.altered_carbon::js::ACLexToken", %"class.altered_carbon::js::ACLexToken"* %22, i32 0, i32 4, !dbg !5117
  %24 = call dereferenceable(160) %"class.std::__1::basic_ostream"* @_ZN14altered_carbon2jslsERNSt3__113basic_ostreamIcNS1_11char_traitsIcEEEERKNS0_13ACLexPositionE(%"class.std::__1::basic_ostream"* dereferenceable(160) %21, %"struct.altered_carbon::js::ACLexPosition"* dereferenceable(32) %23), !dbg !5118
  %25 = call dereferenceable(160) %"class.std::__1::basic_ostream"* @_ZNSt3__1lsINS_11char_traitsIcEEEERNS_13basic_ostreamIcT_EES6_PKc(%"class.std::__1::basic_ostream"* dereferenceable(160) %24, i8* getelementptr inbounds ([7 x i8], [7 x i8]* @.str.130, i32 0, i32 0)), !dbg !5119
  %26 = bitcast %"class.altered_carbon::js::ACLexNumberToken"* %6 to %"class.altered_carbon::js::ACLexToken"*, !dbg !5120
  %27 = getelementptr inbounds %"class.altered_carbon::js::ACLexToken", %"class.altered_carbon::js::ACLexToken"* %26, i32 0, i32 2, !dbg !5120
  %28 = load i64, i64* %27, align 8, !dbg !5120
  %29 = call dereferenceable(160) %"class.std::__1::basic_ostream"* @_ZNSt3__113basic_ostreamIcNS_11char_traitsIcEEElsEm(%"class.std::__1::basic_ostream"* %25, i64 %28), !dbg !5121
  %30 = call dereferenceable(160) %"class.std::__1::basic_ostream"* @_ZNSt3__1lsINS_11char_traitsIcEEEERNS_13basic_ostreamIcT_EES6_PKc(%"class.std::__1::basic_ostream"* dereferenceable(160) %29, i8* getelementptr inbounds ([4 x i8], [4 x i8]* @.str.131, i32 0, i32 0)), !dbg !5122
  %31 = bitcast %"class.altered_carbon::js::ACLexNumberToken"* %6 to %"class.altered_carbon::js::ACLexToken"*, !dbg !5123
  %32 = getelementptr inbounds %"class.altered_carbon::js::ACLexToken", %"class.altered_carbon::js::ACLexToken"* %31, i32 0, i32 3, !dbg !5123
  %33 = bitcast %"class.std::__1::basic_string_view"* %5 to i8*, !dbg !5123
  %34 = bitcast %"class.std::__1::basic_string_view"* %32 to i8*, !dbg !5123
  call void @llvm.memcpy.p0i8.p0i8.i64(i8* align 8 %33, i8* align 8 %34, i64 16, i1 false), !dbg !5123
  %35 = bitcast %"class.std::__1::basic_string_view"* %5 to { i8*, i64 }*, !dbg !5124
  %36 = getelementptr inbounds { i8*, i64 }, { i8*, i64 }* %35, i32 0, i32 0, !dbg !5124
  %37 = load i8*, i8** %36, align 8, !dbg !5124
  %38 = getelementptr inbounds { i8*, i64 }, { i8*, i64 }* %35, i32 0, i32 1, !dbg !5124
  %39 = load i64, i64* %38, align 8, !dbg !5124
  %40 = call dereferenceable(160) %"class.std::__1::basic_ostream"* @_ZNSt3__1lsIcNS_11char_traitsIcEEEERNS_13basic_ostreamIT_T0_EES7_NS_17basic_string_viewIS4_S5_EE(%"class.std::__1::basic_ostream"* dereferenceable(160) %30, i8* %37, i64 %39), !dbg !5124
  %41 = call dereferenceable(160) %"class.std::__1::basic_ostream"* @_ZNSt3__1lsINS_11char_traitsIcEEEERNS_13basic_ostreamIcT_EES6_PKc(%"class.std::__1::basic_ostream"* dereferenceable(160) %40, i8* getelementptr inbounds ([2 x i8], [2 x i8]* @.str.132, i32 0, i32 0)), !dbg !5125
  %42 = call dereferenceable(160) %"class.std::__1::basic_ostream"* @_ZNSt3__1lsINS_11char_traitsIcEEEERNS_13basic_ostreamIcT_EES6_PKc(%"class.std::__1::basic_ostream"* dereferenceable(160) %41, i8* getelementptr inbounds ([16 x i8], [16 x i8]* @.str.142, i32 0, i32 0)), !dbg !5126
  %43 = getelementptr inbounds %"class.altered_carbon::js::ACLexNumberToken", %"class.altered_carbon::js::ACLexNumberToken"* %6, i32 0, i32 1, !dbg !5127
  %44 = call dereferenceable(160) %"class.std::__1::basic_ostream"* @_ZN14altered_carbon2jslsERNSt3__113basic_ostreamIcNS1_11char_traitsIcEEEERKNS0_11ACLexNumberE(%"class.std::__1::basic_ostream"* dereferenceable(160) %42, %"class.altered_carbon::js::ACLexNumber"* dereferenceable(24) %43), !dbg !5128
  %45 = getelementptr inbounds %"class.altered_carbon::js::ACLexNumberToken", %"class.altered_carbon::js::ACLexNumberToken"* %6, i32 0, i32 1, !dbg !5129
  %46 = call zeroext i1 @_ZNK14altered_carbon2js11ACLexNumber9isIntegerEv(%"class.altered_carbon::js::ACLexNumber"* %45), !dbg !5131
  br i1 %46, label %47, label %54, !dbg !5132

; <label>:47:                                     ; preds = %2
  %48 = load %"class.std::__1::basic_ostream"*, %"class.std::__1::basic_ostream"** %4, align 8, !dbg !5133
  %49 = call dereferenceable(160) %"class.std::__1::basic_ostream"* @_ZNSt3__1lsINS_11char_traitsIcEEEERNS_13basic_ostreamIcT_EES6_PKc(%"class.std::__1::basic_ostream"* dereferenceable(160) %48, i8* getelementptr inbounds ([8 x i8], [8 x i8]* @.str.143, i32 0, i32 0)), !dbg !5135
  %50 = getelementptr inbounds %"class.altered_carbon::js::ACLexNumberToken", %"class.altered_carbon::js::ACLexNumberToken"* %6, i32 0, i32 2, !dbg !5136
  %51 = load i32, i32* %50, align 8, !dbg !5136
  %52 = call dereferenceable(160) %"class.std::__1::basic_ostream"* @_ZNSt3__113basic_ostreamIcNS_11char_traitsIcEEElsEi(%"class.std::__1::basic_ostream"* %49, i32 %51), !dbg !5137
  %53 = call dereferenceable(160) %"class.std::__1::basic_ostream"* @_ZNSt3__1lsINS_11char_traitsIcEEEERNS_13basic_ostreamIcT_EES6_PKc(%"class.std::__1::basic_ostream"* dereferenceable(160) %52, i8* getelementptr inbounds ([2 x i8], [2 x i8]* @.str.135, i32 0, i32 0)), !dbg !5138
  br label %54, !dbg !5139

; <label>:54:                                     ; preds = %47, %2
  %55 = load %"class.std::__1::basic_ostream"*, %"class.std::__1::basic_ostream"** %4, align 8, !dbg !5140
  %56 = call dereferenceable(160) %"class.std::__1::basic_ostream"* @_ZNSt3__1lsINS_11char_traitsIcEEEERNS_13basic_ostreamIcT_EES6_PKc(%"class.std::__1::basic_ostream"* dereferenceable(160) %55, i8* getelementptr inbounds ([3 x i8], [3 x i8]* @.str.136, i32 0, i32 0)), !dbg !5141
  ret void, !dbg !5142
}

declare dereferenceable(160) %"class.std::__1::basic_ostream"* @_ZN14altered_carbon2jslsERNSt3__113basic_ostreamIcNS1_11char_traitsIcEEEERKNS0_11ACLexNumberE(%"class.std::__1::basic_ostream"* dereferenceable(160), %"class.altered_carbon::js::ACLexNumber"* dereferenceable(24)) #2

; Function Attrs: noinline nounwind optnone ssp uwtable
define linkonce_odr hidden zeroext i1 @_ZNK14altered_carbon2js11ACLexNumber9isIntegerEv(%"class.altered_carbon::js::ACLexNumber"*) #0 align 2 !dbg !5143 {
  %2 = alloca %"class.altered_carbon::js::ACLexNumber"*, align 8
  store %"class.altered_carbon::js::ACLexNumber"* %0, %"class.altered_carbon::js::ACLexNumber"** %2, align 8
  call void @llvm.dbg.declare(metadata %"class.altered_carbon::js::ACLexNumber"** %2, metadata !5144, metadata !DIExpression()), !dbg !5146
  %3 = load %"class.altered_carbon::js::ACLexNumber"*, %"class.altered_carbon::js::ACLexNumber"** %2, align 8
  %4 = getelementptr inbounds %"class.altered_carbon::js::ACLexNumber", %"class.altered_carbon::js::ACLexNumber"* %3, i32 0, i32 1, !dbg !5147
  %5 = load i8, i8* %4, align 8, !dbg !5147
  %6 = trunc i8 %5 to i1, !dbg !5147
  ret i1 %6, !dbg !5148
}

; Function Attrs: noinline nounwind optnone ssp uwtable
define void @_ZN14altered_carbon2js15ACLexRegexTokenC2Ev(%"class.altered_carbon::js::ACLexRegexToken"*) unnamed_addr #0 align 2 !dbg !5149 {
  %2 = alloca %"class.altered_carbon::js::ACLexRegex"**, align 8
  call void @llvm.dbg.declare(metadata %"class.altered_carbon::js::ACLexRegex"*** %2, metadata !5170, metadata !DIExpression()), !dbg !5179
  %3 = alloca %"struct.std::__1::__compressed_pair_elem.4"*, align 8
  call void @llvm.dbg.declare(metadata %"struct.std::__1::__compressed_pair_elem.4"** %3, metadata !5201, metadata !DIExpression()), !dbg !5203
  %4 = alloca %"class.altered_carbon::js::ACLexRegex"**, align 8
  call void @llvm.dbg.declare(metadata %"class.altered_carbon::js::ACLexRegex"*** %4, metadata !5204, metadata !DIExpression()), !dbg !5205
  %5 = alloca %"class.altered_carbon::js::ACLexRegex"**, align 8
  call void @llvm.dbg.declare(metadata %"class.altered_carbon::js::ACLexRegex"*** %5, metadata !5170, metadata !DIExpression()), !dbg !5206
  %6 = alloca %"class.std::__1::__compressed_pair.3"*, align 8
  call void @llvm.dbg.declare(metadata %"class.std::__1::__compressed_pair.3"** %6, metadata !5208, metadata !DIExpression()), !dbg !5210
  %7 = alloca %"class.altered_carbon::js::ACLexRegex"**, align 8
  call void @llvm.dbg.declare(metadata %"class.altered_carbon::js::ACLexRegex"*** %7, metadata !5211, metadata !DIExpression()), !dbg !5212
  %8 = alloca %"class.std::__1::__compressed_pair.3"*, align 8
  call void @llvm.dbg.declare(metadata %"class.std::__1::__compressed_pair.3"** %8, metadata !5213, metadata !DIExpression()), !dbg !5214
  %9 = alloca %"class.altered_carbon::js::ACLexRegex"**, align 8
  call void @llvm.dbg.declare(metadata %"class.altered_carbon::js::ACLexRegex"*** %9, metadata !5215, metadata !DIExpression()), !dbg !5216
  %10 = alloca %"class.std::__1::unique_ptr"*, align 8
  call void @llvm.dbg.declare(metadata %"class.std::__1::unique_ptr"** %10, metadata !5217, metadata !DIExpression()), !dbg !5219
  %11 = alloca %"class.altered_carbon::js::ACLexRegex"*, align 8
  %12 = alloca %"class.std::__1::unique_ptr"*, align 8
  call void @llvm.dbg.declare(metadata %"class.std::__1::unique_ptr"** %12, metadata !5220, metadata !DIExpression()), !dbg !5221
  %13 = alloca %"class.altered_carbon::js::ACLexRegexToken"*, align 8
  store %"class.altered_carbon::js::ACLexRegexToken"* %0, %"class.altered_carbon::js::ACLexRegexToken"** %13, align 8
  call void @llvm.dbg.declare(metadata %"class.altered_carbon::js::ACLexRegexToken"** %13, metadata !5222, metadata !DIExpression()), !dbg !5224
  %14 = load %"class.altered_carbon::js::ACLexRegexToken"*, %"class.altered_carbon::js::ACLexRegexToken"** %13, align 8
  %15 = bitcast %"class.altered_carbon::js::ACLexRegexToken"* %14 to %"class.altered_carbon::js::ACLexToken"*, !dbg !5225
  call void @_ZN14altered_carbon2js10ACLexTokenC2ENS0_14ACLexTokenTypeE(%"class.altered_carbon::js::ACLexToken"* %15, i32 7), !dbg !5226
  %16 = bitcast %"class.altered_carbon::js::ACLexRegexToken"* %14 to i32 (...)***, !dbg !5225
  store i32 (...)** bitcast (i8** getelementptr inbounds ({ [7 x i8*] }, { [7 x i8*] }* @_ZTVN14altered_carbon2js15ACLexRegexTokenE, i32 0, inrange i32 0, i32 2) to i32 (...)**), i32 (...)*** %16, align 8, !dbg !5225
  %17 = getelementptr inbounds %"class.altered_carbon::js::ACLexRegexToken", %"class.altered_carbon::js::ACLexRegexToken"* %14, i32 0, i32 1, !dbg !5227
  store %"class.std::__1::unique_ptr"* %17, %"class.std::__1::unique_ptr"** %12, align 8
  %18 = load %"class.std::__1::unique_ptr"*, %"class.std::__1::unique_ptr"** %12, align 8
  store %"class.std::__1::unique_ptr"* %18, %"class.std::__1::unique_ptr"** %10, align 8
  %19 = load %"class.std::__1::unique_ptr"*, %"class.std::__1::unique_ptr"** %10, align 8
  %20 = getelementptr inbounds %"class.std::__1::unique_ptr", %"class.std::__1::unique_ptr"* %19, i32 0, i32 0, !dbg !5228
  store %"class.altered_carbon::js::ACLexRegex"* null, %"class.altered_carbon::js::ACLexRegex"** %11, align 8, !dbg !5229
  store %"class.std::__1::__compressed_pair.3"* %20, %"class.std::__1::__compressed_pair.3"** %8, align 8
  store %"class.altered_carbon::js::ACLexRegex"** %11, %"class.altered_carbon::js::ACLexRegex"*** %9, align 8
  %21 = load %"class.std::__1::__compressed_pair.3"*, %"class.std::__1::__compressed_pair.3"** %8, align 8
  %22 = load %"class.altered_carbon::js::ACLexRegex"**, %"class.altered_carbon::js::ACLexRegex"*** %9, align 8, !dbg !5230
  store %"class.std::__1::__compressed_pair.3"* %21, %"class.std::__1::__compressed_pair.3"** %6, align 8
  store %"class.altered_carbon::js::ACLexRegex"** %22, %"class.altered_carbon::js::ACLexRegex"*** %7, align 8
  %23 = load %"class.std::__1::__compressed_pair.3"*, %"class.std::__1::__compressed_pair.3"** %6, align 8
  %24 = bitcast %"class.std::__1::__compressed_pair.3"* %23 to %"struct.std::__1::__compressed_pair_elem.4"*, !dbg !5231
  %25 = load %"class.altered_carbon::js::ACLexRegex"**, %"class.altered_carbon::js::ACLexRegex"*** %7, align 8, !dbg !5232
  store %"class.altered_carbon::js::ACLexRegex"** %25, %"class.altered_carbon::js::ACLexRegex"*** %5, align 8
  %26 = load %"class.altered_carbon::js::ACLexRegex"**, %"class.altered_carbon::js::ACLexRegex"*** %5, align 8, !dbg !5233
  store %"struct.std::__1::__compressed_pair_elem.4"* %24, %"struct.std::__1::__compressed_pair_elem.4"** %3, align 8
  store %"class.altered_carbon::js::ACLexRegex"** %26, %"class.altered_carbon::js::ACLexRegex"*** %4, align 8
  %27 = load %"struct.std::__1::__compressed_pair_elem.4"*, %"struct.std::__1::__compressed_pair_elem.4"** %3, align 8
  %28 = getelementptr inbounds %"struct.std::__1::__compressed_pair_elem.4", %"struct.std::__1::__compressed_pair_elem.4"* %27, i32 0, i32 0, !dbg !5234
  %29 = load %"class.altered_carbon::js::ACLexRegex"**, %"class.altered_carbon::js::ACLexRegex"*** %4, align 8, !dbg !5235
  store %"class.altered_carbon::js::ACLexRegex"** %29, %"class.altered_carbon::js::ACLexRegex"*** %2, align 8
  %30 = load %"class.altered_carbon::js::ACLexRegex"**, %"class.altered_carbon::js::ACLexRegex"*** %2, align 8, !dbg !5236
  %31 = load %"class.altered_carbon::js::ACLexRegex"*, %"class.altered_carbon::js::ACLexRegex"** %30, align 8, !dbg !5237
  store %"class.altered_carbon::js::ACLexRegex"* %31, %"class.altered_carbon::js::ACLexRegex"** %28, align 8, !dbg !5234
  %32 = bitcast %"class.std::__1::__compressed_pair.3"* %23 to %"struct.std::__1::__compressed_pair_elem.13"*, !dbg !5231
  ret void, !dbg !5238
}

; Function Attrs: noinline nounwind optnone ssp uwtable
define void @_ZN14altered_carbon2js15ACLexRegexTokenC1Ev(%"class.altered_carbon::js::ACLexRegexToken"*) unnamed_addr #0 align 2 !dbg !5239 {
  %2 = alloca %"class.altered_carbon::js::ACLexRegexToken"*, align 8
  store %"class.altered_carbon::js::ACLexRegexToken"* %0, %"class.altered_carbon::js::ACLexRegexToken"** %2, align 8
  call void @llvm.dbg.declare(metadata %"class.altered_carbon::js::ACLexRegexToken"** %2, metadata !5240, metadata !DIExpression()), !dbg !5241
  %3 = load %"class.altered_carbon::js::ACLexRegexToken"*, %"class.altered_carbon::js::ACLexRegexToken"** %2, align 8
  call void @_ZN14altered_carbon2js15ACLexRegexTokenC2Ev(%"class.altered_carbon::js::ACLexRegexToken"* %3), !dbg !5242
  ret void, !dbg !5243
}

; Function Attrs: noinline nounwind optnone ssp uwtable
define void @_ZN14altered_carbon2js15ACLexRegexTokenC2EmNSt3__117basic_string_viewIcNS2_11char_traitsIcEEEERNS0_13ACLexPositionENS2_10unique_ptrINS0_10ACLexRegexENS2_14default_deleteISA_EEEE(%"class.altered_carbon::js::ACLexRegexToken"*, i64, i8*, i64, %"struct.altered_carbon::js::ACLexPosition"* dereferenceable(32), %"class.std::__1::unique_ptr"*) unnamed_addr #0 align 2 !dbg !5244 {
  %7 = alloca %"struct.std::__1::__compressed_pair_elem.13"*, align 8
  call void @llvm.dbg.declare(metadata %"struct.std::__1::__compressed_pair_elem.13"** %7, metadata !5245, metadata !DIExpression()), !dbg !5248
  %8 = alloca %"class.std::__1::__compressed_pair.3"*, align 8
  call void @llvm.dbg.declare(metadata %"class.std::__1::__compressed_pair.3"** %8, metadata !5258, metadata !DIExpression()), !dbg !5259
  %9 = alloca %"class.std::__1::unique_ptr"*, align 8
  call void @llvm.dbg.declare(metadata %"class.std::__1::unique_ptr"** %9, metadata !5260, metadata !DIExpression()), !dbg !5261
  %10 = alloca %"struct.std::__1::default_delete"*, align 8
  call void @llvm.dbg.declare(metadata %"struct.std::__1::default_delete"** %10, metadata !5262, metadata !DIExpression()), !dbg !5271
  %11 = alloca %"class.altered_carbon::js::ACLexRegex"**, align 8
  call void @llvm.dbg.declare(metadata %"class.altered_carbon::js::ACLexRegex"*** %11, metadata !5170, metadata !DIExpression()), !dbg !5273
  %12 = alloca %"struct.std::__1::__compressed_pair_elem.4"*, align 8
  call void @llvm.dbg.declare(metadata %"struct.std::__1::__compressed_pair_elem.4"** %12, metadata !5201, metadata !DIExpression()), !dbg !5286
  %13 = alloca %"class.altered_carbon::js::ACLexRegex"**, align 8
  call void @llvm.dbg.declare(metadata %"class.altered_carbon::js::ACLexRegex"*** %13, metadata !5204, metadata !DIExpression()), !dbg !5287
  %14 = alloca %"struct.std::__1::default_delete"*, align 8
  call void @llvm.dbg.declare(metadata %"struct.std::__1::default_delete"** %14, metadata !5262, metadata !DIExpression()), !dbg !5288
  %15 = alloca %"struct.std::__1::default_delete"*, align 8
  call void @llvm.dbg.declare(metadata %"struct.std::__1::default_delete"** %15, metadata !5262, metadata !DIExpression()), !dbg !5290
  %16 = alloca %"struct.std::__1::__compressed_pair_elem.13"*, align 8
  call void @llvm.dbg.declare(metadata %"struct.std::__1::__compressed_pair_elem.13"** %16, metadata !5299, metadata !DIExpression()), !dbg !5300
  %17 = alloca %"struct.std::__1::default_delete"*, align 8
  call void @llvm.dbg.declare(metadata %"struct.std::__1::default_delete"** %17, metadata !5301, metadata !DIExpression()), !dbg !5302
  %18 = alloca %"class.altered_carbon::js::ACLexRegex"**, align 8
  call void @llvm.dbg.declare(metadata %"class.altered_carbon::js::ACLexRegex"*** %18, metadata !5170, metadata !DIExpression()), !dbg !5303
  %19 = alloca %"class.std::__1::__compressed_pair.3"*, align 8
  call void @llvm.dbg.declare(metadata %"class.std::__1::__compressed_pair.3"** %19, metadata !5305, metadata !DIExpression()), !dbg !5306
  %20 = alloca %"class.altered_carbon::js::ACLexRegex"**, align 8
  call void @llvm.dbg.declare(metadata %"class.altered_carbon::js::ACLexRegex"*** %20, metadata !5307, metadata !DIExpression()), !dbg !5308
  %21 = alloca %"struct.std::__1::default_delete"*, align 8
  call void @llvm.dbg.declare(metadata %"struct.std::__1::default_delete"** %21, metadata !5309, metadata !DIExpression()), !dbg !5310
  %22 = alloca %"class.std::__1::__compressed_pair.3"*, align 8
  call void @llvm.dbg.declare(metadata %"class.std::__1::__compressed_pair.3"** %22, metadata !5311, metadata !DIExpression()), !dbg !5312
  %23 = alloca %"class.altered_carbon::js::ACLexRegex"**, align 8
  call void @llvm.dbg.declare(metadata %"class.altered_carbon::js::ACLexRegex"*** %23, metadata !5313, metadata !DIExpression()), !dbg !5314
  %24 = alloca %"struct.std::__1::default_delete"*, align 8
  call void @llvm.dbg.declare(metadata %"struct.std::__1::default_delete"** %24, metadata !5315, metadata !DIExpression()), !dbg !5316
  %25 = alloca %"struct.std::__1::__compressed_pair_elem.4"*, align 8
  call void @llvm.dbg.declare(metadata %"struct.std::__1::__compressed_pair_elem.4"** %25, metadata !5317, metadata !DIExpression()), !dbg !5319
  %26 = alloca %"class.std::__1::__compressed_pair.3"*, align 8
  call void @llvm.dbg.declare(metadata %"class.std::__1::__compressed_pair.3"** %26, metadata !5325, metadata !DIExpression()), !dbg !5326
  %27 = alloca %"struct.std::__1::__compressed_pair_elem.4"*, align 8
  call void @llvm.dbg.declare(metadata %"struct.std::__1::__compressed_pair_elem.4"** %27, metadata !5317, metadata !DIExpression()), !dbg !5327
  %28 = alloca %"class.std::__1::__compressed_pair.3"*, align 8
  call void @llvm.dbg.declare(metadata %"class.std::__1::__compressed_pair.3"** %28, metadata !5325, metadata !DIExpression()), !dbg !5330
  %29 = alloca %"class.std::__1::unique_ptr"*, align 8
  call void @llvm.dbg.declare(metadata %"class.std::__1::unique_ptr"** %29, metadata !5331, metadata !DIExpression()), !dbg !5332
  %30 = alloca %"class.altered_carbon::js::ACLexRegex"*, align 8
  call void @llvm.dbg.declare(metadata %"class.altered_carbon::js::ACLexRegex"** %30, metadata !5333, metadata !DIExpression()), !dbg !5334
  %31 = alloca %"class.std::__1::unique_ptr"*, align 8
  call void @llvm.dbg.declare(metadata %"class.std::__1::unique_ptr"** %31, metadata !5335, metadata !DIExpression()), !dbg !5336
  %32 = alloca %"class.std::__1::unique_ptr"*, align 8
  call void @llvm.dbg.declare(metadata %"class.std::__1::unique_ptr"** %32, metadata !5337, metadata !DIExpression()), !dbg !5338
  %33 = alloca %"class.altered_carbon::js::ACLexRegex"*, align 8
  %34 = alloca %"class.std::__1::unique_ptr"*, align 8
  call void @llvm.dbg.declare(metadata %"class.std::__1::unique_ptr"** %34, metadata !5339, metadata !DIExpression()), !dbg !5340
  %35 = alloca %"class.std::__1::unique_ptr"*, align 8
  call void @llvm.dbg.declare(metadata %"class.std::__1::unique_ptr"** %35, metadata !5341, metadata !DIExpression()), !dbg !5342
  %36 = alloca %"class.std::__1::unique_ptr"*, align 8
  call void @llvm.dbg.declare(metadata %"class.std::__1::unique_ptr"** %36, metadata !5343, metadata !DIExpression()), !dbg !5352
  %37 = alloca %"class.std::__1::basic_string_view", align 8
  %38 = alloca %"class.altered_carbon::js::ACLexRegexToken"*, align 8
  %39 = alloca i64, align 8
  %40 = alloca %"struct.altered_carbon::js::ACLexPosition"*, align 8
  %41 = alloca %"class.std::__1::basic_string_view", align 8
  %42 = bitcast %"class.std::__1::basic_string_view"* %37 to { i8*, i64 }*
  %43 = getelementptr inbounds { i8*, i64 }, { i8*, i64 }* %42, i32 0, i32 0
  store i8* %2, i8** %43, align 8
  %44 = getelementptr inbounds { i8*, i64 }, { i8*, i64 }* %42, i32 0, i32 1
  store i64 %3, i64* %44, align 8
  store %"class.altered_carbon::js::ACLexRegexToken"* %0, %"class.altered_carbon::js::ACLexRegexToken"** %38, align 8
  call void @llvm.dbg.declare(metadata %"class.altered_carbon::js::ACLexRegexToken"** %38, metadata !5354, metadata !DIExpression()), !dbg !5355
  store i64 %1, i64* %39, align 8
  call void @llvm.dbg.declare(metadata i64* %39, metadata !5356, metadata !DIExpression()), !dbg !5357
  call void @llvm.dbg.declare(metadata %"class.std::__1::basic_string_view"* %37, metadata !5358, metadata !DIExpression()), !dbg !5359
  store %"struct.altered_carbon::js::ACLexPosition"* %4, %"struct.altered_carbon::js::ACLexPosition"** %40, align 8
  call void @llvm.dbg.declare(metadata %"struct.altered_carbon::js::ACLexPosition"** %40, metadata !5360, metadata !DIExpression()), !dbg !5361
  call void @llvm.dbg.declare(metadata %"class.std::__1::unique_ptr"* %5, metadata !5362, metadata !DIExpression()), !dbg !5363
  %45 = load %"class.altered_carbon::js::ACLexRegexToken"*, %"class.altered_carbon::js::ACLexRegexToken"** %38, align 8
  %46 = bitcast %"class.altered_carbon::js::ACLexRegexToken"* %45 to %"class.altered_carbon::js::ACLexToken"*, !dbg !5364
  %47 = load i64, i64* %39, align 8, !dbg !5365
  %48 = bitcast %"class.std::__1::basic_string_view"* %41 to i8*, !dbg !5366
  %49 = bitcast %"class.std::__1::basic_string_view"* %37 to i8*, !dbg !5366
  call void @llvm.memcpy.p0i8.p0i8.i64(i8* align 8 %48, i8* align 8 %49, i64 16, i1 false), !dbg !5366
  %50 = load %"struct.altered_carbon::js::ACLexPosition"*, %"struct.altered_carbon::js::ACLexPosition"** %40, align 8, !dbg !5367
  %51 = bitcast %"class.std::__1::basic_string_view"* %41 to { i8*, i64 }*, !dbg !5368
  %52 = getelementptr inbounds { i8*, i64 }, { i8*, i64 }* %51, i32 0, i32 0, !dbg !5368
  %53 = load i8*, i8** %52, align 8, !dbg !5368
  %54 = getelementptr inbounds { i8*, i64 }, { i8*, i64 }* %51, i32 0, i32 1, !dbg !5368
  %55 = load i64, i64* %54, align 8, !dbg !5368
  call void @_ZN14altered_carbon2js10ACLexTokenC2ENS0_14ACLexTokenTypeEmNSt3__117basic_string_viewIcNS3_11char_traitsIcEEEERNS0_13ACLexPositionE(%"class.altered_carbon::js::ACLexToken"* %46, i32 7, i64 %47, i8* %53, i64 %55, %"struct.altered_carbon::js::ACLexPosition"* dereferenceable(32) %50), !dbg !5368
  %56 = bitcast %"class.altered_carbon::js::ACLexRegexToken"* %45 to i32 (...)***, !dbg !5364
  store i32 (...)** bitcast (i8** getelementptr inbounds ({ [7 x i8*] }, { [7 x i8*] }* @_ZTVN14altered_carbon2js15ACLexRegexTokenE, i32 0, inrange i32 0, i32 2) to i32 (...)**), i32 (...)*** %56, align 8, !dbg !5364
  %57 = getelementptr inbounds %"class.altered_carbon::js::ACLexRegexToken", %"class.altered_carbon::js::ACLexRegexToken"* %45, i32 0, i32 1, !dbg !5369
  store %"class.std::__1::unique_ptr"* %5, %"class.std::__1::unique_ptr"** %36, align 8
  %58 = load %"class.std::__1::unique_ptr"*, %"class.std::__1::unique_ptr"** %36, align 8, !dbg !5370
  store %"class.std::__1::unique_ptr"* %57, %"class.std::__1::unique_ptr"** %34, align 8
  store %"class.std::__1::unique_ptr"* %58, %"class.std::__1::unique_ptr"** %35, align 8
  %59 = load %"class.std::__1::unique_ptr"*, %"class.std::__1::unique_ptr"** %34, align 8
  %60 = load %"class.std::__1::unique_ptr"*, %"class.std::__1::unique_ptr"** %35, align 8, !dbg !5371
  store %"class.std::__1::unique_ptr"* %59, %"class.std::__1::unique_ptr"** %31, align 8
  store %"class.std::__1::unique_ptr"* %60, %"class.std::__1::unique_ptr"** %32, align 8
  %61 = load %"class.std::__1::unique_ptr"*, %"class.std::__1::unique_ptr"** %31, align 8
  %62 = getelementptr inbounds %"class.std::__1::unique_ptr", %"class.std::__1::unique_ptr"* %61, i32 0, i32 0, !dbg !5372
  %63 = load %"class.std::__1::unique_ptr"*, %"class.std::__1::unique_ptr"** %32, align 8, !dbg !5373
  store %"class.std::__1::unique_ptr"* %63, %"class.std::__1::unique_ptr"** %29, align 8
  %64 = load %"class.std::__1::unique_ptr"*, %"class.std::__1::unique_ptr"** %29, align 8
  %65 = getelementptr inbounds %"class.std::__1::unique_ptr", %"class.std::__1::unique_ptr"* %64, i32 0, i32 0, !dbg !5374
  store %"class.std::__1::__compressed_pair.3"* %65, %"class.std::__1::__compressed_pair.3"** %28, align 8
  %66 = load %"class.std::__1::__compressed_pair.3"*, %"class.std::__1::__compressed_pair.3"** %28, align 8
  %67 = bitcast %"class.std::__1::__compressed_pair.3"* %66 to %"struct.std::__1::__compressed_pair_elem.4"*, !dbg !5375
  store %"struct.std::__1::__compressed_pair_elem.4"* %67, %"struct.std::__1::__compressed_pair_elem.4"** %27, align 8
  %68 = load %"struct.std::__1::__compressed_pair_elem.4"*, %"struct.std::__1::__compressed_pair_elem.4"** %27, align 8
  %69 = getelementptr inbounds %"struct.std::__1::__compressed_pair_elem.4", %"struct.std::__1::__compressed_pair_elem.4"* %68, i32 0, i32 0, !dbg !5376
  %70 = load %"class.altered_carbon::js::ACLexRegex"*, %"class.altered_carbon::js::ACLexRegex"** %69, align 8, !dbg !5377
  store %"class.altered_carbon::js::ACLexRegex"* %70, %"class.altered_carbon::js::ACLexRegex"** %30, align 8, !dbg !5334
  %71 = getelementptr inbounds %"class.std::__1::unique_ptr", %"class.std::__1::unique_ptr"* %64, i32 0, i32 0, !dbg !5378
  store %"class.std::__1::__compressed_pair.3"* %71, %"class.std::__1::__compressed_pair.3"** %26, align 8
  %72 = load %"class.std::__1::__compressed_pair.3"*, %"class.std::__1::__compressed_pair.3"** %26, align 8
  %73 = bitcast %"class.std::__1::__compressed_pair.3"* %72 to %"struct.std::__1::__compressed_pair_elem.4"*, !dbg !5379
  store %"struct.std::__1::__compressed_pair_elem.4"* %73, %"struct.std::__1::__compressed_pair_elem.4"** %25, align 8
  %74 = load %"struct.std::__1::__compressed_pair_elem.4"*, %"struct.std::__1::__compressed_pair_elem.4"** %25, align 8
  %75 = getelementptr inbounds %"struct.std::__1::__compressed_pair_elem.4", %"struct.std::__1::__compressed_pair_elem.4"* %74, i32 0, i32 0, !dbg !5380
  store %"class.altered_carbon::js::ACLexRegex"* null, %"class.altered_carbon::js::ACLexRegex"** %75, align 8, !dbg !5381
  %76 = load %"class.altered_carbon::js::ACLexRegex"*, %"class.altered_carbon::js::ACLexRegex"** %30, align 8, !dbg !5382
  store %"class.altered_carbon::js::ACLexRegex"* %76, %"class.altered_carbon::js::ACLexRegex"** %33, align 8, !dbg !5373
  %77 = load %"class.std::__1::unique_ptr"*, %"class.std::__1::unique_ptr"** %32, align 8, !dbg !5383
  store %"class.std::__1::unique_ptr"* %77, %"class.std::__1::unique_ptr"** %9, align 8
  %78 = load %"class.std::__1::unique_ptr"*, %"class.std::__1::unique_ptr"** %9, align 8
  %79 = getelementptr inbounds %"class.std::__1::unique_ptr", %"class.std::__1::unique_ptr"* %78, i32 0, i32 0, !dbg !5384
  store %"class.std::__1::__compressed_pair.3"* %79, %"class.std::__1::__compressed_pair.3"** %8, align 8
  %80 = load %"class.std::__1::__compressed_pair.3"*, %"class.std::__1::__compressed_pair.3"** %8, align 8
  %81 = bitcast %"class.std::__1::__compressed_pair.3"* %80 to %"struct.std::__1::__compressed_pair_elem.13"*, !dbg !5385
  store %"struct.std::__1::__compressed_pair_elem.13"* %81, %"struct.std::__1::__compressed_pair_elem.13"** %7, align 8
  %82 = load %"struct.std::__1::__compressed_pair_elem.13"*, %"struct.std::__1::__compressed_pair_elem.13"** %7, align 8
  %83 = bitcast %"struct.std::__1::__compressed_pair_elem.13"* %82 to %"struct.std::__1::default_delete"*, !dbg !5386
  store %"struct.std::__1::default_delete"* %83, %"struct.std::__1::default_delete"** %10, align 8
  %84 = load %"struct.std::__1::default_delete"*, %"struct.std::__1::default_delete"** %10, align 8, !dbg !5387
  store %"class.std::__1::__compressed_pair.3"* %62, %"class.std::__1::__compressed_pair.3"** %22, align 8
  store %"class.altered_carbon::js::ACLexRegex"** %33, %"class.altered_carbon::js::ACLexRegex"*** %23, align 8
  store %"struct.std::__1::default_delete"* %84, %"struct.std::__1::default_delete"** %24, align 8
  %85 = load %"class.std::__1::__compressed_pair.3"*, %"class.std::__1::__compressed_pair.3"** %22, align 8
  %86 = load %"class.altered_carbon::js::ACLexRegex"**, %"class.altered_carbon::js::ACLexRegex"*** %23, align 8, !dbg !5388
  %87 = load %"struct.std::__1::default_delete"*, %"struct.std::__1::default_delete"** %24, align 8, !dbg !5388
  store %"class.std::__1::__compressed_pair.3"* %85, %"class.std::__1::__compressed_pair.3"** %19, align 8
  store %"class.altered_carbon::js::ACLexRegex"** %86, %"class.altered_carbon::js::ACLexRegex"*** %20, align 8
  store %"struct.std::__1::default_delete"* %87, %"struct.std::__1::default_delete"** %21, align 8
  %88 = load %"class.std::__1::__compressed_pair.3"*, %"class.std::__1::__compressed_pair.3"** %19, align 8
  %89 = bitcast %"class.std::__1::__compressed_pair.3"* %88 to %"struct.std::__1::__compressed_pair_elem.4"*, !dbg !5389
  %90 = load %"class.altered_carbon::js::ACLexRegex"**, %"class.altered_carbon::js::ACLexRegex"*** %20, align 8, !dbg !5390
  store %"class.altered_carbon::js::ACLexRegex"** %90, %"class.altered_carbon::js::ACLexRegex"*** %18, align 8
  %91 = load %"class.altered_carbon::js::ACLexRegex"**, %"class.altered_carbon::js::ACLexRegex"*** %18, align 8, !dbg !5391
  store %"struct.std::__1::__compressed_pair_elem.4"* %89, %"struct.std::__1::__compressed_pair_elem.4"** %12, align 8
  store %"class.altered_carbon::js::ACLexRegex"** %91, %"class.altered_carbon::js::ACLexRegex"*** %13, align 8
  %92 = load %"struct.std::__1::__compressed_pair_elem.4"*, %"struct.std::__1::__compressed_pair_elem.4"** %12, align 8
  %93 = getelementptr inbounds %"struct.std::__1::__compressed_pair_elem.4", %"struct.std::__1::__compressed_pair_elem.4"* %92, i32 0, i32 0, !dbg !5392
  %94 = load %"class.altered_carbon::js::ACLexRegex"**, %"class.altered_carbon::js::ACLexRegex"*** %13, align 8, !dbg !5393
  store %"class.altered_carbon::js::ACLexRegex"** %94, %"class.altered_carbon::js::ACLexRegex"*** %11, align 8
  %95 = load %"class.altered_carbon::js::ACLexRegex"**, %"class.altered_carbon::js::ACLexRegex"*** %11, align 8, !dbg !5394
  %96 = load %"class.altered_carbon::js::ACLexRegex"*, %"class.altered_carbon::js::ACLexRegex"** %95, align 8, !dbg !5395
  store %"class.altered_carbon::js::ACLexRegex"* %96, %"class.altered_carbon::js::ACLexRegex"** %93, align 8, !dbg !5392
  %97 = bitcast %"class.std::__1::__compressed_pair.3"* %88 to %"struct.std::__1::__compressed_pair_elem.13"*, !dbg !5389
  %98 = load %"struct.std::__1::default_delete"*, %"struct.std::__1::default_delete"** %21, align 8, !dbg !5396
  store %"struct.std::__1::default_delete"* %98, %"struct.std::__1::default_delete"** %14, align 8
  %99 = load %"struct.std::__1::default_delete"*, %"struct.std::__1::default_delete"** %14, align 8, !dbg !5397
  store %"struct.std::__1::__compressed_pair_elem.13"* %97, %"struct.std::__1::__compressed_pair_elem.13"** %16, align 8
  store %"struct.std::__1::default_delete"* %99, %"struct.std::__1::default_delete"** %17, align 8
  %100 = load %"struct.std::__1::__compressed_pair_elem.13"*, %"struct.std::__1::__compressed_pair_elem.13"** %16, align 8
  %101 = bitcast %"struct.std::__1::__compressed_pair_elem.13"* %100 to %"struct.std::__1::default_delete"*, !dbg !5398
  %102 = load %"struct.std::__1::default_delete"*, %"struct.std::__1::default_delete"** %17, align 8, !dbg !5399
  store %"struct.std::__1::default_delete"* %102, %"struct.std::__1::default_delete"** %15, align 8
  %103 = load %"struct.std::__1::default_delete"*, %"struct.std::__1::default_delete"** %15, align 8, !dbg !5400
  ret void, !dbg !5401
}

; Function Attrs: noinline nounwind optnone ssp uwtable
define void @_ZN14altered_carbon2js15ACLexRegexTokenC1EmNSt3__117basic_string_viewIcNS2_11char_traitsIcEEEERNS0_13ACLexPositionENS2_10unique_ptrINS0_10ACLexRegexENS2_14default_deleteISA_EEEE(%"class.altered_carbon::js::ACLexRegexToken"*, i64, i8*, i64, %"struct.altered_carbon::js::ACLexPosition"* dereferenceable(32), %"class.std::__1::unique_ptr"*) unnamed_addr #0 align 2 !dbg !5402 {
  %7 = alloca %"class.std::__1::basic_string_view", align 8
  %8 = alloca %"class.altered_carbon::js::ACLexRegexToken"*, align 8
  %9 = alloca i64, align 8
  %10 = alloca %"struct.altered_carbon::js::ACLexPosition"*, align 8
  %11 = bitcast %"class.std::__1::basic_string_view"* %7 to { i8*, i64 }*
  %12 = getelementptr inbounds { i8*, i64 }, { i8*, i64 }* %11, i32 0, i32 0
  store i8* %2, i8** %12, align 8
  %13 = getelementptr inbounds { i8*, i64 }, { i8*, i64 }* %11, i32 0, i32 1
  store i64 %3, i64* %13, align 8
  store %"class.altered_carbon::js::ACLexRegexToken"* %0, %"class.altered_carbon::js::ACLexRegexToken"** %8, align 8
  call void @llvm.dbg.declare(metadata %"class.altered_carbon::js::ACLexRegexToken"** %8, metadata !5403, metadata !DIExpression()), !dbg !5404
  store i64 %1, i64* %9, align 8
  call void @llvm.dbg.declare(metadata i64* %9, metadata !5405, metadata !DIExpression()), !dbg !5406
  call void @llvm.dbg.declare(metadata %"class.std::__1::basic_string_view"* %7, metadata !5407, metadata !DIExpression()), !dbg !5408
  store %"struct.altered_carbon::js::ACLexPosition"* %4, %"struct.altered_carbon::js::ACLexPosition"** %10, align 8
  call void @llvm.dbg.declare(metadata %"struct.altered_carbon::js::ACLexPosition"** %10, metadata !5409, metadata !DIExpression()), !dbg !5410
  call void @llvm.dbg.declare(metadata %"class.std::__1::unique_ptr"* %5, metadata !5411, metadata !DIExpression()), !dbg !5412
  %14 = load %"class.altered_carbon::js::ACLexRegexToken"*, %"class.altered_carbon::js::ACLexRegexToken"** %8, align 8
  %15 = load i64, i64* %9, align 8, !dbg !5413
  %16 = load %"struct.altered_carbon::js::ACLexPosition"*, %"struct.altered_carbon::js::ACLexPosition"** %10, align 8, !dbg !5413
  %17 = bitcast %"class.std::__1::basic_string_view"* %7 to { i8*, i64 }*, !dbg !5413
  %18 = getelementptr inbounds { i8*, i64 }, { i8*, i64 }* %17, i32 0, i32 0, !dbg !5413
  %19 = load i8*, i8** %18, align 8, !dbg !5413
  %20 = getelementptr inbounds { i8*, i64 }, { i8*, i64 }* %17, i32 0, i32 1, !dbg !5413
  %21 = load i64, i64* %20, align 8, !dbg !5413
  call void @_ZN14altered_carbon2js15ACLexRegexTokenC2EmNSt3__117basic_string_viewIcNS2_11char_traitsIcEEEERNS0_13ACLexPositionENS2_10unique_ptrINS0_10ACLexRegexENS2_14default_deleteISA_EEEE(%"class.altered_carbon::js::ACLexRegexToken"* %14, i64 %15, i8* %19, i64 %21, %"struct.altered_carbon::js::ACLexPosition"* dereferenceable(32) %16, %"class.std::__1::unique_ptr"* %5), !dbg !5413
  ret void, !dbg !5414
}

; Function Attrs: noinline nounwind optnone ssp uwtable
define void @_ZNK14altered_carbon2js15ACLexRegexToken4dumpERNSt3__113basic_ostreamIcNS2_11char_traitsIcEEEE(%"class.altered_carbon::js::ACLexRegexToken"*, %"class.std::__1::basic_ostream"* dereferenceable(160)) unnamed_addr #0 align 2 !dbg !5415 {
  %3 = alloca %"struct.std::__1::__compressed_pair_elem.4"*, align 8
  call void @llvm.dbg.declare(metadata %"struct.std::__1::__compressed_pair_elem.4"** %3, metadata !5416, metadata !DIExpression()), !dbg !5419
  %4 = alloca %"class.std::__1::__compressed_pair.3"*, align 8
  call void @llvm.dbg.declare(metadata %"class.std::__1::__compressed_pair.3"** %4, metadata !5427, metadata !DIExpression()), !dbg !5429
  %5 = alloca %"class.std::__1::unique_ptr"*, align 8
  call void @llvm.dbg.declare(metadata %"class.std::__1::unique_ptr"** %5, metadata !5430, metadata !DIExpression()), !dbg !5432
  %6 = alloca %"struct.std::__1::__compressed_pair_elem.4"*, align 8
  call void @llvm.dbg.declare(metadata %"struct.std::__1::__compressed_pair_elem.4"** %6, metadata !5416, metadata !DIExpression()), !dbg !5433
  %7 = alloca %"class.std::__1::__compressed_pair.3"*, align 8
  call void @llvm.dbg.declare(metadata %"class.std::__1::__compressed_pair.3"** %7, metadata !5427, metadata !DIExpression()), !dbg !5438
  %8 = alloca %"class.std::__1::unique_ptr"*, align 8
  call void @llvm.dbg.declare(metadata %"class.std::__1::unique_ptr"** %8, metadata !5439, metadata !DIExpression()), !dbg !5440
  %9 = alloca %"class.altered_carbon::js::ACLexRegexToken"*, align 8
  %10 = alloca %"class.std::__1::basic_ostream"*, align 8
  %11 = alloca %"class.std::__1::basic_string_view", align 8
  store %"class.altered_carbon::js::ACLexRegexToken"* %0, %"class.altered_carbon::js::ACLexRegexToken"** %9, align 8
  call void @llvm.dbg.declare(metadata %"class.altered_carbon::js::ACLexRegexToken"** %9, metadata !5441, metadata !DIExpression()), !dbg !5443
  store %"class.std::__1::basic_ostream"* %1, %"class.std::__1::basic_ostream"** %10, align 8
  call void @llvm.dbg.declare(metadata %"class.std::__1::basic_ostream"** %10, metadata !5444, metadata !DIExpression()), !dbg !5445
  %12 = load %"class.altered_carbon::js::ACLexRegexToken"*, %"class.altered_carbon::js::ACLexRegexToken"** %9, align 8
  %13 = load %"class.std::__1::basic_ostream"*, %"class.std::__1::basic_ostream"** %10, align 8, !dbg !5446
  %14 = call dereferenceable(160) %"class.std::__1::basic_ostream"* @_ZNSt3__1lsINS_11char_traitsIcEEEERNS_13basic_ostreamIcT_EES6_PKc(%"class.std::__1::basic_ostream"* dereferenceable(160) %13, i8* getelementptr inbounds ([7 x i8], [7 x i8]* @.str.127, i32 0, i32 0)), !dbg !5447
  %15 = bitcast %"class.altered_carbon::js::ACLexRegexToken"* %12 to %"class.altered_carbon::js::ACLexToken"*, !dbg !5448
  %16 = getelementptr inbounds %"class.altered_carbon::js::ACLexToken", %"class.altered_carbon::js::ACLexToken"* %15, i32 0, i32 1, !dbg !5448
  %17 = load i32, i32* %16, align 8, !dbg !5448
  %18 = call dereferenceable(160) %"class.std::__1::basic_ostream"* @_ZNSt3__113basic_ostreamIcNS_11char_traitsIcEEElsEi(%"class.std::__1::basic_ostream"* %14, i32 %17), !dbg !5449
  %19 = call dereferenceable(160) %"class.std::__1::basic_ostream"* @_ZNSt3__1lsINS_11char_traitsIcEEEERNS_13basic_ostreamIcT_EES6_PKc(%"class.std::__1::basic_ostream"* dereferenceable(160) %18, i8* getelementptr inbounds ([3 x i8], [3 x i8]* @.str.128, i32 0, i32 0)), !dbg !5450
  %20 = bitcast %"class.altered_carbon::js::ACLexRegexToken"* %12 to %"class.altered_carbon::js::ACLexToken"*, !dbg !5451
  %21 = getelementptr inbounds %"class.altered_carbon::js::ACLexToken", %"class.altered_carbon::js::ACLexToken"* %20, i32 0, i32 1, !dbg !5451
  %22 = load i32, i32* %21, align 8, !dbg !5451
  %23 = zext i32 %22 to i64, !dbg !5452
  %24 = getelementptr inbounds [258 x i8*], [258 x i8*]* @_ZN14altered_carbon2js10ACLexToken11TOKEN_NAMESE, i64 0, i64 %23, !dbg !5452
  %25 = load i8*, i8** %24, align 8, !dbg !5452
  %26 = call dereferenceable(160) %"class.std::__1::basic_ostream"* @_ZNSt3__1lsINS_11char_traitsIcEEEERNS_13basic_ostreamIcT_EES6_PKc(%"class.std::__1::basic_ostream"* dereferenceable(160) %19, i8* %25), !dbg !5453
  %27 = call dereferenceable(160) %"class.std::__1::basic_ostream"* @_ZNSt3__1lsINS_11char_traitsIcEEEERNS_13basic_ostreamIcT_EES6_PKc(%"class.std::__1::basic_ostream"* dereferenceable(160) %26, i8* getelementptr inbounds ([7 x i8], [7 x i8]* @.str.129, i32 0, i32 0)), !dbg !5454
  %28 = bitcast %"class.altered_carbon::js::ACLexRegexToken"* %12 to %"class.altered_carbon::js::ACLexToken"*, !dbg !5455
  %29 = getelementptr inbounds %"class.altered_carbon::js::ACLexToken", %"class.altered_carbon::js::ACLexToken"* %28, i32 0, i32 4, !dbg !5455
  %30 = call dereferenceable(160) %"class.std::__1::basic_ostream"* @_ZN14altered_carbon2jslsERNSt3__113basic_ostreamIcNS1_11char_traitsIcEEEERKNS0_13ACLexPositionE(%"class.std::__1::basic_ostream"* dereferenceable(160) %27, %"struct.altered_carbon::js::ACLexPosition"* dereferenceable(32) %29), !dbg !5456
  %31 = call dereferenceable(160) %"class.std::__1::basic_ostream"* @_ZNSt3__1lsINS_11char_traitsIcEEEERNS_13basic_ostreamIcT_EES6_PKc(%"class.std::__1::basic_ostream"* dereferenceable(160) %30, i8* getelementptr inbounds ([7 x i8], [7 x i8]* @.str.130, i32 0, i32 0)), !dbg !5457
  %32 = bitcast %"class.altered_carbon::js::ACLexRegexToken"* %12 to %"class.altered_carbon::js::ACLexToken"*, !dbg !5458
  %33 = getelementptr inbounds %"class.altered_carbon::js::ACLexToken", %"class.altered_carbon::js::ACLexToken"* %32, i32 0, i32 2, !dbg !5458
  %34 = load i64, i64* %33, align 8, !dbg !5458
  %35 = call dereferenceable(160) %"class.std::__1::basic_ostream"* @_ZNSt3__113basic_ostreamIcNS_11char_traitsIcEEElsEm(%"class.std::__1::basic_ostream"* %31, i64 %34), !dbg !5459
  %36 = call dereferenceable(160) %"class.std::__1::basic_ostream"* @_ZNSt3__1lsINS_11char_traitsIcEEEERNS_13basic_ostreamIcT_EES6_PKc(%"class.std::__1::basic_ostream"* dereferenceable(160) %35, i8* getelementptr inbounds ([4 x i8], [4 x i8]* @.str.131, i32 0, i32 0)), !dbg !5460
  %37 = bitcast %"class.altered_carbon::js::ACLexRegexToken"* %12 to %"class.altered_carbon::js::ACLexToken"*, !dbg !5461
  %38 = getelementptr inbounds %"class.altered_carbon::js::ACLexToken", %"class.altered_carbon::js::ACLexToken"* %37, i32 0, i32 3, !dbg !5461
  %39 = bitcast %"class.std::__1::basic_string_view"* %11 to i8*, !dbg !5461
  %40 = bitcast %"class.std::__1::basic_string_view"* %38 to i8*, !dbg !5461
  call void @llvm.memcpy.p0i8.p0i8.i64(i8* align 8 %39, i8* align 8 %40, i64 16, i1 false), !dbg !5461
  %41 = bitcast %"class.std::__1::basic_string_view"* %11 to { i8*, i64 }*, !dbg !5462
  %42 = getelementptr inbounds { i8*, i64 }, { i8*, i64 }* %41, i32 0, i32 0, !dbg !5462
  %43 = load i8*, i8** %42, align 8, !dbg !5462
  %44 = getelementptr inbounds { i8*, i64 }, { i8*, i64 }* %41, i32 0, i32 1, !dbg !5462
  %45 = load i64, i64* %44, align 8, !dbg !5462
  %46 = call dereferenceable(160) %"class.std::__1::basic_ostream"* @_ZNSt3__1lsIcNS_11char_traitsIcEEEERNS_13basic_ostreamIT_T0_EES7_NS_17basic_string_viewIS4_S5_EE(%"class.std::__1::basic_ostream"* dereferenceable(160) %36, i8* %43, i64 %45), !dbg !5462
  %47 = call dereferenceable(160) %"class.std::__1::basic_ostream"* @_ZNSt3__1lsINS_11char_traitsIcEEEERNS_13basic_ostreamIcT_EES6_PKc(%"class.std::__1::basic_ostream"* dereferenceable(160) %46, i8* getelementptr inbounds ([3 x i8], [3 x i8]* @.str.144, i32 0, i32 0)), !dbg !5463
  %48 = getelementptr inbounds %"class.altered_carbon::js::ACLexRegexToken", %"class.altered_carbon::js::ACLexRegexToken"* %12, i32 0, i32 1, !dbg !5464
  store %"class.std::__1::unique_ptr"* %48, %"class.std::__1::unique_ptr"** %8, align 8
  %49 = load %"class.std::__1::unique_ptr"*, %"class.std::__1::unique_ptr"** %8, align 8
  %50 = getelementptr inbounds %"class.std::__1::unique_ptr", %"class.std::__1::unique_ptr"* %49, i32 0, i32 0, !dbg !5465
  store %"class.std::__1::__compressed_pair.3"* %50, %"class.std::__1::__compressed_pair.3"** %7, align 8
  %51 = load %"class.std::__1::__compressed_pair.3"*, %"class.std::__1::__compressed_pair.3"** %7, align 8
  %52 = bitcast %"class.std::__1::__compressed_pair.3"* %51 to %"struct.std::__1::__compressed_pair_elem.4"*, !dbg !5466
  store %"struct.std::__1::__compressed_pair_elem.4"* %52, %"struct.std::__1::__compressed_pair_elem.4"** %6, align 8
  %53 = load %"struct.std::__1::__compressed_pair_elem.4"*, %"struct.std::__1::__compressed_pair_elem.4"** %6, align 8
  %54 = getelementptr inbounds %"struct.std::__1::__compressed_pair_elem.4", %"struct.std::__1::__compressed_pair_elem.4"* %53, i32 0, i32 0, !dbg !5467
  %55 = load %"class.altered_carbon::js::ACLexRegex"*, %"class.altered_carbon::js::ACLexRegex"** %54, align 8, !dbg !5468
  %56 = icmp ne %"class.altered_carbon::js::ACLexRegex"* %55, null, !dbg !5469
  br i1 %56, label %57, label %68, !dbg !5470

